ARM GAS  C:\usertemp\ccuz6VZa.s 			page 1


   1              		.cpu cortex-m7
   2              		.arch armv7e-m
   3              		.fpu fpv5-d16
   4              		.eabi_attribute 28, 1
   5              		.eabi_attribute 20, 1
   6              		.eabi_attribute 21, 1
   7              		.eabi_attribute 23, 3
   8              		.eabi_attribute 24, 1
   9              		.eabi_attribute 25, 1
  10              		.eabi_attribute 26, 1
  11              		.eabi_attribute 30, 1
  12              		.eabi_attribute 34, 1
  13              		.eabi_attribute 18, 4
  14              		.file	"api_msg.c"
  15              		.text
  16              	.Ltext0:
  17              		.cfi_sections	.debug_frame
  18              		.file 1 "Middlewares/Third_Party/LwIP/src/api/api_msg.c"
  19              		.section	.rodata.lwip_netconn_err_to_msg.str1.4,"aMS",%progbits,1
  20              		.align	2
  21              	.LC0:
  22 0000 4D696464 		.ascii	"Middlewares/Third_Party/LwIP/src/api/api_msg.c\000"
  22      6C657761 
  22      7265732F 
  22      54686972 
  22      645F5061 
  23 002f 00       		.align	2
  24              	.LC1:
  25 0030 756E6861 		.ascii	"unhandled error\000"
  25      6E646C65 
  25      64206572 
  25      726F7200 
  26              		.align	2
  27              	.LC2:
  28 0040 41737365 		.ascii	"Assertion \"%s\" failed at line %d in %s\012\000"
  28      7274696F 
  28      6E202225 
  28      73222066 
  28      61696C65 
  29              		.section	.text.lwip_netconn_err_to_msg,"ax",%progbits
  30              		.align	1
  31              		.syntax unified
  32              		.thumb
  33              		.thumb_func
  35              	lwip_netconn_err_to_msg:
  36              	.LVL0:
  37              	.LFB364:
   1:Middlewares/Third_Party/LwIP/src/api/api_msg.c **** /**
   2:Middlewares/Third_Party/LwIP/src/api/api_msg.c ****  * @file
   3:Middlewares/Third_Party/LwIP/src/api/api_msg.c ****  * Sequential API Internal module
   4:Middlewares/Third_Party/LwIP/src/api/api_msg.c ****  *
   5:Middlewares/Third_Party/LwIP/src/api/api_msg.c ****  */
   6:Middlewares/Third_Party/LwIP/src/api/api_msg.c **** 
   7:Middlewares/Third_Party/LwIP/src/api/api_msg.c **** /*
   8:Middlewares/Third_Party/LwIP/src/api/api_msg.c ****  * Copyright (c) 2001-2004 Swedish Institute of Computer Science.
   9:Middlewares/Third_Party/LwIP/src/api/api_msg.c ****  * All rights reserved.
  10:Middlewares/Third_Party/LwIP/src/api/api_msg.c ****  *
ARM GAS  C:\usertemp\ccuz6VZa.s 			page 2


  11:Middlewares/Third_Party/LwIP/src/api/api_msg.c ****  * Redistribution and use in source and binary forms, with or without modification,
  12:Middlewares/Third_Party/LwIP/src/api/api_msg.c ****  * are permitted provided that the following conditions are met:
  13:Middlewares/Third_Party/LwIP/src/api/api_msg.c ****  *
  14:Middlewares/Third_Party/LwIP/src/api/api_msg.c ****  * 1. Redistributions of source code must retain the above copyright notice,
  15:Middlewares/Third_Party/LwIP/src/api/api_msg.c ****  *    this list of conditions and the following disclaimer.
  16:Middlewares/Third_Party/LwIP/src/api/api_msg.c ****  * 2. Redistributions in binary form must reproduce the above copyright notice,
  17:Middlewares/Third_Party/LwIP/src/api/api_msg.c ****  *    this list of conditions and the following disclaimer in the documentation
  18:Middlewares/Third_Party/LwIP/src/api/api_msg.c ****  *    and/or other materials provided with the distribution.
  19:Middlewares/Third_Party/LwIP/src/api/api_msg.c ****  * 3. The name of the author may not be used to endorse or promote products
  20:Middlewares/Third_Party/LwIP/src/api/api_msg.c ****  *    derived from this software without specific prior written permission.
  21:Middlewares/Third_Party/LwIP/src/api/api_msg.c ****  *
  22:Middlewares/Third_Party/LwIP/src/api/api_msg.c ****  * THIS SOFTWARE IS PROVIDED BY THE AUTHOR ``AS IS'' AND ANY EXPRESS OR IMPLIED
  23:Middlewares/Third_Party/LwIP/src/api/api_msg.c ****  * WARRANTIES, INCLUDING, BUT NOT LIMITED TO, THE IMPLIED WARRANTIES OF
  24:Middlewares/Third_Party/LwIP/src/api/api_msg.c ****  * MERCHANTABILITY AND FITNESS FOR A PARTICULAR PURPOSE ARE DISCLAIMED. IN NO EVENT
  25:Middlewares/Third_Party/LwIP/src/api/api_msg.c ****  * SHALL THE AUTHOR BE LIABLE FOR ANY DIRECT, INDIRECT, INCIDENTAL, SPECIAL,
  26:Middlewares/Third_Party/LwIP/src/api/api_msg.c ****  * EXEMPLARY, OR CONSEQUENTIAL DAMAGES (INCLUDING, BUT NOT LIMITED TO, PROCUREMENT
  27:Middlewares/Third_Party/LwIP/src/api/api_msg.c ****  * OF SUBSTITUTE GOODS OR SERVICES; LOSS OF USE, DATA, OR PROFITS; OR BUSINESS
  28:Middlewares/Third_Party/LwIP/src/api/api_msg.c ****  * INTERRUPTION) HOWEVER CAUSED AND ON ANY THEORY OF LIABILITY, WHETHER IN
  29:Middlewares/Third_Party/LwIP/src/api/api_msg.c ****  * CONTRACT, STRICT LIABILITY, OR TORT (INCLUDING NEGLIGENCE OR OTHERWISE) ARISING
  30:Middlewares/Third_Party/LwIP/src/api/api_msg.c ****  * IN ANY WAY OUT OF THE USE OF THIS SOFTWARE, EVEN IF ADVISED OF THE POSSIBILITY
  31:Middlewares/Third_Party/LwIP/src/api/api_msg.c ****  * OF SUCH DAMAGE.
  32:Middlewares/Third_Party/LwIP/src/api/api_msg.c ****  *
  33:Middlewares/Third_Party/LwIP/src/api/api_msg.c ****  * This file is part of the lwIP TCP/IP stack.
  34:Middlewares/Third_Party/LwIP/src/api/api_msg.c ****  *
  35:Middlewares/Third_Party/LwIP/src/api/api_msg.c ****  * Author: Adam Dunkels <adam@sics.se>
  36:Middlewares/Third_Party/LwIP/src/api/api_msg.c ****  *
  37:Middlewares/Third_Party/LwIP/src/api/api_msg.c ****  */
  38:Middlewares/Third_Party/LwIP/src/api/api_msg.c **** 
  39:Middlewares/Third_Party/LwIP/src/api/api_msg.c **** #include "lwip/opt.h"
  40:Middlewares/Third_Party/LwIP/src/api/api_msg.c **** 
  41:Middlewares/Third_Party/LwIP/src/api/api_msg.c **** #if LWIP_NETCONN /* don't build if not configured for use in lwipopts.h */
  42:Middlewares/Third_Party/LwIP/src/api/api_msg.c **** 
  43:Middlewares/Third_Party/LwIP/src/api/api_msg.c **** #include "lwip/priv/api_msg.h"
  44:Middlewares/Third_Party/LwIP/src/api/api_msg.c **** 
  45:Middlewares/Third_Party/LwIP/src/api/api_msg.c **** #include "lwip/ip.h"
  46:Middlewares/Third_Party/LwIP/src/api/api_msg.c **** #include "lwip/ip_addr.h"
  47:Middlewares/Third_Party/LwIP/src/api/api_msg.c **** #include "lwip/udp.h"
  48:Middlewares/Third_Party/LwIP/src/api/api_msg.c **** #include "lwip/tcp.h"
  49:Middlewares/Third_Party/LwIP/src/api/api_msg.c **** #include "lwip/raw.h"
  50:Middlewares/Third_Party/LwIP/src/api/api_msg.c **** 
  51:Middlewares/Third_Party/LwIP/src/api/api_msg.c **** #include "lwip/memp.h"
  52:Middlewares/Third_Party/LwIP/src/api/api_msg.c **** #include "lwip/igmp.h"
  53:Middlewares/Third_Party/LwIP/src/api/api_msg.c **** #include "lwip/dns.h"
  54:Middlewares/Third_Party/LwIP/src/api/api_msg.c **** #include "lwip/mld6.h"
  55:Middlewares/Third_Party/LwIP/src/api/api_msg.c **** #include "lwip/priv/tcpip_priv.h"
  56:Middlewares/Third_Party/LwIP/src/api/api_msg.c **** 
  57:Middlewares/Third_Party/LwIP/src/api/api_msg.c **** #include <string.h>
  58:Middlewares/Third_Party/LwIP/src/api/api_msg.c **** 
  59:Middlewares/Third_Party/LwIP/src/api/api_msg.c **** /* netconns are polled once per second (e.g. continue write on memory error) */
  60:Middlewares/Third_Party/LwIP/src/api/api_msg.c **** #define NETCONN_TCP_POLL_INTERVAL 2
  61:Middlewares/Third_Party/LwIP/src/api/api_msg.c **** 
  62:Middlewares/Third_Party/LwIP/src/api/api_msg.c **** #define SET_NONBLOCKING_CONNECT(conn, val)  do { if (val) { \
  63:Middlewares/Third_Party/LwIP/src/api/api_msg.c ****   netconn_set_flags(conn, NETCONN_FLAG_IN_NONBLOCKING_CONNECT); \
  64:Middlewares/Third_Party/LwIP/src/api/api_msg.c **** } else { \
  65:Middlewares/Third_Party/LwIP/src/api/api_msg.c ****   netconn_clear_flags(conn, NETCONN_FLAG_IN_NONBLOCKING_CONNECT); }} while(0)
  66:Middlewares/Third_Party/LwIP/src/api/api_msg.c **** #define IN_NONBLOCKING_CONNECT(conn) netconn_is_flag_set(conn, NETCONN_FLAG_IN_NONBLOCKING_CONNECT)
  67:Middlewares/Third_Party/LwIP/src/api/api_msg.c **** 
ARM GAS  C:\usertemp\ccuz6VZa.s 			page 3


  68:Middlewares/Third_Party/LwIP/src/api/api_msg.c **** #if LWIP_NETCONN_FULLDUPLEX
  69:Middlewares/Third_Party/LwIP/src/api/api_msg.c **** #define NETCONN_MBOX_VALID(conn, mbox) (sys_mbox_valid(mbox) && ((conn->flags & NETCONN_FLAG_MBOXIN
  70:Middlewares/Third_Party/LwIP/src/api/api_msg.c **** #else
  71:Middlewares/Third_Party/LwIP/src/api/api_msg.c **** #define NETCONN_MBOX_VALID(conn, mbox) sys_mbox_valid(mbox)
  72:Middlewares/Third_Party/LwIP/src/api/api_msg.c **** #endif
  73:Middlewares/Third_Party/LwIP/src/api/api_msg.c **** 
  74:Middlewares/Third_Party/LwIP/src/api/api_msg.c **** /* forward declarations */
  75:Middlewares/Third_Party/LwIP/src/api/api_msg.c **** #if LWIP_TCP
  76:Middlewares/Third_Party/LwIP/src/api/api_msg.c **** #if LWIP_TCPIP_CORE_LOCKING
  77:Middlewares/Third_Party/LwIP/src/api/api_msg.c **** #define WRITE_DELAYED         , 1
  78:Middlewares/Third_Party/LwIP/src/api/api_msg.c **** #define WRITE_DELAYED_PARAM   , u8_t delayed
  79:Middlewares/Third_Party/LwIP/src/api/api_msg.c **** #else /* LWIP_TCPIP_CORE_LOCKING */
  80:Middlewares/Third_Party/LwIP/src/api/api_msg.c **** #define WRITE_DELAYED
  81:Middlewares/Third_Party/LwIP/src/api/api_msg.c **** #define WRITE_DELAYED_PARAM
  82:Middlewares/Third_Party/LwIP/src/api/api_msg.c **** #endif /* LWIP_TCPIP_CORE_LOCKING */
  83:Middlewares/Third_Party/LwIP/src/api/api_msg.c **** static err_t lwip_netconn_do_writemore(struct netconn *conn  WRITE_DELAYED_PARAM);
  84:Middlewares/Third_Party/LwIP/src/api/api_msg.c **** static err_t lwip_netconn_do_close_internal(struct netconn *conn  WRITE_DELAYED_PARAM);
  85:Middlewares/Third_Party/LwIP/src/api/api_msg.c **** #endif
  86:Middlewares/Third_Party/LwIP/src/api/api_msg.c **** 
  87:Middlewares/Third_Party/LwIP/src/api/api_msg.c **** static void netconn_drain(struct netconn *conn);
  88:Middlewares/Third_Party/LwIP/src/api/api_msg.c **** 
  89:Middlewares/Third_Party/LwIP/src/api/api_msg.c **** #if LWIP_TCPIP_CORE_LOCKING
  90:Middlewares/Third_Party/LwIP/src/api/api_msg.c **** #define TCPIP_APIMSG_ACK(m)
  91:Middlewares/Third_Party/LwIP/src/api/api_msg.c **** #else /* LWIP_TCPIP_CORE_LOCKING */
  92:Middlewares/Third_Party/LwIP/src/api/api_msg.c **** #define TCPIP_APIMSG_ACK(m)   do { sys_sem_signal(LWIP_API_MSG_SEM(m)); } while(0)
  93:Middlewares/Third_Party/LwIP/src/api/api_msg.c **** #endif /* LWIP_TCPIP_CORE_LOCKING */
  94:Middlewares/Third_Party/LwIP/src/api/api_msg.c **** 
  95:Middlewares/Third_Party/LwIP/src/api/api_msg.c **** #if LWIP_NETCONN_FULLDUPLEX
  96:Middlewares/Third_Party/LwIP/src/api/api_msg.c **** const u8_t netconn_deleted = 0;
  97:Middlewares/Third_Party/LwIP/src/api/api_msg.c **** 
  98:Middlewares/Third_Party/LwIP/src/api/api_msg.c **** int
  99:Middlewares/Third_Party/LwIP/src/api/api_msg.c **** lwip_netconn_is_deallocated_msg(void *msg)
 100:Middlewares/Third_Party/LwIP/src/api/api_msg.c **** {
 101:Middlewares/Third_Party/LwIP/src/api/api_msg.c ****   if (msg == &netconn_deleted) {
 102:Middlewares/Third_Party/LwIP/src/api/api_msg.c ****     return 1;
 103:Middlewares/Third_Party/LwIP/src/api/api_msg.c ****   }
 104:Middlewares/Third_Party/LwIP/src/api/api_msg.c ****   return 0;
 105:Middlewares/Third_Party/LwIP/src/api/api_msg.c **** }
 106:Middlewares/Third_Party/LwIP/src/api/api_msg.c **** #endif /* LWIP_NETCONN_FULLDUPLEX */
 107:Middlewares/Third_Party/LwIP/src/api/api_msg.c **** 
 108:Middlewares/Third_Party/LwIP/src/api/api_msg.c **** #if LWIP_TCP
 109:Middlewares/Third_Party/LwIP/src/api/api_msg.c **** const u8_t netconn_aborted = 0;
 110:Middlewares/Third_Party/LwIP/src/api/api_msg.c **** const u8_t netconn_reset = 0;
 111:Middlewares/Third_Party/LwIP/src/api/api_msg.c **** const u8_t netconn_closed = 0;
 112:Middlewares/Third_Party/LwIP/src/api/api_msg.c **** 
 113:Middlewares/Third_Party/LwIP/src/api/api_msg.c **** /** Translate an error to a unique void* passed via an mbox */
 114:Middlewares/Third_Party/LwIP/src/api/api_msg.c **** static void *
 115:Middlewares/Third_Party/LwIP/src/api/api_msg.c **** lwip_netconn_err_to_msg(err_t err)
 116:Middlewares/Third_Party/LwIP/src/api/api_msg.c **** {
  38              		.loc 1 116 1 view -0
  39              		.cfi_startproc
  40              		@ args = 0, pretend = 0, frame = 0
  41              		@ frame_needed = 0, uses_anonymous_args = 0
 117:Middlewares/Third_Party/LwIP/src/api/api_msg.c ****   switch (err) {
  42              		.loc 1 117 3 view .LVU1
  43 0000 10F10E0F 		cmn	r0, #14
  44 0004 11D0     		beq	.L3
ARM GAS  C:\usertemp\ccuz6VZa.s 			page 4


  45 0006 10F10D0F 		cmn	r0, #13
  46 000a 10D0     		beq	.L4
  47 000c 10F10F0F 		cmn	r0, #15
  48 0010 0FD0     		beq	.L5
 118:Middlewares/Third_Party/LwIP/src/api/api_msg.c ****     case ERR_ABRT:
 119:Middlewares/Third_Party/LwIP/src/api/api_msg.c ****       return LWIP_CONST_CAST(void *, &netconn_aborted);
 120:Middlewares/Third_Party/LwIP/src/api/api_msg.c ****     case ERR_RST:
 121:Middlewares/Third_Party/LwIP/src/api/api_msg.c ****       return LWIP_CONST_CAST(void *, &netconn_reset);
 122:Middlewares/Third_Party/LwIP/src/api/api_msg.c ****     case ERR_CLSD:
 123:Middlewares/Third_Party/LwIP/src/api/api_msg.c ****       return LWIP_CONST_CAST(void *, &netconn_closed);
 124:Middlewares/Third_Party/LwIP/src/api/api_msg.c ****     default:
 125:Middlewares/Third_Party/LwIP/src/api/api_msg.c ****       LWIP_ASSERT("unhandled error", err == ERR_OK);
  49              		.loc 1 125 7 view .LVU2
  50              		.loc 1 125 7 view .LVU3
  51 0012 08B9     		cbnz	r0, .L11
 126:Middlewares/Third_Party/LwIP/src/api/api_msg.c ****       return NULL;
  52              		.loc 1 126 14 is_stmt 0 view .LVU4
  53 0014 0020     		movs	r0, #0
  54              	.LVL1:
 127:Middlewares/Third_Party/LwIP/src/api/api_msg.c ****   }
 128:Middlewares/Third_Party/LwIP/src/api/api_msg.c **** }
  55              		.loc 1 128 1 view .LVU5
  56 0016 7047     		bx	lr
  57              	.LVL2:
  58              	.L11:
 116:Middlewares/Third_Party/LwIP/src/api/api_msg.c ****   switch (err) {
  59              		.loc 1 116 1 view .LVU6
  60 0018 08B5     		push	{r3, lr}
  61              	.LCFI0:
  62              		.cfi_def_cfa_offset 8
  63              		.cfi_offset 3, -8
  64              		.cfi_offset 14, -4
 125:Middlewares/Third_Party/LwIP/src/api/api_msg.c ****       return NULL;
  65              		.loc 1 125 7 is_stmt 1 discriminator 1 view .LVU7
 125:Middlewares/Third_Party/LwIP/src/api/api_msg.c ****       return NULL;
  66              		.loc 1 125 7 discriminator 1 view .LVU8
  67 001a 074B     		ldr	r3, .L12
  68 001c 7D22     		movs	r2, #125
  69 001e 0749     		ldr	r1, .L12+4
  70 0020 0748     		ldr	r0, .L12+8
  71              	.LVL3:
 125:Middlewares/Third_Party/LwIP/src/api/api_msg.c ****       return NULL;
  72              		.loc 1 125 7 is_stmt 0 discriminator 1 view .LVU9
  73 0022 FFF7FEFF 		bl	printf
  74              	.LVL4:
 126:Middlewares/Third_Party/LwIP/src/api/api_msg.c ****   }
  75              		.loc 1 126 14 view .LVU10
  76 0026 0020     		movs	r0, #0
  77              		.loc 1 128 1 view .LVU11
  78 0028 08BD     		pop	{r3, pc}
  79              	.LVL5:
  80              	.L3:
  81              	.LCFI1:
  82              		.cfi_def_cfa_offset 0
  83              		.cfi_restore 3
  84              		.cfi_restore 14
 121:Middlewares/Third_Party/LwIP/src/api/api_msg.c ****     case ERR_CLSD:
ARM GAS  C:\usertemp\ccuz6VZa.s 			page 5


  85              		.loc 1 121 14 view .LVU12
  86 002a 0648     		ldr	r0, .L12+12
  87              	.LVL6:
 121:Middlewares/Third_Party/LwIP/src/api/api_msg.c ****     case ERR_CLSD:
  88              		.loc 1 121 14 view .LVU13
  89 002c 7047     		bx	lr
  90              	.LVL7:
  91              	.L4:
 117:Middlewares/Third_Party/LwIP/src/api/api_msg.c ****     case ERR_ABRT:
  92              		.loc 1 117 3 view .LVU14
  93 002e 0648     		ldr	r0, .L12+16
  94              	.LVL8:
 117:Middlewares/Third_Party/LwIP/src/api/api_msg.c ****     case ERR_ABRT:
  95              		.loc 1 117 3 view .LVU15
  96 0030 7047     		bx	lr
  97              	.LVL9:
  98              	.L5:
 123:Middlewares/Third_Party/LwIP/src/api/api_msg.c ****     default:
  99              		.loc 1 123 14 view .LVU16
 100 0032 0648     		ldr	r0, .L12+20
 101              	.LVL10:
 123:Middlewares/Third_Party/LwIP/src/api/api_msg.c ****     default:
 102              		.loc 1 123 14 view .LVU17
 103 0034 7047     		bx	lr
 104              	.L13:
 105 0036 00BF     		.align	2
 106              	.L12:
 107 0038 00000000 		.word	.LC0
 108 003c 30000000 		.word	.LC1
 109 0040 40000000 		.word	.LC2
 110 0044 00000000 		.word	netconn_reset
 111 0048 00000000 		.word	netconn_aborted
 112 004c 00000000 		.word	netconn_closed
 113              		.cfi_endproc
 114              	.LFE364:
 116              		.section	.rodata.recv_udp.str1.4,"aMS",%progbits,1
 117              		.align	2
 118              	.LC3:
 119 0000 72656376 		.ascii	"recv_udp must have a pcb argument\000"
 119      5F756470 
 119      206D7573 
 119      74206861 
 119      76652061 
 120 0022 0000     		.align	2
 121              	.LC4:
 122 0024 72656376 		.ascii	"recv_udp must have an argument\000"
 122      5F756470 
 122      206D7573 
 122      74206861 
 122      76652061 
 123 0043 00       		.align	2
 124              	.LC5:
 125 0044 72656376 		.ascii	"recv_udp: recv for wrong pcb!\000"
 125      5F756470 
 125      3A207265 
 125      63762066 
 125      6F722077 
ARM GAS  C:\usertemp\ccuz6VZa.s 			page 6


 126              		.section	.text.recv_udp,"ax",%progbits
 127              		.align	1
 128              		.syntax unified
 129              		.thumb
 130              		.thumb_func
 132              	recv_udp:
 133              	.LVL11:
 134              	.LFB366:
 129:Middlewares/Third_Party/LwIP/src/api/api_msg.c **** 
 130:Middlewares/Third_Party/LwIP/src/api/api_msg.c **** int
 131:Middlewares/Third_Party/LwIP/src/api/api_msg.c **** lwip_netconn_is_err_msg(void *msg, err_t *err)
 132:Middlewares/Third_Party/LwIP/src/api/api_msg.c **** {
 133:Middlewares/Third_Party/LwIP/src/api/api_msg.c ****   LWIP_ASSERT("err != NULL", err != NULL);
 134:Middlewares/Third_Party/LwIP/src/api/api_msg.c **** 
 135:Middlewares/Third_Party/LwIP/src/api/api_msg.c ****   if (msg == &netconn_aborted) {
 136:Middlewares/Third_Party/LwIP/src/api/api_msg.c ****     *err = ERR_ABRT;
 137:Middlewares/Third_Party/LwIP/src/api/api_msg.c ****     return 1;
 138:Middlewares/Third_Party/LwIP/src/api/api_msg.c ****   } else if (msg == &netconn_reset) {
 139:Middlewares/Third_Party/LwIP/src/api/api_msg.c ****     *err = ERR_RST;
 140:Middlewares/Third_Party/LwIP/src/api/api_msg.c ****     return 1;
 141:Middlewares/Third_Party/LwIP/src/api/api_msg.c ****   } else if (msg == &netconn_closed) {
 142:Middlewares/Third_Party/LwIP/src/api/api_msg.c ****     *err = ERR_CLSD;
 143:Middlewares/Third_Party/LwIP/src/api/api_msg.c ****     return 1;
 144:Middlewares/Third_Party/LwIP/src/api/api_msg.c ****   }
 145:Middlewares/Third_Party/LwIP/src/api/api_msg.c ****   return 0;
 146:Middlewares/Third_Party/LwIP/src/api/api_msg.c **** }
 147:Middlewares/Third_Party/LwIP/src/api/api_msg.c **** #endif /* LWIP_TCP */
 148:Middlewares/Third_Party/LwIP/src/api/api_msg.c **** 
 149:Middlewares/Third_Party/LwIP/src/api/api_msg.c **** 
 150:Middlewares/Third_Party/LwIP/src/api/api_msg.c **** #if LWIP_RAW
 151:Middlewares/Third_Party/LwIP/src/api/api_msg.c **** /**
 152:Middlewares/Third_Party/LwIP/src/api/api_msg.c ****  * Receive callback function for RAW netconns.
 153:Middlewares/Third_Party/LwIP/src/api/api_msg.c ****  * Doesn't 'eat' the packet, only copies it and sends it to
 154:Middlewares/Third_Party/LwIP/src/api/api_msg.c ****  * conn->recvmbox
 155:Middlewares/Third_Party/LwIP/src/api/api_msg.c ****  *
 156:Middlewares/Third_Party/LwIP/src/api/api_msg.c ****  * @see raw.h (struct raw_pcb.recv) for parameters and return value
 157:Middlewares/Third_Party/LwIP/src/api/api_msg.c ****  */
 158:Middlewares/Third_Party/LwIP/src/api/api_msg.c **** static u8_t
 159:Middlewares/Third_Party/LwIP/src/api/api_msg.c **** recv_raw(void *arg, struct raw_pcb *pcb, struct pbuf *p,
 160:Middlewares/Third_Party/LwIP/src/api/api_msg.c ****          const ip_addr_t *addr)
 161:Middlewares/Third_Party/LwIP/src/api/api_msg.c **** {
 162:Middlewares/Third_Party/LwIP/src/api/api_msg.c ****   struct pbuf *q;
 163:Middlewares/Third_Party/LwIP/src/api/api_msg.c ****   struct netbuf *buf;
 164:Middlewares/Third_Party/LwIP/src/api/api_msg.c ****   struct netconn *conn;
 165:Middlewares/Third_Party/LwIP/src/api/api_msg.c **** 
 166:Middlewares/Third_Party/LwIP/src/api/api_msg.c ****   LWIP_UNUSED_ARG(addr);
 167:Middlewares/Third_Party/LwIP/src/api/api_msg.c ****   conn = (struct netconn *)arg;
 168:Middlewares/Third_Party/LwIP/src/api/api_msg.c **** 
 169:Middlewares/Third_Party/LwIP/src/api/api_msg.c ****   if ((conn != NULL) && NETCONN_MBOX_VALID(conn, &conn->recvmbox)) {
 170:Middlewares/Third_Party/LwIP/src/api/api_msg.c **** #if LWIP_SO_RCVBUF
 171:Middlewares/Third_Party/LwIP/src/api/api_msg.c ****     int recv_avail;
 172:Middlewares/Third_Party/LwIP/src/api/api_msg.c ****     SYS_ARCH_GET(conn->recv_avail, recv_avail);
 173:Middlewares/Third_Party/LwIP/src/api/api_msg.c ****     if ((recv_avail + (int)(p->tot_len)) > conn->recv_bufsize) {
 174:Middlewares/Third_Party/LwIP/src/api/api_msg.c ****       return 0;
 175:Middlewares/Third_Party/LwIP/src/api/api_msg.c ****     }
 176:Middlewares/Third_Party/LwIP/src/api/api_msg.c **** #endif /* LWIP_SO_RCVBUF */
 177:Middlewares/Third_Party/LwIP/src/api/api_msg.c ****     /* copy the whole packet into new pbufs */
ARM GAS  C:\usertemp\ccuz6VZa.s 			page 7


 178:Middlewares/Third_Party/LwIP/src/api/api_msg.c ****     q = pbuf_clone(PBUF_RAW, PBUF_RAM, p);
 179:Middlewares/Third_Party/LwIP/src/api/api_msg.c ****     if (q != NULL) {
 180:Middlewares/Third_Party/LwIP/src/api/api_msg.c ****       u16_t len;
 181:Middlewares/Third_Party/LwIP/src/api/api_msg.c ****       buf = (struct netbuf *)memp_malloc(MEMP_NETBUF);
 182:Middlewares/Third_Party/LwIP/src/api/api_msg.c ****       if (buf == NULL) {
 183:Middlewares/Third_Party/LwIP/src/api/api_msg.c ****         pbuf_free(q);
 184:Middlewares/Third_Party/LwIP/src/api/api_msg.c ****         return 0;
 185:Middlewares/Third_Party/LwIP/src/api/api_msg.c ****       }
 186:Middlewares/Third_Party/LwIP/src/api/api_msg.c **** 
 187:Middlewares/Third_Party/LwIP/src/api/api_msg.c ****       buf->p = q;
 188:Middlewares/Third_Party/LwIP/src/api/api_msg.c ****       buf->ptr = q;
 189:Middlewares/Third_Party/LwIP/src/api/api_msg.c ****       ip_addr_copy(buf->addr, *ip_current_src_addr());
 190:Middlewares/Third_Party/LwIP/src/api/api_msg.c ****       buf->port = pcb->protocol;
 191:Middlewares/Third_Party/LwIP/src/api/api_msg.c **** 
 192:Middlewares/Third_Party/LwIP/src/api/api_msg.c ****       len = q->tot_len;
 193:Middlewares/Third_Party/LwIP/src/api/api_msg.c ****       if (sys_mbox_trypost(&conn->recvmbox, buf) != ERR_OK) {
 194:Middlewares/Third_Party/LwIP/src/api/api_msg.c ****         netbuf_delete(buf);
 195:Middlewares/Third_Party/LwIP/src/api/api_msg.c ****         return 0;
 196:Middlewares/Third_Party/LwIP/src/api/api_msg.c ****       } else {
 197:Middlewares/Third_Party/LwIP/src/api/api_msg.c **** #if LWIP_SO_RCVBUF
 198:Middlewares/Third_Party/LwIP/src/api/api_msg.c ****         SYS_ARCH_INC(conn->recv_avail, len);
 199:Middlewares/Third_Party/LwIP/src/api/api_msg.c **** #endif /* LWIP_SO_RCVBUF */
 200:Middlewares/Third_Party/LwIP/src/api/api_msg.c ****         /* Register event with callback */
 201:Middlewares/Third_Party/LwIP/src/api/api_msg.c ****         API_EVENT(conn, NETCONN_EVT_RCVPLUS, len);
 202:Middlewares/Third_Party/LwIP/src/api/api_msg.c ****       }
 203:Middlewares/Third_Party/LwIP/src/api/api_msg.c ****     }
 204:Middlewares/Third_Party/LwIP/src/api/api_msg.c ****   }
 205:Middlewares/Third_Party/LwIP/src/api/api_msg.c **** 
 206:Middlewares/Third_Party/LwIP/src/api/api_msg.c ****   return 0; /* do not eat the packet */
 207:Middlewares/Third_Party/LwIP/src/api/api_msg.c **** }
 208:Middlewares/Third_Party/LwIP/src/api/api_msg.c **** #endif /* LWIP_RAW*/
 209:Middlewares/Third_Party/LwIP/src/api/api_msg.c **** 
 210:Middlewares/Third_Party/LwIP/src/api/api_msg.c **** #if LWIP_UDP
 211:Middlewares/Third_Party/LwIP/src/api/api_msg.c **** /**
 212:Middlewares/Third_Party/LwIP/src/api/api_msg.c ****  * Receive callback function for UDP netconns.
 213:Middlewares/Third_Party/LwIP/src/api/api_msg.c ****  * Posts the packet to conn->recvmbox or deletes it on memory error.
 214:Middlewares/Third_Party/LwIP/src/api/api_msg.c ****  *
 215:Middlewares/Third_Party/LwIP/src/api/api_msg.c ****  * @see udp.h (struct udp_pcb.recv) for parameters
 216:Middlewares/Third_Party/LwIP/src/api/api_msg.c ****  */
 217:Middlewares/Third_Party/LwIP/src/api/api_msg.c **** static void
 218:Middlewares/Third_Party/LwIP/src/api/api_msg.c **** recv_udp(void *arg, struct udp_pcb *pcb, struct pbuf *p,
 219:Middlewares/Third_Party/LwIP/src/api/api_msg.c ****          const ip_addr_t *addr, u16_t port)
 220:Middlewares/Third_Party/LwIP/src/api/api_msg.c **** {
 135              		.loc 1 220 1 is_stmt 1 view -0
 136              		.cfi_startproc
 137              		@ args = 4, pretend = 0, frame = 0
 138              		@ frame_needed = 0, uses_anonymous_args = 0
 139              		.loc 1 220 1 is_stmt 0 view .LVU19
 140 0000 2DE9F041 		push	{r4, r5, r6, r7, r8, lr}
 141              	.LCFI2:
 142              		.cfi_def_cfa_offset 24
 143              		.cfi_offset 4, -24
 144              		.cfi_offset 5, -20
 145              		.cfi_offset 6, -16
 146              		.cfi_offset 7, -12
 147              		.cfi_offset 8, -8
 148              		.cfi_offset 14, -4
ARM GAS  C:\usertemp\ccuz6VZa.s 			page 8


 149 0004 0446     		mov	r4, r0
 150 0006 1546     		mov	r5, r2
 151 0008 9846     		mov	r8, r3
 221:Middlewares/Third_Party/LwIP/src/api/api_msg.c ****   struct netbuf *buf;
 152              		.loc 1 221 3 is_stmt 1 view .LVU20
 222:Middlewares/Third_Party/LwIP/src/api/api_msg.c ****   struct netconn *conn;
 153              		.loc 1 222 3 view .LVU21
 223:Middlewares/Third_Party/LwIP/src/api/api_msg.c ****   u16_t len;
 154              		.loc 1 223 3 view .LVU22
 224:Middlewares/Third_Party/LwIP/src/api/api_msg.c **** #if LWIP_SO_RCVBUF
 225:Middlewares/Third_Party/LwIP/src/api/api_msg.c ****   int recv_avail;
 226:Middlewares/Third_Party/LwIP/src/api/api_msg.c **** #endif /* LWIP_SO_RCVBUF */
 227:Middlewares/Third_Party/LwIP/src/api/api_msg.c **** 
 228:Middlewares/Third_Party/LwIP/src/api/api_msg.c ****   LWIP_UNUSED_ARG(pcb); /* only used for asserts... */
 155              		.loc 1 228 3 view .LVU23
 229:Middlewares/Third_Party/LwIP/src/api/api_msg.c ****   LWIP_ASSERT("recv_udp must have a pcb argument", pcb != NULL);
 156              		.loc 1 229 3 view .LVU24
 157              		.loc 1 229 3 view .LVU25
 158 000a 0E46     		mov	r6, r1
 159 000c 69B3     		cbz	r1, .L26
 160              	.LVL12:
 161              	.L15:
 162              		.loc 1 229 3 discriminator 3 view .LVU26
 163              		.loc 1 229 3 discriminator 3 view .LVU27
 230:Middlewares/Third_Party/LwIP/src/api/api_msg.c ****   LWIP_ASSERT("recv_udp must have an argument", arg != NULL);
 164              		.loc 1 230 3 view .LVU28
 165              		.loc 1 230 3 view .LVU29
 166 000e 002C     		cmp	r4, #0
 167 0010 32D0     		beq	.L16
 168              		.loc 1 230 3 discriminator 3 view .LVU30
 169              		.loc 1 230 3 discriminator 3 view .LVU31
 231:Middlewares/Third_Party/LwIP/src/api/api_msg.c ****   conn = (struct netconn *)arg;
 170              		.loc 1 231 3 view .LVU32
 171              	.LVL13:
 232:Middlewares/Third_Party/LwIP/src/api/api_msg.c **** 
 233:Middlewares/Third_Party/LwIP/src/api/api_msg.c ****   if (conn == NULL) {
 172              		.loc 1 233 3 view .LVU33
 234:Middlewares/Third_Party/LwIP/src/api/api_msg.c ****     pbuf_free(p);
 235:Middlewares/Third_Party/LwIP/src/api/api_msg.c ****     return;
 236:Middlewares/Third_Party/LwIP/src/api/api_msg.c ****   }
 237:Middlewares/Third_Party/LwIP/src/api/api_msg.c **** 
 238:Middlewares/Third_Party/LwIP/src/api/api_msg.c ****   LWIP_ASSERT("recv_udp: recv for wrong pcb!", conn->pcb.udp == pcb);
 173              		.loc 1 238 3 view .LVU34
 174              		.loc 1 238 3 view .LVU35
 175 0012 6368     		ldr	r3, [r4, #4]
 176 0014 B342     		cmp	r3, r6
 177 0016 05D0     		beq	.L18
 178              		.loc 1 238 3 discriminator 1 view .LVU36
 179              		.loc 1 238 3 discriminator 1 view .LVU37
 180 0018 244B     		ldr	r3, .L30
 181 001a EE22     		movs	r2, #238
 182 001c 2449     		ldr	r1, .L30+4
 183 001e 2548     		ldr	r0, .L30+8
 184 0020 FFF7FEFF 		bl	printf
 185              	.LVL14:
 186              	.L18:
 187              		.loc 1 238 3 discriminator 3 view .LVU38
ARM GAS  C:\usertemp\ccuz6VZa.s 			page 9


 188              		.loc 1 238 3 discriminator 3 view .LVU39
 239:Middlewares/Third_Party/LwIP/src/api/api_msg.c **** 
 240:Middlewares/Third_Party/LwIP/src/api/api_msg.c **** #if LWIP_SO_RCVBUF
 241:Middlewares/Third_Party/LwIP/src/api/api_msg.c ****   SYS_ARCH_GET(conn->recv_avail, recv_avail);
 242:Middlewares/Third_Party/LwIP/src/api/api_msg.c ****   if (!NETCONN_MBOX_VALID(conn, &conn->recvmbox) ||
 243:Middlewares/Third_Party/LwIP/src/api/api_msg.c ****       ((recv_avail + (int)(p->tot_len)) > conn->recv_bufsize)) {
 244:Middlewares/Third_Party/LwIP/src/api/api_msg.c **** #else  /* LWIP_SO_RCVBUF */
 245:Middlewares/Third_Party/LwIP/src/api/api_msg.c ****   if (!NETCONN_MBOX_VALID(conn, &conn->recvmbox)) {
 189              		.loc 1 245 3 view .LVU40
 190              		.loc 1 245 8 is_stmt 0 view .LVU41
 191 0024 04F11007 		add	r7, r4, #16
 192 0028 3846     		mov	r0, r7
 193 002a FFF7FEFF 		bl	sys_mbox_valid
 194              	.LVL15:
 195              		.loc 1 245 6 discriminator 1 view .LVU42
 196 002e 68B3     		cbz	r0, .L27
 246:Middlewares/Third_Party/LwIP/src/api/api_msg.c **** #endif /* LWIP_SO_RCVBUF */
 247:Middlewares/Third_Party/LwIP/src/api/api_msg.c ****     pbuf_free(p);
 248:Middlewares/Third_Party/LwIP/src/api/api_msg.c ****     return;
 249:Middlewares/Third_Party/LwIP/src/api/api_msg.c ****   }
 250:Middlewares/Third_Party/LwIP/src/api/api_msg.c **** 
 251:Middlewares/Third_Party/LwIP/src/api/api_msg.c ****   buf = (struct netbuf *)memp_malloc(MEMP_NETBUF);
 197              		.loc 1 251 3 is_stmt 1 view .LVU43
 198              		.loc 1 251 26 is_stmt 0 view .LVU44
 199 0030 0620     		movs	r0, #6
 200 0032 FFF7FEFF 		bl	memp_malloc
 201              	.LVL16:
 252:Middlewares/Third_Party/LwIP/src/api/api_msg.c ****   if (buf == NULL) {
 202              		.loc 1 252 3 is_stmt 1 view .LVU45
 203              		.loc 1 252 6 is_stmt 0 view .LVU46
 204 0036 0646     		mov	r6, r0
 205              	.LVL17:
 206              		.loc 1 252 6 view .LVU47
 207 0038 68B3     		cbz	r0, .L28
 253:Middlewares/Third_Party/LwIP/src/api/api_msg.c ****     pbuf_free(p);
 254:Middlewares/Third_Party/LwIP/src/api/api_msg.c ****     return;
 255:Middlewares/Third_Party/LwIP/src/api/api_msg.c ****   } else {
 256:Middlewares/Third_Party/LwIP/src/api/api_msg.c ****     buf->p = p;
 208              		.loc 1 256 5 is_stmt 1 view .LVU48
 209              		.loc 1 256 12 is_stmt 0 view .LVU49
 210 003a 0560     		str	r5, [r0]
 257:Middlewares/Third_Party/LwIP/src/api/api_msg.c ****     buf->ptr = p;
 211              		.loc 1 257 5 is_stmt 1 view .LVU50
 212              		.loc 1 257 14 is_stmt 0 view .LVU51
 213 003c 4560     		str	r5, [r0, #4]
 258:Middlewares/Third_Party/LwIP/src/api/api_msg.c ****     ip_addr_set(&buf->addr, addr);
 214              		.loc 1 258 5 is_stmt 1 view .LVU52
 215 003e B8F1000F 		cmp	r8, #0
 216 0042 2CD0     		beq	.L24
 217              		.loc 1 258 5 is_stmt 0 discriminator 1 view .LVU53
 218 0044 D8F80030 		ldr	r3, [r8]
 219              	.L22:
 220              		.loc 1 258 5 discriminator 4 view .LVU54
 221 0048 B360     		str	r3, [r6, #8]
 259:Middlewares/Third_Party/LwIP/src/api/api_msg.c ****     buf->port = port;
 222              		.loc 1 259 5 is_stmt 1 view .LVU55
 223              		.loc 1 259 15 is_stmt 0 view .LVU56
ARM GAS  C:\usertemp\ccuz6VZa.s 			page 10


 224 004a BDF81830 		ldrh	r3, [sp, #24]
 225 004e B381     		strh	r3, [r6, #12]	@ movhi
 260:Middlewares/Third_Party/LwIP/src/api/api_msg.c **** #if LWIP_NETBUF_RECVINFO
 261:Middlewares/Third_Party/LwIP/src/api/api_msg.c ****     if (conn->flags & NETCONN_FLAG_PKTINFO) {
 262:Middlewares/Third_Party/LwIP/src/api/api_msg.c ****       /* get the UDP header - always in the first pbuf, ensured by udp_input */
 263:Middlewares/Third_Party/LwIP/src/api/api_msg.c ****       const struct udp_hdr *udphdr = (const struct udp_hdr *)ip_next_header_ptr();
 264:Middlewares/Third_Party/LwIP/src/api/api_msg.c ****       buf->flags = NETBUF_FLAG_DESTADDR;
 265:Middlewares/Third_Party/LwIP/src/api/api_msg.c ****       ip_addr_set(&buf->toaddr, ip_current_dest_addr());
 266:Middlewares/Third_Party/LwIP/src/api/api_msg.c ****       buf->toport_chksum = udphdr->dest;
 267:Middlewares/Third_Party/LwIP/src/api/api_msg.c ****     }
 268:Middlewares/Third_Party/LwIP/src/api/api_msg.c **** #endif /* LWIP_NETBUF_RECVINFO */
 269:Middlewares/Third_Party/LwIP/src/api/api_msg.c ****   }
 270:Middlewares/Third_Party/LwIP/src/api/api_msg.c **** 
 271:Middlewares/Third_Party/LwIP/src/api/api_msg.c ****   len = p->tot_len;
 226              		.loc 1 271 3 is_stmt 1 view .LVU57
 227              		.loc 1 271 7 is_stmt 0 view .LVU58
 228 0050 2D89     		ldrh	r5, [r5, #8]
 229              	.LVL18:
 272:Middlewares/Third_Party/LwIP/src/api/api_msg.c ****   if (sys_mbox_trypost(&conn->recvmbox, buf) != ERR_OK) {
 230              		.loc 1 272 3 is_stmt 1 view .LVU59
 231              		.loc 1 272 7 is_stmt 0 view .LVU60
 232 0052 3146     		mov	r1, r6
 233 0054 3846     		mov	r0, r7
 234              	.LVL19:
 235              		.loc 1 272 7 view .LVU61
 236 0056 FFF7FEFF 		bl	sys_mbox_trypost
 237              	.LVL20:
 238              		.loc 1 272 6 discriminator 1 view .LVU62
 239 005a 10BB     		cbnz	r0, .L29
 273:Middlewares/Third_Party/LwIP/src/api/api_msg.c ****     netbuf_delete(buf);
 274:Middlewares/Third_Party/LwIP/src/api/api_msg.c ****     return;
 275:Middlewares/Third_Party/LwIP/src/api/api_msg.c ****   } else {
 276:Middlewares/Third_Party/LwIP/src/api/api_msg.c **** #if LWIP_SO_RCVBUF
 277:Middlewares/Third_Party/LwIP/src/api/api_msg.c ****     SYS_ARCH_INC(conn->recv_avail, len);
 278:Middlewares/Third_Party/LwIP/src/api/api_msg.c **** #endif /* LWIP_SO_RCVBUF */
 279:Middlewares/Third_Party/LwIP/src/api/api_msg.c ****     /* Register event with callback */
 280:Middlewares/Third_Party/LwIP/src/api/api_msg.c ****     API_EVENT(conn, NETCONN_EVT_RCVPLUS, len);
 240              		.loc 1 280 5 is_stmt 1 view .LVU63
 241 005c 636A     		ldr	r3, [r4, #36]
 242 005e C3B1     		cbz	r3, .L14
 243              		.loc 1 280 5 discriminator 1 view .LVU64
 244 0060 2A46     		mov	r2, r5
 245 0062 0021     		movs	r1, #0
 246 0064 2046     		mov	r0, r4
 247 0066 9847     		blx	r3
 248              	.LVL21:
 249              		.loc 1 280 46 discriminator 3 view .LVU65
 250 0068 13E0     		b	.L14
 251              	.LVL22:
 252              	.L26:
 229:Middlewares/Third_Party/LwIP/src/api/api_msg.c ****   LWIP_ASSERT("recv_udp must have an argument", arg != NULL);
 253              		.loc 1 229 3 discriminator 1 view .LVU66
 229:Middlewares/Third_Party/LwIP/src/api/api_msg.c ****   LWIP_ASSERT("recv_udp must have an argument", arg != NULL);
 254              		.loc 1 229 3 discriminator 1 view .LVU67
 255 006a 104B     		ldr	r3, .L30
 256              	.LVL23:
 229:Middlewares/Third_Party/LwIP/src/api/api_msg.c ****   LWIP_ASSERT("recv_udp must have an argument", arg != NULL);
ARM GAS  C:\usertemp\ccuz6VZa.s 			page 11


 257              		.loc 1 229 3 is_stmt 0 discriminator 1 view .LVU68
 258 006c E522     		movs	r2, #229
 259              	.LVL24:
 229:Middlewares/Third_Party/LwIP/src/api/api_msg.c ****   LWIP_ASSERT("recv_udp must have an argument", arg != NULL);
 260              		.loc 1 229 3 discriminator 1 view .LVU69
 261 006e 1249     		ldr	r1, .L30+12
 262              	.LVL25:
 229:Middlewares/Third_Party/LwIP/src/api/api_msg.c ****   LWIP_ASSERT("recv_udp must have an argument", arg != NULL);
 263              		.loc 1 229 3 discriminator 1 view .LVU70
 264 0070 1048     		ldr	r0, .L30+8
 265              	.LVL26:
 229:Middlewares/Third_Party/LwIP/src/api/api_msg.c ****   LWIP_ASSERT("recv_udp must have an argument", arg != NULL);
 266              		.loc 1 229 3 discriminator 1 view .LVU71
 267 0072 FFF7FEFF 		bl	printf
 268              	.LVL27:
 269 0076 CAE7     		b	.L15
 270              	.L16:
 230:Middlewares/Third_Party/LwIP/src/api/api_msg.c ****   conn = (struct netconn *)arg;
 271              		.loc 1 230 3 is_stmt 1 discriminator 1 view .LVU72
 230:Middlewares/Third_Party/LwIP/src/api/api_msg.c ****   conn = (struct netconn *)arg;
 272              		.loc 1 230 3 discriminator 1 view .LVU73
 273 0078 0C4B     		ldr	r3, .L30
 274 007a E622     		movs	r2, #230
 275 007c 0F49     		ldr	r1, .L30+16
 276 007e 0D48     		ldr	r0, .L30+8
 277 0080 FFF7FEFF 		bl	printf
 278              	.LVL28:
 230:Middlewares/Third_Party/LwIP/src/api/api_msg.c ****   conn = (struct netconn *)arg;
 279              		.loc 1 230 3 discriminator 3 view .LVU74
 230:Middlewares/Third_Party/LwIP/src/api/api_msg.c ****   conn = (struct netconn *)arg;
 280              		.loc 1 230 3 discriminator 3 view .LVU75
 231:Middlewares/Third_Party/LwIP/src/api/api_msg.c **** 
 281              		.loc 1 231 3 view .LVU76
 233:Middlewares/Third_Party/LwIP/src/api/api_msg.c ****     pbuf_free(p);
 282              		.loc 1 233 3 view .LVU77
 234:Middlewares/Third_Party/LwIP/src/api/api_msg.c ****     return;
 283              		.loc 1 234 5 view .LVU78
 284 0084 2846     		mov	r0, r5
 285 0086 FFF7FEFF 		bl	pbuf_free
 286              	.LVL29:
 235:Middlewares/Third_Party/LwIP/src/api/api_msg.c ****   }
 287              		.loc 1 235 5 view .LVU79
 288 008a 02E0     		b	.L14
 289              	.L27:
 247:Middlewares/Third_Party/LwIP/src/api/api_msg.c ****     return;
 290              		.loc 1 247 5 view .LVU80
 291 008c 2846     		mov	r0, r5
 292 008e FFF7FEFF 		bl	pbuf_free
 293              	.LVL30:
 248:Middlewares/Third_Party/LwIP/src/api/api_msg.c ****   }
 294              		.loc 1 248 5 view .LVU81
 295              	.L14:
 281:Middlewares/Third_Party/LwIP/src/api/api_msg.c ****   }
 282:Middlewares/Third_Party/LwIP/src/api/api_msg.c **** }
 296              		.loc 1 282 1 is_stmt 0 view .LVU82
 297 0092 BDE8F081 		pop	{r4, r5, r6, r7, r8, pc}
 298              	.LVL31:
ARM GAS  C:\usertemp\ccuz6VZa.s 			page 12


 299              	.L28:
 253:Middlewares/Third_Party/LwIP/src/api/api_msg.c ****     return;
 300              		.loc 1 253 5 is_stmt 1 view .LVU83
 301 0096 2846     		mov	r0, r5
 302              	.LVL32:
 253:Middlewares/Third_Party/LwIP/src/api/api_msg.c ****     return;
 303              		.loc 1 253 5 is_stmt 0 view .LVU84
 304 0098 FFF7FEFF 		bl	pbuf_free
 305              	.LVL33:
 254:Middlewares/Third_Party/LwIP/src/api/api_msg.c ****   } else {
 306              		.loc 1 254 5 is_stmt 1 view .LVU85
 307 009c F9E7     		b	.L14
 308              	.LVL34:
 309              	.L24:
 258:Middlewares/Third_Party/LwIP/src/api/api_msg.c ****     buf->port = port;
 310              		.loc 1 258 5 is_stmt 0 discriminator 2 view .LVU86
 311 009e 0023     		movs	r3, #0
 312 00a0 D2E7     		b	.L22
 313              	.LVL35:
 314              	.L29:
 273:Middlewares/Third_Party/LwIP/src/api/api_msg.c ****     return;
 315              		.loc 1 273 5 is_stmt 1 view .LVU87
 316 00a2 3046     		mov	r0, r6
 317 00a4 FFF7FEFF 		bl	netbuf_delete
 318              	.LVL36:
 274:Middlewares/Third_Party/LwIP/src/api/api_msg.c ****   } else {
 319              		.loc 1 274 5 view .LVU88
 320 00a8 F3E7     		b	.L14
 321              	.L31:
 322 00aa 00BF     		.align	2
 323              	.L30:
 324 00ac 00000000 		.word	.LC0
 325 00b0 44000000 		.word	.LC5
 326 00b4 40000000 		.word	.LC2
 327 00b8 00000000 		.word	.LC3
 328 00bc 24000000 		.word	.LC4
 329              		.cfi_endproc
 330              	.LFE366:
 332              		.section	.text.setup_tcp,"ax",%progbits
 333              		.align	1
 334              		.syntax unified
 335              		.thumb
 336              		.thumb_func
 338              	setup_tcp:
 339              	.LVL37:
 340              	.LFB371:
 283:Middlewares/Third_Party/LwIP/src/api/api_msg.c **** #endif /* LWIP_UDP */
 284:Middlewares/Third_Party/LwIP/src/api/api_msg.c **** 
 285:Middlewares/Third_Party/LwIP/src/api/api_msg.c **** #if LWIP_TCP
 286:Middlewares/Third_Party/LwIP/src/api/api_msg.c **** /**
 287:Middlewares/Third_Party/LwIP/src/api/api_msg.c ****  * Receive callback function for TCP netconns.
 288:Middlewares/Third_Party/LwIP/src/api/api_msg.c ****  * Posts the packet to conn->recvmbox, but doesn't delete it on errors.
 289:Middlewares/Third_Party/LwIP/src/api/api_msg.c ****  *
 290:Middlewares/Third_Party/LwIP/src/api/api_msg.c ****  * @see tcp.h (struct tcp_pcb.recv) for parameters and return value
 291:Middlewares/Third_Party/LwIP/src/api/api_msg.c ****  */
 292:Middlewares/Third_Party/LwIP/src/api/api_msg.c **** static err_t
 293:Middlewares/Third_Party/LwIP/src/api/api_msg.c **** recv_tcp(void *arg, struct tcp_pcb *pcb, struct pbuf *p, err_t err)
ARM GAS  C:\usertemp\ccuz6VZa.s 			page 13


 294:Middlewares/Third_Party/LwIP/src/api/api_msg.c **** {
 295:Middlewares/Third_Party/LwIP/src/api/api_msg.c ****   struct netconn *conn;
 296:Middlewares/Third_Party/LwIP/src/api/api_msg.c ****   u16_t len;
 297:Middlewares/Third_Party/LwIP/src/api/api_msg.c ****   void *msg;
 298:Middlewares/Third_Party/LwIP/src/api/api_msg.c **** 
 299:Middlewares/Third_Party/LwIP/src/api/api_msg.c ****   LWIP_UNUSED_ARG(pcb);
 300:Middlewares/Third_Party/LwIP/src/api/api_msg.c ****   LWIP_ASSERT("recv_tcp must have a pcb argument", pcb != NULL);
 301:Middlewares/Third_Party/LwIP/src/api/api_msg.c ****   LWIP_ASSERT("recv_tcp must have an argument", arg != NULL);
 302:Middlewares/Third_Party/LwIP/src/api/api_msg.c ****   LWIP_ASSERT("err != ERR_OK unhandled", err == ERR_OK);
 303:Middlewares/Third_Party/LwIP/src/api/api_msg.c ****   LWIP_UNUSED_ARG(err); /* for LWIP_NOASSERT */
 304:Middlewares/Third_Party/LwIP/src/api/api_msg.c ****   conn = (struct netconn *)arg;
 305:Middlewares/Third_Party/LwIP/src/api/api_msg.c **** 
 306:Middlewares/Third_Party/LwIP/src/api/api_msg.c ****   if (conn == NULL) {
 307:Middlewares/Third_Party/LwIP/src/api/api_msg.c ****     return ERR_VAL;
 308:Middlewares/Third_Party/LwIP/src/api/api_msg.c ****   }
 309:Middlewares/Third_Party/LwIP/src/api/api_msg.c ****   LWIP_ASSERT("recv_tcp: recv for wrong pcb!", conn->pcb.tcp == pcb);
 310:Middlewares/Third_Party/LwIP/src/api/api_msg.c **** 
 311:Middlewares/Third_Party/LwIP/src/api/api_msg.c ****   if (!NETCONN_MBOX_VALID(conn, &conn->recvmbox)) {
 312:Middlewares/Third_Party/LwIP/src/api/api_msg.c ****     /* recvmbox already deleted */
 313:Middlewares/Third_Party/LwIP/src/api/api_msg.c ****     if (p != NULL) {
 314:Middlewares/Third_Party/LwIP/src/api/api_msg.c ****       tcp_recved(pcb, p->tot_len);
 315:Middlewares/Third_Party/LwIP/src/api/api_msg.c ****       pbuf_free(p);
 316:Middlewares/Third_Party/LwIP/src/api/api_msg.c ****     }
 317:Middlewares/Third_Party/LwIP/src/api/api_msg.c ****     return ERR_OK;
 318:Middlewares/Third_Party/LwIP/src/api/api_msg.c ****   }
 319:Middlewares/Third_Party/LwIP/src/api/api_msg.c ****   /* Unlike for UDP or RAW pcbs, don't check for available space
 320:Middlewares/Third_Party/LwIP/src/api/api_msg.c ****      using recv_avail since that could break the connection
 321:Middlewares/Third_Party/LwIP/src/api/api_msg.c ****      (data is already ACKed) */
 322:Middlewares/Third_Party/LwIP/src/api/api_msg.c **** 
 323:Middlewares/Third_Party/LwIP/src/api/api_msg.c ****   if (p != NULL) {
 324:Middlewares/Third_Party/LwIP/src/api/api_msg.c ****     msg = p;
 325:Middlewares/Third_Party/LwIP/src/api/api_msg.c ****     len = p->tot_len;
 326:Middlewares/Third_Party/LwIP/src/api/api_msg.c ****   } else {
 327:Middlewares/Third_Party/LwIP/src/api/api_msg.c ****     msg = LWIP_CONST_CAST(void *, &netconn_closed);
 328:Middlewares/Third_Party/LwIP/src/api/api_msg.c ****     len = 0;
 329:Middlewares/Third_Party/LwIP/src/api/api_msg.c ****   }
 330:Middlewares/Third_Party/LwIP/src/api/api_msg.c **** 
 331:Middlewares/Third_Party/LwIP/src/api/api_msg.c ****   if (sys_mbox_trypost(&conn->recvmbox, msg) != ERR_OK) {
 332:Middlewares/Third_Party/LwIP/src/api/api_msg.c ****     /* don't deallocate p: it is presented to us later again from tcp_fasttmr! */
 333:Middlewares/Third_Party/LwIP/src/api/api_msg.c ****     return ERR_MEM;
 334:Middlewares/Third_Party/LwIP/src/api/api_msg.c ****   } else {
 335:Middlewares/Third_Party/LwIP/src/api/api_msg.c **** #if LWIP_SO_RCVBUF
 336:Middlewares/Third_Party/LwIP/src/api/api_msg.c ****     SYS_ARCH_INC(conn->recv_avail, len);
 337:Middlewares/Third_Party/LwIP/src/api/api_msg.c **** #endif /* LWIP_SO_RCVBUF */
 338:Middlewares/Third_Party/LwIP/src/api/api_msg.c ****     /* Register event with callback */
 339:Middlewares/Third_Party/LwIP/src/api/api_msg.c ****     API_EVENT(conn, NETCONN_EVT_RCVPLUS, len);
 340:Middlewares/Third_Party/LwIP/src/api/api_msg.c ****   }
 341:Middlewares/Third_Party/LwIP/src/api/api_msg.c **** 
 342:Middlewares/Third_Party/LwIP/src/api/api_msg.c ****   return ERR_OK;
 343:Middlewares/Third_Party/LwIP/src/api/api_msg.c **** }
 344:Middlewares/Third_Party/LwIP/src/api/api_msg.c **** 
 345:Middlewares/Third_Party/LwIP/src/api/api_msg.c **** /**
 346:Middlewares/Third_Party/LwIP/src/api/api_msg.c ****  * Poll callback function for TCP netconns.
 347:Middlewares/Third_Party/LwIP/src/api/api_msg.c ****  * Wakes up an application thread that waits for a connection to close
 348:Middlewares/Third_Party/LwIP/src/api/api_msg.c ****  * or data to be sent. The application thread then takes the
 349:Middlewares/Third_Party/LwIP/src/api/api_msg.c ****  * appropriate action to go on.
 350:Middlewares/Third_Party/LwIP/src/api/api_msg.c ****  *
ARM GAS  C:\usertemp\ccuz6VZa.s 			page 14


 351:Middlewares/Third_Party/LwIP/src/api/api_msg.c ****  * Signals the conn->sem.
 352:Middlewares/Third_Party/LwIP/src/api/api_msg.c ****  * netconn_close waits for conn->sem if closing failed.
 353:Middlewares/Third_Party/LwIP/src/api/api_msg.c ****  *
 354:Middlewares/Third_Party/LwIP/src/api/api_msg.c ****  * @see tcp.h (struct tcp_pcb.poll) for parameters and return value
 355:Middlewares/Third_Party/LwIP/src/api/api_msg.c ****  */
 356:Middlewares/Third_Party/LwIP/src/api/api_msg.c **** static err_t
 357:Middlewares/Third_Party/LwIP/src/api/api_msg.c **** poll_tcp(void *arg, struct tcp_pcb *pcb)
 358:Middlewares/Third_Party/LwIP/src/api/api_msg.c **** {
 359:Middlewares/Third_Party/LwIP/src/api/api_msg.c ****   struct netconn *conn = (struct netconn *)arg;
 360:Middlewares/Third_Party/LwIP/src/api/api_msg.c **** 
 361:Middlewares/Third_Party/LwIP/src/api/api_msg.c ****   LWIP_UNUSED_ARG(pcb);
 362:Middlewares/Third_Party/LwIP/src/api/api_msg.c ****   LWIP_ASSERT("conn != NULL", (conn != NULL));
 363:Middlewares/Third_Party/LwIP/src/api/api_msg.c **** 
 364:Middlewares/Third_Party/LwIP/src/api/api_msg.c ****   if (conn->state == NETCONN_WRITE) {
 365:Middlewares/Third_Party/LwIP/src/api/api_msg.c ****     lwip_netconn_do_writemore(conn  WRITE_DELAYED);
 366:Middlewares/Third_Party/LwIP/src/api/api_msg.c ****   } else if (conn->state == NETCONN_CLOSE) {
 367:Middlewares/Third_Party/LwIP/src/api/api_msg.c **** #if !LWIP_SO_SNDTIMEO && !LWIP_SO_LINGER
 368:Middlewares/Third_Party/LwIP/src/api/api_msg.c ****     if (conn->current_msg && conn->current_msg->msg.sd.polls_left) {
 369:Middlewares/Third_Party/LwIP/src/api/api_msg.c ****       conn->current_msg->msg.sd.polls_left--;
 370:Middlewares/Third_Party/LwIP/src/api/api_msg.c ****     }
 371:Middlewares/Third_Party/LwIP/src/api/api_msg.c **** #endif /* !LWIP_SO_SNDTIMEO && !LWIP_SO_LINGER */
 372:Middlewares/Third_Party/LwIP/src/api/api_msg.c ****     lwip_netconn_do_close_internal(conn  WRITE_DELAYED);
 373:Middlewares/Third_Party/LwIP/src/api/api_msg.c ****   }
 374:Middlewares/Third_Party/LwIP/src/api/api_msg.c ****   /* @todo: implement connect timeout here? */
 375:Middlewares/Third_Party/LwIP/src/api/api_msg.c **** 
 376:Middlewares/Third_Party/LwIP/src/api/api_msg.c ****   /* Did a nonblocking write fail before? Then check available write-space. */
 377:Middlewares/Third_Party/LwIP/src/api/api_msg.c ****   if (conn->flags & NETCONN_FLAG_CHECK_WRITESPACE) {
 378:Middlewares/Third_Party/LwIP/src/api/api_msg.c ****     /* If the queued byte- or pbuf-count drops below the configured low-water limit,
 379:Middlewares/Third_Party/LwIP/src/api/api_msg.c ****        let select mark this pcb as writable again. */
 380:Middlewares/Third_Party/LwIP/src/api/api_msg.c ****     if ((conn->pcb.tcp != NULL) && (tcp_sndbuf(conn->pcb.tcp) > TCP_SNDLOWAT) &&
 381:Middlewares/Third_Party/LwIP/src/api/api_msg.c ****         (tcp_sndqueuelen(conn->pcb.tcp) < TCP_SNDQUEUELOWAT)) {
 382:Middlewares/Third_Party/LwIP/src/api/api_msg.c ****       netconn_clear_flags(conn, NETCONN_FLAG_CHECK_WRITESPACE);
 383:Middlewares/Third_Party/LwIP/src/api/api_msg.c ****       API_EVENT(conn, NETCONN_EVT_SENDPLUS, 0);
 384:Middlewares/Third_Party/LwIP/src/api/api_msg.c ****     }
 385:Middlewares/Third_Party/LwIP/src/api/api_msg.c ****   }
 386:Middlewares/Third_Party/LwIP/src/api/api_msg.c **** 
 387:Middlewares/Third_Party/LwIP/src/api/api_msg.c ****   return ERR_OK;
 388:Middlewares/Third_Party/LwIP/src/api/api_msg.c **** }
 389:Middlewares/Third_Party/LwIP/src/api/api_msg.c **** 
 390:Middlewares/Third_Party/LwIP/src/api/api_msg.c **** /**
 391:Middlewares/Third_Party/LwIP/src/api/api_msg.c ****  * Sent callback function for TCP netconns.
 392:Middlewares/Third_Party/LwIP/src/api/api_msg.c ****  * Signals the conn->sem and calls API_EVENT.
 393:Middlewares/Third_Party/LwIP/src/api/api_msg.c ****  * netconn_write waits for conn->sem if send buffer is low.
 394:Middlewares/Third_Party/LwIP/src/api/api_msg.c ****  *
 395:Middlewares/Third_Party/LwIP/src/api/api_msg.c ****  * @see tcp.h (struct tcp_pcb.sent) for parameters and return value
 396:Middlewares/Third_Party/LwIP/src/api/api_msg.c ****  */
 397:Middlewares/Third_Party/LwIP/src/api/api_msg.c **** static err_t
 398:Middlewares/Third_Party/LwIP/src/api/api_msg.c **** sent_tcp(void *arg, struct tcp_pcb *pcb, u16_t len)
 399:Middlewares/Third_Party/LwIP/src/api/api_msg.c **** {
 400:Middlewares/Third_Party/LwIP/src/api/api_msg.c ****   struct netconn *conn = (struct netconn *)arg;
 401:Middlewares/Third_Party/LwIP/src/api/api_msg.c **** 
 402:Middlewares/Third_Party/LwIP/src/api/api_msg.c ****   LWIP_UNUSED_ARG(pcb);
 403:Middlewares/Third_Party/LwIP/src/api/api_msg.c ****   LWIP_ASSERT("conn != NULL", (conn != NULL));
 404:Middlewares/Third_Party/LwIP/src/api/api_msg.c **** 
 405:Middlewares/Third_Party/LwIP/src/api/api_msg.c ****   if (conn) {
 406:Middlewares/Third_Party/LwIP/src/api/api_msg.c ****     if (conn->state == NETCONN_WRITE) {
 407:Middlewares/Third_Party/LwIP/src/api/api_msg.c ****       lwip_netconn_do_writemore(conn  WRITE_DELAYED);
ARM GAS  C:\usertemp\ccuz6VZa.s 			page 15


 408:Middlewares/Third_Party/LwIP/src/api/api_msg.c ****     } else if (conn->state == NETCONN_CLOSE) {
 409:Middlewares/Third_Party/LwIP/src/api/api_msg.c ****       lwip_netconn_do_close_internal(conn  WRITE_DELAYED);
 410:Middlewares/Third_Party/LwIP/src/api/api_msg.c ****     }
 411:Middlewares/Third_Party/LwIP/src/api/api_msg.c **** 
 412:Middlewares/Third_Party/LwIP/src/api/api_msg.c ****     /* If the queued byte- or pbuf-count drops below the configured low-water limit,
 413:Middlewares/Third_Party/LwIP/src/api/api_msg.c ****        let select mark this pcb as writable again. */
 414:Middlewares/Third_Party/LwIP/src/api/api_msg.c ****     if ((conn->pcb.tcp != NULL) && (tcp_sndbuf(conn->pcb.tcp) > TCP_SNDLOWAT) &&
 415:Middlewares/Third_Party/LwIP/src/api/api_msg.c ****         (tcp_sndqueuelen(conn->pcb.tcp) < TCP_SNDQUEUELOWAT)) {
 416:Middlewares/Third_Party/LwIP/src/api/api_msg.c ****       netconn_clear_flags(conn, NETCONN_FLAG_CHECK_WRITESPACE);
 417:Middlewares/Third_Party/LwIP/src/api/api_msg.c ****       API_EVENT(conn, NETCONN_EVT_SENDPLUS, len);
 418:Middlewares/Third_Party/LwIP/src/api/api_msg.c ****     }
 419:Middlewares/Third_Party/LwIP/src/api/api_msg.c ****   }
 420:Middlewares/Third_Party/LwIP/src/api/api_msg.c **** 
 421:Middlewares/Third_Party/LwIP/src/api/api_msg.c ****   return ERR_OK;
 422:Middlewares/Third_Party/LwIP/src/api/api_msg.c **** }
 423:Middlewares/Third_Party/LwIP/src/api/api_msg.c **** 
 424:Middlewares/Third_Party/LwIP/src/api/api_msg.c **** /**
 425:Middlewares/Third_Party/LwIP/src/api/api_msg.c ****  * Error callback function for TCP netconns.
 426:Middlewares/Third_Party/LwIP/src/api/api_msg.c ****  * Signals conn->sem, posts to all conn mboxes and calls API_EVENT.
 427:Middlewares/Third_Party/LwIP/src/api/api_msg.c ****  * The application thread has then to decide what to do.
 428:Middlewares/Third_Party/LwIP/src/api/api_msg.c ****  *
 429:Middlewares/Third_Party/LwIP/src/api/api_msg.c ****  * @see tcp.h (struct tcp_pcb.err) for parameters
 430:Middlewares/Third_Party/LwIP/src/api/api_msg.c ****  */
 431:Middlewares/Third_Party/LwIP/src/api/api_msg.c **** static void
 432:Middlewares/Third_Party/LwIP/src/api/api_msg.c **** err_tcp(void *arg, err_t err)
 433:Middlewares/Third_Party/LwIP/src/api/api_msg.c **** {
 434:Middlewares/Third_Party/LwIP/src/api/api_msg.c ****   struct netconn *conn;
 435:Middlewares/Third_Party/LwIP/src/api/api_msg.c ****   enum netconn_state old_state;
 436:Middlewares/Third_Party/LwIP/src/api/api_msg.c ****   void *mbox_msg;
 437:Middlewares/Third_Party/LwIP/src/api/api_msg.c ****   SYS_ARCH_DECL_PROTECT(lev);
 438:Middlewares/Third_Party/LwIP/src/api/api_msg.c **** 
 439:Middlewares/Third_Party/LwIP/src/api/api_msg.c ****   conn = (struct netconn *)arg;
 440:Middlewares/Third_Party/LwIP/src/api/api_msg.c ****   LWIP_ASSERT("conn != NULL", (conn != NULL));
 441:Middlewares/Third_Party/LwIP/src/api/api_msg.c **** 
 442:Middlewares/Third_Party/LwIP/src/api/api_msg.c ****   SYS_ARCH_PROTECT(lev);
 443:Middlewares/Third_Party/LwIP/src/api/api_msg.c **** 
 444:Middlewares/Third_Party/LwIP/src/api/api_msg.c ****   /* when err is called, the pcb is deallocated, so delete the reference */
 445:Middlewares/Third_Party/LwIP/src/api/api_msg.c ****   conn->pcb.tcp = NULL;
 446:Middlewares/Third_Party/LwIP/src/api/api_msg.c ****   /* store pending error */
 447:Middlewares/Third_Party/LwIP/src/api/api_msg.c ****   conn->pending_err = err;
 448:Middlewares/Third_Party/LwIP/src/api/api_msg.c ****   /* prevent application threads from blocking on 'recvmbox'/'acceptmbox' */
 449:Middlewares/Third_Party/LwIP/src/api/api_msg.c ****   conn->flags |= NETCONN_FLAG_MBOXCLOSED;
 450:Middlewares/Third_Party/LwIP/src/api/api_msg.c **** 
 451:Middlewares/Third_Party/LwIP/src/api/api_msg.c ****   /* reset conn->state now before waking up other threads */
 452:Middlewares/Third_Party/LwIP/src/api/api_msg.c ****   old_state = conn->state;
 453:Middlewares/Third_Party/LwIP/src/api/api_msg.c ****   conn->state = NETCONN_NONE;
 454:Middlewares/Third_Party/LwIP/src/api/api_msg.c **** 
 455:Middlewares/Third_Party/LwIP/src/api/api_msg.c ****   SYS_ARCH_UNPROTECT(lev);
 456:Middlewares/Third_Party/LwIP/src/api/api_msg.c **** 
 457:Middlewares/Third_Party/LwIP/src/api/api_msg.c ****   /* Notify the user layer about a connection error. Used to signal select. */
 458:Middlewares/Third_Party/LwIP/src/api/api_msg.c ****   API_EVENT(conn, NETCONN_EVT_ERROR, 0);
 459:Middlewares/Third_Party/LwIP/src/api/api_msg.c ****   /* Try to release selects pending on 'read' or 'write', too.
 460:Middlewares/Third_Party/LwIP/src/api/api_msg.c ****      They will get an error if they actually try to read or write. */
 461:Middlewares/Third_Party/LwIP/src/api/api_msg.c ****   API_EVENT(conn, NETCONN_EVT_RCVPLUS, 0);
 462:Middlewares/Third_Party/LwIP/src/api/api_msg.c ****   API_EVENT(conn, NETCONN_EVT_SENDPLUS, 0);
 463:Middlewares/Third_Party/LwIP/src/api/api_msg.c **** 
 464:Middlewares/Third_Party/LwIP/src/api/api_msg.c ****   mbox_msg = lwip_netconn_err_to_msg(err);
ARM GAS  C:\usertemp\ccuz6VZa.s 			page 16


 465:Middlewares/Third_Party/LwIP/src/api/api_msg.c ****   /* pass error message to recvmbox to wake up pending recv */
 466:Middlewares/Third_Party/LwIP/src/api/api_msg.c ****   if (NETCONN_MBOX_VALID(conn, &conn->recvmbox)) {
 467:Middlewares/Third_Party/LwIP/src/api/api_msg.c ****     /* use trypost to prevent deadlock */
 468:Middlewares/Third_Party/LwIP/src/api/api_msg.c ****     sys_mbox_trypost(&conn->recvmbox, mbox_msg);
 469:Middlewares/Third_Party/LwIP/src/api/api_msg.c ****   }
 470:Middlewares/Third_Party/LwIP/src/api/api_msg.c ****   /* pass error message to acceptmbox to wake up pending accept */
 471:Middlewares/Third_Party/LwIP/src/api/api_msg.c ****   if (NETCONN_MBOX_VALID(conn, &conn->acceptmbox)) {
 472:Middlewares/Third_Party/LwIP/src/api/api_msg.c ****     /* use trypost to preven deadlock */
 473:Middlewares/Third_Party/LwIP/src/api/api_msg.c ****     sys_mbox_trypost(&conn->acceptmbox, mbox_msg);
 474:Middlewares/Third_Party/LwIP/src/api/api_msg.c ****   }
 475:Middlewares/Third_Party/LwIP/src/api/api_msg.c **** 
 476:Middlewares/Third_Party/LwIP/src/api/api_msg.c ****   if ((old_state == NETCONN_WRITE) || (old_state == NETCONN_CLOSE) ||
 477:Middlewares/Third_Party/LwIP/src/api/api_msg.c ****       (old_state == NETCONN_CONNECT)) {
 478:Middlewares/Third_Party/LwIP/src/api/api_msg.c ****     /* calling lwip_netconn_do_writemore/lwip_netconn_do_close_internal is not necessary
 479:Middlewares/Third_Party/LwIP/src/api/api_msg.c ****        since the pcb has already been deleted! */
 480:Middlewares/Third_Party/LwIP/src/api/api_msg.c ****     int was_nonblocking_connect = IN_NONBLOCKING_CONNECT(conn);
 481:Middlewares/Third_Party/LwIP/src/api/api_msg.c ****     SET_NONBLOCKING_CONNECT(conn, 0);
 482:Middlewares/Third_Party/LwIP/src/api/api_msg.c **** 
 483:Middlewares/Third_Party/LwIP/src/api/api_msg.c ****     if (!was_nonblocking_connect) {
 484:Middlewares/Third_Party/LwIP/src/api/api_msg.c ****       sys_sem_t *op_completed_sem;
 485:Middlewares/Third_Party/LwIP/src/api/api_msg.c ****       /* set error return code */
 486:Middlewares/Third_Party/LwIP/src/api/api_msg.c ****       LWIP_ASSERT("conn->current_msg != NULL", conn->current_msg != NULL);
 487:Middlewares/Third_Party/LwIP/src/api/api_msg.c ****       if (old_state == NETCONN_CLOSE) {
 488:Middlewares/Third_Party/LwIP/src/api/api_msg.c ****         /* let close succeed: the connection is closed after all... */
 489:Middlewares/Third_Party/LwIP/src/api/api_msg.c ****         conn->current_msg->err = ERR_OK;
 490:Middlewares/Third_Party/LwIP/src/api/api_msg.c ****       } else {
 491:Middlewares/Third_Party/LwIP/src/api/api_msg.c ****         /* Write and connect fail */
 492:Middlewares/Third_Party/LwIP/src/api/api_msg.c ****         conn->current_msg->err = err;
 493:Middlewares/Third_Party/LwIP/src/api/api_msg.c ****       }
 494:Middlewares/Third_Party/LwIP/src/api/api_msg.c ****       op_completed_sem = LWIP_API_MSG_SEM(conn->current_msg);
 495:Middlewares/Third_Party/LwIP/src/api/api_msg.c ****       LWIP_ASSERT("inavlid op_completed_sem", sys_sem_valid(op_completed_sem));
 496:Middlewares/Third_Party/LwIP/src/api/api_msg.c ****       conn->current_msg = NULL;
 497:Middlewares/Third_Party/LwIP/src/api/api_msg.c ****       /* wake up the waiting task */
 498:Middlewares/Third_Party/LwIP/src/api/api_msg.c ****       sys_sem_signal(op_completed_sem);
 499:Middlewares/Third_Party/LwIP/src/api/api_msg.c ****     } else {
 500:Middlewares/Third_Party/LwIP/src/api/api_msg.c ****       /* @todo: test what happens for error on nonblocking connect */
 501:Middlewares/Third_Party/LwIP/src/api/api_msg.c ****     }
 502:Middlewares/Third_Party/LwIP/src/api/api_msg.c ****   } else {
 503:Middlewares/Third_Party/LwIP/src/api/api_msg.c ****     LWIP_ASSERT("conn->current_msg == NULL", conn->current_msg == NULL);
 504:Middlewares/Third_Party/LwIP/src/api/api_msg.c ****   }
 505:Middlewares/Third_Party/LwIP/src/api/api_msg.c **** }
 506:Middlewares/Third_Party/LwIP/src/api/api_msg.c **** 
 507:Middlewares/Third_Party/LwIP/src/api/api_msg.c **** /**
 508:Middlewares/Third_Party/LwIP/src/api/api_msg.c ****  * Setup a tcp_pcb with the correct callback function pointers
 509:Middlewares/Third_Party/LwIP/src/api/api_msg.c ****  * and their arguments.
 510:Middlewares/Third_Party/LwIP/src/api/api_msg.c ****  *
 511:Middlewares/Third_Party/LwIP/src/api/api_msg.c ****  * @param conn the TCP netconn to setup
 512:Middlewares/Third_Party/LwIP/src/api/api_msg.c ****  */
 513:Middlewares/Third_Party/LwIP/src/api/api_msg.c **** static void
 514:Middlewares/Third_Party/LwIP/src/api/api_msg.c **** setup_tcp(struct netconn *conn)
 515:Middlewares/Third_Party/LwIP/src/api/api_msg.c **** {
 341              		.loc 1 515 1 view -0
 342              		.cfi_startproc
 343              		@ args = 0, pretend = 0, frame = 0
 344              		@ frame_needed = 0, uses_anonymous_args = 0
 345              		.loc 1 515 1 is_stmt 0 view .LVU90
 346 0000 10B5     		push	{r4, lr}
ARM GAS  C:\usertemp\ccuz6VZa.s 			page 17


 347              	.LCFI3:
 348              		.cfi_def_cfa_offset 8
 349              		.cfi_offset 4, -8
 350              		.cfi_offset 14, -4
 351 0002 0146     		mov	r1, r0
 516:Middlewares/Third_Party/LwIP/src/api/api_msg.c ****   struct tcp_pcb *pcb;
 352              		.loc 1 516 3 is_stmt 1 view .LVU91
 517:Middlewares/Third_Party/LwIP/src/api/api_msg.c **** 
 518:Middlewares/Third_Party/LwIP/src/api/api_msg.c ****   pcb = conn->pcb.tcp;
 353              		.loc 1 518 3 view .LVU92
 354              		.loc 1 518 7 is_stmt 0 view .LVU93
 355 0004 4468     		ldr	r4, [r0, #4]
 356              	.LVL38:
 519:Middlewares/Third_Party/LwIP/src/api/api_msg.c ****   tcp_arg(pcb, conn);
 357              		.loc 1 519 3 is_stmt 1 view .LVU94
 358 0006 2046     		mov	r0, r4
 359              	.LVL39:
 360              		.loc 1 519 3 is_stmt 0 view .LVU95
 361 0008 FFF7FEFF 		bl	tcp_arg
 362              	.LVL40:
 520:Middlewares/Third_Party/LwIP/src/api/api_msg.c ****   tcp_recv(pcb, recv_tcp);
 363              		.loc 1 520 3 is_stmt 1 view .LVU96
 364 000c 0849     		ldr	r1, .L34
 365 000e 2046     		mov	r0, r4
 366 0010 FFF7FEFF 		bl	tcp_recv
 367              	.LVL41:
 521:Middlewares/Third_Party/LwIP/src/api/api_msg.c ****   tcp_sent(pcb, sent_tcp);
 368              		.loc 1 521 3 view .LVU97
 369 0014 0749     		ldr	r1, .L34+4
 370 0016 2046     		mov	r0, r4
 371 0018 FFF7FEFF 		bl	tcp_sent
 372              	.LVL42:
 522:Middlewares/Third_Party/LwIP/src/api/api_msg.c ****   tcp_poll(pcb, poll_tcp, NETCONN_TCP_POLL_INTERVAL);
 373              		.loc 1 522 3 view .LVU98
 374 001c 0222     		movs	r2, #2
 375 001e 0649     		ldr	r1, .L34+8
 376 0020 2046     		mov	r0, r4
 377 0022 FFF7FEFF 		bl	tcp_poll
 378              	.LVL43:
 523:Middlewares/Third_Party/LwIP/src/api/api_msg.c ****   tcp_err(pcb, err_tcp);
 379              		.loc 1 523 3 view .LVU99
 380 0026 0549     		ldr	r1, .L34+12
 381 0028 2046     		mov	r0, r4
 382 002a FFF7FEFF 		bl	tcp_err
 383              	.LVL44:
 524:Middlewares/Third_Party/LwIP/src/api/api_msg.c **** }
 384              		.loc 1 524 1 is_stmt 0 view .LVU100
 385 002e 10BD     		pop	{r4, pc}
 386              	.LVL45:
 387              	.L35:
 388              		.loc 1 524 1 view .LVU101
 389              		.align	2
 390              	.L34:
 391 0030 00000000 		.word	recv_tcp
 392 0034 00000000 		.word	sent_tcp
 393 0038 00000000 		.word	poll_tcp
 394 003c 00000000 		.word	err_tcp
ARM GAS  C:\usertemp\ccuz6VZa.s 			page 18


 395              		.cfi_endproc
 396              	.LFE371:
 398              		.section	.rodata.pcb_new.str1.4,"aMS",%progbits,1
 399              		.align	2
 400              	.LC6:
 401 0000 7063625F 		.ascii	"pcb_new: pcb already allocated\000"
 401      6E65773A 
 401      20706362 
 401      20616C72 
 401      65616479 
 402              		.section	.text.pcb_new,"ax",%progbits
 403              		.align	1
 404              		.syntax unified
 405              		.thumb
 406              		.thumb_func
 408              	pcb_new:
 409              	.LVL46:
 410              	.LFB373:
 525:Middlewares/Third_Party/LwIP/src/api/api_msg.c **** 
 526:Middlewares/Third_Party/LwIP/src/api/api_msg.c **** /**
 527:Middlewares/Third_Party/LwIP/src/api/api_msg.c ****  * Accept callback function for TCP netconns.
 528:Middlewares/Third_Party/LwIP/src/api/api_msg.c ****  * Allocates a new netconn and posts that to conn->acceptmbox.
 529:Middlewares/Third_Party/LwIP/src/api/api_msg.c ****  *
 530:Middlewares/Third_Party/LwIP/src/api/api_msg.c ****  * @see tcp.h (struct tcp_pcb_listen.accept) for parameters and return value
 531:Middlewares/Third_Party/LwIP/src/api/api_msg.c ****  */
 532:Middlewares/Third_Party/LwIP/src/api/api_msg.c **** static err_t
 533:Middlewares/Third_Party/LwIP/src/api/api_msg.c **** accept_function(void *arg, struct tcp_pcb *newpcb, err_t err)
 534:Middlewares/Third_Party/LwIP/src/api/api_msg.c **** {
 535:Middlewares/Third_Party/LwIP/src/api/api_msg.c ****   struct netconn *newconn;
 536:Middlewares/Third_Party/LwIP/src/api/api_msg.c ****   struct netconn *conn = (struct netconn *)arg;
 537:Middlewares/Third_Party/LwIP/src/api/api_msg.c **** 
 538:Middlewares/Third_Party/LwIP/src/api/api_msg.c ****   if (conn == NULL) {
 539:Middlewares/Third_Party/LwIP/src/api/api_msg.c ****     return ERR_VAL;
 540:Middlewares/Third_Party/LwIP/src/api/api_msg.c ****   }
 541:Middlewares/Third_Party/LwIP/src/api/api_msg.c ****   if (!NETCONN_MBOX_VALID(conn, &conn->acceptmbox)) {
 542:Middlewares/Third_Party/LwIP/src/api/api_msg.c ****     LWIP_DEBUGF(API_MSG_DEBUG, ("accept_function: acceptmbox already deleted\n"));
 543:Middlewares/Third_Party/LwIP/src/api/api_msg.c ****     return ERR_VAL;
 544:Middlewares/Third_Party/LwIP/src/api/api_msg.c ****   }
 545:Middlewares/Third_Party/LwIP/src/api/api_msg.c **** 
 546:Middlewares/Third_Party/LwIP/src/api/api_msg.c ****   if (newpcb == NULL) {
 547:Middlewares/Third_Party/LwIP/src/api/api_msg.c ****     /* out-of-pcbs during connect: pass on this error to the application */
 548:Middlewares/Third_Party/LwIP/src/api/api_msg.c ****     if (sys_mbox_trypost(&conn->acceptmbox, lwip_netconn_err_to_msg(ERR_ABRT)) == ERR_OK) {
 549:Middlewares/Third_Party/LwIP/src/api/api_msg.c ****       /* Register event with callback */
 550:Middlewares/Third_Party/LwIP/src/api/api_msg.c ****       API_EVENT(conn, NETCONN_EVT_RCVPLUS, 0);
 551:Middlewares/Third_Party/LwIP/src/api/api_msg.c ****     }
 552:Middlewares/Third_Party/LwIP/src/api/api_msg.c ****     return ERR_VAL;
 553:Middlewares/Third_Party/LwIP/src/api/api_msg.c ****   }
 554:Middlewares/Third_Party/LwIP/src/api/api_msg.c ****   LWIP_ASSERT("expect newpcb == NULL or err == ERR_OK", err == ERR_OK);
 555:Middlewares/Third_Party/LwIP/src/api/api_msg.c ****   LWIP_UNUSED_ARG(err); /* for LWIP_NOASSERT */
 556:Middlewares/Third_Party/LwIP/src/api/api_msg.c **** 
 557:Middlewares/Third_Party/LwIP/src/api/api_msg.c ****   LWIP_DEBUGF(API_MSG_DEBUG, ("accept_function: newpcb->state: %s\n", tcp_debug_state_str(newpcb->s
 558:Middlewares/Third_Party/LwIP/src/api/api_msg.c **** 
 559:Middlewares/Third_Party/LwIP/src/api/api_msg.c ****   /* We have to set the callback here even though
 560:Middlewares/Third_Party/LwIP/src/api/api_msg.c ****    * the new socket is unknown. newconn->socket is marked as -1. */
 561:Middlewares/Third_Party/LwIP/src/api/api_msg.c ****   newconn = netconn_alloc(conn->type, conn->callback);
 562:Middlewares/Third_Party/LwIP/src/api/api_msg.c ****   if (newconn == NULL) {
 563:Middlewares/Third_Party/LwIP/src/api/api_msg.c ****     /* outof netconns: pass on this error to the application */
ARM GAS  C:\usertemp\ccuz6VZa.s 			page 19


 564:Middlewares/Third_Party/LwIP/src/api/api_msg.c ****     if (sys_mbox_trypost(&conn->acceptmbox, lwip_netconn_err_to_msg(ERR_ABRT)) == ERR_OK) {
 565:Middlewares/Third_Party/LwIP/src/api/api_msg.c ****       /* Register event with callback */
 566:Middlewares/Third_Party/LwIP/src/api/api_msg.c ****       API_EVENT(conn, NETCONN_EVT_RCVPLUS, 0);
 567:Middlewares/Third_Party/LwIP/src/api/api_msg.c ****     }
 568:Middlewares/Third_Party/LwIP/src/api/api_msg.c ****     return ERR_MEM;
 569:Middlewares/Third_Party/LwIP/src/api/api_msg.c ****   }
 570:Middlewares/Third_Party/LwIP/src/api/api_msg.c ****   newconn->pcb.tcp = newpcb;
 571:Middlewares/Third_Party/LwIP/src/api/api_msg.c ****   setup_tcp(newconn);
 572:Middlewares/Third_Party/LwIP/src/api/api_msg.c **** 
 573:Middlewares/Third_Party/LwIP/src/api/api_msg.c ****   /* handle backlog counter */
 574:Middlewares/Third_Party/LwIP/src/api/api_msg.c ****   tcp_backlog_delayed(newpcb);
 575:Middlewares/Third_Party/LwIP/src/api/api_msg.c **** 
 576:Middlewares/Third_Party/LwIP/src/api/api_msg.c ****   if (sys_mbox_trypost(&conn->acceptmbox, newconn) != ERR_OK) {
 577:Middlewares/Third_Party/LwIP/src/api/api_msg.c ****     /* When returning != ERR_OK, the pcb is aborted in tcp_process(),
 578:Middlewares/Third_Party/LwIP/src/api/api_msg.c ****        so do nothing here! */
 579:Middlewares/Third_Party/LwIP/src/api/api_msg.c ****     /* remove all references to this netconn from the pcb */
 580:Middlewares/Third_Party/LwIP/src/api/api_msg.c ****     struct tcp_pcb *pcb = newconn->pcb.tcp;
 581:Middlewares/Third_Party/LwIP/src/api/api_msg.c ****     tcp_arg(pcb, NULL);
 582:Middlewares/Third_Party/LwIP/src/api/api_msg.c ****     tcp_recv(pcb, NULL);
 583:Middlewares/Third_Party/LwIP/src/api/api_msg.c ****     tcp_sent(pcb, NULL);
 584:Middlewares/Third_Party/LwIP/src/api/api_msg.c ****     tcp_poll(pcb, NULL, 0);
 585:Middlewares/Third_Party/LwIP/src/api/api_msg.c ****     tcp_err(pcb, NULL);
 586:Middlewares/Third_Party/LwIP/src/api/api_msg.c ****     /* remove reference from to the pcb from this netconn */
 587:Middlewares/Third_Party/LwIP/src/api/api_msg.c ****     newconn->pcb.tcp = NULL;
 588:Middlewares/Third_Party/LwIP/src/api/api_msg.c ****     /* no need to drain since we know the recvmbox is empty. */
 589:Middlewares/Third_Party/LwIP/src/api/api_msg.c ****     sys_mbox_free(&newconn->recvmbox);
 590:Middlewares/Third_Party/LwIP/src/api/api_msg.c ****     sys_mbox_set_invalid(&newconn->recvmbox);
 591:Middlewares/Third_Party/LwIP/src/api/api_msg.c ****     netconn_free(newconn);
 592:Middlewares/Third_Party/LwIP/src/api/api_msg.c ****     return ERR_MEM;
 593:Middlewares/Third_Party/LwIP/src/api/api_msg.c ****   } else {
 594:Middlewares/Third_Party/LwIP/src/api/api_msg.c ****     /* Register event with callback */
 595:Middlewares/Third_Party/LwIP/src/api/api_msg.c ****     API_EVENT(conn, NETCONN_EVT_RCVPLUS, 0);
 596:Middlewares/Third_Party/LwIP/src/api/api_msg.c ****   }
 597:Middlewares/Third_Party/LwIP/src/api/api_msg.c **** 
 598:Middlewares/Third_Party/LwIP/src/api/api_msg.c ****   return ERR_OK;
 599:Middlewares/Third_Party/LwIP/src/api/api_msg.c **** }
 600:Middlewares/Third_Party/LwIP/src/api/api_msg.c **** #endif /* LWIP_TCP */
 601:Middlewares/Third_Party/LwIP/src/api/api_msg.c **** 
 602:Middlewares/Third_Party/LwIP/src/api/api_msg.c **** /**
 603:Middlewares/Third_Party/LwIP/src/api/api_msg.c ****  * Create a new pcb of a specific type.
 604:Middlewares/Third_Party/LwIP/src/api/api_msg.c ****  * Called from lwip_netconn_do_newconn().
 605:Middlewares/Third_Party/LwIP/src/api/api_msg.c ****  *
 606:Middlewares/Third_Party/LwIP/src/api/api_msg.c ****  * @param msg the api_msg describing the connection type
 607:Middlewares/Third_Party/LwIP/src/api/api_msg.c ****  */
 608:Middlewares/Third_Party/LwIP/src/api/api_msg.c **** static void
 609:Middlewares/Third_Party/LwIP/src/api/api_msg.c **** pcb_new(struct api_msg *msg)
 610:Middlewares/Third_Party/LwIP/src/api/api_msg.c **** {
 411              		.loc 1 610 1 is_stmt 1 view -0
 412              		.cfi_startproc
 413              		@ args = 0, pretend = 0, frame = 0
 414              		@ frame_needed = 0, uses_anonymous_args = 0
 415              		.loc 1 610 1 is_stmt 0 view .LVU103
 416 0000 38B5     		push	{r3, r4, r5, lr}
 417              	.LCFI4:
 418              		.cfi_def_cfa_offset 16
 419              		.cfi_offset 3, -16
 420              		.cfi_offset 4, -12
ARM GAS  C:\usertemp\ccuz6VZa.s 			page 20


 421              		.cfi_offset 5, -8
 422              		.cfi_offset 14, -4
 423 0002 0446     		mov	r4, r0
 611:Middlewares/Third_Party/LwIP/src/api/api_msg.c ****   enum lwip_ip_addr_type iptype = IPADDR_TYPE_V4;
 424              		.loc 1 611 3 is_stmt 1 view .LVU104
 425              	.LVL47:
 612:Middlewares/Third_Party/LwIP/src/api/api_msg.c **** 
 613:Middlewares/Third_Party/LwIP/src/api/api_msg.c ****   LWIP_ASSERT("pcb_new: pcb already allocated", msg->conn->pcb.tcp == NULL);
 426              		.loc 1 613 3 view .LVU105
 427              		.loc 1 613 3 view .LVU106
 428 0004 0368     		ldr	r3, [r0]
 429 0006 5B68     		ldr	r3, [r3, #4]
 430 0008 33B1     		cbz	r3, .L37
 431              		.loc 1 613 3 discriminator 1 view .LVU107
 432              		.loc 1 613 3 discriminator 1 view .LVU108
 433 000a 1B4B     		ldr	r3, .L46
 434 000c 40F26522 		movw	r2, #613
 435 0010 1A49     		ldr	r1, .L46+4
 436 0012 1B48     		ldr	r0, .L46+8
 437              	.LVL48:
 438              		.loc 1 613 3 is_stmt 0 discriminator 1 view .LVU109
 439 0014 FFF7FEFF 		bl	printf
 440              	.LVL49:
 441              	.L37:
 442              		.loc 1 613 3 is_stmt 1 discriminator 3 view .LVU110
 443              		.loc 1 613 3 discriminator 3 view .LVU111
 614:Middlewares/Third_Party/LwIP/src/api/api_msg.c **** 
 615:Middlewares/Third_Party/LwIP/src/api/api_msg.c **** #if LWIP_IPV6 && LWIP_IPV4
 616:Middlewares/Third_Party/LwIP/src/api/api_msg.c ****   /* IPv6: Dual-stack by default, unless netconn_set_ipv6only() is called */
 617:Middlewares/Third_Party/LwIP/src/api/api_msg.c ****   if (NETCONNTYPE_ISIPV6(netconn_type(msg->conn))) {
 618:Middlewares/Third_Party/LwIP/src/api/api_msg.c ****     iptype = IPADDR_TYPE_ANY;
 619:Middlewares/Third_Party/LwIP/src/api/api_msg.c ****   }
 620:Middlewares/Third_Party/LwIP/src/api/api_msg.c **** #endif
 621:Middlewares/Third_Party/LwIP/src/api/api_msg.c **** 
 622:Middlewares/Third_Party/LwIP/src/api/api_msg.c ****   /* Allocate a PCB for this connection */
 623:Middlewares/Third_Party/LwIP/src/api/api_msg.c ****   switch (NETCONNTYPE_GROUP(msg->conn->type)) {
 444              		.loc 1 623 3 view .LVU112
 445              		.loc 1 623 11 is_stmt 0 view .LVU113
 446 0018 2568     		ldr	r5, [r4]
 447 001a 2B78     		ldrb	r3, [r5]	@ zero_extendqisi2
 448 001c 03F0F003 		and	r3, r3, #240
 449              		.loc 1 623 3 view .LVU114
 450 0020 102B     		cmp	r3, #16
 451 0022 17D0     		beq	.L38
 452 0024 202B     		cmp	r3, #32
 453 0026 20D1     		bne	.L39
 624:Middlewares/Third_Party/LwIP/src/api/api_msg.c **** #if LWIP_RAW
 625:Middlewares/Third_Party/LwIP/src/api/api_msg.c ****     case NETCONN_RAW:
 626:Middlewares/Third_Party/LwIP/src/api/api_msg.c ****       msg->conn->pcb.raw = raw_new_ip_type(iptype, msg->msg.n.proto);
 627:Middlewares/Third_Party/LwIP/src/api/api_msg.c ****       if (msg->conn->pcb.raw != NULL) {
 628:Middlewares/Third_Party/LwIP/src/api/api_msg.c **** #if LWIP_IPV6
 629:Middlewares/Third_Party/LwIP/src/api/api_msg.c ****         /* ICMPv6 packets should always have checksum calculated by the stack as per RFC 3542 chapt
 630:Middlewares/Third_Party/LwIP/src/api/api_msg.c ****         if (NETCONNTYPE_ISIPV6(msg->conn->type) && msg->conn->pcb.raw->protocol == IP6_NEXTH_ICMP6)
 631:Middlewares/Third_Party/LwIP/src/api/api_msg.c ****           msg->conn->pcb.raw->chksum_reqd = 1;
 632:Middlewares/Third_Party/LwIP/src/api/api_msg.c ****           msg->conn->pcb.raw->chksum_offset = 2;
 633:Middlewares/Third_Party/LwIP/src/api/api_msg.c ****         }
 634:Middlewares/Third_Party/LwIP/src/api/api_msg.c **** #endif /* LWIP_IPV6 */
ARM GAS  C:\usertemp\ccuz6VZa.s 			page 21


 635:Middlewares/Third_Party/LwIP/src/api/api_msg.c ****         raw_recv(msg->conn->pcb.raw, recv_raw, msg->conn);
 636:Middlewares/Third_Party/LwIP/src/api/api_msg.c ****       }
 637:Middlewares/Third_Party/LwIP/src/api/api_msg.c ****       break;
 638:Middlewares/Third_Party/LwIP/src/api/api_msg.c **** #endif /* LWIP_RAW */
 639:Middlewares/Third_Party/LwIP/src/api/api_msg.c **** #if LWIP_UDP
 640:Middlewares/Third_Party/LwIP/src/api/api_msg.c ****     case NETCONN_UDP:
 641:Middlewares/Third_Party/LwIP/src/api/api_msg.c ****       msg->conn->pcb.udp = udp_new_ip_type(iptype);
 454              		.loc 1 641 7 is_stmt 1 view .LVU115
 455              		.loc 1 641 28 is_stmt 0 view .LVU116
 456 0028 0020     		movs	r0, #0
 457 002a FFF7FEFF 		bl	udp_new_ip_type
 458              	.LVL50:
 459              		.loc 1 641 26 discriminator 1 view .LVU117
 460 002e 6860     		str	r0, [r5, #4]
 642:Middlewares/Third_Party/LwIP/src/api/api_msg.c ****       if (msg->conn->pcb.udp != NULL) {
 461              		.loc 1 642 7 is_stmt 1 view .LVU118
 462              		.loc 1 642 14 is_stmt 0 view .LVU119
 463 0030 2368     		ldr	r3, [r4]
 464              		.loc 1 642 25 view .LVU120
 465 0032 5A68     		ldr	r2, [r3, #4]
 466              		.loc 1 642 10 view .LVU121
 467 0034 3AB1     		cbz	r2, .L40
 643:Middlewares/Third_Party/LwIP/src/api/api_msg.c **** #if LWIP_UDPLITE
 644:Middlewares/Third_Party/LwIP/src/api/api_msg.c ****         if (NETCONNTYPE_ISUDPLITE(msg->conn->type)) {
 645:Middlewares/Third_Party/LwIP/src/api/api_msg.c ****           udp_setflags(msg->conn->pcb.udp, UDP_FLAGS_UDPLITE);
 646:Middlewares/Third_Party/LwIP/src/api/api_msg.c ****         }
 647:Middlewares/Third_Party/LwIP/src/api/api_msg.c **** #endif /* LWIP_UDPLITE */
 648:Middlewares/Third_Party/LwIP/src/api/api_msg.c ****         if (NETCONNTYPE_ISUDPNOCHKSUM(msg->conn->type)) {
 468              		.loc 1 648 9 is_stmt 1 view .LVU122
 469              		.loc 1 648 13 is_stmt 0 view .LVU123
 470 0036 1B78     		ldrb	r3, [r3]	@ zero_extendqisi2
 471              		.loc 1 648 12 view .LVU124
 472 0038 222B     		cmp	r3, #34
 473 003a 08D0     		beq	.L44
 474              	.L41:
 649:Middlewares/Third_Party/LwIP/src/api/api_msg.c ****           udp_setflags(msg->conn->pcb.udp, UDP_FLAGS_NOCHKSUM);
 650:Middlewares/Third_Party/LwIP/src/api/api_msg.c ****         }
 651:Middlewares/Third_Party/LwIP/src/api/api_msg.c ****         udp_recv(msg->conn->pcb.udp, recv_udp, msg->conn);
 475              		.loc 1 651 9 is_stmt 1 view .LVU125
 476              		.loc 1 651 21 is_stmt 0 view .LVU126
 477 003c 2268     		ldr	r2, [r4]
 478              		.loc 1 651 9 view .LVU127
 479 003e 1149     		ldr	r1, .L46+12
 480 0040 5068     		ldr	r0, [r2, #4]
 481 0042 FFF7FEFF 		bl	udp_recv
 482              	.LVL51:
 483              	.L40:
 652:Middlewares/Third_Party/LwIP/src/api/api_msg.c ****       }
 653:Middlewares/Third_Party/LwIP/src/api/api_msg.c ****       break;
 654:Middlewares/Third_Party/LwIP/src/api/api_msg.c **** #endif /* LWIP_UDP */
 655:Middlewares/Third_Party/LwIP/src/api/api_msg.c **** #if LWIP_TCP
 656:Middlewares/Third_Party/LwIP/src/api/api_msg.c ****     case NETCONN_TCP:
 657:Middlewares/Third_Party/LwIP/src/api/api_msg.c ****       msg->conn->pcb.tcp = tcp_new_ip_type(iptype);
 658:Middlewares/Third_Party/LwIP/src/api/api_msg.c ****       if (msg->conn->pcb.tcp != NULL) {
 659:Middlewares/Third_Party/LwIP/src/api/api_msg.c ****         setup_tcp(msg->conn);
 660:Middlewares/Third_Party/LwIP/src/api/api_msg.c ****       }
 661:Middlewares/Third_Party/LwIP/src/api/api_msg.c ****       break;
ARM GAS  C:\usertemp\ccuz6VZa.s 			page 22


 662:Middlewares/Third_Party/LwIP/src/api/api_msg.c **** #endif /* LWIP_TCP */
 663:Middlewares/Third_Party/LwIP/src/api/api_msg.c ****     default:
 664:Middlewares/Third_Party/LwIP/src/api/api_msg.c ****       /* Unsupported netconn type, e.g. protocol disabled */
 665:Middlewares/Third_Party/LwIP/src/api/api_msg.c ****       msg->err = ERR_VAL;
 666:Middlewares/Third_Party/LwIP/src/api/api_msg.c ****       return;
 667:Middlewares/Third_Party/LwIP/src/api/api_msg.c ****   }
 668:Middlewares/Third_Party/LwIP/src/api/api_msg.c ****   if (msg->conn->pcb.ip == NULL) {
 484              		.loc 1 668 3 is_stmt 1 view .LVU128
 485              		.loc 1 668 10 is_stmt 0 view .LVU129
 486 0046 2368     		ldr	r3, [r4]
 487              		.loc 1 668 21 view .LVU130
 488 0048 5B68     		ldr	r3, [r3, #4]
 489              		.loc 1 668 6 view .LVU131
 490 004a 8BB1     		cbz	r3, .L45
 491              	.L36:
 669:Middlewares/Third_Party/LwIP/src/api/api_msg.c ****     msg->err = ERR_MEM;
 670:Middlewares/Third_Party/LwIP/src/api/api_msg.c ****   }
 671:Middlewares/Third_Party/LwIP/src/api/api_msg.c **** }
 492              		.loc 1 671 1 view .LVU132
 493 004c 38BD     		pop	{r3, r4, r5, pc}
 494              	.LVL52:
 495              	.L44:
 649:Middlewares/Third_Party/LwIP/src/api/api_msg.c ****         }
 496              		.loc 1 649 11 is_stmt 1 view .LVU133
 497 004e 0123     		movs	r3, #1
 498 0050 1374     		strb	r3, [r2, #16]
 499 0052 F3E7     		b	.L41
 500              	.L38:
 657:Middlewares/Third_Party/LwIP/src/api/api_msg.c ****       if (msg->conn->pcb.tcp != NULL) {
 501              		.loc 1 657 7 view .LVU134
 657:Middlewares/Third_Party/LwIP/src/api/api_msg.c ****       if (msg->conn->pcb.tcp != NULL) {
 502              		.loc 1 657 28 is_stmt 0 view .LVU135
 503 0054 0020     		movs	r0, #0
 504 0056 FFF7FEFF 		bl	tcp_new_ip_type
 505              	.LVL53:
 657:Middlewares/Third_Party/LwIP/src/api/api_msg.c ****       if (msg->conn->pcb.tcp != NULL) {
 506              		.loc 1 657 26 discriminator 1 view .LVU136
 507 005a 6860     		str	r0, [r5, #4]
 658:Middlewares/Third_Party/LwIP/src/api/api_msg.c ****         setup_tcp(msg->conn);
 508              		.loc 1 658 7 is_stmt 1 view .LVU137
 658:Middlewares/Third_Party/LwIP/src/api/api_msg.c ****         setup_tcp(msg->conn);
 509              		.loc 1 658 14 is_stmt 0 view .LVU138
 510 005c 2068     		ldr	r0, [r4]
 658:Middlewares/Third_Party/LwIP/src/api/api_msg.c ****         setup_tcp(msg->conn);
 511              		.loc 1 658 25 view .LVU139
 512 005e 4368     		ldr	r3, [r0, #4]
 658:Middlewares/Third_Party/LwIP/src/api/api_msg.c ****         setup_tcp(msg->conn);
 513              		.loc 1 658 10 view .LVU140
 514 0060 002B     		cmp	r3, #0
 515 0062 F0D0     		beq	.L40
 659:Middlewares/Third_Party/LwIP/src/api/api_msg.c ****       }
 516              		.loc 1 659 9 is_stmt 1 view .LVU141
 517 0064 FFF7FEFF 		bl	setup_tcp
 518              	.LVL54:
 519 0068 EDE7     		b	.L40
 520              	.L39:
 665:Middlewares/Third_Party/LwIP/src/api/api_msg.c ****       return;
ARM GAS  C:\usertemp\ccuz6VZa.s 			page 23


 521              		.loc 1 665 7 view .LVU142
 665:Middlewares/Third_Party/LwIP/src/api/api_msg.c ****       return;
 522              		.loc 1 665 16 is_stmt 0 view .LVU143
 523 006a FA23     		movs	r3, #250
 524 006c 2371     		strb	r3, [r4, #4]
 666:Middlewares/Third_Party/LwIP/src/api/api_msg.c ****   }
 525              		.loc 1 666 7 is_stmt 1 view .LVU144
 526 006e EDE7     		b	.L36
 527              	.L45:
 669:Middlewares/Third_Party/LwIP/src/api/api_msg.c ****   }
 528              		.loc 1 669 5 view .LVU145
 669:Middlewares/Third_Party/LwIP/src/api/api_msg.c ****   }
 529              		.loc 1 669 14 is_stmt 0 view .LVU146
 530 0070 FF23     		movs	r3, #255
 531 0072 2371     		strb	r3, [r4, #4]
 532 0074 EAE7     		b	.L36
 533              	.L47:
 534 0076 00BF     		.align	2
 535              	.L46:
 536 0078 00000000 		.word	.LC0
 537 007c 00000000 		.word	.LC6
 538 0080 40000000 		.word	.LC2
 539 0084 00000000 		.word	recv_udp
 540              		.cfi_endproc
 541              	.LFE373:
 543              		.section	.rodata.err_tcp.str1.4,"aMS",%progbits,1
 544              		.align	2
 545              	.LC7:
 546 0000 636F6E6E 		.ascii	"conn != NULL\000"
 546      20213D20 
 546      4E554C4C 
 546      00
 547 000d 000000   		.align	2
 548              	.LC8:
 549 0010 636F6E6E 		.ascii	"conn->current_msg != NULL\000"
 549      2D3E6375 
 549      7272656E 
 549      745F6D73 
 549      6720213D 
 550 002a 0000     		.align	2
 551              	.LC9:
 552 002c 696E6176 		.ascii	"inavlid op_completed_sem\000"
 552      6C696420 
 552      6F705F63 
 552      6F6D706C 
 552      65746564 
 553 0045 000000   		.align	2
 554              	.LC10:
 555 0048 636F6E6E 		.ascii	"conn->current_msg == NULL\000"
 555      2D3E6375 
 555      7272656E 
 555      745F6D73 
 555      67203D3D 
 556              		.section	.text.err_tcp,"ax",%progbits
 557              		.align	1
 558              		.syntax unified
 559              		.thumb
ARM GAS  C:\usertemp\ccuz6VZa.s 			page 24


 560              		.thumb_func
 562              	err_tcp:
 563              	.LVL55:
 564              	.LFB370:
 433:Middlewares/Third_Party/LwIP/src/api/api_msg.c ****   struct netconn *conn;
 565              		.loc 1 433 1 is_stmt 1 view -0
 566              		.cfi_startproc
 567              		@ args = 0, pretend = 0, frame = 0
 568              		@ frame_needed = 0, uses_anonymous_args = 0
 433:Middlewares/Third_Party/LwIP/src/api/api_msg.c ****   struct netconn *conn;
 569              		.loc 1 433 1 is_stmt 0 view .LVU148
 570 0000 2DE9F041 		push	{r4, r5, r6, r7, r8, lr}
 571              	.LCFI5:
 572              		.cfi_def_cfa_offset 24
 573              		.cfi_offset 4, -24
 574              		.cfi_offset 5, -20
 575              		.cfi_offset 6, -16
 576              		.cfi_offset 7, -12
 577              		.cfi_offset 8, -8
 578              		.cfi_offset 14, -4
 579 0004 0D46     		mov	r5, r1
 434:Middlewares/Third_Party/LwIP/src/api/api_msg.c ****   enum netconn_state old_state;
 580              		.loc 1 434 3 is_stmt 1 view .LVU149
 435:Middlewares/Third_Party/LwIP/src/api/api_msg.c ****   void *mbox_msg;
 581              		.loc 1 435 3 view .LVU150
 436:Middlewares/Third_Party/LwIP/src/api/api_msg.c ****   SYS_ARCH_DECL_PROTECT(lev);
 582              		.loc 1 436 3 view .LVU151
 437:Middlewares/Third_Party/LwIP/src/api/api_msg.c **** 
 583              		.loc 1 437 3 view .LVU152
 439:Middlewares/Third_Party/LwIP/src/api/api_msg.c ****   LWIP_ASSERT("conn != NULL", (conn != NULL));
 584              		.loc 1 439 3 view .LVU153
 585              	.LVL56:
 440:Middlewares/Third_Party/LwIP/src/api/api_msg.c **** 
 586              		.loc 1 440 3 view .LVU154
 440:Middlewares/Third_Party/LwIP/src/api/api_msg.c **** 
 587              		.loc 1 440 3 view .LVU155
 588 0006 0446     		mov	r4, r0
 589 0008 0028     		cmp	r0, #0
 590 000a 3ED0     		beq	.L63
 591              	.LVL57:
 592              	.L49:
 440:Middlewares/Third_Party/LwIP/src/api/api_msg.c **** 
 593              		.loc 1 440 3 discriminator 3 view .LVU156
 440:Middlewares/Third_Party/LwIP/src/api/api_msg.c **** 
 594              		.loc 1 440 3 discriminator 3 view .LVU157
 442:Middlewares/Third_Party/LwIP/src/api/api_msg.c **** 
 595              		.loc 1 442 3 view .LVU158
 596 000c FFF7FEFF 		bl	sys_arch_protect
 597              	.LVL58:
 445:Middlewares/Third_Party/LwIP/src/api/api_msg.c ****   /* store pending error */
 598              		.loc 1 445 3 view .LVU159
 445:Middlewares/Third_Party/LwIP/src/api/api_msg.c ****   /* store pending error */
 599              		.loc 1 445 17 is_stmt 0 view .LVU160
 600 0010 0022     		movs	r2, #0
 601 0012 6260     		str	r2, [r4, #4]
 447:Middlewares/Third_Party/LwIP/src/api/api_msg.c ****   /* prevent application threads from blocking on 'recvmbox'/'acceptmbox' */
 602              		.loc 1 447 3 is_stmt 1 view .LVU161
ARM GAS  C:\usertemp\ccuz6VZa.s 			page 25


 447:Middlewares/Third_Party/LwIP/src/api/api_msg.c ****   /* prevent application threads from blocking on 'recvmbox'/'acceptmbox' */
 603              		.loc 1 447 21 is_stmt 0 view .LVU162
 604 0014 2572     		strb	r5, [r4, #8]
 449:Middlewares/Third_Party/LwIP/src/api/api_msg.c **** 
 605              		.loc 1 449 3 is_stmt 1 view .LVU163
 449:Middlewares/Third_Party/LwIP/src/api/api_msg.c **** 
 606              		.loc 1 449 7 is_stmt 0 view .LVU164
 607 0016 237F     		ldrb	r3, [r4, #28]	@ zero_extendqisi2
 449:Middlewares/Third_Party/LwIP/src/api/api_msg.c **** 
 608              		.loc 1 449 15 view .LVU165
 609 0018 43F00103 		orr	r3, r3, #1
 610 001c 2377     		strb	r3, [r4, #28]
 452:Middlewares/Third_Party/LwIP/src/api/api_msg.c ****   conn->state = NETCONN_NONE;
 611              		.loc 1 452 3 is_stmt 1 view .LVU166
 452:Middlewares/Third_Party/LwIP/src/api/api_msg.c ****   conn->state = NETCONN_NONE;
 612              		.loc 1 452 13 is_stmt 0 view .LVU167
 613 001e 6678     		ldrb	r6, [r4, #1]	@ zero_extendqisi2
 614              	.LVL59:
 453:Middlewares/Third_Party/LwIP/src/api/api_msg.c **** 
 615              		.loc 1 453 3 is_stmt 1 view .LVU168
 453:Middlewares/Third_Party/LwIP/src/api/api_msg.c **** 
 616              		.loc 1 453 15 is_stmt 0 view .LVU169
 617 0020 6270     		strb	r2, [r4, #1]
 455:Middlewares/Third_Party/LwIP/src/api/api_msg.c **** 
 618              		.loc 1 455 3 is_stmt 1 view .LVU170
 619 0022 FFF7FEFF 		bl	sys_arch_unprotect
 620              	.LVL60:
 458:Middlewares/Third_Party/LwIP/src/api/api_msg.c ****   /* Try to release selects pending on 'read' or 'write', too.
 621              		.loc 1 458 3 view .LVU171
 622 0026 636A     		ldr	r3, [r4, #36]
 623 0028 1BB1     		cbz	r3, .L50
 458:Middlewares/Third_Party/LwIP/src/api/api_msg.c ****   /* Try to release selects pending on 'read' or 'write', too.
 624              		.loc 1 458 3 discriminator 1 view .LVU172
 625 002a 0022     		movs	r2, #0
 626 002c 0421     		movs	r1, #4
 627 002e 2046     		mov	r0, r4
 628 0030 9847     		blx	r3
 629              	.LVL61:
 630              	.L50:
 458:Middlewares/Third_Party/LwIP/src/api/api_msg.c ****   /* Try to release selects pending on 'read' or 'write', too.
 631              		.loc 1 458 40 discriminator 3 view .LVU173
 461:Middlewares/Third_Party/LwIP/src/api/api_msg.c ****   API_EVENT(conn, NETCONN_EVT_SENDPLUS, 0);
 632              		.loc 1 461 3 view .LVU174
 633 0032 636A     		ldr	r3, [r4, #36]
 634 0034 1BB1     		cbz	r3, .L51
 461:Middlewares/Third_Party/LwIP/src/api/api_msg.c ****   API_EVENT(conn, NETCONN_EVT_SENDPLUS, 0);
 635              		.loc 1 461 3 discriminator 1 view .LVU175
 636 0036 0022     		movs	r2, #0
 637 0038 1146     		mov	r1, r2
 638 003a 2046     		mov	r0, r4
 639 003c 9847     		blx	r3
 640              	.LVL62:
 641              	.L51:
 461:Middlewares/Third_Party/LwIP/src/api/api_msg.c ****   API_EVENT(conn, NETCONN_EVT_SENDPLUS, 0);
 642              		.loc 1 461 42 discriminator 3 view .LVU176
 462:Middlewares/Third_Party/LwIP/src/api/api_msg.c **** 
 643              		.loc 1 462 3 view .LVU177
ARM GAS  C:\usertemp\ccuz6VZa.s 			page 26


 644 003e 636A     		ldr	r3, [r4, #36]
 645 0040 1BB1     		cbz	r3, .L52
 462:Middlewares/Third_Party/LwIP/src/api/api_msg.c **** 
 646              		.loc 1 462 3 discriminator 1 view .LVU178
 647 0042 0022     		movs	r2, #0
 648 0044 0221     		movs	r1, #2
 649 0046 2046     		mov	r0, r4
 650 0048 9847     		blx	r3
 651              	.LVL63:
 652              	.L52:
 462:Middlewares/Third_Party/LwIP/src/api/api_msg.c **** 
 653              		.loc 1 462 43 discriminator 3 view .LVU179
 464:Middlewares/Third_Party/LwIP/src/api/api_msg.c ****   /* pass error message to recvmbox to wake up pending recv */
 654              		.loc 1 464 3 view .LVU180
 464:Middlewares/Third_Party/LwIP/src/api/api_msg.c ****   /* pass error message to recvmbox to wake up pending recv */
 655              		.loc 1 464 14 is_stmt 0 view .LVU181
 656 004a 2846     		mov	r0, r5
 657 004c FFF7FEFF 		bl	lwip_netconn_err_to_msg
 658              	.LVL64:
 659 0050 0746     		mov	r7, r0
 660              	.LVL65:
 466:Middlewares/Third_Party/LwIP/src/api/api_msg.c ****     /* use trypost to prevent deadlock */
 661              		.loc 1 466 3 is_stmt 1 view .LVU182
 466:Middlewares/Third_Party/LwIP/src/api/api_msg.c ****     /* use trypost to prevent deadlock */
 662              		.loc 1 466 7 is_stmt 0 view .LVU183
 663 0052 04F11008 		add	r8, r4, #16
 664 0056 4046     		mov	r0, r8
 665              	.LVL66:
 466:Middlewares/Third_Party/LwIP/src/api/api_msg.c ****     /* use trypost to prevent deadlock */
 666              		.loc 1 466 7 view .LVU184
 667 0058 FFF7FEFF 		bl	sys_mbox_valid
 668              	.LVL67:
 466:Middlewares/Third_Party/LwIP/src/api/api_msg.c ****     /* use trypost to prevent deadlock */
 669              		.loc 1 466 6 discriminator 1 view .LVU185
 670 005c E8B9     		cbnz	r0, .L64
 671              	.L53:
 471:Middlewares/Third_Party/LwIP/src/api/api_msg.c ****     /* use trypost to preven deadlock */
 672              		.loc 1 471 3 is_stmt 1 view .LVU186
 471:Middlewares/Third_Party/LwIP/src/api/api_msg.c ****     /* use trypost to preven deadlock */
 673              		.loc 1 471 7 is_stmt 0 view .LVU187
 674 005e 04F11408 		add	r8, r4, #20
 675 0062 4046     		mov	r0, r8
 676 0064 FFF7FEFF 		bl	sys_mbox_valid
 677              	.LVL68:
 471:Middlewares/Third_Party/LwIP/src/api/api_msg.c ****     /* use trypost to preven deadlock */
 678              		.loc 1 471 6 discriminator 1 view .LVU188
 679 0068 E0B9     		cbnz	r0, .L65
 680              	.L54:
 476:Middlewares/Third_Party/LwIP/src/api/api_msg.c ****       (old_state == NETCONN_CONNECT)) {
 681              		.loc 1 476 3 is_stmt 1 view .LVU189
 476:Middlewares/Third_Party/LwIP/src/api/api_msg.c ****       (old_state == NETCONN_CONNECT)) {
 682              		.loc 1 476 6 is_stmt 0 view .LVU190
 683 006a 042E     		cmp	r6, #4
 684 006c 18BF     		it	ne
 685 006e 012E     		cmpne	r6, #1
 686 0070 1DD0     		beq	.L55
 476:Middlewares/Third_Party/LwIP/src/api/api_msg.c ****       (old_state == NETCONN_CONNECT)) {
ARM GAS  C:\usertemp\ccuz6VZa.s 			page 27


 687              		.loc 1 476 68 discriminator 1 view .LVU191
 688 0072 032E     		cmp	r6, #3
 689 0074 1BD0     		beq	.L55
 503:Middlewares/Third_Party/LwIP/src/api/api_msg.c ****   }
 690              		.loc 1 503 5 is_stmt 1 view .LVU192
 503:Middlewares/Third_Party/LwIP/src/api/api_msg.c ****   }
 691              		.loc 1 503 5 view .LVU193
 692 0076 236A     		ldr	r3, [r4, #32]
 693 0078 93B3     		cbz	r3, .L48
 503:Middlewares/Third_Party/LwIP/src/api/api_msg.c ****   }
 694              		.loc 1 503 5 discriminator 1 view .LVU194
 503:Middlewares/Third_Party/LwIP/src/api/api_msg.c ****   }
 695              		.loc 1 503 5 discriminator 1 view .LVU195
 696 007a 244B     		ldr	r3, .L69
 697 007c 40F2F712 		movw	r2, #503
 698 0080 2349     		ldr	r1, .L69+4
 699 0082 2448     		ldr	r0, .L69+8
 700 0084 FFF7FEFF 		bl	printf
 701              	.LVL69:
 503:Middlewares/Third_Party/LwIP/src/api/api_msg.c ****   }
 702              		.loc 1 503 5 discriminator 3 view .LVU196
 503:Middlewares/Third_Party/LwIP/src/api/api_msg.c ****   }
 703              		.loc 1 503 5 discriminator 3 view .LVU197
 505:Middlewares/Third_Party/LwIP/src/api/api_msg.c **** 
 704              		.loc 1 505 1 is_stmt 0 view .LVU198
 705 0088 2AE0     		b	.L48
 706              	.LVL70:
 707              	.L63:
 440:Middlewares/Third_Party/LwIP/src/api/api_msg.c **** 
 708              		.loc 1 440 3 is_stmt 1 discriminator 1 view .LVU199
 440:Middlewares/Third_Party/LwIP/src/api/api_msg.c **** 
 709              		.loc 1 440 3 discriminator 1 view .LVU200
 710 008a 204B     		ldr	r3, .L69
 711 008c 4FF4DC72 		mov	r2, #440
 712 0090 2149     		ldr	r1, .L69+12
 713              	.LVL71:
 440:Middlewares/Third_Party/LwIP/src/api/api_msg.c **** 
 714              		.loc 1 440 3 is_stmt 0 discriminator 1 view .LVU201
 715 0092 2048     		ldr	r0, .L69+8
 716              	.LVL72:
 440:Middlewares/Third_Party/LwIP/src/api/api_msg.c **** 
 717              		.loc 1 440 3 discriminator 1 view .LVU202
 718 0094 FFF7FEFF 		bl	printf
 719              	.LVL73:
 720 0098 B8E7     		b	.L49
 721              	.LVL74:
 722              	.L64:
 468:Middlewares/Third_Party/LwIP/src/api/api_msg.c ****   }
 723              		.loc 1 468 5 is_stmt 1 view .LVU203
 724 009a 3946     		mov	r1, r7
 725 009c 4046     		mov	r0, r8
 726 009e FFF7FEFF 		bl	sys_mbox_trypost
 727              	.LVL75:
 728 00a2 DCE7     		b	.L53
 729              	.L65:
 473:Middlewares/Third_Party/LwIP/src/api/api_msg.c ****   }
 730              		.loc 1 473 5 view .LVU204
ARM GAS  C:\usertemp\ccuz6VZa.s 			page 28


 731 00a4 3946     		mov	r1, r7
 732 00a6 4046     		mov	r0, r8
 733 00a8 FFF7FEFF 		bl	sys_mbox_trypost
 734              	.LVL76:
 735 00ac DDE7     		b	.L54
 736              	.L55:
 737              	.LBB2:
 480:Middlewares/Third_Party/LwIP/src/api/api_msg.c ****     SET_NONBLOCKING_CONNECT(conn, 0);
 738              		.loc 1 480 5 view .LVU205
 480:Middlewares/Third_Party/LwIP/src/api/api_msg.c ****     SET_NONBLOCKING_CONNECT(conn, 0);
 739              		.loc 1 480 35 is_stmt 0 view .LVU206
 740 00ae 237F     		ldrb	r3, [r4, #28]	@ zero_extendqisi2
 741              	.LVL77:
 481:Middlewares/Third_Party/LwIP/src/api/api_msg.c **** 
 742              		.loc 1 481 5 is_stmt 1 view .LVU207
 481:Middlewares/Third_Party/LwIP/src/api/api_msg.c **** 
 743              		.loc 1 481 5 view .LVU208
 481:Middlewares/Third_Party/LwIP/src/api/api_msg.c **** 
 744              		.loc 1 481 5 discriminator 2 view .LVU209
 481:Middlewares/Third_Party/LwIP/src/api/api_msg.c **** 
 745              		.loc 1 481 5 discriminator 2 view .LVU210
 746 00b0 03F0FB02 		and	r2, r3, #251
 747 00b4 2277     		strb	r2, [r4, #28]
 481:Middlewares/Third_Party/LwIP/src/api/api_msg.c **** 
 748              		.loc 1 481 5 discriminator 4 view .LVU211
 481:Middlewares/Third_Party/LwIP/src/api/api_msg.c **** 
 749              		.loc 1 481 5 discriminator 4 view .LVU212
 483:Middlewares/Third_Party/LwIP/src/api/api_msg.c ****       sys_sem_t *op_completed_sem;
 750              		.loc 1 483 5 view .LVU213
 483:Middlewares/Third_Party/LwIP/src/api/api_msg.c ****       sys_sem_t *op_completed_sem;
 751              		.loc 1 483 8 is_stmt 0 view .LVU214
 752 00b6 13F0040F 		tst	r3, #4
 753 00ba 11D1     		bne	.L48
 754              	.LBB3:
 484:Middlewares/Third_Party/LwIP/src/api/api_msg.c ****       /* set error return code */
 755              		.loc 1 484 7 is_stmt 1 view .LVU215
 486:Middlewares/Third_Party/LwIP/src/api/api_msg.c ****       if (old_state == NETCONN_CLOSE) {
 756              		.loc 1 486 7 view .LVU216
 486:Middlewares/Third_Party/LwIP/src/api/api_msg.c ****       if (old_state == NETCONN_CLOSE) {
 757              		.loc 1 486 7 view .LVU217
 758 00bc 236A     		ldr	r3, [r4, #32]
 759              	.LVL78:
 486:Middlewares/Third_Party/LwIP/src/api/api_msg.c ****       if (old_state == NETCONN_CLOSE) {
 760              		.loc 1 486 7 is_stmt 0 view .LVU218
 761 00be 8BB1     		cbz	r3, .L66
 762              	.L58:
 486:Middlewares/Third_Party/LwIP/src/api/api_msg.c ****       if (old_state == NETCONN_CLOSE) {
 763              		.loc 1 486 7 is_stmt 1 discriminator 3 view .LVU219
 486:Middlewares/Third_Party/LwIP/src/api/api_msg.c ****       if (old_state == NETCONN_CLOSE) {
 764              		.loc 1 486 7 discriminator 3 view .LVU220
 487:Middlewares/Third_Party/LwIP/src/api/api_msg.c ****         /* let close succeed: the connection is closed after all... */
 765              		.loc 1 487 7 view .LVU221
 487:Middlewares/Third_Party/LwIP/src/api/api_msg.c ****         /* let close succeed: the connection is closed after all... */
 766              		.loc 1 487 10 is_stmt 0 view .LVU222
 767 00c0 042E     		cmp	r6, #4
 768 00c2 17D0     		beq	.L67
 492:Middlewares/Third_Party/LwIP/src/api/api_msg.c ****       }
ARM GAS  C:\usertemp\ccuz6VZa.s 			page 29


 769              		.loc 1 492 9 is_stmt 1 view .LVU223
 492:Middlewares/Third_Party/LwIP/src/api/api_msg.c ****       }
 770              		.loc 1 492 13 is_stmt 0 view .LVU224
 771 00c4 236A     		ldr	r3, [r4, #32]
 492:Middlewares/Third_Party/LwIP/src/api/api_msg.c ****       }
 772              		.loc 1 492 32 view .LVU225
 773 00c6 1D71     		strb	r5, [r3, #4]
 774              	.L60:
 494:Middlewares/Third_Party/LwIP/src/api/api_msg.c ****       LWIP_ASSERT("inavlid op_completed_sem", sys_sem_valid(op_completed_sem));
 775              		.loc 1 494 7 is_stmt 1 view .LVU226
 494:Middlewares/Third_Party/LwIP/src/api/api_msg.c ****       LWIP_ASSERT("inavlid op_completed_sem", sys_sem_valid(op_completed_sem));
 776              		.loc 1 494 26 is_stmt 0 view .LVU227
 777 00c8 236A     		ldr	r3, [r4, #32]
 778 00ca 1D68     		ldr	r5, [r3]
 779              	.LVL79:
 494:Middlewares/Third_Party/LwIP/src/api/api_msg.c ****       LWIP_ASSERT("inavlid op_completed_sem", sys_sem_valid(op_completed_sem));
 780              		.loc 1 494 24 view .LVU228
 781 00cc 0C35     		adds	r5, r5, #12
 782              	.LVL80:
 495:Middlewares/Third_Party/LwIP/src/api/api_msg.c ****       conn->current_msg = NULL;
 783              		.loc 1 495 7 is_stmt 1 view .LVU229
 495:Middlewares/Third_Party/LwIP/src/api/api_msg.c ****       conn->current_msg = NULL;
 784              		.loc 1 495 7 view .LVU230
 785 00ce 2846     		mov	r0, r5
 786 00d0 FFF7FEFF 		bl	sys_sem_valid
 787              	.LVL81:
 495:Middlewares/Third_Party/LwIP/src/api/api_msg.c ****       conn->current_msg = NULL;
 788              		.loc 1 495 7 is_stmt 0 discriminator 1 view .LVU231
 789 00d4 90B1     		cbz	r0, .L68
 790              	.L61:
 495:Middlewares/Third_Party/LwIP/src/api/api_msg.c ****       conn->current_msg = NULL;
 791              		.loc 1 495 7 is_stmt 1 discriminator 3 view .LVU232
 495:Middlewares/Third_Party/LwIP/src/api/api_msg.c ****       conn->current_msg = NULL;
 792              		.loc 1 495 7 discriminator 3 view .LVU233
 496:Middlewares/Third_Party/LwIP/src/api/api_msg.c ****       /* wake up the waiting task */
 793              		.loc 1 496 7 view .LVU234
 496:Middlewares/Third_Party/LwIP/src/api/api_msg.c ****       /* wake up the waiting task */
 794              		.loc 1 496 25 is_stmt 0 view .LVU235
 795 00d6 0023     		movs	r3, #0
 796 00d8 2362     		str	r3, [r4, #32]
 498:Middlewares/Third_Party/LwIP/src/api/api_msg.c ****     } else {
 797              		.loc 1 498 7 is_stmt 1 view .LVU236
 798 00da 2846     		mov	r0, r5
 799 00dc FFF7FEFF 		bl	sys_sem_signal
 800              	.LVL82:
 801              	.L48:
 498:Middlewares/Third_Party/LwIP/src/api/api_msg.c ****     } else {
 802              		.loc 1 498 7 is_stmt 0 view .LVU237
 803              	.LBE3:
 804              	.LBE2:
 505:Middlewares/Third_Party/LwIP/src/api/api_msg.c **** 
 805              		.loc 1 505 1 view .LVU238
 806 00e0 BDE8F081 		pop	{r4, r5, r6, r7, r8, pc}
 807              	.LVL83:
 808              	.L66:
 809              	.LBB5:
 810              	.LBB4:
ARM GAS  C:\usertemp\ccuz6VZa.s 			page 30


 486:Middlewares/Third_Party/LwIP/src/api/api_msg.c ****       if (old_state == NETCONN_CLOSE) {
 811              		.loc 1 486 7 is_stmt 1 discriminator 1 view .LVU239
 486:Middlewares/Third_Party/LwIP/src/api/api_msg.c ****       if (old_state == NETCONN_CLOSE) {
 812              		.loc 1 486 7 discriminator 1 view .LVU240
 813 00e4 094B     		ldr	r3, .L69
 814 00e6 4FF4F372 		mov	r2, #486
 815 00ea 0C49     		ldr	r1, .L69+16
 816 00ec 0948     		ldr	r0, .L69+8
 817 00ee FFF7FEFF 		bl	printf
 818              	.LVL84:
 819 00f2 E5E7     		b	.L58
 820              	.L67:
 489:Middlewares/Third_Party/LwIP/src/api/api_msg.c ****       } else {
 821              		.loc 1 489 9 view .LVU241
 489:Middlewares/Third_Party/LwIP/src/api/api_msg.c ****       } else {
 822              		.loc 1 489 13 is_stmt 0 view .LVU242
 823 00f4 236A     		ldr	r3, [r4, #32]
 489:Middlewares/Third_Party/LwIP/src/api/api_msg.c ****       } else {
 824              		.loc 1 489 32 view .LVU243
 825 00f6 0022     		movs	r2, #0
 826 00f8 1A71     		strb	r2, [r3, #4]
 827 00fa E5E7     		b	.L60
 828              	.LVL85:
 829              	.L68:
 495:Middlewares/Third_Party/LwIP/src/api/api_msg.c ****       conn->current_msg = NULL;
 830              		.loc 1 495 7 is_stmt 1 discriminator 1 view .LVU244
 495:Middlewares/Third_Party/LwIP/src/api/api_msg.c ****       conn->current_msg = NULL;
 831              		.loc 1 495 7 discriminator 1 view .LVU245
 832 00fc 034B     		ldr	r3, .L69
 833 00fe 40F2EF12 		movw	r2, #495
 834 0102 0749     		ldr	r1, .L69+20
 835 0104 0348     		ldr	r0, .L69+8
 836 0106 FFF7FEFF 		bl	printf
 837              	.LVL86:
 838 010a E4E7     		b	.L61
 839              	.L70:
 840              		.align	2
 841              	.L69:
 842 010c 00000000 		.word	.LC0
 843 0110 48000000 		.word	.LC10
 844 0114 40000000 		.word	.LC2
 845 0118 00000000 		.word	.LC7
 846 011c 10000000 		.word	.LC8
 847 0120 2C000000 		.word	.LC9
 848              	.LBE4:
 849              	.LBE5:
 850              		.cfi_endproc
 851              	.LFE370:
 853              		.section	.rodata.lwip_netconn_do_connected.str1.4,"aMS",%progbits,1
 854              		.align	2
 855              	.LC11:
 856 0000 636F6E6E 		.ascii	"conn->state == NETCONN_CONNECT\000"
 856      2D3E7374 
 856      61746520 
 856      3D3D204E 
 856      4554434F 
 857 001f 00       		.align	2
ARM GAS  C:\usertemp\ccuz6VZa.s 			page 31


 858              	.LC12:
 859 0020 28636F6E 		.ascii	"(conn->current_msg != NULL) || conn->in_non_blockin"
 859      6E2D3E63 
 859      75727265 
 859      6E745F6D 
 859      73672021 
 860 0053 675F636F 		.ascii	"g_connect\000"
 860      6E6E6563 
 860      7400
 861 005d 000000   		.align	2
 862              	.LC13:
 863 0060 626C6F63 		.ascii	"blocking connect state error\000"
 863      6B696E67 
 863      20636F6E 
 863      6E656374 
 863      20737461 
 864              		.section	.text.lwip_netconn_do_connected,"ax",%progbits
 865              		.align	1
 866              		.syntax unified
 867              		.thumb
 868              		.thumb_func
 870              	lwip_netconn_do_connected:
 871              	.LVL87:
 872              	.LFB382:
 672:Middlewares/Third_Party/LwIP/src/api/api_msg.c **** 
 673:Middlewares/Third_Party/LwIP/src/api/api_msg.c **** /**
 674:Middlewares/Third_Party/LwIP/src/api/api_msg.c ****  * Create a new pcb of a specific type inside a netconn.
 675:Middlewares/Third_Party/LwIP/src/api/api_msg.c ****  * Called from netconn_new_with_proto_and_callback.
 676:Middlewares/Third_Party/LwIP/src/api/api_msg.c ****  *
 677:Middlewares/Third_Party/LwIP/src/api/api_msg.c ****  * @param m the api_msg describing the connection type
 678:Middlewares/Third_Party/LwIP/src/api/api_msg.c ****  */
 679:Middlewares/Third_Party/LwIP/src/api/api_msg.c **** void
 680:Middlewares/Third_Party/LwIP/src/api/api_msg.c **** lwip_netconn_do_newconn(void *m)
 681:Middlewares/Third_Party/LwIP/src/api/api_msg.c **** {
 682:Middlewares/Third_Party/LwIP/src/api/api_msg.c ****   struct api_msg *msg = (struct api_msg *)m;
 683:Middlewares/Third_Party/LwIP/src/api/api_msg.c **** 
 684:Middlewares/Third_Party/LwIP/src/api/api_msg.c ****   msg->err = ERR_OK;
 685:Middlewares/Third_Party/LwIP/src/api/api_msg.c ****   if (msg->conn->pcb.tcp == NULL) {
 686:Middlewares/Third_Party/LwIP/src/api/api_msg.c ****     pcb_new(msg);
 687:Middlewares/Third_Party/LwIP/src/api/api_msg.c ****   }
 688:Middlewares/Third_Party/LwIP/src/api/api_msg.c ****   /* Else? This "new" connection already has a PCB allocated. */
 689:Middlewares/Third_Party/LwIP/src/api/api_msg.c ****   /* Is this an error condition? Should it be deleted? */
 690:Middlewares/Third_Party/LwIP/src/api/api_msg.c ****   /* We currently just are happy and return. */
 691:Middlewares/Third_Party/LwIP/src/api/api_msg.c **** 
 692:Middlewares/Third_Party/LwIP/src/api/api_msg.c ****   TCPIP_APIMSG_ACK(msg);
 693:Middlewares/Third_Party/LwIP/src/api/api_msg.c **** }
 694:Middlewares/Third_Party/LwIP/src/api/api_msg.c **** 
 695:Middlewares/Third_Party/LwIP/src/api/api_msg.c **** /**
 696:Middlewares/Third_Party/LwIP/src/api/api_msg.c ****  * Create a new netconn (of a specific type) that has a callback function.
 697:Middlewares/Third_Party/LwIP/src/api/api_msg.c ****  * The corresponding pcb is NOT created!
 698:Middlewares/Third_Party/LwIP/src/api/api_msg.c ****  *
 699:Middlewares/Third_Party/LwIP/src/api/api_msg.c ****  * @param t the type of 'connection' to create (@see enum netconn_type)
 700:Middlewares/Third_Party/LwIP/src/api/api_msg.c ****  * @param callback a function to call on status changes (RX available, TX'ed)
 701:Middlewares/Third_Party/LwIP/src/api/api_msg.c ****  * @return a newly allocated struct netconn or
 702:Middlewares/Third_Party/LwIP/src/api/api_msg.c ****  *         NULL on memory error
 703:Middlewares/Third_Party/LwIP/src/api/api_msg.c ****  */
 704:Middlewares/Third_Party/LwIP/src/api/api_msg.c **** struct netconn *
ARM GAS  C:\usertemp\ccuz6VZa.s 			page 32


 705:Middlewares/Third_Party/LwIP/src/api/api_msg.c **** netconn_alloc(enum netconn_type t, netconn_callback callback)
 706:Middlewares/Third_Party/LwIP/src/api/api_msg.c **** {
 707:Middlewares/Third_Party/LwIP/src/api/api_msg.c ****   struct netconn *conn;
 708:Middlewares/Third_Party/LwIP/src/api/api_msg.c ****   int size;
 709:Middlewares/Third_Party/LwIP/src/api/api_msg.c ****   u8_t init_flags = 0;
 710:Middlewares/Third_Party/LwIP/src/api/api_msg.c **** 
 711:Middlewares/Third_Party/LwIP/src/api/api_msg.c ****   conn = (struct netconn *)memp_malloc(MEMP_NETCONN);
 712:Middlewares/Third_Party/LwIP/src/api/api_msg.c ****   if (conn == NULL) {
 713:Middlewares/Third_Party/LwIP/src/api/api_msg.c ****     return NULL;
 714:Middlewares/Third_Party/LwIP/src/api/api_msg.c ****   }
 715:Middlewares/Third_Party/LwIP/src/api/api_msg.c **** 
 716:Middlewares/Third_Party/LwIP/src/api/api_msg.c ****   conn->pending_err = ERR_OK;
 717:Middlewares/Third_Party/LwIP/src/api/api_msg.c ****   conn->type = t;
 718:Middlewares/Third_Party/LwIP/src/api/api_msg.c ****   conn->pcb.tcp = NULL;
 719:Middlewares/Third_Party/LwIP/src/api/api_msg.c **** 
 720:Middlewares/Third_Party/LwIP/src/api/api_msg.c ****   /* If all sizes are the same, every compiler should optimize this switch to nothing */
 721:Middlewares/Third_Party/LwIP/src/api/api_msg.c ****   switch (NETCONNTYPE_GROUP(t)) {
 722:Middlewares/Third_Party/LwIP/src/api/api_msg.c **** #if LWIP_RAW
 723:Middlewares/Third_Party/LwIP/src/api/api_msg.c ****     case NETCONN_RAW:
 724:Middlewares/Third_Party/LwIP/src/api/api_msg.c ****       size = DEFAULT_RAW_RECVMBOX_SIZE;
 725:Middlewares/Third_Party/LwIP/src/api/api_msg.c ****       break;
 726:Middlewares/Third_Party/LwIP/src/api/api_msg.c **** #endif /* LWIP_RAW */
 727:Middlewares/Third_Party/LwIP/src/api/api_msg.c **** #if LWIP_UDP
 728:Middlewares/Third_Party/LwIP/src/api/api_msg.c ****     case NETCONN_UDP:
 729:Middlewares/Third_Party/LwIP/src/api/api_msg.c ****       size = DEFAULT_UDP_RECVMBOX_SIZE;
 730:Middlewares/Third_Party/LwIP/src/api/api_msg.c **** #if LWIP_NETBUF_RECVINFO
 731:Middlewares/Third_Party/LwIP/src/api/api_msg.c ****       init_flags |= NETCONN_FLAG_PKTINFO;
 732:Middlewares/Third_Party/LwIP/src/api/api_msg.c **** #endif /* LWIP_NETBUF_RECVINFO */
 733:Middlewares/Third_Party/LwIP/src/api/api_msg.c ****       break;
 734:Middlewares/Third_Party/LwIP/src/api/api_msg.c **** #endif /* LWIP_UDP */
 735:Middlewares/Third_Party/LwIP/src/api/api_msg.c **** #if LWIP_TCP
 736:Middlewares/Third_Party/LwIP/src/api/api_msg.c ****     case NETCONN_TCP:
 737:Middlewares/Third_Party/LwIP/src/api/api_msg.c ****       size = DEFAULT_TCP_RECVMBOX_SIZE;
 738:Middlewares/Third_Party/LwIP/src/api/api_msg.c ****       break;
 739:Middlewares/Third_Party/LwIP/src/api/api_msg.c **** #endif /* LWIP_TCP */
 740:Middlewares/Third_Party/LwIP/src/api/api_msg.c ****     default:
 741:Middlewares/Third_Party/LwIP/src/api/api_msg.c ****       LWIP_ASSERT("netconn_alloc: undefined netconn_type", 0);
 742:Middlewares/Third_Party/LwIP/src/api/api_msg.c ****       goto free_and_return;
 743:Middlewares/Third_Party/LwIP/src/api/api_msg.c ****   }
 744:Middlewares/Third_Party/LwIP/src/api/api_msg.c **** 
 745:Middlewares/Third_Party/LwIP/src/api/api_msg.c ****   if (sys_mbox_new(&conn->recvmbox, size) != ERR_OK) {
 746:Middlewares/Third_Party/LwIP/src/api/api_msg.c ****     goto free_and_return;
 747:Middlewares/Third_Party/LwIP/src/api/api_msg.c ****   }
 748:Middlewares/Third_Party/LwIP/src/api/api_msg.c **** #if !LWIP_NETCONN_SEM_PER_THREAD
 749:Middlewares/Third_Party/LwIP/src/api/api_msg.c ****   if (sys_sem_new(&conn->op_completed, 0) != ERR_OK) {
 750:Middlewares/Third_Party/LwIP/src/api/api_msg.c ****     sys_mbox_free(&conn->recvmbox);
 751:Middlewares/Third_Party/LwIP/src/api/api_msg.c ****     goto free_and_return;
 752:Middlewares/Third_Party/LwIP/src/api/api_msg.c ****   }
 753:Middlewares/Third_Party/LwIP/src/api/api_msg.c **** #endif
 754:Middlewares/Third_Party/LwIP/src/api/api_msg.c **** 
 755:Middlewares/Third_Party/LwIP/src/api/api_msg.c **** #if LWIP_TCP
 756:Middlewares/Third_Party/LwIP/src/api/api_msg.c ****   sys_mbox_set_invalid(&conn->acceptmbox);
 757:Middlewares/Third_Party/LwIP/src/api/api_msg.c **** #endif
 758:Middlewares/Third_Party/LwIP/src/api/api_msg.c ****   conn->state        = NETCONN_NONE;
 759:Middlewares/Third_Party/LwIP/src/api/api_msg.c **** #if LWIP_SOCKET
 760:Middlewares/Third_Party/LwIP/src/api/api_msg.c ****   /* initialize socket to -1 since 0 is a valid socket */
 761:Middlewares/Third_Party/LwIP/src/api/api_msg.c ****   conn->socket       = -1;
ARM GAS  C:\usertemp\ccuz6VZa.s 			page 33


 762:Middlewares/Third_Party/LwIP/src/api/api_msg.c **** #endif /* LWIP_SOCKET */
 763:Middlewares/Third_Party/LwIP/src/api/api_msg.c ****   conn->callback     = callback;
 764:Middlewares/Third_Party/LwIP/src/api/api_msg.c **** #if LWIP_TCP
 765:Middlewares/Third_Party/LwIP/src/api/api_msg.c ****   conn->current_msg  = NULL;
 766:Middlewares/Third_Party/LwIP/src/api/api_msg.c **** #endif /* LWIP_TCP */
 767:Middlewares/Third_Party/LwIP/src/api/api_msg.c **** #if LWIP_SO_SNDTIMEO
 768:Middlewares/Third_Party/LwIP/src/api/api_msg.c ****   conn->send_timeout = 0;
 769:Middlewares/Third_Party/LwIP/src/api/api_msg.c **** #endif /* LWIP_SO_SNDTIMEO */
 770:Middlewares/Third_Party/LwIP/src/api/api_msg.c **** #if LWIP_SO_RCVTIMEO
 771:Middlewares/Third_Party/LwIP/src/api/api_msg.c ****   conn->recv_timeout = 0;
 772:Middlewares/Third_Party/LwIP/src/api/api_msg.c **** #endif /* LWIP_SO_RCVTIMEO */
 773:Middlewares/Third_Party/LwIP/src/api/api_msg.c **** #if LWIP_SO_RCVBUF
 774:Middlewares/Third_Party/LwIP/src/api/api_msg.c ****   conn->recv_bufsize = RECV_BUFSIZE_DEFAULT;
 775:Middlewares/Third_Party/LwIP/src/api/api_msg.c ****   conn->recv_avail   = 0;
 776:Middlewares/Third_Party/LwIP/src/api/api_msg.c **** #endif /* LWIP_SO_RCVBUF */
 777:Middlewares/Third_Party/LwIP/src/api/api_msg.c **** #if LWIP_SO_LINGER
 778:Middlewares/Third_Party/LwIP/src/api/api_msg.c ****   conn->linger = -1;
 779:Middlewares/Third_Party/LwIP/src/api/api_msg.c **** #endif /* LWIP_SO_LINGER */
 780:Middlewares/Third_Party/LwIP/src/api/api_msg.c ****   conn->flags = init_flags;
 781:Middlewares/Third_Party/LwIP/src/api/api_msg.c ****   return conn;
 782:Middlewares/Third_Party/LwIP/src/api/api_msg.c **** free_and_return:
 783:Middlewares/Third_Party/LwIP/src/api/api_msg.c ****   memp_free(MEMP_NETCONN, conn);
 784:Middlewares/Third_Party/LwIP/src/api/api_msg.c ****   return NULL;
 785:Middlewares/Third_Party/LwIP/src/api/api_msg.c **** }
 786:Middlewares/Third_Party/LwIP/src/api/api_msg.c **** 
 787:Middlewares/Third_Party/LwIP/src/api/api_msg.c **** /**
 788:Middlewares/Third_Party/LwIP/src/api/api_msg.c ****  * Delete a netconn and all its resources.
 789:Middlewares/Third_Party/LwIP/src/api/api_msg.c ****  * The pcb is NOT freed (since we might not be in the right thread context do this).
 790:Middlewares/Third_Party/LwIP/src/api/api_msg.c ****  *
 791:Middlewares/Third_Party/LwIP/src/api/api_msg.c ****  * @param conn the netconn to free
 792:Middlewares/Third_Party/LwIP/src/api/api_msg.c ****  */
 793:Middlewares/Third_Party/LwIP/src/api/api_msg.c **** void
 794:Middlewares/Third_Party/LwIP/src/api/api_msg.c **** netconn_free(struct netconn *conn)
 795:Middlewares/Third_Party/LwIP/src/api/api_msg.c **** {
 796:Middlewares/Third_Party/LwIP/src/api/api_msg.c ****   LWIP_ASSERT("PCB must be deallocated outside this function", conn->pcb.tcp == NULL);
 797:Middlewares/Third_Party/LwIP/src/api/api_msg.c **** 
 798:Middlewares/Third_Party/LwIP/src/api/api_msg.c **** #if LWIP_NETCONN_FULLDUPLEX
 799:Middlewares/Third_Party/LwIP/src/api/api_msg.c ****   /* in fullduplex, netconn is drained here */
 800:Middlewares/Third_Party/LwIP/src/api/api_msg.c ****   netconn_drain(conn);
 801:Middlewares/Third_Party/LwIP/src/api/api_msg.c **** #endif /* LWIP_NETCONN_FULLDUPLEX */
 802:Middlewares/Third_Party/LwIP/src/api/api_msg.c **** 
 803:Middlewares/Third_Party/LwIP/src/api/api_msg.c ****   LWIP_ASSERT("recvmbox must be deallocated before calling this function",
 804:Middlewares/Third_Party/LwIP/src/api/api_msg.c ****               !sys_mbox_valid(&conn->recvmbox));
 805:Middlewares/Third_Party/LwIP/src/api/api_msg.c **** #if LWIP_TCP
 806:Middlewares/Third_Party/LwIP/src/api/api_msg.c ****   LWIP_ASSERT("acceptmbox must be deallocated before calling this function",
 807:Middlewares/Third_Party/LwIP/src/api/api_msg.c ****               !sys_mbox_valid(&conn->acceptmbox));
 808:Middlewares/Third_Party/LwIP/src/api/api_msg.c **** #endif /* LWIP_TCP */
 809:Middlewares/Third_Party/LwIP/src/api/api_msg.c **** 
 810:Middlewares/Third_Party/LwIP/src/api/api_msg.c **** #if !LWIP_NETCONN_SEM_PER_THREAD
 811:Middlewares/Third_Party/LwIP/src/api/api_msg.c ****   sys_sem_free(&conn->op_completed);
 812:Middlewares/Third_Party/LwIP/src/api/api_msg.c ****   sys_sem_set_invalid(&conn->op_completed);
 813:Middlewares/Third_Party/LwIP/src/api/api_msg.c **** #endif
 814:Middlewares/Third_Party/LwIP/src/api/api_msg.c **** 
 815:Middlewares/Third_Party/LwIP/src/api/api_msg.c ****   memp_free(MEMP_NETCONN, conn);
 816:Middlewares/Third_Party/LwIP/src/api/api_msg.c **** }
 817:Middlewares/Third_Party/LwIP/src/api/api_msg.c **** 
 818:Middlewares/Third_Party/LwIP/src/api/api_msg.c **** /**
ARM GAS  C:\usertemp\ccuz6VZa.s 			page 34


 819:Middlewares/Third_Party/LwIP/src/api/api_msg.c ****  * Delete rcvmbox and acceptmbox of a netconn and free the left-over data in
 820:Middlewares/Third_Party/LwIP/src/api/api_msg.c ****  * these mboxes
 821:Middlewares/Third_Party/LwIP/src/api/api_msg.c ****  *
 822:Middlewares/Third_Party/LwIP/src/api/api_msg.c ****  * @param conn the netconn to free
 823:Middlewares/Third_Party/LwIP/src/api/api_msg.c ****  * @bytes_drained bytes drained from recvmbox
 824:Middlewares/Third_Party/LwIP/src/api/api_msg.c ****  * @accepts_drained pending connections drained from acceptmbox
 825:Middlewares/Third_Party/LwIP/src/api/api_msg.c ****  */
 826:Middlewares/Third_Party/LwIP/src/api/api_msg.c **** static void
 827:Middlewares/Third_Party/LwIP/src/api/api_msg.c **** netconn_drain(struct netconn *conn)
 828:Middlewares/Third_Party/LwIP/src/api/api_msg.c **** {
 829:Middlewares/Third_Party/LwIP/src/api/api_msg.c ****   void *mem;
 830:Middlewares/Third_Party/LwIP/src/api/api_msg.c **** 
 831:Middlewares/Third_Party/LwIP/src/api/api_msg.c ****   /* This runs when mbox and netconn are marked as closed,
 832:Middlewares/Third_Party/LwIP/src/api/api_msg.c ****      so we don't need to lock against rx packets */
 833:Middlewares/Third_Party/LwIP/src/api/api_msg.c **** #if LWIP_NETCONN_FULLDUPLEX
 834:Middlewares/Third_Party/LwIP/src/api/api_msg.c ****   LWIP_ASSERT("netconn marked closed", conn->flags & NETCONN_FLAG_MBOXINVALID);
 835:Middlewares/Third_Party/LwIP/src/api/api_msg.c **** #endif /* LWIP_NETCONN_FULLDUPLEX */
 836:Middlewares/Third_Party/LwIP/src/api/api_msg.c **** 
 837:Middlewares/Third_Party/LwIP/src/api/api_msg.c ****   /* Delete and drain the recvmbox. */
 838:Middlewares/Third_Party/LwIP/src/api/api_msg.c ****   if (sys_mbox_valid(&conn->recvmbox)) {
 839:Middlewares/Third_Party/LwIP/src/api/api_msg.c ****     while (sys_mbox_tryfetch(&conn->recvmbox, &mem) != SYS_MBOX_EMPTY) {
 840:Middlewares/Third_Party/LwIP/src/api/api_msg.c **** #if LWIP_NETCONN_FULLDUPLEX
 841:Middlewares/Third_Party/LwIP/src/api/api_msg.c ****       if (!lwip_netconn_is_deallocated_msg(mem))
 842:Middlewares/Third_Party/LwIP/src/api/api_msg.c **** #endif /* LWIP_NETCONN_FULLDUPLEX */
 843:Middlewares/Third_Party/LwIP/src/api/api_msg.c ****       {
 844:Middlewares/Third_Party/LwIP/src/api/api_msg.c **** #if LWIP_TCP
 845:Middlewares/Third_Party/LwIP/src/api/api_msg.c ****         if (NETCONNTYPE_GROUP(conn->type) == NETCONN_TCP) {
 846:Middlewares/Third_Party/LwIP/src/api/api_msg.c ****           err_t err;
 847:Middlewares/Third_Party/LwIP/src/api/api_msg.c ****           if (!lwip_netconn_is_err_msg(mem, &err)) {
 848:Middlewares/Third_Party/LwIP/src/api/api_msg.c ****             pbuf_free((struct pbuf *)mem);
 849:Middlewares/Third_Party/LwIP/src/api/api_msg.c ****           }
 850:Middlewares/Third_Party/LwIP/src/api/api_msg.c ****         } else
 851:Middlewares/Third_Party/LwIP/src/api/api_msg.c **** #endif /* LWIP_TCP */
 852:Middlewares/Third_Party/LwIP/src/api/api_msg.c ****         {
 853:Middlewares/Third_Party/LwIP/src/api/api_msg.c ****           netbuf_delete((struct netbuf *)mem);
 854:Middlewares/Third_Party/LwIP/src/api/api_msg.c ****         }
 855:Middlewares/Third_Party/LwIP/src/api/api_msg.c ****       }
 856:Middlewares/Third_Party/LwIP/src/api/api_msg.c ****     }
 857:Middlewares/Third_Party/LwIP/src/api/api_msg.c ****     sys_mbox_free(&conn->recvmbox);
 858:Middlewares/Third_Party/LwIP/src/api/api_msg.c ****     sys_mbox_set_invalid(&conn->recvmbox);
 859:Middlewares/Third_Party/LwIP/src/api/api_msg.c ****   }
 860:Middlewares/Third_Party/LwIP/src/api/api_msg.c **** 
 861:Middlewares/Third_Party/LwIP/src/api/api_msg.c ****   /* Delete and drain the acceptmbox. */
 862:Middlewares/Third_Party/LwIP/src/api/api_msg.c **** #if LWIP_TCP
 863:Middlewares/Third_Party/LwIP/src/api/api_msg.c ****   if (sys_mbox_valid(&conn->acceptmbox)) {
 864:Middlewares/Third_Party/LwIP/src/api/api_msg.c ****     while (sys_mbox_tryfetch(&conn->acceptmbox, &mem) != SYS_MBOX_EMPTY) {
 865:Middlewares/Third_Party/LwIP/src/api/api_msg.c **** #if LWIP_NETCONN_FULLDUPLEX
 866:Middlewares/Third_Party/LwIP/src/api/api_msg.c ****       if (!lwip_netconn_is_deallocated_msg(mem))
 867:Middlewares/Third_Party/LwIP/src/api/api_msg.c **** #endif /* LWIP_NETCONN_FULLDUPLEX */
 868:Middlewares/Third_Party/LwIP/src/api/api_msg.c ****       {
 869:Middlewares/Third_Party/LwIP/src/api/api_msg.c ****         err_t err;
 870:Middlewares/Third_Party/LwIP/src/api/api_msg.c ****         if (!lwip_netconn_is_err_msg(mem, &err)) {
 871:Middlewares/Third_Party/LwIP/src/api/api_msg.c ****           struct netconn *newconn = (struct netconn *)mem;
 872:Middlewares/Third_Party/LwIP/src/api/api_msg.c ****           /* Only tcp pcbs have an acceptmbox, so no need to check conn->type */
 873:Middlewares/Third_Party/LwIP/src/api/api_msg.c ****           /* pcb might be set to NULL already by err_tcp() */
 874:Middlewares/Third_Party/LwIP/src/api/api_msg.c ****           /* drain recvmbox */
 875:Middlewares/Third_Party/LwIP/src/api/api_msg.c ****           netconn_drain(newconn);
ARM GAS  C:\usertemp\ccuz6VZa.s 			page 35


 876:Middlewares/Third_Party/LwIP/src/api/api_msg.c ****           if (newconn->pcb.tcp != NULL) {
 877:Middlewares/Third_Party/LwIP/src/api/api_msg.c ****             tcp_abort(newconn->pcb.tcp);
 878:Middlewares/Third_Party/LwIP/src/api/api_msg.c ****             newconn->pcb.tcp = NULL;
 879:Middlewares/Third_Party/LwIP/src/api/api_msg.c ****           }
 880:Middlewares/Third_Party/LwIP/src/api/api_msg.c ****           netconn_free(newconn);
 881:Middlewares/Third_Party/LwIP/src/api/api_msg.c ****         }
 882:Middlewares/Third_Party/LwIP/src/api/api_msg.c ****       }
 883:Middlewares/Third_Party/LwIP/src/api/api_msg.c ****     }
 884:Middlewares/Third_Party/LwIP/src/api/api_msg.c ****     sys_mbox_free(&conn->acceptmbox);
 885:Middlewares/Third_Party/LwIP/src/api/api_msg.c ****     sys_mbox_set_invalid(&conn->acceptmbox);
 886:Middlewares/Third_Party/LwIP/src/api/api_msg.c ****   }
 887:Middlewares/Third_Party/LwIP/src/api/api_msg.c **** #endif /* LWIP_TCP */
 888:Middlewares/Third_Party/LwIP/src/api/api_msg.c **** }
 889:Middlewares/Third_Party/LwIP/src/api/api_msg.c **** 
 890:Middlewares/Third_Party/LwIP/src/api/api_msg.c **** #if LWIP_NETCONN_FULLDUPLEX
 891:Middlewares/Third_Party/LwIP/src/api/api_msg.c **** static void
 892:Middlewares/Third_Party/LwIP/src/api/api_msg.c **** netconn_mark_mbox_invalid(struct netconn *conn)
 893:Middlewares/Third_Party/LwIP/src/api/api_msg.c **** {
 894:Middlewares/Third_Party/LwIP/src/api/api_msg.c ****   int i, num_waiting;
 895:Middlewares/Third_Party/LwIP/src/api/api_msg.c ****   void *msg = LWIP_CONST_CAST(void *, &netconn_deleted);
 896:Middlewares/Third_Party/LwIP/src/api/api_msg.c **** 
 897:Middlewares/Third_Party/LwIP/src/api/api_msg.c ****   /* Prevent new calls/threads from reading from the mbox */
 898:Middlewares/Third_Party/LwIP/src/api/api_msg.c ****   conn->flags |= NETCONN_FLAG_MBOXINVALID;
 899:Middlewares/Third_Party/LwIP/src/api/api_msg.c **** 
 900:Middlewares/Third_Party/LwIP/src/api/api_msg.c ****   SYS_ARCH_LOCKED(num_waiting = conn->mbox_threads_waiting);
 901:Middlewares/Third_Party/LwIP/src/api/api_msg.c ****   for (i = 0; i < num_waiting; i++) {
 902:Middlewares/Third_Party/LwIP/src/api/api_msg.c ****     if (sys_mbox_valid_val(conn->recvmbox)) {
 903:Middlewares/Third_Party/LwIP/src/api/api_msg.c ****       sys_mbox_trypost(&conn->recvmbox, msg);
 904:Middlewares/Third_Party/LwIP/src/api/api_msg.c ****     } else {
 905:Middlewares/Third_Party/LwIP/src/api/api_msg.c ****       sys_mbox_trypost(&conn->acceptmbox, msg);
 906:Middlewares/Third_Party/LwIP/src/api/api_msg.c ****     }
 907:Middlewares/Third_Party/LwIP/src/api/api_msg.c ****   }
 908:Middlewares/Third_Party/LwIP/src/api/api_msg.c **** }
 909:Middlewares/Third_Party/LwIP/src/api/api_msg.c **** #endif /* LWIP_NETCONN_FULLDUPLEX */
 910:Middlewares/Third_Party/LwIP/src/api/api_msg.c **** 
 911:Middlewares/Third_Party/LwIP/src/api/api_msg.c **** #if LWIP_TCP
 912:Middlewares/Third_Party/LwIP/src/api/api_msg.c **** /**
 913:Middlewares/Third_Party/LwIP/src/api/api_msg.c ****  * Internal helper function to close a TCP netconn: since this sometimes
 914:Middlewares/Third_Party/LwIP/src/api/api_msg.c ****  * doesn't work at the first attempt, this function is called from multiple
 915:Middlewares/Third_Party/LwIP/src/api/api_msg.c ****  * places.
 916:Middlewares/Third_Party/LwIP/src/api/api_msg.c ****  *
 917:Middlewares/Third_Party/LwIP/src/api/api_msg.c ****  * @param conn the TCP netconn to close
 918:Middlewares/Third_Party/LwIP/src/api/api_msg.c ****  */
 919:Middlewares/Third_Party/LwIP/src/api/api_msg.c **** static err_t
 920:Middlewares/Third_Party/LwIP/src/api/api_msg.c **** lwip_netconn_do_close_internal(struct netconn *conn  WRITE_DELAYED_PARAM)
 921:Middlewares/Third_Party/LwIP/src/api/api_msg.c **** {
 922:Middlewares/Third_Party/LwIP/src/api/api_msg.c ****   err_t err;
 923:Middlewares/Third_Party/LwIP/src/api/api_msg.c ****   u8_t shut, shut_rx, shut_tx, shut_close;
 924:Middlewares/Third_Party/LwIP/src/api/api_msg.c ****   u8_t close_finished = 0;
 925:Middlewares/Third_Party/LwIP/src/api/api_msg.c ****   struct tcp_pcb *tpcb;
 926:Middlewares/Third_Party/LwIP/src/api/api_msg.c **** #if LWIP_SO_LINGER
 927:Middlewares/Third_Party/LwIP/src/api/api_msg.c ****   u8_t linger_wait_required = 0;
 928:Middlewares/Third_Party/LwIP/src/api/api_msg.c **** #endif /* LWIP_SO_LINGER */
 929:Middlewares/Third_Party/LwIP/src/api/api_msg.c **** 
 930:Middlewares/Third_Party/LwIP/src/api/api_msg.c ****   LWIP_ASSERT("invalid conn", (conn != NULL));
 931:Middlewares/Third_Party/LwIP/src/api/api_msg.c ****   LWIP_ASSERT("this is for tcp netconns only", (NETCONNTYPE_GROUP(conn->type) == NETCONN_TCP));
 932:Middlewares/Third_Party/LwIP/src/api/api_msg.c ****   LWIP_ASSERT("conn must be in state NETCONN_CLOSE", (conn->state == NETCONN_CLOSE));
ARM GAS  C:\usertemp\ccuz6VZa.s 			page 36


 933:Middlewares/Third_Party/LwIP/src/api/api_msg.c ****   LWIP_ASSERT("pcb already closed", (conn->pcb.tcp != NULL));
 934:Middlewares/Third_Party/LwIP/src/api/api_msg.c ****   LWIP_ASSERT("conn->current_msg != NULL", conn->current_msg != NULL);
 935:Middlewares/Third_Party/LwIP/src/api/api_msg.c **** 
 936:Middlewares/Third_Party/LwIP/src/api/api_msg.c ****   tpcb = conn->pcb.tcp;
 937:Middlewares/Third_Party/LwIP/src/api/api_msg.c ****   shut = conn->current_msg->msg.sd.shut;
 938:Middlewares/Third_Party/LwIP/src/api/api_msg.c ****   shut_rx = shut & NETCONN_SHUT_RD;
 939:Middlewares/Third_Party/LwIP/src/api/api_msg.c ****   shut_tx = shut & NETCONN_SHUT_WR;
 940:Middlewares/Third_Party/LwIP/src/api/api_msg.c ****   /* shutting down both ends is the same as closing
 941:Middlewares/Third_Party/LwIP/src/api/api_msg.c ****      (also if RD or WR side was shut down before already) */
 942:Middlewares/Third_Party/LwIP/src/api/api_msg.c ****   if (shut == NETCONN_SHUT_RDWR) {
 943:Middlewares/Third_Party/LwIP/src/api/api_msg.c ****     shut_close = 1;
 944:Middlewares/Third_Party/LwIP/src/api/api_msg.c ****   } else if (shut_rx &&
 945:Middlewares/Third_Party/LwIP/src/api/api_msg.c ****              ((tpcb->state == FIN_WAIT_1) ||
 946:Middlewares/Third_Party/LwIP/src/api/api_msg.c ****               (tpcb->state == FIN_WAIT_2) ||
 947:Middlewares/Third_Party/LwIP/src/api/api_msg.c ****               (tpcb->state == CLOSING))) {
 948:Middlewares/Third_Party/LwIP/src/api/api_msg.c ****     shut_close = 1;
 949:Middlewares/Third_Party/LwIP/src/api/api_msg.c ****   } else if (shut_tx && ((tpcb->flags & TF_RXCLOSED) != 0)) {
 950:Middlewares/Third_Party/LwIP/src/api/api_msg.c ****     shut_close = 1;
 951:Middlewares/Third_Party/LwIP/src/api/api_msg.c ****   } else {
 952:Middlewares/Third_Party/LwIP/src/api/api_msg.c ****     shut_close = 0;
 953:Middlewares/Third_Party/LwIP/src/api/api_msg.c ****   }
 954:Middlewares/Third_Party/LwIP/src/api/api_msg.c **** 
 955:Middlewares/Third_Party/LwIP/src/api/api_msg.c ****   /* Set back some callback pointers */
 956:Middlewares/Third_Party/LwIP/src/api/api_msg.c ****   if (shut_close) {
 957:Middlewares/Third_Party/LwIP/src/api/api_msg.c ****     tcp_arg(tpcb, NULL);
 958:Middlewares/Third_Party/LwIP/src/api/api_msg.c ****   }
 959:Middlewares/Third_Party/LwIP/src/api/api_msg.c ****   if (tpcb->state == LISTEN) {
 960:Middlewares/Third_Party/LwIP/src/api/api_msg.c ****     tcp_accept(tpcb, NULL);
 961:Middlewares/Third_Party/LwIP/src/api/api_msg.c ****   } else {
 962:Middlewares/Third_Party/LwIP/src/api/api_msg.c ****     /* some callbacks have to be reset if tcp_close is not successful */
 963:Middlewares/Third_Party/LwIP/src/api/api_msg.c ****     if (shut_rx) {
 964:Middlewares/Third_Party/LwIP/src/api/api_msg.c ****       tcp_recv(tpcb, NULL);
 965:Middlewares/Third_Party/LwIP/src/api/api_msg.c ****       tcp_accept(tpcb, NULL);
 966:Middlewares/Third_Party/LwIP/src/api/api_msg.c ****     }
 967:Middlewares/Third_Party/LwIP/src/api/api_msg.c ****     if (shut_tx) {
 968:Middlewares/Third_Party/LwIP/src/api/api_msg.c ****       tcp_sent(tpcb, NULL);
 969:Middlewares/Third_Party/LwIP/src/api/api_msg.c ****     }
 970:Middlewares/Third_Party/LwIP/src/api/api_msg.c ****     if (shut_close) {
 971:Middlewares/Third_Party/LwIP/src/api/api_msg.c ****       tcp_poll(tpcb, NULL, 0);
 972:Middlewares/Third_Party/LwIP/src/api/api_msg.c ****       tcp_err(tpcb, NULL);
 973:Middlewares/Third_Party/LwIP/src/api/api_msg.c ****     }
 974:Middlewares/Third_Party/LwIP/src/api/api_msg.c ****   }
 975:Middlewares/Third_Party/LwIP/src/api/api_msg.c ****   /* Try to close the connection */
 976:Middlewares/Third_Party/LwIP/src/api/api_msg.c ****   if (shut_close) {
 977:Middlewares/Third_Party/LwIP/src/api/api_msg.c **** #if LWIP_SO_LINGER
 978:Middlewares/Third_Party/LwIP/src/api/api_msg.c ****     /* check linger possibilites before calling tcp_close */
 979:Middlewares/Third_Party/LwIP/src/api/api_msg.c ****     err = ERR_OK;
 980:Middlewares/Third_Party/LwIP/src/api/api_msg.c ****     /* linger enabled/required at all? (i.e. is there untransmitted data left?) */
 981:Middlewares/Third_Party/LwIP/src/api/api_msg.c ****     if ((conn->linger >= 0) && (conn->pcb.tcp->unsent || conn->pcb.tcp->unacked)) {
 982:Middlewares/Third_Party/LwIP/src/api/api_msg.c ****       if ((conn->linger == 0)) {
 983:Middlewares/Third_Party/LwIP/src/api/api_msg.c ****         /* data left but linger prevents waiting */
 984:Middlewares/Third_Party/LwIP/src/api/api_msg.c ****         tcp_abort(tpcb);
 985:Middlewares/Third_Party/LwIP/src/api/api_msg.c ****         tpcb = NULL;
 986:Middlewares/Third_Party/LwIP/src/api/api_msg.c ****       } else if (conn->linger > 0) {
 987:Middlewares/Third_Party/LwIP/src/api/api_msg.c ****         /* data left and linger says we should wait */
 988:Middlewares/Third_Party/LwIP/src/api/api_msg.c ****         if (netconn_is_nonblocking(conn)) {
 989:Middlewares/Third_Party/LwIP/src/api/api_msg.c ****           /* data left on a nonblocking netconn -> cannot linger */
ARM GAS  C:\usertemp\ccuz6VZa.s 			page 37


 990:Middlewares/Third_Party/LwIP/src/api/api_msg.c ****           err = ERR_WOULDBLOCK;
 991:Middlewares/Third_Party/LwIP/src/api/api_msg.c ****         } else if ((s32_t)(sys_now() - conn->current_msg->msg.sd.time_started) >=
 992:Middlewares/Third_Party/LwIP/src/api/api_msg.c ****                    (conn->linger * 1000)) {
 993:Middlewares/Third_Party/LwIP/src/api/api_msg.c ****           /* data left but linger timeout has expired (this happens on further
 994:Middlewares/Third_Party/LwIP/src/api/api_msg.c ****              calls to this function through poll_tcp */
 995:Middlewares/Third_Party/LwIP/src/api/api_msg.c ****           tcp_abort(tpcb);
 996:Middlewares/Third_Party/LwIP/src/api/api_msg.c ****           tpcb = NULL;
 997:Middlewares/Third_Party/LwIP/src/api/api_msg.c ****         } else {
 998:Middlewares/Third_Party/LwIP/src/api/api_msg.c ****           /* data left -> need to wait for ACK after successful close */
 999:Middlewares/Third_Party/LwIP/src/api/api_msg.c ****           linger_wait_required = 1;
1000:Middlewares/Third_Party/LwIP/src/api/api_msg.c ****         }
1001:Middlewares/Third_Party/LwIP/src/api/api_msg.c ****       }
1002:Middlewares/Third_Party/LwIP/src/api/api_msg.c ****     }
1003:Middlewares/Third_Party/LwIP/src/api/api_msg.c ****     if ((err == ERR_OK) && (tpcb != NULL))
1004:Middlewares/Third_Party/LwIP/src/api/api_msg.c **** #endif /* LWIP_SO_LINGER */
1005:Middlewares/Third_Party/LwIP/src/api/api_msg.c ****     {
1006:Middlewares/Third_Party/LwIP/src/api/api_msg.c ****       err = tcp_close(tpcb);
1007:Middlewares/Third_Party/LwIP/src/api/api_msg.c ****     }
1008:Middlewares/Third_Party/LwIP/src/api/api_msg.c ****   } else {
1009:Middlewares/Third_Party/LwIP/src/api/api_msg.c ****     err = tcp_shutdown(tpcb, shut_rx, shut_tx);
1010:Middlewares/Third_Party/LwIP/src/api/api_msg.c ****   }
1011:Middlewares/Third_Party/LwIP/src/api/api_msg.c ****   if (err == ERR_OK) {
1012:Middlewares/Third_Party/LwIP/src/api/api_msg.c ****     close_finished = 1;
1013:Middlewares/Third_Party/LwIP/src/api/api_msg.c **** #if LWIP_SO_LINGER
1014:Middlewares/Third_Party/LwIP/src/api/api_msg.c ****     if (linger_wait_required) {
1015:Middlewares/Third_Party/LwIP/src/api/api_msg.c ****       /* wait for ACK of all unsent/unacked data by just getting called again */
1016:Middlewares/Third_Party/LwIP/src/api/api_msg.c ****       close_finished = 0;
1017:Middlewares/Third_Party/LwIP/src/api/api_msg.c ****       err = ERR_INPROGRESS;
1018:Middlewares/Third_Party/LwIP/src/api/api_msg.c ****     }
1019:Middlewares/Third_Party/LwIP/src/api/api_msg.c **** #endif /* LWIP_SO_LINGER */
1020:Middlewares/Third_Party/LwIP/src/api/api_msg.c ****   } else {
1021:Middlewares/Third_Party/LwIP/src/api/api_msg.c ****     if (err == ERR_MEM) {
1022:Middlewares/Third_Party/LwIP/src/api/api_msg.c ****       /* Closing failed because of memory shortage, try again later. Even for
1023:Middlewares/Third_Party/LwIP/src/api/api_msg.c ****          nonblocking netconns, we have to wait since no standard socket application
1024:Middlewares/Third_Party/LwIP/src/api/api_msg.c ****          is prepared for close failing because of resource shortage.
1025:Middlewares/Third_Party/LwIP/src/api/api_msg.c ****          Check the timeout: this is kind of an lwip addition to the standard sockets:
1026:Middlewares/Third_Party/LwIP/src/api/api_msg.c ****          we wait for some time when failing to allocate a segment for the FIN */
1027:Middlewares/Third_Party/LwIP/src/api/api_msg.c **** #if LWIP_SO_SNDTIMEO || LWIP_SO_LINGER
1028:Middlewares/Third_Party/LwIP/src/api/api_msg.c ****       s32_t close_timeout = LWIP_TCP_CLOSE_TIMEOUT_MS_DEFAULT;
1029:Middlewares/Third_Party/LwIP/src/api/api_msg.c **** #if LWIP_SO_SNDTIMEO
1030:Middlewares/Third_Party/LwIP/src/api/api_msg.c ****       if (conn->send_timeout > 0) {
1031:Middlewares/Third_Party/LwIP/src/api/api_msg.c ****         close_timeout = conn->send_timeout;
1032:Middlewares/Third_Party/LwIP/src/api/api_msg.c ****       }
1033:Middlewares/Third_Party/LwIP/src/api/api_msg.c **** #endif /* LWIP_SO_SNDTIMEO */
1034:Middlewares/Third_Party/LwIP/src/api/api_msg.c **** #if LWIP_SO_LINGER
1035:Middlewares/Third_Party/LwIP/src/api/api_msg.c ****       if (conn->linger >= 0) {
1036:Middlewares/Third_Party/LwIP/src/api/api_msg.c ****         /* use linger timeout (seconds) */
1037:Middlewares/Third_Party/LwIP/src/api/api_msg.c ****         close_timeout = conn->linger * 1000U;
1038:Middlewares/Third_Party/LwIP/src/api/api_msg.c ****       }
1039:Middlewares/Third_Party/LwIP/src/api/api_msg.c **** #endif
1040:Middlewares/Third_Party/LwIP/src/api/api_msg.c ****       if ((s32_t)(sys_now() - conn->current_msg->msg.sd.time_started) >= close_timeout) {
1041:Middlewares/Third_Party/LwIP/src/api/api_msg.c **** #else /* LWIP_SO_SNDTIMEO || LWIP_SO_LINGER */
1042:Middlewares/Third_Party/LwIP/src/api/api_msg.c ****       if (conn->current_msg->msg.sd.polls_left == 0) {
1043:Middlewares/Third_Party/LwIP/src/api/api_msg.c **** #endif /* LWIP_SO_SNDTIMEO || LWIP_SO_LINGER */
1044:Middlewares/Third_Party/LwIP/src/api/api_msg.c ****         close_finished = 1;
1045:Middlewares/Third_Party/LwIP/src/api/api_msg.c ****         if (shut_close) {
1046:Middlewares/Third_Party/LwIP/src/api/api_msg.c ****           /* in this case, we want to RST the connection */
ARM GAS  C:\usertemp\ccuz6VZa.s 			page 38


1047:Middlewares/Third_Party/LwIP/src/api/api_msg.c ****           tcp_abort(tpcb);
1048:Middlewares/Third_Party/LwIP/src/api/api_msg.c ****           err = ERR_OK;
1049:Middlewares/Third_Party/LwIP/src/api/api_msg.c ****         }
1050:Middlewares/Third_Party/LwIP/src/api/api_msg.c ****       }
1051:Middlewares/Third_Party/LwIP/src/api/api_msg.c ****     } else {
1052:Middlewares/Third_Party/LwIP/src/api/api_msg.c ****       /* Closing failed for a non-memory error: give up */
1053:Middlewares/Third_Party/LwIP/src/api/api_msg.c ****       close_finished = 1;
1054:Middlewares/Third_Party/LwIP/src/api/api_msg.c ****     }
1055:Middlewares/Third_Party/LwIP/src/api/api_msg.c ****   }
1056:Middlewares/Third_Party/LwIP/src/api/api_msg.c ****   if (close_finished) {
1057:Middlewares/Third_Party/LwIP/src/api/api_msg.c ****     /* Closing done (succeeded, non-memory error, nonblocking error or timeout) */
1058:Middlewares/Third_Party/LwIP/src/api/api_msg.c ****     sys_sem_t *op_completed_sem = LWIP_API_MSG_SEM(conn->current_msg);
1059:Middlewares/Third_Party/LwIP/src/api/api_msg.c ****     conn->current_msg->err = err;
1060:Middlewares/Third_Party/LwIP/src/api/api_msg.c ****     conn->current_msg = NULL;
1061:Middlewares/Third_Party/LwIP/src/api/api_msg.c ****     conn->state = NETCONN_NONE;
1062:Middlewares/Third_Party/LwIP/src/api/api_msg.c ****     if (err == ERR_OK) {
1063:Middlewares/Third_Party/LwIP/src/api/api_msg.c ****       if (shut_close) {
1064:Middlewares/Third_Party/LwIP/src/api/api_msg.c ****         /* Set back some callback pointers as conn is going away */
1065:Middlewares/Third_Party/LwIP/src/api/api_msg.c ****         conn->pcb.tcp = NULL;
1066:Middlewares/Third_Party/LwIP/src/api/api_msg.c ****         /* Trigger select() in socket layer. Make sure everybody notices activity
1067:Middlewares/Third_Party/LwIP/src/api/api_msg.c ****          on the connection, error first! */
1068:Middlewares/Third_Party/LwIP/src/api/api_msg.c ****         API_EVENT(conn, NETCONN_EVT_ERROR, 0);
1069:Middlewares/Third_Party/LwIP/src/api/api_msg.c ****       }
1070:Middlewares/Third_Party/LwIP/src/api/api_msg.c ****       if (shut_rx) {
1071:Middlewares/Third_Party/LwIP/src/api/api_msg.c ****         API_EVENT(conn, NETCONN_EVT_RCVPLUS, 0);
1072:Middlewares/Third_Party/LwIP/src/api/api_msg.c ****       }
1073:Middlewares/Third_Party/LwIP/src/api/api_msg.c ****       if (shut_tx) {
1074:Middlewares/Third_Party/LwIP/src/api/api_msg.c ****         API_EVENT(conn, NETCONN_EVT_SENDPLUS, 0);
1075:Middlewares/Third_Party/LwIP/src/api/api_msg.c ****       }
1076:Middlewares/Third_Party/LwIP/src/api/api_msg.c ****     }
1077:Middlewares/Third_Party/LwIP/src/api/api_msg.c **** #if LWIP_TCPIP_CORE_LOCKING
1078:Middlewares/Third_Party/LwIP/src/api/api_msg.c ****     if (delayed)
1079:Middlewares/Third_Party/LwIP/src/api/api_msg.c **** #endif
1080:Middlewares/Third_Party/LwIP/src/api/api_msg.c ****     {
1081:Middlewares/Third_Party/LwIP/src/api/api_msg.c ****       /* wake up the application task */
1082:Middlewares/Third_Party/LwIP/src/api/api_msg.c ****       sys_sem_signal(op_completed_sem);
1083:Middlewares/Third_Party/LwIP/src/api/api_msg.c ****     }
1084:Middlewares/Third_Party/LwIP/src/api/api_msg.c ****     return ERR_OK;
1085:Middlewares/Third_Party/LwIP/src/api/api_msg.c ****   }
1086:Middlewares/Third_Party/LwIP/src/api/api_msg.c ****   if (!close_finished) {
1087:Middlewares/Third_Party/LwIP/src/api/api_msg.c ****     /* Closing failed and we want to wait: restore some of the callbacks */
1088:Middlewares/Third_Party/LwIP/src/api/api_msg.c ****     /* Closing of listen pcb will never fail! */
1089:Middlewares/Third_Party/LwIP/src/api/api_msg.c ****     LWIP_ASSERT("Closing a listen pcb may not fail!", (tpcb->state != LISTEN));
1090:Middlewares/Third_Party/LwIP/src/api/api_msg.c ****     if (shut_tx) {
1091:Middlewares/Third_Party/LwIP/src/api/api_msg.c ****       tcp_sent(tpcb, sent_tcp);
1092:Middlewares/Third_Party/LwIP/src/api/api_msg.c ****     }
1093:Middlewares/Third_Party/LwIP/src/api/api_msg.c ****     /* when waiting for close, set up poll interval to 500ms */
1094:Middlewares/Third_Party/LwIP/src/api/api_msg.c ****     tcp_poll(tpcb, poll_tcp, 1);
1095:Middlewares/Third_Party/LwIP/src/api/api_msg.c ****     tcp_err(tpcb, err_tcp);
1096:Middlewares/Third_Party/LwIP/src/api/api_msg.c ****     tcp_arg(tpcb, conn);
1097:Middlewares/Third_Party/LwIP/src/api/api_msg.c ****     /* don't restore recv callback: we don't want to receive any more data */
1098:Middlewares/Third_Party/LwIP/src/api/api_msg.c ****   }
1099:Middlewares/Third_Party/LwIP/src/api/api_msg.c ****   /* If closing didn't succeed, we get called again either
1100:Middlewares/Third_Party/LwIP/src/api/api_msg.c ****      from poll_tcp or from sent_tcp */
1101:Middlewares/Third_Party/LwIP/src/api/api_msg.c ****   LWIP_ASSERT("err != ERR_OK", err != ERR_OK);
1102:Middlewares/Third_Party/LwIP/src/api/api_msg.c ****   return err;
1103:Middlewares/Third_Party/LwIP/src/api/api_msg.c **** }
ARM GAS  C:\usertemp\ccuz6VZa.s 			page 39


1104:Middlewares/Third_Party/LwIP/src/api/api_msg.c **** #endif /* LWIP_TCP */
1105:Middlewares/Third_Party/LwIP/src/api/api_msg.c **** 
1106:Middlewares/Third_Party/LwIP/src/api/api_msg.c **** /**
1107:Middlewares/Third_Party/LwIP/src/api/api_msg.c ****  * Delete the pcb inside a netconn.
1108:Middlewares/Third_Party/LwIP/src/api/api_msg.c ****  * Called from netconn_delete.
1109:Middlewares/Third_Party/LwIP/src/api/api_msg.c ****  *
1110:Middlewares/Third_Party/LwIP/src/api/api_msg.c ****  * @param m the api_msg pointing to the connection
1111:Middlewares/Third_Party/LwIP/src/api/api_msg.c ****  */
1112:Middlewares/Third_Party/LwIP/src/api/api_msg.c **** void
1113:Middlewares/Third_Party/LwIP/src/api/api_msg.c **** lwip_netconn_do_delconn(void *m)
1114:Middlewares/Third_Party/LwIP/src/api/api_msg.c **** {
1115:Middlewares/Third_Party/LwIP/src/api/api_msg.c ****   struct api_msg *msg = (struct api_msg *)m;
1116:Middlewares/Third_Party/LwIP/src/api/api_msg.c **** 
1117:Middlewares/Third_Party/LwIP/src/api/api_msg.c ****   enum netconn_state state = msg->conn->state;
1118:Middlewares/Third_Party/LwIP/src/api/api_msg.c ****   LWIP_ASSERT("netconn state error", /* this only happens for TCP netconns */
1119:Middlewares/Third_Party/LwIP/src/api/api_msg.c ****               (state == NETCONN_NONE) || (NETCONNTYPE_GROUP(msg->conn->type) == NETCONN_TCP));
1120:Middlewares/Third_Party/LwIP/src/api/api_msg.c **** #if LWIP_NETCONN_FULLDUPLEX
1121:Middlewares/Third_Party/LwIP/src/api/api_msg.c ****   /* In full duplex mode, blocking write/connect is aborted with ERR_CLSD */
1122:Middlewares/Third_Party/LwIP/src/api/api_msg.c ****   if (state != NETCONN_NONE) {
1123:Middlewares/Third_Party/LwIP/src/api/api_msg.c ****     if ((state == NETCONN_WRITE) ||
1124:Middlewares/Third_Party/LwIP/src/api/api_msg.c ****         ((state == NETCONN_CONNECT) && !IN_NONBLOCKING_CONNECT(msg->conn))) {
1125:Middlewares/Third_Party/LwIP/src/api/api_msg.c ****       /* close requested, abort running write/connect */
1126:Middlewares/Third_Party/LwIP/src/api/api_msg.c ****       sys_sem_t *op_completed_sem;
1127:Middlewares/Third_Party/LwIP/src/api/api_msg.c ****       LWIP_ASSERT("msg->conn->current_msg != NULL", msg->conn->current_msg != NULL);
1128:Middlewares/Third_Party/LwIP/src/api/api_msg.c ****       op_completed_sem = LWIP_API_MSG_SEM(msg->conn->current_msg);
1129:Middlewares/Third_Party/LwIP/src/api/api_msg.c ****       msg->conn->current_msg->err = ERR_CLSD;
1130:Middlewares/Third_Party/LwIP/src/api/api_msg.c ****       msg->conn->current_msg = NULL;
1131:Middlewares/Third_Party/LwIP/src/api/api_msg.c ****       msg->conn->state = NETCONN_NONE;
1132:Middlewares/Third_Party/LwIP/src/api/api_msg.c ****       sys_sem_signal(op_completed_sem);
1133:Middlewares/Third_Party/LwIP/src/api/api_msg.c ****     }
1134:Middlewares/Third_Party/LwIP/src/api/api_msg.c ****   }
1135:Middlewares/Third_Party/LwIP/src/api/api_msg.c **** #else /* LWIP_NETCONN_FULLDUPLEX */
1136:Middlewares/Third_Party/LwIP/src/api/api_msg.c ****   if (((state != NETCONN_NONE) &&
1137:Middlewares/Third_Party/LwIP/src/api/api_msg.c ****        (state != NETCONN_LISTEN) &&
1138:Middlewares/Third_Party/LwIP/src/api/api_msg.c ****        (state != NETCONN_CONNECT)) ||
1139:Middlewares/Third_Party/LwIP/src/api/api_msg.c ****       ((state == NETCONN_CONNECT) && !IN_NONBLOCKING_CONNECT(msg->conn))) {
1140:Middlewares/Third_Party/LwIP/src/api/api_msg.c ****     /* This means either a blocking write or blocking connect is running
1141:Middlewares/Third_Party/LwIP/src/api/api_msg.c ****        (nonblocking write returns and sets state to NONE) */
1142:Middlewares/Third_Party/LwIP/src/api/api_msg.c ****     msg->err = ERR_INPROGRESS;
1143:Middlewares/Third_Party/LwIP/src/api/api_msg.c ****   } else
1144:Middlewares/Third_Party/LwIP/src/api/api_msg.c **** #endif /* LWIP_NETCONN_FULLDUPLEX */
1145:Middlewares/Third_Party/LwIP/src/api/api_msg.c ****   {
1146:Middlewares/Third_Party/LwIP/src/api/api_msg.c ****     LWIP_ASSERT("blocking connect in progress",
1147:Middlewares/Third_Party/LwIP/src/api/api_msg.c ****                 (state != NETCONN_CONNECT) || IN_NONBLOCKING_CONNECT(msg->conn));
1148:Middlewares/Third_Party/LwIP/src/api/api_msg.c ****     msg->err = ERR_OK;
1149:Middlewares/Third_Party/LwIP/src/api/api_msg.c **** #if LWIP_NETCONN_FULLDUPLEX
1150:Middlewares/Third_Party/LwIP/src/api/api_msg.c ****     /* Mark mboxes invalid */
1151:Middlewares/Third_Party/LwIP/src/api/api_msg.c ****     netconn_mark_mbox_invalid(msg->conn);
1152:Middlewares/Third_Party/LwIP/src/api/api_msg.c **** #else /* LWIP_NETCONN_FULLDUPLEX */
1153:Middlewares/Third_Party/LwIP/src/api/api_msg.c ****     netconn_drain(msg->conn);
1154:Middlewares/Third_Party/LwIP/src/api/api_msg.c **** #endif /* LWIP_NETCONN_FULLDUPLEX */
1155:Middlewares/Third_Party/LwIP/src/api/api_msg.c **** 
1156:Middlewares/Third_Party/LwIP/src/api/api_msg.c ****     if (msg->conn->pcb.tcp != NULL) {
1157:Middlewares/Third_Party/LwIP/src/api/api_msg.c **** 
1158:Middlewares/Third_Party/LwIP/src/api/api_msg.c ****       switch (NETCONNTYPE_GROUP(msg->conn->type)) {
1159:Middlewares/Third_Party/LwIP/src/api/api_msg.c **** #if LWIP_RAW
1160:Middlewares/Third_Party/LwIP/src/api/api_msg.c ****         case NETCONN_RAW:
ARM GAS  C:\usertemp\ccuz6VZa.s 			page 40


1161:Middlewares/Third_Party/LwIP/src/api/api_msg.c ****           raw_remove(msg->conn->pcb.raw);
1162:Middlewares/Third_Party/LwIP/src/api/api_msg.c ****           break;
1163:Middlewares/Third_Party/LwIP/src/api/api_msg.c **** #endif /* LWIP_RAW */
1164:Middlewares/Third_Party/LwIP/src/api/api_msg.c **** #if LWIP_UDP
1165:Middlewares/Third_Party/LwIP/src/api/api_msg.c ****         case NETCONN_UDP:
1166:Middlewares/Third_Party/LwIP/src/api/api_msg.c ****           msg->conn->pcb.udp->recv_arg = NULL;
1167:Middlewares/Third_Party/LwIP/src/api/api_msg.c ****           udp_remove(msg->conn->pcb.udp);
1168:Middlewares/Third_Party/LwIP/src/api/api_msg.c ****           break;
1169:Middlewares/Third_Party/LwIP/src/api/api_msg.c **** #endif /* LWIP_UDP */
1170:Middlewares/Third_Party/LwIP/src/api/api_msg.c **** #if LWIP_TCP
1171:Middlewares/Third_Party/LwIP/src/api/api_msg.c ****         case NETCONN_TCP:
1172:Middlewares/Third_Party/LwIP/src/api/api_msg.c ****           LWIP_ASSERT("already writing or closing", msg->conn->current_msg == NULL);
1173:Middlewares/Third_Party/LwIP/src/api/api_msg.c ****           msg->conn->state = NETCONN_CLOSE;
1174:Middlewares/Third_Party/LwIP/src/api/api_msg.c ****           msg->msg.sd.shut = NETCONN_SHUT_RDWR;
1175:Middlewares/Third_Party/LwIP/src/api/api_msg.c ****           msg->conn->current_msg = msg;
1176:Middlewares/Third_Party/LwIP/src/api/api_msg.c **** #if LWIP_TCPIP_CORE_LOCKING
1177:Middlewares/Third_Party/LwIP/src/api/api_msg.c ****           if (lwip_netconn_do_close_internal(msg->conn, 0) != ERR_OK) {
1178:Middlewares/Third_Party/LwIP/src/api/api_msg.c ****             LWIP_ASSERT("state!", msg->conn->state == NETCONN_CLOSE);
1179:Middlewares/Third_Party/LwIP/src/api/api_msg.c ****             UNLOCK_TCPIP_CORE();
1180:Middlewares/Third_Party/LwIP/src/api/api_msg.c ****             sys_arch_sem_wait(LWIP_API_MSG_SEM(msg), 0);
1181:Middlewares/Third_Party/LwIP/src/api/api_msg.c ****             LOCK_TCPIP_CORE();
1182:Middlewares/Third_Party/LwIP/src/api/api_msg.c ****             LWIP_ASSERT("state!", msg->conn->state == NETCONN_NONE);
1183:Middlewares/Third_Party/LwIP/src/api/api_msg.c ****           }
1184:Middlewares/Third_Party/LwIP/src/api/api_msg.c **** #else /* LWIP_TCPIP_CORE_LOCKING */
1185:Middlewares/Third_Party/LwIP/src/api/api_msg.c ****           lwip_netconn_do_close_internal(msg->conn);
1186:Middlewares/Third_Party/LwIP/src/api/api_msg.c **** #endif /* LWIP_TCPIP_CORE_LOCKING */
1187:Middlewares/Third_Party/LwIP/src/api/api_msg.c ****           /* API_EVENT is called inside lwip_netconn_do_close_internal, before releasing
1188:Middlewares/Third_Party/LwIP/src/api/api_msg.c ****              the application thread, so we can return at this point! */
1189:Middlewares/Third_Party/LwIP/src/api/api_msg.c ****           return;
1190:Middlewares/Third_Party/LwIP/src/api/api_msg.c **** #endif /* LWIP_TCP */
1191:Middlewares/Third_Party/LwIP/src/api/api_msg.c ****         default:
1192:Middlewares/Third_Party/LwIP/src/api/api_msg.c ****           break;
1193:Middlewares/Third_Party/LwIP/src/api/api_msg.c ****       }
1194:Middlewares/Third_Party/LwIP/src/api/api_msg.c ****       msg->conn->pcb.tcp = NULL;
1195:Middlewares/Third_Party/LwIP/src/api/api_msg.c ****     }
1196:Middlewares/Third_Party/LwIP/src/api/api_msg.c ****     /* tcp netconns don't come here! */
1197:Middlewares/Third_Party/LwIP/src/api/api_msg.c **** 
1198:Middlewares/Third_Party/LwIP/src/api/api_msg.c ****     /* @todo: this lets select make the socket readable and writable,
1199:Middlewares/Third_Party/LwIP/src/api/api_msg.c ****        which is wrong! errfd instead? */
1200:Middlewares/Third_Party/LwIP/src/api/api_msg.c ****     API_EVENT(msg->conn, NETCONN_EVT_RCVPLUS, 0);
1201:Middlewares/Third_Party/LwIP/src/api/api_msg.c ****     API_EVENT(msg->conn, NETCONN_EVT_SENDPLUS, 0);
1202:Middlewares/Third_Party/LwIP/src/api/api_msg.c ****   }
1203:Middlewares/Third_Party/LwIP/src/api/api_msg.c ****   if (sys_sem_valid(LWIP_API_MSG_SEM(msg))) {
1204:Middlewares/Third_Party/LwIP/src/api/api_msg.c ****     TCPIP_APIMSG_ACK(msg);
1205:Middlewares/Third_Party/LwIP/src/api/api_msg.c ****   }
1206:Middlewares/Third_Party/LwIP/src/api/api_msg.c **** }
1207:Middlewares/Third_Party/LwIP/src/api/api_msg.c **** 
1208:Middlewares/Third_Party/LwIP/src/api/api_msg.c **** /**
1209:Middlewares/Third_Party/LwIP/src/api/api_msg.c ****  * Bind a pcb contained in a netconn
1210:Middlewares/Third_Party/LwIP/src/api/api_msg.c ****  * Called from netconn_bind.
1211:Middlewares/Third_Party/LwIP/src/api/api_msg.c ****  *
1212:Middlewares/Third_Party/LwIP/src/api/api_msg.c ****  * @param m the api_msg pointing to the connection and containing
1213:Middlewares/Third_Party/LwIP/src/api/api_msg.c ****  *          the IP address and port to bind to
1214:Middlewares/Third_Party/LwIP/src/api/api_msg.c ****  */
1215:Middlewares/Third_Party/LwIP/src/api/api_msg.c **** void
1216:Middlewares/Third_Party/LwIP/src/api/api_msg.c **** lwip_netconn_do_bind(void *m)
1217:Middlewares/Third_Party/LwIP/src/api/api_msg.c **** {
ARM GAS  C:\usertemp\ccuz6VZa.s 			page 41


1218:Middlewares/Third_Party/LwIP/src/api/api_msg.c ****   struct api_msg *msg = (struct api_msg *)m;
1219:Middlewares/Third_Party/LwIP/src/api/api_msg.c ****   err_t err;
1220:Middlewares/Third_Party/LwIP/src/api/api_msg.c **** 
1221:Middlewares/Third_Party/LwIP/src/api/api_msg.c ****   if (msg->conn->pcb.tcp != NULL) {
1222:Middlewares/Third_Party/LwIP/src/api/api_msg.c ****     switch (NETCONNTYPE_GROUP(msg->conn->type)) {
1223:Middlewares/Third_Party/LwIP/src/api/api_msg.c **** #if LWIP_RAW
1224:Middlewares/Third_Party/LwIP/src/api/api_msg.c ****       case NETCONN_RAW:
1225:Middlewares/Third_Party/LwIP/src/api/api_msg.c ****         err = raw_bind(msg->conn->pcb.raw, API_EXPR_REF(msg->msg.bc.ipaddr));
1226:Middlewares/Third_Party/LwIP/src/api/api_msg.c ****         break;
1227:Middlewares/Third_Party/LwIP/src/api/api_msg.c **** #endif /* LWIP_RAW */
1228:Middlewares/Third_Party/LwIP/src/api/api_msg.c **** #if LWIP_UDP
1229:Middlewares/Third_Party/LwIP/src/api/api_msg.c ****       case NETCONN_UDP:
1230:Middlewares/Third_Party/LwIP/src/api/api_msg.c ****         err = udp_bind(msg->conn->pcb.udp, API_EXPR_REF(msg->msg.bc.ipaddr), msg->msg.bc.port);
1231:Middlewares/Third_Party/LwIP/src/api/api_msg.c ****         break;
1232:Middlewares/Third_Party/LwIP/src/api/api_msg.c **** #endif /* LWIP_UDP */
1233:Middlewares/Third_Party/LwIP/src/api/api_msg.c **** #if LWIP_TCP
1234:Middlewares/Third_Party/LwIP/src/api/api_msg.c ****       case NETCONN_TCP:
1235:Middlewares/Third_Party/LwIP/src/api/api_msg.c ****         err = tcp_bind(msg->conn->pcb.tcp, API_EXPR_REF(msg->msg.bc.ipaddr), msg->msg.bc.port);
1236:Middlewares/Third_Party/LwIP/src/api/api_msg.c ****         break;
1237:Middlewares/Third_Party/LwIP/src/api/api_msg.c **** #endif /* LWIP_TCP */
1238:Middlewares/Third_Party/LwIP/src/api/api_msg.c ****       default:
1239:Middlewares/Third_Party/LwIP/src/api/api_msg.c ****         err = ERR_VAL;
1240:Middlewares/Third_Party/LwIP/src/api/api_msg.c ****         break;
1241:Middlewares/Third_Party/LwIP/src/api/api_msg.c ****     }
1242:Middlewares/Third_Party/LwIP/src/api/api_msg.c ****   } else {
1243:Middlewares/Third_Party/LwIP/src/api/api_msg.c ****     err = ERR_VAL;
1244:Middlewares/Third_Party/LwIP/src/api/api_msg.c ****   }
1245:Middlewares/Third_Party/LwIP/src/api/api_msg.c ****   msg->err = err;
1246:Middlewares/Third_Party/LwIP/src/api/api_msg.c ****   TCPIP_APIMSG_ACK(msg);
1247:Middlewares/Third_Party/LwIP/src/api/api_msg.c **** }
1248:Middlewares/Third_Party/LwIP/src/api/api_msg.c **** /**
1249:Middlewares/Third_Party/LwIP/src/api/api_msg.c ****  * Bind a pcb contained in a netconn to an interface
1250:Middlewares/Third_Party/LwIP/src/api/api_msg.c ****  * Called from netconn_bind_if.
1251:Middlewares/Third_Party/LwIP/src/api/api_msg.c ****  *
1252:Middlewares/Third_Party/LwIP/src/api/api_msg.c ****  * @param m the api_msg pointing to the connection and containing
1253:Middlewares/Third_Party/LwIP/src/api/api_msg.c ****  *          the IP address and port to bind to
1254:Middlewares/Third_Party/LwIP/src/api/api_msg.c ****  */
1255:Middlewares/Third_Party/LwIP/src/api/api_msg.c **** void
1256:Middlewares/Third_Party/LwIP/src/api/api_msg.c **** lwip_netconn_do_bind_if(void *m)
1257:Middlewares/Third_Party/LwIP/src/api/api_msg.c **** {
1258:Middlewares/Third_Party/LwIP/src/api/api_msg.c ****   struct netif *netif;
1259:Middlewares/Third_Party/LwIP/src/api/api_msg.c ****   struct api_msg *msg = (struct api_msg *)m;
1260:Middlewares/Third_Party/LwIP/src/api/api_msg.c ****   err_t err;
1261:Middlewares/Third_Party/LwIP/src/api/api_msg.c **** 
1262:Middlewares/Third_Party/LwIP/src/api/api_msg.c ****   netif = netif_get_by_index(msg->msg.bc.if_idx);
1263:Middlewares/Third_Party/LwIP/src/api/api_msg.c **** 
1264:Middlewares/Third_Party/LwIP/src/api/api_msg.c ****   if ((netif != NULL) && (msg->conn->pcb.tcp != NULL)) {
1265:Middlewares/Third_Party/LwIP/src/api/api_msg.c ****     err = ERR_OK;
1266:Middlewares/Third_Party/LwIP/src/api/api_msg.c ****     switch (NETCONNTYPE_GROUP(msg->conn->type)) {
1267:Middlewares/Third_Party/LwIP/src/api/api_msg.c **** #if LWIP_RAW
1268:Middlewares/Third_Party/LwIP/src/api/api_msg.c ****       case NETCONN_RAW:
1269:Middlewares/Third_Party/LwIP/src/api/api_msg.c ****         raw_bind_netif(msg->conn->pcb.raw, netif);
1270:Middlewares/Third_Party/LwIP/src/api/api_msg.c ****         break;
1271:Middlewares/Third_Party/LwIP/src/api/api_msg.c **** #endif /* LWIP_RAW */
1272:Middlewares/Third_Party/LwIP/src/api/api_msg.c **** #if LWIP_UDP
1273:Middlewares/Third_Party/LwIP/src/api/api_msg.c ****       case NETCONN_UDP:
1274:Middlewares/Third_Party/LwIP/src/api/api_msg.c ****         udp_bind_netif(msg->conn->pcb.udp, netif);
ARM GAS  C:\usertemp\ccuz6VZa.s 			page 42


1275:Middlewares/Third_Party/LwIP/src/api/api_msg.c ****         break;
1276:Middlewares/Third_Party/LwIP/src/api/api_msg.c **** #endif /* LWIP_UDP */
1277:Middlewares/Third_Party/LwIP/src/api/api_msg.c **** #if LWIP_TCP
1278:Middlewares/Third_Party/LwIP/src/api/api_msg.c ****       case NETCONN_TCP:
1279:Middlewares/Third_Party/LwIP/src/api/api_msg.c ****         tcp_bind_netif(msg->conn->pcb.tcp, netif);
1280:Middlewares/Third_Party/LwIP/src/api/api_msg.c ****         break;
1281:Middlewares/Third_Party/LwIP/src/api/api_msg.c **** #endif /* LWIP_TCP */
1282:Middlewares/Third_Party/LwIP/src/api/api_msg.c ****       default:
1283:Middlewares/Third_Party/LwIP/src/api/api_msg.c ****         err = ERR_VAL;
1284:Middlewares/Third_Party/LwIP/src/api/api_msg.c ****         break;
1285:Middlewares/Third_Party/LwIP/src/api/api_msg.c ****     }
1286:Middlewares/Third_Party/LwIP/src/api/api_msg.c ****   } else {
1287:Middlewares/Third_Party/LwIP/src/api/api_msg.c ****     err = ERR_VAL;
1288:Middlewares/Third_Party/LwIP/src/api/api_msg.c ****   }
1289:Middlewares/Third_Party/LwIP/src/api/api_msg.c ****   msg->err = err;
1290:Middlewares/Third_Party/LwIP/src/api/api_msg.c ****   TCPIP_APIMSG_ACK(msg);
1291:Middlewares/Third_Party/LwIP/src/api/api_msg.c **** }
1292:Middlewares/Third_Party/LwIP/src/api/api_msg.c **** 
1293:Middlewares/Third_Party/LwIP/src/api/api_msg.c **** #if LWIP_TCP
1294:Middlewares/Third_Party/LwIP/src/api/api_msg.c **** /**
1295:Middlewares/Third_Party/LwIP/src/api/api_msg.c ****  * TCP callback function if a connection (opened by tcp_connect/lwip_netconn_do_connect) has
1296:Middlewares/Third_Party/LwIP/src/api/api_msg.c ****  * been established (or reset by the remote host).
1297:Middlewares/Third_Party/LwIP/src/api/api_msg.c ****  *
1298:Middlewares/Third_Party/LwIP/src/api/api_msg.c ****  * @see tcp.h (struct tcp_pcb.connected) for parameters and return values
1299:Middlewares/Third_Party/LwIP/src/api/api_msg.c ****  */
1300:Middlewares/Third_Party/LwIP/src/api/api_msg.c **** static err_t
1301:Middlewares/Third_Party/LwIP/src/api/api_msg.c **** lwip_netconn_do_connected(void *arg, struct tcp_pcb *pcb, err_t err)
1302:Middlewares/Third_Party/LwIP/src/api/api_msg.c **** {
 873              		.loc 1 1302 1 view -0
 874              		.cfi_startproc
 875              		@ args = 0, pretend = 0, frame = 0
 876              		@ frame_needed = 0, uses_anonymous_args = 0
1303:Middlewares/Third_Party/LwIP/src/api/api_msg.c ****   struct netconn *conn;
 877              		.loc 1 1303 3 view .LVU247
1304:Middlewares/Third_Party/LwIP/src/api/api_msg.c ****   int was_blocking;
 878              		.loc 1 1304 3 view .LVU248
1305:Middlewares/Third_Party/LwIP/src/api/api_msg.c ****   sys_sem_t *op_completed_sem = NULL;
 879              		.loc 1 1305 3 view .LVU249
1306:Middlewares/Third_Party/LwIP/src/api/api_msg.c **** 
1307:Middlewares/Third_Party/LwIP/src/api/api_msg.c ****   LWIP_UNUSED_ARG(pcb);
 880              		.loc 1 1307 3 view .LVU250
1308:Middlewares/Third_Party/LwIP/src/api/api_msg.c **** 
1309:Middlewares/Third_Party/LwIP/src/api/api_msg.c ****   conn = (struct netconn *)arg;
 881              		.loc 1 1309 3 view .LVU251
1310:Middlewares/Third_Party/LwIP/src/api/api_msg.c **** 
1311:Middlewares/Third_Party/LwIP/src/api/api_msg.c ****   if (conn == NULL) {
 882              		.loc 1 1311 3 view .LVU252
 883              		.loc 1 1311 6 is_stmt 0 view .LVU253
 884 0000 0028     		cmp	r0, #0
 885 0002 5DD0     		beq	.L79
1302:Middlewares/Third_Party/LwIP/src/api/api_msg.c ****   struct netconn *conn;
 886              		.loc 1 1302 1 view .LVU254
 887 0004 70B5     		push	{r4, r5, r6, lr}
 888              	.LCFI6:
 889              		.cfi_def_cfa_offset 16
 890              		.cfi_offset 4, -16
 891              		.cfi_offset 5, -12
ARM GAS  C:\usertemp\ccuz6VZa.s 			page 43


 892              		.cfi_offset 6, -8
 893              		.cfi_offset 14, -4
 894 0006 1646     		mov	r6, r2
 895 0008 0446     		mov	r4, r0
1312:Middlewares/Third_Party/LwIP/src/api/api_msg.c ****     return ERR_VAL;
1313:Middlewares/Third_Party/LwIP/src/api/api_msg.c ****   }
1314:Middlewares/Third_Party/LwIP/src/api/api_msg.c **** 
1315:Middlewares/Third_Party/LwIP/src/api/api_msg.c ****   LWIP_ASSERT("conn->state == NETCONN_CONNECT", conn->state == NETCONN_CONNECT);
 896              		.loc 1 1315 3 is_stmt 1 view .LVU255
 897              		.loc 1 1315 3 view .LVU256
 898 000a 4378     		ldrb	r3, [r0, #1]	@ zero_extendqisi2
 899 000c 032B     		cmp	r3, #3
 900 000e 30D1     		bne	.L85
 901              	.LVL88:
 902              	.L73:
 903              		.loc 1 1315 3 discriminator 3 view .LVU257
 904              		.loc 1 1315 3 discriminator 3 view .LVU258
1316:Middlewares/Third_Party/LwIP/src/api/api_msg.c ****   LWIP_ASSERT("(conn->current_msg != NULL) || conn->in_non_blocking_connect",
 905              		.loc 1 1316 3 view .LVU259
 906              		.loc 1 1316 3 view .LVU260
 907 0010 236A     		ldr	r3, [r4, #32]
 908 0012 002B     		cmp	r3, #0
 909 0014 35D0     		beq	.L86
 910              	.L74:
 911              		.loc 1 1316 3 discriminator 5 view .LVU261
 912              		.loc 1 1316 3 discriminator 5 view .LVU262
1317:Middlewares/Third_Party/LwIP/src/api/api_msg.c ****               (conn->current_msg != NULL) || IN_NONBLOCKING_CONNECT(conn));
1318:Middlewares/Third_Party/LwIP/src/api/api_msg.c **** 
1319:Middlewares/Third_Party/LwIP/src/api/api_msg.c ****   if (conn->current_msg != NULL) {
 913              		.loc 1 1319 3 view .LVU263
 914              		.loc 1 1319 11 is_stmt 0 view .LVU264
 915 0016 256A     		ldr	r5, [r4, #32]
 916              		.loc 1 1319 6 view .LVU265
 917 0018 1DB1     		cbz	r5, .L75
1320:Middlewares/Third_Party/LwIP/src/api/api_msg.c ****     conn->current_msg->err = err;
 918              		.loc 1 1320 5 is_stmt 1 view .LVU266
 919              		.loc 1 1320 28 is_stmt 0 view .LVU267
 920 001a 2E71     		strb	r6, [r5, #4]
1321:Middlewares/Third_Party/LwIP/src/api/api_msg.c ****     op_completed_sem = LWIP_API_MSG_SEM(conn->current_msg);
 921              		.loc 1 1321 5 is_stmt 1 view .LVU268
 922              		.loc 1 1321 24 is_stmt 0 view .LVU269
 923 001c 236A     		ldr	r3, [r4, #32]
 924 001e 1D68     		ldr	r5, [r3]
 925              		.loc 1 1321 22 view .LVU270
 926 0020 0C35     		adds	r5, r5, #12
 927              	.LVL89:
 928              	.L75:
1322:Middlewares/Third_Party/LwIP/src/api/api_msg.c ****   }
1323:Middlewares/Third_Party/LwIP/src/api/api_msg.c ****   if ((NETCONNTYPE_GROUP(conn->type) == NETCONN_TCP) && (err == ERR_OK)) {
 929              		.loc 1 1323 3 is_stmt 1 view .LVU271
 930              		.loc 1 1323 8 is_stmt 0 view .LVU272
 931 0022 2378     		ldrb	r3, [r4]	@ zero_extendqisi2
 932              		.loc 1 1323 6 view .LVU273
 933 0024 03F0F003 		and	r3, r3, #240
 934 0028 102B     		cmp	r3, #16
 935 002a 36D0     		beq	.L87
 936              	.L76:
ARM GAS  C:\usertemp\ccuz6VZa.s 			page 44


1324:Middlewares/Third_Party/LwIP/src/api/api_msg.c ****     setup_tcp(conn);
1325:Middlewares/Third_Party/LwIP/src/api/api_msg.c ****   }
1326:Middlewares/Third_Party/LwIP/src/api/api_msg.c ****   was_blocking = !IN_NONBLOCKING_CONNECT(conn);
 937              		.loc 1 1326 3 is_stmt 1 view .LVU274
 938              		.loc 1 1326 19 is_stmt 0 view .LVU275
 939 002c 237F     		ldrb	r3, [r4, #28]	@ zero_extendqisi2
 940 002e 03F00406 		and	r6, r3, #4
 941              	.LVL90:
 942              		.loc 1 1326 18 view .LVU276
 943 0032 002E     		cmp	r6, #0
 944 0034 0CBF     		ite	eq
 945 0036 0122     		moveq	r2, #1
 946 0038 0022     		movne	r2, #0
 947              	.LVL91:
1327:Middlewares/Third_Party/LwIP/src/api/api_msg.c ****   SET_NONBLOCKING_CONNECT(conn, 0);
 948              		.loc 1 1327 3 is_stmt 1 view .LVU277
 949              		.loc 1 1327 3 view .LVU278
 950              		.loc 1 1327 3 discriminator 2 view .LVU279
 951              		.loc 1 1327 3 discriminator 2 view .LVU280
 952 003a 03F0FB03 		and	r3, r3, #251
 953 003e 2377     		strb	r3, [r4, #28]
 954              		.loc 1 1327 3 discriminator 4 view .LVU281
 955              		.loc 1 1327 3 discriminator 4 view .LVU282
1328:Middlewares/Third_Party/LwIP/src/api/api_msg.c ****   LWIP_ASSERT("blocking connect state error",
 956              		.loc 1 1328 3 view .LVU283
 957              		.loc 1 1328 3 view .LVU284
 958 0040 14BF     		ite	ne
 959 0042 0123     		movne	r3, #1
 960 0044 0023     		moveq	r3, #0
 961 0046 002D     		cmp	r5, #0
 962 0048 08BF     		it	eq
 963 004a 43F00103 		orreq	r3, r3, #1
 964 004e 23B1     		cbz	r3, .L77
 965              		.loc 1 1328 3 is_stmt 0 discriminator 1 view .LVU285
 966 0050 002D     		cmp	r5, #0
 967 0052 18BF     		it	ne
 968 0054 42F00102 		orrne	r2, r2, #1
 969              	.LVL92:
 970              		.loc 1 1328 3 discriminator 1 view .LVU286
 971 0058 2ABB     		cbnz	r2, .L88
 972              	.L77:
 973              		.loc 1 1328 3 is_stmt 1 discriminator 5 view .LVU287
 974              		.loc 1 1328 3 discriminator 5 view .LVU288
1329:Middlewares/Third_Party/LwIP/src/api/api_msg.c ****               (was_blocking && op_completed_sem != NULL) ||
1330:Middlewares/Third_Party/LwIP/src/api/api_msg.c ****               (!was_blocking && op_completed_sem == NULL));
1331:Middlewares/Third_Party/LwIP/src/api/api_msg.c ****   conn->current_msg = NULL;
 975              		.loc 1 1331 3 view .LVU289
 976              		.loc 1 1331 21 is_stmt 0 view .LVU290
 977 005a 0023     		movs	r3, #0
 978 005c 2362     		str	r3, [r4, #32]
1332:Middlewares/Third_Party/LwIP/src/api/api_msg.c ****   conn->state = NETCONN_NONE;
 979              		.loc 1 1332 3 is_stmt 1 view .LVU291
 980              		.loc 1 1332 15 is_stmt 0 view .LVU292
 981 005e 6370     		strb	r3, [r4, #1]
1333:Middlewares/Third_Party/LwIP/src/api/api_msg.c ****   API_EVENT(conn, NETCONN_EVT_SENDPLUS, 0);
 982              		.loc 1 1333 3 is_stmt 1 view .LVU293
 983 0060 636A     		ldr	r3, [r4, #36]
ARM GAS  C:\usertemp\ccuz6VZa.s 			page 45


 984 0062 1BB1     		cbz	r3, .L78
 985              		.loc 1 1333 3 discriminator 1 view .LVU294
 986 0064 0022     		movs	r2, #0
 987 0066 0221     		movs	r1, #2
 988 0068 2046     		mov	r0, r4
 989 006a 9847     		blx	r3
 990              	.LVL93:
 991              	.L78:
 992              		.loc 1 1333 43 discriminator 3 view .LVU295
1334:Middlewares/Third_Party/LwIP/src/api/api_msg.c **** 
1335:Middlewares/Third_Party/LwIP/src/api/api_msg.c ****   if (was_blocking) {
 993              		.loc 1 1335 3 view .LVU296
 994              		.loc 1 1335 6 is_stmt 0 view .LVU297
 995 006c 1EB3     		cbz	r6, .L89
1336:Middlewares/Third_Party/LwIP/src/api/api_msg.c ****     sys_sem_signal(op_completed_sem);
1337:Middlewares/Third_Party/LwIP/src/api/api_msg.c ****   }
1338:Middlewares/Third_Party/LwIP/src/api/api_msg.c ****   return ERR_OK;
 996              		.loc 1 1338 10 view .LVU298
 997 006e 0020     		movs	r0, #0
 998              	.L72:
1339:Middlewares/Third_Party/LwIP/src/api/api_msg.c **** }
 999              		.loc 1 1339 1 view .LVU299
 1000 0070 70BD     		pop	{r4, r5, r6, pc}
 1001              	.LVL94:
 1002              	.L85:
1315:Middlewares/Third_Party/LwIP/src/api/api_msg.c ****   LWIP_ASSERT("(conn->current_msg != NULL) || conn->in_non_blocking_connect",
 1003              		.loc 1 1315 3 is_stmt 1 discriminator 1 view .LVU300
1315:Middlewares/Third_Party/LwIP/src/api/api_msg.c ****   LWIP_ASSERT("(conn->current_msg != NULL) || conn->in_non_blocking_connect",
 1004              		.loc 1 1315 3 discriminator 1 view .LVU301
 1005 0072 154B     		ldr	r3, .L90
 1006 0074 40F22352 		movw	r2, #1315
 1007              	.LVL95:
1315:Middlewares/Third_Party/LwIP/src/api/api_msg.c ****   LWIP_ASSERT("(conn->current_msg != NULL) || conn->in_non_blocking_connect",
 1008              		.loc 1 1315 3 is_stmt 0 discriminator 1 view .LVU302
 1009 0078 1449     		ldr	r1, .L90+4
 1010              	.LVL96:
1315:Middlewares/Third_Party/LwIP/src/api/api_msg.c ****   LWIP_ASSERT("(conn->current_msg != NULL) || conn->in_non_blocking_connect",
 1011              		.loc 1 1315 3 discriminator 1 view .LVU303
 1012 007a 1548     		ldr	r0, .L90+8
 1013              	.LVL97:
1315:Middlewares/Third_Party/LwIP/src/api/api_msg.c ****   LWIP_ASSERT("(conn->current_msg != NULL) || conn->in_non_blocking_connect",
 1014              		.loc 1 1315 3 discriminator 1 view .LVU304
 1015 007c FFF7FEFF 		bl	printf
 1016              	.LVL98:
 1017 0080 C6E7     		b	.L73
 1018              	.L86:
1316:Middlewares/Third_Party/LwIP/src/api/api_msg.c ****               (conn->current_msg != NULL) || IN_NONBLOCKING_CONNECT(conn));
 1019              		.loc 1 1316 3 discriminator 1 view .LVU305
 1020 0082 237F     		ldrb	r3, [r4, #28]	@ zero_extendqisi2
 1021 0084 13F0040F 		tst	r3, #4
 1022 0088 C5D1     		bne	.L74
1316:Middlewares/Third_Party/LwIP/src/api/api_msg.c ****               (conn->current_msg != NULL) || IN_NONBLOCKING_CONNECT(conn));
 1023              		.loc 1 1316 3 is_stmt 1 discriminator 3 view .LVU306
1316:Middlewares/Third_Party/LwIP/src/api/api_msg.c ****               (conn->current_msg != NULL) || IN_NONBLOCKING_CONNECT(conn));
 1024              		.loc 1 1316 3 discriminator 3 view .LVU307
 1025 008a 0F4B     		ldr	r3, .L90
 1026 008c 40F22452 		movw	r2, #1316
ARM GAS  C:\usertemp\ccuz6VZa.s 			page 46


 1027 0090 1049     		ldr	r1, .L90+12
 1028 0092 0F48     		ldr	r0, .L90+8
 1029 0094 FFF7FEFF 		bl	printf
 1030              	.LVL99:
 1031 0098 BDE7     		b	.L74
 1032              	.LVL100:
 1033              	.L87:
1323:Middlewares/Third_Party/LwIP/src/api/api_msg.c ****     setup_tcp(conn);
 1034              		.loc 1 1323 54 is_stmt 0 discriminator 1 view .LVU308
 1035 009a 002E     		cmp	r6, #0
 1036 009c C6D1     		bne	.L76
1324:Middlewares/Third_Party/LwIP/src/api/api_msg.c ****   }
 1037              		.loc 1 1324 5 is_stmt 1 view .LVU309
 1038 009e 2046     		mov	r0, r4
 1039 00a0 FFF7FEFF 		bl	setup_tcp
 1040              	.LVL101:
 1041 00a4 C2E7     		b	.L76
 1042              	.LVL102:
 1043              	.L88:
1328:Middlewares/Third_Party/LwIP/src/api/api_msg.c ****               (was_blocking && op_completed_sem != NULL) ||
 1044              		.loc 1 1328 3 discriminator 3 view .LVU310
1328:Middlewares/Third_Party/LwIP/src/api/api_msg.c ****               (was_blocking && op_completed_sem != NULL) ||
 1045              		.loc 1 1328 3 discriminator 3 view .LVU311
 1046 00a6 084B     		ldr	r3, .L90
 1047 00a8 4FF4A662 		mov	r2, #1328
 1048 00ac 0A49     		ldr	r1, .L90+16
 1049 00ae 0848     		ldr	r0, .L90+8
 1050 00b0 FFF7FEFF 		bl	printf
 1051              	.LVL103:
 1052 00b4 D1E7     		b	.L77
 1053              	.L89:
1336:Middlewares/Third_Party/LwIP/src/api/api_msg.c ****   }
 1054              		.loc 1 1336 5 view .LVU312
 1055 00b6 2846     		mov	r0, r5
 1056 00b8 FFF7FEFF 		bl	sys_sem_signal
 1057              	.LVL104:
1338:Middlewares/Third_Party/LwIP/src/api/api_msg.c **** }
 1058              		.loc 1 1338 10 is_stmt 0 view .LVU313
 1059 00bc 0020     		movs	r0, #0
 1060 00be D7E7     		b	.L72
 1061              	.LVL105:
 1062              	.L79:
 1063              	.LCFI7:
 1064              		.cfi_def_cfa_offset 0
 1065              		.cfi_restore 4
 1066              		.cfi_restore 5
 1067              		.cfi_restore 6
 1068              		.cfi_restore 14
1312:Middlewares/Third_Party/LwIP/src/api/api_msg.c ****   }
 1069              		.loc 1 1312 12 view .LVU314
 1070 00c0 6FF00500 		mvn	r0, #5
 1071              	.LVL106:
 1072              		.loc 1 1339 1 view .LVU315
 1073 00c4 7047     		bx	lr
 1074              	.L91:
 1075 00c6 00BF     		.align	2
 1076              	.L90:
ARM GAS  C:\usertemp\ccuz6VZa.s 			page 47


 1077 00c8 00000000 		.word	.LC0
 1078 00cc 00000000 		.word	.LC11
 1079 00d0 40000000 		.word	.LC2
 1080 00d4 20000000 		.word	.LC12
 1081 00d8 60000000 		.word	.LC13
 1082              		.cfi_endproc
 1083              	.LFE382:
 1085              		.section	.rodata.lwip_netconn_do_writemore.str1.4,"aMS",%progbits,1
 1086              		.align	2
 1087              	.LC14:
 1088 0000 636F6E6E 		.ascii	"conn->state == NETCONN_WRITE\000"
 1088      2D3E7374 
 1088      61746520 
 1088      3D3D204E 
 1088      4554434F 
 1089 001d 000000   		.align	2
 1090              	.LC15:
 1091 0020 636F6E6E 		.ascii	"conn->pcb.tcp != NULL\000"
 1091      2D3E7063 
 1091      622E7463 
 1091      7020213D 
 1091      204E554C 
 1092 0036 0000     		.align	2
 1093              	.LC16:
 1094 0038 636F6E6E 		.ascii	"conn->current_msg->msg.w.offset < conn->current_msg"
 1094      2D3E6375 
 1094      7272656E 
 1094      745F6D73 
 1094      672D3E6D 
 1095 006b 2D3E6D73 		.ascii	"->msg.w.len\000"
 1095      672E772E 
 1095      6C656E00 
 1096 0077 00       		.align	2
 1097              	.LC17:
 1098 0078 636F6E6E 		.ascii	"conn->current_msg->msg.w.vector_cnt > 0\000"
 1098      2D3E6375 
 1098      7272656E 
 1098      745F6D73 
 1098      672D3E6D 
 1099              		.align	2
 1100              	.LC18:
 1101 00a0 6C776970 		.ascii	"lwip_netconn_do_writemore: invalid length!\000"
 1101      5F6E6574 
 1101      636F6E6E 
 1101      5F646F5F 
 1101      77726974 
 1102              		.section	.text.lwip_netconn_do_writemore,"ax",%progbits
 1103              		.align	1
 1104              		.syntax unified
 1105              		.thumb
 1106              		.thumb_func
 1108              	lwip_netconn_do_writemore:
 1109              	.LVL107:
 1110              	.LFB388:
1340:Middlewares/Third_Party/LwIP/src/api/api_msg.c **** #endif /* LWIP_TCP */
1341:Middlewares/Third_Party/LwIP/src/api/api_msg.c **** 
1342:Middlewares/Third_Party/LwIP/src/api/api_msg.c **** /**
ARM GAS  C:\usertemp\ccuz6VZa.s 			page 48


1343:Middlewares/Third_Party/LwIP/src/api/api_msg.c ****  * Connect a pcb contained inside a netconn
1344:Middlewares/Third_Party/LwIP/src/api/api_msg.c ****  * Called from netconn_connect.
1345:Middlewares/Third_Party/LwIP/src/api/api_msg.c ****  *
1346:Middlewares/Third_Party/LwIP/src/api/api_msg.c ****  * @param m the api_msg pointing to the connection and containing
1347:Middlewares/Third_Party/LwIP/src/api/api_msg.c ****  *          the IP address and port to connect to
1348:Middlewares/Third_Party/LwIP/src/api/api_msg.c ****  */
1349:Middlewares/Third_Party/LwIP/src/api/api_msg.c **** void
1350:Middlewares/Third_Party/LwIP/src/api/api_msg.c **** lwip_netconn_do_connect(void *m)
1351:Middlewares/Third_Party/LwIP/src/api/api_msg.c **** {
1352:Middlewares/Third_Party/LwIP/src/api/api_msg.c ****   struct api_msg *msg = (struct api_msg *)m;
1353:Middlewares/Third_Party/LwIP/src/api/api_msg.c ****   err_t err;
1354:Middlewares/Third_Party/LwIP/src/api/api_msg.c **** 
1355:Middlewares/Third_Party/LwIP/src/api/api_msg.c ****   if (msg->conn->pcb.tcp == NULL) {
1356:Middlewares/Third_Party/LwIP/src/api/api_msg.c ****     /* This may happen when calling netconn_connect() a second time */
1357:Middlewares/Third_Party/LwIP/src/api/api_msg.c ****     err = ERR_CLSD;
1358:Middlewares/Third_Party/LwIP/src/api/api_msg.c ****   } else {
1359:Middlewares/Third_Party/LwIP/src/api/api_msg.c ****     switch (NETCONNTYPE_GROUP(msg->conn->type)) {
1360:Middlewares/Third_Party/LwIP/src/api/api_msg.c **** #if LWIP_RAW
1361:Middlewares/Third_Party/LwIP/src/api/api_msg.c ****       case NETCONN_RAW:
1362:Middlewares/Third_Party/LwIP/src/api/api_msg.c ****         err = raw_connect(msg->conn->pcb.raw, API_EXPR_REF(msg->msg.bc.ipaddr));
1363:Middlewares/Third_Party/LwIP/src/api/api_msg.c ****         break;
1364:Middlewares/Third_Party/LwIP/src/api/api_msg.c **** #endif /* LWIP_RAW */
1365:Middlewares/Third_Party/LwIP/src/api/api_msg.c **** #if LWIP_UDP
1366:Middlewares/Third_Party/LwIP/src/api/api_msg.c ****       case NETCONN_UDP:
1367:Middlewares/Third_Party/LwIP/src/api/api_msg.c ****         err = udp_connect(msg->conn->pcb.udp, API_EXPR_REF(msg->msg.bc.ipaddr), msg->msg.bc.port);
1368:Middlewares/Third_Party/LwIP/src/api/api_msg.c ****         break;
1369:Middlewares/Third_Party/LwIP/src/api/api_msg.c **** #endif /* LWIP_UDP */
1370:Middlewares/Third_Party/LwIP/src/api/api_msg.c **** #if LWIP_TCP
1371:Middlewares/Third_Party/LwIP/src/api/api_msg.c ****       case NETCONN_TCP:
1372:Middlewares/Third_Party/LwIP/src/api/api_msg.c ****         /* Prevent connect while doing any other action. */
1373:Middlewares/Third_Party/LwIP/src/api/api_msg.c ****         if (msg->conn->state == NETCONN_CONNECT) {
1374:Middlewares/Third_Party/LwIP/src/api/api_msg.c ****           err = ERR_ALREADY;
1375:Middlewares/Third_Party/LwIP/src/api/api_msg.c ****         } else if (msg->conn->state != NETCONN_NONE) {
1376:Middlewares/Third_Party/LwIP/src/api/api_msg.c ****           err = ERR_ISCONN;
1377:Middlewares/Third_Party/LwIP/src/api/api_msg.c ****         } else {
1378:Middlewares/Third_Party/LwIP/src/api/api_msg.c ****           setup_tcp(msg->conn);
1379:Middlewares/Third_Party/LwIP/src/api/api_msg.c ****           err = tcp_connect(msg->conn->pcb.tcp, API_EXPR_REF(msg->msg.bc.ipaddr),
1380:Middlewares/Third_Party/LwIP/src/api/api_msg.c ****                             msg->msg.bc.port, lwip_netconn_do_connected);
1381:Middlewares/Third_Party/LwIP/src/api/api_msg.c ****           if (err == ERR_OK) {
1382:Middlewares/Third_Party/LwIP/src/api/api_msg.c ****             u8_t non_blocking = netconn_is_nonblocking(msg->conn);
1383:Middlewares/Third_Party/LwIP/src/api/api_msg.c ****             msg->conn->state = NETCONN_CONNECT;
1384:Middlewares/Third_Party/LwIP/src/api/api_msg.c ****             SET_NONBLOCKING_CONNECT(msg->conn, non_blocking);
1385:Middlewares/Third_Party/LwIP/src/api/api_msg.c ****             if (non_blocking) {
1386:Middlewares/Third_Party/LwIP/src/api/api_msg.c ****               err = ERR_INPROGRESS;
1387:Middlewares/Third_Party/LwIP/src/api/api_msg.c ****             } else {
1388:Middlewares/Third_Party/LwIP/src/api/api_msg.c ****               msg->conn->current_msg = msg;
1389:Middlewares/Third_Party/LwIP/src/api/api_msg.c ****               /* sys_sem_signal() is called from lwip_netconn_do_connected (or err_tcp()),
1390:Middlewares/Third_Party/LwIP/src/api/api_msg.c ****                  when the connection is established! */
1391:Middlewares/Third_Party/LwIP/src/api/api_msg.c **** #if LWIP_TCPIP_CORE_LOCKING
1392:Middlewares/Third_Party/LwIP/src/api/api_msg.c ****               LWIP_ASSERT("state!", msg->conn->state == NETCONN_CONNECT);
1393:Middlewares/Third_Party/LwIP/src/api/api_msg.c ****               UNLOCK_TCPIP_CORE();
1394:Middlewares/Third_Party/LwIP/src/api/api_msg.c ****               sys_arch_sem_wait(LWIP_API_MSG_SEM(msg), 0);
1395:Middlewares/Third_Party/LwIP/src/api/api_msg.c ****               LOCK_TCPIP_CORE();
1396:Middlewares/Third_Party/LwIP/src/api/api_msg.c ****               LWIP_ASSERT("state!", msg->conn->state != NETCONN_CONNECT);
1397:Middlewares/Third_Party/LwIP/src/api/api_msg.c **** #endif /* LWIP_TCPIP_CORE_LOCKING */
1398:Middlewares/Third_Party/LwIP/src/api/api_msg.c ****               return;
1399:Middlewares/Third_Party/LwIP/src/api/api_msg.c ****             }
ARM GAS  C:\usertemp\ccuz6VZa.s 			page 49


1400:Middlewares/Third_Party/LwIP/src/api/api_msg.c ****           }
1401:Middlewares/Third_Party/LwIP/src/api/api_msg.c ****         }
1402:Middlewares/Third_Party/LwIP/src/api/api_msg.c ****         break;
1403:Middlewares/Third_Party/LwIP/src/api/api_msg.c **** #endif /* LWIP_TCP */
1404:Middlewares/Third_Party/LwIP/src/api/api_msg.c ****       default:
1405:Middlewares/Third_Party/LwIP/src/api/api_msg.c ****         LWIP_ERROR("Invalid netconn type", 0, do {
1406:Middlewares/Third_Party/LwIP/src/api/api_msg.c ****           err = ERR_VAL;
1407:Middlewares/Third_Party/LwIP/src/api/api_msg.c ****         } while (0));
1408:Middlewares/Third_Party/LwIP/src/api/api_msg.c ****         break;
1409:Middlewares/Third_Party/LwIP/src/api/api_msg.c ****     }
1410:Middlewares/Third_Party/LwIP/src/api/api_msg.c ****   }
1411:Middlewares/Third_Party/LwIP/src/api/api_msg.c ****   msg->err = err;
1412:Middlewares/Third_Party/LwIP/src/api/api_msg.c ****   /* For all other protocols, netconn_connect() calls netconn_apimsg(),
1413:Middlewares/Third_Party/LwIP/src/api/api_msg.c ****      so use TCPIP_APIMSG_ACK() here. */
1414:Middlewares/Third_Party/LwIP/src/api/api_msg.c ****   TCPIP_APIMSG_ACK(msg);
1415:Middlewares/Third_Party/LwIP/src/api/api_msg.c **** }
1416:Middlewares/Third_Party/LwIP/src/api/api_msg.c **** 
1417:Middlewares/Third_Party/LwIP/src/api/api_msg.c **** /**
1418:Middlewares/Third_Party/LwIP/src/api/api_msg.c ****  * Disconnect a pcb contained inside a netconn
1419:Middlewares/Third_Party/LwIP/src/api/api_msg.c ****  * Only used for UDP netconns.
1420:Middlewares/Third_Party/LwIP/src/api/api_msg.c ****  * Called from netconn_disconnect.
1421:Middlewares/Third_Party/LwIP/src/api/api_msg.c ****  *
1422:Middlewares/Third_Party/LwIP/src/api/api_msg.c ****  * @param m the api_msg pointing to the connection to disconnect
1423:Middlewares/Third_Party/LwIP/src/api/api_msg.c ****  */
1424:Middlewares/Third_Party/LwIP/src/api/api_msg.c **** void
1425:Middlewares/Third_Party/LwIP/src/api/api_msg.c **** lwip_netconn_do_disconnect(void *m)
1426:Middlewares/Third_Party/LwIP/src/api/api_msg.c **** {
1427:Middlewares/Third_Party/LwIP/src/api/api_msg.c ****   struct api_msg *msg = (struct api_msg *)m;
1428:Middlewares/Third_Party/LwIP/src/api/api_msg.c **** 
1429:Middlewares/Third_Party/LwIP/src/api/api_msg.c **** #if LWIP_UDP
1430:Middlewares/Third_Party/LwIP/src/api/api_msg.c ****   if (NETCONNTYPE_GROUP(msg->conn->type) == NETCONN_UDP) {
1431:Middlewares/Third_Party/LwIP/src/api/api_msg.c ****     udp_disconnect(msg->conn->pcb.udp);
1432:Middlewares/Third_Party/LwIP/src/api/api_msg.c ****     msg->err = ERR_OK;
1433:Middlewares/Third_Party/LwIP/src/api/api_msg.c ****   } else
1434:Middlewares/Third_Party/LwIP/src/api/api_msg.c **** #endif /* LWIP_UDP */
1435:Middlewares/Third_Party/LwIP/src/api/api_msg.c ****   {
1436:Middlewares/Third_Party/LwIP/src/api/api_msg.c ****     msg->err = ERR_VAL;
1437:Middlewares/Third_Party/LwIP/src/api/api_msg.c ****   }
1438:Middlewares/Third_Party/LwIP/src/api/api_msg.c ****   TCPIP_APIMSG_ACK(msg);
1439:Middlewares/Third_Party/LwIP/src/api/api_msg.c **** }
1440:Middlewares/Third_Party/LwIP/src/api/api_msg.c **** 
1441:Middlewares/Third_Party/LwIP/src/api/api_msg.c **** #if LWIP_TCP
1442:Middlewares/Third_Party/LwIP/src/api/api_msg.c **** /**
1443:Middlewares/Third_Party/LwIP/src/api/api_msg.c ****  * Set a TCP pcb contained in a netconn into listen mode
1444:Middlewares/Third_Party/LwIP/src/api/api_msg.c ****  * Called from netconn_listen.
1445:Middlewares/Third_Party/LwIP/src/api/api_msg.c ****  *
1446:Middlewares/Third_Party/LwIP/src/api/api_msg.c ****  * @param m the api_msg pointing to the connection
1447:Middlewares/Third_Party/LwIP/src/api/api_msg.c ****  */
1448:Middlewares/Third_Party/LwIP/src/api/api_msg.c **** void
1449:Middlewares/Third_Party/LwIP/src/api/api_msg.c **** lwip_netconn_do_listen(void *m)
1450:Middlewares/Third_Party/LwIP/src/api/api_msg.c **** {
1451:Middlewares/Third_Party/LwIP/src/api/api_msg.c ****   struct api_msg *msg = (struct api_msg *)m;
1452:Middlewares/Third_Party/LwIP/src/api/api_msg.c ****   err_t err;
1453:Middlewares/Third_Party/LwIP/src/api/api_msg.c **** 
1454:Middlewares/Third_Party/LwIP/src/api/api_msg.c ****   if (msg->conn->pcb.tcp != NULL) {
1455:Middlewares/Third_Party/LwIP/src/api/api_msg.c ****     if (NETCONNTYPE_GROUP(msg->conn->type) == NETCONN_TCP) {
1456:Middlewares/Third_Party/LwIP/src/api/api_msg.c ****       if (msg->conn->state == NETCONN_NONE) {
ARM GAS  C:\usertemp\ccuz6VZa.s 			page 50


1457:Middlewares/Third_Party/LwIP/src/api/api_msg.c ****         struct tcp_pcb *lpcb;
1458:Middlewares/Third_Party/LwIP/src/api/api_msg.c ****         if (msg->conn->pcb.tcp->state != CLOSED) {
1459:Middlewares/Third_Party/LwIP/src/api/api_msg.c ****           /* connection is not closed, cannot listen */
1460:Middlewares/Third_Party/LwIP/src/api/api_msg.c ****           err = ERR_VAL;
1461:Middlewares/Third_Party/LwIP/src/api/api_msg.c ****         } else {
1462:Middlewares/Third_Party/LwIP/src/api/api_msg.c ****           u8_t backlog;
1463:Middlewares/Third_Party/LwIP/src/api/api_msg.c **** #if TCP_LISTEN_BACKLOG
1464:Middlewares/Third_Party/LwIP/src/api/api_msg.c ****           backlog = msg->msg.lb.backlog;
1465:Middlewares/Third_Party/LwIP/src/api/api_msg.c **** #else  /* TCP_LISTEN_BACKLOG */
1466:Middlewares/Third_Party/LwIP/src/api/api_msg.c ****           backlog = TCP_DEFAULT_LISTEN_BACKLOG;
1467:Middlewares/Third_Party/LwIP/src/api/api_msg.c **** #endif /* TCP_LISTEN_BACKLOG */
1468:Middlewares/Third_Party/LwIP/src/api/api_msg.c **** #if LWIP_IPV4 && LWIP_IPV6
1469:Middlewares/Third_Party/LwIP/src/api/api_msg.c ****           /* "Socket API like" dual-stack support: If IP to listen to is IP6_ADDR_ANY,
1470:Middlewares/Third_Party/LwIP/src/api/api_msg.c ****             * and NETCONN_FLAG_IPV6_V6ONLY is NOT set, use IP_ANY_TYPE to listen
1471:Middlewares/Third_Party/LwIP/src/api/api_msg.c ****             */
1472:Middlewares/Third_Party/LwIP/src/api/api_msg.c ****           if (ip_addr_cmp(&msg->conn->pcb.ip->local_ip, IP6_ADDR_ANY) &&
1473:Middlewares/Third_Party/LwIP/src/api/api_msg.c ****               (netconn_get_ipv6only(msg->conn) == 0)) {
1474:Middlewares/Third_Party/LwIP/src/api/api_msg.c ****             /* change PCB type to IPADDR_TYPE_ANY */
1475:Middlewares/Third_Party/LwIP/src/api/api_msg.c ****             IP_SET_TYPE_VAL(msg->conn->pcb.tcp->local_ip,  IPADDR_TYPE_ANY);
1476:Middlewares/Third_Party/LwIP/src/api/api_msg.c ****             IP_SET_TYPE_VAL(msg->conn->pcb.tcp->remote_ip, IPADDR_TYPE_ANY);
1477:Middlewares/Third_Party/LwIP/src/api/api_msg.c ****           }
1478:Middlewares/Third_Party/LwIP/src/api/api_msg.c **** #endif /* LWIP_IPV4 && LWIP_IPV6 */
1479:Middlewares/Third_Party/LwIP/src/api/api_msg.c **** 
1480:Middlewares/Third_Party/LwIP/src/api/api_msg.c ****           lpcb = tcp_listen_with_backlog_and_err(msg->conn->pcb.tcp, backlog, &err);
1481:Middlewares/Third_Party/LwIP/src/api/api_msg.c **** 
1482:Middlewares/Third_Party/LwIP/src/api/api_msg.c ****           if (lpcb == NULL) {
1483:Middlewares/Third_Party/LwIP/src/api/api_msg.c ****             /* in this case, the old pcb is still allocated */
1484:Middlewares/Third_Party/LwIP/src/api/api_msg.c ****           } else {
1485:Middlewares/Third_Party/LwIP/src/api/api_msg.c ****             /* delete the recvmbox and allocate the acceptmbox */
1486:Middlewares/Third_Party/LwIP/src/api/api_msg.c ****             if (sys_mbox_valid(&msg->conn->recvmbox)) {
1487:Middlewares/Third_Party/LwIP/src/api/api_msg.c ****               /** @todo: should we drain the recvmbox here? */
1488:Middlewares/Third_Party/LwIP/src/api/api_msg.c ****               sys_mbox_free(&msg->conn->recvmbox);
1489:Middlewares/Third_Party/LwIP/src/api/api_msg.c ****               sys_mbox_set_invalid(&msg->conn->recvmbox);
1490:Middlewares/Third_Party/LwIP/src/api/api_msg.c ****             }
1491:Middlewares/Third_Party/LwIP/src/api/api_msg.c ****             err = ERR_OK;
1492:Middlewares/Third_Party/LwIP/src/api/api_msg.c ****             if (!sys_mbox_valid(&msg->conn->acceptmbox)) {
1493:Middlewares/Third_Party/LwIP/src/api/api_msg.c ****               err = sys_mbox_new(&msg->conn->acceptmbox, DEFAULT_ACCEPTMBOX_SIZE);
1494:Middlewares/Third_Party/LwIP/src/api/api_msg.c ****             }
1495:Middlewares/Third_Party/LwIP/src/api/api_msg.c ****             if (err == ERR_OK) {
1496:Middlewares/Third_Party/LwIP/src/api/api_msg.c ****               msg->conn->state = NETCONN_LISTEN;
1497:Middlewares/Third_Party/LwIP/src/api/api_msg.c ****               msg->conn->pcb.tcp = lpcb;
1498:Middlewares/Third_Party/LwIP/src/api/api_msg.c ****               tcp_arg(msg->conn->pcb.tcp, msg->conn);
1499:Middlewares/Third_Party/LwIP/src/api/api_msg.c ****               tcp_accept(msg->conn->pcb.tcp, accept_function);
1500:Middlewares/Third_Party/LwIP/src/api/api_msg.c ****             } else {
1501:Middlewares/Third_Party/LwIP/src/api/api_msg.c ****               /* since the old pcb is already deallocated, free lpcb now */
1502:Middlewares/Third_Party/LwIP/src/api/api_msg.c ****               tcp_close(lpcb);
1503:Middlewares/Third_Party/LwIP/src/api/api_msg.c ****               msg->conn->pcb.tcp = NULL;
1504:Middlewares/Third_Party/LwIP/src/api/api_msg.c ****             }
1505:Middlewares/Third_Party/LwIP/src/api/api_msg.c ****           }
1506:Middlewares/Third_Party/LwIP/src/api/api_msg.c ****         }
1507:Middlewares/Third_Party/LwIP/src/api/api_msg.c ****       } else if (msg->conn->state == NETCONN_LISTEN) {
1508:Middlewares/Third_Party/LwIP/src/api/api_msg.c ****         /* already listening, allow updating of the backlog */
1509:Middlewares/Third_Party/LwIP/src/api/api_msg.c ****         err = ERR_OK;
1510:Middlewares/Third_Party/LwIP/src/api/api_msg.c ****         tcp_backlog_set(msg->conn->pcb.tcp, msg->msg.lb.backlog);
1511:Middlewares/Third_Party/LwIP/src/api/api_msg.c ****       } else {
1512:Middlewares/Third_Party/LwIP/src/api/api_msg.c ****         err = ERR_CONN;
1513:Middlewares/Third_Party/LwIP/src/api/api_msg.c ****       }
ARM GAS  C:\usertemp\ccuz6VZa.s 			page 51


1514:Middlewares/Third_Party/LwIP/src/api/api_msg.c ****     } else {
1515:Middlewares/Third_Party/LwIP/src/api/api_msg.c ****       err = ERR_ARG;
1516:Middlewares/Third_Party/LwIP/src/api/api_msg.c ****     }
1517:Middlewares/Third_Party/LwIP/src/api/api_msg.c ****   } else {
1518:Middlewares/Third_Party/LwIP/src/api/api_msg.c ****     err = ERR_CONN;
1519:Middlewares/Third_Party/LwIP/src/api/api_msg.c ****   }
1520:Middlewares/Third_Party/LwIP/src/api/api_msg.c ****   msg->err = err;
1521:Middlewares/Third_Party/LwIP/src/api/api_msg.c ****   TCPIP_APIMSG_ACK(msg);
1522:Middlewares/Third_Party/LwIP/src/api/api_msg.c **** }
1523:Middlewares/Third_Party/LwIP/src/api/api_msg.c **** #endif /* LWIP_TCP */
1524:Middlewares/Third_Party/LwIP/src/api/api_msg.c **** 
1525:Middlewares/Third_Party/LwIP/src/api/api_msg.c **** /**
1526:Middlewares/Third_Party/LwIP/src/api/api_msg.c ****  * Send some data on a RAW or UDP pcb contained in a netconn
1527:Middlewares/Third_Party/LwIP/src/api/api_msg.c ****  * Called from netconn_send
1528:Middlewares/Third_Party/LwIP/src/api/api_msg.c ****  *
1529:Middlewares/Third_Party/LwIP/src/api/api_msg.c ****  * @param m the api_msg pointing to the connection
1530:Middlewares/Third_Party/LwIP/src/api/api_msg.c ****  */
1531:Middlewares/Third_Party/LwIP/src/api/api_msg.c **** void
1532:Middlewares/Third_Party/LwIP/src/api/api_msg.c **** lwip_netconn_do_send(void *m)
1533:Middlewares/Third_Party/LwIP/src/api/api_msg.c **** {
1534:Middlewares/Third_Party/LwIP/src/api/api_msg.c ****   struct api_msg *msg = (struct api_msg *)m;
1535:Middlewares/Third_Party/LwIP/src/api/api_msg.c **** 
1536:Middlewares/Third_Party/LwIP/src/api/api_msg.c ****   err_t err = netconn_err(msg->conn);
1537:Middlewares/Third_Party/LwIP/src/api/api_msg.c ****   if (err == ERR_OK) {
1538:Middlewares/Third_Party/LwIP/src/api/api_msg.c ****     if (msg->conn->pcb.tcp != NULL) {
1539:Middlewares/Third_Party/LwIP/src/api/api_msg.c ****       switch (NETCONNTYPE_GROUP(msg->conn->type)) {
1540:Middlewares/Third_Party/LwIP/src/api/api_msg.c **** #if LWIP_RAW
1541:Middlewares/Third_Party/LwIP/src/api/api_msg.c ****         case NETCONN_RAW:
1542:Middlewares/Third_Party/LwIP/src/api/api_msg.c ****           if (ip_addr_isany(&msg->msg.b->addr) || IP_IS_ANY_TYPE_VAL(msg->msg.b->addr)) {
1543:Middlewares/Third_Party/LwIP/src/api/api_msg.c ****             err = raw_send(msg->conn->pcb.raw, msg->msg.b->p);
1544:Middlewares/Third_Party/LwIP/src/api/api_msg.c ****           } else {
1545:Middlewares/Third_Party/LwIP/src/api/api_msg.c ****             err = raw_sendto(msg->conn->pcb.raw, msg->msg.b->p, &msg->msg.b->addr);
1546:Middlewares/Third_Party/LwIP/src/api/api_msg.c ****           }
1547:Middlewares/Third_Party/LwIP/src/api/api_msg.c ****           break;
1548:Middlewares/Third_Party/LwIP/src/api/api_msg.c **** #endif
1549:Middlewares/Third_Party/LwIP/src/api/api_msg.c **** #if LWIP_UDP
1550:Middlewares/Third_Party/LwIP/src/api/api_msg.c ****         case NETCONN_UDP:
1551:Middlewares/Third_Party/LwIP/src/api/api_msg.c **** #if LWIP_CHECKSUM_ON_COPY
1552:Middlewares/Third_Party/LwIP/src/api/api_msg.c ****           if (ip_addr_isany(&msg->msg.b->addr) || IP_IS_ANY_TYPE_VAL(msg->msg.b->addr)) {
1553:Middlewares/Third_Party/LwIP/src/api/api_msg.c ****             err = udp_send_chksum(msg->conn->pcb.udp, msg->msg.b->p,
1554:Middlewares/Third_Party/LwIP/src/api/api_msg.c ****                                   msg->msg.b->flags & NETBUF_FLAG_CHKSUM, msg->msg.b->toport_chksum
1555:Middlewares/Third_Party/LwIP/src/api/api_msg.c ****           } else {
1556:Middlewares/Third_Party/LwIP/src/api/api_msg.c ****             err = udp_sendto_chksum(msg->conn->pcb.udp, msg->msg.b->p,
1557:Middlewares/Third_Party/LwIP/src/api/api_msg.c ****                                     &msg->msg.b->addr, msg->msg.b->port,
1558:Middlewares/Third_Party/LwIP/src/api/api_msg.c ****                                     msg->msg.b->flags & NETBUF_FLAG_CHKSUM, msg->msg.b->toport_chks
1559:Middlewares/Third_Party/LwIP/src/api/api_msg.c ****           }
1560:Middlewares/Third_Party/LwIP/src/api/api_msg.c **** #else /* LWIP_CHECKSUM_ON_COPY */
1561:Middlewares/Third_Party/LwIP/src/api/api_msg.c ****           if (ip_addr_isany_val(msg->msg.b->addr) || IP_IS_ANY_TYPE_VAL(msg->msg.b->addr)) {
1562:Middlewares/Third_Party/LwIP/src/api/api_msg.c ****             err = udp_send(msg->conn->pcb.udp, msg->msg.b->p);
1563:Middlewares/Third_Party/LwIP/src/api/api_msg.c ****           } else {
1564:Middlewares/Third_Party/LwIP/src/api/api_msg.c ****             err = udp_sendto(msg->conn->pcb.udp, msg->msg.b->p, &msg->msg.b->addr, msg->msg.b->port
1565:Middlewares/Third_Party/LwIP/src/api/api_msg.c ****           }
1566:Middlewares/Third_Party/LwIP/src/api/api_msg.c **** #endif /* LWIP_CHECKSUM_ON_COPY */
1567:Middlewares/Third_Party/LwIP/src/api/api_msg.c ****           break;
1568:Middlewares/Third_Party/LwIP/src/api/api_msg.c **** #endif /* LWIP_UDP */
1569:Middlewares/Third_Party/LwIP/src/api/api_msg.c ****         default:
1570:Middlewares/Third_Party/LwIP/src/api/api_msg.c ****           err = ERR_CONN;
ARM GAS  C:\usertemp\ccuz6VZa.s 			page 52


1571:Middlewares/Third_Party/LwIP/src/api/api_msg.c ****           break;
1572:Middlewares/Third_Party/LwIP/src/api/api_msg.c ****       }
1573:Middlewares/Third_Party/LwIP/src/api/api_msg.c ****     } else {
1574:Middlewares/Third_Party/LwIP/src/api/api_msg.c ****       err = ERR_CONN;
1575:Middlewares/Third_Party/LwIP/src/api/api_msg.c ****     }
1576:Middlewares/Third_Party/LwIP/src/api/api_msg.c ****   }
1577:Middlewares/Third_Party/LwIP/src/api/api_msg.c ****   msg->err = err;
1578:Middlewares/Third_Party/LwIP/src/api/api_msg.c ****   TCPIP_APIMSG_ACK(msg);
1579:Middlewares/Third_Party/LwIP/src/api/api_msg.c **** }
1580:Middlewares/Third_Party/LwIP/src/api/api_msg.c **** 
1581:Middlewares/Third_Party/LwIP/src/api/api_msg.c **** #if LWIP_TCP
1582:Middlewares/Third_Party/LwIP/src/api/api_msg.c **** /**
1583:Middlewares/Third_Party/LwIP/src/api/api_msg.c ****  * Indicate data has been received from a TCP pcb contained in a netconn
1584:Middlewares/Third_Party/LwIP/src/api/api_msg.c ****  * Called from netconn_recv
1585:Middlewares/Third_Party/LwIP/src/api/api_msg.c ****  *
1586:Middlewares/Third_Party/LwIP/src/api/api_msg.c ****  * @param m the api_msg pointing to the connection
1587:Middlewares/Third_Party/LwIP/src/api/api_msg.c ****  */
1588:Middlewares/Third_Party/LwIP/src/api/api_msg.c **** void
1589:Middlewares/Third_Party/LwIP/src/api/api_msg.c **** lwip_netconn_do_recv(void *m)
1590:Middlewares/Third_Party/LwIP/src/api/api_msg.c **** {
1591:Middlewares/Third_Party/LwIP/src/api/api_msg.c ****   struct api_msg *msg = (struct api_msg *)m;
1592:Middlewares/Third_Party/LwIP/src/api/api_msg.c **** 
1593:Middlewares/Third_Party/LwIP/src/api/api_msg.c ****   msg->err = ERR_OK;
1594:Middlewares/Third_Party/LwIP/src/api/api_msg.c ****   if (msg->conn->pcb.tcp != NULL) {
1595:Middlewares/Third_Party/LwIP/src/api/api_msg.c ****     if (NETCONNTYPE_GROUP(msg->conn->type) == NETCONN_TCP) {
1596:Middlewares/Third_Party/LwIP/src/api/api_msg.c ****       size_t remaining = msg->msg.r.len;
1597:Middlewares/Third_Party/LwIP/src/api/api_msg.c ****       do {
1598:Middlewares/Third_Party/LwIP/src/api/api_msg.c ****         u16_t recved = (u16_t)((remaining > 0xffff) ? 0xffff : remaining);
1599:Middlewares/Third_Party/LwIP/src/api/api_msg.c ****         tcp_recved(msg->conn->pcb.tcp, recved);
1600:Middlewares/Third_Party/LwIP/src/api/api_msg.c ****         remaining -= recved;
1601:Middlewares/Third_Party/LwIP/src/api/api_msg.c ****       } while (remaining != 0);
1602:Middlewares/Third_Party/LwIP/src/api/api_msg.c ****     }
1603:Middlewares/Third_Party/LwIP/src/api/api_msg.c ****   }
1604:Middlewares/Third_Party/LwIP/src/api/api_msg.c ****   TCPIP_APIMSG_ACK(msg);
1605:Middlewares/Third_Party/LwIP/src/api/api_msg.c **** }
1606:Middlewares/Third_Party/LwIP/src/api/api_msg.c **** 
1607:Middlewares/Third_Party/LwIP/src/api/api_msg.c **** #if TCP_LISTEN_BACKLOG
1608:Middlewares/Third_Party/LwIP/src/api/api_msg.c **** /** Indicate that a TCP pcb has been accepted
1609:Middlewares/Third_Party/LwIP/src/api/api_msg.c ****  * Called from netconn_accept
1610:Middlewares/Third_Party/LwIP/src/api/api_msg.c ****  *
1611:Middlewares/Third_Party/LwIP/src/api/api_msg.c ****  * @param m the api_msg pointing to the connection
1612:Middlewares/Third_Party/LwIP/src/api/api_msg.c ****  */
1613:Middlewares/Third_Party/LwIP/src/api/api_msg.c **** void
1614:Middlewares/Third_Party/LwIP/src/api/api_msg.c **** lwip_netconn_do_accepted(void *m)
1615:Middlewares/Third_Party/LwIP/src/api/api_msg.c **** {
1616:Middlewares/Third_Party/LwIP/src/api/api_msg.c ****   struct api_msg *msg = (struct api_msg *)m;
1617:Middlewares/Third_Party/LwIP/src/api/api_msg.c **** 
1618:Middlewares/Third_Party/LwIP/src/api/api_msg.c ****   msg->err = ERR_OK;
1619:Middlewares/Third_Party/LwIP/src/api/api_msg.c ****   if (msg->conn->pcb.tcp != NULL) {
1620:Middlewares/Third_Party/LwIP/src/api/api_msg.c ****     if (NETCONNTYPE_GROUP(msg->conn->type) == NETCONN_TCP) {
1621:Middlewares/Third_Party/LwIP/src/api/api_msg.c ****       tcp_backlog_accepted(msg->conn->pcb.tcp);
1622:Middlewares/Third_Party/LwIP/src/api/api_msg.c ****     }
1623:Middlewares/Third_Party/LwIP/src/api/api_msg.c ****   }
1624:Middlewares/Third_Party/LwIP/src/api/api_msg.c ****   TCPIP_APIMSG_ACK(msg);
1625:Middlewares/Third_Party/LwIP/src/api/api_msg.c **** }
1626:Middlewares/Third_Party/LwIP/src/api/api_msg.c **** #endif /* TCP_LISTEN_BACKLOG */
1627:Middlewares/Third_Party/LwIP/src/api/api_msg.c **** 
ARM GAS  C:\usertemp\ccuz6VZa.s 			page 53


1628:Middlewares/Third_Party/LwIP/src/api/api_msg.c **** /**
1629:Middlewares/Third_Party/LwIP/src/api/api_msg.c ****  * See if more data needs to be written from a previous call to netconn_write.
1630:Middlewares/Third_Party/LwIP/src/api/api_msg.c ****  * Called initially from lwip_netconn_do_write. If the first call can't send all data
1631:Middlewares/Third_Party/LwIP/src/api/api_msg.c ****  * (because of low memory or empty send-buffer), this function is called again
1632:Middlewares/Third_Party/LwIP/src/api/api_msg.c ****  * from sent_tcp() or poll_tcp() to send more data. If all data is sent, the
1633:Middlewares/Third_Party/LwIP/src/api/api_msg.c ****  * blocking application thread (waiting in netconn_write) is released.
1634:Middlewares/Third_Party/LwIP/src/api/api_msg.c ****  *
1635:Middlewares/Third_Party/LwIP/src/api/api_msg.c ****  * @param conn netconn (that is currently in state NETCONN_WRITE) to process
1636:Middlewares/Third_Party/LwIP/src/api/api_msg.c ****  * @return ERR_OK
1637:Middlewares/Third_Party/LwIP/src/api/api_msg.c ****  *         ERR_MEM if LWIP_TCPIP_CORE_LOCKING=1 and sending hasn't yet finished
1638:Middlewares/Third_Party/LwIP/src/api/api_msg.c ****  */
1639:Middlewares/Third_Party/LwIP/src/api/api_msg.c **** static err_t
1640:Middlewares/Third_Party/LwIP/src/api/api_msg.c **** lwip_netconn_do_writemore(struct netconn *conn  WRITE_DELAYED_PARAM)
1641:Middlewares/Third_Party/LwIP/src/api/api_msg.c **** {
 1111              		.loc 1 1641 1 is_stmt 1 view -0
 1112              		.cfi_startproc
 1113              		@ args = 0, pretend = 0, frame = 0
 1114              		@ frame_needed = 0, uses_anonymous_args = 0
 1115              		.loc 1 1641 1 is_stmt 0 view .LVU317
 1116 0000 2DE9F84F 		push	{r3, r4, r5, r6, r7, r8, r9, r10, fp, lr}
 1117              	.LCFI8:
 1118              		.cfi_def_cfa_offset 40
 1119              		.cfi_offset 3, -40
 1120              		.cfi_offset 4, -36
 1121              		.cfi_offset 5, -32
 1122              		.cfi_offset 6, -28
 1123              		.cfi_offset 7, -24
 1124              		.cfi_offset 8, -20
 1125              		.cfi_offset 9, -16
 1126              		.cfi_offset 10, -12
 1127              		.cfi_offset 11, -8
 1128              		.cfi_offset 14, -4
 1129 0004 8B46     		mov	fp, r1
1642:Middlewares/Third_Party/LwIP/src/api/api_msg.c ****   err_t err;
 1130              		.loc 1 1642 3 is_stmt 1 view .LVU318
1643:Middlewares/Third_Party/LwIP/src/api/api_msg.c ****   const void *dataptr;
 1131              		.loc 1 1643 3 view .LVU319
1644:Middlewares/Third_Party/LwIP/src/api/api_msg.c ****   u16_t len, available;
 1132              		.loc 1 1644 3 view .LVU320
1645:Middlewares/Third_Party/LwIP/src/api/api_msg.c ****   u8_t write_finished = 0;
 1133              		.loc 1 1645 3 view .LVU321
 1134              	.LVL108:
1646:Middlewares/Third_Party/LwIP/src/api/api_msg.c ****   size_t diff;
 1135              		.loc 1 1646 3 view .LVU322
1647:Middlewares/Third_Party/LwIP/src/api/api_msg.c ****   u8_t dontblock;
 1136              		.loc 1 1647 3 view .LVU323
1648:Middlewares/Third_Party/LwIP/src/api/api_msg.c ****   u8_t apiflags;
 1137              		.loc 1 1648 3 view .LVU324
1649:Middlewares/Third_Party/LwIP/src/api/api_msg.c ****   u8_t write_more;
 1138              		.loc 1 1649 3 view .LVU325
1650:Middlewares/Third_Party/LwIP/src/api/api_msg.c **** 
1651:Middlewares/Third_Party/LwIP/src/api/api_msg.c ****   LWIP_ASSERT("conn != NULL", conn != NULL);
 1139              		.loc 1 1651 3 view .LVU326
 1140              		.loc 1 1651 3 view .LVU327
 1141 0006 0546     		mov	r5, r0
 1142 0008 E0B1     		cbz	r0, .L136
 1143              	.LVL109:
ARM GAS  C:\usertemp\ccuz6VZa.s 			page 54


 1144              	.L93:
 1145              		.loc 1 1651 3 discriminator 3 view .LVU328
 1146              		.loc 1 1651 3 discriminator 3 view .LVU329
1652:Middlewares/Third_Party/LwIP/src/api/api_msg.c ****   LWIP_ASSERT("conn->state == NETCONN_WRITE", (conn->state == NETCONN_WRITE));
 1147              		.loc 1 1652 3 view .LVU330
 1148              		.loc 1 1652 3 view .LVU331
 1149 000a 6B78     		ldrb	r3, [r5, #1]	@ zero_extendqisi2
 1150 000c 012B     		cmp	r3, #1
 1151 000e 21D1     		bne	.L137
 1152              	.L94:
 1153              		.loc 1 1652 3 discriminator 3 view .LVU332
 1154              		.loc 1 1652 3 discriminator 3 view .LVU333
1653:Middlewares/Third_Party/LwIP/src/api/api_msg.c ****   LWIP_ASSERT("conn->current_msg != NULL", conn->current_msg != NULL);
 1155              		.loc 1 1653 3 view .LVU334
 1156              		.loc 1 1653 3 view .LVU335
 1157 0010 2B6A     		ldr	r3, [r5, #32]
 1158 0012 3BB3     		cbz	r3, .L138
 1159              	.L95:
 1160              		.loc 1 1653 3 discriminator 3 view .LVU336
 1161              		.loc 1 1653 3 discriminator 3 view .LVU337
1654:Middlewares/Third_Party/LwIP/src/api/api_msg.c ****   LWIP_ASSERT("conn->pcb.tcp != NULL", conn->pcb.tcp != NULL);
 1162              		.loc 1 1654 3 view .LVU338
 1163              		.loc 1 1654 3 view .LVU339
 1164 0014 6B68     		ldr	r3, [r5, #4]
 1165 0016 6BB3     		cbz	r3, .L139
 1166              	.L96:
 1167              		.loc 1 1654 3 discriminator 3 view .LVU340
 1168              		.loc 1 1654 3 discriminator 3 view .LVU341
1655:Middlewares/Third_Party/LwIP/src/api/api_msg.c ****   LWIP_ASSERT("conn->current_msg->msg.w.offset < conn->current_msg->msg.w.len",
 1169              		.loc 1 1655 3 view .LVU342
 1170              		.loc 1 1655 3 view .LVU343
 1171 0018 2B6A     		ldr	r3, [r5, #32]
 1172 001a 9A69     		ldr	r2, [r3, #24]
 1173 001c 5B69     		ldr	r3, [r3, #20]
 1174 001e 9A42     		cmp	r2, r3
 1175 0020 30D2     		bcs	.L140
 1176              	.L97:
 1177              		.loc 1 1655 3 discriminator 3 view .LVU344
 1178              		.loc 1 1655 3 discriminator 3 view .LVU345
1656:Middlewares/Third_Party/LwIP/src/api/api_msg.c ****               conn->current_msg->msg.w.offset < conn->current_msg->msg.w.len);
1657:Middlewares/Third_Party/LwIP/src/api/api_msg.c ****   LWIP_ASSERT("conn->current_msg->msg.w.vector_cnt > 0", conn->current_msg->msg.w.vector_cnt > 0);
 1179              		.loc 1 1657 3 view .LVU346
 1180              		.loc 1 1657 3 view .LVU347
 1181 0022 2B6A     		ldr	r3, [r5, #32]
 1182 0024 9B89     		ldrh	r3, [r3, #12]
 1183 0026 002B     		cmp	r3, #0
 1184 0028 34D0     		beq	.L141
 1185              	.L98:
 1186              		.loc 1 1657 3 discriminator 3 view .LVU348
 1187              		.loc 1 1657 3 discriminator 3 view .LVU349
1658:Middlewares/Third_Party/LwIP/src/api/api_msg.c **** 
1659:Middlewares/Third_Party/LwIP/src/api/api_msg.c ****   apiflags = conn->current_msg->msg.w.apiflags;
 1188              		.loc 1 1659 3 view .LVU350
 1189              		.loc 1 1659 18 is_stmt 0 view .LVU351
 1190 002a 2B6A     		ldr	r3, [r5, #32]
 1191              		.loc 1 1659 12 view .LVU352
 1192 002c 93F81C80 		ldrb	r8, [r3, #28]	@ zero_extendqisi2
ARM GAS  C:\usertemp\ccuz6VZa.s 			page 55


 1193              	.LVL110:
1660:Middlewares/Third_Party/LwIP/src/api/api_msg.c ****   dontblock = netconn_is_nonblocking(conn) || (apiflags & NETCONN_DONTBLOCK);
 1194              		.loc 1 1660 3 is_stmt 1 view .LVU353
 1195              		.loc 1 1660 15 is_stmt 0 view .LVU354
 1196 0030 2B7F     		ldrb	r3, [r5, #28]	@ zero_extendqisi2
 1197              		.loc 1 1660 44 view .LVU355
 1198 0032 13F0020F 		tst	r3, #2
 1199 0036 35D1     		bne	.L122
 1200              		.loc 1 1660 44 discriminator 2 view .LVU356
 1201 0038 18F0040F 		tst	r8, #4
 1202 003c 37D0     		beq	.L123
 1203              		.loc 1 1660 44 discriminator 3 view .LVU357
 1204 003e 4FF0010A 		mov	r10, #1
 1205 0042 31E0     		b	.L99
 1206              	.LVL111:
 1207              	.L136:
1651:Middlewares/Third_Party/LwIP/src/api/api_msg.c ****   LWIP_ASSERT("conn->state == NETCONN_WRITE", (conn->state == NETCONN_WRITE));
 1208              		.loc 1 1651 3 is_stmt 1 discriminator 1 view .LVU358
1651:Middlewares/Third_Party/LwIP/src/api/api_msg.c ****   LWIP_ASSERT("conn->state == NETCONN_WRITE", (conn->state == NETCONN_WRITE));
 1209              		.loc 1 1651 3 discriminator 1 view .LVU359
 1210 0044 8B4B     		ldr	r3, .L149
 1211 0046 40F27362 		movw	r2, #1651
 1212 004a 8B49     		ldr	r1, .L149+4
 1213              	.LVL112:
1651:Middlewares/Third_Party/LwIP/src/api/api_msg.c ****   LWIP_ASSERT("conn->state == NETCONN_WRITE", (conn->state == NETCONN_WRITE));
 1214              		.loc 1 1651 3 is_stmt 0 discriminator 1 view .LVU360
 1215 004c 8B48     		ldr	r0, .L149+8
 1216              	.LVL113:
1651:Middlewares/Third_Party/LwIP/src/api/api_msg.c ****   LWIP_ASSERT("conn->state == NETCONN_WRITE", (conn->state == NETCONN_WRITE));
 1217              		.loc 1 1651 3 discriminator 1 view .LVU361
 1218 004e FFF7FEFF 		bl	printf
 1219              	.LVL114:
 1220 0052 DAE7     		b	.L93
 1221              	.L137:
1652:Middlewares/Third_Party/LwIP/src/api/api_msg.c ****   LWIP_ASSERT("conn->current_msg != NULL", conn->current_msg != NULL);
 1222              		.loc 1 1652 3 is_stmt 1 discriminator 1 view .LVU362
1652:Middlewares/Third_Party/LwIP/src/api/api_msg.c ****   LWIP_ASSERT("conn->current_msg != NULL", conn->current_msg != NULL);
 1223              		.loc 1 1652 3 discriminator 1 view .LVU363
 1224 0054 874B     		ldr	r3, .L149
 1225 0056 40F27462 		movw	r2, #1652
 1226 005a 8949     		ldr	r1, .L149+12
 1227 005c 8748     		ldr	r0, .L149+8
 1228 005e FFF7FEFF 		bl	printf
 1229              	.LVL115:
 1230 0062 D5E7     		b	.L94
 1231              	.L138:
1653:Middlewares/Third_Party/LwIP/src/api/api_msg.c ****   LWIP_ASSERT("conn->pcb.tcp != NULL", conn->pcb.tcp != NULL);
 1232              		.loc 1 1653 3 discriminator 1 view .LVU364
1653:Middlewares/Third_Party/LwIP/src/api/api_msg.c ****   LWIP_ASSERT("conn->pcb.tcp != NULL", conn->pcb.tcp != NULL);
 1233              		.loc 1 1653 3 discriminator 1 view .LVU365
 1234 0064 834B     		ldr	r3, .L149
 1235 0066 40F27562 		movw	r2, #1653
 1236 006a 8649     		ldr	r1, .L149+16
 1237 006c 8348     		ldr	r0, .L149+8
 1238 006e FFF7FEFF 		bl	printf
 1239              	.LVL116:
 1240 0072 CFE7     		b	.L95
ARM GAS  C:\usertemp\ccuz6VZa.s 			page 56


 1241              	.L139:
1654:Middlewares/Third_Party/LwIP/src/api/api_msg.c ****   LWIP_ASSERT("conn->current_msg->msg.w.offset < conn->current_msg->msg.w.len",
 1242              		.loc 1 1654 3 discriminator 1 view .LVU366
1654:Middlewares/Third_Party/LwIP/src/api/api_msg.c ****   LWIP_ASSERT("conn->current_msg->msg.w.offset < conn->current_msg->msg.w.len",
 1243              		.loc 1 1654 3 discriminator 1 view .LVU367
 1244 0074 7F4B     		ldr	r3, .L149
 1245 0076 40F27662 		movw	r2, #1654
 1246 007a 8349     		ldr	r1, .L149+20
 1247 007c 7F48     		ldr	r0, .L149+8
 1248 007e FFF7FEFF 		bl	printf
 1249              	.LVL117:
 1250 0082 C9E7     		b	.L96
 1251              	.L140:
1655:Middlewares/Third_Party/LwIP/src/api/api_msg.c ****               conn->current_msg->msg.w.offset < conn->current_msg->msg.w.len);
 1252              		.loc 1 1655 3 discriminator 1 view .LVU368
1655:Middlewares/Third_Party/LwIP/src/api/api_msg.c ****               conn->current_msg->msg.w.offset < conn->current_msg->msg.w.len);
 1253              		.loc 1 1655 3 discriminator 1 view .LVU369
 1254 0084 7B4B     		ldr	r3, .L149
 1255 0086 40F27762 		movw	r2, #1655
 1256 008a 8049     		ldr	r1, .L149+24
 1257 008c 7B48     		ldr	r0, .L149+8
 1258 008e FFF7FEFF 		bl	printf
 1259              	.LVL118:
 1260 0092 C6E7     		b	.L97
 1261              	.L141:
1657:Middlewares/Third_Party/LwIP/src/api/api_msg.c **** 
 1262              		.loc 1 1657 3 discriminator 1 view .LVU370
1657:Middlewares/Third_Party/LwIP/src/api/api_msg.c **** 
 1263              		.loc 1 1657 3 discriminator 1 view .LVU371
 1264 0094 774B     		ldr	r3, .L149
 1265 0096 40F27962 		movw	r2, #1657
 1266 009a 7D49     		ldr	r1, .L149+28
 1267 009c 7748     		ldr	r0, .L149+8
 1268 009e FFF7FEFF 		bl	printf
 1269              	.LVL119:
 1270 00a2 C2E7     		b	.L98
 1271              	.LVL120:
 1272              	.L122:
 1273              		.loc 1 1660 44 is_stmt 0 discriminator 3 view .LVU372
 1274 00a4 4FF0010A 		mov	r10, #1
 1275              	.L99:
 1276              		.loc 1 1660 13 discriminator 6 view .LVU373
 1277 00a8 5FFA8AFA 		uxtb	r10, r10
 1278              	.LVL121:
 1279              		.loc 1 1660 13 discriminator 6 view .LVU374
 1280 00ac 5FE0     		b	.L110
 1281              	.LVL122:
 1282              	.L123:
 1283              		.loc 1 1660 44 discriminator 4 view .LVU375
 1284 00ae 4FF0000A 		mov	r10, #0
 1285 00b2 F9E7     		b	.L99
 1286              	.LVL123:
 1287              	.L100:
1661:Middlewares/Third_Party/LwIP/src/api/api_msg.c **** 
1662:Middlewares/Third_Party/LwIP/src/api/api_msg.c **** #if LWIP_SO_SNDTIMEO
1663:Middlewares/Third_Party/LwIP/src/api/api_msg.c ****   if ((conn->send_timeout != 0) &&
1664:Middlewares/Third_Party/LwIP/src/api/api_msg.c ****       ((s32_t)(sys_now() - conn->current_msg->msg.w.time_started) >= conn->send_timeout)) {
ARM GAS  C:\usertemp\ccuz6VZa.s 			page 57


1665:Middlewares/Third_Party/LwIP/src/api/api_msg.c ****     write_finished = 1;
1666:Middlewares/Third_Party/LwIP/src/api/api_msg.c ****     if (conn->current_msg->msg.w.offset == 0) {
1667:Middlewares/Third_Party/LwIP/src/api/api_msg.c ****       /* nothing has been written */
1668:Middlewares/Third_Party/LwIP/src/api/api_msg.c ****       err = ERR_WOULDBLOCK;
1669:Middlewares/Third_Party/LwIP/src/api/api_msg.c ****     } else {
1670:Middlewares/Third_Party/LwIP/src/api/api_msg.c ****       /* partial write */
1671:Middlewares/Third_Party/LwIP/src/api/api_msg.c ****       err = ERR_OK;
1672:Middlewares/Third_Party/LwIP/src/api/api_msg.c ****     }
1673:Middlewares/Third_Party/LwIP/src/api/api_msg.c ****   } else
1674:Middlewares/Third_Party/LwIP/src/api/api_msg.c **** #endif /* LWIP_SO_SNDTIMEO */
1675:Middlewares/Third_Party/LwIP/src/api/api_msg.c ****   {
1676:Middlewares/Third_Party/LwIP/src/api/api_msg.c ****     do {
1677:Middlewares/Third_Party/LwIP/src/api/api_msg.c ****       dataptr = (const u8_t *)conn->current_msg->msg.w.vector->ptr + conn->current_msg->msg.w.vecto
1678:Middlewares/Third_Party/LwIP/src/api/api_msg.c ****       diff = conn->current_msg->msg.w.vector->len - conn->current_msg->msg.w.vector_off;
1679:Middlewares/Third_Party/LwIP/src/api/api_msg.c ****       if (diff > 0xffffUL) { /* max_u16_t */
1680:Middlewares/Third_Party/LwIP/src/api/api_msg.c ****         len = 0xffff;
1681:Middlewares/Third_Party/LwIP/src/api/api_msg.c ****         apiflags |= TCP_WRITE_FLAG_MORE;
1682:Middlewares/Third_Party/LwIP/src/api/api_msg.c ****       } else {
1683:Middlewares/Third_Party/LwIP/src/api/api_msg.c ****         len = (u16_t)diff;
 1288              		.loc 1 1683 9 is_stmt 1 view .LVU376
 1289              		.loc 1 1683 13 is_stmt 0 view .LVU377
 1290 00b4 B4B2     		uxth	r4, r6
 1291              	.LVL124:
 1292              		.loc 1 1683 13 view .LVU378
 1293 00b6 68E0     		b	.L101
 1294              	.LVL125:
 1295              	.L145:
1684:Middlewares/Third_Party/LwIP/src/api/api_msg.c ****       }
1685:Middlewares/Third_Party/LwIP/src/api/api_msg.c ****       available = tcp_sndbuf(conn->pcb.tcp);
1686:Middlewares/Third_Party/LwIP/src/api/api_msg.c ****       if (available < len) {
1687:Middlewares/Third_Party/LwIP/src/api/api_msg.c ****         /* don't try to write more than sendbuf */
1688:Middlewares/Third_Party/LwIP/src/api/api_msg.c ****         len = available;
1689:Middlewares/Third_Party/LwIP/src/api/api_msg.c ****         if (dontblock) {
1690:Middlewares/Third_Party/LwIP/src/api/api_msg.c ****           if (!len) {
1691:Middlewares/Third_Party/LwIP/src/api/api_msg.c ****             /* set error according to partial write or not */
1692:Middlewares/Third_Party/LwIP/src/api/api_msg.c ****             err = (conn->current_msg->msg.w.offset == 0) ? ERR_WOULDBLOCK : ERR_OK;
 1296              		.loc 1 1692 13 is_stmt 1 view .LVU379
 1297              		.loc 1 1692 44 is_stmt 0 view .LVU380
 1298 00b8 9369     		ldr	r3, [r2, #24]
 1299              		.loc 1 1692 17 view .LVU381
 1300 00ba B3B9     		cbnz	r3, .L125
 1301              		.loc 1 1692 17 discriminator 1 view .LVU382
 1302 00bc 6FF00604 		mvn	r4, #6
 1303              	.LVL126:
 1304              	.L105:
1693:Middlewares/Third_Party/LwIP/src/api/api_msg.c ****             goto err_mem;
1694:Middlewares/Third_Party/LwIP/src/api/api_msg.c ****           }
1695:Middlewares/Third_Party/LwIP/src/api/api_msg.c ****         } else {
1696:Middlewares/Third_Party/LwIP/src/api/api_msg.c ****           apiflags |= TCP_WRITE_FLAG_MORE;
1697:Middlewares/Third_Party/LwIP/src/api/api_msg.c ****         }
1698:Middlewares/Third_Party/LwIP/src/api/api_msg.c ****       }
1699:Middlewares/Third_Party/LwIP/src/api/api_msg.c ****       LWIP_ASSERT("lwip_netconn_do_writemore: invalid length!",
1700:Middlewares/Third_Party/LwIP/src/api/api_msg.c ****                   ((conn->current_msg->msg.w.vector_off + len) <= conn->current_msg->msg.w.vector->
1701:Middlewares/Third_Party/LwIP/src/api/api_msg.c ****       /* we should loop around for more sending in the following cases:
1702:Middlewares/Third_Party/LwIP/src/api/api_msg.c ****            1) We couldn't finish the current vector because of 16-bit size limitations.
1703:Middlewares/Third_Party/LwIP/src/api/api_msg.c ****               tcp_write() and tcp_sndbuf() both are limited to 16-bit sizes
1704:Middlewares/Third_Party/LwIP/src/api/api_msg.c ****            2) We are sending the remainder of the current vector and have more */
ARM GAS  C:\usertemp\ccuz6VZa.s 			page 58


1705:Middlewares/Third_Party/LwIP/src/api/api_msg.c ****       if ((len == 0xffff && diff > 0xffffUL) ||
1706:Middlewares/Third_Party/LwIP/src/api/api_msg.c ****           (len == (u16_t)diff && conn->current_msg->msg.w.vector_cnt > 1)) {
1707:Middlewares/Third_Party/LwIP/src/api/api_msg.c ****         write_more = 1;
1708:Middlewares/Third_Party/LwIP/src/api/api_msg.c ****         apiflags |= TCP_WRITE_FLAG_MORE;
1709:Middlewares/Third_Party/LwIP/src/api/api_msg.c ****       } else {
1710:Middlewares/Third_Party/LwIP/src/api/api_msg.c ****         write_more = 0;
1711:Middlewares/Third_Party/LwIP/src/api/api_msg.c ****       }
1712:Middlewares/Third_Party/LwIP/src/api/api_msg.c ****       err = tcp_write(conn->pcb.tcp, dataptr, len, apiflags);
1713:Middlewares/Third_Party/LwIP/src/api/api_msg.c ****       if (err == ERR_OK) {
1714:Middlewares/Third_Party/LwIP/src/api/api_msg.c ****         conn->current_msg->msg.w.offset += len;
1715:Middlewares/Third_Party/LwIP/src/api/api_msg.c ****         conn->current_msg->msg.w.vector_off += len;
1716:Middlewares/Third_Party/LwIP/src/api/api_msg.c ****         /* check if current vector is finished */
1717:Middlewares/Third_Party/LwIP/src/api/api_msg.c ****         if (conn->current_msg->msg.w.vector_off == conn->current_msg->msg.w.vector->len) {
1718:Middlewares/Third_Party/LwIP/src/api/api_msg.c ****           conn->current_msg->msg.w.vector_cnt--;
1719:Middlewares/Third_Party/LwIP/src/api/api_msg.c ****           /* if we have additional vectors, move on to them */
1720:Middlewares/Third_Party/LwIP/src/api/api_msg.c ****           if (conn->current_msg->msg.w.vector_cnt > 0) {
1721:Middlewares/Third_Party/LwIP/src/api/api_msg.c ****             conn->current_msg->msg.w.vector++;
1722:Middlewares/Third_Party/LwIP/src/api/api_msg.c ****             conn->current_msg->msg.w.vector_off = 0;
1723:Middlewares/Third_Party/LwIP/src/api/api_msg.c ****           }
1724:Middlewares/Third_Party/LwIP/src/api/api_msg.c ****         }
1725:Middlewares/Third_Party/LwIP/src/api/api_msg.c ****       }
1726:Middlewares/Third_Party/LwIP/src/api/api_msg.c ****     } while (write_more && err == ERR_OK);
1727:Middlewares/Third_Party/LwIP/src/api/api_msg.c ****     /* if OK or memory error, check available space */
1728:Middlewares/Third_Party/LwIP/src/api/api_msg.c ****     if ((err == ERR_OK) || (err == ERR_MEM)) {
1729:Middlewares/Third_Party/LwIP/src/api/api_msg.c **** err_mem:
1730:Middlewares/Third_Party/LwIP/src/api/api_msg.c ****       if (dontblock && (conn->current_msg->msg.w.offset < conn->current_msg->msg.w.len)) {
 1305              		.loc 1 1730 7 is_stmt 1 view .LVU383
 1306              		.loc 1 1730 10 is_stmt 0 view .LVU384
 1307 00c0 BAF1000F 		cmp	r10, #0
 1308 00c4 00F09280 		beq	.L113
 1309              		.loc 1 1730 29 discriminator 1 view .LVU385
 1310 00c8 2B6A     		ldr	r3, [r5, #32]
 1311              		.loc 1 1730 49 discriminator 1 view .LVU386
 1312 00ca 9A69     		ldr	r2, [r3, #24]
 1313              		.loc 1 1730 83 discriminator 1 view .LVU387
 1314 00cc 5B69     		ldr	r3, [r3, #20]
 1315              		.loc 1 1730 21 discriminator 1 view .LVU388
 1316 00ce 9A42     		cmp	r2, r3
 1317 00d0 80F08C80 		bcs	.L113
1731:Middlewares/Third_Party/LwIP/src/api/api_msg.c ****         /* non-blocking write did not write everything: mark the pcb non-writable
1732:Middlewares/Third_Party/LwIP/src/api/api_msg.c ****            and let poll_tcp check writable space to mark the pcb writable again */
1733:Middlewares/Third_Party/LwIP/src/api/api_msg.c ****         API_EVENT(conn, NETCONN_EVT_SENDMINUS, 0);
 1318              		.loc 1 1733 9 is_stmt 1 view .LVU389
 1319 00d4 6B6A     		ldr	r3, [r5, #36]
 1320 00d6 1BB1     		cbz	r3, .L114
 1321              		.loc 1 1733 9 discriminator 1 view .LVU390
 1322 00d8 0022     		movs	r2, #0
 1323 00da 0321     		movs	r1, #3
 1324 00dc 2846     		mov	r0, r5
 1325 00de 9847     		blx	r3
 1326              	.LVL127:
 1327              	.L114:
 1328              		.loc 1 1733 50 discriminator 3 view .LVU391
1734:Middlewares/Third_Party/LwIP/src/api/api_msg.c ****         conn->flags |= NETCONN_FLAG_CHECK_WRITESPACE;
 1329              		.loc 1 1734 9 view .LVU392
 1330              		.loc 1 1734 13 is_stmt 0 view .LVU393
 1331 00e0 2B7F     		ldrb	r3, [r5, #28]	@ zero_extendqisi2
ARM GAS  C:\usertemp\ccuz6VZa.s 			page 59


 1332              		.loc 1 1734 21 view .LVU394
 1333 00e2 43F01003 		orr	r3, r3, #16
 1334 00e6 2B77     		strb	r3, [r5, #28]
 1335 00e8 90E0     		b	.L115
 1336              	.LVL128:
 1337              	.L125:
1692:Middlewares/Third_Party/LwIP/src/api/api_msg.c ****             goto err_mem;
 1338              		.loc 1 1692 17 discriminator 2 view .LVU395
 1339 00ea 0024     		movs	r4, #0
 1340              	.LVL129:
1693:Middlewares/Third_Party/LwIP/src/api/api_msg.c ****           }
 1341              		.loc 1 1693 13 is_stmt 1 view .LVU396
 1342 00ec E8E7     		b	.L105
 1343              	.LVL130:
 1344              	.L103:
1696:Middlewares/Third_Party/LwIP/src/api/api_msg.c ****         }
 1345              		.loc 1 1696 11 view .LVU397
1696:Middlewares/Third_Party/LwIP/src/api/api_msg.c ****         }
 1346              		.loc 1 1696 20 is_stmt 0 view .LVU398
 1347 00ee 48F00208 		orr	r8, r8, #2
 1348              	.LVL131:
1688:Middlewares/Third_Party/LwIP/src/api/api_msg.c ****         if (dontblock) {
 1349              		.loc 1 1688 13 view .LVU399
 1350 00f2 0446     		mov	r4, r0
 1351              	.LVL132:
 1352              	.L102:
1699:Middlewares/Third_Party/LwIP/src/api/api_msg.c ****                   ((conn->current_msg->msg.w.vector_off + len) <= conn->current_msg->msg.w.vector->
 1353              		.loc 1 1699 7 is_stmt 1 view .LVU400
1699:Middlewares/Third_Party/LwIP/src/api/api_msg.c ****                   ((conn->current_msg->msg.w.vector_off + len) <= conn->current_msg->msg.w.vector->
 1354              		.loc 1 1699 7 view .LVU401
 1355 00f4 A146     		mov	r9, r4
 1356 00f6 2344     		add	r3, r3, r4
 1357 00f8 9942     		cmp	r1, r3
 1358 00fa 0ED3     		bcc	.L142
 1359              	.LVL133:
 1360              	.L106:
1699:Middlewares/Third_Party/LwIP/src/api/api_msg.c ****                   ((conn->current_msg->msg.w.vector_off + len) <= conn->current_msg->msg.w.vector->
 1361              		.loc 1 1699 7 discriminator 3 view .LVU402
1699:Middlewares/Third_Party/LwIP/src/api/api_msg.c ****                   ((conn->current_msg->msg.w.vector_off + len) <= conn->current_msg->msg.w.vector->
 1362              		.loc 1 1699 7 discriminator 3 view .LVU403
1705:Middlewares/Third_Party/LwIP/src/api/api_msg.c ****           (len == (u16_t)diff && conn->current_msg->msg.w.vector_cnt > 1)) {
 1363              		.loc 1 1705 7 view .LVU404
1705:Middlewares/Third_Party/LwIP/src/api/api_msg.c ****           (len == (u16_t)diff && conn->current_msg->msg.w.vector_cnt > 1)) {
 1364              		.loc 1 1705 16 is_stmt 0 view .LVU405
 1365 00fc 4FF6FF73 		movw	r3, #65535
1705:Middlewares/Third_Party/LwIP/src/api/api_msg.c ****           (len == (u16_t)diff && conn->current_msg->msg.w.vector_cnt > 1)) {
 1366              		.loc 1 1705 26 view .LVU406
 1367 0100 9C42     		cmp	r4, r3
 1368 0102 14BF     		ite	ne
 1369 0104 0022     		movne	r2, #0
 1370 0106 0122     		moveq	r2, #1
 1371 0108 9E42     		cmp	r6, r3
 1372 010a 98BF     		it	ls
 1373 010c 0022     		movls	r2, #0
1705:Middlewares/Third_Party/LwIP/src/api/api_msg.c ****           (len == (u16_t)diff && conn->current_msg->msg.w.vector_cnt > 1)) {
 1374              		.loc 1 1705 10 view .LVU407
 1375 010e 82B9     		cbnz	r2, .L107
ARM GAS  C:\usertemp\ccuz6VZa.s 			page 60


1706:Middlewares/Third_Party/LwIP/src/api/api_msg.c ****         write_more = 1;
 1376              		.loc 1 1706 19 view .LVU408
 1377 0110 B6B2     		uxth	r6, r6
 1378              	.LVL134:
1705:Middlewares/Third_Party/LwIP/src/api/api_msg.c ****           (len == (u16_t)diff && conn->current_msg->msg.w.vector_cnt > 1)) {
 1379              		.loc 1 1705 46 discriminator 1 view .LVU409
 1380 0112 A642     		cmp	r6, r4
 1381 0114 09D0     		beq	.L143
1710:Middlewares/Third_Party/LwIP/src/api/api_msg.c ****       }
 1382              		.loc 1 1710 20 view .LVU410
 1383 0116 0026     		movs	r6, #0
 1384 0118 0EE0     		b	.L108
 1385              	.LVL135:
 1386              	.L142:
1699:Middlewares/Third_Party/LwIP/src/api/api_msg.c ****                   ((conn->current_msg->msg.w.vector_off + len) <= conn->current_msg->msg.w.vector->
 1387              		.loc 1 1699 7 is_stmt 1 discriminator 1 view .LVU411
1699:Middlewares/Third_Party/LwIP/src/api/api_msg.c ****                   ((conn->current_msg->msg.w.vector_off + len) <= conn->current_msg->msg.w.vector->
 1388              		.loc 1 1699 7 discriminator 1 view .LVU412
 1389 011a 564B     		ldr	r3, .L149
 1390 011c 40F2A362 		movw	r2, #1699
 1391 0120 5C49     		ldr	r1, .L149+32
 1392 0122 5648     		ldr	r0, .L149+8
 1393              	.LVL136:
1699:Middlewares/Third_Party/LwIP/src/api/api_msg.c ****                   ((conn->current_msg->msg.w.vector_off + len) <= conn->current_msg->msg.w.vector->
 1394              		.loc 1 1699 7 is_stmt 0 discriminator 1 view .LVU413
 1395 0124 FFF7FEFF 		bl	printf
 1396              	.LVL137:
1699:Middlewares/Third_Party/LwIP/src/api/api_msg.c ****                   ((conn->current_msg->msg.w.vector_off + len) <= conn->current_msg->msg.w.vector->
 1397              		.loc 1 1699 7 discriminator 1 view .LVU414
 1398 0128 E8E7     		b	.L106
 1399              	.LVL138:
 1400              	.L143:
1706:Middlewares/Third_Party/LwIP/src/api/api_msg.c ****         write_more = 1;
 1401              		.loc 1 1706 38 view .LVU415
 1402 012a 2B6A     		ldr	r3, [r5, #32]
1706:Middlewares/Third_Party/LwIP/src/api/api_msg.c ****         write_more = 1;
 1403              		.loc 1 1706 58 view .LVU416
 1404 012c 9B89     		ldrh	r3, [r3, #12]
1706:Middlewares/Third_Party/LwIP/src/api/api_msg.c ****         write_more = 1;
 1405              		.loc 1 1706 31 view .LVU417
 1406 012e 012B     		cmp	r3, #1
 1407 0130 37D9     		bls	.L127
 1408              	.L107:
1707:Middlewares/Third_Party/LwIP/src/api/api_msg.c ****         apiflags |= TCP_WRITE_FLAG_MORE;
 1409              		.loc 1 1707 9 is_stmt 1 view .LVU418
 1410              	.LVL139:
1708:Middlewares/Third_Party/LwIP/src/api/api_msg.c ****       } else {
 1411              		.loc 1 1708 9 view .LVU419
1708:Middlewares/Third_Party/LwIP/src/api/api_msg.c ****       } else {
 1412              		.loc 1 1708 18 is_stmt 0 view .LVU420
 1413 0132 48F00208 		orr	r8, r8, #2
 1414              	.LVL140:
1707:Middlewares/Third_Party/LwIP/src/api/api_msg.c ****         apiflags |= TCP_WRITE_FLAG_MORE;
 1415              		.loc 1 1707 20 view .LVU421
 1416 0136 0126     		movs	r6, #1
 1417              	.LVL141:
 1418              	.L108:
ARM GAS  C:\usertemp\ccuz6VZa.s 			page 61


1712:Middlewares/Third_Party/LwIP/src/api/api_msg.c ****       if (err == ERR_OK) {
 1419              		.loc 1 1712 7 is_stmt 1 view .LVU422
1712:Middlewares/Third_Party/LwIP/src/api/api_msg.c ****       if (err == ERR_OK) {
 1420              		.loc 1 1712 13 is_stmt 0 view .LVU423
 1421 0138 4346     		mov	r3, r8
 1422 013a 2246     		mov	r2, r4
 1423 013c 3946     		mov	r1, r7
 1424 013e 6868     		ldr	r0, [r5, #4]
 1425 0140 FFF7FEFF 		bl	tcp_write
 1426              	.LVL142:
1713:Middlewares/Third_Party/LwIP/src/api/api_msg.c ****         conn->current_msg->msg.w.offset += len;
 1427              		.loc 1 1713 7 is_stmt 1 view .LVU424
1713:Middlewares/Third_Party/LwIP/src/api/api_msg.c ****         conn->current_msg->msg.w.offset += len;
 1428              		.loc 1 1713 10 is_stmt 0 view .LVU425
 1429 0144 0446     		mov	r4, r0
 1430              	.LVL143:
1713:Middlewares/Third_Party/LwIP/src/api/api_msg.c ****         conn->current_msg->msg.w.offset += len;
 1431              		.loc 1 1713 10 view .LVU426
 1432 0146 68B9     		cbnz	r0, .L109
1714:Middlewares/Third_Party/LwIP/src/api/api_msg.c ****         conn->current_msg->msg.w.vector_off += len;
 1433              		.loc 1 1714 9 is_stmt 1 view .LVU427
1714:Middlewares/Third_Party/LwIP/src/api/api_msg.c ****         conn->current_msg->msg.w.vector_off += len;
 1434              		.loc 1 1714 13 is_stmt 0 view .LVU428
 1435 0148 2A6A     		ldr	r2, [r5, #32]
1714:Middlewares/Third_Party/LwIP/src/api/api_msg.c ****         conn->current_msg->msg.w.vector_off += len;
 1436              		.loc 1 1714 33 view .LVU429
 1437 014a 9369     		ldr	r3, [r2, #24]
1714:Middlewares/Third_Party/LwIP/src/api/api_msg.c ****         conn->current_msg->msg.w.vector_off += len;
 1438              		.loc 1 1714 41 view .LVU430
 1439 014c 4B44     		add	r3, r3, r9
 1440 014e 9361     		str	r3, [r2, #24]
1715:Middlewares/Third_Party/LwIP/src/api/api_msg.c ****         /* check if current vector is finished */
 1441              		.loc 1 1715 9 is_stmt 1 view .LVU431
1715:Middlewares/Third_Party/LwIP/src/api/api_msg.c ****         /* check if current vector is finished */
 1442              		.loc 1 1715 13 is_stmt 0 view .LVU432
 1443 0150 2A6A     		ldr	r2, [r5, #32]
1715:Middlewares/Third_Party/LwIP/src/api/api_msg.c ****         /* check if current vector is finished */
 1444              		.loc 1 1715 33 view .LVU433
 1445 0152 1369     		ldr	r3, [r2, #16]
1715:Middlewares/Third_Party/LwIP/src/api/api_msg.c ****         /* check if current vector is finished */
 1446              		.loc 1 1715 45 view .LVU434
 1447 0154 4B44     		add	r3, r3, r9
 1448 0156 1361     		str	r3, [r2, #16]
1717:Middlewares/Third_Party/LwIP/src/api/api_msg.c ****           conn->current_msg->msg.w.vector_cnt--;
 1449              		.loc 1 1717 9 is_stmt 1 view .LVU435
1717:Middlewares/Third_Party/LwIP/src/api/api_msg.c ****           conn->current_msg->msg.w.vector_cnt--;
 1450              		.loc 1 1717 17 is_stmt 0 view .LVU436
 1451 0158 2B6A     		ldr	r3, [r5, #32]
1717:Middlewares/Third_Party/LwIP/src/api/api_msg.c ****           conn->current_msg->msg.w.vector_cnt--;
 1452              		.loc 1 1717 37 view .LVU437
 1453 015a 1969     		ldr	r1, [r3, #16]
1717:Middlewares/Third_Party/LwIP/src/api/api_msg.c ****           conn->current_msg->msg.w.vector_cnt--;
 1454              		.loc 1 1717 76 view .LVU438
 1455 015c 9A68     		ldr	r2, [r3, #8]
1717:Middlewares/Third_Party/LwIP/src/api/api_msg.c ****           conn->current_msg->msg.w.vector_cnt--;
 1456              		.loc 1 1717 83 view .LVU439
 1457 015e 5268     		ldr	r2, [r2, #4]
ARM GAS  C:\usertemp\ccuz6VZa.s 			page 62


1717:Middlewares/Third_Party/LwIP/src/api/api_msg.c ****           conn->current_msg->msg.w.vector_cnt--;
 1458              		.loc 1 1717 12 view .LVU440
 1459 0160 9142     		cmp	r1, r2
 1460 0162 20D0     		beq	.L144
 1461              	.L109:
1726:Middlewares/Third_Party/LwIP/src/api/api_msg.c ****     /* if OK or memory error, check available space */
 1462              		.loc 1 1726 25 is_stmt 1 view .LVU441
1726:Middlewares/Third_Party/LwIP/src/api/api_msg.c ****     /* if OK or memory error, check available space */
 1463              		.loc 1 1726 32 is_stmt 0 view .LVU442
 1464 0164 B4FA84F3 		clz	r3, r4
 1465 0168 5B09     		lsrs	r3, r3, #5
1726:Middlewares/Third_Party/LwIP/src/api/api_msg.c ****     /* if OK or memory error, check available space */
 1466              		.loc 1 1726 25 view .LVU443
 1467 016a 56B3     		cbz	r6, .L133
 1468 016c 4BB3     		cbz	r3, .L133
 1469              	.LVL144:
 1470              	.L110:
1676:Middlewares/Third_Party/LwIP/src/api/api_msg.c ****       dataptr = (const u8_t *)conn->current_msg->msg.w.vector->ptr + conn->current_msg->msg.w.vecto
 1471              		.loc 1 1676 5 is_stmt 1 view .LVU444
1677:Middlewares/Third_Party/LwIP/src/api/api_msg.c ****       diff = conn->current_msg->msg.w.vector->len - conn->current_msg->msg.w.vector_off;
 1472              		.loc 1 1677 7 view .LVU445
1677:Middlewares/Third_Party/LwIP/src/api/api_msg.c ****       diff = conn->current_msg->msg.w.vector->len - conn->current_msg->msg.w.vector_off;
 1473              		.loc 1 1677 35 is_stmt 0 view .LVU446
 1474 016e 2A6A     		ldr	r2, [r5, #32]
1677:Middlewares/Third_Party/LwIP/src/api/api_msg.c ****       diff = conn->current_msg->msg.w.vector->len - conn->current_msg->msg.w.vector_off;
 1475              		.loc 1 1677 55 view .LVU447
 1476 0170 9168     		ldr	r1, [r2, #8]
1677:Middlewares/Third_Party/LwIP/src/api/api_msg.c ****       diff = conn->current_msg->msg.w.vector->len - conn->current_msg->msg.w.vector_off;
 1477              		.loc 1 1677 62 view .LVU448
 1478 0172 0F68     		ldr	r7, [r1]
1677:Middlewares/Third_Party/LwIP/src/api/api_msg.c ****       diff = conn->current_msg->msg.w.vector->len - conn->current_msg->msg.w.vector_off;
 1479              		.loc 1 1677 94 view .LVU449
 1480 0174 1369     		ldr	r3, [r2, #16]
1677:Middlewares/Third_Party/LwIP/src/api/api_msg.c ****       diff = conn->current_msg->msg.w.vector->len - conn->current_msg->msg.w.vector_off;
 1481              		.loc 1 1677 15 view .LVU450
 1482 0176 1F44     		add	r7, r7, r3
 1483              	.LVL145:
1678:Middlewares/Third_Party/LwIP/src/api/api_msg.c ****       if (diff > 0xffffUL) { /* max_u16_t */
 1484              		.loc 1 1678 7 is_stmt 1 view .LVU451
1678:Middlewares/Third_Party/LwIP/src/api/api_msg.c ****       if (diff > 0xffffUL) { /* max_u16_t */
 1485              		.loc 1 1678 45 is_stmt 0 view .LVU452
 1486 0178 4968     		ldr	r1, [r1, #4]
1678:Middlewares/Third_Party/LwIP/src/api/api_msg.c ****       if (diff > 0xffffUL) { /* max_u16_t */
 1487              		.loc 1 1678 12 view .LVU453
 1488 017a CE1A     		subs	r6, r1, r3
 1489              	.LVL146:
1679:Middlewares/Third_Party/LwIP/src/api/api_msg.c ****         len = 0xffff;
 1490              		.loc 1 1679 7 is_stmt 1 view .LVU454
1679:Middlewares/Third_Party/LwIP/src/api/api_msg.c ****         len = 0xffff;
 1491              		.loc 1 1679 10 is_stmt 0 view .LVU455
 1492 017c B6F5803F 		cmp	r6, #65536
 1493 0180 98D3     		bcc	.L100
1680:Middlewares/Third_Party/LwIP/src/api/api_msg.c ****         apiflags |= TCP_WRITE_FLAG_MORE;
 1494              		.loc 1 1680 9 is_stmt 1 view .LVU456
 1495              	.LVL147:
1681:Middlewares/Third_Party/LwIP/src/api/api_msg.c ****       } else {
 1496              		.loc 1 1681 9 view .LVU457
ARM GAS  C:\usertemp\ccuz6VZa.s 			page 63


1681:Middlewares/Third_Party/LwIP/src/api/api_msg.c ****       } else {
 1497              		.loc 1 1681 18 is_stmt 0 view .LVU458
 1498 0182 48F00208 		orr	r8, r8, #2
 1499              	.LVL148:
1680:Middlewares/Third_Party/LwIP/src/api/api_msg.c ****         apiflags |= TCP_WRITE_FLAG_MORE;
 1500              		.loc 1 1680 13 view .LVU459
 1501 0186 4FF6FF74 		movw	r4, #65535
 1502              	.LVL149:
 1503              	.L101:
1685:Middlewares/Third_Party/LwIP/src/api/api_msg.c ****       if (available < len) {
 1504              		.loc 1 1685 7 is_stmt 1 view .LVU460
1685:Middlewares/Third_Party/LwIP/src/api/api_msg.c ****       if (available < len) {
 1505              		.loc 1 1685 19 is_stmt 0 view .LVU461
 1506 018a 6868     		ldr	r0, [r5, #4]
1685:Middlewares/Third_Party/LwIP/src/api/api_msg.c ****       if (available < len) {
 1507              		.loc 1 1685 17 view .LVU462
 1508 018c B0F86400 		ldrh	r0, [r0, #100]
 1509              	.LVL150:
1686:Middlewares/Third_Party/LwIP/src/api/api_msg.c ****         /* don't try to write more than sendbuf */
 1510              		.loc 1 1686 7 is_stmt 1 view .LVU463
1686:Middlewares/Third_Party/LwIP/src/api/api_msg.c ****         /* don't try to write more than sendbuf */
 1511              		.loc 1 1686 10 is_stmt 0 view .LVU464
 1512 0190 8442     		cmp	r4, r0
 1513 0192 AFD9     		bls	.L102
1688:Middlewares/Third_Party/LwIP/src/api/api_msg.c ****         if (dontblock) {
 1514              		.loc 1 1688 9 is_stmt 1 view .LVU465
 1515              	.LVL151:
1689:Middlewares/Third_Party/LwIP/src/api/api_msg.c ****           if (!len) {
 1516              		.loc 1 1689 9 view .LVU466
1689:Middlewares/Third_Party/LwIP/src/api/api_msg.c ****           if (!len) {
 1517              		.loc 1 1689 12 is_stmt 0 view .LVU467
 1518 0194 BAF1000F 		cmp	r10, #0
 1519 0198 A9D0     		beq	.L103
1690:Middlewares/Third_Party/LwIP/src/api/api_msg.c ****             /* set error according to partial write or not */
 1520              		.loc 1 1690 11 is_stmt 1 view .LVU468
1690:Middlewares/Third_Party/LwIP/src/api/api_msg.c ****             /* set error according to partial write or not */
 1521              		.loc 1 1690 14 is_stmt 0 view .LVU469
 1522 019a 0028     		cmp	r0, #0
 1523 019c 8CD0     		beq	.L145
1688:Middlewares/Third_Party/LwIP/src/api/api_msg.c ****         if (dontblock) {
 1524              		.loc 1 1688 13 view .LVU470
 1525 019e 0446     		mov	r4, r0
 1526 01a0 A8E7     		b	.L102
 1527              	.LVL152:
 1528              	.L127:
1710:Middlewares/Third_Party/LwIP/src/api/api_msg.c ****       }
 1529              		.loc 1 1710 20 view .LVU471
 1530 01a2 0026     		movs	r6, #0
 1531 01a4 C8E7     		b	.L108
 1532              	.LVL153:
 1533              	.L144:
1718:Middlewares/Third_Party/LwIP/src/api/api_msg.c ****           /* if we have additional vectors, move on to them */
 1534              		.loc 1 1718 11 is_stmt 1 view .LVU472
1718:Middlewares/Third_Party/LwIP/src/api/api_msg.c ****           /* if we have additional vectors, move on to them */
 1535              		.loc 1 1718 35 is_stmt 0 view .LVU473
 1536 01a6 9A89     		ldrh	r2, [r3, #12]
1718:Middlewares/Third_Party/LwIP/src/api/api_msg.c ****           /* if we have additional vectors, move on to them */
ARM GAS  C:\usertemp\ccuz6VZa.s 			page 64


 1537              		.loc 1 1718 46 view .LVU474
 1538 01a8 013A     		subs	r2, r2, #1
 1539 01aa 9A81     		strh	r2, [r3, #12]	@ movhi
1720:Middlewares/Third_Party/LwIP/src/api/api_msg.c ****             conn->current_msg->msg.w.vector++;
 1540              		.loc 1 1720 11 is_stmt 1 view .LVU475
1720:Middlewares/Third_Party/LwIP/src/api/api_msg.c ****             conn->current_msg->msg.w.vector++;
 1541              		.loc 1 1720 19 is_stmt 0 view .LVU476
 1542 01ac 2B6A     		ldr	r3, [r5, #32]
1720:Middlewares/Third_Party/LwIP/src/api/api_msg.c ****             conn->current_msg->msg.w.vector++;
 1543              		.loc 1 1720 39 view .LVU477
 1544 01ae 9A89     		ldrh	r2, [r3, #12]
1720:Middlewares/Third_Party/LwIP/src/api/api_msg.c ****             conn->current_msg->msg.w.vector++;
 1545              		.loc 1 1720 14 view .LVU478
 1546 01b0 002A     		cmp	r2, #0
 1547 01b2 D7D0     		beq	.L109
1721:Middlewares/Third_Party/LwIP/src/api/api_msg.c ****             conn->current_msg->msg.w.vector_off = 0;
 1548              		.loc 1 1721 13 is_stmt 1 view .LVU479
1721:Middlewares/Third_Party/LwIP/src/api/api_msg.c ****             conn->current_msg->msg.w.vector_off = 0;
 1549              		.loc 1 1721 37 is_stmt 0 view .LVU480
 1550 01b4 9A68     		ldr	r2, [r3, #8]
1721:Middlewares/Third_Party/LwIP/src/api/api_msg.c ****             conn->current_msg->msg.w.vector_off = 0;
 1551              		.loc 1 1721 44 view .LVU481
 1552 01b6 0832     		adds	r2, r2, #8
 1553 01b8 9A60     		str	r2, [r3, #8]
1722:Middlewares/Third_Party/LwIP/src/api/api_msg.c ****           }
 1554              		.loc 1 1722 13 is_stmt 1 view .LVU482
1722:Middlewares/Third_Party/LwIP/src/api/api_msg.c ****           }
 1555              		.loc 1 1722 17 is_stmt 0 view .LVU483
 1556 01ba 2B6A     		ldr	r3, [r5, #32]
1722:Middlewares/Third_Party/LwIP/src/api/api_msg.c ****           }
 1557              		.loc 1 1722 49 view .LVU484
 1558 01bc 0022     		movs	r2, #0
 1559 01be 1A61     		str	r2, [r3, #16]
 1560 01c0 D0E7     		b	.L109
 1561              	.L133:
1728:Middlewares/Third_Party/LwIP/src/api/api_msg.c **** err_mem:
 1562              		.loc 1 1728 5 is_stmt 1 view .LVU485
1728:Middlewares/Third_Party/LwIP/src/api/api_msg.c **** err_mem:
 1563              		.loc 1 1728 25 is_stmt 0 view .LVU486
 1564 01c2 631C     		adds	r3, r4, #1
 1565 01c4 DBB2     		uxtb	r3, r3
1728:Middlewares/Third_Party/LwIP/src/api/api_msg.c **** err_mem:
 1566              		.loc 1 1728 8 view .LVU487
 1567 01c6 012B     		cmp	r3, #1
 1568 01c8 7FF67AAF 		bls	.L105
 1569              	.LVL154:
 1570              	.L112:
1735:Middlewares/Third_Party/LwIP/src/api/api_msg.c ****       } else if ((tcp_sndbuf(conn->pcb.tcp) <= TCP_SNDLOWAT) ||
1736:Middlewares/Third_Party/LwIP/src/api/api_msg.c ****                  (tcp_sndqueuelen(conn->pcb.tcp) >= TCP_SNDQUEUELOWAT)) {
1737:Middlewares/Third_Party/LwIP/src/api/api_msg.c ****         /* The queued byte- or pbuf-count exceeds the configured low-water limit,
1738:Middlewares/Third_Party/LwIP/src/api/api_msg.c ****            let select mark this pcb as non-writable. */
1739:Middlewares/Third_Party/LwIP/src/api/api_msg.c ****         API_EVENT(conn, NETCONN_EVT_SENDMINUS, 0);
1740:Middlewares/Third_Party/LwIP/src/api/api_msg.c ****       }
1741:Middlewares/Third_Party/LwIP/src/api/api_msg.c ****     }
1742:Middlewares/Third_Party/LwIP/src/api/api_msg.c **** 
1743:Middlewares/Third_Party/LwIP/src/api/api_msg.c ****     if (err == ERR_OK) {
1744:Middlewares/Third_Party/LwIP/src/api/api_msg.c ****       err_t out_err;
ARM GAS  C:\usertemp\ccuz6VZa.s 			page 65


1745:Middlewares/Third_Party/LwIP/src/api/api_msg.c ****       if ((conn->current_msg->msg.w.offset == conn->current_msg->msg.w.len) || dontblock) {
1746:Middlewares/Third_Party/LwIP/src/api/api_msg.c ****         /* return sent length (caller reads length from msg.w.offset) */
1747:Middlewares/Third_Party/LwIP/src/api/api_msg.c ****         write_finished = 1;
1748:Middlewares/Third_Party/LwIP/src/api/api_msg.c ****       }
1749:Middlewares/Third_Party/LwIP/src/api/api_msg.c ****       out_err = tcp_output(conn->pcb.tcp);
1750:Middlewares/Third_Party/LwIP/src/api/api_msg.c ****       if (out_err == ERR_RTE) {
1751:Middlewares/Third_Party/LwIP/src/api/api_msg.c ****         /* If tcp_output fails because no route is found,
1752:Middlewares/Third_Party/LwIP/src/api/api_msg.c ****            don't try writing any more but return the error
1753:Middlewares/Third_Party/LwIP/src/api/api_msg.c ****            to the application thread. */
1754:Middlewares/Third_Party/LwIP/src/api/api_msg.c ****         err = out_err;
1755:Middlewares/Third_Party/LwIP/src/api/api_msg.c ****         write_finished = 1;
1756:Middlewares/Third_Party/LwIP/src/api/api_msg.c ****       }
1757:Middlewares/Third_Party/LwIP/src/api/api_msg.c ****     } else if (err == ERR_MEM) {
 1571              		.loc 1 1757 12 is_stmt 1 view .LVU488
 1572              		.loc 1 1757 15 is_stmt 0 view .LVU489
 1573 01cc B4F1FF3F 		cmp	r4, #-1
 1574 01d0 37D0     		beq	.L146
 1575              	.LVL155:
 1576              	.L118:
 1577              	.LBB6:
1758:Middlewares/Third_Party/LwIP/src/api/api_msg.c ****       /* If ERR_MEM, we wait for sent_tcp or poll_tcp to be called.
1759:Middlewares/Third_Party/LwIP/src/api/api_msg.c ****          For blocking sockets, we do NOT return to the application
1760:Middlewares/Third_Party/LwIP/src/api/api_msg.c ****          thread, since ERR_MEM is only a temporary error! Non-blocking
1761:Middlewares/Third_Party/LwIP/src/api/api_msg.c ****          will remain non-writable until sent_tcp/poll_tcp is called */
1762:Middlewares/Third_Party/LwIP/src/api/api_msg.c **** 
1763:Middlewares/Third_Party/LwIP/src/api/api_msg.c ****       /* tcp_write returned ERR_MEM, try tcp_output anyway */
1764:Middlewares/Third_Party/LwIP/src/api/api_msg.c ****       err_t out_err = tcp_output(conn->pcb.tcp);
1765:Middlewares/Third_Party/LwIP/src/api/api_msg.c ****       if (out_err == ERR_RTE) {
1766:Middlewares/Third_Party/LwIP/src/api/api_msg.c ****         /* If tcp_output fails because no route is found,
1767:Middlewares/Third_Party/LwIP/src/api/api_msg.c ****            don't try writing any more but return the error
1768:Middlewares/Third_Party/LwIP/src/api/api_msg.c ****            to the application thread. */
1769:Middlewares/Third_Party/LwIP/src/api/api_msg.c ****         err = out_err;
