ARM GAS  C:\usertemp\ccCLzprk.s 			page 1


   1              		.cpu cortex-m7
   2              		.arch armv7e-m
   3              		.fpu fpv5-d16
   4              		.eabi_attribute 28, 1
   5              		.eabi_attribute 20, 1
   6              		.eabi_attribute 21, 1
   7              		.eabi_attribute 23, 3
   8              		.eabi_attribute 24, 1
   9              		.eabi_attribute 25, 1
  10              		.eabi_attribute 26, 1
  11              		.eabi_attribute 30, 1
  12              		.eabi_attribute 34, 1
  13              		.eabi_attribute 18, 4
  14              		.file	"arm_cmplx_mag_q31.c"
  15              		.text
  16              	.Ltext0:
  17              		.cfi_sections	.debug_frame
  18              		.file 1 "Drivers/CMSIS/DSP/Source/ComplexMathFunctions/arm_cmplx_mag_q31.c"
  19              		.section	.text.arm_cmplx_mag_q31,"ax",%progbits
  20              		.align	1
  21              		.global	arm_cmplx_mag_q31
  22              		.syntax unified
  23              		.thumb
  24              		.thumb_func
  26              	arm_cmplx_mag_q31:
  27              	.LVL0:
  28              	.LFB145:
   1:Drivers/CMSIS/DSP/Source/ComplexMathFunctions/arm_cmplx_mag_q31.c **** /* ----------------------------------------------------------------------
   2:Drivers/CMSIS/DSP/Source/ComplexMathFunctions/arm_cmplx_mag_q31.c ****  * Project:      CMSIS DSP Library
   3:Drivers/CMSIS/DSP/Source/ComplexMathFunctions/arm_cmplx_mag_q31.c ****  * Title:        arm_cmplx_mag_q31.c
   4:Drivers/CMSIS/DSP/Source/ComplexMathFunctions/arm_cmplx_mag_q31.c ****  * Description:  Q31 complex magnitude
   5:Drivers/CMSIS/DSP/Source/ComplexMathFunctions/arm_cmplx_mag_q31.c ****  *
   6:Drivers/CMSIS/DSP/Source/ComplexMathFunctions/arm_cmplx_mag_q31.c ****  * $Date:        18. March 2019
   7:Drivers/CMSIS/DSP/Source/ComplexMathFunctions/arm_cmplx_mag_q31.c ****  * $Revision:    V1.6.0
   8:Drivers/CMSIS/DSP/Source/ComplexMathFunctions/arm_cmplx_mag_q31.c ****  *
   9:Drivers/CMSIS/DSP/Source/ComplexMathFunctions/arm_cmplx_mag_q31.c ****  * Target Processor: Cortex-M cores
  10:Drivers/CMSIS/DSP/Source/ComplexMathFunctions/arm_cmplx_mag_q31.c ****  * -------------------------------------------------------------------- */
  11:Drivers/CMSIS/DSP/Source/ComplexMathFunctions/arm_cmplx_mag_q31.c **** /*
  12:Drivers/CMSIS/DSP/Source/ComplexMathFunctions/arm_cmplx_mag_q31.c ****  * Copyright (C) 2010-2019 ARM Limited or its affiliates. All rights reserved.
  13:Drivers/CMSIS/DSP/Source/ComplexMathFunctions/arm_cmplx_mag_q31.c ****  *
  14:Drivers/CMSIS/DSP/Source/ComplexMathFunctions/arm_cmplx_mag_q31.c ****  * SPDX-License-Identifier: Apache-2.0
  15:Drivers/CMSIS/DSP/Source/ComplexMathFunctions/arm_cmplx_mag_q31.c ****  *
  16:Drivers/CMSIS/DSP/Source/ComplexMathFunctions/arm_cmplx_mag_q31.c ****  * Licensed under the Apache License, Version 2.0 (the License); you may
  17:Drivers/CMSIS/DSP/Source/ComplexMathFunctions/arm_cmplx_mag_q31.c ****  * not use this file except in compliance with the License.
  18:Drivers/CMSIS/DSP/Source/ComplexMathFunctions/arm_cmplx_mag_q31.c ****  * You may obtain a copy of the License at
  19:Drivers/CMSIS/DSP/Source/ComplexMathFunctions/arm_cmplx_mag_q31.c ****  *
  20:Drivers/CMSIS/DSP/Source/ComplexMathFunctions/arm_cmplx_mag_q31.c ****  * www.apache.org/licenses/LICENSE-2.0
  21:Drivers/CMSIS/DSP/Source/ComplexMathFunctions/arm_cmplx_mag_q31.c ****  *
  22:Drivers/CMSIS/DSP/Source/ComplexMathFunctions/arm_cmplx_mag_q31.c ****  * Unless required by applicable law or agreed to in writing, software
  23:Drivers/CMSIS/DSP/Source/ComplexMathFunctions/arm_cmplx_mag_q31.c ****  * distributed under the License is distributed on an AS IS BASIS, WITHOUT
  24:Drivers/CMSIS/DSP/Source/ComplexMathFunctions/arm_cmplx_mag_q31.c ****  * WARRANTIES OR CONDITIONS OF ANY KIND, either express or implied.
  25:Drivers/CMSIS/DSP/Source/ComplexMathFunctions/arm_cmplx_mag_q31.c ****  * See the License for the specific language governing permissions and
  26:Drivers/CMSIS/DSP/Source/ComplexMathFunctions/arm_cmplx_mag_q31.c ****  * limitations under the License.
  27:Drivers/CMSIS/DSP/Source/ComplexMathFunctions/arm_cmplx_mag_q31.c ****  */
  28:Drivers/CMSIS/DSP/Source/ComplexMathFunctions/arm_cmplx_mag_q31.c **** 
  29:Drivers/CMSIS/DSP/Source/ComplexMathFunctions/arm_cmplx_mag_q31.c **** #include "arm_math.h"
  30:Drivers/CMSIS/DSP/Source/ComplexMathFunctions/arm_cmplx_mag_q31.c **** 
ARM GAS  C:\usertemp\ccCLzprk.s 			page 2


  31:Drivers/CMSIS/DSP/Source/ComplexMathFunctions/arm_cmplx_mag_q31.c **** /**
  32:Drivers/CMSIS/DSP/Source/ComplexMathFunctions/arm_cmplx_mag_q31.c ****   @ingroup groupCmplxMath
  33:Drivers/CMSIS/DSP/Source/ComplexMathFunctions/arm_cmplx_mag_q31.c ****  */
  34:Drivers/CMSIS/DSP/Source/ComplexMathFunctions/arm_cmplx_mag_q31.c **** 
  35:Drivers/CMSIS/DSP/Source/ComplexMathFunctions/arm_cmplx_mag_q31.c **** /**
  36:Drivers/CMSIS/DSP/Source/ComplexMathFunctions/arm_cmplx_mag_q31.c ****   @addtogroup cmplx_mag
  37:Drivers/CMSIS/DSP/Source/ComplexMathFunctions/arm_cmplx_mag_q31.c ****   @{
  38:Drivers/CMSIS/DSP/Source/ComplexMathFunctions/arm_cmplx_mag_q31.c ****  */
  39:Drivers/CMSIS/DSP/Source/ComplexMathFunctions/arm_cmplx_mag_q31.c **** 
  40:Drivers/CMSIS/DSP/Source/ComplexMathFunctions/arm_cmplx_mag_q31.c **** /**
  41:Drivers/CMSIS/DSP/Source/ComplexMathFunctions/arm_cmplx_mag_q31.c ****   @brief         Q31 complex magnitude.
  42:Drivers/CMSIS/DSP/Source/ComplexMathFunctions/arm_cmplx_mag_q31.c ****   @param[in]     pSrc        points to input vector
  43:Drivers/CMSIS/DSP/Source/ComplexMathFunctions/arm_cmplx_mag_q31.c ****   @param[out]    pDst        points to output vector
  44:Drivers/CMSIS/DSP/Source/ComplexMathFunctions/arm_cmplx_mag_q31.c ****   @param[in]     numSamples  number of samples in each vector
  45:Drivers/CMSIS/DSP/Source/ComplexMathFunctions/arm_cmplx_mag_q31.c ****   @return        none
  46:Drivers/CMSIS/DSP/Source/ComplexMathFunctions/arm_cmplx_mag_q31.c **** 
  47:Drivers/CMSIS/DSP/Source/ComplexMathFunctions/arm_cmplx_mag_q31.c ****   @par           Scaling and Overflow Behavior
  48:Drivers/CMSIS/DSP/Source/ComplexMathFunctions/arm_cmplx_mag_q31.c ****                    The function implements 1.31 by 1.31 multiplications and finally output is conve
  49:Drivers/CMSIS/DSP/Source/ComplexMathFunctions/arm_cmplx_mag_q31.c ****                    Input down scaling is not required.
  50:Drivers/CMSIS/DSP/Source/ComplexMathFunctions/arm_cmplx_mag_q31.c ****  */
  51:Drivers/CMSIS/DSP/Source/ComplexMathFunctions/arm_cmplx_mag_q31.c **** 
  52:Drivers/CMSIS/DSP/Source/ComplexMathFunctions/arm_cmplx_mag_q31.c **** void arm_cmplx_mag_q31(
  53:Drivers/CMSIS/DSP/Source/ComplexMathFunctions/arm_cmplx_mag_q31.c ****   const q31_t * pSrc,
  54:Drivers/CMSIS/DSP/Source/ComplexMathFunctions/arm_cmplx_mag_q31.c ****         q31_t * pDst,
  55:Drivers/CMSIS/DSP/Source/ComplexMathFunctions/arm_cmplx_mag_q31.c ****         uint32_t numSamples)
  56:Drivers/CMSIS/DSP/Source/ComplexMathFunctions/arm_cmplx_mag_q31.c **** {
  29              		.loc 1 56 1 view -0
  30              		.cfi_startproc
  31              		@ args = 0, pretend = 0, frame = 0
  32              		@ frame_needed = 0, uses_anonymous_args = 0
  33              		.loc 1 56 1 is_stmt 0 view .LVU1
  34 0000 70B5     		push	{r4, r5, r6, lr}
  35              	.LCFI0:
  36              		.cfi_def_cfa_offset 16
  37              		.cfi_offset 4, -16
  38              		.cfi_offset 5, -12
  39              		.cfi_offset 6, -8
  40              		.cfi_offset 14, -4
  41 0002 1646     		mov	r6, r2
  57:Drivers/CMSIS/DSP/Source/ComplexMathFunctions/arm_cmplx_mag_q31.c ****         uint32_t blkCnt;                               /* Loop counter */
  42              		.loc 1 57 9 is_stmt 1 view .LVU2
  58:Drivers/CMSIS/DSP/Source/ComplexMathFunctions/arm_cmplx_mag_q31.c ****         q31_t real, imag;                              /* Temporary input variables */
  43              		.loc 1 58 9 view .LVU3
  59:Drivers/CMSIS/DSP/Source/ComplexMathFunctions/arm_cmplx_mag_q31.c ****         q31_t acc0, acc1;                              /* Accumulators */
  44              		.loc 1 59 9 view .LVU4
  60:Drivers/CMSIS/DSP/Source/ComplexMathFunctions/arm_cmplx_mag_q31.c **** 
  61:Drivers/CMSIS/DSP/Source/ComplexMathFunctions/arm_cmplx_mag_q31.c **** #if defined (ARM_MATH_LOOPUNROLL)
  62:Drivers/CMSIS/DSP/Source/ComplexMathFunctions/arm_cmplx_mag_q31.c **** 
  63:Drivers/CMSIS/DSP/Source/ComplexMathFunctions/arm_cmplx_mag_q31.c ****   /* Loop unrolling: Compute 4 outputs at a time */
  64:Drivers/CMSIS/DSP/Source/ComplexMathFunctions/arm_cmplx_mag_q31.c ****   blkCnt = numSamples >> 2U;
  65:Drivers/CMSIS/DSP/Source/ComplexMathFunctions/arm_cmplx_mag_q31.c **** 
  66:Drivers/CMSIS/DSP/Source/ComplexMathFunctions/arm_cmplx_mag_q31.c ****   while (blkCnt > 0U)
  67:Drivers/CMSIS/DSP/Source/ComplexMathFunctions/arm_cmplx_mag_q31.c ****   {
  68:Drivers/CMSIS/DSP/Source/ComplexMathFunctions/arm_cmplx_mag_q31.c ****     /* C[0] = sqrt(A[0] * A[0] + A[1] * A[1]) */
  69:Drivers/CMSIS/DSP/Source/ComplexMathFunctions/arm_cmplx_mag_q31.c **** 
  70:Drivers/CMSIS/DSP/Source/ComplexMathFunctions/arm_cmplx_mag_q31.c ****     real = *pSrc++;
  71:Drivers/CMSIS/DSP/Source/ComplexMathFunctions/arm_cmplx_mag_q31.c ****     imag = *pSrc++;
ARM GAS  C:\usertemp\ccCLzprk.s 			page 3


  72:Drivers/CMSIS/DSP/Source/ComplexMathFunctions/arm_cmplx_mag_q31.c ****     acc0 = (q31_t) (((q63_t) real * real) >> 33);
  73:Drivers/CMSIS/DSP/Source/ComplexMathFunctions/arm_cmplx_mag_q31.c ****     acc1 = (q31_t) (((q63_t) imag * imag) >> 33);
  74:Drivers/CMSIS/DSP/Source/ComplexMathFunctions/arm_cmplx_mag_q31.c **** 
  75:Drivers/CMSIS/DSP/Source/ComplexMathFunctions/arm_cmplx_mag_q31.c ****     /* store result in 2.30 format in destination buffer. */
  76:Drivers/CMSIS/DSP/Source/ComplexMathFunctions/arm_cmplx_mag_q31.c ****     arm_sqrt_q31(acc0 + acc1, pDst++);
  77:Drivers/CMSIS/DSP/Source/ComplexMathFunctions/arm_cmplx_mag_q31.c **** 
  78:Drivers/CMSIS/DSP/Source/ComplexMathFunctions/arm_cmplx_mag_q31.c ****     real = *pSrc++;
  79:Drivers/CMSIS/DSP/Source/ComplexMathFunctions/arm_cmplx_mag_q31.c ****     imag = *pSrc++;
  80:Drivers/CMSIS/DSP/Source/ComplexMathFunctions/arm_cmplx_mag_q31.c ****     acc0 = (q31_t) (((q63_t) real * real) >> 33);
  81:Drivers/CMSIS/DSP/Source/ComplexMathFunctions/arm_cmplx_mag_q31.c ****     acc1 = (q31_t) (((q63_t) imag * imag) >> 33);
  82:Drivers/CMSIS/DSP/Source/ComplexMathFunctions/arm_cmplx_mag_q31.c ****     arm_sqrt_q31(acc0 + acc1, pDst++);
  83:Drivers/CMSIS/DSP/Source/ComplexMathFunctions/arm_cmplx_mag_q31.c **** 
  84:Drivers/CMSIS/DSP/Source/ComplexMathFunctions/arm_cmplx_mag_q31.c ****     real = *pSrc++;
  85:Drivers/CMSIS/DSP/Source/ComplexMathFunctions/arm_cmplx_mag_q31.c ****     imag = *pSrc++;
  86:Drivers/CMSIS/DSP/Source/ComplexMathFunctions/arm_cmplx_mag_q31.c ****     acc0 = (q31_t) (((q63_t) real * real) >> 33);
  87:Drivers/CMSIS/DSP/Source/ComplexMathFunctions/arm_cmplx_mag_q31.c ****     acc1 = (q31_t) (((q63_t) imag * imag) >> 33);
  88:Drivers/CMSIS/DSP/Source/ComplexMathFunctions/arm_cmplx_mag_q31.c ****     arm_sqrt_q31(acc0 + acc1, pDst++);
  89:Drivers/CMSIS/DSP/Source/ComplexMathFunctions/arm_cmplx_mag_q31.c **** 
  90:Drivers/CMSIS/DSP/Source/ComplexMathFunctions/arm_cmplx_mag_q31.c ****     real = *pSrc++;
  91:Drivers/CMSIS/DSP/Source/ComplexMathFunctions/arm_cmplx_mag_q31.c ****     imag = *pSrc++;
  92:Drivers/CMSIS/DSP/Source/ComplexMathFunctions/arm_cmplx_mag_q31.c ****     acc0 = (q31_t) (((q63_t) real * real) >> 33);
  93:Drivers/CMSIS/DSP/Source/ComplexMathFunctions/arm_cmplx_mag_q31.c ****     acc1 = (q31_t) (((q63_t) imag * imag) >> 33);
  94:Drivers/CMSIS/DSP/Source/ComplexMathFunctions/arm_cmplx_mag_q31.c ****     arm_sqrt_q31(acc0 + acc1, pDst++);
  95:Drivers/CMSIS/DSP/Source/ComplexMathFunctions/arm_cmplx_mag_q31.c **** 
  96:Drivers/CMSIS/DSP/Source/ComplexMathFunctions/arm_cmplx_mag_q31.c ****     /* Decrement loop counter */
  97:Drivers/CMSIS/DSP/Source/ComplexMathFunctions/arm_cmplx_mag_q31.c ****     blkCnt--;
  98:Drivers/CMSIS/DSP/Source/ComplexMathFunctions/arm_cmplx_mag_q31.c ****   }
  99:Drivers/CMSIS/DSP/Source/ComplexMathFunctions/arm_cmplx_mag_q31.c **** 
 100:Drivers/CMSIS/DSP/Source/ComplexMathFunctions/arm_cmplx_mag_q31.c ****   /* Loop unrolling: Compute remaining outputs */
 101:Drivers/CMSIS/DSP/Source/ComplexMathFunctions/arm_cmplx_mag_q31.c ****   blkCnt = numSamples % 0x4U;
 102:Drivers/CMSIS/DSP/Source/ComplexMathFunctions/arm_cmplx_mag_q31.c **** 
 103:Drivers/CMSIS/DSP/Source/ComplexMathFunctions/arm_cmplx_mag_q31.c **** #else
 104:Drivers/CMSIS/DSP/Source/ComplexMathFunctions/arm_cmplx_mag_q31.c **** 
 105:Drivers/CMSIS/DSP/Source/ComplexMathFunctions/arm_cmplx_mag_q31.c ****   /* Initialize blkCnt with number of samples */
 106:Drivers/CMSIS/DSP/Source/ComplexMathFunctions/arm_cmplx_mag_q31.c ****   blkCnt = numSamples;
  45              		.loc 1 106 3 view .LVU5
  46              	.LVL1:
 107:Drivers/CMSIS/DSP/Source/ComplexMathFunctions/arm_cmplx_mag_q31.c **** 
 108:Drivers/CMSIS/DSP/Source/ComplexMathFunctions/arm_cmplx_mag_q31.c **** #endif /* #if defined (ARM_MATH_LOOPUNROLL) */
 109:Drivers/CMSIS/DSP/Source/ComplexMathFunctions/arm_cmplx_mag_q31.c **** 
 110:Drivers/CMSIS/DSP/Source/ComplexMathFunctions/arm_cmplx_mag_q31.c ****   while (blkCnt > 0U)
  47              		.loc 1 110 3 view .LVU6
  48              		.loc 1 110 9 is_stmt 0 view .LVU7
  49 0004 1AE0     		b	.L2
  50              	.LVL2:
  51              	.L3:
 111:Drivers/CMSIS/DSP/Source/ComplexMathFunctions/arm_cmplx_mag_q31.c ****   {
 112:Drivers/CMSIS/DSP/Source/ComplexMathFunctions/arm_cmplx_mag_q31.c ****     /* C[0] = sqrt(A[0] * A[0] + A[1] * A[1]) */
 113:Drivers/CMSIS/DSP/Source/ComplexMathFunctions/arm_cmplx_mag_q31.c **** 
 114:Drivers/CMSIS/DSP/Source/ComplexMathFunctions/arm_cmplx_mag_q31.c ****     real = *pSrc++;
  52              		.loc 1 114 5 is_stmt 1 view .LVU8
  53              		.loc 1 114 10 is_stmt 0 view .LVU9
  54 0006 0546     		mov	r5, r0
  55 0008 55F8084B 		ldr	r4, [r5], #8
  56              	.LVL3:
 115:Drivers/CMSIS/DSP/Source/ComplexMathFunctions/arm_cmplx_mag_q31.c ****     imag = *pSrc++;
  57              		.loc 1 115 5 is_stmt 1 view .LVU10
ARM GAS  C:\usertemp\ccCLzprk.s 			page 4


  58              		.loc 1 115 10 is_stmt 0 view .LVU11
  59 000c 4368     		ldr	r3, [r0, #4]
  60              	.LVL4:
 116:Drivers/CMSIS/DSP/Source/ComplexMathFunctions/arm_cmplx_mag_q31.c ****     acc0 = (q31_t) (((q63_t) real * real) >> 33);
  61              		.loc 1 116 5 is_stmt 1 view .LVU12
  62              		.loc 1 116 22 is_stmt 0 view .LVU13
  63 000e E217     		asrs	r2, r4, #31
  64              		.loc 1 116 35 view .LVU14
  65 0010 04FB02F2 		mul	r2, r4, r2
  66 0014 A4FB0440 		umull	r4, r0, r4, r4
  67              	.LVL5:
  68              		.loc 1 116 35 view .LVU15
  69 0018 00EB4200 		add	r0, r0, r2, lsl #1
  70              	.LVL6:
 117:Drivers/CMSIS/DSP/Source/ComplexMathFunctions/arm_cmplx_mag_q31.c ****     acc1 = (q31_t) (((q63_t) imag * imag) >> 33);
  71              		.loc 1 117 5 is_stmt 1 view .LVU16
  72              		.loc 1 117 22 is_stmt 0 view .LVU17
  73 001c DC17     		asrs	r4, r3, #31
  74              		.loc 1 117 35 view .LVU18
  75 001e 03FB04F4 		mul	r4, r3, r4
  76 0022 A3FB0332 		umull	r3, r2, r3, r3
  77              	.LVL7:
  78              		.loc 1 117 35 view .LVU19
  79 0026 02EB4403 		add	r3, r2, r4, lsl #1
  80              		.loc 1 117 43 view .LVU20
  81 002a 5B10     		asrs	r3, r3, #1
  82              	.LVL8:
 118:Drivers/CMSIS/DSP/Source/ComplexMathFunctions/arm_cmplx_mag_q31.c **** 
 119:Drivers/CMSIS/DSP/Source/ComplexMathFunctions/arm_cmplx_mag_q31.c ****     /* store result in 2.30 format in destination buffer. */
 120:Drivers/CMSIS/DSP/Source/ComplexMathFunctions/arm_cmplx_mag_q31.c ****     arm_sqrt_q31(acc0 + acc1, pDst++);
  83              		.loc 1 120 5 is_stmt 1 view .LVU21
  84 002c 0C1D     		adds	r4, r1, #4
  85              	.LVL9:
  86              		.loc 1 120 5 is_stmt 0 view .LVU22
  87 002e 03EB6000 		add	r0, r3, r0, asr #1
  88              	.LVL10:
  89              		.loc 1 120 5 view .LVU23
  90 0032 FFF7FEFF 		bl	arm_sqrt_q31
  91              	.LVL11:
 121:Drivers/CMSIS/DSP/Source/ComplexMathFunctions/arm_cmplx_mag_q31.c **** 
 122:Drivers/CMSIS/DSP/Source/ComplexMathFunctions/arm_cmplx_mag_q31.c ****     /* Decrement loop counter */
 123:Drivers/CMSIS/DSP/Source/ComplexMathFunctions/arm_cmplx_mag_q31.c ****     blkCnt--;
  92              		.loc 1 123 5 is_stmt 1 view .LVU24
  93              		.loc 1 123 11 is_stmt 0 view .LVU25
  94 0036 013E     		subs	r6, r6, #1
  95              	.LVL12:
 120:Drivers/CMSIS/DSP/Source/ComplexMathFunctions/arm_cmplx_mag_q31.c **** 
  96              		.loc 1 120 5 view .LVU26
  97 0038 2146     		mov	r1, r4
 115:Drivers/CMSIS/DSP/Source/ComplexMathFunctions/arm_cmplx_mag_q31.c ****     acc0 = (q31_t) (((q63_t) real * real) >> 33);
  98              		.loc 1 115 17 view .LVU27
  99 003a 2846     		mov	r0, r5
 100              	.LVL13:
 101              	.L2:
 110:Drivers/CMSIS/DSP/Source/ComplexMathFunctions/arm_cmplx_mag_q31.c ****   {
 102              		.loc 1 110 17 is_stmt 1 view .LVU28
 103 003c 002E     		cmp	r6, #0
ARM GAS  C:\usertemp\ccCLzprk.s 			page 5


 104 003e E2D1     		bne	.L3
 124:Drivers/CMSIS/DSP/Source/ComplexMathFunctions/arm_cmplx_mag_q31.c ****   }
 125:Drivers/CMSIS/DSP/Source/ComplexMathFunctions/arm_cmplx_mag_q31.c **** 
 126:Drivers/CMSIS/DSP/Source/ComplexMathFunctions/arm_cmplx_mag_q31.c **** }
 105              		.loc 1 126 1 is_stmt 0 view .LVU29
 106 0040 70BD     		pop	{r4, r5, r6, pc}
 107              		.loc 1 126 1 view .LVU30
 108              		.cfi_endproc
 109              	.LFE145:
 111              		.text
 112              	.Letext0:
 113              		.file 2 "D:/armtoolchain/arm-gnu-toolchain-13.3.rel1-mingw-w64-i686-arm-none-eabi/arm-none-eabi/in
 114              		.file 3 "D:/armtoolchain/arm-gnu-toolchain-13.3.rel1-mingw-w64-i686-arm-none-eabi/arm-none-eabi/in
 115              		.file 4 "Drivers/CMSIS/DSP/Include/arm_math.h"
ARM GAS  C:\usertemp\ccCLzprk.s 			page 6

