ARM GAS  C:\usertemp\cc9F7yDo.s 			page 1


   1              		.cpu cortex-m7
   2              		.arch armv7e-m
   3              		.fpu fpv5-d16
   4              		.eabi_attribute 28, 1
   5              		.eabi_attribute 20, 1
   6              		.eabi_attribute 21, 1
   7              		.eabi_attribute 23, 3
   8              		.eabi_attribute 24, 1
   9              		.eabi_attribute 25, 1
  10              		.eabi_attribute 26, 1
  11              		.eabi_attribute 30, 1
  12              		.eabi_attribute 34, 1
  13              		.eabi_attribute 18, 4
  14              		.file	"arm_dct4_init_f32.c"
  15              		.text
  16              	.Ltext0:
  17              		.cfi_sections	.debug_frame
  18              		.file 1 "Drivers/CMSIS/DSP/Source/TransformFunctions/arm_dct4_init_f32.c"
  19              		.section	.text.arm_dct4_init_f32,"ax",%progbits
  20              		.align	1
  21              		.global	arm_dct4_init_f32
  22              		.syntax unified
  23              		.thumb
  24              		.thumb_func
  26              	arm_dct4_init_f32:
  27              	.LVL0:
  28              	.LFB145:
   1:Drivers/CMSIS/DSP/Source/TransformFunctions/arm_dct4_init_f32.c **** /* ----------------------------------------------------------------------
   2:Drivers/CMSIS/DSP/Source/TransformFunctions/arm_dct4_init_f32.c ****  * Project:      CMSIS DSP Library
   3:Drivers/CMSIS/DSP/Source/TransformFunctions/arm_dct4_init_f32.c ****  * Title:        arm_dct4_init_f32.c
   4:Drivers/CMSIS/DSP/Source/TransformFunctions/arm_dct4_init_f32.c ****  * Description:  Initialization function of DCT-4 & IDCT4 F32
   5:Drivers/CMSIS/DSP/Source/TransformFunctions/arm_dct4_init_f32.c ****  *
   6:Drivers/CMSIS/DSP/Source/TransformFunctions/arm_dct4_init_f32.c ****  * $Date:        18. March 2019
   7:Drivers/CMSIS/DSP/Source/TransformFunctions/arm_dct4_init_f32.c ****  * $Revision:    V1.6.0
   8:Drivers/CMSIS/DSP/Source/TransformFunctions/arm_dct4_init_f32.c ****  *
   9:Drivers/CMSIS/DSP/Source/TransformFunctions/arm_dct4_init_f32.c ****  * Target Processor: Cortex-M cores
  10:Drivers/CMSIS/DSP/Source/TransformFunctions/arm_dct4_init_f32.c ****  * -------------------------------------------------------------------- */
  11:Drivers/CMSIS/DSP/Source/TransformFunctions/arm_dct4_init_f32.c **** /*
  12:Drivers/CMSIS/DSP/Source/TransformFunctions/arm_dct4_init_f32.c ****  * Copyright (C) 2010-2019 ARM Limited or its affiliates. All rights reserved.
  13:Drivers/CMSIS/DSP/Source/TransformFunctions/arm_dct4_init_f32.c ****  *
  14:Drivers/CMSIS/DSP/Source/TransformFunctions/arm_dct4_init_f32.c ****  * SPDX-License-Identifier: Apache-2.0
  15:Drivers/CMSIS/DSP/Source/TransformFunctions/arm_dct4_init_f32.c ****  *
  16:Drivers/CMSIS/DSP/Source/TransformFunctions/arm_dct4_init_f32.c ****  * Licensed under the Apache License, Version 2.0 (the License); you may
  17:Drivers/CMSIS/DSP/Source/TransformFunctions/arm_dct4_init_f32.c ****  * not use this file except in compliance with the License.
  18:Drivers/CMSIS/DSP/Source/TransformFunctions/arm_dct4_init_f32.c ****  * You may obtain a copy of the License at
  19:Drivers/CMSIS/DSP/Source/TransformFunctions/arm_dct4_init_f32.c ****  *
  20:Drivers/CMSIS/DSP/Source/TransformFunctions/arm_dct4_init_f32.c ****  * www.apache.org/licenses/LICENSE-2.0
  21:Drivers/CMSIS/DSP/Source/TransformFunctions/arm_dct4_init_f32.c ****  *
  22:Drivers/CMSIS/DSP/Source/TransformFunctions/arm_dct4_init_f32.c ****  * Unless required by applicable law or agreed to in writing, software
  23:Drivers/CMSIS/DSP/Source/TransformFunctions/arm_dct4_init_f32.c ****  * distributed under the License is distributed on an AS IS BASIS, WITHOUT
  24:Drivers/CMSIS/DSP/Source/TransformFunctions/arm_dct4_init_f32.c ****  * WARRANTIES OR CONDITIONS OF ANY KIND, either express or implied.
  25:Drivers/CMSIS/DSP/Source/TransformFunctions/arm_dct4_init_f32.c ****  * See the License for the specific language governing permissions and
  26:Drivers/CMSIS/DSP/Source/TransformFunctions/arm_dct4_init_f32.c ****  * limitations under the License.
  27:Drivers/CMSIS/DSP/Source/TransformFunctions/arm_dct4_init_f32.c ****  */
  28:Drivers/CMSIS/DSP/Source/TransformFunctions/arm_dct4_init_f32.c **** 
  29:Drivers/CMSIS/DSP/Source/TransformFunctions/arm_dct4_init_f32.c **** #include "arm_math.h"
  30:Drivers/CMSIS/DSP/Source/TransformFunctions/arm_dct4_init_f32.c **** #include "arm_common_tables.h"
ARM GAS  C:\usertemp\cc9F7yDo.s 			page 2


  31:Drivers/CMSIS/DSP/Source/TransformFunctions/arm_dct4_init_f32.c **** 
  32:Drivers/CMSIS/DSP/Source/TransformFunctions/arm_dct4_init_f32.c **** /**
  33:Drivers/CMSIS/DSP/Source/TransformFunctions/arm_dct4_init_f32.c ****   @ingroup DCT4_IDCT4
  34:Drivers/CMSIS/DSP/Source/TransformFunctions/arm_dct4_init_f32.c ****  */
  35:Drivers/CMSIS/DSP/Source/TransformFunctions/arm_dct4_init_f32.c **** 
  36:Drivers/CMSIS/DSP/Source/TransformFunctions/arm_dct4_init_f32.c **** 
  37:Drivers/CMSIS/DSP/Source/TransformFunctions/arm_dct4_init_f32.c **** /**
  38:Drivers/CMSIS/DSP/Source/TransformFunctions/arm_dct4_init_f32.c ****   @addtogroup DCT4_IDCT4
  39:Drivers/CMSIS/DSP/Source/TransformFunctions/arm_dct4_init_f32.c ****   @{
  40:Drivers/CMSIS/DSP/Source/TransformFunctions/arm_dct4_init_f32.c ****  */
  41:Drivers/CMSIS/DSP/Source/TransformFunctions/arm_dct4_init_f32.c **** 
  42:Drivers/CMSIS/DSP/Source/TransformFunctions/arm_dct4_init_f32.c **** /**
  43:Drivers/CMSIS/DSP/Source/TransformFunctions/arm_dct4_init_f32.c ****   @brief         Initialization function for the floating-point DCT4/IDCT4.
  44:Drivers/CMSIS/DSP/Source/TransformFunctions/arm_dct4_init_f32.c ****   @param[in,out] S          points to an instance of floating-point DCT4/IDCT4 structure
  45:Drivers/CMSIS/DSP/Source/TransformFunctions/arm_dct4_init_f32.c ****   @param[in]     S_RFFT     points to an instance of floating-point RFFT/RIFFT structure
  46:Drivers/CMSIS/DSP/Source/TransformFunctions/arm_dct4_init_f32.c ****   @param[in]     S_CFFT     points to an instance of floating-point CFFT/CIFFT structure
  47:Drivers/CMSIS/DSP/Source/TransformFunctions/arm_dct4_init_f32.c ****   @param[in]     N			length of the DCT4
  48:Drivers/CMSIS/DSP/Source/TransformFunctions/arm_dct4_init_f32.c ****   @param[in]     Nby2       half of the length of the DCT4
  49:Drivers/CMSIS/DSP/Source/TransformFunctions/arm_dct4_init_f32.c ****   @param[in]     normalize  normalizing factor.
  50:Drivers/CMSIS/DSP/Source/TransformFunctions/arm_dct4_init_f32.c ****   @return        execution status
  51:Drivers/CMSIS/DSP/Source/TransformFunctions/arm_dct4_init_f32.c ****                    - \ref ARM_MATH_SUCCESS        : Operation successful
  52:Drivers/CMSIS/DSP/Source/TransformFunctions/arm_dct4_init_f32.c ****                    - \ref ARM_MATH_ARGUMENT_ERROR : <code>N</code> is not a supported transform len
  53:Drivers/CMSIS/DSP/Source/TransformFunctions/arm_dct4_init_f32.c **** 
  54:Drivers/CMSIS/DSP/Source/TransformFunctions/arm_dct4_init_f32.c ****   @par           Normalizing factor
  55:Drivers/CMSIS/DSP/Source/TransformFunctions/arm_dct4_init_f32.c ****                    The normalizing factor is <code>sqrt(2/N)</code>, which depends on the size of t
  56:Drivers/CMSIS/DSP/Source/TransformFunctions/arm_dct4_init_f32.c ****                    Floating-point normalizing factors are mentioned in the table below for differen
  57:Drivers/CMSIS/DSP/Source/TransformFunctions/arm_dct4_init_f32.c **** 
  58:Drivers/CMSIS/DSP/Source/TransformFunctions/arm_dct4_init_f32.c ****                    \image html dct4NormalizingF32Table.gif
  59:Drivers/CMSIS/DSP/Source/TransformFunctions/arm_dct4_init_f32.c ****  */
  60:Drivers/CMSIS/DSP/Source/TransformFunctions/arm_dct4_init_f32.c **** 
  61:Drivers/CMSIS/DSP/Source/TransformFunctions/arm_dct4_init_f32.c **** arm_status arm_dct4_init_f32(
  62:Drivers/CMSIS/DSP/Source/TransformFunctions/arm_dct4_init_f32.c ****   arm_dct4_instance_f32 * S,
  63:Drivers/CMSIS/DSP/Source/TransformFunctions/arm_dct4_init_f32.c ****   arm_rfft_instance_f32 * S_RFFT,
  64:Drivers/CMSIS/DSP/Source/TransformFunctions/arm_dct4_init_f32.c ****   arm_cfft_radix4_instance_f32 * S_CFFT,
  65:Drivers/CMSIS/DSP/Source/TransformFunctions/arm_dct4_init_f32.c ****   uint16_t N,
  66:Drivers/CMSIS/DSP/Source/TransformFunctions/arm_dct4_init_f32.c ****   uint16_t Nby2,
  67:Drivers/CMSIS/DSP/Source/TransformFunctions/arm_dct4_init_f32.c ****   float32_t normalize)
  68:Drivers/CMSIS/DSP/Source/TransformFunctions/arm_dct4_init_f32.c **** {
  29              		.loc 1 68 1 view -0
  30              		.cfi_startproc
  31              		@ args = 4, pretend = 0, frame = 0
  32              		@ frame_needed = 0, uses_anonymous_args = 0
  33              		.loc 1 68 1 is_stmt 0 view .LVU1
  34 0000 10B5     		push	{r4, lr}
  35              	.LCFI0:
  36              		.cfi_def_cfa_offset 8
  37              		.cfi_offset 4, -8
  38              		.cfi_offset 14, -4
  39 0002 82B0     		sub	sp, sp, #8
  40              	.LCFI1:
  41              		.cfi_def_cfa_offset 16
  42 0004 8446     		mov	ip, r0
  43 0006 0846     		mov	r0, r1
  44              	.LVL1:
  45              		.loc 1 68 1 view .LVU2
  46 0008 1146     		mov	r1, r2
  47              	.LVL2:
ARM GAS  C:\usertemp\cc9F7yDo.s 			page 3


  48              		.loc 1 68 1 view .LVU3
  49 000a 1A46     		mov	r2, r3
  50              	.LVL3:
  69:Drivers/CMSIS/DSP/Source/TransformFunctions/arm_dct4_init_f32.c ****   /* Initialize the default arm status */
  70:Drivers/CMSIS/DSP/Source/TransformFunctions/arm_dct4_init_f32.c ****   arm_status status = ARM_MATH_SUCCESS;
  51              		.loc 1 70 3 is_stmt 1 view .LVU4
  71:Drivers/CMSIS/DSP/Source/TransformFunctions/arm_dct4_init_f32.c **** 
  72:Drivers/CMSIS/DSP/Source/TransformFunctions/arm_dct4_init_f32.c **** 
  73:Drivers/CMSIS/DSP/Source/TransformFunctions/arm_dct4_init_f32.c ****   /* Initialize the DCT4 length */
  74:Drivers/CMSIS/DSP/Source/TransformFunctions/arm_dct4_init_f32.c ****   S->N = N;
  52              		.loc 1 74 3 view .LVU5
  53              		.loc 1 74 8 is_stmt 0 view .LVU6
  54 000c ACF80030 		strh	r3, [ip]	@ movhi
  75:Drivers/CMSIS/DSP/Source/TransformFunctions/arm_dct4_init_f32.c **** 
  76:Drivers/CMSIS/DSP/Source/TransformFunctions/arm_dct4_init_f32.c ****   /* Initialize the half of DCT4 length */
  77:Drivers/CMSIS/DSP/Source/TransformFunctions/arm_dct4_init_f32.c ****   S->Nby2 = Nby2;
  55              		.loc 1 77 3 is_stmt 1 view .LVU7
  56              		.loc 1 77 11 is_stmt 0 view .LVU8
  57 0010 BDF81030 		ldrh	r3, [sp, #16]
  58              	.LVL4:
  59              		.loc 1 77 11 view .LVU9
  60 0014 ACF80230 		strh	r3, [ip, #2]	@ movhi
  78:Drivers/CMSIS/DSP/Source/TransformFunctions/arm_dct4_init_f32.c **** 
  79:Drivers/CMSIS/DSP/Source/TransformFunctions/arm_dct4_init_f32.c ****   /* Initialize the DCT4 Normalizing factor */
  80:Drivers/CMSIS/DSP/Source/TransformFunctions/arm_dct4_init_f32.c ****   S->normalize = normalize;
  61              		.loc 1 80 3 is_stmt 1 view .LVU10
  62              		.loc 1 80 16 is_stmt 0 view .LVU11
  63 0018 8CED010A 		vstr.32	s0, [ip, #4]
  81:Drivers/CMSIS/DSP/Source/TransformFunctions/arm_dct4_init_f32.c **** 
  82:Drivers/CMSIS/DSP/Source/TransformFunctions/arm_dct4_init_f32.c ****   /* Initialize Real FFT Instance */
  83:Drivers/CMSIS/DSP/Source/TransformFunctions/arm_dct4_init_f32.c ****   S->pRfft = S_RFFT;
  64              		.loc 1 83 3 is_stmt 1 view .LVU12
  65              		.loc 1 83 12 is_stmt 0 view .LVU13
  66 001c CCF81000 		str	r0, [ip, #16]
  84:Drivers/CMSIS/DSP/Source/TransformFunctions/arm_dct4_init_f32.c **** 
  85:Drivers/CMSIS/DSP/Source/TransformFunctions/arm_dct4_init_f32.c ****   /* Initialize Complex FFT Instance */
  86:Drivers/CMSIS/DSP/Source/TransformFunctions/arm_dct4_init_f32.c ****   S->pCfft = S_CFFT;
  67              		.loc 1 86 3 is_stmt 1 view .LVU14
  68              		.loc 1 86 12 is_stmt 0 view .LVU15
  69 0020 CCF81410 		str	r1, [ip, #20]
  87:Drivers/CMSIS/DSP/Source/TransformFunctions/arm_dct4_init_f32.c **** 
  88:Drivers/CMSIS/DSP/Source/TransformFunctions/arm_dct4_init_f32.c ****   switch (N)
  70              		.loc 1 88 3 is_stmt 1 view .LVU16
  71 0024 B2F5006F 		cmp	r2, #2048
  72 0028 22D0     		beq	.L2
  73 002a 0FD8     		bhi	.L3
  74 002c 802A     		cmp	r2, #128
  75 002e 27D0     		beq	.L4
  76 0030 B2F5007F 		cmp	r2, #512
  77 0034 07D1     		bne	.L9
  89:Drivers/CMSIS/DSP/Source/TransformFunctions/arm_dct4_init_f32.c ****   {
  90:Drivers/CMSIS/DSP/Source/TransformFunctions/arm_dct4_init_f32.c ****   #if !defined(ARM_DSP_CONFIG_TABLES) || defined(ARM_ALL_FFT_TABLES) || defined(ARM_TABLE_DCT4_F32_
  91:Drivers/CMSIS/DSP/Source/TransformFunctions/arm_dct4_init_f32.c ****     /* Initialize the table modifier values */
  92:Drivers/CMSIS/DSP/Source/TransformFunctions/arm_dct4_init_f32.c ****   case 8192U:
  93:Drivers/CMSIS/DSP/Source/TransformFunctions/arm_dct4_init_f32.c ****     S->pTwiddle = Weights_8192;
  94:Drivers/CMSIS/DSP/Source/TransformFunctions/arm_dct4_init_f32.c ****     S->pCosFactor = cos_factors_8192;
  95:Drivers/CMSIS/DSP/Source/TransformFunctions/arm_dct4_init_f32.c ****     break;
ARM GAS  C:\usertemp\cc9F7yDo.s 			page 4


  96:Drivers/CMSIS/DSP/Source/TransformFunctions/arm_dct4_init_f32.c ****   #endif
  97:Drivers/CMSIS/DSP/Source/TransformFunctions/arm_dct4_init_f32.c **** 
  98:Drivers/CMSIS/DSP/Source/TransformFunctions/arm_dct4_init_f32.c ****   #if !defined(ARM_DSP_CONFIG_TABLES) || defined(ARM_ALL_FFT_TABLES) || defined(ARM_TABLE_DCT4_F32_
  99:Drivers/CMSIS/DSP/Source/TransformFunctions/arm_dct4_init_f32.c ****   case 2048U:
 100:Drivers/CMSIS/DSP/Source/TransformFunctions/arm_dct4_init_f32.c ****     S->pTwiddle = Weights_2048;
 101:Drivers/CMSIS/DSP/Source/TransformFunctions/arm_dct4_init_f32.c ****     S->pCosFactor = cos_factors_2048;
 102:Drivers/CMSIS/DSP/Source/TransformFunctions/arm_dct4_init_f32.c ****     break;
 103:Drivers/CMSIS/DSP/Source/TransformFunctions/arm_dct4_init_f32.c ****   #endif
 104:Drivers/CMSIS/DSP/Source/TransformFunctions/arm_dct4_init_f32.c **** 
 105:Drivers/CMSIS/DSP/Source/TransformFunctions/arm_dct4_init_f32.c ****   #if !defined(ARM_DSP_CONFIG_TABLES) || defined(ARM_ALL_FFT_TABLES) || defined(ARM_TABLE_DCT4_F32_
 106:Drivers/CMSIS/DSP/Source/TransformFunctions/arm_dct4_init_f32.c ****   case 512U:
 107:Drivers/CMSIS/DSP/Source/TransformFunctions/arm_dct4_init_f32.c ****     S->pTwiddle = Weights_512;
  78              		.loc 1 107 5 view .LVU17
  79              		.loc 1 107 17 is_stmt 0 view .LVU18
  80 0036 184B     		ldr	r3, .L10
  81 0038 CCF80830 		str	r3, [ip, #8]
 108:Drivers/CMSIS/DSP/Source/TransformFunctions/arm_dct4_init_f32.c ****     S->pCosFactor = cos_factors_512;
  82              		.loc 1 108 5 is_stmt 1 view .LVU19
  83              		.loc 1 108 19 is_stmt 0 view .LVU20
  84 003c 174B     		ldr	r3, .L10+4
  85 003e CCF80C30 		str	r3, [ip, #12]
 109:Drivers/CMSIS/DSP/Source/TransformFunctions/arm_dct4_init_f32.c ****     break;
  86              		.loc 1 109 5 is_stmt 1 view .LVU21
  70:Drivers/CMSIS/DSP/Source/TransformFunctions/arm_dct4_init_f32.c **** 
  87              		.loc 1 70 14 is_stmt 0 view .LVU22
  88 0042 0024     		movs	r4, #0
  89              		.loc 1 109 5 view .LVU23
  90 0044 0CE0     		b	.L6
  91              	.L9:
  88:Drivers/CMSIS/DSP/Source/TransformFunctions/arm_dct4_init_f32.c ****   {
  92              		.loc 1 88 3 view .LVU24
  93 0046 4FF0FF34 		mov	r4, #-1
  94 004a 09E0     		b	.L6
  95              	.L3:
  96 004c B2F5005F 		cmp	r2, #8192
  97 0050 1ED1     		bne	.L7
  93:Drivers/CMSIS/DSP/Source/TransformFunctions/arm_dct4_init_f32.c ****     S->pCosFactor = cos_factors_8192;
  98              		.loc 1 93 5 is_stmt 1 view .LVU25
  93:Drivers/CMSIS/DSP/Source/TransformFunctions/arm_dct4_init_f32.c ****     S->pCosFactor = cos_factors_8192;
  99              		.loc 1 93 17 is_stmt 0 view .LVU26
 100 0052 134B     		ldr	r3, .L10+8
 101 0054 CCF80830 		str	r3, [ip, #8]
  94:Drivers/CMSIS/DSP/Source/TransformFunctions/arm_dct4_init_f32.c ****     break;
 102              		.loc 1 94 5 is_stmt 1 view .LVU27
  94:Drivers/CMSIS/DSP/Source/TransformFunctions/arm_dct4_init_f32.c ****     break;
 103              		.loc 1 94 19 is_stmt 0 view .LVU28
 104 0058 124B     		ldr	r3, .L10+12
 105 005a CCF80C30 		str	r3, [ip, #12]
  95:Drivers/CMSIS/DSP/Source/TransformFunctions/arm_dct4_init_f32.c ****   #endif
 106              		.loc 1 95 5 is_stmt 1 view .LVU29
  70:Drivers/CMSIS/DSP/Source/TransformFunctions/arm_dct4_init_f32.c **** 
 107              		.loc 1 70 14 is_stmt 0 view .LVU30
 108 005e 0024     		movs	r4, #0
 109              	.L6:
 110              	.LVL5:
 110:Drivers/CMSIS/DSP/Source/TransformFunctions/arm_dct4_init_f32.c ****   #endif
 111:Drivers/CMSIS/DSP/Source/TransformFunctions/arm_dct4_init_f32.c **** 
ARM GAS  C:\usertemp\cc9F7yDo.s 			page 5


 112:Drivers/CMSIS/DSP/Source/TransformFunctions/arm_dct4_init_f32.c ****   #if !defined(ARM_DSP_CONFIG_TABLES) || defined(ARM_ALL_FFT_TABLES) || defined(ARM_TABLE_DCT4_F32_
 113:Drivers/CMSIS/DSP/Source/TransformFunctions/arm_dct4_init_f32.c ****   case 128U:
 114:Drivers/CMSIS/DSP/Source/TransformFunctions/arm_dct4_init_f32.c ****     S->pTwiddle = Weights_128;
 115:Drivers/CMSIS/DSP/Source/TransformFunctions/arm_dct4_init_f32.c ****     S->pCosFactor = cos_factors_128;
 116:Drivers/CMSIS/DSP/Source/TransformFunctions/arm_dct4_init_f32.c ****     break;
 117:Drivers/CMSIS/DSP/Source/TransformFunctions/arm_dct4_init_f32.c ****   #endif
 118:Drivers/CMSIS/DSP/Source/TransformFunctions/arm_dct4_init_f32.c ****   default:
 119:Drivers/CMSIS/DSP/Source/TransformFunctions/arm_dct4_init_f32.c ****     status = ARM_MATH_ARGUMENT_ERROR;
 120:Drivers/CMSIS/DSP/Source/TransformFunctions/arm_dct4_init_f32.c ****   }
 121:Drivers/CMSIS/DSP/Source/TransformFunctions/arm_dct4_init_f32.c **** 
 122:Drivers/CMSIS/DSP/Source/TransformFunctions/arm_dct4_init_f32.c ****   /* Initialize the RFFT/RIFFT Function */
 123:Drivers/CMSIS/DSP/Source/TransformFunctions/arm_dct4_init_f32.c ****   arm_rfft_init_f32(S->pRfft, S->pCfft, S->N, 0U, 1U);
 111              		.loc 1 123 3 is_stmt 1 view .LVU31
 112 0060 0123     		movs	r3, #1
 113 0062 0093     		str	r3, [sp]
 114              	.LVL6:
 115              		.loc 1 123 3 is_stmt 0 view .LVU32
 116 0064 0023     		movs	r3, #0
 117 0066 FFF7FEFF 		bl	arm_rfft_init_f32
 118              	.LVL7:
 124:Drivers/CMSIS/DSP/Source/TransformFunctions/arm_dct4_init_f32.c **** 
 125:Drivers/CMSIS/DSP/Source/TransformFunctions/arm_dct4_init_f32.c ****   /* return the status of DCT4 Init function */
 126:Drivers/CMSIS/DSP/Source/TransformFunctions/arm_dct4_init_f32.c ****   return (status);
 119              		.loc 1 126 3 is_stmt 1 view .LVU33
 127:Drivers/CMSIS/DSP/Source/TransformFunctions/arm_dct4_init_f32.c **** }
 120              		.loc 1 127 1 is_stmt 0 view .LVU34
 121 006a 2046     		mov	r0, r4
 122 006c 02B0     		add	sp, sp, #8
 123              	.LCFI2:
 124              		.cfi_remember_state
 125              		.cfi_def_cfa_offset 8
 126              		@ sp needed
 127 006e 10BD     		pop	{r4, pc}
 128              	.LVL8:
 129              	.L2:
 130              	.LCFI3:
 131              		.cfi_restore_state
 100:Drivers/CMSIS/DSP/Source/TransformFunctions/arm_dct4_init_f32.c ****     S->pCosFactor = cos_factors_2048;
 132              		.loc 1 100 5 is_stmt 1 view .LVU35
 100:Drivers/CMSIS/DSP/Source/TransformFunctions/arm_dct4_init_f32.c ****     S->pCosFactor = cos_factors_2048;
 133              		.loc 1 100 17 is_stmt 0 view .LVU36
 134 0070 0D4B     		ldr	r3, .L10+16
 135 0072 CCF80830 		str	r3, [ip, #8]
 101:Drivers/CMSIS/DSP/Source/TransformFunctions/arm_dct4_init_f32.c ****     break;
 136              		.loc 1 101 5 is_stmt 1 view .LVU37
 101:Drivers/CMSIS/DSP/Source/TransformFunctions/arm_dct4_init_f32.c ****     break;
 137              		.loc 1 101 19 is_stmt 0 view .LVU38
 138 0076 0D4B     		ldr	r3, .L10+20
 139 0078 CCF80C30 		str	r3, [ip, #12]
 102:Drivers/CMSIS/DSP/Source/TransformFunctions/arm_dct4_init_f32.c ****   #endif
 140              		.loc 1 102 5 is_stmt 1 view .LVU39
  70:Drivers/CMSIS/DSP/Source/TransformFunctions/arm_dct4_init_f32.c **** 
 141              		.loc 1 70 14 is_stmt 0 view .LVU40
 142 007c 0024     		movs	r4, #0
 102:Drivers/CMSIS/DSP/Source/TransformFunctions/arm_dct4_init_f32.c ****   #endif
 143              		.loc 1 102 5 view .LVU41
 144 007e EFE7     		b	.L6
ARM GAS  C:\usertemp\cc9F7yDo.s 			page 6


 145              	.L4:
 114:Drivers/CMSIS/DSP/Source/TransformFunctions/arm_dct4_init_f32.c ****     S->pCosFactor = cos_factors_128;
 146              		.loc 1 114 5 is_stmt 1 view .LVU42
 114:Drivers/CMSIS/DSP/Source/TransformFunctions/arm_dct4_init_f32.c ****     S->pCosFactor = cos_factors_128;
 147              		.loc 1 114 17 is_stmt 0 view .LVU43
 148 0080 0B4B     		ldr	r3, .L10+24
 149 0082 CCF80830 		str	r3, [ip, #8]
 115:Drivers/CMSIS/DSP/Source/TransformFunctions/arm_dct4_init_f32.c ****     break;
 150              		.loc 1 115 5 is_stmt 1 view .LVU44
 115:Drivers/CMSIS/DSP/Source/TransformFunctions/arm_dct4_init_f32.c ****     break;
 151              		.loc 1 115 19 is_stmt 0 view .LVU45
 152 0086 0B4B     		ldr	r3, .L10+28
 153 0088 CCF80C30 		str	r3, [ip, #12]
 116:Drivers/CMSIS/DSP/Source/TransformFunctions/arm_dct4_init_f32.c ****   #endif
 154              		.loc 1 116 5 is_stmt 1 view .LVU46
  70:Drivers/CMSIS/DSP/Source/TransformFunctions/arm_dct4_init_f32.c **** 
 155              		.loc 1 70 14 is_stmt 0 view .LVU47
 156 008c 0024     		movs	r4, #0
 116:Drivers/CMSIS/DSP/Source/TransformFunctions/arm_dct4_init_f32.c ****   #endif
 157              		.loc 1 116 5 view .LVU48
 158 008e E7E7     		b	.L6
 159              	.L7:
  88:Drivers/CMSIS/DSP/Source/TransformFunctions/arm_dct4_init_f32.c ****   {
 160              		.loc 1 88 3 view .LVU49
 161 0090 4FF0FF34 		mov	r4, #-1
 162 0094 E4E7     		b	.L6
 163              	.L11:
 164 0096 00BF     		.align	2
 165              	.L10:
 166 0098 00000000 		.word	Weights_512
 167 009c 00000000 		.word	cos_factors_512
 168 00a0 00000000 		.word	Weights_8192
 169 00a4 00000000 		.word	cos_factors_8192
 170 00a8 00000000 		.word	Weights_2048
 171 00ac 00000000 		.word	cos_factors_2048
 172 00b0 00000000 		.word	Weights_128
 173 00b4 00000000 		.word	cos_factors_128
 174              		.cfi_endproc
 175              	.LFE145:
 177              		.text
 178              	.Letext0:
 179              		.file 2 "D:/armtoolchain/arm-gnu-toolchain-13.3.rel1-mingw-w64-i686-arm-none-eabi/arm-none-eabi/in
 180              		.file 3 "D:/armtoolchain/arm-gnu-toolchain-13.3.rel1-mingw-w64-i686-arm-none-eabi/arm-none-eabi/in
 181              		.file 4 "Drivers/CMSIS/DSP/Include/arm_math.h"
 182              		.file 5 "Drivers/CMSIS/DSP/Include/arm_common_tables.h"
ARM GAS  C:\usertemp\cc9F7yDo.s 			page 7

