ARM GAS  C:\usertemp\ccMiPmMS.s 			page 1


   1              		.cpu cortex-m7
   2              		.arch armv7e-m
   3              		.fpu fpv5-d16
   4              		.eabi_attribute 28, 1
   5              		.eabi_attribute 20, 1
   6              		.eabi_attribute 21, 1
   7              		.eabi_attribute 23, 3
   8              		.eabi_attribute 24, 1
   9              		.eabi_attribute 25, 1
  10              		.eabi_attribute 26, 1
  11              		.eabi_attribute 30, 1
  12              		.eabi_attribute 34, 1
  13              		.eabi_attribute 18, 4
  14              		.file	"events_init.c"
  15              		.text
  16              	.Ltext0:
  17              		.cfi_sections	.debug_frame
  18              		.file 1 "generated/events_init.c"
  19              		.section	.text.wave_model_btn_13_event_handler,"ax",%progbits
  20              		.align	1
  21              		.syntax unified
  22              		.thumb
  23              		.thumb_func
  25              	wave_model_btn_13_event_handler:
  26              	.LVL0:
  27              	.LFB612:
   1:generated/events_init.c **** /*
   2:generated/events_init.c ****  * Copyright 2025 NXP
   3:generated/events_init.c ****  * NXP Confidential and Proprietary. This software is owned or controlled by NXP and may only be us
   4:generated/events_init.c ****  * accordance with the applicable license terms. By expressly accepting such terms or by downloadin
   5:generated/events_init.c ****  * activating and/or otherwise using the software, you are agreeing that you have read, and that yo
   6:generated/events_init.c ****  * comply with and are bound by, such license terms.  If you do not agree to be bound by the applic
   7:generated/events_init.c ****  * terms, then you may not retain, install, activate or otherwise use the software.
   8:generated/events_init.c ****  */
   9:generated/events_init.c **** 
  10:generated/events_init.c **** #include "events_init.h"
  11:generated/events_init.c **** #include <stdio.h>
  12:generated/events_init.c **** #include "lvgl.h"
  13:generated/events_init.c **** #include "arm_math.h"
  14:generated/events_init.c **** #include "task.h"
  15:generated/events_init.c **** #include "screenshot.h"
  16:generated/events_init.c **** int16_t sd_count;
  17:generated/events_init.c **** int16_t file_now = 0;
  18:generated/events_init.c **** 
  19:generated/events_init.c **** static int8_t page = 0;
  20:generated/events_init.c **** extern lv_chart_series_t *ser1;
  21:generated/events_init.c **** extern lv_chart_series_t *ser2;
  22:generated/events_init.c **** extern lv_chart_series_t *ser3;
  23:generated/events_init.c **** extern lv_chart_series_t *serN;
  24:generated/events_init.c **** 
  25:generated/events_init.c **** extern lv_chart_series_t *ser1_I;
  26:generated/events_init.c **** extern lv_chart_series_t *ser2_I;
  27:generated/events_init.c **** extern lv_chart_series_t *ser3_I;
  28:generated/events_init.c **** extern lv_chart_series_t *serN_I;
  29:generated/events_init.c **** extern int wave_model_digital_clock_1_min_value;
  30:generated/events_init.c **** extern int wave_model_digital_clock_1_hour_value;
  31:generated/events_init.c **** extern int wave_model_digital_clock_1_sec_value;
ARM GAS  C:\usertemp\ccMiPmMS.s 			page 2


  32:generated/events_init.c **** uint8_t L1_flag = 0;
  33:generated/events_init.c **** uint8_t L2_flag = 0;
  34:generated/events_init.c **** uint8_t L3_flag = 0;
  35:generated/events_init.c **** uint8_t LN_flag = 0;
  36:generated/events_init.c **** uint8_t L1_I_flag = 0;
  37:generated/events_init.c **** uint8_t L2_I_flag = 0;
  38:generated/events_init.c **** uint8_t L3_I_flag = 0;
  39:generated/events_init.c **** uint8_t LN_I_flag = 0;
  40:generated/events_init.c **** float32_t rat = 50;
  41:generated/events_init.c **** float32_t step = 2;
  42:generated/events_init.c **** float32_t level = 0;
  43:generated/events_init.c **** uint8_t V_I_flag;
  44:generated/events_init.c **** 
  45:generated/events_init.c **** void page_switch()
  46:generated/events_init.c **** {
  47:generated/events_init.c **** 	if (page == 0) // 波形模式
  48:generated/events_init.c **** 	{
  49:generated/events_init.c **** 		lv_obj_add_flag(guider_ui.wave_model_table_2, LV_OBJ_FLAG_HIDDEN);
  50:generated/events_init.c **** 		lv_obj_add_flag(guider_ui.wave_model_table_1, LV_OBJ_FLAG_HIDDEN);
  51:generated/events_init.c **** 		lv_obj_clear_flag(guider_ui.wave_model_chart_2, LV_OBJ_FLAG_HIDDEN);
  52:generated/events_init.c **** 		lv_obj_add_flag(guider_ui.wave_model_img_1, LV_OBJ_FLAG_HIDDEN);
  53:generated/events_init.c **** 		lv_obj_clear_flag(guider_ui.wave_model_label_25, LV_OBJ_FLAG_HIDDEN);
  54:generated/events_init.c **** 		lv_obj_clear_flag(guider_ui.wave_model_label_24, LV_OBJ_FLAG_HIDDEN);
  55:generated/events_init.c **** 		lv_obj_clear_flag(guider_ui.wave_model_label_23, LV_OBJ_FLAG_HIDDEN);
  56:generated/events_init.c **** 		lv_obj_clear_flag(guider_ui.wave_model_label_22, LV_OBJ_FLAG_HIDDEN);
  57:generated/events_init.c **** 		lv_obj_clear_flag(guider_ui.wave_model_label_21, LV_OBJ_FLAG_HIDDEN);
  58:generated/events_init.c **** 		lv_obj_clear_flag(guider_ui.wave_model_num_1, LV_OBJ_FLAG_HIDDEN);
  59:generated/events_init.c **** 		lv_obj_clear_flag(guider_ui.wave_model_N_val, LV_OBJ_FLAG_HIDDEN);
  60:generated/events_init.c **** 		lv_obj_clear_flag(guider_ui.wave_model_three_value, LV_OBJ_FLAG_HIDDEN);
  61:generated/events_init.c **** 		lv_obj_clear_flag(guider_ui.wave_model_two_value, LV_OBJ_FLAG_HIDDEN);
  62:generated/events_init.c **** 		lv_obj_clear_flag(guider_ui.wave_model_one_value, LV_OBJ_FLAG_HIDDEN);
  63:generated/events_init.c **** 		lv_obj_clear_flag(guider_ui.wave_model_N__, LV_OBJ_FLAG_HIDDEN);
  64:generated/events_init.c **** 		lv_obj_clear_flag(guider_ui.wave_model_three, LV_OBJ_FLAG_HIDDEN);
  65:generated/events_init.c **** 		lv_obj_clear_flag(guider_ui.wave_model_two, LV_OBJ_FLAG_HIDDEN);
  66:generated/events_init.c **** 		lv_obj_clear_flag(guider_ui.wave_model_red, LV_OBJ_FLAG_HIDDEN);
  67:generated/events_init.c **** 		lv_obj_clear_flag(guider_ui.wave_model_blue, LV_OBJ_FLAG_HIDDEN);
  68:generated/events_init.c **** 		lv_obj_clear_flag(guider_ui.wave_model_green, LV_OBJ_FLAG_HIDDEN);
  69:generated/events_init.c **** 		lv_obj_clear_flag(guider_ui.wave_model_yellow, LV_OBJ_FLAG_HIDDEN);
  70:generated/events_init.c **** 		lv_obj_set_width(guider_ui.wave_model_one_value, 120);
  71:generated/events_init.c **** 		lv_obj_set_height(guider_ui.wave_model_one_value, 30);
  72:generated/events_init.c **** 		lv_obj_set_width(guider_ui.wave_model_chart_2, 520);
  73:generated/events_init.c **** 		lv_obj_set_height(guider_ui.wave_model_chart_2, 340);
  74:generated/events_init.c **** 		lv_obj_set_pos(guider_ui.wave_model_chart_2, 47, 70);
  75:generated/events_init.c **** 		lv_obj_set_width(guider_ui.wave_model_three_value, 120);
  76:generated/events_init.c **** 		lv_obj_set_height(guider_ui.wave_model_three_value, 30);
  77:generated/events_init.c **** 		lv_obj_add_flag(guider_ui.wave_model_table_1, LV_OBJ_FLAG_HIDDEN);
  78:generated/events_init.c **** 		lv_obj_set_pos(guider_ui.wave_model_three, 300, 28);
  79:generated/events_init.c **** 		lv_obj_set_pos(guider_ui.wave_model_two, 137, 28);
  80:generated/events_init.c **** 		lv_obj_set_pos(guider_ui.wave_model_red, 330, 25);
  81:generated/events_init.c **** 		lv_obj_set_pos(guider_ui.wave_model_green, 167, 25);
  82:generated/events_init.c **** 		lv_obj_set_pos(guider_ui.wave_model_yellow, 1, 25);
  83:generated/events_init.c **** 		lv_obj_set_pos(guider_ui.wave_model_num_1, -30, 30);
  84:generated/events_init.c **** 		lv_obj_add_flag(guider_ui.wave_model_label_26, LV_OBJ_FLAG_HIDDEN);
  85:generated/events_init.c **** 		lv_obj_add_flag(guider_ui.wave_model_label_27, LV_OBJ_FLAG_HIDDEN);
  86:generated/events_init.c **** 		lv_label_set_text(guider_ui.wave_model_btn_14_label, "Y-");
  87:generated/events_init.c **** 		lv_label_set_text(guider_ui.wave_model_btn_9_label, "Y+");
  88:generated/events_init.c **** 		lv_obj_clear_flag(guider_ui.wave_model_btn_10, LV_OBJ_FLAG_HIDDEN);
ARM GAS  C:\usertemp\ccMiPmMS.s 			page 3


  89:generated/events_init.c **** 		lv_obj_clear_flag(guider_ui.wave_model_btn_11, LV_OBJ_FLAG_HIDDEN);
  90:generated/events_init.c **** 		lv_obj_clear_flag(guider_ui.wave_model_btn_12, LV_OBJ_FLAG_HIDDEN);
  91:generated/events_init.c **** 		lv_obj_clear_flag(guider_ui.wave_model_btn_13, LV_OBJ_FLAG_HIDDEN);
  92:generated/events_init.c **** 
  93:generated/events_init.c **** 		lv_obj_clear_flag(guider_ui.wave_model_btn_6, LV_OBJ_FLAG_HIDDEN);
  94:generated/events_init.c **** 		lv_obj_clear_flag(guider_ui.wave_model_btn_1, LV_OBJ_FLAG_HIDDEN);
  95:generated/events_init.c **** 		lv_obj_clear_flag(guider_ui.wave_model_btn_2, LV_OBJ_FLAG_HIDDEN);
  96:generated/events_init.c **** 		lv_obj_clear_flag(guider_ui.wave_model_btn_3, LV_OBJ_FLAG_HIDDEN);
  97:generated/events_init.c **** 		lv_obj_clear_flag(guider_ui.wave_model_btn_4, LV_OBJ_FLAG_HIDDEN);
  98:generated/events_init.c **** 		lv_obj_clear_flag(guider_ui.wave_model_btn_5, LV_OBJ_FLAG_HIDDEN);
  99:generated/events_init.c **** 	}
 100:generated/events_init.c **** 	if (page == 1) // 截屏模式
 101:generated/events_init.c **** 	{			   //+227 +70
 102:generated/events_init.c **** 
 103:generated/events_init.c **** 		lv_obj_clear_flag(guider_ui.wave_model_label_27, LV_OBJ_FLAG_HIDDEN);
 104:generated/events_init.c **** 		lv_obj_add_flag(guider_ui.wave_model_btn_10, LV_OBJ_FLAG_HIDDEN);
 105:generated/events_init.c **** 		lv_obj_add_flag(guider_ui.wave_model_btn_11, LV_OBJ_FLAG_HIDDEN);
 106:generated/events_init.c **** 		lv_obj_add_flag(guider_ui.wave_model_btn_12, LV_OBJ_FLAG_HIDDEN);
 107:generated/events_init.c **** 		lv_obj_add_flag(guider_ui.wave_model_btn_13, LV_OBJ_FLAG_HIDDEN);
 108:generated/events_init.c **** 
 109:generated/events_init.c **** 		lv_obj_add_flag(guider_ui.wave_model_btn_6, LV_OBJ_FLAG_HIDDEN);
 110:generated/events_init.c **** 		lv_obj_add_flag(guider_ui.wave_model_btn_1, LV_OBJ_FLAG_HIDDEN);
 111:generated/events_init.c **** 		lv_obj_add_flag(guider_ui.wave_model_btn_2, LV_OBJ_FLAG_HIDDEN);
 112:generated/events_init.c **** 		lv_obj_add_flag(guider_ui.wave_model_btn_3, LV_OBJ_FLAG_HIDDEN);
 113:generated/events_init.c **** 		lv_obj_add_flag(guider_ui.wave_model_btn_4, LV_OBJ_FLAG_HIDDEN);
 114:generated/events_init.c **** 		lv_obj_add_flag(guider_ui.wave_model_btn_5, LV_OBJ_FLAG_HIDDEN);
 115:generated/events_init.c **** 
 116:generated/events_init.c **** 		lv_obj_add_flag(guider_ui.wave_model_chart_2, LV_OBJ_FLAG_HIDDEN);
 117:generated/events_init.c **** 		lv_obj_clear_flag(guider_ui.wave_model_img_1, LV_OBJ_FLAG_HIDDEN);
 118:generated/events_init.c **** 		lv_obj_add_flag(guider_ui.wave_model_label_25, LV_OBJ_FLAG_HIDDEN);
 119:generated/events_init.c **** 		lv_obj_add_flag(guider_ui.wave_model_label_24, LV_OBJ_FLAG_HIDDEN);
 120:generated/events_init.c **** 		lv_obj_add_flag(guider_ui.wave_model_label_23, LV_OBJ_FLAG_HIDDEN);
 121:generated/events_init.c **** 		lv_obj_add_flag(guider_ui.wave_model_label_22, LV_OBJ_FLAG_HIDDEN);
 122:generated/events_init.c **** 		lv_obj_add_flag(guider_ui.wave_model_label_21, LV_OBJ_FLAG_HIDDEN);
 123:generated/events_init.c **** 		lv_obj_add_flag(guider_ui.wave_model_num_1, LV_OBJ_FLAG_HIDDEN);
 124:generated/events_init.c **** 		lv_obj_add_flag(guider_ui.wave_model_N_val, LV_OBJ_FLAG_HIDDEN);
 125:generated/events_init.c **** 		lv_obj_add_flag(guider_ui.wave_model_three_value, LV_OBJ_FLAG_HIDDEN);
 126:generated/events_init.c **** 		lv_obj_add_flag(guider_ui.wave_model_two_value, LV_OBJ_FLAG_HIDDEN);
 127:generated/events_init.c **** 		lv_obj_add_flag(guider_ui.wave_model_one_value, LV_OBJ_FLAG_HIDDEN);
 128:generated/events_init.c **** 		lv_obj_add_flag(guider_ui.wave_model_N__, LV_OBJ_FLAG_HIDDEN);
 129:generated/events_init.c **** 		lv_obj_add_flag(guider_ui.wave_model_three, LV_OBJ_FLAG_HIDDEN);
 130:generated/events_init.c **** 		lv_obj_add_flag(guider_ui.wave_model_two, LV_OBJ_FLAG_HIDDEN);
 131:generated/events_init.c **** 		lv_obj_add_flag(guider_ui.wave_model_red, LV_OBJ_FLAG_HIDDEN);
 132:generated/events_init.c **** 		lv_obj_add_flag(guider_ui.wave_model_blue, LV_OBJ_FLAG_HIDDEN);
 133:generated/events_init.c **** 		lv_obj_add_flag(guider_ui.wave_model_green, LV_OBJ_FLAG_HIDDEN);
 134:generated/events_init.c **** 		lv_obj_add_flag(guider_ui.wave_model_yellow, LV_OBJ_FLAG_HIDDEN);
 135:generated/events_init.c **** 		lv_obj_add_flag(guider_ui.wave_model_label_26, LV_OBJ_FLAG_HIDDEN);
 136:generated/events_init.c **** 		lv_obj_add_flag(guider_ui.wave_model_chart_3, LV_OBJ_FLAG_HIDDEN);
 137:generated/events_init.c **** 
 138:generated/events_init.c **** 		lv_label_set_text(guider_ui.wave_model_btn_14_label, "->");
 139:generated/events_init.c **** 		lv_label_set_text(guider_ui.wave_model_btn_9_label, "<-");
 140:generated/events_init.c **** 	}
 141:generated/events_init.c **** 	if (page == 2) // 谐波模式
 142:generated/events_init.c **** 	{
 143:generated/events_init.c **** 		lv_obj_clear_flag(guider_ui.wave_model_btn_10, LV_OBJ_FLAG_HIDDEN);
 144:generated/events_init.c **** 		lv_obj_clear_flag(guider_ui.wave_model_btn_11, LV_OBJ_FLAG_HIDDEN);
 145:generated/events_init.c **** 		lv_obj_clear_flag(guider_ui.wave_model_btn_12, LV_OBJ_FLAG_HIDDEN);
ARM GAS  C:\usertemp\ccMiPmMS.s 			page 4


 146:generated/events_init.c **** 		lv_obj_clear_flag(guider_ui.wave_model_btn_13, LV_OBJ_FLAG_HIDDEN);
 147:generated/events_init.c **** 
 148:generated/events_init.c **** 		lv_obj_clear_flag(guider_ui.wave_model_btn_6, LV_OBJ_FLAG_HIDDEN);
 149:generated/events_init.c **** 		lv_obj_clear_flag(guider_ui.wave_model_btn_1, LV_OBJ_FLAG_HIDDEN);
 150:generated/events_init.c **** 		lv_obj_clear_flag(guider_ui.wave_model_btn_2, LV_OBJ_FLAG_HIDDEN);
 151:generated/events_init.c **** 		lv_obj_clear_flag(guider_ui.wave_model_btn_3, LV_OBJ_FLAG_HIDDEN);
 152:generated/events_init.c **** 		lv_obj_clear_flag(guider_ui.wave_model_btn_4, LV_OBJ_FLAG_HIDDEN);
 153:generated/events_init.c **** 		lv_obj_clear_flag(guider_ui.wave_model_btn_5, LV_OBJ_FLAG_HIDDEN);
 154:generated/events_init.c **** 		lv_obj_add_flag(guider_ui.wave_model_label_27, LV_OBJ_FLAG_HIDDEN);
 155:generated/events_init.c **** 		lv_obj_add_flag(guider_ui.wave_model_chart_2, LV_OBJ_FLAG_HIDDEN);
 156:generated/events_init.c **** 		lv_obj_clear_flag(guider_ui.wave_model_chart_3, LV_OBJ_FLAG_HIDDEN);
 157:generated/events_init.c **** 		lv_obj_add_flag(guider_ui.wave_model_img_1, LV_OBJ_FLAG_HIDDEN);
 158:generated/events_init.c **** 		lv_obj_clear_flag(guider_ui.wave_model_digital_clock_1, LV_OBJ_FLAG_HIDDEN);
 159:generated/events_init.c **** 		lv_obj_add_flag(guider_ui.wave_model_label_26, LV_OBJ_FLAG_HIDDEN);
 160:generated/events_init.c **** 		lv_obj_add_flag(guider_ui.wave_model_table_1, LV_OBJ_FLAG_HIDDEN);
 161:generated/events_init.c **** 		lv_obj_clear_flag(guider_ui.wave_model_btn_8, LV_OBJ_FLAG_HIDDEN);
 162:generated/events_init.c **** 		lv_obj_clear_flag(guider_ui.wave_model_btn_7, LV_OBJ_FLAG_HIDDEN);
 163:generated/events_init.c **** 
 164:generated/events_init.c **** 		lv_obj_clear_flag(guider_ui.wave_model_num_1, LV_OBJ_FLAG_HIDDEN);
 165:generated/events_init.c **** 		lv_obj_add_flag(guider_ui.wave_model_N_val, LV_OBJ_FLAG_HIDDEN);
 166:generated/events_init.c **** 		lv_obj_add_flag(guider_ui.wave_model_label_25, LV_OBJ_FLAG_HIDDEN);
 167:generated/events_init.c **** 		lv_obj_add_flag(guider_ui.wave_model_label_24, LV_OBJ_FLAG_HIDDEN);
 168:generated/events_init.c **** 		lv_obj_add_flag(guider_ui.wave_model_label_23, LV_OBJ_FLAG_HIDDEN);
 169:generated/events_init.c **** 		lv_obj_add_flag(guider_ui.wave_model_label_22, LV_OBJ_FLAG_HIDDEN);
 170:generated/events_init.c **** 		lv_obj_add_flag(guider_ui.wave_model_label_21, LV_OBJ_FLAG_HIDDEN);
 171:generated/events_init.c **** 		lv_obj_set_width(guider_ui.wave_model_three_value, 120);
 172:generated/events_init.c **** 		lv_obj_set_height(guider_ui.wave_model_three_value, 90);
 173:generated/events_init.c **** 		lv_obj_clear_flag(guider_ui.wave_model_three_value, LV_OBJ_FLAG_HIDDEN);
 174:generated/events_init.c **** 		lv_obj_set_width(guider_ui.wave_model_two_value, 120);
 175:generated/events_init.c **** 		lv_obj_set_height(guider_ui.wave_model_two_value, 90);
 176:generated/events_init.c **** 		lv_obj_clear_flag(guider_ui.wave_model_two_value, LV_OBJ_FLAG_HIDDEN);
 177:generated/events_init.c **** 		lv_obj_set_width(guider_ui.wave_model_one_value, 120);
 178:generated/events_init.c **** 		lv_obj_set_height(guider_ui.wave_model_one_value, 90);
 179:generated/events_init.c **** 		lv_obj_clear_flag(guider_ui.wave_model_one_value, LV_OBJ_FLAG_HIDDEN);
 180:generated/events_init.c **** 		lv_obj_add_flag(guider_ui.wave_model_N__, LV_OBJ_FLAG_HIDDEN);
 181:generated/events_init.c **** 		lv_obj_clear_flag(guider_ui.wave_model_three, LV_OBJ_FLAG_HIDDEN);
 182:generated/events_init.c **** 		lv_obj_clear_flag(guider_ui.wave_model_two, LV_OBJ_FLAG_HIDDEN);
 183:generated/events_init.c **** 		lv_obj_clear_flag(guider_ui.wave_model_red, LV_OBJ_FLAG_HIDDEN);
 184:generated/events_init.c **** 		lv_obj_add_flag(guider_ui.wave_model_blue, LV_OBJ_FLAG_HIDDEN);
 185:generated/events_init.c **** 		lv_obj_clear_flag(guider_ui.wave_model_green, LV_OBJ_FLAG_HIDDEN);
 186:generated/events_init.c **** 		lv_obj_clear_flag(guider_ui.wave_model_yellow, LV_OBJ_FLAG_HIDDEN);
 187:generated/events_init.c **** 		lv_obj_clear_flag(guider_ui.wave_model_freq, LV_OBJ_FLAG_HIDDEN);
 188:generated/events_init.c **** 		lv_obj_clear_flag(guider_ui.wave_model_power, LV_OBJ_FLAG_HIDDEN);
 189:generated/events_init.c **** 		lv_obj_clear_flag(guider_ui.wave_model_btn_1, LV_OBJ_FLAG_HIDDEN);
 190:generated/events_init.c **** 		lv_obj_clear_flag(guider_ui.wave_model_btn_2, LV_OBJ_FLAG_HIDDEN);
 191:generated/events_init.c **** 		lv_obj_clear_flag(guider_ui.wave_model_btn_3, LV_OBJ_FLAG_HIDDEN);
 192:generated/events_init.c **** 		lv_obj_clear_flag(guider_ui.wave_model_btn_4, LV_OBJ_FLAG_HIDDEN);
 193:generated/events_init.c **** 		lv_obj_clear_flag(guider_ui.wave_model_btn_5, LV_OBJ_FLAG_HIDDEN);
 194:generated/events_init.c **** 		lv_obj_clear_flag(guider_ui.wave_model_btn_6, LV_OBJ_FLAG_HIDDEN);
 195:generated/events_init.c **** 		lv_label_set_text(guider_ui.wave_model_btn_14_label, "Y-");
 196:generated/events_init.c **** 		lv_label_set_text(guider_ui.wave_model_btn_9_label, "Y+");
 197:generated/events_init.c **** 	}
 198:generated/events_init.c **** 	if (page == 3) // 最值
 199:generated/events_init.c **** 	{
 200:generated/events_init.c **** 
 201:generated/events_init.c **** 		lv_obj_add_flag(guider_ui.wave_model_chart_3, LV_OBJ_FLAG_HIDDEN);
 202:generated/events_init.c **** 		lv_obj_clear_flag(guider_ui.wave_model_btn_7, LV_OBJ_FLAG_HIDDEN);
ARM GAS  C:\usertemp\ccMiPmMS.s 			page 5


 203:generated/events_init.c **** 		lv_obj_set_width(guider_ui.wave_model_chart_2, 520);
 204:generated/events_init.c **** 		lv_obj_set_height(guider_ui.wave_model_chart_2, 280);
 205:generated/events_init.c **** 		lv_obj_set_pos(guider_ui.wave_model_chart_2, 47, 130);
 206:generated/events_init.c **** 		lv_obj_add_flag(guider_ui.wave_model_chart_2, LV_OBJ_FLAG_HIDDEN);
 207:generated/events_init.c **** 		lv_obj_clear_flag(guider_ui.wave_model_num_1, LV_OBJ_FLAG_HIDDEN);
 208:generated/events_init.c **** 		lv_obj_add_flag(guider_ui.wave_model_N_val, LV_OBJ_FLAG_HIDDEN);
 209:generated/events_init.c **** 		lv_obj_add_flag(guider_ui.wave_model_label_25, LV_OBJ_FLAG_HIDDEN);
 210:generated/events_init.c **** 		lv_obj_add_flag(guider_ui.wave_model_label_24, LV_OBJ_FLAG_HIDDEN);
 211:generated/events_init.c **** 		lv_obj_add_flag(guider_ui.wave_model_label_23, LV_OBJ_FLAG_HIDDEN);
 212:generated/events_init.c **** 		lv_obj_add_flag(guider_ui.wave_model_label_22, LV_OBJ_FLAG_HIDDEN);
 213:generated/events_init.c **** 		lv_obj_add_flag(guider_ui.wave_model_label_21, LV_OBJ_FLAG_HIDDEN);
 214:generated/events_init.c **** 		lv_obj_set_width(guider_ui.wave_model_three_value, 120);
 215:generated/events_init.c **** 		lv_obj_set_height(guider_ui.wave_model_three_value, 90);
 216:generated/events_init.c **** 		lv_obj_add_flag(guider_ui.wave_model_three_value, LV_OBJ_FLAG_HIDDEN);
 217:generated/events_init.c **** 		lv_obj_set_width(guider_ui.wave_model_two_value, 120);
 218:generated/events_init.c **** 		lv_obj_set_height(guider_ui.wave_model_two_value, 90);
 219:generated/events_init.c **** 		lv_obj_add_flag(guider_ui.wave_model_two_value, LV_OBJ_FLAG_HIDDEN);
 220:generated/events_init.c **** 		lv_obj_set_width(guider_ui.wave_model_one_value, 120);
 221:generated/events_init.c **** 		lv_obj_set_height(guider_ui.wave_model_one_value, 90);
 222:generated/events_init.c **** 		lv_obj_add_flag(guider_ui.wave_model_one_value, LV_OBJ_FLAG_HIDDEN);
 223:generated/events_init.c **** 		lv_obj_add_flag(guider_ui.wave_model_N__, LV_OBJ_FLAG_HIDDEN);
 224:generated/events_init.c **** 		lv_obj_set_pos(guider_ui.wave_model_num_1, 169, 100);
 225:generated/events_init.c **** 		lv_obj_set_pos(guider_ui.wave_model_three, 430, 98);
 226:generated/events_init.c **** 		lv_obj_set_pos(guider_ui.wave_model_two, 299, 98);
 227:generated/events_init.c **** 		lv_obj_set_pos(guider_ui.wave_model_red, 461, 95);
 228:generated/events_init.c **** 		lv_obj_set_pos(guider_ui.wave_model_green, 330, 95);
 229:generated/events_init.c **** 		lv_obj_set_pos(guider_ui.wave_model_yellow, 200, 95);
 230:generated/events_init.c **** 		lv_obj_clear_flag(guider_ui.wave_model_three, LV_OBJ_FLAG_HIDDEN);
 231:generated/events_init.c **** 		lv_obj_clear_flag(guider_ui.wave_model_two, LV_OBJ_FLAG_HIDDEN);
 232:generated/events_init.c **** 		lv_obj_clear_flag(guider_ui.wave_model_red, LV_OBJ_FLAG_HIDDEN);
 233:generated/events_init.c **** 		lv_obj_add_flag(guider_ui.wave_model_blue, LV_OBJ_FLAG_HIDDEN);
 234:generated/events_init.c **** 		lv_obj_clear_flag(guider_ui.wave_model_green, LV_OBJ_FLAG_HIDDEN);
 235:generated/events_init.c **** 		lv_obj_clear_flag(guider_ui.wave_model_yellow, LV_OBJ_FLAG_HIDDEN);
 236:generated/events_init.c **** 		lv_obj_clear_flag(guider_ui.wave_model_freq, LV_OBJ_FLAG_HIDDEN);
 237:generated/events_init.c **** 		lv_obj_clear_flag(guider_ui.wave_model_power, LV_OBJ_FLAG_HIDDEN);
 238:generated/events_init.c **** 
 239:generated/events_init.c **** 		lv_obj_clear_flag(guider_ui.wave_model_btn_1, LV_OBJ_FLAG_HIDDEN);
 240:generated/events_init.c **** 		lv_obj_clear_flag(guider_ui.wave_model_btn_2, LV_OBJ_FLAG_HIDDEN);
 241:generated/events_init.c **** 		lv_obj_clear_flag(guider_ui.wave_model_btn_3, LV_OBJ_FLAG_HIDDEN);
 242:generated/events_init.c **** 		lv_obj_clear_flag(guider_ui.wave_model_btn_4, LV_OBJ_FLAG_HIDDEN);
 243:generated/events_init.c **** 		lv_obj_clear_flag(guider_ui.wave_model_btn_5, LV_OBJ_FLAG_HIDDEN);
 244:generated/events_init.c **** 		lv_obj_clear_flag(guider_ui.wave_model_btn_6, LV_OBJ_FLAG_HIDDEN);
 245:generated/events_init.c **** 
 246:generated/events_init.c **** 		lv_obj_clear_flag(guider_ui.wave_model_btn_8, LV_OBJ_FLAG_HIDDEN);
 247:generated/events_init.c **** 		lv_obj_clear_flag(guider_ui.wave_model_table_1, LV_OBJ_FLAG_HIDDEN);
 248:generated/events_init.c **** 		lv_obj_add_flag(guider_ui.wave_model_label_26, LV_OBJ_FLAG_HIDDEN);
 249:generated/events_init.c **** 		lv_obj_clear_flag(guider_ui.wave_model_digital_clock_1, LV_OBJ_FLAG_HIDDEN);
 250:generated/events_init.c **** 		lv_obj_add_flag(guider_ui.wave_model_img_1, LV_OBJ_FLAG_HIDDEN);
 251:generated/events_init.c **** 		lv_obj_add_flag(guider_ui.wave_model_table_2, LV_OBJ_FLAG_HIDDEN);
 252:generated/events_init.c **** 	}
 253:generated/events_init.c **** 	if (page == 4) // 功率和电能模式
 254:generated/events_init.c **** 	{
 255:generated/events_init.c **** 		lv_obj_add_flag(guider_ui.wave_model_table_1, LV_OBJ_FLAG_HIDDEN);
 256:generated/events_init.c **** 		lv_obj_clear_flag(guider_ui.wave_model_table_2, LV_OBJ_FLAG_HIDDEN);
 257:generated/events_init.c **** 		lv_obj_clear_flag(guider_ui.wave_model_btn_7, LV_OBJ_FLAG_HIDDEN);
 258:generated/events_init.c **** 		lv_obj_set_width(guider_ui.wave_model_chart_2, 520);
 259:generated/events_init.c **** 		lv_obj_set_height(guider_ui.wave_model_chart_2, 280);
ARM GAS  C:\usertemp\ccMiPmMS.s 			page 6


 260:generated/events_init.c **** 		lv_obj_set_pos(guider_ui.wave_model_chart_2, 47, 130);
 261:generated/events_init.c **** 		lv_obj_add_flag(guider_ui.wave_model_chart_2, LV_OBJ_FLAG_HIDDEN);
 262:generated/events_init.c **** 		lv_obj_set_pos(guider_ui.wave_model_num_1, 209, 70);
 263:generated/events_init.c **** 		lv_obj_clear_flag(guider_ui.wave_model_num_1, LV_OBJ_FLAG_HIDDEN);
 264:generated/events_init.c **** 		lv_obj_add_flag(guider_ui.wave_model_N_val, LV_OBJ_FLAG_HIDDEN);
 265:generated/events_init.c **** 		lv_obj_add_flag(guider_ui.wave_model_label_25, LV_OBJ_FLAG_HIDDEN);
 266:generated/events_init.c **** 		lv_obj_add_flag(guider_ui.wave_model_label_24, LV_OBJ_FLAG_HIDDEN);
 267:generated/events_init.c **** 		lv_obj_add_flag(guider_ui.wave_model_label_23, LV_OBJ_FLAG_HIDDEN);
 268:generated/events_init.c **** 		lv_obj_add_flag(guider_ui.wave_model_label_22, LV_OBJ_FLAG_HIDDEN);
 269:generated/events_init.c **** 		lv_obj_add_flag(guider_ui.wave_model_label_21, LV_OBJ_FLAG_HIDDEN);
 270:generated/events_init.c **** 		lv_obj_set_width(guider_ui.wave_model_three_value, 120);
 271:generated/events_init.c **** 		lv_obj_set_height(guider_ui.wave_model_three_value, 90);
 272:generated/events_init.c **** 		lv_obj_add_flag(guider_ui.wave_model_three_value, LV_OBJ_FLAG_HIDDEN);
 273:generated/events_init.c **** 		lv_obj_set_width(guider_ui.wave_model_two_value, 120);
 274:generated/events_init.c **** 		lv_obj_set_height(guider_ui.wave_model_two_value, 90);
 275:generated/events_init.c **** 		lv_obj_add_flag(guider_ui.wave_model_two_value, LV_OBJ_FLAG_HIDDEN);
 276:generated/events_init.c **** 		lv_obj_set_width(guider_ui.wave_model_one_value, 120);
 277:generated/events_init.c **** 		lv_obj_set_height(guider_ui.wave_model_one_value, 90);
 278:generated/events_init.c **** 		lv_obj_add_flag(guider_ui.wave_model_one_value, LV_OBJ_FLAG_HIDDEN);
 279:generated/events_init.c **** 		lv_obj_add_flag(guider_ui.wave_model_N__, LV_OBJ_FLAG_HIDDEN);
 280:generated/events_init.c **** 		lv_obj_set_pos(guider_ui.wave_model_three, 470, 68);
 281:generated/events_init.c **** 		lv_obj_clear_flag(guider_ui.wave_model_three, LV_OBJ_FLAG_HIDDEN);
 282:generated/events_init.c **** 		lv_obj_set_pos(guider_ui.wave_model_two, 339, 68);
 283:generated/events_init.c **** 		lv_obj_clear_flag(guider_ui.wave_model_two, LV_OBJ_FLAG_HIDDEN);
 284:generated/events_init.c **** 		lv_obj_set_pos(guider_ui.wave_model_red, 501, 65);
 285:generated/events_init.c **** 		lv_obj_clear_flag(guider_ui.wave_model_red, LV_OBJ_FLAG_HIDDEN);
 286:generated/events_init.c **** 		lv_obj_add_flag(guider_ui.wave_model_blue, LV_OBJ_FLAG_HIDDEN);
 287:generated/events_init.c **** 		lv_obj_set_pos(guider_ui.wave_model_green, 370, 65);
 288:generated/events_init.c **** 		lv_obj_clear_flag(guider_ui.wave_model_green, LV_OBJ_FLAG_HIDDEN);
 289:generated/events_init.c **** 		lv_obj_set_pos(guider_ui.wave_model_yellow, 240, 65);
 290:generated/events_init.c **** 		lv_obj_clear_flag(guider_ui.wave_model_yellow, LV_OBJ_FLAG_HIDDEN);
 291:generated/events_init.c **** 		lv_obj_clear_flag(guider_ui.wave_model_freq, LV_OBJ_FLAG_HIDDEN);
 292:generated/events_init.c **** 		lv_obj_clear_flag(guider_ui.wave_model_power, LV_OBJ_FLAG_HIDDEN);
 293:generated/events_init.c **** 		lv_obj_clear_flag(guider_ui.wave_model_btn_1, LV_OBJ_FLAG_HIDDEN);
 294:generated/events_init.c **** 		lv_obj_clear_flag(guider_ui.wave_model_btn_2, LV_OBJ_FLAG_HIDDEN);
 295:generated/events_init.c **** 		lv_obj_clear_flag(guider_ui.wave_model_btn_3, LV_OBJ_FLAG_HIDDEN);
 296:generated/events_init.c **** 		lv_obj_clear_flag(guider_ui.wave_model_btn_4, LV_OBJ_FLAG_HIDDEN);
 297:generated/events_init.c **** 		lv_obj_clear_flag(guider_ui.wave_model_btn_5, LV_OBJ_FLAG_HIDDEN);
 298:generated/events_init.c **** 		lv_obj_clear_flag(guider_ui.wave_model_btn_6, LV_OBJ_FLAG_HIDDEN);
 299:generated/events_init.c **** 		lv_obj_clear_flag(guider_ui.wave_model_btn_8, LV_OBJ_FLAG_HIDDEN);
 300:generated/events_init.c **** 		// lv_obj_clear_flag(guider_ui.wave_model_table_1, LV_OBJ_FLAG_HIDDEN);
 301:generated/events_init.c **** 		lv_obj_clear_flag(guider_ui.wave_model_label_26, LV_OBJ_FLAG_HIDDEN);
 302:generated/events_init.c **** 		lv_obj_clear_flag(guider_ui.wave_model_digital_clock_1, LV_OBJ_FLAG_HIDDEN);
 303:generated/events_init.c **** 		lv_obj_add_flag(guider_ui.wave_model_img_1, LV_OBJ_FLAG_HIDDEN);
 304:generated/events_init.c **** 	}
 305:generated/events_init.c **** }
 306:generated/events_init.c **** 
 307:generated/events_init.c **** static void wave_model_event_handler(lv_event_t *e)
 308:generated/events_init.c **** {
 309:generated/events_init.c **** 	lv_event_code_t code = lv_event_get_code(e);
 310:generated/events_init.c **** 
 311:generated/events_init.c **** 	switch (code)
 312:generated/events_init.c **** 	{
 313:generated/events_init.c **** 	case LV_EVENT_GESTURE:
 314:generated/events_init.c **** 	{
 315:generated/events_init.c **** 		lv_dir_t dir = lv_indev_get_gesture_dir(lv_indev_get_act());
 316:generated/events_init.c **** 		switch (dir)
ARM GAS  C:\usertemp\ccMiPmMS.s 			page 7


 317:generated/events_init.c **** 		{
 318:generated/events_init.c **** 		case LV_DIR_LEFT:
 319:generated/events_init.c **** 		{
 320:generated/events_init.c **** 			lv_indev_wait_release(lv_indev_get_act());
 321:generated/events_init.c **** 			break;
 322:generated/events_init.c **** 		}
 323:generated/events_init.c **** 		}
 324:generated/events_init.c **** 		break;
 325:generated/events_init.c **** 	}
 326:generated/events_init.c **** 	default:
 327:generated/events_init.c **** 		break;
 328:generated/events_init.c **** 	}
 329:generated/events_init.c **** }
 330:generated/events_init.c **** static void wave_model_btn_2_event_handler(lv_event_t *e) // 电压电流波形切换
 331:generated/events_init.c **** {
 332:generated/events_init.c **** 	lv_event_code_t code = lv_event_get_code(e);
 333:generated/events_init.c **** 
 334:generated/events_init.c **** 	switch (code)
 335:generated/events_init.c **** 	{
 336:generated/events_init.c **** 	case LV_EVENT_CLICKED:
 337:generated/events_init.c **** 	{
 338:generated/events_init.c **** 		V_I_flag = !V_I_flag;
 339:generated/events_init.c **** 		if (V_I_flag == 1)
 340:generated/events_init.c **** 		{ // 显示电流
 341:generated/events_init.c **** 			ser1_I->hidden = 0;
 342:generated/events_init.c **** 			ser2_I->hidden = 0;
 343:generated/events_init.c **** 			ser3_I->hidden = 0;
 344:generated/events_init.c **** 			serN_I->hidden = 0;
 345:generated/events_init.c **** 			L2_I_flag = 0;
 346:generated/events_init.c **** 			L1_I_flag = 0;
 347:generated/events_init.c **** 			L3_I_flag = 0;
 348:generated/events_init.c **** 			LN_I_flag = 0;
 349:generated/events_init.c **** 
 350:generated/events_init.c **** 			ser1->hidden = 1;
 351:generated/events_init.c **** 			ser2->hidden = 1;
 352:generated/events_init.c **** 			ser3->hidden = 1;
 353:generated/events_init.c **** 			serN->hidden = 1;
 354:generated/events_init.c **** 			L2_flag = 1;
 355:generated/events_init.c **** 			L1_flag = 1;
 356:generated/events_init.c **** 			L3_flag = 1;
 357:generated/events_init.c **** 			LN_flag = 1;
 358:generated/events_init.c **** 
 359:generated/events_init.c **** 			lv_label_set_text(guider_ui.wave_model_btn_2_label, "I");
 360:generated/events_init.c **** 		}
 361:generated/events_init.c **** 		else
 362:generated/events_init.c **** 		{ // 显示电压
 363:generated/events_init.c **** 
 364:generated/events_init.c **** 			lv_label_set_text(guider_ui.wave_model_btn_2_label, "V");
 365:generated/events_init.c **** 			ser1->hidden = 0;
 366:generated/events_init.c **** 			ser2->hidden = 0;
 367:generated/events_init.c **** 			ser3->hidden = 0;
 368:generated/events_init.c **** 			serN->hidden = 0;
 369:generated/events_init.c **** 			L2_flag = 0;
 370:generated/events_init.c **** 			L1_flag = 0;
 371:generated/events_init.c **** 			L3_flag = 0;
 372:generated/events_init.c **** 			LN_flag = 0;
 373:generated/events_init.c **** 
ARM GAS  C:\usertemp\ccMiPmMS.s 			page 8


 374:generated/events_init.c **** 			ser1_I->hidden = 1;
 375:generated/events_init.c **** 			ser2_I->hidden = 1;
 376:generated/events_init.c **** 			ser3_I->hidden = 1;
 377:generated/events_init.c **** 			serN_I->hidden = 1;
 378:generated/events_init.c **** 			L2_I_flag = 1;
 379:generated/events_init.c **** 			L1_I_flag = 1;
 380:generated/events_init.c **** 			L3_I_flag = 1;
 381:generated/events_init.c **** 			LN_I_flag = 1;
 382:generated/events_init.c **** 		}
 383:generated/events_init.c **** 		break;
 384:generated/events_init.c **** 	}
 385:generated/events_init.c **** 	default:
 386:generated/events_init.c **** 		break;
 387:generated/events_init.c **** 	}
 388:generated/events_init.c **** }
 389:generated/events_init.c **** static void wave_model_btn_7_event_handler(lv_event_t *e)
 390:generated/events_init.c **** {
 391:generated/events_init.c **** 	lv_event_code_t code = lv_event_get_code(e);
 392:generated/events_init.c **** 
 393:generated/events_init.c **** 	switch (code)
 394:generated/events_init.c **** 	{
 395:generated/events_init.c **** 	case LV_EVENT_CLICKED:
 396:generated/events_init.c **** 	{
 397:generated/events_init.c **** 		page++;
 398:generated/events_init.c **** 		if (page > 4)
 399:generated/events_init.c **** 			page = 0;
 400:generated/events_init.c **** 		page_switch();
 401:generated/events_init.c **** 
 402:generated/events_init.c **** 		break;
 403:generated/events_init.c **** 	}
 404:generated/events_init.c **** 	default:
 405:generated/events_init.c **** 		break;
 406:generated/events_init.c **** 	}
 407:generated/events_init.c **** }
 408:generated/events_init.c **** static void wave_model_btn_8_event_handler(lv_event_t *e)
 409:generated/events_init.c **** {
 410:generated/events_init.c **** 	lv_event_code_t code = lv_event_get_code(e);
 411:generated/events_init.c **** 
 412:generated/events_init.c **** 	switch (code)
 413:generated/events_init.c **** 	{
 414:generated/events_init.c **** 	case LV_EVENT_CLICKED:
 415:generated/events_init.c **** 	{
 416:generated/events_init.c **** 		page--;
 417:generated/events_init.c **** 		if (page < 0)
 418:generated/events_init.c **** 			page = 4;
 419:generated/events_init.c **** 
 420:generated/events_init.c **** 		page_switch();
 421:generated/events_init.c **** 		break;
 422:generated/events_init.c **** 	}
 423:generated/events_init.c **** 	default:
 424:generated/events_init.c **** 		break;
 425:generated/events_init.c **** 	}
 426:generated/events_init.c **** }
 427:generated/events_init.c **** 
 428:generated/events_init.c **** static void wave_model_btn_1_event_handler(lv_event_t *e) // L1
 429:generated/events_init.c **** {
 430:generated/events_init.c **** 	lv_event_code_t code = lv_event_get_code(e);
ARM GAS  C:\usertemp\ccMiPmMS.s 			page 9


 431:generated/events_init.c **** 
 432:generated/events_init.c **** 	switch (code)
 433:generated/events_init.c **** 	{
 434:generated/events_init.c **** 	case LV_EVENT_CLICKED:
 435:generated/events_init.c **** 	{
 436:generated/events_init.c **** 		if (V_I_flag == 1)
 437:generated/events_init.c **** 		{
 438:generated/events_init.c **** 			L1_I_flag = !L1_I_flag;
 439:generated/events_init.c **** 			ser1_I->hidden = L1_I_flag;
 440:generated/events_init.c **** 		}
 441:generated/events_init.c **** 
 442:generated/events_init.c **** 		else if (V_I_flag == 0)
 443:generated/events_init.c **** 		{
 444:generated/events_init.c **** 			L1_flag = !L1_flag;
 445:generated/events_init.c **** 			ser1->hidden = L1_flag;
 446:generated/events_init.c **** 		}
 447:generated/events_init.c **** 
 448:generated/events_init.c **** 		break;
 449:generated/events_init.c **** 	}
 450:generated/events_init.c **** 	default:
 451:generated/events_init.c **** 		break;
 452:generated/events_init.c **** 	}
 453:generated/events_init.c **** }
 454:generated/events_init.c **** static void wave_model_btn_3_event_handler(lv_event_t *e) // L2
 455:generated/events_init.c **** {
 456:generated/events_init.c **** 	lv_event_code_t code = lv_event_get_code(e);
 457:generated/events_init.c **** 
 458:generated/events_init.c **** 	switch (code)
 459:generated/events_init.c **** 	{
 460:generated/events_init.c **** 	case LV_EVENT_CLICKED:
 461:generated/events_init.c **** 	{
 462:generated/events_init.c **** 		if (V_I_flag == 1)
 463:generated/events_init.c **** 		{
 464:generated/events_init.c **** 			L2_I_flag = !L2_I_flag;
 465:generated/events_init.c **** 			ser2_I->hidden = L2_I_flag;
 466:generated/events_init.c **** 		}
 467:generated/events_init.c **** 
 468:generated/events_init.c **** 		else if (V_I_flag == 0)
 469:generated/events_init.c **** 		{
 470:generated/events_init.c **** 			L2_flag = !L2_flag;
 471:generated/events_init.c **** 			ser2->hidden = L2_flag;
 472:generated/events_init.c **** 		}
 473:generated/events_init.c **** 
 474:generated/events_init.c **** 		break;
 475:generated/events_init.c **** 	}
 476:generated/events_init.c **** 	default:
 477:generated/events_init.c **** 		break;
 478:generated/events_init.c **** 	}
 479:generated/events_init.c **** }
 480:generated/events_init.c **** static void wave_model_btn_4_event_handler(lv_event_t *e) // L3
 481:generated/events_init.c **** {
 482:generated/events_init.c **** 	lv_event_code_t code = lv_event_get_code(e);
 483:generated/events_init.c **** 
 484:generated/events_init.c **** 	switch (code)
 485:generated/events_init.c **** 	{
 486:generated/events_init.c **** 	case LV_EVENT_CLICKED:
 487:generated/events_init.c **** 	{
ARM GAS  C:\usertemp\ccMiPmMS.s 			page 10


 488:generated/events_init.c **** 		if (V_I_flag == 1)
 489:generated/events_init.c **** 		{
 490:generated/events_init.c **** 			L3_I_flag = !L3_I_flag;
 491:generated/events_init.c **** 			ser3_I->hidden = L3_I_flag;
 492:generated/events_init.c **** 		}
 493:generated/events_init.c **** 
 494:generated/events_init.c **** 		else if (V_I_flag == 0)
 495:generated/events_init.c **** 		{
 496:generated/events_init.c **** 			L3_flag = !L3_flag;
 497:generated/events_init.c **** 			ser3->hidden = L3_flag;
 498:generated/events_init.c **** 		}
 499:generated/events_init.c **** 		break;
 500:generated/events_init.c **** 	}
 501:generated/events_init.c **** 	default:
 502:generated/events_init.c **** 		break;
 503:generated/events_init.c **** 	}
 504:generated/events_init.c **** }
 505:generated/events_init.c **** static void wave_model_btn_5_event_handler(lv_event_t *e) // LN
 506:generated/events_init.c **** {
 507:generated/events_init.c **** 	lv_event_code_t code = lv_event_get_code(e);
 508:generated/events_init.c **** 
 509:generated/events_init.c **** 	switch (code)
 510:generated/events_init.c **** 	{
 511:generated/events_init.c **** 	case LV_EVENT_CLICKED:
 512:generated/events_init.c **** 	{
 513:generated/events_init.c **** 		if (V_I_flag == 1)
 514:generated/events_init.c **** 		{
 515:generated/events_init.c **** 			LN_I_flag = !LN_I_flag;
 516:generated/events_init.c **** 			serN_I->hidden = LN_I_flag;
 517:generated/events_init.c **** 		}
 518:generated/events_init.c **** 
 519:generated/events_init.c **** 		else if (V_I_flag == 0)
 520:generated/events_init.c **** 		{
 521:generated/events_init.c **** 			LN_flag = !LN_flag;
 522:generated/events_init.c **** 			serN->hidden = LN_flag;
 523:generated/events_init.c **** 		}
 524:generated/events_init.c **** 		break;
 525:generated/events_init.c **** 	}
 526:generated/events_init.c **** 	default:
 527:generated/events_init.c **** 		break;
 528:generated/events_init.c **** 	}
 529:generated/events_init.c **** }
 530:generated/events_init.c **** static void wave_model_btn_6_event_handler(lv_event_t *e) // Ca截屏
 531:generated/events_init.c **** {
 532:generated/events_init.c **** 	lv_event_code_t code = lv_event_get_code(e);
 533:generated/events_init.c **** 
 534:generated/events_init.c **** 	switch (code)
 535:generated/events_init.c **** 	{
 536:generated/events_init.c **** 	case LV_EVENT_LONG_PRESSED:
 537:generated/events_init.c **** 	{
 538:generated/events_init.c **** 		char filename[60] = {0};
 539:generated/events_init.c **** 		uint8_t temp = 0;
 540:generated/events_init.c **** 
 541:generated/events_init.c **** 		vTaskSuspendAll();
 542:generated/events_init.c **** 		taskENTER_CRITICAL();
 543:generated/events_init.c **** 		if (page == 0)
 544:generated/events_init.c **** 		{
ARM GAS  C:\usertemp\ccMiPmMS.s 			page 11


 545:generated/events_init.c **** 			sprintf(filename, "0:test/p%d%d%d.bin", wave_model_digital_clock_1_hour_value, wave_model_digita
 546:generated/events_init.c **** 			if (take_snapshot_with_buffer(guider_ui.wave_model_chart_2, filename))
 547:generated/events_init.c **** 			{
 548:generated/events_init.c **** 				sd_count++;
 549:generated/events_init.c **** 				//msg_notice(guider_ui.wave_model_msg, 2000, "截屏成功");
 550:generated/events_init.c **** 				temp = 1;
 551:generated/events_init.c **** 				LV_LOG_USER("sd_count = %d\r\n", sd_count);
 552:generated/events_init.c **** 				refersh_lvgl_image(guider_ui.wave_model_img_1);
 553:generated/events_init.c **** 			}
 554:generated/events_init.c **** 			else
 555:generated/events_init.c **** 			{
 556:generated/events_init.c **** 				temp = 0;
 557:generated/events_init.c **** 			}
 558:generated/events_init.c **** 		}
 559:generated/events_init.c **** 
 560:generated/events_init.c **** 		taskEXIT_CRITICAL();
 561:generated/events_init.c **** 		xTaskResumeAll();
 562:generated/events_init.c **** 		if (temp)
 563:generated/events_init.c **** 		{
 564:generated/events_init.c **** 			msg_notice(guider_ui.wave_model_msg, 2000, "Screenshot successful");
 565:generated/events_init.c **** 		}
 566:generated/events_init.c **** 		else
 567:generated/events_init.c **** 		{
 568:generated/events_init.c **** 			msg_notice(guider_ui.wave_model_msg, 2000, "Screenshot failed");
 569:generated/events_init.c **** 		}
 570:generated/events_init.c **** 
 571:generated/events_init.c **** 		break;
 572:generated/events_init.c **** 	}
 573:generated/events_init.c **** 	default:
 574:generated/events_init.c **** 		break;
 575:generated/events_init.c **** 	}
 576:generated/events_init.c **** }
 577:generated/events_init.c **** static void wave_model_btn_9_event_handler(lv_event_t *e) // X+
 578:generated/events_init.c **** {
 579:generated/events_init.c **** 	lv_event_code_t code = lv_event_get_code(e);
 580:generated/events_init.c **** 
 581:generated/events_init.c **** 	switch (code)
 582:generated/events_init.c **** 	{
 583:generated/events_init.c **** 	case LV_EVENT_CLICKED:
 584:generated/events_init.c **** 	{
 585:generated/events_init.c **** 		// taskENTER_CRITICAL();
 586:generated/events_init.c **** 		if (page == 0)
 587:generated/events_init.c **** 		{
 588:generated/events_init.c **** 			step--;
 589:generated/events_init.c **** 			if (step == 0)
 590:generated/events_init.c **** 			{
 591:generated/events_init.c **** 				step = 1;
 592:generated/events_init.c **** 			}
 593:generated/events_init.c **** 		}
 594:generated/events_init.c **** 		else if (page == 1)
 595:generated/events_init.c **** 		{
 596:generated/events_init.c **** 			vTaskSuspendAll();
 597:generated/events_init.c **** 			taskENTER_CRITICAL();
 598:generated/events_init.c **** 			file_now--;
 599:generated/events_init.c **** 			if (file_now < 0)
 600:generated/events_init.c **** 			{
 601:generated/events_init.c **** 				LV_LOG_USER("file_now < 0, set to sd_count\r\n");
ARM GAS  C:\usertemp\ccMiPmMS.s 			page 12


 602:generated/events_init.c **** 				file_now = sd_count;
 603:generated/events_init.c **** 			}
 604:generated/events_init.c **** 			LV_LOG_USER("set filenow to %d", file_now);
 605:generated/events_init.c **** 		}
 606:generated/events_init.c **** 		uint8_t temp = OpenFileByIndex("0:test", file_now);
 607:generated/events_init.c **** 		if (temp)
 608:generated/events_init.c **** 		{
 609:generated/events_init.c **** 			refersh_lvgl_image(guider_ui.wave_model_img_1);
 610:generated/events_init.c **** 		}
 611:generated/events_init.c **** 		taskEXIT_CRITICAL();
 612:generated/events_init.c **** 		xTaskResumeAll();
 613:generated/events_init.c **** 
 614:generated/events_init.c **** 		// taskENTER_CRITICAL();
 615:generated/events_init.c **** 		break;
 616:generated/events_init.c **** 	}
 617:generated/events_init.c **** 	default:
 618:generated/events_init.c **** 		break;
 619:generated/events_init.c **** 	}
 620:generated/events_init.c **** }
 621:generated/events_init.c **** static void wave_model_btn_10_event_handler(lv_event_t *e) // X-
 622:generated/events_init.c **** {
 623:generated/events_init.c **** 	lv_event_code_t code = lv_event_get_code(e);
 624:generated/events_init.c **** 
 625:generated/events_init.c **** 	switch (code)
 626:generated/events_init.c **** 	{
 627:generated/events_init.c **** 	case LV_EVENT_CLICKED:
 628:generated/events_init.c **** 	{
 629:generated/events_init.c **** 		// taskENTER_CRITICAL();
 630:generated/events_init.c **** 		step++;
 631:generated/events_init.c **** 		// taskENTER_CRITICAL();
 632:generated/events_init.c **** 		break;
 633:generated/events_init.c **** 	}
 634:generated/events_init.c **** 	default:
 635:generated/events_init.c **** 		break;
 636:generated/events_init.c **** 	}
 637:generated/events_init.c **** }
 638:generated/events_init.c **** static void wave_model_btn_11_event_handler(lv_event_t *e)
 639:generated/events_init.c **** {
 640:generated/events_init.c **** 	lv_event_code_t code = lv_event_get_code(e);
 641:generated/events_init.c **** 
 642:generated/events_init.c **** 	switch (code)
 643:generated/events_init.c **** 	{
 644:generated/events_init.c **** 	case LV_EVENT_CLICKED:
 645:generated/events_init.c **** 	{
 646:generated/events_init.c **** 		level += 5;
 647:generated/events_init.c **** 		break;
 648:generated/events_init.c **** 	}
 649:generated/events_init.c **** 	default:
 650:generated/events_init.c **** 		break;
 651:generated/events_init.c **** 	}
 652:generated/events_init.c **** }
 653:generated/events_init.c **** static void wave_model_btn_12_event_handler(lv_event_t *e)
 654:generated/events_init.c **** {
 655:generated/events_init.c **** 	lv_event_code_t code = lv_event_get_code(e);
 656:generated/events_init.c **** 
 657:generated/events_init.c **** 	switch (code)
 658:generated/events_init.c **** 	{
ARM GAS  C:\usertemp\ccMiPmMS.s 			page 13


 659:generated/events_init.c **** 	case LV_EVENT_CLICKED:
 660:generated/events_init.c **** 	{
 661:generated/events_init.c **** 		level -= 5;
 662:generated/events_init.c **** 		break;
 663:generated/events_init.c **** 	}
 664:generated/events_init.c **** 	default:
 665:generated/events_init.c **** 		break;
 666:generated/events_init.c **** 	}
 667:generated/events_init.c **** }
 668:generated/events_init.c **** static void wave_model_btn_13_event_handler(lv_event_t *e) // Y+
 669:generated/events_init.c **** {
  28              		.loc 1 669 1 view -0
  29              		.cfi_startproc
  30              		@ args = 0, pretend = 0, frame = 0
  31              		@ frame_needed = 0, uses_anonymous_args = 0
  32              		.loc 1 669 1 is_stmt 0 view .LVU1
  33 0000 08B5     		push	{r3, lr}
  34              	.LCFI0:
  35              		.cfi_def_cfa_offset 8
  36              		.cfi_offset 3, -8
  37              		.cfi_offset 14, -4
 670:generated/events_init.c **** 	lv_event_code_t code = lv_event_get_code(e);
  38              		.loc 1 670 2 is_stmt 1 view .LVU2
  39              		.loc 1 670 25 is_stmt 0 view .LVU3
  40 0002 FFF7FEFF 		bl	lv_event_get_code
  41              	.LVL1:
 671:generated/events_init.c **** 
 672:generated/events_init.c **** 	switch (code)
  42              		.loc 1 672 2 is_stmt 1 view .LVU4
  43 0006 0728     		cmp	r0, #7
  44 0008 00D0     		beq	.L4
  45              	.L1:
 673:generated/events_init.c **** 	{
 674:generated/events_init.c **** 	case LV_EVENT_CLICKED:
 675:generated/events_init.c **** 	{
 676:generated/events_init.c **** 		// taskENTER_CRITICAL();
 677:generated/events_init.c **** 		rat += 10;
 678:generated/events_init.c **** 		// taskENTER_CRITICAL();
 679:generated/events_init.c **** 		break;
 680:generated/events_init.c **** 	}
 681:generated/events_init.c **** 	default:
 682:generated/events_init.c **** 		break;
 683:generated/events_init.c **** 	}
 684:generated/events_init.c **** }
  46              		.loc 1 684 1 is_stmt 0 view .LVU5
  47 000a 08BD     		pop	{r3, pc}
  48              	.L4:
 677:generated/events_init.c **** 		// taskENTER_CRITICAL();
  49              		.loc 1 677 3 is_stmt 1 view .LVU6
 677:generated/events_init.c **** 		// taskENTER_CRITICAL();
  50              		.loc 1 677 7 is_stmt 0 view .LVU7
  51 000c 044B     		ldr	r3, .L5
  52 000e D3ED007A 		vldr.32	s15, [r3]
  53 0012 B2EE047A 		vmov.f32	s14, #1.0e+1
  54 0016 77EE877A 		vadd.f32	s15, s15, s14
  55 001a C3ED007A 		vstr.32	s15, [r3]
 679:generated/events_init.c **** 	}
ARM GAS  C:\usertemp\ccMiPmMS.s 			page 14


  56              		.loc 1 679 3 is_stmt 1 view .LVU8
  57              		.loc 1 684 1 is_stmt 0 view .LVU9
  58 001e F4E7     		b	.L1
  59              	.L6:
  60              		.align	2
  61              	.L5:
  62 0020 00000000 		.word	rat
  63              		.cfi_endproc
  64              	.LFE612:
  66              		.section	.text.wave_model_btn_12_event_handler,"ax",%progbits
  67              		.align	1
  68              		.syntax unified
  69              		.thumb
  70              		.thumb_func
  72              	wave_model_btn_12_event_handler:
  73              	.LVL2:
  74              	.LFB611:
 654:generated/events_init.c **** 	lv_event_code_t code = lv_event_get_code(e);
  75              		.loc 1 654 1 is_stmt 1 view -0
  76              		.cfi_startproc
  77              		@ args = 0, pretend = 0, frame = 0
  78              		@ frame_needed = 0, uses_anonymous_args = 0
 654:generated/events_init.c **** 	lv_event_code_t code = lv_event_get_code(e);
  79              		.loc 1 654 1 is_stmt 0 view .LVU11
  80 0000 08B5     		push	{r3, lr}
  81              	.LCFI1:
  82              		.cfi_def_cfa_offset 8
  83              		.cfi_offset 3, -8
  84              		.cfi_offset 14, -4
 655:generated/events_init.c **** 
  85              		.loc 1 655 2 is_stmt 1 view .LVU12
 655:generated/events_init.c **** 
  86              		.loc 1 655 25 is_stmt 0 view .LVU13
  87 0002 FFF7FEFF 		bl	lv_event_get_code
  88              	.LVL3:
 657:generated/events_init.c **** 	{
  89              		.loc 1 657 2 is_stmt 1 view .LVU14
  90 0006 0728     		cmp	r0, #7
  91 0008 00D0     		beq	.L10
  92              	.L7:
 667:generated/events_init.c **** static void wave_model_btn_13_event_handler(lv_event_t *e) // Y+
  93              		.loc 1 667 1 is_stmt 0 view .LVU15
  94 000a 08BD     		pop	{r3, pc}
  95              	.L10:
 661:generated/events_init.c **** 		break;
  96              		.loc 1 661 3 is_stmt 1 view .LVU16
 661:generated/events_init.c **** 		break;
  97              		.loc 1 661 9 is_stmt 0 view .LVU17
  98 000c 044B     		ldr	r3, .L11
  99 000e D3ED007A 		vldr.32	s15, [r3]
 100 0012 B1EE047A 		vmov.f32	s14, #5.0e+0
 101 0016 77EEC77A 		vsub.f32	s15, s15, s14
 102 001a C3ED007A 		vstr.32	s15, [r3]
 662:generated/events_init.c **** 	}
 103              		.loc 1 662 3 is_stmt 1 view .LVU18
 667:generated/events_init.c **** static void wave_model_btn_13_event_handler(lv_event_t *e) // Y+
 104              		.loc 1 667 1 is_stmt 0 view .LVU19
ARM GAS  C:\usertemp\ccMiPmMS.s 			page 15


 105 001e F4E7     		b	.L7
 106              	.L12:
 107              		.align	2
 108              	.L11:
 109 0020 00000000 		.word	level
 110              		.cfi_endproc
 111              	.LFE611:
 113              		.section	.text.wave_model_btn_11_event_handler,"ax",%progbits
 114              		.align	1
 115              		.syntax unified
 116              		.thumb
 117              		.thumb_func
 119              	wave_model_btn_11_event_handler:
 120              	.LVL4:
 121              	.LFB610:
 639:generated/events_init.c **** 	lv_event_code_t code = lv_event_get_code(e);
 122              		.loc 1 639 1 is_stmt 1 view -0
 123              		.cfi_startproc
 124              		@ args = 0, pretend = 0, frame = 0
 125              		@ frame_needed = 0, uses_anonymous_args = 0
 639:generated/events_init.c **** 	lv_event_code_t code = lv_event_get_code(e);
 126              		.loc 1 639 1 is_stmt 0 view .LVU21
 127 0000 08B5     		push	{r3, lr}
 128              	.LCFI2:
 129              		.cfi_def_cfa_offset 8
 130              		.cfi_offset 3, -8
 131              		.cfi_offset 14, -4
 640:generated/events_init.c **** 
 132              		.loc 1 640 2 is_stmt 1 view .LVU22
 640:generated/events_init.c **** 
 133              		.loc 1 640 25 is_stmt 0 view .LVU23
 134 0002 FFF7FEFF 		bl	lv_event_get_code
 135              	.LVL5:
 642:generated/events_init.c **** 	{
 136              		.loc 1 642 2 is_stmt 1 view .LVU24
 137 0006 0728     		cmp	r0, #7
 138 0008 00D0     		beq	.L16
 139              	.L13:
 652:generated/events_init.c **** static void wave_model_btn_12_event_handler(lv_event_t *e)
 140              		.loc 1 652 1 is_stmt 0 view .LVU25
 141 000a 08BD     		pop	{r3, pc}
 142              	.L16:
 646:generated/events_init.c **** 		break;
 143              		.loc 1 646 3 is_stmt 1 view .LVU26
 646:generated/events_init.c **** 		break;
 144              		.loc 1 646 9 is_stmt 0 view .LVU27
 145 000c 044B     		ldr	r3, .L17
 146 000e D3ED007A 		vldr.32	s15, [r3]
 147 0012 B1EE047A 		vmov.f32	s14, #5.0e+0
 148 0016 77EE877A 		vadd.f32	s15, s15, s14
 149 001a C3ED007A 		vstr.32	s15, [r3]
 647:generated/events_init.c **** 	}
 150              		.loc 1 647 3 is_stmt 1 view .LVU28
 652:generated/events_init.c **** static void wave_model_btn_12_event_handler(lv_event_t *e)
 151              		.loc 1 652 1 is_stmt 0 view .LVU29
 152 001e F4E7     		b	.L13
 153              	.L18:
ARM GAS  C:\usertemp\ccMiPmMS.s 			page 16


 154              		.align	2
 155              	.L17:
 156 0020 00000000 		.word	level
 157              		.cfi_endproc
 158              	.LFE610:
 160              		.section	.text.wave_model_btn_10_event_handler,"ax",%progbits
 161              		.align	1
 162              		.syntax unified
 163              		.thumb
 164              		.thumb_func
 166              	wave_model_btn_10_event_handler:
 167              	.LVL6:
 168              	.LFB609:
 622:generated/events_init.c **** 	lv_event_code_t code = lv_event_get_code(e);
 169              		.loc 1 622 1 is_stmt 1 view -0
 170              		.cfi_startproc
 171              		@ args = 0, pretend = 0, frame = 0
 172              		@ frame_needed = 0, uses_anonymous_args = 0
 622:generated/events_init.c **** 	lv_event_code_t code = lv_event_get_code(e);
 173              		.loc 1 622 1 is_stmt 0 view .LVU31
 174 0000 08B5     		push	{r3, lr}
 175              	.LCFI3:
 176              		.cfi_def_cfa_offset 8
 177              		.cfi_offset 3, -8
 178              		.cfi_offset 14, -4
 623:generated/events_init.c **** 
 179              		.loc 1 623 2 is_stmt 1 view .LVU32
 623:generated/events_init.c **** 
 180              		.loc 1 623 25 is_stmt 0 view .LVU33
 181 0002 FFF7FEFF 		bl	lv_event_get_code
 182              	.LVL7:
 625:generated/events_init.c **** 	{
 183              		.loc 1 625 2 is_stmt 1 view .LVU34
 184 0006 0728     		cmp	r0, #7
 185 0008 00D0     		beq	.L22
 186              	.L19:
 637:generated/events_init.c **** static void wave_model_btn_11_event_handler(lv_event_t *e)
 187              		.loc 1 637 1 is_stmt 0 view .LVU35
 188 000a 08BD     		pop	{r3, pc}
 189              	.L22:
 630:generated/events_init.c **** 		// taskENTER_CRITICAL();
 190              		.loc 1 630 3 is_stmt 1 view .LVU36
 630:generated/events_init.c **** 		// taskENTER_CRITICAL();
 191              		.loc 1 630 7 is_stmt 0 view .LVU37
 192 000c 044B     		ldr	r3, .L23
 193 000e D3ED007A 		vldr.32	s15, [r3]
 194 0012 B7EE007A 		vmov.f32	s14, #1.0e+0
 195 0016 77EE877A 		vadd.f32	s15, s15, s14
 196 001a C3ED007A 		vstr.32	s15, [r3]
 632:generated/events_init.c **** 	}
 197              		.loc 1 632 3 is_stmt 1 view .LVU38
 637:generated/events_init.c **** static void wave_model_btn_11_event_handler(lv_event_t *e)
 198              		.loc 1 637 1 is_stmt 0 view .LVU39
 199 001e F4E7     		b	.L19
 200              	.L24:
 201              		.align	2
 202              	.L23:
ARM GAS  C:\usertemp\ccMiPmMS.s 			page 17


 203 0020 00000000 		.word	step
 204              		.cfi_endproc
 205              	.LFE609:
 207              		.section	.text.wave_model_btn_5_event_handler,"ax",%progbits
 208              		.align	1
 209              		.syntax unified
 210              		.thumb
 211              		.thumb_func
 213              	wave_model_btn_5_event_handler:
 214              	.LVL8:
 215              	.LFB606:
 506:generated/events_init.c **** 	lv_event_code_t code = lv_event_get_code(e);
 216              		.loc 1 506 1 is_stmt 1 view -0
 217              		.cfi_startproc
 218              		@ args = 0, pretend = 0, frame = 0
 219              		@ frame_needed = 0, uses_anonymous_args = 0
 506:generated/events_init.c **** 	lv_event_code_t code = lv_event_get_code(e);
 220              		.loc 1 506 1 is_stmt 0 view .LVU41
 221 0000 08B5     		push	{r3, lr}
 222              	.LCFI4:
 223              		.cfi_def_cfa_offset 8
 224              		.cfi_offset 3, -8
 225              		.cfi_offset 14, -4
 507:generated/events_init.c **** 
 226              		.loc 1 507 2 is_stmt 1 view .LVU42
 507:generated/events_init.c **** 
 227              		.loc 1 507 25 is_stmt 0 view .LVU43
 228 0002 FFF7FEFF 		bl	lv_event_get_code
 229              	.LVL9:
 509:generated/events_init.c **** 	{
 230              		.loc 1 509 2 is_stmt 1 view .LVU44
 231 0006 0728     		cmp	r0, #7
 232 0008 00D0     		beq	.L29
 233              	.L25:
 529:generated/events_init.c **** static void wave_model_btn_6_event_handler(lv_event_t *e) // Ca截屏
 234              		.loc 1 529 1 is_stmt 0 view .LVU45
 235 000a 08BD     		pop	{r3, pc}
 236              	.L29:
 513:generated/events_init.c **** 		{
 237              		.loc 1 513 3 is_stmt 1 view .LVU46
 513:generated/events_init.c **** 		{
 238              		.loc 1 513 16 is_stmt 0 view .LVU47
 239 000c 0F4B     		ldr	r3, .L31
 240 000e 1B78     		ldrb	r3, [r3]	@ zero_extendqisi2
 513:generated/events_init.c **** 		{
 241              		.loc 1 513 6 view .LVU48
 242 0010 012B     		cmp	r3, #1
 243 0012 0ED0     		beq	.L30
 519:generated/events_init.c **** 		{
 244              		.loc 1 519 8 is_stmt 1 view .LVU49
 519:generated/events_init.c **** 		{
 245              		.loc 1 519 11 is_stmt 0 view .LVU50
 246 0014 002B     		cmp	r3, #0
 247 0016 F8D1     		bne	.L25
 521:generated/events_init.c **** 			serN->hidden = LN_flag;
 248              		.loc 1 521 4 is_stmt 1 view .LVU51
 521:generated/events_init.c **** 			serN->hidden = LN_flag;
ARM GAS  C:\usertemp\ccMiPmMS.s 			page 18


 249              		.loc 1 521 14 is_stmt 0 view .LVU52
 250 0018 0D4A     		ldr	r2, .L31+4
 251 001a 1378     		ldrb	r3, [r2]	@ zero_extendqisi2
 252 001c B3FA83F3 		clz	r3, r3
 253 0020 5B09     		lsrs	r3, r3, #5
 521:generated/events_init.c **** 			serN->hidden = LN_flag;
 254              		.loc 1 521 12 view .LVU53
 255 0022 1370     		strb	r3, [r2]
 522:generated/events_init.c **** 		}
 256              		.loc 1 522 4 is_stmt 1 view .LVU54
 522:generated/events_init.c **** 		}
 257              		.loc 1 522 8 is_stmt 0 view .LVU55
 258 0024 0B4A     		ldr	r2, .L31+8
 259 0026 1268     		ldr	r2, [r2]
 522:generated/events_init.c **** 		}
 260              		.loc 1 522 17 view .LVU56
 261 0028 117B     		ldrb	r1, [r2, #12]	@ zero_extendqisi2
 262 002a 63F30001 		bfi	r1, r3, #0, #1
 263 002e 1173     		strb	r1, [r2, #12]
 529:generated/events_init.c **** static void wave_model_btn_6_event_handler(lv_event_t *e) // Ca截屏
 264              		.loc 1 529 1 view .LVU57
 265 0030 EBE7     		b	.L25
 266              	.L30:
 515:generated/events_init.c **** 			serN_I->hidden = LN_I_flag;
 267              		.loc 1 515 4 is_stmt 1 view .LVU58
 515:generated/events_init.c **** 			serN_I->hidden = LN_I_flag;
 268              		.loc 1 515 16 is_stmt 0 view .LVU59
 269 0032 094A     		ldr	r2, .L31+12
 270 0034 1378     		ldrb	r3, [r2]	@ zero_extendqisi2
 271 0036 B3FA83F3 		clz	r3, r3
 272 003a 5B09     		lsrs	r3, r3, #5
 515:generated/events_init.c **** 			serN_I->hidden = LN_I_flag;
 273              		.loc 1 515 14 view .LVU60
 274 003c 1370     		strb	r3, [r2]
 516:generated/events_init.c **** 		}
 275              		.loc 1 516 4 is_stmt 1 view .LVU61
 516:generated/events_init.c **** 		}
 276              		.loc 1 516 10 is_stmt 0 view .LVU62
 277 003e 074A     		ldr	r2, .L31+16
 278 0040 1268     		ldr	r2, [r2]
 516:generated/events_init.c **** 		}
 279              		.loc 1 516 19 view .LVU63
 280 0042 117B     		ldrb	r1, [r2, #12]	@ zero_extendqisi2
 281 0044 63F30001 		bfi	r1, r3, #0, #1
 282 0048 1173     		strb	r1, [r2, #12]
 283 004a DEE7     		b	.L25
 284              	.L32:
 285              		.align	2
 286              	.L31:
 287 004c 00000000 		.word	V_I_flag
 288 0050 00000000 		.word	LN_flag
 289 0054 00000000 		.word	serN
 290 0058 00000000 		.word	LN_I_flag
 291 005c 00000000 		.word	serN_I
 292              		.cfi_endproc
 293              	.LFE606:
 295              		.section	.text.wave_model_btn_4_event_handler,"ax",%progbits
ARM GAS  C:\usertemp\ccMiPmMS.s 			page 19


 296              		.align	1
 297              		.syntax unified
 298              		.thumb
 299              		.thumb_func
 301              	wave_model_btn_4_event_handler:
 302              	.LVL10:
 303              	.LFB605:
 481:generated/events_init.c **** 	lv_event_code_t code = lv_event_get_code(e);
 304              		.loc 1 481 1 is_stmt 1 view -0
 305              		.cfi_startproc
 306              		@ args = 0, pretend = 0, frame = 0
 307              		@ frame_needed = 0, uses_anonymous_args = 0
 481:generated/events_init.c **** 	lv_event_code_t code = lv_event_get_code(e);
 308              		.loc 1 481 1 is_stmt 0 view .LVU65
 309 0000 08B5     		push	{r3, lr}
 310              	.LCFI5:
 311              		.cfi_def_cfa_offset 8
 312              		.cfi_offset 3, -8
 313              		.cfi_offset 14, -4
 482:generated/events_init.c **** 
 314              		.loc 1 482 2 is_stmt 1 view .LVU66
 482:generated/events_init.c **** 
 315              		.loc 1 482 25 is_stmt 0 view .LVU67
 316 0002 FFF7FEFF 		bl	lv_event_get_code
 317              	.LVL11:
 484:generated/events_init.c **** 	{
 318              		.loc 1 484 2 is_stmt 1 view .LVU68
 319 0006 0728     		cmp	r0, #7
 320 0008 00D0     		beq	.L37
 321              	.L33:
 504:generated/events_init.c **** static void wave_model_btn_5_event_handler(lv_event_t *e) // LN
 322              		.loc 1 504 1 is_stmt 0 view .LVU69
 323 000a 08BD     		pop	{r3, pc}
 324              	.L37:
 488:generated/events_init.c **** 		{
 325              		.loc 1 488 3 is_stmt 1 view .LVU70
 488:generated/events_init.c **** 		{
 326              		.loc 1 488 16 is_stmt 0 view .LVU71
 327 000c 0F4B     		ldr	r3, .L39
 328 000e 1B78     		ldrb	r3, [r3]	@ zero_extendqisi2
 488:generated/events_init.c **** 		{
 329              		.loc 1 488 6 view .LVU72
 330 0010 012B     		cmp	r3, #1
 331 0012 0ED0     		beq	.L38
 494:generated/events_init.c **** 		{
 332              		.loc 1 494 8 is_stmt 1 view .LVU73
 494:generated/events_init.c **** 		{
 333              		.loc 1 494 11 is_stmt 0 view .LVU74
 334 0014 002B     		cmp	r3, #0
 335 0016 F8D1     		bne	.L33
 496:generated/events_init.c **** 			ser3->hidden = L3_flag;
 336              		.loc 1 496 4 is_stmt 1 view .LVU75
 496:generated/events_init.c **** 			ser3->hidden = L3_flag;
 337              		.loc 1 496 14 is_stmt 0 view .LVU76
 338 0018 0D4A     		ldr	r2, .L39+4
 339 001a 1378     		ldrb	r3, [r2]	@ zero_extendqisi2
 340 001c B3FA83F3 		clz	r3, r3
ARM GAS  C:\usertemp\ccMiPmMS.s 			page 20


 341 0020 5B09     		lsrs	r3, r3, #5
 496:generated/events_init.c **** 			ser3->hidden = L3_flag;
 342              		.loc 1 496 12 view .LVU77
 343 0022 1370     		strb	r3, [r2]
 497:generated/events_init.c **** 		}
 344              		.loc 1 497 4 is_stmt 1 view .LVU78
 497:generated/events_init.c **** 		}
 345              		.loc 1 497 8 is_stmt 0 view .LVU79
 346 0024 0B4A     		ldr	r2, .L39+8
 347 0026 1268     		ldr	r2, [r2]
 497:generated/events_init.c **** 		}
 348              		.loc 1 497 17 view .LVU80
 349 0028 117B     		ldrb	r1, [r2, #12]	@ zero_extendqisi2
 350 002a 63F30001 		bfi	r1, r3, #0, #1
 351 002e 1173     		strb	r1, [r2, #12]
 504:generated/events_init.c **** static void wave_model_btn_5_event_handler(lv_event_t *e) // LN
 352              		.loc 1 504 1 view .LVU81
 353 0030 EBE7     		b	.L33
 354              	.L38:
 490:generated/events_init.c **** 			ser3_I->hidden = L3_I_flag;
 355              		.loc 1 490 4 is_stmt 1 view .LVU82
 490:generated/events_init.c **** 			ser3_I->hidden = L3_I_flag;
 356              		.loc 1 490 16 is_stmt 0 view .LVU83
 357 0032 094A     		ldr	r2, .L39+12
 358 0034 1378     		ldrb	r3, [r2]	@ zero_extendqisi2
 359 0036 B3FA83F3 		clz	r3, r3
 360 003a 5B09     		lsrs	r3, r3, #5
 490:generated/events_init.c **** 			ser3_I->hidden = L3_I_flag;
 361              		.loc 1 490 14 view .LVU84
 362 003c 1370     		strb	r3, [r2]
 491:generated/events_init.c **** 		}
 363              		.loc 1 491 4 is_stmt 1 view .LVU85
 491:generated/events_init.c **** 		}
 364              		.loc 1 491 10 is_stmt 0 view .LVU86
 365 003e 074A     		ldr	r2, .L39+16
 366 0040 1268     		ldr	r2, [r2]
 491:generated/events_init.c **** 		}
 367              		.loc 1 491 19 view .LVU87
 368 0042 117B     		ldrb	r1, [r2, #12]	@ zero_extendqisi2
 369 0044 63F30001 		bfi	r1, r3, #0, #1
 370 0048 1173     		strb	r1, [r2, #12]
 371 004a DEE7     		b	.L33
 372              	.L40:
 373              		.align	2
 374              	.L39:
 375 004c 00000000 		.word	V_I_flag
 376 0050 00000000 		.word	L3_flag
 377 0054 00000000 		.word	ser3
 378 0058 00000000 		.word	L3_I_flag
 379 005c 00000000 		.word	ser3_I
 380              		.cfi_endproc
 381              	.LFE605:
 383              		.section	.text.wave_model_btn_3_event_handler,"ax",%progbits
 384              		.align	1
 385              		.syntax unified
 386              		.thumb
 387              		.thumb_func
ARM GAS  C:\usertemp\ccMiPmMS.s 			page 21


 389              	wave_model_btn_3_event_handler:
 390              	.LVL12:
 391              	.LFB604:
 455:generated/events_init.c **** 	lv_event_code_t code = lv_event_get_code(e);
 392              		.loc 1 455 1 is_stmt 1 view -0
 393              		.cfi_startproc
 394              		@ args = 0, pretend = 0, frame = 0
 395              		@ frame_needed = 0, uses_anonymous_args = 0
 455:generated/events_init.c **** 	lv_event_code_t code = lv_event_get_code(e);
 396              		.loc 1 455 1 is_stmt 0 view .LVU89
 397 0000 08B5     		push	{r3, lr}
 398              	.LCFI6:
 399              		.cfi_def_cfa_offset 8
 400              		.cfi_offset 3, -8
 401              		.cfi_offset 14, -4
 456:generated/events_init.c **** 
 402              		.loc 1 456 2 is_stmt 1 view .LVU90
 456:generated/events_init.c **** 
 403              		.loc 1 456 25 is_stmt 0 view .LVU91
 404 0002 FFF7FEFF 		bl	lv_event_get_code
 405              	.LVL13:
 458:generated/events_init.c **** 	{
 406              		.loc 1 458 2 is_stmt 1 view .LVU92
 407 0006 0728     		cmp	r0, #7
 408 0008 00D0     		beq	.L45
 409              	.L41:
 479:generated/events_init.c **** static void wave_model_btn_4_event_handler(lv_event_t *e) // L3
 410              		.loc 1 479 1 is_stmt 0 view .LVU93
 411 000a 08BD     		pop	{r3, pc}
 412              	.L45:
 462:generated/events_init.c **** 		{
 413              		.loc 1 462 3 is_stmt 1 view .LVU94
 462:generated/events_init.c **** 		{
 414              		.loc 1 462 16 is_stmt 0 view .LVU95
 415 000c 0F4B     		ldr	r3, .L47
 416 000e 1B78     		ldrb	r3, [r3]	@ zero_extendqisi2
 462:generated/events_init.c **** 		{
 417              		.loc 1 462 6 view .LVU96
 418 0010 012B     		cmp	r3, #1
 419 0012 0ED0     		beq	.L46
 468:generated/events_init.c **** 		{
 420              		.loc 1 468 8 is_stmt 1 view .LVU97
 468:generated/events_init.c **** 		{
 421              		.loc 1 468 11 is_stmt 0 view .LVU98
 422 0014 002B     		cmp	r3, #0
 423 0016 F8D1     		bne	.L41
 470:generated/events_init.c **** 			ser2->hidden = L2_flag;
 424              		.loc 1 470 4 is_stmt 1 view .LVU99
 470:generated/events_init.c **** 			ser2->hidden = L2_flag;
 425              		.loc 1 470 14 is_stmt 0 view .LVU100
 426 0018 0D4A     		ldr	r2, .L47+4
 427 001a 1378     		ldrb	r3, [r2]	@ zero_extendqisi2
 428 001c B3FA83F3 		clz	r3, r3
 429 0020 5B09     		lsrs	r3, r3, #5
 470:generated/events_init.c **** 			ser2->hidden = L2_flag;
 430              		.loc 1 470 12 view .LVU101
 431 0022 1370     		strb	r3, [r2]
ARM GAS  C:\usertemp\ccMiPmMS.s 			page 22


 471:generated/events_init.c **** 		}
 432              		.loc 1 471 4 is_stmt 1 view .LVU102
 471:generated/events_init.c **** 		}
 433              		.loc 1 471 8 is_stmt 0 view .LVU103
 434 0024 0B4A     		ldr	r2, .L47+8
 435 0026 1268     		ldr	r2, [r2]
 471:generated/events_init.c **** 		}
 436              		.loc 1 471 17 view .LVU104
 437 0028 117B     		ldrb	r1, [r2, #12]	@ zero_extendqisi2
 438 002a 63F30001 		bfi	r1, r3, #0, #1
 439 002e 1173     		strb	r1, [r2, #12]
 479:generated/events_init.c **** static void wave_model_btn_4_event_handler(lv_event_t *e) // L3
 440              		.loc 1 479 1 view .LVU105
 441 0030 EBE7     		b	.L41
 442              	.L46:
 464:generated/events_init.c **** 			ser2_I->hidden = L2_I_flag;
 443              		.loc 1 464 4 is_stmt 1 view .LVU106
 464:generated/events_init.c **** 			ser2_I->hidden = L2_I_flag;
 444              		.loc 1 464 16 is_stmt 0 view .LVU107
 445 0032 094A     		ldr	r2, .L47+12
 446 0034 1378     		ldrb	r3, [r2]	@ zero_extendqisi2
 447 0036 B3FA83F3 		clz	r3, r3
 448 003a 5B09     		lsrs	r3, r3, #5
 464:generated/events_init.c **** 			ser2_I->hidden = L2_I_flag;
 449              		.loc 1 464 14 view .LVU108
 450 003c 1370     		strb	r3, [r2]
 465:generated/events_init.c **** 		}
 451              		.loc 1 465 4 is_stmt 1 view .LVU109
 465:generated/events_init.c **** 		}
 452              		.loc 1 465 10 is_stmt 0 view .LVU110
 453 003e 074A     		ldr	r2, .L47+16
 454 0040 1268     		ldr	r2, [r2]
 465:generated/events_init.c **** 		}
 455              		.loc 1 465 19 view .LVU111
 456 0042 117B     		ldrb	r1, [r2, #12]	@ zero_extendqisi2
 457 0044 63F30001 		bfi	r1, r3, #0, #1
 458 0048 1173     		strb	r1, [r2, #12]
 459 004a DEE7     		b	.L41
 460              	.L48:
 461              		.align	2
 462              	.L47:
 463 004c 00000000 		.word	V_I_flag
 464 0050 00000000 		.word	L2_flag
 465 0054 00000000 		.word	ser2
 466 0058 00000000 		.word	L2_I_flag
 467 005c 00000000 		.word	ser2_I
 468              		.cfi_endproc
 469              	.LFE604:
 471              		.section	.rodata.wave_model_btn_2_event_handler.str1.4,"aMS",%progbits,1
 472              		.align	2
 473              	.LC0:
 474 0000 4900     		.ascii	"I\000"
 475 0002 0000     		.align	2
 476              	.LC1:
 477 0004 5600     		.ascii	"V\000"
 478              		.section	.text.wave_model_btn_2_event_handler,"ax",%progbits
 479              		.align	1
ARM GAS  C:\usertemp\ccMiPmMS.s 			page 23


 480              		.syntax unified
 481              		.thumb
 482              		.thumb_func
 484              	wave_model_btn_2_event_handler:
 485              	.LVL14:
 486              	.LFB600:
 331:generated/events_init.c **** 	lv_event_code_t code = lv_event_get_code(e);
 487              		.loc 1 331 1 is_stmt 1 view -0
 488              		.cfi_startproc
 489              		@ args = 0, pretend = 0, frame = 0
 490              		@ frame_needed = 0, uses_anonymous_args = 0
 331:generated/events_init.c **** 	lv_event_code_t code = lv_event_get_code(e);
 491              		.loc 1 331 1 is_stmt 0 view .LVU113
 492 0000 08B5     		push	{r3, lr}
 493              	.LCFI7:
 494              		.cfi_def_cfa_offset 8
 495              		.cfi_offset 3, -8
 496              		.cfi_offset 14, -4
 332:generated/events_init.c **** 
 497              		.loc 1 332 2 is_stmt 1 view .LVU114
 332:generated/events_init.c **** 
 498              		.loc 1 332 25 is_stmt 0 view .LVU115
 499 0002 FFF7FEFF 		bl	lv_event_get_code
 500              	.LVL15:
 334:generated/events_init.c **** 	{
 501              		.loc 1 334 2 is_stmt 1 view .LVU116
 502 0006 0728     		cmp	r0, #7
 503 0008 00D0     		beq	.L53
 504              	.LVL16:
 505              	.L49:
 388:generated/events_init.c **** static void wave_model_btn_7_event_handler(lv_event_t *e)
 506              		.loc 1 388 1 is_stmt 0 view .LVU117
 507 000a 08BD     		pop	{r3, pc}
 508              	.LVL17:
 509              	.L53:
 338:generated/events_init.c **** 		if (V_I_flag == 1)
 510              		.loc 1 338 3 is_stmt 1 view .LVU118
 338:generated/events_init.c **** 		if (V_I_flag == 1)
 511              		.loc 1 338 14 is_stmt 0 view .LVU119
 512 000c 4B4A     		ldr	r2, .L55
 513 000e 1378     		ldrb	r3, [r2]	@ zero_extendqisi2
 514 0010 B3FA83F3 		clz	r3, r3
 515 0014 5B09     		lsrs	r3, r3, #5
 338:generated/events_init.c **** 		if (V_I_flag == 1)
 516              		.loc 1 338 12 view .LVU120
 517 0016 1370     		strb	r3, [r2]
 339:generated/events_init.c **** 		{ // 显示电流
 518              		.loc 1 339 3 is_stmt 1 view .LVU121
 339:generated/events_init.c **** 		{ // 显示电流
 519              		.loc 1 339 6 is_stmt 0 view .LVU122
 520 0018 002B     		cmp	r3, #0
 521 001a 47D1     		bne	.L54
 364:generated/events_init.c **** 			ser1->hidden = 0;
 522              		.loc 1 364 4 is_stmt 1 view .LVU123
 523 001c 4849     		ldr	r1, .L55+4
 524 001e 494B     		ldr	r3, .L55+8
 525 0020 D869     		ldr	r0, [r3, #28]
ARM GAS  C:\usertemp\ccMiPmMS.s 			page 24


 526              	.LVL18:
 364:generated/events_init.c **** 			ser1->hidden = 0;
 527              		.loc 1 364 4 is_stmt 0 view .LVU124
 528 0022 FFF7FEFF 		bl	lv_label_set_text
 529              	.LVL19:
 365:generated/events_init.c **** 			ser2->hidden = 0;
 530              		.loc 1 365 4 is_stmt 1 view .LVU125
 365:generated/events_init.c **** 			ser2->hidden = 0;
 531              		.loc 1 365 8 is_stmt 0 view .LVU126
 532 0026 484B     		ldr	r3, .L55+12
 533 0028 1A68     		ldr	r2, [r3]
 365:generated/events_init.c **** 			ser2->hidden = 0;
 534              		.loc 1 365 17 view .LVU127
 535 002a 137B     		ldrb	r3, [r2, #12]	@ zero_extendqisi2
 536 002c 23F00103 		bic	r3, r3, #1
 537 0030 1373     		strb	r3, [r2, #12]
 366:generated/events_init.c **** 			ser3->hidden = 0;
 538              		.loc 1 366 4 is_stmt 1 view .LVU128
 366:generated/events_init.c **** 			ser3->hidden = 0;
 539              		.loc 1 366 8 is_stmt 0 view .LVU129
 540 0032 464B     		ldr	r3, .L55+16
 541 0034 1A68     		ldr	r2, [r3]
 366:generated/events_init.c **** 			ser3->hidden = 0;
 542              		.loc 1 366 17 view .LVU130
 543 0036 137B     		ldrb	r3, [r2, #12]	@ zero_extendqisi2
 544 0038 23F00103 		bic	r3, r3, #1
 545 003c 1373     		strb	r3, [r2, #12]
 367:generated/events_init.c **** 			serN->hidden = 0;
 546              		.loc 1 367 4 is_stmt 1 view .LVU131
 367:generated/events_init.c **** 			serN->hidden = 0;
 547              		.loc 1 367 8 is_stmt 0 view .LVU132
 548 003e 444B     		ldr	r3, .L55+20
 549 0040 1A68     		ldr	r2, [r3]
 367:generated/events_init.c **** 			serN->hidden = 0;
 550              		.loc 1 367 17 view .LVU133
 551 0042 137B     		ldrb	r3, [r2, #12]	@ zero_extendqisi2
 552 0044 23F00103 		bic	r3, r3, #1
 553 0048 1373     		strb	r3, [r2, #12]
 368:generated/events_init.c **** 			L2_flag = 0;
 554              		.loc 1 368 4 is_stmt 1 view .LVU134
 368:generated/events_init.c **** 			L2_flag = 0;
 555              		.loc 1 368 8 is_stmt 0 view .LVU135
 556 004a 424B     		ldr	r3, .L55+24
 557 004c 1A68     		ldr	r2, [r3]
 368:generated/events_init.c **** 			L2_flag = 0;
 558              		.loc 1 368 17 view .LVU136
 559 004e 137B     		ldrb	r3, [r2, #12]	@ zero_extendqisi2
 560 0050 23F00103 		bic	r3, r3, #1
 561 0054 1373     		strb	r3, [r2, #12]
 369:generated/events_init.c **** 			L1_flag = 0;
 562              		.loc 1 369 4 is_stmt 1 view .LVU137
 369:generated/events_init.c **** 			L1_flag = 0;
 563              		.loc 1 369 12 is_stmt 0 view .LVU138
 564 0056 0023     		movs	r3, #0
 565 0058 3F4A     		ldr	r2, .L55+28
 566 005a 1370     		strb	r3, [r2]
 370:generated/events_init.c **** 			L3_flag = 0;
ARM GAS  C:\usertemp\ccMiPmMS.s 			page 25


 567              		.loc 1 370 4 is_stmt 1 view .LVU139
 370:generated/events_init.c **** 			L3_flag = 0;
 568              		.loc 1 370 12 is_stmt 0 view .LVU140
 569 005c 3F4A     		ldr	r2, .L55+32
 570 005e 1370     		strb	r3, [r2]
 371:generated/events_init.c **** 			LN_flag = 0;
 571              		.loc 1 371 4 is_stmt 1 view .LVU141
 371:generated/events_init.c **** 			LN_flag = 0;
 572              		.loc 1 371 12 is_stmt 0 view .LVU142
 573 0060 3F4A     		ldr	r2, .L55+36
 574 0062 1370     		strb	r3, [r2]
 372:generated/events_init.c **** 
 575              		.loc 1 372 4 is_stmt 1 view .LVU143
 372:generated/events_init.c **** 
 576              		.loc 1 372 12 is_stmt 0 view .LVU144
 577 0064 3F4A     		ldr	r2, .L55+40
 578 0066 1370     		strb	r3, [r2]
 374:generated/events_init.c **** 			ser2_I->hidden = 1;
 579              		.loc 1 374 4 is_stmt 1 view .LVU145
 374:generated/events_init.c **** 			ser2_I->hidden = 1;
 580              		.loc 1 374 10 is_stmt 0 view .LVU146
 581 0068 3F4B     		ldr	r3, .L55+44
 582 006a 1A68     		ldr	r2, [r3]
 374:generated/events_init.c **** 			ser2_I->hidden = 1;
 583              		.loc 1 374 19 view .LVU147
 584 006c 137B     		ldrb	r3, [r2, #12]	@ zero_extendqisi2
 585 006e 43F00103 		orr	r3, r3, #1
 586 0072 1373     		strb	r3, [r2, #12]
 375:generated/events_init.c **** 			ser3_I->hidden = 1;
 587              		.loc 1 375 4 is_stmt 1 view .LVU148
 375:generated/events_init.c **** 			ser3_I->hidden = 1;
 588              		.loc 1 375 10 is_stmt 0 view .LVU149
 589 0074 3D4B     		ldr	r3, .L55+48
 590 0076 1A68     		ldr	r2, [r3]
 375:generated/events_init.c **** 			ser3_I->hidden = 1;
 591              		.loc 1 375 19 view .LVU150
 592 0078 137B     		ldrb	r3, [r2, #12]	@ zero_extendqisi2
 593 007a 43F00103 		orr	r3, r3, #1
 594 007e 1373     		strb	r3, [r2, #12]
 376:generated/events_init.c **** 			serN_I->hidden = 1;
 595              		.loc 1 376 4 is_stmt 1 view .LVU151
 376:generated/events_init.c **** 			serN_I->hidden = 1;
 596              		.loc 1 376 10 is_stmt 0 view .LVU152
 597 0080 3B4B     		ldr	r3, .L55+52
 598 0082 1A68     		ldr	r2, [r3]
 376:generated/events_init.c **** 			serN_I->hidden = 1;
 599              		.loc 1 376 19 view .LVU153
 600 0084 137B     		ldrb	r3, [r2, #12]	@ zero_extendqisi2
 601 0086 43F00103 		orr	r3, r3, #1
 602 008a 1373     		strb	r3, [r2, #12]
 377:generated/events_init.c **** 			L2_I_flag = 1;
 603              		.loc 1 377 4 is_stmt 1 view .LVU154
 377:generated/events_init.c **** 			L2_I_flag = 1;
 604              		.loc 1 377 10 is_stmt 0 view .LVU155
 605 008c 394B     		ldr	r3, .L55+56
 606 008e 1A68     		ldr	r2, [r3]
 377:generated/events_init.c **** 			L2_I_flag = 1;
ARM GAS  C:\usertemp\ccMiPmMS.s 			page 26


 607              		.loc 1 377 19 view .LVU156
 608 0090 137B     		ldrb	r3, [r2, #12]	@ zero_extendqisi2
 609 0092 43F00103 		orr	r3, r3, #1
 610 0096 1373     		strb	r3, [r2, #12]
 378:generated/events_init.c **** 			L1_I_flag = 1;
 611              		.loc 1 378 4 is_stmt 1 view .LVU157
 378:generated/events_init.c **** 			L1_I_flag = 1;
 612              		.loc 1 378 14 is_stmt 0 view .LVU158
 613 0098 0123     		movs	r3, #1
 614 009a 374A     		ldr	r2, .L55+60
 615 009c 1370     		strb	r3, [r2]
 379:generated/events_init.c **** 			L3_I_flag = 1;
 616              		.loc 1 379 4 is_stmt 1 view .LVU159
 379:generated/events_init.c **** 			L3_I_flag = 1;
 617              		.loc 1 379 14 is_stmt 0 view .LVU160
 618 009e 374A     		ldr	r2, .L55+64
 619 00a0 1370     		strb	r3, [r2]
 380:generated/events_init.c **** 			LN_I_flag = 1;
 620              		.loc 1 380 4 is_stmt 1 view .LVU161
 380:generated/events_init.c **** 			LN_I_flag = 1;
 621              		.loc 1 380 14 is_stmt 0 view .LVU162
 622 00a2 374A     		ldr	r2, .L55+68
 623 00a4 1370     		strb	r3, [r2]
 381:generated/events_init.c **** 		}
 624              		.loc 1 381 4 is_stmt 1 view .LVU163
 381:generated/events_init.c **** 		}
 625              		.loc 1 381 14 is_stmt 0 view .LVU164
 626 00a6 374A     		ldr	r2, .L55+72
 627 00a8 1370     		strb	r3, [r2]
 388:generated/events_init.c **** static void wave_model_btn_7_event_handler(lv_event_t *e)
 628              		.loc 1 388 1 view .LVU165
 629 00aa AEE7     		b	.L49
 630              	.LVL20:
 631              	.L54:
 341:generated/events_init.c **** 			ser2_I->hidden = 0;
 632              		.loc 1 341 4 is_stmt 1 view .LVU166
 341:generated/events_init.c **** 			ser2_I->hidden = 0;
 633              		.loc 1 341 10 is_stmt 0 view .LVU167
 634 00ac 2E4B     		ldr	r3, .L55+44
 635 00ae 1A68     		ldr	r2, [r3]
 341:generated/events_init.c **** 			ser2_I->hidden = 0;
 636              		.loc 1 341 19 view .LVU168
 637 00b0 137B     		ldrb	r3, [r2, #12]	@ zero_extendqisi2
 638 00b2 23F00103 		bic	r3, r3, #1
 639 00b6 1373     		strb	r3, [r2, #12]
 342:generated/events_init.c **** 			ser3_I->hidden = 0;
 640              		.loc 1 342 4 is_stmt 1 view .LVU169
 342:generated/events_init.c **** 			ser3_I->hidden = 0;
 641              		.loc 1 342 10 is_stmt 0 view .LVU170
 642 00b8 2C4B     		ldr	r3, .L55+48
 643 00ba 1A68     		ldr	r2, [r3]
 342:generated/events_init.c **** 			ser3_I->hidden = 0;
 644              		.loc 1 342 19 view .LVU171
 645 00bc 137B     		ldrb	r3, [r2, #12]	@ zero_extendqisi2
 646 00be 23F00103 		bic	r3, r3, #1
 647 00c2 1373     		strb	r3, [r2, #12]
 343:generated/events_init.c **** 			serN_I->hidden = 0;
ARM GAS  C:\usertemp\ccMiPmMS.s 			page 27


 648              		.loc 1 343 4 is_stmt 1 view .LVU172
 343:generated/events_init.c **** 			serN_I->hidden = 0;
 649              		.loc 1 343 10 is_stmt 0 view .LVU173
 650 00c4 2A4B     		ldr	r3, .L55+52
 651 00c6 1A68     		ldr	r2, [r3]
 343:generated/events_init.c **** 			serN_I->hidden = 0;
 652              		.loc 1 343 19 view .LVU174
 653 00c8 137B     		ldrb	r3, [r2, #12]	@ zero_extendqisi2
 654 00ca 23F00103 		bic	r3, r3, #1
 655 00ce 1373     		strb	r3, [r2, #12]
 344:generated/events_init.c **** 			L2_I_flag = 0;
 656              		.loc 1 344 4 is_stmt 1 view .LVU175
 344:generated/events_init.c **** 			L2_I_flag = 0;
 657              		.loc 1 344 10 is_stmt 0 view .LVU176
 658 00d0 284B     		ldr	r3, .L55+56
 659 00d2 1A68     		ldr	r2, [r3]
 344:generated/events_init.c **** 			L2_I_flag = 0;
 660              		.loc 1 344 19 view .LVU177
 661 00d4 137B     		ldrb	r3, [r2, #12]	@ zero_extendqisi2
 662 00d6 23F00103 		bic	r3, r3, #1
 663 00da 1373     		strb	r3, [r2, #12]
 345:generated/events_init.c **** 			L1_I_flag = 0;
 664              		.loc 1 345 4 is_stmt 1 view .LVU178
 345:generated/events_init.c **** 			L1_I_flag = 0;
 665              		.loc 1 345 14 is_stmt 0 view .LVU179
 666 00dc 0023     		movs	r3, #0
 667 00de 264A     		ldr	r2, .L55+60
 668 00e0 1370     		strb	r3, [r2]
 346:generated/events_init.c **** 			L3_I_flag = 0;
 669              		.loc 1 346 4 is_stmt 1 view .LVU180
 346:generated/events_init.c **** 			L3_I_flag = 0;
 670              		.loc 1 346 14 is_stmt 0 view .LVU181
 671 00e2 264A     		ldr	r2, .L55+64
 672 00e4 1370     		strb	r3, [r2]
 347:generated/events_init.c **** 			LN_I_flag = 0;
 673              		.loc 1 347 4 is_stmt 1 view .LVU182
 347:generated/events_init.c **** 			LN_I_flag = 0;
 674              		.loc 1 347 14 is_stmt 0 view .LVU183
 675 00e6 264A     		ldr	r2, .L55+68
 676 00e8 1370     		strb	r3, [r2]
 348:generated/events_init.c **** 
 677              		.loc 1 348 4 is_stmt 1 view .LVU184
 348:generated/events_init.c **** 
 678              		.loc 1 348 14 is_stmt 0 view .LVU185
 679 00ea 264A     		ldr	r2, .L55+72
 680 00ec 1370     		strb	r3, [r2]
 350:generated/events_init.c **** 			ser2->hidden = 1;
 681              		.loc 1 350 4 is_stmt 1 view .LVU186
 350:generated/events_init.c **** 			ser2->hidden = 1;
 682              		.loc 1 350 8 is_stmt 0 view .LVU187
 683 00ee 164B     		ldr	r3, .L55+12
 684 00f0 1A68     		ldr	r2, [r3]
 350:generated/events_init.c **** 			ser2->hidden = 1;
 685              		.loc 1 350 17 view .LVU188
 686 00f2 137B     		ldrb	r3, [r2, #12]	@ zero_extendqisi2
 687 00f4 43F00103 		orr	r3, r3, #1
 688 00f8 1373     		strb	r3, [r2, #12]
ARM GAS  C:\usertemp\ccMiPmMS.s 			page 28


 351:generated/events_init.c **** 			ser3->hidden = 1;
 689              		.loc 1 351 4 is_stmt 1 view .LVU189
 351:generated/events_init.c **** 			ser3->hidden = 1;
 690              		.loc 1 351 8 is_stmt 0 view .LVU190
 691 00fa 144B     		ldr	r3, .L55+16
 692 00fc 1A68     		ldr	r2, [r3]
 351:generated/events_init.c **** 			ser3->hidden = 1;
 693              		.loc 1 351 17 view .LVU191
 694 00fe 137B     		ldrb	r3, [r2, #12]	@ zero_extendqisi2
 695 0100 43F00103 		orr	r3, r3, #1
 696 0104 1373     		strb	r3, [r2, #12]
 352:generated/events_init.c **** 			serN->hidden = 1;
 697              		.loc 1 352 4 is_stmt 1 view .LVU192
 352:generated/events_init.c **** 			serN->hidden = 1;
 698              		.loc 1 352 8 is_stmt 0 view .LVU193
 699 0106 124B     		ldr	r3, .L55+20
 700 0108 1A68     		ldr	r2, [r3]
 352:generated/events_init.c **** 			serN->hidden = 1;
 701              		.loc 1 352 17 view .LVU194
 702 010a 137B     		ldrb	r3, [r2, #12]	@ zero_extendqisi2
 703 010c 43F00103 		orr	r3, r3, #1
 704 0110 1373     		strb	r3, [r2, #12]
 353:generated/events_init.c **** 			L2_flag = 1;
 705              		.loc 1 353 4 is_stmt 1 view .LVU195
 353:generated/events_init.c **** 			L2_flag = 1;
 706              		.loc 1 353 8 is_stmt 0 view .LVU196
 707 0112 104B     		ldr	r3, .L55+24
 708 0114 1A68     		ldr	r2, [r3]
 353:generated/events_init.c **** 			L2_flag = 1;
 709              		.loc 1 353 17 view .LVU197
 710 0116 137B     		ldrb	r3, [r2, #12]	@ zero_extendqisi2
 711 0118 43F00103 		orr	r3, r3, #1
 712 011c 1373     		strb	r3, [r2, #12]
 354:generated/events_init.c **** 			L1_flag = 1;
 713              		.loc 1 354 4 is_stmt 1 view .LVU198
 354:generated/events_init.c **** 			L1_flag = 1;
 714              		.loc 1 354 12 is_stmt 0 view .LVU199
 715 011e 0123     		movs	r3, #1
 716 0120 0D4A     		ldr	r2, .L55+28
 717 0122 1370     		strb	r3, [r2]
 355:generated/events_init.c **** 			L3_flag = 1;
 718              		.loc 1 355 4 is_stmt 1 view .LVU200
 355:generated/events_init.c **** 			L3_flag = 1;
 719              		.loc 1 355 12 is_stmt 0 view .LVU201
 720 0124 0D4A     		ldr	r2, .L55+32
 721 0126 1370     		strb	r3, [r2]
 356:generated/events_init.c **** 			LN_flag = 1;
 722              		.loc 1 356 4 is_stmt 1 view .LVU202
 356:generated/events_init.c **** 			LN_flag = 1;
 723              		.loc 1 356 12 is_stmt 0 view .LVU203
 724 0128 0D4A     		ldr	r2, .L55+36
 725 012a 1370     		strb	r3, [r2]
 357:generated/events_init.c **** 
 726              		.loc 1 357 4 is_stmt 1 view .LVU204
 357:generated/events_init.c **** 
 727              		.loc 1 357 12 is_stmt 0 view .LVU205
 728 012c 0D4A     		ldr	r2, .L55+40
ARM GAS  C:\usertemp\ccMiPmMS.s 			page 29


 729 012e 1370     		strb	r3, [r2]
 359:generated/events_init.c **** 		}
 730              		.loc 1 359 4 is_stmt 1 view .LVU206
 731 0130 1549     		ldr	r1, .L55+76
 732 0132 044B     		ldr	r3, .L55+8
 733 0134 D869     		ldr	r0, [r3, #28]
 734              	.LVL21:
 359:generated/events_init.c **** 		}
 735              		.loc 1 359 4 is_stmt 0 view .LVU207
 736 0136 FFF7FEFF 		bl	lv_label_set_text
 737              	.LVL22:
 738 013a 66E7     		b	.L49
 739              	.L56:
 740              		.align	2
 741              	.L55:
 742 013c 00000000 		.word	V_I_flag
 743 0140 04000000 		.word	.LC1
 744 0144 00000000 		.word	guider_ui
 745 0148 00000000 		.word	ser1
 746 014c 00000000 		.word	ser2
 747 0150 00000000 		.word	ser3
 748 0154 00000000 		.word	serN
 749 0158 00000000 		.word	L2_flag
 750 015c 00000000 		.word	L1_flag
 751 0160 00000000 		.word	L3_flag
 752 0164 00000000 		.word	LN_flag
 753 0168 00000000 		.word	ser1_I
 754 016c 00000000 		.word	ser2_I
 755 0170 00000000 		.word	ser3_I
 756 0174 00000000 		.word	serN_I
 757 0178 00000000 		.word	L2_I_flag
 758 017c 00000000 		.word	L1_I_flag
 759 0180 00000000 		.word	L3_I_flag
 760 0184 00000000 		.word	LN_I_flag
 761 0188 00000000 		.word	.LC0
 762              		.cfi_endproc
 763              	.LFE600:
 765              		.section	.text.wave_model_btn_1_event_handler,"ax",%progbits
 766              		.align	1
 767              		.syntax unified
 768              		.thumb
 769              		.thumb_func
 771              	wave_model_btn_1_event_handler:
 772              	.LVL23:
 773              	.LFB603:
 429:generated/events_init.c **** 	lv_event_code_t code = lv_event_get_code(e);
 774              		.loc 1 429 1 is_stmt 1 view -0
 775              		.cfi_startproc
 776              		@ args = 0, pretend = 0, frame = 0
 777              		@ frame_needed = 0, uses_anonymous_args = 0
 429:generated/events_init.c **** 	lv_event_code_t code = lv_event_get_code(e);
 778              		.loc 1 429 1 is_stmt 0 view .LVU209
 779 0000 08B5     		push	{r3, lr}
 780              	.LCFI8:
 781              		.cfi_def_cfa_offset 8
 782              		.cfi_offset 3, -8
 783              		.cfi_offset 14, -4
ARM GAS  C:\usertemp\ccMiPmMS.s 			page 30


 430:generated/events_init.c **** 
 784              		.loc 1 430 2 is_stmt 1 view .LVU210
 430:generated/events_init.c **** 
 785              		.loc 1 430 25 is_stmt 0 view .LVU211
 786 0002 FFF7FEFF 		bl	lv_event_get_code
 787              	.LVL24:
 432:generated/events_init.c **** 	{
 788              		.loc 1 432 2 is_stmt 1 view .LVU212
 789 0006 0728     		cmp	r0, #7
 790 0008 00D0     		beq	.L61
 791              	.L57:
 453:generated/events_init.c **** static void wave_model_btn_3_event_handler(lv_event_t *e) // L2
 792              		.loc 1 453 1 is_stmt 0 view .LVU213
 793 000a 08BD     		pop	{r3, pc}
 794              	.L61:
 436:generated/events_init.c **** 		{
 795              		.loc 1 436 3 is_stmt 1 view .LVU214
 436:generated/events_init.c **** 		{
 796              		.loc 1 436 16 is_stmt 0 view .LVU215
 797 000c 0F4B     		ldr	r3, .L63
 798 000e 1B78     		ldrb	r3, [r3]	@ zero_extendqisi2
 436:generated/events_init.c **** 		{
 799              		.loc 1 436 6 view .LVU216
 800 0010 012B     		cmp	r3, #1
 801 0012 0ED0     		beq	.L62
 442:generated/events_init.c **** 		{
 802              		.loc 1 442 8 is_stmt 1 view .LVU217
 442:generated/events_init.c **** 		{
 803              		.loc 1 442 11 is_stmt 0 view .LVU218
 804 0014 002B     		cmp	r3, #0
 805 0016 F8D1     		bne	.L57
 444:generated/events_init.c **** 			ser1->hidden = L1_flag;
 806              		.loc 1 444 4 is_stmt 1 view .LVU219
 444:generated/events_init.c **** 			ser1->hidden = L1_flag;
 807              		.loc 1 444 14 is_stmt 0 view .LVU220
 808 0018 0D4A     		ldr	r2, .L63+4
 809 001a 1378     		ldrb	r3, [r2]	@ zero_extendqisi2
 810 001c B3FA83F3 		clz	r3, r3
 811 0020 5B09     		lsrs	r3, r3, #5
 444:generated/events_init.c **** 			ser1->hidden = L1_flag;
 812              		.loc 1 444 12 view .LVU221
 813 0022 1370     		strb	r3, [r2]
 445:generated/events_init.c **** 		}
 814              		.loc 1 445 4 is_stmt 1 view .LVU222
 445:generated/events_init.c **** 		}
 815              		.loc 1 445 8 is_stmt 0 view .LVU223
 816 0024 0B4A     		ldr	r2, .L63+8
 817 0026 1268     		ldr	r2, [r2]
 445:generated/events_init.c **** 		}
 818              		.loc 1 445 17 view .LVU224
 819 0028 117B     		ldrb	r1, [r2, #12]	@ zero_extendqisi2
 820 002a 63F30001 		bfi	r1, r3, #0, #1
 821 002e 1173     		strb	r1, [r2, #12]
 453:generated/events_init.c **** static void wave_model_btn_3_event_handler(lv_event_t *e) // L2
 822              		.loc 1 453 1 view .LVU225
 823 0030 EBE7     		b	.L57
 824              	.L62:
ARM GAS  C:\usertemp\ccMiPmMS.s 			page 31


 438:generated/events_init.c **** 			ser1_I->hidden = L1_I_flag;
 825              		.loc 1 438 4 is_stmt 1 view .LVU226
 438:generated/events_init.c **** 			ser1_I->hidden = L1_I_flag;
 826              		.loc 1 438 16 is_stmt 0 view .LVU227
 827 0032 094A     		ldr	r2, .L63+12
 828 0034 1378     		ldrb	r3, [r2]	@ zero_extendqisi2
 829 0036 B3FA83F3 		clz	r3, r3
 830 003a 5B09     		lsrs	r3, r3, #5
 438:generated/events_init.c **** 			ser1_I->hidden = L1_I_flag;
 831              		.loc 1 438 14 view .LVU228
 832 003c 1370     		strb	r3, [r2]
 439:generated/events_init.c **** 		}
 833              		.loc 1 439 4 is_stmt 1 view .LVU229
 439:generated/events_init.c **** 		}
 834              		.loc 1 439 10 is_stmt 0 view .LVU230
 835 003e 074A     		ldr	r2, .L63+16
 836 0040 1268     		ldr	r2, [r2]
 439:generated/events_init.c **** 		}
 837              		.loc 1 439 19 view .LVU231
 838 0042 117B     		ldrb	r1, [r2, #12]	@ zero_extendqisi2
 839 0044 63F30001 		bfi	r1, r3, #0, #1
 840 0048 1173     		strb	r1, [r2, #12]
 841 004a DEE7     		b	.L57
 842              	.L64:
 843              		.align	2
 844              	.L63:
 845 004c 00000000 		.word	V_I_flag
 846 0050 00000000 		.word	L1_flag
 847 0054 00000000 		.word	ser1
 848 0058 00000000 		.word	L1_I_flag
 849 005c 00000000 		.word	ser1_I
 850              		.cfi_endproc
 851              	.LFE603:
 853              		.section	.rodata.wave_model_btn_14_event_handler.str1.4,"aMS",%progbits,1
 854              		.align	2
 855              	.LC2:
 856 0000 67656E65 		.ascii	"generated/events_init.c\000"
 856      72617465 
 856      642F6576 
 856      656E7473 
 856      5F696E69 
 857              		.align	2
 858              	.LC3:
 859 0018 66696C65 		.ascii	"file_now >sd_count, set to 0\015\012\000"
 859      5F6E6F77 
 859      203E7364 
 859      5F636F75 
 859      6E742C20 
 860 0037 00       		.align	2
 861              	.LC4:
 862 0038 73657420 		.ascii	"set filenow to %d\000"
 862      66696C65 
 862      6E6F7720 
 862      746F2025 
 862      6400
 863 004a 0000     		.align	2
 864              	.LC5:
ARM GAS  C:\usertemp\ccMiPmMS.s 			page 32


 865 004c 303A7465 		.ascii	"0:test\000"
 865      737400
 866              		.section	.text.wave_model_btn_14_event_handler,"ax",%progbits
 867              		.align	1
 868              		.syntax unified
 869              		.thumb
 870              		.thumb_func
 872              	wave_model_btn_14_event_handler:
 873              	.LVL25:
 874              	.LFB613:
 685:generated/events_init.c **** static void wave_model_btn_14_event_handler(lv_event_t *e) // Y-
 686:generated/events_init.c **** {
 875              		.loc 1 686 1 is_stmt 1 view -0
 876              		.cfi_startproc
 877              		@ args = 0, pretend = 0, frame = 0
 878              		@ frame_needed = 0, uses_anonymous_args = 0
 879              		.loc 1 686 1 is_stmt 0 view .LVU233
 880 0000 10B5     		push	{r4, lr}
 881              	.LCFI9:
 882              		.cfi_def_cfa_offset 8
 883              		.cfi_offset 4, -8
 884              		.cfi_offset 14, -4
 885 0002 82B0     		sub	sp, sp, #8
 886              	.LCFI10:
 887              		.cfi_def_cfa_offset 16
 687:generated/events_init.c **** 	lv_event_code_t code = lv_event_get_code(e);
 888              		.loc 1 687 2 is_stmt 1 view .LVU234
 889              		.loc 1 687 25 is_stmt 0 view .LVU235
 890 0004 FFF7FEFF 		bl	lv_event_get_code
 891              	.LVL26:
 688:generated/events_init.c **** 
 689:generated/events_init.c **** 	switch (code)
 892              		.loc 1 689 2 is_stmt 1 view .LVU236
 893 0008 0728     		cmp	r0, #7
 894 000a 01D0     		beq	.L71
 895              	.LVL27:
 896              	.L65:
 690:generated/events_init.c **** 	{
 691:generated/events_init.c **** 	case LV_EVENT_CLICKED:
 692:generated/events_init.c **** 	{
 693:generated/events_init.c **** 		// taskENTER_CRITICAL();
 694:generated/events_init.c **** 		if (page == 0) // 波形显示模式
 695:generated/events_init.c **** 		{
 696:generated/events_init.c **** 			rat -= 10;
 697:generated/events_init.c **** 		}
 698:generated/events_init.c **** 		else if (page == 1) // 图片模式
 699:generated/events_init.c **** 		{
 700:generated/events_init.c **** 			vTaskSuspendAll();
 701:generated/events_init.c **** 			taskENTER_CRITICAL();
 702:generated/events_init.c **** 			file_now++;
 703:generated/events_init.c **** 			if (file_now > sd_count)
 704:generated/events_init.c **** 			{
 705:generated/events_init.c **** 				LV_LOG_USER("file_now >sd_count, set to 0\r\n");
 706:generated/events_init.c **** 				file_now = 0;
 707:generated/events_init.c **** 			}
 708:generated/events_init.c **** 			LV_LOG_USER("set filenow to %d", file_now);
 709:generated/events_init.c **** 			uint8_t temp = OpenFileByIndex("0:test", file_now);
ARM GAS  C:\usertemp\ccMiPmMS.s 			page 33


 710:generated/events_init.c **** 			if (temp)
 711:generated/events_init.c **** 			{
 712:generated/events_init.c **** 				refersh_lvgl_image(guider_ui.wave_model_img_1);
 713:generated/events_init.c **** 			}
 714:generated/events_init.c **** 			taskEXIT_CRITICAL();
 715:generated/events_init.c **** 			xTaskResumeAll();
 716:generated/events_init.c **** 		}
 717:generated/events_init.c **** 
 718:generated/events_init.c **** 		// taskENTER_CRITICAL();
 719:generated/events_init.c **** 		break;
 720:generated/events_init.c **** 	}
 721:generated/events_init.c **** 	default:
 722:generated/events_init.c **** 		break;
 723:generated/events_init.c **** 	}
 724:generated/events_init.c **** }
 897              		.loc 1 724 1 is_stmt 0 view .LVU237
 898 000c 02B0     		add	sp, sp, #8
 899              	.LCFI11:
 900              		.cfi_remember_state
 901              		.cfi_def_cfa_offset 8
 902              		@ sp needed
 903 000e 10BD     		pop	{r4, pc}
 904              	.LVL28:
 905              	.L71:
 906              	.LCFI12:
 907              		.cfi_restore_state
 694:generated/events_init.c **** 		{
 908              		.loc 1 694 3 is_stmt 1 view .LVU238
 694:generated/events_init.c **** 		{
 909              		.loc 1 694 12 is_stmt 0 view .LVU239
 910 0010 234B     		ldr	r3, .L74
 911 0012 93F90030 		ldrsb	r3, [r3]
 694:generated/events_init.c **** 		{
 912              		.loc 1 694 6 view .LVU240
 913 0016 4BB9     		cbnz	r3, .L67
 696:generated/events_init.c **** 		}
 914              		.loc 1 696 4 is_stmt 1 view .LVU241
 696:generated/events_init.c **** 		}
 915              		.loc 1 696 8 is_stmt 0 view .LVU242
 916 0018 224B     		ldr	r3, .L74+4
 917 001a D3ED007A 		vldr.32	s15, [r3]
 918 001e B2EE047A 		vmov.f32	s14, #1.0e+1
 919 0022 77EEC77A 		vsub.f32	s15, s15, s14
 920 0026 C3ED007A 		vstr.32	s15, [r3]
 921 002a EFE7     		b	.L65
 922              	.L67:
 698:generated/events_init.c **** 		{
 923              		.loc 1 698 8 is_stmt 1 view .LVU243
 698:generated/events_init.c **** 		{
 924              		.loc 1 698 11 is_stmt 0 view .LVU244
 925 002c 012B     		cmp	r3, #1
 926 002e EDD1     		bne	.L65
 927              	.LBB2:
 700:generated/events_init.c **** 			taskENTER_CRITICAL();
 928              		.loc 1 700 4 is_stmt 1 view .LVU245
 929 0030 FFF7FEFF 		bl	vTaskSuspendAll
 930              	.LVL29:
ARM GAS  C:\usertemp\ccMiPmMS.s 			page 34


 701:generated/events_init.c **** 			file_now++;
 931              		.loc 1 701 4 view .LVU246
 932 0034 FFF7FEFF 		bl	vPortEnterCritical
 933              	.LVL30:
 702:generated/events_init.c **** 			if (file_now > sd_count)
 934              		.loc 1 702 4 view .LVU247
 702:generated/events_init.c **** 			if (file_now > sd_count)
 935              		.loc 1 702 12 is_stmt 0 view .LVU248
 936 0038 1B4A     		ldr	r2, .L74+8
 937 003a 1388     		ldrh	r3, [r2]
 938 003c 0133     		adds	r3, r3, #1
 939 003e 1BB2     		sxth	r3, r3
 940 0040 1380     		strh	r3, [r2]	@ movhi
 703:generated/events_init.c **** 			{
 941              		.loc 1 703 4 is_stmt 1 view .LVU249
 703:generated/events_init.c **** 			{
 942              		.loc 1 703 17 is_stmt 0 view .LVU250
 943 0042 1A4A     		ldr	r2, .L74+12
 944 0044 B2F90020 		ldrsh	r2, [r2]
 703:generated/events_init.c **** 			{
 945              		.loc 1 703 7 view .LVU251
 946 0048 9342     		cmp	r3, r2
 947 004a 16DC     		bgt	.L72
 948              	.L68:
 708:generated/events_init.c **** 			uint8_t temp = OpenFileByIndex("0:test", file_now);
 949              		.loc 1 708 4 is_stmt 1 view .LVU252
 950 004c 164C     		ldr	r4, .L74+8
 951 004e B4F90030 		ldrsh	r3, [r4]
 952 0052 0193     		str	r3, [sp, #4]
 953 0054 164B     		ldr	r3, .L74+16
 954 0056 0093     		str	r3, [sp]
 955 0058 164B     		ldr	r3, .L74+20
 956 005a 4FF43172 		mov	r2, #708
 957 005e 1649     		ldr	r1, .L74+24
 958 0060 0420     		movs	r0, #4
 959 0062 FFF7FEFF 		bl	_lv_log_add
 960              	.LVL31:
 709:generated/events_init.c **** 			if (temp)
 961              		.loc 1 709 4 view .LVU253
 709:generated/events_init.c **** 			if (temp)
 962              		.loc 1 709 19 is_stmt 0 view .LVU254
 963 0066 2188     		ldrh	r1, [r4]
 964 0068 1448     		ldr	r0, .L74+28
 965 006a FFF7FEFF 		bl	OpenFileByIndex
 966              	.LVL32:
 710:generated/events_init.c **** 			{
 967              		.loc 1 710 4 is_stmt 1 view .LVU255
 710:generated/events_init.c **** 			{
 968              		.loc 1 710 7 is_stmt 0 view .LVU256
 969 006e 88B9     		cbnz	r0, .L73
 970              	.LVL33:
 971              	.L69:
 714:generated/events_init.c **** 			xTaskResumeAll();
 972              		.loc 1 714 4 is_stmt 1 view .LVU257
 973 0070 FFF7FEFF 		bl	vPortExitCritical
 974              	.LVL34:
 715:generated/events_init.c **** 		}
ARM GAS  C:\usertemp\ccMiPmMS.s 			page 35


 975              		.loc 1 715 4 view .LVU258
 976 0074 FFF7FEFF 		bl	xTaskResumeAll
 977              	.LVL35:
 978              	.LBE2:
 979              		.loc 1 724 1 is_stmt 0 view .LVU259
 980 0078 C8E7     		b	.L65
 981              	.LVL36:
 982              	.L72:
 983              	.LBB3:
 705:generated/events_init.c **** 				file_now = 0;
 984              		.loc 1 705 5 is_stmt 1 view .LVU260
 985 007a 114B     		ldr	r3, .L74+32
 986 007c 0093     		str	r3, [sp]
 987 007e 0D4B     		ldr	r3, .L74+20
 988 0080 40F2C122 		movw	r2, #705
 989 0084 0C49     		ldr	r1, .L74+24
 990 0086 0420     		movs	r0, #4
 991 0088 FFF7FEFF 		bl	_lv_log_add
 992              	.LVL37:
 706:generated/events_init.c **** 			}
 993              		.loc 1 706 5 view .LVU261
 706:generated/events_init.c **** 			}
 994              		.loc 1 706 14 is_stmt 0 view .LVU262
 995 008c 064B     		ldr	r3, .L74+8
 996 008e 0022     		movs	r2, #0
 997 0090 1A80     		strh	r2, [r3]	@ movhi
 998 0092 DBE7     		b	.L68
 999              	.LVL38:
 1000              	.L73:
 712:generated/events_init.c **** 			}
 1001              		.loc 1 712 5 is_stmt 1 view .LVU263
 1002 0094 0B4B     		ldr	r3, .L74+36
 1003 0096 D3F8AC00 		ldr	r0, [r3, #172]
 1004              	.LVL39:
 712:generated/events_init.c **** 			}
 1005              		.loc 1 712 5 is_stmt 0 view .LVU264
 1006 009a FFF7FEFF 		bl	refersh_lvgl_image
 1007              	.LVL40:
 1008 009e E7E7     		b	.L69
 1009              	.L75:
 1010              		.align	2
 1011              	.L74:
 1012 00a0 00000000 		.word	page
 1013 00a4 00000000 		.word	rat
 1014 00a8 00000000 		.word	file_now
 1015 00ac 00000000 		.word	sd_count
 1016 00b0 38000000 		.word	.LC4
 1017 00b4 00000000 		.word	__func__.3
 1018 00b8 00000000 		.word	.LC2
 1019 00bc 4C000000 		.word	.LC5
 1020 00c0 18000000 		.word	.LC3
 1021 00c4 00000000 		.word	guider_ui
 1022              	.LBE3:
 1023              		.cfi_endproc
 1024              	.LFE613:
 1026              		.section	.rodata.wave_model_btn_9_event_handler.str1.4,"aMS",%progbits,1
 1027              		.align	2
ARM GAS  C:\usertemp\ccMiPmMS.s 			page 36


 1028              	.LC6:
 1029 0000 66696C65 		.ascii	"file_now < 0, set to sd_count\015\012\000"
 1029      5F6E6F77 
 1029      203C2030 
 1029      2C207365 
 1029      7420746F 
 1030              		.section	.text.wave_model_btn_9_event_handler,"ax",%progbits
 1031              		.align	1
 1032              		.syntax unified
 1033              		.thumb
 1034              		.thumb_func
 1036              	wave_model_btn_9_event_handler:
 1037              	.LVL41:
 1038              	.LFB608:
 578:generated/events_init.c **** 	lv_event_code_t code = lv_event_get_code(e);
 1039              		.loc 1 578 1 is_stmt 1 view -0
 1040              		.cfi_startproc
 1041              		@ args = 0, pretend = 0, frame = 0
 1042              		@ frame_needed = 0, uses_anonymous_args = 0
 578:generated/events_init.c **** 	lv_event_code_t code = lv_event_get_code(e);
 1043              		.loc 1 578 1 is_stmt 0 view .LVU266
 1044 0000 00B5     		push	{lr}
 1045              	.LCFI13:
 1046              		.cfi_def_cfa_offset 4
 1047              		.cfi_offset 14, -4
 1048 0002 83B0     		sub	sp, sp, #12
 1049              	.LCFI14:
 1050              		.cfi_def_cfa_offset 16
 579:generated/events_init.c **** 
 1051              		.loc 1 579 2 is_stmt 1 view .LVU267
 579:generated/events_init.c **** 
 1052              		.loc 1 579 25 is_stmt 0 view .LVU268
 1053 0004 FFF7FEFF 		bl	lv_event_get_code
 1054              	.LVL42:
 581:generated/events_init.c **** 	{
 1055              		.loc 1 581 2 is_stmt 1 view .LVU269
 1056 0008 0728     		cmp	r0, #7
 1057 000a 02D0     		beq	.L83
 1058              	.LVL43:
 1059              	.L76:
 620:generated/events_init.c **** static void wave_model_btn_10_event_handler(lv_event_t *e) // X-
 1060              		.loc 1 620 1 is_stmt 0 view .LVU270
 1061 000c 03B0     		add	sp, sp, #12
 1062              	.LCFI15:
 1063              		.cfi_remember_state
 1064              		.cfi_def_cfa_offset 4
 1065              		@ sp needed
 1066 000e 5DF804FB 		ldr	pc, [sp], #4
 1067              	.LVL44:
 1068              	.L83:
 1069              	.LCFI16:
 1070              		.cfi_restore_state
 1071              	.LBB4:
 586:generated/events_init.c **** 		{
 1072              		.loc 1 586 3 is_stmt 1 view .LVU271
 586:generated/events_init.c **** 		{
 1073              		.loc 1 586 12 is_stmt 0 view .LVU272
ARM GAS  C:\usertemp\ccMiPmMS.s 			page 37


 1074 0012 274B     		ldr	r3, .L87
 1075 0014 93F90030 		ldrsb	r3, [r3]
 586:generated/events_init.c **** 		{
 1076              		.loc 1 586 6 view .LVU273
 1077 0018 83B9     		cbnz	r3, .L78
 588:generated/events_init.c **** 			if (step == 0)
 1078              		.loc 1 588 4 is_stmt 1 view .LVU274
 588:generated/events_init.c **** 			if (step == 0)
 1079              		.loc 1 588 8 is_stmt 0 view .LVU275
 1080 001a 264B     		ldr	r3, .L87+4
 1081 001c D3ED007A 		vldr.32	s15, [r3]
 1082 0020 B7EE007A 		vmov.f32	s14, #1.0e+0
 1083 0024 77EEC77A 		vsub.f32	s15, s15, s14
 1084 0028 C3ED007A 		vstr.32	s15, [r3]
 589:generated/events_init.c **** 			{
 1085              		.loc 1 589 4 is_stmt 1 view .LVU276
 589:generated/events_init.c **** 			{
 1086              		.loc 1 589 7 is_stmt 0 view .LVU277
 1087 002c F5EE407A 		vcmp.f32	s15, #0
 1088 0030 F1EE10FA 		vmrs	APSR_nzcv, FPSCR
 1089 0034 04D1     		bne	.L79
 591:generated/events_init.c **** 			}
 1090              		.loc 1 591 5 is_stmt 1 view .LVU278
 591:generated/events_init.c **** 			}
 1091              		.loc 1 591 10 is_stmt 0 view .LVU279
 1092 0036 83ED007A 		vstr.32	s14, [r3]
 1093 003a 01E0     		b	.L79
 1094              	.L78:
 594:generated/events_init.c **** 		{
 1095              		.loc 1 594 8 is_stmt 1 view .LVU280
 594:generated/events_init.c **** 		{
 1096              		.loc 1 594 11 is_stmt 0 view .LVU281
 1097 003c 012B     		cmp	r3, #1
 1098 003e 0AD0     		beq	.L84
 1099              	.LVL45:
 1100              	.L79:
 606:generated/events_init.c **** 		if (temp)
 1101              		.loc 1 606 3 is_stmt 1 view .LVU282
 606:generated/events_init.c **** 		if (temp)
 1102              		.loc 1 606 18 is_stmt 0 view .LVU283
 1103 0040 1D4B     		ldr	r3, .L87+8
 1104 0042 1988     		ldrh	r1, [r3]
 1105 0044 1D48     		ldr	r0, .L87+12
 1106 0046 FFF7FEFF 		bl	OpenFileByIndex
 1107              	.LVL46:
 607:generated/events_init.c **** 		{
 1108              		.loc 1 607 3 is_stmt 1 view .LVU284
 607:generated/events_init.c **** 		{
 1109              		.loc 1 607 6 is_stmt 0 view .LVU285
 1110 004a 58BB     		cbnz	r0, .L85
 1111              	.LVL47:
 1112              	.L81:
 611:generated/events_init.c **** 		xTaskResumeAll();
 1113              		.loc 1 611 3 is_stmt 1 view .LVU286
 1114 004c FFF7FEFF 		bl	vPortExitCritical
 1115              	.LVL48:
 612:generated/events_init.c **** 
ARM GAS  C:\usertemp\ccMiPmMS.s 			page 38


 1116              		.loc 1 612 3 view .LVU287
 1117 0050 FFF7FEFF 		bl	xTaskResumeAll
 1118              	.LVL49:
 615:generated/events_init.c **** 	}
 1119              		.loc 1 615 3 view .LVU288
 1120              	.LBE4:
 620:generated/events_init.c **** static void wave_model_btn_10_event_handler(lv_event_t *e) // X-
 1121              		.loc 1 620 1 is_stmt 0 view .LVU289
 1122 0054 DAE7     		b	.L76
 1123              	.LVL50:
 1124              	.L84:
 1125              	.LBB5:
 596:generated/events_init.c **** 			taskENTER_CRITICAL();
 1126              		.loc 1 596 4 is_stmt 1 view .LVU290
 1127 0056 FFF7FEFF 		bl	vTaskSuspendAll
 1128              	.LVL51:
 597:generated/events_init.c **** 			file_now--;
 1129              		.loc 1 597 4 view .LVU291
 1130 005a FFF7FEFF 		bl	vPortEnterCritical
 1131              	.LVL52:
 598:generated/events_init.c **** 			if (file_now < 0)
 1132              		.loc 1 598 4 view .LVU292
 598:generated/events_init.c **** 			if (file_now < 0)
 1133              		.loc 1 598 12 is_stmt 0 view .LVU293
 1134 005e 164A     		ldr	r2, .L87+8
 1135 0060 1388     		ldrh	r3, [r2]
 1136 0062 013B     		subs	r3, r3, #1
 1137 0064 1BB2     		sxth	r3, r3
 1138 0066 1380     		strh	r3, [r2]	@ movhi
 599:generated/events_init.c **** 			{
 1139              		.loc 1 599 4 is_stmt 1 view .LVU294
 599:generated/events_init.c **** 			{
 1140              		.loc 1 599 7 is_stmt 0 view .LVU295
 1141 0068 002B     		cmp	r3, #0
 1142 006a 0DDB     		blt	.L86
 1143              	.L80:
 604:generated/events_init.c **** 		}
 1144              		.loc 1 604 4 is_stmt 1 view .LVU296
 1145 006c 124B     		ldr	r3, .L87+8
 1146 006e B3F90030 		ldrsh	r3, [r3]
 1147 0072 0193     		str	r3, [sp, #4]
 1148 0074 124B     		ldr	r3, .L87+16
 1149 0076 0093     		str	r3, [sp]
 1150 0078 124B     		ldr	r3, .L87+20
 1151 007a 4FF41772 		mov	r2, #604
 1152 007e 1249     		ldr	r1, .L87+24
 1153 0080 0420     		movs	r0, #4
 1154 0082 FFF7FEFF 		bl	_lv_log_add
 1155              	.LVL53:
 1156 0086 DBE7     		b	.L79
 1157              	.L86:
 601:generated/events_init.c **** 				file_now = sd_count;
 1158              		.loc 1 601 5 view .LVU297
 1159 0088 104B     		ldr	r3, .L87+28
 1160 008a 0093     		str	r3, [sp]
 1161 008c 0D4B     		ldr	r3, .L87+20
 1162 008e 40F25922 		movw	r2, #601
ARM GAS  C:\usertemp\ccMiPmMS.s 			page 39


 1163 0092 0D49     		ldr	r1, .L87+24
 1164 0094 0420     		movs	r0, #4
 1165 0096 FFF7FEFF 		bl	_lv_log_add
 1166              	.LVL54:
 602:generated/events_init.c **** 			}
 1167              		.loc 1 602 5 view .LVU298
 602:generated/events_init.c **** 			}
 1168              		.loc 1 602 14 is_stmt 0 view .LVU299
 1169 009a 0D4B     		ldr	r3, .L87+32
 1170 009c 1A88     		ldrh	r2, [r3]
 1171 009e 064B     		ldr	r3, .L87+8
 1172 00a0 1A80     		strh	r2, [r3]	@ movhi
 1173 00a2 E3E7     		b	.L80
 1174              	.LVL55:
 1175              	.L85:
 609:generated/events_init.c **** 		}
 1176              		.loc 1 609 4 is_stmt 1 view .LVU300
 1177 00a4 0B4B     		ldr	r3, .L87+36
 1178 00a6 D3F8AC00 		ldr	r0, [r3, #172]
 1179              	.LVL56:
 609:generated/events_init.c **** 		}
 1180              		.loc 1 609 4 is_stmt 0 view .LVU301
 1181 00aa FFF7FEFF 		bl	refersh_lvgl_image
 1182              	.LVL57:
 1183 00ae CDE7     		b	.L81
 1184              	.L88:
 1185              		.align	2
 1186              	.L87:
 1187 00b0 00000000 		.word	page
 1188 00b4 00000000 		.word	step
 1189 00b8 00000000 		.word	file_now
 1190 00bc 4C000000 		.word	.LC5
 1191 00c0 38000000 		.word	.LC4
 1192 00c4 00000000 		.word	__func__.2
 1193 00c8 00000000 		.word	.LC2
 1194 00cc 00000000 		.word	.LC6
 1195 00d0 00000000 		.word	sd_count
 1196 00d4 00000000 		.word	guider_ui
 1197              	.LBE5:
 1198              		.cfi_endproc
 1199              	.LFE608:
 1201              		.section	.text.wave_model_event_handler,"ax",%progbits
 1202              		.align	1
 1203              		.syntax unified
 1204              		.thumb
 1205              		.thumb_func
 1207              	wave_model_event_handler:
 1208              	.LVL58:
 1209              	.LFB599:
 308:generated/events_init.c **** 	lv_event_code_t code = lv_event_get_code(e);
 1210              		.loc 1 308 1 is_stmt 1 view -0
 1211              		.cfi_startproc
 1212              		@ args = 0, pretend = 0, frame = 0
 1213              		@ frame_needed = 0, uses_anonymous_args = 0
 308:generated/events_init.c **** 	lv_event_code_t code = lv_event_get_code(e);
 1214              		.loc 1 308 1 is_stmt 0 view .LVU303
 1215 0000 08B5     		push	{r3, lr}
ARM GAS  C:\usertemp\ccMiPmMS.s 			page 40


 1216              	.LCFI17:
 1217              		.cfi_def_cfa_offset 8
 1218              		.cfi_offset 3, -8
 1219              		.cfi_offset 14, -4
 309:generated/events_init.c **** 
 1220              		.loc 1 309 2 is_stmt 1 view .LVU304
 309:generated/events_init.c **** 
 1221              		.loc 1 309 25 is_stmt 0 view .LVU305
 1222 0002 FFF7FEFF 		bl	lv_event_get_code
 1223              	.LVL59:
 311:generated/events_init.c **** 	{
 1224              		.loc 1 311 2 is_stmt 1 view .LVU306
 1225 0006 0C28     		cmp	r0, #12
 1226 0008 00D0     		beq	.L92
 1227              	.LVL60:
 1228              	.L89:
 329:generated/events_init.c **** static void wave_model_btn_2_event_handler(lv_event_t *e) // 电压电流波形切换
 1229              		.loc 1 329 1 is_stmt 0 view .LVU307
 1230 000a 08BD     		pop	{r3, pc}
 1231              	.LVL61:
 1232              	.L92:
 1233              	.LBB6:
 315:generated/events_init.c **** 		switch (dir)
 1234              		.loc 1 315 3 is_stmt 1 view .LVU308
 315:generated/events_init.c **** 		switch (dir)
 1235              		.loc 1 315 43 is_stmt 0 view .LVU309
 1236 000c FFF7FEFF 		bl	lv_indev_get_act
 1237              	.LVL62:
 315:generated/events_init.c **** 		switch (dir)
 1238              		.loc 1 315 18 discriminator 1 view .LVU310
 1239 0010 FFF7FEFF 		bl	lv_indev_get_gesture_dir
 1240              	.LVL63:
 316:generated/events_init.c **** 		{
 1241              		.loc 1 316 3 is_stmt 1 view .LVU311
 1242 0014 0128     		cmp	r0, #1
 1243 0016 F8D1     		bne	.L89
 320:generated/events_init.c **** 			break;
 1244              		.loc 1 320 4 view .LVU312
 1245 0018 FFF7FEFF 		bl	lv_indev_get_act
 1246              	.LVL64:
 320:generated/events_init.c **** 			break;
 1247              		.loc 1 320 4 is_stmt 0 discriminator 1 view .LVU313
 1248 001c FFF7FEFF 		bl	lv_indev_wait_release
 1249              	.LVL65:
 321:generated/events_init.c **** 		}
 1250              		.loc 1 321 4 is_stmt 1 view .LVU314
 1251              	.LBE6:
 329:generated/events_init.c **** static void wave_model_btn_2_event_handler(lv_event_t *e) // 电压电流波形切换
 1252              		.loc 1 329 1 is_stmt 0 view .LVU315
 1253 0020 F3E7     		b	.L89
 1254              		.cfi_endproc
 1255              	.LFE599:
 1257              		.section	.text.switch_btn,"ax",%progbits
 1258              		.align	1
 1259              		.global	switch_btn
 1260              		.syntax unified
 1261              		.thumb
ARM GAS  C:\usertemp\ccMiPmMS.s 			page 41


 1262              		.thumb_func
 1264              	switch_btn:
 1265              	.LVL66:
 1266              	.LFB615:
 725:generated/events_init.c **** 
 726:generated/events_init.c **** void events_init_wave_model(lv_ui *ui)
 727:generated/events_init.c **** {
 728:generated/events_init.c **** 	lv_obj_add_event_cb(ui->wave_model, wave_model_event_handler, LV_EVENT_ALL, NULL);
 729:generated/events_init.c **** 	lv_obj_add_event_cb(ui->wave_model_btn_1, wave_model_btn_1_event_handler, LV_EVENT_ALL, NULL);
 730:generated/events_init.c **** 	lv_obj_add_event_cb(ui->wave_model_btn_2, wave_model_btn_2_event_handler, LV_EVENT_ALL, NULL);
 731:generated/events_init.c **** 	lv_obj_add_event_cb(ui->wave_model_btn_3, wave_model_btn_3_event_handler, LV_EVENT_ALL, NULL);
 732:generated/events_init.c **** 	lv_obj_add_event_cb(ui->wave_model_btn_4, wave_model_btn_4_event_handler, LV_EVENT_ALL, NULL);
 733:generated/events_init.c **** 	lv_obj_add_event_cb(ui->wave_model_btn_5, wave_model_btn_5_event_handler, LV_EVENT_ALL, NULL);
 734:generated/events_init.c **** 	lv_obj_add_event_cb(ui->wave_model_btn_6, wave_model_btn_6_event_handler, LV_EVENT_ALL, NULL);
 735:generated/events_init.c **** 	lv_obj_add_event_cb(ui->wave_model_btn_7, wave_model_btn_7_event_handler, LV_EVENT_ALL, NULL);
 736:generated/events_init.c **** 	lv_obj_add_event_cb(ui->wave_model_btn_8, wave_model_btn_8_event_handler, LV_EVENT_ALL, NULL);
 737:generated/events_init.c **** 	lv_obj_add_event_cb(ui->wave_model_btn_9, wave_model_btn_9_event_handler, LV_EVENT_ALL, NULL);
 738:generated/events_init.c **** 	lv_obj_add_event_cb(ui->wave_model_btn_10, wave_model_btn_10_event_handler, LV_EVENT_ALL, NULL);
 739:generated/events_init.c **** 	lv_obj_add_event_cb(ui->wave_model_btn_11, wave_model_btn_11_event_handler, LV_EVENT_ALL, NULL);
 740:generated/events_init.c **** 	lv_obj_add_event_cb(ui->wave_model_btn_12, wave_model_btn_12_event_handler, LV_EVENT_ALL, NULL);
 741:generated/events_init.c **** 	lv_obj_add_event_cb(ui->wave_model_btn_13, wave_model_btn_13_event_handler, LV_EVENT_ALL, NULL);
 742:generated/events_init.c **** 	lv_obj_add_event_cb(ui->wave_model_btn_14, wave_model_btn_14_event_handler, LV_EVENT_ALL, NULL);
 743:generated/events_init.c **** }
 744:generated/events_init.c **** 
 745:generated/events_init.c **** void switch_btn(lv_timer_t *timer)
 746:generated/events_init.c **** {
 1267              		.loc 1 746 1 is_stmt 1 view -0
 1268              		.cfi_startproc
 1269              		@ args = 0, pretend = 0, frame = 0
 1270              		@ frame_needed = 0, uses_anonymous_args = 0
 1271              		.loc 1 746 1 is_stmt 0 view .LVU317
 1272 0000 10B5     		push	{r4, lr}
 1273              	.LCFI18:
 1274              		.cfi_def_cfa_offset 8
 1275              		.cfi_offset 4, -8
 1276              		.cfi_offset 14, -4
 1277 0002 0446     		mov	r4, r0
 747:generated/events_init.c **** 	lv_obj_add_flag(guider_ui.wave_model_msg, LV_OBJ_FLAG_HIDDEN);
 1278              		.loc 1 747 2 is_stmt 1 view .LVU318
 1279 0004 0121     		movs	r1, #1
 1280 0006 044B     		ldr	r3, .L95
 1281 0008 D3F8E400 		ldr	r0, [r3, #228]
 1282              	.LVL67:
 1283              		.loc 1 747 2 is_stmt 0 view .LVU319
 1284 000c FFF7FEFF 		bl	lv_obj_add_flag
 1285              	.LVL68:
 748:generated/events_init.c **** 	lv_timer_del(timer); // 删除定时器，避免占用资源
 1286              		.loc 1 748 2 is_stmt 1 view .LVU320
 1287 0010 2046     		mov	r0, r4
 1288 0012 FFF7FEFF 		bl	lv_timer_del
 1289              	.LVL69:
 749:generated/events_init.c **** }
 1290              		.loc 1 749 1 is_stmt 0 view .LVU321
 1291 0016 10BD     		pop	{r4, pc}
 1292              	.LVL70:
 1293              	.L96:
 1294              		.loc 1 749 1 view .LVU322
ARM GAS  C:\usertemp\ccMiPmMS.s 			page 42


 1295              		.align	2
 1296              	.L95:
 1297 0018 00000000 		.word	guider_ui
 1298              		.cfi_endproc
 1299              	.LFE615:
 1301              		.section	.rodata.page_switch.str1.4,"aMS",%progbits,1
 1302              		.align	2
 1303              	.LC7:
 1304 0000 592D00   		.ascii	"Y-\000"
 1305 0003 00       		.align	2
 1306              	.LC8:
 1307 0004 592B00   		.ascii	"Y+\000"
 1308 0007 00       		.align	2
 1309              	.LC9:
 1310 0008 2D3E00   		.ascii	"->\000"
 1311 000b 00       		.align	2
 1312              	.LC10:
 1313 000c 3C2D00   		.ascii	"<-\000"
 1314              		.section	.text.page_switch,"ax",%progbits
 1315              		.align	1
 1316              		.global	page_switch
 1317              		.syntax unified
 1318              		.thumb
 1319              		.thumb_func
 1321              	page_switch:
 1322              	.LFB598:
  46:generated/events_init.c **** 	if (page == 0) // 波形模式
 1323              		.loc 1 46 1 is_stmt 1 view -0
 1324              		.cfi_startproc
 1325              		@ args = 0, pretend = 0, frame = 0
 1326              		@ frame_needed = 0, uses_anonymous_args = 0
 1327 0000 10B5     		push	{r4, lr}
 1328              	.LCFI19:
 1329              		.cfi_def_cfa_offset 8
 1330              		.cfi_offset 4, -8
 1331              		.cfi_offset 14, -4
  47:generated/events_init.c **** 	{
 1332              		.loc 1 47 2 view .LVU324
  47:generated/events_init.c **** 	{
 1333              		.loc 1 47 11 is_stmt 0 view .LVU325
 1334 0002 CC4B     		ldr	r3, .L109
 1335 0004 93F90030 		ldrsb	r3, [r3]
  47:generated/events_init.c **** 	{
 1336              		.loc 1 47 5 view .LVU326
 1337 0008 C3B1     		cbz	r3, .L104
 1338              	.L98:
 100:generated/events_init.c **** 	{			   //+227 +70
 1339              		.loc 1 100 2 is_stmt 1 view .LVU327
 100:generated/events_init.c **** 	{			   //+227 +70
 1340              		.loc 1 100 11 is_stmt 0 view .LVU328
 1341 000a CA4B     		ldr	r3, .L109
 1342 000c 93F90030 		ldrsb	r3, [r3]
 100:generated/events_init.c **** 	{			   //+227 +70
 1343              		.loc 1 100 5 view .LVU329
 1344 0010 012B     		cmp	r3, #1
 1345 0012 00F0F780 		beq	.L105
 1346              	.L99:
ARM GAS  C:\usertemp\ccMiPmMS.s 			page 43


 141:generated/events_init.c **** 	{
 1347              		.loc 1 141 2 is_stmt 1 view .LVU330
 141:generated/events_init.c **** 	{
 1348              		.loc 1 141 11 is_stmt 0 view .LVU331
 1349 0016 C74B     		ldr	r3, .L109
 1350 0018 93F90030 		ldrsb	r3, [r3]
 141:generated/events_init.c **** 	{
 1351              		.loc 1 141 5 view .LVU332
 1352 001c 022B     		cmp	r3, #2
 1353 001e 00F09581 		beq	.L106
 1354              	.L100:
 198:generated/events_init.c **** 	{
 1355              		.loc 1 198 2 is_stmt 1 view .LVU333
 198:generated/events_init.c **** 	{
 1356              		.loc 1 198 11 is_stmt 0 view .LVU334
 1357 0022 C44B     		ldr	r3, .L109
 1358 0024 93F90030 		ldrsb	r3, [r3]
 198:generated/events_init.c **** 	{
 1359              		.loc 1 198 5 view .LVU335
 1360 0028 032B     		cmp	r3, #3
 1361 002a 00F07982 		beq	.L107
 1362              	.L101:
 253:generated/events_init.c **** 	{
 1363              		.loc 1 253 2 is_stmt 1 view .LVU336
 253:generated/events_init.c **** 	{
 1364              		.loc 1 253 11 is_stmt 0 view .LVU337
 1365 002e C14B     		ldr	r3, .L109
 1366 0030 93F90030 		ldrsb	r3, [r3]
 253:generated/events_init.c **** 	{
 1367              		.loc 1 253 5 view .LVU338
 1368 0034 042B     		cmp	r3, #4
 1369 0036 00F05783 		beq	.L108
 1370              	.L97:
 305:generated/events_init.c **** 
 1371              		.loc 1 305 1 view .LVU339
 1372 003a 10BD     		pop	{r4, pc}
 1373              	.L104:
  49:generated/events_init.c **** 		lv_obj_add_flag(guider_ui.wave_model_table_1, LV_OBJ_FLAG_HIDDEN);
 1374              		.loc 1 49 3 is_stmt 1 view .LVU340
 1375 003c BE4C     		ldr	r4, .L109+4
 1376 003e 0121     		movs	r1, #1
 1377 0040 A068     		ldr	r0, [r4, #8]
 1378 0042 FFF7FEFF 		bl	lv_obj_add_flag
 1379              	.LVL71:
  50:generated/events_init.c **** 		lv_obj_clear_flag(guider_ui.wave_model_chart_2, LV_OBJ_FLAG_HIDDEN);
 1380              		.loc 1 50 3 view .LVU341
 1381 0046 0121     		movs	r1, #1
 1382 0048 D4F8A000 		ldr	r0, [r4, #160]
 1383 004c FFF7FEFF 		bl	lv_obj_add_flag
 1384              	.LVL72:
  51:generated/events_init.c **** 		lv_obj_add_flag(guider_ui.wave_model_img_1, LV_OBJ_FLAG_HIDDEN);
 1385              		.loc 1 51 3 view .LVU342
 1386 0050 0121     		movs	r1, #1
 1387 0052 D4F88C00 		ldr	r0, [r4, #140]
 1388 0056 FFF7FEFF 		bl	lv_obj_clear_flag
 1389              	.LVL73:
  52:generated/events_init.c **** 		lv_obj_clear_flag(guider_ui.wave_model_label_25, LV_OBJ_FLAG_HIDDEN);
ARM GAS  C:\usertemp\ccMiPmMS.s 			page 44


 1390              		.loc 1 52 3 view .LVU343
 1391 005a 0121     		movs	r1, #1
 1392 005c D4F8AC00 		ldr	r0, [r4, #172]
 1393 0060 FFF7FEFF 		bl	lv_obj_add_flag
 1394              	.LVL74:
  53:generated/events_init.c **** 		lv_obj_clear_flag(guider_ui.wave_model_label_24, LV_OBJ_FLAG_HIDDEN);
 1395              		.loc 1 53 3 view .LVU344
 1396 0064 0121     		movs	r1, #1
 1397 0066 D4F88000 		ldr	r0, [r4, #128]
 1398 006a FFF7FEFF 		bl	lv_obj_clear_flag
 1399              	.LVL75:
  54:generated/events_init.c **** 		lv_obj_clear_flag(guider_ui.wave_model_label_23, LV_OBJ_FLAG_HIDDEN);
 1400              		.loc 1 54 3 view .LVU345
 1401 006e 0121     		movs	r1, #1
 1402 0070 E06F     		ldr	r0, [r4, #124]
 1403 0072 FFF7FEFF 		bl	lv_obj_clear_flag
 1404              	.LVL76:
  55:generated/events_init.c **** 		lv_obj_clear_flag(guider_ui.wave_model_label_22, LV_OBJ_FLAG_HIDDEN);
 1405              		.loc 1 55 3 view .LVU346
 1406 0076 0121     		movs	r1, #1
 1407 0078 A06F     		ldr	r0, [r4, #120]
 1408 007a FFF7FEFF 		bl	lv_obj_clear_flag
 1409              	.LVL77:
  56:generated/events_init.c **** 		lv_obj_clear_flag(guider_ui.wave_model_label_21, LV_OBJ_FLAG_HIDDEN);
 1410              		.loc 1 56 3 view .LVU347
 1411 007e 0121     		movs	r1, #1
 1412 0080 606F     		ldr	r0, [r4, #116]
 1413 0082 FFF7FEFF 		bl	lv_obj_clear_flag
 1414              	.LVL78:
  57:generated/events_init.c **** 		lv_obj_clear_flag(guider_ui.wave_model_num_1, LV_OBJ_FLAG_HIDDEN);
 1415              		.loc 1 57 3 view .LVU348
 1416 0086 0121     		movs	r1, #1
 1417 0088 206F     		ldr	r0, [r4, #112]
 1418 008a FFF7FEFF 		bl	lv_obj_clear_flag
 1419              	.LVL79:
  58:generated/events_init.c **** 		lv_obj_clear_flag(guider_ui.wave_model_N_val, LV_OBJ_FLAG_HIDDEN);
 1420              		.loc 1 58 3 view .LVU349
 1421 008e 0121     		movs	r1, #1
 1422 0090 D4F88800 		ldr	r0, [r4, #136]
 1423 0094 FFF7FEFF 		bl	lv_obj_clear_flag
 1424              	.LVL80:
  59:generated/events_init.c **** 		lv_obj_clear_flag(guider_ui.wave_model_three_value, LV_OBJ_FLAG_HIDDEN);
 1425              		.loc 1 59 3 view .LVU350
 1426 0098 0121     		movs	r1, #1
 1427 009a D4F88400 		ldr	r0, [r4, #132]
 1428 009e FFF7FEFF 		bl	lv_obj_clear_flag
 1429              	.LVL81:
  60:generated/events_init.c **** 		lv_obj_clear_flag(guider_ui.wave_model_two_value, LV_OBJ_FLAG_HIDDEN);
 1430              		.loc 1 60 3 view .LVU351
 1431 00a2 0121     		movs	r1, #1
 1432 00a4 E06E     		ldr	r0, [r4, #108]
 1433 00a6 FFF7FEFF 		bl	lv_obj_clear_flag
 1434              	.LVL82:
  61:generated/events_init.c **** 		lv_obj_clear_flag(guider_ui.wave_model_one_value, LV_OBJ_FLAG_HIDDEN);
 1435              		.loc 1 61 3 view .LVU352
 1436 00aa 0121     		movs	r1, #1
 1437 00ac A06E     		ldr	r0, [r4, #104]
ARM GAS  C:\usertemp\ccMiPmMS.s 			page 45


 1438 00ae FFF7FEFF 		bl	lv_obj_clear_flag
 1439              	.LVL83:
  62:generated/events_init.c **** 		lv_obj_clear_flag(guider_ui.wave_model_N__, LV_OBJ_FLAG_HIDDEN);
 1440              		.loc 1 62 3 view .LVU353
 1441 00b2 0121     		movs	r1, #1
 1442 00b4 606E     		ldr	r0, [r4, #100]
 1443 00b6 FFF7FEFF 		bl	lv_obj_clear_flag
 1444              	.LVL84:
  63:generated/events_init.c **** 		lv_obj_clear_flag(guider_ui.wave_model_three, LV_OBJ_FLAG_HIDDEN);
 1445              		.loc 1 63 3 view .LVU354
 1446 00ba 0121     		movs	r1, #1
 1447 00bc 206E     		ldr	r0, [r4, #96]
 1448 00be FFF7FEFF 		bl	lv_obj_clear_flag
 1449              	.LVL85:
  64:generated/events_init.c **** 		lv_obj_clear_flag(guider_ui.wave_model_two, LV_OBJ_FLAG_HIDDEN);
 1450              		.loc 1 64 3 view .LVU355
 1451 00c2 0121     		movs	r1, #1
 1452 00c4 E06D     		ldr	r0, [r4, #92]
 1453 00c6 FFF7FEFF 		bl	lv_obj_clear_flag
 1454              	.LVL86:
  65:generated/events_init.c **** 		lv_obj_clear_flag(guider_ui.wave_model_red, LV_OBJ_FLAG_HIDDEN);
 1455              		.loc 1 65 3 view .LVU356
 1456 00ca 0121     		movs	r1, #1
 1457 00cc A06D     		ldr	r0, [r4, #88]
 1458 00ce FFF7FEFF 		bl	lv_obj_clear_flag
 1459              	.LVL87:
  66:generated/events_init.c **** 		lv_obj_clear_flag(guider_ui.wave_model_blue, LV_OBJ_FLAG_HIDDEN);
 1460              		.loc 1 66 3 view .LVU357
 1461 00d2 0121     		movs	r1, #1
 1462 00d4 606D     		ldr	r0, [r4, #84]
 1463 00d6 FFF7FEFF 		bl	lv_obj_clear_flag
 1464              	.LVL88:
  67:generated/events_init.c **** 		lv_obj_clear_flag(guider_ui.wave_model_green, LV_OBJ_FLAG_HIDDEN);
 1465              		.loc 1 67 3 view .LVU358
 1466 00da 0121     		movs	r1, #1
 1467 00dc 206D     		ldr	r0, [r4, #80]
 1468 00de FFF7FEFF 		bl	lv_obj_clear_flag
 1469              	.LVL89:
  68:generated/events_init.c **** 		lv_obj_clear_flag(guider_ui.wave_model_yellow, LV_OBJ_FLAG_HIDDEN);
 1470              		.loc 1 68 3 view .LVU359
 1471 00e2 0121     		movs	r1, #1
 1472 00e4 E06C     		ldr	r0, [r4, #76]
 1473 00e6 FFF7FEFF 		bl	lv_obj_clear_flag
 1474              	.LVL90:
  69:generated/events_init.c **** 		lv_obj_set_width(guider_ui.wave_model_one_value, 120);
 1475              		.loc 1 69 3 view .LVU360
 1476 00ea 0121     		movs	r1, #1
 1477 00ec A06C     		ldr	r0, [r4, #72]
 1478 00ee FFF7FEFF 		bl	lv_obj_clear_flag
 1479              	.LVL91:
  70:generated/events_init.c **** 		lv_obj_set_height(guider_ui.wave_model_one_value, 30);
 1480              		.loc 1 70 3 view .LVU361
 1481 00f2 7821     		movs	r1, #120
 1482 00f4 606E     		ldr	r0, [r4, #100]
 1483 00f6 FFF7FEFF 		bl	lv_obj_set_width
 1484              	.LVL92:
  71:generated/events_init.c **** 		lv_obj_set_width(guider_ui.wave_model_chart_2, 520);
ARM GAS  C:\usertemp\ccMiPmMS.s 			page 46


 1485              		.loc 1 71 3 view .LVU362
 1486 00fa 1E21     		movs	r1, #30
 1487 00fc 606E     		ldr	r0, [r4, #100]
 1488 00fe FFF7FEFF 		bl	lv_obj_set_height
 1489              	.LVL93:
  72:generated/events_init.c **** 		lv_obj_set_height(guider_ui.wave_model_chart_2, 340);
 1490              		.loc 1 72 3 view .LVU363
 1491 0102 4FF40271 		mov	r1, #520
 1492 0106 D4F88C00 		ldr	r0, [r4, #140]
 1493 010a FFF7FEFF 		bl	lv_obj_set_width
 1494              	.LVL94:
  73:generated/events_init.c **** 		lv_obj_set_pos(guider_ui.wave_model_chart_2, 47, 70);
 1495              		.loc 1 73 3 view .LVU364
 1496 010e 4FF4AA71 		mov	r1, #340
 1497 0112 D4F88C00 		ldr	r0, [r4, #140]
 1498 0116 FFF7FEFF 		bl	lv_obj_set_height
 1499              	.LVL95:
  74:generated/events_init.c **** 		lv_obj_set_width(guider_ui.wave_model_three_value, 120);
 1500              		.loc 1 74 3 view .LVU365
 1501 011a 4622     		movs	r2, #70
 1502 011c 2F21     		movs	r1, #47
 1503 011e D4F88C00 		ldr	r0, [r4, #140]
 1504 0122 FFF7FEFF 		bl	lv_obj_set_pos
 1505              	.LVL96:
  75:generated/events_init.c **** 		lv_obj_set_height(guider_ui.wave_model_three_value, 30);
 1506              		.loc 1 75 3 view .LVU366
 1507 0126 7821     		movs	r1, #120
 1508 0128 E06E     		ldr	r0, [r4, #108]
 1509 012a FFF7FEFF 		bl	lv_obj_set_width
 1510              	.LVL97:
  76:generated/events_init.c **** 		lv_obj_add_flag(guider_ui.wave_model_table_1, LV_OBJ_FLAG_HIDDEN);
 1511              		.loc 1 76 3 view .LVU367
 1512 012e 1E21     		movs	r1, #30
 1513 0130 E06E     		ldr	r0, [r4, #108]
 1514 0132 FFF7FEFF 		bl	lv_obj_set_height
 1515              	.LVL98:
  77:generated/events_init.c **** 		lv_obj_set_pos(guider_ui.wave_model_three, 300, 28);
 1516              		.loc 1 77 3 view .LVU368
 1517 0136 0121     		movs	r1, #1
 1518 0138 D4F8A000 		ldr	r0, [r4, #160]
 1519 013c FFF7FEFF 		bl	lv_obj_add_flag
 1520              	.LVL99:
  78:generated/events_init.c **** 		lv_obj_set_pos(guider_ui.wave_model_two, 137, 28);
 1521              		.loc 1 78 3 view .LVU369
 1522 0140 1C22     		movs	r2, #28
 1523 0142 4FF49671 		mov	r1, #300
 1524 0146 E06D     		ldr	r0, [r4, #92]
 1525 0148 FFF7FEFF 		bl	lv_obj_set_pos
 1526              	.LVL100:
  79:generated/events_init.c **** 		lv_obj_set_pos(guider_ui.wave_model_red, 330, 25);
 1527              		.loc 1 79 3 view .LVU370
 1528 014c 1C22     		movs	r2, #28
 1529 014e 8921     		movs	r1, #137
 1530 0150 A06D     		ldr	r0, [r4, #88]
 1531 0152 FFF7FEFF 		bl	lv_obj_set_pos
 1532              	.LVL101:
  80:generated/events_init.c **** 		lv_obj_set_pos(guider_ui.wave_model_green, 167, 25);
ARM GAS  C:\usertemp\ccMiPmMS.s 			page 47


 1533              		.loc 1 80 3 view .LVU371
 1534 0156 1922     		movs	r2, #25
 1535 0158 4FF4A571 		mov	r1, #330
 1536 015c 606D     		ldr	r0, [r4, #84]
 1537 015e FFF7FEFF 		bl	lv_obj_set_pos
 1538              	.LVL102:
  81:generated/events_init.c **** 		lv_obj_set_pos(guider_ui.wave_model_yellow, 1, 25);
 1539              		.loc 1 81 3 view .LVU372
 1540 0162 1922     		movs	r2, #25
 1541 0164 A721     		movs	r1, #167
 1542 0166 E06C     		ldr	r0, [r4, #76]
 1543 0168 FFF7FEFF 		bl	lv_obj_set_pos
 1544              	.LVL103:
  82:generated/events_init.c **** 		lv_obj_set_pos(guider_ui.wave_model_num_1, -30, 30);
 1545              		.loc 1 82 3 view .LVU373
 1546 016c 1922     		movs	r2, #25
 1547 016e 0121     		movs	r1, #1
 1548 0170 A06C     		ldr	r0, [r4, #72]
 1549 0172 FFF7FEFF 		bl	lv_obj_set_pos
 1550              	.LVL104:
  83:generated/events_init.c **** 		lv_obj_add_flag(guider_ui.wave_model_label_26, LV_OBJ_FLAG_HIDDEN);
 1551              		.loc 1 83 3 view .LVU374
 1552 0176 1E22     		movs	r2, #30
 1553 0178 6FF01D01 		mvn	r1, #29
 1554 017c D4F88800 		ldr	r0, [r4, #136]
 1555 0180 FFF7FEFF 		bl	lv_obj_set_pos
 1556              	.LVL105:
  84:generated/events_init.c **** 		lv_obj_add_flag(guider_ui.wave_model_label_27, LV_OBJ_FLAG_HIDDEN);
 1557              		.loc 1 84 3 view .LVU375
 1558 0184 0121     		movs	r1, #1
 1559 0186 D4F8A400 		ldr	r0, [r4, #164]
 1560 018a FFF7FEFF 		bl	lv_obj_add_flag
 1561              	.LVL106:
  85:generated/events_init.c **** 		lv_label_set_text(guider_ui.wave_model_btn_14_label, "Y-");
 1562              		.loc 1 85 3 view .LVU376
 1563 018e 0121     		movs	r1, #1
 1564 0190 E068     		ldr	r0, [r4, #12]
 1565 0192 FFF7FEFF 		bl	lv_obj_add_flag
 1566              	.LVL107:
  86:generated/events_init.c **** 		lv_label_set_text(guider_ui.wave_model_btn_9_label, "Y+");
 1567              		.loc 1 86 3 view .LVU377
 1568 0196 6949     		ldr	r1, .L109+8
 1569 0198 D4F8DC00 		ldr	r0, [r4, #220]
 1570 019c FFF7FEFF 		bl	lv_label_set_text
 1571              	.LVL108:
  87:generated/events_init.c **** 		lv_obj_clear_flag(guider_ui.wave_model_btn_10, LV_OBJ_FLAG_HIDDEN);
 1572              		.loc 1 87 3 view .LVU378
 1573 01a0 6749     		ldr	r1, .L109+12
 1574 01a2 D4F8B400 		ldr	r0, [r4, #180]
 1575 01a6 FFF7FEFF 		bl	lv_label_set_text
 1576              	.LVL109:
  88:generated/events_init.c **** 		lv_obj_clear_flag(guider_ui.wave_model_btn_11, LV_OBJ_FLAG_HIDDEN);
 1577              		.loc 1 88 3 view .LVU379
 1578 01aa 0121     		movs	r1, #1
 1579 01ac D4F8B800 		ldr	r0, [r4, #184]
 1580 01b0 FFF7FEFF 		bl	lv_obj_clear_flag
 1581              	.LVL110:
ARM GAS  C:\usertemp\ccMiPmMS.s 			page 48


  89:generated/events_init.c **** 		lv_obj_clear_flag(guider_ui.wave_model_btn_12, LV_OBJ_FLAG_HIDDEN);
 1582              		.loc 1 89 3 view .LVU380
 1583 01b4 0121     		movs	r1, #1
 1584 01b6 D4F8C000 		ldr	r0, [r4, #192]
 1585 01ba FFF7FEFF 		bl	lv_obj_clear_flag
 1586              	.LVL111:
  90:generated/events_init.c **** 		lv_obj_clear_flag(guider_ui.wave_model_btn_13, LV_OBJ_FLAG_HIDDEN);
 1587              		.loc 1 90 3 view .LVU381
 1588 01be 0121     		movs	r1, #1
 1589 01c0 D4F8C800 		ldr	r0, [r4, #200]
 1590 01c4 FFF7FEFF 		bl	lv_obj_clear_flag
 1591              	.LVL112:
  91:generated/events_init.c **** 
 1592              		.loc 1 91 3 view .LVU382
 1593 01c8 0121     		movs	r1, #1
 1594 01ca D4F8D000 		ldr	r0, [r4, #208]
 1595 01ce FFF7FEFF 		bl	lv_obj_clear_flag
 1596              	.LVL113:
  93:generated/events_init.c **** 		lv_obj_clear_flag(guider_ui.wave_model_btn_1, LV_OBJ_FLAG_HIDDEN);
 1597              		.loc 1 93 3 view .LVU383
 1598 01d2 0121     		movs	r1, #1
 1599 01d4 A06B     		ldr	r0, [r4, #56]
 1600 01d6 FFF7FEFF 		bl	lv_obj_clear_flag
 1601              	.LVL114:
  94:generated/events_init.c **** 		lv_obj_clear_flag(guider_ui.wave_model_btn_2, LV_OBJ_FLAG_HIDDEN);
 1602              		.loc 1 94 3 view .LVU384
 1603 01da 0121     		movs	r1, #1
 1604 01dc 2069     		ldr	r0, [r4, #16]
 1605 01de FFF7FEFF 		bl	lv_obj_clear_flag
 1606              	.LVL115:
  95:generated/events_init.c **** 		lv_obj_clear_flag(guider_ui.wave_model_btn_3, LV_OBJ_FLAG_HIDDEN);
 1607              		.loc 1 95 3 view .LVU385
 1608 01e2 0121     		movs	r1, #1
 1609 01e4 A069     		ldr	r0, [r4, #24]
 1610 01e6 FFF7FEFF 		bl	lv_obj_clear_flag
 1611              	.LVL116:
  96:generated/events_init.c **** 		lv_obj_clear_flag(guider_ui.wave_model_btn_4, LV_OBJ_FLAG_HIDDEN);
 1612              		.loc 1 96 3 view .LVU386
 1613 01ea 0121     		movs	r1, #1
 1614 01ec 206A     		ldr	r0, [r4, #32]
 1615 01ee FFF7FEFF 		bl	lv_obj_clear_flag
 1616              	.LVL117:
  97:generated/events_init.c **** 		lv_obj_clear_flag(guider_ui.wave_model_btn_5, LV_OBJ_FLAG_HIDDEN);
 1617              		.loc 1 97 3 view .LVU387
 1618 01f2 0121     		movs	r1, #1
 1619 01f4 A06A     		ldr	r0, [r4, #40]
 1620 01f6 FFF7FEFF 		bl	lv_obj_clear_flag
 1621              	.LVL118:
  98:generated/events_init.c **** 	}
 1622              		.loc 1 98 3 view .LVU388
 1623 01fa 0121     		movs	r1, #1
 1624 01fc 206B     		ldr	r0, [r4, #48]
 1625 01fe FFF7FEFF 		bl	lv_obj_clear_flag
 1626              	.LVL119:
 1627 0202 02E7     		b	.L98
 1628              	.L105:
 103:generated/events_init.c **** 		lv_obj_add_flag(guider_ui.wave_model_btn_10, LV_OBJ_FLAG_HIDDEN);
ARM GAS  C:\usertemp\ccMiPmMS.s 			page 49


 1629              		.loc 1 103 3 view .LVU389
 1630 0204 4C4C     		ldr	r4, .L109+4
 1631 0206 0121     		movs	r1, #1
 1632 0208 E068     		ldr	r0, [r4, #12]
 1633 020a FFF7FEFF 		bl	lv_obj_clear_flag
 1634              	.LVL120:
 104:generated/events_init.c **** 		lv_obj_add_flag(guider_ui.wave_model_btn_11, LV_OBJ_FLAG_HIDDEN);
 1635              		.loc 1 104 3 view .LVU390
 1636 020e 0121     		movs	r1, #1
 1637 0210 D4F8B800 		ldr	r0, [r4, #184]
 1638 0214 FFF7FEFF 		bl	lv_obj_add_flag
 1639              	.LVL121:
 105:generated/events_init.c **** 		lv_obj_add_flag(guider_ui.wave_model_btn_12, LV_OBJ_FLAG_HIDDEN);
 1640              		.loc 1 105 3 view .LVU391
 1641 0218 0121     		movs	r1, #1
 1642 021a D4F8C000 		ldr	r0, [r4, #192]
 1643 021e FFF7FEFF 		bl	lv_obj_add_flag
 1644              	.LVL122:
 106:generated/events_init.c **** 		lv_obj_add_flag(guider_ui.wave_model_btn_13, LV_OBJ_FLAG_HIDDEN);
 1645              		.loc 1 106 3 view .LVU392
 1646 0222 0121     		movs	r1, #1
 1647 0224 D4F8C800 		ldr	r0, [r4, #200]
 1648 0228 FFF7FEFF 		bl	lv_obj_add_flag
 1649              	.LVL123:
 107:generated/events_init.c **** 
 1650              		.loc 1 107 3 view .LVU393
 1651 022c 0121     		movs	r1, #1
 1652 022e D4F8D000 		ldr	r0, [r4, #208]
 1653 0232 FFF7FEFF 		bl	lv_obj_add_flag
 1654              	.LVL124:
 109:generated/events_init.c **** 		lv_obj_add_flag(guider_ui.wave_model_btn_1, LV_OBJ_FLAG_HIDDEN);
 1655              		.loc 1 109 3 view .LVU394
 1656 0236 0121     		movs	r1, #1
 1657 0238 A06B     		ldr	r0, [r4, #56]
 1658 023a FFF7FEFF 		bl	lv_obj_add_flag
 1659              	.LVL125:
 110:generated/events_init.c **** 		lv_obj_add_flag(guider_ui.wave_model_btn_2, LV_OBJ_FLAG_HIDDEN);
 1660              		.loc 1 110 3 view .LVU395
 1661 023e 0121     		movs	r1, #1
 1662 0240 2069     		ldr	r0, [r4, #16]
 1663 0242 FFF7FEFF 		bl	lv_obj_add_flag
 1664              	.LVL126:
 111:generated/events_init.c **** 		lv_obj_add_flag(guider_ui.wave_model_btn_3, LV_OBJ_FLAG_HIDDEN);
 1665              		.loc 1 111 3 view .LVU396
 1666 0246 0121     		movs	r1, #1
 1667 0248 A069     		ldr	r0, [r4, #24]
 1668 024a FFF7FEFF 		bl	lv_obj_add_flag
 1669              	.LVL127:
 112:generated/events_init.c **** 		lv_obj_add_flag(guider_ui.wave_model_btn_4, LV_OBJ_FLAG_HIDDEN);
 1670              		.loc 1 112 3 view .LVU397
 1671 024e 0121     		movs	r1, #1
 1672 0250 206A     		ldr	r0, [r4, #32]
 1673 0252 FFF7FEFF 		bl	lv_obj_add_flag
 1674              	.LVL128:
 113:generated/events_init.c **** 		lv_obj_add_flag(guider_ui.wave_model_btn_5, LV_OBJ_FLAG_HIDDEN);
 1675              		.loc 1 113 3 view .LVU398
 1676 0256 0121     		movs	r1, #1
ARM GAS  C:\usertemp\ccMiPmMS.s 			page 50


 1677 0258 A06A     		ldr	r0, [r4, #40]
 1678 025a FFF7FEFF 		bl	lv_obj_add_flag
 1679              	.LVL129:
 114:generated/events_init.c **** 
 1680              		.loc 1 114 3 view .LVU399
 1681 025e 0121     		movs	r1, #1
 1682 0260 206B     		ldr	r0, [r4, #48]
 1683 0262 FFF7FEFF 		bl	lv_obj_add_flag
 1684              	.LVL130:
 116:generated/events_init.c **** 		lv_obj_clear_flag(guider_ui.wave_model_img_1, LV_OBJ_FLAG_HIDDEN);
 1685              		.loc 1 116 3 view .LVU400
 1686 0266 0121     		movs	r1, #1
 1687 0268 D4F88C00 		ldr	r0, [r4, #140]
 1688 026c FFF7FEFF 		bl	lv_obj_add_flag
 1689              	.LVL131:
 117:generated/events_init.c **** 		lv_obj_add_flag(guider_ui.wave_model_label_25, LV_OBJ_FLAG_HIDDEN);
 1690              		.loc 1 117 3 view .LVU401
 1691 0270 0121     		movs	r1, #1
 1692 0272 D4F8AC00 		ldr	r0, [r4, #172]
 1693 0276 FFF7FEFF 		bl	lv_obj_clear_flag
 1694              	.LVL132:
 118:generated/events_init.c **** 		lv_obj_add_flag(guider_ui.wave_model_label_24, LV_OBJ_FLAG_HIDDEN);
 1695              		.loc 1 118 3 view .LVU402
 1696 027a 0121     		movs	r1, #1
 1697 027c D4F88000 		ldr	r0, [r4, #128]
 1698 0280 FFF7FEFF 		bl	lv_obj_add_flag
 1699              	.LVL133:
 119:generated/events_init.c **** 		lv_obj_add_flag(guider_ui.wave_model_label_23, LV_OBJ_FLAG_HIDDEN);
 1700              		.loc 1 119 3 view .LVU403
 1701 0284 0121     		movs	r1, #1
 1702 0286 E06F     		ldr	r0, [r4, #124]
 1703 0288 FFF7FEFF 		bl	lv_obj_add_flag
 1704              	.LVL134:
 120:generated/events_init.c **** 		lv_obj_add_flag(guider_ui.wave_model_label_22, LV_OBJ_FLAG_HIDDEN);
 1705              		.loc 1 120 3 view .LVU404
 1706 028c 0121     		movs	r1, #1
 1707 028e A06F     		ldr	r0, [r4, #120]
 1708 0290 FFF7FEFF 		bl	lv_obj_add_flag
 1709              	.LVL135:
 121:generated/events_init.c **** 		lv_obj_add_flag(guider_ui.wave_model_label_21, LV_OBJ_FLAG_HIDDEN);
 1710              		.loc 1 121 3 view .LVU405
 1711 0294 0121     		movs	r1, #1
 1712 0296 606F     		ldr	r0, [r4, #116]
 1713 0298 FFF7FEFF 		bl	lv_obj_add_flag
 1714              	.LVL136:
 122:generated/events_init.c **** 		lv_obj_add_flag(guider_ui.wave_model_num_1, LV_OBJ_FLAG_HIDDEN);
 1715              		.loc 1 122 3 view .LVU406
 1716 029c 0121     		movs	r1, #1
 1717 029e 206F     		ldr	r0, [r4, #112]
 1718 02a0 FFF7FEFF 		bl	lv_obj_add_flag
 1719              	.LVL137:
 123:generated/events_init.c **** 		lv_obj_add_flag(guider_ui.wave_model_N_val, LV_OBJ_FLAG_HIDDEN);
 1720              		.loc 1 123 3 view .LVU407
 1721 02a4 0121     		movs	r1, #1
 1722 02a6 D4F88800 		ldr	r0, [r4, #136]
 1723 02aa FFF7FEFF 		bl	lv_obj_add_flag
 1724              	.LVL138:
ARM GAS  C:\usertemp\ccMiPmMS.s 			page 51


 124:generated/events_init.c **** 		lv_obj_add_flag(guider_ui.wave_model_three_value, LV_OBJ_FLAG_HIDDEN);
 1725              		.loc 1 124 3 view .LVU408
 1726 02ae 0121     		movs	r1, #1
 1727 02b0 D4F88400 		ldr	r0, [r4, #132]
 1728 02b4 FFF7FEFF 		bl	lv_obj_add_flag
 1729              	.LVL139:
 125:generated/events_init.c **** 		lv_obj_add_flag(guider_ui.wave_model_two_value, LV_OBJ_FLAG_HIDDEN);
 1730              		.loc 1 125 3 view .LVU409
 1731 02b8 0121     		movs	r1, #1
 1732 02ba E06E     		ldr	r0, [r4, #108]
 1733 02bc FFF7FEFF 		bl	lv_obj_add_flag
 1734              	.LVL140:
 126:generated/events_init.c **** 		lv_obj_add_flag(guider_ui.wave_model_one_value, LV_OBJ_FLAG_HIDDEN);
 1735              		.loc 1 126 3 view .LVU410
 1736 02c0 0121     		movs	r1, #1
 1737 02c2 A06E     		ldr	r0, [r4, #104]
 1738 02c4 FFF7FEFF 		bl	lv_obj_add_flag
 1739              	.LVL141:
 127:generated/events_init.c **** 		lv_obj_add_flag(guider_ui.wave_model_N__, LV_OBJ_FLAG_HIDDEN);
 1740              		.loc 1 127 3 view .LVU411
 1741 02c8 0121     		movs	r1, #1
 1742 02ca 606E     		ldr	r0, [r4, #100]
 1743 02cc FFF7FEFF 		bl	lv_obj_add_flag
 1744              	.LVL142:
 128:generated/events_init.c **** 		lv_obj_add_flag(guider_ui.wave_model_three, LV_OBJ_FLAG_HIDDEN);
 1745              		.loc 1 128 3 view .LVU412
 1746 02d0 0121     		movs	r1, #1
 1747 02d2 206E     		ldr	r0, [r4, #96]
 1748 02d4 FFF7FEFF 		bl	lv_obj_add_flag
 1749              	.LVL143:
 129:generated/events_init.c **** 		lv_obj_add_flag(guider_ui.wave_model_two, LV_OBJ_FLAG_HIDDEN);
 1750              		.loc 1 129 3 view .LVU413
 1751 02d8 0121     		movs	r1, #1
 1752 02da E06D     		ldr	r0, [r4, #92]
 1753 02dc FFF7FEFF 		bl	lv_obj_add_flag
 1754              	.LVL144:
 130:generated/events_init.c **** 		lv_obj_add_flag(guider_ui.wave_model_red, LV_OBJ_FLAG_HIDDEN);
 1755              		.loc 1 130 3 view .LVU414
 1756 02e0 0121     		movs	r1, #1
 1757 02e2 A06D     		ldr	r0, [r4, #88]
 1758 02e4 FFF7FEFF 		bl	lv_obj_add_flag
 1759              	.LVL145:
 131:generated/events_init.c **** 		lv_obj_add_flag(guider_ui.wave_model_blue, LV_OBJ_FLAG_HIDDEN);
 1760              		.loc 1 131 3 view .LVU415
 1761 02e8 0121     		movs	r1, #1
 1762 02ea 606D     		ldr	r0, [r4, #84]
 1763 02ec FFF7FEFF 		bl	lv_obj_add_flag
 1764              	.LVL146:
 132:generated/events_init.c **** 		lv_obj_add_flag(guider_ui.wave_model_green, LV_OBJ_FLAG_HIDDEN);
 1765              		.loc 1 132 3 view .LVU416
 1766 02f0 0121     		movs	r1, #1
 1767 02f2 206D     		ldr	r0, [r4, #80]
 1768 02f4 FFF7FEFF 		bl	lv_obj_add_flag
 1769              	.LVL147:
 133:generated/events_init.c **** 		lv_obj_add_flag(guider_ui.wave_model_yellow, LV_OBJ_FLAG_HIDDEN);
 1770              		.loc 1 133 3 view .LVU417
 1771 02f8 0121     		movs	r1, #1
ARM GAS  C:\usertemp\ccMiPmMS.s 			page 52


 1772 02fa E06C     		ldr	r0, [r4, #76]
 1773 02fc FFF7FEFF 		bl	lv_obj_add_flag
 1774              	.LVL148:
 134:generated/events_init.c **** 		lv_obj_add_flag(guider_ui.wave_model_label_26, LV_OBJ_FLAG_HIDDEN);
 1775              		.loc 1 134 3 view .LVU418
 1776 0300 0121     		movs	r1, #1
 1777 0302 A06C     		ldr	r0, [r4, #72]
 1778 0304 FFF7FEFF 		bl	lv_obj_add_flag
 1779              	.LVL149:
 135:generated/events_init.c **** 		lv_obj_add_flag(guider_ui.wave_model_chart_3, LV_OBJ_FLAG_HIDDEN);
 1780              		.loc 1 135 3 view .LVU419
 1781 0308 0121     		movs	r1, #1
 1782 030a D4F8A400 		ldr	r0, [r4, #164]
 1783 030e FFF7FEFF 		bl	lv_obj_add_flag
 1784              	.LVL150:
 136:generated/events_init.c **** 
 1785              		.loc 1 136 3 view .LVU420
 1786 0312 0121     		movs	r1, #1
 1787 0314 D4F8E000 		ldr	r0, [r4, #224]
 1788 0318 FFF7FEFF 		bl	lv_obj_add_flag
 1789              	.LVL151:
 138:generated/events_init.c **** 		lv_label_set_text(guider_ui.wave_model_btn_9_label, "<-");
 1790              		.loc 1 138 3 view .LVU421
 1791 031c 0949     		ldr	r1, .L109+16
 1792 031e D4F8DC00 		ldr	r0, [r4, #220]
 1793 0322 FFF7FEFF 		bl	lv_label_set_text
 1794              	.LVL152:
 139:generated/events_init.c **** 	}
 1795              		.loc 1 139 3 view .LVU422
 1796 0326 0849     		ldr	r1, .L109+20
 1797 0328 D4F8B400 		ldr	r0, [r4, #180]
 1798 032c FFF7FEFF 		bl	lv_label_set_text
 1799              	.LVL153:
 1800 0330 71E6     		b	.L99
 1801              	.L110:
 1802 0332 00BF     		.align	2
 1803              	.L109:
 1804 0334 00000000 		.word	page
 1805 0338 00000000 		.word	guider_ui
 1806 033c 00000000 		.word	.LC7
 1807 0340 04000000 		.word	.LC8
 1808 0344 08000000 		.word	.LC9
 1809 0348 0C000000 		.word	.LC10
 1810              	.L106:
 143:generated/events_init.c **** 		lv_obj_clear_flag(guider_ui.wave_model_btn_11, LV_OBJ_FLAG_HIDDEN);
 1811              		.loc 1 143 3 view .LVU423
 1812 034c 714C     		ldr	r4, .L111
 1813 034e 0121     		movs	r1, #1
 1814 0350 D4F8B800 		ldr	r0, [r4, #184]
 1815 0354 FFF7FEFF 		bl	lv_obj_clear_flag
 1816              	.LVL154:
 144:generated/events_init.c **** 		lv_obj_clear_flag(guider_ui.wave_model_btn_12, LV_OBJ_FLAG_HIDDEN);
 1817              		.loc 1 144 3 view .LVU424
 1818 0358 0121     		movs	r1, #1
 1819 035a D4F8C000 		ldr	r0, [r4, #192]
 1820 035e FFF7FEFF 		bl	lv_obj_clear_flag
 1821              	.LVL155:
ARM GAS  C:\usertemp\ccMiPmMS.s 			page 53


 145:generated/events_init.c **** 		lv_obj_clear_flag(guider_ui.wave_model_btn_13, LV_OBJ_FLAG_HIDDEN);
 1822              		.loc 1 145 3 view .LVU425
 1823 0362 0121     		movs	r1, #1
 1824 0364 D4F8C800 		ldr	r0, [r4, #200]
 1825 0368 FFF7FEFF 		bl	lv_obj_clear_flag
 1826              	.LVL156:
 146:generated/events_init.c **** 
 1827              		.loc 1 146 3 view .LVU426
 1828 036c 0121     		movs	r1, #1
 1829 036e D4F8D000 		ldr	r0, [r4, #208]
 1830 0372 FFF7FEFF 		bl	lv_obj_clear_flag
 1831              	.LVL157:
 148:generated/events_init.c **** 		lv_obj_clear_flag(guider_ui.wave_model_btn_1, LV_OBJ_FLAG_HIDDEN);
 1832              		.loc 1 148 3 view .LVU427
 1833 0376 0121     		movs	r1, #1
 1834 0378 A06B     		ldr	r0, [r4, #56]
 1835 037a FFF7FEFF 		bl	lv_obj_clear_flag
 1836              	.LVL158:
 149:generated/events_init.c **** 		lv_obj_clear_flag(guider_ui.wave_model_btn_2, LV_OBJ_FLAG_HIDDEN);
 1837              		.loc 1 149 3 view .LVU428
 1838 037e 0121     		movs	r1, #1
 1839 0380 2069     		ldr	r0, [r4, #16]
 1840 0382 FFF7FEFF 		bl	lv_obj_clear_flag
 1841              	.LVL159:
 150:generated/events_init.c **** 		lv_obj_clear_flag(guider_ui.wave_model_btn_3, LV_OBJ_FLAG_HIDDEN);
 1842              		.loc 1 150 3 view .LVU429
 1843 0386 0121     		movs	r1, #1
 1844 0388 A069     		ldr	r0, [r4, #24]
 1845 038a FFF7FEFF 		bl	lv_obj_clear_flag
 1846              	.LVL160:
 151:generated/events_init.c **** 		lv_obj_clear_flag(guider_ui.wave_model_btn_4, LV_OBJ_FLAG_HIDDEN);
 1847              		.loc 1 151 3 view .LVU430
 1848 038e 0121     		movs	r1, #1
 1849 0390 206A     		ldr	r0, [r4, #32]
 1850 0392 FFF7FEFF 		bl	lv_obj_clear_flag
 1851              	.LVL161:
 152:generated/events_init.c **** 		lv_obj_clear_flag(guider_ui.wave_model_btn_5, LV_OBJ_FLAG_HIDDEN);
 1852              		.loc 1 152 3 view .LVU431
 1853 0396 0121     		movs	r1, #1
 1854 0398 A06A     		ldr	r0, [r4, #40]
 1855 039a FFF7FEFF 		bl	lv_obj_clear_flag
 1856              	.LVL162:
 153:generated/events_init.c **** 		lv_obj_add_flag(guider_ui.wave_model_label_27, LV_OBJ_FLAG_HIDDEN);
 1857              		.loc 1 153 3 view .LVU432
 1858 039e 0121     		movs	r1, #1
 1859 03a0 206B     		ldr	r0, [r4, #48]
 1860 03a2 FFF7FEFF 		bl	lv_obj_clear_flag
 1861              	.LVL163:
 154:generated/events_init.c **** 		lv_obj_add_flag(guider_ui.wave_model_chart_2, LV_OBJ_FLAG_HIDDEN);
 1862              		.loc 1 154 3 view .LVU433
 1863 03a6 0121     		movs	r1, #1
 1864 03a8 E068     		ldr	r0, [r4, #12]
 1865 03aa FFF7FEFF 		bl	lv_obj_add_flag
 1866              	.LVL164:
 155:generated/events_init.c **** 		lv_obj_clear_flag(guider_ui.wave_model_chart_3, LV_OBJ_FLAG_HIDDEN);
 1867              		.loc 1 155 3 view .LVU434
 1868 03ae 0121     		movs	r1, #1
ARM GAS  C:\usertemp\ccMiPmMS.s 			page 54


 1869 03b0 D4F88C00 		ldr	r0, [r4, #140]
 1870 03b4 FFF7FEFF 		bl	lv_obj_add_flag
 1871              	.LVL165:
 156:generated/events_init.c **** 		lv_obj_add_flag(guider_ui.wave_model_img_1, LV_OBJ_FLAG_HIDDEN);
 1872              		.loc 1 156 3 view .LVU435
 1873 03b8 0121     		movs	r1, #1
 1874 03ba D4F8E000 		ldr	r0, [r4, #224]
 1875 03be FFF7FEFF 		bl	lv_obj_clear_flag
 1876              	.LVL166:
 157:generated/events_init.c **** 		lv_obj_clear_flag(guider_ui.wave_model_digital_clock_1, LV_OBJ_FLAG_HIDDEN);
 1877              		.loc 1 157 3 view .LVU436
 1878 03c2 0121     		movs	r1, #1
 1879 03c4 D4F8AC00 		ldr	r0, [r4, #172]
 1880 03c8 FFF7FEFF 		bl	lv_obj_add_flag
 1881              	.LVL167:
 158:generated/events_init.c **** 		lv_obj_add_flag(guider_ui.wave_model_label_26, LV_OBJ_FLAG_HIDDEN);
 1882              		.loc 1 158 3 view .LVU437
 1883 03cc 0121     		movs	r1, #1
 1884 03ce D4F8A800 		ldr	r0, [r4, #168]
 1885 03d2 FFF7FEFF 		bl	lv_obj_clear_flag
 1886              	.LVL168:
 159:generated/events_init.c **** 		lv_obj_add_flag(guider_ui.wave_model_table_1, LV_OBJ_FLAG_HIDDEN);
 1887              		.loc 1 159 3 view .LVU438
 1888 03d6 0121     		movs	r1, #1
 1889 03d8 D4F8A400 		ldr	r0, [r4, #164]
 1890 03dc FFF7FEFF 		bl	lv_obj_add_flag
 1891              	.LVL169:
 160:generated/events_init.c **** 		lv_obj_clear_flag(guider_ui.wave_model_btn_8, LV_OBJ_FLAG_HIDDEN);
 1892              		.loc 1 160 3 view .LVU439
 1893 03e0 0121     		movs	r1, #1
 1894 03e2 D4F8A000 		ldr	r0, [r4, #160]
 1895 03e6 FFF7FEFF 		bl	lv_obj_add_flag
 1896              	.LVL170:
 161:generated/events_init.c **** 		lv_obj_clear_flag(guider_ui.wave_model_btn_7, LV_OBJ_FLAG_HIDDEN);
 1897              		.loc 1 161 3 view .LVU440
 1898 03ea 0121     		movs	r1, #1
 1899 03ec D4F89800 		ldr	r0, [r4, #152]
 1900 03f0 FFF7FEFF 		bl	lv_obj_clear_flag
 1901              	.LVL171:
 162:generated/events_init.c **** 
 1902              		.loc 1 162 3 view .LVU441
 1903 03f4 0121     		movs	r1, #1
 1904 03f6 D4F89000 		ldr	r0, [r4, #144]
 1905 03fa FFF7FEFF 		bl	lv_obj_clear_flag
 1906              	.LVL172:
 164:generated/events_init.c **** 		lv_obj_add_flag(guider_ui.wave_model_N_val, LV_OBJ_FLAG_HIDDEN);
 1907              		.loc 1 164 3 view .LVU442
 1908 03fe 0121     		movs	r1, #1
 1909 0400 D4F88800 		ldr	r0, [r4, #136]
 1910 0404 FFF7FEFF 		bl	lv_obj_clear_flag
 1911              	.LVL173:
 165:generated/events_init.c **** 		lv_obj_add_flag(guider_ui.wave_model_label_25, LV_OBJ_FLAG_HIDDEN);
 1912              		.loc 1 165 3 view .LVU443
 1913 0408 0121     		movs	r1, #1
 1914 040a D4F88400 		ldr	r0, [r4, #132]
 1915 040e FFF7FEFF 		bl	lv_obj_add_flag
 1916              	.LVL174:
ARM GAS  C:\usertemp\ccMiPmMS.s 			page 55


 166:generated/events_init.c **** 		lv_obj_add_flag(guider_ui.wave_model_label_24, LV_OBJ_FLAG_HIDDEN);
 1917              		.loc 1 166 3 view .LVU444
 1918 0412 0121     		movs	r1, #1
 1919 0414 D4F88000 		ldr	r0, [r4, #128]
 1920 0418 FFF7FEFF 		bl	lv_obj_add_flag
 1921              	.LVL175:
 167:generated/events_init.c **** 		lv_obj_add_flag(guider_ui.wave_model_label_23, LV_OBJ_FLAG_HIDDEN);
 1922              		.loc 1 167 3 view .LVU445
 1923 041c 0121     		movs	r1, #1
 1924 041e E06F     		ldr	r0, [r4, #124]
 1925 0420 FFF7FEFF 		bl	lv_obj_add_flag
 1926              	.LVL176:
 168:generated/events_init.c **** 		lv_obj_add_flag(guider_ui.wave_model_label_22, LV_OBJ_FLAG_HIDDEN);
 1927              		.loc 1 168 3 view .LVU446
 1928 0424 0121     		movs	r1, #1
 1929 0426 A06F     		ldr	r0, [r4, #120]
 1930 0428 FFF7FEFF 		bl	lv_obj_add_flag
 1931              	.LVL177:
 169:generated/events_init.c **** 		lv_obj_add_flag(guider_ui.wave_model_label_21, LV_OBJ_FLAG_HIDDEN);
 1932              		.loc 1 169 3 view .LVU447
 1933 042c 0121     		movs	r1, #1
 1934 042e 606F     		ldr	r0, [r4, #116]
 1935 0430 FFF7FEFF 		bl	lv_obj_add_flag
 1936              	.LVL178:
 170:generated/events_init.c **** 		lv_obj_set_width(guider_ui.wave_model_three_value, 120);
 1937              		.loc 1 170 3 view .LVU448
 1938 0434 0121     		movs	r1, #1
 1939 0436 206F     		ldr	r0, [r4, #112]
 1940 0438 FFF7FEFF 		bl	lv_obj_add_flag
 1941              	.LVL179:
 171:generated/events_init.c **** 		lv_obj_set_height(guider_ui.wave_model_three_value, 90);
 1942              		.loc 1 171 3 view .LVU449
 1943 043c 7821     		movs	r1, #120
 1944 043e E06E     		ldr	r0, [r4, #108]
 1945 0440 FFF7FEFF 		bl	lv_obj_set_width
 1946              	.LVL180:
 172:generated/events_init.c **** 		lv_obj_clear_flag(guider_ui.wave_model_three_value, LV_OBJ_FLAG_HIDDEN);
 1947              		.loc 1 172 3 view .LVU450
 1948 0444 5A21     		movs	r1, #90
 1949 0446 E06E     		ldr	r0, [r4, #108]
 1950 0448 FFF7FEFF 		bl	lv_obj_set_height
 1951              	.LVL181:
 173:generated/events_init.c **** 		lv_obj_set_width(guider_ui.wave_model_two_value, 120);
 1952              		.loc 1 173 3 view .LVU451
 1953 044c 0121     		movs	r1, #1
 1954 044e E06E     		ldr	r0, [r4, #108]
 1955 0450 FFF7FEFF 		bl	lv_obj_clear_flag
 1956              	.LVL182:
 174:generated/events_init.c **** 		lv_obj_set_height(guider_ui.wave_model_two_value, 90);
 1957              		.loc 1 174 3 view .LVU452
 1958 0454 7821     		movs	r1, #120
 1959 0456 A06E     		ldr	r0, [r4, #104]
 1960 0458 FFF7FEFF 		bl	lv_obj_set_width
 1961              	.LVL183:
 175:generated/events_init.c **** 		lv_obj_clear_flag(guider_ui.wave_model_two_value, LV_OBJ_FLAG_HIDDEN);
 1962              		.loc 1 175 3 view .LVU453
 1963 045c 5A21     		movs	r1, #90
ARM GAS  C:\usertemp\ccMiPmMS.s 			page 56


 1964 045e A06E     		ldr	r0, [r4, #104]
 1965 0460 FFF7FEFF 		bl	lv_obj_set_height
 1966              	.LVL184:
 176:generated/events_init.c **** 		lv_obj_set_width(guider_ui.wave_model_one_value, 120);
 1967              		.loc 1 176 3 view .LVU454
 1968 0464 0121     		movs	r1, #1
 1969 0466 A06E     		ldr	r0, [r4, #104]
 1970 0468 FFF7FEFF 		bl	lv_obj_clear_flag
 1971              	.LVL185:
 177:generated/events_init.c **** 		lv_obj_set_height(guider_ui.wave_model_one_value, 90);
 1972              		.loc 1 177 3 view .LVU455
 1973 046c 7821     		movs	r1, #120
 1974 046e 606E     		ldr	r0, [r4, #100]
 1975 0470 FFF7FEFF 		bl	lv_obj_set_width
 1976              	.LVL186:
 178:generated/events_init.c **** 		lv_obj_clear_flag(guider_ui.wave_model_one_value, LV_OBJ_FLAG_HIDDEN);
 1977              		.loc 1 178 3 view .LVU456
 1978 0474 5A21     		movs	r1, #90
 1979 0476 606E     		ldr	r0, [r4, #100]
 1980 0478 FFF7FEFF 		bl	lv_obj_set_height
 1981              	.LVL187:
 179:generated/events_init.c **** 		lv_obj_add_flag(guider_ui.wave_model_N__, LV_OBJ_FLAG_HIDDEN);
 1982              		.loc 1 179 3 view .LVU457
 1983 047c 0121     		movs	r1, #1
 1984 047e 606E     		ldr	r0, [r4, #100]
 1985 0480 FFF7FEFF 		bl	lv_obj_clear_flag
 1986              	.LVL188:
 180:generated/events_init.c **** 		lv_obj_clear_flag(guider_ui.wave_model_three, LV_OBJ_FLAG_HIDDEN);
 1987              		.loc 1 180 3 view .LVU458
 1988 0484 0121     		movs	r1, #1
 1989 0486 206E     		ldr	r0, [r4, #96]
 1990 0488 FFF7FEFF 		bl	lv_obj_add_flag
 1991              	.LVL189:
 181:generated/events_init.c **** 		lv_obj_clear_flag(guider_ui.wave_model_two, LV_OBJ_FLAG_HIDDEN);
 1992              		.loc 1 181 3 view .LVU459
 1993 048c 0121     		movs	r1, #1
 1994 048e E06D     		ldr	r0, [r4, #92]
 1995 0490 FFF7FEFF 		bl	lv_obj_clear_flag
 1996              	.LVL190:
 182:generated/events_init.c **** 		lv_obj_clear_flag(guider_ui.wave_model_red, LV_OBJ_FLAG_HIDDEN);
 1997              		.loc 1 182 3 view .LVU460
 1998 0494 0121     		movs	r1, #1
 1999 0496 A06D     		ldr	r0, [r4, #88]
 2000 0498 FFF7FEFF 		bl	lv_obj_clear_flag
 2001              	.LVL191:
 183:generated/events_init.c **** 		lv_obj_add_flag(guider_ui.wave_model_blue, LV_OBJ_FLAG_HIDDEN);
 2002              		.loc 1 183 3 view .LVU461
 2003 049c 0121     		movs	r1, #1
 2004 049e 606D     		ldr	r0, [r4, #84]
 2005 04a0 FFF7FEFF 		bl	lv_obj_clear_flag
 2006              	.LVL192:
 184:generated/events_init.c **** 		lv_obj_clear_flag(guider_ui.wave_model_green, LV_OBJ_FLAG_HIDDEN);
 2007              		.loc 1 184 3 view .LVU462
 2008 04a4 0121     		movs	r1, #1
 2009 04a6 206D     		ldr	r0, [r4, #80]
 2010 04a8 FFF7FEFF 		bl	lv_obj_add_flag
 2011              	.LVL193:
ARM GAS  C:\usertemp\ccMiPmMS.s 			page 57


 185:generated/events_init.c **** 		lv_obj_clear_flag(guider_ui.wave_model_yellow, LV_OBJ_FLAG_HIDDEN);
 2012              		.loc 1 185 3 view .LVU463
 2013 04ac 0121     		movs	r1, #1
 2014 04ae E06C     		ldr	r0, [r4, #76]
 2015 04b0 FFF7FEFF 		bl	lv_obj_clear_flag
 2016              	.LVL194:
 186:generated/events_init.c **** 		lv_obj_clear_flag(guider_ui.wave_model_freq, LV_OBJ_FLAG_HIDDEN);
 2017              		.loc 1 186 3 view .LVU464
 2018 04b4 0121     		movs	r1, #1
 2019 04b6 A06C     		ldr	r0, [r4, #72]
 2020 04b8 FFF7FEFF 		bl	lv_obj_clear_flag
 2021              	.LVL195:
 187:generated/events_init.c **** 		lv_obj_clear_flag(guider_ui.wave_model_power, LV_OBJ_FLAG_HIDDEN);
 2022              		.loc 1 187 3 view .LVU465
 2023 04bc 0121     		movs	r1, #1
 2024 04be 606C     		ldr	r0, [r4, #68]
 2025 04c0 FFF7FEFF 		bl	lv_obj_clear_flag
 2026              	.LVL196:
 188:generated/events_init.c **** 		lv_obj_clear_flag(guider_ui.wave_model_btn_1, LV_OBJ_FLAG_HIDDEN);
 2027              		.loc 1 188 3 view .LVU466
 2028 04c4 0121     		movs	r1, #1
 2029 04c6 206C     		ldr	r0, [r4, #64]
 2030 04c8 FFF7FEFF 		bl	lv_obj_clear_flag
 2031              	.LVL197:
 189:generated/events_init.c **** 		lv_obj_clear_flag(guider_ui.wave_model_btn_2, LV_OBJ_FLAG_HIDDEN);
 2032              		.loc 1 189 3 view .LVU467
 2033 04cc 0121     		movs	r1, #1
 2034 04ce 2069     		ldr	r0, [r4, #16]
 2035 04d0 FFF7FEFF 		bl	lv_obj_clear_flag
 2036              	.LVL198:
 190:generated/events_init.c **** 		lv_obj_clear_flag(guider_ui.wave_model_btn_3, LV_OBJ_FLAG_HIDDEN);
 2037              		.loc 1 190 3 view .LVU468
 2038 04d4 0121     		movs	r1, #1
 2039 04d6 A069     		ldr	r0, [r4, #24]
 2040 04d8 FFF7FEFF 		bl	lv_obj_clear_flag
 2041              	.LVL199:
 191:generated/events_init.c **** 		lv_obj_clear_flag(guider_ui.wave_model_btn_4, LV_OBJ_FLAG_HIDDEN);
 2042              		.loc 1 191 3 view .LVU469
 2043 04dc 0121     		movs	r1, #1
 2044 04de 206A     		ldr	r0, [r4, #32]
 2045 04e0 FFF7FEFF 		bl	lv_obj_clear_flag
 2046              	.LVL200:
 192:generated/events_init.c **** 		lv_obj_clear_flag(guider_ui.wave_model_btn_5, LV_OBJ_FLAG_HIDDEN);
 2047              		.loc 1 192 3 view .LVU470
 2048 04e4 0121     		movs	r1, #1
 2049 04e6 A06A     		ldr	r0, [r4, #40]
 2050 04e8 FFF7FEFF 		bl	lv_obj_clear_flag
 2051              	.LVL201:
 193:generated/events_init.c **** 		lv_obj_clear_flag(guider_ui.wave_model_btn_6, LV_OBJ_FLAG_HIDDEN);
 2052              		.loc 1 193 3 view .LVU471
 2053 04ec 0121     		movs	r1, #1
 2054 04ee 206B     		ldr	r0, [r4, #48]
 2055 04f0 FFF7FEFF 		bl	lv_obj_clear_flag
 2056              	.LVL202:
 194:generated/events_init.c **** 		lv_label_set_text(guider_ui.wave_model_btn_14_label, "Y-");
 2057              		.loc 1 194 3 view .LVU472
 2058 04f4 0121     		movs	r1, #1
ARM GAS  C:\usertemp\ccMiPmMS.s 			page 58


 2059 04f6 A06B     		ldr	r0, [r4, #56]
 2060 04f8 FFF7FEFF 		bl	lv_obj_clear_flag
 2061              	.LVL203:
 195:generated/events_init.c **** 		lv_label_set_text(guider_ui.wave_model_btn_9_label, "Y+");
 2062              		.loc 1 195 3 view .LVU473
 2063 04fc 0649     		ldr	r1, .L111+4
 2064 04fe D4F8DC00 		ldr	r0, [r4, #220]
 2065 0502 FFF7FEFF 		bl	lv_label_set_text
 2066              	.LVL204:
 196:generated/events_init.c **** 	}
 2067              		.loc 1 196 3 view .LVU474
 2068 0506 0549     		ldr	r1, .L111+8
 2069 0508 D4F8B400 		ldr	r0, [r4, #180]
 2070 050c FFF7FEFF 		bl	lv_label_set_text
 2071              	.LVL205:
 2072 0510 87E5     		b	.L100
 2073              	.L112:
 2074 0512 00BF     		.align	2
 2075              	.L111:
 2076 0514 00000000 		.word	guider_ui
 2077 0518 00000000 		.word	.LC7
 2078 051c 04000000 		.word	.LC8
 2079              	.L107:
 201:generated/events_init.c **** 		lv_obj_clear_flag(guider_ui.wave_model_btn_7, LV_OBJ_FLAG_HIDDEN);
 2080              		.loc 1 201 3 view .LVU475
 2081 0520 704C     		ldr	r4, .L113
 2082 0522 0121     		movs	r1, #1
 2083 0524 D4F8E000 		ldr	r0, [r4, #224]
 2084 0528 FFF7FEFF 		bl	lv_obj_add_flag
 2085              	.LVL206:
 202:generated/events_init.c **** 		lv_obj_set_width(guider_ui.wave_model_chart_2, 520);
 2086              		.loc 1 202 3 view .LVU476
 2087 052c 0121     		movs	r1, #1
 2088 052e D4F89000 		ldr	r0, [r4, #144]
 2089 0532 FFF7FEFF 		bl	lv_obj_clear_flag
 2090              	.LVL207:
 203:generated/events_init.c **** 		lv_obj_set_height(guider_ui.wave_model_chart_2, 280);
 2091              		.loc 1 203 3 view .LVU477
 2092 0536 4FF40271 		mov	r1, #520
 2093 053a D4F88C00 		ldr	r0, [r4, #140]
 2094 053e FFF7FEFF 		bl	lv_obj_set_width
 2095              	.LVL208:
 204:generated/events_init.c **** 		lv_obj_set_pos(guider_ui.wave_model_chart_2, 47, 130);
 2096              		.loc 1 204 3 view .LVU478
 2097 0542 4FF48C71 		mov	r1, #280
 2098 0546 D4F88C00 		ldr	r0, [r4, #140]
 2099 054a FFF7FEFF 		bl	lv_obj_set_height
 2100              	.LVL209:
 205:generated/events_init.c **** 		lv_obj_add_flag(guider_ui.wave_model_chart_2, LV_OBJ_FLAG_HIDDEN);
 2101              		.loc 1 205 3 view .LVU479
 2102 054e 8222     		movs	r2, #130
 2103 0550 2F21     		movs	r1, #47
 2104 0552 D4F88C00 		ldr	r0, [r4, #140]
 2105 0556 FFF7FEFF 		bl	lv_obj_set_pos
 2106              	.LVL210:
 206:generated/events_init.c **** 		lv_obj_clear_flag(guider_ui.wave_model_num_1, LV_OBJ_FLAG_HIDDEN);
 2107              		.loc 1 206 3 view .LVU480
ARM GAS  C:\usertemp\ccMiPmMS.s 			page 59


 2108 055a 0121     		movs	r1, #1
 2109 055c D4F88C00 		ldr	r0, [r4, #140]
 2110 0560 FFF7FEFF 		bl	lv_obj_add_flag
 2111              	.LVL211:
 207:generated/events_init.c **** 		lv_obj_add_flag(guider_ui.wave_model_N_val, LV_OBJ_FLAG_HIDDEN);
 2112              		.loc 1 207 3 view .LVU481
 2113 0564 0121     		movs	r1, #1
 2114 0566 D4F88800 		ldr	r0, [r4, #136]
 2115 056a FFF7FEFF 		bl	lv_obj_clear_flag
 2116              	.LVL212:
 208:generated/events_init.c **** 		lv_obj_add_flag(guider_ui.wave_model_label_25, LV_OBJ_FLAG_HIDDEN);
 2117              		.loc 1 208 3 view .LVU482
 2118 056e 0121     		movs	r1, #1
 2119 0570 D4F88400 		ldr	r0, [r4, #132]
 2120 0574 FFF7FEFF 		bl	lv_obj_add_flag
 2121              	.LVL213:
 209:generated/events_init.c **** 		lv_obj_add_flag(guider_ui.wave_model_label_24, LV_OBJ_FLAG_HIDDEN);
 2122              		.loc 1 209 3 view .LVU483
 2123 0578 0121     		movs	r1, #1
 2124 057a D4F88000 		ldr	r0, [r4, #128]
 2125 057e FFF7FEFF 		bl	lv_obj_add_flag
 2126              	.LVL214:
 210:generated/events_init.c **** 		lv_obj_add_flag(guider_ui.wave_model_label_23, LV_OBJ_FLAG_HIDDEN);
 2127              		.loc 1 210 3 view .LVU484
 2128 0582 0121     		movs	r1, #1
 2129 0584 E06F     		ldr	r0, [r4, #124]
 2130 0586 FFF7FEFF 		bl	lv_obj_add_flag
 2131              	.LVL215:
 211:generated/events_init.c **** 		lv_obj_add_flag(guider_ui.wave_model_label_22, LV_OBJ_FLAG_HIDDEN);
 2132              		.loc 1 211 3 view .LVU485
 2133 058a 0121     		movs	r1, #1
 2134 058c A06F     		ldr	r0, [r4, #120]
 2135 058e FFF7FEFF 		bl	lv_obj_add_flag
 2136              	.LVL216:
 212:generated/events_init.c **** 		lv_obj_add_flag(guider_ui.wave_model_label_21, LV_OBJ_FLAG_HIDDEN);
 2137              		.loc 1 212 3 view .LVU486
 2138 0592 0121     		movs	r1, #1
 2139 0594 606F     		ldr	r0, [r4, #116]
 2140 0596 FFF7FEFF 		bl	lv_obj_add_flag
 2141              	.LVL217:
 213:generated/events_init.c **** 		lv_obj_set_width(guider_ui.wave_model_three_value, 120);
 2142              		.loc 1 213 3 view .LVU487
 2143 059a 0121     		movs	r1, #1
 2144 059c 206F     		ldr	r0, [r4, #112]
 2145 059e FFF7FEFF 		bl	lv_obj_add_flag
 2146              	.LVL218:
 214:generated/events_init.c **** 		lv_obj_set_height(guider_ui.wave_model_three_value, 90);
 2147              		.loc 1 214 3 view .LVU488
 2148 05a2 7821     		movs	r1, #120
 2149 05a4 E06E     		ldr	r0, [r4, #108]
 2150 05a6 FFF7FEFF 		bl	lv_obj_set_width
 2151              	.LVL219:
 215:generated/events_init.c **** 		lv_obj_add_flag(guider_ui.wave_model_three_value, LV_OBJ_FLAG_HIDDEN);
 2152              		.loc 1 215 3 view .LVU489
 2153 05aa 5A21     		movs	r1, #90
 2154 05ac E06E     		ldr	r0, [r4, #108]
 2155 05ae FFF7FEFF 		bl	lv_obj_set_height
ARM GAS  C:\usertemp\ccMiPmMS.s 			page 60


 2156              	.LVL220:
 216:generated/events_init.c **** 		lv_obj_set_width(guider_ui.wave_model_two_value, 120);
 2157              		.loc 1 216 3 view .LVU490
 2158 05b2 0121     		movs	r1, #1
 2159 05b4 E06E     		ldr	r0, [r4, #108]
 2160 05b6 FFF7FEFF 		bl	lv_obj_add_flag
 2161              	.LVL221:
 217:generated/events_init.c **** 		lv_obj_set_height(guider_ui.wave_model_two_value, 90);
 2162              		.loc 1 217 3 view .LVU491
 2163 05ba 7821     		movs	r1, #120
 2164 05bc A06E     		ldr	r0, [r4, #104]
 2165 05be FFF7FEFF 		bl	lv_obj_set_width
 2166              	.LVL222:
 218:generated/events_init.c **** 		lv_obj_add_flag(guider_ui.wave_model_two_value, LV_OBJ_FLAG_HIDDEN);
 2167              		.loc 1 218 3 view .LVU492
 2168 05c2 5A21     		movs	r1, #90
 2169 05c4 A06E     		ldr	r0, [r4, #104]
 2170 05c6 FFF7FEFF 		bl	lv_obj_set_height
 2171              	.LVL223:
 219:generated/events_init.c **** 		lv_obj_set_width(guider_ui.wave_model_one_value, 120);
 2172              		.loc 1 219 3 view .LVU493
 2173 05ca 0121     		movs	r1, #1
 2174 05cc A06E     		ldr	r0, [r4, #104]
 2175 05ce FFF7FEFF 		bl	lv_obj_add_flag
 2176              	.LVL224:
 220:generated/events_init.c **** 		lv_obj_set_height(guider_ui.wave_model_one_value, 90);
 2177              		.loc 1 220 3 view .LVU494
 2178 05d2 7821     		movs	r1, #120
 2179 05d4 606E     		ldr	r0, [r4, #100]
 2180 05d6 FFF7FEFF 		bl	lv_obj_set_width
 2181              	.LVL225:
 221:generated/events_init.c **** 		lv_obj_add_flag(guider_ui.wave_model_one_value, LV_OBJ_FLAG_HIDDEN);
 2182              		.loc 1 221 3 view .LVU495
 2183 05da 5A21     		movs	r1, #90
 2184 05dc 606E     		ldr	r0, [r4, #100]
 2185 05de FFF7FEFF 		bl	lv_obj_set_height
 2186              	.LVL226:
 222:generated/events_init.c **** 		lv_obj_add_flag(guider_ui.wave_model_N__, LV_OBJ_FLAG_HIDDEN);
 2187              		.loc 1 222 3 view .LVU496
 2188 05e2 0121     		movs	r1, #1
 2189 05e4 606E     		ldr	r0, [r4, #100]
 2190 05e6 FFF7FEFF 		bl	lv_obj_add_flag
 2191              	.LVL227:
 223:generated/events_init.c **** 		lv_obj_set_pos(guider_ui.wave_model_num_1, 169, 100);
 2192              		.loc 1 223 3 view .LVU497
 2193 05ea 0121     		movs	r1, #1
 2194 05ec 206E     		ldr	r0, [r4, #96]
 2195 05ee FFF7FEFF 		bl	lv_obj_add_flag
 2196              	.LVL228:
 224:generated/events_init.c **** 		lv_obj_set_pos(guider_ui.wave_model_three, 430, 98);
 2197              		.loc 1 224 3 view .LVU498
 2198 05f2 6422     		movs	r2, #100
 2199 05f4 A921     		movs	r1, #169
 2200 05f6 D4F88800 		ldr	r0, [r4, #136]
 2201 05fa FFF7FEFF 		bl	lv_obj_set_pos
 2202              	.LVL229:
 225:generated/events_init.c **** 		lv_obj_set_pos(guider_ui.wave_model_two, 299, 98);
ARM GAS  C:\usertemp\ccMiPmMS.s 			page 61


 2203              		.loc 1 225 3 view .LVU499
 2204 05fe 6222     		movs	r2, #98
 2205 0600 4FF4D771 		mov	r1, #430
 2206 0604 E06D     		ldr	r0, [r4, #92]
 2207 0606 FFF7FEFF 		bl	lv_obj_set_pos
 2208              	.LVL230:
 226:generated/events_init.c **** 		lv_obj_set_pos(guider_ui.wave_model_red, 461, 95);
 2209              		.loc 1 226 3 view .LVU500
 2210 060a 6222     		movs	r2, #98
 2211 060c 40F22B11 		movw	r1, #299
 2212 0610 A06D     		ldr	r0, [r4, #88]
 2213 0612 FFF7FEFF 		bl	lv_obj_set_pos
 2214              	.LVL231:
 227:generated/events_init.c **** 		lv_obj_set_pos(guider_ui.wave_model_green, 330, 95);
 2215              		.loc 1 227 3 view .LVU501
 2216 0616 5F22     		movs	r2, #95
 2217 0618 40F2CD11 		movw	r1, #461
 2218 061c 606D     		ldr	r0, [r4, #84]
 2219 061e FFF7FEFF 		bl	lv_obj_set_pos
 2220              	.LVL232:
 228:generated/events_init.c **** 		lv_obj_set_pos(guider_ui.wave_model_yellow, 200, 95);
 2221              		.loc 1 228 3 view .LVU502
 2222 0622 5F22     		movs	r2, #95
 2223 0624 4FF4A571 		mov	r1, #330
 2224 0628 E06C     		ldr	r0, [r4, #76]
 2225 062a FFF7FEFF 		bl	lv_obj_set_pos
 2226              	.LVL233:
 229:generated/events_init.c **** 		lv_obj_clear_flag(guider_ui.wave_model_three, LV_OBJ_FLAG_HIDDEN);
 2227              		.loc 1 229 3 view .LVU503
 2228 062e 5F22     		movs	r2, #95
 2229 0630 C821     		movs	r1, #200
 2230 0632 A06C     		ldr	r0, [r4, #72]
 2231 0634 FFF7FEFF 		bl	lv_obj_set_pos
 2232              	.LVL234:
 230:generated/events_init.c **** 		lv_obj_clear_flag(guider_ui.wave_model_two, LV_OBJ_FLAG_HIDDEN);
 2233              		.loc 1 230 3 view .LVU504
 2234 0638 0121     		movs	r1, #1
 2235 063a E06D     		ldr	r0, [r4, #92]
 2236 063c FFF7FEFF 		bl	lv_obj_clear_flag
 2237              	.LVL235:
 231:generated/events_init.c **** 		lv_obj_clear_flag(guider_ui.wave_model_red, LV_OBJ_FLAG_HIDDEN);
 2238              		.loc 1 231 3 view .LVU505
 2239 0640 0121     		movs	r1, #1
 2240 0642 A06D     		ldr	r0, [r4, #88]
 2241 0644 FFF7FEFF 		bl	lv_obj_clear_flag
 2242              	.LVL236:
 232:generated/events_init.c **** 		lv_obj_add_flag(guider_ui.wave_model_blue, LV_OBJ_FLAG_HIDDEN);
 2243              		.loc 1 232 3 view .LVU506
 2244 0648 0121     		movs	r1, #1
 2245 064a 606D     		ldr	r0, [r4, #84]
 2246 064c FFF7FEFF 		bl	lv_obj_clear_flag
 2247              	.LVL237:
 233:generated/events_init.c **** 		lv_obj_clear_flag(guider_ui.wave_model_green, LV_OBJ_FLAG_HIDDEN);
 2248              		.loc 1 233 3 view .LVU507
 2249 0650 0121     		movs	r1, #1
 2250 0652 206D     		ldr	r0, [r4, #80]
 2251 0654 FFF7FEFF 		bl	lv_obj_add_flag
ARM GAS  C:\usertemp\ccMiPmMS.s 			page 62


 2252              	.LVL238:
 234:generated/events_init.c **** 		lv_obj_clear_flag(guider_ui.wave_model_yellow, LV_OBJ_FLAG_HIDDEN);
 2253              		.loc 1 234 3 view .LVU508
 2254 0658 0121     		movs	r1, #1
 2255 065a E06C     		ldr	r0, [r4, #76]
 2256 065c FFF7FEFF 		bl	lv_obj_clear_flag
 2257              	.LVL239:
 235:generated/events_init.c **** 		lv_obj_clear_flag(guider_ui.wave_model_freq, LV_OBJ_FLAG_HIDDEN);
 2258              		.loc 1 235 3 view .LVU509
 2259 0660 0121     		movs	r1, #1
 2260 0662 A06C     		ldr	r0, [r4, #72]
 2261 0664 FFF7FEFF 		bl	lv_obj_clear_flag
 2262              	.LVL240:
 236:generated/events_init.c **** 		lv_obj_clear_flag(guider_ui.wave_model_power, LV_OBJ_FLAG_HIDDEN);
 2263              		.loc 1 236 3 view .LVU510
 2264 0668 0121     		movs	r1, #1
 2265 066a 606C     		ldr	r0, [r4, #68]
 2266 066c FFF7FEFF 		bl	lv_obj_clear_flag
 2267              	.LVL241:
 237:generated/events_init.c **** 
 2268              		.loc 1 237 3 view .LVU511
 2269 0670 0121     		movs	r1, #1
 2270 0672 206C     		ldr	r0, [r4, #64]
 2271 0674 FFF7FEFF 		bl	lv_obj_clear_flag
 2272              	.LVL242:
 239:generated/events_init.c **** 		lv_obj_clear_flag(guider_ui.wave_model_btn_2, LV_OBJ_FLAG_HIDDEN);
 2273              		.loc 1 239 3 view .LVU512
 2274 0678 0121     		movs	r1, #1
 2275 067a 2069     		ldr	r0, [r4, #16]
 2276 067c FFF7FEFF 		bl	lv_obj_clear_flag
 2277              	.LVL243:
 240:generated/events_init.c **** 		lv_obj_clear_flag(guider_ui.wave_model_btn_3, LV_OBJ_FLAG_HIDDEN);
 2278              		.loc 1 240 3 view .LVU513
 2279 0680 0121     		movs	r1, #1
 2280 0682 A069     		ldr	r0, [r4, #24]
 2281 0684 FFF7FEFF 		bl	lv_obj_clear_flag
 2282              	.LVL244:
 241:generated/events_init.c **** 		lv_obj_clear_flag(guider_ui.wave_model_btn_4, LV_OBJ_FLAG_HIDDEN);
 2283              		.loc 1 241 3 view .LVU514
 2284 0688 0121     		movs	r1, #1
 2285 068a 206A     		ldr	r0, [r4, #32]
 2286 068c FFF7FEFF 		bl	lv_obj_clear_flag
 2287              	.LVL245:
 242:generated/events_init.c **** 		lv_obj_clear_flag(guider_ui.wave_model_btn_5, LV_OBJ_FLAG_HIDDEN);
 2288              		.loc 1 242 3 view .LVU515
 2289 0690 0121     		movs	r1, #1
 2290 0692 A06A     		ldr	r0, [r4, #40]
 2291 0694 FFF7FEFF 		bl	lv_obj_clear_flag
 2292              	.LVL246:
 243:generated/events_init.c **** 		lv_obj_clear_flag(guider_ui.wave_model_btn_6, LV_OBJ_FLAG_HIDDEN);
 2293              		.loc 1 243 3 view .LVU516
 2294 0698 0121     		movs	r1, #1
 2295 069a 206B     		ldr	r0, [r4, #48]
 2296 069c FFF7FEFF 		bl	lv_obj_clear_flag
 2297              	.LVL247:
 244:generated/events_init.c **** 
 2298              		.loc 1 244 3 view .LVU517
ARM GAS  C:\usertemp\ccMiPmMS.s 			page 63


 2299 06a0 0121     		movs	r1, #1
 2300 06a2 A06B     		ldr	r0, [r4, #56]
 2301 06a4 FFF7FEFF 		bl	lv_obj_clear_flag
 2302              	.LVL248:
 246:generated/events_init.c **** 		lv_obj_clear_flag(guider_ui.wave_model_table_1, LV_OBJ_FLAG_HIDDEN);
 2303              		.loc 1 246 3 view .LVU518
 2304 06a8 0121     		movs	r1, #1
 2305 06aa D4F89800 		ldr	r0, [r4, #152]
 2306 06ae FFF7FEFF 		bl	lv_obj_clear_flag
 2307              	.LVL249:
 247:generated/events_init.c **** 		lv_obj_add_flag(guider_ui.wave_model_label_26, LV_OBJ_FLAG_HIDDEN);
 2308              		.loc 1 247 3 view .LVU519
 2309 06b2 0121     		movs	r1, #1
 2310 06b4 D4F8A000 		ldr	r0, [r4, #160]
 2311 06b8 FFF7FEFF 		bl	lv_obj_clear_flag
 2312              	.LVL250:
 248:generated/events_init.c **** 		lv_obj_clear_flag(guider_ui.wave_model_digital_clock_1, LV_OBJ_FLAG_HIDDEN);
 2313              		.loc 1 248 3 view .LVU520
 2314 06bc 0121     		movs	r1, #1
 2315 06be D4F8A400 		ldr	r0, [r4, #164]
 2316 06c2 FFF7FEFF 		bl	lv_obj_add_flag
 2317              	.LVL251:
 249:generated/events_init.c **** 		lv_obj_add_flag(guider_ui.wave_model_img_1, LV_OBJ_FLAG_HIDDEN);
 2318              		.loc 1 249 3 view .LVU521
 2319 06c6 0121     		movs	r1, #1
 2320 06c8 D4F8A800 		ldr	r0, [r4, #168]
 2321 06cc FFF7FEFF 		bl	lv_obj_clear_flag
 2322              	.LVL252:
 250:generated/events_init.c **** 		lv_obj_add_flag(guider_ui.wave_model_table_2, LV_OBJ_FLAG_HIDDEN);
 2323              		.loc 1 250 3 view .LVU522
 2324 06d0 0121     		movs	r1, #1
 2325 06d2 D4F8AC00 		ldr	r0, [r4, #172]
 2326 06d6 FFF7FEFF 		bl	lv_obj_add_flag
 2327              	.LVL253:
 251:generated/events_init.c **** 	}
 2328              		.loc 1 251 3 view .LVU523
 2329 06da 0121     		movs	r1, #1
 2330 06dc A068     		ldr	r0, [r4, #8]
 2331 06de FFF7FEFF 		bl	lv_obj_add_flag
 2332              	.LVL254:
 2333 06e2 A4E4     		b	.L101
 2334              	.L114:
 2335              		.align	2
 2336              	.L113:
 2337 06e4 00000000 		.word	guider_ui
 2338              	.L108:
 255:generated/events_init.c **** 		lv_obj_clear_flag(guider_ui.wave_model_table_2, LV_OBJ_FLAG_HIDDEN);
 2339              		.loc 1 255 3 view .LVU524
 2340 06e8 6E4C     		ldr	r4, .L115
 2341 06ea 0121     		movs	r1, #1
 2342 06ec D4F8A000 		ldr	r0, [r4, #160]
 2343 06f0 FFF7FEFF 		bl	lv_obj_add_flag
 2344              	.LVL255:
 256:generated/events_init.c **** 		lv_obj_clear_flag(guider_ui.wave_model_btn_7, LV_OBJ_FLAG_HIDDEN);
 2345              		.loc 1 256 3 view .LVU525
 2346 06f4 0121     		movs	r1, #1
 2347 06f6 A068     		ldr	r0, [r4, #8]
ARM GAS  C:\usertemp\ccMiPmMS.s 			page 64


 2348 06f8 FFF7FEFF 		bl	lv_obj_clear_flag
 2349              	.LVL256:
 257:generated/events_init.c **** 		lv_obj_set_width(guider_ui.wave_model_chart_2, 520);
 2350              		.loc 1 257 3 view .LVU526
 2351 06fc 0121     		movs	r1, #1
 2352 06fe D4F89000 		ldr	r0, [r4, #144]
 2353 0702 FFF7FEFF 		bl	lv_obj_clear_flag
 2354              	.LVL257:
 258:generated/events_init.c **** 		lv_obj_set_height(guider_ui.wave_model_chart_2, 280);
 2355              		.loc 1 258 3 view .LVU527
 2356 0706 4FF40271 		mov	r1, #520
 2357 070a D4F88C00 		ldr	r0, [r4, #140]
 2358 070e FFF7FEFF 		bl	lv_obj_set_width
 2359              	.LVL258:
 259:generated/events_init.c **** 		lv_obj_set_pos(guider_ui.wave_model_chart_2, 47, 130);
 2360              		.loc 1 259 3 view .LVU528
 2361 0712 4FF48C71 		mov	r1, #280
 2362 0716 D4F88C00 		ldr	r0, [r4, #140]
 2363 071a FFF7FEFF 		bl	lv_obj_set_height
 2364              	.LVL259:
 260:generated/events_init.c **** 		lv_obj_add_flag(guider_ui.wave_model_chart_2, LV_OBJ_FLAG_HIDDEN);
 2365              		.loc 1 260 3 view .LVU529
 2366 071e 8222     		movs	r2, #130
 2367 0720 2F21     		movs	r1, #47
 2368 0722 D4F88C00 		ldr	r0, [r4, #140]
 2369 0726 FFF7FEFF 		bl	lv_obj_set_pos
 2370              	.LVL260:
 261:generated/events_init.c **** 		lv_obj_set_pos(guider_ui.wave_model_num_1, 209, 70);
 2371              		.loc 1 261 3 view .LVU530
 2372 072a 0121     		movs	r1, #1
 2373 072c D4F88C00 		ldr	r0, [r4, #140]
 2374 0730 FFF7FEFF 		bl	lv_obj_add_flag
 2375              	.LVL261:
 262:generated/events_init.c **** 		lv_obj_clear_flag(guider_ui.wave_model_num_1, LV_OBJ_FLAG_HIDDEN);
 2376              		.loc 1 262 3 view .LVU531
 2377 0734 4622     		movs	r2, #70
 2378 0736 D121     		movs	r1, #209
 2379 0738 D4F88800 		ldr	r0, [r4, #136]
 2380 073c FFF7FEFF 		bl	lv_obj_set_pos
 2381              	.LVL262:
 263:generated/events_init.c **** 		lv_obj_add_flag(guider_ui.wave_model_N_val, LV_OBJ_FLAG_HIDDEN);
 2382              		.loc 1 263 3 view .LVU532
 2383 0740 0121     		movs	r1, #1
 2384 0742 D4F88800 		ldr	r0, [r4, #136]
 2385 0746 FFF7FEFF 		bl	lv_obj_clear_flag
 2386              	.LVL263:
 264:generated/events_init.c **** 		lv_obj_add_flag(guider_ui.wave_model_label_25, LV_OBJ_FLAG_HIDDEN);
 2387              		.loc 1 264 3 view .LVU533
 2388 074a 0121     		movs	r1, #1
 2389 074c D4F88400 		ldr	r0, [r4, #132]
 2390 0750 FFF7FEFF 		bl	lv_obj_add_flag
 2391              	.LVL264:
 265:generated/events_init.c **** 		lv_obj_add_flag(guider_ui.wave_model_label_24, LV_OBJ_FLAG_HIDDEN);
 2392              		.loc 1 265 3 view .LVU534
 2393 0754 0121     		movs	r1, #1
 2394 0756 D4F88000 		ldr	r0, [r4, #128]
 2395 075a FFF7FEFF 		bl	lv_obj_add_flag
ARM GAS  C:\usertemp\ccMiPmMS.s 			page 65


 2396              	.LVL265:
 266:generated/events_init.c **** 		lv_obj_add_flag(guider_ui.wave_model_label_23, LV_OBJ_FLAG_HIDDEN);
 2397              		.loc 1 266 3 view .LVU535
 2398 075e 0121     		movs	r1, #1
 2399 0760 E06F     		ldr	r0, [r4, #124]
 2400 0762 FFF7FEFF 		bl	lv_obj_add_flag
 2401              	.LVL266:
 267:generated/events_init.c **** 		lv_obj_add_flag(guider_ui.wave_model_label_22, LV_OBJ_FLAG_HIDDEN);
 2402              		.loc 1 267 3 view .LVU536
 2403 0766 0121     		movs	r1, #1
 2404 0768 A06F     		ldr	r0, [r4, #120]
 2405 076a FFF7FEFF 		bl	lv_obj_add_flag
 2406              	.LVL267:
 268:generated/events_init.c **** 		lv_obj_add_flag(guider_ui.wave_model_label_21, LV_OBJ_FLAG_HIDDEN);
 2407              		.loc 1 268 3 view .LVU537
 2408 076e 0121     		movs	r1, #1
 2409 0770 606F     		ldr	r0, [r4, #116]
 2410 0772 FFF7FEFF 		bl	lv_obj_add_flag
 2411              	.LVL268:
 269:generated/events_init.c **** 		lv_obj_set_width(guider_ui.wave_model_three_value, 120);
 2412              		.loc 1 269 3 view .LVU538
 2413 0776 0121     		movs	r1, #1
 2414 0778 206F     		ldr	r0, [r4, #112]
 2415 077a FFF7FEFF 		bl	lv_obj_add_flag
 2416              	.LVL269:
 270:generated/events_init.c **** 		lv_obj_set_height(guider_ui.wave_model_three_value, 90);
 2417              		.loc 1 270 3 view .LVU539
 2418 077e 7821     		movs	r1, #120
 2419 0780 E06E     		ldr	r0, [r4, #108]
 2420 0782 FFF7FEFF 		bl	lv_obj_set_width
 2421              	.LVL270:
 271:generated/events_init.c **** 		lv_obj_add_flag(guider_ui.wave_model_three_value, LV_OBJ_FLAG_HIDDEN);
 2422              		.loc 1 271 3 view .LVU540
 2423 0786 5A21     		movs	r1, #90
 2424 0788 E06E     		ldr	r0, [r4, #108]
 2425 078a FFF7FEFF 		bl	lv_obj_set_height
 2426              	.LVL271:
 272:generated/events_init.c **** 		lv_obj_set_width(guider_ui.wave_model_two_value, 120);
 2427              		.loc 1 272 3 view .LVU541
 2428 078e 0121     		movs	r1, #1
 2429 0790 E06E     		ldr	r0, [r4, #108]
 2430 0792 FFF7FEFF 		bl	lv_obj_add_flag
 2431              	.LVL272:
 273:generated/events_init.c **** 		lv_obj_set_height(guider_ui.wave_model_two_value, 90);
 2432              		.loc 1 273 3 view .LVU542
 2433 0796 7821     		movs	r1, #120
 2434 0798 A06E     		ldr	r0, [r4, #104]
 2435 079a FFF7FEFF 		bl	lv_obj_set_width
 2436              	.LVL273:
 274:generated/events_init.c **** 		lv_obj_add_flag(guider_ui.wave_model_two_value, LV_OBJ_FLAG_HIDDEN);
 2437              		.loc 1 274 3 view .LVU543
 2438 079e 5A21     		movs	r1, #90
 2439 07a0 A06E     		ldr	r0, [r4, #104]
 2440 07a2 FFF7FEFF 		bl	lv_obj_set_height
 2441              	.LVL274:
 275:generated/events_init.c **** 		lv_obj_set_width(guider_ui.wave_model_one_value, 120);
 2442              		.loc 1 275 3 view .LVU544
ARM GAS  C:\usertemp\ccMiPmMS.s 			page 66


 2443 07a6 0121     		movs	r1, #1
 2444 07a8 A06E     		ldr	r0, [r4, #104]
 2445 07aa FFF7FEFF 		bl	lv_obj_add_flag
 2446              	.LVL275:
 276:generated/events_init.c **** 		lv_obj_set_height(guider_ui.wave_model_one_value, 90);
 2447              		.loc 1 276 3 view .LVU545
 2448 07ae 7821     		movs	r1, #120
 2449 07b0 606E     		ldr	r0, [r4, #100]
 2450 07b2 FFF7FEFF 		bl	lv_obj_set_width
 2451              	.LVL276:
 277:generated/events_init.c **** 		lv_obj_add_flag(guider_ui.wave_model_one_value, LV_OBJ_FLAG_HIDDEN);
 2452              		.loc 1 277 3 view .LVU546
 2453 07b6 5A21     		movs	r1, #90
 2454 07b8 606E     		ldr	r0, [r4, #100]
 2455 07ba FFF7FEFF 		bl	lv_obj_set_height
 2456              	.LVL277:
 278:generated/events_init.c **** 		lv_obj_add_flag(guider_ui.wave_model_N__, LV_OBJ_FLAG_HIDDEN);
 2457              		.loc 1 278 3 view .LVU547
 2458 07be 0121     		movs	r1, #1
 2459 07c0 606E     		ldr	r0, [r4, #100]
 2460 07c2 FFF7FEFF 		bl	lv_obj_add_flag
 2461              	.LVL278:
 279:generated/events_init.c **** 		lv_obj_set_pos(guider_ui.wave_model_three, 470, 68);
 2462              		.loc 1 279 3 view .LVU548
 2463 07c6 0121     		movs	r1, #1
 2464 07c8 206E     		ldr	r0, [r4, #96]
 2465 07ca FFF7FEFF 		bl	lv_obj_add_flag
 2466              	.LVL279:
 280:generated/events_init.c **** 		lv_obj_clear_flag(guider_ui.wave_model_three, LV_OBJ_FLAG_HIDDEN);
 2467              		.loc 1 280 3 view .LVU549
 2468 07ce 4422     		movs	r2, #68
 2469 07d0 4FF4EB71 		mov	r1, #470
 2470 07d4 E06D     		ldr	r0, [r4, #92]
 2471 07d6 FFF7FEFF 		bl	lv_obj_set_pos
 2472              	.LVL280:
 281:generated/events_init.c **** 		lv_obj_set_pos(guider_ui.wave_model_two, 339, 68);
 2473              		.loc 1 281 3 view .LVU550
 2474 07da 0121     		movs	r1, #1
 2475 07dc E06D     		ldr	r0, [r4, #92]
 2476 07de FFF7FEFF 		bl	lv_obj_clear_flag
 2477              	.LVL281:
 282:generated/events_init.c **** 		lv_obj_clear_flag(guider_ui.wave_model_two, LV_OBJ_FLAG_HIDDEN);
 2478              		.loc 1 282 3 view .LVU551
 2479 07e2 4422     		movs	r2, #68
 2480 07e4 40F25311 		movw	r1, #339
 2481 07e8 A06D     		ldr	r0, [r4, #88]
 2482 07ea FFF7FEFF 		bl	lv_obj_set_pos
 2483              	.LVL282:
 283:generated/events_init.c **** 		lv_obj_set_pos(guider_ui.wave_model_red, 501, 65);
 2484              		.loc 1 283 3 view .LVU552
 2485 07ee 0121     		movs	r1, #1
 2486 07f0 A06D     		ldr	r0, [r4, #88]
 2487 07f2 FFF7FEFF 		bl	lv_obj_clear_flag
 2488              	.LVL283:
 284:generated/events_init.c **** 		lv_obj_clear_flag(guider_ui.wave_model_red, LV_OBJ_FLAG_HIDDEN);
 2489              		.loc 1 284 3 view .LVU553
 2490 07f6 4122     		movs	r2, #65
ARM GAS  C:\usertemp\ccMiPmMS.s 			page 67


 2491 07f8 40F2F511 		movw	r1, #501
 2492 07fc 606D     		ldr	r0, [r4, #84]
 2493 07fe FFF7FEFF 		bl	lv_obj_set_pos
 2494              	.LVL284:
 285:generated/events_init.c **** 		lv_obj_add_flag(guider_ui.wave_model_blue, LV_OBJ_FLAG_HIDDEN);
 2495              		.loc 1 285 3 view .LVU554
 2496 0802 0121     		movs	r1, #1
 2497 0804 606D     		ldr	r0, [r4, #84]
 2498 0806 FFF7FEFF 		bl	lv_obj_clear_flag
 2499              	.LVL285:
 286:generated/events_init.c **** 		lv_obj_set_pos(guider_ui.wave_model_green, 370, 65);
 2500              		.loc 1 286 3 view .LVU555
 2501 080a 0121     		movs	r1, #1
 2502 080c 206D     		ldr	r0, [r4, #80]
 2503 080e FFF7FEFF 		bl	lv_obj_add_flag
 2504              	.LVL286:
 287:generated/events_init.c **** 		lv_obj_clear_flag(guider_ui.wave_model_green, LV_OBJ_FLAG_HIDDEN);
 2505              		.loc 1 287 3 view .LVU556
 2506 0812 4122     		movs	r2, #65
 2507 0814 4FF4B971 		mov	r1, #370
 2508 0818 E06C     		ldr	r0, [r4, #76]
 2509 081a FFF7FEFF 		bl	lv_obj_set_pos
 2510              	.LVL287:
 288:generated/events_init.c **** 		lv_obj_set_pos(guider_ui.wave_model_yellow, 240, 65);
 2511              		.loc 1 288 3 view .LVU557
 2512 081e 0121     		movs	r1, #1
 2513 0820 E06C     		ldr	r0, [r4, #76]
 2514 0822 FFF7FEFF 		bl	lv_obj_clear_flag
 2515              	.LVL288:
 289:generated/events_init.c **** 		lv_obj_clear_flag(guider_ui.wave_model_yellow, LV_OBJ_FLAG_HIDDEN);
 2516              		.loc 1 289 3 view .LVU558
 2517 0826 4122     		movs	r2, #65
 2518 0828 F021     		movs	r1, #240
 2519 082a A06C     		ldr	r0, [r4, #72]
 2520 082c FFF7FEFF 		bl	lv_obj_set_pos
 2521              	.LVL289:
 290:generated/events_init.c **** 		lv_obj_clear_flag(guider_ui.wave_model_freq, LV_OBJ_FLAG_HIDDEN);
 2522              		.loc 1 290 3 view .LVU559
 2523 0830 0121     		movs	r1, #1
 2524 0832 A06C     		ldr	r0, [r4, #72]
 2525 0834 FFF7FEFF 		bl	lv_obj_clear_flag
 2526              	.LVL290:
 291:generated/events_init.c **** 		lv_obj_clear_flag(guider_ui.wave_model_power, LV_OBJ_FLAG_HIDDEN);
 2527              		.loc 1 291 3 view .LVU560
 2528 0838 0121     		movs	r1, #1
 2529 083a 606C     		ldr	r0, [r4, #68]
 2530 083c FFF7FEFF 		bl	lv_obj_clear_flag
 2531              	.LVL291:
 292:generated/events_init.c **** 		lv_obj_clear_flag(guider_ui.wave_model_btn_1, LV_OBJ_FLAG_HIDDEN);
 2532              		.loc 1 292 3 view .LVU561
 2533 0840 0121     		movs	r1, #1
 2534 0842 206C     		ldr	r0, [r4, #64]
 2535 0844 FFF7FEFF 		bl	lv_obj_clear_flag
 2536              	.LVL292:
 293:generated/events_init.c **** 		lv_obj_clear_flag(guider_ui.wave_model_btn_2, LV_OBJ_FLAG_HIDDEN);
 2537              		.loc 1 293 3 view .LVU562
 2538 0848 0121     		movs	r1, #1
ARM GAS  C:\usertemp\ccMiPmMS.s 			page 68


 2539 084a 2069     		ldr	r0, [r4, #16]
 2540 084c FFF7FEFF 		bl	lv_obj_clear_flag
 2541              	.LVL293:
 294:generated/events_init.c **** 		lv_obj_clear_flag(guider_ui.wave_model_btn_3, LV_OBJ_FLAG_HIDDEN);
 2542              		.loc 1 294 3 view .LVU563
 2543 0850 0121     		movs	r1, #1
 2544 0852 A069     		ldr	r0, [r4, #24]
 2545 0854 FFF7FEFF 		bl	lv_obj_clear_flag
 2546              	.LVL294:
 295:generated/events_init.c **** 		lv_obj_clear_flag(guider_ui.wave_model_btn_4, LV_OBJ_FLAG_HIDDEN);
 2547              		.loc 1 295 3 view .LVU564
 2548 0858 0121     		movs	r1, #1
 2549 085a 206A     		ldr	r0, [r4, #32]
 2550 085c FFF7FEFF 		bl	lv_obj_clear_flag
 2551              	.LVL295:
 296:generated/events_init.c **** 		lv_obj_clear_flag(guider_ui.wave_model_btn_5, LV_OBJ_FLAG_HIDDEN);
 2552              		.loc 1 296 3 view .LVU565
 2553 0860 0121     		movs	r1, #1
 2554 0862 A06A     		ldr	r0, [r4, #40]
 2555 0864 FFF7FEFF 		bl	lv_obj_clear_flag
 2556              	.LVL296:
 297:generated/events_init.c **** 		lv_obj_clear_flag(guider_ui.wave_model_btn_6, LV_OBJ_FLAG_HIDDEN);
 2557              		.loc 1 297 3 view .LVU566
 2558 0868 0121     		movs	r1, #1
 2559 086a 206B     		ldr	r0, [r4, #48]
 2560 086c FFF7FEFF 		bl	lv_obj_clear_flag
 2561              	.LVL297:
 298:generated/events_init.c **** 		lv_obj_clear_flag(guider_ui.wave_model_btn_8, LV_OBJ_FLAG_HIDDEN);
 2562              		.loc 1 298 3 view .LVU567
 2563 0870 0121     		movs	r1, #1
 2564 0872 A06B     		ldr	r0, [r4, #56]
 2565 0874 FFF7FEFF 		bl	lv_obj_clear_flag
 2566              	.LVL298:
 299:generated/events_init.c **** 		// lv_obj_clear_flag(guider_ui.wave_model_table_1, LV_OBJ_FLAG_HIDDEN);
 2567              		.loc 1 299 3 view .LVU568
 2568 0878 0121     		movs	r1, #1
 2569 087a D4F89800 		ldr	r0, [r4, #152]
 2570 087e FFF7FEFF 		bl	lv_obj_clear_flag
 2571              	.LVL299:
 301:generated/events_init.c **** 		lv_obj_clear_flag(guider_ui.wave_model_digital_clock_1, LV_OBJ_FLAG_HIDDEN);
 2572              		.loc 1 301 3 view .LVU569
 2573 0882 0121     		movs	r1, #1
 2574 0884 D4F8A400 		ldr	r0, [r4, #164]
 2575 0888 FFF7FEFF 		bl	lv_obj_clear_flag
 2576              	.LVL300:
 302:generated/events_init.c **** 		lv_obj_add_flag(guider_ui.wave_model_img_1, LV_OBJ_FLAG_HIDDEN);
 2577              		.loc 1 302 3 view .LVU570
 2578 088c 0121     		movs	r1, #1
 2579 088e D4F8A800 		ldr	r0, [r4, #168]
 2580 0892 FFF7FEFF 		bl	lv_obj_clear_flag
 2581              	.LVL301:
 303:generated/events_init.c **** 	}
 2582              		.loc 1 303 3 view .LVU571
 2583 0896 0121     		movs	r1, #1
 2584 0898 D4F8AC00 		ldr	r0, [r4, #172]
 2585 089c FFF7FEFF 		bl	lv_obj_add_flag
 2586              	.LVL302:
ARM GAS  C:\usertemp\ccMiPmMS.s 			page 69


 305:generated/events_init.c **** 
 2587              		.loc 1 305 1 is_stmt 0 view .LVU572
 2588 08a0 FFF7CBBB 		b	.L97
 2589              	.L116:
 2590              		.align	2
 2591              	.L115:
 2592 08a4 00000000 		.word	guider_ui
 2593              		.cfi_endproc
 2594              	.LFE598:
 2596              		.section	.text.wave_model_btn_8_event_handler,"ax",%progbits
 2597              		.align	1
 2598              		.syntax unified
 2599              		.thumb
 2600              		.thumb_func
 2602              	wave_model_btn_8_event_handler:
 2603              	.LVL303:
 2604              	.LFB602:
 409:generated/events_init.c **** 	lv_event_code_t code = lv_event_get_code(e);
 2605              		.loc 1 409 1 is_stmt 1 view -0
 2606              		.cfi_startproc
 2607              		@ args = 0, pretend = 0, frame = 0
 2608              		@ frame_needed = 0, uses_anonymous_args = 0
 409:generated/events_init.c **** 	lv_event_code_t code = lv_event_get_code(e);
 2609              		.loc 1 409 1 is_stmt 0 view .LVU574
 2610 0000 08B5     		push	{r3, lr}
 2611              	.LCFI20:
 2612              		.cfi_def_cfa_offset 8
 2613              		.cfi_offset 3, -8
 2614              		.cfi_offset 14, -4
 410:generated/events_init.c **** 
 2615              		.loc 1 410 2 is_stmt 1 view .LVU575
 410:generated/events_init.c **** 
 2616              		.loc 1 410 25 is_stmt 0 view .LVU576
 2617 0002 FFF7FEFF 		bl	lv_event_get_code
 2618              	.LVL304:
 412:generated/events_init.c **** 	{
 2619              		.loc 1 412 2 is_stmt 1 view .LVU577
 2620 0006 0728     		cmp	r0, #7
 2621 0008 00D0     		beq	.L121
 2622              	.LVL305:
 2623              	.L117:
 426:generated/events_init.c **** 
 2624              		.loc 1 426 1 is_stmt 0 view .LVU578
 2625 000a 08BD     		pop	{r3, pc}
 2626              	.LVL306:
 2627              	.L121:
 416:generated/events_init.c **** 		if (page < 0)
 2628              		.loc 1 416 3 is_stmt 1 view .LVU579
 416:generated/events_init.c **** 		if (page < 0)
 2629              		.loc 1 416 7 is_stmt 0 view .LVU580
 2630 000c 064A     		ldr	r2, .L123
 2631 000e 1378     		ldrb	r3, [r2]	@ zero_extendqisi2
 2632 0010 013B     		subs	r3, r3, #1
 2633 0012 5BB2     		sxtb	r3, r3
 2634 0014 1370     		strb	r3, [r2]
 417:generated/events_init.c **** 			page = 4;
 2635              		.loc 1 417 3 is_stmt 1 view .LVU581
ARM GAS  C:\usertemp\ccMiPmMS.s 			page 70


 417:generated/events_init.c **** 			page = 4;
 2636              		.loc 1 417 6 is_stmt 0 view .LVU582
 2637 0016 002B     		cmp	r3, #0
 2638 0018 02DB     		blt	.L122
 2639              	.L119:
 420:generated/events_init.c **** 		break;
 2640              		.loc 1 420 3 is_stmt 1 view .LVU583
 2641 001a FFF7FEFF 		bl	page_switch
 2642              	.LVL307:
 421:generated/events_init.c **** 	}
 2643              		.loc 1 421 3 view .LVU584
 426:generated/events_init.c **** 
 2644              		.loc 1 426 1 is_stmt 0 view .LVU585
 2645 001e F4E7     		b	.L117
 2646              	.LVL308:
 2647              	.L122:
 418:generated/events_init.c **** 
 2648              		.loc 1 418 4 is_stmt 1 view .LVU586
 418:generated/events_init.c **** 
 2649              		.loc 1 418 9 is_stmt 0 view .LVU587
 2650 0020 1346     		mov	r3, r2
 2651 0022 0422     		movs	r2, #4
 2652 0024 1A70     		strb	r2, [r3]
 2653 0026 F8E7     		b	.L119
 2654              	.L124:
 2655              		.align	2
 2656              	.L123:
 2657 0028 00000000 		.word	page
 2658              		.cfi_endproc
 2659              	.LFE602:
 2661              		.section	.text.wave_model_btn_7_event_handler,"ax",%progbits
 2662              		.align	1
 2663              		.syntax unified
 2664              		.thumb
 2665              		.thumb_func
 2667              	wave_model_btn_7_event_handler:
 2668              	.LVL309:
 2669              	.LFB601:
 390:generated/events_init.c **** 	lv_event_code_t code = lv_event_get_code(e);
 2670              		.loc 1 390 1 is_stmt 1 view -0
 2671              		.cfi_startproc
 2672              		@ args = 0, pretend = 0, frame = 0
 2673              		@ frame_needed = 0, uses_anonymous_args = 0
 390:generated/events_init.c **** 	lv_event_code_t code = lv_event_get_code(e);
 2674              		.loc 1 390 1 is_stmt 0 view .LVU589
 2675 0000 08B5     		push	{r3, lr}
 2676              	.LCFI21:
 2677              		.cfi_def_cfa_offset 8
 2678              		.cfi_offset 3, -8
 2679              		.cfi_offset 14, -4
 391:generated/events_init.c **** 
 2680              		.loc 1 391 2 is_stmt 1 view .LVU590
 391:generated/events_init.c **** 
 2681              		.loc 1 391 25 is_stmt 0 view .LVU591
 2682 0002 FFF7FEFF 		bl	lv_event_get_code
 2683              	.LVL310:
 393:generated/events_init.c **** 	{
ARM GAS  C:\usertemp\ccMiPmMS.s 			page 71


 2684              		.loc 1 393 2 is_stmt 1 view .LVU592
 2685 0006 0728     		cmp	r0, #7
 2686 0008 00D0     		beq	.L129
 2687              	.LVL311:
 2688              	.L125:
 407:generated/events_init.c **** static void wave_model_btn_8_event_handler(lv_event_t *e)
 2689              		.loc 1 407 1 is_stmt 0 view .LVU593
 2690 000a 08BD     		pop	{r3, pc}
 2691              	.LVL312:
 2692              	.L129:
 397:generated/events_init.c **** 		if (page > 4)
 2693              		.loc 1 397 3 is_stmt 1 view .LVU594
 397:generated/events_init.c **** 		if (page > 4)
 2694              		.loc 1 397 7 is_stmt 0 view .LVU595
 2695 000c 064A     		ldr	r2, .L130
 2696 000e 1378     		ldrb	r3, [r2]	@ zero_extendqisi2
 2697 0010 0133     		adds	r3, r3, #1
 2698 0012 5BB2     		sxtb	r3, r3
 2699 0014 1370     		strb	r3, [r2]
 398:generated/events_init.c **** 			page = 0;
 2700              		.loc 1 398 3 is_stmt 1 view .LVU596
 398:generated/events_init.c **** 			page = 0;
 2701              		.loc 1 398 6 is_stmt 0 view .LVU597
 2702 0016 042B     		cmp	r3, #4
 2703 0018 02DD     		ble	.L127
 399:generated/events_init.c **** 		page_switch();
 2704              		.loc 1 399 4 is_stmt 1 view .LVU598
 399:generated/events_init.c **** 		page_switch();
 2705              		.loc 1 399 9 is_stmt 0 view .LVU599
 2706 001a 1346     		mov	r3, r2
 2707 001c 0022     		movs	r2, #0
 2708 001e 1A70     		strb	r2, [r3]
 2709              	.L127:
 400:generated/events_init.c **** 
 2710              		.loc 1 400 3 is_stmt 1 view .LVU600
 2711 0020 FFF7FEFF 		bl	page_switch
 2712              	.LVL313:
 402:generated/events_init.c **** 	}
 2713              		.loc 1 402 3 view .LVU601
 407:generated/events_init.c **** static void wave_model_btn_8_event_handler(lv_event_t *e)
 2714              		.loc 1 407 1 is_stmt 0 view .LVU602
 2715 0024 F1E7     		b	.L125
 2716              	.L131:
 2717 0026 00BF     		.align	2
 2718              	.L130:
 2719 0028 00000000 		.word	page
 2720              		.cfi_endproc
 2721              	.LFE601:
 2723              		.section	.text.events_init_wave_model,"ax",%progbits
 2724              		.align	1
 2725              		.global	events_init_wave_model
 2726              		.syntax unified
 2727              		.thumb
 2728              		.thumb_func
 2730              	events_init_wave_model:
 2731              	.LVL314:
 2732              	.LFB614:
ARM GAS  C:\usertemp\ccMiPmMS.s 			page 72


 727:generated/events_init.c **** 	lv_obj_add_event_cb(ui->wave_model, wave_model_event_handler, LV_EVENT_ALL, NULL);
 2733              		.loc 1 727 1 is_stmt 1 view -0
 2734              		.cfi_startproc
 2735              		@ args = 0, pretend = 0, frame = 0
 2736              		@ frame_needed = 0, uses_anonymous_args = 0
 727:generated/events_init.c **** 	lv_obj_add_event_cb(ui->wave_model, wave_model_event_handler, LV_EVENT_ALL, NULL);
 2737              		.loc 1 727 1 is_stmt 0 view .LVU604
 2738 0000 10B5     		push	{r4, lr}
 2739              	.LCFI22:
 2740              		.cfi_def_cfa_offset 8
 2741              		.cfi_offset 4, -8
 2742              		.cfi_offset 14, -4
 2743 0002 0446     		mov	r4, r0
 728:generated/events_init.c **** 	lv_obj_add_event_cb(ui->wave_model_btn_1, wave_model_btn_1_event_handler, LV_EVENT_ALL, NULL);
 2744              		.loc 1 728 2 is_stmt 1 view .LVU605
 2745 0004 0023     		movs	r3, #0
 2746 0006 1A46     		mov	r2, r3
 2747 0008 3049     		ldr	r1, .L134
 2748 000a 0068     		ldr	r0, [r0]
 2749              	.LVL315:
 728:generated/events_init.c **** 	lv_obj_add_event_cb(ui->wave_model_btn_1, wave_model_btn_1_event_handler, LV_EVENT_ALL, NULL);
 2750              		.loc 1 728 2 is_stmt 0 view .LVU606
 2751 000c FFF7FEFF 		bl	lv_obj_add_event_cb
 2752              	.LVL316:
 729:generated/events_init.c **** 	lv_obj_add_event_cb(ui->wave_model_btn_2, wave_model_btn_2_event_handler, LV_EVENT_ALL, NULL);
 2753              		.loc 1 729 2 is_stmt 1 view .LVU607
 2754 0010 0023     		movs	r3, #0
 2755 0012 1A46     		mov	r2, r3
 2756 0014 2E49     		ldr	r1, .L134+4
 2757 0016 2069     		ldr	r0, [r4, #16]
 2758 0018 FFF7FEFF 		bl	lv_obj_add_event_cb
 2759              	.LVL317:
 730:generated/events_init.c **** 	lv_obj_add_event_cb(ui->wave_model_btn_3, wave_model_btn_3_event_handler, LV_EVENT_ALL, NULL);
 2760              		.loc 1 730 2 view .LVU608
 2761 001c 0023     		movs	r3, #0
 2762 001e 1A46     		mov	r2, r3
 2763 0020 2C49     		ldr	r1, .L134+8
 2764 0022 A069     		ldr	r0, [r4, #24]
 2765 0024 FFF7FEFF 		bl	lv_obj_add_event_cb
 2766              	.LVL318:
 731:generated/events_init.c **** 	lv_obj_add_event_cb(ui->wave_model_btn_4, wave_model_btn_4_event_handler, LV_EVENT_ALL, NULL);
 2767              		.loc 1 731 2 view .LVU609
 2768 0028 0023     		movs	r3, #0
 2769 002a 1A46     		mov	r2, r3
 2770 002c 2A49     		ldr	r1, .L134+12
 2771 002e 206A     		ldr	r0, [r4, #32]
 2772 0030 FFF7FEFF 		bl	lv_obj_add_event_cb
 2773              	.LVL319:
 732:generated/events_init.c **** 	lv_obj_add_event_cb(ui->wave_model_btn_5, wave_model_btn_5_event_handler, LV_EVENT_ALL, NULL);
 2774              		.loc 1 732 2 view .LVU610
 2775 0034 0023     		movs	r3, #0
 2776 0036 1A46     		mov	r2, r3
 2777 0038 2849     		ldr	r1, .L134+16
 2778 003a A06A     		ldr	r0, [r4, #40]
 2779 003c FFF7FEFF 		bl	lv_obj_add_event_cb
 2780              	.LVL320:
 733:generated/events_init.c **** 	lv_obj_add_event_cb(ui->wave_model_btn_6, wave_model_btn_6_event_handler, LV_EVENT_ALL, NULL);
ARM GAS  C:\usertemp\ccMiPmMS.s 			page 73


 2781              		.loc 1 733 2 view .LVU611
 2782 0040 0023     		movs	r3, #0
 2783 0042 1A46     		mov	r2, r3
 2784 0044 2649     		ldr	r1, .L134+20
 2785 0046 206B     		ldr	r0, [r4, #48]
 2786 0048 FFF7FEFF 		bl	lv_obj_add_event_cb
 2787              	.LVL321:
 734:generated/events_init.c **** 	lv_obj_add_event_cb(ui->wave_model_btn_7, wave_model_btn_7_event_handler, LV_EVENT_ALL, NULL);
 2788              		.loc 1 734 2 view .LVU612
 2789 004c 0023     		movs	r3, #0
 2790 004e 1A46     		mov	r2, r3
 2791 0050 2449     		ldr	r1, .L134+24
 2792 0052 A06B     		ldr	r0, [r4, #56]
 2793 0054 FFF7FEFF 		bl	lv_obj_add_event_cb
 2794              	.LVL322:
 735:generated/events_init.c **** 	lv_obj_add_event_cb(ui->wave_model_btn_8, wave_model_btn_8_event_handler, LV_EVENT_ALL, NULL);
 2795              		.loc 1 735 2 view .LVU613
 2796 0058 0023     		movs	r3, #0
 2797 005a 1A46     		mov	r2, r3
 2798 005c 2249     		ldr	r1, .L134+28
 2799 005e D4F89000 		ldr	r0, [r4, #144]
 2800 0062 FFF7FEFF 		bl	lv_obj_add_event_cb
 2801              	.LVL323:
 736:generated/events_init.c **** 	lv_obj_add_event_cb(ui->wave_model_btn_9, wave_model_btn_9_event_handler, LV_EVENT_ALL, NULL);
 2802              		.loc 1 736 2 view .LVU614
 2803 0066 0023     		movs	r3, #0
 2804 0068 1A46     		mov	r2, r3
 2805 006a 2049     		ldr	r1, .L134+32
 2806 006c D4F89800 		ldr	r0, [r4, #152]
 2807 0070 FFF7FEFF 		bl	lv_obj_add_event_cb
 2808              	.LVL324:
 737:generated/events_init.c **** 	lv_obj_add_event_cb(ui->wave_model_btn_10, wave_model_btn_10_event_handler, LV_EVENT_ALL, NULL);
 2809              		.loc 1 737 2 view .LVU615
 2810 0074 0023     		movs	r3, #0
 2811 0076 1A46     		mov	r2, r3
 2812 0078 1D49     		ldr	r1, .L134+36
 2813 007a D4F8B000 		ldr	r0, [r4, #176]
 2814 007e FFF7FEFF 		bl	lv_obj_add_event_cb
 2815              	.LVL325:
 738:generated/events_init.c **** 	lv_obj_add_event_cb(ui->wave_model_btn_11, wave_model_btn_11_event_handler, LV_EVENT_ALL, NULL);
 2816              		.loc 1 738 2 view .LVU616
 2817 0082 0023     		movs	r3, #0
 2818 0084 1A46     		mov	r2, r3
 2819 0086 1B49     		ldr	r1, .L134+40
 2820 0088 D4F8B800 		ldr	r0, [r4, #184]
 2821 008c FFF7FEFF 		bl	lv_obj_add_event_cb
 2822              	.LVL326:
 739:generated/events_init.c **** 	lv_obj_add_event_cb(ui->wave_model_btn_12, wave_model_btn_12_event_handler, LV_EVENT_ALL, NULL);
 2823              		.loc 1 739 2 view .LVU617
 2824 0090 0023     		movs	r3, #0
 2825 0092 1A46     		mov	r2, r3
 2826 0094 1849     		ldr	r1, .L134+44
 2827 0096 D4F8C000 		ldr	r0, [r4, #192]
 2828 009a FFF7FEFF 		bl	lv_obj_add_event_cb
 2829              	.LVL327:
 740:generated/events_init.c **** 	lv_obj_add_event_cb(ui->wave_model_btn_13, wave_model_btn_13_event_handler, LV_EVENT_ALL, NULL);
 2830              		.loc 1 740 2 view .LVU618
ARM GAS  C:\usertemp\ccMiPmMS.s 			page 74


 2831 009e 0023     		movs	r3, #0
 2832 00a0 1A46     		mov	r2, r3
 2833 00a2 1649     		ldr	r1, .L134+48
 2834 00a4 D4F8C800 		ldr	r0, [r4, #200]
 2835 00a8 FFF7FEFF 		bl	lv_obj_add_event_cb
 2836              	.LVL328:
 741:generated/events_init.c **** 	lv_obj_add_event_cb(ui->wave_model_btn_14, wave_model_btn_14_event_handler, LV_EVENT_ALL, NULL);
 2837              		.loc 1 741 2 view .LVU619
 2838 00ac 0023     		movs	r3, #0
 2839 00ae 1A46     		mov	r2, r3
 2840 00b0 1349     		ldr	r1, .L134+52
 2841 00b2 D4F8D000 		ldr	r0, [r4, #208]
 2842 00b6 FFF7FEFF 		bl	lv_obj_add_event_cb
 2843              	.LVL329:
 742:generated/events_init.c **** }
 2844              		.loc 1 742 2 view .LVU620
 2845 00ba 0023     		movs	r3, #0
 2846 00bc 1A46     		mov	r2, r3
 2847 00be 1149     		ldr	r1, .L134+56
 2848 00c0 D4F8D800 		ldr	r0, [r4, #216]
 2849 00c4 FFF7FEFF 		bl	lv_obj_add_event_cb
 2850              	.LVL330:
 743:generated/events_init.c **** 
 2851              		.loc 1 743 1 is_stmt 0 view .LVU621
 2852 00c8 10BD     		pop	{r4, pc}
 2853              	.LVL331:
 2854              	.L135:
 743:generated/events_init.c **** 
 2855              		.loc 1 743 1 view .LVU622
 2856 00ca 00BF     		.align	2
 2857              	.L134:
 2858 00cc 00000000 		.word	wave_model_event_handler
 2859 00d0 00000000 		.word	wave_model_btn_1_event_handler
 2860 00d4 00000000 		.word	wave_model_btn_2_event_handler
 2861 00d8 00000000 		.word	wave_model_btn_3_event_handler
 2862 00dc 00000000 		.word	wave_model_btn_4_event_handler
 2863 00e0 00000000 		.word	wave_model_btn_5_event_handler
 2864 00e4 00000000 		.word	wave_model_btn_6_event_handler
 2865 00e8 00000000 		.word	wave_model_btn_7_event_handler
 2866 00ec 00000000 		.word	wave_model_btn_8_event_handler
 2867 00f0 00000000 		.word	wave_model_btn_9_event_handler
 2868 00f4 00000000 		.word	wave_model_btn_10_event_handler
 2869 00f8 00000000 		.word	wave_model_btn_11_event_handler
 2870 00fc 00000000 		.word	wave_model_btn_12_event_handler
 2871 0100 00000000 		.word	wave_model_btn_13_event_handler
 2872 0104 00000000 		.word	wave_model_btn_14_event_handler
 2873              		.cfi_endproc
 2874              	.LFE614:
 2876              		.section	.rodata.msg_notice.str1.4,"aMS",%progbits,1
 2877              		.align	2
 2878              	.LC11:
 2879 0000 257300   		.ascii	"%s\000"
 2880              		.section	.text.msg_notice,"ax",%progbits
 2881              		.align	1
 2882              		.global	msg_notice
 2883              		.syntax unified
 2884              		.thumb
ARM GAS  C:\usertemp\ccMiPmMS.s 			page 75


 2885              		.thumb_func
 2887              	msg_notice:
 2888              	.LVL332:
 2889              	.LFB616:
 750:generated/events_init.c **** 
 751:generated/events_init.c **** // msg消息提示
 752:generated/events_init.c **** void msg_notice(lv_obj_t *msg, uint32_t duration_ms, const char *notice)
 753:generated/events_init.c **** {
 2890              		.loc 1 753 1 is_stmt 1 view -0
 2891              		.cfi_startproc
 2892              		@ args = 0, pretend = 0, frame = 0
 2893              		@ frame_needed = 0, uses_anonymous_args = 0
 2894              		.loc 1 753 1 is_stmt 0 view .LVU624
 2895 0000 70B5     		push	{r4, r5, r6, lr}
 2896              	.LCFI23:
 2897              		.cfi_def_cfa_offset 16
 2898              		.cfi_offset 4, -16
 2899              		.cfi_offset 5, -12
 2900              		.cfi_offset 6, -8
 2901              		.cfi_offset 14, -4
 2902 0002 0546     		mov	r5, r0
 2903 0004 0C46     		mov	r4, r1
 754:generated/events_init.c **** 	lv_label_set_text_fmt(guider_ui.wave_model_msg, "%s", notice);
 2904              		.loc 1 754 2 is_stmt 1 view .LVU625
 2905 0006 084E     		ldr	r6, .L138
 2906 0008 0849     		ldr	r1, .L138+4
 2907              	.LVL333:
 2908              		.loc 1 754 2 is_stmt 0 view .LVU626
 2909 000a D6F8E400 		ldr	r0, [r6, #228]
 2910              	.LVL334:
 2911              		.loc 1 754 2 view .LVU627
 2912 000e FFF7FEFF 		bl	lv_label_set_text_fmt
 2913              	.LVL335:
 755:generated/events_init.c **** 	lv_obj_clear_flag(guider_ui.wave_model_msg, LV_OBJ_FLAG_HIDDEN);
 2914              		.loc 1 755 2 is_stmt 1 view .LVU628
 2915 0012 0121     		movs	r1, #1
 2916 0014 D6F8E400 		ldr	r0, [r6, #228]
 2917 0018 FFF7FEFF 		bl	lv_obj_clear_flag
 2918              	.LVL336:
 756:generated/events_init.c **** 	lv_timer_t *timer = lv_timer_create(switch_btn, duration_ms, msg); // 创建定时器
 2919              		.loc 1 756 2 view .LVU629
 2920              		.loc 1 756 22 is_stmt 0 view .LVU630
 2921 001c 2A46     		mov	r2, r5
 2922 001e 2146     		mov	r1, r4
 2923 0020 0348     		ldr	r0, .L138+8
 2924 0022 FFF7FEFF 		bl	lv_timer_create
 2925              	.LVL337:
 757:generated/events_init.c **** 	if (!timer)
 2926              		.loc 1 757 2 is_stmt 1 view .LVU631
 758:generated/events_init.c **** 	{
 759:generated/events_init.c **** 		LV_LOG_ERROR("定时器创建失败！");
 2927              		.loc 1 759 3 view .LVU632
 2928              		.loc 1 759 3 view .LVU633
 2929              		.loc 1 759 3 view .LVU634
 760:generated/events_init.c **** 	}
 761:generated/events_init.c **** }
 2930              		.loc 1 761 1 is_stmt 0 view .LVU635
ARM GAS  C:\usertemp\ccMiPmMS.s 			page 76


 2931 0026 70BD     		pop	{r4, r5, r6, pc}
 2932              	.LVL338:
 2933              	.L139:
 2934              		.loc 1 761 1 view .LVU636
 2935              		.align	2
 2936              	.L138:
 2937 0028 00000000 		.word	guider_ui
 2938 002c 00000000 		.word	.LC11
 2939 0030 00000000 		.word	switch_btn
 2940              		.cfi_endproc
 2941              	.LFE616:
 2943              		.section	.rodata.wave_model_btn_6_event_handler.str1.4,"aMS",%progbits,1
 2944              		.align	2
 2945              	.LC12:
 2946 0000 303A7465 		.ascii	"0:test/p%d%d%d.bin\000"
 2946      73742F70 
 2946      25642564 
 2946      25642E62 
 2946      696E00
 2947 0013 00       		.align	2
 2948              	.LC13:
 2949 0014 73645F63 		.ascii	"sd_count = %d\015\012\000"
 2949      6F756E74 
 2949      203D2025 
 2949      640D0A00 
 2950              		.align	2
 2951              	.LC14:
 2952 0024 53637265 		.ascii	"Screenshot successful\000"
 2952      656E7368 
 2952      6F742073 
 2952      75636365 
 2952      73736675 
 2953 003a 0000     		.align	2
 2954              	.LC15:
 2955 003c 53637265 		.ascii	"Screenshot failed\000"
 2955      656E7368 
 2955      6F742066 
 2955      61696C65 
 2955      6400
 2956              		.section	.text.wave_model_btn_6_event_handler,"ax",%progbits
 2957              		.align	1
 2958              		.syntax unified
 2959              		.thumb
 2960              		.thumb_func
 2962              	wave_model_btn_6_event_handler:
 2963              	.LVL339:
 2964              	.LFB607:
 531:generated/events_init.c **** 	lv_event_code_t code = lv_event_get_code(e);
 2965              		.loc 1 531 1 is_stmt 1 view -0
 2966              		.cfi_startproc
 2967              		@ args = 0, pretend = 0, frame = 64
 2968              		@ frame_needed = 0, uses_anonymous_args = 0
 531:generated/events_init.c **** 	lv_event_code_t code = lv_event_get_code(e);
 2969              		.loc 1 531 1 is_stmt 0 view .LVU638
 2970 0000 10B5     		push	{r4, lr}
 2971              	.LCFI24:
 2972              		.cfi_def_cfa_offset 8
ARM GAS  C:\usertemp\ccMiPmMS.s 			page 77


 2973              		.cfi_offset 4, -8
 2974              		.cfi_offset 14, -4
 2975 0002 92B0     		sub	sp, sp, #72
 2976              	.LCFI25:
 2977              		.cfi_def_cfa_offset 80
 532:generated/events_init.c **** 
 2978              		.loc 1 532 2 is_stmt 1 view .LVU639
 532:generated/events_init.c **** 
 2979              		.loc 1 532 25 is_stmt 0 view .LVU640
 2980 0004 FFF7FEFF 		bl	lv_event_get_code
 2981              	.LVL340:
 534:generated/events_init.c **** 	{
 2982              		.loc 1 534 2 is_stmt 1 view .LVU641
 2983 0008 0528     		cmp	r0, #5
 2984 000a 01D0     		beq	.L147
 2985              	.LVL341:
 2986              	.L140:
 576:generated/events_init.c **** static void wave_model_btn_9_event_handler(lv_event_t *e) // X+
 2987              		.loc 1 576 1 is_stmt 0 view .LVU642
 2988 000c 12B0     		add	sp, sp, #72
 2989              	.LCFI26:
 2990              		.cfi_remember_state
 2991              		.cfi_def_cfa_offset 8
 2992              		@ sp needed
 2993 000e 10BD     		pop	{r4, pc}
 2994              	.LVL342:
 2995              	.L147:
 2996              	.LCFI27:
 2997              		.cfi_restore_state
 2998              	.LBB7:
 538:generated/events_init.c **** 		uint8_t temp = 0;
 2999              		.loc 1 538 3 is_stmt 1 view .LVU643
 538:generated/events_init.c **** 		uint8_t temp = 0;
 3000              		.loc 1 538 8 is_stmt 0 view .LVU644
 3001 0010 3C22     		movs	r2, #60
 3002 0012 0021     		movs	r1, #0
 3003 0014 03A8     		add	r0, sp, #12
 3004              	.LVL343:
 538:generated/events_init.c **** 		uint8_t temp = 0;
 3005              		.loc 1 538 8 view .LVU645
 3006 0016 FFF7FEFF 		bl	memset
 3007              	.LVL344:
 539:generated/events_init.c **** 
 3008              		.loc 1 539 3 is_stmt 1 view .LVU646
 541:generated/events_init.c **** 		taskENTER_CRITICAL();
 3009              		.loc 1 541 3 view .LVU647
 3010 001a FFF7FEFF 		bl	vTaskSuspendAll
 3011              	.LVL345:
 542:generated/events_init.c **** 		if (page == 0)
 3012              		.loc 1 542 3 view .LVU648
 3013 001e FFF7FEFF 		bl	vPortEnterCritical
 3014              	.LVL346:
 543:generated/events_init.c **** 		{
 3015              		.loc 1 543 3 view .LVU649
 543:generated/events_init.c **** 		{
 3016              		.loc 1 543 12 is_stmt 0 view .LVU650
 3017 0022 234B     		ldr	r3, .L149
ARM GAS  C:\usertemp\ccMiPmMS.s 			page 78


 3018 0024 93F90030 		ldrsb	r3, [r3]
 543:generated/events_init.c **** 		{
 3019              		.loc 1 543 6 view .LVU651
 3020 0028 7BB1     		cbz	r3, .L148
 539:generated/events_init.c **** 
 3021              		.loc 1 539 11 view .LVU652
 3022 002a 0024     		movs	r4, #0
 3023              	.LVL347:
 3024              	.L142:
 560:generated/events_init.c **** 		xTaskResumeAll();
 3025              		.loc 1 560 3 is_stmt 1 view .LVU653
 3026 002c FFF7FEFF 		bl	vPortExitCritical
 3027              	.LVL348:
 561:generated/events_init.c **** 		if (temp)
 3028              		.loc 1 561 3 view .LVU654
 3029 0030 FFF7FEFF 		bl	xTaskResumeAll
 3030              	.LVL349:
 562:generated/events_init.c **** 		{
 3031              		.loc 1 562 3 view .LVU655
 562:generated/events_init.c **** 		{
 3032              		.loc 1 562 6 is_stmt 0 view .LVU656
 3033 0034 002C     		cmp	r4, #0
 3034 0036 32D0     		beq	.L143
 564:generated/events_init.c **** 		}
 3035              		.loc 1 564 4 is_stmt 1 view .LVU657
 3036 0038 1E4A     		ldr	r2, .L149+4
 3037 003a 4FF4FA61 		mov	r1, #2000
 3038 003e 1E4B     		ldr	r3, .L149+8
 3039 0040 D3F8E400 		ldr	r0, [r3, #228]
 3040 0044 FFF7FEFF 		bl	msg_notice
 3041              	.LVL350:
 3042 0048 E0E7     		b	.L140
 3043              	.LVL351:
 3044              	.L148:
 545:generated/events_init.c **** 			if (take_snapshot_with_buffer(guider_ui.wave_model_chart_2, filename))
 3045              		.loc 1 545 4 view .LVU658
 3046 004a 1C4B     		ldr	r3, .L149+12
 3047 004c 1B68     		ldr	r3, [r3]
 3048 004e 0093     		str	r3, [sp]
 3049 0050 1B4B     		ldr	r3, .L149+16
 3050 0052 1B68     		ldr	r3, [r3]
 3051 0054 1B4A     		ldr	r2, .L149+20
 3052 0056 1268     		ldr	r2, [r2]
 3053 0058 1B49     		ldr	r1, .L149+24
 3054 005a 03A8     		add	r0, sp, #12
 3055 005c FFF7FEFF 		bl	sprintf
 3056              	.LVL352:
 546:generated/events_init.c **** 			{
 3057              		.loc 1 546 4 view .LVU659
 546:generated/events_init.c **** 			{
 3058              		.loc 1 546 8 is_stmt 0 view .LVU660
 3059 0060 03A9     		add	r1, sp, #12
 3060 0062 154B     		ldr	r3, .L149+8
 3061 0064 D3F88C00 		ldr	r0, [r3, #140]
 3062 0068 FFF7FEFF 		bl	take_snapshot_with_buffer
 3063              	.LVL353:
 546:generated/events_init.c **** 			{
ARM GAS  C:\usertemp\ccMiPmMS.s 			page 79


 3064              		.loc 1 546 7 discriminator 1 view .LVU661
 3065 006c 0446     		mov	r4, r0
 3066 006e 0028     		cmp	r0, #0
 3067 0070 DCD0     		beq	.L142
 548:generated/events_init.c **** 				//msg_notice(guider_ui.wave_model_msg, 2000, "截屏成功");
 3068              		.loc 1 548 5 is_stmt 1 view .LVU662
 548:generated/events_init.c **** 				//msg_notice(guider_ui.wave_model_msg, 2000, "截屏成功");
 3069              		.loc 1 548 13 is_stmt 0 view .LVU663
 3070 0072 164A     		ldr	r2, .L149+28
 3071 0074 1388     		ldrh	r3, [r2]
 3072 0076 0133     		adds	r3, r3, #1
 3073 0078 1BB2     		sxth	r3, r3
 3074 007a 1380     		strh	r3, [r2]	@ movhi
 550:generated/events_init.c **** 				LV_LOG_USER("sd_count = %d\r\n", sd_count);
 3075              		.loc 1 550 5 is_stmt 1 view .LVU664
 3076              	.LVL354:
 551:generated/events_init.c **** 				refersh_lvgl_image(guider_ui.wave_model_img_1);
 3077              		.loc 1 551 5 view .LVU665
 3078 007c 0193     		str	r3, [sp, #4]
 3079 007e 144B     		ldr	r3, .L149+32
 3080 0080 0093     		str	r3, [sp]
 3081 0082 144B     		ldr	r3, .L149+36
 3082 0084 40F22722 		movw	r2, #551
 3083 0088 1349     		ldr	r1, .L149+40
 3084 008a 0420     		movs	r0, #4
 3085 008c FFF7FEFF 		bl	_lv_log_add
 3086              	.LVL355:
 552:generated/events_init.c **** 			}
 3087              		.loc 1 552 5 view .LVU666
 3088 0090 094B     		ldr	r3, .L149+8
 3089 0092 D3F8AC00 		ldr	r0, [r3, #172]
 3090 0096 FFF7FEFF 		bl	refersh_lvgl_image
 3091              	.LVL356:
 550:generated/events_init.c **** 				LV_LOG_USER("sd_count = %d\r\n", sd_count);
 3092              		.loc 1 550 10 is_stmt 0 view .LVU667
 3093 009a 0124     		movs	r4, #1
 3094 009c C6E7     		b	.L142
 3095              	.LVL357:
 3096              	.L143:
 568:generated/events_init.c **** 		}
 3097              		.loc 1 568 4 is_stmt 1 view .LVU668
 3098 009e 0F4A     		ldr	r2, .L149+44
 3099 00a0 4FF4FA61 		mov	r1, #2000
 3100 00a4 044B     		ldr	r3, .L149+8
 3101 00a6 D3F8E400 		ldr	r0, [r3, #228]
 3102 00aa FFF7FEFF 		bl	msg_notice
 3103              	.LVL358:
 571:generated/events_init.c **** 	}
 3104              		.loc 1 571 3 view .LVU669
 3105              	.LBE7:
 576:generated/events_init.c **** static void wave_model_btn_9_event_handler(lv_event_t *e) // X+
 3106              		.loc 1 576 1 is_stmt 0 view .LVU670
 3107 00ae ADE7     		b	.L140
 3108              	.L150:
 3109              		.align	2
 3110              	.L149:
 3111 00b0 00000000 		.word	page
ARM GAS  C:\usertemp\ccMiPmMS.s 			page 80


 3112 00b4 24000000 		.word	.LC14
 3113 00b8 00000000 		.word	guider_ui
 3114 00bc 00000000 		.word	wave_model_digital_clock_1_sec_value
 3115 00c0 00000000 		.word	wave_model_digital_clock_1_min_value
 3116 00c4 00000000 		.word	wave_model_digital_clock_1_hour_value
 3117 00c8 00000000 		.word	.LC12
 3118 00cc 00000000 		.word	sd_count
 3119 00d0 14000000 		.word	.LC13
 3120 00d4 00000000 		.word	__func__.1
 3121 00d8 00000000 		.word	.LC2
 3122 00dc 3C000000 		.word	.LC15
 3123              		.cfi_endproc
 3124              	.LFE607:
 3126              		.section	.text.events_init,"ax",%progbits
 3127              		.align	1
 3128              		.global	events_init
 3129              		.syntax unified
 3130              		.thumb
 3131              		.thumb_func
 3133              	events_init:
 3134              	.LVL359:
 3135              	.LFB617:
 762:generated/events_init.c **** 
 763:generated/events_init.c **** void events_init(lv_ui *ui)
 764:generated/events_init.c **** {
 3136              		.loc 1 764 1 is_stmt 1 view -0
 3137              		.cfi_startproc
 3138              		@ args = 0, pretend = 0, frame = 0
 3139              		@ frame_needed = 0, uses_anonymous_args = 0
 3140              		.loc 1 764 1 is_stmt 0 view .LVU672
 3141 0000 00B5     		push	{lr}
 3142              	.LCFI28:
 3143              		.cfi_def_cfa_offset 4
 3144              		.cfi_offset 14, -4
 3145 0002 83B0     		sub	sp, sp, #12
 3146              	.LCFI29:
 3147              		.cfi_def_cfa_offset 16
 765:generated/events_init.c **** 	sd_count = GetFileCount("0:test");
 3148              		.loc 1 765 2 is_stmt 1 view .LVU673
 3149              		.loc 1 765 13 is_stmt 0 view .LVU674
 3150 0004 0A48     		ldr	r0, .L153
 3151              	.LVL360:
 3152              		.loc 1 765 13 view .LVU675
 3153 0006 FFF7FEFF 		bl	GetFileCount
 3154              	.LVL361:
 3155              		.loc 1 765 13 discriminator 1 view .LVU676
 3156 000a 03B2     		sxth	r3, r0
 3157              		.loc 1 765 11 discriminator 1 view .LVU677
 3158 000c 094A     		ldr	r2, .L153+4
 3159 000e 1380     		strh	r3, [r2]	@ movhi
 766:generated/events_init.c **** 	file_now = sd_count;
 3160              		.loc 1 766 2 is_stmt 1 view .LVU678
 3161              		.loc 1 766 11 is_stmt 0 view .LVU679
 3162 0010 094A     		ldr	r2, .L153+8
 3163 0012 1380     		strh	r3, [r2]	@ movhi
 767:generated/events_init.c **** 	LV_LOG_USER("sd_count = %d\r\n", sd_count);
 3164              		.loc 1 767 2 is_stmt 1 view .LVU680
ARM GAS  C:\usertemp\ccMiPmMS.s 			page 81


 3165 0014 0190     		str	r0, [sp, #4]
 3166 0016 094B     		ldr	r3, .L153+12
 3167 0018 0093     		str	r3, [sp]
 3168 001a 094B     		ldr	r3, .L153+16
 3169 001c 40F2FF22 		movw	r2, #767
 3170 0020 0849     		ldr	r1, .L153+20
 3171 0022 0420     		movs	r0, #4
 3172 0024 FFF7FEFF 		bl	_lv_log_add
 3173              	.LVL362:
 768:generated/events_init.c **** }
 3174              		.loc 1 768 1 is_stmt 0 view .LVU681
 3175 0028 03B0     		add	sp, sp, #12
 3176              	.LCFI30:
 3177              		.cfi_def_cfa_offset 4
 3178              		@ sp needed
 3179 002a 5DF804FB 		ldr	pc, [sp], #4
 3180              	.L154:
 3181 002e 00BF     		.align	2
 3182              	.L153:
 3183 0030 4C000000 		.word	.LC5
 3184 0034 00000000 		.word	sd_count
 3185 0038 00000000 		.word	file_now
 3186 003c 14000000 		.word	.LC13
 3187 0040 00000000 		.word	__func__.0
 3188 0044 00000000 		.word	.LC2
 3189              		.cfi_endproc
 3190              	.LFE617:
 3192              		.section	.rodata.__func__.0,"a"
 3193              		.align	2
 3196              	__func__.0:
 3197 0000 6576656E 		.ascii	"events_init\000"
 3197      74735F69 
 3197      6E697400 
 3198              		.section	.rodata.__func__.1,"a"
 3199              		.align	2
 3202              	__func__.1:
 3203 0000 77617665 		.ascii	"wave_model_btn_6_event_handler\000"
 3203      5F6D6F64 
 3203      656C5F62 
 3203      746E5F36 
 3203      5F657665 
 3204              		.section	.rodata.__func__.2,"a"
 3205              		.align	2
 3208              	__func__.2:
 3209 0000 77617665 		.ascii	"wave_model_btn_9_event_handler\000"
 3209      5F6D6F64 
 3209      656C5F62 
 3209      746E5F39 
 3209      5F657665 
 3210              		.section	.rodata.__func__.3,"a"
 3211              		.align	2
 3214              	__func__.3:
 3215 0000 77617665 		.ascii	"wave_model_btn_14_event_handler\000"
 3215      5F6D6F64 
 3215      656C5F62 
 3215      746E5F31 
 3215      345F6576 
ARM GAS  C:\usertemp\ccMiPmMS.s 			page 82


 3216              		.global	V_I_flag
 3217              		.section	.bss.V_I_flag,"aw",%nobits
 3220              	V_I_flag:
 3221 0000 00       		.space	1
 3222              		.global	level
 3223              		.section	.bss.level,"aw",%nobits
 3224              		.align	2
 3227              	level:
 3228 0000 00000000 		.space	4
 3229              		.global	step
 3230              		.section	.data.step,"aw"
 3231              		.align	2
 3234              	step:
 3235 0000 00000040 		.word	1073741824
 3236              		.global	rat
 3237              		.section	.data.rat,"aw"
 3238              		.align	2
 3241              	rat:
 3242 0000 00004842 		.word	1112014848
 3243              		.global	LN_I_flag
 3244              		.section	.bss.LN_I_flag,"aw",%nobits
 3247              	LN_I_flag:
 3248 0000 00       		.space	1
 3249              		.global	L3_I_flag
 3250              		.section	.bss.L3_I_flag,"aw",%nobits
 3253              	L3_I_flag:
 3254 0000 00       		.space	1
 3255              		.global	L2_I_flag
 3256              		.section	.bss.L2_I_flag,"aw",%nobits
 3259              	L2_I_flag:
 3260 0000 00       		.space	1
 3261              		.global	L1_I_flag
 3262              		.section	.bss.L1_I_flag,"aw",%nobits
 3265              	L1_I_flag:
 3266 0000 00       		.space	1
 3267              		.global	LN_flag
 3268              		.section	.bss.LN_flag,"aw",%nobits
 3271              	LN_flag:
 3272 0000 00       		.space	1
 3273              		.global	L3_flag
 3274              		.section	.bss.L3_flag,"aw",%nobits
 3277              	L3_flag:
 3278 0000 00       		.space	1
 3279              		.global	L2_flag
 3280              		.section	.bss.L2_flag,"aw",%nobits
 3283              	L2_flag:
 3284 0000 00       		.space	1
 3285              		.global	L1_flag
 3286              		.section	.bss.L1_flag,"aw",%nobits
 3289              	L1_flag:
 3290 0000 00       		.space	1
 3291              		.section	.bss.page,"aw",%nobits
 3294              	page:
 3295 0000 00       		.space	1
 3296              		.global	file_now
 3297              		.section	.bss.file_now,"aw",%nobits
 3298              		.align	1
ARM GAS  C:\usertemp\ccMiPmMS.s 			page 83


 3301              	file_now:
 3302 0000 0000     		.space	2
 3303              		.global	sd_count
 3304              		.section	.bss.sd_count,"aw",%nobits
 3305              		.align	1
 3308              	sd_count:
 3309 0000 0000     		.space	2
 3310              		.text
 3311              	.Letext0:
 3312              		.file 2 "D:/armtoolchain/arm-gnu-toolchain-13.3.rel1-mingw-w64-i686-arm-none-eabi/arm-none-eabi/in
 3313              		.file 3 "D:/armtoolchain/arm-gnu-toolchain-13.3.rel1-mingw-w64-i686-arm-none-eabi/arm-none-eabi/in
 3314              		.file 4 "lvgl/src/misc/lv_types.h"
 3315              		.file 5 "lvgl/src/misc/lv_log.h"
 3316              		.file 6 "lvgl/src/misc/lv_timer.h"
 3317              		.file 7 "D:/armtoolchain/arm-gnu-toolchain-13.3.rel1-mingw-w64-i686-arm-none-eabi/lib/gcc/arm-none
 3318              		.file 8 "lvgl/src/hal/../draw/../misc/../font/../misc/lv_area.h"
 3319              		.file 9 "lvgl/src/hal/../draw/../misc/../font/lv_font.h"
 3320              		.file 10 "lvgl/src/hal/../draw/../misc/lv_color.h"
 3321              		.file 11 "lvgl/src/hal/../draw/../misc/lv_txt.h"
 3322              		.file 12 "lvgl/src/hal/../draw/../misc/lv_bidi.h"
 3323              		.file 13 "lvgl/src/hal/../draw/../misc/lv_style.h"
 3324              		.file 14 "lvgl/src/hal/../draw/lv_img_buf.h"
 3325              		.file 15 "lvgl/src/core/lv_obj.h"
 3326              		.file 16 "lvgl/src/hal/../draw/lv_draw_rect.h"
 3327              		.file 17 "lvgl/src/hal/../draw/lv_draw_label.h"
 3328              		.file 18 "lvgl/src/hal/../draw/lv_draw_img.h"
 3329              		.file 19 "lvgl/src/hal/../draw/lv_draw_line.h"
 3330              		.file 20 "lvgl/src/hal/../draw/lv_draw_arc.h"
 3331              		.file 21 "lvgl/src/hal/../draw/lv_draw.h"
 3332              		.file 22 "lvgl/src/hal/../misc/lv_ll.h"
 3333              		.file 23 "lvgl/src/hal/lv_hal_disp.h"
 3334              		.file 24 "lvgl/src/core/lv_theme.h"
 3335              		.file 25 "lvgl/src/hal/lv_hal_indev.h"
 3336              		.file 26 "lvgl/src/core/lv_group.h"
 3337              		.file 27 "lvgl/src/core/lv_obj_scroll.h"
 3338              		.file 28 "lvgl/src/core/lv_obj_style.h"
 3339              		.file 29 "lvgl/src/core/lv_obj_class.h"
 3340              		.file 30 "lvgl/src/core/lv_event.h"
 3341              		.file 31 "lvgl/src/widgets/lv_bar.h"
 3342              		.file 32 "lvgl/src/extra/widgets/chart/lv_chart.h"
 3343              		.file 33 "lvgl/src/extra/widgets/imgbtn/lv_imgbtn.h"
 3344              		.file 34 "generated/gui_guider.h"
 3345              		.file 35 "Drivers/CMSIS/DSP/Include/arm_math.h"
 3346              		.file 36 "Middlewares/Third_Party/FreeRTOS/Source/portable/GCC/ARM_CM4F/portmacro.h"
 3347              		.file 37 "User/screenshot/screenshot.h"
 3348              		.file 38 "lvgl/src/widgets/lv_label.h"
 3349              		.file 39 "lvgl/src/core/lv_indev.h"
 3350              		.file 40 "D:/armtoolchain/arm-gnu-toolchain-13.3.rel1-mingw-w64-i686-arm-none-eabi/arm-none-eabi/i
 3351              		.file 41 "Middlewares/Third_Party/FreeRTOS/Source/include/task.h"
 3352              		.file 42 "lvgl/src/hal/../draw/sw/../../core/lv_obj_pos.h"
 3353              		.file 43 "<built-in>"
ARM GAS  C:\usertemp\ccMiPmMS.s 			page 84


DEFINED SYMBOLS
                            *ABS*:00000000 events_init.c
C:\usertemp\ccMiPmMS.s:20     .text.wave_model_btn_13_event_handler:00000000 $t
C:\usertemp\ccMiPmMS.s:25     .text.wave_model_btn_13_event_handler:00000000 wave_model_btn_13_event_handler
C:\usertemp\ccMiPmMS.s:62     .text.wave_model_btn_13_event_handler:00000020 $d
C:\usertemp\ccMiPmMS.s:3241   .data.rat:00000000 rat
C:\usertemp\ccMiPmMS.s:67     .text.wave_model_btn_12_event_handler:00000000 $t
C:\usertemp\ccMiPmMS.s:72     .text.wave_model_btn_12_event_handler:00000000 wave_model_btn_12_event_handler
C:\usertemp\ccMiPmMS.s:109    .text.wave_model_btn_12_event_handler:00000020 $d
C:\usertemp\ccMiPmMS.s:3227   .bss.level:00000000 level
C:\usertemp\ccMiPmMS.s:114    .text.wave_model_btn_11_event_handler:00000000 $t
C:\usertemp\ccMiPmMS.s:119    .text.wave_model_btn_11_event_handler:00000000 wave_model_btn_11_event_handler
C:\usertemp\ccMiPmMS.s:156    .text.wave_model_btn_11_event_handler:00000020 $d
C:\usertemp\ccMiPmMS.s:161    .text.wave_model_btn_10_event_handler:00000000 $t
C:\usertemp\ccMiPmMS.s:166    .text.wave_model_btn_10_event_handler:00000000 wave_model_btn_10_event_handler
C:\usertemp\ccMiPmMS.s:203    .text.wave_model_btn_10_event_handler:00000020 $d
C:\usertemp\ccMiPmMS.s:3234   .data.step:00000000 step
C:\usertemp\ccMiPmMS.s:208    .text.wave_model_btn_5_event_handler:00000000 $t
C:\usertemp\ccMiPmMS.s:213    .text.wave_model_btn_5_event_handler:00000000 wave_model_btn_5_event_handler
C:\usertemp\ccMiPmMS.s:287    .text.wave_model_btn_5_event_handler:0000004c $d
C:\usertemp\ccMiPmMS.s:3220   .bss.V_I_flag:00000000 V_I_flag
C:\usertemp\ccMiPmMS.s:3271   .bss.LN_flag:00000000 LN_flag
C:\usertemp\ccMiPmMS.s:3247   .bss.LN_I_flag:00000000 LN_I_flag
C:\usertemp\ccMiPmMS.s:296    .text.wave_model_btn_4_event_handler:00000000 $t
C:\usertemp\ccMiPmMS.s:301    .text.wave_model_btn_4_event_handler:00000000 wave_model_btn_4_event_handler
C:\usertemp\ccMiPmMS.s:375    .text.wave_model_btn_4_event_handler:0000004c $d
C:\usertemp\ccMiPmMS.s:3277   .bss.L3_flag:00000000 L3_flag
C:\usertemp\ccMiPmMS.s:3253   .bss.L3_I_flag:00000000 L3_I_flag
C:\usertemp\ccMiPmMS.s:384    .text.wave_model_btn_3_event_handler:00000000 $t
C:\usertemp\ccMiPmMS.s:389    .text.wave_model_btn_3_event_handler:00000000 wave_model_btn_3_event_handler
C:\usertemp\ccMiPmMS.s:463    .text.wave_model_btn_3_event_handler:0000004c $d
C:\usertemp\ccMiPmMS.s:3283   .bss.L2_flag:00000000 L2_flag
C:\usertemp\ccMiPmMS.s:3259   .bss.L2_I_flag:00000000 L2_I_flag
C:\usertemp\ccMiPmMS.s:472    .rodata.wave_model_btn_2_event_handler.str1.4:00000000 $d
C:\usertemp\ccMiPmMS.s:479    .text.wave_model_btn_2_event_handler:00000000 $t
C:\usertemp\ccMiPmMS.s:484    .text.wave_model_btn_2_event_handler:00000000 wave_model_btn_2_event_handler
C:\usertemp\ccMiPmMS.s:742    .text.wave_model_btn_2_event_handler:0000013c $d
C:\usertemp\ccMiPmMS.s:3289   .bss.L1_flag:00000000 L1_flag
C:\usertemp\ccMiPmMS.s:3265   .bss.L1_I_flag:00000000 L1_I_flag
C:\usertemp\ccMiPmMS.s:766    .text.wave_model_btn_1_event_handler:00000000 $t
C:\usertemp\ccMiPmMS.s:771    .text.wave_model_btn_1_event_handler:00000000 wave_model_btn_1_event_handler
C:\usertemp\ccMiPmMS.s:845    .text.wave_model_btn_1_event_handler:0000004c $d
C:\usertemp\ccMiPmMS.s:854    .rodata.wave_model_btn_14_event_handler.str1.4:00000000 $d
C:\usertemp\ccMiPmMS.s:867    .text.wave_model_btn_14_event_handler:00000000 $t
C:\usertemp\ccMiPmMS.s:872    .text.wave_model_btn_14_event_handler:00000000 wave_model_btn_14_event_handler
C:\usertemp\ccMiPmMS.s:1012   .text.wave_model_btn_14_event_handler:000000a0 $d
C:\usertemp\ccMiPmMS.s:3294   .bss.page:00000000 page
C:\usertemp\ccMiPmMS.s:3301   .bss.file_now:00000000 file_now
C:\usertemp\ccMiPmMS.s:3308   .bss.sd_count:00000000 sd_count
C:\usertemp\ccMiPmMS.s:3214   .rodata.__func__.3:00000000 __func__.3
C:\usertemp\ccMiPmMS.s:1027   .rodata.wave_model_btn_9_event_handler.str1.4:00000000 $d
C:\usertemp\ccMiPmMS.s:1031   .text.wave_model_btn_9_event_handler:00000000 $t
C:\usertemp\ccMiPmMS.s:1036   .text.wave_model_btn_9_event_handler:00000000 wave_model_btn_9_event_handler
C:\usertemp\ccMiPmMS.s:1187   .text.wave_model_btn_9_event_handler:000000b0 $d
C:\usertemp\ccMiPmMS.s:3208   .rodata.__func__.2:00000000 __func__.2
C:\usertemp\ccMiPmMS.s:1202   .text.wave_model_event_handler:00000000 $t
C:\usertemp\ccMiPmMS.s:1207   .text.wave_model_event_handler:00000000 wave_model_event_handler
ARM GAS  C:\usertemp\ccMiPmMS.s 			page 85


C:\usertemp\ccMiPmMS.s:1258   .text.switch_btn:00000000 $t
C:\usertemp\ccMiPmMS.s:1264   .text.switch_btn:00000000 switch_btn
C:\usertemp\ccMiPmMS.s:1297   .text.switch_btn:00000018 $d
C:\usertemp\ccMiPmMS.s:1302   .rodata.page_switch.str1.4:00000000 $d
C:\usertemp\ccMiPmMS.s:1315   .text.page_switch:00000000 $t
C:\usertemp\ccMiPmMS.s:1321   .text.page_switch:00000000 page_switch
C:\usertemp\ccMiPmMS.s:1804   .text.page_switch:00000334 $d
C:\usertemp\ccMiPmMS.s:1812   .text.page_switch:0000034c $t
C:\usertemp\ccMiPmMS.s:2076   .text.page_switch:00000514 $d
C:\usertemp\ccMiPmMS.s:2081   .text.page_switch:00000520 $t
C:\usertemp\ccMiPmMS.s:2337   .text.page_switch:000006e4 $d
C:\usertemp\ccMiPmMS.s:2340   .text.page_switch:000006e8 $t
C:\usertemp\ccMiPmMS.s:2592   .text.page_switch:000008a4 $d
C:\usertemp\ccMiPmMS.s:2597   .text.wave_model_btn_8_event_handler:00000000 $t
C:\usertemp\ccMiPmMS.s:2602   .text.wave_model_btn_8_event_handler:00000000 wave_model_btn_8_event_handler
C:\usertemp\ccMiPmMS.s:2657   .text.wave_model_btn_8_event_handler:00000028 $d
C:\usertemp\ccMiPmMS.s:2662   .text.wave_model_btn_7_event_handler:00000000 $t
C:\usertemp\ccMiPmMS.s:2667   .text.wave_model_btn_7_event_handler:00000000 wave_model_btn_7_event_handler
C:\usertemp\ccMiPmMS.s:2719   .text.wave_model_btn_7_event_handler:00000028 $d
C:\usertemp\ccMiPmMS.s:2724   .text.events_init_wave_model:00000000 $t
C:\usertemp\ccMiPmMS.s:2730   .text.events_init_wave_model:00000000 events_init_wave_model
C:\usertemp\ccMiPmMS.s:2858   .text.events_init_wave_model:000000cc $d
C:\usertemp\ccMiPmMS.s:2962   .text.wave_model_btn_6_event_handler:00000000 wave_model_btn_6_event_handler
C:\usertemp\ccMiPmMS.s:2877   .rodata.msg_notice.str1.4:00000000 $d
C:\usertemp\ccMiPmMS.s:2881   .text.msg_notice:00000000 $t
C:\usertemp\ccMiPmMS.s:2887   .text.msg_notice:00000000 msg_notice
C:\usertemp\ccMiPmMS.s:2937   .text.msg_notice:00000028 $d
C:\usertemp\ccMiPmMS.s:2944   .rodata.wave_model_btn_6_event_handler.str1.4:00000000 $d
C:\usertemp\ccMiPmMS.s:2957   .text.wave_model_btn_6_event_handler:00000000 $t
C:\usertemp\ccMiPmMS.s:3111   .text.wave_model_btn_6_event_handler:000000b0 $d
C:\usertemp\ccMiPmMS.s:3202   .rodata.__func__.1:00000000 __func__.1
C:\usertemp\ccMiPmMS.s:3127   .text.events_init:00000000 $t
C:\usertemp\ccMiPmMS.s:3133   .text.events_init:00000000 events_init
C:\usertemp\ccMiPmMS.s:3183   .text.events_init:00000030 $d
C:\usertemp\ccMiPmMS.s:3196   .rodata.__func__.0:00000000 __func__.0
C:\usertemp\ccMiPmMS.s:3193   .rodata.__func__.0:00000000 $d
C:\usertemp\ccMiPmMS.s:3199   .rodata.__func__.1:00000000 $d
C:\usertemp\ccMiPmMS.s:3205   .rodata.__func__.2:00000000 $d
C:\usertemp\ccMiPmMS.s:3211   .rodata.__func__.3:00000000 $d
C:\usertemp\ccMiPmMS.s:3221   .bss.V_I_flag:00000000 $d
C:\usertemp\ccMiPmMS.s:3224   .bss.level:00000000 $d
C:\usertemp\ccMiPmMS.s:3231   .data.step:00000000 $d
C:\usertemp\ccMiPmMS.s:3238   .data.rat:00000000 $d
C:\usertemp\ccMiPmMS.s:3248   .bss.LN_I_flag:00000000 $d
C:\usertemp\ccMiPmMS.s:3254   .bss.L3_I_flag:00000000 $d
C:\usertemp\ccMiPmMS.s:3260   .bss.L2_I_flag:00000000 $d
C:\usertemp\ccMiPmMS.s:3266   .bss.L1_I_flag:00000000 $d
C:\usertemp\ccMiPmMS.s:3272   .bss.LN_flag:00000000 $d
C:\usertemp\ccMiPmMS.s:3278   .bss.L3_flag:00000000 $d
C:\usertemp\ccMiPmMS.s:3284   .bss.L2_flag:00000000 $d
C:\usertemp\ccMiPmMS.s:3290   .bss.L1_flag:00000000 $d
C:\usertemp\ccMiPmMS.s:3295   .bss.page:00000000 $d
C:\usertemp\ccMiPmMS.s:3298   .bss.file_now:00000000 $d
C:\usertemp\ccMiPmMS.s:3305   .bss.sd_count:00000000 $d

UNDEFINED SYMBOLS
lv_event_get_code
ARM GAS  C:\usertemp\ccMiPmMS.s 			page 86


serN
serN_I
ser3
ser3_I
ser2
ser2_I
lv_label_set_text
guider_ui
ser1
ser1_I
vTaskSuspendAll
vPortEnterCritical
_lv_log_add
OpenFileByIndex
vPortExitCritical
xTaskResumeAll
refersh_lvgl_image
lv_indev_get_act
lv_indev_get_gesture_dir
lv_indev_wait_release
lv_obj_add_flag
lv_timer_del
lv_obj_clear_flag
lv_obj_set_width
lv_obj_set_height
lv_obj_set_pos
lv_obj_add_event_cb
lv_label_set_text_fmt
lv_timer_create
memset
sprintf
take_snapshot_with_buffer
wave_model_digital_clock_1_sec_value
wave_model_digital_clock_1_min_value
wave_model_digital_clock_1_hour_value
GetFileCount
