ARM GAS  C:\usertemp\ccV6J5ed.s 			page 1


   1              		.cpu cortex-m7
   2              		.arch armv7e-m
   3              		.fpu fpv5-d16
   4              		.eabi_attribute 28, 1
   5              		.eabi_attribute 20, 1
   6              		.eabi_attribute 21, 1
   7              		.eabi_attribute 23, 3
   8              		.eabi_attribute 24, 1
   9              		.eabi_attribute 25, 1
  10              		.eabi_attribute 26, 1
  11              		.eabi_attribute 30, 1
  12              		.eabi_attribute 34, 1
  13              		.eabi_attribute 18, 4
  14              		.file	"events_init.c"
  15              		.text
  16              	.Ltext0:
  17              		.cfi_sections	.debug_frame
  18              		.file 1 "generated/events_init.c"
  19              		.section	.text.wave_model_btn_13_event_handler,"ax",%progbits
  20              		.align	1
  21              		.syntax unified
  22              		.thumb
  23              		.thumb_func
  25              	wave_model_btn_13_event_handler:
  26              	.LVL0:
  27              	.LFB589:
   1:generated/events_init.c **** /*
   2:generated/events_init.c ****  * Copyright 2025 NXP
   3:generated/events_init.c ****  * NXP Confidential and Proprietary. This software is owned or controlled by NXP and may only be us
   4:generated/events_init.c ****  * accordance with the applicable license terms. By expressly accepting such terms or by downloadin
   5:generated/events_init.c ****  * activating and/or otherwise using the software, you are agreeing that you have read, and that yo
   6:generated/events_init.c ****  * comply with and are bound by, such license terms.  If you do not agree to be bound by the applic
   7:generated/events_init.c ****  * terms, then you may not retain, install, activate or otherwise use the software.
   8:generated/events_init.c ****  */
   9:generated/events_init.c **** 
  10:generated/events_init.c **** #include "events_init.h"
  11:generated/events_init.c **** #include <stdio.h>
  12:generated/events_init.c **** #include "lvgl.h"
  13:generated/events_init.c **** #include "arm_math.h"
  14:generated/events_init.c **** #include "task.h"
  15:generated/events_init.c **** #include "screenshot.h"
  16:generated/events_init.c **** int16_t sd_count;
  17:generated/events_init.c **** int16_t file_now = 0;
  18:generated/events_init.c **** 
  19:generated/events_init.c **** static int8_t page = 0;
  20:generated/events_init.c **** extern lv_chart_series_t *ser1;
  21:generated/events_init.c **** extern lv_chart_series_t *ser2;
  22:generated/events_init.c **** extern lv_chart_series_t *ser3;
  23:generated/events_init.c **** extern lv_chart_series_t *serN;
  24:generated/events_init.c **** 
  25:generated/events_init.c **** extern lv_chart_series_t *ser1_I;
  26:generated/events_init.c **** extern lv_chart_series_t *ser2_I;
  27:generated/events_init.c **** extern lv_chart_series_t *ser3_I;
  28:generated/events_init.c **** extern lv_chart_series_t *serN_I;
  29:generated/events_init.c **** extern int wave_model_digital_clock_1_min_value;
  30:generated/events_init.c **** extern int wave_model_digital_clock_1_hour_value;
  31:generated/events_init.c **** extern int wave_model_digital_clock_1_sec_value;
ARM GAS  C:\usertemp\ccV6J5ed.s 			page 2


  32:generated/events_init.c **** uint8_t L1_flag = 0;
  33:generated/events_init.c **** uint8_t L2_flag = 0;
  34:generated/events_init.c **** uint8_t L3_flag = 0;
  35:generated/events_init.c **** uint8_t LN_flag = 0;
  36:generated/events_init.c **** uint8_t L1_I_flag = 0;
  37:generated/events_init.c **** uint8_t L2_I_flag = 0;
  38:generated/events_init.c **** uint8_t L3_I_flag = 0;
  39:generated/events_init.c **** uint8_t LN_I_flag = 0;
  40:generated/events_init.c **** float32_t rat = 50;
  41:generated/events_init.c **** float32_t step = 2;
  42:generated/events_init.c **** float32_t level = 0;
  43:generated/events_init.c **** uint8_t V_I_flag;
  44:generated/events_init.c **** 
  45:generated/events_init.c **** void page_switch()
  46:generated/events_init.c **** {
  47:generated/events_init.c **** 	if (page == 0) // 波形模式
  48:generated/events_init.c **** 	{
  49:generated/events_init.c **** 		lv_obj_add_flag(guider_ui.wave_model_table_2, LV_OBJ_FLAG_HIDDEN);
  50:generated/events_init.c **** 		lv_obj_add_flag(guider_ui.wave_model_table_1, LV_OBJ_FLAG_HIDDEN);
  51:generated/events_init.c **** 		lv_obj_clear_flag(guider_ui.wave_model_chart_2, LV_OBJ_FLAG_HIDDEN);
  52:generated/events_init.c **** 		lv_obj_add_flag(guider_ui.wave_model_img_1, LV_OBJ_FLAG_HIDDEN);
  53:generated/events_init.c **** 		lv_obj_clear_flag(guider_ui.wave_model_label_25, LV_OBJ_FLAG_HIDDEN);
  54:generated/events_init.c **** 		lv_obj_clear_flag(guider_ui.wave_model_label_24, LV_OBJ_FLAG_HIDDEN);
  55:generated/events_init.c **** 		lv_obj_clear_flag(guider_ui.wave_model_label_23, LV_OBJ_FLAG_HIDDEN);
  56:generated/events_init.c **** 		lv_obj_clear_flag(guider_ui.wave_model_label_22, LV_OBJ_FLAG_HIDDEN);
  57:generated/events_init.c **** 		lv_obj_clear_flag(guider_ui.wave_model_label_21, LV_OBJ_FLAG_HIDDEN);
  58:generated/events_init.c **** 		lv_obj_clear_flag(guider_ui.wave_model_num_1, LV_OBJ_FLAG_HIDDEN);
  59:generated/events_init.c **** 		lv_obj_clear_flag(guider_ui.wave_model_N_val, LV_OBJ_FLAG_HIDDEN);
  60:generated/events_init.c **** 		lv_obj_clear_flag(guider_ui.wave_model_three_value, LV_OBJ_FLAG_HIDDEN);
  61:generated/events_init.c **** 		lv_obj_clear_flag(guider_ui.wave_model_two_value, LV_OBJ_FLAG_HIDDEN);
  62:generated/events_init.c **** 		lv_obj_clear_flag(guider_ui.wave_model_one_value, LV_OBJ_FLAG_HIDDEN);
  63:generated/events_init.c **** 		lv_obj_clear_flag(guider_ui.wave_model_N__, LV_OBJ_FLAG_HIDDEN);
  64:generated/events_init.c **** 		lv_obj_clear_flag(guider_ui.wave_model_three, LV_OBJ_FLAG_HIDDEN);
  65:generated/events_init.c **** 		lv_obj_clear_flag(guider_ui.wave_model_two, LV_OBJ_FLAG_HIDDEN);
  66:generated/events_init.c **** 		lv_obj_clear_flag(guider_ui.wave_model_red, LV_OBJ_FLAG_HIDDEN);
  67:generated/events_init.c **** 		lv_obj_clear_flag(guider_ui.wave_model_blue, LV_OBJ_FLAG_HIDDEN);
  68:generated/events_init.c **** 		lv_obj_clear_flag(guider_ui.wave_model_green, LV_OBJ_FLAG_HIDDEN);
  69:generated/events_init.c **** 		lv_obj_clear_flag(guider_ui.wave_model_yellow, LV_OBJ_FLAG_HIDDEN);
  70:generated/events_init.c **** 		lv_obj_set_width(guider_ui.wave_model_one_value, 120);
  71:generated/events_init.c **** 		lv_obj_set_height(guider_ui.wave_model_one_value, 30);
  72:generated/events_init.c **** 		lv_obj_set_width(guider_ui.wave_model_chart_2, 520);
  73:generated/events_init.c **** 		lv_obj_set_height(guider_ui.wave_model_chart_2, 340);
  74:generated/events_init.c **** 		lv_obj_set_pos(guider_ui.wave_model_chart_2, 47, 70);
  75:generated/events_init.c **** 		lv_obj_set_width(guider_ui.wave_model_three_value, 120);
  76:generated/events_init.c **** 		lv_obj_set_height(guider_ui.wave_model_three_value, 30);
  77:generated/events_init.c **** 		lv_obj_add_flag(guider_ui.wave_model_table_1, LV_OBJ_FLAG_HIDDEN);
  78:generated/events_init.c **** 		lv_obj_set_pos(guider_ui.wave_model_three, 300, 28);
  79:generated/events_init.c **** 		lv_obj_set_pos(guider_ui.wave_model_two, 137, 28);
  80:generated/events_init.c **** 		lv_obj_set_pos(guider_ui.wave_model_red, 330, 25);
  81:generated/events_init.c **** 		lv_obj_set_pos(guider_ui.wave_model_green, 167, 25);
  82:generated/events_init.c **** 		lv_obj_set_pos(guider_ui.wave_model_yellow, 1, 25);
  83:generated/events_init.c **** 		lv_obj_set_pos(guider_ui.wave_model_num_1, -30, 30);
  84:generated/events_init.c **** 		lv_obj_add_flag(guider_ui.wave_model_label_26, LV_OBJ_FLAG_HIDDEN);
  85:generated/events_init.c **** 		lv_obj_add_flag(guider_ui.wave_model_label_27, LV_OBJ_FLAG_HIDDEN);
  86:generated/events_init.c **** 		lv_label_set_text(guider_ui.wave_model_btn_14_label, "Y-");
  87:generated/events_init.c **** 		lv_label_set_text(guider_ui.wave_model_btn_9_label, "Y+");
  88:generated/events_init.c **** 		lv_obj_clear_flag(guider_ui.wave_model_btn_10, LV_OBJ_FLAG_HIDDEN);
ARM GAS  C:\usertemp\ccV6J5ed.s 			page 3


  89:generated/events_init.c **** 		lv_obj_clear_flag(guider_ui.wave_model_btn_11, LV_OBJ_FLAG_HIDDEN);
  90:generated/events_init.c **** 		lv_obj_clear_flag(guider_ui.wave_model_btn_12, LV_OBJ_FLAG_HIDDEN);
  91:generated/events_init.c **** 		lv_obj_clear_flag(guider_ui.wave_model_btn_13, LV_OBJ_FLAG_HIDDEN);
  92:generated/events_init.c **** 
  93:generated/events_init.c **** 		lv_obj_clear_flag(guider_ui.wave_model_btn_6, LV_OBJ_FLAG_HIDDEN);
  94:generated/events_init.c **** 		lv_obj_clear_flag(guider_ui.wave_model_btn_1, LV_OBJ_FLAG_HIDDEN);
  95:generated/events_init.c **** 		lv_obj_clear_flag(guider_ui.wave_model_btn_2, LV_OBJ_FLAG_HIDDEN);
  96:generated/events_init.c **** 		lv_obj_clear_flag(guider_ui.wave_model_btn_3, LV_OBJ_FLAG_HIDDEN);
  97:generated/events_init.c **** 		lv_obj_clear_flag(guider_ui.wave_model_btn_4, LV_OBJ_FLAG_HIDDEN);
  98:generated/events_init.c **** 		lv_obj_clear_flag(guider_ui.wave_model_btn_5, LV_OBJ_FLAG_HIDDEN);
  99:generated/events_init.c **** 	}
 100:generated/events_init.c **** 	if (page == 1) // 截屏模式
 101:generated/events_init.c **** 	{			   //+227 +70
 102:generated/events_init.c **** 
 103:generated/events_init.c **** 		lv_obj_clear_flag(guider_ui.wave_model_label_27, LV_OBJ_FLAG_HIDDEN);
 104:generated/events_init.c **** 		lv_obj_add_flag(guider_ui.wave_model_btn_10, LV_OBJ_FLAG_HIDDEN);
 105:generated/events_init.c **** 		lv_obj_add_flag(guider_ui.wave_model_btn_11, LV_OBJ_FLAG_HIDDEN);
 106:generated/events_init.c **** 		lv_obj_add_flag(guider_ui.wave_model_btn_12, LV_OBJ_FLAG_HIDDEN);
 107:generated/events_init.c **** 		lv_obj_add_flag(guider_ui.wave_model_btn_13, LV_OBJ_FLAG_HIDDEN);
 108:generated/events_init.c **** 
 109:generated/events_init.c **** 		lv_obj_add_flag(guider_ui.wave_model_btn_6, LV_OBJ_FLAG_HIDDEN);
 110:generated/events_init.c **** 		lv_obj_add_flag(guider_ui.wave_model_btn_1, LV_OBJ_FLAG_HIDDEN);
 111:generated/events_init.c **** 		lv_obj_add_flag(guider_ui.wave_model_btn_2, LV_OBJ_FLAG_HIDDEN);
 112:generated/events_init.c **** 		lv_obj_add_flag(guider_ui.wave_model_btn_3, LV_OBJ_FLAG_HIDDEN);
 113:generated/events_init.c **** 		lv_obj_add_flag(guider_ui.wave_model_btn_4, LV_OBJ_FLAG_HIDDEN);
 114:generated/events_init.c **** 		lv_obj_add_flag(guider_ui.wave_model_btn_5, LV_OBJ_FLAG_HIDDEN);
 115:generated/events_init.c **** 
 116:generated/events_init.c **** 		lv_obj_add_flag(guider_ui.wave_model_chart_2, LV_OBJ_FLAG_HIDDEN);
 117:generated/events_init.c **** 		lv_obj_clear_flag(guider_ui.wave_model_img_1, LV_OBJ_FLAG_HIDDEN);
 118:generated/events_init.c **** 		lv_obj_add_flag(guider_ui.wave_model_label_25, LV_OBJ_FLAG_HIDDEN);
 119:generated/events_init.c **** 		lv_obj_add_flag(guider_ui.wave_model_label_24, LV_OBJ_FLAG_HIDDEN);
 120:generated/events_init.c **** 		lv_obj_add_flag(guider_ui.wave_model_label_23, LV_OBJ_FLAG_HIDDEN);
 121:generated/events_init.c **** 		lv_obj_add_flag(guider_ui.wave_model_label_22, LV_OBJ_FLAG_HIDDEN);
 122:generated/events_init.c **** 		lv_obj_add_flag(guider_ui.wave_model_label_21, LV_OBJ_FLAG_HIDDEN);
 123:generated/events_init.c **** 		lv_obj_add_flag(guider_ui.wave_model_num_1, LV_OBJ_FLAG_HIDDEN);
 124:generated/events_init.c **** 		lv_obj_add_flag(guider_ui.wave_model_N_val, LV_OBJ_FLAG_HIDDEN);
 125:generated/events_init.c **** 		lv_obj_add_flag(guider_ui.wave_model_three_value, LV_OBJ_FLAG_HIDDEN);
 126:generated/events_init.c **** 		lv_obj_add_flag(guider_ui.wave_model_two_value, LV_OBJ_FLAG_HIDDEN);
 127:generated/events_init.c **** 		lv_obj_add_flag(guider_ui.wave_model_one_value, LV_OBJ_FLAG_HIDDEN);
 128:generated/events_init.c **** 		lv_obj_add_flag(guider_ui.wave_model_N__, LV_OBJ_FLAG_HIDDEN);
 129:generated/events_init.c **** 		lv_obj_add_flag(guider_ui.wave_model_three, LV_OBJ_FLAG_HIDDEN);
 130:generated/events_init.c **** 		lv_obj_add_flag(guider_ui.wave_model_two, LV_OBJ_FLAG_HIDDEN);
 131:generated/events_init.c **** 		lv_obj_add_flag(guider_ui.wave_model_red, LV_OBJ_FLAG_HIDDEN);
 132:generated/events_init.c **** 		lv_obj_add_flag(guider_ui.wave_model_blue, LV_OBJ_FLAG_HIDDEN);
 133:generated/events_init.c **** 		lv_obj_add_flag(guider_ui.wave_model_green, LV_OBJ_FLAG_HIDDEN);
 134:generated/events_init.c **** 		lv_obj_add_flag(guider_ui.wave_model_yellow, LV_OBJ_FLAG_HIDDEN);
 135:generated/events_init.c **** 		lv_obj_add_flag(guider_ui.wave_model_label_26, LV_OBJ_FLAG_HIDDEN);
 136:generated/events_init.c **** 		lv_obj_add_flag(guider_ui.wave_model_chart_3, LV_OBJ_FLAG_HIDDEN);
 137:generated/events_init.c **** 
 138:generated/events_init.c **** 		lv_label_set_text(guider_ui.wave_model_btn_14_label, "->");
 139:generated/events_init.c **** 		lv_label_set_text(guider_ui.wave_model_btn_9_label, "<-");
 140:generated/events_init.c **** 	}
 141:generated/events_init.c **** 	if (page == 2) // 谐波模式
 142:generated/events_init.c **** 	{
 143:generated/events_init.c **** 
 144:generated/events_init.c **** 		lv_obj_set_pos(guider_ui.wave_model_three, 300, 28);
 145:generated/events_init.c **** 		lv_obj_set_pos(guider_ui.wave_model_two, 137, 28);
ARM GAS  C:\usertemp\ccV6J5ed.s 			page 4


 146:generated/events_init.c **** 		lv_obj_set_pos(guider_ui.wave_model_red, 330, 25);
 147:generated/events_init.c **** 		lv_obj_set_pos(guider_ui.wave_model_green, 167, 25);
 148:generated/events_init.c **** 		lv_obj_set_pos(guider_ui.wave_model_yellow, 1, 25);
 149:generated/events_init.c **** 		lv_obj_set_pos(guider_ui.wave_model_num_1, -30, 30);
 150:generated/events_init.c **** 
 151:generated/events_init.c **** 		
 152:generated/events_init.c **** 		lv_obj_clear_flag(guider_ui.wave_model_btn_10, LV_OBJ_FLAG_HIDDEN);
 153:generated/events_init.c **** 		lv_obj_clear_flag(guider_ui.wave_model_btn_11, LV_OBJ_FLAG_HIDDEN);
 154:generated/events_init.c **** 		lv_obj_clear_flag(guider_ui.wave_model_btn_12, LV_OBJ_FLAG_HIDDEN);
 155:generated/events_init.c **** 		lv_obj_clear_flag(guider_ui.wave_model_btn_13, LV_OBJ_FLAG_HIDDEN);
 156:generated/events_init.c **** 
 157:generated/events_init.c **** 		lv_obj_clear_flag(guider_ui.wave_model_btn_6, LV_OBJ_FLAG_HIDDEN);
 158:generated/events_init.c **** 		lv_obj_clear_flag(guider_ui.wave_model_btn_1, LV_OBJ_FLAG_HIDDEN);
 159:generated/events_init.c **** 		lv_obj_clear_flag(guider_ui.wave_model_btn_2, LV_OBJ_FLAG_HIDDEN);
 160:generated/events_init.c **** 		lv_obj_clear_flag(guider_ui.wave_model_btn_3, LV_OBJ_FLAG_HIDDEN);
 161:generated/events_init.c **** 		lv_obj_clear_flag(guider_ui.wave_model_btn_4, LV_OBJ_FLAG_HIDDEN);
 162:generated/events_init.c **** 		lv_obj_clear_flag(guider_ui.wave_model_btn_5, LV_OBJ_FLAG_HIDDEN);
 163:generated/events_init.c **** 		lv_obj_add_flag(guider_ui.wave_model_label_27, LV_OBJ_FLAG_HIDDEN);
 164:generated/events_init.c **** 		lv_obj_add_flag(guider_ui.wave_model_chart_2, LV_OBJ_FLAG_HIDDEN);
 165:generated/events_init.c **** 		lv_obj_clear_flag(guider_ui.wave_model_chart_3, LV_OBJ_FLAG_HIDDEN);
 166:generated/events_init.c **** 		lv_obj_add_flag(guider_ui.wave_model_img_1, LV_OBJ_FLAG_HIDDEN);
 167:generated/events_init.c **** 		lv_obj_clear_flag(guider_ui.wave_model_digital_clock_1, LV_OBJ_FLAG_HIDDEN);
 168:generated/events_init.c **** 		lv_obj_add_flag(guider_ui.wave_model_label_26, LV_OBJ_FLAG_HIDDEN);
 169:generated/events_init.c **** 		lv_obj_add_flag(guider_ui.wave_model_table_1, LV_OBJ_FLAG_HIDDEN);
 170:generated/events_init.c **** 		lv_obj_clear_flag(guider_ui.wave_model_btn_8, LV_OBJ_FLAG_HIDDEN);
 171:generated/events_init.c **** 		lv_obj_clear_flag(guider_ui.wave_model_btn_7, LV_OBJ_FLAG_HIDDEN);
 172:generated/events_init.c **** 
 173:generated/events_init.c **** 		lv_obj_clear_flag(guider_ui.wave_model_num_1, LV_OBJ_FLAG_HIDDEN);
 174:generated/events_init.c **** 		lv_obj_add_flag(guider_ui.wave_model_N_val, LV_OBJ_FLAG_HIDDEN);
 175:generated/events_init.c **** 		lv_obj_add_flag(guider_ui.wave_model_label_25, LV_OBJ_FLAG_HIDDEN);
 176:generated/events_init.c **** 		lv_obj_add_flag(guider_ui.wave_model_label_24, LV_OBJ_FLAG_HIDDEN);
 177:generated/events_init.c **** 		lv_obj_add_flag(guider_ui.wave_model_label_23, LV_OBJ_FLAG_HIDDEN);
 178:generated/events_init.c **** 		lv_obj_add_flag(guider_ui.wave_model_label_22, LV_OBJ_FLAG_HIDDEN);
 179:generated/events_init.c **** 		lv_obj_add_flag(guider_ui.wave_model_label_21, LV_OBJ_FLAG_HIDDEN);
 180:generated/events_init.c **** 		lv_obj_set_width(guider_ui.wave_model_three_value, 120);
 181:generated/events_init.c **** 		lv_obj_set_height(guider_ui.wave_model_three_value, 90);
 182:generated/events_init.c **** 		lv_obj_clear_flag(guider_ui.wave_model_three_value, LV_OBJ_FLAG_HIDDEN);
 183:generated/events_init.c **** 		lv_obj_set_width(guider_ui.wave_model_two_value, 120);
 184:generated/events_init.c **** 		lv_obj_set_height(guider_ui.wave_model_two_value, 90);
 185:generated/events_init.c **** 		lv_obj_clear_flag(guider_ui.wave_model_two_value, LV_OBJ_FLAG_HIDDEN);
 186:generated/events_init.c **** 		lv_obj_set_width(guider_ui.wave_model_one_value, 120);
 187:generated/events_init.c **** 		lv_obj_set_height(guider_ui.wave_model_one_value, 90);
 188:generated/events_init.c **** 		lv_obj_clear_flag(guider_ui.wave_model_one_value, LV_OBJ_FLAG_HIDDEN);
 189:generated/events_init.c **** 		lv_obj_add_flag(guider_ui.wave_model_N__, LV_OBJ_FLAG_HIDDEN);
 190:generated/events_init.c **** 		lv_obj_clear_flag(guider_ui.wave_model_three, LV_OBJ_FLAG_HIDDEN);
 191:generated/events_init.c **** 		lv_obj_clear_flag(guider_ui.wave_model_two, LV_OBJ_FLAG_HIDDEN);
 192:generated/events_init.c **** 		lv_obj_clear_flag(guider_ui.wave_model_red, LV_OBJ_FLAG_HIDDEN);
 193:generated/events_init.c **** 		lv_obj_add_flag(guider_ui.wave_model_blue, LV_OBJ_FLAG_HIDDEN);
 194:generated/events_init.c **** 		lv_obj_clear_flag(guider_ui.wave_model_green, LV_OBJ_FLAG_HIDDEN);
 195:generated/events_init.c **** 		lv_obj_clear_flag(guider_ui.wave_model_yellow, LV_OBJ_FLAG_HIDDEN);
 196:generated/events_init.c **** 		lv_obj_clear_flag(guider_ui.wave_model_freq, LV_OBJ_FLAG_HIDDEN);
 197:generated/events_init.c **** 		lv_obj_clear_flag(guider_ui.wave_model_power, LV_OBJ_FLAG_HIDDEN);
 198:generated/events_init.c **** 		lv_obj_clear_flag(guider_ui.wave_model_btn_1, LV_OBJ_FLAG_HIDDEN);
 199:generated/events_init.c **** 		lv_obj_clear_flag(guider_ui.wave_model_btn_2, LV_OBJ_FLAG_HIDDEN);
 200:generated/events_init.c **** 		lv_obj_clear_flag(guider_ui.wave_model_btn_3, LV_OBJ_FLAG_HIDDEN);
 201:generated/events_init.c **** 		lv_obj_clear_flag(guider_ui.wave_model_btn_4, LV_OBJ_FLAG_HIDDEN);
 202:generated/events_init.c **** 		lv_obj_clear_flag(guider_ui.wave_model_btn_5, LV_OBJ_FLAG_HIDDEN);
ARM GAS  C:\usertemp\ccV6J5ed.s 			page 5


 203:generated/events_init.c **** 		lv_obj_clear_flag(guider_ui.wave_model_btn_6, LV_OBJ_FLAG_HIDDEN);
 204:generated/events_init.c **** 		lv_label_set_text(guider_ui.wave_model_btn_14_label, "Y-");
 205:generated/events_init.c **** 		lv_label_set_text(guider_ui.wave_model_btn_9_label, "Y+");
 206:generated/events_init.c **** 	}
 207:generated/events_init.c **** 	if (page == 3) // 最值
 208:generated/events_init.c **** 	{
 209:generated/events_init.c **** 
 210:generated/events_init.c **** 		lv_obj_add_flag(guider_ui.wave_model_chart_3, LV_OBJ_FLAG_HIDDEN);
 211:generated/events_init.c **** 		lv_obj_clear_flag(guider_ui.wave_model_btn_7, LV_OBJ_FLAG_HIDDEN);
 212:generated/events_init.c **** 		lv_obj_set_width(guider_ui.wave_model_chart_2, 520);
 213:generated/events_init.c **** 		lv_obj_set_height(guider_ui.wave_model_chart_2, 280);
 214:generated/events_init.c **** 		lv_obj_set_pos(guider_ui.wave_model_chart_2, 47, 130);
 215:generated/events_init.c **** 		lv_obj_add_flag(guider_ui.wave_model_chart_2, LV_OBJ_FLAG_HIDDEN);
 216:generated/events_init.c **** 		lv_obj_clear_flag(guider_ui.wave_model_num_1, LV_OBJ_FLAG_HIDDEN);
 217:generated/events_init.c **** 		lv_obj_add_flag(guider_ui.wave_model_N_val, LV_OBJ_FLAG_HIDDEN);
 218:generated/events_init.c **** 		lv_obj_add_flag(guider_ui.wave_model_label_25, LV_OBJ_FLAG_HIDDEN);
 219:generated/events_init.c **** 		lv_obj_add_flag(guider_ui.wave_model_label_24, LV_OBJ_FLAG_HIDDEN);
 220:generated/events_init.c **** 		lv_obj_add_flag(guider_ui.wave_model_label_23, LV_OBJ_FLAG_HIDDEN);
 221:generated/events_init.c **** 		lv_obj_add_flag(guider_ui.wave_model_label_22, LV_OBJ_FLAG_HIDDEN);
 222:generated/events_init.c **** 		lv_obj_add_flag(guider_ui.wave_model_label_21, LV_OBJ_FLAG_HIDDEN);
 223:generated/events_init.c **** 		lv_obj_set_width(guider_ui.wave_model_three_value, 120);
 224:generated/events_init.c **** 		lv_obj_set_height(guider_ui.wave_model_three_value, 90);
 225:generated/events_init.c **** 		lv_obj_add_flag(guider_ui.wave_model_three_value, LV_OBJ_FLAG_HIDDEN);
 226:generated/events_init.c **** 		lv_obj_set_width(guider_ui.wave_model_two_value, 120);
 227:generated/events_init.c **** 		lv_obj_set_height(guider_ui.wave_model_two_value, 90);
 228:generated/events_init.c **** 		lv_obj_add_flag(guider_ui.wave_model_two_value, LV_OBJ_FLAG_HIDDEN);
 229:generated/events_init.c **** 		lv_obj_set_width(guider_ui.wave_model_one_value, 120);
 230:generated/events_init.c **** 		lv_obj_set_height(guider_ui.wave_model_one_value, 90);
 231:generated/events_init.c **** 		lv_obj_add_flag(guider_ui.wave_model_one_value, LV_OBJ_FLAG_HIDDEN);
 232:generated/events_init.c **** 		lv_obj_add_flag(guider_ui.wave_model_N__, LV_OBJ_FLAG_HIDDEN);
 233:generated/events_init.c **** 		lv_obj_set_pos(guider_ui.wave_model_num_1, 169, 100);
 234:generated/events_init.c **** 		lv_obj_set_pos(guider_ui.wave_model_three, 430, 98);
 235:generated/events_init.c **** 		lv_obj_set_pos(guider_ui.wave_model_two, 299, 98);
 236:generated/events_init.c **** 		lv_obj_set_pos(guider_ui.wave_model_red, 461, 95);
 237:generated/events_init.c **** 		lv_obj_set_pos(guider_ui.wave_model_green, 330, 95);
 238:generated/events_init.c **** 		lv_obj_set_pos(guider_ui.wave_model_yellow, 200, 95);
 239:generated/events_init.c **** 		lv_obj_clear_flag(guider_ui.wave_model_three, LV_OBJ_FLAG_HIDDEN);
 240:generated/events_init.c **** 		lv_obj_clear_flag(guider_ui.wave_model_two, LV_OBJ_FLAG_HIDDEN);
 241:generated/events_init.c **** 		lv_obj_clear_flag(guider_ui.wave_model_red, LV_OBJ_FLAG_HIDDEN);
 242:generated/events_init.c **** 		lv_obj_add_flag(guider_ui.wave_model_blue, LV_OBJ_FLAG_HIDDEN);
 243:generated/events_init.c **** 		lv_obj_clear_flag(guider_ui.wave_model_green, LV_OBJ_FLAG_HIDDEN);
 244:generated/events_init.c **** 		lv_obj_clear_flag(guider_ui.wave_model_yellow, LV_OBJ_FLAG_HIDDEN);
 245:generated/events_init.c **** 		lv_obj_clear_flag(guider_ui.wave_model_freq, LV_OBJ_FLAG_HIDDEN);
 246:generated/events_init.c **** 		lv_obj_clear_flag(guider_ui.wave_model_power, LV_OBJ_FLAG_HIDDEN);
 247:generated/events_init.c **** 
 248:generated/events_init.c **** 		lv_obj_clear_flag(guider_ui.wave_model_btn_1, LV_OBJ_FLAG_HIDDEN);
 249:generated/events_init.c **** 		lv_obj_clear_flag(guider_ui.wave_model_btn_2, LV_OBJ_FLAG_HIDDEN);
 250:generated/events_init.c **** 		lv_obj_clear_flag(guider_ui.wave_model_btn_3, LV_OBJ_FLAG_HIDDEN);
 251:generated/events_init.c **** 		lv_obj_clear_flag(guider_ui.wave_model_btn_4, LV_OBJ_FLAG_HIDDEN);
 252:generated/events_init.c **** 		lv_obj_clear_flag(guider_ui.wave_model_btn_5, LV_OBJ_FLAG_HIDDEN);
 253:generated/events_init.c **** 		lv_obj_clear_flag(guider_ui.wave_model_btn_6, LV_OBJ_FLAG_HIDDEN);
 254:generated/events_init.c **** 
 255:generated/events_init.c **** 		lv_obj_clear_flag(guider_ui.wave_model_btn_8, LV_OBJ_FLAG_HIDDEN);
 256:generated/events_init.c **** 		lv_obj_clear_flag(guider_ui.wave_model_table_1, LV_OBJ_FLAG_HIDDEN);
 257:generated/events_init.c **** 		lv_obj_add_flag(guider_ui.wave_model_label_26, LV_OBJ_FLAG_HIDDEN);
 258:generated/events_init.c **** 		lv_obj_clear_flag(guider_ui.wave_model_digital_clock_1, LV_OBJ_FLAG_HIDDEN);
 259:generated/events_init.c **** 		lv_obj_add_flag(guider_ui.wave_model_img_1, LV_OBJ_FLAG_HIDDEN);
ARM GAS  C:\usertemp\ccV6J5ed.s 			page 6


 260:generated/events_init.c **** 		lv_obj_add_flag(guider_ui.wave_model_table_2, LV_OBJ_FLAG_HIDDEN);
 261:generated/events_init.c **** 	}
 262:generated/events_init.c **** 	if (page == 4) // 功率和电能模式
 263:generated/events_init.c **** 	{
 264:generated/events_init.c **** 		lv_obj_add_flag(guider_ui.wave_model_table_1, LV_OBJ_FLAG_HIDDEN);
 265:generated/events_init.c **** 		lv_obj_clear_flag(guider_ui.wave_model_table_2, LV_OBJ_FLAG_HIDDEN);
 266:generated/events_init.c **** 		lv_obj_clear_flag(guider_ui.wave_model_btn_7, LV_OBJ_FLAG_HIDDEN);
 267:generated/events_init.c **** 		lv_obj_set_width(guider_ui.wave_model_chart_2, 520);
 268:generated/events_init.c **** 		lv_obj_set_height(guider_ui.wave_model_chart_2, 280);
 269:generated/events_init.c **** 		lv_obj_set_pos(guider_ui.wave_model_chart_2, 47, 130);
 270:generated/events_init.c **** 		lv_obj_add_flag(guider_ui.wave_model_chart_2, LV_OBJ_FLAG_HIDDEN);
 271:generated/events_init.c **** 		lv_obj_set_pos(guider_ui.wave_model_num_1, 209, 70);
 272:generated/events_init.c **** 		lv_obj_clear_flag(guider_ui.wave_model_num_1, LV_OBJ_FLAG_HIDDEN);
 273:generated/events_init.c **** 		lv_obj_add_flag(guider_ui.wave_model_N_val, LV_OBJ_FLAG_HIDDEN);
 274:generated/events_init.c **** 		lv_obj_add_flag(guider_ui.wave_model_label_25, LV_OBJ_FLAG_HIDDEN);
 275:generated/events_init.c **** 		lv_obj_add_flag(guider_ui.wave_model_label_24, LV_OBJ_FLAG_HIDDEN);
 276:generated/events_init.c **** 		lv_obj_add_flag(guider_ui.wave_model_label_23, LV_OBJ_FLAG_HIDDEN);
 277:generated/events_init.c **** 		lv_obj_add_flag(guider_ui.wave_model_label_22, LV_OBJ_FLAG_HIDDEN);
 278:generated/events_init.c **** 		lv_obj_add_flag(guider_ui.wave_model_label_21, LV_OBJ_FLAG_HIDDEN);
 279:generated/events_init.c **** 		lv_obj_set_width(guider_ui.wave_model_three_value, 120);
 280:generated/events_init.c **** 		lv_obj_set_height(guider_ui.wave_model_three_value, 90);
 281:generated/events_init.c **** 		lv_obj_add_flag(guider_ui.wave_model_three_value, LV_OBJ_FLAG_HIDDEN);
 282:generated/events_init.c **** 		lv_obj_set_width(guider_ui.wave_model_two_value, 120);
 283:generated/events_init.c **** 		lv_obj_set_height(guider_ui.wave_model_two_value, 90);
 284:generated/events_init.c **** 		lv_obj_add_flag(guider_ui.wave_model_two_value, LV_OBJ_FLAG_HIDDEN);
 285:generated/events_init.c **** 		lv_obj_set_width(guider_ui.wave_model_one_value, 120);
 286:generated/events_init.c **** 		lv_obj_set_height(guider_ui.wave_model_one_value, 90);
 287:generated/events_init.c **** 		lv_obj_add_flag(guider_ui.wave_model_one_value, LV_OBJ_FLAG_HIDDEN);
 288:generated/events_init.c **** 		lv_obj_add_flag(guider_ui.wave_model_N__, LV_OBJ_FLAG_HIDDEN);
 289:generated/events_init.c **** 		lv_obj_set_pos(guider_ui.wave_model_three, 470, 68);
 290:generated/events_init.c **** 		lv_obj_clear_flag(guider_ui.wave_model_three, LV_OBJ_FLAG_HIDDEN);
 291:generated/events_init.c **** 		lv_obj_set_pos(guider_ui.wave_model_two, 339, 68);
 292:generated/events_init.c **** 		lv_obj_clear_flag(guider_ui.wave_model_two, LV_OBJ_FLAG_HIDDEN);
 293:generated/events_init.c **** 		lv_obj_set_pos(guider_ui.wave_model_red, 501, 65);
 294:generated/events_init.c **** 		lv_obj_clear_flag(guider_ui.wave_model_red, LV_OBJ_FLAG_HIDDEN);
 295:generated/events_init.c **** 		lv_obj_add_flag(guider_ui.wave_model_blue, LV_OBJ_FLAG_HIDDEN);
 296:generated/events_init.c **** 		lv_obj_set_pos(guider_ui.wave_model_green, 370, 65);
 297:generated/events_init.c **** 		lv_obj_clear_flag(guider_ui.wave_model_green, LV_OBJ_FLAG_HIDDEN);
 298:generated/events_init.c **** 		lv_obj_set_pos(guider_ui.wave_model_yellow, 240, 65);
 299:generated/events_init.c **** 		lv_obj_clear_flag(guider_ui.wave_model_yellow, LV_OBJ_FLAG_HIDDEN);
 300:generated/events_init.c **** 		lv_obj_clear_flag(guider_ui.wave_model_freq, LV_OBJ_FLAG_HIDDEN);
 301:generated/events_init.c **** 		lv_obj_clear_flag(guider_ui.wave_model_power, LV_OBJ_FLAG_HIDDEN);
 302:generated/events_init.c **** 		lv_obj_clear_flag(guider_ui.wave_model_btn_1, LV_OBJ_FLAG_HIDDEN);
 303:generated/events_init.c **** 		lv_obj_clear_flag(guider_ui.wave_model_btn_2, LV_OBJ_FLAG_HIDDEN);
 304:generated/events_init.c **** 		lv_obj_clear_flag(guider_ui.wave_model_btn_3, LV_OBJ_FLAG_HIDDEN);
 305:generated/events_init.c **** 		lv_obj_clear_flag(guider_ui.wave_model_btn_4, LV_OBJ_FLAG_HIDDEN);
 306:generated/events_init.c **** 		lv_obj_clear_flag(guider_ui.wave_model_btn_5, LV_OBJ_FLAG_HIDDEN);
 307:generated/events_init.c **** 		lv_obj_clear_flag(guider_ui.wave_model_btn_6, LV_OBJ_FLAG_HIDDEN);
 308:generated/events_init.c **** 		lv_obj_clear_flag(guider_ui.wave_model_btn_8, LV_OBJ_FLAG_HIDDEN);
 309:generated/events_init.c **** 		// lv_obj_clear_flag(guider_ui.wave_model_table_1, LV_OBJ_FLAG_HIDDEN);
 310:generated/events_init.c **** 		lv_obj_clear_flag(guider_ui.wave_model_label_26, LV_OBJ_FLAG_HIDDEN);
 311:generated/events_init.c **** 		lv_obj_clear_flag(guider_ui.wave_model_digital_clock_1, LV_OBJ_FLAG_HIDDEN);
 312:generated/events_init.c **** 		lv_obj_add_flag(guider_ui.wave_model_img_1, LV_OBJ_FLAG_HIDDEN);
 313:generated/events_init.c **** 	}
 314:generated/events_init.c **** }
 315:generated/events_init.c **** 
 316:generated/events_init.c **** static void wave_model_event_handler(lv_event_t *e)
ARM GAS  C:\usertemp\ccV6J5ed.s 			page 7


 317:generated/events_init.c **** {
 318:generated/events_init.c **** 	lv_event_code_t code = lv_event_get_code(e);
 319:generated/events_init.c **** 
 320:generated/events_init.c **** 	switch (code)
 321:generated/events_init.c **** 	{
 322:generated/events_init.c **** 	case LV_EVENT_GESTURE:
 323:generated/events_init.c **** 	{
 324:generated/events_init.c **** 		lv_dir_t dir = lv_indev_get_gesture_dir(lv_indev_get_act());
 325:generated/events_init.c **** 		switch (dir)
 326:generated/events_init.c **** 		{
 327:generated/events_init.c **** 		case LV_DIR_LEFT:
 328:generated/events_init.c **** 		{
 329:generated/events_init.c **** 			lv_indev_wait_release(lv_indev_get_act());
 330:generated/events_init.c **** 			break;
 331:generated/events_init.c **** 		}
 332:generated/events_init.c **** 		}
 333:generated/events_init.c **** 		break;
 334:generated/events_init.c **** 	}
 335:generated/events_init.c **** 	default:
 336:generated/events_init.c **** 		break;
 337:generated/events_init.c **** 	}
 338:generated/events_init.c **** }
 339:generated/events_init.c **** static void wave_model_btn_2_event_handler(lv_event_t *e) // 电压电流波形切换
 340:generated/events_init.c **** {
 341:generated/events_init.c **** 	lv_event_code_t code = lv_event_get_code(e);
 342:generated/events_init.c **** 
 343:generated/events_init.c **** 	switch (code)
 344:generated/events_init.c **** 	{
 345:generated/events_init.c **** 	case LV_EVENT_CLICKED:
 346:generated/events_init.c **** 	{
 347:generated/events_init.c **** 		V_I_flag = !V_I_flag;
 348:generated/events_init.c **** 		if (V_I_flag == 1)
 349:generated/events_init.c **** 		{ // 显示电流
 350:generated/events_init.c **** 			ser1_I->hidden = 0;
 351:generated/events_init.c **** 			ser2_I->hidden = 0;
 352:generated/events_init.c **** 			ser3_I->hidden = 0;
 353:generated/events_init.c **** 			serN_I->hidden = 0;
 354:generated/events_init.c **** 			L2_I_flag = 0;
 355:generated/events_init.c **** 			L1_I_flag = 0;
 356:generated/events_init.c **** 			L3_I_flag = 0;
 357:generated/events_init.c **** 			LN_I_flag = 0;
 358:generated/events_init.c **** 
 359:generated/events_init.c **** 			ser1->hidden = 1;
 360:generated/events_init.c **** 			ser2->hidden = 1;
 361:generated/events_init.c **** 			ser3->hidden = 1;
 362:generated/events_init.c **** 			serN->hidden = 1;
 363:generated/events_init.c **** 			L2_flag = 1;
 364:generated/events_init.c **** 			L1_flag = 1;
 365:generated/events_init.c **** 			L3_flag = 1;
 366:generated/events_init.c **** 			LN_flag = 1;
 367:generated/events_init.c **** 
 368:generated/events_init.c **** 			lv_label_set_text(guider_ui.wave_model_btn_2_label, "I");
 369:generated/events_init.c **** 		}
 370:generated/events_init.c **** 		else
 371:generated/events_init.c **** 		{ // 显示电压
 372:generated/events_init.c **** 
 373:generated/events_init.c **** 			lv_label_set_text(guider_ui.wave_model_btn_2_label, "V");
ARM GAS  C:\usertemp\ccV6J5ed.s 			page 8


 374:generated/events_init.c **** 			ser1->hidden = 0;
 375:generated/events_init.c **** 			ser2->hidden = 0;
 376:generated/events_init.c **** 			ser3->hidden = 0;
 377:generated/events_init.c **** 			serN->hidden = 0;
 378:generated/events_init.c **** 			L2_flag = 0;
 379:generated/events_init.c **** 			L1_flag = 0;
 380:generated/events_init.c **** 			L3_flag = 0;
 381:generated/events_init.c **** 			LN_flag = 0;
 382:generated/events_init.c **** 
 383:generated/events_init.c **** 			ser1_I->hidden = 1;
 384:generated/events_init.c **** 			ser2_I->hidden = 1;
 385:generated/events_init.c **** 			ser3_I->hidden = 1;
 386:generated/events_init.c **** 			serN_I->hidden = 1;
 387:generated/events_init.c **** 			L2_I_flag = 1;
 388:generated/events_init.c **** 			L1_I_flag = 1;
 389:generated/events_init.c **** 			L3_I_flag = 1;
 390:generated/events_init.c **** 			LN_I_flag = 1;
 391:generated/events_init.c **** 		}
 392:generated/events_init.c **** 		break;
 393:generated/events_init.c **** 	}
 394:generated/events_init.c **** 	default:
 395:generated/events_init.c **** 		break;
 396:generated/events_init.c **** 	}
 397:generated/events_init.c **** }
 398:generated/events_init.c **** static void wave_model_btn_7_event_handler(lv_event_t *e)
 399:generated/events_init.c **** {
 400:generated/events_init.c **** 	lv_event_code_t code = lv_event_get_code(e);
 401:generated/events_init.c **** 
 402:generated/events_init.c **** 	switch (code)
 403:generated/events_init.c **** 	{
 404:generated/events_init.c **** 	case LV_EVENT_CLICKED:
 405:generated/events_init.c **** 	{
 406:generated/events_init.c **** 		page++;
 407:generated/events_init.c **** 		if (page > 4)
 408:generated/events_init.c **** 			page = 0;
 409:generated/events_init.c **** 		page_switch();
 410:generated/events_init.c **** 
 411:generated/events_init.c **** 		break;
 412:generated/events_init.c **** 	}
 413:generated/events_init.c **** 	default:
 414:generated/events_init.c **** 		break;
 415:generated/events_init.c **** 	}
 416:generated/events_init.c **** }
 417:generated/events_init.c **** static void wave_model_btn_8_event_handler(lv_event_t *e)
 418:generated/events_init.c **** {
 419:generated/events_init.c **** 	lv_event_code_t code = lv_event_get_code(e);
 420:generated/events_init.c **** 
 421:generated/events_init.c **** 	switch (code)
 422:generated/events_init.c **** 	{
 423:generated/events_init.c **** 	case LV_EVENT_CLICKED:
 424:generated/events_init.c **** 	{
 425:generated/events_init.c **** 		page--;
 426:generated/events_init.c **** 		if (page < 0)
 427:generated/events_init.c **** 			page = 4;
 428:generated/events_init.c **** 
 429:generated/events_init.c **** 		page_switch();
 430:generated/events_init.c **** 		break;
ARM GAS  C:\usertemp\ccV6J5ed.s 			page 9


 431:generated/events_init.c **** 	}
 432:generated/events_init.c **** 	default:
 433:generated/events_init.c **** 		break;
 434:generated/events_init.c **** 	}
 435:generated/events_init.c **** }
 436:generated/events_init.c **** 
 437:generated/events_init.c **** static void wave_model_btn_1_event_handler(lv_event_t *e) // L1
 438:generated/events_init.c **** {
 439:generated/events_init.c **** 	lv_event_code_t code = lv_event_get_code(e);
 440:generated/events_init.c **** 
 441:generated/events_init.c **** 	switch (code)
 442:generated/events_init.c **** 	{
 443:generated/events_init.c **** 	case LV_EVENT_CLICKED:
 444:generated/events_init.c **** 	{
 445:generated/events_init.c **** 		if (V_I_flag == 1)
 446:generated/events_init.c **** 		{
 447:generated/events_init.c **** 			L1_I_flag = !L1_I_flag;
 448:generated/events_init.c **** 			ser1_I->hidden = L1_I_flag;
 449:generated/events_init.c **** 		}
 450:generated/events_init.c **** 
 451:generated/events_init.c **** 		else if (V_I_flag == 0)
 452:generated/events_init.c **** 		{
 453:generated/events_init.c **** 			L1_flag = !L1_flag;
 454:generated/events_init.c **** 			ser1->hidden = L1_flag;
 455:generated/events_init.c **** 		}
 456:generated/events_init.c **** 
 457:generated/events_init.c **** 		break;
 458:generated/events_init.c **** 	}
 459:generated/events_init.c **** 	default:
 460:generated/events_init.c **** 		break;
 461:generated/events_init.c **** 	}
 462:generated/events_init.c **** }
 463:generated/events_init.c **** static void wave_model_btn_3_event_handler(lv_event_t *e) // L2
 464:generated/events_init.c **** {
 465:generated/events_init.c **** 	lv_event_code_t code = lv_event_get_code(e);
 466:generated/events_init.c **** 
 467:generated/events_init.c **** 	switch (code)
 468:generated/events_init.c **** 	{
 469:generated/events_init.c **** 	case LV_EVENT_CLICKED:
 470:generated/events_init.c **** 	{
 471:generated/events_init.c **** 		if (V_I_flag == 1)
 472:generated/events_init.c **** 		{
 473:generated/events_init.c **** 			L2_I_flag = !L2_I_flag;
 474:generated/events_init.c **** 			ser2_I->hidden = L2_I_flag;
 475:generated/events_init.c **** 		}
 476:generated/events_init.c **** 
 477:generated/events_init.c **** 		else if (V_I_flag == 0)
 478:generated/events_init.c **** 		{
 479:generated/events_init.c **** 			L2_flag = !L2_flag;
 480:generated/events_init.c **** 			ser2->hidden = L2_flag;
 481:generated/events_init.c **** 		}
 482:generated/events_init.c **** 
 483:generated/events_init.c **** 		break;
 484:generated/events_init.c **** 	}
 485:generated/events_init.c **** 	default:
 486:generated/events_init.c **** 		break;
 487:generated/events_init.c **** 	}
ARM GAS  C:\usertemp\ccV6J5ed.s 			page 10


 488:generated/events_init.c **** }
 489:generated/events_init.c **** static void wave_model_btn_4_event_handler(lv_event_t *e) // L3
 490:generated/events_init.c **** {
 491:generated/events_init.c **** 	lv_event_code_t code = lv_event_get_code(e);
 492:generated/events_init.c **** 
 493:generated/events_init.c **** 	switch (code)
 494:generated/events_init.c **** 	{
 495:generated/events_init.c **** 	case LV_EVENT_CLICKED:
 496:generated/events_init.c **** 	{
 497:generated/events_init.c **** 		if (V_I_flag == 1)
 498:generated/events_init.c **** 		{
 499:generated/events_init.c **** 			L3_I_flag = !L3_I_flag;
 500:generated/events_init.c **** 			ser3_I->hidden = L3_I_flag;
 501:generated/events_init.c **** 		}
 502:generated/events_init.c **** 
 503:generated/events_init.c **** 		else if (V_I_flag == 0)
 504:generated/events_init.c **** 		{
 505:generated/events_init.c **** 			L3_flag = !L3_flag;
 506:generated/events_init.c **** 			ser3->hidden = L3_flag;
 507:generated/events_init.c **** 		}
 508:generated/events_init.c **** 		break;
 509:generated/events_init.c **** 	}
 510:generated/events_init.c **** 	default:
 511:generated/events_init.c **** 		break;
 512:generated/events_init.c **** 	}
 513:generated/events_init.c **** }
 514:generated/events_init.c **** static void wave_model_btn_5_event_handler(lv_event_t *e) // LN
 515:generated/events_init.c **** {
 516:generated/events_init.c **** 	lv_event_code_t code = lv_event_get_code(e);
 517:generated/events_init.c **** 
 518:generated/events_init.c **** 	switch (code)
 519:generated/events_init.c **** 	{
 520:generated/events_init.c **** 	case LV_EVENT_CLICKED:
 521:generated/events_init.c **** 	{
 522:generated/events_init.c **** 		if (V_I_flag == 1)
 523:generated/events_init.c **** 		{
 524:generated/events_init.c **** 			LN_I_flag = !LN_I_flag;
 525:generated/events_init.c **** 			serN_I->hidden = LN_I_flag;
 526:generated/events_init.c **** 		}
 527:generated/events_init.c **** 
 528:generated/events_init.c **** 		else if (V_I_flag == 0)
 529:generated/events_init.c **** 		{
 530:generated/events_init.c **** 			LN_flag = !LN_flag;
 531:generated/events_init.c **** 			serN->hidden = LN_flag;
 532:generated/events_init.c **** 		}
 533:generated/events_init.c **** 		break;
 534:generated/events_init.c **** 	}
 535:generated/events_init.c **** 	default:
 536:generated/events_init.c **** 		break;
 537:generated/events_init.c **** 	}
 538:generated/events_init.c **** }
 539:generated/events_init.c **** static void wave_model_btn_6_event_handler(lv_event_t *e) // Ca截屏
 540:generated/events_init.c **** {
 541:generated/events_init.c **** 	lv_event_code_t code = lv_event_get_code(e);
 542:generated/events_init.c **** 
 543:generated/events_init.c **** 	switch (code)
 544:generated/events_init.c **** 	{
ARM GAS  C:\usertemp\ccV6J5ed.s 			page 11


 545:generated/events_init.c **** 	case LV_EVENT_LONG_PRESSED:
 546:generated/events_init.c **** 	{
 547:generated/events_init.c **** 		char filename[60] = {0};
 548:generated/events_init.c **** 		vTaskSuspendAll();
 549:generated/events_init.c **** 		taskENTER_CRITICAL();
 550:generated/events_init.c **** 		if (page == 0)
 551:generated/events_init.c **** 		{
 552:generated/events_init.c **** 			sprintf(filename, "0:test/p%d%d%d.bin", wave_model_digital_clock_1_hour_value, wave_model_digita
 553:generated/events_init.c **** 			if (take_snapshot_with_buffer(guider_ui.wave_model_chart_2, filename))
 554:generated/events_init.c **** 			{
 555:generated/events_init.c **** 				sd_count++;
 556:generated/events_init.c **** 				msg_notice(guider_ui.wave_model_msg, 2000, "Screenshot successful");
 557:generated/events_init.c **** 
 558:generated/events_init.c **** 				LV_LOG_USER("sd_count = %d\r\n", sd_count);
 559:generated/events_init.c **** 				refersh_lvgl_image(guider_ui.wave_model_img_1);
 560:generated/events_init.c **** 			}
 561:generated/events_init.c **** 			else
 562:generated/events_init.c **** 			{
 563:generated/events_init.c **** 				msg_notice(guider_ui.wave_model_msg, 2000, "Screenshot failed");
 564:generated/events_init.c **** 			}
 565:generated/events_init.c **** 		}
 566:generated/events_init.c **** 
 567:generated/events_init.c **** 		taskEXIT_CRITICAL();
 568:generated/events_init.c **** 		xTaskResumeAll();
 569:generated/events_init.c **** 
 570:generated/events_init.c **** 		break;
 571:generated/events_init.c **** 	}
 572:generated/events_init.c **** 	default:
 573:generated/events_init.c **** 		break;
 574:generated/events_init.c **** 	}
 575:generated/events_init.c **** }
 576:generated/events_init.c **** static void wave_model_btn_9_event_handler(lv_event_t *e) // X+
 577:generated/events_init.c **** {
 578:generated/events_init.c **** 	lv_event_code_t code = lv_event_get_code(e);
 579:generated/events_init.c **** 
 580:generated/events_init.c **** 	switch (code)
 581:generated/events_init.c **** 	{
 582:generated/events_init.c **** 	case LV_EVENT_CLICKED:
 583:generated/events_init.c **** 	{
 584:generated/events_init.c **** 		vTaskSuspendAll();
 585:generated/events_init.c **** 		taskENTER_CRITICAL();
 586:generated/events_init.c **** 		if (page == 0)
 587:generated/events_init.c **** 		{
 588:generated/events_init.c **** 			step--;
 589:generated/events_init.c **** 			if (step == 0)
 590:generated/events_init.c **** 			{
 591:generated/events_init.c **** 				msg_notice(guider_ui.wave_model_msg, 2000, "The setting limit has been reached");
 592:generated/events_init.c **** 				step = 1;
 593:generated/events_init.c **** 			}
 594:generated/events_init.c **** 		}
 595:generated/events_init.c **** 		else if (page == 1)
 596:generated/events_init.c **** 		{
 597:generated/events_init.c **** 			
 598:generated/events_init.c **** 			file_now--;
 599:generated/events_init.c **** 			if (file_now < 0)
 600:generated/events_init.c **** 			{
 601:generated/events_init.c **** 				LV_LOG_USER("file_now < 0, set to sd_count\r\n");
ARM GAS  C:\usertemp\ccV6J5ed.s 			page 12


 602:generated/events_init.c **** 				file_now = sd_count;
 603:generated/events_init.c **** 			}
 604:generated/events_init.c **** 			LV_LOG_USER("set filenow to %d", file_now);
 605:generated/events_init.c **** 			uint8_t temp = OpenFileByIndex("0:test", file_now);
 606:generated/events_init.c **** 			if (temp)
 607:generated/events_init.c **** 			{
 608:generated/events_init.c **** 				refersh_lvgl_image(guider_ui.wave_model_img_1);
 609:generated/events_init.c **** 			}
 610:generated/events_init.c **** 		}
 611:generated/events_init.c **** 
 612:generated/events_init.c **** 		taskEXIT_CRITICAL();
 613:generated/events_init.c **** 		xTaskResumeAll();
 614:generated/events_init.c **** 
 615:generated/events_init.c **** 		break;
 616:generated/events_init.c **** 	}
 617:generated/events_init.c **** 	default:
 618:generated/events_init.c **** 		break;
 619:generated/events_init.c **** 	}
 620:generated/events_init.c **** }
 621:generated/events_init.c **** static void wave_model_btn_10_event_handler(lv_event_t *e) // X-
 622:generated/events_init.c **** {
 623:generated/events_init.c **** 	lv_event_code_t code = lv_event_get_code(e);
 624:generated/events_init.c **** 
 625:generated/events_init.c **** 	switch (code)
 626:generated/events_init.c **** 	{
 627:generated/events_init.c **** 	case LV_EVENT_CLICKED:
 628:generated/events_init.c **** 	{
 629:generated/events_init.c **** 		// taskENTER_CRITICAL();
 630:generated/events_init.c **** 		step++;
 631:generated/events_init.c **** 		// taskENTER_CRITICAL();
 632:generated/events_init.c **** 		break;
 633:generated/events_init.c **** 	}
 634:generated/events_init.c **** 	default:
 635:generated/events_init.c **** 		break;
 636:generated/events_init.c **** 	}
 637:generated/events_init.c **** }
 638:generated/events_init.c **** static void wave_model_btn_11_event_handler(lv_event_t *e)
 639:generated/events_init.c **** {
 640:generated/events_init.c **** 	lv_event_code_t code = lv_event_get_code(e);
 641:generated/events_init.c **** 
 642:generated/events_init.c **** 	switch (code)
 643:generated/events_init.c **** 	{
 644:generated/events_init.c **** 	case LV_EVENT_CLICKED:
 645:generated/events_init.c **** 	{
 646:generated/events_init.c **** 		level += 5;
 647:generated/events_init.c **** 		break;
 648:generated/events_init.c **** 	}
 649:generated/events_init.c **** 	default:
 650:generated/events_init.c **** 		break;
 651:generated/events_init.c **** 	}
 652:generated/events_init.c **** }
 653:generated/events_init.c **** static void wave_model_btn_12_event_handler(lv_event_t *e)
 654:generated/events_init.c **** {
 655:generated/events_init.c **** 	lv_event_code_t code = lv_event_get_code(e);
 656:generated/events_init.c **** 
 657:generated/events_init.c **** 	switch (code)
 658:generated/events_init.c **** 	{
ARM GAS  C:\usertemp\ccV6J5ed.s 			page 13


 659:generated/events_init.c **** 	case LV_EVENT_CLICKED:
 660:generated/events_init.c **** 	{
 661:generated/events_init.c **** 		level -= 5;
 662:generated/events_init.c **** 		break;
 663:generated/events_init.c **** 	}
 664:generated/events_init.c **** 	default:
 665:generated/events_init.c **** 		break;
 666:generated/events_init.c **** 	}
 667:generated/events_init.c **** }
 668:generated/events_init.c **** static void wave_model_btn_13_event_handler(lv_event_t *e) // Y+
 669:generated/events_init.c **** {
  28              		.loc 1 669 1 view -0
  29              		.cfi_startproc
  30              		@ args = 0, pretend = 0, frame = 0
  31              		@ frame_needed = 0, uses_anonymous_args = 0
  32              		.loc 1 669 1 is_stmt 0 view .LVU1
  33 0000 08B5     		push	{r3, lr}
  34              	.LCFI0:
  35              		.cfi_def_cfa_offset 8
  36              		.cfi_offset 3, -8
  37              		.cfi_offset 14, -4
 670:generated/events_init.c **** 	lv_event_code_t code = lv_event_get_code(e);
  38              		.loc 1 670 2 is_stmt 1 view .LVU2
  39              		.loc 1 670 25 is_stmt 0 view .LVU3
  40 0002 FFF7FEFF 		bl	lv_event_get_code
  41              	.LVL1:
 671:generated/events_init.c **** 
 672:generated/events_init.c **** 	switch (code)
  42              		.loc 1 672 2 is_stmt 1 view .LVU4
  43 0006 0728     		cmp	r0, #7
  44 0008 00D0     		beq	.L4
  45              	.L1:
 673:generated/events_init.c **** 	{
 674:generated/events_init.c **** 	case LV_EVENT_CLICKED:
 675:generated/events_init.c **** 	{
 676:generated/events_init.c **** 		// taskENTER_CRITICAL();
 677:generated/events_init.c **** 		rat += 10;
 678:generated/events_init.c **** 		// taskENTER_CRITICAL();
 679:generated/events_init.c **** 		break;
 680:generated/events_init.c **** 	}
 681:generated/events_init.c **** 	default:
 682:generated/events_init.c **** 		break;
 683:generated/events_init.c **** 	}
 684:generated/events_init.c **** }
  46              		.loc 1 684 1 is_stmt 0 view .LVU5
  47 000a 08BD     		pop	{r3, pc}
  48              	.L4:
 677:generated/events_init.c **** 		// taskENTER_CRITICAL();
  49              		.loc 1 677 3 is_stmt 1 view .LVU6
 677:generated/events_init.c **** 		// taskENTER_CRITICAL();
  50              		.loc 1 677 7 is_stmt 0 view .LVU7
  51 000c 044B     		ldr	r3, .L5
  52 000e D3ED007A 		vldr.32	s15, [r3]
  53 0012 B2EE047A 		vmov.f32	s14, #1.0e+1
  54 0016 77EE877A 		vadd.f32	s15, s15, s14
  55 001a C3ED007A 		vstr.32	s15, [r3]
 679:generated/events_init.c **** 	}
ARM GAS  C:\usertemp\ccV6J5ed.s 			page 14


  56              		.loc 1 679 3 is_stmt 1 view .LVU8
  57              		.loc 1 684 1 is_stmt 0 view .LVU9
  58 001e F4E7     		b	.L1
  59              	.L6:
  60              		.align	2
  61              	.L5:
  62 0020 00000000 		.word	rat
  63              		.cfi_endproc
  64              	.LFE589:
  66              		.section	.text.wave_model_btn_12_event_handler,"ax",%progbits
  67              		.align	1
  68              		.syntax unified
  69              		.thumb
  70              		.thumb_func
  72              	wave_model_btn_12_event_handler:
  73              	.LVL2:
  74              	.LFB588:
 654:generated/events_init.c **** 	lv_event_code_t code = lv_event_get_code(e);
  75              		.loc 1 654 1 is_stmt 1 view -0
  76              		.cfi_startproc
  77              		@ args = 0, pretend = 0, frame = 0
  78              		@ frame_needed = 0, uses_anonymous_args = 0
 654:generated/events_init.c **** 	lv_event_code_t code = lv_event_get_code(e);
  79              		.loc 1 654 1 is_stmt 0 view .LVU11
  80 0000 08B5     		push	{r3, lr}
  81              	.LCFI1:
  82              		.cfi_def_cfa_offset 8
  83              		.cfi_offset 3, -8
  84              		.cfi_offset 14, -4
 655:generated/events_init.c **** 
  85              		.loc 1 655 2 is_stmt 1 view .LVU12
 655:generated/events_init.c **** 
  86              		.loc 1 655 25 is_stmt 0 view .LVU13
  87 0002 FFF7FEFF 		bl	lv_event_get_code
  88              	.LVL3:
 657:generated/events_init.c **** 	{
  89              		.loc 1 657 2 is_stmt 1 view .LVU14
  90 0006 0728     		cmp	r0, #7
  91 0008 00D0     		beq	.L10
  92              	.L7:
 667:generated/events_init.c **** static void wave_model_btn_13_event_handler(lv_event_t *e) // Y+
  93              		.loc 1 667 1 is_stmt 0 view .LVU15
  94 000a 08BD     		pop	{r3, pc}
  95              	.L10:
 661:generated/events_init.c **** 		break;
  96              		.loc 1 661 3 is_stmt 1 view .LVU16
 661:generated/events_init.c **** 		break;
  97              		.loc 1 661 9 is_stmt 0 view .LVU17
  98 000c 044B     		ldr	r3, .L11
  99 000e D3ED007A 		vldr.32	s15, [r3]
 100 0012 B1EE047A 		vmov.f32	s14, #5.0e+0
 101 0016 77EEC77A 		vsub.f32	s15, s15, s14
 102 001a C3ED007A 		vstr.32	s15, [r3]
 662:generated/events_init.c **** 	}
 103              		.loc 1 662 3 is_stmt 1 view .LVU18
 667:generated/events_init.c **** static void wave_model_btn_13_event_handler(lv_event_t *e) // Y+
 104              		.loc 1 667 1 is_stmt 0 view .LVU19
ARM GAS  C:\usertemp\ccV6J5ed.s 			page 15


 105 001e F4E7     		b	.L7
 106              	.L12:
 107              		.align	2
 108              	.L11:
 109 0020 00000000 		.word	level
 110              		.cfi_endproc
 111              	.LFE588:
 113              		.section	.text.wave_model_btn_11_event_handler,"ax",%progbits
 114              		.align	1
 115              		.syntax unified
 116              		.thumb
 117              		.thumb_func
 119              	wave_model_btn_11_event_handler:
 120              	.LVL4:
 121              	.LFB587:
 639:generated/events_init.c **** 	lv_event_code_t code = lv_event_get_code(e);
 122              		.loc 1 639 1 is_stmt 1 view -0
 123              		.cfi_startproc
 124              		@ args = 0, pretend = 0, frame = 0
 125              		@ frame_needed = 0, uses_anonymous_args = 0
 639:generated/events_init.c **** 	lv_event_code_t code = lv_event_get_code(e);
 126              		.loc 1 639 1 is_stmt 0 view .LVU21
 127 0000 08B5     		push	{r3, lr}
 128              	.LCFI2:
 129              		.cfi_def_cfa_offset 8
 130              		.cfi_offset 3, -8
 131              		.cfi_offset 14, -4
 640:generated/events_init.c **** 
 132              		.loc 1 640 2 is_stmt 1 view .LVU22
 640:generated/events_init.c **** 
 133              		.loc 1 640 25 is_stmt 0 view .LVU23
 134 0002 FFF7FEFF 		bl	lv_event_get_code
 135              	.LVL5:
 642:generated/events_init.c **** 	{
 136              		.loc 1 642 2 is_stmt 1 view .LVU24
 137 0006 0728     		cmp	r0, #7
 138 0008 00D0     		beq	.L16
 139              	.L13:
 652:generated/events_init.c **** static void wave_model_btn_12_event_handler(lv_event_t *e)
 140              		.loc 1 652 1 is_stmt 0 view .LVU25
 141 000a 08BD     		pop	{r3, pc}
 142              	.L16:
 646:generated/events_init.c **** 		break;
 143              		.loc 1 646 3 is_stmt 1 view .LVU26
 646:generated/events_init.c **** 		break;
 144              		.loc 1 646 9 is_stmt 0 view .LVU27
 145 000c 044B     		ldr	r3, .L17
 146 000e D3ED007A 		vldr.32	s15, [r3]
 147 0012 B1EE047A 		vmov.f32	s14, #5.0e+0
 148 0016 77EE877A 		vadd.f32	s15, s15, s14
 149 001a C3ED007A 		vstr.32	s15, [r3]
 647:generated/events_init.c **** 	}
 150              		.loc 1 647 3 is_stmt 1 view .LVU28
 652:generated/events_init.c **** static void wave_model_btn_12_event_handler(lv_event_t *e)
 151              		.loc 1 652 1 is_stmt 0 view .LVU29
 152 001e F4E7     		b	.L13
 153              	.L18:
ARM GAS  C:\usertemp\ccV6J5ed.s 			page 16


 154              		.align	2
 155              	.L17:
 156 0020 00000000 		.word	level
 157              		.cfi_endproc
 158              	.LFE587:
 160              		.section	.text.wave_model_btn_10_event_handler,"ax",%progbits
 161              		.align	1
 162              		.syntax unified
 163              		.thumb
 164              		.thumb_func
 166              	wave_model_btn_10_event_handler:
 167              	.LVL6:
 168              	.LFB586:
 622:generated/events_init.c **** 	lv_event_code_t code = lv_event_get_code(e);
 169              		.loc 1 622 1 is_stmt 1 view -0
 170              		.cfi_startproc
 171              		@ args = 0, pretend = 0, frame = 0
 172              		@ frame_needed = 0, uses_anonymous_args = 0
 622:generated/events_init.c **** 	lv_event_code_t code = lv_event_get_code(e);
 173              		.loc 1 622 1 is_stmt 0 view .LVU31
 174 0000 08B5     		push	{r3, lr}
 175              	.LCFI3:
 176              		.cfi_def_cfa_offset 8
 177              		.cfi_offset 3, -8
 178              		.cfi_offset 14, -4
 623:generated/events_init.c **** 
 179              		.loc 1 623 2 is_stmt 1 view .LVU32
 623:generated/events_init.c **** 
 180              		.loc 1 623 25 is_stmt 0 view .LVU33
 181 0002 FFF7FEFF 		bl	lv_event_get_code
 182              	.LVL7:
 625:generated/events_init.c **** 	{
 183              		.loc 1 625 2 is_stmt 1 view .LVU34
 184 0006 0728     		cmp	r0, #7
 185 0008 00D0     		beq	.L22
 186              	.L19:
 637:generated/events_init.c **** static void wave_model_btn_11_event_handler(lv_event_t *e)
 187              		.loc 1 637 1 is_stmt 0 view .LVU35
 188 000a 08BD     		pop	{r3, pc}
 189              	.L22:
 630:generated/events_init.c **** 		// taskENTER_CRITICAL();
 190              		.loc 1 630 3 is_stmt 1 view .LVU36
 630:generated/events_init.c **** 		// taskENTER_CRITICAL();
 191              		.loc 1 630 7 is_stmt 0 view .LVU37
 192 000c 044B     		ldr	r3, .L23
 193 000e D3ED007A 		vldr.32	s15, [r3]
 194 0012 B7EE007A 		vmov.f32	s14, #1.0e+0
 195 0016 77EE877A 		vadd.f32	s15, s15, s14
 196 001a C3ED007A 		vstr.32	s15, [r3]
 632:generated/events_init.c **** 	}
 197              		.loc 1 632 3 is_stmt 1 view .LVU38
 637:generated/events_init.c **** static void wave_model_btn_11_event_handler(lv_event_t *e)
 198              		.loc 1 637 1 is_stmt 0 view .LVU39
 199 001e F4E7     		b	.L19
 200              	.L24:
 201              		.align	2
 202              	.L23:
ARM GAS  C:\usertemp\ccV6J5ed.s 			page 17


 203 0020 00000000 		.word	step
 204              		.cfi_endproc
 205              	.LFE586:
 207              		.section	.text.wave_model_btn_5_event_handler,"ax",%progbits
 208              		.align	1
 209              		.syntax unified
 210              		.thumb
 211              		.thumb_func
 213              	wave_model_btn_5_event_handler:
 214              	.LVL8:
 215              	.LFB583:
 515:generated/events_init.c **** 	lv_event_code_t code = lv_event_get_code(e);
 216              		.loc 1 515 1 is_stmt 1 view -0
 217              		.cfi_startproc
 218              		@ args = 0, pretend = 0, frame = 0
 219              		@ frame_needed = 0, uses_anonymous_args = 0
 515:generated/events_init.c **** 	lv_event_code_t code = lv_event_get_code(e);
 220              		.loc 1 515 1 is_stmt 0 view .LVU41
 221 0000 08B5     		push	{r3, lr}
 222              	.LCFI4:
 223              		.cfi_def_cfa_offset 8
 224              		.cfi_offset 3, -8
 225              		.cfi_offset 14, -4
 516:generated/events_init.c **** 
 226              		.loc 1 516 2 is_stmt 1 view .LVU42
 516:generated/events_init.c **** 
 227              		.loc 1 516 25 is_stmt 0 view .LVU43
 228 0002 FFF7FEFF 		bl	lv_event_get_code
 229              	.LVL9:
 518:generated/events_init.c **** 	{
 230              		.loc 1 518 2 is_stmt 1 view .LVU44
 231 0006 0728     		cmp	r0, #7
 232 0008 00D0     		beq	.L29
 233              	.L25:
 538:generated/events_init.c **** static void wave_model_btn_6_event_handler(lv_event_t *e) // Ca截屏
 234              		.loc 1 538 1 is_stmt 0 view .LVU45
 235 000a 08BD     		pop	{r3, pc}
 236              	.L29:
 522:generated/events_init.c **** 		{
 237              		.loc 1 522 3 is_stmt 1 view .LVU46
 522:generated/events_init.c **** 		{
 238              		.loc 1 522 16 is_stmt 0 view .LVU47
 239 000c 0F4B     		ldr	r3, .L31
 240 000e 1B78     		ldrb	r3, [r3]	@ zero_extendqisi2
 522:generated/events_init.c **** 		{
 241              		.loc 1 522 6 view .LVU48
 242 0010 012B     		cmp	r3, #1
 243 0012 0ED0     		beq	.L30
 528:generated/events_init.c **** 		{
 244              		.loc 1 528 8 is_stmt 1 view .LVU49
 528:generated/events_init.c **** 		{
 245              		.loc 1 528 11 is_stmt 0 view .LVU50
 246 0014 002B     		cmp	r3, #0
 247 0016 F8D1     		bne	.L25
 530:generated/events_init.c **** 			serN->hidden = LN_flag;
 248              		.loc 1 530 4 is_stmt 1 view .LVU51
 530:generated/events_init.c **** 			serN->hidden = LN_flag;
ARM GAS  C:\usertemp\ccV6J5ed.s 			page 18


 249              		.loc 1 530 14 is_stmt 0 view .LVU52
 250 0018 0D4A     		ldr	r2, .L31+4
 251 001a 1378     		ldrb	r3, [r2]	@ zero_extendqisi2
 252 001c B3FA83F3 		clz	r3, r3
 253 0020 5B09     		lsrs	r3, r3, #5
 530:generated/events_init.c **** 			serN->hidden = LN_flag;
 254              		.loc 1 530 12 view .LVU53
 255 0022 1370     		strb	r3, [r2]
 531:generated/events_init.c **** 		}
 256              		.loc 1 531 4 is_stmt 1 view .LVU54
 531:generated/events_init.c **** 		}
 257              		.loc 1 531 8 is_stmt 0 view .LVU55
 258 0024 0B4A     		ldr	r2, .L31+8
 259 0026 1268     		ldr	r2, [r2]
 531:generated/events_init.c **** 		}
 260              		.loc 1 531 17 view .LVU56
 261 0028 117B     		ldrb	r1, [r2, #12]	@ zero_extendqisi2
 262 002a 63F30001 		bfi	r1, r3, #0, #1
 263 002e 1173     		strb	r1, [r2, #12]
 538:generated/events_init.c **** static void wave_model_btn_6_event_handler(lv_event_t *e) // Ca截屏
 264              		.loc 1 538 1 view .LVU57
 265 0030 EBE7     		b	.L25
 266              	.L30:
 524:generated/events_init.c **** 			serN_I->hidden = LN_I_flag;
 267              		.loc 1 524 4 is_stmt 1 view .LVU58
 524:generated/events_init.c **** 			serN_I->hidden = LN_I_flag;
 268              		.loc 1 524 16 is_stmt 0 view .LVU59
 269 0032 094A     		ldr	r2, .L31+12
 270 0034 1378     		ldrb	r3, [r2]	@ zero_extendqisi2
 271 0036 B3FA83F3 		clz	r3, r3
 272 003a 5B09     		lsrs	r3, r3, #5
 524:generated/events_init.c **** 			serN_I->hidden = LN_I_flag;
 273              		.loc 1 524 14 view .LVU60
 274 003c 1370     		strb	r3, [r2]
 525:generated/events_init.c **** 		}
 275              		.loc 1 525 4 is_stmt 1 view .LVU61
 525:generated/events_init.c **** 		}
 276              		.loc 1 525 10 is_stmt 0 view .LVU62
 277 003e 074A     		ldr	r2, .L31+16
 278 0040 1268     		ldr	r2, [r2]
 525:generated/events_init.c **** 		}
 279              		.loc 1 525 19 view .LVU63
 280 0042 117B     		ldrb	r1, [r2, #12]	@ zero_extendqisi2
 281 0044 63F30001 		bfi	r1, r3, #0, #1
 282 0048 1173     		strb	r1, [r2, #12]
 283 004a DEE7     		b	.L25
 284              	.L32:
 285              		.align	2
 286              	.L31:
 287 004c 00000000 		.word	V_I_flag
 288 0050 00000000 		.word	LN_flag
 289 0054 00000000 		.word	serN
 290 0058 00000000 		.word	LN_I_flag
 291 005c 00000000 		.word	serN_I
 292              		.cfi_endproc
 293              	.LFE583:
 295              		.section	.text.wave_model_btn_4_event_handler,"ax",%progbits
ARM GAS  C:\usertemp\ccV6J5ed.s 			page 19


 296              		.align	1
 297              		.syntax unified
 298              		.thumb
 299              		.thumb_func
 301              	wave_model_btn_4_event_handler:
 302              	.LVL10:
 303              	.LFB582:
 490:generated/events_init.c **** 	lv_event_code_t code = lv_event_get_code(e);
 304              		.loc 1 490 1 is_stmt 1 view -0
 305              		.cfi_startproc
 306              		@ args = 0, pretend = 0, frame = 0
 307              		@ frame_needed = 0, uses_anonymous_args = 0
 490:generated/events_init.c **** 	lv_event_code_t code = lv_event_get_code(e);
 308              		.loc 1 490 1 is_stmt 0 view .LVU65
 309 0000 08B5     		push	{r3, lr}
 310              	.LCFI5:
 311              		.cfi_def_cfa_offset 8
 312              		.cfi_offset 3, -8
 313              		.cfi_offset 14, -4
 491:generated/events_init.c **** 
 314              		.loc 1 491 2 is_stmt 1 view .LVU66
 491:generated/events_init.c **** 
 315              		.loc 1 491 25 is_stmt 0 view .LVU67
 316 0002 FFF7FEFF 		bl	lv_event_get_code
 317              	.LVL11:
 493:generated/events_init.c **** 	{
 318              		.loc 1 493 2 is_stmt 1 view .LVU68
 319 0006 0728     		cmp	r0, #7
 320 0008 00D0     		beq	.L37
 321              	.L33:
 513:generated/events_init.c **** static void wave_model_btn_5_event_handler(lv_event_t *e) // LN
 322              		.loc 1 513 1 is_stmt 0 view .LVU69
 323 000a 08BD     		pop	{r3, pc}
 324              	.L37:
 497:generated/events_init.c **** 		{
 325              		.loc 1 497 3 is_stmt 1 view .LVU70
 497:generated/events_init.c **** 		{
 326              		.loc 1 497 16 is_stmt 0 view .LVU71
 327 000c 0F4B     		ldr	r3, .L39
 328 000e 1B78     		ldrb	r3, [r3]	@ zero_extendqisi2
 497:generated/events_init.c **** 		{
 329              		.loc 1 497 6 view .LVU72
 330 0010 012B     		cmp	r3, #1
 331 0012 0ED0     		beq	.L38
 503:generated/events_init.c **** 		{
 332              		.loc 1 503 8 is_stmt 1 view .LVU73
 503:generated/events_init.c **** 		{
 333              		.loc 1 503 11 is_stmt 0 view .LVU74
 334 0014 002B     		cmp	r3, #0
 335 0016 F8D1     		bne	.L33
 505:generated/events_init.c **** 			ser3->hidden = L3_flag;
 336              		.loc 1 505 4 is_stmt 1 view .LVU75
 505:generated/events_init.c **** 			ser3->hidden = L3_flag;
 337              		.loc 1 505 14 is_stmt 0 view .LVU76
 338 0018 0D4A     		ldr	r2, .L39+4
 339 001a 1378     		ldrb	r3, [r2]	@ zero_extendqisi2
 340 001c B3FA83F3 		clz	r3, r3
ARM GAS  C:\usertemp\ccV6J5ed.s 			page 20


 341 0020 5B09     		lsrs	r3, r3, #5
 505:generated/events_init.c **** 			ser3->hidden = L3_flag;
 342              		.loc 1 505 12 view .LVU77
 343 0022 1370     		strb	r3, [r2]
 506:generated/events_init.c **** 		}
 344              		.loc 1 506 4 is_stmt 1 view .LVU78
 506:generated/events_init.c **** 		}
 345              		.loc 1 506 8 is_stmt 0 view .LVU79
 346 0024 0B4A     		ldr	r2, .L39+8
 347 0026 1268     		ldr	r2, [r2]
 506:generated/events_init.c **** 		}
 348              		.loc 1 506 17 view .LVU80
 349 0028 117B     		ldrb	r1, [r2, #12]	@ zero_extendqisi2
 350 002a 63F30001 		bfi	r1, r3, #0, #1
 351 002e 1173     		strb	r1, [r2, #12]
 513:generated/events_init.c **** static void wave_model_btn_5_event_handler(lv_event_t *e) // LN
 352              		.loc 1 513 1 view .LVU81
 353 0030 EBE7     		b	.L33
 354              	.L38:
 499:generated/events_init.c **** 			ser3_I->hidden = L3_I_flag;
 355              		.loc 1 499 4 is_stmt 1 view .LVU82
 499:generated/events_init.c **** 			ser3_I->hidden = L3_I_flag;
 356              		.loc 1 499 16 is_stmt 0 view .LVU83
 357 0032 094A     		ldr	r2, .L39+12
 358 0034 1378     		ldrb	r3, [r2]	@ zero_extendqisi2
 359 0036 B3FA83F3 		clz	r3, r3
 360 003a 5B09     		lsrs	r3, r3, #5
 499:generated/events_init.c **** 			ser3_I->hidden = L3_I_flag;
 361              		.loc 1 499 14 view .LVU84
 362 003c 1370     		strb	r3, [r2]
 500:generated/events_init.c **** 		}
 363              		.loc 1 500 4 is_stmt 1 view .LVU85
 500:generated/events_init.c **** 		}
 364              		.loc 1 500 10 is_stmt 0 view .LVU86
 365 003e 074A     		ldr	r2, .L39+16
 366 0040 1268     		ldr	r2, [r2]
 500:generated/events_init.c **** 		}
 367              		.loc 1 500 19 view .LVU87
 368 0042 117B     		ldrb	r1, [r2, #12]	@ zero_extendqisi2
 369 0044 63F30001 		bfi	r1, r3, #0, #1
 370 0048 1173     		strb	r1, [r2, #12]
 371 004a DEE7     		b	.L33
 372              	.L40:
 373              		.align	2
 374              	.L39:
 375 004c 00000000 		.word	V_I_flag
 376 0050 00000000 		.word	L3_flag
 377 0054 00000000 		.word	ser3
 378 0058 00000000 		.word	L3_I_flag
 379 005c 00000000 		.word	ser3_I
 380              		.cfi_endproc
 381              	.LFE582:
 383              		.section	.text.wave_model_btn_3_event_handler,"ax",%progbits
 384              		.align	1
 385              		.syntax unified
 386              		.thumb
 387              		.thumb_func
ARM GAS  C:\usertemp\ccV6J5ed.s 			page 21


 389              	wave_model_btn_3_event_handler:
 390              	.LVL12:
 391              	.LFB581:
 464:generated/events_init.c **** 	lv_event_code_t code = lv_event_get_code(e);
 392              		.loc 1 464 1 is_stmt 1 view -0
 393              		.cfi_startproc
 394              		@ args = 0, pretend = 0, frame = 0
 395              		@ frame_needed = 0, uses_anonymous_args = 0
 464:generated/events_init.c **** 	lv_event_code_t code = lv_event_get_code(e);
 396              		.loc 1 464 1 is_stmt 0 view .LVU89
 397 0000 08B5     		push	{r3, lr}
 398              	.LCFI6:
 399              		.cfi_def_cfa_offset 8
 400              		.cfi_offset 3, -8
 401              		.cfi_offset 14, -4
 465:generated/events_init.c **** 
 402              		.loc 1 465 2 is_stmt 1 view .LVU90
 465:generated/events_init.c **** 
 403              		.loc 1 465 25 is_stmt 0 view .LVU91
 404 0002 FFF7FEFF 		bl	lv_event_get_code
 405              	.LVL13:
 467:generated/events_init.c **** 	{
 406              		.loc 1 467 2 is_stmt 1 view .LVU92
 407 0006 0728     		cmp	r0, #7
 408 0008 00D0     		beq	.L45
 409              	.L41:
 488:generated/events_init.c **** static void wave_model_btn_4_event_handler(lv_event_t *e) // L3
 410              		.loc 1 488 1 is_stmt 0 view .LVU93
 411 000a 08BD     		pop	{r3, pc}
 412              	.L45:
 471:generated/events_init.c **** 		{
 413              		.loc 1 471 3 is_stmt 1 view .LVU94
 471:generated/events_init.c **** 		{
 414              		.loc 1 471 16 is_stmt 0 view .LVU95
 415 000c 0F4B     		ldr	r3, .L47
 416 000e 1B78     		ldrb	r3, [r3]	@ zero_extendqisi2
 471:generated/events_init.c **** 		{
 417              		.loc 1 471 6 view .LVU96
 418 0010 012B     		cmp	r3, #1
 419 0012 0ED0     		beq	.L46
 477:generated/events_init.c **** 		{
 420              		.loc 1 477 8 is_stmt 1 view .LVU97
 477:generated/events_init.c **** 		{
 421              		.loc 1 477 11 is_stmt 0 view .LVU98
 422 0014 002B     		cmp	r3, #0
 423 0016 F8D1     		bne	.L41
 479:generated/events_init.c **** 			ser2->hidden = L2_flag;
 424              		.loc 1 479 4 is_stmt 1 view .LVU99
 479:generated/events_init.c **** 			ser2->hidden = L2_flag;
 425              		.loc 1 479 14 is_stmt 0 view .LVU100
 426 0018 0D4A     		ldr	r2, .L47+4
 427 001a 1378     		ldrb	r3, [r2]	@ zero_extendqisi2
 428 001c B3FA83F3 		clz	r3, r3
 429 0020 5B09     		lsrs	r3, r3, #5
 479:generated/events_init.c **** 			ser2->hidden = L2_flag;
 430              		.loc 1 479 12 view .LVU101
 431 0022 1370     		strb	r3, [r2]
ARM GAS  C:\usertemp\ccV6J5ed.s 			page 22


 480:generated/events_init.c **** 		}
 432              		.loc 1 480 4 is_stmt 1 view .LVU102
 480:generated/events_init.c **** 		}
 433              		.loc 1 480 8 is_stmt 0 view .LVU103
 434 0024 0B4A     		ldr	r2, .L47+8
 435 0026 1268     		ldr	r2, [r2]
 480:generated/events_init.c **** 		}
 436              		.loc 1 480 17 view .LVU104
 437 0028 117B     		ldrb	r1, [r2, #12]	@ zero_extendqisi2
 438 002a 63F30001 		bfi	r1, r3, #0, #1
 439 002e 1173     		strb	r1, [r2, #12]
 488:generated/events_init.c **** static void wave_model_btn_4_event_handler(lv_event_t *e) // L3
 440              		.loc 1 488 1 view .LVU105
 441 0030 EBE7     		b	.L41
 442              	.L46:
 473:generated/events_init.c **** 			ser2_I->hidden = L2_I_flag;
 443              		.loc 1 473 4 is_stmt 1 view .LVU106
 473:generated/events_init.c **** 			ser2_I->hidden = L2_I_flag;
 444              		.loc 1 473 16 is_stmt 0 view .LVU107
 445 0032 094A     		ldr	r2, .L47+12
 446 0034 1378     		ldrb	r3, [r2]	@ zero_extendqisi2
 447 0036 B3FA83F3 		clz	r3, r3
 448 003a 5B09     		lsrs	r3, r3, #5
 473:generated/events_init.c **** 			ser2_I->hidden = L2_I_flag;
 449              		.loc 1 473 14 view .LVU108
 450 003c 1370     		strb	r3, [r2]
 474:generated/events_init.c **** 		}
 451              		.loc 1 474 4 is_stmt 1 view .LVU109
 474:generated/events_init.c **** 		}
 452              		.loc 1 474 10 is_stmt 0 view .LVU110
 453 003e 074A     		ldr	r2, .L47+16
 454 0040 1268     		ldr	r2, [r2]
 474:generated/events_init.c **** 		}
 455              		.loc 1 474 19 view .LVU111
 456 0042 117B     		ldrb	r1, [r2, #12]	@ zero_extendqisi2
 457 0044 63F30001 		bfi	r1, r3, #0, #1
 458 0048 1173     		strb	r1, [r2, #12]
 459 004a DEE7     		b	.L41
 460              	.L48:
 461              		.align	2
 462              	.L47:
 463 004c 00000000 		.word	V_I_flag
 464 0050 00000000 		.word	L2_flag
 465 0054 00000000 		.word	ser2
 466 0058 00000000 		.word	L2_I_flag
 467 005c 00000000 		.word	ser2_I
 468              		.cfi_endproc
 469              	.LFE581:
 471              		.section	.rodata.wave_model_btn_2_event_handler.str1.4,"aMS",%progbits,1
 472              		.align	2
 473              	.LC0:
 474 0000 4900     		.ascii	"I\000"
 475 0002 0000     		.align	2
 476              	.LC1:
 477 0004 5600     		.ascii	"V\000"
 478              		.section	.text.wave_model_btn_2_event_handler,"ax",%progbits
 479              		.align	1
ARM GAS  C:\usertemp\ccV6J5ed.s 			page 23


 480              		.syntax unified
 481              		.thumb
 482              		.thumb_func
 484              	wave_model_btn_2_event_handler:
 485              	.LVL14:
 486              	.LFB577:
 340:generated/events_init.c **** 	lv_event_code_t code = lv_event_get_code(e);
 487              		.loc 1 340 1 is_stmt 1 view -0
 488              		.cfi_startproc
 489              		@ args = 0, pretend = 0, frame = 0
 490              		@ frame_needed = 0, uses_anonymous_args = 0
 340:generated/events_init.c **** 	lv_event_code_t code = lv_event_get_code(e);
 491              		.loc 1 340 1 is_stmt 0 view .LVU113
 492 0000 08B5     		push	{r3, lr}
 493              	.LCFI7:
 494              		.cfi_def_cfa_offset 8
 495              		.cfi_offset 3, -8
 496              		.cfi_offset 14, -4
 341:generated/events_init.c **** 
 497              		.loc 1 341 2 is_stmt 1 view .LVU114
 341:generated/events_init.c **** 
 498              		.loc 1 341 25 is_stmt 0 view .LVU115
 499 0002 FFF7FEFF 		bl	lv_event_get_code
 500              	.LVL15:
 343:generated/events_init.c **** 	{
 501              		.loc 1 343 2 is_stmt 1 view .LVU116
 502 0006 0728     		cmp	r0, #7
 503 0008 00D0     		beq	.L53
 504              	.LVL16:
 505              	.L49:
 397:generated/events_init.c **** static void wave_model_btn_7_event_handler(lv_event_t *e)
 506              		.loc 1 397 1 is_stmt 0 view .LVU117
 507 000a 08BD     		pop	{r3, pc}
 508              	.LVL17:
 509              	.L53:
 347:generated/events_init.c **** 		if (V_I_flag == 1)
 510              		.loc 1 347 3 is_stmt 1 view .LVU118
 347:generated/events_init.c **** 		if (V_I_flag == 1)
 511              		.loc 1 347 14 is_stmt 0 view .LVU119
 512 000c 4B4A     		ldr	r2, .L55
 513 000e 1378     		ldrb	r3, [r2]	@ zero_extendqisi2
 514 0010 B3FA83F3 		clz	r3, r3
 515 0014 5B09     		lsrs	r3, r3, #5
 347:generated/events_init.c **** 		if (V_I_flag == 1)
 516              		.loc 1 347 12 view .LVU120
 517 0016 1370     		strb	r3, [r2]
 348:generated/events_init.c **** 		{ // 显示电流
 518              		.loc 1 348 3 is_stmt 1 view .LVU121
 348:generated/events_init.c **** 		{ // 显示电流
 519              		.loc 1 348 6 is_stmt 0 view .LVU122
 520 0018 002B     		cmp	r3, #0
 521 001a 47D1     		bne	.L54
 373:generated/events_init.c **** 			ser1->hidden = 0;
 522              		.loc 1 373 4 is_stmt 1 view .LVU123
 523 001c 4849     		ldr	r1, .L55+4
 524 001e 494B     		ldr	r3, .L55+8
 525 0020 D869     		ldr	r0, [r3, #28]
ARM GAS  C:\usertemp\ccV6J5ed.s 			page 24


 526              	.LVL18:
 373:generated/events_init.c **** 			ser1->hidden = 0;
 527              		.loc 1 373 4 is_stmt 0 view .LVU124
 528 0022 FFF7FEFF 		bl	lv_label_set_text
 529              	.LVL19:
 374:generated/events_init.c **** 			ser2->hidden = 0;
 530              		.loc 1 374 4 is_stmt 1 view .LVU125
 374:generated/events_init.c **** 			ser2->hidden = 0;
 531              		.loc 1 374 8 is_stmt 0 view .LVU126
 532 0026 484B     		ldr	r3, .L55+12
 533 0028 1A68     		ldr	r2, [r3]
 374:generated/events_init.c **** 			ser2->hidden = 0;
 534              		.loc 1 374 17 view .LVU127
 535 002a 137B     		ldrb	r3, [r2, #12]	@ zero_extendqisi2
 536 002c 23F00103 		bic	r3, r3, #1
 537 0030 1373     		strb	r3, [r2, #12]
 375:generated/events_init.c **** 			ser3->hidden = 0;
 538              		.loc 1 375 4 is_stmt 1 view .LVU128
 375:generated/events_init.c **** 			ser3->hidden = 0;
 539              		.loc 1 375 8 is_stmt 0 view .LVU129
 540 0032 464B     		ldr	r3, .L55+16
 541 0034 1A68     		ldr	r2, [r3]
 375:generated/events_init.c **** 			ser3->hidden = 0;
 542              		.loc 1 375 17 view .LVU130
 543 0036 137B     		ldrb	r3, [r2, #12]	@ zero_extendqisi2
 544 0038 23F00103 		bic	r3, r3, #1
 545 003c 1373     		strb	r3, [r2, #12]
 376:generated/events_init.c **** 			serN->hidden = 0;
 546              		.loc 1 376 4 is_stmt 1 view .LVU131
 376:generated/events_init.c **** 			serN->hidden = 0;
 547              		.loc 1 376 8 is_stmt 0 view .LVU132
 548 003e 444B     		ldr	r3, .L55+20
 549 0040 1A68     		ldr	r2, [r3]
 376:generated/events_init.c **** 			serN->hidden = 0;
 550              		.loc 1 376 17 view .LVU133
 551 0042 137B     		ldrb	r3, [r2, #12]	@ zero_extendqisi2
 552 0044 23F00103 		bic	r3, r3, #1
 553 0048 1373     		strb	r3, [r2, #12]
 377:generated/events_init.c **** 			L2_flag = 0;
 554              		.loc 1 377 4 is_stmt 1 view .LVU134
 377:generated/events_init.c **** 			L2_flag = 0;
 555              		.loc 1 377 8 is_stmt 0 view .LVU135
 556 004a 424B     		ldr	r3, .L55+24
 557 004c 1A68     		ldr	r2, [r3]
 377:generated/events_init.c **** 			L2_flag = 0;
 558              		.loc 1 377 17 view .LVU136
 559 004e 137B     		ldrb	r3, [r2, #12]	@ zero_extendqisi2
 560 0050 23F00103 		bic	r3, r3, #1
 561 0054 1373     		strb	r3, [r2, #12]
 378:generated/events_init.c **** 			L1_flag = 0;
 562              		.loc 1 378 4 is_stmt 1 view .LVU137
 378:generated/events_init.c **** 			L1_flag = 0;
 563              		.loc 1 378 12 is_stmt 0 view .LVU138
 564 0056 0023     		movs	r3, #0
 565 0058 3F4A     		ldr	r2, .L55+28
 566 005a 1370     		strb	r3, [r2]
 379:generated/events_init.c **** 			L3_flag = 0;
ARM GAS  C:\usertemp\ccV6J5ed.s 			page 25


 567              		.loc 1 379 4 is_stmt 1 view .LVU139
 379:generated/events_init.c **** 			L3_flag = 0;
 568              		.loc 1 379 12 is_stmt 0 view .LVU140
 569 005c 3F4A     		ldr	r2, .L55+32
 570 005e 1370     		strb	r3, [r2]
 380:generated/events_init.c **** 			LN_flag = 0;
 571              		.loc 1 380 4 is_stmt 1 view .LVU141
 380:generated/events_init.c **** 			LN_flag = 0;
 572              		.loc 1 380 12 is_stmt 0 view .LVU142
 573 0060 3F4A     		ldr	r2, .L55+36
 574 0062 1370     		strb	r3, [r2]
 381:generated/events_init.c **** 
 575              		.loc 1 381 4 is_stmt 1 view .LVU143
 381:generated/events_init.c **** 
 576              		.loc 1 381 12 is_stmt 0 view .LVU144
 577 0064 3F4A     		ldr	r2, .L55+40
 578 0066 1370     		strb	r3, [r2]
 383:generated/events_init.c **** 			ser2_I->hidden = 1;
 579              		.loc 1 383 4 is_stmt 1 view .LVU145
 383:generated/events_init.c **** 			ser2_I->hidden = 1;
 580              		.loc 1 383 10 is_stmt 0 view .LVU146
 581 0068 3F4B     		ldr	r3, .L55+44
 582 006a 1A68     		ldr	r2, [r3]
 383:generated/events_init.c **** 			ser2_I->hidden = 1;
 583              		.loc 1 383 19 view .LVU147
 584 006c 137B     		ldrb	r3, [r2, #12]	@ zero_extendqisi2
 585 006e 43F00103 		orr	r3, r3, #1
 586 0072 1373     		strb	r3, [r2, #12]
 384:generated/events_init.c **** 			ser3_I->hidden = 1;
 587              		.loc 1 384 4 is_stmt 1 view .LVU148
 384:generated/events_init.c **** 			ser3_I->hidden = 1;
 588              		.loc 1 384 10 is_stmt 0 view .LVU149
 589 0074 3D4B     		ldr	r3, .L55+48
 590 0076 1A68     		ldr	r2, [r3]
 384:generated/events_init.c **** 			ser3_I->hidden = 1;
 591              		.loc 1 384 19 view .LVU150
 592 0078 137B     		ldrb	r3, [r2, #12]	@ zero_extendqisi2
 593 007a 43F00103 		orr	r3, r3, #1
 594 007e 1373     		strb	r3, [r2, #12]
 385:generated/events_init.c **** 			serN_I->hidden = 1;
 595              		.loc 1 385 4 is_stmt 1 view .LVU151
 385:generated/events_init.c **** 			serN_I->hidden = 1;
 596              		.loc 1 385 10 is_stmt 0 view .LVU152
 597 0080 3B4B     		ldr	r3, .L55+52
 598 0082 1A68     		ldr	r2, [r3]
 385:generated/events_init.c **** 			serN_I->hidden = 1;
 599              		.loc 1 385 19 view .LVU153
 600 0084 137B     		ldrb	r3, [r2, #12]	@ zero_extendqisi2
 601 0086 43F00103 		orr	r3, r3, #1
 602 008a 1373     		strb	r3, [r2, #12]
 386:generated/events_init.c **** 			L2_I_flag = 1;
 603              		.loc 1 386 4 is_stmt 1 view .LVU154
 386:generated/events_init.c **** 			L2_I_flag = 1;
 604              		.loc 1 386 10 is_stmt 0 view .LVU155
 605 008c 394B     		ldr	r3, .L55+56
 606 008e 1A68     		ldr	r2, [r3]
 386:generated/events_init.c **** 			L2_I_flag = 1;
ARM GAS  C:\usertemp\ccV6J5ed.s 			page 26


 607              		.loc 1 386 19 view .LVU156
 608 0090 137B     		ldrb	r3, [r2, #12]	@ zero_extendqisi2
 609 0092 43F00103 		orr	r3, r3, #1
 610 0096 1373     		strb	r3, [r2, #12]
 387:generated/events_init.c **** 			L1_I_flag = 1;
 611              		.loc 1 387 4 is_stmt 1 view .LVU157
 387:generated/events_init.c **** 			L1_I_flag = 1;
 612              		.loc 1 387 14 is_stmt 0 view .LVU158
 613 0098 0123     		movs	r3, #1
 614 009a 374A     		ldr	r2, .L55+60
 615 009c 1370     		strb	r3, [r2]
 388:generated/events_init.c **** 			L3_I_flag = 1;
 616              		.loc 1 388 4 is_stmt 1 view .LVU159
 388:generated/events_init.c **** 			L3_I_flag = 1;
 617              		.loc 1 388 14 is_stmt 0 view .LVU160
 618 009e 374A     		ldr	r2, .L55+64
 619 00a0 1370     		strb	r3, [r2]
 389:generated/events_init.c **** 			LN_I_flag = 1;
 620              		.loc 1 389 4 is_stmt 1 view .LVU161
 389:generated/events_init.c **** 			LN_I_flag = 1;
 621              		.loc 1 389 14 is_stmt 0 view .LVU162
 622 00a2 374A     		ldr	r2, .L55+68
 623 00a4 1370     		strb	r3, [r2]
 390:generated/events_init.c **** 		}
 624              		.loc 1 390 4 is_stmt 1 view .LVU163
 390:generated/events_init.c **** 		}
 625              		.loc 1 390 14 is_stmt 0 view .LVU164
 626 00a6 374A     		ldr	r2, .L55+72
 627 00a8 1370     		strb	r3, [r2]
 397:generated/events_init.c **** static void wave_model_btn_7_event_handler(lv_event_t *e)
 628              		.loc 1 397 1 view .LVU165
 629 00aa AEE7     		b	.L49
 630              	.LVL20:
 631              	.L54:
 350:generated/events_init.c **** 			ser2_I->hidden = 0;
 632              		.loc 1 350 4 is_stmt 1 view .LVU166
 350:generated/events_init.c **** 			ser2_I->hidden = 0;
 633              		.loc 1 350 10 is_stmt 0 view .LVU167
 634 00ac 2E4B     		ldr	r3, .L55+44
 635 00ae 1A68     		ldr	r2, [r3]
 350:generated/events_init.c **** 			ser2_I->hidden = 0;
 636              		.loc 1 350 19 view .LVU168
 637 00b0 137B     		ldrb	r3, [r2, #12]	@ zero_extendqisi2
 638 00b2 23F00103 		bic	r3, r3, #1
 639 00b6 1373     		strb	r3, [r2, #12]
 351:generated/events_init.c **** 			ser3_I->hidden = 0;
 640              		.loc 1 351 4 is_stmt 1 view .LVU169
 351:generated/events_init.c **** 			ser3_I->hidden = 0;
 641              		.loc 1 351 10 is_stmt 0 view .LVU170
 642 00b8 2C4B     		ldr	r3, .L55+48
 643 00ba 1A68     		ldr	r2, [r3]
 351:generated/events_init.c **** 			ser3_I->hidden = 0;
 644              		.loc 1 351 19 view .LVU171
 645 00bc 137B     		ldrb	r3, [r2, #12]	@ zero_extendqisi2
 646 00be 23F00103 		bic	r3, r3, #1
 647 00c2 1373     		strb	r3, [r2, #12]
 352:generated/events_init.c **** 			serN_I->hidden = 0;
ARM GAS  C:\usertemp\ccV6J5ed.s 			page 27


 648              		.loc 1 352 4 is_stmt 1 view .LVU172
 352:generated/events_init.c **** 			serN_I->hidden = 0;
 649              		.loc 1 352 10 is_stmt 0 view .LVU173
 650 00c4 2A4B     		ldr	r3, .L55+52
 651 00c6 1A68     		ldr	r2, [r3]
 352:generated/events_init.c **** 			serN_I->hidden = 0;
 652              		.loc 1 352 19 view .LVU174
 653 00c8 137B     		ldrb	r3, [r2, #12]	@ zero_extendqisi2
 654 00ca 23F00103 		bic	r3, r3, #1
 655 00ce 1373     		strb	r3, [r2, #12]
 353:generated/events_init.c **** 			L2_I_flag = 0;
 656              		.loc 1 353 4 is_stmt 1 view .LVU175
 353:generated/events_init.c **** 			L2_I_flag = 0;
 657              		.loc 1 353 10 is_stmt 0 view .LVU176
 658 00d0 284B     		ldr	r3, .L55+56
 659 00d2 1A68     		ldr	r2, [r3]
 353:generated/events_init.c **** 			L2_I_flag = 0;
 660              		.loc 1 353 19 view .LVU177
 661 00d4 137B     		ldrb	r3, [r2, #12]	@ zero_extendqisi2
 662 00d6 23F00103 		bic	r3, r3, #1
 663 00da 1373     		strb	r3, [r2, #12]
 354:generated/events_init.c **** 			L1_I_flag = 0;
 664              		.loc 1 354 4 is_stmt 1 view .LVU178
 354:generated/events_init.c **** 			L1_I_flag = 0;
 665              		.loc 1 354 14 is_stmt 0 view .LVU179
 666 00dc 0023     		movs	r3, #0
 667 00de 264A     		ldr	r2, .L55+60
 668 00e0 1370     		strb	r3, [r2]
 355:generated/events_init.c **** 			L3_I_flag = 0;
 669              		.loc 1 355 4 is_stmt 1 view .LVU180
 355:generated/events_init.c **** 			L3_I_flag = 0;
 670              		.loc 1 355 14 is_stmt 0 view .LVU181
 671 00e2 264A     		ldr	r2, .L55+64
 672 00e4 1370     		strb	r3, [r2]
 356:generated/events_init.c **** 			LN_I_flag = 0;
 673              		.loc 1 356 4 is_stmt 1 view .LVU182
 356:generated/events_init.c **** 			LN_I_flag = 0;
 674              		.loc 1 356 14 is_stmt 0 view .LVU183
 675 00e6 264A     		ldr	r2, .L55+68
 676 00e8 1370     		strb	r3, [r2]
 357:generated/events_init.c **** 
 677              		.loc 1 357 4 is_stmt 1 view .LVU184
 357:generated/events_init.c **** 
 678              		.loc 1 357 14 is_stmt 0 view .LVU185
 679 00ea 264A     		ldr	r2, .L55+72
 680 00ec 1370     		strb	r3, [r2]
 359:generated/events_init.c **** 			ser2->hidden = 1;
 681              		.loc 1 359 4 is_stmt 1 view .LVU186
 359:generated/events_init.c **** 			ser2->hidden = 1;
 682              		.loc 1 359 8 is_stmt 0 view .LVU187
 683 00ee 164B     		ldr	r3, .L55+12
 684 00f0 1A68     		ldr	r2, [r3]
 359:generated/events_init.c **** 			ser2->hidden = 1;
 685              		.loc 1 359 17 view .LVU188
 686 00f2 137B     		ldrb	r3, [r2, #12]	@ zero_extendqisi2
 687 00f4 43F00103 		orr	r3, r3, #1
 688 00f8 1373     		strb	r3, [r2, #12]
ARM GAS  C:\usertemp\ccV6J5ed.s 			page 28


 360:generated/events_init.c **** 			ser3->hidden = 1;
 689              		.loc 1 360 4 is_stmt 1 view .LVU189
 360:generated/events_init.c **** 			ser3->hidden = 1;
 690              		.loc 1 360 8 is_stmt 0 view .LVU190
 691 00fa 144B     		ldr	r3, .L55+16
 692 00fc 1A68     		ldr	r2, [r3]
 360:generated/events_init.c **** 			ser3->hidden = 1;
 693              		.loc 1 360 17 view .LVU191
 694 00fe 137B     		ldrb	r3, [r2, #12]	@ zero_extendqisi2
 695 0100 43F00103 		orr	r3, r3, #1
 696 0104 1373     		strb	r3, [r2, #12]
 361:generated/events_init.c **** 			serN->hidden = 1;
 697              		.loc 1 361 4 is_stmt 1 view .LVU192
 361:generated/events_init.c **** 			serN->hidden = 1;
 698              		.loc 1 361 8 is_stmt 0 view .LVU193
 699 0106 124B     		ldr	r3, .L55+20
 700 0108 1A68     		ldr	r2, [r3]
 361:generated/events_init.c **** 			serN->hidden = 1;
 701              		.loc 1 361 17 view .LVU194
 702 010a 137B     		ldrb	r3, [r2, #12]	@ zero_extendqisi2
 703 010c 43F00103 		orr	r3, r3, #1
 704 0110 1373     		strb	r3, [r2, #12]
 362:generated/events_init.c **** 			L2_flag = 1;
 705              		.loc 1 362 4 is_stmt 1 view .LVU195
 362:generated/events_init.c **** 			L2_flag = 1;
 706              		.loc 1 362 8 is_stmt 0 view .LVU196
 707 0112 104B     		ldr	r3, .L55+24
 708 0114 1A68     		ldr	r2, [r3]
 362:generated/events_init.c **** 			L2_flag = 1;
 709              		.loc 1 362 17 view .LVU197
 710 0116 137B     		ldrb	r3, [r2, #12]	@ zero_extendqisi2
 711 0118 43F00103 		orr	r3, r3, #1
 712 011c 1373     		strb	r3, [r2, #12]
 363:generated/events_init.c **** 			L1_flag = 1;
 713              		.loc 1 363 4 is_stmt 1 view .LVU198
 363:generated/events_init.c **** 			L1_flag = 1;
 714              		.loc 1 363 12 is_stmt 0 view .LVU199
 715 011e 0123     		movs	r3, #1
 716 0120 0D4A     		ldr	r2, .L55+28
 717 0122 1370     		strb	r3, [r2]
 364:generated/events_init.c **** 			L3_flag = 1;
 718              		.loc 1 364 4 is_stmt 1 view .LVU200
 364:generated/events_init.c **** 			L3_flag = 1;
 719              		.loc 1 364 12 is_stmt 0 view .LVU201
 720 0124 0D4A     		ldr	r2, .L55+32
 721 0126 1370     		strb	r3, [r2]
 365:generated/events_init.c **** 			LN_flag = 1;
 722              		.loc 1 365 4 is_stmt 1 view .LVU202
 365:generated/events_init.c **** 			LN_flag = 1;
 723              		.loc 1 365 12 is_stmt 0 view .LVU203
 724 0128 0D4A     		ldr	r2, .L55+36
 725 012a 1370     		strb	r3, [r2]
 366:generated/events_init.c **** 
 726              		.loc 1 366 4 is_stmt 1 view .LVU204
 366:generated/events_init.c **** 
 727              		.loc 1 366 12 is_stmt 0 view .LVU205
 728 012c 0D4A     		ldr	r2, .L55+40
ARM GAS  C:\usertemp\ccV6J5ed.s 			page 29


 729 012e 1370     		strb	r3, [r2]
 368:generated/events_init.c **** 		}
 730              		.loc 1 368 4 is_stmt 1 view .LVU206
 731 0130 1549     		ldr	r1, .L55+76
 732 0132 044B     		ldr	r3, .L55+8
 733 0134 D869     		ldr	r0, [r3, #28]
 734              	.LVL21:
 368:generated/events_init.c **** 		}
 735              		.loc 1 368 4 is_stmt 0 view .LVU207
 736 0136 FFF7FEFF 		bl	lv_label_set_text
 737              	.LVL22:
 738 013a 66E7     		b	.L49
 739              	.L56:
 740              		.align	2
 741              	.L55:
 742 013c 00000000 		.word	V_I_flag
 743 0140 04000000 		.word	.LC1
 744 0144 00000000 		.word	guider_ui
 745 0148 00000000 		.word	ser1
 746 014c 00000000 		.word	ser2
 747 0150 00000000 		.word	ser3
 748 0154 00000000 		.word	serN
 749 0158 00000000 		.word	L2_flag
 750 015c 00000000 		.word	L1_flag
 751 0160 00000000 		.word	L3_flag
 752 0164 00000000 		.word	LN_flag
 753 0168 00000000 		.word	ser1_I
 754 016c 00000000 		.word	ser2_I
 755 0170 00000000 		.word	ser3_I
 756 0174 00000000 		.word	serN_I
 757 0178 00000000 		.word	L2_I_flag
 758 017c 00000000 		.word	L1_I_flag
 759 0180 00000000 		.word	L3_I_flag
 760 0184 00000000 		.word	LN_I_flag
 761 0188 00000000 		.word	.LC0
 762              		.cfi_endproc
 763              	.LFE577:
 765              		.section	.text.wave_model_btn_1_event_handler,"ax",%progbits
 766              		.align	1
 767              		.syntax unified
 768              		.thumb
 769              		.thumb_func
 771              	wave_model_btn_1_event_handler:
 772              	.LVL23:
 773              	.LFB580:
 438:generated/events_init.c **** 	lv_event_code_t code = lv_event_get_code(e);
 774              		.loc 1 438 1 is_stmt 1 view -0
 775              		.cfi_startproc
 776              		@ args = 0, pretend = 0, frame = 0
 777              		@ frame_needed = 0, uses_anonymous_args = 0
 438:generated/events_init.c **** 	lv_event_code_t code = lv_event_get_code(e);
 778              		.loc 1 438 1 is_stmt 0 view .LVU209
 779 0000 08B5     		push	{r3, lr}
 780              	.LCFI8:
 781              		.cfi_def_cfa_offset 8
 782              		.cfi_offset 3, -8
 783              		.cfi_offset 14, -4
ARM GAS  C:\usertemp\ccV6J5ed.s 			page 30


 439:generated/events_init.c **** 
 784              		.loc 1 439 2 is_stmt 1 view .LVU210
 439:generated/events_init.c **** 
 785              		.loc 1 439 25 is_stmt 0 view .LVU211
 786 0002 FFF7FEFF 		bl	lv_event_get_code
 787              	.LVL24:
 441:generated/events_init.c **** 	{
 788              		.loc 1 441 2 is_stmt 1 view .LVU212
 789 0006 0728     		cmp	r0, #7
 790 0008 00D0     		beq	.L61
 791              	.L57:
 462:generated/events_init.c **** static void wave_model_btn_3_event_handler(lv_event_t *e) // L2
 792              		.loc 1 462 1 is_stmt 0 view .LVU213
 793 000a 08BD     		pop	{r3, pc}
 794              	.L61:
 445:generated/events_init.c **** 		{
 795              		.loc 1 445 3 is_stmt 1 view .LVU214
 445:generated/events_init.c **** 		{
 796              		.loc 1 445 16 is_stmt 0 view .LVU215
 797 000c 0F4B     		ldr	r3, .L63
 798 000e 1B78     		ldrb	r3, [r3]	@ zero_extendqisi2
 445:generated/events_init.c **** 		{
 799              		.loc 1 445 6 view .LVU216
 800 0010 012B     		cmp	r3, #1
 801 0012 0ED0     		beq	.L62
 451:generated/events_init.c **** 		{
 802              		.loc 1 451 8 is_stmt 1 view .LVU217
 451:generated/events_init.c **** 		{
 803              		.loc 1 451 11 is_stmt 0 view .LVU218
 804 0014 002B     		cmp	r3, #0
 805 0016 F8D1     		bne	.L57
 453:generated/events_init.c **** 			ser1->hidden = L1_flag;
 806              		.loc 1 453 4 is_stmt 1 view .LVU219
 453:generated/events_init.c **** 			ser1->hidden = L1_flag;
 807              		.loc 1 453 14 is_stmt 0 view .LVU220
 808 0018 0D4A     		ldr	r2, .L63+4
 809 001a 1378     		ldrb	r3, [r2]	@ zero_extendqisi2
 810 001c B3FA83F3 		clz	r3, r3
 811 0020 5B09     		lsrs	r3, r3, #5
 453:generated/events_init.c **** 			ser1->hidden = L1_flag;
 812              		.loc 1 453 12 view .LVU221
 813 0022 1370     		strb	r3, [r2]
 454:generated/events_init.c **** 		}
 814              		.loc 1 454 4 is_stmt 1 view .LVU222
 454:generated/events_init.c **** 		}
 815              		.loc 1 454 8 is_stmt 0 view .LVU223
 816 0024 0B4A     		ldr	r2, .L63+8
 817 0026 1268     		ldr	r2, [r2]
 454:generated/events_init.c **** 		}
 818              		.loc 1 454 17 view .LVU224
 819 0028 117B     		ldrb	r1, [r2, #12]	@ zero_extendqisi2
 820 002a 63F30001 		bfi	r1, r3, #0, #1
 821 002e 1173     		strb	r1, [r2, #12]
 462:generated/events_init.c **** static void wave_model_btn_3_event_handler(lv_event_t *e) // L2
 822              		.loc 1 462 1 view .LVU225
 823 0030 EBE7     		b	.L57
 824              	.L62:
ARM GAS  C:\usertemp\ccV6J5ed.s 			page 31


 447:generated/events_init.c **** 			ser1_I->hidden = L1_I_flag;
 825              		.loc 1 447 4 is_stmt 1 view .LVU226
 447:generated/events_init.c **** 			ser1_I->hidden = L1_I_flag;
 826              		.loc 1 447 16 is_stmt 0 view .LVU227
 827 0032 094A     		ldr	r2, .L63+12
 828 0034 1378     		ldrb	r3, [r2]	@ zero_extendqisi2
 829 0036 B3FA83F3 		clz	r3, r3
 830 003a 5B09     		lsrs	r3, r3, #5
 447:generated/events_init.c **** 			ser1_I->hidden = L1_I_flag;
 831              		.loc 1 447 14 view .LVU228
 832 003c 1370     		strb	r3, [r2]
 448:generated/events_init.c **** 		}
 833              		.loc 1 448 4 is_stmt 1 view .LVU229
 448:generated/events_init.c **** 		}
 834              		.loc 1 448 10 is_stmt 0 view .LVU230
 835 003e 074A     		ldr	r2, .L63+16
 836 0040 1268     		ldr	r2, [r2]
 448:generated/events_init.c **** 		}
 837              		.loc 1 448 19 view .LVU231
 838 0042 117B     		ldrb	r1, [r2, #12]	@ zero_extendqisi2
 839 0044 63F30001 		bfi	r1, r3, #0, #1
 840 0048 1173     		strb	r1, [r2, #12]
 841 004a DEE7     		b	.L57
 842              	.L64:
 843              		.align	2
 844              	.L63:
 845 004c 00000000 		.word	V_I_flag
 846 0050 00000000 		.word	L1_flag
 847 0054 00000000 		.word	ser1
 848 0058 00000000 		.word	L1_I_flag
 849 005c 00000000 		.word	ser1_I
 850              		.cfi_endproc
 851              	.LFE580:
 853              		.section	.rodata.wave_model_btn_14_event_handler.str1.4,"aMS",%progbits,1
 854              		.align	2
 855              	.LC2:
 856 0000 67656E65 		.ascii	"generated/events_init.c\000"
 856      72617465 
 856      642F6576 
 856      656E7473 
 856      5F696E69 
 857              		.align	2
 858              	.LC3:
 859 0018 66696C65 		.ascii	"file_now >sd_count, set to 0\015\012\000"
 859      5F6E6F77 
 859      203E7364 
 859      5F636F75 
 859      6E742C20 
 860 0037 00       		.align	2
 861              	.LC4:
 862 0038 73657420 		.ascii	"set filenow to %d\000"
 862      66696C65 
 862      6E6F7720 
 862      746F2025 
 862      6400
 863 004a 0000     		.align	2
 864              	.LC5:
ARM GAS  C:\usertemp\ccV6J5ed.s 			page 32


 865 004c 303A7465 		.ascii	"0:test\000"
 865      737400
 866              		.section	.text.wave_model_btn_14_event_handler,"ax",%progbits
 867              		.align	1
 868              		.syntax unified
 869              		.thumb
 870              		.thumb_func
 872              	wave_model_btn_14_event_handler:
 873              	.LVL25:
 874              	.LFB590:
 685:generated/events_init.c **** static void wave_model_btn_14_event_handler(lv_event_t *e) // Y-
 686:generated/events_init.c **** {
 875              		.loc 1 686 1 is_stmt 1 view -0
 876              		.cfi_startproc
 877              		@ args = 0, pretend = 0, frame = 0
 878              		@ frame_needed = 0, uses_anonymous_args = 0
 879              		.loc 1 686 1 is_stmt 0 view .LVU233
 880 0000 10B5     		push	{r4, lr}
 881              	.LCFI9:
 882              		.cfi_def_cfa_offset 8
 883              		.cfi_offset 4, -8
 884              		.cfi_offset 14, -4
 885 0002 82B0     		sub	sp, sp, #8
 886              	.LCFI10:
 887              		.cfi_def_cfa_offset 16
 687:generated/events_init.c **** 	lv_event_code_t code = lv_event_get_code(e);
 888              		.loc 1 687 2 is_stmt 1 view .LVU234
 889              		.loc 1 687 25 is_stmt 0 view .LVU235
 890 0004 FFF7FEFF 		bl	lv_event_get_code
 891              	.LVL26:
 688:generated/events_init.c **** 
 689:generated/events_init.c **** 	switch (code)
 892              		.loc 1 689 2 is_stmt 1 view .LVU236
 893 0008 0728     		cmp	r0, #7
 894 000a 01D0     		beq	.L71
 895              	.LVL27:
 896              	.L65:
 690:generated/events_init.c **** 	{
 691:generated/events_init.c **** 	case LV_EVENT_CLICKED:
 692:generated/events_init.c **** 	{
 693:generated/events_init.c **** 		// taskENTER_CRITICAL();
 694:generated/events_init.c **** 		if (page == 0) // 波形显示模式
 695:generated/events_init.c **** 		{
 696:generated/events_init.c **** 			rat -= 10;
 697:generated/events_init.c **** 		}
 698:generated/events_init.c **** 		else if (page == 1) // 图片模式
 699:generated/events_init.c **** 		{
 700:generated/events_init.c **** 			vTaskSuspendAll();
 701:generated/events_init.c **** 			taskENTER_CRITICAL();
 702:generated/events_init.c **** 			file_now++;
 703:generated/events_init.c **** 			if (file_now > sd_count)
 704:generated/events_init.c **** 			{
 705:generated/events_init.c **** 				LV_LOG_USER("file_now >sd_count, set to 0\r\n");
 706:generated/events_init.c **** 				file_now = 0;
 707:generated/events_init.c **** 			}
 708:generated/events_init.c **** 			LV_LOG_USER("set filenow to %d", file_now);
 709:generated/events_init.c **** 			uint8_t temp = OpenFileByIndex("0:test", file_now);
ARM GAS  C:\usertemp\ccV6J5ed.s 			page 33


 710:generated/events_init.c **** 			if (temp)
 711:generated/events_init.c **** 			{
 712:generated/events_init.c **** 				refersh_lvgl_image(guider_ui.wave_model_img_1);
 713:generated/events_init.c **** 			}
 714:generated/events_init.c **** 			taskEXIT_CRITICAL();
 715:generated/events_init.c **** 			xTaskResumeAll();
 716:generated/events_init.c **** 		}
 717:generated/events_init.c **** 
 718:generated/events_init.c **** 		// taskENTER_CRITICAL();
 719:generated/events_init.c **** 		break;
 720:generated/events_init.c **** 	}
 721:generated/events_init.c **** 	default:
 722:generated/events_init.c **** 		break;
 723:generated/events_init.c **** 	}
 724:generated/events_init.c **** }
 897              		.loc 1 724 1 is_stmt 0 view .LVU237
 898 000c 02B0     		add	sp, sp, #8
 899              	.LCFI11:
 900              		.cfi_remember_state
 901              		.cfi_def_cfa_offset 8
 902              		@ sp needed
 903 000e 10BD     		pop	{r4, pc}
 904              	.LVL28:
 905              	.L71:
 906              	.LCFI12:
 907              		.cfi_restore_state
 694:generated/events_init.c **** 		{
 908              		.loc 1 694 3 is_stmt 1 view .LVU238
 694:generated/events_init.c **** 		{
 909              		.loc 1 694 12 is_stmt 0 view .LVU239
 910 0010 234B     		ldr	r3, .L74
 911 0012 93F90030 		ldrsb	r3, [r3]
 694:generated/events_init.c **** 		{
 912              		.loc 1 694 6 view .LVU240
 913 0016 4BB9     		cbnz	r3, .L67
 696:generated/events_init.c **** 		}
 914              		.loc 1 696 4 is_stmt 1 view .LVU241
 696:generated/events_init.c **** 		}
 915              		.loc 1 696 8 is_stmt 0 view .LVU242
 916 0018 224B     		ldr	r3, .L74+4
 917 001a D3ED007A 		vldr.32	s15, [r3]
 918 001e B2EE047A 		vmov.f32	s14, #1.0e+1
 919 0022 77EEC77A 		vsub.f32	s15, s15, s14
 920 0026 C3ED007A 		vstr.32	s15, [r3]
 921 002a EFE7     		b	.L65
 922              	.L67:
 698:generated/events_init.c **** 		{
 923              		.loc 1 698 8 is_stmt 1 view .LVU243
 698:generated/events_init.c **** 		{
 924              		.loc 1 698 11 is_stmt 0 view .LVU244
 925 002c 012B     		cmp	r3, #1
 926 002e EDD1     		bne	.L65
 927              	.LBB2:
 700:generated/events_init.c **** 			taskENTER_CRITICAL();
 928              		.loc 1 700 4 is_stmt 1 view .LVU245
 929 0030 FFF7FEFF 		bl	vTaskSuspendAll
 930              	.LVL29:
ARM GAS  C:\usertemp\ccV6J5ed.s 			page 34


 701:generated/events_init.c **** 			file_now++;
 931              		.loc 1 701 4 view .LVU246
 932 0034 FFF7FEFF 		bl	vPortEnterCritical
 933              	.LVL30:
 702:generated/events_init.c **** 			if (file_now > sd_count)
 934              		.loc 1 702 4 view .LVU247
 702:generated/events_init.c **** 			if (file_now > sd_count)
 935              		.loc 1 702 12 is_stmt 0 view .LVU248
 936 0038 1B4A     		ldr	r2, .L74+8
 937 003a 1388     		ldrh	r3, [r2]
 938 003c 0133     		adds	r3, r3, #1
 939 003e 1BB2     		sxth	r3, r3
 940 0040 1380     		strh	r3, [r2]	@ movhi
 703:generated/events_init.c **** 			{
 941              		.loc 1 703 4 is_stmt 1 view .LVU249
 703:generated/events_init.c **** 			{
 942              		.loc 1 703 17 is_stmt 0 view .LVU250
 943 0042 1A4A     		ldr	r2, .L74+12
 944 0044 B2F90020 		ldrsh	r2, [r2]
 703:generated/events_init.c **** 			{
 945              		.loc 1 703 7 view .LVU251
 946 0048 9342     		cmp	r3, r2
 947 004a 16DC     		bgt	.L72
 948              	.L68:
 708:generated/events_init.c **** 			uint8_t temp = OpenFileByIndex("0:test", file_now);
 949              		.loc 1 708 4 is_stmt 1 view .LVU252
 950 004c 164C     		ldr	r4, .L74+8
 951 004e B4F90030 		ldrsh	r3, [r4]
 952 0052 0193     		str	r3, [sp, #4]
 953 0054 164B     		ldr	r3, .L74+16
 954 0056 0093     		str	r3, [sp]
 955 0058 164B     		ldr	r3, .L74+20
 956 005a 4FF43172 		mov	r2, #708
 957 005e 1649     		ldr	r1, .L74+24
 958 0060 0420     		movs	r0, #4
 959 0062 FFF7FEFF 		bl	_lv_log_add
 960              	.LVL31:
 709:generated/events_init.c **** 			if (temp)
 961              		.loc 1 709 4 view .LVU253
 709:generated/events_init.c **** 			if (temp)
 962              		.loc 1 709 19 is_stmt 0 view .LVU254
 963 0066 2188     		ldrh	r1, [r4]
 964 0068 1448     		ldr	r0, .L74+28
 965 006a FFF7FEFF 		bl	OpenFileByIndex
 966              	.LVL32:
 710:generated/events_init.c **** 			{
 967              		.loc 1 710 4 is_stmt 1 view .LVU255
 710:generated/events_init.c **** 			{
 968              		.loc 1 710 7 is_stmt 0 view .LVU256
 969 006e 88B9     		cbnz	r0, .L73
 970              	.LVL33:
 971              	.L69:
 714:generated/events_init.c **** 			xTaskResumeAll();
 972              		.loc 1 714 4 is_stmt 1 view .LVU257
 973 0070 FFF7FEFF 		bl	vPortExitCritical
 974              	.LVL34:
 715:generated/events_init.c **** 		}
ARM GAS  C:\usertemp\ccV6J5ed.s 			page 35


 975              		.loc 1 715 4 view .LVU258
 976 0074 FFF7FEFF 		bl	xTaskResumeAll
 977              	.LVL35:
 978              	.LBE2:
 979              		.loc 1 724 1 is_stmt 0 view .LVU259
 980 0078 C8E7     		b	.L65
 981              	.LVL36:
 982              	.L72:
 983              	.LBB3:
 705:generated/events_init.c **** 				file_now = 0;
 984              		.loc 1 705 5 is_stmt 1 view .LVU260
 985 007a 114B     		ldr	r3, .L74+32
 986 007c 0093     		str	r3, [sp]
 987 007e 0D4B     		ldr	r3, .L74+20
 988 0080 40F2C122 		movw	r2, #705
 989 0084 0C49     		ldr	r1, .L74+24
 990 0086 0420     		movs	r0, #4
 991 0088 FFF7FEFF 		bl	_lv_log_add
 992              	.LVL37:
 706:generated/events_init.c **** 			}
 993              		.loc 1 706 5 view .LVU261
 706:generated/events_init.c **** 			}
 994              		.loc 1 706 14 is_stmt 0 view .LVU262
 995 008c 064B     		ldr	r3, .L74+8
 996 008e 0022     		movs	r2, #0
 997 0090 1A80     		strh	r2, [r3]	@ movhi
 998 0092 DBE7     		b	.L68
 999              	.LVL38:
 1000              	.L73:
 712:generated/events_init.c **** 			}
 1001              		.loc 1 712 5 is_stmt 1 view .LVU263
 1002 0094 0B4B     		ldr	r3, .L74+36
 1003 0096 D3F8AC00 		ldr	r0, [r3, #172]
 1004              	.LVL39:
 712:generated/events_init.c **** 			}
 1005              		.loc 1 712 5 is_stmt 0 view .LVU264
 1006 009a FFF7FEFF 		bl	refersh_lvgl_image
 1007              	.LVL40:
 1008 009e E7E7     		b	.L69
 1009              	.L75:
 1010              		.align	2
 1011              	.L74:
 1012 00a0 00000000 		.word	page
 1013 00a4 00000000 		.word	rat
 1014 00a8 00000000 		.word	file_now
 1015 00ac 00000000 		.word	sd_count
 1016 00b0 38000000 		.word	.LC4
 1017 00b4 00000000 		.word	__func__.3
 1018 00b8 00000000 		.word	.LC2
 1019 00bc 4C000000 		.word	.LC5
 1020 00c0 18000000 		.word	.LC3
 1021 00c4 00000000 		.word	guider_ui
 1022              	.LBE3:
 1023              		.cfi_endproc
 1024              	.LFE590:
 1026              		.section	.text.wave_model_event_handler,"ax",%progbits
 1027              		.align	1
ARM GAS  C:\usertemp\ccV6J5ed.s 			page 36


 1028              		.syntax unified
 1029              		.thumb
 1030              		.thumb_func
 1032              	wave_model_event_handler:
 1033              	.LVL41:
 1034              	.LFB576:
 317:generated/events_init.c **** 	lv_event_code_t code = lv_event_get_code(e);
 1035              		.loc 1 317 1 is_stmt 1 view -0
 1036              		.cfi_startproc
 1037              		@ args = 0, pretend = 0, frame = 0
 1038              		@ frame_needed = 0, uses_anonymous_args = 0
 317:generated/events_init.c **** 	lv_event_code_t code = lv_event_get_code(e);
 1039              		.loc 1 317 1 is_stmt 0 view .LVU266
 1040 0000 08B5     		push	{r3, lr}
 1041              	.LCFI13:
 1042              		.cfi_def_cfa_offset 8
 1043              		.cfi_offset 3, -8
 1044              		.cfi_offset 14, -4
 318:generated/events_init.c **** 
 1045              		.loc 1 318 2 is_stmt 1 view .LVU267
 318:generated/events_init.c **** 
 1046              		.loc 1 318 25 is_stmt 0 view .LVU268
 1047 0002 FFF7FEFF 		bl	lv_event_get_code
 1048              	.LVL42:
 320:generated/events_init.c **** 	{
 1049              		.loc 1 320 2 is_stmt 1 view .LVU269
 1050 0006 0C28     		cmp	r0, #12
 1051 0008 00D0     		beq	.L79
 1052              	.LVL43:
 1053              	.L76:
 338:generated/events_init.c **** static void wave_model_btn_2_event_handler(lv_event_t *e) // 电压电流波形切换
 1054              		.loc 1 338 1 is_stmt 0 view .LVU270
 1055 000a 08BD     		pop	{r3, pc}
 1056              	.LVL44:
 1057              	.L79:
 1058              	.LBB4:
 324:generated/events_init.c **** 		switch (dir)
 1059              		.loc 1 324 3 is_stmt 1 view .LVU271
 324:generated/events_init.c **** 		switch (dir)
 1060              		.loc 1 324 43 is_stmt 0 view .LVU272
 1061 000c FFF7FEFF 		bl	lv_indev_get_act
 1062              	.LVL45:
 324:generated/events_init.c **** 		switch (dir)
 1063              		.loc 1 324 18 discriminator 1 view .LVU273
 1064 0010 FFF7FEFF 		bl	lv_indev_get_gesture_dir
 1065              	.LVL46:
 325:generated/events_init.c **** 		{
 1066              		.loc 1 325 3 is_stmt 1 view .LVU274
 1067 0014 0128     		cmp	r0, #1
 1068 0016 F8D1     		bne	.L76
 329:generated/events_init.c **** 			break;
 1069              		.loc 1 329 4 view .LVU275
 1070 0018 FFF7FEFF 		bl	lv_indev_get_act
 1071              	.LVL47:
 329:generated/events_init.c **** 			break;
 1072              		.loc 1 329 4 is_stmt 0 discriminator 1 view .LVU276
 1073 001c FFF7FEFF 		bl	lv_indev_wait_release
ARM GAS  C:\usertemp\ccV6J5ed.s 			page 37


 1074              	.LVL48:
 330:generated/events_init.c **** 		}
 1075              		.loc 1 330 4 is_stmt 1 view .LVU277
 1076              	.LBE4:
 338:generated/events_init.c **** static void wave_model_btn_2_event_handler(lv_event_t *e) // 电压电流波形切换
 1077              		.loc 1 338 1 is_stmt 0 view .LVU278
 1078 0020 F3E7     		b	.L76
 1079              		.cfi_endproc
 1080              	.LFE576:
 1082              		.section	.text.switch_btn,"ax",%progbits
 1083              		.align	1
 1084              		.global	switch_btn
 1085              		.syntax unified
 1086              		.thumb
 1087              		.thumb_func
 1089              	switch_btn:
 1090              	.LVL49:
 1091              	.LFB592:
 725:generated/events_init.c **** 
 726:generated/events_init.c **** void events_init_wave_model(lv_ui *ui)
 727:generated/events_init.c **** {
 728:generated/events_init.c **** 	lv_obj_add_event_cb(ui->wave_model, wave_model_event_handler, LV_EVENT_ALL, NULL);
 729:generated/events_init.c **** 	lv_obj_add_event_cb(ui->wave_model_btn_1, wave_model_btn_1_event_handler, LV_EVENT_ALL, NULL);
 730:generated/events_init.c **** 	lv_obj_add_event_cb(ui->wave_model_btn_2, wave_model_btn_2_event_handler, LV_EVENT_ALL, NULL);
 731:generated/events_init.c **** 	lv_obj_add_event_cb(ui->wave_model_btn_3, wave_model_btn_3_event_handler, LV_EVENT_ALL, NULL);
 732:generated/events_init.c **** 	lv_obj_add_event_cb(ui->wave_model_btn_4, wave_model_btn_4_event_handler, LV_EVENT_ALL, NULL);
 733:generated/events_init.c **** 	lv_obj_add_event_cb(ui->wave_model_btn_5, wave_model_btn_5_event_handler, LV_EVENT_ALL, NULL);
 734:generated/events_init.c **** 	lv_obj_add_event_cb(ui->wave_model_btn_6, wave_model_btn_6_event_handler, LV_EVENT_ALL, NULL);
 735:generated/events_init.c **** 	lv_obj_add_event_cb(ui->wave_model_btn_7, wave_model_btn_7_event_handler, LV_EVENT_ALL, NULL);
 736:generated/events_init.c **** 	lv_obj_add_event_cb(ui->wave_model_btn_8, wave_model_btn_8_event_handler, LV_EVENT_ALL, NULL);
 737:generated/events_init.c **** 	lv_obj_add_event_cb(ui->wave_model_btn_9, wave_model_btn_9_event_handler, LV_EVENT_ALL, NULL);
 738:generated/events_init.c **** 	lv_obj_add_event_cb(ui->wave_model_btn_10, wave_model_btn_10_event_handler, LV_EVENT_ALL, NULL);
 739:generated/events_init.c **** 	lv_obj_add_event_cb(ui->wave_model_btn_11, wave_model_btn_11_event_handler, LV_EVENT_ALL, NULL);
 740:generated/events_init.c **** 	lv_obj_add_event_cb(ui->wave_model_btn_12, wave_model_btn_12_event_handler, LV_EVENT_ALL, NULL);
 741:generated/events_init.c **** 	lv_obj_add_event_cb(ui->wave_model_btn_13, wave_model_btn_13_event_handler, LV_EVENT_ALL, NULL);
 742:generated/events_init.c **** 	lv_obj_add_event_cb(ui->wave_model_btn_14, wave_model_btn_14_event_handler, LV_EVENT_ALL, NULL);
 743:generated/events_init.c **** }
 744:generated/events_init.c **** 
 745:generated/events_init.c **** void switch_btn(lv_timer_t *timer)
 746:generated/events_init.c **** {
 1092              		.loc 1 746 1 is_stmt 1 view -0
 1093              		.cfi_startproc
 1094              		@ args = 0, pretend = 0, frame = 0
 1095              		@ frame_needed = 0, uses_anonymous_args = 0
 1096              		.loc 1 746 1 is_stmt 0 view .LVU280
 1097 0000 10B5     		push	{r4, lr}
 1098              	.LCFI14:
 1099              		.cfi_def_cfa_offset 8
 1100              		.cfi_offset 4, -8
 1101              		.cfi_offset 14, -4
 1102 0002 0446     		mov	r4, r0
 747:generated/events_init.c **** 	lv_obj_add_flag(guider_ui.wave_model_msg, LV_OBJ_FLAG_HIDDEN);
 1103              		.loc 1 747 2 is_stmt 1 view .LVU281
 1104 0004 0121     		movs	r1, #1
 1105 0006 044B     		ldr	r3, .L82
 1106 0008 D3F8E400 		ldr	r0, [r3, #228]
 1107              	.LVL50:
ARM GAS  C:\usertemp\ccV6J5ed.s 			page 38


 1108              		.loc 1 747 2 is_stmt 0 view .LVU282
 1109 000c FFF7FEFF 		bl	lv_obj_add_flag
 1110              	.LVL51:
 748:generated/events_init.c **** 	lv_timer_del(timer); // 删除定时器，避免占用资源
 1111              		.loc 1 748 2 is_stmt 1 view .LVU283
 1112 0010 2046     		mov	r0, r4
 1113 0012 FFF7FEFF 		bl	lv_timer_del
 1114              	.LVL52:
 749:generated/events_init.c **** }
 1115              		.loc 1 749 1 is_stmt 0 view .LVU284
 1116 0016 10BD     		pop	{r4, pc}
 1117              	.LVL53:
 1118              	.L83:
 1119              		.loc 1 749 1 view .LVU285
 1120              		.align	2
 1121              	.L82:
 1122 0018 00000000 		.word	guider_ui
 1123              		.cfi_endproc
 1124              	.LFE592:
 1126              		.section	.rodata.page_switch.str1.4,"aMS",%progbits,1
 1127              		.align	2
 1128              	.LC6:
 1129 0000 592D00   		.ascii	"Y-\000"
 1130 0003 00       		.align	2
 1131              	.LC7:
 1132 0004 592B00   		.ascii	"Y+\000"
 1133 0007 00       		.align	2
 1134              	.LC8:
 1135 0008 2D3E00   		.ascii	"->\000"
 1136 000b 00       		.align	2
 1137              	.LC9:
 1138 000c 3C2D00   		.ascii	"<-\000"
 1139              		.section	.text.page_switch,"ax",%progbits
 1140              		.align	1
 1141              		.global	page_switch
 1142              		.syntax unified
 1143              		.thumb
 1144              		.thumb_func
 1146              	page_switch:
 1147              	.LFB575:
  46:generated/events_init.c **** 	if (page == 0) // 波形模式
 1148              		.loc 1 46 1 is_stmt 1 view -0
 1149              		.cfi_startproc
 1150              		@ args = 0, pretend = 0, frame = 0
 1151              		@ frame_needed = 0, uses_anonymous_args = 0
 1152 0000 10B5     		push	{r4, lr}
 1153              	.LCFI15:
 1154              		.cfi_def_cfa_offset 8
 1155              		.cfi_offset 4, -8
 1156              		.cfi_offset 14, -4
  47:generated/events_init.c **** 	{
 1157              		.loc 1 47 2 view .LVU287
  47:generated/events_init.c **** 	{
 1158              		.loc 1 47 11 is_stmt 0 view .LVU288
 1159 0002 CC4B     		ldr	r3, .L96
 1160 0004 93F90030 		ldrsb	r3, [r3]
  47:generated/events_init.c **** 	{
ARM GAS  C:\usertemp\ccV6J5ed.s 			page 39


 1161              		.loc 1 47 5 view .LVU289
 1162 0008 C3B1     		cbz	r3, .L91
 1163              	.L85:
 100:generated/events_init.c **** 	{			   //+227 +70
 1164              		.loc 1 100 2 is_stmt 1 view .LVU290
 100:generated/events_init.c **** 	{			   //+227 +70
 1165              		.loc 1 100 11 is_stmt 0 view .LVU291
 1166 000a CA4B     		ldr	r3, .L96
 1167 000c 93F90030 		ldrsb	r3, [r3]
 100:generated/events_init.c **** 	{			   //+227 +70
 1168              		.loc 1 100 5 view .LVU292
 1169 0010 012B     		cmp	r3, #1
 1170 0012 00F0F780 		beq	.L92
 1171              	.L86:
 141:generated/events_init.c **** 	{
 1172              		.loc 1 141 2 is_stmt 1 view .LVU293
 141:generated/events_init.c **** 	{
 1173              		.loc 1 141 11 is_stmt 0 view .LVU294
 1174 0016 C74B     		ldr	r3, .L96
 1175 0018 93F90030 		ldrsb	r3, [r3]
 141:generated/events_init.c **** 	{
 1176              		.loc 1 141 5 view .LVU295
 1177 001c 022B     		cmp	r3, #2
 1178 001e 00F09581 		beq	.L93
 1179              	.L87:
 207:generated/events_init.c **** 	{
 1180              		.loc 1 207 2 is_stmt 1 view .LVU296
 207:generated/events_init.c **** 	{
 1181              		.loc 1 207 11 is_stmt 0 view .LVU297
 1182 0022 C44B     		ldr	r3, .L96
 1183 0024 93F90030 		ldrsb	r3, [r3]
 207:generated/events_init.c **** 	{
 1184              		.loc 1 207 5 view .LVU298
 1185 0028 032B     		cmp	r3, #3
 1186 002a 00F09B82 		beq	.L94
 1187              	.L88:
 262:generated/events_init.c **** 	{
 1188              		.loc 1 262 2 is_stmt 1 view .LVU299
 262:generated/events_init.c **** 	{
 1189              		.loc 1 262 11 is_stmt 0 view .LVU300
 1190 002e C14B     		ldr	r3, .L96
 1191 0030 93F90030 		ldrsb	r3, [r3]
 262:generated/events_init.c **** 	{
 1192              		.loc 1 262 5 view .LVU301
 1193 0034 042B     		cmp	r3, #4
 1194 0036 00F07983 		beq	.L95
 1195              	.L84:
 314:generated/events_init.c **** 
 1196              		.loc 1 314 1 view .LVU302
 1197 003a 10BD     		pop	{r4, pc}
 1198              	.L91:
  49:generated/events_init.c **** 		lv_obj_add_flag(guider_ui.wave_model_table_1, LV_OBJ_FLAG_HIDDEN);
 1199              		.loc 1 49 3 is_stmt 1 view .LVU303
 1200 003c BE4C     		ldr	r4, .L96+4
 1201 003e 0121     		movs	r1, #1
 1202 0040 A068     		ldr	r0, [r4, #8]
 1203 0042 FFF7FEFF 		bl	lv_obj_add_flag
ARM GAS  C:\usertemp\ccV6J5ed.s 			page 40


 1204              	.LVL54:
  50:generated/events_init.c **** 		lv_obj_clear_flag(guider_ui.wave_model_chart_2, LV_OBJ_FLAG_HIDDEN);
 1205              		.loc 1 50 3 view .LVU304
 1206 0046 0121     		movs	r1, #1
 1207 0048 D4F8A000 		ldr	r0, [r4, #160]
 1208 004c FFF7FEFF 		bl	lv_obj_add_flag
 1209              	.LVL55:
  51:generated/events_init.c **** 		lv_obj_add_flag(guider_ui.wave_model_img_1, LV_OBJ_FLAG_HIDDEN);
 1210              		.loc 1 51 3 view .LVU305
 1211 0050 0121     		movs	r1, #1
 1212 0052 D4F88C00 		ldr	r0, [r4, #140]
 1213 0056 FFF7FEFF 		bl	lv_obj_clear_flag
 1214              	.LVL56:
  52:generated/events_init.c **** 		lv_obj_clear_flag(guider_ui.wave_model_label_25, LV_OBJ_FLAG_HIDDEN);
 1215              		.loc 1 52 3 view .LVU306
 1216 005a 0121     		movs	r1, #1
 1217 005c D4F8AC00 		ldr	r0, [r4, #172]
 1218 0060 FFF7FEFF 		bl	lv_obj_add_flag
 1219              	.LVL57:
  53:generated/events_init.c **** 		lv_obj_clear_flag(guider_ui.wave_model_label_24, LV_OBJ_FLAG_HIDDEN);
 1220              		.loc 1 53 3 view .LVU307
 1221 0064 0121     		movs	r1, #1
 1222 0066 D4F88000 		ldr	r0, [r4, #128]
 1223 006a FFF7FEFF 		bl	lv_obj_clear_flag
 1224              	.LVL58:
  54:generated/events_init.c **** 		lv_obj_clear_flag(guider_ui.wave_model_label_23, LV_OBJ_FLAG_HIDDEN);
 1225              		.loc 1 54 3 view .LVU308
 1226 006e 0121     		movs	r1, #1
 1227 0070 E06F     		ldr	r0, [r4, #124]
 1228 0072 FFF7FEFF 		bl	lv_obj_clear_flag
 1229              	.LVL59:
  55:generated/events_init.c **** 		lv_obj_clear_flag(guider_ui.wave_model_label_22, LV_OBJ_FLAG_HIDDEN);
 1230              		.loc 1 55 3 view .LVU309
 1231 0076 0121     		movs	r1, #1
 1232 0078 A06F     		ldr	r0, [r4, #120]
 1233 007a FFF7FEFF 		bl	lv_obj_clear_flag
 1234              	.LVL60:
  56:generated/events_init.c **** 		lv_obj_clear_flag(guider_ui.wave_model_label_21, LV_OBJ_FLAG_HIDDEN);
 1235              		.loc 1 56 3 view .LVU310
 1236 007e 0121     		movs	r1, #1
 1237 0080 606F     		ldr	r0, [r4, #116]
 1238 0082 FFF7FEFF 		bl	lv_obj_clear_flag
 1239              	.LVL61:
  57:generated/events_init.c **** 		lv_obj_clear_flag(guider_ui.wave_model_num_1, LV_OBJ_FLAG_HIDDEN);
 1240              		.loc 1 57 3 view .LVU311
 1241 0086 0121     		movs	r1, #1
 1242 0088 206F     		ldr	r0, [r4, #112]
 1243 008a FFF7FEFF 		bl	lv_obj_clear_flag
 1244              	.LVL62:
  58:generated/events_init.c **** 		lv_obj_clear_flag(guider_ui.wave_model_N_val, LV_OBJ_FLAG_HIDDEN);
 1245              		.loc 1 58 3 view .LVU312
 1246 008e 0121     		movs	r1, #1
 1247 0090 D4F88800 		ldr	r0, [r4, #136]
 1248 0094 FFF7FEFF 		bl	lv_obj_clear_flag
 1249              	.LVL63:
  59:generated/events_init.c **** 		lv_obj_clear_flag(guider_ui.wave_model_three_value, LV_OBJ_FLAG_HIDDEN);
 1250              		.loc 1 59 3 view .LVU313
ARM GAS  C:\usertemp\ccV6J5ed.s 			page 41


 1251 0098 0121     		movs	r1, #1
 1252 009a D4F88400 		ldr	r0, [r4, #132]
 1253 009e FFF7FEFF 		bl	lv_obj_clear_flag
 1254              	.LVL64:
  60:generated/events_init.c **** 		lv_obj_clear_flag(guider_ui.wave_model_two_value, LV_OBJ_FLAG_HIDDEN);
 1255              		.loc 1 60 3 view .LVU314
 1256 00a2 0121     		movs	r1, #1
 1257 00a4 E06E     		ldr	r0, [r4, #108]
 1258 00a6 FFF7FEFF 		bl	lv_obj_clear_flag
 1259              	.LVL65:
  61:generated/events_init.c **** 		lv_obj_clear_flag(guider_ui.wave_model_one_value, LV_OBJ_FLAG_HIDDEN);
 1260              		.loc 1 61 3 view .LVU315
 1261 00aa 0121     		movs	r1, #1
 1262 00ac A06E     		ldr	r0, [r4, #104]
 1263 00ae FFF7FEFF 		bl	lv_obj_clear_flag
 1264              	.LVL66:
  62:generated/events_init.c **** 		lv_obj_clear_flag(guider_ui.wave_model_N__, LV_OBJ_FLAG_HIDDEN);
 1265              		.loc 1 62 3 view .LVU316
 1266 00b2 0121     		movs	r1, #1
 1267 00b4 606E     		ldr	r0, [r4, #100]
 1268 00b6 FFF7FEFF 		bl	lv_obj_clear_flag
 1269              	.LVL67:
  63:generated/events_init.c **** 		lv_obj_clear_flag(guider_ui.wave_model_three, LV_OBJ_FLAG_HIDDEN);
 1270              		.loc 1 63 3 view .LVU317
 1271 00ba 0121     		movs	r1, #1
 1272 00bc 206E     		ldr	r0, [r4, #96]
 1273 00be FFF7FEFF 		bl	lv_obj_clear_flag
 1274              	.LVL68:
  64:generated/events_init.c **** 		lv_obj_clear_flag(guider_ui.wave_model_two, LV_OBJ_FLAG_HIDDEN);
 1275              		.loc 1 64 3 view .LVU318
 1276 00c2 0121     		movs	r1, #1
 1277 00c4 E06D     		ldr	r0, [r4, #92]
 1278 00c6 FFF7FEFF 		bl	lv_obj_clear_flag
 1279              	.LVL69:
  65:generated/events_init.c **** 		lv_obj_clear_flag(guider_ui.wave_model_red, LV_OBJ_FLAG_HIDDEN);
 1280              		.loc 1 65 3 view .LVU319
 1281 00ca 0121     		movs	r1, #1
 1282 00cc A06D     		ldr	r0, [r4, #88]
 1283 00ce FFF7FEFF 		bl	lv_obj_clear_flag
 1284              	.LVL70:
  66:generated/events_init.c **** 		lv_obj_clear_flag(guider_ui.wave_model_blue, LV_OBJ_FLAG_HIDDEN);
 1285              		.loc 1 66 3 view .LVU320
 1286 00d2 0121     		movs	r1, #1
 1287 00d4 606D     		ldr	r0, [r4, #84]
 1288 00d6 FFF7FEFF 		bl	lv_obj_clear_flag
 1289              	.LVL71:
  67:generated/events_init.c **** 		lv_obj_clear_flag(guider_ui.wave_model_green, LV_OBJ_FLAG_HIDDEN);
 1290              		.loc 1 67 3 view .LVU321
 1291 00da 0121     		movs	r1, #1
 1292 00dc 206D     		ldr	r0, [r4, #80]
 1293 00de FFF7FEFF 		bl	lv_obj_clear_flag
 1294              	.LVL72:
  68:generated/events_init.c **** 		lv_obj_clear_flag(guider_ui.wave_model_yellow, LV_OBJ_FLAG_HIDDEN);
 1295              		.loc 1 68 3 view .LVU322
 1296 00e2 0121     		movs	r1, #1
 1297 00e4 E06C     		ldr	r0, [r4, #76]
 1298 00e6 FFF7FEFF 		bl	lv_obj_clear_flag
ARM GAS  C:\usertemp\ccV6J5ed.s 			page 42


 1299              	.LVL73:
  69:generated/events_init.c **** 		lv_obj_set_width(guider_ui.wave_model_one_value, 120);
 1300              		.loc 1 69 3 view .LVU323
 1301 00ea 0121     		movs	r1, #1
 1302 00ec A06C     		ldr	r0, [r4, #72]
 1303 00ee FFF7FEFF 		bl	lv_obj_clear_flag
 1304              	.LVL74:
  70:generated/events_init.c **** 		lv_obj_set_height(guider_ui.wave_model_one_value, 30);
 1305              		.loc 1 70 3 view .LVU324
 1306 00f2 7821     		movs	r1, #120
 1307 00f4 606E     		ldr	r0, [r4, #100]
 1308 00f6 FFF7FEFF 		bl	lv_obj_set_width
 1309              	.LVL75:
  71:generated/events_init.c **** 		lv_obj_set_width(guider_ui.wave_model_chart_2, 520);
 1310              		.loc 1 71 3 view .LVU325
 1311 00fa 1E21     		movs	r1, #30
 1312 00fc 606E     		ldr	r0, [r4, #100]
 1313 00fe FFF7FEFF 		bl	lv_obj_set_height
 1314              	.LVL76:
  72:generated/events_init.c **** 		lv_obj_set_height(guider_ui.wave_model_chart_2, 340);
 1315              		.loc 1 72 3 view .LVU326
 1316 0102 4FF40271 		mov	r1, #520
 1317 0106 D4F88C00 		ldr	r0, [r4, #140]
 1318 010a FFF7FEFF 		bl	lv_obj_set_width
 1319              	.LVL77:
  73:generated/events_init.c **** 		lv_obj_set_pos(guider_ui.wave_model_chart_2, 47, 70);
 1320              		.loc 1 73 3 view .LVU327
 1321 010e 4FF4AA71 		mov	r1, #340
 1322 0112 D4F88C00 		ldr	r0, [r4, #140]
 1323 0116 FFF7FEFF 		bl	lv_obj_set_height
 1324              	.LVL78:
  74:generated/events_init.c **** 		lv_obj_set_width(guider_ui.wave_model_three_value, 120);
 1325              		.loc 1 74 3 view .LVU328
 1326 011a 4622     		movs	r2, #70
 1327 011c 2F21     		movs	r1, #47
 1328 011e D4F88C00 		ldr	r0, [r4, #140]
 1329 0122 FFF7FEFF 		bl	lv_obj_set_pos
 1330              	.LVL79:
  75:generated/events_init.c **** 		lv_obj_set_height(guider_ui.wave_model_three_value, 30);
 1331              		.loc 1 75 3 view .LVU329
 1332 0126 7821     		movs	r1, #120
 1333 0128 E06E     		ldr	r0, [r4, #108]
 1334 012a FFF7FEFF 		bl	lv_obj_set_width
 1335              	.LVL80:
  76:generated/events_init.c **** 		lv_obj_add_flag(guider_ui.wave_model_table_1, LV_OBJ_FLAG_HIDDEN);
 1336              		.loc 1 76 3 view .LVU330
 1337 012e 1E21     		movs	r1, #30
 1338 0130 E06E     		ldr	r0, [r4, #108]
 1339 0132 FFF7FEFF 		bl	lv_obj_set_height
 1340              	.LVL81:
  77:generated/events_init.c **** 		lv_obj_set_pos(guider_ui.wave_model_three, 300, 28);
 1341              		.loc 1 77 3 view .LVU331
 1342 0136 0121     		movs	r1, #1
 1343 0138 D4F8A000 		ldr	r0, [r4, #160]
 1344 013c FFF7FEFF 		bl	lv_obj_add_flag
 1345              	.LVL82:
  78:generated/events_init.c **** 		lv_obj_set_pos(guider_ui.wave_model_two, 137, 28);
ARM GAS  C:\usertemp\ccV6J5ed.s 			page 43


 1346              		.loc 1 78 3 view .LVU332
 1347 0140 1C22     		movs	r2, #28
 1348 0142 4FF49671 		mov	r1, #300
 1349 0146 E06D     		ldr	r0, [r4, #92]
 1350 0148 FFF7FEFF 		bl	lv_obj_set_pos
 1351              	.LVL83:
  79:generated/events_init.c **** 		lv_obj_set_pos(guider_ui.wave_model_red, 330, 25);
 1352              		.loc 1 79 3 view .LVU333
 1353 014c 1C22     		movs	r2, #28
 1354 014e 8921     		movs	r1, #137
 1355 0150 A06D     		ldr	r0, [r4, #88]
 1356 0152 FFF7FEFF 		bl	lv_obj_set_pos
 1357              	.LVL84:
  80:generated/events_init.c **** 		lv_obj_set_pos(guider_ui.wave_model_green, 167, 25);
 1358              		.loc 1 80 3 view .LVU334
 1359 0156 1922     		movs	r2, #25
 1360 0158 4FF4A571 		mov	r1, #330
 1361 015c 606D     		ldr	r0, [r4, #84]
 1362 015e FFF7FEFF 		bl	lv_obj_set_pos
 1363              	.LVL85:
  81:generated/events_init.c **** 		lv_obj_set_pos(guider_ui.wave_model_yellow, 1, 25);
 1364              		.loc 1 81 3 view .LVU335
 1365 0162 1922     		movs	r2, #25
 1366 0164 A721     		movs	r1, #167
 1367 0166 E06C     		ldr	r0, [r4, #76]
 1368 0168 FFF7FEFF 		bl	lv_obj_set_pos
 1369              	.LVL86:
  82:generated/events_init.c **** 		lv_obj_set_pos(guider_ui.wave_model_num_1, -30, 30);
 1370              		.loc 1 82 3 view .LVU336
 1371 016c 1922     		movs	r2, #25
 1372 016e 0121     		movs	r1, #1
 1373 0170 A06C     		ldr	r0, [r4, #72]
 1374 0172 FFF7FEFF 		bl	lv_obj_set_pos
 1375              	.LVL87:
  83:generated/events_init.c **** 		lv_obj_add_flag(guider_ui.wave_model_label_26, LV_OBJ_FLAG_HIDDEN);
 1376              		.loc 1 83 3 view .LVU337
 1377 0176 1E22     		movs	r2, #30
 1378 0178 6FF01D01 		mvn	r1, #29
 1379 017c D4F88800 		ldr	r0, [r4, #136]
 1380 0180 FFF7FEFF 		bl	lv_obj_set_pos
 1381              	.LVL88:
  84:generated/events_init.c **** 		lv_obj_add_flag(guider_ui.wave_model_label_27, LV_OBJ_FLAG_HIDDEN);
 1382              		.loc 1 84 3 view .LVU338
 1383 0184 0121     		movs	r1, #1
 1384 0186 D4F8A400 		ldr	r0, [r4, #164]
 1385 018a FFF7FEFF 		bl	lv_obj_add_flag
 1386              	.LVL89:
  85:generated/events_init.c **** 		lv_label_set_text(guider_ui.wave_model_btn_14_label, "Y-");
 1387              		.loc 1 85 3 view .LVU339
 1388 018e 0121     		movs	r1, #1
 1389 0190 E068     		ldr	r0, [r4, #12]
 1390 0192 FFF7FEFF 		bl	lv_obj_add_flag
 1391              	.LVL90:
  86:generated/events_init.c **** 		lv_label_set_text(guider_ui.wave_model_btn_9_label, "Y+");
 1392              		.loc 1 86 3 view .LVU340
 1393 0196 6949     		ldr	r1, .L96+8
 1394 0198 D4F8DC00 		ldr	r0, [r4, #220]
ARM GAS  C:\usertemp\ccV6J5ed.s 			page 44


 1395 019c FFF7FEFF 		bl	lv_label_set_text
 1396              	.LVL91:
  87:generated/events_init.c **** 		lv_obj_clear_flag(guider_ui.wave_model_btn_10, LV_OBJ_FLAG_HIDDEN);
 1397              		.loc 1 87 3 view .LVU341
 1398 01a0 6749     		ldr	r1, .L96+12
 1399 01a2 D4F8B400 		ldr	r0, [r4, #180]
 1400 01a6 FFF7FEFF 		bl	lv_label_set_text
 1401              	.LVL92:
  88:generated/events_init.c **** 		lv_obj_clear_flag(guider_ui.wave_model_btn_11, LV_OBJ_FLAG_HIDDEN);
 1402              		.loc 1 88 3 view .LVU342
 1403 01aa 0121     		movs	r1, #1
 1404 01ac D4F8B800 		ldr	r0, [r4, #184]
 1405 01b0 FFF7FEFF 		bl	lv_obj_clear_flag
 1406              	.LVL93:
  89:generated/events_init.c **** 		lv_obj_clear_flag(guider_ui.wave_model_btn_12, LV_OBJ_FLAG_HIDDEN);
 1407              		.loc 1 89 3 view .LVU343
 1408 01b4 0121     		movs	r1, #1
 1409 01b6 D4F8C000 		ldr	r0, [r4, #192]
 1410 01ba FFF7FEFF 		bl	lv_obj_clear_flag
 1411              	.LVL94:
  90:generated/events_init.c **** 		lv_obj_clear_flag(guider_ui.wave_model_btn_13, LV_OBJ_FLAG_HIDDEN);
 1412              		.loc 1 90 3 view .LVU344
 1413 01be 0121     		movs	r1, #1
 1414 01c0 D4F8C800 		ldr	r0, [r4, #200]
 1415 01c4 FFF7FEFF 		bl	lv_obj_clear_flag
 1416              	.LVL95:
  91:generated/events_init.c **** 
 1417              		.loc 1 91 3 view .LVU345
 1418 01c8 0121     		movs	r1, #1
 1419 01ca D4F8D000 		ldr	r0, [r4, #208]
 1420 01ce FFF7FEFF 		bl	lv_obj_clear_flag
 1421              	.LVL96:
  93:generated/events_init.c **** 		lv_obj_clear_flag(guider_ui.wave_model_btn_1, LV_OBJ_FLAG_HIDDEN);
 1422              		.loc 1 93 3 view .LVU346
 1423 01d2 0121     		movs	r1, #1
 1424 01d4 A06B     		ldr	r0, [r4, #56]
 1425 01d6 FFF7FEFF 		bl	lv_obj_clear_flag
 1426              	.LVL97:
  94:generated/events_init.c **** 		lv_obj_clear_flag(guider_ui.wave_model_btn_2, LV_OBJ_FLAG_HIDDEN);
 1427              		.loc 1 94 3 view .LVU347
 1428 01da 0121     		movs	r1, #1
 1429 01dc 2069     		ldr	r0, [r4, #16]
 1430 01de FFF7FEFF 		bl	lv_obj_clear_flag
 1431              	.LVL98:
  95:generated/events_init.c **** 		lv_obj_clear_flag(guider_ui.wave_model_btn_3, LV_OBJ_FLAG_HIDDEN);
 1432              		.loc 1 95 3 view .LVU348
 1433 01e2 0121     		movs	r1, #1
 1434 01e4 A069     		ldr	r0, [r4, #24]
 1435 01e6 FFF7FEFF 		bl	lv_obj_clear_flag
 1436              	.LVL99:
  96:generated/events_init.c **** 		lv_obj_clear_flag(guider_ui.wave_model_btn_4, LV_OBJ_FLAG_HIDDEN);
 1437              		.loc 1 96 3 view .LVU349
 1438 01ea 0121     		movs	r1, #1
 1439 01ec 206A     		ldr	r0, [r4, #32]
 1440 01ee FFF7FEFF 		bl	lv_obj_clear_flag
 1441              	.LVL100:
  97:generated/events_init.c **** 		lv_obj_clear_flag(guider_ui.wave_model_btn_5, LV_OBJ_FLAG_HIDDEN);
ARM GAS  C:\usertemp\ccV6J5ed.s 			page 45


 1442              		.loc 1 97 3 view .LVU350
 1443 01f2 0121     		movs	r1, #1
 1444 01f4 A06A     		ldr	r0, [r4, #40]
 1445 01f6 FFF7FEFF 		bl	lv_obj_clear_flag
 1446              	.LVL101:
  98:generated/events_init.c **** 	}
 1447              		.loc 1 98 3 view .LVU351
 1448 01fa 0121     		movs	r1, #1
 1449 01fc 206B     		ldr	r0, [r4, #48]
 1450 01fe FFF7FEFF 		bl	lv_obj_clear_flag
 1451              	.LVL102:
 1452 0202 02E7     		b	.L85
 1453              	.L92:
 103:generated/events_init.c **** 		lv_obj_add_flag(guider_ui.wave_model_btn_10, LV_OBJ_FLAG_HIDDEN);
 1454              		.loc 1 103 3 view .LVU352
 1455 0204 4C4C     		ldr	r4, .L96+4
 1456 0206 0121     		movs	r1, #1
 1457 0208 E068     		ldr	r0, [r4, #12]
 1458 020a FFF7FEFF 		bl	lv_obj_clear_flag
 1459              	.LVL103:
 104:generated/events_init.c **** 		lv_obj_add_flag(guider_ui.wave_model_btn_11, LV_OBJ_FLAG_HIDDEN);
 1460              		.loc 1 104 3 view .LVU353
 1461 020e 0121     		movs	r1, #1
 1462 0210 D4F8B800 		ldr	r0, [r4, #184]
 1463 0214 FFF7FEFF 		bl	lv_obj_add_flag
 1464              	.LVL104:
 105:generated/events_init.c **** 		lv_obj_add_flag(guider_ui.wave_model_btn_12, LV_OBJ_FLAG_HIDDEN);
 1465              		.loc 1 105 3 view .LVU354
 1466 0218 0121     		movs	r1, #1
 1467 021a D4F8C000 		ldr	r0, [r4, #192]
 1468 021e FFF7FEFF 		bl	lv_obj_add_flag
 1469              	.LVL105:
 106:generated/events_init.c **** 		lv_obj_add_flag(guider_ui.wave_model_btn_13, LV_OBJ_FLAG_HIDDEN);
 1470              		.loc 1 106 3 view .LVU355
 1471 0222 0121     		movs	r1, #1
 1472 0224 D4F8C800 		ldr	r0, [r4, #200]
 1473 0228 FFF7FEFF 		bl	lv_obj_add_flag
 1474              	.LVL106:
 107:generated/events_init.c **** 
 1475              		.loc 1 107 3 view .LVU356
 1476 022c 0121     		movs	r1, #1
 1477 022e D4F8D000 		ldr	r0, [r4, #208]
 1478 0232 FFF7FEFF 		bl	lv_obj_add_flag
 1479              	.LVL107:
 109:generated/events_init.c **** 		lv_obj_add_flag(guider_ui.wave_model_btn_1, LV_OBJ_FLAG_HIDDEN);
 1480              		.loc 1 109 3 view .LVU357
 1481 0236 0121     		movs	r1, #1
 1482 0238 A06B     		ldr	r0, [r4, #56]
 1483 023a FFF7FEFF 		bl	lv_obj_add_flag
 1484              	.LVL108:
 110:generated/events_init.c **** 		lv_obj_add_flag(guider_ui.wave_model_btn_2, LV_OBJ_FLAG_HIDDEN);
 1485              		.loc 1 110 3 view .LVU358
 1486 023e 0121     		movs	r1, #1
 1487 0240 2069     		ldr	r0, [r4, #16]
 1488 0242 FFF7FEFF 		bl	lv_obj_add_flag
 1489              	.LVL109:
 111:generated/events_init.c **** 		lv_obj_add_flag(guider_ui.wave_model_btn_3, LV_OBJ_FLAG_HIDDEN);
ARM GAS  C:\usertemp\ccV6J5ed.s 			page 46


 1490              		.loc 1 111 3 view .LVU359
 1491 0246 0121     		movs	r1, #1
 1492 0248 A069     		ldr	r0, [r4, #24]
 1493 024a FFF7FEFF 		bl	lv_obj_add_flag
 1494              	.LVL110:
 112:generated/events_init.c **** 		lv_obj_add_flag(guider_ui.wave_model_btn_4, LV_OBJ_FLAG_HIDDEN);
 1495              		.loc 1 112 3 view .LVU360
 1496 024e 0121     		movs	r1, #1
 1497 0250 206A     		ldr	r0, [r4, #32]
 1498 0252 FFF7FEFF 		bl	lv_obj_add_flag
 1499              	.LVL111:
 113:generated/events_init.c **** 		lv_obj_add_flag(guider_ui.wave_model_btn_5, LV_OBJ_FLAG_HIDDEN);
 1500              		.loc 1 113 3 view .LVU361
 1501 0256 0121     		movs	r1, #1
 1502 0258 A06A     		ldr	r0, [r4, #40]
 1503 025a FFF7FEFF 		bl	lv_obj_add_flag
 1504              	.LVL112:
 114:generated/events_init.c **** 
 1505              		.loc 1 114 3 view .LVU362
 1506 025e 0121     		movs	r1, #1
 1507 0260 206B     		ldr	r0, [r4, #48]
 1508 0262 FFF7FEFF 		bl	lv_obj_add_flag
 1509              	.LVL113:
 116:generated/events_init.c **** 		lv_obj_clear_flag(guider_ui.wave_model_img_1, LV_OBJ_FLAG_HIDDEN);
 1510              		.loc 1 116 3 view .LVU363
 1511 0266 0121     		movs	r1, #1
 1512 0268 D4F88C00 		ldr	r0, [r4, #140]
 1513 026c FFF7FEFF 		bl	lv_obj_add_flag
 1514              	.LVL114:
 117:generated/events_init.c **** 		lv_obj_add_flag(guider_ui.wave_model_label_25, LV_OBJ_FLAG_HIDDEN);
 1515              		.loc 1 117 3 view .LVU364
 1516 0270 0121     		movs	r1, #1
 1517 0272 D4F8AC00 		ldr	r0, [r4, #172]
 1518 0276 FFF7FEFF 		bl	lv_obj_clear_flag
 1519              	.LVL115:
 118:generated/events_init.c **** 		lv_obj_add_flag(guider_ui.wave_model_label_24, LV_OBJ_FLAG_HIDDEN);
 1520              		.loc 1 118 3 view .LVU365
 1521 027a 0121     		movs	r1, #1
 1522 027c D4F88000 		ldr	r0, [r4, #128]
 1523 0280 FFF7FEFF 		bl	lv_obj_add_flag
 1524              	.LVL116:
 119:generated/events_init.c **** 		lv_obj_add_flag(guider_ui.wave_model_label_23, LV_OBJ_FLAG_HIDDEN);
 1525              		.loc 1 119 3 view .LVU366
 1526 0284 0121     		movs	r1, #1
 1527 0286 E06F     		ldr	r0, [r4, #124]
 1528 0288 FFF7FEFF 		bl	lv_obj_add_flag
 1529              	.LVL117:
 120:generated/events_init.c **** 		lv_obj_add_flag(guider_ui.wave_model_label_22, LV_OBJ_FLAG_HIDDEN);
 1530              		.loc 1 120 3 view .LVU367
 1531 028c 0121     		movs	r1, #1
 1532 028e A06F     		ldr	r0, [r4, #120]
 1533 0290 FFF7FEFF 		bl	lv_obj_add_flag
 1534              	.LVL118:
 121:generated/events_init.c **** 		lv_obj_add_flag(guider_ui.wave_model_label_21, LV_OBJ_FLAG_HIDDEN);
 1535              		.loc 1 121 3 view .LVU368
 1536 0294 0121     		movs	r1, #1
 1537 0296 606F     		ldr	r0, [r4, #116]
ARM GAS  C:\usertemp\ccV6J5ed.s 			page 47


 1538 0298 FFF7FEFF 		bl	lv_obj_add_flag
 1539              	.LVL119:
 122:generated/events_init.c **** 		lv_obj_add_flag(guider_ui.wave_model_num_1, LV_OBJ_FLAG_HIDDEN);
 1540              		.loc 1 122 3 view .LVU369
 1541 029c 0121     		movs	r1, #1
 1542 029e 206F     		ldr	r0, [r4, #112]
 1543 02a0 FFF7FEFF 		bl	lv_obj_add_flag
 1544              	.LVL120:
 123:generated/events_init.c **** 		lv_obj_add_flag(guider_ui.wave_model_N_val, LV_OBJ_FLAG_HIDDEN);
 1545              		.loc 1 123 3 view .LVU370
 1546 02a4 0121     		movs	r1, #1
 1547 02a6 D4F88800 		ldr	r0, [r4, #136]
 1548 02aa FFF7FEFF 		bl	lv_obj_add_flag
 1549              	.LVL121:
 124:generated/events_init.c **** 		lv_obj_add_flag(guider_ui.wave_model_three_value, LV_OBJ_FLAG_HIDDEN);
 1550              		.loc 1 124 3 view .LVU371
 1551 02ae 0121     		movs	r1, #1
 1552 02b0 D4F88400 		ldr	r0, [r4, #132]
 1553 02b4 FFF7FEFF 		bl	lv_obj_add_flag
 1554              	.LVL122:
 125:generated/events_init.c **** 		lv_obj_add_flag(guider_ui.wave_model_two_value, LV_OBJ_FLAG_HIDDEN);
 1555              		.loc 1 125 3 view .LVU372
 1556 02b8 0121     		movs	r1, #1
 1557 02ba E06E     		ldr	r0, [r4, #108]
 1558 02bc FFF7FEFF 		bl	lv_obj_add_flag
 1559              	.LVL123:
 126:generated/events_init.c **** 		lv_obj_add_flag(guider_ui.wave_model_one_value, LV_OBJ_FLAG_HIDDEN);
 1560              		.loc 1 126 3 view .LVU373
 1561 02c0 0121     		movs	r1, #1
 1562 02c2 A06E     		ldr	r0, [r4, #104]
 1563 02c4 FFF7FEFF 		bl	lv_obj_add_flag
 1564              	.LVL124:
 127:generated/events_init.c **** 		lv_obj_add_flag(guider_ui.wave_model_N__, LV_OBJ_FLAG_HIDDEN);
 1565              		.loc 1 127 3 view .LVU374
 1566 02c8 0121     		movs	r1, #1
 1567 02ca 606E     		ldr	r0, [r4, #100]
 1568 02cc FFF7FEFF 		bl	lv_obj_add_flag
 1569              	.LVL125:
 128:generated/events_init.c **** 		lv_obj_add_flag(guider_ui.wave_model_three, LV_OBJ_FLAG_HIDDEN);
 1570              		.loc 1 128 3 view .LVU375
 1571 02d0 0121     		movs	r1, #1
 1572 02d2 206E     		ldr	r0, [r4, #96]
 1573 02d4 FFF7FEFF 		bl	lv_obj_add_flag
 1574              	.LVL126:
 129:generated/events_init.c **** 		lv_obj_add_flag(guider_ui.wave_model_two, LV_OBJ_FLAG_HIDDEN);
 1575              		.loc 1 129 3 view .LVU376
 1576 02d8 0121     		movs	r1, #1
 1577 02da E06D     		ldr	r0, [r4, #92]
 1578 02dc FFF7FEFF 		bl	lv_obj_add_flag
 1579              	.LVL127:
 130:generated/events_init.c **** 		lv_obj_add_flag(guider_ui.wave_model_red, LV_OBJ_FLAG_HIDDEN);
 1580              		.loc 1 130 3 view .LVU377
 1581 02e0 0121     		movs	r1, #1
 1582 02e2 A06D     		ldr	r0, [r4, #88]
 1583 02e4 FFF7FEFF 		bl	lv_obj_add_flag
 1584              	.LVL128:
 131:generated/events_init.c **** 		lv_obj_add_flag(guider_ui.wave_model_blue, LV_OBJ_FLAG_HIDDEN);
ARM GAS  C:\usertemp\ccV6J5ed.s 			page 48


 1585              		.loc 1 131 3 view .LVU378
 1586 02e8 0121     		movs	r1, #1
 1587 02ea 606D     		ldr	r0, [r4, #84]
 1588 02ec FFF7FEFF 		bl	lv_obj_add_flag
 1589              	.LVL129:
 132:generated/events_init.c **** 		lv_obj_add_flag(guider_ui.wave_model_green, LV_OBJ_FLAG_HIDDEN);
 1590              		.loc 1 132 3 view .LVU379
 1591 02f0 0121     		movs	r1, #1
 1592 02f2 206D     		ldr	r0, [r4, #80]
 1593 02f4 FFF7FEFF 		bl	lv_obj_add_flag
 1594              	.LVL130:
 133:generated/events_init.c **** 		lv_obj_add_flag(guider_ui.wave_model_yellow, LV_OBJ_FLAG_HIDDEN);
 1595              		.loc 1 133 3 view .LVU380
 1596 02f8 0121     		movs	r1, #1
 1597 02fa E06C     		ldr	r0, [r4, #76]
 1598 02fc FFF7FEFF 		bl	lv_obj_add_flag
 1599              	.LVL131:
 134:generated/events_init.c **** 		lv_obj_add_flag(guider_ui.wave_model_label_26, LV_OBJ_FLAG_HIDDEN);
 1600              		.loc 1 134 3 view .LVU381
 1601 0300 0121     		movs	r1, #1
 1602 0302 A06C     		ldr	r0, [r4, #72]
 1603 0304 FFF7FEFF 		bl	lv_obj_add_flag
 1604              	.LVL132:
 135:generated/events_init.c **** 		lv_obj_add_flag(guider_ui.wave_model_chart_3, LV_OBJ_FLAG_HIDDEN);
 1605              		.loc 1 135 3 view .LVU382
 1606 0308 0121     		movs	r1, #1
 1607 030a D4F8A400 		ldr	r0, [r4, #164]
 1608 030e FFF7FEFF 		bl	lv_obj_add_flag
 1609              	.LVL133:
 136:generated/events_init.c **** 
 1610              		.loc 1 136 3 view .LVU383
 1611 0312 0121     		movs	r1, #1
 1612 0314 D4F8E000 		ldr	r0, [r4, #224]
 1613 0318 FFF7FEFF 		bl	lv_obj_add_flag
 1614              	.LVL134:
 138:generated/events_init.c **** 		lv_label_set_text(guider_ui.wave_model_btn_9_label, "<-");
 1615              		.loc 1 138 3 view .LVU384
 1616 031c 0949     		ldr	r1, .L96+16
 1617 031e D4F8DC00 		ldr	r0, [r4, #220]
 1618 0322 FFF7FEFF 		bl	lv_label_set_text
 1619              	.LVL135:
 139:generated/events_init.c **** 	}
 1620              		.loc 1 139 3 view .LVU385
 1621 0326 0849     		ldr	r1, .L96+20
 1622 0328 D4F8B400 		ldr	r0, [r4, #180]
 1623 032c FFF7FEFF 		bl	lv_label_set_text
 1624              	.LVL136:
 1625 0330 71E6     		b	.L86
 1626              	.L97:
 1627 0332 00BF     		.align	2
 1628              	.L96:
 1629 0334 00000000 		.word	page
 1630 0338 00000000 		.word	guider_ui
 1631 033c 00000000 		.word	.LC6
 1632 0340 04000000 		.word	.LC7
 1633 0344 08000000 		.word	.LC8
 1634 0348 0C000000 		.word	.LC9
ARM GAS  C:\usertemp\ccV6J5ed.s 			page 49


 1635              	.L93:
 144:generated/events_init.c **** 		lv_obj_set_pos(guider_ui.wave_model_two, 137, 28);
 1636              		.loc 1 144 3 view .LVU386
 144:generated/events_init.c **** 		lv_obj_set_pos(guider_ui.wave_model_two, 137, 28);
 1637              		.loc 1 144 27 is_stmt 0 view .LVU387
 1638 034c 824C     		ldr	r4, .L98
 144:generated/events_init.c **** 		lv_obj_set_pos(guider_ui.wave_model_two, 137, 28);
 1639              		.loc 1 144 3 view .LVU388
 1640 034e 1C22     		movs	r2, #28
 1641 0350 4FF49671 		mov	r1, #300
 1642 0354 E06D     		ldr	r0, [r4, #92]
 1643 0356 FFF7FEFF 		bl	lv_obj_set_pos
 1644              	.LVL137:
 145:generated/events_init.c **** 		lv_obj_set_pos(guider_ui.wave_model_red, 330, 25);
 1645              		.loc 1 145 3 is_stmt 1 view .LVU389
 1646 035a 1C22     		movs	r2, #28
 1647 035c 8921     		movs	r1, #137
 1648 035e A06D     		ldr	r0, [r4, #88]
 1649 0360 FFF7FEFF 		bl	lv_obj_set_pos
 1650              	.LVL138:
 146:generated/events_init.c **** 		lv_obj_set_pos(guider_ui.wave_model_green, 167, 25);
 1651              		.loc 1 146 3 view .LVU390
 1652 0364 1922     		movs	r2, #25
 1653 0366 4FF4A571 		mov	r1, #330
 1654 036a 606D     		ldr	r0, [r4, #84]
 1655 036c FFF7FEFF 		bl	lv_obj_set_pos
 1656              	.LVL139:
 147:generated/events_init.c **** 		lv_obj_set_pos(guider_ui.wave_model_yellow, 1, 25);
 1657              		.loc 1 147 3 view .LVU391
 1658 0370 1922     		movs	r2, #25
 1659 0372 A721     		movs	r1, #167
 1660 0374 E06C     		ldr	r0, [r4, #76]
 1661 0376 FFF7FEFF 		bl	lv_obj_set_pos
 1662              	.LVL140:
 148:generated/events_init.c **** 		lv_obj_set_pos(guider_ui.wave_model_num_1, -30, 30);
 1663              		.loc 1 148 3 view .LVU392
 1664 037a 1922     		movs	r2, #25
 1665 037c 0121     		movs	r1, #1
 1666 037e A06C     		ldr	r0, [r4, #72]
 1667 0380 FFF7FEFF 		bl	lv_obj_set_pos
 1668              	.LVL141:
 149:generated/events_init.c **** 
 1669              		.loc 1 149 3 view .LVU393
 1670 0384 1E22     		movs	r2, #30
 1671 0386 6FF01D01 		mvn	r1, #29
 1672 038a D4F88800 		ldr	r0, [r4, #136]
 1673 038e FFF7FEFF 		bl	lv_obj_set_pos
 1674              	.LVL142:
 152:generated/events_init.c **** 		lv_obj_clear_flag(guider_ui.wave_model_btn_11, LV_OBJ_FLAG_HIDDEN);
 1675              		.loc 1 152 3 view .LVU394
 1676 0392 0121     		movs	r1, #1
 1677 0394 D4F8B800 		ldr	r0, [r4, #184]
 1678 0398 FFF7FEFF 		bl	lv_obj_clear_flag
 1679              	.LVL143:
 153:generated/events_init.c **** 		lv_obj_clear_flag(guider_ui.wave_model_btn_12, LV_OBJ_FLAG_HIDDEN);
 1680              		.loc 1 153 3 view .LVU395
 1681 039c 0121     		movs	r1, #1
ARM GAS  C:\usertemp\ccV6J5ed.s 			page 50


 1682 039e D4F8C000 		ldr	r0, [r4, #192]
 1683 03a2 FFF7FEFF 		bl	lv_obj_clear_flag
 1684              	.LVL144:
 154:generated/events_init.c **** 		lv_obj_clear_flag(guider_ui.wave_model_btn_13, LV_OBJ_FLAG_HIDDEN);
 1685              		.loc 1 154 3 view .LVU396
 1686 03a6 0121     		movs	r1, #1
 1687 03a8 D4F8C800 		ldr	r0, [r4, #200]
 1688 03ac FFF7FEFF 		bl	lv_obj_clear_flag
 1689              	.LVL145:
 155:generated/events_init.c **** 
 1690              		.loc 1 155 3 view .LVU397
 1691 03b0 0121     		movs	r1, #1
 1692 03b2 D4F8D000 		ldr	r0, [r4, #208]
 1693 03b6 FFF7FEFF 		bl	lv_obj_clear_flag
 1694              	.LVL146:
 157:generated/events_init.c **** 		lv_obj_clear_flag(guider_ui.wave_model_btn_1, LV_OBJ_FLAG_HIDDEN);
 1695              		.loc 1 157 3 view .LVU398
 1696 03ba 0121     		movs	r1, #1
 1697 03bc A06B     		ldr	r0, [r4, #56]
 1698 03be FFF7FEFF 		bl	lv_obj_clear_flag
 1699              	.LVL147:
 158:generated/events_init.c **** 		lv_obj_clear_flag(guider_ui.wave_model_btn_2, LV_OBJ_FLAG_HIDDEN);
 1700              		.loc 1 158 3 view .LVU399
 1701 03c2 0121     		movs	r1, #1
 1702 03c4 2069     		ldr	r0, [r4, #16]
 1703 03c6 FFF7FEFF 		bl	lv_obj_clear_flag
 1704              	.LVL148:
 159:generated/events_init.c **** 		lv_obj_clear_flag(guider_ui.wave_model_btn_3, LV_OBJ_FLAG_HIDDEN);
 1705              		.loc 1 159 3 view .LVU400
 1706 03ca 0121     		movs	r1, #1
 1707 03cc A069     		ldr	r0, [r4, #24]
 1708 03ce FFF7FEFF 		bl	lv_obj_clear_flag
 1709              	.LVL149:
 160:generated/events_init.c **** 		lv_obj_clear_flag(guider_ui.wave_model_btn_4, LV_OBJ_FLAG_HIDDEN);
 1710              		.loc 1 160 3 view .LVU401
 1711 03d2 0121     		movs	r1, #1
 1712 03d4 206A     		ldr	r0, [r4, #32]
 1713 03d6 FFF7FEFF 		bl	lv_obj_clear_flag
 1714              	.LVL150:
 161:generated/events_init.c **** 		lv_obj_clear_flag(guider_ui.wave_model_btn_5, LV_OBJ_FLAG_HIDDEN);
 1715              		.loc 1 161 3 view .LVU402
 1716 03da 0121     		movs	r1, #1
 1717 03dc A06A     		ldr	r0, [r4, #40]
 1718 03de FFF7FEFF 		bl	lv_obj_clear_flag
 1719              	.LVL151:
 162:generated/events_init.c **** 		lv_obj_add_flag(guider_ui.wave_model_label_27, LV_OBJ_FLAG_HIDDEN);
 1720              		.loc 1 162 3 view .LVU403
 1721 03e2 0121     		movs	r1, #1
 1722 03e4 206B     		ldr	r0, [r4, #48]
 1723 03e6 FFF7FEFF 		bl	lv_obj_clear_flag
 1724              	.LVL152:
 163:generated/events_init.c **** 		lv_obj_add_flag(guider_ui.wave_model_chart_2, LV_OBJ_FLAG_HIDDEN);
 1725              		.loc 1 163 3 view .LVU404
 1726 03ea 0121     		movs	r1, #1
 1727 03ec E068     		ldr	r0, [r4, #12]
 1728 03ee FFF7FEFF 		bl	lv_obj_add_flag
 1729              	.LVL153:
ARM GAS  C:\usertemp\ccV6J5ed.s 			page 51


 164:generated/events_init.c **** 		lv_obj_clear_flag(guider_ui.wave_model_chart_3, LV_OBJ_FLAG_HIDDEN);
 1730              		.loc 1 164 3 view .LVU405
 1731 03f2 0121     		movs	r1, #1
 1732 03f4 D4F88C00 		ldr	r0, [r4, #140]
 1733 03f8 FFF7FEFF 		bl	lv_obj_add_flag
 1734              	.LVL154:
 165:generated/events_init.c **** 		lv_obj_add_flag(guider_ui.wave_model_img_1, LV_OBJ_FLAG_HIDDEN);
 1735              		.loc 1 165 3 view .LVU406
 1736 03fc 0121     		movs	r1, #1
 1737 03fe D4F8E000 		ldr	r0, [r4, #224]
 1738 0402 FFF7FEFF 		bl	lv_obj_clear_flag
 1739              	.LVL155:
 166:generated/events_init.c **** 		lv_obj_clear_flag(guider_ui.wave_model_digital_clock_1, LV_OBJ_FLAG_HIDDEN);
 1740              		.loc 1 166 3 view .LVU407
 1741 0406 0121     		movs	r1, #1
 1742 0408 D4F8AC00 		ldr	r0, [r4, #172]
 1743 040c FFF7FEFF 		bl	lv_obj_add_flag
 1744              	.LVL156:
 167:generated/events_init.c **** 		lv_obj_add_flag(guider_ui.wave_model_label_26, LV_OBJ_FLAG_HIDDEN);
 1745              		.loc 1 167 3 view .LVU408
 1746 0410 0121     		movs	r1, #1
 1747 0412 D4F8A800 		ldr	r0, [r4, #168]
 1748 0416 FFF7FEFF 		bl	lv_obj_clear_flag
 1749              	.LVL157:
 168:generated/events_init.c **** 		lv_obj_add_flag(guider_ui.wave_model_table_1, LV_OBJ_FLAG_HIDDEN);
 1750              		.loc 1 168 3 view .LVU409
 1751 041a 0121     		movs	r1, #1
 1752 041c D4F8A400 		ldr	r0, [r4, #164]
 1753 0420 FFF7FEFF 		bl	lv_obj_add_flag
 1754              	.LVL158:
 169:generated/events_init.c **** 		lv_obj_clear_flag(guider_ui.wave_model_btn_8, LV_OBJ_FLAG_HIDDEN);
 1755              		.loc 1 169 3 view .LVU410
 1756 0424 0121     		movs	r1, #1
 1757 0426 D4F8A000 		ldr	r0, [r4, #160]
 1758 042a FFF7FEFF 		bl	lv_obj_add_flag
 1759              	.LVL159:
 170:generated/events_init.c **** 		lv_obj_clear_flag(guider_ui.wave_model_btn_7, LV_OBJ_FLAG_HIDDEN);
 1760              		.loc 1 170 3 view .LVU411
 1761 042e 0121     		movs	r1, #1
 1762 0430 D4F89800 		ldr	r0, [r4, #152]
 1763 0434 FFF7FEFF 		bl	lv_obj_clear_flag
 1764              	.LVL160:
 171:generated/events_init.c **** 
 1765              		.loc 1 171 3 view .LVU412
 1766 0438 0121     		movs	r1, #1
 1767 043a D4F89000 		ldr	r0, [r4, #144]
 1768 043e FFF7FEFF 		bl	lv_obj_clear_flag
 1769              	.LVL161:
 173:generated/events_init.c **** 		lv_obj_add_flag(guider_ui.wave_model_N_val, LV_OBJ_FLAG_HIDDEN);
 1770              		.loc 1 173 3 view .LVU413
 1771 0442 0121     		movs	r1, #1
 1772 0444 D4F88800 		ldr	r0, [r4, #136]
 1773 0448 FFF7FEFF 		bl	lv_obj_clear_flag
 1774              	.LVL162:
 174:generated/events_init.c **** 		lv_obj_add_flag(guider_ui.wave_model_label_25, LV_OBJ_FLAG_HIDDEN);
 1775              		.loc 1 174 3 view .LVU414
 1776 044c 0121     		movs	r1, #1
ARM GAS  C:\usertemp\ccV6J5ed.s 			page 52


 1777 044e D4F88400 		ldr	r0, [r4, #132]
 1778 0452 FFF7FEFF 		bl	lv_obj_add_flag
 1779              	.LVL163:
 175:generated/events_init.c **** 		lv_obj_add_flag(guider_ui.wave_model_label_24, LV_OBJ_FLAG_HIDDEN);
 1780              		.loc 1 175 3 view .LVU415
 1781 0456 0121     		movs	r1, #1
 1782 0458 D4F88000 		ldr	r0, [r4, #128]
 1783 045c FFF7FEFF 		bl	lv_obj_add_flag
 1784              	.LVL164:
 176:generated/events_init.c **** 		lv_obj_add_flag(guider_ui.wave_model_label_23, LV_OBJ_FLAG_HIDDEN);
 1785              		.loc 1 176 3 view .LVU416
 1786 0460 0121     		movs	r1, #1
 1787 0462 E06F     		ldr	r0, [r4, #124]
 1788 0464 FFF7FEFF 		bl	lv_obj_add_flag
 1789              	.LVL165:
 177:generated/events_init.c **** 		lv_obj_add_flag(guider_ui.wave_model_label_22, LV_OBJ_FLAG_HIDDEN);
 1790              		.loc 1 177 3 view .LVU417
 1791 0468 0121     		movs	r1, #1
 1792 046a A06F     		ldr	r0, [r4, #120]
 1793 046c FFF7FEFF 		bl	lv_obj_add_flag
 1794              	.LVL166:
 178:generated/events_init.c **** 		lv_obj_add_flag(guider_ui.wave_model_label_21, LV_OBJ_FLAG_HIDDEN);
 1795              		.loc 1 178 3 view .LVU418
 1796 0470 0121     		movs	r1, #1
 1797 0472 606F     		ldr	r0, [r4, #116]
 1798 0474 FFF7FEFF 		bl	lv_obj_add_flag
 1799              	.LVL167:
 179:generated/events_init.c **** 		lv_obj_set_width(guider_ui.wave_model_three_value, 120);
 1800              		.loc 1 179 3 view .LVU419
 1801 0478 0121     		movs	r1, #1
 1802 047a 206F     		ldr	r0, [r4, #112]
 1803 047c FFF7FEFF 		bl	lv_obj_add_flag
 1804              	.LVL168:
 180:generated/events_init.c **** 		lv_obj_set_height(guider_ui.wave_model_three_value, 90);
 1805              		.loc 1 180 3 view .LVU420
 1806 0480 7821     		movs	r1, #120
 1807 0482 E06E     		ldr	r0, [r4, #108]
 1808 0484 FFF7FEFF 		bl	lv_obj_set_width
 1809              	.LVL169:
 181:generated/events_init.c **** 		lv_obj_clear_flag(guider_ui.wave_model_three_value, LV_OBJ_FLAG_HIDDEN);
 1810              		.loc 1 181 3 view .LVU421
 1811 0488 5A21     		movs	r1, #90
 1812 048a E06E     		ldr	r0, [r4, #108]
 1813 048c FFF7FEFF 		bl	lv_obj_set_height
 1814              	.LVL170:
 182:generated/events_init.c **** 		lv_obj_set_width(guider_ui.wave_model_two_value, 120);
 1815              		.loc 1 182 3 view .LVU422
 1816 0490 0121     		movs	r1, #1
 1817 0492 E06E     		ldr	r0, [r4, #108]
 1818 0494 FFF7FEFF 		bl	lv_obj_clear_flag
 1819              	.LVL171:
 183:generated/events_init.c **** 		lv_obj_set_height(guider_ui.wave_model_two_value, 90);
 1820              		.loc 1 183 3 view .LVU423
 1821 0498 7821     		movs	r1, #120
 1822 049a A06E     		ldr	r0, [r4, #104]
 1823 049c FFF7FEFF 		bl	lv_obj_set_width
 1824              	.LVL172:
ARM GAS  C:\usertemp\ccV6J5ed.s 			page 53


 184:generated/events_init.c **** 		lv_obj_clear_flag(guider_ui.wave_model_two_value, LV_OBJ_FLAG_HIDDEN);
 1825              		.loc 1 184 3 view .LVU424
 1826 04a0 5A21     		movs	r1, #90
 1827 04a2 A06E     		ldr	r0, [r4, #104]
 1828 04a4 FFF7FEFF 		bl	lv_obj_set_height
 1829              	.LVL173:
 185:generated/events_init.c **** 		lv_obj_set_width(guider_ui.wave_model_one_value, 120);
 1830              		.loc 1 185 3 view .LVU425
 1831 04a8 0121     		movs	r1, #1
 1832 04aa A06E     		ldr	r0, [r4, #104]
 1833 04ac FFF7FEFF 		bl	lv_obj_clear_flag
 1834              	.LVL174:
 186:generated/events_init.c **** 		lv_obj_set_height(guider_ui.wave_model_one_value, 90);
 1835              		.loc 1 186 3 view .LVU426
 1836 04b0 7821     		movs	r1, #120
 1837 04b2 606E     		ldr	r0, [r4, #100]
 1838 04b4 FFF7FEFF 		bl	lv_obj_set_width
 1839              	.LVL175:
 187:generated/events_init.c **** 		lv_obj_clear_flag(guider_ui.wave_model_one_value, LV_OBJ_FLAG_HIDDEN);
 1840              		.loc 1 187 3 view .LVU427
 1841 04b8 5A21     		movs	r1, #90
 1842 04ba 606E     		ldr	r0, [r4, #100]
 1843 04bc FFF7FEFF 		bl	lv_obj_set_height
 1844              	.LVL176:
 188:generated/events_init.c **** 		lv_obj_add_flag(guider_ui.wave_model_N__, LV_OBJ_FLAG_HIDDEN);
 1845              		.loc 1 188 3 view .LVU428
 1846 04c0 0121     		movs	r1, #1
 1847 04c2 606E     		ldr	r0, [r4, #100]
 1848 04c4 FFF7FEFF 		bl	lv_obj_clear_flag
 1849              	.LVL177:
 189:generated/events_init.c **** 		lv_obj_clear_flag(guider_ui.wave_model_three, LV_OBJ_FLAG_HIDDEN);
 1850              		.loc 1 189 3 view .LVU429
 1851 04c8 0121     		movs	r1, #1
 1852 04ca 206E     		ldr	r0, [r4, #96]
 1853 04cc FFF7FEFF 		bl	lv_obj_add_flag
 1854              	.LVL178:
 190:generated/events_init.c **** 		lv_obj_clear_flag(guider_ui.wave_model_two, LV_OBJ_FLAG_HIDDEN);
 1855              		.loc 1 190 3 view .LVU430
 1856 04d0 0121     		movs	r1, #1
 1857 04d2 E06D     		ldr	r0, [r4, #92]
 1858 04d4 FFF7FEFF 		bl	lv_obj_clear_flag
 1859              	.LVL179:
 191:generated/events_init.c **** 		lv_obj_clear_flag(guider_ui.wave_model_red, LV_OBJ_FLAG_HIDDEN);
 1860              		.loc 1 191 3 view .LVU431
 1861 04d8 0121     		movs	r1, #1
 1862 04da A06D     		ldr	r0, [r4, #88]
 1863 04dc FFF7FEFF 		bl	lv_obj_clear_flag
 1864              	.LVL180:
 192:generated/events_init.c **** 		lv_obj_add_flag(guider_ui.wave_model_blue, LV_OBJ_FLAG_HIDDEN);
 1865              		.loc 1 192 3 view .LVU432
 1866 04e0 0121     		movs	r1, #1
 1867 04e2 606D     		ldr	r0, [r4, #84]
 1868 04e4 FFF7FEFF 		bl	lv_obj_clear_flag
 1869              	.LVL181:
 193:generated/events_init.c **** 		lv_obj_clear_flag(guider_ui.wave_model_green, LV_OBJ_FLAG_HIDDEN);
 1870              		.loc 1 193 3 view .LVU433
 1871 04e8 0121     		movs	r1, #1
ARM GAS  C:\usertemp\ccV6J5ed.s 			page 54


 1872 04ea 206D     		ldr	r0, [r4, #80]
 1873 04ec FFF7FEFF 		bl	lv_obj_add_flag
 1874              	.LVL182:
 194:generated/events_init.c **** 		lv_obj_clear_flag(guider_ui.wave_model_yellow, LV_OBJ_FLAG_HIDDEN);
 1875              		.loc 1 194 3 view .LVU434
 1876 04f0 0121     		movs	r1, #1
 1877 04f2 E06C     		ldr	r0, [r4, #76]
 1878 04f4 FFF7FEFF 		bl	lv_obj_clear_flag
 1879              	.LVL183:
 195:generated/events_init.c **** 		lv_obj_clear_flag(guider_ui.wave_model_freq, LV_OBJ_FLAG_HIDDEN);
 1880              		.loc 1 195 3 view .LVU435
 1881 04f8 0121     		movs	r1, #1
 1882 04fa A06C     		ldr	r0, [r4, #72]
 1883 04fc FFF7FEFF 		bl	lv_obj_clear_flag
 1884              	.LVL184:
 196:generated/events_init.c **** 		lv_obj_clear_flag(guider_ui.wave_model_power, LV_OBJ_FLAG_HIDDEN);
 1885              		.loc 1 196 3 view .LVU436
 1886 0500 0121     		movs	r1, #1
 1887 0502 606C     		ldr	r0, [r4, #68]
 1888 0504 FFF7FEFF 		bl	lv_obj_clear_flag
 1889              	.LVL185:
 197:generated/events_init.c **** 		lv_obj_clear_flag(guider_ui.wave_model_btn_1, LV_OBJ_FLAG_HIDDEN);
 1890              		.loc 1 197 3 view .LVU437
 1891 0508 0121     		movs	r1, #1
 1892 050a 206C     		ldr	r0, [r4, #64]
 1893 050c FFF7FEFF 		bl	lv_obj_clear_flag
 1894              	.LVL186:
 198:generated/events_init.c **** 		lv_obj_clear_flag(guider_ui.wave_model_btn_2, LV_OBJ_FLAG_HIDDEN);
 1895              		.loc 1 198 3 view .LVU438
 1896 0510 0121     		movs	r1, #1
 1897 0512 2069     		ldr	r0, [r4, #16]
 1898 0514 FFF7FEFF 		bl	lv_obj_clear_flag
 1899              	.LVL187:
 199:generated/events_init.c **** 		lv_obj_clear_flag(guider_ui.wave_model_btn_3, LV_OBJ_FLAG_HIDDEN);
 1900              		.loc 1 199 3 view .LVU439
 1901 0518 0121     		movs	r1, #1
 1902 051a A069     		ldr	r0, [r4, #24]
 1903 051c FFF7FEFF 		bl	lv_obj_clear_flag
 1904              	.LVL188:
 200:generated/events_init.c **** 		lv_obj_clear_flag(guider_ui.wave_model_btn_4, LV_OBJ_FLAG_HIDDEN);
 1905              		.loc 1 200 3 view .LVU440
 1906 0520 0121     		movs	r1, #1
 1907 0522 206A     		ldr	r0, [r4, #32]
 1908 0524 FFF7FEFF 		bl	lv_obj_clear_flag
 1909              	.LVL189:
 201:generated/events_init.c **** 		lv_obj_clear_flag(guider_ui.wave_model_btn_5, LV_OBJ_FLAG_HIDDEN);
 1910              		.loc 1 201 3 view .LVU441
 1911 0528 0121     		movs	r1, #1
 1912 052a A06A     		ldr	r0, [r4, #40]
 1913 052c FFF7FEFF 		bl	lv_obj_clear_flag
 1914              	.LVL190:
 202:generated/events_init.c **** 		lv_obj_clear_flag(guider_ui.wave_model_btn_6, LV_OBJ_FLAG_HIDDEN);
 1915              		.loc 1 202 3 view .LVU442
 1916 0530 0121     		movs	r1, #1
 1917 0532 206B     		ldr	r0, [r4, #48]
 1918 0534 FFF7FEFF 		bl	lv_obj_clear_flag
 1919              	.LVL191:
ARM GAS  C:\usertemp\ccV6J5ed.s 			page 55


 203:generated/events_init.c **** 		lv_label_set_text(guider_ui.wave_model_btn_14_label, "Y-");
 1920              		.loc 1 203 3 view .LVU443
 1921 0538 0121     		movs	r1, #1
 1922 053a A06B     		ldr	r0, [r4, #56]
 1923 053c FFF7FEFF 		bl	lv_obj_clear_flag
 1924              	.LVL192:
 204:generated/events_init.c **** 		lv_label_set_text(guider_ui.wave_model_btn_9_label, "Y+");
 1925              		.loc 1 204 3 view .LVU444
 1926 0540 0649     		ldr	r1, .L98+4
 1927 0542 D4F8DC00 		ldr	r0, [r4, #220]
 1928 0546 FFF7FEFF 		bl	lv_label_set_text
 1929              	.LVL193:
 205:generated/events_init.c **** 	}
 1930              		.loc 1 205 3 view .LVU445
 1931 054a 0549     		ldr	r1, .L98+8
 1932 054c D4F8B400 		ldr	r0, [r4, #180]
 1933 0550 FFF7FEFF 		bl	lv_label_set_text
 1934              	.LVL194:
 1935 0554 65E5     		b	.L87
 1936              	.L99:
 1937 0556 00BF     		.align	2
 1938              	.L98:
 1939 0558 00000000 		.word	guider_ui
 1940 055c 00000000 		.word	.LC6
 1941 0560 04000000 		.word	.LC7
 1942              	.L94:
 210:generated/events_init.c **** 		lv_obj_clear_flag(guider_ui.wave_model_btn_7, LV_OBJ_FLAG_HIDDEN);
 1943              		.loc 1 210 3 view .LVU446
 1944 0564 704C     		ldr	r4, .L100
 1945 0566 0121     		movs	r1, #1
 1946 0568 D4F8E000 		ldr	r0, [r4, #224]
 1947 056c FFF7FEFF 		bl	lv_obj_add_flag
 1948              	.LVL195:
 211:generated/events_init.c **** 		lv_obj_set_width(guider_ui.wave_model_chart_2, 520);
 1949              		.loc 1 211 3 view .LVU447
 1950 0570 0121     		movs	r1, #1
 1951 0572 D4F89000 		ldr	r0, [r4, #144]
 1952 0576 FFF7FEFF 		bl	lv_obj_clear_flag
 1953              	.LVL196:
 212:generated/events_init.c **** 		lv_obj_set_height(guider_ui.wave_model_chart_2, 280);
 1954              		.loc 1 212 3 view .LVU448
 1955 057a 4FF40271 		mov	r1, #520
 1956 057e D4F88C00 		ldr	r0, [r4, #140]
 1957 0582 FFF7FEFF 		bl	lv_obj_set_width
 1958              	.LVL197:
 213:generated/events_init.c **** 		lv_obj_set_pos(guider_ui.wave_model_chart_2, 47, 130);
 1959              		.loc 1 213 3 view .LVU449
 1960 0586 4FF48C71 		mov	r1, #280
 1961 058a D4F88C00 		ldr	r0, [r4, #140]
 1962 058e FFF7FEFF 		bl	lv_obj_set_height
 1963              	.LVL198:
 214:generated/events_init.c **** 		lv_obj_add_flag(guider_ui.wave_model_chart_2, LV_OBJ_FLAG_HIDDEN);
 1964              		.loc 1 214 3 view .LVU450
 1965 0592 8222     		movs	r2, #130
 1966 0594 2F21     		movs	r1, #47
 1967 0596 D4F88C00 		ldr	r0, [r4, #140]
 1968 059a FFF7FEFF 		bl	lv_obj_set_pos
ARM GAS  C:\usertemp\ccV6J5ed.s 			page 56


 1969              	.LVL199:
 215:generated/events_init.c **** 		lv_obj_clear_flag(guider_ui.wave_model_num_1, LV_OBJ_FLAG_HIDDEN);
 1970              		.loc 1 215 3 view .LVU451
 1971 059e 0121     		movs	r1, #1
 1972 05a0 D4F88C00 		ldr	r0, [r4, #140]
 1973 05a4 FFF7FEFF 		bl	lv_obj_add_flag
 1974              	.LVL200:
 216:generated/events_init.c **** 		lv_obj_add_flag(guider_ui.wave_model_N_val, LV_OBJ_FLAG_HIDDEN);
 1975              		.loc 1 216 3 view .LVU452
 1976 05a8 0121     		movs	r1, #1
 1977 05aa D4F88800 		ldr	r0, [r4, #136]
 1978 05ae FFF7FEFF 		bl	lv_obj_clear_flag
 1979              	.LVL201:
 217:generated/events_init.c **** 		lv_obj_add_flag(guider_ui.wave_model_label_25, LV_OBJ_FLAG_HIDDEN);
 1980              		.loc 1 217 3 view .LVU453
 1981 05b2 0121     		movs	r1, #1
 1982 05b4 D4F88400 		ldr	r0, [r4, #132]
 1983 05b8 FFF7FEFF 		bl	lv_obj_add_flag
 1984              	.LVL202:
 218:generated/events_init.c **** 		lv_obj_add_flag(guider_ui.wave_model_label_24, LV_OBJ_FLAG_HIDDEN);
 1985              		.loc 1 218 3 view .LVU454
 1986 05bc 0121     		movs	r1, #1
 1987 05be D4F88000 		ldr	r0, [r4, #128]
 1988 05c2 FFF7FEFF 		bl	lv_obj_add_flag
 1989              	.LVL203:
 219:generated/events_init.c **** 		lv_obj_add_flag(guider_ui.wave_model_label_23, LV_OBJ_FLAG_HIDDEN);
 1990              		.loc 1 219 3 view .LVU455
 1991 05c6 0121     		movs	r1, #1
 1992 05c8 E06F     		ldr	r0, [r4, #124]
 1993 05ca FFF7FEFF 		bl	lv_obj_add_flag
 1994              	.LVL204:
 220:generated/events_init.c **** 		lv_obj_add_flag(guider_ui.wave_model_label_22, LV_OBJ_FLAG_HIDDEN);
 1995              		.loc 1 220 3 view .LVU456
 1996 05ce 0121     		movs	r1, #1
 1997 05d0 A06F     		ldr	r0, [r4, #120]
 1998 05d2 FFF7FEFF 		bl	lv_obj_add_flag
 1999              	.LVL205:
 221:generated/events_init.c **** 		lv_obj_add_flag(guider_ui.wave_model_label_21, LV_OBJ_FLAG_HIDDEN);
 2000              		.loc 1 221 3 view .LVU457
 2001 05d6 0121     		movs	r1, #1
 2002 05d8 606F     		ldr	r0, [r4, #116]
 2003 05da FFF7FEFF 		bl	lv_obj_add_flag
 2004              	.LVL206:
 222:generated/events_init.c **** 		lv_obj_set_width(guider_ui.wave_model_three_value, 120);
 2005              		.loc 1 222 3 view .LVU458
 2006 05de 0121     		movs	r1, #1
 2007 05e0 206F     		ldr	r0, [r4, #112]
 2008 05e2 FFF7FEFF 		bl	lv_obj_add_flag
 2009              	.LVL207:
 223:generated/events_init.c **** 		lv_obj_set_height(guider_ui.wave_model_three_value, 90);
 2010              		.loc 1 223 3 view .LVU459
 2011 05e6 7821     		movs	r1, #120
 2012 05e8 E06E     		ldr	r0, [r4, #108]
 2013 05ea FFF7FEFF 		bl	lv_obj_set_width
 2014              	.LVL208:
 224:generated/events_init.c **** 		lv_obj_add_flag(guider_ui.wave_model_three_value, LV_OBJ_FLAG_HIDDEN);
 2015              		.loc 1 224 3 view .LVU460
ARM GAS  C:\usertemp\ccV6J5ed.s 			page 57


 2016 05ee 5A21     		movs	r1, #90
 2017 05f0 E06E     		ldr	r0, [r4, #108]
 2018 05f2 FFF7FEFF 		bl	lv_obj_set_height
 2019              	.LVL209:
 225:generated/events_init.c **** 		lv_obj_set_width(guider_ui.wave_model_two_value, 120);
 2020              		.loc 1 225 3 view .LVU461
 2021 05f6 0121     		movs	r1, #1
 2022 05f8 E06E     		ldr	r0, [r4, #108]
 2023 05fa FFF7FEFF 		bl	lv_obj_add_flag
 2024              	.LVL210:
 226:generated/events_init.c **** 		lv_obj_set_height(guider_ui.wave_model_two_value, 90);
 2025              		.loc 1 226 3 view .LVU462
 2026 05fe 7821     		movs	r1, #120
 2027 0600 A06E     		ldr	r0, [r4, #104]
 2028 0602 FFF7FEFF 		bl	lv_obj_set_width
 2029              	.LVL211:
 227:generated/events_init.c **** 		lv_obj_add_flag(guider_ui.wave_model_two_value, LV_OBJ_FLAG_HIDDEN);
 2030              		.loc 1 227 3 view .LVU463
 2031 0606 5A21     		movs	r1, #90
 2032 0608 A06E     		ldr	r0, [r4, #104]
 2033 060a FFF7FEFF 		bl	lv_obj_set_height
 2034              	.LVL212:
 228:generated/events_init.c **** 		lv_obj_set_width(guider_ui.wave_model_one_value, 120);
 2035              		.loc 1 228 3 view .LVU464
 2036 060e 0121     		movs	r1, #1
 2037 0610 A06E     		ldr	r0, [r4, #104]
 2038 0612 FFF7FEFF 		bl	lv_obj_add_flag
 2039              	.LVL213:
 229:generated/events_init.c **** 		lv_obj_set_height(guider_ui.wave_model_one_value, 90);
 2040              		.loc 1 229 3 view .LVU465
 2041 0616 7821     		movs	r1, #120
 2042 0618 606E     		ldr	r0, [r4, #100]
 2043 061a FFF7FEFF 		bl	lv_obj_set_width
 2044              	.LVL214:
 230:generated/events_init.c **** 		lv_obj_add_flag(guider_ui.wave_model_one_value, LV_OBJ_FLAG_HIDDEN);
 2045              		.loc 1 230 3 view .LVU466
 2046 061e 5A21     		movs	r1, #90
 2047 0620 606E     		ldr	r0, [r4, #100]
 2048 0622 FFF7FEFF 		bl	lv_obj_set_height
 2049              	.LVL215:
 231:generated/events_init.c **** 		lv_obj_add_flag(guider_ui.wave_model_N__, LV_OBJ_FLAG_HIDDEN);
 2050              		.loc 1 231 3 view .LVU467
 2051 0626 0121     		movs	r1, #1
 2052 0628 606E     		ldr	r0, [r4, #100]
 2053 062a FFF7FEFF 		bl	lv_obj_add_flag
 2054              	.LVL216:
 232:generated/events_init.c **** 		lv_obj_set_pos(guider_ui.wave_model_num_1, 169, 100);
 2055              		.loc 1 232 3 view .LVU468
 2056 062e 0121     		movs	r1, #1
 2057 0630 206E     		ldr	r0, [r4, #96]
 2058 0632 FFF7FEFF 		bl	lv_obj_add_flag
 2059              	.LVL217:
 233:generated/events_init.c **** 		lv_obj_set_pos(guider_ui.wave_model_three, 430, 98);
 2060              		.loc 1 233 3 view .LVU469
 2061 0636 6422     		movs	r2, #100
 2062 0638 A921     		movs	r1, #169
 2063 063a D4F88800 		ldr	r0, [r4, #136]
ARM GAS  C:\usertemp\ccV6J5ed.s 			page 58


 2064 063e FFF7FEFF 		bl	lv_obj_set_pos
 2065              	.LVL218:
 234:generated/events_init.c **** 		lv_obj_set_pos(guider_ui.wave_model_two, 299, 98);
 2066              		.loc 1 234 3 view .LVU470
 2067 0642 6222     		movs	r2, #98
 2068 0644 4FF4D771 		mov	r1, #430
 2069 0648 E06D     		ldr	r0, [r4, #92]
 2070 064a FFF7FEFF 		bl	lv_obj_set_pos
 2071              	.LVL219:
 235:generated/events_init.c **** 		lv_obj_set_pos(guider_ui.wave_model_red, 461, 95);
 2072              		.loc 1 235 3 view .LVU471
 2073 064e 6222     		movs	r2, #98
 2074 0650 40F22B11 		movw	r1, #299
 2075 0654 A06D     		ldr	r0, [r4, #88]
 2076 0656 FFF7FEFF 		bl	lv_obj_set_pos
 2077              	.LVL220:
 236:generated/events_init.c **** 		lv_obj_set_pos(guider_ui.wave_model_green, 330, 95);
 2078              		.loc 1 236 3 view .LVU472
 2079 065a 5F22     		movs	r2, #95
 2080 065c 40F2CD11 		movw	r1, #461
 2081 0660 606D     		ldr	r0, [r4, #84]
 2082 0662 FFF7FEFF 		bl	lv_obj_set_pos
 2083              	.LVL221:
 237:generated/events_init.c **** 		lv_obj_set_pos(guider_ui.wave_model_yellow, 200, 95);
 2084              		.loc 1 237 3 view .LVU473
 2085 0666 5F22     		movs	r2, #95
 2086 0668 4FF4A571 		mov	r1, #330
 2087 066c E06C     		ldr	r0, [r4, #76]
 2088 066e FFF7FEFF 		bl	lv_obj_set_pos
 2089              	.LVL222:
 238:generated/events_init.c **** 		lv_obj_clear_flag(guider_ui.wave_model_three, LV_OBJ_FLAG_HIDDEN);
 2090              		.loc 1 238 3 view .LVU474
 2091 0672 5F22     		movs	r2, #95
 2092 0674 C821     		movs	r1, #200
 2093 0676 A06C     		ldr	r0, [r4, #72]
 2094 0678 FFF7FEFF 		bl	lv_obj_set_pos
 2095              	.LVL223:
 239:generated/events_init.c **** 		lv_obj_clear_flag(guider_ui.wave_model_two, LV_OBJ_FLAG_HIDDEN);
 2096              		.loc 1 239 3 view .LVU475
 2097 067c 0121     		movs	r1, #1
 2098 067e E06D     		ldr	r0, [r4, #92]
 2099 0680 FFF7FEFF 		bl	lv_obj_clear_flag
 2100              	.LVL224:
 240:generated/events_init.c **** 		lv_obj_clear_flag(guider_ui.wave_model_red, LV_OBJ_FLAG_HIDDEN);
 2101              		.loc 1 240 3 view .LVU476
 2102 0684 0121     		movs	r1, #1
 2103 0686 A06D     		ldr	r0, [r4, #88]
 2104 0688 FFF7FEFF 		bl	lv_obj_clear_flag
 2105              	.LVL225:
 241:generated/events_init.c **** 		lv_obj_add_flag(guider_ui.wave_model_blue, LV_OBJ_FLAG_HIDDEN);
 2106              		.loc 1 241 3 view .LVU477
 2107 068c 0121     		movs	r1, #1
 2108 068e 606D     		ldr	r0, [r4, #84]
 2109 0690 FFF7FEFF 		bl	lv_obj_clear_flag
 2110              	.LVL226:
 242:generated/events_init.c **** 		lv_obj_clear_flag(guider_ui.wave_model_green, LV_OBJ_FLAG_HIDDEN);
 2111              		.loc 1 242 3 view .LVU478
ARM GAS  C:\usertemp\ccV6J5ed.s 			page 59


 2112 0694 0121     		movs	r1, #1
 2113 0696 206D     		ldr	r0, [r4, #80]
 2114 0698 FFF7FEFF 		bl	lv_obj_add_flag
 2115              	.LVL227:
 243:generated/events_init.c **** 		lv_obj_clear_flag(guider_ui.wave_model_yellow, LV_OBJ_FLAG_HIDDEN);
 2116              		.loc 1 243 3 view .LVU479
 2117 069c 0121     		movs	r1, #1
 2118 069e E06C     		ldr	r0, [r4, #76]
 2119 06a0 FFF7FEFF 		bl	lv_obj_clear_flag
 2120              	.LVL228:
 244:generated/events_init.c **** 		lv_obj_clear_flag(guider_ui.wave_model_freq, LV_OBJ_FLAG_HIDDEN);
 2121              		.loc 1 244 3 view .LVU480
 2122 06a4 0121     		movs	r1, #1
 2123 06a6 A06C     		ldr	r0, [r4, #72]
 2124 06a8 FFF7FEFF 		bl	lv_obj_clear_flag
 2125              	.LVL229:
 245:generated/events_init.c **** 		lv_obj_clear_flag(guider_ui.wave_model_power, LV_OBJ_FLAG_HIDDEN);
 2126              		.loc 1 245 3 view .LVU481
 2127 06ac 0121     		movs	r1, #1
 2128 06ae 606C     		ldr	r0, [r4, #68]
 2129 06b0 FFF7FEFF 		bl	lv_obj_clear_flag
 2130              	.LVL230:
 246:generated/events_init.c **** 
 2131              		.loc 1 246 3 view .LVU482
 2132 06b4 0121     		movs	r1, #1
 2133 06b6 206C     		ldr	r0, [r4, #64]
 2134 06b8 FFF7FEFF 		bl	lv_obj_clear_flag
 2135              	.LVL231:
 248:generated/events_init.c **** 		lv_obj_clear_flag(guider_ui.wave_model_btn_2, LV_OBJ_FLAG_HIDDEN);
 2136              		.loc 1 248 3 view .LVU483
 2137 06bc 0121     		movs	r1, #1
 2138 06be 2069     		ldr	r0, [r4, #16]
 2139 06c0 FFF7FEFF 		bl	lv_obj_clear_flag
 2140              	.LVL232:
 249:generated/events_init.c **** 		lv_obj_clear_flag(guider_ui.wave_model_btn_3, LV_OBJ_FLAG_HIDDEN);
 2141              		.loc 1 249 3 view .LVU484
 2142 06c4 0121     		movs	r1, #1
 2143 06c6 A069     		ldr	r0, [r4, #24]
 2144 06c8 FFF7FEFF 		bl	lv_obj_clear_flag
 2145              	.LVL233:
 250:generated/events_init.c **** 		lv_obj_clear_flag(guider_ui.wave_model_btn_4, LV_OBJ_FLAG_HIDDEN);
 2146              		.loc 1 250 3 view .LVU485
 2147 06cc 0121     		movs	r1, #1
 2148 06ce 206A     		ldr	r0, [r4, #32]
 2149 06d0 FFF7FEFF 		bl	lv_obj_clear_flag
 2150              	.LVL234:
 251:generated/events_init.c **** 		lv_obj_clear_flag(guider_ui.wave_model_btn_5, LV_OBJ_FLAG_HIDDEN);
 2151              		.loc 1 251 3 view .LVU486
 2152 06d4 0121     		movs	r1, #1
 2153 06d6 A06A     		ldr	r0, [r4, #40]
 2154 06d8 FFF7FEFF 		bl	lv_obj_clear_flag
 2155              	.LVL235:
 252:generated/events_init.c **** 		lv_obj_clear_flag(guider_ui.wave_model_btn_6, LV_OBJ_FLAG_HIDDEN);
 2156              		.loc 1 252 3 view .LVU487
 2157 06dc 0121     		movs	r1, #1
 2158 06de 206B     		ldr	r0, [r4, #48]
 2159 06e0 FFF7FEFF 		bl	lv_obj_clear_flag
ARM GAS  C:\usertemp\ccV6J5ed.s 			page 60


 2160              	.LVL236:
 253:generated/events_init.c **** 
 2161              		.loc 1 253 3 view .LVU488
 2162 06e4 0121     		movs	r1, #1
 2163 06e6 A06B     		ldr	r0, [r4, #56]
 2164 06e8 FFF7FEFF 		bl	lv_obj_clear_flag
 2165              	.LVL237:
 255:generated/events_init.c **** 		lv_obj_clear_flag(guider_ui.wave_model_table_1, LV_OBJ_FLAG_HIDDEN);
 2166              		.loc 1 255 3 view .LVU489
 2167 06ec 0121     		movs	r1, #1
 2168 06ee D4F89800 		ldr	r0, [r4, #152]
 2169 06f2 FFF7FEFF 		bl	lv_obj_clear_flag
 2170              	.LVL238:
 256:generated/events_init.c **** 		lv_obj_add_flag(guider_ui.wave_model_label_26, LV_OBJ_FLAG_HIDDEN);
 2171              		.loc 1 256 3 view .LVU490
 2172 06f6 0121     		movs	r1, #1
 2173 06f8 D4F8A000 		ldr	r0, [r4, #160]
 2174 06fc FFF7FEFF 		bl	lv_obj_clear_flag
 2175              	.LVL239:
 257:generated/events_init.c **** 		lv_obj_clear_flag(guider_ui.wave_model_digital_clock_1, LV_OBJ_FLAG_HIDDEN);
 2176              		.loc 1 257 3 view .LVU491
 2177 0700 0121     		movs	r1, #1
 2178 0702 D4F8A400 		ldr	r0, [r4, #164]
 2179 0706 FFF7FEFF 		bl	lv_obj_add_flag
 2180              	.LVL240:
 258:generated/events_init.c **** 		lv_obj_add_flag(guider_ui.wave_model_img_1, LV_OBJ_FLAG_HIDDEN);
 2181              		.loc 1 258 3 view .LVU492
 2182 070a 0121     		movs	r1, #1
 2183 070c D4F8A800 		ldr	r0, [r4, #168]
 2184 0710 FFF7FEFF 		bl	lv_obj_clear_flag
 2185              	.LVL241:
 259:generated/events_init.c **** 		lv_obj_add_flag(guider_ui.wave_model_table_2, LV_OBJ_FLAG_HIDDEN);
 2186              		.loc 1 259 3 view .LVU493
 2187 0714 0121     		movs	r1, #1
 2188 0716 D4F8AC00 		ldr	r0, [r4, #172]
 2189 071a FFF7FEFF 		bl	lv_obj_add_flag
 2190              	.LVL242:
 260:generated/events_init.c **** 	}
 2191              		.loc 1 260 3 view .LVU494
 2192 071e 0121     		movs	r1, #1
 2193 0720 A068     		ldr	r0, [r4, #8]
 2194 0722 FFF7FEFF 		bl	lv_obj_add_flag
 2195              	.LVL243:
 2196 0726 82E4     		b	.L88
 2197              	.L101:
 2198              		.align	2
 2199              	.L100:
 2200 0728 00000000 		.word	guider_ui
 2201              	.L95:
 264:generated/events_init.c **** 		lv_obj_clear_flag(guider_ui.wave_model_table_2, LV_OBJ_FLAG_HIDDEN);
 2202              		.loc 1 264 3 view .LVU495
 2203 072c 6E4C     		ldr	r4, .L102
 2204 072e 0121     		movs	r1, #1
 2205 0730 D4F8A000 		ldr	r0, [r4, #160]
 2206 0734 FFF7FEFF 		bl	lv_obj_add_flag
 2207              	.LVL244:
 265:generated/events_init.c **** 		lv_obj_clear_flag(guider_ui.wave_model_btn_7, LV_OBJ_FLAG_HIDDEN);
ARM GAS  C:\usertemp\ccV6J5ed.s 			page 61


 2208              		.loc 1 265 3 view .LVU496
 2209 0738 0121     		movs	r1, #1
 2210 073a A068     		ldr	r0, [r4, #8]
 2211 073c FFF7FEFF 		bl	lv_obj_clear_flag
 2212              	.LVL245:
 266:generated/events_init.c **** 		lv_obj_set_width(guider_ui.wave_model_chart_2, 520);
 2213              		.loc 1 266 3 view .LVU497
 2214 0740 0121     		movs	r1, #1
 2215 0742 D4F89000 		ldr	r0, [r4, #144]
 2216 0746 FFF7FEFF 		bl	lv_obj_clear_flag
 2217              	.LVL246:
 267:generated/events_init.c **** 		lv_obj_set_height(guider_ui.wave_model_chart_2, 280);
 2218              		.loc 1 267 3 view .LVU498
 2219 074a 4FF40271 		mov	r1, #520
 2220 074e D4F88C00 		ldr	r0, [r4, #140]
 2221 0752 FFF7FEFF 		bl	lv_obj_set_width
 2222              	.LVL247:
 268:generated/events_init.c **** 		lv_obj_set_pos(guider_ui.wave_model_chart_2, 47, 130);
 2223              		.loc 1 268 3 view .LVU499
 2224 0756 4FF48C71 		mov	r1, #280
 2225 075a D4F88C00 		ldr	r0, [r4, #140]
 2226 075e FFF7FEFF 		bl	lv_obj_set_height
 2227              	.LVL248:
 269:generated/events_init.c **** 		lv_obj_add_flag(guider_ui.wave_model_chart_2, LV_OBJ_FLAG_HIDDEN);
 2228              		.loc 1 269 3 view .LVU500
 2229 0762 8222     		movs	r2, #130
 2230 0764 2F21     		movs	r1, #47
 2231 0766 D4F88C00 		ldr	r0, [r4, #140]
 2232 076a FFF7FEFF 		bl	lv_obj_set_pos
 2233              	.LVL249:
 270:generated/events_init.c **** 		lv_obj_set_pos(guider_ui.wave_model_num_1, 209, 70);
 2234              		.loc 1 270 3 view .LVU501
 2235 076e 0121     		movs	r1, #1
 2236 0770 D4F88C00 		ldr	r0, [r4, #140]
 2237 0774 FFF7FEFF 		bl	lv_obj_add_flag
 2238              	.LVL250:
 271:generated/events_init.c **** 		lv_obj_clear_flag(guider_ui.wave_model_num_1, LV_OBJ_FLAG_HIDDEN);
 2239              		.loc 1 271 3 view .LVU502
 2240 0778 4622     		movs	r2, #70
 2241 077a D121     		movs	r1, #209
 2242 077c D4F88800 		ldr	r0, [r4, #136]
 2243 0780 FFF7FEFF 		bl	lv_obj_set_pos
 2244              	.LVL251:
 272:generated/events_init.c **** 		lv_obj_add_flag(guider_ui.wave_model_N_val, LV_OBJ_FLAG_HIDDEN);
 2245              		.loc 1 272 3 view .LVU503
 2246 0784 0121     		movs	r1, #1
 2247 0786 D4F88800 		ldr	r0, [r4, #136]
 2248 078a FFF7FEFF 		bl	lv_obj_clear_flag
 2249              	.LVL252:
 273:generated/events_init.c **** 		lv_obj_add_flag(guider_ui.wave_model_label_25, LV_OBJ_FLAG_HIDDEN);
 2250              		.loc 1 273 3 view .LVU504
 2251 078e 0121     		movs	r1, #1
 2252 0790 D4F88400 		ldr	r0, [r4, #132]
 2253 0794 FFF7FEFF 		bl	lv_obj_add_flag
 2254              	.LVL253:
 274:generated/events_init.c **** 		lv_obj_add_flag(guider_ui.wave_model_label_24, LV_OBJ_FLAG_HIDDEN);
 2255              		.loc 1 274 3 view .LVU505
ARM GAS  C:\usertemp\ccV6J5ed.s 			page 62


 2256 0798 0121     		movs	r1, #1
 2257 079a D4F88000 		ldr	r0, [r4, #128]
 2258 079e FFF7FEFF 		bl	lv_obj_add_flag
 2259              	.LVL254:
 275:generated/events_init.c **** 		lv_obj_add_flag(guider_ui.wave_model_label_23, LV_OBJ_FLAG_HIDDEN);
 2260              		.loc 1 275 3 view .LVU506
 2261 07a2 0121     		movs	r1, #1
 2262 07a4 E06F     		ldr	r0, [r4, #124]
 2263 07a6 FFF7FEFF 		bl	lv_obj_add_flag
 2264              	.LVL255:
 276:generated/events_init.c **** 		lv_obj_add_flag(guider_ui.wave_model_label_22, LV_OBJ_FLAG_HIDDEN);
 2265              		.loc 1 276 3 view .LVU507
 2266 07aa 0121     		movs	r1, #1
 2267 07ac A06F     		ldr	r0, [r4, #120]
 2268 07ae FFF7FEFF 		bl	lv_obj_add_flag
 2269              	.LVL256:
 277:generated/events_init.c **** 		lv_obj_add_flag(guider_ui.wave_model_label_21, LV_OBJ_FLAG_HIDDEN);
 2270              		.loc 1 277 3 view .LVU508
 2271 07b2 0121     		movs	r1, #1
 2272 07b4 606F     		ldr	r0, [r4, #116]
 2273 07b6 FFF7FEFF 		bl	lv_obj_add_flag
 2274              	.LVL257:
 278:generated/events_init.c **** 		lv_obj_set_width(guider_ui.wave_model_three_value, 120);
 2275              		.loc 1 278 3 view .LVU509
 2276 07ba 0121     		movs	r1, #1
 2277 07bc 206F     		ldr	r0, [r4, #112]
 2278 07be FFF7FEFF 		bl	lv_obj_add_flag
 2279              	.LVL258:
 279:generated/events_init.c **** 		lv_obj_set_height(guider_ui.wave_model_three_value, 90);
 2280              		.loc 1 279 3 view .LVU510
 2281 07c2 7821     		movs	r1, #120
 2282 07c4 E06E     		ldr	r0, [r4, #108]
 2283 07c6 FFF7FEFF 		bl	lv_obj_set_width
 2284              	.LVL259:
 280:generated/events_init.c **** 		lv_obj_add_flag(guider_ui.wave_model_three_value, LV_OBJ_FLAG_HIDDEN);
 2285              		.loc 1 280 3 view .LVU511
 2286 07ca 5A21     		movs	r1, #90
 2287 07cc E06E     		ldr	r0, [r4, #108]
 2288 07ce FFF7FEFF 		bl	lv_obj_set_height
 2289              	.LVL260:
 281:generated/events_init.c **** 		lv_obj_set_width(guider_ui.wave_model_two_value, 120);
 2290              		.loc 1 281 3 view .LVU512
 2291 07d2 0121     		movs	r1, #1
 2292 07d4 E06E     		ldr	r0, [r4, #108]
 2293 07d6 FFF7FEFF 		bl	lv_obj_add_flag
 2294              	.LVL261:
 282:generated/events_init.c **** 		lv_obj_set_height(guider_ui.wave_model_two_value, 90);
 2295              		.loc 1 282 3 view .LVU513
 2296 07da 7821     		movs	r1, #120
 2297 07dc A06E     		ldr	r0, [r4, #104]
 2298 07de FFF7FEFF 		bl	lv_obj_set_width
 2299              	.LVL262:
 283:generated/events_init.c **** 		lv_obj_add_flag(guider_ui.wave_model_two_value, LV_OBJ_FLAG_HIDDEN);
 2300              		.loc 1 283 3 view .LVU514
 2301 07e2 5A21     		movs	r1, #90
 2302 07e4 A06E     		ldr	r0, [r4, #104]
 2303 07e6 FFF7FEFF 		bl	lv_obj_set_height
ARM GAS  C:\usertemp\ccV6J5ed.s 			page 63


 2304              	.LVL263:
 284:generated/events_init.c **** 		lv_obj_set_width(guider_ui.wave_model_one_value, 120);
 2305              		.loc 1 284 3 view .LVU515
 2306 07ea 0121     		movs	r1, #1
 2307 07ec A06E     		ldr	r0, [r4, #104]
 2308 07ee FFF7FEFF 		bl	lv_obj_add_flag
 2309              	.LVL264:
 285:generated/events_init.c **** 		lv_obj_set_height(guider_ui.wave_model_one_value, 90);
 2310              		.loc 1 285 3 view .LVU516
 2311 07f2 7821     		movs	r1, #120
 2312 07f4 606E     		ldr	r0, [r4, #100]
 2313 07f6 FFF7FEFF 		bl	lv_obj_set_width
 2314              	.LVL265:
 286:generated/events_init.c **** 		lv_obj_add_flag(guider_ui.wave_model_one_value, LV_OBJ_FLAG_HIDDEN);
 2315              		.loc 1 286 3 view .LVU517
 2316 07fa 5A21     		movs	r1, #90
 2317 07fc 606E     		ldr	r0, [r4, #100]
 2318 07fe FFF7FEFF 		bl	lv_obj_set_height
 2319              	.LVL266:
 287:generated/events_init.c **** 		lv_obj_add_flag(guider_ui.wave_model_N__, LV_OBJ_FLAG_HIDDEN);
 2320              		.loc 1 287 3 view .LVU518
 2321 0802 0121     		movs	r1, #1
 2322 0804 606E     		ldr	r0, [r4, #100]
 2323 0806 FFF7FEFF 		bl	lv_obj_add_flag
 2324              	.LVL267:
 288:generated/events_init.c **** 		lv_obj_set_pos(guider_ui.wave_model_three, 470, 68);
 2325              		.loc 1 288 3 view .LVU519
 2326 080a 0121     		movs	r1, #1
 2327 080c 206E     		ldr	r0, [r4, #96]
 2328 080e FFF7FEFF 		bl	lv_obj_add_flag
 2329              	.LVL268:
 289:generated/events_init.c **** 		lv_obj_clear_flag(guider_ui.wave_model_three, LV_OBJ_FLAG_HIDDEN);
 2330              		.loc 1 289 3 view .LVU520
 2331 0812 4422     		movs	r2, #68
 2332 0814 4FF4EB71 		mov	r1, #470
 2333 0818 E06D     		ldr	r0, [r4, #92]
 2334 081a FFF7FEFF 		bl	lv_obj_set_pos
 2335              	.LVL269:
 290:generated/events_init.c **** 		lv_obj_set_pos(guider_ui.wave_model_two, 339, 68);
 2336              		.loc 1 290 3 view .LVU521
 2337 081e 0121     		movs	r1, #1
 2338 0820 E06D     		ldr	r0, [r4, #92]
 2339 0822 FFF7FEFF 		bl	lv_obj_clear_flag
 2340              	.LVL270:
 291:generated/events_init.c **** 		lv_obj_clear_flag(guider_ui.wave_model_two, LV_OBJ_FLAG_HIDDEN);
 2341              		.loc 1 291 3 view .LVU522
 2342 0826 4422     		movs	r2, #68
 2343 0828 40F25311 		movw	r1, #339
 2344 082c A06D     		ldr	r0, [r4, #88]
 2345 082e FFF7FEFF 		bl	lv_obj_set_pos
 2346              	.LVL271:
 292:generated/events_init.c **** 		lv_obj_set_pos(guider_ui.wave_model_red, 501, 65);
 2347              		.loc 1 292 3 view .LVU523
 2348 0832 0121     		movs	r1, #1
 2349 0834 A06D     		ldr	r0, [r4, #88]
 2350 0836 FFF7FEFF 		bl	lv_obj_clear_flag
 2351              	.LVL272:
ARM GAS  C:\usertemp\ccV6J5ed.s 			page 64


 293:generated/events_init.c **** 		lv_obj_clear_flag(guider_ui.wave_model_red, LV_OBJ_FLAG_HIDDEN);
 2352              		.loc 1 293 3 view .LVU524
 2353 083a 4122     		movs	r2, #65
 2354 083c 40F2F511 		movw	r1, #501
 2355 0840 606D     		ldr	r0, [r4, #84]
 2356 0842 FFF7FEFF 		bl	lv_obj_set_pos
 2357              	.LVL273:
 294:generated/events_init.c **** 		lv_obj_add_flag(guider_ui.wave_model_blue, LV_OBJ_FLAG_HIDDEN);
 2358              		.loc 1 294 3 view .LVU525
 2359 0846 0121     		movs	r1, #1
 2360 0848 606D     		ldr	r0, [r4, #84]
 2361 084a FFF7FEFF 		bl	lv_obj_clear_flag
 2362              	.LVL274:
 295:generated/events_init.c **** 		lv_obj_set_pos(guider_ui.wave_model_green, 370, 65);
 2363              		.loc 1 295 3 view .LVU526
 2364 084e 0121     		movs	r1, #1
 2365 0850 206D     		ldr	r0, [r4, #80]
 2366 0852 FFF7FEFF 		bl	lv_obj_add_flag
 2367              	.LVL275:
 296:generated/events_init.c **** 		lv_obj_clear_flag(guider_ui.wave_model_green, LV_OBJ_FLAG_HIDDEN);
 2368              		.loc 1 296 3 view .LVU527
 2369 0856 4122     		movs	r2, #65
 2370 0858 4FF4B971 		mov	r1, #370
 2371 085c E06C     		ldr	r0, [r4, #76]
 2372 085e FFF7FEFF 		bl	lv_obj_set_pos
 2373              	.LVL276:
 297:generated/events_init.c **** 		lv_obj_set_pos(guider_ui.wave_model_yellow, 240, 65);
 2374              		.loc 1 297 3 view .LVU528
 2375 0862 0121     		movs	r1, #1
 2376 0864 E06C     		ldr	r0, [r4, #76]
 2377 0866 FFF7FEFF 		bl	lv_obj_clear_flag
 2378              	.LVL277:
 298:generated/events_init.c **** 		lv_obj_clear_flag(guider_ui.wave_model_yellow, LV_OBJ_FLAG_HIDDEN);
 2379              		.loc 1 298 3 view .LVU529
 2380 086a 4122     		movs	r2, #65
 2381 086c F021     		movs	r1, #240
 2382 086e A06C     		ldr	r0, [r4, #72]
 2383 0870 FFF7FEFF 		bl	lv_obj_set_pos
 2384              	.LVL278:
 299:generated/events_init.c **** 		lv_obj_clear_flag(guider_ui.wave_model_freq, LV_OBJ_FLAG_HIDDEN);
 2385              		.loc 1 299 3 view .LVU530
 2386 0874 0121     		movs	r1, #1
 2387 0876 A06C     		ldr	r0, [r4, #72]
 2388 0878 FFF7FEFF 		bl	lv_obj_clear_flag
 2389              	.LVL279:
 300:generated/events_init.c **** 		lv_obj_clear_flag(guider_ui.wave_model_power, LV_OBJ_FLAG_HIDDEN);
 2390              		.loc 1 300 3 view .LVU531
 2391 087c 0121     		movs	r1, #1
 2392 087e 606C     		ldr	r0, [r4, #68]
 2393 0880 FFF7FEFF 		bl	lv_obj_clear_flag
 2394              	.LVL280:
 301:generated/events_init.c **** 		lv_obj_clear_flag(guider_ui.wave_model_btn_1, LV_OBJ_FLAG_HIDDEN);
 2395              		.loc 1 301 3 view .LVU532
 2396 0884 0121     		movs	r1, #1
 2397 0886 206C     		ldr	r0, [r4, #64]
 2398 0888 FFF7FEFF 		bl	lv_obj_clear_flag
 2399              	.LVL281:
ARM GAS  C:\usertemp\ccV6J5ed.s 			page 65


 302:generated/events_init.c **** 		lv_obj_clear_flag(guider_ui.wave_model_btn_2, LV_OBJ_FLAG_HIDDEN);
 2400              		.loc 1 302 3 view .LVU533
 2401 088c 0121     		movs	r1, #1
 2402 088e 2069     		ldr	r0, [r4, #16]
 2403 0890 FFF7FEFF 		bl	lv_obj_clear_flag
 2404              	.LVL282:
 303:generated/events_init.c **** 		lv_obj_clear_flag(guider_ui.wave_model_btn_3, LV_OBJ_FLAG_HIDDEN);
 2405              		.loc 1 303 3 view .LVU534
 2406 0894 0121     		movs	r1, #1
 2407 0896 A069     		ldr	r0, [r4, #24]
 2408 0898 FFF7FEFF 		bl	lv_obj_clear_flag
 2409              	.LVL283:
 304:generated/events_init.c **** 		lv_obj_clear_flag(guider_ui.wave_model_btn_4, LV_OBJ_FLAG_HIDDEN);
 2410              		.loc 1 304 3 view .LVU535
 2411 089c 0121     		movs	r1, #1
 2412 089e 206A     		ldr	r0, [r4, #32]
 2413 08a0 FFF7FEFF 		bl	lv_obj_clear_flag
 2414              	.LVL284:
 305:generated/events_init.c **** 		lv_obj_clear_flag(guider_ui.wave_model_btn_5, LV_OBJ_FLAG_HIDDEN);
 2415              		.loc 1 305 3 view .LVU536
 2416 08a4 0121     		movs	r1, #1
 2417 08a6 A06A     		ldr	r0, [r4, #40]
 2418 08a8 FFF7FEFF 		bl	lv_obj_clear_flag
 2419              	.LVL285:
 306:generated/events_init.c **** 		lv_obj_clear_flag(guider_ui.wave_model_btn_6, LV_OBJ_FLAG_HIDDEN);
 2420              		.loc 1 306 3 view .LVU537
 2421 08ac 0121     		movs	r1, #1
 2422 08ae 206B     		ldr	r0, [r4, #48]
 2423 08b0 FFF7FEFF 		bl	lv_obj_clear_flag
 2424              	.LVL286:
 307:generated/events_init.c **** 		lv_obj_clear_flag(guider_ui.wave_model_btn_8, LV_OBJ_FLAG_HIDDEN);
 2425              		.loc 1 307 3 view .LVU538
 2426 08b4 0121     		movs	r1, #1
 2427 08b6 A06B     		ldr	r0, [r4, #56]
 2428 08b8 FFF7FEFF 		bl	lv_obj_clear_flag
 2429              	.LVL287:
 308:generated/events_init.c **** 		// lv_obj_clear_flag(guider_ui.wave_model_table_1, LV_OBJ_FLAG_HIDDEN);
 2430              		.loc 1 308 3 view .LVU539
 2431 08bc 0121     		movs	r1, #1
 2432 08be D4F89800 		ldr	r0, [r4, #152]
 2433 08c2 FFF7FEFF 		bl	lv_obj_clear_flag
 2434              	.LVL288:
 310:generated/events_init.c **** 		lv_obj_clear_flag(guider_ui.wave_model_digital_clock_1, LV_OBJ_FLAG_HIDDEN);
 2435              		.loc 1 310 3 view .LVU540
 2436 08c6 0121     		movs	r1, #1
 2437 08c8 D4F8A400 		ldr	r0, [r4, #164]
 2438 08cc FFF7FEFF 		bl	lv_obj_clear_flag
 2439              	.LVL289:
 311:generated/events_init.c **** 		lv_obj_add_flag(guider_ui.wave_model_img_1, LV_OBJ_FLAG_HIDDEN);
 2440              		.loc 1 311 3 view .LVU541
 2441 08d0 0121     		movs	r1, #1
 2442 08d2 D4F8A800 		ldr	r0, [r4, #168]
 2443 08d6 FFF7FEFF 		bl	lv_obj_clear_flag
 2444              	.LVL290:
 312:generated/events_init.c **** 	}
 2445              		.loc 1 312 3 view .LVU542
 2446 08da 0121     		movs	r1, #1
ARM GAS  C:\usertemp\ccV6J5ed.s 			page 66


 2447 08dc D4F8AC00 		ldr	r0, [r4, #172]
 2448 08e0 FFF7FEFF 		bl	lv_obj_add_flag
 2449              	.LVL291:
 314:generated/events_init.c **** 
 2450              		.loc 1 314 1 is_stmt 0 view .LVU543
 2451 08e4 FFF7A9BB 		b	.L84
 2452              	.L103:
 2453              		.align	2
 2454              	.L102:
 2455 08e8 00000000 		.word	guider_ui
 2456              		.cfi_endproc
 2457              	.LFE575:
 2459              		.section	.text.wave_model_btn_8_event_handler,"ax",%progbits
 2460              		.align	1
 2461              		.syntax unified
 2462              		.thumb
 2463              		.thumb_func
 2465              	wave_model_btn_8_event_handler:
 2466              	.LVL292:
 2467              	.LFB579:
 418:generated/events_init.c **** 	lv_event_code_t code = lv_event_get_code(e);
 2468              		.loc 1 418 1 is_stmt 1 view -0
 2469              		.cfi_startproc
 2470              		@ args = 0, pretend = 0, frame = 0
 2471              		@ frame_needed = 0, uses_anonymous_args = 0
 418:generated/events_init.c **** 	lv_event_code_t code = lv_event_get_code(e);
 2472              		.loc 1 418 1 is_stmt 0 view .LVU545
 2473 0000 08B5     		push	{r3, lr}
 2474              	.LCFI16:
 2475              		.cfi_def_cfa_offset 8
 2476              		.cfi_offset 3, -8
 2477              		.cfi_offset 14, -4
 419:generated/events_init.c **** 
 2478              		.loc 1 419 2 is_stmt 1 view .LVU546
 419:generated/events_init.c **** 
 2479              		.loc 1 419 25 is_stmt 0 view .LVU547
 2480 0002 FFF7FEFF 		bl	lv_event_get_code
 2481              	.LVL293:
 421:generated/events_init.c **** 	{
 2482              		.loc 1 421 2 is_stmt 1 view .LVU548
 2483 0006 0728     		cmp	r0, #7
 2484 0008 00D0     		beq	.L108
 2485              	.LVL294:
 2486              	.L104:
 435:generated/events_init.c **** 
 2487              		.loc 1 435 1 is_stmt 0 view .LVU549
 2488 000a 08BD     		pop	{r3, pc}
 2489              	.LVL295:
 2490              	.L108:
 425:generated/events_init.c **** 		if (page < 0)
 2491              		.loc 1 425 3 is_stmt 1 view .LVU550
 425:generated/events_init.c **** 		if (page < 0)
 2492              		.loc 1 425 7 is_stmt 0 view .LVU551
 2493 000c 064A     		ldr	r2, .L110
 2494 000e 1378     		ldrb	r3, [r2]	@ zero_extendqisi2
 2495 0010 013B     		subs	r3, r3, #1
 2496 0012 5BB2     		sxtb	r3, r3
ARM GAS  C:\usertemp\ccV6J5ed.s 			page 67


 2497 0014 1370     		strb	r3, [r2]
 426:generated/events_init.c **** 			page = 4;
 2498              		.loc 1 426 3 is_stmt 1 view .LVU552
 426:generated/events_init.c **** 			page = 4;
 2499              		.loc 1 426 6 is_stmt 0 view .LVU553
 2500 0016 002B     		cmp	r3, #0
 2501 0018 02DB     		blt	.L109
 2502              	.L106:
 429:generated/events_init.c **** 		break;
 2503              		.loc 1 429 3 is_stmt 1 view .LVU554
 2504 001a FFF7FEFF 		bl	page_switch
 2505              	.LVL296:
 430:generated/events_init.c **** 	}
 2506              		.loc 1 430 3 view .LVU555
 435:generated/events_init.c **** 
 2507              		.loc 1 435 1 is_stmt 0 view .LVU556
 2508 001e F4E7     		b	.L104
 2509              	.LVL297:
 2510              	.L109:
 427:generated/events_init.c **** 
 2511              		.loc 1 427 4 is_stmt 1 view .LVU557
 427:generated/events_init.c **** 
 2512              		.loc 1 427 9 is_stmt 0 view .LVU558
 2513 0020 1346     		mov	r3, r2
 2514 0022 0422     		movs	r2, #4
 2515 0024 1A70     		strb	r2, [r3]
 2516 0026 F8E7     		b	.L106
 2517              	.L111:
 2518              		.align	2
 2519              	.L110:
 2520 0028 00000000 		.word	page
 2521              		.cfi_endproc
 2522              	.LFE579:
 2524              		.section	.text.wave_model_btn_7_event_handler,"ax",%progbits
 2525              		.align	1
 2526              		.syntax unified
 2527              		.thumb
 2528              		.thumb_func
 2530              	wave_model_btn_7_event_handler:
 2531              	.LVL298:
 2532              	.LFB578:
 399:generated/events_init.c **** 	lv_event_code_t code = lv_event_get_code(e);
 2533              		.loc 1 399 1 is_stmt 1 view -0
 2534              		.cfi_startproc
 2535              		@ args = 0, pretend = 0, frame = 0
 2536              		@ frame_needed = 0, uses_anonymous_args = 0
 399:generated/events_init.c **** 	lv_event_code_t code = lv_event_get_code(e);
 2537              		.loc 1 399 1 is_stmt 0 view .LVU560
 2538 0000 08B5     		push	{r3, lr}
 2539              	.LCFI17:
 2540              		.cfi_def_cfa_offset 8
 2541              		.cfi_offset 3, -8
 2542              		.cfi_offset 14, -4
 400:generated/events_init.c **** 
 2543              		.loc 1 400 2 is_stmt 1 view .LVU561
 400:generated/events_init.c **** 
 2544              		.loc 1 400 25 is_stmt 0 view .LVU562
ARM GAS  C:\usertemp\ccV6J5ed.s 			page 68


 2545 0002 FFF7FEFF 		bl	lv_event_get_code
 2546              	.LVL299:
 402:generated/events_init.c **** 	{
 2547              		.loc 1 402 2 is_stmt 1 view .LVU563
 2548 0006 0728     		cmp	r0, #7
 2549 0008 00D0     		beq	.L116
 2550              	.LVL300:
 2551              	.L112:
 416:generated/events_init.c **** static void wave_model_btn_8_event_handler(lv_event_t *e)
 2552              		.loc 1 416 1 is_stmt 0 view .LVU564
 2553 000a 08BD     		pop	{r3, pc}
 2554              	.LVL301:
 2555              	.L116:
 406:generated/events_init.c **** 		if (page > 4)
 2556              		.loc 1 406 3 is_stmt 1 view .LVU565
 406:generated/events_init.c **** 		if (page > 4)
 2557              		.loc 1 406 7 is_stmt 0 view .LVU566
 2558 000c 064A     		ldr	r2, .L117
 2559 000e 1378     		ldrb	r3, [r2]	@ zero_extendqisi2
 2560 0010 0133     		adds	r3, r3, #1
 2561 0012 5BB2     		sxtb	r3, r3
 2562 0014 1370     		strb	r3, [r2]
 407:generated/events_init.c **** 			page = 0;
 2563              		.loc 1 407 3 is_stmt 1 view .LVU567
 407:generated/events_init.c **** 			page = 0;
 2564              		.loc 1 407 6 is_stmt 0 view .LVU568
 2565 0016 042B     		cmp	r3, #4
 2566 0018 02DD     		ble	.L114
 408:generated/events_init.c **** 		page_switch();
 2567              		.loc 1 408 4 is_stmt 1 view .LVU569
 408:generated/events_init.c **** 		page_switch();
 2568              		.loc 1 408 9 is_stmt 0 view .LVU570
 2569 001a 1346     		mov	r3, r2
 2570 001c 0022     		movs	r2, #0
 2571 001e 1A70     		strb	r2, [r3]
 2572              	.L114:
 409:generated/events_init.c **** 
 2573              		.loc 1 409 3 is_stmt 1 view .LVU571
 2574 0020 FFF7FEFF 		bl	page_switch
 2575              	.LVL302:
 411:generated/events_init.c **** 	}
 2576              		.loc 1 411 3 view .LVU572
 416:generated/events_init.c **** static void wave_model_btn_8_event_handler(lv_event_t *e)
 2577              		.loc 1 416 1 is_stmt 0 view .LVU573
 2578 0024 F1E7     		b	.L112
 2579              	.L118:
 2580 0026 00BF     		.align	2
 2581              	.L117:
 2582 0028 00000000 		.word	page
 2583              		.cfi_endproc
 2584              	.LFE578:
 2586              		.section	.text.events_init_wave_model,"ax",%progbits
 2587              		.align	1
 2588              		.global	events_init_wave_model
 2589              		.syntax unified
 2590              		.thumb
 2591              		.thumb_func
ARM GAS  C:\usertemp\ccV6J5ed.s 			page 69


 2593              	events_init_wave_model:
 2594              	.LVL303:
 2595              	.LFB591:
 727:generated/events_init.c **** 	lv_obj_add_event_cb(ui->wave_model, wave_model_event_handler, LV_EVENT_ALL, NULL);
 2596              		.loc 1 727 1 is_stmt 1 view -0
 2597              		.cfi_startproc
 2598              		@ args = 0, pretend = 0, frame = 0
 2599              		@ frame_needed = 0, uses_anonymous_args = 0
 727:generated/events_init.c **** 	lv_obj_add_event_cb(ui->wave_model, wave_model_event_handler, LV_EVENT_ALL, NULL);
 2600              		.loc 1 727 1 is_stmt 0 view .LVU575
 2601 0000 10B5     		push	{r4, lr}
 2602              	.LCFI18:
 2603              		.cfi_def_cfa_offset 8
 2604              		.cfi_offset 4, -8
 2605              		.cfi_offset 14, -4
 2606 0002 0446     		mov	r4, r0
 728:generated/events_init.c **** 	lv_obj_add_event_cb(ui->wave_model_btn_1, wave_model_btn_1_event_handler, LV_EVENT_ALL, NULL);
 2607              		.loc 1 728 2 is_stmt 1 view .LVU576
 2608 0004 0023     		movs	r3, #0
 2609 0006 1A46     		mov	r2, r3
 2610 0008 3049     		ldr	r1, .L121
 2611 000a 0068     		ldr	r0, [r0]
 2612              	.LVL304:
 728:generated/events_init.c **** 	lv_obj_add_event_cb(ui->wave_model_btn_1, wave_model_btn_1_event_handler, LV_EVENT_ALL, NULL);
 2613              		.loc 1 728 2 is_stmt 0 view .LVU577
 2614 000c FFF7FEFF 		bl	lv_obj_add_event_cb
 2615              	.LVL305:
 729:generated/events_init.c **** 	lv_obj_add_event_cb(ui->wave_model_btn_2, wave_model_btn_2_event_handler, LV_EVENT_ALL, NULL);
 2616              		.loc 1 729 2 is_stmt 1 view .LVU578
 2617 0010 0023     		movs	r3, #0
 2618 0012 1A46     		mov	r2, r3
 2619 0014 2E49     		ldr	r1, .L121+4
 2620 0016 2069     		ldr	r0, [r4, #16]
 2621 0018 FFF7FEFF 		bl	lv_obj_add_event_cb
 2622              	.LVL306:
 730:generated/events_init.c **** 	lv_obj_add_event_cb(ui->wave_model_btn_3, wave_model_btn_3_event_handler, LV_EVENT_ALL, NULL);
 2623              		.loc 1 730 2 view .LVU579
 2624 001c 0023     		movs	r3, #0
 2625 001e 1A46     		mov	r2, r3
 2626 0020 2C49     		ldr	r1, .L121+8
 2627 0022 A069     		ldr	r0, [r4, #24]
 2628 0024 FFF7FEFF 		bl	lv_obj_add_event_cb
 2629              	.LVL307:
 731:generated/events_init.c **** 	lv_obj_add_event_cb(ui->wave_model_btn_4, wave_model_btn_4_event_handler, LV_EVENT_ALL, NULL);
 2630              		.loc 1 731 2 view .LVU580
 2631 0028 0023     		movs	r3, #0
 2632 002a 1A46     		mov	r2, r3
 2633 002c 2A49     		ldr	r1, .L121+12
 2634 002e 206A     		ldr	r0, [r4, #32]
 2635 0030 FFF7FEFF 		bl	lv_obj_add_event_cb
 2636              	.LVL308:
 732:generated/events_init.c **** 	lv_obj_add_event_cb(ui->wave_model_btn_5, wave_model_btn_5_event_handler, LV_EVENT_ALL, NULL);
 2637              		.loc 1 732 2 view .LVU581
 2638 0034 0023     		movs	r3, #0
 2639 0036 1A46     		mov	r2, r3
 2640 0038 2849     		ldr	r1, .L121+16
 2641 003a A06A     		ldr	r0, [r4, #40]
ARM GAS  C:\usertemp\ccV6J5ed.s 			page 70


 2642 003c FFF7FEFF 		bl	lv_obj_add_event_cb
 2643              	.LVL309:
 733:generated/events_init.c **** 	lv_obj_add_event_cb(ui->wave_model_btn_6, wave_model_btn_6_event_handler, LV_EVENT_ALL, NULL);
 2644              		.loc 1 733 2 view .LVU582
 2645 0040 0023     		movs	r3, #0
 2646 0042 1A46     		mov	r2, r3
 2647 0044 2649     		ldr	r1, .L121+20
 2648 0046 206B     		ldr	r0, [r4, #48]
 2649 0048 FFF7FEFF 		bl	lv_obj_add_event_cb
 2650              	.LVL310:
 734:generated/events_init.c **** 	lv_obj_add_event_cb(ui->wave_model_btn_7, wave_model_btn_7_event_handler, LV_EVENT_ALL, NULL);
 2651              		.loc 1 734 2 view .LVU583
 2652 004c 0023     		movs	r3, #0
 2653 004e 1A46     		mov	r2, r3
 2654 0050 2449     		ldr	r1, .L121+24
 2655 0052 A06B     		ldr	r0, [r4, #56]
 2656 0054 FFF7FEFF 		bl	lv_obj_add_event_cb
 2657              	.LVL311:
 735:generated/events_init.c **** 	lv_obj_add_event_cb(ui->wave_model_btn_8, wave_model_btn_8_event_handler, LV_EVENT_ALL, NULL);
 2658              		.loc 1 735 2 view .LVU584
 2659 0058 0023     		movs	r3, #0
 2660 005a 1A46     		mov	r2, r3
 2661 005c 2249     		ldr	r1, .L121+28
 2662 005e D4F89000 		ldr	r0, [r4, #144]
 2663 0062 FFF7FEFF 		bl	lv_obj_add_event_cb
 2664              	.LVL312:
 736:generated/events_init.c **** 	lv_obj_add_event_cb(ui->wave_model_btn_9, wave_model_btn_9_event_handler, LV_EVENT_ALL, NULL);
 2665              		.loc 1 736 2 view .LVU585
 2666 0066 0023     		movs	r3, #0
 2667 0068 1A46     		mov	r2, r3
 2668 006a 2049     		ldr	r1, .L121+32
 2669 006c D4F89800 		ldr	r0, [r4, #152]
 2670 0070 FFF7FEFF 		bl	lv_obj_add_event_cb
 2671              	.LVL313:
 737:generated/events_init.c **** 	lv_obj_add_event_cb(ui->wave_model_btn_10, wave_model_btn_10_event_handler, LV_EVENT_ALL, NULL);
 2672              		.loc 1 737 2 view .LVU586
 2673 0074 0023     		movs	r3, #0
 2674 0076 1A46     		mov	r2, r3
 2675 0078 1D49     		ldr	r1, .L121+36
 2676 007a D4F8B000 		ldr	r0, [r4, #176]
 2677 007e FFF7FEFF 		bl	lv_obj_add_event_cb
 2678              	.LVL314:
 738:generated/events_init.c **** 	lv_obj_add_event_cb(ui->wave_model_btn_11, wave_model_btn_11_event_handler, LV_EVENT_ALL, NULL);
 2679              		.loc 1 738 2 view .LVU587
 2680 0082 0023     		movs	r3, #0
 2681 0084 1A46     		mov	r2, r3
 2682 0086 1B49     		ldr	r1, .L121+40
 2683 0088 D4F8B800 		ldr	r0, [r4, #184]
 2684 008c FFF7FEFF 		bl	lv_obj_add_event_cb
 2685              	.LVL315:
 739:generated/events_init.c **** 	lv_obj_add_event_cb(ui->wave_model_btn_12, wave_model_btn_12_event_handler, LV_EVENT_ALL, NULL);
 2686              		.loc 1 739 2 view .LVU588
 2687 0090 0023     		movs	r3, #0
 2688 0092 1A46     		mov	r2, r3
 2689 0094 1849     		ldr	r1, .L121+44
 2690 0096 D4F8C000 		ldr	r0, [r4, #192]
 2691 009a FFF7FEFF 		bl	lv_obj_add_event_cb
ARM GAS  C:\usertemp\ccV6J5ed.s 			page 71


 2692              	.LVL316:
 740:generated/events_init.c **** 	lv_obj_add_event_cb(ui->wave_model_btn_13, wave_model_btn_13_event_handler, LV_EVENT_ALL, NULL);
 2693              		.loc 1 740 2 view .LVU589
 2694 009e 0023     		movs	r3, #0
 2695 00a0 1A46     		mov	r2, r3
 2696 00a2 1649     		ldr	r1, .L121+48
 2697 00a4 D4F8C800 		ldr	r0, [r4, #200]
 2698 00a8 FFF7FEFF 		bl	lv_obj_add_event_cb
 2699              	.LVL317:
 741:generated/events_init.c **** 	lv_obj_add_event_cb(ui->wave_model_btn_14, wave_model_btn_14_event_handler, LV_EVENT_ALL, NULL);
 2700              		.loc 1 741 2 view .LVU590
 2701 00ac 0023     		movs	r3, #0
 2702 00ae 1A46     		mov	r2, r3
 2703 00b0 1349     		ldr	r1, .L121+52
 2704 00b2 D4F8D000 		ldr	r0, [r4, #208]
 2705 00b6 FFF7FEFF 		bl	lv_obj_add_event_cb
 2706              	.LVL318:
 742:generated/events_init.c **** }
 2707              		.loc 1 742 2 view .LVU591
 2708 00ba 0023     		movs	r3, #0
 2709 00bc 1A46     		mov	r2, r3
 2710 00be 1149     		ldr	r1, .L121+56
 2711 00c0 D4F8D800 		ldr	r0, [r4, #216]
 2712 00c4 FFF7FEFF 		bl	lv_obj_add_event_cb
 2713              	.LVL319:
 743:generated/events_init.c **** 
 2714              		.loc 1 743 1 is_stmt 0 view .LVU592
 2715 00c8 10BD     		pop	{r4, pc}
 2716              	.LVL320:
 2717              	.L122:
 743:generated/events_init.c **** 
 2718              		.loc 1 743 1 view .LVU593
 2719 00ca 00BF     		.align	2
 2720              	.L121:
 2721 00cc 00000000 		.word	wave_model_event_handler
 2722 00d0 00000000 		.word	wave_model_btn_1_event_handler
 2723 00d4 00000000 		.word	wave_model_btn_2_event_handler
 2724 00d8 00000000 		.word	wave_model_btn_3_event_handler
 2725 00dc 00000000 		.word	wave_model_btn_4_event_handler
 2726 00e0 00000000 		.word	wave_model_btn_5_event_handler
 2727 00e4 00000000 		.word	wave_model_btn_6_event_handler
 2728 00e8 00000000 		.word	wave_model_btn_7_event_handler
 2729 00ec 00000000 		.word	wave_model_btn_8_event_handler
 2730 00f0 00000000 		.word	wave_model_btn_9_event_handler
 2731 00f4 00000000 		.word	wave_model_btn_10_event_handler
 2732 00f8 00000000 		.word	wave_model_btn_11_event_handler
 2733 00fc 00000000 		.word	wave_model_btn_12_event_handler
 2734 0100 00000000 		.word	wave_model_btn_13_event_handler
 2735 0104 00000000 		.word	wave_model_btn_14_event_handler
 2736              		.cfi_endproc
 2737              	.LFE591:
 2739              		.section	.rodata.msg_notice.str1.4,"aMS",%progbits,1
 2740              		.align	2
 2741              	.LC10:
 2742 0000 257300   		.ascii	"%s\000"
 2743              		.section	.text.msg_notice,"ax",%progbits
 2744              		.align	1
ARM GAS  C:\usertemp\ccV6J5ed.s 			page 72


 2745              		.global	msg_notice
 2746              		.syntax unified
 2747              		.thumb
 2748              		.thumb_func
 2750              	msg_notice:
 2751              	.LVL321:
 2752              	.LFB593:
 750:generated/events_init.c **** 
 751:generated/events_init.c **** // msg消息提示
 752:generated/events_init.c **** void msg_notice(lv_obj_t *msg, uint32_t duration_ms, const char *notice)
 753:generated/events_init.c **** {
 2753              		.loc 1 753 1 is_stmt 1 view -0
 2754              		.cfi_startproc
 2755              		@ args = 0, pretend = 0, frame = 0
 2756              		@ frame_needed = 0, uses_anonymous_args = 0
 2757              		.loc 1 753 1 is_stmt 0 view .LVU595
 2758 0000 70B5     		push	{r4, r5, r6, lr}
 2759              	.LCFI19:
 2760              		.cfi_def_cfa_offset 16
 2761              		.cfi_offset 4, -16
 2762              		.cfi_offset 5, -12
 2763              		.cfi_offset 6, -8
 2764              		.cfi_offset 14, -4
 2765 0002 0546     		mov	r5, r0
 2766 0004 0C46     		mov	r4, r1
 754:generated/events_init.c **** 	lv_label_set_text_fmt(guider_ui.wave_model_msg, "%s", notice);
 2767              		.loc 1 754 2 is_stmt 1 view .LVU596
 2768 0006 084E     		ldr	r6, .L125
 2769 0008 0849     		ldr	r1, .L125+4
 2770              	.LVL322:
 2771              		.loc 1 754 2 is_stmt 0 view .LVU597
 2772 000a D6F8E400 		ldr	r0, [r6, #228]
 2773              	.LVL323:
 2774              		.loc 1 754 2 view .LVU598
 2775 000e FFF7FEFF 		bl	lv_label_set_text_fmt
 2776              	.LVL324:
 755:generated/events_init.c **** 	lv_obj_clear_flag(guider_ui.wave_model_msg, LV_OBJ_FLAG_HIDDEN);
 2777              		.loc 1 755 2 is_stmt 1 view .LVU599
 2778 0012 0121     		movs	r1, #1
 2779 0014 D6F8E400 		ldr	r0, [r6, #228]
 2780 0018 FFF7FEFF 		bl	lv_obj_clear_flag
 2781              	.LVL325:
 756:generated/events_init.c **** 	lv_timer_t *timer = lv_timer_create(switch_btn, duration_ms, msg); // 创建定时器
 2782              		.loc 1 756 2 view .LVU600
 2783              		.loc 1 756 22 is_stmt 0 view .LVU601
 2784 001c 2A46     		mov	r2, r5
 2785 001e 2146     		mov	r1, r4
 2786 0020 0348     		ldr	r0, .L125+8
 2787 0022 FFF7FEFF 		bl	lv_timer_create
 2788              	.LVL326:
 757:generated/events_init.c **** 	if (!timer)
 2789              		.loc 1 757 2 is_stmt 1 view .LVU602
 758:generated/events_init.c **** 	{
 759:generated/events_init.c **** 		LV_LOG_ERROR("定时器创建失败！");
 2790              		.loc 1 759 3 view .LVU603
 2791              		.loc 1 759 3 view .LVU604
 2792              		.loc 1 759 3 view .LVU605
ARM GAS  C:\usertemp\ccV6J5ed.s 			page 73


 760:generated/events_init.c **** 	}
 761:generated/events_init.c **** }
 2793              		.loc 1 761 1 is_stmt 0 view .LVU606
 2794 0026 70BD     		pop	{r4, r5, r6, pc}
 2795              	.LVL327:
 2796              	.L126:
 2797              		.loc 1 761 1 view .LVU607
 2798              		.align	2
 2799              	.L125:
 2800 0028 00000000 		.word	guider_ui
 2801 002c 00000000 		.word	.LC10
 2802 0030 00000000 		.word	switch_btn
 2803              		.cfi_endproc
 2804              	.LFE593:
 2806              		.section	.rodata.wave_model_btn_9_event_handler.str1.4,"aMS",%progbits,1
 2807              		.align	2
 2808              	.LC11:
 2809 0000 54686520 		.ascii	"The setting limit has been reached\000"
 2809      73657474 
 2809      696E6720 
 2809      6C696D69 
 2809      74206861 
 2810 0023 00       		.align	2
 2811              	.LC12:
 2812 0024 66696C65 		.ascii	"file_now < 0, set to sd_count\015\012\000"
 2812      5F6E6F77 
 2812      203C2030 
 2812      2C207365 
 2812      7420746F 
 2813              		.section	.text.wave_model_btn_9_event_handler,"ax",%progbits
 2814              		.align	1
 2815              		.syntax unified
 2816              		.thumb
 2817              		.thumb_func
 2819              	wave_model_btn_9_event_handler:
 2820              	.LVL328:
 2821              	.LFB585:
 577:generated/events_init.c **** 	lv_event_code_t code = lv_event_get_code(e);
 2822              		.loc 1 577 1 is_stmt 1 view -0
 2823              		.cfi_startproc
 2824              		@ args = 0, pretend = 0, frame = 0
 2825              		@ frame_needed = 0, uses_anonymous_args = 0
 577:generated/events_init.c **** 	lv_event_code_t code = lv_event_get_code(e);
 2826              		.loc 1 577 1 is_stmt 0 view .LVU609
 2827 0000 10B5     		push	{r4, lr}
 2828              	.LCFI20:
 2829              		.cfi_def_cfa_offset 8
 2830              		.cfi_offset 4, -8
 2831              		.cfi_offset 14, -4
 2832 0002 82B0     		sub	sp, sp, #8
 2833              	.LCFI21:
 2834              		.cfi_def_cfa_offset 16
 578:generated/events_init.c **** 
 2835              		.loc 1 578 2 is_stmt 1 view .LVU610
 578:generated/events_init.c **** 
 2836              		.loc 1 578 25 is_stmt 0 view .LVU611
 2837 0004 FFF7FEFF 		bl	lv_event_get_code
ARM GAS  C:\usertemp\ccV6J5ed.s 			page 74


 2838              	.LVL329:
 580:generated/events_init.c **** 	{
 2839              		.loc 1 580 2 is_stmt 1 view .LVU612
 2840 0008 0728     		cmp	r0, #7
 2841 000a 01D0     		beq	.L133
 2842              	.LVL330:
 2843              	.L127:
 620:generated/events_init.c **** static void wave_model_btn_10_event_handler(lv_event_t *e) // X-
 2844              		.loc 1 620 1 is_stmt 0 view .LVU613
 2845 000c 02B0     		add	sp, sp, #8
 2846              	.LCFI22:
 2847              		.cfi_remember_state
 2848              		.cfi_def_cfa_offset 8
 2849              		@ sp needed
 2850 000e 10BD     		pop	{r4, pc}
 2851              	.LVL331:
 2852              	.L133:
 2853              	.LCFI23:
 2854              		.cfi_restore_state
 584:generated/events_init.c **** 		taskENTER_CRITICAL();
 2855              		.loc 1 584 3 is_stmt 1 view .LVU614
 2856 0010 FFF7FEFF 		bl	vTaskSuspendAll
 2857              	.LVL332:
 585:generated/events_init.c **** 		if (page == 0)
 2858              		.loc 1 585 3 view .LVU615
 2859 0014 FFF7FEFF 		bl	vPortEnterCritical
 2860              	.LVL333:
 586:generated/events_init.c **** 		{
 2861              		.loc 1 586 3 view .LVU616
 586:generated/events_init.c **** 		{
 2862              		.loc 1 586 12 is_stmt 0 view .LVU617
 2863 0018 294B     		ldr	r3, .L136
 2864 001a 93F90030 		ldrsb	r3, [r3]
 586:generated/events_init.c **** 		{
 2865              		.loc 1 586 6 view .LVU618
 2866 001e FBB9     		cbnz	r3, .L129
 588:generated/events_init.c **** 			if (step == 0)
 2867              		.loc 1 588 4 is_stmt 1 view .LVU619
 588:generated/events_init.c **** 			if (step == 0)
 2868              		.loc 1 588 8 is_stmt 0 view .LVU620
 2869 0020 284B     		ldr	r3, .L136+4
 2870 0022 D3ED007A 		vldr.32	s15, [r3]
 2871 0026 B7EE007A 		vmov.f32	s14, #1.0e+0
 2872 002a 77EEC77A 		vsub.f32	s15, s15, s14
 2873 002e C3ED007A 		vstr.32	s15, [r3]
 589:generated/events_init.c **** 			{
 2874              		.loc 1 589 4 is_stmt 1 view .LVU621
 589:generated/events_init.c **** 			{
 2875              		.loc 1 589 7 is_stmt 0 view .LVU622
 2876 0032 F5EE407A 		vcmp.f32	s15, #0
 2877 0036 F1EE10FA 		vmrs	APSR_nzcv, FPSCR
 2878 003a 04D0     		beq	.L134
 2879              	.L130:
 612:generated/events_init.c **** 		xTaskResumeAll();
 2880              		.loc 1 612 3 is_stmt 1 view .LVU623
 2881 003c FFF7FEFF 		bl	vPortExitCritical
 2882              	.LVL334:
ARM GAS  C:\usertemp\ccV6J5ed.s 			page 75


 613:generated/events_init.c **** 
 2883              		.loc 1 613 3 view .LVU624
 2884 0040 FFF7FEFF 		bl	xTaskResumeAll
 2885              	.LVL335:
 615:generated/events_init.c **** 	}
 2886              		.loc 1 615 3 view .LVU625
 620:generated/events_init.c **** static void wave_model_btn_10_event_handler(lv_event_t *e) // X-
 2887              		.loc 1 620 1 is_stmt 0 view .LVU626
 2888 0044 E2E7     		b	.L127
 2889              	.L134:
 591:generated/events_init.c **** 				step = 1;
 2890              		.loc 1 591 5 is_stmt 1 view .LVU627
 2891 0046 204A     		ldr	r2, .L136+8
 2892 0048 4FF4FA61 		mov	r1, #2000
 2893 004c 1F4B     		ldr	r3, .L136+12
 2894 004e D3F8E400 		ldr	r0, [r3, #228]
 2895 0052 FFF7FEFF 		bl	msg_notice
 2896              	.LVL336:
 592:generated/events_init.c **** 			}
 2897              		.loc 1 592 5 view .LVU628
 592:generated/events_init.c **** 			}
 2898              		.loc 1 592 10 is_stmt 0 view .LVU629
 2899 0056 1B4B     		ldr	r3, .L136+4
 2900 0058 4FF07E52 		mov	r2, #1065353216
 2901 005c 1A60     		str	r2, [r3]	@ float
 2902 005e EDE7     		b	.L130
 2903              	.L129:
 595:generated/events_init.c **** 		{
 2904              		.loc 1 595 8 is_stmt 1 view .LVU630
 595:generated/events_init.c **** 		{
 2905              		.loc 1 595 11 is_stmt 0 view .LVU631
 2906 0060 012B     		cmp	r3, #1
 2907 0062 EBD1     		bne	.L130
 2908              	.LBB5:
 598:generated/events_init.c **** 			if (file_now < 0)
 2909              		.loc 1 598 4 is_stmt 1 view .LVU632
 598:generated/events_init.c **** 			if (file_now < 0)
 2910              		.loc 1 598 12 is_stmt 0 view .LVU633
 2911 0064 1A4A     		ldr	r2, .L136+16
 2912 0066 1388     		ldrh	r3, [r2]
 2913 0068 013B     		subs	r3, r3, #1
 2914 006a 1BB2     		sxth	r3, r3
 2915 006c 1380     		strh	r3, [r2]	@ movhi
 599:generated/events_init.c **** 			{
 2916              		.loc 1 599 4 is_stmt 1 view .LVU634
 599:generated/events_init.c **** 			{
 2917              		.loc 1 599 7 is_stmt 0 view .LVU635
 2918 006e 002B     		cmp	r3, #0
 2919 0070 18DB     		blt	.L135
 2920              	.L131:
 604:generated/events_init.c **** 			uint8_t temp = OpenFileByIndex("0:test", file_now);
 2921              		.loc 1 604 4 is_stmt 1 view .LVU636
 2922 0072 174C     		ldr	r4, .L136+16
 2923 0074 B4F90030 		ldrsh	r3, [r4]
 2924 0078 0193     		str	r3, [sp, #4]
 2925 007a 164B     		ldr	r3, .L136+20
 2926 007c 0093     		str	r3, [sp]
ARM GAS  C:\usertemp\ccV6J5ed.s 			page 76


 2927 007e 164B     		ldr	r3, .L136+24
 2928 0080 4FF41772 		mov	r2, #604
 2929 0084 1549     		ldr	r1, .L136+28
 2930 0086 0420     		movs	r0, #4
 2931 0088 FFF7FEFF 		bl	_lv_log_add
 2932              	.LVL337:
 605:generated/events_init.c **** 			if (temp)
 2933              		.loc 1 605 4 view .LVU637
 605:generated/events_init.c **** 			if (temp)
 2934              		.loc 1 605 19 is_stmt 0 view .LVU638
 2935 008c 2188     		ldrh	r1, [r4]
 2936 008e 1448     		ldr	r0, .L136+32
 2937 0090 FFF7FEFF 		bl	OpenFileByIndex
 2938              	.LVL338:
 606:generated/events_init.c **** 			{
 2939              		.loc 1 606 4 is_stmt 1 view .LVU639
 606:generated/events_init.c **** 			{
 2940              		.loc 1 606 7 is_stmt 0 view .LVU640
 2941 0094 0028     		cmp	r0, #0
 2942 0096 D1D0     		beq	.L130
 608:generated/events_init.c **** 			}
 2943              		.loc 1 608 5 is_stmt 1 view .LVU641
 2944 0098 0C4B     		ldr	r3, .L136+12
 2945 009a D3F8AC00 		ldr	r0, [r3, #172]
 2946              	.LVL339:
 608:generated/events_init.c **** 			}
 2947              		.loc 1 608 5 is_stmt 0 view .LVU642
 2948 009e FFF7FEFF 		bl	refersh_lvgl_image
 2949              	.LVL340:
 2950 00a2 CBE7     		b	.L130
 2951              	.LVL341:
 2952              	.L135:
 601:generated/events_init.c **** 				file_now = sd_count;
 2953              		.loc 1 601 5 is_stmt 1 view .LVU643
 2954 00a4 0F4B     		ldr	r3, .L136+36
 2955 00a6 0093     		str	r3, [sp]
 2956 00a8 0B4B     		ldr	r3, .L136+24
 2957 00aa 40F25922 		movw	r2, #601
 2958 00ae 0B49     		ldr	r1, .L136+28
 2959 00b0 0420     		movs	r0, #4
 2960 00b2 FFF7FEFF 		bl	_lv_log_add
 2961              	.LVL342:
 602:generated/events_init.c **** 			}
 2962              		.loc 1 602 5 view .LVU644
 602:generated/events_init.c **** 			}
 2963              		.loc 1 602 14 is_stmt 0 view .LVU645
 2964 00b6 0C4B     		ldr	r3, .L136+40
 2965 00b8 1A88     		ldrh	r2, [r3]
 2966 00ba 054B     		ldr	r3, .L136+16
 2967 00bc 1A80     		strh	r2, [r3]	@ movhi
 2968 00be D8E7     		b	.L131
 2969              	.L137:
 2970              		.align	2
 2971              	.L136:
 2972 00c0 00000000 		.word	page
 2973 00c4 00000000 		.word	step
 2974 00c8 00000000 		.word	.LC11
ARM GAS  C:\usertemp\ccV6J5ed.s 			page 77


 2975 00cc 00000000 		.word	guider_ui
 2976 00d0 00000000 		.word	file_now
 2977 00d4 38000000 		.word	.LC4
 2978 00d8 00000000 		.word	__func__.2
 2979 00dc 00000000 		.word	.LC2
 2980 00e0 4C000000 		.word	.LC5
 2981 00e4 24000000 		.word	.LC12
 2982 00e8 00000000 		.word	sd_count
 2983              	.LBE5:
 2984              		.cfi_endproc
 2985              	.LFE585:
 2987              		.section	.rodata.wave_model_btn_6_event_handler.str1.4,"aMS",%progbits,1
 2988              		.align	2
 2989              	.LC13:
 2990 0000 303A7465 		.ascii	"0:test/p%d%d%d.bin\000"
 2990      73742F70 
 2990      25642564 
 2990      25642E62 
 2990      696E00
 2991 0013 00       		.align	2
 2992              	.LC14:
 2993 0014 53637265 		.ascii	"Screenshot successful\000"
 2993      656E7368 
 2993      6F742073 
 2993      75636365 
 2993      73736675 
 2994 002a 0000     		.align	2
 2995              	.LC15:
 2996 002c 73645F63 		.ascii	"sd_count = %d\015\012\000"
 2996      6F756E74 
 2996      203D2025 
 2996      640D0A00 
 2997              		.align	2
 2998              	.LC16:
 2999 003c 53637265 		.ascii	"Screenshot failed\000"
 2999      656E7368 
 2999      6F742066 
 2999      61696C65 
 2999      6400
 3000              		.section	.text.wave_model_btn_6_event_handler,"ax",%progbits
 3001              		.align	1
 3002              		.syntax unified
 3003              		.thumb
 3004              		.thumb_func
 3006              	wave_model_btn_6_event_handler:
 3007              	.LVL343:
 3008              	.LFB584:
 540:generated/events_init.c **** 	lv_event_code_t code = lv_event_get_code(e);
 3009              		.loc 1 540 1 is_stmt 1 view -0
 3010              		.cfi_startproc
 3011              		@ args = 0, pretend = 0, frame = 64
 3012              		@ frame_needed = 0, uses_anonymous_args = 0
 540:generated/events_init.c **** 	lv_event_code_t code = lv_event_get_code(e);
 3013              		.loc 1 540 1 is_stmt 0 view .LVU647
 3014 0000 30B5     		push	{r4, r5, lr}
 3015              	.LCFI24:
 3016              		.cfi_def_cfa_offset 12
ARM GAS  C:\usertemp\ccV6J5ed.s 			page 78


 3017              		.cfi_offset 4, -12
 3018              		.cfi_offset 5, -8
 3019              		.cfi_offset 14, -4
 3020 0002 93B0     		sub	sp, sp, #76
 3021              	.LCFI25:
 3022              		.cfi_def_cfa_offset 88
 541:generated/events_init.c **** 
 3023              		.loc 1 541 2 is_stmt 1 view .LVU648
 541:generated/events_init.c **** 
 3024              		.loc 1 541 25 is_stmt 0 view .LVU649
 3025 0004 FFF7FEFF 		bl	lv_event_get_code
 3026              	.LVL344:
 543:generated/events_init.c **** 	{
 3027              		.loc 1 543 2 is_stmt 1 view .LVU650
 3028 0008 0528     		cmp	r0, #5
 3029 000a 01D0     		beq	.L143
 3030              	.LVL345:
 3031              	.L138:
 575:generated/events_init.c **** static void wave_model_btn_9_event_handler(lv_event_t *e) // X+
 3032              		.loc 1 575 1 is_stmt 0 view .LVU651
 3033 000c 13B0     		add	sp, sp, #76
 3034              	.LCFI26:
 3035              		.cfi_remember_state
 3036              		.cfi_def_cfa_offset 12
 3037              		@ sp needed
 3038 000e 30BD     		pop	{r4, r5, pc}
 3039              	.LVL346:
 3040              	.L143:
 3041              	.LCFI27:
 3042              		.cfi_restore_state
 3043              	.LBB6:
 547:generated/events_init.c **** 		vTaskSuspendAll();
 3044              		.loc 1 547 3 is_stmt 1 view .LVU652
 547:generated/events_init.c **** 		vTaskSuspendAll();
 3045              		.loc 1 547 8 is_stmt 0 view .LVU653
 3046 0010 3C22     		movs	r2, #60
 3047 0012 0021     		movs	r1, #0
 3048 0014 03A8     		add	r0, sp, #12
 3049              	.LVL347:
 547:generated/events_init.c **** 		vTaskSuspendAll();
 3050              		.loc 1 547 8 view .LVU654
 3051 0016 FFF7FEFF 		bl	memset
 3052              	.LVL348:
 548:generated/events_init.c **** 		taskENTER_CRITICAL();
 3053              		.loc 1 548 3 is_stmt 1 view .LVU655
 3054 001a FFF7FEFF 		bl	vTaskSuspendAll
 3055              	.LVL349:
 549:generated/events_init.c **** 		if (page == 0)
 3056              		.loc 1 549 3 view .LVU656
 3057 001e FFF7FEFF 		bl	vPortEnterCritical
 3058              	.LVL350:
 550:generated/events_init.c **** 		{
 3059              		.loc 1 550 3 view .LVU657
 550:generated/events_init.c **** 		{
 3060              		.loc 1 550 12 is_stmt 0 view .LVU658
 3061 0022 204B     		ldr	r3, .L145
 3062 0024 93F90030 		ldrsb	r3, [r3]
ARM GAS  C:\usertemp\ccV6J5ed.s 			page 79


 550:generated/events_init.c **** 		{
 3063              		.loc 1 550 6 view .LVU659
 3064 0028 23B1     		cbz	r3, .L144
 3065              	.L140:
 567:generated/events_init.c **** 		xTaskResumeAll();
 3066              		.loc 1 567 3 is_stmt 1 view .LVU660
 3067 002a FFF7FEFF 		bl	vPortExitCritical
 3068              	.LVL351:
 568:generated/events_init.c **** 
 3069              		.loc 1 568 3 view .LVU661
 3070 002e FFF7FEFF 		bl	xTaskResumeAll
 3071              	.LVL352:
 570:generated/events_init.c **** 	}
 3072              		.loc 1 570 3 view .LVU662
 3073              	.LBE6:
 575:generated/events_init.c **** static void wave_model_btn_9_event_handler(lv_event_t *e) // X+
 3074              		.loc 1 575 1 is_stmt 0 view .LVU663
 3075 0032 EBE7     		b	.L138
 3076              	.L144:
 3077              	.LBB7:
 552:generated/events_init.c **** 			if (take_snapshot_with_buffer(guider_ui.wave_model_chart_2, filename))
 3078              		.loc 1 552 4 is_stmt 1 view .LVU664
 3079 0034 1C4B     		ldr	r3, .L145+4
 3080 0036 1B68     		ldr	r3, [r3]
 3081 0038 0093     		str	r3, [sp]
 3082 003a 1C4B     		ldr	r3, .L145+8
 3083 003c 1B68     		ldr	r3, [r3]
 3084 003e 1C4A     		ldr	r2, .L145+12
 3085 0040 1268     		ldr	r2, [r2]
 3086 0042 1C49     		ldr	r1, .L145+16
 3087 0044 03A8     		add	r0, sp, #12
 3088 0046 FFF7FEFF 		bl	sprintf
 3089              	.LVL353:
 553:generated/events_init.c **** 			{
 3090              		.loc 1 553 4 view .LVU665
 553:generated/events_init.c **** 			{
 3091              		.loc 1 553 8 is_stmt 0 view .LVU666
 3092 004a 03A9     		add	r1, sp, #12
 3093 004c 1A4B     		ldr	r3, .L145+20
 3094 004e D3F88C00 		ldr	r0, [r3, #140]
 3095 0052 FFF7FEFF 		bl	take_snapshot_with_buffer
 3096              	.LVL354:
 553:generated/events_init.c **** 			{
 3097              		.loc 1 553 7 discriminator 1 view .LVU667
 3098 0056 E0B1     		cbz	r0, .L141
 555:generated/events_init.c **** 				msg_notice(guider_ui.wave_model_msg, 2000, "Screenshot successful");
 3099              		.loc 1 555 5 is_stmt 1 view .LVU668
 555:generated/events_init.c **** 				msg_notice(guider_ui.wave_model_msg, 2000, "Screenshot successful");
 3100              		.loc 1 555 13 is_stmt 0 view .LVU669
 3101 0058 184C     		ldr	r4, .L145+24
 3102 005a 2388     		ldrh	r3, [r4]
 3103 005c 0133     		adds	r3, r3, #1
 3104 005e 2380     		strh	r3, [r4]	@ movhi
 556:generated/events_init.c **** 
 3105              		.loc 1 556 5 is_stmt 1 view .LVU670
 3106 0060 154D     		ldr	r5, .L145+20
 3107 0062 174A     		ldr	r2, .L145+28
ARM GAS  C:\usertemp\ccV6J5ed.s 			page 80


 3108 0064 4FF4FA61 		mov	r1, #2000
 3109 0068 D5F8E400 		ldr	r0, [r5, #228]
 3110 006c FFF7FEFF 		bl	msg_notice
 3111              	.LVL355:
 558:generated/events_init.c **** 				refersh_lvgl_image(guider_ui.wave_model_img_1);
 3112              		.loc 1 558 5 view .LVU671
 3113 0070 B4F90030 		ldrsh	r3, [r4]
 3114 0074 0193     		str	r3, [sp, #4]
 3115 0076 134B     		ldr	r3, .L145+32
 3116 0078 0093     		str	r3, [sp]
 3117 007a 134B     		ldr	r3, .L145+36
 3118 007c 40F22E22 		movw	r2, #558
 3119 0080 1249     		ldr	r1, .L145+40
 3120 0082 0420     		movs	r0, #4
 3121 0084 FFF7FEFF 		bl	_lv_log_add
 3122              	.LVL356:
 559:generated/events_init.c **** 			}
 3123              		.loc 1 559 5 view .LVU672
 3124 0088 D5F8AC00 		ldr	r0, [r5, #172]
 3125 008c FFF7FEFF 		bl	refersh_lvgl_image
 3126              	.LVL357:
 3127 0090 CBE7     		b	.L140
 3128              	.L141:
 563:generated/events_init.c **** 			}
 3129              		.loc 1 563 5 view .LVU673
 3130 0092 0F4A     		ldr	r2, .L145+44
 3131 0094 4FF4FA61 		mov	r1, #2000
 3132 0098 074B     		ldr	r3, .L145+20
 3133 009a D3F8E400 		ldr	r0, [r3, #228]
 3134 009e FFF7FEFF 		bl	msg_notice
 3135              	.LVL358:
 3136 00a2 C2E7     		b	.L140
 3137              	.L146:
 3138              		.align	2
 3139              	.L145:
 3140 00a4 00000000 		.word	page
 3141 00a8 00000000 		.word	wave_model_digital_clock_1_sec_value
 3142 00ac 00000000 		.word	wave_model_digital_clock_1_min_value
 3143 00b0 00000000 		.word	wave_model_digital_clock_1_hour_value
 3144 00b4 00000000 		.word	.LC13
 3145 00b8 00000000 		.word	guider_ui
 3146 00bc 00000000 		.word	sd_count
 3147 00c0 14000000 		.word	.LC14
 3148 00c4 2C000000 		.word	.LC15
 3149 00c8 00000000 		.word	__func__.1
 3150 00cc 00000000 		.word	.LC2
 3151 00d0 3C000000 		.word	.LC16
 3152              	.LBE7:
 3153              		.cfi_endproc
 3154              	.LFE584:
 3156              		.section	.text.events_init,"ax",%progbits
 3157              		.align	1
 3158              		.global	events_init
 3159              		.syntax unified
 3160              		.thumb
 3161              		.thumb_func
 3163              	events_init:
ARM GAS  C:\usertemp\ccV6J5ed.s 			page 81


 3164              	.LVL359:
 3165              	.LFB594:
 762:generated/events_init.c **** 
 763:generated/events_init.c **** void events_init(lv_ui *ui)
 764:generated/events_init.c **** {
 3166              		.loc 1 764 1 view -0
 3167              		.cfi_startproc
 3168              		@ args = 0, pretend = 0, frame = 0
 3169              		@ frame_needed = 0, uses_anonymous_args = 0
 3170              		.loc 1 764 1 is_stmt 0 view .LVU675
 3171 0000 00B5     		push	{lr}
 3172              	.LCFI28:
 3173              		.cfi_def_cfa_offset 4
 3174              		.cfi_offset 14, -4
 3175 0002 83B0     		sub	sp, sp, #12
 3176              	.LCFI29:
 3177              		.cfi_def_cfa_offset 16
 765:generated/events_init.c **** 	sd_count = GetFileCount("0:test");
 3178              		.loc 1 765 2 is_stmt 1 view .LVU676
 3179              		.loc 1 765 13 is_stmt 0 view .LVU677
 3180 0004 0A48     		ldr	r0, .L149
 3181              	.LVL360:
 3182              		.loc 1 765 13 view .LVU678
 3183 0006 FFF7FEFF 		bl	GetFileCount
 3184              	.LVL361:
 3185              		.loc 1 765 13 discriminator 1 view .LVU679
 3186 000a 03B2     		sxth	r3, r0
 3187              		.loc 1 765 11 discriminator 1 view .LVU680
 3188 000c 094A     		ldr	r2, .L149+4
 3189 000e 1380     		strh	r3, [r2]	@ movhi
 766:generated/events_init.c **** 	file_now = sd_count;
 3190              		.loc 1 766 2 is_stmt 1 view .LVU681
 3191              		.loc 1 766 11 is_stmt 0 view .LVU682
 3192 0010 094A     		ldr	r2, .L149+8
 3193 0012 1380     		strh	r3, [r2]	@ movhi
 767:generated/events_init.c **** 	LV_LOG_USER("sd_count = %d\r\n", sd_count);
 3194              		.loc 1 767 2 is_stmt 1 view .LVU683
 3195 0014 0190     		str	r0, [sp, #4]
 3196 0016 094B     		ldr	r3, .L149+12
 3197 0018 0093     		str	r3, [sp]
 3198 001a 094B     		ldr	r3, .L149+16
 3199 001c 40F2FF22 		movw	r2, #767
 3200 0020 0849     		ldr	r1, .L149+20
 3201 0022 0420     		movs	r0, #4
 3202 0024 FFF7FEFF 		bl	_lv_log_add
 3203              	.LVL362:
 768:generated/events_init.c **** }
 3204              		.loc 1 768 1 is_stmt 0 view .LVU684
 3205 0028 03B0     		add	sp, sp, #12
 3206              	.LCFI30:
 3207              		.cfi_def_cfa_offset 4
 3208              		@ sp needed
 3209 002a 5DF804FB 		ldr	pc, [sp], #4
 3210              	.L150:
 3211 002e 00BF     		.align	2
 3212              	.L149:
 3213 0030 4C000000 		.word	.LC5
ARM GAS  C:\usertemp\ccV6J5ed.s 			page 82


 3214 0034 00000000 		.word	sd_count
 3215 0038 00000000 		.word	file_now
 3216 003c 2C000000 		.word	.LC15
 3217 0040 00000000 		.word	__func__.0
 3218 0044 00000000 		.word	.LC2
 3219              		.cfi_endproc
 3220              	.LFE594:
 3222              		.section	.rodata.__func__.0,"a"
 3223              		.align	2
 3226              	__func__.0:
 3227 0000 6576656E 		.ascii	"events_init\000"
 3227      74735F69 
 3227      6E697400 
 3228              		.section	.rodata.__func__.1,"a"
 3229              		.align	2
 3232              	__func__.1:
 3233 0000 77617665 		.ascii	"wave_model_btn_6_event_handler\000"
 3233      5F6D6F64 
 3233      656C5F62 
 3233      746E5F36 
 3233      5F657665 
 3234              		.section	.rodata.__func__.2,"a"
 3235              		.align	2
 3238              	__func__.2:
 3239 0000 77617665 		.ascii	"wave_model_btn_9_event_handler\000"
 3239      5F6D6F64 
 3239      656C5F62 
 3239      746E5F39 
 3239      5F657665 
 3240              		.section	.rodata.__func__.3,"a"
 3241              		.align	2
 3244              	__func__.3:
 3245 0000 77617665 		.ascii	"wave_model_btn_14_event_handler\000"
 3245      5F6D6F64 
 3245      656C5F62 
 3245      746E5F31 
 3245      345F6576 
 3246              		.global	V_I_flag
 3247              		.section	.bss.V_I_flag,"aw",%nobits
 3250              	V_I_flag:
 3251 0000 00       		.space	1
 3252              		.global	level
 3253              		.section	.bss.level,"aw",%nobits
 3254              		.align	2
 3257              	level:
 3258 0000 00000000 		.space	4
 3259              		.global	step
 3260              		.section	.data.step,"aw"
 3261              		.align	2
 3264              	step:
 3265 0000 00000040 		.word	1073741824
 3266              		.global	rat
 3267              		.section	.data.rat,"aw"
 3268              		.align	2
 3271              	rat:
 3272 0000 00004842 		.word	1112014848
 3273              		.global	LN_I_flag
ARM GAS  C:\usertemp\ccV6J5ed.s 			page 83


 3274              		.section	.bss.LN_I_flag,"aw",%nobits
 3277              	LN_I_flag:
 3278 0000 00       		.space	1
 3279              		.global	L3_I_flag
 3280              		.section	.bss.L3_I_flag,"aw",%nobits
 3283              	L3_I_flag:
 3284 0000 00       		.space	1
 3285              		.global	L2_I_flag
 3286              		.section	.bss.L2_I_flag,"aw",%nobits
 3289              	L2_I_flag:
 3290 0000 00       		.space	1
 3291              		.global	L1_I_flag
 3292              		.section	.bss.L1_I_flag,"aw",%nobits
 3295              	L1_I_flag:
 3296 0000 00       		.space	1
 3297              		.global	LN_flag
 3298              		.section	.bss.LN_flag,"aw",%nobits
 3301              	LN_flag:
 3302 0000 00       		.space	1
 3303              		.global	L3_flag
 3304              		.section	.bss.L3_flag,"aw",%nobits
 3307              	L3_flag:
 3308 0000 00       		.space	1
 3309              		.global	L2_flag
 3310              		.section	.bss.L2_flag,"aw",%nobits
 3313              	L2_flag:
 3314 0000 00       		.space	1
 3315              		.global	L1_flag
 3316              		.section	.bss.L1_flag,"aw",%nobits
 3319              	L1_flag:
 3320 0000 00       		.space	1
 3321              		.section	.bss.page,"aw",%nobits
 3324              	page:
 3325 0000 00       		.space	1
 3326              		.global	file_now
 3327              		.section	.bss.file_now,"aw",%nobits
 3328              		.align	1
 3331              	file_now:
 3332 0000 0000     		.space	2
 3333              		.global	sd_count
 3334              		.section	.bss.sd_count,"aw",%nobits
 3335              		.align	1
 3338              	sd_count:
 3339 0000 0000     		.space	2
 3340              		.text
 3341              	.Letext0:
 3342              		.file 2 "D:/armtoolchain/arm-gnu-toolchain-13.3.rel1-mingw-w64-i686-arm-none-eabi/arm-none-eabi/in
 3343              		.file 3 "D:/armtoolchain/arm-gnu-toolchain-13.3.rel1-mingw-w64-i686-arm-none-eabi/arm-none-eabi/in
 3344              		.file 4 "lvgl/src/misc/lv_types.h"
 3345              		.file 5 "lvgl/src/misc/lv_log.h"
 3346              		.file 6 "lvgl/src/misc/lv_timer.h"
 3347              		.file 7 "D:/armtoolchain/arm-gnu-toolchain-13.3.rel1-mingw-w64-i686-arm-none-eabi/lib/gcc/arm-none
 3348              		.file 8 "lvgl/src/hal/../draw/../misc/../font/../misc/lv_area.h"
 3349              		.file 9 "lvgl/src/hal/../draw/../misc/../font/lv_font.h"
 3350              		.file 10 "lvgl/src/hal/../draw/../misc/lv_color.h"
 3351              		.file 11 "lvgl/src/hal/../draw/../misc/lv_txt.h"
 3352              		.file 12 "lvgl/src/hal/../draw/../misc/lv_bidi.h"
ARM GAS  C:\usertemp\ccV6J5ed.s 			page 84


 3353              		.file 13 "lvgl/src/hal/../draw/../misc/lv_style.h"
 3354              		.file 14 "lvgl/src/hal/../draw/lv_img_buf.h"
 3355              		.file 15 "lvgl/src/core/lv_obj.h"
 3356              		.file 16 "lvgl/src/hal/../draw/lv_draw_rect.h"
 3357              		.file 17 "lvgl/src/hal/../draw/lv_draw_label.h"
 3358              		.file 18 "lvgl/src/hal/../draw/lv_draw_img.h"
 3359              		.file 19 "lvgl/src/hal/../draw/lv_draw_line.h"
 3360              		.file 20 "lvgl/src/hal/../draw/lv_draw_arc.h"
 3361              		.file 21 "lvgl/src/hal/../draw/lv_draw.h"
 3362              		.file 22 "lvgl/src/hal/../misc/lv_ll.h"
 3363              		.file 23 "lvgl/src/hal/lv_hal_disp.h"
 3364              		.file 24 "lvgl/src/core/lv_theme.h"
 3365              		.file 25 "lvgl/src/hal/lv_hal_indev.h"
 3366              		.file 26 "lvgl/src/core/lv_group.h"
 3367              		.file 27 "lvgl/src/core/lv_obj_scroll.h"
 3368              		.file 28 "lvgl/src/core/lv_obj_style.h"
 3369              		.file 29 "lvgl/src/core/lv_obj_class.h"
 3370              		.file 30 "lvgl/src/core/lv_event.h"
 3371              		.file 31 "lvgl/src/extra/widgets/chart/lv_chart.h"
 3372              		.file 32 "generated/gui_guider.h"
 3373              		.file 33 "Drivers/CMSIS/DSP/Include/arm_math.h"
 3374              		.file 34 "Middlewares/Third_Party/FreeRTOS/Source/portable/GCC/ARM_CM4F/portmacro.h"
 3375              		.file 35 "Drivers/STM32H7xx_HAL_Driver/Inc/stm32h7xx_ll_fmc.h"
 3376              		.file 36 "User/screenshot/screenshot.h"
 3377              		.file 37 "lvgl/src/widgets/lv_label.h"
 3378              		.file 38 "lvgl/src/core/lv_indev.h"
 3379              		.file 39 "D:/armtoolchain/arm-gnu-toolchain-13.3.rel1-mingw-w64-i686-arm-none-eabi/arm-none-eabi/i
 3380              		.file 40 "Middlewares/Third_Party/FreeRTOS/Source/include/task.h"
 3381              		.file 41 "lvgl/src/hal/../draw/sw/../../core/lv_obj_pos.h"
 3382              		.file 42 "Core/Inc/fmc.h"
 3383              		.file 43 "<built-in>"
ARM GAS  C:\usertemp\ccV6J5ed.s 			page 85


DEFINED SYMBOLS
                            *ABS*:00000000 events_init.c
C:\usertemp\ccV6J5ed.s:20     .text.wave_model_btn_13_event_handler:00000000 $t
C:\usertemp\ccV6J5ed.s:25     .text.wave_model_btn_13_event_handler:00000000 wave_model_btn_13_event_handler
C:\usertemp\ccV6J5ed.s:62     .text.wave_model_btn_13_event_handler:00000020 $d
C:\usertemp\ccV6J5ed.s:3271   .data.rat:00000000 rat
C:\usertemp\ccV6J5ed.s:67     .text.wave_model_btn_12_event_handler:00000000 $t
C:\usertemp\ccV6J5ed.s:72     .text.wave_model_btn_12_event_handler:00000000 wave_model_btn_12_event_handler
C:\usertemp\ccV6J5ed.s:109    .text.wave_model_btn_12_event_handler:00000020 $d
C:\usertemp\ccV6J5ed.s:3257   .bss.level:00000000 level
C:\usertemp\ccV6J5ed.s:114    .text.wave_model_btn_11_event_handler:00000000 $t
C:\usertemp\ccV6J5ed.s:119    .text.wave_model_btn_11_event_handler:00000000 wave_model_btn_11_event_handler
C:\usertemp\ccV6J5ed.s:156    .text.wave_model_btn_11_event_handler:00000020 $d
C:\usertemp\ccV6J5ed.s:161    .text.wave_model_btn_10_event_handler:00000000 $t
C:\usertemp\ccV6J5ed.s:166    .text.wave_model_btn_10_event_handler:00000000 wave_model_btn_10_event_handler
C:\usertemp\ccV6J5ed.s:203    .text.wave_model_btn_10_event_handler:00000020 $d
C:\usertemp\ccV6J5ed.s:3264   .data.step:00000000 step
C:\usertemp\ccV6J5ed.s:208    .text.wave_model_btn_5_event_handler:00000000 $t
C:\usertemp\ccV6J5ed.s:213    .text.wave_model_btn_5_event_handler:00000000 wave_model_btn_5_event_handler
C:\usertemp\ccV6J5ed.s:287    .text.wave_model_btn_5_event_handler:0000004c $d
C:\usertemp\ccV6J5ed.s:3250   .bss.V_I_flag:00000000 V_I_flag
C:\usertemp\ccV6J5ed.s:3301   .bss.LN_flag:00000000 LN_flag
C:\usertemp\ccV6J5ed.s:3277   .bss.LN_I_flag:00000000 LN_I_flag
C:\usertemp\ccV6J5ed.s:296    .text.wave_model_btn_4_event_handler:00000000 $t
C:\usertemp\ccV6J5ed.s:301    .text.wave_model_btn_4_event_handler:00000000 wave_model_btn_4_event_handler
C:\usertemp\ccV6J5ed.s:375    .text.wave_model_btn_4_event_handler:0000004c $d
C:\usertemp\ccV6J5ed.s:3307   .bss.L3_flag:00000000 L3_flag
C:\usertemp\ccV6J5ed.s:3283   .bss.L3_I_flag:00000000 L3_I_flag
C:\usertemp\ccV6J5ed.s:384    .text.wave_model_btn_3_event_handler:00000000 $t
C:\usertemp\ccV6J5ed.s:389    .text.wave_model_btn_3_event_handler:00000000 wave_model_btn_3_event_handler
C:\usertemp\ccV6J5ed.s:463    .text.wave_model_btn_3_event_handler:0000004c $d
C:\usertemp\ccV6J5ed.s:3313   .bss.L2_flag:00000000 L2_flag
C:\usertemp\ccV6J5ed.s:3289   .bss.L2_I_flag:00000000 L2_I_flag
C:\usertemp\ccV6J5ed.s:472    .rodata.wave_model_btn_2_event_handler.str1.4:00000000 $d
C:\usertemp\ccV6J5ed.s:479    .text.wave_model_btn_2_event_handler:00000000 $t
C:\usertemp\ccV6J5ed.s:484    .text.wave_model_btn_2_event_handler:00000000 wave_model_btn_2_event_handler
C:\usertemp\ccV6J5ed.s:742    .text.wave_model_btn_2_event_handler:0000013c $d
C:\usertemp\ccV6J5ed.s:3319   .bss.L1_flag:00000000 L1_flag
C:\usertemp\ccV6J5ed.s:3295   .bss.L1_I_flag:00000000 L1_I_flag
C:\usertemp\ccV6J5ed.s:766    .text.wave_model_btn_1_event_handler:00000000 $t
C:\usertemp\ccV6J5ed.s:771    .text.wave_model_btn_1_event_handler:00000000 wave_model_btn_1_event_handler
C:\usertemp\ccV6J5ed.s:845    .text.wave_model_btn_1_event_handler:0000004c $d
C:\usertemp\ccV6J5ed.s:854    .rodata.wave_model_btn_14_event_handler.str1.4:00000000 $d
C:\usertemp\ccV6J5ed.s:867    .text.wave_model_btn_14_event_handler:00000000 $t
C:\usertemp\ccV6J5ed.s:872    .text.wave_model_btn_14_event_handler:00000000 wave_model_btn_14_event_handler
C:\usertemp\ccV6J5ed.s:1012   .text.wave_model_btn_14_event_handler:000000a0 $d
C:\usertemp\ccV6J5ed.s:3324   .bss.page:00000000 page
C:\usertemp\ccV6J5ed.s:3331   .bss.file_now:00000000 file_now
C:\usertemp\ccV6J5ed.s:3338   .bss.sd_count:00000000 sd_count
C:\usertemp\ccV6J5ed.s:3244   .rodata.__func__.3:00000000 __func__.3
C:\usertemp\ccV6J5ed.s:1027   .text.wave_model_event_handler:00000000 $t
C:\usertemp\ccV6J5ed.s:1032   .text.wave_model_event_handler:00000000 wave_model_event_handler
C:\usertemp\ccV6J5ed.s:1083   .text.switch_btn:00000000 $t
C:\usertemp\ccV6J5ed.s:1089   .text.switch_btn:00000000 switch_btn
C:\usertemp\ccV6J5ed.s:1122   .text.switch_btn:00000018 $d
C:\usertemp\ccV6J5ed.s:1127   .rodata.page_switch.str1.4:00000000 $d
C:\usertemp\ccV6J5ed.s:1140   .text.page_switch:00000000 $t
ARM GAS  C:\usertemp\ccV6J5ed.s 			page 86


C:\usertemp\ccV6J5ed.s:1146   .text.page_switch:00000000 page_switch
C:\usertemp\ccV6J5ed.s:1629   .text.page_switch:00000334 $d
C:\usertemp\ccV6J5ed.s:1638   .text.page_switch:0000034c $t
C:\usertemp\ccV6J5ed.s:1939   .text.page_switch:00000558 $d
C:\usertemp\ccV6J5ed.s:1944   .text.page_switch:00000564 $t
C:\usertemp\ccV6J5ed.s:2200   .text.page_switch:00000728 $d
C:\usertemp\ccV6J5ed.s:2203   .text.page_switch:0000072c $t
C:\usertemp\ccV6J5ed.s:2455   .text.page_switch:000008e8 $d
C:\usertemp\ccV6J5ed.s:2460   .text.wave_model_btn_8_event_handler:00000000 $t
C:\usertemp\ccV6J5ed.s:2465   .text.wave_model_btn_8_event_handler:00000000 wave_model_btn_8_event_handler
C:\usertemp\ccV6J5ed.s:2520   .text.wave_model_btn_8_event_handler:00000028 $d
C:\usertemp\ccV6J5ed.s:2525   .text.wave_model_btn_7_event_handler:00000000 $t
C:\usertemp\ccV6J5ed.s:2530   .text.wave_model_btn_7_event_handler:00000000 wave_model_btn_7_event_handler
C:\usertemp\ccV6J5ed.s:2582   .text.wave_model_btn_7_event_handler:00000028 $d
C:\usertemp\ccV6J5ed.s:2587   .text.events_init_wave_model:00000000 $t
C:\usertemp\ccV6J5ed.s:2593   .text.events_init_wave_model:00000000 events_init_wave_model
C:\usertemp\ccV6J5ed.s:2721   .text.events_init_wave_model:000000cc $d
C:\usertemp\ccV6J5ed.s:3006   .text.wave_model_btn_6_event_handler:00000000 wave_model_btn_6_event_handler
C:\usertemp\ccV6J5ed.s:2819   .text.wave_model_btn_9_event_handler:00000000 wave_model_btn_9_event_handler
C:\usertemp\ccV6J5ed.s:2740   .rodata.msg_notice.str1.4:00000000 $d
C:\usertemp\ccV6J5ed.s:2744   .text.msg_notice:00000000 $t
C:\usertemp\ccV6J5ed.s:2750   .text.msg_notice:00000000 msg_notice
C:\usertemp\ccV6J5ed.s:2800   .text.msg_notice:00000028 $d
C:\usertemp\ccV6J5ed.s:2807   .rodata.wave_model_btn_9_event_handler.str1.4:00000000 $d
C:\usertemp\ccV6J5ed.s:2814   .text.wave_model_btn_9_event_handler:00000000 $t
C:\usertemp\ccV6J5ed.s:2972   .text.wave_model_btn_9_event_handler:000000c0 $d
C:\usertemp\ccV6J5ed.s:3238   .rodata.__func__.2:00000000 __func__.2
C:\usertemp\ccV6J5ed.s:2988   .rodata.wave_model_btn_6_event_handler.str1.4:00000000 $d
C:\usertemp\ccV6J5ed.s:3001   .text.wave_model_btn_6_event_handler:00000000 $t
C:\usertemp\ccV6J5ed.s:3140   .text.wave_model_btn_6_event_handler:000000a4 $d
C:\usertemp\ccV6J5ed.s:3232   .rodata.__func__.1:00000000 __func__.1
C:\usertemp\ccV6J5ed.s:3157   .text.events_init:00000000 $t
C:\usertemp\ccV6J5ed.s:3163   .text.events_init:00000000 events_init
C:\usertemp\ccV6J5ed.s:3213   .text.events_init:00000030 $d
C:\usertemp\ccV6J5ed.s:3226   .rodata.__func__.0:00000000 __func__.0
C:\usertemp\ccV6J5ed.s:3223   .rodata.__func__.0:00000000 $d
C:\usertemp\ccV6J5ed.s:3229   .rodata.__func__.1:00000000 $d
C:\usertemp\ccV6J5ed.s:3235   .rodata.__func__.2:00000000 $d
C:\usertemp\ccV6J5ed.s:3241   .rodata.__func__.3:00000000 $d
C:\usertemp\ccV6J5ed.s:3251   .bss.V_I_flag:00000000 $d
C:\usertemp\ccV6J5ed.s:3254   .bss.level:00000000 $d
C:\usertemp\ccV6J5ed.s:3261   .data.step:00000000 $d
C:\usertemp\ccV6J5ed.s:3268   .data.rat:00000000 $d
C:\usertemp\ccV6J5ed.s:3278   .bss.LN_I_flag:00000000 $d
C:\usertemp\ccV6J5ed.s:3284   .bss.L3_I_flag:00000000 $d
C:\usertemp\ccV6J5ed.s:3290   .bss.L2_I_flag:00000000 $d
C:\usertemp\ccV6J5ed.s:3296   .bss.L1_I_flag:00000000 $d
C:\usertemp\ccV6J5ed.s:3302   .bss.LN_flag:00000000 $d
C:\usertemp\ccV6J5ed.s:3308   .bss.L3_flag:00000000 $d
C:\usertemp\ccV6J5ed.s:3314   .bss.L2_flag:00000000 $d
C:\usertemp\ccV6J5ed.s:3320   .bss.L1_flag:00000000 $d
C:\usertemp\ccV6J5ed.s:3325   .bss.page:00000000 $d
C:\usertemp\ccV6J5ed.s:3328   .bss.file_now:00000000 $d
C:\usertemp\ccV6J5ed.s:3335   .bss.sd_count:00000000 $d

UNDEFINED SYMBOLS
lv_event_get_code
ARM GAS  C:\usertemp\ccV6J5ed.s 			page 87


serN
serN_I
ser3
ser3_I
ser2
ser2_I
lv_label_set_text
guider_ui
ser1
ser1_I
vTaskSuspendAll
vPortEnterCritical
_lv_log_add
OpenFileByIndex
vPortExitCritical
xTaskResumeAll
refersh_lvgl_image
lv_indev_get_act
lv_indev_get_gesture_dir
lv_indev_wait_release
lv_obj_add_flag
lv_timer_del
lv_obj_clear_flag
lv_obj_set_width
lv_obj_set_height
lv_obj_set_pos
lv_obj_add_event_cb
lv_label_set_text_fmt
lv_timer_create
memset
sprintf
take_snapshot_with_buffer
wave_model_digital_clock_1_sec_value
wave_model_digital_clock_1_min_value
wave_model_digital_clock_1_hour_value
GetFileCount
