ARM GAS  C:\usertemp\cclVsvnU.s 			page 1


   1              		.cpu cortex-m7
   2              		.arch armv7e-m
   3              		.fpu fpv5-d16
   4              		.eabi_attribute 28, 1
   5              		.eabi_attribute 20, 1
   6              		.eabi_attribute 21, 1
   7              		.eabi_attribute 23, 3
   8              		.eabi_attribute 24, 1
   9              		.eabi_attribute 25, 1
  10              		.eabi_attribute 26, 1
  11              		.eabi_attribute 30, 1
  12              		.eabi_attribute 34, 1
  13              		.eabi_attribute 18, 4
  14              		.file	"events_init.c"
  15              		.text
  16              	.Ltext0:
  17              		.cfi_sections	.debug_frame
  18              		.file 1 "generated/events_init.c"
  19              		.section	.text.wave_model_btn_13_event_handler,"ax",%progbits
  20              		.align	1
  21              		.syntax unified
  22              		.thumb
  23              		.thumb_func
  25              	wave_model_btn_13_event_handler:
  26              	.LVL0:
  27              	.LFB589:
   1:generated/events_init.c **** /*
   2:generated/events_init.c ****  * Copyright 2025 NXP
   3:generated/events_init.c ****  * NXP Confidential and Proprietary. This software is owned or controlled by NXP and may only be us
   4:generated/events_init.c ****  * accordance with the applicable license terms. By expressly accepting such terms or by downloadin
   5:generated/events_init.c ****  * activating and/or otherwise using the software, you are agreeing that you have read, and that yo
   6:generated/events_init.c ****  * comply with and are bound by, such license terms.  If you do not agree to be bound by the applic
   7:generated/events_init.c ****  * terms, then you may not retain, install, activate or otherwise use the software.
   8:generated/events_init.c ****  */
   9:generated/events_init.c **** 
  10:generated/events_init.c ****  #include "events_init.h"
  11:generated/events_init.c ****  #include <stdio.h>
  12:generated/events_init.c ****  #include "lvgl.h"
  13:generated/events_init.c ****  #include "arm_math.h"
  14:generated/events_init.c ****  #include "task.h"
  15:generated/events_init.c ****  #include "screenshot.h"
  16:generated/events_init.c ****  int16_t sd_count;
  17:generated/events_init.c ****  int16_t file_now = 0;
  18:generated/events_init.c ****  
  19:generated/events_init.c ****  static int8_t page = 0;
  20:generated/events_init.c ****  extern lv_chart_series_t *ser1;
  21:generated/events_init.c ****  extern lv_chart_series_t *ser2;
  22:generated/events_init.c ****  extern lv_chart_series_t *ser3;
  23:generated/events_init.c ****  extern lv_chart_series_t *serN;
  24:generated/events_init.c ****  
  25:generated/events_init.c ****  extern lv_chart_series_t *ser1_I;
  26:generated/events_init.c ****  extern lv_chart_series_t *ser2_I;
  27:generated/events_init.c ****  extern lv_chart_series_t *ser3_I;
  28:generated/events_init.c ****  extern lv_chart_series_t *serN_I;
  29:generated/events_init.c ****  extern int wave_model_digital_clock_1_min_value;
  30:generated/events_init.c ****  extern int wave_model_digital_clock_1_hour_value;
  31:generated/events_init.c ****  extern int wave_model_digital_clock_1_sec_value;
ARM GAS  C:\usertemp\cclVsvnU.s 			page 2


  32:generated/events_init.c ****  uint8_t L1_flag = 0;
  33:generated/events_init.c ****  uint8_t L2_flag = 0;
  34:generated/events_init.c ****  uint8_t L3_flag = 0;
  35:generated/events_init.c ****  uint8_t LN_flag = 0;
  36:generated/events_init.c ****  uint8_t L1_I_flag = 0;
  37:generated/events_init.c ****  uint8_t L2_I_flag = 0;
  38:generated/events_init.c ****  uint8_t L3_I_flag = 0;
  39:generated/events_init.c ****  uint8_t LN_I_flag = 0;
  40:generated/events_init.c ****  float32_t rat = 50;
  41:generated/events_init.c ****  float32_t step = 2;
  42:generated/events_init.c ****  float32_t level = 0;
  43:generated/events_init.c ****  uint8_t V_I_flag;
  44:generated/events_init.c ****  
  45:generated/events_init.c ****  void page_switch()
  46:generated/events_init.c ****  {
  47:generated/events_init.c **** 	 if (page == 0) // 波形模式
  48:generated/events_init.c **** 	 {
  49:generated/events_init.c **** 		 lv_obj_add_flag(guider_ui.wave_model_table_2, LV_OBJ_FLAG_HIDDEN);
  50:generated/events_init.c **** 		 lv_obj_add_flag(guider_ui.wave_model_table_1, LV_OBJ_FLAG_HIDDEN);
  51:generated/events_init.c **** 		 lv_obj_clear_flag(guider_ui.wave_model_chart_2, LV_OBJ_FLAG_HIDDEN);
  52:generated/events_init.c **** 		 lv_obj_add_flag(guider_ui.wave_model_img_1, LV_OBJ_FLAG_HIDDEN);
  53:generated/events_init.c **** 		 lv_obj_clear_flag(guider_ui.wave_model_label_25, LV_OBJ_FLAG_HIDDEN);
  54:generated/events_init.c **** 		 lv_obj_clear_flag(guider_ui.wave_model_label_24, LV_OBJ_FLAG_HIDDEN);
  55:generated/events_init.c **** 		 lv_obj_clear_flag(guider_ui.wave_model_label_23, LV_OBJ_FLAG_HIDDEN);
  56:generated/events_init.c **** 		 lv_obj_clear_flag(guider_ui.wave_model_label_22, LV_OBJ_FLAG_HIDDEN);
  57:generated/events_init.c **** 		 lv_obj_clear_flag(guider_ui.wave_model_label_21, LV_OBJ_FLAG_HIDDEN);
  58:generated/events_init.c **** 		 lv_obj_clear_flag(guider_ui.wave_model_num_1, LV_OBJ_FLAG_HIDDEN);
  59:generated/events_init.c **** 		 lv_obj_clear_flag(guider_ui.wave_model_N_val, LV_OBJ_FLAG_HIDDEN);
  60:generated/events_init.c **** 		 lv_obj_clear_flag(guider_ui.wave_model_three_value, LV_OBJ_FLAG_HIDDEN);
  61:generated/events_init.c **** 		 lv_obj_clear_flag(guider_ui.wave_model_two_value, LV_OBJ_FLAG_HIDDEN);
  62:generated/events_init.c **** 		 lv_obj_clear_flag(guider_ui.wave_model_one_value, LV_OBJ_FLAG_HIDDEN);
  63:generated/events_init.c **** 		 lv_obj_clear_flag(guider_ui.wave_model_N__, LV_OBJ_FLAG_HIDDEN);
  64:generated/events_init.c **** 		 lv_obj_clear_flag(guider_ui.wave_model_three, LV_OBJ_FLAG_HIDDEN);
  65:generated/events_init.c **** 		 lv_obj_clear_flag(guider_ui.wave_model_two, LV_OBJ_FLAG_HIDDEN);
  66:generated/events_init.c **** 		 lv_obj_clear_flag(guider_ui.wave_model_red, LV_OBJ_FLAG_HIDDEN);
  67:generated/events_init.c **** 		 lv_obj_clear_flag(guider_ui.wave_model_blue, LV_OBJ_FLAG_HIDDEN);
  68:generated/events_init.c **** 		 lv_obj_clear_flag(guider_ui.wave_model_green, LV_OBJ_FLAG_HIDDEN);
  69:generated/events_init.c **** 		 lv_obj_clear_flag(guider_ui.wave_model_yellow, LV_OBJ_FLAG_HIDDEN);
  70:generated/events_init.c **** 		 lv_obj_set_width(guider_ui.wave_model_one_value, 120);
  71:generated/events_init.c **** 		 lv_obj_set_height(guider_ui.wave_model_one_value, 30);
  72:generated/events_init.c **** 		 lv_obj_set_width(guider_ui.wave_model_chart_2, 520);
  73:generated/events_init.c **** 		 lv_obj_set_height(guider_ui.wave_model_chart_2, 340);
  74:generated/events_init.c **** 		 lv_obj_set_pos(guider_ui.wave_model_chart_2, 47, 70);
  75:generated/events_init.c **** 		 lv_obj_set_width(guider_ui.wave_model_three_value, 120);
  76:generated/events_init.c **** 		 lv_obj_set_height(guider_ui.wave_model_three_value, 30);
  77:generated/events_init.c **** 		 lv_obj_add_flag(guider_ui.wave_model_table_1, LV_OBJ_FLAG_HIDDEN);
  78:generated/events_init.c **** 		 lv_obj_set_pos(guider_ui.wave_model_three, 300, 28);
  79:generated/events_init.c **** 		 lv_obj_set_pos(guider_ui.wave_model_two, 137, 28);
  80:generated/events_init.c **** 		 lv_obj_set_pos(guider_ui.wave_model_red, 330, 25);
  81:generated/events_init.c **** 		 lv_obj_set_pos(guider_ui.wave_model_green, 167, 25);
  82:generated/events_init.c **** 		 lv_obj_set_pos(guider_ui.wave_model_yellow, 1, 25);
  83:generated/events_init.c **** 		 lv_obj_set_pos(guider_ui.wave_model_num_1, -30, 30);
  84:generated/events_init.c **** 		 lv_obj_add_flag(guider_ui.wave_model_label_26, LV_OBJ_FLAG_HIDDEN);
  85:generated/events_init.c **** 		 lv_obj_add_flag(guider_ui.wave_model_label_27, LV_OBJ_FLAG_HIDDEN);
  86:generated/events_init.c **** 		 lv_label_set_text(guider_ui.wave_model_btn_14_label, "Y-");
  87:generated/events_init.c **** 		 lv_label_set_text(guider_ui.wave_model_btn_9_label, "Y+");
  88:generated/events_init.c **** 		 lv_obj_clear_flag(guider_ui.wave_model_btn_10, LV_OBJ_FLAG_HIDDEN);
ARM GAS  C:\usertemp\cclVsvnU.s 			page 3


  89:generated/events_init.c **** 		 lv_obj_clear_flag(guider_ui.wave_model_btn_11, LV_OBJ_FLAG_HIDDEN);
  90:generated/events_init.c **** 		 lv_obj_clear_flag(guider_ui.wave_model_btn_12, LV_OBJ_FLAG_HIDDEN);
  91:generated/events_init.c **** 		 lv_obj_clear_flag(guider_ui.wave_model_btn_13, LV_OBJ_FLAG_HIDDEN);
  92:generated/events_init.c ****  
  93:generated/events_init.c **** 		 lv_obj_clear_flag(guider_ui.wave_model_btn_6, LV_OBJ_FLAG_HIDDEN);
  94:generated/events_init.c **** 		 lv_obj_clear_flag(guider_ui.wave_model_btn_1, LV_OBJ_FLAG_HIDDEN);
  95:generated/events_init.c **** 		 lv_obj_clear_flag(guider_ui.wave_model_btn_2, LV_OBJ_FLAG_HIDDEN);
  96:generated/events_init.c **** 		 lv_obj_clear_flag(guider_ui.wave_model_btn_3, LV_OBJ_FLAG_HIDDEN);
  97:generated/events_init.c **** 		 lv_obj_clear_flag(guider_ui.wave_model_btn_4, LV_OBJ_FLAG_HIDDEN);
  98:generated/events_init.c **** 		 lv_obj_clear_flag(guider_ui.wave_model_btn_5, LV_OBJ_FLAG_HIDDEN);
  99:generated/events_init.c **** 	 }
 100:generated/events_init.c **** 	 if (page == 1) // 截屏模式
 101:generated/events_init.c **** 	 {			   //+227 +70
 102:generated/events_init.c ****  
 103:generated/events_init.c **** 		 lv_obj_clear_flag(guider_ui.wave_model_label_27, LV_OBJ_FLAG_HIDDEN);
 104:generated/events_init.c **** 		 lv_obj_add_flag(guider_ui.wave_model_btn_10, LV_OBJ_FLAG_HIDDEN);
 105:generated/events_init.c **** 		 lv_obj_add_flag(guider_ui.wave_model_btn_11, LV_OBJ_FLAG_HIDDEN);
 106:generated/events_init.c **** 		 lv_obj_add_flag(guider_ui.wave_model_btn_12, LV_OBJ_FLAG_HIDDEN);
 107:generated/events_init.c **** 		 lv_obj_add_flag(guider_ui.wave_model_btn_13, LV_OBJ_FLAG_HIDDEN);
 108:generated/events_init.c ****  
 109:generated/events_init.c **** 		 lv_obj_add_flag(guider_ui.wave_model_btn_6, LV_OBJ_FLAG_HIDDEN);
 110:generated/events_init.c **** 		 lv_obj_add_flag(guider_ui.wave_model_btn_1, LV_OBJ_FLAG_HIDDEN);
 111:generated/events_init.c **** 		 lv_obj_add_flag(guider_ui.wave_model_btn_2, LV_OBJ_FLAG_HIDDEN);
 112:generated/events_init.c **** 		 lv_obj_add_flag(guider_ui.wave_model_btn_3, LV_OBJ_FLAG_HIDDEN);
 113:generated/events_init.c **** 		 lv_obj_add_flag(guider_ui.wave_model_btn_4, LV_OBJ_FLAG_HIDDEN);
 114:generated/events_init.c **** 		 lv_obj_add_flag(guider_ui.wave_model_btn_5, LV_OBJ_FLAG_HIDDEN);
 115:generated/events_init.c ****  
 116:generated/events_init.c **** 		 lv_obj_add_flag(guider_ui.wave_model_chart_2, LV_OBJ_FLAG_HIDDEN);
 117:generated/events_init.c **** 		 lv_obj_clear_flag(guider_ui.wave_model_img_1, LV_OBJ_FLAG_HIDDEN);
 118:generated/events_init.c **** 		 lv_obj_add_flag(guider_ui.wave_model_label_25, LV_OBJ_FLAG_HIDDEN);
 119:generated/events_init.c **** 		 lv_obj_add_flag(guider_ui.wave_model_label_24, LV_OBJ_FLAG_HIDDEN);
 120:generated/events_init.c **** 		 lv_obj_add_flag(guider_ui.wave_model_label_23, LV_OBJ_FLAG_HIDDEN);
 121:generated/events_init.c **** 		 lv_obj_add_flag(guider_ui.wave_model_label_22, LV_OBJ_FLAG_HIDDEN);
 122:generated/events_init.c **** 		 lv_obj_add_flag(guider_ui.wave_model_label_21, LV_OBJ_FLAG_HIDDEN);
 123:generated/events_init.c **** 		 lv_obj_add_flag(guider_ui.wave_model_num_1, LV_OBJ_FLAG_HIDDEN);
 124:generated/events_init.c **** 		 lv_obj_add_flag(guider_ui.wave_model_N_val, LV_OBJ_FLAG_HIDDEN);
 125:generated/events_init.c **** 		 lv_obj_add_flag(guider_ui.wave_model_three_value, LV_OBJ_FLAG_HIDDEN);
 126:generated/events_init.c **** 		 lv_obj_add_flag(guider_ui.wave_model_two_value, LV_OBJ_FLAG_HIDDEN);
 127:generated/events_init.c **** 		 lv_obj_add_flag(guider_ui.wave_model_one_value, LV_OBJ_FLAG_HIDDEN);
 128:generated/events_init.c **** 		 lv_obj_add_flag(guider_ui.wave_model_N__, LV_OBJ_FLAG_HIDDEN);
 129:generated/events_init.c **** 		 lv_obj_add_flag(guider_ui.wave_model_three, LV_OBJ_FLAG_HIDDEN);
 130:generated/events_init.c **** 		 lv_obj_add_flag(guider_ui.wave_model_two, LV_OBJ_FLAG_HIDDEN);
 131:generated/events_init.c **** 		 lv_obj_add_flag(guider_ui.wave_model_red, LV_OBJ_FLAG_HIDDEN);
 132:generated/events_init.c **** 		 lv_obj_add_flag(guider_ui.wave_model_blue, LV_OBJ_FLAG_HIDDEN);
 133:generated/events_init.c **** 		 lv_obj_add_flag(guider_ui.wave_model_green, LV_OBJ_FLAG_HIDDEN);
 134:generated/events_init.c **** 		 lv_obj_add_flag(guider_ui.wave_model_yellow, LV_OBJ_FLAG_HIDDEN);
 135:generated/events_init.c **** 		 lv_obj_add_flag(guider_ui.wave_model_label_26, LV_OBJ_FLAG_HIDDEN);
 136:generated/events_init.c **** 		 lv_obj_add_flag(guider_ui.wave_model_chart_3, LV_OBJ_FLAG_HIDDEN);
 137:generated/events_init.c ****  
 138:generated/events_init.c **** 		 lv_label_set_text(guider_ui.wave_model_btn_14_label, "->");
 139:generated/events_init.c **** 		 lv_label_set_text(guider_ui.wave_model_btn_9_label, "<-");
 140:generated/events_init.c **** 	 }
 141:generated/events_init.c **** 	 if (page == 2) // 谐波模式
 142:generated/events_init.c **** 	 {
 143:generated/events_init.c **** 		 lv_obj_clear_flag(guider_ui.wave_model_btn_10, LV_OBJ_FLAG_HIDDEN);
 144:generated/events_init.c **** 		 lv_obj_clear_flag(guider_ui.wave_model_btn_11, LV_OBJ_FLAG_HIDDEN);
 145:generated/events_init.c **** 		 lv_obj_clear_flag(guider_ui.wave_model_btn_12, LV_OBJ_FLAG_HIDDEN);
ARM GAS  C:\usertemp\cclVsvnU.s 			page 4


 146:generated/events_init.c **** 		 lv_obj_clear_flag(guider_ui.wave_model_btn_13, LV_OBJ_FLAG_HIDDEN);
 147:generated/events_init.c ****  
 148:generated/events_init.c **** 		 lv_obj_clear_flag(guider_ui.wave_model_btn_6, LV_OBJ_FLAG_HIDDEN);
 149:generated/events_init.c **** 		 lv_obj_clear_flag(guider_ui.wave_model_btn_1, LV_OBJ_FLAG_HIDDEN);
 150:generated/events_init.c **** 		 lv_obj_clear_flag(guider_ui.wave_model_btn_2, LV_OBJ_FLAG_HIDDEN);
 151:generated/events_init.c **** 		 lv_obj_clear_flag(guider_ui.wave_model_btn_3, LV_OBJ_FLAG_HIDDEN);
 152:generated/events_init.c **** 		 lv_obj_clear_flag(guider_ui.wave_model_btn_4, LV_OBJ_FLAG_HIDDEN);
 153:generated/events_init.c **** 		 lv_obj_clear_flag(guider_ui.wave_model_btn_5, LV_OBJ_FLAG_HIDDEN);
 154:generated/events_init.c **** 		 lv_obj_add_flag(guider_ui.wave_model_label_27, LV_OBJ_FLAG_HIDDEN);
 155:generated/events_init.c **** 		 lv_obj_add_flag(guider_ui.wave_model_chart_2, LV_OBJ_FLAG_HIDDEN);
 156:generated/events_init.c **** 		 lv_obj_clear_flag(guider_ui.wave_model_chart_3, LV_OBJ_FLAG_HIDDEN);
 157:generated/events_init.c **** 		 lv_obj_add_flag(guider_ui.wave_model_img_1, LV_OBJ_FLAG_HIDDEN);
 158:generated/events_init.c **** 		 lv_obj_clear_flag(guider_ui.wave_model_digital_clock_1, LV_OBJ_FLAG_HIDDEN);
 159:generated/events_init.c **** 		 lv_obj_add_flag(guider_ui.wave_model_label_26, LV_OBJ_FLAG_HIDDEN);
 160:generated/events_init.c **** 		 lv_obj_add_flag(guider_ui.wave_model_table_1, LV_OBJ_FLAG_HIDDEN);
 161:generated/events_init.c **** 		 lv_obj_clear_flag(guider_ui.wave_model_btn_8, LV_OBJ_FLAG_HIDDEN);
 162:generated/events_init.c **** 		 lv_obj_clear_flag(guider_ui.wave_model_btn_7, LV_OBJ_FLAG_HIDDEN);
 163:generated/events_init.c ****  
 164:generated/events_init.c **** 		 lv_obj_clear_flag(guider_ui.wave_model_num_1, LV_OBJ_FLAG_HIDDEN);
 165:generated/events_init.c **** 		 lv_obj_add_flag(guider_ui.wave_model_N_val, LV_OBJ_FLAG_HIDDEN);
 166:generated/events_init.c **** 		 lv_obj_add_flag(guider_ui.wave_model_label_25, LV_OBJ_FLAG_HIDDEN);
 167:generated/events_init.c **** 		 lv_obj_add_flag(guider_ui.wave_model_label_24, LV_OBJ_FLAG_HIDDEN);
 168:generated/events_init.c **** 		 lv_obj_add_flag(guider_ui.wave_model_label_23, LV_OBJ_FLAG_HIDDEN);
 169:generated/events_init.c **** 		 lv_obj_add_flag(guider_ui.wave_model_label_22, LV_OBJ_FLAG_HIDDEN);
 170:generated/events_init.c **** 		 lv_obj_add_flag(guider_ui.wave_model_label_21, LV_OBJ_FLAG_HIDDEN);
 171:generated/events_init.c **** 		 lv_obj_set_width(guider_ui.wave_model_three_value, 120);
 172:generated/events_init.c **** 		 lv_obj_set_height(guider_ui.wave_model_three_value, 90);
 173:generated/events_init.c **** 		 lv_obj_clear_flag(guider_ui.wave_model_three_value, LV_OBJ_FLAG_HIDDEN);
 174:generated/events_init.c **** 		 lv_obj_set_width(guider_ui.wave_model_two_value, 120);
 175:generated/events_init.c **** 		 lv_obj_set_height(guider_ui.wave_model_two_value, 90);
 176:generated/events_init.c **** 		 lv_obj_clear_flag(guider_ui.wave_model_two_value, LV_OBJ_FLAG_HIDDEN);
 177:generated/events_init.c **** 		 lv_obj_set_width(guider_ui.wave_model_one_value, 120);
 178:generated/events_init.c **** 		 lv_obj_set_height(guider_ui.wave_model_one_value, 90);
 179:generated/events_init.c **** 		 lv_obj_clear_flag(guider_ui.wave_model_one_value, LV_OBJ_FLAG_HIDDEN);
 180:generated/events_init.c **** 		 lv_obj_add_flag(guider_ui.wave_model_N__, LV_OBJ_FLAG_HIDDEN);
 181:generated/events_init.c **** 		 lv_obj_clear_flag(guider_ui.wave_model_three, LV_OBJ_FLAG_HIDDEN);
 182:generated/events_init.c **** 		 lv_obj_clear_flag(guider_ui.wave_model_two, LV_OBJ_FLAG_HIDDEN);
 183:generated/events_init.c **** 		 lv_obj_clear_flag(guider_ui.wave_model_red, LV_OBJ_FLAG_HIDDEN);
 184:generated/events_init.c **** 		 lv_obj_add_flag(guider_ui.wave_model_blue, LV_OBJ_FLAG_HIDDEN);
 185:generated/events_init.c **** 		 lv_obj_clear_flag(guider_ui.wave_model_green, LV_OBJ_FLAG_HIDDEN);
 186:generated/events_init.c **** 		 lv_obj_clear_flag(guider_ui.wave_model_yellow, LV_OBJ_FLAG_HIDDEN);
 187:generated/events_init.c **** 		 lv_obj_clear_flag(guider_ui.wave_model_freq, LV_OBJ_FLAG_HIDDEN);
 188:generated/events_init.c **** 		 lv_obj_clear_flag(guider_ui.wave_model_power, LV_OBJ_FLAG_HIDDEN);
 189:generated/events_init.c **** 		 lv_obj_clear_flag(guider_ui.wave_model_btn_1, LV_OBJ_FLAG_HIDDEN);
 190:generated/events_init.c **** 		 lv_obj_clear_flag(guider_ui.wave_model_btn_2, LV_OBJ_FLAG_HIDDEN);
 191:generated/events_init.c **** 		 lv_obj_clear_flag(guider_ui.wave_model_btn_3, LV_OBJ_FLAG_HIDDEN);
 192:generated/events_init.c **** 		 lv_obj_clear_flag(guider_ui.wave_model_btn_4, LV_OBJ_FLAG_HIDDEN);
 193:generated/events_init.c **** 		 lv_obj_clear_flag(guider_ui.wave_model_btn_5, LV_OBJ_FLAG_HIDDEN);
 194:generated/events_init.c **** 		 lv_obj_clear_flag(guider_ui.wave_model_btn_6, LV_OBJ_FLAG_HIDDEN);
 195:generated/events_init.c **** 		 lv_label_set_text(guider_ui.wave_model_btn_14_label, "Y-");
 196:generated/events_init.c **** 		 lv_label_set_text(guider_ui.wave_model_btn_9_label, "Y+");
 197:generated/events_init.c **** 	 }
 198:generated/events_init.c **** 	 if (page == 3) // 最值
 199:generated/events_init.c **** 	 {
 200:generated/events_init.c ****  
 201:generated/events_init.c **** 		 lv_obj_add_flag(guider_ui.wave_model_chart_3, LV_OBJ_FLAG_HIDDEN);
 202:generated/events_init.c **** 		 lv_obj_clear_flag(guider_ui.wave_model_btn_7, LV_OBJ_FLAG_HIDDEN);
ARM GAS  C:\usertemp\cclVsvnU.s 			page 5


 203:generated/events_init.c **** 		 lv_obj_set_width(guider_ui.wave_model_chart_2, 520);
 204:generated/events_init.c **** 		 lv_obj_set_height(guider_ui.wave_model_chart_2, 280);
 205:generated/events_init.c **** 		 lv_obj_set_pos(guider_ui.wave_model_chart_2, 47, 130);
 206:generated/events_init.c **** 		 lv_obj_add_flag(guider_ui.wave_model_chart_2, LV_OBJ_FLAG_HIDDEN);
 207:generated/events_init.c **** 		 lv_obj_clear_flag(guider_ui.wave_model_num_1, LV_OBJ_FLAG_HIDDEN);
 208:generated/events_init.c **** 		 lv_obj_add_flag(guider_ui.wave_model_N_val, LV_OBJ_FLAG_HIDDEN);
 209:generated/events_init.c **** 		 lv_obj_add_flag(guider_ui.wave_model_label_25, LV_OBJ_FLAG_HIDDEN);
 210:generated/events_init.c **** 		 lv_obj_add_flag(guider_ui.wave_model_label_24, LV_OBJ_FLAG_HIDDEN);
 211:generated/events_init.c **** 		 lv_obj_add_flag(guider_ui.wave_model_label_23, LV_OBJ_FLAG_HIDDEN);
 212:generated/events_init.c **** 		 lv_obj_add_flag(guider_ui.wave_model_label_22, LV_OBJ_FLAG_HIDDEN);
 213:generated/events_init.c **** 		 lv_obj_add_flag(guider_ui.wave_model_label_21, LV_OBJ_FLAG_HIDDEN);
 214:generated/events_init.c **** 		 lv_obj_set_width(guider_ui.wave_model_three_value, 120);
 215:generated/events_init.c **** 		 lv_obj_set_height(guider_ui.wave_model_three_value, 90);
 216:generated/events_init.c **** 		 lv_obj_add_flag(guider_ui.wave_model_three_value, LV_OBJ_FLAG_HIDDEN);
 217:generated/events_init.c **** 		 lv_obj_set_width(guider_ui.wave_model_two_value, 120);
 218:generated/events_init.c **** 		 lv_obj_set_height(guider_ui.wave_model_two_value, 90);
 219:generated/events_init.c **** 		 lv_obj_add_flag(guider_ui.wave_model_two_value, LV_OBJ_FLAG_HIDDEN);
 220:generated/events_init.c **** 		 lv_obj_set_width(guider_ui.wave_model_one_value, 120);
 221:generated/events_init.c **** 		 lv_obj_set_height(guider_ui.wave_model_one_value, 90);
 222:generated/events_init.c **** 		 lv_obj_add_flag(guider_ui.wave_model_one_value, LV_OBJ_FLAG_HIDDEN);
 223:generated/events_init.c **** 		 lv_obj_add_flag(guider_ui.wave_model_N__, LV_OBJ_FLAG_HIDDEN);
 224:generated/events_init.c **** 		 lv_obj_set_pos(guider_ui.wave_model_num_1, 169, 100);
 225:generated/events_init.c **** 		 lv_obj_set_pos(guider_ui.wave_model_three, 430, 98);
 226:generated/events_init.c **** 		 lv_obj_set_pos(guider_ui.wave_model_two, 299, 98);
 227:generated/events_init.c **** 		 lv_obj_set_pos(guider_ui.wave_model_red, 461, 95);
 228:generated/events_init.c **** 		 lv_obj_set_pos(guider_ui.wave_model_green, 330, 95);
 229:generated/events_init.c **** 		 lv_obj_set_pos(guider_ui.wave_model_yellow, 200, 95);
 230:generated/events_init.c **** 		 lv_obj_clear_flag(guider_ui.wave_model_three, LV_OBJ_FLAG_HIDDEN);
 231:generated/events_init.c **** 		 lv_obj_clear_flag(guider_ui.wave_model_two, LV_OBJ_FLAG_HIDDEN);
 232:generated/events_init.c **** 		 lv_obj_clear_flag(guider_ui.wave_model_red, LV_OBJ_FLAG_HIDDEN);
 233:generated/events_init.c **** 		 lv_obj_add_flag(guider_ui.wave_model_blue, LV_OBJ_FLAG_HIDDEN);
 234:generated/events_init.c **** 		 lv_obj_clear_flag(guider_ui.wave_model_green, LV_OBJ_FLAG_HIDDEN);
 235:generated/events_init.c **** 		 lv_obj_clear_flag(guider_ui.wave_model_yellow, LV_OBJ_FLAG_HIDDEN);
 236:generated/events_init.c **** 		 lv_obj_clear_flag(guider_ui.wave_model_freq, LV_OBJ_FLAG_HIDDEN);
 237:generated/events_init.c **** 		 lv_obj_clear_flag(guider_ui.wave_model_power, LV_OBJ_FLAG_HIDDEN);
 238:generated/events_init.c ****  
 239:generated/events_init.c **** 		 lv_obj_clear_flag(guider_ui.wave_model_btn_1, LV_OBJ_FLAG_HIDDEN);
 240:generated/events_init.c **** 		 lv_obj_clear_flag(guider_ui.wave_model_btn_2, LV_OBJ_FLAG_HIDDEN);
 241:generated/events_init.c **** 		 lv_obj_clear_flag(guider_ui.wave_model_btn_3, LV_OBJ_FLAG_HIDDEN);
 242:generated/events_init.c **** 		 lv_obj_clear_flag(guider_ui.wave_model_btn_4, LV_OBJ_FLAG_HIDDEN);
 243:generated/events_init.c **** 		 lv_obj_clear_flag(guider_ui.wave_model_btn_5, LV_OBJ_FLAG_HIDDEN);
 244:generated/events_init.c **** 		 lv_obj_clear_flag(guider_ui.wave_model_btn_6, LV_OBJ_FLAG_HIDDEN);
 245:generated/events_init.c ****  
 246:generated/events_init.c **** 		 lv_obj_clear_flag(guider_ui.wave_model_btn_8, LV_OBJ_FLAG_HIDDEN);
 247:generated/events_init.c **** 		 lv_obj_clear_flag(guider_ui.wave_model_table_1, LV_OBJ_FLAG_HIDDEN);
 248:generated/events_init.c **** 		 lv_obj_add_flag(guider_ui.wave_model_label_26, LV_OBJ_FLAG_HIDDEN);
 249:generated/events_init.c **** 		 lv_obj_clear_flag(guider_ui.wave_model_digital_clock_1, LV_OBJ_FLAG_HIDDEN);
 250:generated/events_init.c **** 		 lv_obj_add_flag(guider_ui.wave_model_img_1, LV_OBJ_FLAG_HIDDEN);
 251:generated/events_init.c **** 		 lv_obj_add_flag(guider_ui.wave_model_table_2, LV_OBJ_FLAG_HIDDEN);
 252:generated/events_init.c **** 	 }
 253:generated/events_init.c **** 	 if (page == 4) // 功率和电能模式
 254:generated/events_init.c **** 	 {
 255:generated/events_init.c **** 		 lv_obj_add_flag(guider_ui.wave_model_table_1, LV_OBJ_FLAG_HIDDEN);
 256:generated/events_init.c **** 		 lv_obj_clear_flag(guider_ui.wave_model_table_2, LV_OBJ_FLAG_HIDDEN);
 257:generated/events_init.c **** 		 lv_obj_clear_flag(guider_ui.wave_model_btn_7, LV_OBJ_FLAG_HIDDEN);
 258:generated/events_init.c **** 		 lv_obj_set_width(guider_ui.wave_model_chart_2, 520);
 259:generated/events_init.c **** 		 lv_obj_set_height(guider_ui.wave_model_chart_2, 280);
ARM GAS  C:\usertemp\cclVsvnU.s 			page 6


 260:generated/events_init.c **** 		 lv_obj_set_pos(guider_ui.wave_model_chart_2, 47, 130);
 261:generated/events_init.c **** 		 lv_obj_add_flag(guider_ui.wave_model_chart_2, LV_OBJ_FLAG_HIDDEN);
 262:generated/events_init.c **** 		 lv_obj_set_pos(guider_ui.wave_model_num_1, 209, 70);
 263:generated/events_init.c **** 		 lv_obj_clear_flag(guider_ui.wave_model_num_1, LV_OBJ_FLAG_HIDDEN);
 264:generated/events_init.c **** 		 lv_obj_add_flag(guider_ui.wave_model_N_val, LV_OBJ_FLAG_HIDDEN);
 265:generated/events_init.c **** 		 lv_obj_add_flag(guider_ui.wave_model_label_25, LV_OBJ_FLAG_HIDDEN);
 266:generated/events_init.c **** 		 lv_obj_add_flag(guider_ui.wave_model_label_24, LV_OBJ_FLAG_HIDDEN);
 267:generated/events_init.c **** 		 lv_obj_add_flag(guider_ui.wave_model_label_23, LV_OBJ_FLAG_HIDDEN);
 268:generated/events_init.c **** 		 lv_obj_add_flag(guider_ui.wave_model_label_22, LV_OBJ_FLAG_HIDDEN);
 269:generated/events_init.c **** 		 lv_obj_add_flag(guider_ui.wave_model_label_21, LV_OBJ_FLAG_HIDDEN);
 270:generated/events_init.c **** 		 lv_obj_set_width(guider_ui.wave_model_three_value, 120);
 271:generated/events_init.c **** 		 lv_obj_set_height(guider_ui.wave_model_three_value, 90);
 272:generated/events_init.c **** 		 lv_obj_add_flag(guider_ui.wave_model_three_value, LV_OBJ_FLAG_HIDDEN);
 273:generated/events_init.c **** 		 lv_obj_set_width(guider_ui.wave_model_two_value, 120);
 274:generated/events_init.c **** 		 lv_obj_set_height(guider_ui.wave_model_two_value, 90);
 275:generated/events_init.c **** 		 lv_obj_add_flag(guider_ui.wave_model_two_value, LV_OBJ_FLAG_HIDDEN);
 276:generated/events_init.c **** 		 lv_obj_set_width(guider_ui.wave_model_one_value, 120);
 277:generated/events_init.c **** 		 lv_obj_set_height(guider_ui.wave_model_one_value, 90);
 278:generated/events_init.c **** 		 lv_obj_add_flag(guider_ui.wave_model_one_value, LV_OBJ_FLAG_HIDDEN);
 279:generated/events_init.c **** 		 lv_obj_add_flag(guider_ui.wave_model_N__, LV_OBJ_FLAG_HIDDEN);
 280:generated/events_init.c **** 		 lv_obj_set_pos(guider_ui.wave_model_three, 470, 68);
 281:generated/events_init.c **** 		 lv_obj_clear_flag(guider_ui.wave_model_three, LV_OBJ_FLAG_HIDDEN);
 282:generated/events_init.c **** 		 lv_obj_set_pos(guider_ui.wave_model_two, 339, 68);
 283:generated/events_init.c **** 		 lv_obj_clear_flag(guider_ui.wave_model_two, LV_OBJ_FLAG_HIDDEN);
 284:generated/events_init.c **** 		 lv_obj_set_pos(guider_ui.wave_model_red, 501, 65);
 285:generated/events_init.c **** 		 lv_obj_clear_flag(guider_ui.wave_model_red, LV_OBJ_FLAG_HIDDEN);
 286:generated/events_init.c **** 		 lv_obj_add_flag(guider_ui.wave_model_blue, LV_OBJ_FLAG_HIDDEN);
 287:generated/events_init.c **** 		 lv_obj_set_pos(guider_ui.wave_model_green, 370, 65);
 288:generated/events_init.c **** 		 lv_obj_clear_flag(guider_ui.wave_model_green, LV_OBJ_FLAG_HIDDEN);
 289:generated/events_init.c **** 		 lv_obj_set_pos(guider_ui.wave_model_yellow, 240, 65);
 290:generated/events_init.c **** 		 lv_obj_clear_flag(guider_ui.wave_model_yellow, LV_OBJ_FLAG_HIDDEN);
 291:generated/events_init.c **** 		 lv_obj_clear_flag(guider_ui.wave_model_freq, LV_OBJ_FLAG_HIDDEN);
 292:generated/events_init.c **** 		 lv_obj_clear_flag(guider_ui.wave_model_power, LV_OBJ_FLAG_HIDDEN);
 293:generated/events_init.c **** 		 lv_obj_clear_flag(guider_ui.wave_model_btn_1, LV_OBJ_FLAG_HIDDEN);
 294:generated/events_init.c **** 		 lv_obj_clear_flag(guider_ui.wave_model_btn_2, LV_OBJ_FLAG_HIDDEN);
 295:generated/events_init.c **** 		 lv_obj_clear_flag(guider_ui.wave_model_btn_3, LV_OBJ_FLAG_HIDDEN);
 296:generated/events_init.c **** 		 lv_obj_clear_flag(guider_ui.wave_model_btn_4, LV_OBJ_FLAG_HIDDEN);
 297:generated/events_init.c **** 		 lv_obj_clear_flag(guider_ui.wave_model_btn_5, LV_OBJ_FLAG_HIDDEN);
 298:generated/events_init.c **** 		 lv_obj_clear_flag(guider_ui.wave_model_btn_6, LV_OBJ_FLAG_HIDDEN);
 299:generated/events_init.c **** 		 lv_obj_clear_flag(guider_ui.wave_model_btn_8, LV_OBJ_FLAG_HIDDEN);
 300:generated/events_init.c **** 		 // lv_obj_clear_flag(guider_ui.wave_model_table_1, LV_OBJ_FLAG_HIDDEN);
 301:generated/events_init.c **** 		 lv_obj_clear_flag(guider_ui.wave_model_label_26, LV_OBJ_FLAG_HIDDEN);
 302:generated/events_init.c **** 		 lv_obj_clear_flag(guider_ui.wave_model_digital_clock_1, LV_OBJ_FLAG_HIDDEN);
 303:generated/events_init.c **** 		 lv_obj_add_flag(guider_ui.wave_model_img_1, LV_OBJ_FLAG_HIDDEN);
 304:generated/events_init.c **** 	 }
 305:generated/events_init.c ****  }
 306:generated/events_init.c ****  
 307:generated/events_init.c ****  static void wave_model_event_handler(lv_event_t *e)
 308:generated/events_init.c ****  {
 309:generated/events_init.c **** 	 lv_event_code_t code = lv_event_get_code(e);
 310:generated/events_init.c ****  
 311:generated/events_init.c **** 	 switch (code)
 312:generated/events_init.c **** 	 {
 313:generated/events_init.c **** 	 case LV_EVENT_GESTURE:
 314:generated/events_init.c **** 	 {
 315:generated/events_init.c **** 		 lv_dir_t dir = lv_indev_get_gesture_dir(lv_indev_get_act());
 316:generated/events_init.c **** 		 switch (dir)
ARM GAS  C:\usertemp\cclVsvnU.s 			page 7


 317:generated/events_init.c **** 		 {
 318:generated/events_init.c **** 		 case LV_DIR_LEFT:
 319:generated/events_init.c **** 		 {
 320:generated/events_init.c **** 			 lv_indev_wait_release(lv_indev_get_act());
 321:generated/events_init.c **** 			 break;
 322:generated/events_init.c **** 		 }
 323:generated/events_init.c **** 		 }
 324:generated/events_init.c **** 		 break;
 325:generated/events_init.c **** 	 }
 326:generated/events_init.c **** 	 default:
 327:generated/events_init.c **** 		 break;
 328:generated/events_init.c **** 	 }
 329:generated/events_init.c ****  }
 330:generated/events_init.c ****  static void wave_model_btn_2_event_handler(lv_event_t *e) // 电压电流波形切换
 331:generated/events_init.c ****  {
 332:generated/events_init.c **** 	 lv_event_code_t code = lv_event_get_code(e);
 333:generated/events_init.c ****  
 334:generated/events_init.c **** 	 switch (code)
 335:generated/events_init.c **** 	 {
 336:generated/events_init.c **** 	 case LV_EVENT_CLICKED:
 337:generated/events_init.c **** 	 {
 338:generated/events_init.c **** 		 V_I_flag = !V_I_flag;
 339:generated/events_init.c **** 		 if (V_I_flag == 1)
 340:generated/events_init.c **** 		 { // 显示电流
 341:generated/events_init.c **** 			 ser1_I->hidden = 0;
 342:generated/events_init.c **** 			 ser2_I->hidden = 0;
 343:generated/events_init.c **** 			 ser3_I->hidden = 0;
 344:generated/events_init.c **** 			 serN_I->hidden = 0;
 345:generated/events_init.c **** 			 L2_I_flag = 0;
 346:generated/events_init.c **** 			 L1_I_flag = 0;
 347:generated/events_init.c **** 			 L3_I_flag = 0;
 348:generated/events_init.c **** 			 LN_I_flag = 0;
 349:generated/events_init.c ****  
 350:generated/events_init.c **** 			 ser1->hidden = 1;
 351:generated/events_init.c **** 			 ser2->hidden = 1;
 352:generated/events_init.c **** 			 ser3->hidden = 1;
 353:generated/events_init.c **** 			 serN->hidden = 1;
 354:generated/events_init.c **** 			 L2_flag = 1;
 355:generated/events_init.c **** 			 L1_flag = 1;
 356:generated/events_init.c **** 			 L3_flag = 1;
 357:generated/events_init.c **** 			 LN_flag = 1;
 358:generated/events_init.c ****  
 359:generated/events_init.c **** 			 lv_label_set_text(guider_ui.wave_model_btn_2_label, "I");
 360:generated/events_init.c **** 		 }
 361:generated/events_init.c **** 		 else
 362:generated/events_init.c **** 		 { // 显示电压
 363:generated/events_init.c ****  
 364:generated/events_init.c **** 			 lv_label_set_text(guider_ui.wave_model_btn_2_label, "V");
 365:generated/events_init.c **** 			 ser1->hidden = 0;
 366:generated/events_init.c **** 			 ser2->hidden = 0;
 367:generated/events_init.c **** 			 ser3->hidden = 0;
 368:generated/events_init.c **** 			 serN->hidden = 0;
 369:generated/events_init.c **** 			 L2_flag = 0;
 370:generated/events_init.c **** 			 L1_flag = 0;
 371:generated/events_init.c **** 			 L3_flag = 0;
 372:generated/events_init.c **** 			 LN_flag = 0;
 373:generated/events_init.c ****  
ARM GAS  C:\usertemp\cclVsvnU.s 			page 8


 374:generated/events_init.c **** 			 ser1_I->hidden = 1;
 375:generated/events_init.c **** 			 ser2_I->hidden = 1;
 376:generated/events_init.c **** 			 ser3_I->hidden = 1;
 377:generated/events_init.c **** 			 serN_I->hidden = 1;
 378:generated/events_init.c **** 			 L2_I_flag = 1;
 379:generated/events_init.c **** 			 L1_I_flag = 1;
 380:generated/events_init.c **** 			 L3_I_flag = 1;
 381:generated/events_init.c **** 			 LN_I_flag = 1;
 382:generated/events_init.c **** 		 }
 383:generated/events_init.c **** 		 break;
 384:generated/events_init.c **** 	 }
 385:generated/events_init.c **** 	 default:
 386:generated/events_init.c **** 		 break;
 387:generated/events_init.c **** 	 }
 388:generated/events_init.c ****  }
 389:generated/events_init.c ****  static void wave_model_btn_7_event_handler(lv_event_t *e)
 390:generated/events_init.c ****  {
 391:generated/events_init.c **** 	 lv_event_code_t code = lv_event_get_code(e);
 392:generated/events_init.c ****  
 393:generated/events_init.c **** 	 switch (code)
 394:generated/events_init.c **** 	 {
 395:generated/events_init.c **** 	 case LV_EVENT_CLICKED:
 396:generated/events_init.c **** 	 {
 397:generated/events_init.c **** 		 page++;
 398:generated/events_init.c **** 		 if (page > 4)
 399:generated/events_init.c **** 			 page = 0;
 400:generated/events_init.c **** 		 page_switch();
 401:generated/events_init.c ****  
 402:generated/events_init.c **** 		 break;
 403:generated/events_init.c **** 	 }
 404:generated/events_init.c **** 	 default:
 405:generated/events_init.c **** 		 break;
 406:generated/events_init.c **** 	 }
 407:generated/events_init.c ****  }
 408:generated/events_init.c ****  static void wave_model_btn_8_event_handler(lv_event_t *e)
 409:generated/events_init.c ****  {
 410:generated/events_init.c **** 	 lv_event_code_t code = lv_event_get_code(e);
 411:generated/events_init.c ****  
 412:generated/events_init.c **** 	 switch (code)
 413:generated/events_init.c **** 	 {
 414:generated/events_init.c **** 	 case LV_EVENT_CLICKED:
 415:generated/events_init.c **** 	 {
 416:generated/events_init.c **** 		 page--;
 417:generated/events_init.c **** 		 if (page < 0)
 418:generated/events_init.c **** 			 page = 4;
 419:generated/events_init.c ****  
 420:generated/events_init.c **** 		 page_switch();
 421:generated/events_init.c **** 		 break;
 422:generated/events_init.c **** 	 }
 423:generated/events_init.c **** 	 default:
 424:generated/events_init.c **** 		 break;
 425:generated/events_init.c **** 	 }
 426:generated/events_init.c ****  }
 427:generated/events_init.c ****  
 428:generated/events_init.c ****  static void wave_model_btn_1_event_handler(lv_event_t *e) // L1
 429:generated/events_init.c ****  {
 430:generated/events_init.c **** 	 lv_event_code_t code = lv_event_get_code(e);
ARM GAS  C:\usertemp\cclVsvnU.s 			page 9


 431:generated/events_init.c ****  
 432:generated/events_init.c **** 	 switch (code)
 433:generated/events_init.c **** 	 {
 434:generated/events_init.c **** 	 case LV_EVENT_CLICKED:
 435:generated/events_init.c **** 	 {
 436:generated/events_init.c **** 		 if (V_I_flag == 1)
 437:generated/events_init.c **** 		 {
 438:generated/events_init.c **** 			 L1_I_flag = !L1_I_flag;
 439:generated/events_init.c **** 			 ser1_I->hidden = L1_I_flag;
 440:generated/events_init.c **** 		 }
 441:generated/events_init.c ****  
 442:generated/events_init.c **** 		 else if (V_I_flag == 0)
 443:generated/events_init.c **** 		 {
 444:generated/events_init.c **** 			 L1_flag = !L1_flag;
 445:generated/events_init.c **** 			 ser1->hidden = L1_flag;
 446:generated/events_init.c **** 		 }
 447:generated/events_init.c ****  
 448:generated/events_init.c **** 		 break;
 449:generated/events_init.c **** 	 }
 450:generated/events_init.c **** 	 default:
 451:generated/events_init.c **** 		 break;
 452:generated/events_init.c **** 	 }
 453:generated/events_init.c ****  }
 454:generated/events_init.c ****  static void wave_model_btn_3_event_handler(lv_event_t *e) // L2
 455:generated/events_init.c ****  {
 456:generated/events_init.c **** 	 lv_event_code_t code = lv_event_get_code(e);
 457:generated/events_init.c ****  
 458:generated/events_init.c **** 	 switch (code)
 459:generated/events_init.c **** 	 {
 460:generated/events_init.c **** 	 case LV_EVENT_CLICKED:
 461:generated/events_init.c **** 	 {
 462:generated/events_init.c **** 		 if (V_I_flag == 1)
 463:generated/events_init.c **** 		 {
 464:generated/events_init.c **** 			 L2_I_flag = !L2_I_flag;
 465:generated/events_init.c **** 			 ser2_I->hidden = L2_I_flag;
 466:generated/events_init.c **** 		 }
 467:generated/events_init.c ****  
 468:generated/events_init.c **** 		 else if (V_I_flag == 0)
 469:generated/events_init.c **** 		 {
 470:generated/events_init.c **** 			 L2_flag = !L2_flag;
 471:generated/events_init.c **** 			 ser2->hidden = L2_flag;
 472:generated/events_init.c **** 		 }
 473:generated/events_init.c ****  
 474:generated/events_init.c **** 		 break;
 475:generated/events_init.c **** 	 }
 476:generated/events_init.c **** 	 default:
 477:generated/events_init.c **** 		 break;
 478:generated/events_init.c **** 	 }
 479:generated/events_init.c ****  }
 480:generated/events_init.c ****  static void wave_model_btn_4_event_handler(lv_event_t *e) // L3
 481:generated/events_init.c ****  {
 482:generated/events_init.c **** 	 lv_event_code_t code = lv_event_get_code(e);
 483:generated/events_init.c ****  
 484:generated/events_init.c **** 	 switch (code)
 485:generated/events_init.c **** 	 {
 486:generated/events_init.c **** 	 case LV_EVENT_CLICKED:
 487:generated/events_init.c **** 	 {
ARM GAS  C:\usertemp\cclVsvnU.s 			page 10


 488:generated/events_init.c **** 		 if (V_I_flag == 1)
 489:generated/events_init.c **** 		 {
 490:generated/events_init.c **** 			 L3_I_flag = !L3_I_flag;
 491:generated/events_init.c **** 			 ser3_I->hidden = L3_I_flag;
 492:generated/events_init.c **** 		 }
 493:generated/events_init.c ****  
 494:generated/events_init.c **** 		 else if (V_I_flag == 0)
 495:generated/events_init.c **** 		 {
 496:generated/events_init.c **** 			 L3_flag = !L3_flag;
 497:generated/events_init.c **** 			 ser3->hidden = L3_flag;
 498:generated/events_init.c **** 		 }
 499:generated/events_init.c **** 		 break;
 500:generated/events_init.c **** 	 }
 501:generated/events_init.c **** 	 default:
 502:generated/events_init.c **** 		 break;
 503:generated/events_init.c **** 	 }
 504:generated/events_init.c ****  }
 505:generated/events_init.c ****  static void wave_model_btn_5_event_handler(lv_event_t *e) // LN
 506:generated/events_init.c ****  {
 507:generated/events_init.c **** 	 lv_event_code_t code = lv_event_get_code(e);
 508:generated/events_init.c ****  
 509:generated/events_init.c **** 	 switch (code)
 510:generated/events_init.c **** 	 {
 511:generated/events_init.c **** 	 case LV_EVENT_CLICKED:
 512:generated/events_init.c **** 	 {
 513:generated/events_init.c **** 		 if (V_I_flag == 1)
 514:generated/events_init.c **** 		 {
 515:generated/events_init.c **** 			 LN_I_flag = !LN_I_flag;
 516:generated/events_init.c **** 			 serN_I->hidden = LN_I_flag;
 517:generated/events_init.c **** 		 }
 518:generated/events_init.c ****  
 519:generated/events_init.c **** 		 else if (V_I_flag == 0)
 520:generated/events_init.c **** 		 {
 521:generated/events_init.c **** 			 LN_flag = !LN_flag;
 522:generated/events_init.c **** 			 serN->hidden = LN_flag;
 523:generated/events_init.c **** 		 }
 524:generated/events_init.c **** 		 break;
 525:generated/events_init.c **** 	 }
 526:generated/events_init.c **** 	 default:
 527:generated/events_init.c **** 		 break;
 528:generated/events_init.c **** 	 }
 529:generated/events_init.c ****  }
 530:generated/events_init.c ****  static void wave_model_btn_6_event_handler(lv_event_t *e) // Ca截屏
 531:generated/events_init.c ****  {
 532:generated/events_init.c **** 	 lv_event_code_t code = lv_event_get_code(e);
 533:generated/events_init.c ****  
 534:generated/events_init.c **** 	 switch (code)
 535:generated/events_init.c **** 	 {
 536:generated/events_init.c **** 	 case LV_EVENT_LONG_PRESSED:
 537:generated/events_init.c **** 	 {
 538:generated/events_init.c **** 		 char filename[60] = {0};
 539:generated/events_init.c **** 		 uint8_t temp = 0;
 540:generated/events_init.c ****  
 541:generated/events_init.c **** 		 vTaskSuspendAll();
 542:generated/events_init.c **** 		 taskENTER_CRITICAL();
 543:generated/events_init.c **** 		 if (page == 0)
 544:generated/events_init.c **** 		 {
ARM GAS  C:\usertemp\cclVsvnU.s 			page 11


 545:generated/events_init.c **** 			 sprintf(filename, "0:test/p%d%d%d.bin", wave_model_digital_clock_1_hour_value, wave_model_digit
 546:generated/events_init.c **** 			 if (take_snapshot_with_buffer(guider_ui.wave_model_chart_2, filename))
 547:generated/events_init.c **** 			 {
 548:generated/events_init.c **** 				 sd_count++;
 549:generated/events_init.c **** 				 msg_notice(guider_ui.wave_model_msg, 2000, "Screenshot successful");
 550:generated/events_init.c **** 				 temp = 1;
 551:generated/events_init.c **** 				 LV_LOG_USER("sd_count = %d\r\n", sd_count);
 552:generated/events_init.c **** 				 refersh_lvgl_image(guider_ui.wave_model_img_1);
 553:generated/events_init.c **** 			 }
 554:generated/events_init.c **** 			 else
 555:generated/events_init.c **** 			 {
 556:generated/events_init.c **** 				 temp = 0;
 557:generated/events_init.c **** 			 }
 558:generated/events_init.c **** 		 }
 559:generated/events_init.c ****  
 560:generated/events_init.c **** 		 taskEXIT_CRITICAL();
 561:generated/events_init.c **** 		 xTaskResumeAll();
 562:generated/events_init.c **** 		 if (temp)
 563:generated/events_init.c **** 		 {
 564:generated/events_init.c **** 			 
 565:generated/events_init.c **** 		 }
 566:generated/events_init.c **** 		 else
 567:generated/events_init.c **** 		 {
 568:generated/events_init.c **** 			 msg_notice(guider_ui.wave_model_msg, 2000, "Screenshot failed");
 569:generated/events_init.c **** 		 }
 570:generated/events_init.c ****  
 571:generated/events_init.c **** 		 break;
 572:generated/events_init.c **** 	 }
 573:generated/events_init.c **** 	 default:
 574:generated/events_init.c **** 		 break;
 575:generated/events_init.c **** 	 }
 576:generated/events_init.c ****  }
 577:generated/events_init.c ****  static void wave_model_btn_9_event_handler(lv_event_t *e) // X+
 578:generated/events_init.c ****  {
 579:generated/events_init.c **** 	 lv_event_code_t code = lv_event_get_code(e);
 580:generated/events_init.c ****  
 581:generated/events_init.c **** 	 switch (code)
 582:generated/events_init.c **** 	 {
 583:generated/events_init.c **** 	 case LV_EVENT_CLICKED:
 584:generated/events_init.c **** 	 {
 585:generated/events_init.c **** 		vTaskSuspendAll();
 586:generated/events_init.c **** 		taskENTER_CRITICAL();
 587:generated/events_init.c **** 		 if (page == 0)
 588:generated/events_init.c **** 		 {
 589:generated/events_init.c **** 			 step--;
 590:generated/events_init.c **** 			 if (step == 0)
 591:generated/events_init.c **** 			 {
 592:generated/events_init.c **** 				 step = 1;
 593:generated/events_init.c **** 			 }
 594:generated/events_init.c **** 		 }
 595:generated/events_init.c **** 		 else if (page == 1)
 596:generated/events_init.c **** 		 {
 597:generated/events_init.c **** 			 vTaskSuspendAll();
 598:generated/events_init.c **** 			 taskENTER_CRITICAL();
 599:generated/events_init.c **** 			 file_now--;
 600:generated/events_init.c **** 			 if (file_now < 0)
 601:generated/events_init.c **** 			 {
ARM GAS  C:\usertemp\cclVsvnU.s 			page 12


 602:generated/events_init.c **** 				 LV_LOG_USER("file_now < 0, set to sd_count\r\n");
 603:generated/events_init.c **** 				 file_now = sd_count;
 604:generated/events_init.c **** 			 }
 605:generated/events_init.c **** 			 LV_LOG_USER("set filenow to %d", file_now);
 606:generated/events_init.c **** 			 uint8_t temp = OpenFileByIndex("0:test", file_now);
 607:generated/events_init.c **** 			 if (temp)
 608:generated/events_init.c **** 			 {
 609:generated/events_init.c **** 				 refersh_lvgl_image(guider_ui.wave_model_img_1);
 610:generated/events_init.c **** 			 }
 611:generated/events_init.c **** 		 }
 612:generated/events_init.c **** 
 613:generated/events_init.c **** 		 taskEXIT_CRITICAL();
 614:generated/events_init.c **** 		 xTaskResumeAll();
 615:generated/events_init.c ****  
 616:generated/events_init.c **** 	
 617:generated/events_init.c **** 		 break;
 618:generated/events_init.c **** 	 }
 619:generated/events_init.c **** 	 default:
 620:generated/events_init.c **** 		 break;
 621:generated/events_init.c **** 	 }
 622:generated/events_init.c ****  }
 623:generated/events_init.c ****  static void wave_model_btn_10_event_handler(lv_event_t *e) // X-
 624:generated/events_init.c ****  {
 625:generated/events_init.c **** 	 lv_event_code_t code = lv_event_get_code(e);
 626:generated/events_init.c ****  
 627:generated/events_init.c **** 	 switch (code)
 628:generated/events_init.c **** 	 {
 629:generated/events_init.c **** 	 case LV_EVENT_CLICKED:
 630:generated/events_init.c **** 	 {
 631:generated/events_init.c **** 		 // taskENTER_CRITICAL();
 632:generated/events_init.c **** 		 step++;
 633:generated/events_init.c **** 		 // taskENTER_CRITICAL();
 634:generated/events_init.c **** 		 break;
 635:generated/events_init.c **** 	 }
 636:generated/events_init.c **** 	 default:
 637:generated/events_init.c **** 		 break;
 638:generated/events_init.c **** 	 }
 639:generated/events_init.c ****  }
 640:generated/events_init.c ****  static void wave_model_btn_11_event_handler(lv_event_t *e)
 641:generated/events_init.c ****  {
 642:generated/events_init.c **** 	 lv_event_code_t code = lv_event_get_code(e);
 643:generated/events_init.c ****  
 644:generated/events_init.c **** 	 switch (code)
 645:generated/events_init.c **** 	 {
 646:generated/events_init.c **** 	 case LV_EVENT_CLICKED:
 647:generated/events_init.c **** 	 {
 648:generated/events_init.c **** 		 level += 5;
 649:generated/events_init.c **** 		 break;
 650:generated/events_init.c **** 	 }
 651:generated/events_init.c **** 	 default:
 652:generated/events_init.c **** 		 break;
 653:generated/events_init.c **** 	 }
 654:generated/events_init.c ****  }
 655:generated/events_init.c ****  static void wave_model_btn_12_event_handler(lv_event_t *e)
 656:generated/events_init.c ****  {
 657:generated/events_init.c **** 	 lv_event_code_t code = lv_event_get_code(e);
 658:generated/events_init.c ****  
ARM GAS  C:\usertemp\cclVsvnU.s 			page 13


 659:generated/events_init.c **** 	 switch (code)
 660:generated/events_init.c **** 	 {
 661:generated/events_init.c **** 	 case LV_EVENT_CLICKED:
 662:generated/events_init.c **** 	 {
 663:generated/events_init.c **** 		 level -= 5;
 664:generated/events_init.c **** 		 break;
 665:generated/events_init.c **** 	 }
 666:generated/events_init.c **** 	 default:
 667:generated/events_init.c **** 		 break;
 668:generated/events_init.c **** 	 }
 669:generated/events_init.c ****  }
 670:generated/events_init.c ****  static void wave_model_btn_13_event_handler(lv_event_t *e) // Y+
 671:generated/events_init.c ****  {
  28              		.loc 1 671 2 view -0
  29              		.cfi_startproc
  30              		@ args = 0, pretend = 0, frame = 0
  31              		@ frame_needed = 0, uses_anonymous_args = 0
  32              		.loc 1 671 2 is_stmt 0 view .LVU1
  33 0000 08B5     		push	{r3, lr}
  34              	.LCFI0:
  35              		.cfi_def_cfa_offset 8
  36              		.cfi_offset 3, -8
  37              		.cfi_offset 14, -4
 672:generated/events_init.c **** 	 lv_event_code_t code = lv_event_get_code(e);
  38              		.loc 1 672 3 is_stmt 1 view .LVU2
  39              		.loc 1 672 26 is_stmt 0 view .LVU3
  40 0002 FFF7FEFF 		bl	lv_event_get_code
  41              	.LVL1:
 673:generated/events_init.c ****  
 674:generated/events_init.c **** 	 switch (code)
  42              		.loc 1 674 3 is_stmt 1 view .LVU4
  43 0006 0728     		cmp	r0, #7
  44 0008 00D0     		beq	.L4
  45              	.L1:
 675:generated/events_init.c **** 	 {
 676:generated/events_init.c **** 	 case LV_EVENT_CLICKED:
 677:generated/events_init.c **** 	 {
 678:generated/events_init.c **** 		 // taskENTER_CRITICAL();
 679:generated/events_init.c **** 		 rat += 10;
 680:generated/events_init.c **** 		 // taskENTER_CRITICAL();
 681:generated/events_init.c **** 		 break;
 682:generated/events_init.c **** 	 }
 683:generated/events_init.c **** 	 default:
 684:generated/events_init.c **** 		 break;
 685:generated/events_init.c **** 	 }
 686:generated/events_init.c ****  }
  46              		.loc 1 686 2 is_stmt 0 view .LVU5
  47 000a 08BD     		pop	{r3, pc}
  48              	.L4:
 679:generated/events_init.c **** 		 // taskENTER_CRITICAL();
  49              		.loc 1 679 4 is_stmt 1 view .LVU6
 679:generated/events_init.c **** 		 // taskENTER_CRITICAL();
  50              		.loc 1 679 8 is_stmt 0 view .LVU7
  51 000c 044B     		ldr	r3, .L5
  52 000e D3ED007A 		vldr.32	s15, [r3]
  53 0012 B2EE047A 		vmov.f32	s14, #1.0e+1
  54 0016 77EE877A 		vadd.f32	s15, s15, s14
ARM GAS  C:\usertemp\cclVsvnU.s 			page 14


  55 001a C3ED007A 		vstr.32	s15, [r3]
 681:generated/events_init.c **** 	 }
  56              		.loc 1 681 4 is_stmt 1 view .LVU8
  57              		.loc 1 686 2 is_stmt 0 view .LVU9
  58 001e F4E7     		b	.L1
  59              	.L6:
  60              		.align	2
  61              	.L5:
  62 0020 00000000 		.word	rat
  63              		.cfi_endproc
  64              	.LFE589:
  66              		.section	.text.wave_model_btn_12_event_handler,"ax",%progbits
  67              		.align	1
  68              		.syntax unified
  69              		.thumb
  70              		.thumb_func
  72              	wave_model_btn_12_event_handler:
  73              	.LVL2:
  74              	.LFB588:
 656:generated/events_init.c **** 	 lv_event_code_t code = lv_event_get_code(e);
  75              		.loc 1 656 2 is_stmt 1 view -0
  76              		.cfi_startproc
  77              		@ args = 0, pretend = 0, frame = 0
  78              		@ frame_needed = 0, uses_anonymous_args = 0
 656:generated/events_init.c **** 	 lv_event_code_t code = lv_event_get_code(e);
  79              		.loc 1 656 2 is_stmt 0 view .LVU11
  80 0000 08B5     		push	{r3, lr}
  81              	.LCFI1:
  82              		.cfi_def_cfa_offset 8
  83              		.cfi_offset 3, -8
  84              		.cfi_offset 14, -4
 657:generated/events_init.c ****  
  85              		.loc 1 657 3 is_stmt 1 view .LVU12
 657:generated/events_init.c ****  
  86              		.loc 1 657 26 is_stmt 0 view .LVU13
  87 0002 FFF7FEFF 		bl	lv_event_get_code
  88              	.LVL3:
 659:generated/events_init.c **** 	 {
  89              		.loc 1 659 3 is_stmt 1 view .LVU14
  90 0006 0728     		cmp	r0, #7
  91 0008 00D0     		beq	.L10
  92              	.L7:
 669:generated/events_init.c ****  static void wave_model_btn_13_event_handler(lv_event_t *e) // Y+
  93              		.loc 1 669 2 is_stmt 0 view .LVU15
  94 000a 08BD     		pop	{r3, pc}
  95              	.L10:
 663:generated/events_init.c **** 		 break;
  96              		.loc 1 663 4 is_stmt 1 view .LVU16
 663:generated/events_init.c **** 		 break;
  97              		.loc 1 663 10 is_stmt 0 view .LVU17
  98 000c 044B     		ldr	r3, .L11
  99 000e D3ED007A 		vldr.32	s15, [r3]
 100 0012 B1EE047A 		vmov.f32	s14, #5.0e+0
 101 0016 77EEC77A 		vsub.f32	s15, s15, s14
 102 001a C3ED007A 		vstr.32	s15, [r3]
 664:generated/events_init.c **** 	 }
 103              		.loc 1 664 4 is_stmt 1 view .LVU18
ARM GAS  C:\usertemp\cclVsvnU.s 			page 15


 669:generated/events_init.c ****  static void wave_model_btn_13_event_handler(lv_event_t *e) // Y+
 104              		.loc 1 669 2 is_stmt 0 view .LVU19
 105 001e F4E7     		b	.L7
 106              	.L12:
 107              		.align	2
 108              	.L11:
 109 0020 00000000 		.word	level
 110              		.cfi_endproc
 111              	.LFE588:
 113              		.section	.text.wave_model_btn_11_event_handler,"ax",%progbits
 114              		.align	1
 115              		.syntax unified
 116              		.thumb
 117              		.thumb_func
 119              	wave_model_btn_11_event_handler:
 120              	.LVL4:
 121              	.LFB587:
 641:generated/events_init.c **** 	 lv_event_code_t code = lv_event_get_code(e);
 122              		.loc 1 641 2 is_stmt 1 view -0
 123              		.cfi_startproc
 124              		@ args = 0, pretend = 0, frame = 0
 125              		@ frame_needed = 0, uses_anonymous_args = 0
 641:generated/events_init.c **** 	 lv_event_code_t code = lv_event_get_code(e);
 126              		.loc 1 641 2 is_stmt 0 view .LVU21
 127 0000 08B5     		push	{r3, lr}
 128              	.LCFI2:
 129              		.cfi_def_cfa_offset 8
 130              		.cfi_offset 3, -8
 131              		.cfi_offset 14, -4
 642:generated/events_init.c ****  
 132              		.loc 1 642 3 is_stmt 1 view .LVU22
 642:generated/events_init.c ****  
 133              		.loc 1 642 26 is_stmt 0 view .LVU23
 134 0002 FFF7FEFF 		bl	lv_event_get_code
 135              	.LVL5:
 644:generated/events_init.c **** 	 {
 136              		.loc 1 644 3 is_stmt 1 view .LVU24
 137 0006 0728     		cmp	r0, #7
 138 0008 00D0     		beq	.L16
 139              	.L13:
 654:generated/events_init.c ****  static void wave_model_btn_12_event_handler(lv_event_t *e)
 140              		.loc 1 654 2 is_stmt 0 view .LVU25
 141 000a 08BD     		pop	{r3, pc}
 142              	.L16:
 648:generated/events_init.c **** 		 break;
 143              		.loc 1 648 4 is_stmt 1 view .LVU26
 648:generated/events_init.c **** 		 break;
 144              		.loc 1 648 10 is_stmt 0 view .LVU27
 145 000c 044B     		ldr	r3, .L17
 146 000e D3ED007A 		vldr.32	s15, [r3]
 147 0012 B1EE047A 		vmov.f32	s14, #5.0e+0
 148 0016 77EE877A 		vadd.f32	s15, s15, s14
 149 001a C3ED007A 		vstr.32	s15, [r3]
 649:generated/events_init.c **** 	 }
 150              		.loc 1 649 4 is_stmt 1 view .LVU28
 654:generated/events_init.c ****  static void wave_model_btn_12_event_handler(lv_event_t *e)
 151              		.loc 1 654 2 is_stmt 0 view .LVU29
ARM GAS  C:\usertemp\cclVsvnU.s 			page 16


 152 001e F4E7     		b	.L13
 153              	.L18:
 154              		.align	2
 155              	.L17:
 156 0020 00000000 		.word	level
 157              		.cfi_endproc
 158              	.LFE587:
 160              		.section	.text.wave_model_btn_10_event_handler,"ax",%progbits
 161              		.align	1
 162              		.syntax unified
 163              		.thumb
 164              		.thumb_func
 166              	wave_model_btn_10_event_handler:
 167              	.LVL6:
 168              	.LFB586:
 624:generated/events_init.c **** 	 lv_event_code_t code = lv_event_get_code(e);
 169              		.loc 1 624 2 is_stmt 1 view -0
 170              		.cfi_startproc
 171              		@ args = 0, pretend = 0, frame = 0
 172              		@ frame_needed = 0, uses_anonymous_args = 0
 624:generated/events_init.c **** 	 lv_event_code_t code = lv_event_get_code(e);
 173              		.loc 1 624 2 is_stmt 0 view .LVU31
 174 0000 08B5     		push	{r3, lr}
 175              	.LCFI3:
 176              		.cfi_def_cfa_offset 8
 177              		.cfi_offset 3, -8
 178              		.cfi_offset 14, -4
 625:generated/events_init.c ****  
 179              		.loc 1 625 3 is_stmt 1 view .LVU32
 625:generated/events_init.c ****  
 180              		.loc 1 625 26 is_stmt 0 view .LVU33
 181 0002 FFF7FEFF 		bl	lv_event_get_code
 182              	.LVL7:
 627:generated/events_init.c **** 	 {
 183              		.loc 1 627 3 is_stmt 1 view .LVU34
 184 0006 0728     		cmp	r0, #7
 185 0008 00D0     		beq	.L22
 186              	.L19:
 639:generated/events_init.c ****  static void wave_model_btn_11_event_handler(lv_event_t *e)
 187              		.loc 1 639 2 is_stmt 0 view .LVU35
 188 000a 08BD     		pop	{r3, pc}
 189              	.L22:
 632:generated/events_init.c **** 		 // taskENTER_CRITICAL();
 190              		.loc 1 632 4 is_stmt 1 view .LVU36
 632:generated/events_init.c **** 		 // taskENTER_CRITICAL();
 191              		.loc 1 632 8 is_stmt 0 view .LVU37
 192 000c 044B     		ldr	r3, .L23
 193 000e D3ED007A 		vldr.32	s15, [r3]
 194 0012 B7EE007A 		vmov.f32	s14, #1.0e+0
 195 0016 77EE877A 		vadd.f32	s15, s15, s14
 196 001a C3ED007A 		vstr.32	s15, [r3]
 634:generated/events_init.c **** 	 }
 197              		.loc 1 634 4 is_stmt 1 view .LVU38
 639:generated/events_init.c ****  static void wave_model_btn_11_event_handler(lv_event_t *e)
 198              		.loc 1 639 2 is_stmt 0 view .LVU39
 199 001e F4E7     		b	.L19
 200              	.L24:
ARM GAS  C:\usertemp\cclVsvnU.s 			page 17


 201              		.align	2
 202              	.L23:
 203 0020 00000000 		.word	step
 204              		.cfi_endproc
 205              	.LFE586:
 207              		.section	.text.wave_model_btn_5_event_handler,"ax",%progbits
 208              		.align	1
 209              		.syntax unified
 210              		.thumb
 211              		.thumb_func
 213              	wave_model_btn_5_event_handler:
 214              	.LVL8:
 215              	.LFB583:
 506:generated/events_init.c **** 	 lv_event_code_t code = lv_event_get_code(e);
 216              		.loc 1 506 2 is_stmt 1 view -0
 217              		.cfi_startproc
 218              		@ args = 0, pretend = 0, frame = 0
 219              		@ frame_needed = 0, uses_anonymous_args = 0
 506:generated/events_init.c **** 	 lv_event_code_t code = lv_event_get_code(e);
 220              		.loc 1 506 2 is_stmt 0 view .LVU41
 221 0000 08B5     		push	{r3, lr}
 222              	.LCFI4:
 223              		.cfi_def_cfa_offset 8
 224              		.cfi_offset 3, -8
 225              		.cfi_offset 14, -4
 507:generated/events_init.c ****  
 226              		.loc 1 507 3 is_stmt 1 view .LVU42
 507:generated/events_init.c ****  
 227              		.loc 1 507 26 is_stmt 0 view .LVU43
 228 0002 FFF7FEFF 		bl	lv_event_get_code
 229              	.LVL9:
 509:generated/events_init.c **** 	 {
 230              		.loc 1 509 3 is_stmt 1 view .LVU44
 231 0006 0728     		cmp	r0, #7
 232 0008 00D0     		beq	.L29
 233              	.L25:
 529:generated/events_init.c ****  static void wave_model_btn_6_event_handler(lv_event_t *e) // Ca截屏
 234              		.loc 1 529 2 is_stmt 0 view .LVU45
 235 000a 08BD     		pop	{r3, pc}
 236              	.L29:
 513:generated/events_init.c **** 		 {
 237              		.loc 1 513 4 is_stmt 1 view .LVU46
 513:generated/events_init.c **** 		 {
 238              		.loc 1 513 17 is_stmt 0 view .LVU47
 239 000c 0F4B     		ldr	r3, .L31
 240 000e 1B78     		ldrb	r3, [r3]	@ zero_extendqisi2
 513:generated/events_init.c **** 		 {
 241              		.loc 1 513 7 view .LVU48
 242 0010 012B     		cmp	r3, #1
 243 0012 0ED0     		beq	.L30
 519:generated/events_init.c **** 		 {
 244              		.loc 1 519 9 is_stmt 1 view .LVU49
 519:generated/events_init.c **** 		 {
 245              		.loc 1 519 12 is_stmt 0 view .LVU50
 246 0014 002B     		cmp	r3, #0
 247 0016 F8D1     		bne	.L25
 521:generated/events_init.c **** 			 serN->hidden = LN_flag;
ARM GAS  C:\usertemp\cclVsvnU.s 			page 18


 248              		.loc 1 521 5 is_stmt 1 view .LVU51
 521:generated/events_init.c **** 			 serN->hidden = LN_flag;
 249              		.loc 1 521 15 is_stmt 0 view .LVU52
 250 0018 0D4A     		ldr	r2, .L31+4
 251 001a 1378     		ldrb	r3, [r2]	@ zero_extendqisi2
 252 001c B3FA83F3 		clz	r3, r3
 253 0020 5B09     		lsrs	r3, r3, #5
 521:generated/events_init.c **** 			 serN->hidden = LN_flag;
 254              		.loc 1 521 13 view .LVU53
 255 0022 1370     		strb	r3, [r2]
 522:generated/events_init.c **** 		 }
 256              		.loc 1 522 5 is_stmt 1 view .LVU54
 522:generated/events_init.c **** 		 }
 257              		.loc 1 522 9 is_stmt 0 view .LVU55
 258 0024 0B4A     		ldr	r2, .L31+8
 259 0026 1268     		ldr	r2, [r2]
 522:generated/events_init.c **** 		 }
 260              		.loc 1 522 18 view .LVU56
 261 0028 117B     		ldrb	r1, [r2, #12]	@ zero_extendqisi2
 262 002a 63F30001 		bfi	r1, r3, #0, #1
 263 002e 1173     		strb	r1, [r2, #12]
 529:generated/events_init.c ****  static void wave_model_btn_6_event_handler(lv_event_t *e) // Ca截屏
 264              		.loc 1 529 2 view .LVU57
 265 0030 EBE7     		b	.L25
 266              	.L30:
 515:generated/events_init.c **** 			 serN_I->hidden = LN_I_flag;
 267              		.loc 1 515 5 is_stmt 1 view .LVU58
 515:generated/events_init.c **** 			 serN_I->hidden = LN_I_flag;
 268              		.loc 1 515 17 is_stmt 0 view .LVU59
 269 0032 094A     		ldr	r2, .L31+12
 270 0034 1378     		ldrb	r3, [r2]	@ zero_extendqisi2
 271 0036 B3FA83F3 		clz	r3, r3
 272 003a 5B09     		lsrs	r3, r3, #5
 515:generated/events_init.c **** 			 serN_I->hidden = LN_I_flag;
 273              		.loc 1 515 15 view .LVU60
 274 003c 1370     		strb	r3, [r2]
 516:generated/events_init.c **** 		 }
 275              		.loc 1 516 5 is_stmt 1 view .LVU61
 516:generated/events_init.c **** 		 }
 276              		.loc 1 516 11 is_stmt 0 view .LVU62
 277 003e 074A     		ldr	r2, .L31+16
 278 0040 1268     		ldr	r2, [r2]
 516:generated/events_init.c **** 		 }
 279              		.loc 1 516 20 view .LVU63
 280 0042 117B     		ldrb	r1, [r2, #12]	@ zero_extendqisi2
 281 0044 63F30001 		bfi	r1, r3, #0, #1
 282 0048 1173     		strb	r1, [r2, #12]
 283 004a DEE7     		b	.L25
 284              	.L32:
 285              		.align	2
 286              	.L31:
 287 004c 00000000 		.word	V_I_flag
 288 0050 00000000 		.word	LN_flag
 289 0054 00000000 		.word	serN
 290 0058 00000000 		.word	LN_I_flag
 291 005c 00000000 		.word	serN_I
 292              		.cfi_endproc
ARM GAS  C:\usertemp\cclVsvnU.s 			page 19


 293              	.LFE583:
 295              		.section	.text.wave_model_btn_4_event_handler,"ax",%progbits
 296              		.align	1
 297              		.syntax unified
 298              		.thumb
 299              		.thumb_func
 301              	wave_model_btn_4_event_handler:
 302              	.LVL10:
 303              	.LFB582:
 481:generated/events_init.c **** 	 lv_event_code_t code = lv_event_get_code(e);
 304              		.loc 1 481 2 is_stmt 1 view -0
 305              		.cfi_startproc
 306              		@ args = 0, pretend = 0, frame = 0
 307              		@ frame_needed = 0, uses_anonymous_args = 0
 481:generated/events_init.c **** 	 lv_event_code_t code = lv_event_get_code(e);
 308              		.loc 1 481 2 is_stmt 0 view .LVU65
 309 0000 08B5     		push	{r3, lr}
 310              	.LCFI5:
 311              		.cfi_def_cfa_offset 8
 312              		.cfi_offset 3, -8
 313              		.cfi_offset 14, -4
 482:generated/events_init.c ****  
 314              		.loc 1 482 3 is_stmt 1 view .LVU66
 482:generated/events_init.c ****  
 315              		.loc 1 482 26 is_stmt 0 view .LVU67
 316 0002 FFF7FEFF 		bl	lv_event_get_code
 317              	.LVL11:
 484:generated/events_init.c **** 	 {
 318              		.loc 1 484 3 is_stmt 1 view .LVU68
 319 0006 0728     		cmp	r0, #7
 320 0008 00D0     		beq	.L37
 321              	.L33:
 504:generated/events_init.c ****  static void wave_model_btn_5_event_handler(lv_event_t *e) // LN
 322              		.loc 1 504 2 is_stmt 0 view .LVU69
 323 000a 08BD     		pop	{r3, pc}
 324              	.L37:
 488:generated/events_init.c **** 		 {
 325              		.loc 1 488 4 is_stmt 1 view .LVU70
 488:generated/events_init.c **** 		 {
 326              		.loc 1 488 17 is_stmt 0 view .LVU71
 327 000c 0F4B     		ldr	r3, .L39
 328 000e 1B78     		ldrb	r3, [r3]	@ zero_extendqisi2
 488:generated/events_init.c **** 		 {
 329              		.loc 1 488 7 view .LVU72
 330 0010 012B     		cmp	r3, #1
 331 0012 0ED0     		beq	.L38
 494:generated/events_init.c **** 		 {
 332              		.loc 1 494 9 is_stmt 1 view .LVU73
 494:generated/events_init.c **** 		 {
 333              		.loc 1 494 12 is_stmt 0 view .LVU74
 334 0014 002B     		cmp	r3, #0
 335 0016 F8D1     		bne	.L33
 496:generated/events_init.c **** 			 ser3->hidden = L3_flag;
 336              		.loc 1 496 5 is_stmt 1 view .LVU75
 496:generated/events_init.c **** 			 ser3->hidden = L3_flag;
 337              		.loc 1 496 15 is_stmt 0 view .LVU76
 338 0018 0D4A     		ldr	r2, .L39+4
ARM GAS  C:\usertemp\cclVsvnU.s 			page 20


 339 001a 1378     		ldrb	r3, [r2]	@ zero_extendqisi2
 340 001c B3FA83F3 		clz	r3, r3
 341 0020 5B09     		lsrs	r3, r3, #5
 496:generated/events_init.c **** 			 ser3->hidden = L3_flag;
 342              		.loc 1 496 13 view .LVU77
 343 0022 1370     		strb	r3, [r2]
 497:generated/events_init.c **** 		 }
 344              		.loc 1 497 5 is_stmt 1 view .LVU78
 497:generated/events_init.c **** 		 }
 345              		.loc 1 497 9 is_stmt 0 view .LVU79
 346 0024 0B4A     		ldr	r2, .L39+8
 347 0026 1268     		ldr	r2, [r2]
 497:generated/events_init.c **** 		 }
 348              		.loc 1 497 18 view .LVU80
 349 0028 117B     		ldrb	r1, [r2, #12]	@ zero_extendqisi2
 350 002a 63F30001 		bfi	r1, r3, #0, #1
 351 002e 1173     		strb	r1, [r2, #12]
 504:generated/events_init.c ****  static void wave_model_btn_5_event_handler(lv_event_t *e) // LN
 352              		.loc 1 504 2 view .LVU81
 353 0030 EBE7     		b	.L33
 354              	.L38:
 490:generated/events_init.c **** 			 ser3_I->hidden = L3_I_flag;
 355              		.loc 1 490 5 is_stmt 1 view .LVU82
 490:generated/events_init.c **** 			 ser3_I->hidden = L3_I_flag;
 356              		.loc 1 490 17 is_stmt 0 view .LVU83
 357 0032 094A     		ldr	r2, .L39+12
 358 0034 1378     		ldrb	r3, [r2]	@ zero_extendqisi2
 359 0036 B3FA83F3 		clz	r3, r3
 360 003a 5B09     		lsrs	r3, r3, #5
 490:generated/events_init.c **** 			 ser3_I->hidden = L3_I_flag;
 361              		.loc 1 490 15 view .LVU84
 362 003c 1370     		strb	r3, [r2]
 491:generated/events_init.c **** 		 }
 363              		.loc 1 491 5 is_stmt 1 view .LVU85
 491:generated/events_init.c **** 		 }
 364              		.loc 1 491 11 is_stmt 0 view .LVU86
 365 003e 074A     		ldr	r2, .L39+16
 366 0040 1268     		ldr	r2, [r2]
 491:generated/events_init.c **** 		 }
 367              		.loc 1 491 20 view .LVU87
 368 0042 117B     		ldrb	r1, [r2, #12]	@ zero_extendqisi2
 369 0044 63F30001 		bfi	r1, r3, #0, #1
 370 0048 1173     		strb	r1, [r2, #12]
 371 004a DEE7     		b	.L33
 372              	.L40:
 373              		.align	2
 374              	.L39:
 375 004c 00000000 		.word	V_I_flag
 376 0050 00000000 		.word	L3_flag
 377 0054 00000000 		.word	ser3
 378 0058 00000000 		.word	L3_I_flag
 379 005c 00000000 		.word	ser3_I
 380              		.cfi_endproc
 381              	.LFE582:
 383              		.section	.text.wave_model_btn_3_event_handler,"ax",%progbits
 384              		.align	1
 385              		.syntax unified
ARM GAS  C:\usertemp\cclVsvnU.s 			page 21


 386              		.thumb
 387              		.thumb_func
 389              	wave_model_btn_3_event_handler:
 390              	.LVL12:
 391              	.LFB581:
 455:generated/events_init.c **** 	 lv_event_code_t code = lv_event_get_code(e);
 392              		.loc 1 455 2 is_stmt 1 view -0
 393              		.cfi_startproc
 394              		@ args = 0, pretend = 0, frame = 0
 395              		@ frame_needed = 0, uses_anonymous_args = 0
 455:generated/events_init.c **** 	 lv_event_code_t code = lv_event_get_code(e);
 396              		.loc 1 455 2 is_stmt 0 view .LVU89
 397 0000 08B5     		push	{r3, lr}
 398              	.LCFI6:
 399              		.cfi_def_cfa_offset 8
 400              		.cfi_offset 3, -8
 401              		.cfi_offset 14, -4
 456:generated/events_init.c ****  
 402              		.loc 1 456 3 is_stmt 1 view .LVU90
 456:generated/events_init.c ****  
 403              		.loc 1 456 26 is_stmt 0 view .LVU91
 404 0002 FFF7FEFF 		bl	lv_event_get_code
 405              	.LVL13:
 458:generated/events_init.c **** 	 {
 406              		.loc 1 458 3 is_stmt 1 view .LVU92
 407 0006 0728     		cmp	r0, #7
 408 0008 00D0     		beq	.L45
 409              	.L41:
 479:generated/events_init.c ****  static void wave_model_btn_4_event_handler(lv_event_t *e) // L3
 410              		.loc 1 479 2 is_stmt 0 view .LVU93
 411 000a 08BD     		pop	{r3, pc}
 412              	.L45:
 462:generated/events_init.c **** 		 {
 413              		.loc 1 462 4 is_stmt 1 view .LVU94
 462:generated/events_init.c **** 		 {
 414              		.loc 1 462 17 is_stmt 0 view .LVU95
 415 000c 0F4B     		ldr	r3, .L47
 416 000e 1B78     		ldrb	r3, [r3]	@ zero_extendqisi2
 462:generated/events_init.c **** 		 {
 417              		.loc 1 462 7 view .LVU96
 418 0010 012B     		cmp	r3, #1
 419 0012 0ED0     		beq	.L46
 468:generated/events_init.c **** 		 {
 420              		.loc 1 468 9 is_stmt 1 view .LVU97
 468:generated/events_init.c **** 		 {
 421              		.loc 1 468 12 is_stmt 0 view .LVU98
 422 0014 002B     		cmp	r3, #0
 423 0016 F8D1     		bne	.L41
 470:generated/events_init.c **** 			 ser2->hidden = L2_flag;
 424              		.loc 1 470 5 is_stmt 1 view .LVU99
 470:generated/events_init.c **** 			 ser2->hidden = L2_flag;
 425              		.loc 1 470 15 is_stmt 0 view .LVU100
 426 0018 0D4A     		ldr	r2, .L47+4
 427 001a 1378     		ldrb	r3, [r2]	@ zero_extendqisi2
 428 001c B3FA83F3 		clz	r3, r3
 429 0020 5B09     		lsrs	r3, r3, #5
 470:generated/events_init.c **** 			 ser2->hidden = L2_flag;
ARM GAS  C:\usertemp\cclVsvnU.s 			page 22


 430              		.loc 1 470 13 view .LVU101
 431 0022 1370     		strb	r3, [r2]
 471:generated/events_init.c **** 		 }
 432              		.loc 1 471 5 is_stmt 1 view .LVU102
 471:generated/events_init.c **** 		 }
 433              		.loc 1 471 9 is_stmt 0 view .LVU103
 434 0024 0B4A     		ldr	r2, .L47+8
 435 0026 1268     		ldr	r2, [r2]
 471:generated/events_init.c **** 		 }
 436              		.loc 1 471 18 view .LVU104
 437 0028 117B     		ldrb	r1, [r2, #12]	@ zero_extendqisi2
 438 002a 63F30001 		bfi	r1, r3, #0, #1
 439 002e 1173     		strb	r1, [r2, #12]
 479:generated/events_init.c ****  static void wave_model_btn_4_event_handler(lv_event_t *e) // L3
 440              		.loc 1 479 2 view .LVU105
 441 0030 EBE7     		b	.L41
 442              	.L46:
 464:generated/events_init.c **** 			 ser2_I->hidden = L2_I_flag;
 443              		.loc 1 464 5 is_stmt 1 view .LVU106
 464:generated/events_init.c **** 			 ser2_I->hidden = L2_I_flag;
 444              		.loc 1 464 17 is_stmt 0 view .LVU107
 445 0032 094A     		ldr	r2, .L47+12
 446 0034 1378     		ldrb	r3, [r2]	@ zero_extendqisi2
 447 0036 B3FA83F3 		clz	r3, r3
 448 003a 5B09     		lsrs	r3, r3, #5
 464:generated/events_init.c **** 			 ser2_I->hidden = L2_I_flag;
 449              		.loc 1 464 15 view .LVU108
 450 003c 1370     		strb	r3, [r2]
 465:generated/events_init.c **** 		 }
 451              		.loc 1 465 5 is_stmt 1 view .LVU109
 465:generated/events_init.c **** 		 }
 452              		.loc 1 465 11 is_stmt 0 view .LVU110
 453 003e 074A     		ldr	r2, .L47+16
 454 0040 1268     		ldr	r2, [r2]
 465:generated/events_init.c **** 		 }
 455              		.loc 1 465 20 view .LVU111
 456 0042 117B     		ldrb	r1, [r2, #12]	@ zero_extendqisi2
 457 0044 63F30001 		bfi	r1, r3, #0, #1
 458 0048 1173     		strb	r1, [r2, #12]
 459 004a DEE7     		b	.L41
 460              	.L48:
 461              		.align	2
 462              	.L47:
 463 004c 00000000 		.word	V_I_flag
 464 0050 00000000 		.word	L2_flag
 465 0054 00000000 		.word	ser2
 466 0058 00000000 		.word	L2_I_flag
 467 005c 00000000 		.word	ser2_I
 468              		.cfi_endproc
 469              	.LFE581:
 471              		.section	.rodata.wave_model_btn_2_event_handler.str1.4,"aMS",%progbits,1
 472              		.align	2
 473              	.LC0:
 474 0000 4900     		.ascii	"I\000"
 475 0002 0000     		.align	2
 476              	.LC1:
 477 0004 5600     		.ascii	"V\000"
ARM GAS  C:\usertemp\cclVsvnU.s 			page 23


 478              		.section	.text.wave_model_btn_2_event_handler,"ax",%progbits
 479              		.align	1
 480              		.syntax unified
 481              		.thumb
 482              		.thumb_func
 484              	wave_model_btn_2_event_handler:
 485              	.LVL14:
 486              	.LFB577:
 331:generated/events_init.c **** 	 lv_event_code_t code = lv_event_get_code(e);
 487              		.loc 1 331 2 is_stmt 1 view -0
 488              		.cfi_startproc
 489              		@ args = 0, pretend = 0, frame = 0
 490              		@ frame_needed = 0, uses_anonymous_args = 0
 331:generated/events_init.c **** 	 lv_event_code_t code = lv_event_get_code(e);
 491              		.loc 1 331 2 is_stmt 0 view .LVU113
 492 0000 08B5     		push	{r3, lr}
 493              	.LCFI7:
 494              		.cfi_def_cfa_offset 8
 495              		.cfi_offset 3, -8
 496              		.cfi_offset 14, -4
 332:generated/events_init.c ****  
 497              		.loc 1 332 3 is_stmt 1 view .LVU114
 332:generated/events_init.c ****  
 498              		.loc 1 332 26 is_stmt 0 view .LVU115
 499 0002 FFF7FEFF 		bl	lv_event_get_code
 500              	.LVL15:
 334:generated/events_init.c **** 	 {
 501              		.loc 1 334 3 is_stmt 1 view .LVU116
 502 0006 0728     		cmp	r0, #7
 503 0008 00D0     		beq	.L53
 504              	.LVL16:
 505              	.L49:
 388:generated/events_init.c ****  static void wave_model_btn_7_event_handler(lv_event_t *e)
 506              		.loc 1 388 2 is_stmt 0 view .LVU117
 507 000a 08BD     		pop	{r3, pc}
 508              	.LVL17:
 509              	.L53:
 338:generated/events_init.c **** 		 if (V_I_flag == 1)
 510              		.loc 1 338 4 is_stmt 1 view .LVU118
 338:generated/events_init.c **** 		 if (V_I_flag == 1)
 511              		.loc 1 338 15 is_stmt 0 view .LVU119
 512 000c 4B4A     		ldr	r2, .L55
 513 000e 1378     		ldrb	r3, [r2]	@ zero_extendqisi2
 514 0010 B3FA83F3 		clz	r3, r3
 515 0014 5B09     		lsrs	r3, r3, #5
 338:generated/events_init.c **** 		 if (V_I_flag == 1)
 516              		.loc 1 338 13 view .LVU120
 517 0016 1370     		strb	r3, [r2]
 339:generated/events_init.c **** 		 { // 显示电流
 518              		.loc 1 339 4 is_stmt 1 view .LVU121
 339:generated/events_init.c **** 		 { // 显示电流
 519              		.loc 1 339 7 is_stmt 0 view .LVU122
 520 0018 002B     		cmp	r3, #0
 521 001a 47D1     		bne	.L54
 364:generated/events_init.c **** 			 ser1->hidden = 0;
 522              		.loc 1 364 5 is_stmt 1 view .LVU123
 523 001c 4849     		ldr	r1, .L55+4
ARM GAS  C:\usertemp\cclVsvnU.s 			page 24


 524 001e 494B     		ldr	r3, .L55+8
 525 0020 D869     		ldr	r0, [r3, #28]
 526              	.LVL18:
 364:generated/events_init.c **** 			 ser1->hidden = 0;
 527              		.loc 1 364 5 is_stmt 0 view .LVU124
 528 0022 FFF7FEFF 		bl	lv_label_set_text
 529              	.LVL19:
 365:generated/events_init.c **** 			 ser2->hidden = 0;
 530              		.loc 1 365 5 is_stmt 1 view .LVU125
 365:generated/events_init.c **** 			 ser2->hidden = 0;
 531              		.loc 1 365 9 is_stmt 0 view .LVU126
 532 0026 484B     		ldr	r3, .L55+12
 533 0028 1A68     		ldr	r2, [r3]
 365:generated/events_init.c **** 			 ser2->hidden = 0;
 534              		.loc 1 365 18 view .LVU127
 535 002a 137B     		ldrb	r3, [r2, #12]	@ zero_extendqisi2
 536 002c 23F00103 		bic	r3, r3, #1
 537 0030 1373     		strb	r3, [r2, #12]
 366:generated/events_init.c **** 			 ser3->hidden = 0;
 538              		.loc 1 366 5 is_stmt 1 view .LVU128
 366:generated/events_init.c **** 			 ser3->hidden = 0;
 539              		.loc 1 366 9 is_stmt 0 view .LVU129
 540 0032 464B     		ldr	r3, .L55+16
 541 0034 1A68     		ldr	r2, [r3]
 366:generated/events_init.c **** 			 ser3->hidden = 0;
 542              		.loc 1 366 18 view .LVU130
 543 0036 137B     		ldrb	r3, [r2, #12]	@ zero_extendqisi2
 544 0038 23F00103 		bic	r3, r3, #1
 545 003c 1373     		strb	r3, [r2, #12]
 367:generated/events_init.c **** 			 serN->hidden = 0;
 546              		.loc 1 367 5 is_stmt 1 view .LVU131
 367:generated/events_init.c **** 			 serN->hidden = 0;
 547              		.loc 1 367 9 is_stmt 0 view .LVU132
 548 003e 444B     		ldr	r3, .L55+20
 549 0040 1A68     		ldr	r2, [r3]
 367:generated/events_init.c **** 			 serN->hidden = 0;
 550              		.loc 1 367 18 view .LVU133
 551 0042 137B     		ldrb	r3, [r2, #12]	@ zero_extendqisi2
 552 0044 23F00103 		bic	r3, r3, #1
 553 0048 1373     		strb	r3, [r2, #12]
 368:generated/events_init.c **** 			 L2_flag = 0;
 554              		.loc 1 368 5 is_stmt 1 view .LVU134
 368:generated/events_init.c **** 			 L2_flag = 0;
 555              		.loc 1 368 9 is_stmt 0 view .LVU135
 556 004a 424B     		ldr	r3, .L55+24
 557 004c 1A68     		ldr	r2, [r3]
 368:generated/events_init.c **** 			 L2_flag = 0;
 558              		.loc 1 368 18 view .LVU136
 559 004e 137B     		ldrb	r3, [r2, #12]	@ zero_extendqisi2
 560 0050 23F00103 		bic	r3, r3, #1
 561 0054 1373     		strb	r3, [r2, #12]
 369:generated/events_init.c **** 			 L1_flag = 0;
 562              		.loc 1 369 5 is_stmt 1 view .LVU137
 369:generated/events_init.c **** 			 L1_flag = 0;
 563              		.loc 1 369 13 is_stmt 0 view .LVU138
 564 0056 0023     		movs	r3, #0
 565 0058 3F4A     		ldr	r2, .L55+28
ARM GAS  C:\usertemp\cclVsvnU.s 			page 25


 566 005a 1370     		strb	r3, [r2]
 370:generated/events_init.c **** 			 L3_flag = 0;
 567              		.loc 1 370 5 is_stmt 1 view .LVU139
 370:generated/events_init.c **** 			 L3_flag = 0;
 568              		.loc 1 370 13 is_stmt 0 view .LVU140
 569 005c 3F4A     		ldr	r2, .L55+32
 570 005e 1370     		strb	r3, [r2]
 371:generated/events_init.c **** 			 LN_flag = 0;
 571              		.loc 1 371 5 is_stmt 1 view .LVU141
 371:generated/events_init.c **** 			 LN_flag = 0;
 572              		.loc 1 371 13 is_stmt 0 view .LVU142
 573 0060 3F4A     		ldr	r2, .L55+36
 574 0062 1370     		strb	r3, [r2]
 372:generated/events_init.c ****  
 575              		.loc 1 372 5 is_stmt 1 view .LVU143
 372:generated/events_init.c ****  
 576              		.loc 1 372 13 is_stmt 0 view .LVU144
 577 0064 3F4A     		ldr	r2, .L55+40
 578 0066 1370     		strb	r3, [r2]
 374:generated/events_init.c **** 			 ser2_I->hidden = 1;
 579              		.loc 1 374 5 is_stmt 1 view .LVU145
 374:generated/events_init.c **** 			 ser2_I->hidden = 1;
 580              		.loc 1 374 11 is_stmt 0 view .LVU146
 581 0068 3F4B     		ldr	r3, .L55+44
 582 006a 1A68     		ldr	r2, [r3]
 374:generated/events_init.c **** 			 ser2_I->hidden = 1;
 583              		.loc 1 374 20 view .LVU147
 584 006c 137B     		ldrb	r3, [r2, #12]	@ zero_extendqisi2
 585 006e 43F00103 		orr	r3, r3, #1
 586 0072 1373     		strb	r3, [r2, #12]
 375:generated/events_init.c **** 			 ser3_I->hidden = 1;
 587              		.loc 1 375 5 is_stmt 1 view .LVU148
 375:generated/events_init.c **** 			 ser3_I->hidden = 1;
 588              		.loc 1 375 11 is_stmt 0 view .LVU149
 589 0074 3D4B     		ldr	r3, .L55+48
 590 0076 1A68     		ldr	r2, [r3]
 375:generated/events_init.c **** 			 ser3_I->hidden = 1;
 591              		.loc 1 375 20 view .LVU150
 592 0078 137B     		ldrb	r3, [r2, #12]	@ zero_extendqisi2
 593 007a 43F00103 		orr	r3, r3, #1
 594 007e 1373     		strb	r3, [r2, #12]
 376:generated/events_init.c **** 			 serN_I->hidden = 1;
 595              		.loc 1 376 5 is_stmt 1 view .LVU151
 376:generated/events_init.c **** 			 serN_I->hidden = 1;
 596              		.loc 1 376 11 is_stmt 0 view .LVU152
 597 0080 3B4B     		ldr	r3, .L55+52
 598 0082 1A68     		ldr	r2, [r3]
 376:generated/events_init.c **** 			 serN_I->hidden = 1;
 599              		.loc 1 376 20 view .LVU153
 600 0084 137B     		ldrb	r3, [r2, #12]	@ zero_extendqisi2
 601 0086 43F00103 		orr	r3, r3, #1
 602 008a 1373     		strb	r3, [r2, #12]
 377:generated/events_init.c **** 			 L2_I_flag = 1;
 603              		.loc 1 377 5 is_stmt 1 view .LVU154
 377:generated/events_init.c **** 			 L2_I_flag = 1;
 604              		.loc 1 377 11 is_stmt 0 view .LVU155
 605 008c 394B     		ldr	r3, .L55+56
ARM GAS  C:\usertemp\cclVsvnU.s 			page 26


 606 008e 1A68     		ldr	r2, [r3]
 377:generated/events_init.c **** 			 L2_I_flag = 1;
 607              		.loc 1 377 20 view .LVU156
 608 0090 137B     		ldrb	r3, [r2, #12]	@ zero_extendqisi2
 609 0092 43F00103 		orr	r3, r3, #1
 610 0096 1373     		strb	r3, [r2, #12]
 378:generated/events_init.c **** 			 L1_I_flag = 1;
 611              		.loc 1 378 5 is_stmt 1 view .LVU157
 378:generated/events_init.c **** 			 L1_I_flag = 1;
 612              		.loc 1 378 15 is_stmt 0 view .LVU158
 613 0098 0123     		movs	r3, #1
 614 009a 374A     		ldr	r2, .L55+60
 615 009c 1370     		strb	r3, [r2]
 379:generated/events_init.c **** 			 L3_I_flag = 1;
 616              		.loc 1 379 5 is_stmt 1 view .LVU159
 379:generated/events_init.c **** 			 L3_I_flag = 1;
 617              		.loc 1 379 15 is_stmt 0 view .LVU160
 618 009e 374A     		ldr	r2, .L55+64
 619 00a0 1370     		strb	r3, [r2]
 380:generated/events_init.c **** 			 LN_I_flag = 1;
 620              		.loc 1 380 5 is_stmt 1 view .LVU161
 380:generated/events_init.c **** 			 LN_I_flag = 1;
 621              		.loc 1 380 15 is_stmt 0 view .LVU162
 622 00a2 374A     		ldr	r2, .L55+68
 623 00a4 1370     		strb	r3, [r2]
 381:generated/events_init.c **** 		 }
 624              		.loc 1 381 5 is_stmt 1 view .LVU163
 381:generated/events_init.c **** 		 }
 625              		.loc 1 381 15 is_stmt 0 view .LVU164
 626 00a6 374A     		ldr	r2, .L55+72
 627 00a8 1370     		strb	r3, [r2]
 388:generated/events_init.c ****  static void wave_model_btn_7_event_handler(lv_event_t *e)
 628              		.loc 1 388 2 view .LVU165
 629 00aa AEE7     		b	.L49
 630              	.LVL20:
 631              	.L54:
 341:generated/events_init.c **** 			 ser2_I->hidden = 0;
 632              		.loc 1 341 5 is_stmt 1 view .LVU166
 341:generated/events_init.c **** 			 ser2_I->hidden = 0;
 633              		.loc 1 341 11 is_stmt 0 view .LVU167
 634 00ac 2E4B     		ldr	r3, .L55+44
 635 00ae 1A68     		ldr	r2, [r3]
 341:generated/events_init.c **** 			 ser2_I->hidden = 0;
 636              		.loc 1 341 20 view .LVU168
 637 00b0 137B     		ldrb	r3, [r2, #12]	@ zero_extendqisi2
 638 00b2 23F00103 		bic	r3, r3, #1
 639 00b6 1373     		strb	r3, [r2, #12]
 342:generated/events_init.c **** 			 ser3_I->hidden = 0;
 640              		.loc 1 342 5 is_stmt 1 view .LVU169
 342:generated/events_init.c **** 			 ser3_I->hidden = 0;
 641              		.loc 1 342 11 is_stmt 0 view .LVU170
 642 00b8 2C4B     		ldr	r3, .L55+48
 643 00ba 1A68     		ldr	r2, [r3]
 342:generated/events_init.c **** 			 ser3_I->hidden = 0;
 644              		.loc 1 342 20 view .LVU171
 645 00bc 137B     		ldrb	r3, [r2, #12]	@ zero_extendqisi2
 646 00be 23F00103 		bic	r3, r3, #1
ARM GAS  C:\usertemp\cclVsvnU.s 			page 27


 647 00c2 1373     		strb	r3, [r2, #12]
 343:generated/events_init.c **** 			 serN_I->hidden = 0;
 648              		.loc 1 343 5 is_stmt 1 view .LVU172
 343:generated/events_init.c **** 			 serN_I->hidden = 0;
 649              		.loc 1 343 11 is_stmt 0 view .LVU173
 650 00c4 2A4B     		ldr	r3, .L55+52
 651 00c6 1A68     		ldr	r2, [r3]
 343:generated/events_init.c **** 			 serN_I->hidden = 0;
 652              		.loc 1 343 20 view .LVU174
 653 00c8 137B     		ldrb	r3, [r2, #12]	@ zero_extendqisi2
 654 00ca 23F00103 		bic	r3, r3, #1
 655 00ce 1373     		strb	r3, [r2, #12]
 344:generated/events_init.c **** 			 L2_I_flag = 0;
 656              		.loc 1 344 5 is_stmt 1 view .LVU175
 344:generated/events_init.c **** 			 L2_I_flag = 0;
 657              		.loc 1 344 11 is_stmt 0 view .LVU176
 658 00d0 284B     		ldr	r3, .L55+56
 659 00d2 1A68     		ldr	r2, [r3]
 344:generated/events_init.c **** 			 L2_I_flag = 0;
 660              		.loc 1 344 20 view .LVU177
 661 00d4 137B     		ldrb	r3, [r2, #12]	@ zero_extendqisi2
 662 00d6 23F00103 		bic	r3, r3, #1
 663 00da 1373     		strb	r3, [r2, #12]
 345:generated/events_init.c **** 			 L1_I_flag = 0;
 664              		.loc 1 345 5 is_stmt 1 view .LVU178
 345:generated/events_init.c **** 			 L1_I_flag = 0;
 665              		.loc 1 345 15 is_stmt 0 view .LVU179
 666 00dc 0023     		movs	r3, #0
 667 00de 264A     		ldr	r2, .L55+60
 668 00e0 1370     		strb	r3, [r2]
 346:generated/events_init.c **** 			 L3_I_flag = 0;
 669              		.loc 1 346 5 is_stmt 1 view .LVU180
 346:generated/events_init.c **** 			 L3_I_flag = 0;
 670              		.loc 1 346 15 is_stmt 0 view .LVU181
 671 00e2 264A     		ldr	r2, .L55+64
 672 00e4 1370     		strb	r3, [r2]
 347:generated/events_init.c **** 			 LN_I_flag = 0;
 673              		.loc 1 347 5 is_stmt 1 view .LVU182
 347:generated/events_init.c **** 			 LN_I_flag = 0;
 674              		.loc 1 347 15 is_stmt 0 view .LVU183
 675 00e6 264A     		ldr	r2, .L55+68
 676 00e8 1370     		strb	r3, [r2]
 348:generated/events_init.c ****  
 677              		.loc 1 348 5 is_stmt 1 view .LVU184
 348:generated/events_init.c ****  
 678              		.loc 1 348 15 is_stmt 0 view .LVU185
 679 00ea 264A     		ldr	r2, .L55+72
 680 00ec 1370     		strb	r3, [r2]
 350:generated/events_init.c **** 			 ser2->hidden = 1;
 681              		.loc 1 350 5 is_stmt 1 view .LVU186
 350:generated/events_init.c **** 			 ser2->hidden = 1;
 682              		.loc 1 350 9 is_stmt 0 view .LVU187
 683 00ee 164B     		ldr	r3, .L55+12
 684 00f0 1A68     		ldr	r2, [r3]
 350:generated/events_init.c **** 			 ser2->hidden = 1;
 685              		.loc 1 350 18 view .LVU188
 686 00f2 137B     		ldrb	r3, [r2, #12]	@ zero_extendqisi2
ARM GAS  C:\usertemp\cclVsvnU.s 			page 28


 687 00f4 43F00103 		orr	r3, r3, #1
 688 00f8 1373     		strb	r3, [r2, #12]
 351:generated/events_init.c **** 			 ser3->hidden = 1;
 689              		.loc 1 351 5 is_stmt 1 view .LVU189
 351:generated/events_init.c **** 			 ser3->hidden = 1;
 690              		.loc 1 351 9 is_stmt 0 view .LVU190
 691 00fa 144B     		ldr	r3, .L55+16
 692 00fc 1A68     		ldr	r2, [r3]
 351:generated/events_init.c **** 			 ser3->hidden = 1;
 693              		.loc 1 351 18 view .LVU191
 694 00fe 137B     		ldrb	r3, [r2, #12]	@ zero_extendqisi2
 695 0100 43F00103 		orr	r3, r3, #1
 696 0104 1373     		strb	r3, [r2, #12]
 352:generated/events_init.c **** 			 serN->hidden = 1;
 697              		.loc 1 352 5 is_stmt 1 view .LVU192
 352:generated/events_init.c **** 			 serN->hidden = 1;
 698              		.loc 1 352 9 is_stmt 0 view .LVU193
 699 0106 124B     		ldr	r3, .L55+20
 700 0108 1A68     		ldr	r2, [r3]
 352:generated/events_init.c **** 			 serN->hidden = 1;
 701              		.loc 1 352 18 view .LVU194
 702 010a 137B     		ldrb	r3, [r2, #12]	@ zero_extendqisi2
 703 010c 43F00103 		orr	r3, r3, #1
 704 0110 1373     		strb	r3, [r2, #12]
 353:generated/events_init.c **** 			 L2_flag = 1;
 705              		.loc 1 353 5 is_stmt 1 view .LVU195
 353:generated/events_init.c **** 			 L2_flag = 1;
 706              		.loc 1 353 9 is_stmt 0 view .LVU196
 707 0112 104B     		ldr	r3, .L55+24
 708 0114 1A68     		ldr	r2, [r3]
 353:generated/events_init.c **** 			 L2_flag = 1;
 709              		.loc 1 353 18 view .LVU197
 710 0116 137B     		ldrb	r3, [r2, #12]	@ zero_extendqisi2
 711 0118 43F00103 		orr	r3, r3, #1
 712 011c 1373     		strb	r3, [r2, #12]
 354:generated/events_init.c **** 			 L1_flag = 1;
 713              		.loc 1 354 5 is_stmt 1 view .LVU198
 354:generated/events_init.c **** 			 L1_flag = 1;
 714              		.loc 1 354 13 is_stmt 0 view .LVU199
 715 011e 0123     		movs	r3, #1
 716 0120 0D4A     		ldr	r2, .L55+28
 717 0122 1370     		strb	r3, [r2]
 355:generated/events_init.c **** 			 L3_flag = 1;
 718              		.loc 1 355 5 is_stmt 1 view .LVU200
 355:generated/events_init.c **** 			 L3_flag = 1;
 719              		.loc 1 355 13 is_stmt 0 view .LVU201
 720 0124 0D4A     		ldr	r2, .L55+32
 721 0126 1370     		strb	r3, [r2]
 356:generated/events_init.c **** 			 LN_flag = 1;
 722              		.loc 1 356 5 is_stmt 1 view .LVU202
 356:generated/events_init.c **** 			 LN_flag = 1;
 723              		.loc 1 356 13 is_stmt 0 view .LVU203
 724 0128 0D4A     		ldr	r2, .L55+36
 725 012a 1370     		strb	r3, [r2]
 357:generated/events_init.c ****  
 726              		.loc 1 357 5 is_stmt 1 view .LVU204
 357:generated/events_init.c ****  
ARM GAS  C:\usertemp\cclVsvnU.s 			page 29


 727              		.loc 1 357 13 is_stmt 0 view .LVU205
 728 012c 0D4A     		ldr	r2, .L55+40
 729 012e 1370     		strb	r3, [r2]
 359:generated/events_init.c **** 		 }
 730              		.loc 1 359 5 is_stmt 1 view .LVU206
 731 0130 1549     		ldr	r1, .L55+76
 732 0132 044B     		ldr	r3, .L55+8
 733 0134 D869     		ldr	r0, [r3, #28]
 734              	.LVL21:
 359:generated/events_init.c **** 		 }
 735              		.loc 1 359 5 is_stmt 0 view .LVU207
 736 0136 FFF7FEFF 		bl	lv_label_set_text
 737              	.LVL22:
 738 013a 66E7     		b	.L49
 739              	.L56:
 740              		.align	2
 741              	.L55:
 742 013c 00000000 		.word	V_I_flag
 743 0140 04000000 		.word	.LC1
 744 0144 00000000 		.word	guider_ui
 745 0148 00000000 		.word	ser1
 746 014c 00000000 		.word	ser2
 747 0150 00000000 		.word	ser3
 748 0154 00000000 		.word	serN
 749 0158 00000000 		.word	L2_flag
 750 015c 00000000 		.word	L1_flag
 751 0160 00000000 		.word	L3_flag
 752 0164 00000000 		.word	LN_flag
 753 0168 00000000 		.word	ser1_I
 754 016c 00000000 		.word	ser2_I
 755 0170 00000000 		.word	ser3_I
 756 0174 00000000 		.word	serN_I
 757 0178 00000000 		.word	L2_I_flag
 758 017c 00000000 		.word	L1_I_flag
 759 0180 00000000 		.word	L3_I_flag
 760 0184 00000000 		.word	LN_I_flag
 761 0188 00000000 		.word	.LC0
 762              		.cfi_endproc
 763              	.LFE577:
 765              		.section	.text.wave_model_btn_1_event_handler,"ax",%progbits
 766              		.align	1
 767              		.syntax unified
 768              		.thumb
 769              		.thumb_func
 771              	wave_model_btn_1_event_handler:
 772              	.LVL23:
 773              	.LFB580:
 429:generated/events_init.c **** 	 lv_event_code_t code = lv_event_get_code(e);
 774              		.loc 1 429 2 is_stmt 1 view -0
 775              		.cfi_startproc
 776              		@ args = 0, pretend = 0, frame = 0
 777              		@ frame_needed = 0, uses_anonymous_args = 0
 429:generated/events_init.c **** 	 lv_event_code_t code = lv_event_get_code(e);
 778              		.loc 1 429 2 is_stmt 0 view .LVU209
 779 0000 08B5     		push	{r3, lr}
 780              	.LCFI8:
 781              		.cfi_def_cfa_offset 8
ARM GAS  C:\usertemp\cclVsvnU.s 			page 30


 782              		.cfi_offset 3, -8
 783              		.cfi_offset 14, -4
 430:generated/events_init.c ****  
 784              		.loc 1 430 3 is_stmt 1 view .LVU210
 430:generated/events_init.c ****  
 785              		.loc 1 430 26 is_stmt 0 view .LVU211
 786 0002 FFF7FEFF 		bl	lv_event_get_code
 787              	.LVL24:
 432:generated/events_init.c **** 	 {
 788              		.loc 1 432 3 is_stmt 1 view .LVU212
 789 0006 0728     		cmp	r0, #7
 790 0008 00D0     		beq	.L61
 791              	.L57:
 453:generated/events_init.c ****  static void wave_model_btn_3_event_handler(lv_event_t *e) // L2
 792              		.loc 1 453 2 is_stmt 0 view .LVU213
 793 000a 08BD     		pop	{r3, pc}
 794              	.L61:
 436:generated/events_init.c **** 		 {
 795              		.loc 1 436 4 is_stmt 1 view .LVU214
 436:generated/events_init.c **** 		 {
 796              		.loc 1 436 17 is_stmt 0 view .LVU215
 797 000c 0F4B     		ldr	r3, .L63
 798 000e 1B78     		ldrb	r3, [r3]	@ zero_extendqisi2
 436:generated/events_init.c **** 		 {
 799              		.loc 1 436 7 view .LVU216
 800 0010 012B     		cmp	r3, #1
 801 0012 0ED0     		beq	.L62
 442:generated/events_init.c **** 		 {
 802              		.loc 1 442 9 is_stmt 1 view .LVU217
 442:generated/events_init.c **** 		 {
 803              		.loc 1 442 12 is_stmt 0 view .LVU218
 804 0014 002B     		cmp	r3, #0
 805 0016 F8D1     		bne	.L57
 444:generated/events_init.c **** 			 ser1->hidden = L1_flag;
 806              		.loc 1 444 5 is_stmt 1 view .LVU219
 444:generated/events_init.c **** 			 ser1->hidden = L1_flag;
 807              		.loc 1 444 15 is_stmt 0 view .LVU220
 808 0018 0D4A     		ldr	r2, .L63+4
 809 001a 1378     		ldrb	r3, [r2]	@ zero_extendqisi2
 810 001c B3FA83F3 		clz	r3, r3
 811 0020 5B09     		lsrs	r3, r3, #5
 444:generated/events_init.c **** 			 ser1->hidden = L1_flag;
 812              		.loc 1 444 13 view .LVU221
 813 0022 1370     		strb	r3, [r2]
 445:generated/events_init.c **** 		 }
 814              		.loc 1 445 5 is_stmt 1 view .LVU222
 445:generated/events_init.c **** 		 }
 815              		.loc 1 445 9 is_stmt 0 view .LVU223
 816 0024 0B4A     		ldr	r2, .L63+8
 817 0026 1268     		ldr	r2, [r2]
 445:generated/events_init.c **** 		 }
 818              		.loc 1 445 18 view .LVU224
 819 0028 117B     		ldrb	r1, [r2, #12]	@ zero_extendqisi2
 820 002a 63F30001 		bfi	r1, r3, #0, #1
 821 002e 1173     		strb	r1, [r2, #12]
 453:generated/events_init.c ****  static void wave_model_btn_3_event_handler(lv_event_t *e) // L2
 822              		.loc 1 453 2 view .LVU225
ARM GAS  C:\usertemp\cclVsvnU.s 			page 31


 823 0030 EBE7     		b	.L57
 824              	.L62:
 438:generated/events_init.c **** 			 ser1_I->hidden = L1_I_flag;
 825              		.loc 1 438 5 is_stmt 1 view .LVU226
 438:generated/events_init.c **** 			 ser1_I->hidden = L1_I_flag;
 826              		.loc 1 438 17 is_stmt 0 view .LVU227
 827 0032 094A     		ldr	r2, .L63+12
 828 0034 1378     		ldrb	r3, [r2]	@ zero_extendqisi2
 829 0036 B3FA83F3 		clz	r3, r3
 830 003a 5B09     		lsrs	r3, r3, #5
 438:generated/events_init.c **** 			 ser1_I->hidden = L1_I_flag;
 831              		.loc 1 438 15 view .LVU228
 832 003c 1370     		strb	r3, [r2]
 439:generated/events_init.c **** 		 }
 833              		.loc 1 439 5 is_stmt 1 view .LVU229
 439:generated/events_init.c **** 		 }
 834              		.loc 1 439 11 is_stmt 0 view .LVU230
 835 003e 074A     		ldr	r2, .L63+16
 836 0040 1268     		ldr	r2, [r2]
 439:generated/events_init.c **** 		 }
 837              		.loc 1 439 20 view .LVU231
 838 0042 117B     		ldrb	r1, [r2, #12]	@ zero_extendqisi2
 839 0044 63F30001 		bfi	r1, r3, #0, #1
 840 0048 1173     		strb	r1, [r2, #12]
 841 004a DEE7     		b	.L57
 842              	.L64:
 843              		.align	2
 844              	.L63:
 845 004c 00000000 		.word	V_I_flag
 846 0050 00000000 		.word	L1_flag
 847 0054 00000000 		.word	ser1
 848 0058 00000000 		.word	L1_I_flag
 849 005c 00000000 		.word	ser1_I
 850              		.cfi_endproc
 851              	.LFE580:
 853              		.section	.rodata.wave_model_btn_14_event_handler.str1.4,"aMS",%progbits,1
 854              		.align	2
 855              	.LC2:
 856 0000 67656E65 		.ascii	"generated/events_init.c\000"
 856      72617465 
 856      642F6576 
 856      656E7473 
 856      5F696E69 
 857              		.align	2
 858              	.LC3:
 859 0018 66696C65 		.ascii	"file_now >sd_count, set to 0\015\012\000"
 859      5F6E6F77 
 859      203E7364 
 859      5F636F75 
 859      6E742C20 
 860 0037 00       		.align	2
 861              	.LC4:
 862 0038 73657420 		.ascii	"set filenow to %d\000"
 862      66696C65 
 862      6E6F7720 
 862      746F2025 
 862      6400
ARM GAS  C:\usertemp\cclVsvnU.s 			page 32


 863 004a 0000     		.align	2
 864              	.LC5:
 865 004c 303A7465 		.ascii	"0:test\000"
 865      737400
 866              		.section	.text.wave_model_btn_14_event_handler,"ax",%progbits
 867              		.align	1
 868              		.syntax unified
 869              		.thumb
 870              		.thumb_func
 872              	wave_model_btn_14_event_handler:
 873              	.LVL25:
 874              	.LFB590:
 687:generated/events_init.c ****  static void wave_model_btn_14_event_handler(lv_event_t *e) // Y-
 688:generated/events_init.c ****  {
 875              		.loc 1 688 2 is_stmt 1 view -0
 876              		.cfi_startproc
 877              		@ args = 0, pretend = 0, frame = 0
 878              		@ frame_needed = 0, uses_anonymous_args = 0
 879              		.loc 1 688 2 is_stmt 0 view .LVU233
 880 0000 10B5     		push	{r4, lr}
 881              	.LCFI9:
 882              		.cfi_def_cfa_offset 8
 883              		.cfi_offset 4, -8
 884              		.cfi_offset 14, -4
 885 0002 82B0     		sub	sp, sp, #8
 886              	.LCFI10:
 887              		.cfi_def_cfa_offset 16
 689:generated/events_init.c **** 	 lv_event_code_t code = lv_event_get_code(e);
 888              		.loc 1 689 3 is_stmt 1 view .LVU234
 889              		.loc 1 689 26 is_stmt 0 view .LVU235
 890 0004 FFF7FEFF 		bl	lv_event_get_code
 891              	.LVL26:
 690:generated/events_init.c ****  
 691:generated/events_init.c **** 	 switch (code)
 892              		.loc 1 691 3 is_stmt 1 view .LVU236
 893 0008 0728     		cmp	r0, #7
 894 000a 01D0     		beq	.L71
 895              	.LVL27:
 896              	.L65:
 692:generated/events_init.c **** 	 {
 693:generated/events_init.c **** 	 case LV_EVENT_CLICKED:
 694:generated/events_init.c **** 	 {
 695:generated/events_init.c **** 		 // taskENTER_CRITICAL();
 696:generated/events_init.c **** 		 if (page == 0) // 波形显示模式
 697:generated/events_init.c **** 		 {
 698:generated/events_init.c **** 			 rat -= 10;
 699:generated/events_init.c **** 		 }
 700:generated/events_init.c **** 		 else if (page == 1) // 图片模式
 701:generated/events_init.c **** 		 {
 702:generated/events_init.c **** 			 vTaskSuspendAll();
 703:generated/events_init.c **** 			 taskENTER_CRITICAL();
 704:generated/events_init.c **** 			 file_now++;
 705:generated/events_init.c **** 			 if (file_now > sd_count)
 706:generated/events_init.c **** 			 {
 707:generated/events_init.c **** 				 LV_LOG_USER("file_now >sd_count, set to 0\r\n");
 708:generated/events_init.c **** 				 file_now = 0;
 709:generated/events_init.c **** 			 }
ARM GAS  C:\usertemp\cclVsvnU.s 			page 33


 710:generated/events_init.c **** 			 LV_LOG_USER("set filenow to %d", file_now);
 711:generated/events_init.c **** 			 uint8_t temp = OpenFileByIndex("0:test", file_now);
 712:generated/events_init.c **** 			 if (temp)
 713:generated/events_init.c **** 			 {
 714:generated/events_init.c **** 				 refersh_lvgl_image(guider_ui.wave_model_img_1);
 715:generated/events_init.c **** 			 }
 716:generated/events_init.c **** 			 taskEXIT_CRITICAL();
 717:generated/events_init.c **** 			 xTaskResumeAll();
 718:generated/events_init.c **** 		 }
 719:generated/events_init.c ****  
 720:generated/events_init.c **** 		 // taskENTER_CRITICAL();
 721:generated/events_init.c **** 		 break;
 722:generated/events_init.c **** 	 }
 723:generated/events_init.c **** 	 default:
 724:generated/events_init.c **** 		 break;
 725:generated/events_init.c **** 	 }
 726:generated/events_init.c ****  }
 897              		.loc 1 726 2 is_stmt 0 view .LVU237
 898 000c 02B0     		add	sp, sp, #8
 899              	.LCFI11:
 900              		.cfi_remember_state
 901              		.cfi_def_cfa_offset 8
 902              		@ sp needed
 903 000e 10BD     		pop	{r4, pc}
 904              	.LVL28:
 905              	.L71:
 906              	.LCFI12:
 907              		.cfi_restore_state
 696:generated/events_init.c **** 		 {
 908              		.loc 1 696 4 is_stmt 1 view .LVU238
 696:generated/events_init.c **** 		 {
 909              		.loc 1 696 13 is_stmt 0 view .LVU239
 910 0010 234B     		ldr	r3, .L74
 911 0012 93F90030 		ldrsb	r3, [r3]
 696:generated/events_init.c **** 		 {
 912              		.loc 1 696 7 view .LVU240
 913 0016 4BB9     		cbnz	r3, .L67
 698:generated/events_init.c **** 		 }
 914              		.loc 1 698 5 is_stmt 1 view .LVU241
 698:generated/events_init.c **** 		 }
 915              		.loc 1 698 9 is_stmt 0 view .LVU242
 916 0018 224B     		ldr	r3, .L74+4
 917 001a D3ED007A 		vldr.32	s15, [r3]
 918 001e B2EE047A 		vmov.f32	s14, #1.0e+1
 919 0022 77EEC77A 		vsub.f32	s15, s15, s14
 920 0026 C3ED007A 		vstr.32	s15, [r3]
 921 002a EFE7     		b	.L65
 922              	.L67:
 700:generated/events_init.c **** 		 {
 923              		.loc 1 700 9 is_stmt 1 view .LVU243
 700:generated/events_init.c **** 		 {
 924              		.loc 1 700 12 is_stmt 0 view .LVU244
 925 002c 012B     		cmp	r3, #1
 926 002e EDD1     		bne	.L65
 927              	.LBB2:
 702:generated/events_init.c **** 			 taskENTER_CRITICAL();
 928              		.loc 1 702 5 is_stmt 1 view .LVU245
ARM GAS  C:\usertemp\cclVsvnU.s 			page 34


 929 0030 FFF7FEFF 		bl	vTaskSuspendAll
 930              	.LVL29:
 703:generated/events_init.c **** 			 file_now++;
 931              		.loc 1 703 5 view .LVU246
 932 0034 FFF7FEFF 		bl	vPortEnterCritical
 933              	.LVL30:
 704:generated/events_init.c **** 			 if (file_now > sd_count)
 934              		.loc 1 704 5 view .LVU247
 704:generated/events_init.c **** 			 if (file_now > sd_count)
 935              		.loc 1 704 13 is_stmt 0 view .LVU248
 936 0038 1B4A     		ldr	r2, .L74+8
 937 003a 1388     		ldrh	r3, [r2]
 938 003c 0133     		adds	r3, r3, #1
 939 003e 1BB2     		sxth	r3, r3
 940 0040 1380     		strh	r3, [r2]	@ movhi
 705:generated/events_init.c **** 			 {
 941              		.loc 1 705 5 is_stmt 1 view .LVU249
 705:generated/events_init.c **** 			 {
 942              		.loc 1 705 18 is_stmt 0 view .LVU250
 943 0042 1A4A     		ldr	r2, .L74+12
 944 0044 B2F90020 		ldrsh	r2, [r2]
 705:generated/events_init.c **** 			 {
 945              		.loc 1 705 8 view .LVU251
 946 0048 9342     		cmp	r3, r2
 947 004a 16DC     		bgt	.L72
 948              	.L68:
 710:generated/events_init.c **** 			 uint8_t temp = OpenFileByIndex("0:test", file_now);
 949              		.loc 1 710 5 is_stmt 1 view .LVU252
 950 004c 164C     		ldr	r4, .L74+8
 951 004e B4F90030 		ldrsh	r3, [r4]
 952 0052 0193     		str	r3, [sp, #4]
 953 0054 164B     		ldr	r3, .L74+16
 954 0056 0093     		str	r3, [sp]
 955 0058 164B     		ldr	r3, .L74+20
 956 005a 40F2C622 		movw	r2, #710
 957 005e 1649     		ldr	r1, .L74+24
 958 0060 0420     		movs	r0, #4
 959 0062 FFF7FEFF 		bl	_lv_log_add
 960              	.LVL31:
 711:generated/events_init.c **** 			 if (temp)
 961              		.loc 1 711 5 view .LVU253
 711:generated/events_init.c **** 			 if (temp)
 962              		.loc 1 711 20 is_stmt 0 view .LVU254
 963 0066 2188     		ldrh	r1, [r4]
 964 0068 1448     		ldr	r0, .L74+28
 965 006a FFF7FEFF 		bl	OpenFileByIndex
 966              	.LVL32:
 712:generated/events_init.c **** 			 {
 967              		.loc 1 712 5 is_stmt 1 view .LVU255
 712:generated/events_init.c **** 			 {
 968              		.loc 1 712 8 is_stmt 0 view .LVU256
 969 006e 88B9     		cbnz	r0, .L73
 970              	.LVL33:
 971              	.L69:
 716:generated/events_init.c **** 			 xTaskResumeAll();
 972              		.loc 1 716 5 is_stmt 1 view .LVU257
 973 0070 FFF7FEFF 		bl	vPortExitCritical
ARM GAS  C:\usertemp\cclVsvnU.s 			page 35


 974              	.LVL34:
 717:generated/events_init.c **** 		 }
 975              		.loc 1 717 5 view .LVU258
 976 0074 FFF7FEFF 		bl	xTaskResumeAll
 977              	.LVL35:
 978              	.LBE2:
 979              		.loc 1 726 2 is_stmt 0 view .LVU259
 980 0078 C8E7     		b	.L65
 981              	.LVL36:
 982              	.L72:
 983              	.LBB3:
 707:generated/events_init.c **** 				 file_now = 0;
 984              		.loc 1 707 6 is_stmt 1 view .LVU260
 985 007a 114B     		ldr	r3, .L74+32
 986 007c 0093     		str	r3, [sp]
 987 007e 0D4B     		ldr	r3, .L74+20
 988 0080 40F2C322 		movw	r2, #707
 989 0084 0C49     		ldr	r1, .L74+24
 990 0086 0420     		movs	r0, #4
 991 0088 FFF7FEFF 		bl	_lv_log_add
 992              	.LVL37:
 708:generated/events_init.c **** 			 }
 993              		.loc 1 708 6 view .LVU261
 708:generated/events_init.c **** 			 }
 994              		.loc 1 708 15 is_stmt 0 view .LVU262
 995 008c 064B     		ldr	r3, .L74+8
 996 008e 0022     		movs	r2, #0
 997 0090 1A80     		strh	r2, [r3]	@ movhi
 998 0092 DBE7     		b	.L68
 999              	.LVL38:
 1000              	.L73:
 714:generated/events_init.c **** 			 }
 1001              		.loc 1 714 6 is_stmt 1 view .LVU263
 1002 0094 0B4B     		ldr	r3, .L74+36
 1003 0096 D3F8AC00 		ldr	r0, [r3, #172]
 1004              	.LVL39:
 714:generated/events_init.c **** 			 }
 1005              		.loc 1 714 6 is_stmt 0 view .LVU264
 1006 009a FFF7FEFF 		bl	refersh_lvgl_image
 1007              	.LVL40:
 1008 009e E7E7     		b	.L69
 1009              	.L75:
 1010              		.align	2
 1011              	.L74:
 1012 00a0 00000000 		.word	page
 1013 00a4 00000000 		.word	rat
 1014 00a8 00000000 		.word	file_now
 1015 00ac 00000000 		.word	sd_count
 1016 00b0 38000000 		.word	.LC4
 1017 00b4 00000000 		.word	__func__.3
 1018 00b8 00000000 		.word	.LC2
 1019 00bc 4C000000 		.word	.LC5
 1020 00c0 18000000 		.word	.LC3
 1021 00c4 00000000 		.word	guider_ui
 1022              	.LBE3:
 1023              		.cfi_endproc
 1024              	.LFE590:
ARM GAS  C:\usertemp\cclVsvnU.s 			page 36


 1026              		.section	.rodata.wave_model_btn_9_event_handler.str1.4,"aMS",%progbits,1
 1027              		.align	2
 1028              	.LC6:
 1029 0000 66696C65 		.ascii	"file_now < 0, set to sd_count\015\012\000"
 1029      5F6E6F77 
 1029      203C2030 
 1029      2C207365 
 1029      7420746F 
 1030              		.section	.text.wave_model_btn_9_event_handler,"ax",%progbits
 1031              		.align	1
 1032              		.syntax unified
 1033              		.thumb
 1034              		.thumb_func
 1036              	wave_model_btn_9_event_handler:
 1037              	.LVL41:
 1038              	.LFB585:
 578:generated/events_init.c **** 	 lv_event_code_t code = lv_event_get_code(e);
 1039              		.loc 1 578 2 is_stmt 1 view -0
 1040              		.cfi_startproc
 1041              		@ args = 0, pretend = 0, frame = 0
 1042              		@ frame_needed = 0, uses_anonymous_args = 0
 578:generated/events_init.c **** 	 lv_event_code_t code = lv_event_get_code(e);
 1043              		.loc 1 578 2 is_stmt 0 view .LVU266
 1044 0000 10B5     		push	{r4, lr}
 1045              	.LCFI13:
 1046              		.cfi_def_cfa_offset 8
 1047              		.cfi_offset 4, -8
 1048              		.cfi_offset 14, -4
 1049 0002 82B0     		sub	sp, sp, #8
 1050              	.LCFI14:
 1051              		.cfi_def_cfa_offset 16
 579:generated/events_init.c ****  
 1052              		.loc 1 579 3 is_stmt 1 view .LVU267
 579:generated/events_init.c ****  
 1053              		.loc 1 579 26 is_stmt 0 view .LVU268
 1054 0004 FFF7FEFF 		bl	lv_event_get_code
 1055              	.LVL42:
 581:generated/events_init.c **** 	 {
 1056              		.loc 1 581 3 is_stmt 1 view .LVU269
 1057 0008 0728     		cmp	r0, #7
 1058 000a 01D0     		beq	.L82
 1059              	.LVL43:
 1060              	.L76:
 622:generated/events_init.c ****  static void wave_model_btn_10_event_handler(lv_event_t *e) // X-
 1061              		.loc 1 622 2 is_stmt 0 view .LVU270
 1062 000c 02B0     		add	sp, sp, #8
 1063              	.LCFI15:
 1064              		.cfi_remember_state
 1065              		.cfi_def_cfa_offset 8
 1066              		@ sp needed
 1067 000e 10BD     		pop	{r4, pc}
 1068              	.LVL44:
 1069              	.L82:
 1070              	.LCFI16:
 1071              		.cfi_restore_state
 585:generated/events_init.c **** 		taskENTER_CRITICAL();
 1072              		.loc 1 585 3 is_stmt 1 view .LVU271
ARM GAS  C:\usertemp\cclVsvnU.s 			page 37


 1073 0010 FFF7FEFF 		bl	vTaskSuspendAll
 1074              	.LVL45:
 586:generated/events_init.c **** 		 if (page == 0)
 1075              		.loc 1 586 3 view .LVU272
 1076 0014 FFF7FEFF 		bl	vPortEnterCritical
 1077              	.LVL46:
 587:generated/events_init.c **** 		 {
 1078              		.loc 1 587 4 view .LVU273
 587:generated/events_init.c **** 		 {
 1079              		.loc 1 587 13 is_stmt 0 view .LVU274
 1080 0018 264B     		ldr	r3, .L85
 1081 001a 93F90030 		ldrsb	r3, [r3]
 587:generated/events_init.c **** 		 {
 1082              		.loc 1 587 7 view .LVU275
 1083 001e 83B9     		cbnz	r3, .L78
 589:generated/events_init.c **** 			 if (step == 0)
 1084              		.loc 1 589 5 is_stmt 1 view .LVU276
 589:generated/events_init.c **** 			 if (step == 0)
 1085              		.loc 1 589 9 is_stmt 0 view .LVU277
 1086 0020 254B     		ldr	r3, .L85+4
 1087 0022 D3ED007A 		vldr.32	s15, [r3]
 1088 0026 B7EE007A 		vmov.f32	s14, #1.0e+0
 1089 002a 77EEC77A 		vsub.f32	s15, s15, s14
 1090 002e C3ED007A 		vstr.32	s15, [r3]
 590:generated/events_init.c **** 			 {
 1091              		.loc 1 590 5 is_stmt 1 view .LVU278
 590:generated/events_init.c **** 			 {
 1092              		.loc 1 590 8 is_stmt 0 view .LVU279
 1093 0032 F5EE407A 		vcmp.f32	s15, #0
 1094 0036 F1EE10FA 		vmrs	APSR_nzcv, FPSCR
 1095 003a 04D1     		bne	.L79
 592:generated/events_init.c **** 			 }
 1096              		.loc 1 592 6 is_stmt 1 view .LVU280
 592:generated/events_init.c **** 			 }
 1097              		.loc 1 592 11 is_stmt 0 view .LVU281
 1098 003c 83ED007A 		vstr.32	s14, [r3]
 1099 0040 01E0     		b	.L79
 1100              	.L78:
 595:generated/events_init.c **** 		 {
 1101              		.loc 1 595 9 is_stmt 1 view .LVU282
 595:generated/events_init.c **** 		 {
 1102              		.loc 1 595 12 is_stmt 0 view .LVU283
 1103 0042 012B     		cmp	r3, #1
 1104 0044 04D0     		beq	.L83
 1105              	.L79:
 613:generated/events_init.c **** 		 xTaskResumeAll();
 1106              		.loc 1 613 4 is_stmt 1 view .LVU284
 1107 0046 FFF7FEFF 		bl	vPortExitCritical
 1108              	.LVL47:
 614:generated/events_init.c ****  
 1109              		.loc 1 614 4 view .LVU285
 1110 004a FFF7FEFF 		bl	xTaskResumeAll
 1111              	.LVL48:
 617:generated/events_init.c **** 	 }
 1112              		.loc 1 617 4 view .LVU286
 622:generated/events_init.c ****  static void wave_model_btn_10_event_handler(lv_event_t *e) // X-
 1113              		.loc 1 622 2 is_stmt 0 view .LVU287
ARM GAS  C:\usertemp\cclVsvnU.s 			page 38


 1114 004e DDE7     		b	.L76
 1115              	.L83:
 1116              	.LBB4:
 597:generated/events_init.c **** 			 taskENTER_CRITICAL();
 1117              		.loc 1 597 5 is_stmt 1 view .LVU288
 1118 0050 FFF7FEFF 		bl	vTaskSuspendAll
 1119              	.LVL49:
 598:generated/events_init.c **** 			 file_now--;
 1120              		.loc 1 598 5 view .LVU289
 1121 0054 FFF7FEFF 		bl	vPortEnterCritical
 1122              	.LVL50:
 599:generated/events_init.c **** 			 if (file_now < 0)
 1123              		.loc 1 599 5 view .LVU290
 599:generated/events_init.c **** 			 if (file_now < 0)
 1124              		.loc 1 599 13 is_stmt 0 view .LVU291
 1125 0058 184A     		ldr	r2, .L85+8
 1126 005a 1388     		ldrh	r3, [r2]
 1127 005c 013B     		subs	r3, r3, #1
 1128 005e 1BB2     		sxth	r3, r3
 1129 0060 1380     		strh	r3, [r2]	@ movhi
 600:generated/events_init.c **** 			 {
 1130              		.loc 1 600 5 is_stmt 1 view .LVU292
 600:generated/events_init.c **** 			 {
 1131              		.loc 1 600 8 is_stmt 0 view .LVU293
 1132 0062 002B     		cmp	r3, #0
 1133 0064 18DB     		blt	.L84
 1134              	.L80:
 605:generated/events_init.c **** 			 uint8_t temp = OpenFileByIndex("0:test", file_now);
 1135              		.loc 1 605 5 is_stmt 1 view .LVU294
 1136 0066 154C     		ldr	r4, .L85+8
 1137 0068 B4F90030 		ldrsh	r3, [r4]
 1138 006c 0193     		str	r3, [sp, #4]
 1139 006e 144B     		ldr	r3, .L85+12
 1140 0070 0093     		str	r3, [sp]
 1141 0072 144B     		ldr	r3, .L85+16
 1142 0074 40F25D22 		movw	r2, #605
 1143 0078 1349     		ldr	r1, .L85+20
 1144 007a 0420     		movs	r0, #4
 1145 007c FFF7FEFF 		bl	_lv_log_add
 1146              	.LVL51:
 606:generated/events_init.c **** 			 if (temp)
 1147              		.loc 1 606 5 view .LVU295
 606:generated/events_init.c **** 			 if (temp)
 1148              		.loc 1 606 20 is_stmt 0 view .LVU296
 1149 0080 2188     		ldrh	r1, [r4]
 1150 0082 1248     		ldr	r0, .L85+24
 1151 0084 FFF7FEFF 		bl	OpenFileByIndex
 1152              	.LVL52:
 607:generated/events_init.c **** 			 {
 1153              		.loc 1 607 5 is_stmt 1 view .LVU297
 607:generated/events_init.c **** 			 {
 1154              		.loc 1 607 8 is_stmt 0 view .LVU298
 1155 0088 0028     		cmp	r0, #0
 1156 008a DCD0     		beq	.L79
 609:generated/events_init.c **** 			 }
 1157              		.loc 1 609 6 is_stmt 1 view .LVU299
 1158 008c 104B     		ldr	r3, .L85+28
ARM GAS  C:\usertemp\cclVsvnU.s 			page 39


 1159 008e D3F8AC00 		ldr	r0, [r3, #172]
 1160              	.LVL53:
 609:generated/events_init.c **** 			 }
 1161              		.loc 1 609 6 is_stmt 0 view .LVU300
 1162 0092 FFF7FEFF 		bl	refersh_lvgl_image
 1163              	.LVL54:
 1164 0096 D6E7     		b	.L79
 1165              	.LVL55:
 1166              	.L84:
 602:generated/events_init.c **** 				 file_now = sd_count;
 1167              		.loc 1 602 6 is_stmt 1 view .LVU301
 1168 0098 0E4B     		ldr	r3, .L85+32
 1169 009a 0093     		str	r3, [sp]
 1170 009c 094B     		ldr	r3, .L85+16
 1171 009e 40F25A22 		movw	r2, #602
 1172 00a2 0949     		ldr	r1, .L85+20
 1173 00a4 0420     		movs	r0, #4
 1174 00a6 FFF7FEFF 		bl	_lv_log_add
 1175              	.LVL56:
 603:generated/events_init.c **** 			 }
 1176              		.loc 1 603 6 view .LVU302
 603:generated/events_init.c **** 			 }
 1177              		.loc 1 603 15 is_stmt 0 view .LVU303
 1178 00aa 0B4B     		ldr	r3, .L85+36
 1179 00ac 1A88     		ldrh	r2, [r3]
 1180 00ae 034B     		ldr	r3, .L85+8
 1181 00b0 1A80     		strh	r2, [r3]	@ movhi
 1182 00b2 D8E7     		b	.L80
 1183              	.L86:
 1184              		.align	2
 1185              	.L85:
 1186 00b4 00000000 		.word	page
 1187 00b8 00000000 		.word	step
 1188 00bc 00000000 		.word	file_now
 1189 00c0 38000000 		.word	.LC4
 1190 00c4 00000000 		.word	__func__.2
 1191 00c8 00000000 		.word	.LC2
 1192 00cc 4C000000 		.word	.LC5
 1193 00d0 00000000 		.word	guider_ui
 1194 00d4 00000000 		.word	.LC6
 1195 00d8 00000000 		.word	sd_count
 1196              	.LBE4:
 1197              		.cfi_endproc
 1198              	.LFE585:
 1200              		.section	.text.wave_model_event_handler,"ax",%progbits
 1201              		.align	1
 1202              		.syntax unified
 1203              		.thumb
 1204              		.thumb_func
 1206              	wave_model_event_handler:
 1207              	.LVL57:
 1208              	.LFB576:
 308:generated/events_init.c **** 	 lv_event_code_t code = lv_event_get_code(e);
 1209              		.loc 1 308 2 is_stmt 1 view -0
 1210              		.cfi_startproc
 1211              		@ args = 0, pretend = 0, frame = 0
 1212              		@ frame_needed = 0, uses_anonymous_args = 0
ARM GAS  C:\usertemp\cclVsvnU.s 			page 40


 308:generated/events_init.c **** 	 lv_event_code_t code = lv_event_get_code(e);
 1213              		.loc 1 308 2 is_stmt 0 view .LVU305
 1214 0000 08B5     		push	{r3, lr}
 1215              	.LCFI17:
 1216              		.cfi_def_cfa_offset 8
 1217              		.cfi_offset 3, -8
 1218              		.cfi_offset 14, -4
 309:generated/events_init.c ****  
 1219              		.loc 1 309 3 is_stmt 1 view .LVU306
 309:generated/events_init.c ****  
 1220              		.loc 1 309 26 is_stmt 0 view .LVU307
 1221 0002 FFF7FEFF 		bl	lv_event_get_code
 1222              	.LVL58:
 311:generated/events_init.c **** 	 {
 1223              		.loc 1 311 3 is_stmt 1 view .LVU308
 1224 0006 0C28     		cmp	r0, #12
 1225 0008 00D0     		beq	.L90
 1226              	.LVL59:
 1227              	.L87:
 329:generated/events_init.c ****  static void wave_model_btn_2_event_handler(lv_event_t *e) // 电压电流波形切换
 1228              		.loc 1 329 2 is_stmt 0 view .LVU309
 1229 000a 08BD     		pop	{r3, pc}
 1230              	.LVL60:
 1231              	.L90:
 1232              	.LBB5:
 315:generated/events_init.c **** 		 switch (dir)
 1233              		.loc 1 315 4 is_stmt 1 view .LVU310
 315:generated/events_init.c **** 		 switch (dir)
 1234              		.loc 1 315 44 is_stmt 0 view .LVU311
 1235 000c FFF7FEFF 		bl	lv_indev_get_act
 1236              	.LVL61:
 315:generated/events_init.c **** 		 switch (dir)
 1237              		.loc 1 315 19 discriminator 1 view .LVU312
 1238 0010 FFF7FEFF 		bl	lv_indev_get_gesture_dir
 1239              	.LVL62:
 316:generated/events_init.c **** 		 {
 1240              		.loc 1 316 4 is_stmt 1 view .LVU313
 1241 0014 0128     		cmp	r0, #1
 1242 0016 F8D1     		bne	.L87
 320:generated/events_init.c **** 			 break;
 1243              		.loc 1 320 5 view .LVU314
 1244 0018 FFF7FEFF 		bl	lv_indev_get_act
 1245              	.LVL63:
 320:generated/events_init.c **** 			 break;
 1246              		.loc 1 320 5 is_stmt 0 discriminator 1 view .LVU315
 1247 001c FFF7FEFF 		bl	lv_indev_wait_release
 1248              	.LVL64:
 321:generated/events_init.c **** 		 }
 1249              		.loc 1 321 5 is_stmt 1 view .LVU316
 1250              	.LBE5:
 329:generated/events_init.c ****  static void wave_model_btn_2_event_handler(lv_event_t *e) // 电压电流波形切换
 1251              		.loc 1 329 2 is_stmt 0 view .LVU317
 1252 0020 F3E7     		b	.L87
 1253              		.cfi_endproc
 1254              	.LFE576:
 1256              		.section	.text.switch_btn,"ax",%progbits
 1257              		.align	1
ARM GAS  C:\usertemp\cclVsvnU.s 			page 41


 1258              		.global	switch_btn
 1259              		.syntax unified
 1260              		.thumb
 1261              		.thumb_func
 1263              	switch_btn:
 1264              	.LVL65:
 1265              	.LFB592:
 727:generated/events_init.c ****  
 728:generated/events_init.c ****  void events_init_wave_model(lv_ui *ui)
 729:generated/events_init.c ****  {
 730:generated/events_init.c **** 	 lv_obj_add_event_cb(ui->wave_model, wave_model_event_handler, LV_EVENT_ALL, NULL);
 731:generated/events_init.c **** 	 lv_obj_add_event_cb(ui->wave_model_btn_1, wave_model_btn_1_event_handler, LV_EVENT_ALL, NULL);
 732:generated/events_init.c **** 	 lv_obj_add_event_cb(ui->wave_model_btn_2, wave_model_btn_2_event_handler, LV_EVENT_ALL, NULL);
 733:generated/events_init.c **** 	 lv_obj_add_event_cb(ui->wave_model_btn_3, wave_model_btn_3_event_handler, LV_EVENT_ALL, NULL);
 734:generated/events_init.c **** 	 lv_obj_add_event_cb(ui->wave_model_btn_4, wave_model_btn_4_event_handler, LV_EVENT_ALL, NULL);
 735:generated/events_init.c **** 	 lv_obj_add_event_cb(ui->wave_model_btn_5, wave_model_btn_5_event_handler, LV_EVENT_ALL, NULL);
 736:generated/events_init.c **** 	 lv_obj_add_event_cb(ui->wave_model_btn_6, wave_model_btn_6_event_handler, LV_EVENT_ALL, NULL);
 737:generated/events_init.c **** 	 lv_obj_add_event_cb(ui->wave_model_btn_7, wave_model_btn_7_event_handler, LV_EVENT_ALL, NULL);
 738:generated/events_init.c **** 	 lv_obj_add_event_cb(ui->wave_model_btn_8, wave_model_btn_8_event_handler, LV_EVENT_ALL, NULL);
 739:generated/events_init.c **** 	 lv_obj_add_event_cb(ui->wave_model_btn_9, wave_model_btn_9_event_handler, LV_EVENT_ALL, NULL);
 740:generated/events_init.c **** 	 lv_obj_add_event_cb(ui->wave_model_btn_10, wave_model_btn_10_event_handler, LV_EVENT_ALL, NULL);
 741:generated/events_init.c **** 	 lv_obj_add_event_cb(ui->wave_model_btn_11, wave_model_btn_11_event_handler, LV_EVENT_ALL, NULL);
 742:generated/events_init.c **** 	 lv_obj_add_event_cb(ui->wave_model_btn_12, wave_model_btn_12_event_handler, LV_EVENT_ALL, NULL);
 743:generated/events_init.c **** 	 lv_obj_add_event_cb(ui->wave_model_btn_13, wave_model_btn_13_event_handler, LV_EVENT_ALL, NULL);
 744:generated/events_init.c **** 	 lv_obj_add_event_cb(ui->wave_model_btn_14, wave_model_btn_14_event_handler, LV_EVENT_ALL, NULL);
 745:generated/events_init.c ****  }
 746:generated/events_init.c ****  
 747:generated/events_init.c ****  void switch_btn(lv_timer_t *timer)
 748:generated/events_init.c ****  {
 1266              		.loc 1 748 2 is_stmt 1 view -0
 1267              		.cfi_startproc
 1268              		@ args = 0, pretend = 0, frame = 0
 1269              		@ frame_needed = 0, uses_anonymous_args = 0
 1270              		.loc 1 748 2 is_stmt 0 view .LVU319
 1271 0000 10B5     		push	{r4, lr}
 1272              	.LCFI18:
 1273              		.cfi_def_cfa_offset 8
 1274              		.cfi_offset 4, -8
 1275              		.cfi_offset 14, -4
 1276 0002 0446     		mov	r4, r0
 749:generated/events_init.c **** 	 lv_obj_add_flag(guider_ui.wave_model_msg, LV_OBJ_FLAG_HIDDEN);
 1277              		.loc 1 749 3 is_stmt 1 view .LVU320
 1278 0004 0121     		movs	r1, #1
 1279 0006 044B     		ldr	r3, .L93
 1280 0008 D3F8E400 		ldr	r0, [r3, #228]
 1281              	.LVL66:
 1282              		.loc 1 749 3 is_stmt 0 view .LVU321
 1283 000c FFF7FEFF 		bl	lv_obj_add_flag
 1284              	.LVL67:
 750:generated/events_init.c **** 	 lv_timer_del(timer); // 删除定时器，避免占用资源
 1285              		.loc 1 750 3 is_stmt 1 view .LVU322
 1286 0010 2046     		mov	r0, r4
 1287 0012 FFF7FEFF 		bl	lv_timer_del
 1288              	.LVL68:
 751:generated/events_init.c ****  }
 1289              		.loc 1 751 2 is_stmt 0 view .LVU323
 1290 0016 10BD     		pop	{r4, pc}
ARM GAS  C:\usertemp\cclVsvnU.s 			page 42


 1291              	.LVL69:
 1292              	.L94:
 1293              		.loc 1 751 2 view .LVU324
 1294              		.align	2
 1295              	.L93:
 1296 0018 00000000 		.word	guider_ui
 1297              		.cfi_endproc
 1298              	.LFE592:
 1300              		.section	.rodata.page_switch.str1.4,"aMS",%progbits,1
 1301              		.align	2
 1302              	.LC7:
 1303 0000 592D00   		.ascii	"Y-\000"
 1304 0003 00       		.align	2
 1305              	.LC8:
 1306 0004 592B00   		.ascii	"Y+\000"
 1307 0007 00       		.align	2
 1308              	.LC9:
 1309 0008 2D3E00   		.ascii	"->\000"
 1310 000b 00       		.align	2
 1311              	.LC10:
 1312 000c 3C2D00   		.ascii	"<-\000"
 1313              		.section	.text.page_switch,"ax",%progbits
 1314              		.align	1
 1315              		.global	page_switch
 1316              		.syntax unified
 1317              		.thumb
 1318              		.thumb_func
 1320              	page_switch:
 1321              	.LFB575:
  46:generated/events_init.c **** 	 if (page == 0) // 波形模式
 1322              		.loc 1 46 2 is_stmt 1 view -0
 1323              		.cfi_startproc
 1324              		@ args = 0, pretend = 0, frame = 0
 1325              		@ frame_needed = 0, uses_anonymous_args = 0
 1326 0000 10B5     		push	{r4, lr}
 1327              	.LCFI19:
 1328              		.cfi_def_cfa_offset 8
 1329              		.cfi_offset 4, -8
 1330              		.cfi_offset 14, -4
  47:generated/events_init.c **** 	 {
 1331              		.loc 1 47 3 view .LVU326
  47:generated/events_init.c **** 	 {
 1332              		.loc 1 47 12 is_stmt 0 view .LVU327
 1333 0002 CC4B     		ldr	r3, .L107
 1334 0004 93F90030 		ldrsb	r3, [r3]
  47:generated/events_init.c **** 	 {
 1335              		.loc 1 47 6 view .LVU328
 1336 0008 C3B1     		cbz	r3, .L102
 1337              	.L96:
 100:generated/events_init.c **** 	 {			   //+227 +70
 1338              		.loc 1 100 3 is_stmt 1 view .LVU329
 100:generated/events_init.c **** 	 {			   //+227 +70
 1339              		.loc 1 100 12 is_stmt 0 view .LVU330
 1340 000a CA4B     		ldr	r3, .L107
 1341 000c 93F90030 		ldrsb	r3, [r3]
 100:generated/events_init.c **** 	 {			   //+227 +70
 1342              		.loc 1 100 6 view .LVU331
ARM GAS  C:\usertemp\cclVsvnU.s 			page 43


 1343 0010 012B     		cmp	r3, #1
 1344 0012 00F0F780 		beq	.L103
 1345              	.L97:
 141:generated/events_init.c **** 	 {
 1346              		.loc 1 141 3 is_stmt 1 view .LVU332
 141:generated/events_init.c **** 	 {
 1347              		.loc 1 141 12 is_stmt 0 view .LVU333
 1348 0016 C74B     		ldr	r3, .L107
 1349 0018 93F90030 		ldrsb	r3, [r3]
 141:generated/events_init.c **** 	 {
 1350              		.loc 1 141 6 view .LVU334
 1351 001c 022B     		cmp	r3, #2
 1352 001e 00F09581 		beq	.L104
 1353              	.L98:
 198:generated/events_init.c **** 	 {
 1354              		.loc 1 198 3 is_stmt 1 view .LVU335
 198:generated/events_init.c **** 	 {
 1355              		.loc 1 198 12 is_stmt 0 view .LVU336
 1356 0022 C44B     		ldr	r3, .L107
 1357 0024 93F90030 		ldrsb	r3, [r3]
 198:generated/events_init.c **** 	 {
 1358              		.loc 1 198 6 view .LVU337
 1359 0028 032B     		cmp	r3, #3
 1360 002a 00F07982 		beq	.L105
 1361              	.L99:
 253:generated/events_init.c **** 	 {
 1362              		.loc 1 253 3 is_stmt 1 view .LVU338
 253:generated/events_init.c **** 	 {
 1363              		.loc 1 253 12 is_stmt 0 view .LVU339
 1364 002e C14B     		ldr	r3, .L107
 1365 0030 93F90030 		ldrsb	r3, [r3]
 253:generated/events_init.c **** 	 {
 1366              		.loc 1 253 6 view .LVU340
 1367 0034 042B     		cmp	r3, #4
 1368 0036 00F05783 		beq	.L106
 1369              	.L95:
 305:generated/events_init.c ****  
 1370              		.loc 1 305 2 view .LVU341
 1371 003a 10BD     		pop	{r4, pc}
 1372              	.L102:
  49:generated/events_init.c **** 		 lv_obj_add_flag(guider_ui.wave_model_table_1, LV_OBJ_FLAG_HIDDEN);
 1373              		.loc 1 49 4 is_stmt 1 view .LVU342
 1374 003c BE4C     		ldr	r4, .L107+4
 1375 003e 0121     		movs	r1, #1
 1376 0040 A068     		ldr	r0, [r4, #8]
 1377 0042 FFF7FEFF 		bl	lv_obj_add_flag
 1378              	.LVL70:
  50:generated/events_init.c **** 		 lv_obj_clear_flag(guider_ui.wave_model_chart_2, LV_OBJ_FLAG_HIDDEN);
 1379              		.loc 1 50 4 view .LVU343
 1380 0046 0121     		movs	r1, #1
 1381 0048 D4F8A000 		ldr	r0, [r4, #160]
 1382 004c FFF7FEFF 		bl	lv_obj_add_flag
 1383              	.LVL71:
  51:generated/events_init.c **** 		 lv_obj_add_flag(guider_ui.wave_model_img_1, LV_OBJ_FLAG_HIDDEN);
 1384              		.loc 1 51 4 view .LVU344
 1385 0050 0121     		movs	r1, #1
 1386 0052 D4F88C00 		ldr	r0, [r4, #140]
ARM GAS  C:\usertemp\cclVsvnU.s 			page 44


 1387 0056 FFF7FEFF 		bl	lv_obj_clear_flag
 1388              	.LVL72:
  52:generated/events_init.c **** 		 lv_obj_clear_flag(guider_ui.wave_model_label_25, LV_OBJ_FLAG_HIDDEN);
 1389              		.loc 1 52 4 view .LVU345
 1390 005a 0121     		movs	r1, #1
 1391 005c D4F8AC00 		ldr	r0, [r4, #172]
 1392 0060 FFF7FEFF 		bl	lv_obj_add_flag
 1393              	.LVL73:
  53:generated/events_init.c **** 		 lv_obj_clear_flag(guider_ui.wave_model_label_24, LV_OBJ_FLAG_HIDDEN);
 1394              		.loc 1 53 4 view .LVU346
 1395 0064 0121     		movs	r1, #1
 1396 0066 D4F88000 		ldr	r0, [r4, #128]
 1397 006a FFF7FEFF 		bl	lv_obj_clear_flag
 1398              	.LVL74:
  54:generated/events_init.c **** 		 lv_obj_clear_flag(guider_ui.wave_model_label_23, LV_OBJ_FLAG_HIDDEN);
 1399              		.loc 1 54 4 view .LVU347
 1400 006e 0121     		movs	r1, #1
 1401 0070 E06F     		ldr	r0, [r4, #124]
 1402 0072 FFF7FEFF 		bl	lv_obj_clear_flag
 1403              	.LVL75:
  55:generated/events_init.c **** 		 lv_obj_clear_flag(guider_ui.wave_model_label_22, LV_OBJ_FLAG_HIDDEN);
 1404              		.loc 1 55 4 view .LVU348
 1405 0076 0121     		movs	r1, #1
 1406 0078 A06F     		ldr	r0, [r4, #120]
 1407 007a FFF7FEFF 		bl	lv_obj_clear_flag
 1408              	.LVL76:
  56:generated/events_init.c **** 		 lv_obj_clear_flag(guider_ui.wave_model_label_21, LV_OBJ_FLAG_HIDDEN);
 1409              		.loc 1 56 4 view .LVU349
 1410 007e 0121     		movs	r1, #1
 1411 0080 606F     		ldr	r0, [r4, #116]
 1412 0082 FFF7FEFF 		bl	lv_obj_clear_flag
 1413              	.LVL77:
  57:generated/events_init.c **** 		 lv_obj_clear_flag(guider_ui.wave_model_num_1, LV_OBJ_FLAG_HIDDEN);
 1414              		.loc 1 57 4 view .LVU350
 1415 0086 0121     		movs	r1, #1
 1416 0088 206F     		ldr	r0, [r4, #112]
 1417 008a FFF7FEFF 		bl	lv_obj_clear_flag
 1418              	.LVL78:
  58:generated/events_init.c **** 		 lv_obj_clear_flag(guider_ui.wave_model_N_val, LV_OBJ_FLAG_HIDDEN);
 1419              		.loc 1 58 4 view .LVU351
 1420 008e 0121     		movs	r1, #1
 1421 0090 D4F88800 		ldr	r0, [r4, #136]
 1422 0094 FFF7FEFF 		bl	lv_obj_clear_flag
 1423              	.LVL79:
  59:generated/events_init.c **** 		 lv_obj_clear_flag(guider_ui.wave_model_three_value, LV_OBJ_FLAG_HIDDEN);
 1424              		.loc 1 59 4 view .LVU352
 1425 0098 0121     		movs	r1, #1
 1426 009a D4F88400 		ldr	r0, [r4, #132]
 1427 009e FFF7FEFF 		bl	lv_obj_clear_flag
 1428              	.LVL80:
  60:generated/events_init.c **** 		 lv_obj_clear_flag(guider_ui.wave_model_two_value, LV_OBJ_FLAG_HIDDEN);
 1429              		.loc 1 60 4 view .LVU353
 1430 00a2 0121     		movs	r1, #1
 1431 00a4 E06E     		ldr	r0, [r4, #108]
 1432 00a6 FFF7FEFF 		bl	lv_obj_clear_flag
 1433              	.LVL81:
  61:generated/events_init.c **** 		 lv_obj_clear_flag(guider_ui.wave_model_one_value, LV_OBJ_FLAG_HIDDEN);
ARM GAS  C:\usertemp\cclVsvnU.s 			page 45


 1434              		.loc 1 61 4 view .LVU354
 1435 00aa 0121     		movs	r1, #1
 1436 00ac A06E     		ldr	r0, [r4, #104]
 1437 00ae FFF7FEFF 		bl	lv_obj_clear_flag
 1438              	.LVL82:
  62:generated/events_init.c **** 		 lv_obj_clear_flag(guider_ui.wave_model_N__, LV_OBJ_FLAG_HIDDEN);
 1439              		.loc 1 62 4 view .LVU355
 1440 00b2 0121     		movs	r1, #1
 1441 00b4 606E     		ldr	r0, [r4, #100]
 1442 00b6 FFF7FEFF 		bl	lv_obj_clear_flag
 1443              	.LVL83:
  63:generated/events_init.c **** 		 lv_obj_clear_flag(guider_ui.wave_model_three, LV_OBJ_FLAG_HIDDEN);
 1444              		.loc 1 63 4 view .LVU356
 1445 00ba 0121     		movs	r1, #1
 1446 00bc 206E     		ldr	r0, [r4, #96]
 1447 00be FFF7FEFF 		bl	lv_obj_clear_flag
 1448              	.LVL84:
  64:generated/events_init.c **** 		 lv_obj_clear_flag(guider_ui.wave_model_two, LV_OBJ_FLAG_HIDDEN);
 1449              		.loc 1 64 4 view .LVU357
 1450 00c2 0121     		movs	r1, #1
 1451 00c4 E06D     		ldr	r0, [r4, #92]
 1452 00c6 FFF7FEFF 		bl	lv_obj_clear_flag
 1453              	.LVL85:
  65:generated/events_init.c **** 		 lv_obj_clear_flag(guider_ui.wave_model_red, LV_OBJ_FLAG_HIDDEN);
 1454              		.loc 1 65 4 view .LVU358
 1455 00ca 0121     		movs	r1, #1
 1456 00cc A06D     		ldr	r0, [r4, #88]
 1457 00ce FFF7FEFF 		bl	lv_obj_clear_flag
 1458              	.LVL86:
  66:generated/events_init.c **** 		 lv_obj_clear_flag(guider_ui.wave_model_blue, LV_OBJ_FLAG_HIDDEN);
 1459              		.loc 1 66 4 view .LVU359
 1460 00d2 0121     		movs	r1, #1
 1461 00d4 606D     		ldr	r0, [r4, #84]
 1462 00d6 FFF7FEFF 		bl	lv_obj_clear_flag
 1463              	.LVL87:
  67:generated/events_init.c **** 		 lv_obj_clear_flag(guider_ui.wave_model_green, LV_OBJ_FLAG_HIDDEN);
 1464              		.loc 1 67 4 view .LVU360
 1465 00da 0121     		movs	r1, #1
 1466 00dc 206D     		ldr	r0, [r4, #80]
 1467 00de FFF7FEFF 		bl	lv_obj_clear_flag
 1468              	.LVL88:
  68:generated/events_init.c **** 		 lv_obj_clear_flag(guider_ui.wave_model_yellow, LV_OBJ_FLAG_HIDDEN);
 1469              		.loc 1 68 4 view .LVU361
 1470 00e2 0121     		movs	r1, #1
 1471 00e4 E06C     		ldr	r0, [r4, #76]
 1472 00e6 FFF7FEFF 		bl	lv_obj_clear_flag
 1473              	.LVL89:
  69:generated/events_init.c **** 		 lv_obj_set_width(guider_ui.wave_model_one_value, 120);
 1474              		.loc 1 69 4 view .LVU362
 1475 00ea 0121     		movs	r1, #1
 1476 00ec A06C     		ldr	r0, [r4, #72]
 1477 00ee FFF7FEFF 		bl	lv_obj_clear_flag
 1478              	.LVL90:
  70:generated/events_init.c **** 		 lv_obj_set_height(guider_ui.wave_model_one_value, 30);
 1479              		.loc 1 70 4 view .LVU363
 1480 00f2 7821     		movs	r1, #120
 1481 00f4 606E     		ldr	r0, [r4, #100]
ARM GAS  C:\usertemp\cclVsvnU.s 			page 46


 1482 00f6 FFF7FEFF 		bl	lv_obj_set_width
 1483              	.LVL91:
  71:generated/events_init.c **** 		 lv_obj_set_width(guider_ui.wave_model_chart_2, 520);
 1484              		.loc 1 71 4 view .LVU364
 1485 00fa 1E21     		movs	r1, #30
 1486 00fc 606E     		ldr	r0, [r4, #100]
 1487 00fe FFF7FEFF 		bl	lv_obj_set_height
 1488              	.LVL92:
  72:generated/events_init.c **** 		 lv_obj_set_height(guider_ui.wave_model_chart_2, 340);
 1489              		.loc 1 72 4 view .LVU365
 1490 0102 4FF40271 		mov	r1, #520
 1491 0106 D4F88C00 		ldr	r0, [r4, #140]
 1492 010a FFF7FEFF 		bl	lv_obj_set_width
 1493              	.LVL93:
  73:generated/events_init.c **** 		 lv_obj_set_pos(guider_ui.wave_model_chart_2, 47, 70);
 1494              		.loc 1 73 4 view .LVU366
 1495 010e 4FF4AA71 		mov	r1, #340
 1496 0112 D4F88C00 		ldr	r0, [r4, #140]
 1497 0116 FFF7FEFF 		bl	lv_obj_set_height
 1498              	.LVL94:
  74:generated/events_init.c **** 		 lv_obj_set_width(guider_ui.wave_model_three_value, 120);
 1499              		.loc 1 74 4 view .LVU367
 1500 011a 4622     		movs	r2, #70
 1501 011c 2F21     		movs	r1, #47
 1502 011e D4F88C00 		ldr	r0, [r4, #140]
 1503 0122 FFF7FEFF 		bl	lv_obj_set_pos
 1504              	.LVL95:
  75:generated/events_init.c **** 		 lv_obj_set_height(guider_ui.wave_model_three_value, 30);
 1505              		.loc 1 75 4 view .LVU368
 1506 0126 7821     		movs	r1, #120
 1507 0128 E06E     		ldr	r0, [r4, #108]
 1508 012a FFF7FEFF 		bl	lv_obj_set_width
 1509              	.LVL96:
  76:generated/events_init.c **** 		 lv_obj_add_flag(guider_ui.wave_model_table_1, LV_OBJ_FLAG_HIDDEN);
 1510              		.loc 1 76 4 view .LVU369
 1511 012e 1E21     		movs	r1, #30
 1512 0130 E06E     		ldr	r0, [r4, #108]
 1513 0132 FFF7FEFF 		bl	lv_obj_set_height
 1514              	.LVL97:
  77:generated/events_init.c **** 		 lv_obj_set_pos(guider_ui.wave_model_three, 300, 28);
 1515              		.loc 1 77 4 view .LVU370
 1516 0136 0121     		movs	r1, #1
 1517 0138 D4F8A000 		ldr	r0, [r4, #160]
 1518 013c FFF7FEFF 		bl	lv_obj_add_flag
 1519              	.LVL98:
  78:generated/events_init.c **** 		 lv_obj_set_pos(guider_ui.wave_model_two, 137, 28);
 1520              		.loc 1 78 4 view .LVU371
 1521 0140 1C22     		movs	r2, #28
 1522 0142 4FF49671 		mov	r1, #300
 1523 0146 E06D     		ldr	r0, [r4, #92]
 1524 0148 FFF7FEFF 		bl	lv_obj_set_pos
 1525              	.LVL99:
  79:generated/events_init.c **** 		 lv_obj_set_pos(guider_ui.wave_model_red, 330, 25);
 1526              		.loc 1 79 4 view .LVU372
 1527 014c 1C22     		movs	r2, #28
 1528 014e 8921     		movs	r1, #137
 1529 0150 A06D     		ldr	r0, [r4, #88]
ARM GAS  C:\usertemp\cclVsvnU.s 			page 47


 1530 0152 FFF7FEFF 		bl	lv_obj_set_pos
 1531              	.LVL100:
  80:generated/events_init.c **** 		 lv_obj_set_pos(guider_ui.wave_model_green, 167, 25);
 1532              		.loc 1 80 4 view .LVU373
 1533 0156 1922     		movs	r2, #25
 1534 0158 4FF4A571 		mov	r1, #330
 1535 015c 606D     		ldr	r0, [r4, #84]
 1536 015e FFF7FEFF 		bl	lv_obj_set_pos
 1537              	.LVL101:
  81:generated/events_init.c **** 		 lv_obj_set_pos(guider_ui.wave_model_yellow, 1, 25);
 1538              		.loc 1 81 4 view .LVU374
 1539 0162 1922     		movs	r2, #25
 1540 0164 A721     		movs	r1, #167
 1541 0166 E06C     		ldr	r0, [r4, #76]
 1542 0168 FFF7FEFF 		bl	lv_obj_set_pos
 1543              	.LVL102:
  82:generated/events_init.c **** 		 lv_obj_set_pos(guider_ui.wave_model_num_1, -30, 30);
 1544              		.loc 1 82 4 view .LVU375
 1545 016c 1922     		movs	r2, #25
 1546 016e 0121     		movs	r1, #1
 1547 0170 A06C     		ldr	r0, [r4, #72]
 1548 0172 FFF7FEFF 		bl	lv_obj_set_pos
 1549              	.LVL103:
  83:generated/events_init.c **** 		 lv_obj_add_flag(guider_ui.wave_model_label_26, LV_OBJ_FLAG_HIDDEN);
 1550              		.loc 1 83 4 view .LVU376
 1551 0176 1E22     		movs	r2, #30
 1552 0178 6FF01D01 		mvn	r1, #29
 1553 017c D4F88800 		ldr	r0, [r4, #136]
 1554 0180 FFF7FEFF 		bl	lv_obj_set_pos
 1555              	.LVL104:
  84:generated/events_init.c **** 		 lv_obj_add_flag(guider_ui.wave_model_label_27, LV_OBJ_FLAG_HIDDEN);
 1556              		.loc 1 84 4 view .LVU377
 1557 0184 0121     		movs	r1, #1
 1558 0186 D4F8A400 		ldr	r0, [r4, #164]
 1559 018a FFF7FEFF 		bl	lv_obj_add_flag
 1560              	.LVL105:
  85:generated/events_init.c **** 		 lv_label_set_text(guider_ui.wave_model_btn_14_label, "Y-");
 1561              		.loc 1 85 4 view .LVU378
 1562 018e 0121     		movs	r1, #1
 1563 0190 E068     		ldr	r0, [r4, #12]
 1564 0192 FFF7FEFF 		bl	lv_obj_add_flag
 1565              	.LVL106:
  86:generated/events_init.c **** 		 lv_label_set_text(guider_ui.wave_model_btn_9_label, "Y+");
 1566              		.loc 1 86 4 view .LVU379
 1567 0196 6949     		ldr	r1, .L107+8
 1568 0198 D4F8DC00 		ldr	r0, [r4, #220]
 1569 019c FFF7FEFF 		bl	lv_label_set_text
 1570              	.LVL107:
  87:generated/events_init.c **** 		 lv_obj_clear_flag(guider_ui.wave_model_btn_10, LV_OBJ_FLAG_HIDDEN);
 1571              		.loc 1 87 4 view .LVU380
 1572 01a0 6749     		ldr	r1, .L107+12
 1573 01a2 D4F8B400 		ldr	r0, [r4, #180]
 1574 01a6 FFF7FEFF 		bl	lv_label_set_text
 1575              	.LVL108:
  88:generated/events_init.c **** 		 lv_obj_clear_flag(guider_ui.wave_model_btn_11, LV_OBJ_FLAG_HIDDEN);
 1576              		.loc 1 88 4 view .LVU381
 1577 01aa 0121     		movs	r1, #1
ARM GAS  C:\usertemp\cclVsvnU.s 			page 48


 1578 01ac D4F8B800 		ldr	r0, [r4, #184]
 1579 01b0 FFF7FEFF 		bl	lv_obj_clear_flag
 1580              	.LVL109:
  89:generated/events_init.c **** 		 lv_obj_clear_flag(guider_ui.wave_model_btn_12, LV_OBJ_FLAG_HIDDEN);
 1581              		.loc 1 89 4 view .LVU382
 1582 01b4 0121     		movs	r1, #1
 1583 01b6 D4F8C000 		ldr	r0, [r4, #192]
 1584 01ba FFF7FEFF 		bl	lv_obj_clear_flag
 1585              	.LVL110:
  90:generated/events_init.c **** 		 lv_obj_clear_flag(guider_ui.wave_model_btn_13, LV_OBJ_FLAG_HIDDEN);
 1586              		.loc 1 90 4 view .LVU383
 1587 01be 0121     		movs	r1, #1
 1588 01c0 D4F8C800 		ldr	r0, [r4, #200]
 1589 01c4 FFF7FEFF 		bl	lv_obj_clear_flag
 1590              	.LVL111:
  91:generated/events_init.c ****  
 1591              		.loc 1 91 4 view .LVU384
 1592 01c8 0121     		movs	r1, #1
 1593 01ca D4F8D000 		ldr	r0, [r4, #208]
 1594 01ce FFF7FEFF 		bl	lv_obj_clear_flag
 1595              	.LVL112:
  93:generated/events_init.c **** 		 lv_obj_clear_flag(guider_ui.wave_model_btn_1, LV_OBJ_FLAG_HIDDEN);
 1596              		.loc 1 93 4 view .LVU385
 1597 01d2 0121     		movs	r1, #1
 1598 01d4 A06B     		ldr	r0, [r4, #56]
 1599 01d6 FFF7FEFF 		bl	lv_obj_clear_flag
 1600              	.LVL113:
  94:generated/events_init.c **** 		 lv_obj_clear_flag(guider_ui.wave_model_btn_2, LV_OBJ_FLAG_HIDDEN);
 1601              		.loc 1 94 4 view .LVU386
 1602 01da 0121     		movs	r1, #1
 1603 01dc 2069     		ldr	r0, [r4, #16]
 1604 01de FFF7FEFF 		bl	lv_obj_clear_flag
 1605              	.LVL114:
  95:generated/events_init.c **** 		 lv_obj_clear_flag(guider_ui.wave_model_btn_3, LV_OBJ_FLAG_HIDDEN);
 1606              		.loc 1 95 4 view .LVU387
 1607 01e2 0121     		movs	r1, #1
 1608 01e4 A069     		ldr	r0, [r4, #24]
 1609 01e6 FFF7FEFF 		bl	lv_obj_clear_flag
 1610              	.LVL115:
  96:generated/events_init.c **** 		 lv_obj_clear_flag(guider_ui.wave_model_btn_4, LV_OBJ_FLAG_HIDDEN);
 1611              		.loc 1 96 4 view .LVU388
 1612 01ea 0121     		movs	r1, #1
 1613 01ec 206A     		ldr	r0, [r4, #32]
 1614 01ee FFF7FEFF 		bl	lv_obj_clear_flag
 1615              	.LVL116:
  97:generated/events_init.c **** 		 lv_obj_clear_flag(guider_ui.wave_model_btn_5, LV_OBJ_FLAG_HIDDEN);
 1616              		.loc 1 97 4 view .LVU389
 1617 01f2 0121     		movs	r1, #1
 1618 01f4 A06A     		ldr	r0, [r4, #40]
 1619 01f6 FFF7FEFF 		bl	lv_obj_clear_flag
 1620              	.LVL117:
  98:generated/events_init.c **** 	 }
 1621              		.loc 1 98 4 view .LVU390
 1622 01fa 0121     		movs	r1, #1
 1623 01fc 206B     		ldr	r0, [r4, #48]
 1624 01fe FFF7FEFF 		bl	lv_obj_clear_flag
 1625              	.LVL118:
ARM GAS  C:\usertemp\cclVsvnU.s 			page 49


 1626 0202 02E7     		b	.L96
 1627              	.L103:
 103:generated/events_init.c **** 		 lv_obj_add_flag(guider_ui.wave_model_btn_10, LV_OBJ_FLAG_HIDDEN);
 1628              		.loc 1 103 4 view .LVU391
 1629 0204 4C4C     		ldr	r4, .L107+4
 1630 0206 0121     		movs	r1, #1
 1631 0208 E068     		ldr	r0, [r4, #12]
 1632 020a FFF7FEFF 		bl	lv_obj_clear_flag
 1633              	.LVL119:
 104:generated/events_init.c **** 		 lv_obj_add_flag(guider_ui.wave_model_btn_11, LV_OBJ_FLAG_HIDDEN);
 1634              		.loc 1 104 4 view .LVU392
 1635 020e 0121     		movs	r1, #1
 1636 0210 D4F8B800 		ldr	r0, [r4, #184]
 1637 0214 FFF7FEFF 		bl	lv_obj_add_flag
 1638              	.LVL120:
 105:generated/events_init.c **** 		 lv_obj_add_flag(guider_ui.wave_model_btn_12, LV_OBJ_FLAG_HIDDEN);
 1639              		.loc 1 105 4 view .LVU393
 1640 0218 0121     		movs	r1, #1
 1641 021a D4F8C000 		ldr	r0, [r4, #192]
 1642 021e FFF7FEFF 		bl	lv_obj_add_flag
 1643              	.LVL121:
 106:generated/events_init.c **** 		 lv_obj_add_flag(guider_ui.wave_model_btn_13, LV_OBJ_FLAG_HIDDEN);
 1644              		.loc 1 106 4 view .LVU394
 1645 0222 0121     		movs	r1, #1
 1646 0224 D4F8C800 		ldr	r0, [r4, #200]
 1647 0228 FFF7FEFF 		bl	lv_obj_add_flag
 1648              	.LVL122:
 107:generated/events_init.c ****  
 1649              		.loc 1 107 4 view .LVU395
 1650 022c 0121     		movs	r1, #1
 1651 022e D4F8D000 		ldr	r0, [r4, #208]
 1652 0232 FFF7FEFF 		bl	lv_obj_add_flag
 1653              	.LVL123:
 109:generated/events_init.c **** 		 lv_obj_add_flag(guider_ui.wave_model_btn_1, LV_OBJ_FLAG_HIDDEN);
 1654              		.loc 1 109 4 view .LVU396
 1655 0236 0121     		movs	r1, #1
 1656 0238 A06B     		ldr	r0, [r4, #56]
 1657 023a FFF7FEFF 		bl	lv_obj_add_flag
 1658              	.LVL124:
 110:generated/events_init.c **** 		 lv_obj_add_flag(guider_ui.wave_model_btn_2, LV_OBJ_FLAG_HIDDEN);
 1659              		.loc 1 110 4 view .LVU397
 1660 023e 0121     		movs	r1, #1
 1661 0240 2069     		ldr	r0, [r4, #16]
 1662 0242 FFF7FEFF 		bl	lv_obj_add_flag
 1663              	.LVL125:
 111:generated/events_init.c **** 		 lv_obj_add_flag(guider_ui.wave_model_btn_3, LV_OBJ_FLAG_HIDDEN);
 1664              		.loc 1 111 4 view .LVU398
 1665 0246 0121     		movs	r1, #1
 1666 0248 A069     		ldr	r0, [r4, #24]
 1667 024a FFF7FEFF 		bl	lv_obj_add_flag
 1668              	.LVL126:
 112:generated/events_init.c **** 		 lv_obj_add_flag(guider_ui.wave_model_btn_4, LV_OBJ_FLAG_HIDDEN);
 1669              		.loc 1 112 4 view .LVU399
 1670 024e 0121     		movs	r1, #1
 1671 0250 206A     		ldr	r0, [r4, #32]
 1672 0252 FFF7FEFF 		bl	lv_obj_add_flag
 1673              	.LVL127:
ARM GAS  C:\usertemp\cclVsvnU.s 			page 50


 113:generated/events_init.c **** 		 lv_obj_add_flag(guider_ui.wave_model_btn_5, LV_OBJ_FLAG_HIDDEN);
 1674              		.loc 1 113 4 view .LVU400
 1675 0256 0121     		movs	r1, #1
 1676 0258 A06A     		ldr	r0, [r4, #40]
 1677 025a FFF7FEFF 		bl	lv_obj_add_flag
 1678              	.LVL128:
 114:generated/events_init.c ****  
 1679              		.loc 1 114 4 view .LVU401
 1680 025e 0121     		movs	r1, #1
 1681 0260 206B     		ldr	r0, [r4, #48]
 1682 0262 FFF7FEFF 		bl	lv_obj_add_flag
 1683              	.LVL129:
 116:generated/events_init.c **** 		 lv_obj_clear_flag(guider_ui.wave_model_img_1, LV_OBJ_FLAG_HIDDEN);
 1684              		.loc 1 116 4 view .LVU402
 1685 0266 0121     		movs	r1, #1
 1686 0268 D4F88C00 		ldr	r0, [r4, #140]
 1687 026c FFF7FEFF 		bl	lv_obj_add_flag
 1688              	.LVL130:
 117:generated/events_init.c **** 		 lv_obj_add_flag(guider_ui.wave_model_label_25, LV_OBJ_FLAG_HIDDEN);
 1689              		.loc 1 117 4 view .LVU403
 1690 0270 0121     		movs	r1, #1
 1691 0272 D4F8AC00 		ldr	r0, [r4, #172]
 1692 0276 FFF7FEFF 		bl	lv_obj_clear_flag
 1693              	.LVL131:
 118:generated/events_init.c **** 		 lv_obj_add_flag(guider_ui.wave_model_label_24, LV_OBJ_FLAG_HIDDEN);
 1694              		.loc 1 118 4 view .LVU404
 1695 027a 0121     		movs	r1, #1
 1696 027c D4F88000 		ldr	r0, [r4, #128]
 1697 0280 FFF7FEFF 		bl	lv_obj_add_flag
 1698              	.LVL132:
 119:generated/events_init.c **** 		 lv_obj_add_flag(guider_ui.wave_model_label_23, LV_OBJ_FLAG_HIDDEN);
 1699              		.loc 1 119 4 view .LVU405
 1700 0284 0121     		movs	r1, #1
 1701 0286 E06F     		ldr	r0, [r4, #124]
 1702 0288 FFF7FEFF 		bl	lv_obj_add_flag
 1703              	.LVL133:
 120:generated/events_init.c **** 		 lv_obj_add_flag(guider_ui.wave_model_label_22, LV_OBJ_FLAG_HIDDEN);
 1704              		.loc 1 120 4 view .LVU406
 1705 028c 0121     		movs	r1, #1
 1706 028e A06F     		ldr	r0, [r4, #120]
 1707 0290 FFF7FEFF 		bl	lv_obj_add_flag
 1708              	.LVL134:
 121:generated/events_init.c **** 		 lv_obj_add_flag(guider_ui.wave_model_label_21, LV_OBJ_FLAG_HIDDEN);
 1709              		.loc 1 121 4 view .LVU407
 1710 0294 0121     		movs	r1, #1
 1711 0296 606F     		ldr	r0, [r4, #116]
 1712 0298 FFF7FEFF 		bl	lv_obj_add_flag
 1713              	.LVL135:
 122:generated/events_init.c **** 		 lv_obj_add_flag(guider_ui.wave_model_num_1, LV_OBJ_FLAG_HIDDEN);
 1714              		.loc 1 122 4 view .LVU408
 1715 029c 0121     		movs	r1, #1
 1716 029e 206F     		ldr	r0, [r4, #112]
 1717 02a0 FFF7FEFF 		bl	lv_obj_add_flag
 1718              	.LVL136:
 123:generated/events_init.c **** 		 lv_obj_add_flag(guider_ui.wave_model_N_val, LV_OBJ_FLAG_HIDDEN);
 1719              		.loc 1 123 4 view .LVU409
 1720 02a4 0121     		movs	r1, #1
ARM GAS  C:\usertemp\cclVsvnU.s 			page 51


 1721 02a6 D4F88800 		ldr	r0, [r4, #136]
 1722 02aa FFF7FEFF 		bl	lv_obj_add_flag
 1723              	.LVL137:
 124:generated/events_init.c **** 		 lv_obj_add_flag(guider_ui.wave_model_three_value, LV_OBJ_FLAG_HIDDEN);
 1724              		.loc 1 124 4 view .LVU410
 1725 02ae 0121     		movs	r1, #1
 1726 02b0 D4F88400 		ldr	r0, [r4, #132]
 1727 02b4 FFF7FEFF 		bl	lv_obj_add_flag
 1728              	.LVL138:
 125:generated/events_init.c **** 		 lv_obj_add_flag(guider_ui.wave_model_two_value, LV_OBJ_FLAG_HIDDEN);
 1729              		.loc 1 125 4 view .LVU411
 1730 02b8 0121     		movs	r1, #1
 1731 02ba E06E     		ldr	r0, [r4, #108]
 1732 02bc FFF7FEFF 		bl	lv_obj_add_flag
 1733              	.LVL139:
 126:generated/events_init.c **** 		 lv_obj_add_flag(guider_ui.wave_model_one_value, LV_OBJ_FLAG_HIDDEN);
 1734              		.loc 1 126 4 view .LVU412
 1735 02c0 0121     		movs	r1, #1
 1736 02c2 A06E     		ldr	r0, [r4, #104]
 1737 02c4 FFF7FEFF 		bl	lv_obj_add_flag
 1738              	.LVL140:
 127:generated/events_init.c **** 		 lv_obj_add_flag(guider_ui.wave_model_N__, LV_OBJ_FLAG_HIDDEN);
 1739              		.loc 1 127 4 view .LVU413
 1740 02c8 0121     		movs	r1, #1
 1741 02ca 606E     		ldr	r0, [r4, #100]
 1742 02cc FFF7FEFF 		bl	lv_obj_add_flag
 1743              	.LVL141:
 128:generated/events_init.c **** 		 lv_obj_add_flag(guider_ui.wave_model_three, LV_OBJ_FLAG_HIDDEN);
 1744              		.loc 1 128 4 view .LVU414
 1745 02d0 0121     		movs	r1, #1
 1746 02d2 206E     		ldr	r0, [r4, #96]
 1747 02d4 FFF7FEFF 		bl	lv_obj_add_flag
 1748              	.LVL142:
 129:generated/events_init.c **** 		 lv_obj_add_flag(guider_ui.wave_model_two, LV_OBJ_FLAG_HIDDEN);
 1749              		.loc 1 129 4 view .LVU415
 1750 02d8 0121     		movs	r1, #1
 1751 02da E06D     		ldr	r0, [r4, #92]
 1752 02dc FFF7FEFF 		bl	lv_obj_add_flag
 1753              	.LVL143:
 130:generated/events_init.c **** 		 lv_obj_add_flag(guider_ui.wave_model_red, LV_OBJ_FLAG_HIDDEN);
 1754              		.loc 1 130 4 view .LVU416
 1755 02e0 0121     		movs	r1, #1
 1756 02e2 A06D     		ldr	r0, [r4, #88]
 1757 02e4 FFF7FEFF 		bl	lv_obj_add_flag
 1758              	.LVL144:
 131:generated/events_init.c **** 		 lv_obj_add_flag(guider_ui.wave_model_blue, LV_OBJ_FLAG_HIDDEN);
 1759              		.loc 1 131 4 view .LVU417
 1760 02e8 0121     		movs	r1, #1
 1761 02ea 606D     		ldr	r0, [r4, #84]
 1762 02ec FFF7FEFF 		bl	lv_obj_add_flag
 1763              	.LVL145:
 132:generated/events_init.c **** 		 lv_obj_add_flag(guider_ui.wave_model_green, LV_OBJ_FLAG_HIDDEN);
 1764              		.loc 1 132 4 view .LVU418
 1765 02f0 0121     		movs	r1, #1
 1766 02f2 206D     		ldr	r0, [r4, #80]
 1767 02f4 FFF7FEFF 		bl	lv_obj_add_flag
 1768              	.LVL146:
ARM GAS  C:\usertemp\cclVsvnU.s 			page 52


 133:generated/events_init.c **** 		 lv_obj_add_flag(guider_ui.wave_model_yellow, LV_OBJ_FLAG_HIDDEN);
 1769              		.loc 1 133 4 view .LVU419
 1770 02f8 0121     		movs	r1, #1
 1771 02fa E06C     		ldr	r0, [r4, #76]
 1772 02fc FFF7FEFF 		bl	lv_obj_add_flag
 1773              	.LVL147:
 134:generated/events_init.c **** 		 lv_obj_add_flag(guider_ui.wave_model_label_26, LV_OBJ_FLAG_HIDDEN);
 1774              		.loc 1 134 4 view .LVU420
 1775 0300 0121     		movs	r1, #1
 1776 0302 A06C     		ldr	r0, [r4, #72]
 1777 0304 FFF7FEFF 		bl	lv_obj_add_flag
 1778              	.LVL148:
 135:generated/events_init.c **** 		 lv_obj_add_flag(guider_ui.wave_model_chart_3, LV_OBJ_FLAG_HIDDEN);
 1779              		.loc 1 135 4 view .LVU421
 1780 0308 0121     		movs	r1, #1
 1781 030a D4F8A400 		ldr	r0, [r4, #164]
 1782 030e FFF7FEFF 		bl	lv_obj_add_flag
 1783              	.LVL149:
 136:generated/events_init.c ****  
 1784              		.loc 1 136 4 view .LVU422
 1785 0312 0121     		movs	r1, #1
 1786 0314 D4F8E000 		ldr	r0, [r4, #224]
 1787 0318 FFF7FEFF 		bl	lv_obj_add_flag
 1788              	.LVL150:
 138:generated/events_init.c **** 		 lv_label_set_text(guider_ui.wave_model_btn_9_label, "<-");
 1789              		.loc 1 138 4 view .LVU423
 1790 031c 0949     		ldr	r1, .L107+16
 1791 031e D4F8DC00 		ldr	r0, [r4, #220]
 1792 0322 FFF7FEFF 		bl	lv_label_set_text
 1793              	.LVL151:
 139:generated/events_init.c **** 	 }
 1794              		.loc 1 139 4 view .LVU424
 1795 0326 0849     		ldr	r1, .L107+20
 1796 0328 D4F8B400 		ldr	r0, [r4, #180]
 1797 032c FFF7FEFF 		bl	lv_label_set_text
 1798              	.LVL152:
 1799 0330 71E6     		b	.L97
 1800              	.L108:
 1801 0332 00BF     		.align	2
 1802              	.L107:
 1803 0334 00000000 		.word	page
 1804 0338 00000000 		.word	guider_ui
 1805 033c 00000000 		.word	.LC7
 1806 0340 04000000 		.word	.LC8
 1807 0344 08000000 		.word	.LC9
 1808 0348 0C000000 		.word	.LC10
 1809              	.L104:
 143:generated/events_init.c **** 		 lv_obj_clear_flag(guider_ui.wave_model_btn_11, LV_OBJ_FLAG_HIDDEN);
 1810              		.loc 1 143 4 view .LVU425
 1811 034c 714C     		ldr	r4, .L109
 1812 034e 0121     		movs	r1, #1
 1813 0350 D4F8B800 		ldr	r0, [r4, #184]
 1814 0354 FFF7FEFF 		bl	lv_obj_clear_flag
 1815              	.LVL153:
 144:generated/events_init.c **** 		 lv_obj_clear_flag(guider_ui.wave_model_btn_12, LV_OBJ_FLAG_HIDDEN);
 1816              		.loc 1 144 4 view .LVU426
 1817 0358 0121     		movs	r1, #1
ARM GAS  C:\usertemp\cclVsvnU.s 			page 53


 1818 035a D4F8C000 		ldr	r0, [r4, #192]
 1819 035e FFF7FEFF 		bl	lv_obj_clear_flag
 1820              	.LVL154:
 145:generated/events_init.c **** 		 lv_obj_clear_flag(guider_ui.wave_model_btn_13, LV_OBJ_FLAG_HIDDEN);
 1821              		.loc 1 145 4 view .LVU427
 1822 0362 0121     		movs	r1, #1
 1823 0364 D4F8C800 		ldr	r0, [r4, #200]
 1824 0368 FFF7FEFF 		bl	lv_obj_clear_flag
 1825              	.LVL155:
 146:generated/events_init.c ****  
 1826              		.loc 1 146 4 view .LVU428
 1827 036c 0121     		movs	r1, #1
 1828 036e D4F8D000 		ldr	r0, [r4, #208]
 1829 0372 FFF7FEFF 		bl	lv_obj_clear_flag
 1830              	.LVL156:
 148:generated/events_init.c **** 		 lv_obj_clear_flag(guider_ui.wave_model_btn_1, LV_OBJ_FLAG_HIDDEN);
 1831              		.loc 1 148 4 view .LVU429
 1832 0376 0121     		movs	r1, #1
 1833 0378 A06B     		ldr	r0, [r4, #56]
 1834 037a FFF7FEFF 		bl	lv_obj_clear_flag
 1835              	.LVL157:
 149:generated/events_init.c **** 		 lv_obj_clear_flag(guider_ui.wave_model_btn_2, LV_OBJ_FLAG_HIDDEN);
 1836              		.loc 1 149 4 view .LVU430
 1837 037e 0121     		movs	r1, #1
 1838 0380 2069     		ldr	r0, [r4, #16]
 1839 0382 FFF7FEFF 		bl	lv_obj_clear_flag
 1840              	.LVL158:
 150:generated/events_init.c **** 		 lv_obj_clear_flag(guider_ui.wave_model_btn_3, LV_OBJ_FLAG_HIDDEN);
 1841              		.loc 1 150 4 view .LVU431
 1842 0386 0121     		movs	r1, #1
 1843 0388 A069     		ldr	r0, [r4, #24]
 1844 038a FFF7FEFF 		bl	lv_obj_clear_flag
 1845              	.LVL159:
 151:generated/events_init.c **** 		 lv_obj_clear_flag(guider_ui.wave_model_btn_4, LV_OBJ_FLAG_HIDDEN);
 1846              		.loc 1 151 4 view .LVU432
 1847 038e 0121     		movs	r1, #1
 1848 0390 206A     		ldr	r0, [r4, #32]
 1849 0392 FFF7FEFF 		bl	lv_obj_clear_flag
 1850              	.LVL160:
 152:generated/events_init.c **** 		 lv_obj_clear_flag(guider_ui.wave_model_btn_5, LV_OBJ_FLAG_HIDDEN);
 1851              		.loc 1 152 4 view .LVU433
 1852 0396 0121     		movs	r1, #1
 1853 0398 A06A     		ldr	r0, [r4, #40]
 1854 039a FFF7FEFF 		bl	lv_obj_clear_flag
 1855              	.LVL161:
 153:generated/events_init.c **** 		 lv_obj_add_flag(guider_ui.wave_model_label_27, LV_OBJ_FLAG_HIDDEN);
 1856              		.loc 1 153 4 view .LVU434
 1857 039e 0121     		movs	r1, #1
 1858 03a0 206B     		ldr	r0, [r4, #48]
 1859 03a2 FFF7FEFF 		bl	lv_obj_clear_flag
 1860              	.LVL162:
 154:generated/events_init.c **** 		 lv_obj_add_flag(guider_ui.wave_model_chart_2, LV_OBJ_FLAG_HIDDEN);
 1861              		.loc 1 154 4 view .LVU435
 1862 03a6 0121     		movs	r1, #1
 1863 03a8 E068     		ldr	r0, [r4, #12]
 1864 03aa FFF7FEFF 		bl	lv_obj_add_flag
 1865              	.LVL163:
ARM GAS  C:\usertemp\cclVsvnU.s 			page 54


 155:generated/events_init.c **** 		 lv_obj_clear_flag(guider_ui.wave_model_chart_3, LV_OBJ_FLAG_HIDDEN);
 1866              		.loc 1 155 4 view .LVU436
 1867 03ae 0121     		movs	r1, #1
 1868 03b0 D4F88C00 		ldr	r0, [r4, #140]
 1869 03b4 FFF7FEFF 		bl	lv_obj_add_flag
 1870              	.LVL164:
 156:generated/events_init.c **** 		 lv_obj_add_flag(guider_ui.wave_model_img_1, LV_OBJ_FLAG_HIDDEN);
 1871              		.loc 1 156 4 view .LVU437
 1872 03b8 0121     		movs	r1, #1
 1873 03ba D4F8E000 		ldr	r0, [r4, #224]
 1874 03be FFF7FEFF 		bl	lv_obj_clear_flag
 1875              	.LVL165:
 157:generated/events_init.c **** 		 lv_obj_clear_flag(guider_ui.wave_model_digital_clock_1, LV_OBJ_FLAG_HIDDEN);
 1876              		.loc 1 157 4 view .LVU438
 1877 03c2 0121     		movs	r1, #1
 1878 03c4 D4F8AC00 		ldr	r0, [r4, #172]
 1879 03c8 FFF7FEFF 		bl	lv_obj_add_flag
 1880              	.LVL166:
 158:generated/events_init.c **** 		 lv_obj_add_flag(guider_ui.wave_model_label_26, LV_OBJ_FLAG_HIDDEN);
 1881              		.loc 1 158 4 view .LVU439
 1882 03cc 0121     		movs	r1, #1
 1883 03ce D4F8A800 		ldr	r0, [r4, #168]
 1884 03d2 FFF7FEFF 		bl	lv_obj_clear_flag
 1885              	.LVL167:
 159:generated/events_init.c **** 		 lv_obj_add_flag(guider_ui.wave_model_table_1, LV_OBJ_FLAG_HIDDEN);
 1886              		.loc 1 159 4 view .LVU440
 1887 03d6 0121     		movs	r1, #1
 1888 03d8 D4F8A400 		ldr	r0, [r4, #164]
 1889 03dc FFF7FEFF 		bl	lv_obj_add_flag
 1890              	.LVL168:
 160:generated/events_init.c **** 		 lv_obj_clear_flag(guider_ui.wave_model_btn_8, LV_OBJ_FLAG_HIDDEN);
 1891              		.loc 1 160 4 view .LVU441
 1892 03e0 0121     		movs	r1, #1
 1893 03e2 D4F8A000 		ldr	r0, [r4, #160]
 1894 03e6 FFF7FEFF 		bl	lv_obj_add_flag
 1895              	.LVL169:
 161:generated/events_init.c **** 		 lv_obj_clear_flag(guider_ui.wave_model_btn_7, LV_OBJ_FLAG_HIDDEN);
 1896              		.loc 1 161 4 view .LVU442
 1897 03ea 0121     		movs	r1, #1
 1898 03ec D4F89800 		ldr	r0, [r4, #152]
 1899 03f0 FFF7FEFF 		bl	lv_obj_clear_flag
 1900              	.LVL170:
 162:generated/events_init.c ****  
 1901              		.loc 1 162 4 view .LVU443
 1902 03f4 0121     		movs	r1, #1
 1903 03f6 D4F89000 		ldr	r0, [r4, #144]
 1904 03fa FFF7FEFF 		bl	lv_obj_clear_flag
 1905              	.LVL171:
 164:generated/events_init.c **** 		 lv_obj_add_flag(guider_ui.wave_model_N_val, LV_OBJ_FLAG_HIDDEN);
 1906              		.loc 1 164 4 view .LVU444
 1907 03fe 0121     		movs	r1, #1
 1908 0400 D4F88800 		ldr	r0, [r4, #136]
 1909 0404 FFF7FEFF 		bl	lv_obj_clear_flag
 1910              	.LVL172:
 165:generated/events_init.c **** 		 lv_obj_add_flag(guider_ui.wave_model_label_25, LV_OBJ_FLAG_HIDDEN);
 1911              		.loc 1 165 4 view .LVU445
 1912 0408 0121     		movs	r1, #1
ARM GAS  C:\usertemp\cclVsvnU.s 			page 55


 1913 040a D4F88400 		ldr	r0, [r4, #132]
 1914 040e FFF7FEFF 		bl	lv_obj_add_flag
 1915              	.LVL173:
 166:generated/events_init.c **** 		 lv_obj_add_flag(guider_ui.wave_model_label_24, LV_OBJ_FLAG_HIDDEN);
 1916              		.loc 1 166 4 view .LVU446
 1917 0412 0121     		movs	r1, #1
 1918 0414 D4F88000 		ldr	r0, [r4, #128]
 1919 0418 FFF7FEFF 		bl	lv_obj_add_flag
 1920              	.LVL174:
 167:generated/events_init.c **** 		 lv_obj_add_flag(guider_ui.wave_model_label_23, LV_OBJ_FLAG_HIDDEN);
 1921              		.loc 1 167 4 view .LVU447
 1922 041c 0121     		movs	r1, #1
 1923 041e E06F     		ldr	r0, [r4, #124]
 1924 0420 FFF7FEFF 		bl	lv_obj_add_flag
 1925              	.LVL175:
 168:generated/events_init.c **** 		 lv_obj_add_flag(guider_ui.wave_model_label_22, LV_OBJ_FLAG_HIDDEN);
 1926              		.loc 1 168 4 view .LVU448
 1927 0424 0121     		movs	r1, #1
 1928 0426 A06F     		ldr	r0, [r4, #120]
 1929 0428 FFF7FEFF 		bl	lv_obj_add_flag
 1930              	.LVL176:
 169:generated/events_init.c **** 		 lv_obj_add_flag(guider_ui.wave_model_label_21, LV_OBJ_FLAG_HIDDEN);
 1931              		.loc 1 169 4 view .LVU449
 1932 042c 0121     		movs	r1, #1
 1933 042e 606F     		ldr	r0, [r4, #116]
 1934 0430 FFF7FEFF 		bl	lv_obj_add_flag
 1935              	.LVL177:
 170:generated/events_init.c **** 		 lv_obj_set_width(guider_ui.wave_model_three_value, 120);
 1936              		.loc 1 170 4 view .LVU450
 1937 0434 0121     		movs	r1, #1
 1938 0436 206F     		ldr	r0, [r4, #112]
 1939 0438 FFF7FEFF 		bl	lv_obj_add_flag
 1940              	.LVL178:
 171:generated/events_init.c **** 		 lv_obj_set_height(guider_ui.wave_model_three_value, 90);
 1941              		.loc 1 171 4 view .LVU451
 1942 043c 7821     		movs	r1, #120
 1943 043e E06E     		ldr	r0, [r4, #108]
 1944 0440 FFF7FEFF 		bl	lv_obj_set_width
 1945              	.LVL179:
 172:generated/events_init.c **** 		 lv_obj_clear_flag(guider_ui.wave_model_three_value, LV_OBJ_FLAG_HIDDEN);
 1946              		.loc 1 172 4 view .LVU452
 1947 0444 5A21     		movs	r1, #90
 1948 0446 E06E     		ldr	r0, [r4, #108]
 1949 0448 FFF7FEFF 		bl	lv_obj_set_height
 1950              	.LVL180:
 173:generated/events_init.c **** 		 lv_obj_set_width(guider_ui.wave_model_two_value, 120);
 1951              		.loc 1 173 4 view .LVU453
 1952 044c 0121     		movs	r1, #1
 1953 044e E06E     		ldr	r0, [r4, #108]
 1954 0450 FFF7FEFF 		bl	lv_obj_clear_flag
 1955              	.LVL181:
 174:generated/events_init.c **** 		 lv_obj_set_height(guider_ui.wave_model_two_value, 90);
 1956              		.loc 1 174 4 view .LVU454
 1957 0454 7821     		movs	r1, #120
 1958 0456 A06E     		ldr	r0, [r4, #104]
 1959 0458 FFF7FEFF 		bl	lv_obj_set_width
 1960              	.LVL182:
ARM GAS  C:\usertemp\cclVsvnU.s 			page 56


 175:generated/events_init.c **** 		 lv_obj_clear_flag(guider_ui.wave_model_two_value, LV_OBJ_FLAG_HIDDEN);
 1961              		.loc 1 175 4 view .LVU455
 1962 045c 5A21     		movs	r1, #90
 1963 045e A06E     		ldr	r0, [r4, #104]
 1964 0460 FFF7FEFF 		bl	lv_obj_set_height
 1965              	.LVL183:
 176:generated/events_init.c **** 		 lv_obj_set_width(guider_ui.wave_model_one_value, 120);
 1966              		.loc 1 176 4 view .LVU456
 1967 0464 0121     		movs	r1, #1
 1968 0466 A06E     		ldr	r0, [r4, #104]
 1969 0468 FFF7FEFF 		bl	lv_obj_clear_flag
 1970              	.LVL184:
 177:generated/events_init.c **** 		 lv_obj_set_height(guider_ui.wave_model_one_value, 90);
 1971              		.loc 1 177 4 view .LVU457
 1972 046c 7821     		movs	r1, #120
 1973 046e 606E     		ldr	r0, [r4, #100]
 1974 0470 FFF7FEFF 		bl	lv_obj_set_width
 1975              	.LVL185:
 178:generated/events_init.c **** 		 lv_obj_clear_flag(guider_ui.wave_model_one_value, LV_OBJ_FLAG_HIDDEN);
 1976              		.loc 1 178 4 view .LVU458
 1977 0474 5A21     		movs	r1, #90
 1978 0476 606E     		ldr	r0, [r4, #100]
 1979 0478 FFF7FEFF 		bl	lv_obj_set_height
 1980              	.LVL186:
 179:generated/events_init.c **** 		 lv_obj_add_flag(guider_ui.wave_model_N__, LV_OBJ_FLAG_HIDDEN);
 1981              		.loc 1 179 4 view .LVU459
 1982 047c 0121     		movs	r1, #1
 1983 047e 606E     		ldr	r0, [r4, #100]
 1984 0480 FFF7FEFF 		bl	lv_obj_clear_flag
 1985              	.LVL187:
 180:generated/events_init.c **** 		 lv_obj_clear_flag(guider_ui.wave_model_three, LV_OBJ_FLAG_HIDDEN);
 1986              		.loc 1 180 4 view .LVU460
 1987 0484 0121     		movs	r1, #1
 1988 0486 206E     		ldr	r0, [r4, #96]
 1989 0488 FFF7FEFF 		bl	lv_obj_add_flag
 1990              	.LVL188:
 181:generated/events_init.c **** 		 lv_obj_clear_flag(guider_ui.wave_model_two, LV_OBJ_FLAG_HIDDEN);
 1991              		.loc 1 181 4 view .LVU461
 1992 048c 0121     		movs	r1, #1
 1993 048e E06D     		ldr	r0, [r4, #92]
 1994 0490 FFF7FEFF 		bl	lv_obj_clear_flag
 1995              	.LVL189:
 182:generated/events_init.c **** 		 lv_obj_clear_flag(guider_ui.wave_model_red, LV_OBJ_FLAG_HIDDEN);
 1996              		.loc 1 182 4 view .LVU462
 1997 0494 0121     		movs	r1, #1
 1998 0496 A06D     		ldr	r0, [r4, #88]
 1999 0498 FFF7FEFF 		bl	lv_obj_clear_flag
 2000              	.LVL190:
 183:generated/events_init.c **** 		 lv_obj_add_flag(guider_ui.wave_model_blue, LV_OBJ_FLAG_HIDDEN);
 2001              		.loc 1 183 4 view .LVU463
 2002 049c 0121     		movs	r1, #1
 2003 049e 606D     		ldr	r0, [r4, #84]
 2004 04a0 FFF7FEFF 		bl	lv_obj_clear_flag
 2005              	.LVL191:
 184:generated/events_init.c **** 		 lv_obj_clear_flag(guider_ui.wave_model_green, LV_OBJ_FLAG_HIDDEN);
 2006              		.loc 1 184 4 view .LVU464
 2007 04a4 0121     		movs	r1, #1
ARM GAS  C:\usertemp\cclVsvnU.s 			page 57


 2008 04a6 206D     		ldr	r0, [r4, #80]
 2009 04a8 FFF7FEFF 		bl	lv_obj_add_flag
 2010              	.LVL192:
 185:generated/events_init.c **** 		 lv_obj_clear_flag(guider_ui.wave_model_yellow, LV_OBJ_FLAG_HIDDEN);
 2011              		.loc 1 185 4 view .LVU465
 2012 04ac 0121     		movs	r1, #1
 2013 04ae E06C     		ldr	r0, [r4, #76]
 2014 04b0 FFF7FEFF 		bl	lv_obj_clear_flag
 2015              	.LVL193:
 186:generated/events_init.c **** 		 lv_obj_clear_flag(guider_ui.wave_model_freq, LV_OBJ_FLAG_HIDDEN);
 2016              		.loc 1 186 4 view .LVU466
 2017 04b4 0121     		movs	r1, #1
 2018 04b6 A06C     		ldr	r0, [r4, #72]
 2019 04b8 FFF7FEFF 		bl	lv_obj_clear_flag
 2020              	.LVL194:
 187:generated/events_init.c **** 		 lv_obj_clear_flag(guider_ui.wave_model_power, LV_OBJ_FLAG_HIDDEN);
 2021              		.loc 1 187 4 view .LVU467
 2022 04bc 0121     		movs	r1, #1
 2023 04be 606C     		ldr	r0, [r4, #68]
 2024 04c0 FFF7FEFF 		bl	lv_obj_clear_flag
 2025              	.LVL195:
 188:generated/events_init.c **** 		 lv_obj_clear_flag(guider_ui.wave_model_btn_1, LV_OBJ_FLAG_HIDDEN);
 2026              		.loc 1 188 4 view .LVU468
 2027 04c4 0121     		movs	r1, #1
 2028 04c6 206C     		ldr	r0, [r4, #64]
 2029 04c8 FFF7FEFF 		bl	lv_obj_clear_flag
 2030              	.LVL196:
 189:generated/events_init.c **** 		 lv_obj_clear_flag(guider_ui.wave_model_btn_2, LV_OBJ_FLAG_HIDDEN);
 2031              		.loc 1 189 4 view .LVU469
 2032 04cc 0121     		movs	r1, #1
 2033 04ce 2069     		ldr	r0, [r4, #16]
 2034 04d0 FFF7FEFF 		bl	lv_obj_clear_flag
 2035              	.LVL197:
 190:generated/events_init.c **** 		 lv_obj_clear_flag(guider_ui.wave_model_btn_3, LV_OBJ_FLAG_HIDDEN);
 2036              		.loc 1 190 4 view .LVU470
 2037 04d4 0121     		movs	r1, #1
 2038 04d6 A069     		ldr	r0, [r4, #24]
 2039 04d8 FFF7FEFF 		bl	lv_obj_clear_flag
 2040              	.LVL198:
 191:generated/events_init.c **** 		 lv_obj_clear_flag(guider_ui.wave_model_btn_4, LV_OBJ_FLAG_HIDDEN);
 2041              		.loc 1 191 4 view .LVU471
 2042 04dc 0121     		movs	r1, #1
 2043 04de 206A     		ldr	r0, [r4, #32]
 2044 04e0 FFF7FEFF 		bl	lv_obj_clear_flag
 2045              	.LVL199:
 192:generated/events_init.c **** 		 lv_obj_clear_flag(guider_ui.wave_model_btn_5, LV_OBJ_FLAG_HIDDEN);
 2046              		.loc 1 192 4 view .LVU472
 2047 04e4 0121     		movs	r1, #1
 2048 04e6 A06A     		ldr	r0, [r4, #40]
 2049 04e8 FFF7FEFF 		bl	lv_obj_clear_flag
 2050              	.LVL200:
 193:generated/events_init.c **** 		 lv_obj_clear_flag(guider_ui.wave_model_btn_6, LV_OBJ_FLAG_HIDDEN);
 2051              		.loc 1 193 4 view .LVU473
 2052 04ec 0121     		movs	r1, #1
 2053 04ee 206B     		ldr	r0, [r4, #48]
 2054 04f0 FFF7FEFF 		bl	lv_obj_clear_flag
 2055              	.LVL201:
ARM GAS  C:\usertemp\cclVsvnU.s 			page 58


 194:generated/events_init.c **** 		 lv_label_set_text(guider_ui.wave_model_btn_14_label, "Y-");
 2056              		.loc 1 194 4 view .LVU474
 2057 04f4 0121     		movs	r1, #1
 2058 04f6 A06B     		ldr	r0, [r4, #56]
 2059 04f8 FFF7FEFF 		bl	lv_obj_clear_flag
 2060              	.LVL202:
 195:generated/events_init.c **** 		 lv_label_set_text(guider_ui.wave_model_btn_9_label, "Y+");
 2061              		.loc 1 195 4 view .LVU475
 2062 04fc 0649     		ldr	r1, .L109+4
 2063 04fe D4F8DC00 		ldr	r0, [r4, #220]
 2064 0502 FFF7FEFF 		bl	lv_label_set_text
 2065              	.LVL203:
 196:generated/events_init.c **** 	 }
 2066              		.loc 1 196 4 view .LVU476
 2067 0506 0549     		ldr	r1, .L109+8
 2068 0508 D4F8B400 		ldr	r0, [r4, #180]
 2069 050c FFF7FEFF 		bl	lv_label_set_text
 2070              	.LVL204:
 2071 0510 87E5     		b	.L98
 2072              	.L110:
 2073 0512 00BF     		.align	2
 2074              	.L109:
 2075 0514 00000000 		.word	guider_ui
 2076 0518 00000000 		.word	.LC7
 2077 051c 04000000 		.word	.LC8
 2078              	.L105:
 201:generated/events_init.c **** 		 lv_obj_clear_flag(guider_ui.wave_model_btn_7, LV_OBJ_FLAG_HIDDEN);
 2079              		.loc 1 201 4 view .LVU477
 2080 0520 704C     		ldr	r4, .L111
 2081 0522 0121     		movs	r1, #1
 2082 0524 D4F8E000 		ldr	r0, [r4, #224]
 2083 0528 FFF7FEFF 		bl	lv_obj_add_flag
 2084              	.LVL205:
 202:generated/events_init.c **** 		 lv_obj_set_width(guider_ui.wave_model_chart_2, 520);
 2085              		.loc 1 202 4 view .LVU478
 2086 052c 0121     		movs	r1, #1
 2087 052e D4F89000 		ldr	r0, [r4, #144]
 2088 0532 FFF7FEFF 		bl	lv_obj_clear_flag
 2089              	.LVL206:
 203:generated/events_init.c **** 		 lv_obj_set_height(guider_ui.wave_model_chart_2, 280);
 2090              		.loc 1 203 4 view .LVU479
 2091 0536 4FF40271 		mov	r1, #520
 2092 053a D4F88C00 		ldr	r0, [r4, #140]
 2093 053e FFF7FEFF 		bl	lv_obj_set_width
 2094              	.LVL207:
 204:generated/events_init.c **** 		 lv_obj_set_pos(guider_ui.wave_model_chart_2, 47, 130);
 2095              		.loc 1 204 4 view .LVU480
 2096 0542 4FF48C71 		mov	r1, #280
 2097 0546 D4F88C00 		ldr	r0, [r4, #140]
 2098 054a FFF7FEFF 		bl	lv_obj_set_height
 2099              	.LVL208:
 205:generated/events_init.c **** 		 lv_obj_add_flag(guider_ui.wave_model_chart_2, LV_OBJ_FLAG_HIDDEN);
 2100              		.loc 1 205 4 view .LVU481
 2101 054e 8222     		movs	r2, #130
 2102 0550 2F21     		movs	r1, #47
 2103 0552 D4F88C00 		ldr	r0, [r4, #140]
 2104 0556 FFF7FEFF 		bl	lv_obj_set_pos
ARM GAS  C:\usertemp\cclVsvnU.s 			page 59


 2105              	.LVL209:
 206:generated/events_init.c **** 		 lv_obj_clear_flag(guider_ui.wave_model_num_1, LV_OBJ_FLAG_HIDDEN);
 2106              		.loc 1 206 4 view .LVU482
 2107 055a 0121     		movs	r1, #1
 2108 055c D4F88C00 		ldr	r0, [r4, #140]
 2109 0560 FFF7FEFF 		bl	lv_obj_add_flag
 2110              	.LVL210:
 207:generated/events_init.c **** 		 lv_obj_add_flag(guider_ui.wave_model_N_val, LV_OBJ_FLAG_HIDDEN);
 2111              		.loc 1 207 4 view .LVU483
 2112 0564 0121     		movs	r1, #1
 2113 0566 D4F88800 		ldr	r0, [r4, #136]
 2114 056a FFF7FEFF 		bl	lv_obj_clear_flag
 2115              	.LVL211:
 208:generated/events_init.c **** 		 lv_obj_add_flag(guider_ui.wave_model_label_25, LV_OBJ_FLAG_HIDDEN);
 2116              		.loc 1 208 4 view .LVU484
 2117 056e 0121     		movs	r1, #1
 2118 0570 D4F88400 		ldr	r0, [r4, #132]
 2119 0574 FFF7FEFF 		bl	lv_obj_add_flag
 2120              	.LVL212:
 209:generated/events_init.c **** 		 lv_obj_add_flag(guider_ui.wave_model_label_24, LV_OBJ_FLAG_HIDDEN);
 2121              		.loc 1 209 4 view .LVU485
 2122 0578 0121     		movs	r1, #1
 2123 057a D4F88000 		ldr	r0, [r4, #128]
 2124 057e FFF7FEFF 		bl	lv_obj_add_flag
 2125              	.LVL213:
 210:generated/events_init.c **** 		 lv_obj_add_flag(guider_ui.wave_model_label_23, LV_OBJ_FLAG_HIDDEN);
 2126              		.loc 1 210 4 view .LVU486
 2127 0582 0121     		movs	r1, #1
 2128 0584 E06F     		ldr	r0, [r4, #124]
 2129 0586 FFF7FEFF 		bl	lv_obj_add_flag
 2130              	.LVL214:
 211:generated/events_init.c **** 		 lv_obj_add_flag(guider_ui.wave_model_label_22, LV_OBJ_FLAG_HIDDEN);
 2131              		.loc 1 211 4 view .LVU487
 2132 058a 0121     		movs	r1, #1
 2133 058c A06F     		ldr	r0, [r4, #120]
 2134 058e FFF7FEFF 		bl	lv_obj_add_flag
 2135              	.LVL215:
 212:generated/events_init.c **** 		 lv_obj_add_flag(guider_ui.wave_model_label_21, LV_OBJ_FLAG_HIDDEN);
 2136              		.loc 1 212 4 view .LVU488
 2137 0592 0121     		movs	r1, #1
 2138 0594 606F     		ldr	r0, [r4, #116]
 2139 0596 FFF7FEFF 		bl	lv_obj_add_flag
 2140              	.LVL216:
 213:generated/events_init.c **** 		 lv_obj_set_width(guider_ui.wave_model_three_value, 120);
 2141              		.loc 1 213 4 view .LVU489
 2142 059a 0121     		movs	r1, #1
 2143 059c 206F     		ldr	r0, [r4, #112]
 2144 059e FFF7FEFF 		bl	lv_obj_add_flag
 2145              	.LVL217:
 214:generated/events_init.c **** 		 lv_obj_set_height(guider_ui.wave_model_three_value, 90);
 2146              		.loc 1 214 4 view .LVU490
 2147 05a2 7821     		movs	r1, #120
 2148 05a4 E06E     		ldr	r0, [r4, #108]
 2149 05a6 FFF7FEFF 		bl	lv_obj_set_width
 2150              	.LVL218:
 215:generated/events_init.c **** 		 lv_obj_add_flag(guider_ui.wave_model_three_value, LV_OBJ_FLAG_HIDDEN);
 2151              		.loc 1 215 4 view .LVU491
ARM GAS  C:\usertemp\cclVsvnU.s 			page 60


 2152 05aa 5A21     		movs	r1, #90
 2153 05ac E06E     		ldr	r0, [r4, #108]
 2154 05ae FFF7FEFF 		bl	lv_obj_set_height
 2155              	.LVL219:
 216:generated/events_init.c **** 		 lv_obj_set_width(guider_ui.wave_model_two_value, 120);
 2156              		.loc 1 216 4 view .LVU492
 2157 05b2 0121     		movs	r1, #1
 2158 05b4 E06E     		ldr	r0, [r4, #108]
 2159 05b6 FFF7FEFF 		bl	lv_obj_add_flag
 2160              	.LVL220:
 217:generated/events_init.c **** 		 lv_obj_set_height(guider_ui.wave_model_two_value, 90);
 2161              		.loc 1 217 4 view .LVU493
 2162 05ba 7821     		movs	r1, #120
 2163 05bc A06E     		ldr	r0, [r4, #104]
 2164 05be FFF7FEFF 		bl	lv_obj_set_width
 2165              	.LVL221:
 218:generated/events_init.c **** 		 lv_obj_add_flag(guider_ui.wave_model_two_value, LV_OBJ_FLAG_HIDDEN);
 2166              		.loc 1 218 4 view .LVU494
 2167 05c2 5A21     		movs	r1, #90
 2168 05c4 A06E     		ldr	r0, [r4, #104]
 2169 05c6 FFF7FEFF 		bl	lv_obj_set_height
 2170              	.LVL222:
 219:generated/events_init.c **** 		 lv_obj_set_width(guider_ui.wave_model_one_value, 120);
 2171              		.loc 1 219 4 view .LVU495
 2172 05ca 0121     		movs	r1, #1
 2173 05cc A06E     		ldr	r0, [r4, #104]
 2174 05ce FFF7FEFF 		bl	lv_obj_add_flag
 2175              	.LVL223:
 220:generated/events_init.c **** 		 lv_obj_set_height(guider_ui.wave_model_one_value, 90);
 2176              		.loc 1 220 4 view .LVU496
 2177 05d2 7821     		movs	r1, #120
 2178 05d4 606E     		ldr	r0, [r4, #100]
 2179 05d6 FFF7FEFF 		bl	lv_obj_set_width
 2180              	.LVL224:
 221:generated/events_init.c **** 		 lv_obj_add_flag(guider_ui.wave_model_one_value, LV_OBJ_FLAG_HIDDEN);
 2181              		.loc 1 221 4 view .LVU497
 2182 05da 5A21     		movs	r1, #90
 2183 05dc 606E     		ldr	r0, [r4, #100]
 2184 05de FFF7FEFF 		bl	lv_obj_set_height
 2185              	.LVL225:
 222:generated/events_init.c **** 		 lv_obj_add_flag(guider_ui.wave_model_N__, LV_OBJ_FLAG_HIDDEN);
 2186              		.loc 1 222 4 view .LVU498
 2187 05e2 0121     		movs	r1, #1
 2188 05e4 606E     		ldr	r0, [r4, #100]
 2189 05e6 FFF7FEFF 		bl	lv_obj_add_flag
 2190              	.LVL226:
 223:generated/events_init.c **** 		 lv_obj_set_pos(guider_ui.wave_model_num_1, 169, 100);
 2191              		.loc 1 223 4 view .LVU499
 2192 05ea 0121     		movs	r1, #1
 2193 05ec 206E     		ldr	r0, [r4, #96]
 2194 05ee FFF7FEFF 		bl	lv_obj_add_flag
 2195              	.LVL227:
 224:generated/events_init.c **** 		 lv_obj_set_pos(guider_ui.wave_model_three, 430, 98);
 2196              		.loc 1 224 4 view .LVU500
 2197 05f2 6422     		movs	r2, #100
 2198 05f4 A921     		movs	r1, #169
 2199 05f6 D4F88800 		ldr	r0, [r4, #136]
ARM GAS  C:\usertemp\cclVsvnU.s 			page 61


 2200 05fa FFF7FEFF 		bl	lv_obj_set_pos
 2201              	.LVL228:
 225:generated/events_init.c **** 		 lv_obj_set_pos(guider_ui.wave_model_two, 299, 98);
 2202              		.loc 1 225 4 view .LVU501
 2203 05fe 6222     		movs	r2, #98
 2204 0600 4FF4D771 		mov	r1, #430
 2205 0604 E06D     		ldr	r0, [r4, #92]
 2206 0606 FFF7FEFF 		bl	lv_obj_set_pos
 2207              	.LVL229:
 226:generated/events_init.c **** 		 lv_obj_set_pos(guider_ui.wave_model_red, 461, 95);
 2208              		.loc 1 226 4 view .LVU502
 2209 060a 6222     		movs	r2, #98
 2210 060c 40F22B11 		movw	r1, #299
 2211 0610 A06D     		ldr	r0, [r4, #88]
 2212 0612 FFF7FEFF 		bl	lv_obj_set_pos
 2213              	.LVL230:
 227:generated/events_init.c **** 		 lv_obj_set_pos(guider_ui.wave_model_green, 330, 95);
 2214              		.loc 1 227 4 view .LVU503
 2215 0616 5F22     		movs	r2, #95
 2216 0618 40F2CD11 		movw	r1, #461
 2217 061c 606D     		ldr	r0, [r4, #84]
 2218 061e FFF7FEFF 		bl	lv_obj_set_pos
 2219              	.LVL231:
 228:generated/events_init.c **** 		 lv_obj_set_pos(guider_ui.wave_model_yellow, 200, 95);
 2220              		.loc 1 228 4 view .LVU504
 2221 0622 5F22     		movs	r2, #95
 2222 0624 4FF4A571 		mov	r1, #330
 2223 0628 E06C     		ldr	r0, [r4, #76]
 2224 062a FFF7FEFF 		bl	lv_obj_set_pos
 2225              	.LVL232:
 229:generated/events_init.c **** 		 lv_obj_clear_flag(guider_ui.wave_model_three, LV_OBJ_FLAG_HIDDEN);
 2226              		.loc 1 229 4 view .LVU505
 2227 062e 5F22     		movs	r2, #95
 2228 0630 C821     		movs	r1, #200
 2229 0632 A06C     		ldr	r0, [r4, #72]
 2230 0634 FFF7FEFF 		bl	lv_obj_set_pos
 2231              	.LVL233:
 230:generated/events_init.c **** 		 lv_obj_clear_flag(guider_ui.wave_model_two, LV_OBJ_FLAG_HIDDEN);
 2232              		.loc 1 230 4 view .LVU506
 2233 0638 0121     		movs	r1, #1
 2234 063a E06D     		ldr	r0, [r4, #92]
 2235 063c FFF7FEFF 		bl	lv_obj_clear_flag
 2236              	.LVL234:
 231:generated/events_init.c **** 		 lv_obj_clear_flag(guider_ui.wave_model_red, LV_OBJ_FLAG_HIDDEN);
 2237              		.loc 1 231 4 view .LVU507
 2238 0640 0121     		movs	r1, #1
 2239 0642 A06D     		ldr	r0, [r4, #88]
 2240 0644 FFF7FEFF 		bl	lv_obj_clear_flag
 2241              	.LVL235:
 232:generated/events_init.c **** 		 lv_obj_add_flag(guider_ui.wave_model_blue, LV_OBJ_FLAG_HIDDEN);
 2242              		.loc 1 232 4 view .LVU508
 2243 0648 0121     		movs	r1, #1
 2244 064a 606D     		ldr	r0, [r4, #84]
 2245 064c FFF7FEFF 		bl	lv_obj_clear_flag
 2246              	.LVL236:
 233:generated/events_init.c **** 		 lv_obj_clear_flag(guider_ui.wave_model_green, LV_OBJ_FLAG_HIDDEN);
 2247              		.loc 1 233 4 view .LVU509
ARM GAS  C:\usertemp\cclVsvnU.s 			page 62


 2248 0650 0121     		movs	r1, #1
 2249 0652 206D     		ldr	r0, [r4, #80]
 2250 0654 FFF7FEFF 		bl	lv_obj_add_flag
 2251              	.LVL237:
 234:generated/events_init.c **** 		 lv_obj_clear_flag(guider_ui.wave_model_yellow, LV_OBJ_FLAG_HIDDEN);
 2252              		.loc 1 234 4 view .LVU510
 2253 0658 0121     		movs	r1, #1
 2254 065a E06C     		ldr	r0, [r4, #76]
 2255 065c FFF7FEFF 		bl	lv_obj_clear_flag
 2256              	.LVL238:
 235:generated/events_init.c **** 		 lv_obj_clear_flag(guider_ui.wave_model_freq, LV_OBJ_FLAG_HIDDEN);
 2257              		.loc 1 235 4 view .LVU511
 2258 0660 0121     		movs	r1, #1
 2259 0662 A06C     		ldr	r0, [r4, #72]
 2260 0664 FFF7FEFF 		bl	lv_obj_clear_flag
 2261              	.LVL239:
 236:generated/events_init.c **** 		 lv_obj_clear_flag(guider_ui.wave_model_power, LV_OBJ_FLAG_HIDDEN);
 2262              		.loc 1 236 4 view .LVU512
 2263 0668 0121     		movs	r1, #1
 2264 066a 606C     		ldr	r0, [r4, #68]
 2265 066c FFF7FEFF 		bl	lv_obj_clear_flag
 2266              	.LVL240:
 237:generated/events_init.c ****  
 2267              		.loc 1 237 4 view .LVU513
 2268 0670 0121     		movs	r1, #1
 2269 0672 206C     		ldr	r0, [r4, #64]
 2270 0674 FFF7FEFF 		bl	lv_obj_clear_flag
 2271              	.LVL241:
 239:generated/events_init.c **** 		 lv_obj_clear_flag(guider_ui.wave_model_btn_2, LV_OBJ_FLAG_HIDDEN);
 2272              		.loc 1 239 4 view .LVU514
 2273 0678 0121     		movs	r1, #1
 2274 067a 2069     		ldr	r0, [r4, #16]
 2275 067c FFF7FEFF 		bl	lv_obj_clear_flag
 2276              	.LVL242:
 240:generated/events_init.c **** 		 lv_obj_clear_flag(guider_ui.wave_model_btn_3, LV_OBJ_FLAG_HIDDEN);
 2277              		.loc 1 240 4 view .LVU515
 2278 0680 0121     		movs	r1, #1
 2279 0682 A069     		ldr	r0, [r4, #24]
 2280 0684 FFF7FEFF 		bl	lv_obj_clear_flag
 2281              	.LVL243:
 241:generated/events_init.c **** 		 lv_obj_clear_flag(guider_ui.wave_model_btn_4, LV_OBJ_FLAG_HIDDEN);
 2282              		.loc 1 241 4 view .LVU516
 2283 0688 0121     		movs	r1, #1
 2284 068a 206A     		ldr	r0, [r4, #32]
 2285 068c FFF7FEFF 		bl	lv_obj_clear_flag
 2286              	.LVL244:
 242:generated/events_init.c **** 		 lv_obj_clear_flag(guider_ui.wave_model_btn_5, LV_OBJ_FLAG_HIDDEN);
 2287              		.loc 1 242 4 view .LVU517
 2288 0690 0121     		movs	r1, #1
 2289 0692 A06A     		ldr	r0, [r4, #40]
 2290 0694 FFF7FEFF 		bl	lv_obj_clear_flag
 2291              	.LVL245:
 243:generated/events_init.c **** 		 lv_obj_clear_flag(guider_ui.wave_model_btn_6, LV_OBJ_FLAG_HIDDEN);
 2292              		.loc 1 243 4 view .LVU518
 2293 0698 0121     		movs	r1, #1
 2294 069a 206B     		ldr	r0, [r4, #48]
 2295 069c FFF7FEFF 		bl	lv_obj_clear_flag
ARM GAS  C:\usertemp\cclVsvnU.s 			page 63


 2296              	.LVL246:
 244:generated/events_init.c ****  
 2297              		.loc 1 244 4 view .LVU519
 2298 06a0 0121     		movs	r1, #1
 2299 06a2 A06B     		ldr	r0, [r4, #56]
 2300 06a4 FFF7FEFF 		bl	lv_obj_clear_flag
 2301              	.LVL247:
 246:generated/events_init.c **** 		 lv_obj_clear_flag(guider_ui.wave_model_table_1, LV_OBJ_FLAG_HIDDEN);
 2302              		.loc 1 246 4 view .LVU520
 2303 06a8 0121     		movs	r1, #1
 2304 06aa D4F89800 		ldr	r0, [r4, #152]
 2305 06ae FFF7FEFF 		bl	lv_obj_clear_flag
 2306              	.LVL248:
 247:generated/events_init.c **** 		 lv_obj_add_flag(guider_ui.wave_model_label_26, LV_OBJ_FLAG_HIDDEN);
 2307              		.loc 1 247 4 view .LVU521
 2308 06b2 0121     		movs	r1, #1
 2309 06b4 D4F8A000 		ldr	r0, [r4, #160]
 2310 06b8 FFF7FEFF 		bl	lv_obj_clear_flag
 2311              	.LVL249:
 248:generated/events_init.c **** 		 lv_obj_clear_flag(guider_ui.wave_model_digital_clock_1, LV_OBJ_FLAG_HIDDEN);
 2312              		.loc 1 248 4 view .LVU522
 2313 06bc 0121     		movs	r1, #1
 2314 06be D4F8A400 		ldr	r0, [r4, #164]
 2315 06c2 FFF7FEFF 		bl	lv_obj_add_flag
 2316              	.LVL250:
 249:generated/events_init.c **** 		 lv_obj_add_flag(guider_ui.wave_model_img_1, LV_OBJ_FLAG_HIDDEN);
 2317              		.loc 1 249 4 view .LVU523
 2318 06c6 0121     		movs	r1, #1
 2319 06c8 D4F8A800 		ldr	r0, [r4, #168]
 2320 06cc FFF7FEFF 		bl	lv_obj_clear_flag
 2321              	.LVL251:
 250:generated/events_init.c **** 		 lv_obj_add_flag(guider_ui.wave_model_table_2, LV_OBJ_FLAG_HIDDEN);
 2322              		.loc 1 250 4 view .LVU524
 2323 06d0 0121     		movs	r1, #1
 2324 06d2 D4F8AC00 		ldr	r0, [r4, #172]
 2325 06d6 FFF7FEFF 		bl	lv_obj_add_flag
 2326              	.LVL252:
 251:generated/events_init.c **** 	 }
 2327              		.loc 1 251 4 view .LVU525
 2328 06da 0121     		movs	r1, #1
 2329 06dc A068     		ldr	r0, [r4, #8]
 2330 06de FFF7FEFF 		bl	lv_obj_add_flag
 2331              	.LVL253:
 2332 06e2 A4E4     		b	.L99
 2333              	.L112:
 2334              		.align	2
 2335              	.L111:
 2336 06e4 00000000 		.word	guider_ui
 2337              	.L106:
 255:generated/events_init.c **** 		 lv_obj_clear_flag(guider_ui.wave_model_table_2, LV_OBJ_FLAG_HIDDEN);
 2338              		.loc 1 255 4 view .LVU526
 2339 06e8 6E4C     		ldr	r4, .L113
 2340 06ea 0121     		movs	r1, #1
 2341 06ec D4F8A000 		ldr	r0, [r4, #160]
 2342 06f0 FFF7FEFF 		bl	lv_obj_add_flag
 2343              	.LVL254:
 256:generated/events_init.c **** 		 lv_obj_clear_flag(guider_ui.wave_model_btn_7, LV_OBJ_FLAG_HIDDEN);
ARM GAS  C:\usertemp\cclVsvnU.s 			page 64


 2344              		.loc 1 256 4 view .LVU527
 2345 06f4 0121     		movs	r1, #1
 2346 06f6 A068     		ldr	r0, [r4, #8]
 2347 06f8 FFF7FEFF 		bl	lv_obj_clear_flag
 2348              	.LVL255:
 257:generated/events_init.c **** 		 lv_obj_set_width(guider_ui.wave_model_chart_2, 520);
 2349              		.loc 1 257 4 view .LVU528
 2350 06fc 0121     		movs	r1, #1
 2351 06fe D4F89000 		ldr	r0, [r4, #144]
 2352 0702 FFF7FEFF 		bl	lv_obj_clear_flag
 2353              	.LVL256:
 258:generated/events_init.c **** 		 lv_obj_set_height(guider_ui.wave_model_chart_2, 280);
 2354              		.loc 1 258 4 view .LVU529
 2355 0706 4FF40271 		mov	r1, #520
 2356 070a D4F88C00 		ldr	r0, [r4, #140]
 2357 070e FFF7FEFF 		bl	lv_obj_set_width
 2358              	.LVL257:
 259:generated/events_init.c **** 		 lv_obj_set_pos(guider_ui.wave_model_chart_2, 47, 130);
 2359              		.loc 1 259 4 view .LVU530
 2360 0712 4FF48C71 		mov	r1, #280
 2361 0716 D4F88C00 		ldr	r0, [r4, #140]
 2362 071a FFF7FEFF 		bl	lv_obj_set_height
 2363              	.LVL258:
 260:generated/events_init.c **** 		 lv_obj_add_flag(guider_ui.wave_model_chart_2, LV_OBJ_FLAG_HIDDEN);
 2364              		.loc 1 260 4 view .LVU531
 2365 071e 8222     		movs	r2, #130
 2366 0720 2F21     		movs	r1, #47
 2367 0722 D4F88C00 		ldr	r0, [r4, #140]
 2368 0726 FFF7FEFF 		bl	lv_obj_set_pos
 2369              	.LVL259:
 261:generated/events_init.c **** 		 lv_obj_set_pos(guider_ui.wave_model_num_1, 209, 70);
 2370              		.loc 1 261 4 view .LVU532
 2371 072a 0121     		movs	r1, #1
 2372 072c D4F88C00 		ldr	r0, [r4, #140]
 2373 0730 FFF7FEFF 		bl	lv_obj_add_flag
 2374              	.LVL260:
 262:generated/events_init.c **** 		 lv_obj_clear_flag(guider_ui.wave_model_num_1, LV_OBJ_FLAG_HIDDEN);
 2375              		.loc 1 262 4 view .LVU533
 2376 0734 4622     		movs	r2, #70
 2377 0736 D121     		movs	r1, #209
 2378 0738 D4F88800 		ldr	r0, [r4, #136]
 2379 073c FFF7FEFF 		bl	lv_obj_set_pos
 2380              	.LVL261:
 263:generated/events_init.c **** 		 lv_obj_add_flag(guider_ui.wave_model_N_val, LV_OBJ_FLAG_HIDDEN);
 2381              		.loc 1 263 4 view .LVU534
 2382 0740 0121     		movs	r1, #1
 2383 0742 D4F88800 		ldr	r0, [r4, #136]
 2384 0746 FFF7FEFF 		bl	lv_obj_clear_flag
 2385              	.LVL262:
 264:generated/events_init.c **** 		 lv_obj_add_flag(guider_ui.wave_model_label_25, LV_OBJ_FLAG_HIDDEN);
 2386              		.loc 1 264 4 view .LVU535
 2387 074a 0121     		movs	r1, #1
 2388 074c D4F88400 		ldr	r0, [r4, #132]
 2389 0750 FFF7FEFF 		bl	lv_obj_add_flag
 2390              	.LVL263:
 265:generated/events_init.c **** 		 lv_obj_add_flag(guider_ui.wave_model_label_24, LV_OBJ_FLAG_HIDDEN);
 2391              		.loc 1 265 4 view .LVU536
ARM GAS  C:\usertemp\cclVsvnU.s 			page 65


 2392 0754 0121     		movs	r1, #1
 2393 0756 D4F88000 		ldr	r0, [r4, #128]
 2394 075a FFF7FEFF 		bl	lv_obj_add_flag
 2395              	.LVL264:
 266:generated/events_init.c **** 		 lv_obj_add_flag(guider_ui.wave_model_label_23, LV_OBJ_FLAG_HIDDEN);
 2396              		.loc 1 266 4 view .LVU537
 2397 075e 0121     		movs	r1, #1
 2398 0760 E06F     		ldr	r0, [r4, #124]
 2399 0762 FFF7FEFF 		bl	lv_obj_add_flag
 2400              	.LVL265:
 267:generated/events_init.c **** 		 lv_obj_add_flag(guider_ui.wave_model_label_22, LV_OBJ_FLAG_HIDDEN);
 2401              		.loc 1 267 4 view .LVU538
 2402 0766 0121     		movs	r1, #1
 2403 0768 A06F     		ldr	r0, [r4, #120]
 2404 076a FFF7FEFF 		bl	lv_obj_add_flag
 2405              	.LVL266:
 268:generated/events_init.c **** 		 lv_obj_add_flag(guider_ui.wave_model_label_21, LV_OBJ_FLAG_HIDDEN);
 2406              		.loc 1 268 4 view .LVU539
 2407 076e 0121     		movs	r1, #1
 2408 0770 606F     		ldr	r0, [r4, #116]
 2409 0772 FFF7FEFF 		bl	lv_obj_add_flag
 2410              	.LVL267:
 269:generated/events_init.c **** 		 lv_obj_set_width(guider_ui.wave_model_three_value, 120);
 2411              		.loc 1 269 4 view .LVU540
 2412 0776 0121     		movs	r1, #1
 2413 0778 206F     		ldr	r0, [r4, #112]
 2414 077a FFF7FEFF 		bl	lv_obj_add_flag
 2415              	.LVL268:
 270:generated/events_init.c **** 		 lv_obj_set_height(guider_ui.wave_model_three_value, 90);
 2416              		.loc 1 270 4 view .LVU541
 2417 077e 7821     		movs	r1, #120
 2418 0780 E06E     		ldr	r0, [r4, #108]
 2419 0782 FFF7FEFF 		bl	lv_obj_set_width
 2420              	.LVL269:
 271:generated/events_init.c **** 		 lv_obj_add_flag(guider_ui.wave_model_three_value, LV_OBJ_FLAG_HIDDEN);
 2421              		.loc 1 271 4 view .LVU542
 2422 0786 5A21     		movs	r1, #90
 2423 0788 E06E     		ldr	r0, [r4, #108]
 2424 078a FFF7FEFF 		bl	lv_obj_set_height
 2425              	.LVL270:
 272:generated/events_init.c **** 		 lv_obj_set_width(guider_ui.wave_model_two_value, 120);
 2426              		.loc 1 272 4 view .LVU543
 2427 078e 0121     		movs	r1, #1
 2428 0790 E06E     		ldr	r0, [r4, #108]
 2429 0792 FFF7FEFF 		bl	lv_obj_add_flag
 2430              	.LVL271:
 273:generated/events_init.c **** 		 lv_obj_set_height(guider_ui.wave_model_two_value, 90);
 2431              		.loc 1 273 4 view .LVU544
 2432 0796 7821     		movs	r1, #120
 2433 0798 A06E     		ldr	r0, [r4, #104]
 2434 079a FFF7FEFF 		bl	lv_obj_set_width
 2435              	.LVL272:
 274:generated/events_init.c **** 		 lv_obj_add_flag(guider_ui.wave_model_two_value, LV_OBJ_FLAG_HIDDEN);
 2436              		.loc 1 274 4 view .LVU545
 2437 079e 5A21     		movs	r1, #90
 2438 07a0 A06E     		ldr	r0, [r4, #104]
 2439 07a2 FFF7FEFF 		bl	lv_obj_set_height
ARM GAS  C:\usertemp\cclVsvnU.s 			page 66


 2440              	.LVL273:
 275:generated/events_init.c **** 		 lv_obj_set_width(guider_ui.wave_model_one_value, 120);
 2441              		.loc 1 275 4 view .LVU546
 2442 07a6 0121     		movs	r1, #1
 2443 07a8 A06E     		ldr	r0, [r4, #104]
 2444 07aa FFF7FEFF 		bl	lv_obj_add_flag
 2445              	.LVL274:
 276:generated/events_init.c **** 		 lv_obj_set_height(guider_ui.wave_model_one_value, 90);
 2446              		.loc 1 276 4 view .LVU547
 2447 07ae 7821     		movs	r1, #120
 2448 07b0 606E     		ldr	r0, [r4, #100]
 2449 07b2 FFF7FEFF 		bl	lv_obj_set_width
 2450              	.LVL275:
 277:generated/events_init.c **** 		 lv_obj_add_flag(guider_ui.wave_model_one_value, LV_OBJ_FLAG_HIDDEN);
 2451              		.loc 1 277 4 view .LVU548
 2452 07b6 5A21     		movs	r1, #90
 2453 07b8 606E     		ldr	r0, [r4, #100]
 2454 07ba FFF7FEFF 		bl	lv_obj_set_height
 2455              	.LVL276:
 278:generated/events_init.c **** 		 lv_obj_add_flag(guider_ui.wave_model_N__, LV_OBJ_FLAG_HIDDEN);
 2456              		.loc 1 278 4 view .LVU549
 2457 07be 0121     		movs	r1, #1
 2458 07c0 606E     		ldr	r0, [r4, #100]
 2459 07c2 FFF7FEFF 		bl	lv_obj_add_flag
 2460              	.LVL277:
 279:generated/events_init.c **** 		 lv_obj_set_pos(guider_ui.wave_model_three, 470, 68);
 2461              		.loc 1 279 4 view .LVU550
 2462 07c6 0121     		movs	r1, #1
 2463 07c8 206E     		ldr	r0, [r4, #96]
 2464 07ca FFF7FEFF 		bl	lv_obj_add_flag
 2465              	.LVL278:
 280:generated/events_init.c **** 		 lv_obj_clear_flag(guider_ui.wave_model_three, LV_OBJ_FLAG_HIDDEN);
 2466              		.loc 1 280 4 view .LVU551
 2467 07ce 4422     		movs	r2, #68
 2468 07d0 4FF4EB71 		mov	r1, #470
 2469 07d4 E06D     		ldr	r0, [r4, #92]
 2470 07d6 FFF7FEFF 		bl	lv_obj_set_pos
 2471              	.LVL279:
 281:generated/events_init.c **** 		 lv_obj_set_pos(guider_ui.wave_model_two, 339, 68);
 2472              		.loc 1 281 4 view .LVU552
 2473 07da 0121     		movs	r1, #1
 2474 07dc E06D     		ldr	r0, [r4, #92]
 2475 07de FFF7FEFF 		bl	lv_obj_clear_flag
 2476              	.LVL280:
 282:generated/events_init.c **** 		 lv_obj_clear_flag(guider_ui.wave_model_two, LV_OBJ_FLAG_HIDDEN);
 2477              		.loc 1 282 4 view .LVU553
 2478 07e2 4422     		movs	r2, #68
 2479 07e4 40F25311 		movw	r1, #339
 2480 07e8 A06D     		ldr	r0, [r4, #88]
 2481 07ea FFF7FEFF 		bl	lv_obj_set_pos
 2482              	.LVL281:
 283:generated/events_init.c **** 		 lv_obj_set_pos(guider_ui.wave_model_red, 501, 65);
 2483              		.loc 1 283 4 view .LVU554
 2484 07ee 0121     		movs	r1, #1
 2485 07f0 A06D     		ldr	r0, [r4, #88]
 2486 07f2 FFF7FEFF 		bl	lv_obj_clear_flag
 2487              	.LVL282:
ARM GAS  C:\usertemp\cclVsvnU.s 			page 67


 284:generated/events_init.c **** 		 lv_obj_clear_flag(guider_ui.wave_model_red, LV_OBJ_FLAG_HIDDEN);
 2488              		.loc 1 284 4 view .LVU555
 2489 07f6 4122     		movs	r2, #65
 2490 07f8 40F2F511 		movw	r1, #501
 2491 07fc 606D     		ldr	r0, [r4, #84]
 2492 07fe FFF7FEFF 		bl	lv_obj_set_pos
 2493              	.LVL283:
 285:generated/events_init.c **** 		 lv_obj_add_flag(guider_ui.wave_model_blue, LV_OBJ_FLAG_HIDDEN);
 2494              		.loc 1 285 4 view .LVU556
 2495 0802 0121     		movs	r1, #1
 2496 0804 606D     		ldr	r0, [r4, #84]
 2497 0806 FFF7FEFF 		bl	lv_obj_clear_flag
 2498              	.LVL284:
 286:generated/events_init.c **** 		 lv_obj_set_pos(guider_ui.wave_model_green, 370, 65);
 2499              		.loc 1 286 4 view .LVU557
 2500 080a 0121     		movs	r1, #1
 2501 080c 206D     		ldr	r0, [r4, #80]
 2502 080e FFF7FEFF 		bl	lv_obj_add_flag
 2503              	.LVL285:
 287:generated/events_init.c **** 		 lv_obj_clear_flag(guider_ui.wave_model_green, LV_OBJ_FLAG_HIDDEN);
 2504              		.loc 1 287 4 view .LVU558
 2505 0812 4122     		movs	r2, #65
 2506 0814 4FF4B971 		mov	r1, #370
 2507 0818 E06C     		ldr	r0, [r4, #76]
 2508 081a FFF7FEFF 		bl	lv_obj_set_pos
 2509              	.LVL286:
 288:generated/events_init.c **** 		 lv_obj_set_pos(guider_ui.wave_model_yellow, 240, 65);
 2510              		.loc 1 288 4 view .LVU559
 2511 081e 0121     		movs	r1, #1
 2512 0820 E06C     		ldr	r0, [r4, #76]
 2513 0822 FFF7FEFF 		bl	lv_obj_clear_flag
 2514              	.LVL287:
 289:generated/events_init.c **** 		 lv_obj_clear_flag(guider_ui.wave_model_yellow, LV_OBJ_FLAG_HIDDEN);
 2515              		.loc 1 289 4 view .LVU560
 2516 0826 4122     		movs	r2, #65
 2517 0828 F021     		movs	r1, #240
 2518 082a A06C     		ldr	r0, [r4, #72]
 2519 082c FFF7FEFF 		bl	lv_obj_set_pos
 2520              	.LVL288:
 290:generated/events_init.c **** 		 lv_obj_clear_flag(guider_ui.wave_model_freq, LV_OBJ_FLAG_HIDDEN);
 2521              		.loc 1 290 4 view .LVU561
 2522 0830 0121     		movs	r1, #1
 2523 0832 A06C     		ldr	r0, [r4, #72]
 2524 0834 FFF7FEFF 		bl	lv_obj_clear_flag
 2525              	.LVL289:
 291:generated/events_init.c **** 		 lv_obj_clear_flag(guider_ui.wave_model_power, LV_OBJ_FLAG_HIDDEN);
 2526              		.loc 1 291 4 view .LVU562
 2527 0838 0121     		movs	r1, #1
 2528 083a 606C     		ldr	r0, [r4, #68]
 2529 083c FFF7FEFF 		bl	lv_obj_clear_flag
 2530              	.LVL290:
 292:generated/events_init.c **** 		 lv_obj_clear_flag(guider_ui.wave_model_btn_1, LV_OBJ_FLAG_HIDDEN);
 2531              		.loc 1 292 4 view .LVU563
 2532 0840 0121     		movs	r1, #1
 2533 0842 206C     		ldr	r0, [r4, #64]
 2534 0844 FFF7FEFF 		bl	lv_obj_clear_flag
 2535              	.LVL291:
ARM GAS  C:\usertemp\cclVsvnU.s 			page 68


 293:generated/events_init.c **** 		 lv_obj_clear_flag(guider_ui.wave_model_btn_2, LV_OBJ_FLAG_HIDDEN);
 2536              		.loc 1 293 4 view .LVU564
 2537 0848 0121     		movs	r1, #1
 2538 084a 2069     		ldr	r0, [r4, #16]
 2539 084c FFF7FEFF 		bl	lv_obj_clear_flag
 2540              	.LVL292:
 294:generated/events_init.c **** 		 lv_obj_clear_flag(guider_ui.wave_model_btn_3, LV_OBJ_FLAG_HIDDEN);
 2541              		.loc 1 294 4 view .LVU565
 2542 0850 0121     		movs	r1, #1
 2543 0852 A069     		ldr	r0, [r4, #24]
 2544 0854 FFF7FEFF 		bl	lv_obj_clear_flag
 2545              	.LVL293:
 295:generated/events_init.c **** 		 lv_obj_clear_flag(guider_ui.wave_model_btn_4, LV_OBJ_FLAG_HIDDEN);
 2546              		.loc 1 295 4 view .LVU566
 2547 0858 0121     		movs	r1, #1
 2548 085a 206A     		ldr	r0, [r4, #32]
 2549 085c FFF7FEFF 		bl	lv_obj_clear_flag
 2550              	.LVL294:
 296:generated/events_init.c **** 		 lv_obj_clear_flag(guider_ui.wave_model_btn_5, LV_OBJ_FLAG_HIDDEN);
 2551              		.loc 1 296 4 view .LVU567
 2552 0860 0121     		movs	r1, #1
 2553 0862 A06A     		ldr	r0, [r4, #40]
 2554 0864 FFF7FEFF 		bl	lv_obj_clear_flag
 2555              	.LVL295:
 297:generated/events_init.c **** 		 lv_obj_clear_flag(guider_ui.wave_model_btn_6, LV_OBJ_FLAG_HIDDEN);
 2556              		.loc 1 297 4 view .LVU568
 2557 0868 0121     		movs	r1, #1
 2558 086a 206B     		ldr	r0, [r4, #48]
 2559 086c FFF7FEFF 		bl	lv_obj_clear_flag
 2560              	.LVL296:
 298:generated/events_init.c **** 		 lv_obj_clear_flag(guider_ui.wave_model_btn_8, LV_OBJ_FLAG_HIDDEN);
 2561              		.loc 1 298 4 view .LVU569
 2562 0870 0121     		movs	r1, #1
 2563 0872 A06B     		ldr	r0, [r4, #56]
 2564 0874 FFF7FEFF 		bl	lv_obj_clear_flag
 2565              	.LVL297:
 299:generated/events_init.c **** 		 // lv_obj_clear_flag(guider_ui.wave_model_table_1, LV_OBJ_FLAG_HIDDEN);
 2566              		.loc 1 299 4 view .LVU570
 2567 0878 0121     		movs	r1, #1
 2568 087a D4F89800 		ldr	r0, [r4, #152]
 2569 087e FFF7FEFF 		bl	lv_obj_clear_flag
 2570              	.LVL298:
 301:generated/events_init.c **** 		 lv_obj_clear_flag(guider_ui.wave_model_digital_clock_1, LV_OBJ_FLAG_HIDDEN);
 2571              		.loc 1 301 4 view .LVU571
 2572 0882 0121     		movs	r1, #1
 2573 0884 D4F8A400 		ldr	r0, [r4, #164]
 2574 0888 FFF7FEFF 		bl	lv_obj_clear_flag
 2575              	.LVL299:
 302:generated/events_init.c **** 		 lv_obj_add_flag(guider_ui.wave_model_img_1, LV_OBJ_FLAG_HIDDEN);
 2576              		.loc 1 302 4 view .LVU572
 2577 088c 0121     		movs	r1, #1
 2578 088e D4F8A800 		ldr	r0, [r4, #168]
 2579 0892 FFF7FEFF 		bl	lv_obj_clear_flag
 2580              	.LVL300:
 303:generated/events_init.c **** 	 }
 2581              		.loc 1 303 4 view .LVU573
 2582 0896 0121     		movs	r1, #1
ARM GAS  C:\usertemp\cclVsvnU.s 			page 69


 2583 0898 D4F8AC00 		ldr	r0, [r4, #172]
 2584 089c FFF7FEFF 		bl	lv_obj_add_flag
 2585              	.LVL301:
 305:generated/events_init.c ****  
 2586              		.loc 1 305 2 is_stmt 0 view .LVU574
 2587 08a0 FFF7CBBB 		b	.L95
 2588              	.L114:
 2589              		.align	2
 2590              	.L113:
 2591 08a4 00000000 		.word	guider_ui
 2592              		.cfi_endproc
 2593              	.LFE575:
 2595              		.section	.text.wave_model_btn_8_event_handler,"ax",%progbits
 2596              		.align	1
 2597              		.syntax unified
 2598              		.thumb
 2599              		.thumb_func
 2601              	wave_model_btn_8_event_handler:
 2602              	.LVL302:
 2603              	.LFB579:
 409:generated/events_init.c **** 	 lv_event_code_t code = lv_event_get_code(e);
 2604              		.loc 1 409 2 is_stmt 1 view -0
 2605              		.cfi_startproc
 2606              		@ args = 0, pretend = 0, frame = 0
 2607              		@ frame_needed = 0, uses_anonymous_args = 0
 409:generated/events_init.c **** 	 lv_event_code_t code = lv_event_get_code(e);
 2608              		.loc 1 409 2 is_stmt 0 view .LVU576
 2609 0000 08B5     		push	{r3, lr}
 2610              	.LCFI20:
 2611              		.cfi_def_cfa_offset 8
 2612              		.cfi_offset 3, -8
 2613              		.cfi_offset 14, -4
 410:generated/events_init.c ****  
 2614              		.loc 1 410 3 is_stmt 1 view .LVU577
 410:generated/events_init.c ****  
 2615              		.loc 1 410 26 is_stmt 0 view .LVU578
 2616 0002 FFF7FEFF 		bl	lv_event_get_code
 2617              	.LVL303:
 412:generated/events_init.c **** 	 {
 2618              		.loc 1 412 3 is_stmt 1 view .LVU579
 2619 0006 0728     		cmp	r0, #7
 2620 0008 00D0     		beq	.L119
 2621              	.LVL304:
 2622              	.L115:
 426:generated/events_init.c ****  
 2623              		.loc 1 426 2 is_stmt 0 view .LVU580
 2624 000a 08BD     		pop	{r3, pc}
 2625              	.LVL305:
 2626              	.L119:
 416:generated/events_init.c **** 		 if (page < 0)
 2627              		.loc 1 416 4 is_stmt 1 view .LVU581
 416:generated/events_init.c **** 		 if (page < 0)
 2628              		.loc 1 416 8 is_stmt 0 view .LVU582
 2629 000c 064A     		ldr	r2, .L121
 2630 000e 1378     		ldrb	r3, [r2]	@ zero_extendqisi2
 2631 0010 013B     		subs	r3, r3, #1
 2632 0012 5BB2     		sxtb	r3, r3
ARM GAS  C:\usertemp\cclVsvnU.s 			page 70


 2633 0014 1370     		strb	r3, [r2]
 417:generated/events_init.c **** 			 page = 4;
 2634              		.loc 1 417 4 is_stmt 1 view .LVU583
 417:generated/events_init.c **** 			 page = 4;
 2635              		.loc 1 417 7 is_stmt 0 view .LVU584
 2636 0016 002B     		cmp	r3, #0
 2637 0018 02DB     		blt	.L120
 2638              	.L117:
 420:generated/events_init.c **** 		 break;
 2639              		.loc 1 420 4 is_stmt 1 view .LVU585
 2640 001a FFF7FEFF 		bl	page_switch
 2641              	.LVL306:
 421:generated/events_init.c **** 	 }
 2642              		.loc 1 421 4 view .LVU586
 426:generated/events_init.c ****  
 2643              		.loc 1 426 2 is_stmt 0 view .LVU587
 2644 001e F4E7     		b	.L115
 2645              	.LVL307:
 2646              	.L120:
 418:generated/events_init.c ****  
 2647              		.loc 1 418 5 is_stmt 1 view .LVU588
 418:generated/events_init.c ****  
 2648              		.loc 1 418 10 is_stmt 0 view .LVU589
 2649 0020 1346     		mov	r3, r2
 2650 0022 0422     		movs	r2, #4
 2651 0024 1A70     		strb	r2, [r3]
 2652 0026 F8E7     		b	.L117
 2653              	.L122:
 2654              		.align	2
 2655              	.L121:
 2656 0028 00000000 		.word	page
 2657              		.cfi_endproc
 2658              	.LFE579:
 2660              		.section	.text.wave_model_btn_7_event_handler,"ax",%progbits
 2661              		.align	1
 2662              		.syntax unified
 2663              		.thumb
 2664              		.thumb_func
 2666              	wave_model_btn_7_event_handler:
 2667              	.LVL308:
 2668              	.LFB578:
 390:generated/events_init.c **** 	 lv_event_code_t code = lv_event_get_code(e);
 2669              		.loc 1 390 2 is_stmt 1 view -0
 2670              		.cfi_startproc
 2671              		@ args = 0, pretend = 0, frame = 0
 2672              		@ frame_needed = 0, uses_anonymous_args = 0
 390:generated/events_init.c **** 	 lv_event_code_t code = lv_event_get_code(e);
 2673              		.loc 1 390 2 is_stmt 0 view .LVU591
 2674 0000 08B5     		push	{r3, lr}
 2675              	.LCFI21:
 2676              		.cfi_def_cfa_offset 8
 2677              		.cfi_offset 3, -8
 2678              		.cfi_offset 14, -4
 391:generated/events_init.c ****  
 2679              		.loc 1 391 3 is_stmt 1 view .LVU592
 391:generated/events_init.c ****  
 2680              		.loc 1 391 26 is_stmt 0 view .LVU593
ARM GAS  C:\usertemp\cclVsvnU.s 			page 71


 2681 0002 FFF7FEFF 		bl	lv_event_get_code
 2682              	.LVL309:
 393:generated/events_init.c **** 	 {
 2683              		.loc 1 393 3 is_stmt 1 view .LVU594
 2684 0006 0728     		cmp	r0, #7
 2685 0008 00D0     		beq	.L127
 2686              	.LVL310:
 2687              	.L123:
 407:generated/events_init.c ****  static void wave_model_btn_8_event_handler(lv_event_t *e)
 2688              		.loc 1 407 2 is_stmt 0 view .LVU595
 2689 000a 08BD     		pop	{r3, pc}
 2690              	.LVL311:
 2691              	.L127:
 397:generated/events_init.c **** 		 if (page > 4)
 2692              		.loc 1 397 4 is_stmt 1 view .LVU596
 397:generated/events_init.c **** 		 if (page > 4)
 2693              		.loc 1 397 8 is_stmt 0 view .LVU597
 2694 000c 064A     		ldr	r2, .L128
 2695 000e 1378     		ldrb	r3, [r2]	@ zero_extendqisi2
 2696 0010 0133     		adds	r3, r3, #1
 2697 0012 5BB2     		sxtb	r3, r3
 2698 0014 1370     		strb	r3, [r2]
 398:generated/events_init.c **** 			 page = 0;
 2699              		.loc 1 398 4 is_stmt 1 view .LVU598
 398:generated/events_init.c **** 			 page = 0;
 2700              		.loc 1 398 7 is_stmt 0 view .LVU599
 2701 0016 042B     		cmp	r3, #4
 2702 0018 02DD     		ble	.L125
 399:generated/events_init.c **** 		 page_switch();
 2703              		.loc 1 399 5 is_stmt 1 view .LVU600
 399:generated/events_init.c **** 		 page_switch();
 2704              		.loc 1 399 10 is_stmt 0 view .LVU601
 2705 001a 1346     		mov	r3, r2
 2706 001c 0022     		movs	r2, #0
 2707 001e 1A70     		strb	r2, [r3]
 2708              	.L125:
 400:generated/events_init.c ****  
 2709              		.loc 1 400 4 is_stmt 1 view .LVU602
 2710 0020 FFF7FEFF 		bl	page_switch
 2711              	.LVL312:
 402:generated/events_init.c **** 	 }
 2712              		.loc 1 402 4 view .LVU603
 407:generated/events_init.c ****  static void wave_model_btn_8_event_handler(lv_event_t *e)
 2713              		.loc 1 407 2 is_stmt 0 view .LVU604
 2714 0024 F1E7     		b	.L123
 2715              	.L129:
 2716 0026 00BF     		.align	2
 2717              	.L128:
 2718 0028 00000000 		.word	page
 2719              		.cfi_endproc
 2720              	.LFE578:
 2722              		.section	.text.events_init_wave_model,"ax",%progbits
 2723              		.align	1
 2724              		.global	events_init_wave_model
 2725              		.syntax unified
 2726              		.thumb
 2727              		.thumb_func
ARM GAS  C:\usertemp\cclVsvnU.s 			page 72


 2729              	events_init_wave_model:
 2730              	.LVL313:
 2731              	.LFB591:
 729:generated/events_init.c **** 	 lv_obj_add_event_cb(ui->wave_model, wave_model_event_handler, LV_EVENT_ALL, NULL);
 2732              		.loc 1 729 2 is_stmt 1 view -0
 2733              		.cfi_startproc
 2734              		@ args = 0, pretend = 0, frame = 0
 2735              		@ frame_needed = 0, uses_anonymous_args = 0
 729:generated/events_init.c **** 	 lv_obj_add_event_cb(ui->wave_model, wave_model_event_handler, LV_EVENT_ALL, NULL);
 2736              		.loc 1 729 2 is_stmt 0 view .LVU606
 2737 0000 10B5     		push	{r4, lr}
 2738              	.LCFI22:
 2739              		.cfi_def_cfa_offset 8
 2740              		.cfi_offset 4, -8
 2741              		.cfi_offset 14, -4
 2742 0002 0446     		mov	r4, r0
 730:generated/events_init.c **** 	 lv_obj_add_event_cb(ui->wave_model_btn_1, wave_model_btn_1_event_handler, LV_EVENT_ALL, NULL);
 2743              		.loc 1 730 3 is_stmt 1 view .LVU607
 2744 0004 0023     		movs	r3, #0
 2745 0006 1A46     		mov	r2, r3
 2746 0008 3049     		ldr	r1, .L132
 2747 000a 0068     		ldr	r0, [r0]
 2748              	.LVL314:
 730:generated/events_init.c **** 	 lv_obj_add_event_cb(ui->wave_model_btn_1, wave_model_btn_1_event_handler, LV_EVENT_ALL, NULL);
 2749              		.loc 1 730 3 is_stmt 0 view .LVU608
 2750 000c FFF7FEFF 		bl	lv_obj_add_event_cb
 2751              	.LVL315:
 731:generated/events_init.c **** 	 lv_obj_add_event_cb(ui->wave_model_btn_2, wave_model_btn_2_event_handler, LV_EVENT_ALL, NULL);
 2752              		.loc 1 731 3 is_stmt 1 view .LVU609
 2753 0010 0023     		movs	r3, #0
 2754 0012 1A46     		mov	r2, r3
 2755 0014 2E49     		ldr	r1, .L132+4
 2756 0016 2069     		ldr	r0, [r4, #16]
 2757 0018 FFF7FEFF 		bl	lv_obj_add_event_cb
 2758              	.LVL316:
 732:generated/events_init.c **** 	 lv_obj_add_event_cb(ui->wave_model_btn_3, wave_model_btn_3_event_handler, LV_EVENT_ALL, NULL);
 2759              		.loc 1 732 3 view .LVU610
 2760 001c 0023     		movs	r3, #0
 2761 001e 1A46     		mov	r2, r3
 2762 0020 2C49     		ldr	r1, .L132+8
 2763 0022 A069     		ldr	r0, [r4, #24]
 2764 0024 FFF7FEFF 		bl	lv_obj_add_event_cb
 2765              	.LVL317:
 733:generated/events_init.c **** 	 lv_obj_add_event_cb(ui->wave_model_btn_4, wave_model_btn_4_event_handler, LV_EVENT_ALL, NULL);
 2766              		.loc 1 733 3 view .LVU611
 2767 0028 0023     		movs	r3, #0
 2768 002a 1A46     		mov	r2, r3
 2769 002c 2A49     		ldr	r1, .L132+12
 2770 002e 206A     		ldr	r0, [r4, #32]
 2771 0030 FFF7FEFF 		bl	lv_obj_add_event_cb
 2772              	.LVL318:
 734:generated/events_init.c **** 	 lv_obj_add_event_cb(ui->wave_model_btn_5, wave_model_btn_5_event_handler, LV_EVENT_ALL, NULL);
 2773              		.loc 1 734 3 view .LVU612
 2774 0034 0023     		movs	r3, #0
 2775 0036 1A46     		mov	r2, r3
 2776 0038 2849     		ldr	r1, .L132+16
 2777 003a A06A     		ldr	r0, [r4, #40]
ARM GAS  C:\usertemp\cclVsvnU.s 			page 73


 2778 003c FFF7FEFF 		bl	lv_obj_add_event_cb
 2779              	.LVL319:
 735:generated/events_init.c **** 	 lv_obj_add_event_cb(ui->wave_model_btn_6, wave_model_btn_6_event_handler, LV_EVENT_ALL, NULL);
 2780              		.loc 1 735 3 view .LVU613
 2781 0040 0023     		movs	r3, #0
 2782 0042 1A46     		mov	r2, r3
 2783 0044 2649     		ldr	r1, .L132+20
 2784 0046 206B     		ldr	r0, [r4, #48]
 2785 0048 FFF7FEFF 		bl	lv_obj_add_event_cb
 2786              	.LVL320:
 736:generated/events_init.c **** 	 lv_obj_add_event_cb(ui->wave_model_btn_7, wave_model_btn_7_event_handler, LV_EVENT_ALL, NULL);
 2787              		.loc 1 736 3 view .LVU614
 2788 004c 0023     		movs	r3, #0
 2789 004e 1A46     		mov	r2, r3
 2790 0050 2449     		ldr	r1, .L132+24
 2791 0052 A06B     		ldr	r0, [r4, #56]
 2792 0054 FFF7FEFF 		bl	lv_obj_add_event_cb
 2793              	.LVL321:
 737:generated/events_init.c **** 	 lv_obj_add_event_cb(ui->wave_model_btn_8, wave_model_btn_8_event_handler, LV_EVENT_ALL, NULL);
 2794              		.loc 1 737 3 view .LVU615
 2795 0058 0023     		movs	r3, #0
 2796 005a 1A46     		mov	r2, r3
 2797 005c 2249     		ldr	r1, .L132+28
 2798 005e D4F89000 		ldr	r0, [r4, #144]
 2799 0062 FFF7FEFF 		bl	lv_obj_add_event_cb
 2800              	.LVL322:
 738:generated/events_init.c **** 	 lv_obj_add_event_cb(ui->wave_model_btn_9, wave_model_btn_9_event_handler, LV_EVENT_ALL, NULL);
 2801              		.loc 1 738 3 view .LVU616
 2802 0066 0023     		movs	r3, #0
 2803 0068 1A46     		mov	r2, r3
 2804 006a 2049     		ldr	r1, .L132+32
 2805 006c D4F89800 		ldr	r0, [r4, #152]
 2806 0070 FFF7FEFF 		bl	lv_obj_add_event_cb
 2807              	.LVL323:
 739:generated/events_init.c **** 	 lv_obj_add_event_cb(ui->wave_model_btn_10, wave_model_btn_10_event_handler, LV_EVENT_ALL, NULL);
 2808              		.loc 1 739 3 view .LVU617
 2809 0074 0023     		movs	r3, #0
 2810 0076 1A46     		mov	r2, r3
 2811 0078 1D49     		ldr	r1, .L132+36
 2812 007a D4F8B000 		ldr	r0, [r4, #176]
 2813 007e FFF7FEFF 		bl	lv_obj_add_event_cb
 2814              	.LVL324:
 740:generated/events_init.c **** 	 lv_obj_add_event_cb(ui->wave_model_btn_11, wave_model_btn_11_event_handler, LV_EVENT_ALL, NULL);
 2815              		.loc 1 740 3 view .LVU618
 2816 0082 0023     		movs	r3, #0
 2817 0084 1A46     		mov	r2, r3
 2818 0086 1B49     		ldr	r1, .L132+40
 2819 0088 D4F8B800 		ldr	r0, [r4, #184]
 2820 008c FFF7FEFF 		bl	lv_obj_add_event_cb
 2821              	.LVL325:
 741:generated/events_init.c **** 	 lv_obj_add_event_cb(ui->wave_model_btn_12, wave_model_btn_12_event_handler, LV_EVENT_ALL, NULL);
 2822              		.loc 1 741 3 view .LVU619
 2823 0090 0023     		movs	r3, #0
 2824 0092 1A46     		mov	r2, r3
 2825 0094 1849     		ldr	r1, .L132+44
 2826 0096 D4F8C000 		ldr	r0, [r4, #192]
 2827 009a FFF7FEFF 		bl	lv_obj_add_event_cb
ARM GAS  C:\usertemp\cclVsvnU.s 			page 74


 2828              	.LVL326:
 742:generated/events_init.c **** 	 lv_obj_add_event_cb(ui->wave_model_btn_13, wave_model_btn_13_event_handler, LV_EVENT_ALL, NULL);
 2829              		.loc 1 742 3 view .LVU620
 2830 009e 0023     		movs	r3, #0
 2831 00a0 1A46     		mov	r2, r3
 2832 00a2 1649     		ldr	r1, .L132+48
 2833 00a4 D4F8C800 		ldr	r0, [r4, #200]
 2834 00a8 FFF7FEFF 		bl	lv_obj_add_event_cb
 2835              	.LVL327:
 743:generated/events_init.c **** 	 lv_obj_add_event_cb(ui->wave_model_btn_14, wave_model_btn_14_event_handler, LV_EVENT_ALL, NULL);
 2836              		.loc 1 743 3 view .LVU621
 2837 00ac 0023     		movs	r3, #0
 2838 00ae 1A46     		mov	r2, r3
 2839 00b0 1349     		ldr	r1, .L132+52
 2840 00b2 D4F8D000 		ldr	r0, [r4, #208]
 2841 00b6 FFF7FEFF 		bl	lv_obj_add_event_cb
 2842              	.LVL328:
 744:generated/events_init.c ****  }
 2843              		.loc 1 744 3 view .LVU622
 2844 00ba 0023     		movs	r3, #0
 2845 00bc 1A46     		mov	r2, r3
 2846 00be 1149     		ldr	r1, .L132+56
 2847 00c0 D4F8D800 		ldr	r0, [r4, #216]
 2848 00c4 FFF7FEFF 		bl	lv_obj_add_event_cb
 2849              	.LVL329:
 745:generated/events_init.c ****  
 2850              		.loc 1 745 2 is_stmt 0 view .LVU623
 2851 00c8 10BD     		pop	{r4, pc}
 2852              	.LVL330:
 2853              	.L133:
 745:generated/events_init.c ****  
 2854              		.loc 1 745 2 view .LVU624
 2855 00ca 00BF     		.align	2
 2856              	.L132:
 2857 00cc 00000000 		.word	wave_model_event_handler
 2858 00d0 00000000 		.word	wave_model_btn_1_event_handler
 2859 00d4 00000000 		.word	wave_model_btn_2_event_handler
 2860 00d8 00000000 		.word	wave_model_btn_3_event_handler
 2861 00dc 00000000 		.word	wave_model_btn_4_event_handler
 2862 00e0 00000000 		.word	wave_model_btn_5_event_handler
 2863 00e4 00000000 		.word	wave_model_btn_6_event_handler
 2864 00e8 00000000 		.word	wave_model_btn_7_event_handler
 2865 00ec 00000000 		.word	wave_model_btn_8_event_handler
 2866 00f0 00000000 		.word	wave_model_btn_9_event_handler
 2867 00f4 00000000 		.word	wave_model_btn_10_event_handler
 2868 00f8 00000000 		.word	wave_model_btn_11_event_handler
 2869 00fc 00000000 		.word	wave_model_btn_12_event_handler
 2870 0100 00000000 		.word	wave_model_btn_13_event_handler
 2871 0104 00000000 		.word	wave_model_btn_14_event_handler
 2872              		.cfi_endproc
 2873              	.LFE591:
 2875              		.section	.rodata.msg_notice.str1.4,"aMS",%progbits,1
 2876              		.align	2
 2877              	.LC11:
 2878 0000 257300   		.ascii	"%s\000"
 2879              		.section	.text.msg_notice,"ax",%progbits
 2880              		.align	1
ARM GAS  C:\usertemp\cclVsvnU.s 			page 75


 2881              		.global	msg_notice
 2882              		.syntax unified
 2883              		.thumb
 2884              		.thumb_func
 2886              	msg_notice:
 2887              	.LVL331:
 2888              	.LFB593:
 752:generated/events_init.c ****  
 753:generated/events_init.c ****  // msg消息提示
 754:generated/events_init.c ****  void msg_notice(lv_obj_t *msg, uint32_t duration_ms, const char *notice)
 755:generated/events_init.c ****  {
 2889              		.loc 1 755 2 is_stmt 1 view -0
 2890              		.cfi_startproc
 2891              		@ args = 0, pretend = 0, frame = 0
 2892              		@ frame_needed = 0, uses_anonymous_args = 0
 2893              		.loc 1 755 2 is_stmt 0 view .LVU626
 2894 0000 70B5     		push	{r4, r5, r6, lr}
 2895              	.LCFI23:
 2896              		.cfi_def_cfa_offset 16
 2897              		.cfi_offset 4, -16
 2898              		.cfi_offset 5, -12
 2899              		.cfi_offset 6, -8
 2900              		.cfi_offset 14, -4
 2901 0002 0546     		mov	r5, r0
 2902 0004 0C46     		mov	r4, r1
 756:generated/events_init.c **** 	 lv_label_set_text_fmt(guider_ui.wave_model_msg, "%s", notice);
 2903              		.loc 1 756 3 is_stmt 1 view .LVU627
 2904 0006 084E     		ldr	r6, .L136
 2905 0008 0849     		ldr	r1, .L136+4
 2906              	.LVL332:
 2907              		.loc 1 756 3 is_stmt 0 view .LVU628
 2908 000a D6F8E400 		ldr	r0, [r6, #228]
 2909              	.LVL333:
 2910              		.loc 1 756 3 view .LVU629
 2911 000e FFF7FEFF 		bl	lv_label_set_text_fmt
 2912              	.LVL334:
 757:generated/events_init.c **** 	 lv_obj_clear_flag(guider_ui.wave_model_msg, LV_OBJ_FLAG_HIDDEN);
 2913              		.loc 1 757 3 is_stmt 1 view .LVU630
 2914 0012 0121     		movs	r1, #1
 2915 0014 D6F8E400 		ldr	r0, [r6, #228]
 2916 0018 FFF7FEFF 		bl	lv_obj_clear_flag
 2917              	.LVL335:
 758:generated/events_init.c **** 	 lv_timer_t *timer = lv_timer_create(switch_btn, duration_ms, msg); // 创建定时器
 2918              		.loc 1 758 3 view .LVU631
 2919              		.loc 1 758 23 is_stmt 0 view .LVU632
 2920 001c 2A46     		mov	r2, r5
 2921 001e 2146     		mov	r1, r4
 2922 0020 0348     		ldr	r0, .L136+8
 2923 0022 FFF7FEFF 		bl	lv_timer_create
 2924              	.LVL336:
 759:generated/events_init.c **** 	 if (!timer)
 2925              		.loc 1 759 3 is_stmt 1 view .LVU633
 760:generated/events_init.c **** 	 {
 761:generated/events_init.c **** 		 LV_LOG_ERROR("定时器创建失败！");
 2926              		.loc 1 761 4 view .LVU634
 2927              		.loc 1 761 4 view .LVU635
 2928              		.loc 1 761 4 view .LVU636
ARM GAS  C:\usertemp\cclVsvnU.s 			page 76


 762:generated/events_init.c **** 	 }
 763:generated/events_init.c ****  }
 2929              		.loc 1 763 2 is_stmt 0 view .LVU637
 2930 0026 70BD     		pop	{r4, r5, r6, pc}
 2931              	.LVL337:
 2932              	.L137:
 2933              		.loc 1 763 2 view .LVU638
 2934              		.align	2
 2935              	.L136:
 2936 0028 00000000 		.word	guider_ui
 2937 002c 00000000 		.word	.LC11
 2938 0030 00000000 		.word	switch_btn
 2939              		.cfi_endproc
 2940              	.LFE593:
 2942              		.section	.rodata.wave_model_btn_6_event_handler.str1.4,"aMS",%progbits,1
 2943              		.align	2
 2944              	.LC12:
 2945 0000 303A7465 		.ascii	"0:test/p%d%d%d.bin\000"
 2945      73742F70 
 2945      25642564 
 2945      25642E62 
 2945      696E00
 2946 0013 00       		.align	2
 2947              	.LC13:
 2948 0014 53637265 		.ascii	"Screenshot successful\000"
 2948      656E7368 
 2948      6F742073 
 2948      75636365 
 2948      73736675 
 2949 002a 0000     		.align	2
 2950              	.LC14:
 2951 002c 73645F63 		.ascii	"sd_count = %d\015\012\000"
 2951      6F756E74 
 2951      203D2025 
 2951      640D0A00 
 2952              		.align	2
 2953              	.LC15:
 2954 003c 53637265 		.ascii	"Screenshot failed\000"
 2954      656E7368 
 2954      6F742066 
 2954      61696C65 
 2954      6400
 2955              		.section	.text.wave_model_btn_6_event_handler,"ax",%progbits
 2956              		.align	1
 2957              		.syntax unified
 2958              		.thumb
 2959              		.thumb_func
 2961              	wave_model_btn_6_event_handler:
 2962              	.LVL338:
 2963              	.LFB584:
 531:generated/events_init.c **** 	 lv_event_code_t code = lv_event_get_code(e);
 2964              		.loc 1 531 2 is_stmt 1 view -0
 2965              		.cfi_startproc
 2966              		@ args = 0, pretend = 0, frame = 64
 2967              		@ frame_needed = 0, uses_anonymous_args = 0
 531:generated/events_init.c **** 	 lv_event_code_t code = lv_event_get_code(e);
 2968              		.loc 1 531 2 is_stmt 0 view .LVU640
ARM GAS  C:\usertemp\cclVsvnU.s 			page 77


 2969 0000 30B5     		push	{r4, r5, lr}
 2970              	.LCFI24:
 2971              		.cfi_def_cfa_offset 12
 2972              		.cfi_offset 4, -12
 2973              		.cfi_offset 5, -8
 2974              		.cfi_offset 14, -4
 2975 0002 93B0     		sub	sp, sp, #76
 2976              	.LCFI25:
 2977              		.cfi_def_cfa_offset 88
 532:generated/events_init.c ****  
 2978              		.loc 1 532 3 is_stmt 1 view .LVU641
 532:generated/events_init.c ****  
 2979              		.loc 1 532 26 is_stmt 0 view .LVU642
 2980 0004 FFF7FEFF 		bl	lv_event_get_code
 2981              	.LVL339:
 534:generated/events_init.c **** 	 {
 2982              		.loc 1 534 3 is_stmt 1 view .LVU643
 2983 0008 0528     		cmp	r0, #5
 2984 000a 01D0     		beq	.L144
 2985              	.LVL340:
 2986              	.L138:
 576:generated/events_init.c ****  static void wave_model_btn_9_event_handler(lv_event_t *e) // X+
 2987              		.loc 1 576 2 is_stmt 0 view .LVU644
 2988 000c 13B0     		add	sp, sp, #76
 2989              	.LCFI26:
 2990              		.cfi_remember_state
 2991              		.cfi_def_cfa_offset 12
 2992              		@ sp needed
 2993 000e 30BD     		pop	{r4, r5, pc}
 2994              	.LVL341:
 2995              	.L144:
 2996              	.LCFI27:
 2997              		.cfi_restore_state
 2998              	.LBB6:
 538:generated/events_init.c **** 		 uint8_t temp = 0;
 2999              		.loc 1 538 4 is_stmt 1 view .LVU645
 538:generated/events_init.c **** 		 uint8_t temp = 0;
 3000              		.loc 1 538 9 is_stmt 0 view .LVU646
 3001 0010 3C22     		movs	r2, #60
 3002 0012 0021     		movs	r1, #0
 3003 0014 03A8     		add	r0, sp, #12
 3004              	.LVL342:
 538:generated/events_init.c **** 		 uint8_t temp = 0;
 3005              		.loc 1 538 9 view .LVU647
 3006 0016 FFF7FEFF 		bl	memset
 3007              	.LVL343:
 539:generated/events_init.c ****  
 3008              		.loc 1 539 4 is_stmt 1 view .LVU648
 541:generated/events_init.c **** 		 taskENTER_CRITICAL();
 3009              		.loc 1 541 4 view .LVU649
 3010 001a FFF7FEFF 		bl	vTaskSuspendAll
 3011              	.LVL344:
 542:generated/events_init.c **** 		 if (page == 0)
 3012              		.loc 1 542 4 view .LVU650
 3013 001e FFF7FEFF 		bl	vPortEnterCritical
 3014              	.LVL345:
 543:generated/events_init.c **** 		 {
ARM GAS  C:\usertemp\cclVsvnU.s 			page 78


 3015              		.loc 1 543 4 view .LVU651
 543:generated/events_init.c **** 		 {
 3016              		.loc 1 543 13 is_stmt 0 view .LVU652
 3017 0022 234B     		ldr	r3, .L146
 3018 0024 93F90030 		ldrsb	r3, [r3]
 543:generated/events_init.c **** 		 {
 3019              		.loc 1 543 7 view .LVU653
 3020 0028 7BB1     		cbz	r3, .L145
 539:generated/events_init.c ****  
 3021              		.loc 1 539 12 view .LVU654
 3022 002a 0024     		movs	r4, #0
 3023              	.LVL346:
 3024              	.L140:
 560:generated/events_init.c **** 		 xTaskResumeAll();
 3025              		.loc 1 560 4 is_stmt 1 view .LVU655
 3026 002c FFF7FEFF 		bl	vPortExitCritical
 3027              	.LVL347:
 561:generated/events_init.c **** 		 if (temp)
 3028              		.loc 1 561 4 view .LVU656
 3029 0030 FFF7FEFF 		bl	xTaskResumeAll
 3030              	.LVL348:
 562:generated/events_init.c **** 		 {
 3031              		.loc 1 562 4 view .LVU657
 562:generated/events_init.c **** 		 {
 3032              		.loc 1 562 7 is_stmt 0 view .LVU658
 3033 0034 002C     		cmp	r4, #0
 3034 0036 E9D1     		bne	.L138
 568:generated/events_init.c **** 		 }
 3035              		.loc 1 568 5 is_stmt 1 view .LVU659
 3036 0038 1E4A     		ldr	r2, .L146+4
 3037 003a 4FF4FA61 		mov	r1, #2000
 3038 003e 1E4B     		ldr	r3, .L146+8
 3039 0040 D3F8E400 		ldr	r0, [r3, #228]
 3040 0044 FFF7FEFF 		bl	msg_notice
 3041              	.LVL349:
 571:generated/events_init.c **** 	 }
 3042              		.loc 1 571 4 view .LVU660
 3043              	.LBE6:
 576:generated/events_init.c ****  static void wave_model_btn_9_event_handler(lv_event_t *e) // X+
 3044              		.loc 1 576 2 is_stmt 0 view .LVU661
 3045 0048 E0E7     		b	.L138
 3046              	.LVL350:
 3047              	.L145:
 3048              	.LBB7:
 545:generated/events_init.c **** 			 if (take_snapshot_with_buffer(guider_ui.wave_model_chart_2, filename))
 3049              		.loc 1 545 5 is_stmt 1 view .LVU662
 3050 004a 1C4B     		ldr	r3, .L146+12
 3051 004c 1B68     		ldr	r3, [r3]
 3052 004e 0093     		str	r3, [sp]
 3053 0050 1B4B     		ldr	r3, .L146+16
 3054 0052 1B68     		ldr	r3, [r3]
 3055 0054 1B4A     		ldr	r2, .L146+20
 3056 0056 1268     		ldr	r2, [r2]
 3057 0058 1B49     		ldr	r1, .L146+24
 3058 005a 03A8     		add	r0, sp, #12
 3059 005c FFF7FEFF 		bl	sprintf
 3060              	.LVL351:
ARM GAS  C:\usertemp\cclVsvnU.s 			page 79


 546:generated/events_init.c **** 			 {
 3061              		.loc 1 546 5 view .LVU663
 546:generated/events_init.c **** 			 {
 3062              		.loc 1 546 9 is_stmt 0 view .LVU664
 3063 0060 03A9     		add	r1, sp, #12
 3064 0062 154B     		ldr	r3, .L146+8
 3065 0064 D3F88C00 		ldr	r0, [r3, #140]
 3066 0068 FFF7FEFF 		bl	take_snapshot_with_buffer
 3067              	.LVL352:
 546:generated/events_init.c **** 			 {
 3068              		.loc 1 546 8 discriminator 1 view .LVU665
 3069 006c 0446     		mov	r4, r0
 3070 006e 0028     		cmp	r0, #0
 3071 0070 DCD0     		beq	.L140
 548:generated/events_init.c **** 				 msg_notice(guider_ui.wave_model_msg, 2000, "Screenshot successful");
 3072              		.loc 1 548 6 is_stmt 1 view .LVU666
 548:generated/events_init.c **** 				 msg_notice(guider_ui.wave_model_msg, 2000, "Screenshot successful");
 3073              		.loc 1 548 14 is_stmt 0 view .LVU667
 3074 0072 164C     		ldr	r4, .L146+28
 3075 0074 2388     		ldrh	r3, [r4]
 3076 0076 0133     		adds	r3, r3, #1
 3077 0078 2380     		strh	r3, [r4]	@ movhi
 549:generated/events_init.c **** 				 temp = 1;
 3078              		.loc 1 549 6 is_stmt 1 view .LVU668
 3079 007a 0F4D     		ldr	r5, .L146+8
 3080 007c 144A     		ldr	r2, .L146+32
 3081 007e 4FF4FA61 		mov	r1, #2000
 3082 0082 D5F8E400 		ldr	r0, [r5, #228]
 3083 0086 FFF7FEFF 		bl	msg_notice
 3084              	.LVL353:
 550:generated/events_init.c **** 				 LV_LOG_USER("sd_count = %d\r\n", sd_count);
 3085              		.loc 1 550 6 view .LVU669
 551:generated/events_init.c **** 				 refersh_lvgl_image(guider_ui.wave_model_img_1);
 3086              		.loc 1 551 6 view .LVU670
 3087 008a B4F90030 		ldrsh	r3, [r4]
 3088 008e 0193     		str	r3, [sp, #4]
 3089 0090 104B     		ldr	r3, .L146+36
 3090 0092 0093     		str	r3, [sp]
 3091 0094 104B     		ldr	r3, .L146+40
 3092 0096 40F22722 		movw	r2, #551
 3093 009a 1049     		ldr	r1, .L146+44
 3094 009c 0420     		movs	r0, #4
 3095 009e FFF7FEFF 		bl	_lv_log_add
 3096              	.LVL354:
 552:generated/events_init.c **** 			 }
 3097              		.loc 1 552 6 view .LVU671
 3098 00a2 D5F8AC00 		ldr	r0, [r5, #172]
 3099 00a6 FFF7FEFF 		bl	refersh_lvgl_image
 3100              	.LVL355:
 550:generated/events_init.c **** 				 LV_LOG_USER("sd_count = %d\r\n", sd_count);
 3101              		.loc 1 550 11 is_stmt 0 view .LVU672
 3102 00aa 0124     		movs	r4, #1
 3103 00ac BEE7     		b	.L140
 3104              	.L147:
 3105 00ae 00BF     		.align	2
 3106              	.L146:
 3107 00b0 00000000 		.word	page
ARM GAS  C:\usertemp\cclVsvnU.s 			page 80


 3108 00b4 3C000000 		.word	.LC15
 3109 00b8 00000000 		.word	guider_ui
 3110 00bc 00000000 		.word	wave_model_digital_clock_1_sec_value
 3111 00c0 00000000 		.word	wave_model_digital_clock_1_min_value
 3112 00c4 00000000 		.word	wave_model_digital_clock_1_hour_value
 3113 00c8 00000000 		.word	.LC12
 3114 00cc 00000000 		.word	sd_count
 3115 00d0 14000000 		.word	.LC13
 3116 00d4 2C000000 		.word	.LC14
 3117 00d8 00000000 		.word	__func__.1
 3118 00dc 00000000 		.word	.LC2
 3119              	.LBE7:
 3120              		.cfi_endproc
 3121              	.LFE584:
 3123              		.section	.text.events_init,"ax",%progbits
 3124              		.align	1
 3125              		.global	events_init
 3126              		.syntax unified
 3127              		.thumb
 3128              		.thumb_func
 3130              	events_init:
 3131              	.LVL356:
 3132              	.LFB594:
 764:generated/events_init.c ****  
 765:generated/events_init.c ****  void events_init(lv_ui *ui)
 766:generated/events_init.c ****  {
 3133              		.loc 1 766 2 is_stmt 1 view -0
 3134              		.cfi_startproc
 3135              		@ args = 0, pretend = 0, frame = 0
 3136              		@ frame_needed = 0, uses_anonymous_args = 0
 3137              		.loc 1 766 2 is_stmt 0 view .LVU674
 3138 0000 00B5     		push	{lr}
 3139              	.LCFI28:
 3140              		.cfi_def_cfa_offset 4
 3141              		.cfi_offset 14, -4
 3142 0002 83B0     		sub	sp, sp, #12
 3143              	.LCFI29:
 3144              		.cfi_def_cfa_offset 16
 767:generated/events_init.c **** 	 sd_count = GetFileCount("0:test");
 3145              		.loc 1 767 3 is_stmt 1 view .LVU675
 3146              		.loc 1 767 14 is_stmt 0 view .LVU676
 3147 0004 0A48     		ldr	r0, .L150
 3148              	.LVL357:
 3149              		.loc 1 767 14 view .LVU677
 3150 0006 FFF7FEFF 		bl	GetFileCount
 3151              	.LVL358:
 3152              		.loc 1 767 14 discriminator 1 view .LVU678
 3153 000a 03B2     		sxth	r3, r0
 3154              		.loc 1 767 12 discriminator 1 view .LVU679
 3155 000c 094A     		ldr	r2, .L150+4
 3156 000e 1380     		strh	r3, [r2]	@ movhi
 768:generated/events_init.c **** 	 file_now = sd_count;
 3157              		.loc 1 768 3 is_stmt 1 view .LVU680
 3158              		.loc 1 768 12 is_stmt 0 view .LVU681
 3159 0010 094A     		ldr	r2, .L150+8
 3160 0012 1380     		strh	r3, [r2]	@ movhi
 769:generated/events_init.c **** 	 LV_LOG_USER("sd_count = %d\r\n", sd_count);
ARM GAS  C:\usertemp\cclVsvnU.s 			page 81


 3161              		.loc 1 769 3 is_stmt 1 view .LVU682
 3162 0014 0190     		str	r0, [sp, #4]
 3163 0016 094B     		ldr	r3, .L150+12
 3164 0018 0093     		str	r3, [sp]
 3165 001a 094B     		ldr	r3, .L150+16
 3166 001c 40F20132 		movw	r2, #769
 3167 0020 0849     		ldr	r1, .L150+20
 3168 0022 0420     		movs	r0, #4
 3169 0024 FFF7FEFF 		bl	_lv_log_add
 3170              	.LVL359:
 770:generated/events_init.c ****  }
 3171              		.loc 1 770 2 is_stmt 0 view .LVU683
 3172 0028 03B0     		add	sp, sp, #12
 3173              	.LCFI30:
 3174              		.cfi_def_cfa_offset 4
 3175              		@ sp needed
 3176 002a 5DF804FB 		ldr	pc, [sp], #4
 3177              	.L151:
 3178 002e 00BF     		.align	2
 3179              	.L150:
 3180 0030 4C000000 		.word	.LC5
 3181 0034 00000000 		.word	sd_count
 3182 0038 00000000 		.word	file_now
 3183 003c 2C000000 		.word	.LC14
 3184 0040 00000000 		.word	__func__.0
 3185 0044 00000000 		.word	.LC2
 3186              		.cfi_endproc
 3187              	.LFE594:
 3189              		.section	.rodata.__func__.0,"a"
 3190              		.align	2
 3193              	__func__.0:
 3194 0000 6576656E 		.ascii	"events_init\000"
 3194      74735F69 
 3194      6E697400 
 3195              		.section	.rodata.__func__.1,"a"
 3196              		.align	2
 3199              	__func__.1:
 3200 0000 77617665 		.ascii	"wave_model_btn_6_event_handler\000"
 3200      5F6D6F64 
 3200      656C5F62 
 3200      746E5F36 
 3200      5F657665 
 3201              		.section	.rodata.__func__.2,"a"
 3202              		.align	2
 3205              	__func__.2:
 3206 0000 77617665 		.ascii	"wave_model_btn_9_event_handler\000"
 3206      5F6D6F64 
 3206      656C5F62 
 3206      746E5F39 
 3206      5F657665 
 3207              		.section	.rodata.__func__.3,"a"
 3208              		.align	2
 3211              	__func__.3:
 3212 0000 77617665 		.ascii	"wave_model_btn_14_event_handler\000"
 3212      5F6D6F64 
 3212      656C5F62 
 3212      746E5F31 
ARM GAS  C:\usertemp\cclVsvnU.s 			page 82


 3212      345F6576 
 3213              		.global	V_I_flag
 3214              		.section	.bss.V_I_flag,"aw",%nobits
 3217              	V_I_flag:
 3218 0000 00       		.space	1
 3219              		.global	level
 3220              		.section	.bss.level,"aw",%nobits
 3221              		.align	2
 3224              	level:
 3225 0000 00000000 		.space	4
 3226              		.global	step
 3227              		.section	.data.step,"aw"
 3228              		.align	2
 3231              	step:
 3232 0000 00000040 		.word	1073741824
 3233              		.global	rat
 3234              		.section	.data.rat,"aw"
 3235              		.align	2
 3238              	rat:
 3239 0000 00004842 		.word	1112014848
 3240              		.global	LN_I_flag
 3241              		.section	.bss.LN_I_flag,"aw",%nobits
 3244              	LN_I_flag:
 3245 0000 00       		.space	1
 3246              		.global	L3_I_flag
 3247              		.section	.bss.L3_I_flag,"aw",%nobits
 3250              	L3_I_flag:
 3251 0000 00       		.space	1
 3252              		.global	L2_I_flag
 3253              		.section	.bss.L2_I_flag,"aw",%nobits
 3256              	L2_I_flag:
 3257 0000 00       		.space	1
 3258              		.global	L1_I_flag
 3259              		.section	.bss.L1_I_flag,"aw",%nobits
 3262              	L1_I_flag:
 3263 0000 00       		.space	1
 3264              		.global	LN_flag
 3265              		.section	.bss.LN_flag,"aw",%nobits
 3268              	LN_flag:
 3269 0000 00       		.space	1
 3270              		.global	L3_flag
 3271              		.section	.bss.L3_flag,"aw",%nobits
 3274              	L3_flag:
 3275 0000 00       		.space	1
 3276              		.global	L2_flag
 3277              		.section	.bss.L2_flag,"aw",%nobits
 3280              	L2_flag:
 3281 0000 00       		.space	1
 3282              		.global	L1_flag
 3283              		.section	.bss.L1_flag,"aw",%nobits
 3286              	L1_flag:
 3287 0000 00       		.space	1
 3288              		.section	.bss.page,"aw",%nobits
 3291              	page:
 3292 0000 00       		.space	1
 3293              		.global	file_now
 3294              		.section	.bss.file_now,"aw",%nobits
ARM GAS  C:\usertemp\cclVsvnU.s 			page 83


 3295              		.align	1
 3298              	file_now:
 3299 0000 0000     		.space	2
 3300              		.global	sd_count
 3301              		.section	.bss.sd_count,"aw",%nobits
 3302              		.align	1
 3305              	sd_count:
 3306 0000 0000     		.space	2
 3307              		.text
 3308              	.Letext0:
 3309              		.file 2 "D:/armtoolchain/arm-gnu-toolchain-13.3.rel1-mingw-w64-i686-arm-none-eabi/arm-none-eabi/in
 3310              		.file 3 "D:/armtoolchain/arm-gnu-toolchain-13.3.rel1-mingw-w64-i686-arm-none-eabi/arm-none-eabi/in
 3311              		.file 4 "lvgl/src/misc/lv_types.h"
 3312              		.file 5 "lvgl/src/misc/lv_log.h"
 3313              		.file 6 "lvgl/src/misc/lv_timer.h"
 3314              		.file 7 "D:/armtoolchain/arm-gnu-toolchain-13.3.rel1-mingw-w64-i686-arm-none-eabi/lib/gcc/arm-none
 3315              		.file 8 "lvgl/src/hal/../draw/../misc/../font/../misc/lv_area.h"
 3316              		.file 9 "lvgl/src/hal/../draw/../misc/../font/lv_font.h"
 3317              		.file 10 "lvgl/src/hal/../draw/../misc/lv_color.h"
 3318              		.file 11 "lvgl/src/hal/../draw/../misc/lv_txt.h"
 3319              		.file 12 "lvgl/src/hal/../draw/../misc/lv_bidi.h"
 3320              		.file 13 "lvgl/src/hal/../draw/../misc/lv_style.h"
 3321              		.file 14 "lvgl/src/hal/../draw/lv_img_buf.h"
 3322              		.file 15 "lvgl/src/core/lv_obj.h"
 3323              		.file 16 "lvgl/src/hal/../draw/lv_draw_rect.h"
 3324              		.file 17 "lvgl/src/hal/../draw/lv_draw_label.h"
 3325              		.file 18 "lvgl/src/hal/../draw/lv_draw_img.h"
 3326              		.file 19 "lvgl/src/hal/../draw/lv_draw_line.h"
 3327              		.file 20 "lvgl/src/hal/../draw/lv_draw_arc.h"
 3328              		.file 21 "lvgl/src/hal/../draw/lv_draw.h"
 3329              		.file 22 "lvgl/src/hal/../misc/lv_ll.h"
 3330              		.file 23 "lvgl/src/hal/lv_hal_disp.h"
 3331              		.file 24 "lvgl/src/core/lv_theme.h"
 3332              		.file 25 "lvgl/src/hal/lv_hal_indev.h"
 3333              		.file 26 "lvgl/src/core/lv_group.h"
 3334              		.file 27 "lvgl/src/core/lv_obj_scroll.h"
 3335              		.file 28 "lvgl/src/core/lv_obj_style.h"
 3336              		.file 29 "lvgl/src/core/lv_obj_class.h"
 3337              		.file 30 "lvgl/src/core/lv_event.h"
 3338              		.file 31 "lvgl/src/extra/widgets/chart/lv_chart.h"
 3339              		.file 32 "generated/gui_guider.h"
 3340              		.file 33 "Drivers/CMSIS/DSP/Include/arm_math.h"
 3341              		.file 34 "Middlewares/Third_Party/FreeRTOS/Source/portable/GCC/ARM_CM4F/portmacro.h"
 3342              		.file 35 "Drivers/STM32H7xx_HAL_Driver/Inc/stm32h7xx_ll_fmc.h"
 3343              		.file 36 "User/screenshot/screenshot.h"
 3344              		.file 37 "lvgl/src/widgets/lv_label.h"
 3345              		.file 38 "lvgl/src/core/lv_indev.h"
 3346              		.file 39 "D:/armtoolchain/arm-gnu-toolchain-13.3.rel1-mingw-w64-i686-arm-none-eabi/arm-none-eabi/i
 3347              		.file 40 "Middlewares/Third_Party/FreeRTOS/Source/include/task.h"
 3348              		.file 41 "lvgl/src/hal/../draw/sw/../../core/lv_obj_pos.h"
 3349              		.file 42 "Core/Inc/fmc.h"
 3350              		.file 43 "<built-in>"
ARM GAS  C:\usertemp\cclVsvnU.s 			page 84

