ARM GAS  C:\Users\zdy\AppData\Local\Temp\ccxXfRHS.s 			page 1


   1              		.cpu cortex-m7
   2              		.arch armv7e-m
   3              		.fpu fpv5-d16
   4              		.eabi_attribute 28, 1
   5              		.eabi_attribute 20, 1
   6              		.eabi_attribute 21, 1
   7              		.eabi_attribute 23, 3
   8              		.eabi_attribute 24, 1
   9              		.eabi_attribute 25, 1
  10              		.eabi_attribute 26, 1
  11              		.eabi_attribute 30, 1
  12              		.eabi_attribute 34, 1
  13              		.eabi_attribute 18, 4
  14              		.file	"ff.c"
  15              		.text
  16              	.Ltext0:
  17              		.cfi_sections	.debug_frame
  18              		.section	.text.ld_word,"ax",%progbits
  19              		.align	1
  20              		.syntax unified
  21              		.thumb
  22              		.thumb_func
  24              	ld_word:
  25              	.LVL0:
  26              	.LFB338:
  27              		.file 1 "Middlewares/Third_Party/FatFs/src/ff.c"
   1:Middlewares/Third_Party/FatFs/src/ff.c **** /*----------------------------------------------------------------------------/
   2:Middlewares/Third_Party/FatFs/src/ff.c **** /  FatFs - Generic FAT file system module  R0.12c                             /
   3:Middlewares/Third_Party/FatFs/src/ff.c **** /-----------------------------------------------------------------------------/
   4:Middlewares/Third_Party/FatFs/src/ff.c **** /
   5:Middlewares/Third_Party/FatFs/src/ff.c **** / Copyright (C) 2017, ChaN, all right reserved.
   6:Middlewares/Third_Party/FatFs/src/ff.c **** /
   7:Middlewares/Third_Party/FatFs/src/ff.c **** / FatFs module is an open source software. Redistribution and use of FatFs in
   8:Middlewares/Third_Party/FatFs/src/ff.c **** / source and binary forms, with or without modification, are permitted provided
   9:Middlewares/Third_Party/FatFs/src/ff.c **** / that the following condition is met:
  10:Middlewares/Third_Party/FatFs/src/ff.c **** /
  11:Middlewares/Third_Party/FatFs/src/ff.c **** / 1. Redistributions of source code must retain the above copyright notice,
  12:Middlewares/Third_Party/FatFs/src/ff.c **** /    this condition and the following disclaimer.
  13:Middlewares/Third_Party/FatFs/src/ff.c **** /
  14:Middlewares/Third_Party/FatFs/src/ff.c **** / This software is provided by the copyright holder and contributors "AS IS"
  15:Middlewares/Third_Party/FatFs/src/ff.c **** / and any warranties related to this software are DISCLAIMED.
  16:Middlewares/Third_Party/FatFs/src/ff.c **** / The copyright owner or contributors be NOT LIABLE for any damages caused
  17:Middlewares/Third_Party/FatFs/src/ff.c **** / by use of this software.
  18:Middlewares/Third_Party/FatFs/src/ff.c **** /----------------------------------------------------------------------------*/
  19:Middlewares/Third_Party/FatFs/src/ff.c **** 
  20:Middlewares/Third_Party/FatFs/src/ff.c **** 
  21:Middlewares/Third_Party/FatFs/src/ff.c **** #include "ff.h"			/* Declarations of FatFs API */
  22:Middlewares/Third_Party/FatFs/src/ff.c **** #include "diskio.h"		/* Declarations of device I/O functions */
  23:Middlewares/Third_Party/FatFs/src/ff.c **** 
  24:Middlewares/Third_Party/FatFs/src/ff.c **** 
  25:Middlewares/Third_Party/FatFs/src/ff.c **** /*--------------------------------------------------------------------------
  26:Middlewares/Third_Party/FatFs/src/ff.c **** 
  27:Middlewares/Third_Party/FatFs/src/ff.c ****    Module Private Definitions
  28:Middlewares/Third_Party/FatFs/src/ff.c **** 
  29:Middlewares/Third_Party/FatFs/src/ff.c **** ---------------------------------------------------------------------------*/
  30:Middlewares/Third_Party/FatFs/src/ff.c **** 
  31:Middlewares/Third_Party/FatFs/src/ff.c **** #if _FATFS != 68300	/* Revision ID */
ARM GAS  C:\Users\zdy\AppData\Local\Temp\ccxXfRHS.s 			page 2


  32:Middlewares/Third_Party/FatFs/src/ff.c **** #error Wrong include file (ff.h).
  33:Middlewares/Third_Party/FatFs/src/ff.c **** #endif
  34:Middlewares/Third_Party/FatFs/src/ff.c **** 
  35:Middlewares/Third_Party/FatFs/src/ff.c **** 
  36:Middlewares/Third_Party/FatFs/src/ff.c **** /* DBCS code ranges and SBCS upper conversion tables */
  37:Middlewares/Third_Party/FatFs/src/ff.c **** 
  38:Middlewares/Third_Party/FatFs/src/ff.c **** #if _CODE_PAGE == 932	/* Japanese Shift-JIS */
  39:Middlewares/Third_Party/FatFs/src/ff.c **** #define _DF1S	0x81	/* DBC 1st byte range 1 start */
  40:Middlewares/Third_Party/FatFs/src/ff.c **** #define _DF1E	0x9F	/* DBC 1st byte range 1 end */
  41:Middlewares/Third_Party/FatFs/src/ff.c **** #define _DF2S	0xE0	/* DBC 1st byte range 2 start */
  42:Middlewares/Third_Party/FatFs/src/ff.c **** #define _DF2E	0xFC	/* DBC 1st byte range 2 end */
  43:Middlewares/Third_Party/FatFs/src/ff.c **** #define _DS1S	0x40	/* DBC 2nd byte range 1 start */
  44:Middlewares/Third_Party/FatFs/src/ff.c **** #define _DS1E	0x7E	/* DBC 2nd byte range 1 end */
  45:Middlewares/Third_Party/FatFs/src/ff.c **** #define _DS2S	0x80	/* DBC 2nd byte range 2 start */
  46:Middlewares/Third_Party/FatFs/src/ff.c **** #define _DS2E	0xFC	/* DBC 2nd byte range 2 end */
  47:Middlewares/Third_Party/FatFs/src/ff.c **** 
  48:Middlewares/Third_Party/FatFs/src/ff.c **** #elif _CODE_PAGE == 936	/* Simplified Chinese GBK */
  49:Middlewares/Third_Party/FatFs/src/ff.c **** #define _DF1S	0x81
  50:Middlewares/Third_Party/FatFs/src/ff.c **** #define _DF1E	0xFE
  51:Middlewares/Third_Party/FatFs/src/ff.c **** #define _DS1S	0x40
  52:Middlewares/Third_Party/FatFs/src/ff.c **** #define _DS1E	0x7E
  53:Middlewares/Third_Party/FatFs/src/ff.c **** #define _DS2S	0x80
  54:Middlewares/Third_Party/FatFs/src/ff.c **** #define _DS2E	0xFE
  55:Middlewares/Third_Party/FatFs/src/ff.c **** 
  56:Middlewares/Third_Party/FatFs/src/ff.c **** #elif _CODE_PAGE == 949	/* Korean */
  57:Middlewares/Third_Party/FatFs/src/ff.c **** #define _DF1S	0x81
  58:Middlewares/Third_Party/FatFs/src/ff.c **** #define _DF1E	0xFE
  59:Middlewares/Third_Party/FatFs/src/ff.c **** #define _DS1S	0x41
  60:Middlewares/Third_Party/FatFs/src/ff.c **** #define _DS1E	0x5A
  61:Middlewares/Third_Party/FatFs/src/ff.c **** #define _DS2S	0x61
  62:Middlewares/Third_Party/FatFs/src/ff.c **** #define _DS2E	0x7A
  63:Middlewares/Third_Party/FatFs/src/ff.c **** #define _DS3S	0x81
  64:Middlewares/Third_Party/FatFs/src/ff.c **** #define _DS3E	0xFE
  65:Middlewares/Third_Party/FatFs/src/ff.c **** 
  66:Middlewares/Third_Party/FatFs/src/ff.c **** #elif _CODE_PAGE == 950	/* Traditional Chinese Big5 */
  67:Middlewares/Third_Party/FatFs/src/ff.c **** #define _DF1S	0x81
  68:Middlewares/Third_Party/FatFs/src/ff.c **** #define _DF1E	0xFE
  69:Middlewares/Third_Party/FatFs/src/ff.c **** #define _DS1S	0x40
  70:Middlewares/Third_Party/FatFs/src/ff.c **** #define _DS1E	0x7E
  71:Middlewares/Third_Party/FatFs/src/ff.c **** #define _DS2S	0xA1
  72:Middlewares/Third_Party/FatFs/src/ff.c **** #define _DS2E	0xFE
  73:Middlewares/Third_Party/FatFs/src/ff.c **** 
  74:Middlewares/Third_Party/FatFs/src/ff.c **** #elif _CODE_PAGE == 437	/* U.S. */
  75:Middlewares/Third_Party/FatFs/src/ff.c **** #define _DF1S	0
  76:Middlewares/Third_Party/FatFs/src/ff.c **** #define _EXCVT {0x80,0x9A,0x45,0x41,0x8E,0x41,0x8F,0x80,0x45,0x45,0x45,0x49,0x49,0x49,0x8E,0x8F, \
  77:Middlewares/Third_Party/FatFs/src/ff.c **** 				0x90,0x92,0x92,0x4F,0x99,0x4F,0x55,0x55,0x59,0x99,0x9A,0x9B,0x9C,0x9D,0x9E,0x9F, \
  78:Middlewares/Third_Party/FatFs/src/ff.c **** 				0x41,0x49,0x4F,0x55,0xA5,0xA5,0xA6,0xA7,0xA8,0xA9,0xAA,0xAB,0xAC,0xAD,0xAE,0xAF, \
  79:Middlewares/Third_Party/FatFs/src/ff.c **** 				0xB0,0xB1,0xB2,0xB3,0xB4,0xB5,0xB6,0xB7,0xB8,0xB9,0xBA,0xBB,0xBC,0xBD,0xBE,0xBF, \
  80:Middlewares/Third_Party/FatFs/src/ff.c **** 				0xC0,0xC1,0xC2,0xC3,0xC4,0xC5,0xC6,0xC7,0xC8,0xC9,0xCA,0xCB,0xCC,0xCD,0xCE,0xCF, \
  81:Middlewares/Third_Party/FatFs/src/ff.c **** 				0xD0,0xD1,0xD2,0xD3,0xD4,0xD5,0xD6,0xD7,0xD8,0xD9,0xDA,0xDB,0xDC,0xDD,0xDE,0xDF, \
  82:Middlewares/Third_Party/FatFs/src/ff.c **** 				0xE0,0xE1,0xE2,0xE3,0xE4,0xE5,0xE6,0xE7,0xE8,0xE9,0xEA,0xEB,0xEC,0xED,0xEE,0xEF, \
  83:Middlewares/Third_Party/FatFs/src/ff.c **** 				0xF0,0xF1,0xF2,0xF3,0xF4,0xF5,0xF6,0xF7,0xF8,0xF9,0xFA,0xFB,0xFC,0xFD,0xFE,0xFF}
  84:Middlewares/Third_Party/FatFs/src/ff.c **** 
  85:Middlewares/Third_Party/FatFs/src/ff.c **** #elif _CODE_PAGE == 720	/* Arabic */
  86:Middlewares/Third_Party/FatFs/src/ff.c **** #define _DF1S	0
  87:Middlewares/Third_Party/FatFs/src/ff.c **** #define _EXCVT {0x80,0x81,0x82,0x83,0x84,0x85,0x86,0x87,0x88,0x89,0x8A,0x8B,0x8C,0x8D,0x8E,0x8F, \
  88:Middlewares/Third_Party/FatFs/src/ff.c **** 				0x90,0x91,0x92,0x93,0x94,0x95,0x96,0x97,0x98,0x99,0x9A,0x9B,0x9C,0x9D,0x9E,0x9F, \
ARM GAS  C:\Users\zdy\AppData\Local\Temp\ccxXfRHS.s 			page 3


  89:Middlewares/Third_Party/FatFs/src/ff.c **** 				0xA0,0xA1,0xA2,0xA3,0xA4,0xA5,0xA6,0xA7,0xA8,0xA9,0xAA,0xAB,0xAC,0xAD,0xAE,0xAF, \
  90:Middlewares/Third_Party/FatFs/src/ff.c **** 				0xB0,0xB1,0xB2,0xB3,0xB4,0xB5,0xB6,0xB7,0xB8,0xB9,0xBA,0xBB,0xBC,0xBD,0xBE,0xBF, \
  91:Middlewares/Third_Party/FatFs/src/ff.c **** 				0xC0,0xC1,0xC2,0xC3,0xC4,0xC5,0xC6,0xC7,0xC8,0xC9,0xCA,0xCB,0xCC,0xCD,0xCE,0xCF, \
  92:Middlewares/Third_Party/FatFs/src/ff.c **** 				0xD0,0xD1,0xD2,0xD3,0xD4,0xD5,0xD6,0xD7,0xD8,0xD9,0xDA,0xDB,0xDC,0xDD,0xDE,0xDF, \
  93:Middlewares/Third_Party/FatFs/src/ff.c **** 				0xE0,0xE1,0xE2,0xE3,0xE4,0xE5,0xE6,0xE7,0xE8,0xE9,0xEA,0xEB,0xEC,0xED,0xEE,0xEF, \
  94:Middlewares/Third_Party/FatFs/src/ff.c **** 				0xF0,0xF1,0xF2,0xF3,0xF4,0xF5,0xF6,0xF7,0xF8,0xF9,0xFA,0xFB,0xFC,0xFD,0xFE,0xFF}
  95:Middlewares/Third_Party/FatFs/src/ff.c **** 
  96:Middlewares/Third_Party/FatFs/src/ff.c **** #elif _CODE_PAGE == 737	/* Greek */
  97:Middlewares/Third_Party/FatFs/src/ff.c **** #define _DF1S	0
  98:Middlewares/Third_Party/FatFs/src/ff.c **** #define _EXCVT {0x80,0x81,0x82,0x83,0x84,0x85,0x86,0x87,0x88,0x89,0x8A,0x8B,0x8C,0x8D,0x8E,0x8F, \
  99:Middlewares/Third_Party/FatFs/src/ff.c **** 				0x90,0x92,0x92,0x93,0x94,0x95,0x96,0x97,0x80,0x81,0x82,0x83,0x84,0x85,0x86,0x87, \
 100:Middlewares/Third_Party/FatFs/src/ff.c **** 				0x88,0x89,0x8A,0x8B,0x8C,0x8D,0x8E,0x8F,0x90,0x91,0xAA,0x92,0x93,0x94,0x95,0x96, \
 101:Middlewares/Third_Party/FatFs/src/ff.c **** 				0xB0,0xB1,0xB2,0xB3,0xB4,0xB5,0xB6,0xB7,0xB8,0xB9,0xBA,0xBB,0xBC,0xBD,0xBE,0xBF, \
 102:Middlewares/Third_Party/FatFs/src/ff.c **** 				0xC0,0xC1,0xC2,0xC3,0xC4,0xC5,0xC6,0xC7,0xC8,0xC9,0xCA,0xCB,0xCC,0xCD,0xCE,0xCF, \
 103:Middlewares/Third_Party/FatFs/src/ff.c **** 				0xD0,0xD1,0xD2,0xD3,0xD4,0xD5,0xD6,0xD7,0xD8,0xD9,0xDA,0xDB,0xDC,0xDD,0xDE,0xDF, \
 104:Middlewares/Third_Party/FatFs/src/ff.c **** 				0x97,0xEA,0xEB,0xEC,0xE4,0xED,0xEE,0xEF,0xF5,0xF0,0xEA,0xEB,0xEC,0xED,0xEE,0xEF, \
 105:Middlewares/Third_Party/FatFs/src/ff.c **** 				0xF0,0xF1,0xF2,0xF3,0xF4,0xF5,0xF6,0xF7,0xF8,0xF9,0xFA,0xFB,0xFC,0xFD,0xFE,0xFF}
 106:Middlewares/Third_Party/FatFs/src/ff.c **** 
 107:Middlewares/Third_Party/FatFs/src/ff.c **** #elif _CODE_PAGE == 771	/* KBL */
 108:Middlewares/Third_Party/FatFs/src/ff.c **** #define _DF1S	0
 109:Middlewares/Third_Party/FatFs/src/ff.c **** #define _EXCVT {0x80,0x81,0x82,0x83,0x84,0x85,0x86,0x87,0x88,0x89,0x8A,0x8B,0x8C,0x8D,0x8E,0x8F, \
 110:Middlewares/Third_Party/FatFs/src/ff.c **** 				0x90,0x91,0x92,0x93,0x94,0x95,0x96,0x97,0x98,0x99,0x9A,0x9B,0x9C,0x9D,0x9E,0x9F, \
 111:Middlewares/Third_Party/FatFs/src/ff.c **** 				0x80,0x81,0x82,0x83,0x84,0x85,0x86,0x87,0x88,0x89,0x8A,0x8B,0x8C,0x8D,0x8E,0x8F, \
 112:Middlewares/Third_Party/FatFs/src/ff.c **** 				0xB0,0xB1,0xB2,0xB3,0xB4,0xB5,0xB6,0xB7,0xB8,0xB9,0xBA,0xBB,0xBC,0xBD,0xBE,0xBF, \
 113:Middlewares/Third_Party/FatFs/src/ff.c **** 				0xC0,0xC1,0xC2,0xC3,0xC4,0xC5,0xC6,0xC7,0xC8,0xC9,0xCA,0xCB,0xCC,0xCD,0xCE,0xCF, \
 114:Middlewares/Third_Party/FatFs/src/ff.c **** 				0xD0,0xD1,0xD2,0xD3,0xD4,0xD5,0xD6,0xD7,0xD8,0xD9,0xDA,0xDB,0xDC,0xDC,0xDE,0xDE, \
 115:Middlewares/Third_Party/FatFs/src/ff.c **** 				0x90,0x91,0x92,0x93,0x94,0x95,0x96,0x97,0x98,0x99,0x9A,0x9B,0x9C,0x9D,0x9E,0x9F, \
 116:Middlewares/Third_Party/FatFs/src/ff.c **** 				0xF0,0xF0,0xF2,0xF2,0xF4,0xF4,0xF6,0xF6,0xF8,0xF8,0xFA,0xFA,0xFC,0xFC,0xFE,0xFF}
 117:Middlewares/Third_Party/FatFs/src/ff.c **** 
 118:Middlewares/Third_Party/FatFs/src/ff.c **** #elif _CODE_PAGE == 775	/* Baltic */
 119:Middlewares/Third_Party/FatFs/src/ff.c **** #define _DF1S	0
 120:Middlewares/Third_Party/FatFs/src/ff.c **** #define _EXCVT {0x80,0x9A,0x91,0xA0,0x8E,0x95,0x8F,0x80,0xAD,0xED,0x8A,0x8A,0xA1,0x8D,0x8E,0x8F, \
 121:Middlewares/Third_Party/FatFs/src/ff.c **** 				0x90,0x92,0x92,0xE2,0x99,0x95,0x96,0x97,0x97,0x99,0x9A,0x9D,0x9C,0x9D,0x9E,0x9F, \
 122:Middlewares/Third_Party/FatFs/src/ff.c **** 				0xA0,0xA1,0xE0,0xA3,0xA3,0xA5,0xA6,0xA7,0xA8,0xA9,0xAA,0xAB,0xAC,0xAD,0xAE,0xAF, \
 123:Middlewares/Third_Party/FatFs/src/ff.c **** 				0xB0,0xB1,0xB2,0xB3,0xB4,0xB5,0xB6,0xB7,0xB8,0xB9,0xBA,0xBB,0xBC,0xBD,0xBE,0xBF, \
 124:Middlewares/Third_Party/FatFs/src/ff.c **** 				0xC0,0xC1,0xC2,0xC3,0xC4,0xC5,0xC6,0xC7,0xC8,0xC9,0xCA,0xCB,0xCC,0xCD,0xCE,0xCF, \
 125:Middlewares/Third_Party/FatFs/src/ff.c **** 				0xB5,0xB6,0xB7,0xB8,0xBD,0xBE,0xC6,0xC7,0xA5,0xD9,0xDA,0xDB,0xDC,0xDD,0xDE,0xDF, \
 126:Middlewares/Third_Party/FatFs/src/ff.c **** 				0xE0,0xE1,0xE2,0xE3,0xE5,0xE5,0xE6,0xE3,0xE8,0xE8,0xEA,0xEA,0xEE,0xED,0xEE,0xEF, \
 127:Middlewares/Third_Party/FatFs/src/ff.c **** 				0xF0,0xF1,0xF2,0xF3,0xF4,0xF5,0xF6,0xF7,0xF8,0xF9,0xFA,0xFB,0xFC,0xFD,0xFE,0xFF}
 128:Middlewares/Third_Party/FatFs/src/ff.c **** 
 129:Middlewares/Third_Party/FatFs/src/ff.c **** #elif _CODE_PAGE == 850	/* Latin 1 */
 130:Middlewares/Third_Party/FatFs/src/ff.c **** #define _DF1S	0
 131:Middlewares/Third_Party/FatFs/src/ff.c **** #define _EXCVT {0x43,0x55,0x45,0x41,0x41,0x41,0x41,0x43,0x45,0x45,0x45,0x49,0x49,0x49,0x41,0x41, \
 132:Middlewares/Third_Party/FatFs/src/ff.c **** 				0x45,0x92,0x92,0x4F,0x4F,0x4F,0x55,0x55,0x59,0x4F,0x55,0x4F,0x9C,0x4F,0x9E,0x9F, \
 133:Middlewares/Third_Party/FatFs/src/ff.c **** 				0x41,0x49,0x4F,0x55,0xA5,0xA5,0xA6,0xA7,0xA8,0xA9,0xAA,0xAB,0xAC,0xAD,0xAE,0xAF, \
 134:Middlewares/Third_Party/FatFs/src/ff.c **** 				0xB0,0xB1,0xB2,0xB3,0xB4,0x41,0x41,0x41,0xB8,0xB9,0xBA,0xBB,0xBC,0xBD,0xBE,0xBF, \
 135:Middlewares/Third_Party/FatFs/src/ff.c **** 				0xC0,0xC1,0xC2,0xC3,0xC4,0xC5,0x41,0x41,0xC8,0xC9,0xCA,0xCB,0xCC,0xCD,0xCE,0xCF, \
 136:Middlewares/Third_Party/FatFs/src/ff.c **** 				0xD1,0xD1,0x45,0x45,0x45,0x49,0x49,0x49,0x49,0xD9,0xDA,0xDB,0xDC,0xDD,0x49,0xDF, \
 137:Middlewares/Third_Party/FatFs/src/ff.c **** 				0x4F,0xE1,0x4F,0x4F,0x4F,0x4F,0xE6,0xE8,0xE8,0x55,0x55,0x55,0x59,0x59,0xEE,0xEF, \
 138:Middlewares/Third_Party/FatFs/src/ff.c **** 				0xF0,0xF1,0xF2,0xF3,0xF4,0xF5,0xF6,0xF7,0xF8,0xF9,0xFA,0xFB,0xFC,0xFD,0xFE,0xFF}
 139:Middlewares/Third_Party/FatFs/src/ff.c **** 
 140:Middlewares/Third_Party/FatFs/src/ff.c **** #elif _CODE_PAGE == 852	/* Latin 2 */
 141:Middlewares/Third_Party/FatFs/src/ff.c **** #define _DF1S	0
 142:Middlewares/Third_Party/FatFs/src/ff.c **** #define _EXCVT {0x80,0x9A,0x90,0xB6,0x8E,0xDE,0x8F,0x80,0x9D,0xD3,0x8A,0x8A,0xD7,0x8D,0x8E,0x8F, \
 143:Middlewares/Third_Party/FatFs/src/ff.c **** 				0x90,0x91,0x91,0xE2,0x99,0x95,0x95,0x97,0x97,0x99,0x9A,0x9B,0x9B,0x9D,0x9E,0xAC, \
 144:Middlewares/Third_Party/FatFs/src/ff.c **** 				0xB5,0xD6,0xE0,0xE9,0xA4,0xA4,0xA6,0xA6,0xA8,0xA8,0xAA,0x8D,0xAC,0xB8,0xAE,0xAF, \
 145:Middlewares/Third_Party/FatFs/src/ff.c **** 				0xB0,0xB1,0xB2,0xB3,0xB4,0xB5,0xB6,0xB7,0xB8,0xB9,0xBA,0xBB,0xBC,0xBD,0xBD,0xBF, \
ARM GAS  C:\Users\zdy\AppData\Local\Temp\ccxXfRHS.s 			page 4


 146:Middlewares/Third_Party/FatFs/src/ff.c **** 				0xC0,0xC1,0xC2,0xC3,0xC4,0xC5,0xC6,0xC6,0xC8,0xC9,0xCA,0xCB,0xCC,0xCD,0xCE,0xCF, \
 147:Middlewares/Third_Party/FatFs/src/ff.c **** 				0xD1,0xD1,0xD2,0xD3,0xD2,0xD5,0xD6,0xD7,0xB7,0xD9,0xDA,0xDB,0xDC,0xDD,0xDE,0xDF, \
 148:Middlewares/Third_Party/FatFs/src/ff.c **** 				0xE0,0xE1,0xE2,0xE3,0xE3,0xD5,0xE6,0xE6,0xE8,0xE9,0xE8,0xEB,0xED,0xED,0xDD,0xEF, \
 149:Middlewares/Third_Party/FatFs/src/ff.c **** 				0xF0,0xF1,0xF2,0xF3,0xF4,0xF5,0xF6,0xF7,0xF8,0xF9,0xFA,0xEB,0xFC,0xFC,0xFE,0xFF}
 150:Middlewares/Third_Party/FatFs/src/ff.c **** 
 151:Middlewares/Third_Party/FatFs/src/ff.c **** #elif _CODE_PAGE == 855	/* Cyrillic */
 152:Middlewares/Third_Party/FatFs/src/ff.c **** #define _DF1S	0
 153:Middlewares/Third_Party/FatFs/src/ff.c **** #define _EXCVT {0x81,0x81,0x83,0x83,0x85,0x85,0x87,0x87,0x89,0x89,0x8B,0x8B,0x8D,0x8D,0x8F,0x8F, \
 154:Middlewares/Third_Party/FatFs/src/ff.c **** 				0x91,0x91,0x93,0x93,0x95,0x95,0x97,0x97,0x99,0x99,0x9B,0x9B,0x9D,0x9D,0x9F,0x9F, \
 155:Middlewares/Third_Party/FatFs/src/ff.c **** 				0xA1,0xA1,0xA3,0xA3,0xA5,0xA5,0xA7,0xA7,0xA9,0xA9,0xAB,0xAB,0xAD,0xAD,0xAE,0xAF, \
 156:Middlewares/Third_Party/FatFs/src/ff.c **** 				0xB0,0xB1,0xB2,0xB3,0xB4,0xB6,0xB6,0xB8,0xB8,0xB9,0xBA,0xBB,0xBC,0xBE,0xBE,0xBF, \
 157:Middlewares/Third_Party/FatFs/src/ff.c **** 				0xC0,0xC1,0xC2,0xC3,0xC4,0xC5,0xC7,0xC7,0xC8,0xC9,0xCA,0xCB,0xCC,0xCD,0xCE,0xCF, \
 158:Middlewares/Third_Party/FatFs/src/ff.c **** 				0xD1,0xD1,0xD3,0xD3,0xD5,0xD5,0xD7,0xD7,0xDD,0xD9,0xDA,0xDB,0xDC,0xDD,0xE0,0xDF, \
 159:Middlewares/Third_Party/FatFs/src/ff.c **** 				0xE0,0xE2,0xE2,0xE4,0xE4,0xE6,0xE6,0xE8,0xE8,0xEA,0xEA,0xEC,0xEC,0xEE,0xEE,0xEF, \
 160:Middlewares/Third_Party/FatFs/src/ff.c **** 				0xF0,0xF2,0xF2,0xF4,0xF4,0xF6,0xF6,0xF8,0xF8,0xFA,0xFA,0xFC,0xFC,0xFD,0xFE,0xFF}
 161:Middlewares/Third_Party/FatFs/src/ff.c **** 
 162:Middlewares/Third_Party/FatFs/src/ff.c **** #elif _CODE_PAGE == 857	/* Turkish */
 163:Middlewares/Third_Party/FatFs/src/ff.c **** #define _DF1S	0
 164:Middlewares/Third_Party/FatFs/src/ff.c **** #define _EXCVT {0x80,0x9A,0x90,0xB6,0x8E,0xB7,0x8F,0x80,0xD2,0xD3,0xD4,0xD8,0xD7,0x49,0x8E,0x8F, \
 165:Middlewares/Third_Party/FatFs/src/ff.c **** 				0x90,0x92,0x92,0xE2,0x99,0xE3,0xEA,0xEB,0x98,0x99,0x9A,0x9D,0x9C,0x9D,0x9E,0x9E, \
 166:Middlewares/Third_Party/FatFs/src/ff.c **** 				0xB5,0xD6,0xE0,0xE9,0xA5,0xA5,0xA6,0xA6,0xA8,0xA9,0xAA,0xAB,0xAC,0xAD,0xAE,0xAF, \
 167:Middlewares/Third_Party/FatFs/src/ff.c **** 				0xB0,0xB1,0xB2,0xB3,0xB4,0xB5,0xB6,0xB7,0xB8,0xB9,0xBA,0xBB,0xBC,0xBD,0xBE,0xBF, \
 168:Middlewares/Third_Party/FatFs/src/ff.c **** 				0xC0,0xC1,0xC2,0xC3,0xC4,0xC5,0xC7,0xC7,0xC8,0xC9,0xCA,0xCB,0xCC,0xCD,0xCE,0xCF, \
 169:Middlewares/Third_Party/FatFs/src/ff.c **** 				0xD0,0xD1,0xD2,0xD3,0xD4,0x49,0xD6,0xD7,0xD8,0xD9,0xDA,0xDB,0xDC,0xDD,0xDE,0xDF, \
 170:Middlewares/Third_Party/FatFs/src/ff.c **** 				0xE0,0xE1,0xE2,0xE3,0xE5,0xE5,0xE6,0xE7,0xE8,0xE9,0xEA,0xEB,0xDE,0xED,0xEE,0xEF, \
 171:Middlewares/Third_Party/FatFs/src/ff.c **** 				0xF0,0xF1,0xF2,0xF3,0xF4,0xF5,0xF6,0xF7,0xF8,0xF9,0xFA,0xFB,0xFC,0xFD,0xFE,0xFF}
 172:Middlewares/Third_Party/FatFs/src/ff.c **** 
 173:Middlewares/Third_Party/FatFs/src/ff.c **** #elif _CODE_PAGE == 860	/* Portuguese */
 174:Middlewares/Third_Party/FatFs/src/ff.c **** #define _DF1S	0
 175:Middlewares/Third_Party/FatFs/src/ff.c **** #define _EXCVT {0x80,0x9A,0x90,0x8F,0x8E,0x91,0x86,0x80,0x89,0x89,0x92,0x8B,0x8C,0x98,0x8E,0x8F, \
 176:Middlewares/Third_Party/FatFs/src/ff.c **** 				0x90,0x91,0x92,0x8C,0x99,0xA9,0x96,0x9D,0x98,0x99,0x9A,0x9B,0x9C,0x9D,0x9E,0x9F, \
 177:Middlewares/Third_Party/FatFs/src/ff.c **** 				0x86,0x8B,0x9F,0x96,0xA5,0xA5,0xA6,0xA7,0xA8,0xA9,0xAA,0xAB,0xAC,0xAD,0xAE,0xAF, \
 178:Middlewares/Third_Party/FatFs/src/ff.c **** 				0xB0,0xB1,0xB2,0xB3,0xB4,0xB5,0xB6,0xB7,0xB8,0xB9,0xBA,0xBB,0xBC,0xBD,0xBE,0xBF, \
 179:Middlewares/Third_Party/FatFs/src/ff.c **** 				0xC0,0xC1,0xC2,0xC3,0xC4,0xC5,0xC6,0xC7,0xC8,0xC9,0xCA,0xCB,0xCC,0xCD,0xCE,0xCF, \
 180:Middlewares/Third_Party/FatFs/src/ff.c **** 				0xD0,0xD1,0xD2,0xD3,0xD4,0xD5,0xD6,0xD7,0xD8,0xD9,0xDA,0xDB,0xDC,0xDD,0xDE,0xDF, \
 181:Middlewares/Third_Party/FatFs/src/ff.c **** 				0xE0,0xE1,0xE2,0xE3,0xE4,0xE5,0xE6,0xE7,0xE8,0xE9,0xEA,0xEB,0xEC,0xED,0xEE,0xEF, \
 182:Middlewares/Third_Party/FatFs/src/ff.c **** 				0xF0,0xF1,0xF2,0xF3,0xF4,0xF5,0xF6,0xF7,0xF8,0xF9,0xFA,0xFB,0xFC,0xFD,0xFE,0xFF}
 183:Middlewares/Third_Party/FatFs/src/ff.c **** 
 184:Middlewares/Third_Party/FatFs/src/ff.c **** #elif _CODE_PAGE == 861	/* Icelandic */
 185:Middlewares/Third_Party/FatFs/src/ff.c **** #define _DF1S	0
 186:Middlewares/Third_Party/FatFs/src/ff.c **** #define _EXCVT {0x80,0x9A,0x90,0x41,0x8E,0x41,0x8F,0x80,0x45,0x45,0x45,0x8B,0x8B,0x8D,0x8E,0x8F, \
 187:Middlewares/Third_Party/FatFs/src/ff.c **** 				0x90,0x92,0x92,0x4F,0x99,0x8D,0x55,0x97,0x97,0x99,0x9A,0x9D,0x9C,0x9D,0x9E,0x9F, \
 188:Middlewares/Third_Party/FatFs/src/ff.c **** 				0xA4,0xA5,0xA6,0xA7,0xA4,0xA5,0xA6,0xA7,0xA8,0xA9,0xAA,0xAB,0xAC,0xAD,0xAE,0xAF, \
 189:Middlewares/Third_Party/FatFs/src/ff.c **** 				0xB0,0xB1,0xB2,0xB3,0xB4,0xB5,0xB6,0xB7,0xB8,0xB9,0xBA,0xBB,0xBC,0xBD,0xBE,0xBF, \
 190:Middlewares/Third_Party/FatFs/src/ff.c **** 				0xC0,0xC1,0xC2,0xC3,0xC4,0xC5,0xC6,0xC7,0xC8,0xC9,0xCA,0xCB,0xCC,0xCD,0xCE,0xCF, \
 191:Middlewares/Third_Party/FatFs/src/ff.c **** 				0xD0,0xD1,0xD2,0xD3,0xD4,0xD5,0xD6,0xD7,0xD8,0xD9,0xDA,0xDB,0xDC,0xDD,0xDE,0xDF, \
 192:Middlewares/Third_Party/FatFs/src/ff.c **** 				0xE0,0xE1,0xE2,0xE3,0xE4,0xE5,0xE6,0xE7,0xE8,0xE9,0xEA,0xEB,0xEC,0xED,0xEE,0xEF, \
 193:Middlewares/Third_Party/FatFs/src/ff.c **** 				0xF0,0xF1,0xF2,0xF3,0xF4,0xF5,0xF6,0xF7,0xF8,0xF9,0xFA,0xFB,0xFC,0xFD,0xFE,0xFF}
 194:Middlewares/Third_Party/FatFs/src/ff.c **** 
 195:Middlewares/Third_Party/FatFs/src/ff.c **** #elif _CODE_PAGE == 862	/* Hebrew */
 196:Middlewares/Third_Party/FatFs/src/ff.c **** #define _DF1S	0
 197:Middlewares/Third_Party/FatFs/src/ff.c **** #define _EXCVT {0x80,0x81,0x82,0x83,0x84,0x85,0x86,0x87,0x88,0x89,0x8A,0x8B,0x8C,0x8D,0x8E,0x8F, \
 198:Middlewares/Third_Party/FatFs/src/ff.c **** 				0x90,0x91,0x92,0x93,0x94,0x95,0x96,0x97,0x98,0x99,0x9A,0x9B,0x9C,0x9D,0x9E,0x9F, \
 199:Middlewares/Third_Party/FatFs/src/ff.c **** 				0x41,0x49,0x4F,0x55,0xA5,0xA5,0xA6,0xA7,0xA8,0xA9,0xAA,0xAB,0xAC,0xAD,0xAE,0xAF, \
 200:Middlewares/Third_Party/FatFs/src/ff.c **** 				0xB0,0xB1,0xB2,0xB3,0xB4,0xB5,0xB6,0xB7,0xB8,0xB9,0xBA,0xBB,0xBC,0xBD,0xBE,0xBF, \
 201:Middlewares/Third_Party/FatFs/src/ff.c **** 				0xC0,0xC1,0xC2,0xC3,0xC4,0xC5,0xC6,0xC7,0xC8,0xC9,0xCA,0xCB,0xCC,0xCD,0xCE,0xCF, \
 202:Middlewares/Third_Party/FatFs/src/ff.c **** 				0xD0,0xD1,0xD2,0xD3,0xD4,0xD5,0xD6,0xD7,0xD8,0xD9,0xDA,0xDB,0xDC,0xDD,0xDE,0xDF, \
ARM GAS  C:\Users\zdy\AppData\Local\Temp\ccxXfRHS.s 			page 5


 203:Middlewares/Third_Party/FatFs/src/ff.c **** 				0xE0,0xE1,0xE2,0xE3,0xE4,0xE5,0xE6,0xE7,0xE8,0xE9,0xEA,0xEB,0xEC,0xED,0xEE,0xEF, \
 204:Middlewares/Third_Party/FatFs/src/ff.c **** 				0xF0,0xF1,0xF2,0xF3,0xF4,0xF5,0xF6,0xF7,0xF8,0xF9,0xFA,0xFB,0xFC,0xFD,0xFE,0xFF}
 205:Middlewares/Third_Party/FatFs/src/ff.c **** 
 206:Middlewares/Third_Party/FatFs/src/ff.c **** #elif _CODE_PAGE == 863	/* Canadian-French */
 207:Middlewares/Third_Party/FatFs/src/ff.c **** #define _DF1S	0
 208:Middlewares/Third_Party/FatFs/src/ff.c **** #define _EXCVT {0x43,0x55,0x45,0x41,0x41,0x41,0x86,0x43,0x45,0x45,0x45,0x49,0x49,0x8D,0x41,0x8F, \
 209:Middlewares/Third_Party/FatFs/src/ff.c **** 				0x45,0x45,0x45,0x4F,0x45,0x49,0x55,0x55,0x98,0x4F,0x55,0x9B,0x9C,0x55,0x55,0x9F, \
 210:Middlewares/Third_Party/FatFs/src/ff.c **** 				0xA0,0xA1,0x4F,0x55,0xA4,0xA5,0xA6,0xA7,0x49,0xA9,0xAA,0xAB,0xAC,0xAD,0xAE,0xAF, \
 211:Middlewares/Third_Party/FatFs/src/ff.c **** 				0xB0,0xB1,0xB2,0xB3,0xB4,0xB5,0xB6,0xB7,0xB8,0xB9,0xBA,0xBB,0xBC,0xBD,0xBE,0xBF, \
 212:Middlewares/Third_Party/FatFs/src/ff.c **** 				0xC0,0xC1,0xC2,0xC3,0xC4,0xC5,0xC6,0xC7,0xC8,0xC9,0xCA,0xCB,0xCC,0xCD,0xCE,0xCF, \
 213:Middlewares/Third_Party/FatFs/src/ff.c **** 				0xD0,0xD1,0xD2,0xD3,0xD4,0xD5,0xD6,0xD7,0xD8,0xD9,0xDA,0xDB,0xDC,0xDD,0xDE,0xDF, \
 214:Middlewares/Third_Party/FatFs/src/ff.c **** 				0xE0,0xE1,0xE2,0xE3,0xE4,0xE5,0xE6,0xE7,0xE8,0xE9,0xEA,0xEB,0xEC,0xED,0xEE,0xEF, \
 215:Middlewares/Third_Party/FatFs/src/ff.c **** 				0xF0,0xF1,0xF2,0xF3,0xF4,0xF5,0xF6,0xF7,0xF8,0xF9,0xFA,0xFB,0xFC,0xFD,0xFE,0xFF}
 216:Middlewares/Third_Party/FatFs/src/ff.c **** 
 217:Middlewares/Third_Party/FatFs/src/ff.c **** #elif _CODE_PAGE == 864	/* Arabic */
 218:Middlewares/Third_Party/FatFs/src/ff.c **** #define _DF1S	0
 219:Middlewares/Third_Party/FatFs/src/ff.c **** #define _EXCVT {0x80,0x9A,0x45,0x41,0x8E,0x41,0x8F,0x80,0x45,0x45,0x45,0x49,0x49,0x49,0x8E,0x8F, \
 220:Middlewares/Third_Party/FatFs/src/ff.c **** 				0x90,0x92,0x92,0x4F,0x99,0x4F,0x55,0x55,0x59,0x99,0x9A,0x9B,0x9C,0x9D,0x9E,0x9F, \
 221:Middlewares/Third_Party/FatFs/src/ff.c **** 				0x41,0x49,0x4F,0x55,0xA5,0xA5,0xA6,0xA7,0xA8,0xA9,0xAA,0xAB,0xAC,0xAD,0xAE,0xAF, \
 222:Middlewares/Third_Party/FatFs/src/ff.c **** 				0xB0,0xB1,0xB2,0xB3,0xB4,0xB5,0xB6,0xB7,0xB8,0xB9,0xBA,0xBB,0xBC,0xBD,0xBE,0xBF, \
 223:Middlewares/Third_Party/FatFs/src/ff.c **** 				0xC0,0xC1,0xC2,0xC3,0xC4,0xC5,0xC6,0xC7,0xC8,0xC9,0xCA,0xCB,0xCC,0xCD,0xCE,0xCF, \
 224:Middlewares/Third_Party/FatFs/src/ff.c **** 				0xD0,0xD1,0xD2,0xD3,0xD4,0xD5,0xD6,0xD7,0xD8,0xD9,0xDA,0xDB,0xDC,0xDD,0xDE,0xDF, \
 225:Middlewares/Third_Party/FatFs/src/ff.c **** 				0xE0,0xE1,0xE2,0xE3,0xE4,0xE5,0xE6,0xE7,0xE8,0xE9,0xEA,0xEB,0xEC,0xED,0xEE,0xEF, \
 226:Middlewares/Third_Party/FatFs/src/ff.c **** 				0xF0,0xF1,0xF2,0xF3,0xF4,0xF5,0xF6,0xF7,0xF8,0xF9,0xFA,0xFB,0xFC,0xFD,0xFE,0xFF}
 227:Middlewares/Third_Party/FatFs/src/ff.c **** 
 228:Middlewares/Third_Party/FatFs/src/ff.c **** #elif _CODE_PAGE == 865	/* Nordic */
 229:Middlewares/Third_Party/FatFs/src/ff.c **** #define _DF1S	0
 230:Middlewares/Third_Party/FatFs/src/ff.c **** #define _EXCVT {0x80,0x9A,0x90,0x41,0x8E,0x41,0x8F,0x80,0x45,0x45,0x45,0x49,0x49,0x49,0x8E,0x8F, \
 231:Middlewares/Third_Party/FatFs/src/ff.c **** 				0x90,0x92,0x92,0x4F,0x99,0x4F,0x55,0x55,0x59,0x99,0x9A,0x9B,0x9C,0x9D,0x9E,0x9F, \
 232:Middlewares/Third_Party/FatFs/src/ff.c **** 				0x41,0x49,0x4F,0x55,0xA5,0xA5,0xA6,0xA7,0xA8,0xA9,0xAA,0xAB,0xAC,0xAD,0xAE,0xAF, \
 233:Middlewares/Third_Party/FatFs/src/ff.c **** 				0xB0,0xB1,0xB2,0xB3,0xB4,0xB5,0xB6,0xB7,0xB8,0xB9,0xBA,0xBB,0xBC,0xBD,0xBE,0xBF, \
 234:Middlewares/Third_Party/FatFs/src/ff.c **** 				0xC0,0xC1,0xC2,0xC3,0xC4,0xC5,0xC6,0xC7,0xC8,0xC9,0xCA,0xCB,0xCC,0xCD,0xCE,0xCF, \
 235:Middlewares/Third_Party/FatFs/src/ff.c **** 				0xD0,0xD1,0xD2,0xD3,0xD4,0xD5,0xD6,0xD7,0xD8,0xD9,0xDA,0xDB,0xDC,0xDD,0xDE,0xDF, \
 236:Middlewares/Third_Party/FatFs/src/ff.c **** 				0xE0,0xE1,0xE2,0xE3,0xE4,0xE5,0xE6,0xE7,0xE8,0xE9,0xEA,0xEB,0xEC,0xED,0xEE,0xEF, \
 237:Middlewares/Third_Party/FatFs/src/ff.c **** 				0xF0,0xF1,0xF2,0xF3,0xF4,0xF5,0xF6,0xF7,0xF8,0xF9,0xFA,0xFB,0xFC,0xFD,0xFE,0xFF}
 238:Middlewares/Third_Party/FatFs/src/ff.c **** 
 239:Middlewares/Third_Party/FatFs/src/ff.c **** #elif _CODE_PAGE == 866	/* Russian */
 240:Middlewares/Third_Party/FatFs/src/ff.c **** #define _DF1S	0
 241:Middlewares/Third_Party/FatFs/src/ff.c **** #define _EXCVT {0x80,0x81,0x82,0x83,0x84,0x85,0x86,0x87,0x88,0x89,0x8A,0x8B,0x8C,0x8D,0x8E,0x8F, \
 242:Middlewares/Third_Party/FatFs/src/ff.c **** 				0x90,0x91,0x92,0x93,0x94,0x95,0x96,0x97,0x98,0x99,0x9A,0x9B,0x9C,0x9D,0x9E,0x9F, \
 243:Middlewares/Third_Party/FatFs/src/ff.c **** 				0x80,0x81,0x82,0x83,0x84,0x85,0x86,0x87,0x88,0x89,0x8A,0x8B,0x8C,0x8D,0x8E,0x8F, \
 244:Middlewares/Third_Party/FatFs/src/ff.c **** 				0xB0,0xB1,0xB2,0xB3,0xB4,0xB5,0xB6,0xB7,0xB8,0xB9,0xBA,0xBB,0xBC,0xBD,0xBE,0xBF, \
 245:Middlewares/Third_Party/FatFs/src/ff.c **** 				0xC0,0xC1,0xC2,0xC3,0xC4,0xC5,0xC6,0xC7,0xC8,0xC9,0xCA,0xCB,0xCC,0xCD,0xCE,0xCF, \
 246:Middlewares/Third_Party/FatFs/src/ff.c **** 				0xD0,0xD1,0xD2,0xD3,0xD4,0xD5,0xD6,0xD7,0xD8,0xD9,0xDA,0xDB,0xDC,0xDD,0xDE,0xDF, \
 247:Middlewares/Third_Party/FatFs/src/ff.c **** 				0x90,0x91,0x92,0x93,0x94,0x95,0x96,0x97,0x98,0x99,0x9A,0x9B,0x9C,0x9D,0x9E,0x9F, \
 248:Middlewares/Third_Party/FatFs/src/ff.c **** 				0xF0,0xF0,0xF2,0xF2,0xF4,0xF4,0xF6,0xF6,0xF8,0xF9,0xFA,0xFB,0xFC,0xFD,0xFE,0xFF}
 249:Middlewares/Third_Party/FatFs/src/ff.c **** 
 250:Middlewares/Third_Party/FatFs/src/ff.c **** #elif _CODE_PAGE == 869	/* Greek 2 */
 251:Middlewares/Third_Party/FatFs/src/ff.c **** #define _DF1S	0
 252:Middlewares/Third_Party/FatFs/src/ff.c **** #define _EXCVT {0x80,0x81,0x82,0x83,0x84,0x85,0x86,0x87,0x88,0x89,0x8A,0x8B,0x8C,0x8D,0x8E,0x8F, \
 253:Middlewares/Third_Party/FatFs/src/ff.c **** 				0x90,0x91,0x92,0x93,0x94,0x95,0x96,0x97,0x98,0x99,0x9A,0x86,0x9C,0x8D,0x8F,0x90, \
 254:Middlewares/Third_Party/FatFs/src/ff.c **** 				0x91,0x90,0x92,0x95,0xA4,0xA5,0xA6,0xA7,0xA8,0xA9,0xAA,0xAB,0xAC,0xAD,0xAE,0xAF, \
 255:Middlewares/Third_Party/FatFs/src/ff.c **** 				0xB0,0xB1,0xB2,0xB3,0xB4,0xB5,0xB6,0xB7,0xB8,0xB9,0xBA,0xBB,0xBC,0xBD,0xBE,0xBF, \
 256:Middlewares/Third_Party/FatFs/src/ff.c **** 				0xC0,0xC1,0xC2,0xC3,0xC4,0xC5,0xC6,0xC7,0xC8,0xC9,0xCA,0xCB,0xCC,0xCD,0xCE,0xCF, \
 257:Middlewares/Third_Party/FatFs/src/ff.c **** 				0xD0,0xD1,0xD2,0xD3,0xD4,0xD5,0xA4,0xA5,0xA6,0xD9,0xDA,0xDB,0xDC,0xA7,0xA8,0xDF, \
 258:Middlewares/Third_Party/FatFs/src/ff.c **** 				0xA9,0xAA,0xAC,0xAD,0xB5,0xB6,0xB7,0xB8,0xBD,0xBE,0xC6,0xC7,0xCF,0xCF,0xD0,0xEF, \
 259:Middlewares/Third_Party/FatFs/src/ff.c **** 				0xF0,0xF1,0xD1,0xD2,0xD3,0xF5,0xD4,0xF7,0xF8,0xF9,0xD5,0x96,0x95,0x98,0xFE,0xFF}
ARM GAS  C:\Users\zdy\AppData\Local\Temp\ccxXfRHS.s 			page 6


 260:Middlewares/Third_Party/FatFs/src/ff.c **** 
 261:Middlewares/Third_Party/FatFs/src/ff.c **** #elif _CODE_PAGE == 1	/* ASCII (for only non-LFN cfg) */
 262:Middlewares/Third_Party/FatFs/src/ff.c **** #if _USE_LFN != 0
 263:Middlewares/Third_Party/FatFs/src/ff.c **** #error Cannot enable LFN without valid code page.
 264:Middlewares/Third_Party/FatFs/src/ff.c **** #endif
 265:Middlewares/Third_Party/FatFs/src/ff.c **** #define _DF1S	0
 266:Middlewares/Third_Party/FatFs/src/ff.c **** 
 267:Middlewares/Third_Party/FatFs/src/ff.c **** #else
 268:Middlewares/Third_Party/FatFs/src/ff.c **** #error Unknown code page
 269:Middlewares/Third_Party/FatFs/src/ff.c **** 
 270:Middlewares/Third_Party/FatFs/src/ff.c **** #endif
 271:Middlewares/Third_Party/FatFs/src/ff.c **** 
 272:Middlewares/Third_Party/FatFs/src/ff.c **** 
 273:Middlewares/Third_Party/FatFs/src/ff.c **** /* Character code support macros */
 274:Middlewares/Third_Party/FatFs/src/ff.c **** #define IsUpper(c)	(((c)>='A')&&((c)<='Z'))
 275:Middlewares/Third_Party/FatFs/src/ff.c **** #define IsLower(c)	(((c)>='a')&&((c)<='z'))
 276:Middlewares/Third_Party/FatFs/src/ff.c **** #define IsDigit(c)	(((c)>='0')&&((c)<='9'))
 277:Middlewares/Third_Party/FatFs/src/ff.c **** 
 278:Middlewares/Third_Party/FatFs/src/ff.c **** #if _DF1S != 0	/* Code page is DBCS */
 279:Middlewares/Third_Party/FatFs/src/ff.c **** 
 280:Middlewares/Third_Party/FatFs/src/ff.c **** #ifdef _DF2S	/* Two 1st byte areas */
 281:Middlewares/Third_Party/FatFs/src/ff.c **** #define IsDBCS1(c)	(((BYTE)(c) >= _DF1S && (BYTE)(c) <= _DF1E) || ((BYTE)(c) >= _DF2S && (BYTE)(c) 
 282:Middlewares/Third_Party/FatFs/src/ff.c **** #else			/* One 1st byte area */
 283:Middlewares/Third_Party/FatFs/src/ff.c **** #define IsDBCS1(c)	((BYTE)(c) >= _DF1S && (BYTE)(c) <= _DF1E)
 284:Middlewares/Third_Party/FatFs/src/ff.c **** #endif
 285:Middlewares/Third_Party/FatFs/src/ff.c **** 
 286:Middlewares/Third_Party/FatFs/src/ff.c **** #ifdef _DS3S	/* Three 2nd byte areas */
 287:Middlewares/Third_Party/FatFs/src/ff.c **** #define IsDBCS2(c)	(((BYTE)(c) >= _DS1S && (BYTE)(c) <= _DS1E) || ((BYTE)(c) >= _DS2S && (BYTE)(c) 
 288:Middlewares/Third_Party/FatFs/src/ff.c **** #else			/* Two 2nd byte areas */
 289:Middlewares/Third_Party/FatFs/src/ff.c **** #define IsDBCS2(c)	(((BYTE)(c) >= _DS1S && (BYTE)(c) <= _DS1E) || ((BYTE)(c) >= _DS2S && (BYTE)(c) 
 290:Middlewares/Third_Party/FatFs/src/ff.c **** #endif
 291:Middlewares/Third_Party/FatFs/src/ff.c **** 
 292:Middlewares/Third_Party/FatFs/src/ff.c **** #else			/* Code page is SBCS */
 293:Middlewares/Third_Party/FatFs/src/ff.c **** 
 294:Middlewares/Third_Party/FatFs/src/ff.c **** #define IsDBCS1(c)	0
 295:Middlewares/Third_Party/FatFs/src/ff.c **** #define IsDBCS2(c)	0
 296:Middlewares/Third_Party/FatFs/src/ff.c **** 
 297:Middlewares/Third_Party/FatFs/src/ff.c **** #endif /* _DF1S */
 298:Middlewares/Third_Party/FatFs/src/ff.c **** 
 299:Middlewares/Third_Party/FatFs/src/ff.c **** 
 300:Middlewares/Third_Party/FatFs/src/ff.c **** /* Additional file attribute bits for internal use */
 301:Middlewares/Third_Party/FatFs/src/ff.c **** #define	AM_VOL		0x08	/* Volume label */
 302:Middlewares/Third_Party/FatFs/src/ff.c **** #define AM_LFN		0x0F	/* LFN entry */
 303:Middlewares/Third_Party/FatFs/src/ff.c **** #define AM_MASK		0x3F	/* Mask of defined bits */
 304:Middlewares/Third_Party/FatFs/src/ff.c **** 
 305:Middlewares/Third_Party/FatFs/src/ff.c **** 
 306:Middlewares/Third_Party/FatFs/src/ff.c **** /* Additional file access control and file status flags for internal use */
 307:Middlewares/Third_Party/FatFs/src/ff.c **** #define FA_SEEKEND	0x20	/* Seek to end of the file on file open */
 308:Middlewares/Third_Party/FatFs/src/ff.c **** #define FA_MODIFIED	0x40	/* File has been modified */
 309:Middlewares/Third_Party/FatFs/src/ff.c **** #define FA_DIRTY	0x80	/* FIL.buf[] needs to be written-back */
 310:Middlewares/Third_Party/FatFs/src/ff.c **** 
 311:Middlewares/Third_Party/FatFs/src/ff.c **** 
 312:Middlewares/Third_Party/FatFs/src/ff.c **** /* Name status flags in fn[] */
 313:Middlewares/Third_Party/FatFs/src/ff.c **** #define NSFLAG		11		/* Index of the name status byte */
 314:Middlewares/Third_Party/FatFs/src/ff.c **** #define NS_LOSS		0x01	/* Out of 8.3 format */
 315:Middlewares/Third_Party/FatFs/src/ff.c **** #define NS_LFN		0x02	/* Force to create LFN entry */
 316:Middlewares/Third_Party/FatFs/src/ff.c **** #define NS_LAST		0x04	/* Last segment */
ARM GAS  C:\Users\zdy\AppData\Local\Temp\ccxXfRHS.s 			page 7


 317:Middlewares/Third_Party/FatFs/src/ff.c **** #define NS_BODY		0x08	/* Lower case flag (body) */
 318:Middlewares/Third_Party/FatFs/src/ff.c **** #define NS_EXT		0x10	/* Lower case flag (ext) */
 319:Middlewares/Third_Party/FatFs/src/ff.c **** #define NS_DOT		0x20	/* Dot entry */
 320:Middlewares/Third_Party/FatFs/src/ff.c **** #define NS_NOLFN	0x40	/* Do not find LFN */
 321:Middlewares/Third_Party/FatFs/src/ff.c **** #define NS_NONAME	0x80	/* Not followed */
 322:Middlewares/Third_Party/FatFs/src/ff.c **** 
 323:Middlewares/Third_Party/FatFs/src/ff.c **** 
 324:Middlewares/Third_Party/FatFs/src/ff.c **** /* Limits and boundaries */
 325:Middlewares/Third_Party/FatFs/src/ff.c **** #define MAX_DIR		0x200000		/* Max size of FAT directory */
 326:Middlewares/Third_Party/FatFs/src/ff.c **** #define MAX_DIR_EX	0x10000000		/* Max size of exFAT directory */
 327:Middlewares/Third_Party/FatFs/src/ff.c **** #define MAX_FAT12	0xFF5			/* Max FAT12 clusters (differs from specs, but correct for real DOS/Windo
 328:Middlewares/Third_Party/FatFs/src/ff.c **** #define	MAX_FAT16	0xFFF5			/* Max FAT16 clusters (differs from specs, but correct for real DOS/Wind
 329:Middlewares/Third_Party/FatFs/src/ff.c **** #define	MAX_FAT32	0x0FFFFFF5		/* Max FAT32 clusters (not specified, practical limit) */
 330:Middlewares/Third_Party/FatFs/src/ff.c **** #define	MAX_EXFAT	0x7FFFFFFD		/* Max exFAT clusters (differs from specs, implementation limit) */
 331:Middlewares/Third_Party/FatFs/src/ff.c **** 
 332:Middlewares/Third_Party/FatFs/src/ff.c **** 
 333:Middlewares/Third_Party/FatFs/src/ff.c **** /* FatFs refers the FAT structure as simple byte array instead of structure member
 334:Middlewares/Third_Party/FatFs/src/ff.c **** / because the C structure is not binary compatible between different platforms */
 335:Middlewares/Third_Party/FatFs/src/ff.c **** 
 336:Middlewares/Third_Party/FatFs/src/ff.c **** #define BS_JmpBoot			0		/* x86 jump instruction (3-byte) */
 337:Middlewares/Third_Party/FatFs/src/ff.c **** #define BS_OEMName			3		/* OEM name (8-byte) */
 338:Middlewares/Third_Party/FatFs/src/ff.c **** #define BPB_BytsPerSec		11		/* Sector size [byte] (WORD) */
 339:Middlewares/Third_Party/FatFs/src/ff.c **** #define BPB_SecPerClus		13		/* Cluster size [sector] (BYTE) */
 340:Middlewares/Third_Party/FatFs/src/ff.c **** #define BPB_RsvdSecCnt		14		/* Size of reserved area [sector] (WORD) */
 341:Middlewares/Third_Party/FatFs/src/ff.c **** #define BPB_NumFATs			16		/* Number of FATs (BYTE) */
 342:Middlewares/Third_Party/FatFs/src/ff.c **** #define BPB_RootEntCnt		17		/* Size of root directory area for FAT12/16 [entry] (WORD) */
 343:Middlewares/Third_Party/FatFs/src/ff.c **** #define BPB_TotSec16		19		/* Volume size (16-bit) [sector] (WORD) */
 344:Middlewares/Third_Party/FatFs/src/ff.c **** #define BPB_Media			21		/* Media descriptor byte (BYTE) */
 345:Middlewares/Third_Party/FatFs/src/ff.c **** #define BPB_FATSz16			22		/* FAT size (16-bit) [sector] (WORD) */
 346:Middlewares/Third_Party/FatFs/src/ff.c **** #define BPB_SecPerTrk		24		/* Track size for int13h [sector] (WORD) */
 347:Middlewares/Third_Party/FatFs/src/ff.c **** #define BPB_NumHeads		26		/* Number of heads for int13h (WORD) */
 348:Middlewares/Third_Party/FatFs/src/ff.c **** #define BPB_HiddSec			28		/* Volume offset from top of the drive (DWORD) */
 349:Middlewares/Third_Party/FatFs/src/ff.c **** #define BPB_TotSec32		32		/* Volume size (32-bit) [sector] (DWORD) */
 350:Middlewares/Third_Party/FatFs/src/ff.c **** #define BS_DrvNum			36		/* Physical drive number for int13h (BYTE) */
 351:Middlewares/Third_Party/FatFs/src/ff.c **** #define BS_NTres			37		/* Error flag (BYTE) */
 352:Middlewares/Third_Party/FatFs/src/ff.c **** #define BS_BootSig			38		/* Extended boot signature (BYTE) */
 353:Middlewares/Third_Party/FatFs/src/ff.c **** #define BS_VolID			39		/* Volume serial number (DWORD) */
 354:Middlewares/Third_Party/FatFs/src/ff.c **** #define BS_VolLab			43		/* Volume label string (8-byte) */
 355:Middlewares/Third_Party/FatFs/src/ff.c **** #define BS_FilSysType		54		/* File system type string (8-byte) */
 356:Middlewares/Third_Party/FatFs/src/ff.c **** #define BS_BootCode			62		/* Boot code (448-byte) */
 357:Middlewares/Third_Party/FatFs/src/ff.c **** #define BS_55AA				510		/* Signature word (WORD) */
 358:Middlewares/Third_Party/FatFs/src/ff.c **** 
 359:Middlewares/Third_Party/FatFs/src/ff.c **** #define BPB_FATSz32			36		/* FAT32: FAT size [sector] (DWORD) */
 360:Middlewares/Third_Party/FatFs/src/ff.c **** #define BPB_ExtFlags32		40		/* FAT32: Extended flags (WORD) */
 361:Middlewares/Third_Party/FatFs/src/ff.c **** #define BPB_FSVer32			42		/* FAT32: File system version (WORD) */
 362:Middlewares/Third_Party/FatFs/src/ff.c **** #define BPB_RootClus32		44		/* FAT32: Root directory cluster (DWORD) */
 363:Middlewares/Third_Party/FatFs/src/ff.c **** #define BPB_FSInfo32		48		/* FAT32: Offset of FSINFO sector (WORD) */
 364:Middlewares/Third_Party/FatFs/src/ff.c **** #define BPB_BkBootSec32		50		/* FAT32: Offset of backup boot sector (WORD) */
 365:Middlewares/Third_Party/FatFs/src/ff.c **** #define BS_DrvNum32			64		/* FAT32: Physical drive number for int13h (BYTE) */
 366:Middlewares/Third_Party/FatFs/src/ff.c **** #define BS_NTres32			65		/* FAT32: Error flag (BYTE) */
 367:Middlewares/Third_Party/FatFs/src/ff.c **** #define BS_BootSig32		66		/* FAT32: Extended boot signature (BYTE) */
 368:Middlewares/Third_Party/FatFs/src/ff.c **** #define BS_VolID32			67		/* FAT32: Volume serial number (DWORD) */
 369:Middlewares/Third_Party/FatFs/src/ff.c **** #define BS_VolLab32			71		/* FAT32: Volume label string (8-byte) */
 370:Middlewares/Third_Party/FatFs/src/ff.c **** #define BS_FilSysType32		82		/* FAT32: File system type string (8-byte) */
 371:Middlewares/Third_Party/FatFs/src/ff.c **** #define BS_BootCode32		90		/* FAT32: Boot code (420-byte) */
 372:Middlewares/Third_Party/FatFs/src/ff.c **** 
 373:Middlewares/Third_Party/FatFs/src/ff.c **** #define BPB_ZeroedEx		11		/* exFAT: MBZ field (53-byte) */
ARM GAS  C:\Users\zdy\AppData\Local\Temp\ccxXfRHS.s 			page 8


 374:Middlewares/Third_Party/FatFs/src/ff.c **** #define BPB_VolOfsEx		64		/* exFAT: Volume offset from top of the drive [sector] (QWORD) */
 375:Middlewares/Third_Party/FatFs/src/ff.c **** #define BPB_TotSecEx		72		/* exFAT: Volume size [sector] (QWORD) */
 376:Middlewares/Third_Party/FatFs/src/ff.c **** #define BPB_FatOfsEx		80		/* exFAT: FAT offset from top of the volume [sector] (DWORD) */
 377:Middlewares/Third_Party/FatFs/src/ff.c **** #define BPB_FatSzEx			84		/* exFAT: FAT size [sector] (DWORD) */
 378:Middlewares/Third_Party/FatFs/src/ff.c **** #define BPB_DataOfsEx		88		/* exFAT: Data offset from top of the volume [sector] (DWORD) */
 379:Middlewares/Third_Party/FatFs/src/ff.c **** #define BPB_NumClusEx		92		/* exFAT: Number of clusters (DWORD) */
 380:Middlewares/Third_Party/FatFs/src/ff.c **** #define BPB_RootClusEx		96		/* exFAT: Root directory start cluster (DWORD) */
 381:Middlewares/Third_Party/FatFs/src/ff.c **** #define BPB_VolIDEx			100		/* exFAT: Volume serial number (DWORD) */
 382:Middlewares/Third_Party/FatFs/src/ff.c **** #define BPB_FSVerEx			104		/* exFAT: File system version (WORD) */
 383:Middlewares/Third_Party/FatFs/src/ff.c **** #define BPB_VolFlagEx		106		/* exFAT: Volume flags (BYTE) */
 384:Middlewares/Third_Party/FatFs/src/ff.c **** #define BPB_ActFatEx		107		/* exFAT: Active FAT flags (BYTE) */
 385:Middlewares/Third_Party/FatFs/src/ff.c **** #define BPB_BytsPerSecEx	108		/* exFAT: Log2 of sector size in unit of byte (BYTE) */
 386:Middlewares/Third_Party/FatFs/src/ff.c **** #define BPB_SecPerClusEx	109		/* exFAT: Log2 of cluster size in unit of sector (BYTE) */
 387:Middlewares/Third_Party/FatFs/src/ff.c **** #define BPB_NumFATsEx		110		/* exFAT: Number of FATs (BYTE) */
 388:Middlewares/Third_Party/FatFs/src/ff.c **** #define BPB_DrvNumEx		111		/* exFAT: Physical drive number for int13h (BYTE) */
 389:Middlewares/Third_Party/FatFs/src/ff.c **** #define BPB_PercInUseEx		112		/* exFAT: Percent in use (BYTE) */
 390:Middlewares/Third_Party/FatFs/src/ff.c **** #define	BPB_RsvdEx			113		/* exFAT: Reserved (7-byte) */
 391:Middlewares/Third_Party/FatFs/src/ff.c **** #define BS_BootCodeEx		120		/* exFAT: Boot code (390-byte) */
 392:Middlewares/Third_Party/FatFs/src/ff.c **** 
 393:Middlewares/Third_Party/FatFs/src/ff.c **** #define	DIR_Name			0		/* Short file name (11-byte) */
 394:Middlewares/Third_Party/FatFs/src/ff.c **** #define	DIR_Attr			11		/* Attribute (BYTE) */
 395:Middlewares/Third_Party/FatFs/src/ff.c **** #define	DIR_NTres			12		/* Lower case flag (BYTE) */
 396:Middlewares/Third_Party/FatFs/src/ff.c **** #define DIR_CrtTime10		13		/* Created time sub-second (BYTE) */
 397:Middlewares/Third_Party/FatFs/src/ff.c **** #define	DIR_CrtTime			14		/* Created time (DWORD) */
 398:Middlewares/Third_Party/FatFs/src/ff.c **** #define DIR_LstAccDate		18		/* Last accessed date (WORD) */
 399:Middlewares/Third_Party/FatFs/src/ff.c **** #define	DIR_FstClusHI		20		/* Higher 16-bit of first cluster (WORD) */
 400:Middlewares/Third_Party/FatFs/src/ff.c **** #define	DIR_ModTime			22		/* Modified time (DWORD) */
 401:Middlewares/Third_Party/FatFs/src/ff.c **** #define	DIR_FstClusLO		26		/* Lower 16-bit of first cluster (WORD) */
 402:Middlewares/Third_Party/FatFs/src/ff.c **** #define	DIR_FileSize		28		/* File size (DWORD) */
 403:Middlewares/Third_Party/FatFs/src/ff.c **** #define	LDIR_Ord			0		/* LFN: LFN order and LLE flag (BYTE) */
 404:Middlewares/Third_Party/FatFs/src/ff.c **** #define	LDIR_Attr			11		/* LFN: LFN attribute (BYTE) */
 405:Middlewares/Third_Party/FatFs/src/ff.c **** #define	LDIR_Type			12		/* LFN: Entry type (BYTE) */
 406:Middlewares/Third_Party/FatFs/src/ff.c **** #define	LDIR_Chksum			13		/* LFN: Checksum of the SFN (BYTE) */
 407:Middlewares/Third_Party/FatFs/src/ff.c **** #define	LDIR_FstClusLO		26		/* LFN: MBZ field (WORD) */
 408:Middlewares/Third_Party/FatFs/src/ff.c **** #define	XDIR_Type			0		/* exFAT: Type of exFAT directory entry (BYTE) */
 409:Middlewares/Third_Party/FatFs/src/ff.c **** #define	XDIR_NumLabel		1		/* exFAT: Number of volume label characters (BYTE) */
 410:Middlewares/Third_Party/FatFs/src/ff.c **** #define	XDIR_Label			2		/* exFAT: Volume label (11-WORD) */
 411:Middlewares/Third_Party/FatFs/src/ff.c **** #define	XDIR_CaseSum		4		/* exFAT: Sum of case conversion table (DWORD) */
 412:Middlewares/Third_Party/FatFs/src/ff.c **** #define	XDIR_NumSec			1		/* exFAT: Number of secondary entries (BYTE) */
 413:Middlewares/Third_Party/FatFs/src/ff.c **** #define	XDIR_SetSum			2		/* exFAT: Sum of the set of directory entries (WORD) */
 414:Middlewares/Third_Party/FatFs/src/ff.c **** #define	XDIR_Attr			4		/* exFAT: File attribute (WORD) */
 415:Middlewares/Third_Party/FatFs/src/ff.c **** #define	XDIR_CrtTime		8		/* exFAT: Created time (DWORD) */
 416:Middlewares/Third_Party/FatFs/src/ff.c **** #define	XDIR_ModTime		12		/* exFAT: Modified time (DWORD) */
 417:Middlewares/Third_Party/FatFs/src/ff.c **** #define	XDIR_AccTime		16		/* exFAT: Last accessed time (DWORD) */
 418:Middlewares/Third_Party/FatFs/src/ff.c **** #define	XDIR_CrtTime10		20		/* exFAT: Created time subsecond (BYTE) */
 419:Middlewares/Third_Party/FatFs/src/ff.c **** #define	XDIR_ModTime10		21		/* exFAT: Modified time subsecond (BYTE) */
 420:Middlewares/Third_Party/FatFs/src/ff.c **** #define	XDIR_CrtTZ			22		/* exFAT: Created timezone (BYTE) */
 421:Middlewares/Third_Party/FatFs/src/ff.c **** #define	XDIR_ModTZ			23		/* exFAT: Modified timezone (BYTE) */
 422:Middlewares/Third_Party/FatFs/src/ff.c **** #define	XDIR_AccTZ			24		/* exFAT: Last accessed timezone (BYTE) */
 423:Middlewares/Third_Party/FatFs/src/ff.c **** #define	XDIR_GenFlags		33		/* exFAT: General secondary flags (WORD) */
 424:Middlewares/Third_Party/FatFs/src/ff.c **** #define	XDIR_NumName		35		/* exFAT: Number of file name characters (BYTE) */
 425:Middlewares/Third_Party/FatFs/src/ff.c **** #define	XDIR_NameHash		36		/* exFAT: Hash of file name (WORD) */
 426:Middlewares/Third_Party/FatFs/src/ff.c **** #define XDIR_ValidFileSize	40		/* exFAT: Valid file size (QWORD) */
 427:Middlewares/Third_Party/FatFs/src/ff.c **** #define	XDIR_FstClus		52		/* exFAT: First cluster of the file data (DWORD) */
 428:Middlewares/Third_Party/FatFs/src/ff.c **** #define	XDIR_FileSize		56		/* exFAT: File/Directory size (QWORD) */
 429:Middlewares/Third_Party/FatFs/src/ff.c **** 
 430:Middlewares/Third_Party/FatFs/src/ff.c **** #define	SZDIRE				32		/* Size of a directory entry */
ARM GAS  C:\Users\zdy\AppData\Local\Temp\ccxXfRHS.s 			page 9


 431:Middlewares/Third_Party/FatFs/src/ff.c **** #define	DDEM				0xE5	/* Deleted directory entry mark set to DIR_Name[0] */
 432:Middlewares/Third_Party/FatFs/src/ff.c **** #define	RDDEM				0x05	/* Replacement of the character collides with DDEM */
 433:Middlewares/Third_Party/FatFs/src/ff.c **** #define	LLEF				0x40	/* Last long entry flag in LDIR_Ord */
 434:Middlewares/Third_Party/FatFs/src/ff.c **** 
 435:Middlewares/Third_Party/FatFs/src/ff.c **** #define	FSI_LeadSig			0		/* FAT32 FSI: Leading signature (DWORD) */
 436:Middlewares/Third_Party/FatFs/src/ff.c **** #define	FSI_StrucSig		484		/* FAT32 FSI: Structure signature (DWORD) */
 437:Middlewares/Third_Party/FatFs/src/ff.c **** #define	FSI_Free_Count		488		/* FAT32 FSI: Number of free clusters (DWORD) */
 438:Middlewares/Third_Party/FatFs/src/ff.c **** #define	FSI_Nxt_Free		492		/* FAT32 FSI: Last allocated cluster (DWORD) */
 439:Middlewares/Third_Party/FatFs/src/ff.c **** 
 440:Middlewares/Third_Party/FatFs/src/ff.c **** #define MBR_Table			446		/* MBR: Offset of partition table in the MBR */
 441:Middlewares/Third_Party/FatFs/src/ff.c **** #define	SZ_PTE				16		/* MBR: Size of a partition table entry */
 442:Middlewares/Third_Party/FatFs/src/ff.c **** #define PTE_Boot			0		/* MBR PTE: Boot indicator */
 443:Middlewares/Third_Party/FatFs/src/ff.c **** #define PTE_StHead			1		/* MBR PTE: Start head */
 444:Middlewares/Third_Party/FatFs/src/ff.c **** #define PTE_StSec			2		/* MBR PTE: Start sector */
 445:Middlewares/Third_Party/FatFs/src/ff.c **** #define PTE_StCyl			3		/* MBR PTE: Start cylinder */
 446:Middlewares/Third_Party/FatFs/src/ff.c **** #define PTE_System			4		/* MBR PTE: System ID */
 447:Middlewares/Third_Party/FatFs/src/ff.c **** #define PTE_EdHead			5		/* MBR PTE: End head */
 448:Middlewares/Third_Party/FatFs/src/ff.c **** #define PTE_EdSec			6		/* MBR PTE: End sector */
 449:Middlewares/Third_Party/FatFs/src/ff.c **** #define PTE_EdCyl			7		/* MBR PTE: End cylinder */
 450:Middlewares/Third_Party/FatFs/src/ff.c **** #define PTE_StLba			8		/* MBR PTE: Start in LBA */
 451:Middlewares/Third_Party/FatFs/src/ff.c **** #define PTE_SizLba			12		/* MBR PTE: Size in LBA */
 452:Middlewares/Third_Party/FatFs/src/ff.c **** 
 453:Middlewares/Third_Party/FatFs/src/ff.c **** 
 454:Middlewares/Third_Party/FatFs/src/ff.c **** /* Post process after fatal error on file operation */
 455:Middlewares/Third_Party/FatFs/src/ff.c **** #define	ABORT(fs, res)		{ fp->err = (BYTE)(res); LEAVE_FF(fs, res); }
 456:Middlewares/Third_Party/FatFs/src/ff.c **** 
 457:Middlewares/Third_Party/FatFs/src/ff.c **** 
 458:Middlewares/Third_Party/FatFs/src/ff.c **** /* Reentrancy related */
 459:Middlewares/Third_Party/FatFs/src/ff.c **** #if _FS_REENTRANT
 460:Middlewares/Third_Party/FatFs/src/ff.c **** #if _USE_LFN == 1
 461:Middlewares/Third_Party/FatFs/src/ff.c **** #error Static LFN work area cannot be used at thread-safe configuration
 462:Middlewares/Third_Party/FatFs/src/ff.c **** #endif
 463:Middlewares/Third_Party/FatFs/src/ff.c **** #define	ENTER_FF(fs)		{ if (!lock_fs(fs)) return FR_TIMEOUT; }
 464:Middlewares/Third_Party/FatFs/src/ff.c **** #define	LEAVE_FF(fs, res)	{ unlock_fs(fs, res); return res; }
 465:Middlewares/Third_Party/FatFs/src/ff.c **** #else
 466:Middlewares/Third_Party/FatFs/src/ff.c **** #define	ENTER_FF(fs)
 467:Middlewares/Third_Party/FatFs/src/ff.c **** #define LEAVE_FF(fs, res)	return res
 468:Middlewares/Third_Party/FatFs/src/ff.c **** #endif
 469:Middlewares/Third_Party/FatFs/src/ff.c **** 
 470:Middlewares/Third_Party/FatFs/src/ff.c **** 
 471:Middlewares/Third_Party/FatFs/src/ff.c **** /* Definitions of volume - partition conversion */
 472:Middlewares/Third_Party/FatFs/src/ff.c **** #if _MULTI_PARTITION
 473:Middlewares/Third_Party/FatFs/src/ff.c **** #define LD2PD(vol) VolToPart[vol].pd	/* Get physical drive number */
 474:Middlewares/Third_Party/FatFs/src/ff.c **** #define LD2PT(vol) VolToPart[vol].pt	/* Get partition index */
 475:Middlewares/Third_Party/FatFs/src/ff.c **** #else
 476:Middlewares/Third_Party/FatFs/src/ff.c **** #define LD2PD(vol) (BYTE)(vol)	/* Each logical drive is bound to the same physical drive number */
 477:Middlewares/Third_Party/FatFs/src/ff.c **** #define LD2PT(vol) 0			/* Find first valid partition or in SFD */
 478:Middlewares/Third_Party/FatFs/src/ff.c **** #endif
 479:Middlewares/Third_Party/FatFs/src/ff.c **** 
 480:Middlewares/Third_Party/FatFs/src/ff.c **** 
 481:Middlewares/Third_Party/FatFs/src/ff.c **** /* Definitions of sector size */
 482:Middlewares/Third_Party/FatFs/src/ff.c **** #if (_MAX_SS < _MIN_SS) || (_MAX_SS != 512 && _MAX_SS != 1024 && _MAX_SS != 2048 && _MAX_SS != 4096
 483:Middlewares/Third_Party/FatFs/src/ff.c **** #error Wrong sector size configuration
 484:Middlewares/Third_Party/FatFs/src/ff.c **** #endif
 485:Middlewares/Third_Party/FatFs/src/ff.c **** #if _MAX_SS == _MIN_SS
 486:Middlewares/Third_Party/FatFs/src/ff.c **** #define	SS(fs)	((UINT)_MAX_SS)	/* Fixed sector size */
 487:Middlewares/Third_Party/FatFs/src/ff.c **** #else
ARM GAS  C:\Users\zdy\AppData\Local\Temp\ccxXfRHS.s 			page 10


 488:Middlewares/Third_Party/FatFs/src/ff.c **** #define	SS(fs)	((fs)->ssize)	/* Variable sector size */
 489:Middlewares/Third_Party/FatFs/src/ff.c **** #endif
 490:Middlewares/Third_Party/FatFs/src/ff.c **** 
 491:Middlewares/Third_Party/FatFs/src/ff.c **** 
 492:Middlewares/Third_Party/FatFs/src/ff.c **** /* Timestamp */
 493:Middlewares/Third_Party/FatFs/src/ff.c **** #if _FS_NORTC == 1
 494:Middlewares/Third_Party/FatFs/src/ff.c **** #if _NORTC_YEAR < 1980 || _NORTC_YEAR > 2107 || _NORTC_MON < 1 || _NORTC_MON > 12 || _NORTC_MDAY < 
 495:Middlewares/Third_Party/FatFs/src/ff.c **** #error Invalid _FS_NORTC settings
 496:Middlewares/Third_Party/FatFs/src/ff.c **** #endif
 497:Middlewares/Third_Party/FatFs/src/ff.c **** #define GET_FATTIME()	((DWORD)(_NORTC_YEAR - 1980) << 25 | (DWORD)_NORTC_MON << 21 | (DWORD)_NORTC_
 498:Middlewares/Third_Party/FatFs/src/ff.c **** #else
 499:Middlewares/Third_Party/FatFs/src/ff.c **** #define GET_FATTIME()	get_fattime()
 500:Middlewares/Third_Party/FatFs/src/ff.c **** #endif
 501:Middlewares/Third_Party/FatFs/src/ff.c **** 
 502:Middlewares/Third_Party/FatFs/src/ff.c **** 
 503:Middlewares/Third_Party/FatFs/src/ff.c **** /* File lock controls */
 504:Middlewares/Third_Party/FatFs/src/ff.c **** #if _FS_LOCK != 0
 505:Middlewares/Third_Party/FatFs/src/ff.c **** #if _FS_READONLY
 506:Middlewares/Third_Party/FatFs/src/ff.c **** #error _FS_LOCK must be 0 at read-only configuration
 507:Middlewares/Third_Party/FatFs/src/ff.c **** #endif
 508:Middlewares/Third_Party/FatFs/src/ff.c **** typedef struct {
 509:Middlewares/Third_Party/FatFs/src/ff.c **** 	FATFS *fs;		/* Object ID 1, volume (NULL:blank entry) */
 510:Middlewares/Third_Party/FatFs/src/ff.c **** 	DWORD clu;		/* Object ID 2, containing directory (0:root) */
 511:Middlewares/Third_Party/FatFs/src/ff.c **** 	DWORD ofs;		/* Object ID 3, offset in the directory */
 512:Middlewares/Third_Party/FatFs/src/ff.c **** 	WORD ctr;		/* Object open counter, 0:none, 0x01..0xFF:read mode open count, 0x100:write mode */
 513:Middlewares/Third_Party/FatFs/src/ff.c **** } FILESEM;
 514:Middlewares/Third_Party/FatFs/src/ff.c **** #endif
 515:Middlewares/Third_Party/FatFs/src/ff.c **** 
 516:Middlewares/Third_Party/FatFs/src/ff.c **** 
 517:Middlewares/Third_Party/FatFs/src/ff.c **** 
 518:Middlewares/Third_Party/FatFs/src/ff.c **** 
 519:Middlewares/Third_Party/FatFs/src/ff.c **** 
 520:Middlewares/Third_Party/FatFs/src/ff.c **** /*--------------------------------------------------------------------------
 521:Middlewares/Third_Party/FatFs/src/ff.c **** 
 522:Middlewares/Third_Party/FatFs/src/ff.c ****    Module Private Work Area
 523:Middlewares/Third_Party/FatFs/src/ff.c **** 
 524:Middlewares/Third_Party/FatFs/src/ff.c **** ---------------------------------------------------------------------------*/
 525:Middlewares/Third_Party/FatFs/src/ff.c **** 
 526:Middlewares/Third_Party/FatFs/src/ff.c **** /* Remark: Variables defined here without initial value shall be guaranteed
 527:Middlewares/Third_Party/FatFs/src/ff.c **** /  zero/null at start-up. If not, the linker option or start-up routine is
 528:Middlewares/Third_Party/FatFs/src/ff.c **** /  not compliance with C standard. */
 529:Middlewares/Third_Party/FatFs/src/ff.c **** 
 530:Middlewares/Third_Party/FatFs/src/ff.c **** #if _VOLUMES < 1 || _VOLUMES > 10
 531:Middlewares/Third_Party/FatFs/src/ff.c **** #error Wrong _VOLUMES setting
 532:Middlewares/Third_Party/FatFs/src/ff.c **** #endif
 533:Middlewares/Third_Party/FatFs/src/ff.c **** static FATFS *FatFs[_VOLUMES];	/* Pointer to the file system objects (logical drives) */
 534:Middlewares/Third_Party/FatFs/src/ff.c **** static WORD Fsid;				/* File system mount ID */
 535:Middlewares/Third_Party/FatFs/src/ff.c **** 
 536:Middlewares/Third_Party/FatFs/src/ff.c **** #if _FS_RPATH != 0 && _VOLUMES >= 2
 537:Middlewares/Third_Party/FatFs/src/ff.c **** static BYTE CurrVol;			/* Current drive */
 538:Middlewares/Third_Party/FatFs/src/ff.c **** #endif
 539:Middlewares/Third_Party/FatFs/src/ff.c **** 
 540:Middlewares/Third_Party/FatFs/src/ff.c **** #if _FS_LOCK != 0
 541:Middlewares/Third_Party/FatFs/src/ff.c **** static FILESEM Files[_FS_LOCK];	/* Open object lock semaphores */
 542:Middlewares/Third_Party/FatFs/src/ff.c **** #endif
 543:Middlewares/Third_Party/FatFs/src/ff.c **** 
 544:Middlewares/Third_Party/FatFs/src/ff.c **** #if _USE_LFN == 0		/* Non-LFN configuration */
ARM GAS  C:\Users\zdy\AppData\Local\Temp\ccxXfRHS.s 			page 11


 545:Middlewares/Third_Party/FatFs/src/ff.c **** #define	DEF_NAMBUF
 546:Middlewares/Third_Party/FatFs/src/ff.c **** #define INIT_NAMBUF(fs)
 547:Middlewares/Third_Party/FatFs/src/ff.c **** #define	FREE_NAMBUF()
 548:Middlewares/Third_Party/FatFs/src/ff.c **** 
 549:Middlewares/Third_Party/FatFs/src/ff.c **** #else					/* LFN configuration */
 550:Middlewares/Third_Party/FatFs/src/ff.c **** #if _MAX_LFN < 12 || _MAX_LFN > 255
 551:Middlewares/Third_Party/FatFs/src/ff.c **** #error Wrong _MAX_LFN value
 552:Middlewares/Third_Party/FatFs/src/ff.c **** #endif
 553:Middlewares/Third_Party/FatFs/src/ff.c **** #define MAXDIRB(nc)	((nc + 44U) / 15 * SZDIRE)
 554:Middlewares/Third_Party/FatFs/src/ff.c **** 
 555:Middlewares/Third_Party/FatFs/src/ff.c **** #if _USE_LFN == 1		/* LFN enabled with static working buffer */
 556:Middlewares/Third_Party/FatFs/src/ff.c **** #if _FS_EXFAT
 557:Middlewares/Third_Party/FatFs/src/ff.c **** static BYTE	DirBuf[MAXDIRB(_MAX_LFN)];	/* Directory entry block scratchpad buffer */
 558:Middlewares/Third_Party/FatFs/src/ff.c **** #endif
 559:Middlewares/Third_Party/FatFs/src/ff.c **** static WCHAR LfnBuf[_MAX_LFN + 1];	/* LFN enabled with static working buffer */
 560:Middlewares/Third_Party/FatFs/src/ff.c **** #define	DEF_NAMBUF
 561:Middlewares/Third_Party/FatFs/src/ff.c **** #define INIT_NAMBUF(fs)
 562:Middlewares/Third_Party/FatFs/src/ff.c **** #define	FREE_NAMBUF()
 563:Middlewares/Third_Party/FatFs/src/ff.c **** 
 564:Middlewares/Third_Party/FatFs/src/ff.c **** #elif _USE_LFN == 2 	/* LFN enabled with dynamic working buffer on the stack */
 565:Middlewares/Third_Party/FatFs/src/ff.c **** #if _FS_EXFAT
 566:Middlewares/Third_Party/FatFs/src/ff.c **** #define	DEF_NAMBUF		WCHAR lbuf[_MAX_LFN+1]; BYTE dbuf[MAXDIRB(_MAX_LFN)];
 567:Middlewares/Third_Party/FatFs/src/ff.c **** #define INIT_NAMBUF(fs)	{ (fs)->lfnbuf = lbuf; (fs)->dirbuf = dbuf; }
 568:Middlewares/Third_Party/FatFs/src/ff.c **** #define	FREE_NAMBUF()
 569:Middlewares/Third_Party/FatFs/src/ff.c **** #else
 570:Middlewares/Third_Party/FatFs/src/ff.c **** #define	DEF_NAMBUF		WCHAR lbuf[_MAX_LFN+1];
 571:Middlewares/Third_Party/FatFs/src/ff.c **** #define INIT_NAMBUF(fs)	{ (fs)->lfnbuf = lbuf; }
 572:Middlewares/Third_Party/FatFs/src/ff.c **** #define	FREE_NAMBUF()
 573:Middlewares/Third_Party/FatFs/src/ff.c **** #endif
 574:Middlewares/Third_Party/FatFs/src/ff.c **** 
 575:Middlewares/Third_Party/FatFs/src/ff.c **** #elif _USE_LFN == 3 	/* LFN enabled with dynamic working buffer on the heap */
 576:Middlewares/Third_Party/FatFs/src/ff.c **** #if _FS_EXFAT
 577:Middlewares/Third_Party/FatFs/src/ff.c **** #define	DEF_NAMBUF		WCHAR *lfn;
 578:Middlewares/Third_Party/FatFs/src/ff.c **** #define INIT_NAMBUF(fs)	{ lfn = ff_memalloc((_MAX_LFN+1)*2 + MAXDIRB(_MAX_LFN)); if (!lfn) LEAVE_FF
 579:Middlewares/Third_Party/FatFs/src/ff.c **** #define	FREE_NAMBUF()	ff_memfree(lfn)
 580:Middlewares/Third_Party/FatFs/src/ff.c **** #else
 581:Middlewares/Third_Party/FatFs/src/ff.c **** #define	DEF_NAMBUF		WCHAR *lfn;
 582:Middlewares/Third_Party/FatFs/src/ff.c **** #define INIT_NAMBUF(fs)	{ lfn = ff_memalloc((_MAX_LFN+1)*2); if (!lfn) LEAVE_FF(fs, FR_NOT_ENOUGH_C
 583:Middlewares/Third_Party/FatFs/src/ff.c **** #define	FREE_NAMBUF()	ff_memfree(lfn)
 584:Middlewares/Third_Party/FatFs/src/ff.c **** #endif
 585:Middlewares/Third_Party/FatFs/src/ff.c **** 
 586:Middlewares/Third_Party/FatFs/src/ff.c **** #else
 587:Middlewares/Third_Party/FatFs/src/ff.c **** #error Wrong _USE_LFN setting
 588:Middlewares/Third_Party/FatFs/src/ff.c **** 
 589:Middlewares/Third_Party/FatFs/src/ff.c **** #endif
 590:Middlewares/Third_Party/FatFs/src/ff.c **** #endif	/* else _USE_LFN == 0 */
 591:Middlewares/Third_Party/FatFs/src/ff.c **** 
 592:Middlewares/Third_Party/FatFs/src/ff.c **** #ifdef _EXCVT
 593:Middlewares/Third_Party/FatFs/src/ff.c **** static const BYTE ExCvt[] = _EXCVT;	/* Upper conversion table for SBCS extended characters */
 594:Middlewares/Third_Party/FatFs/src/ff.c **** #endif
 595:Middlewares/Third_Party/FatFs/src/ff.c **** 
 596:Middlewares/Third_Party/FatFs/src/ff.c **** 
 597:Middlewares/Third_Party/FatFs/src/ff.c **** 
 598:Middlewares/Third_Party/FatFs/src/ff.c **** 
 599:Middlewares/Third_Party/FatFs/src/ff.c **** 
 600:Middlewares/Third_Party/FatFs/src/ff.c **** 
 601:Middlewares/Third_Party/FatFs/src/ff.c **** /*--------------------------------------------------------------------------
ARM GAS  C:\Users\zdy\AppData\Local\Temp\ccxXfRHS.s 			page 12


 602:Middlewares/Third_Party/FatFs/src/ff.c **** 
 603:Middlewares/Third_Party/FatFs/src/ff.c ****    Module Private Functions
 604:Middlewares/Third_Party/FatFs/src/ff.c **** 
 605:Middlewares/Third_Party/FatFs/src/ff.c **** ---------------------------------------------------------------------------*/
 606:Middlewares/Third_Party/FatFs/src/ff.c **** 
 607:Middlewares/Third_Party/FatFs/src/ff.c **** 
 608:Middlewares/Third_Party/FatFs/src/ff.c **** /*-----------------------------------------------------------------------*/
 609:Middlewares/Third_Party/FatFs/src/ff.c **** /* Load/Store multi-byte word in the FAT structure                       */
 610:Middlewares/Third_Party/FatFs/src/ff.c **** /*-----------------------------------------------------------------------*/
 611:Middlewares/Third_Party/FatFs/src/ff.c **** 
 612:Middlewares/Third_Party/FatFs/src/ff.c **** static
 613:Middlewares/Third_Party/FatFs/src/ff.c **** WORD ld_word (const BYTE* ptr)	/*	 Load a 2-byte little-endian word */
 614:Middlewares/Third_Party/FatFs/src/ff.c **** {
  28              		.loc 1 614 1 view -0
  29              		.cfi_startproc
  30              		@ args = 0, pretend = 0, frame = 0
  31              		@ frame_needed = 0, uses_anonymous_args = 0
  32              		@ link register save eliminated.
 615:Middlewares/Third_Party/FatFs/src/ff.c **** 	WORD rv;
  33              		.loc 1 615 2 view .LVU1
 616:Middlewares/Third_Party/FatFs/src/ff.c **** 
 617:Middlewares/Third_Party/FatFs/src/ff.c **** 	rv = ptr[1];
  34              		.loc 1 617 2 view .LVU2
  35              		.loc 1 617 10 is_stmt 0 view .LVU3
  36 0000 4278     		ldrb	r2, [r0, #1]	@ zero_extendqisi2
  37              	.LVL1:
 618:Middlewares/Third_Party/FatFs/src/ff.c **** 	rv = rv << 8 | ptr[0];
  38              		.loc 1 618 2 is_stmt 1 view .LVU4
  39              		.loc 1 618 20 is_stmt 0 view .LVU5
  40 0002 0078     		ldrb	r0, [r0]	@ zero_extendqisi2
  41              	.LVL2:
 619:Middlewares/Third_Party/FatFs/src/ff.c **** 	return rv;
  42              		.loc 1 619 2 is_stmt 1 view .LVU6
 620:Middlewares/Third_Party/FatFs/src/ff.c **** }
  43              		.loc 1 620 1 is_stmt 0 view .LVU7
  44 0004 40EA0220 		orr	r0, r0, r2, lsl #8
  45              	.LVL3:
  46              		.loc 1 620 1 view .LVU8
  47 0008 7047     		bx	lr
  48              		.cfi_endproc
  49              	.LFE338:
  51              		.section	.text.ld_dword,"ax",%progbits
  52              		.align	1
  53              		.syntax unified
  54              		.thumb
  55              		.thumb_func
  57              	ld_dword:
  58              	.LVL4:
  59              	.LFB339:
 621:Middlewares/Third_Party/FatFs/src/ff.c **** 
 622:Middlewares/Third_Party/FatFs/src/ff.c **** static
 623:Middlewares/Third_Party/FatFs/src/ff.c **** DWORD ld_dword (const BYTE* ptr)	/* Load a 4-byte little-endian word */
 624:Middlewares/Third_Party/FatFs/src/ff.c **** {
  60              		.loc 1 624 1 is_stmt 1 view -0
  61              		.cfi_startproc
  62              		@ args = 0, pretend = 0, frame = 0
  63              		@ frame_needed = 0, uses_anonymous_args = 0
ARM GAS  C:\Users\zdy\AppData\Local\Temp\ccxXfRHS.s 			page 13


  64              		@ link register save eliminated.
 625:Middlewares/Third_Party/FatFs/src/ff.c **** 	DWORD rv;
  65              		.loc 1 625 2 view .LVU10
 626:Middlewares/Third_Party/FatFs/src/ff.c **** 
 627:Middlewares/Third_Party/FatFs/src/ff.c **** 	rv = ptr[3];
  66              		.loc 1 627 2 view .LVU11
  67              		.loc 1 627 10 is_stmt 0 view .LVU12
  68 0000 C278     		ldrb	r2, [r0, #3]	@ zero_extendqisi2
  69              	.LVL5:
 628:Middlewares/Third_Party/FatFs/src/ff.c **** 	rv = rv << 8 | ptr[2];
  70              		.loc 1 628 2 is_stmt 1 view .LVU13
  71              		.loc 1 628 20 is_stmt 0 view .LVU14
  72 0002 8378     		ldrb	r3, [r0, #2]	@ zero_extendqisi2
  73              		.loc 1 628 5 view .LVU15
  74 0004 43EA0222 		orr	r2, r3, r2, lsl #8
  75              	.LVL6:
 629:Middlewares/Third_Party/FatFs/src/ff.c **** 	rv = rv << 8 | ptr[1];
  76              		.loc 1 629 2 is_stmt 1 view .LVU16
  77              		.loc 1 629 20 is_stmt 0 view .LVU17
  78 0008 4378     		ldrb	r3, [r0, #1]	@ zero_extendqisi2
  79              		.loc 1 629 5 view .LVU18
  80 000a 43EA0223 		orr	r3, r3, r2, lsl #8
  81              	.LVL7:
 630:Middlewares/Third_Party/FatFs/src/ff.c **** 	rv = rv << 8 | ptr[0];
  82              		.loc 1 630 2 is_stmt 1 view .LVU19
  83              		.loc 1 630 20 is_stmt 0 view .LVU20
  84 000e 0078     		ldrb	r0, [r0]	@ zero_extendqisi2
  85              	.LVL8:
 631:Middlewares/Third_Party/FatFs/src/ff.c **** 	return rv;
  86              		.loc 1 631 2 is_stmt 1 view .LVU21
 632:Middlewares/Third_Party/FatFs/src/ff.c **** }
  87              		.loc 1 632 1 is_stmt 0 view .LVU22
  88 0010 40EA0320 		orr	r0, r0, r3, lsl #8
  89              	.LVL9:
  90              		.loc 1 632 1 view .LVU23
  91 0014 7047     		bx	lr
  92              		.cfi_endproc
  93              	.LFE339:
  95              		.section	.text.st_word,"ax",%progbits
  96              		.align	1
  97              		.syntax unified
  98              		.thumb
  99              		.thumb_func
 101              	st_word:
 102              	.LVL10:
 103              	.LFB340:
 633:Middlewares/Third_Party/FatFs/src/ff.c **** 
 634:Middlewares/Third_Party/FatFs/src/ff.c **** #if _FS_EXFAT
 635:Middlewares/Third_Party/FatFs/src/ff.c **** static
 636:Middlewares/Third_Party/FatFs/src/ff.c **** QWORD ld_qword (const BYTE* ptr)	/* Load an 8-byte little-endian word */
 637:Middlewares/Third_Party/FatFs/src/ff.c **** {
 638:Middlewares/Third_Party/FatFs/src/ff.c **** 	QWORD rv;
 639:Middlewares/Third_Party/FatFs/src/ff.c **** 
 640:Middlewares/Third_Party/FatFs/src/ff.c **** 	rv = ptr[7];
 641:Middlewares/Third_Party/FatFs/src/ff.c **** 	rv = rv << 8 | ptr[6];
 642:Middlewares/Third_Party/FatFs/src/ff.c **** 	rv = rv << 8 | ptr[5];
 643:Middlewares/Third_Party/FatFs/src/ff.c **** 	rv = rv << 8 | ptr[4];
ARM GAS  C:\Users\zdy\AppData\Local\Temp\ccxXfRHS.s 			page 14


 644:Middlewares/Third_Party/FatFs/src/ff.c **** 	rv = rv << 8 | ptr[3];
 645:Middlewares/Third_Party/FatFs/src/ff.c **** 	rv = rv << 8 | ptr[2];
 646:Middlewares/Third_Party/FatFs/src/ff.c **** 	rv = rv << 8 | ptr[1];
 647:Middlewares/Third_Party/FatFs/src/ff.c **** 	rv = rv << 8 | ptr[0];
 648:Middlewares/Third_Party/FatFs/src/ff.c **** 	return rv;
 649:Middlewares/Third_Party/FatFs/src/ff.c **** }
 650:Middlewares/Third_Party/FatFs/src/ff.c **** #endif
 651:Middlewares/Third_Party/FatFs/src/ff.c **** 
 652:Middlewares/Third_Party/FatFs/src/ff.c **** #if !_FS_READONLY
 653:Middlewares/Third_Party/FatFs/src/ff.c **** static
 654:Middlewares/Third_Party/FatFs/src/ff.c **** void st_word (BYTE* ptr, WORD val)	/* Store a 2-byte word in little-endian */
 655:Middlewares/Third_Party/FatFs/src/ff.c **** {
 104              		.loc 1 655 1 is_stmt 1 view -0
 105              		.cfi_startproc
 106              		@ args = 0, pretend = 0, frame = 0
 107              		@ frame_needed = 0, uses_anonymous_args = 0
 108              		@ link register save eliminated.
 656:Middlewares/Third_Party/FatFs/src/ff.c **** 	*ptr++ = (BYTE)val; val >>= 8;
 109              		.loc 1 656 2 view .LVU25
 110              		.loc 1 656 9 is_stmt 0 view .LVU26
 111 0000 0170     		strb	r1, [r0]
 112              		.loc 1 656 22 is_stmt 1 view .LVU27
 113              	.LVL11:
 657:Middlewares/Third_Party/FatFs/src/ff.c **** 	*ptr++ = (BYTE)val;
 114              		.loc 1 657 2 view .LVU28
 115              		.loc 1 657 11 is_stmt 0 view .LVU29
 116 0002 090A     		lsrs	r1, r1, #8
 117              	.LVL12:
 118              		.loc 1 657 9 view .LVU30
 119 0004 4170     		strb	r1, [r0, #1]
 658:Middlewares/Third_Party/FatFs/src/ff.c **** }
 120              		.loc 1 658 1 view .LVU31
 121 0006 7047     		bx	lr
 122              		.cfi_endproc
 123              	.LFE340:
 125              		.section	.text.st_dword,"ax",%progbits
 126              		.align	1
 127              		.syntax unified
 128              		.thumb
 129              		.thumb_func
 131              	st_dword:
 132              	.LVL13:
 133              	.LFB341:
 659:Middlewares/Third_Party/FatFs/src/ff.c **** 
 660:Middlewares/Third_Party/FatFs/src/ff.c **** static
 661:Middlewares/Third_Party/FatFs/src/ff.c **** void st_dword (BYTE* ptr, DWORD val)	/* Store a 4-byte word in little-endian */
 662:Middlewares/Third_Party/FatFs/src/ff.c **** {
 134              		.loc 1 662 1 is_stmt 1 view -0
 135              		.cfi_startproc
 136              		@ args = 0, pretend = 0, frame = 0
 137              		@ frame_needed = 0, uses_anonymous_args = 0
 138              		@ link register save eliminated.
 663:Middlewares/Third_Party/FatFs/src/ff.c **** 	*ptr++ = (BYTE)val; val >>= 8;
 139              		.loc 1 663 2 view .LVU33
 140              		.loc 1 663 9 is_stmt 0 view .LVU34
 141 0000 0170     		strb	r1, [r0]
 142              		.loc 1 663 22 is_stmt 1 view .LVU35
ARM GAS  C:\Users\zdy\AppData\Local\Temp\ccxXfRHS.s 			page 15


 143              	.LVL14:
 664:Middlewares/Third_Party/FatFs/src/ff.c **** 	*ptr++ = (BYTE)val; val >>= 8;
 144              		.loc 1 664 2 view .LVU36
 145              		.loc 1 664 11 is_stmt 0 view .LVU37
 146 0002 C1F30723 		ubfx	r3, r1, #8, #8
 147              		.loc 1 664 9 view .LVU38
 148 0006 4370     		strb	r3, [r0, #1]
 149              		.loc 1 664 22 is_stmt 1 view .LVU39
 150              	.LVL15:
 665:Middlewares/Third_Party/FatFs/src/ff.c **** 	*ptr++ = (BYTE)val; val >>= 8;
 151              		.loc 1 665 2 view .LVU40
 152              		.loc 1 665 11 is_stmt 0 view .LVU41
 153 0008 C1F30743 		ubfx	r3, r1, #16, #8
 154              		.loc 1 665 9 view .LVU42
 155 000c 8370     		strb	r3, [r0, #2]
 156              		.loc 1 665 22 is_stmt 1 view .LVU43
 157              	.LVL16:
 666:Middlewares/Third_Party/FatFs/src/ff.c **** 	*ptr++ = (BYTE)val;
 158              		.loc 1 666 2 view .LVU44
 159              		.loc 1 666 11 is_stmt 0 view .LVU45
 160 000e 090E     		lsrs	r1, r1, #24
 161              	.LVL17:
 162              		.loc 1 666 9 view .LVU46
 163 0010 C170     		strb	r1, [r0, #3]
 667:Middlewares/Third_Party/FatFs/src/ff.c **** }
 164              		.loc 1 667 1 view .LVU47
 165 0012 7047     		bx	lr
 166              		.cfi_endproc
 167              	.LFE341:
 169              		.section	.text.mem_cpy,"ax",%progbits
 170              		.align	1
 171              		.syntax unified
 172              		.thumb
 173              		.thumb_func
 175              	mem_cpy:
 176              	.LVL18:
 177              	.LFB342:
 668:Middlewares/Third_Party/FatFs/src/ff.c **** 
 669:Middlewares/Third_Party/FatFs/src/ff.c **** #if _FS_EXFAT
 670:Middlewares/Third_Party/FatFs/src/ff.c **** static
 671:Middlewares/Third_Party/FatFs/src/ff.c **** void st_qword (BYTE* ptr, QWORD val)	/* Store an 8-byte word in little-endian */
 672:Middlewares/Third_Party/FatFs/src/ff.c **** {
 673:Middlewares/Third_Party/FatFs/src/ff.c **** 	*ptr++ = (BYTE)val; val >>= 8;
 674:Middlewares/Third_Party/FatFs/src/ff.c **** 	*ptr++ = (BYTE)val; val >>= 8;
 675:Middlewares/Third_Party/FatFs/src/ff.c **** 	*ptr++ = (BYTE)val; val >>= 8;
 676:Middlewares/Third_Party/FatFs/src/ff.c **** 	*ptr++ = (BYTE)val; val >>= 8;
 677:Middlewares/Third_Party/FatFs/src/ff.c **** 	*ptr++ = (BYTE)val; val >>= 8;
 678:Middlewares/Third_Party/FatFs/src/ff.c **** 	*ptr++ = (BYTE)val; val >>= 8;
 679:Middlewares/Third_Party/FatFs/src/ff.c **** 	*ptr++ = (BYTE)val; val >>= 8;
 680:Middlewares/Third_Party/FatFs/src/ff.c **** 	*ptr++ = (BYTE)val;
 681:Middlewares/Third_Party/FatFs/src/ff.c **** }
 682:Middlewares/Third_Party/FatFs/src/ff.c **** #endif
 683:Middlewares/Third_Party/FatFs/src/ff.c **** #endif	/* !_FS_READONLY */
 684:Middlewares/Third_Party/FatFs/src/ff.c **** 
 685:Middlewares/Third_Party/FatFs/src/ff.c **** 
 686:Middlewares/Third_Party/FatFs/src/ff.c **** 
 687:Middlewares/Third_Party/FatFs/src/ff.c **** /*-----------------------------------------------------------------------*/
ARM GAS  C:\Users\zdy\AppData\Local\Temp\ccxXfRHS.s 			page 16


 688:Middlewares/Third_Party/FatFs/src/ff.c **** /* String functions                                                      */
 689:Middlewares/Third_Party/FatFs/src/ff.c **** /*-----------------------------------------------------------------------*/
 690:Middlewares/Third_Party/FatFs/src/ff.c **** 
 691:Middlewares/Third_Party/FatFs/src/ff.c **** /* Copy memory to memory */
 692:Middlewares/Third_Party/FatFs/src/ff.c **** static
 693:Middlewares/Third_Party/FatFs/src/ff.c **** void mem_cpy (void* dst, const void* src, UINT cnt) {
 178              		.loc 1 693 53 is_stmt 1 view -0
 179              		.cfi_startproc
 180              		@ args = 0, pretend = 0, frame = 0
 181              		@ frame_needed = 0, uses_anonymous_args = 0
 182              		@ link register save eliminated.
 694:Middlewares/Third_Party/FatFs/src/ff.c **** 	BYTE *d = (BYTE*)dst;
 183              		.loc 1 694 2 view .LVU49
 695:Middlewares/Third_Party/FatFs/src/ff.c **** 	const BYTE *s = (const BYTE*)src;
 184              		.loc 1 695 2 view .LVU50
 696:Middlewares/Third_Party/FatFs/src/ff.c **** 
 697:Middlewares/Third_Party/FatFs/src/ff.c **** 	if (cnt) {
 185              		.loc 1 697 2 view .LVU51
 186              		.loc 1 697 5 is_stmt 0 view .LVU52
 187 0000 9446     		mov	ip, r2
 188 0002 32B1     		cbz	r2, .L5
 189              	.LVL19:
 190              	.L7:
 698:Middlewares/Third_Party/FatFs/src/ff.c **** 		do {
 191              		.loc 1 698 3 is_stmt 1 discriminator 1 view .LVU53
 699:Middlewares/Third_Party/FatFs/src/ff.c **** 			*d++ = *s++;
 192              		.loc 1 699 4 discriminator 1 view .LVU54
 193              		.loc 1 699 11 is_stmt 0 discriminator 1 view .LVU55
 194 0004 0A78     		ldrb	r2, [r1]	@ zero_extendqisi2
 195 0006 0131     		adds	r1, r1, #1
 196              	.LVL20:
 197              		.loc 1 699 9 discriminator 1 view .LVU56
 198 0008 0270     		strb	r2, [r0]
 199 000a 0130     		adds	r0, r0, #1
 200              	.LVL21:
 700:Middlewares/Third_Party/FatFs/src/ff.c **** 		} while (--cnt);
 201              		.loc 1 700 11 is_stmt 1 discriminator 1 view .LVU57
 202              		.loc 1 700 3 is_stmt 0 discriminator 1 view .LVU58
 203 000c BCF1010C 		subs	ip, ip, #1
 204              	.LVL22:
 205              		.loc 1 700 3 discriminator 1 view .LVU59
 206 0010 F8D1     		bne	.L7
 207              	.LVL23:
 208              	.L5:
 701:Middlewares/Third_Party/FatFs/src/ff.c **** 	}
 702:Middlewares/Third_Party/FatFs/src/ff.c **** }
 209              		.loc 1 702 1 view .LVU60
 210 0012 7047     		bx	lr
 211              		.cfi_endproc
 212              	.LFE342:
 214              		.section	.text.mem_set,"ax",%progbits
 215              		.align	1
 216              		.syntax unified
 217              		.thumb
 218              		.thumb_func
 220              	mem_set:
 221              	.LFB343:
ARM GAS  C:\Users\zdy\AppData\Local\Temp\ccxXfRHS.s 			page 17


 703:Middlewares/Third_Party/FatFs/src/ff.c **** 
 704:Middlewares/Third_Party/FatFs/src/ff.c **** /* Fill memory block */
 705:Middlewares/Third_Party/FatFs/src/ff.c **** static
 706:Middlewares/Third_Party/FatFs/src/ff.c **** void mem_set (void* dst, int val, UINT cnt) {
 222              		.loc 1 706 45 is_stmt 1 view -0
 223              		.cfi_startproc
 224              		@ args = 0, pretend = 0, frame = 0
 225              		@ frame_needed = 0, uses_anonymous_args = 0
 226              		@ link register save eliminated.
 227              	.LVL24:
 228              	.L9:
 707:Middlewares/Third_Party/FatFs/src/ff.c **** 	BYTE *d = (BYTE*)dst;
 708:Middlewares/Third_Party/FatFs/src/ff.c **** 
 709:Middlewares/Third_Party/FatFs/src/ff.c **** 	do {
 229              		.loc 1 709 2 discriminator 1 view .LVU62
 710:Middlewares/Third_Party/FatFs/src/ff.c **** 		*d++ = (BYTE)val;
 230              		.loc 1 710 3 discriminator 1 view .LVU63
 231              		.loc 1 710 8 is_stmt 0 discriminator 1 view .LVU64
 232 0000 0170     		strb	r1, [r0]
 233 0002 0130     		adds	r0, r0, #1
 711:Middlewares/Third_Party/FatFs/src/ff.c **** 	} while (--cnt);
 234              		.loc 1 711 10 is_stmt 1 discriminator 1 view .LVU65
 235              	.LVL25:
 236              		.loc 1 711 2 is_stmt 0 discriminator 1 view .LVU66
 237 0004 013A     		subs	r2, r2, #1
 238              	.LVL26:
 239              		.loc 1 711 2 discriminator 1 view .LVU67
 240 0006 FBD1     		bne	.L9
 712:Middlewares/Third_Party/FatFs/src/ff.c **** }
 241              		.loc 1 712 1 view .LVU68
 242 0008 7047     		bx	lr
 243              		.cfi_endproc
 244              	.LFE343:
 246              		.section	.text.mem_cmp,"ax",%progbits
 247              		.align	1
 248              		.syntax unified
 249              		.thumb
 250              		.thumb_func
 252              	mem_cmp:
 253              	.LVL27:
 254              	.LFB344:
 713:Middlewares/Third_Party/FatFs/src/ff.c **** 
 714:Middlewares/Third_Party/FatFs/src/ff.c **** /* Compare memory block */
 715:Middlewares/Third_Party/FatFs/src/ff.c **** static
 716:Middlewares/Third_Party/FatFs/src/ff.c **** int mem_cmp (const void* dst, const void* src, UINT cnt) {	/* ZR:same, NZ:different */
 255              		.loc 1 716 58 is_stmt 1 view -0
 256              		.cfi_startproc
 257              		@ args = 0, pretend = 0, frame = 0
 258              		@ frame_needed = 0, uses_anonymous_args = 0
 259              		@ link register save eliminated.
 260              		.loc 1 716 58 is_stmt 0 view .LVU70
 261 0000 8446     		mov	ip, r0
 717:Middlewares/Third_Party/FatFs/src/ff.c **** 	const BYTE *d = (const BYTE *)dst, *s = (const BYTE *)src;
 262              		.loc 1 717 2 is_stmt 1 view .LVU71
 263              	.LVL28:
 718:Middlewares/Third_Party/FatFs/src/ff.c **** 	int r = 0;
 264              		.loc 1 718 2 view .LVU72
ARM GAS  C:\Users\zdy\AppData\Local\Temp\ccxXfRHS.s 			page 18


 265              	.L12:
 719:Middlewares/Third_Party/FatFs/src/ff.c **** 
 720:Middlewares/Third_Party/FatFs/src/ff.c **** 	do {
 266              		.loc 1 720 2 discriminator 2 view .LVU73
 721:Middlewares/Third_Party/FatFs/src/ff.c **** 		r = *d++ - *s++;
 267              		.loc 1 721 3 discriminator 2 view .LVU74
 268              		.loc 1 721 7 is_stmt 0 discriminator 2 view .LVU75
 269 0002 9CF80000 		ldrb	r0, [ip]	@ zero_extendqisi2
 270 0006 0CF1010C 		add	ip, ip, #1
 271              	.LVL29:
 272              		.loc 1 721 14 discriminator 2 view .LVU76
 273 000a 0B78     		ldrb	r3, [r1]	@ zero_extendqisi2
 274 000c 0131     		adds	r1, r1, #1
 275              	.LVL30:
 276              		.loc 1 721 5 discriminator 2 view .LVU77
 277 000e C01A     		subs	r0, r0, r3
 278              	.LVL31:
 722:Middlewares/Third_Party/FatFs/src/ff.c **** 	} while (--cnt && r == 0);
 279              		.loc 1 722 10 is_stmt 1 discriminator 2 view .LVU78
 280              		.loc 1 722 2 is_stmt 0 discriminator 2 view .LVU79
 281 0010 013A     		subs	r2, r2, #1
 282              	.LVL32:
 283              		.loc 1 722 2 discriminator 2 view .LVU80
 284 0012 01D0     		beq	.L10
 285              		.loc 1 722 17 discriminator 1 view .LVU81
 286 0014 0028     		cmp	r0, #0
 287 0016 F4D0     		beq	.L12
 288              	.L10:
 723:Middlewares/Third_Party/FatFs/src/ff.c **** 
 724:Middlewares/Third_Party/FatFs/src/ff.c **** 	return r;
 725:Middlewares/Third_Party/FatFs/src/ff.c **** }
 289              		.loc 1 725 1 view .LVU82
 290 0018 7047     		bx	lr
 291              		.cfi_endproc
 292              	.LFE344:
 294              		.section	.text.chk_chr,"ax",%progbits
 295              		.align	1
 296              		.syntax unified
 297              		.thumb
 298              		.thumb_func
 300              	chk_chr:
 301              	.LVL33:
 302              	.LFB345:
 726:Middlewares/Third_Party/FatFs/src/ff.c **** 
 727:Middlewares/Third_Party/FatFs/src/ff.c **** /* Check if chr is contained in the string */
 728:Middlewares/Third_Party/FatFs/src/ff.c **** static
 729:Middlewares/Third_Party/FatFs/src/ff.c **** int chk_chr (const char* str, int chr) {	/* NZ:contained, ZR:not contained */
 303              		.loc 1 729 40 is_stmt 1 view -0
 304              		.cfi_startproc
 305              		@ args = 0, pretend = 0, frame = 0
 306              		@ frame_needed = 0, uses_anonymous_args = 0
 307              		@ link register save eliminated.
 308              		.loc 1 729 40 is_stmt 0 view .LVU84
 309 0000 0346     		mov	r3, r0
 730:Middlewares/Third_Party/FatFs/src/ff.c **** 	while (*str && *str != chr) str++;
 310              		.loc 1 730 2 is_stmt 1 view .LVU85
 311              		.loc 1 730 8 is_stmt 0 view .LVU86
ARM GAS  C:\Users\zdy\AppData\Local\Temp\ccxXfRHS.s 			page 19


 312 0002 00E0     		b	.L14
 313              	.LVL34:
 314              	.L16:
 315              		.loc 1 730 30 is_stmt 1 discriminator 3 view .LVU87
 316              		.loc 1 730 33 is_stmt 0 discriminator 3 view .LVU88
 317 0004 0133     		adds	r3, r3, #1
 318              	.LVL35:
 319              	.L14:
 320              		.loc 1 730 8 is_stmt 1 discriminator 1 view .LVU89
 321              		.loc 1 730 9 is_stmt 0 discriminator 1 view .LVU90
 322 0006 1878     		ldrb	r0, [r3]	@ zero_extendqisi2
 323              		.loc 1 730 8 discriminator 1 view .LVU91
 324 0008 08B1     		cbz	r0, .L15
 325              		.loc 1 730 14 discriminator 2 view .LVU92
 326 000a 8842     		cmp	r0, r1
 327 000c FAD1     		bne	.L16
 328              	.L15:
 731:Middlewares/Third_Party/FatFs/src/ff.c **** 	return *str;
 329              		.loc 1 731 2 is_stmt 1 view .LVU93
 732:Middlewares/Third_Party/FatFs/src/ff.c **** }
 330              		.loc 1 732 1 is_stmt 0 view .LVU94
 331 000e 7047     		bx	lr
 332              		.cfi_endproc
 333              	.LFE345:
 335              		.section	.text.chk_lock,"ax",%progbits
 336              		.align	1
 337              		.syntax unified
 338              		.thumb
 339              		.thumb_func
 341              	chk_lock:
 342              	.LVL36:
 343              	.LFB348:
 733:Middlewares/Third_Party/FatFs/src/ff.c **** 
 734:Middlewares/Third_Party/FatFs/src/ff.c **** 
 735:Middlewares/Third_Party/FatFs/src/ff.c **** 
 736:Middlewares/Third_Party/FatFs/src/ff.c **** 
 737:Middlewares/Third_Party/FatFs/src/ff.c **** #if _FS_REENTRANT
 738:Middlewares/Third_Party/FatFs/src/ff.c **** /*-----------------------------------------------------------------------*/
 739:Middlewares/Third_Party/FatFs/src/ff.c **** /* Request/Release grant to access the volume                            */
 740:Middlewares/Third_Party/FatFs/src/ff.c **** /*-----------------------------------------------------------------------*/
 741:Middlewares/Third_Party/FatFs/src/ff.c **** static
 742:Middlewares/Third_Party/FatFs/src/ff.c **** int lock_fs (
 743:Middlewares/Third_Party/FatFs/src/ff.c **** 	FATFS* fs		/* File system object */
 744:Middlewares/Third_Party/FatFs/src/ff.c **** )
 745:Middlewares/Third_Party/FatFs/src/ff.c **** {
 746:Middlewares/Third_Party/FatFs/src/ff.c **** 	return (fs && ff_req_grant(fs->sobj)) ? 1 : 0;
 747:Middlewares/Third_Party/FatFs/src/ff.c **** }
 748:Middlewares/Third_Party/FatFs/src/ff.c **** 
 749:Middlewares/Third_Party/FatFs/src/ff.c **** 
 750:Middlewares/Third_Party/FatFs/src/ff.c **** static
 751:Middlewares/Third_Party/FatFs/src/ff.c **** void unlock_fs (
 752:Middlewares/Third_Party/FatFs/src/ff.c **** 	FATFS* fs,		/* File system object */
 753:Middlewares/Third_Party/FatFs/src/ff.c **** 	FRESULT res		/* Result code to be returned */
 754:Middlewares/Third_Party/FatFs/src/ff.c **** )
 755:Middlewares/Third_Party/FatFs/src/ff.c **** {
 756:Middlewares/Third_Party/FatFs/src/ff.c **** 	if (fs && res != FR_NOT_ENABLED && res != FR_INVALID_DRIVE && res != FR_TIMEOUT) {
 757:Middlewares/Third_Party/FatFs/src/ff.c **** 		ff_rel_grant(fs->sobj);
ARM GAS  C:\Users\zdy\AppData\Local\Temp\ccxXfRHS.s 			page 20


 758:Middlewares/Third_Party/FatFs/src/ff.c **** 	}
 759:Middlewares/Third_Party/FatFs/src/ff.c **** }
 760:Middlewares/Third_Party/FatFs/src/ff.c **** 
 761:Middlewares/Third_Party/FatFs/src/ff.c **** #endif
 762:Middlewares/Third_Party/FatFs/src/ff.c **** 
 763:Middlewares/Third_Party/FatFs/src/ff.c **** 
 764:Middlewares/Third_Party/FatFs/src/ff.c **** 
 765:Middlewares/Third_Party/FatFs/src/ff.c **** #if _FS_LOCK != 0
 766:Middlewares/Third_Party/FatFs/src/ff.c **** /*-----------------------------------------------------------------------*/
 767:Middlewares/Third_Party/FatFs/src/ff.c **** /* File lock control functions                                           */
 768:Middlewares/Third_Party/FatFs/src/ff.c **** /*-----------------------------------------------------------------------*/
 769:Middlewares/Third_Party/FatFs/src/ff.c **** 
 770:Middlewares/Third_Party/FatFs/src/ff.c **** static
 771:Middlewares/Third_Party/FatFs/src/ff.c **** FRESULT chk_lock (	/* Check if the file can be accessed */
 772:Middlewares/Third_Party/FatFs/src/ff.c **** 	DIR* dp,		/* Directory object pointing the file to be checked */
 773:Middlewares/Third_Party/FatFs/src/ff.c **** 	int acc			/* Desired access type (0:Read, 1:Write, 2:Delete/Rename) */
 774:Middlewares/Third_Party/FatFs/src/ff.c **** )
 775:Middlewares/Third_Party/FatFs/src/ff.c **** {
 344              		.loc 1 775 1 is_stmt 1 view -0
 345              		.cfi_startproc
 346              		@ args = 0, pretend = 0, frame = 0
 347              		@ frame_needed = 0, uses_anonymous_args = 0
 348              		@ link register save eliminated.
 349              		.loc 1 775 1 is_stmt 0 view .LVU96
 350 0000 10B4     		push	{r4}
 351              	.LCFI0:
 352              		.cfi_def_cfa_offset 4
 353              		.cfi_offset 4, -4
 776:Middlewares/Third_Party/FatFs/src/ff.c **** 	UINT i, be;
 354              		.loc 1 776 2 is_stmt 1 view .LVU97
 777:Middlewares/Third_Party/FatFs/src/ff.c **** 
 778:Middlewares/Third_Party/FatFs/src/ff.c **** 	/* Search file semaphore table */
 779:Middlewares/Third_Party/FatFs/src/ff.c **** 	for (i = be = 0; i < _FS_LOCK; i++) {
 355              		.loc 1 779 2 view .LVU98
 356              	.LVL37:
 357              		.loc 1 779 14 is_stmt 0 view .LVU99
 358 0002 4FF0000C 		mov	ip, #0
 359              		.loc 1 779 9 view .LVU100
 360 0006 6346     		mov	r3, ip
 361              		.loc 1 779 2 view .LVU101
 362 0008 02E0     		b	.L18
 363              	.LVL38:
 364              	.L25:
 780:Middlewares/Third_Party/FatFs/src/ff.c **** 		if (Files[i].fs) {	/* Existing entry */
 781:Middlewares/Third_Party/FatFs/src/ff.c **** 			if (Files[i].fs == dp->obj.fs &&	 	/* Check if the object matched with an open object */
 782:Middlewares/Third_Party/FatFs/src/ff.c **** 				Files[i].clu == dp->obj.sclust &&
 783:Middlewares/Third_Party/FatFs/src/ff.c **** 				Files[i].ofs == dp->dptr) break;
 784:Middlewares/Third_Party/FatFs/src/ff.c **** 		} else {			/* Blank entry */
 785:Middlewares/Third_Party/FatFs/src/ff.c **** 			be = 1;
 365              		.loc 1 785 7 view .LVU102
 366 000a 4FF0010C 		mov	ip, #1
 367              	.LVL39:
 368              	.L19:
 779:Middlewares/Third_Party/FatFs/src/ff.c **** 		if (Files[i].fs) {	/* Existing entry */
 369              		.loc 1 779 33 is_stmt 1 discriminator 2 view .LVU103
 779:Middlewares/Third_Party/FatFs/src/ff.c **** 		if (Files[i].fs) {	/* Existing entry */
 370              		.loc 1 779 34 is_stmt 0 discriminator 2 view .LVU104
ARM GAS  C:\Users\zdy\AppData\Local\Temp\ccxXfRHS.s 			page 21


 371 000e 0133     		adds	r3, r3, #1
 372              	.LVL40:
 373              	.L18:
 779:Middlewares/Third_Party/FatFs/src/ff.c **** 		if (Files[i].fs) {	/* Existing entry */
 374              		.loc 1 779 19 is_stmt 1 discriminator 1 view .LVU105
 779:Middlewares/Third_Party/FatFs/src/ff.c **** 		if (Files[i].fs) {	/* Existing entry */
 375              		.loc 1 779 2 is_stmt 0 discriminator 1 view .LVU106
 376 0010 012B     		cmp	r3, #1
 377 0012 15D8     		bhi	.L20
 780:Middlewares/Third_Party/FatFs/src/ff.c **** 		if (Files[i].fs) {	/* Existing entry */
 378              		.loc 1 780 3 is_stmt 1 view .LVU107
 780:Middlewares/Third_Party/FatFs/src/ff.c **** 		if (Files[i].fs) {	/* Existing entry */
 379              		.loc 1 780 15 is_stmt 0 view .LVU108
 380 0014 1A01     		lsls	r2, r3, #4
 381 0016 184C     		ldr	r4, .L32
 382 0018 A258     		ldr	r2, [r4, r2]
 780:Middlewares/Third_Party/FatFs/src/ff.c **** 		if (Files[i].fs) {	/* Existing entry */
 383              		.loc 1 780 6 view .LVU109
 384 001a 002A     		cmp	r2, #0
 385 001c F5D0     		beq	.L25
 781:Middlewares/Third_Party/FatFs/src/ff.c **** 				Files[i].clu == dp->obj.sclust &&
 386              		.loc 1 781 4 is_stmt 1 view .LVU110
 781:Middlewares/Third_Party/FatFs/src/ff.c **** 				Files[i].clu == dp->obj.sclust &&
 387              		.loc 1 781 30 is_stmt 0 view .LVU111
 388 001e 0468     		ldr	r4, [r0]
 781:Middlewares/Third_Party/FatFs/src/ff.c **** 				Files[i].clu == dp->obj.sclust &&
 389              		.loc 1 781 7 view .LVU112
 390 0020 A242     		cmp	r2, r4
 391 0022 F4D1     		bne	.L19
 782:Middlewares/Third_Party/FatFs/src/ff.c **** 				Files[i].ofs == dp->dptr) break;
 392              		.loc 1 782 13 discriminator 1 view .LVU113
 393 0024 144A     		ldr	r2, .L32
 394 0026 02EB0312 		add	r2, r2, r3, lsl #4
 395 002a 5468     		ldr	r4, [r2, #4]
 782:Middlewares/Third_Party/FatFs/src/ff.c **** 				Files[i].ofs == dp->dptr) break;
 396              		.loc 1 782 28 discriminator 1 view .LVU114
 397 002c 8268     		ldr	r2, [r0, #8]
 781:Middlewares/Third_Party/FatFs/src/ff.c **** 				Files[i].clu == dp->obj.sclust &&
 398              		.loc 1 781 34 discriminator 1 view .LVU115
 399 002e 9442     		cmp	r4, r2
 400 0030 EDD1     		bne	.L19
 783:Middlewares/Third_Party/FatFs/src/ff.c **** 		} else {			/* Blank entry */
 401              		.loc 1 783 13 view .LVU116
 402 0032 114A     		ldr	r2, .L32
 403 0034 02EB0312 		add	r2, r2, r3, lsl #4
 404 0038 9468     		ldr	r4, [r2, #8]
 783:Middlewares/Third_Party/FatFs/src/ff.c **** 		} else {			/* Blank entry */
 405              		.loc 1 783 23 view .LVU117
 406 003a 4269     		ldr	r2, [r0, #20]
 782:Middlewares/Third_Party/FatFs/src/ff.c **** 				Files[i].ofs == dp->dptr) break;
 407              		.loc 1 782 36 view .LVU118
 408 003c 9442     		cmp	r4, r2
 409 003e E6D1     		bne	.L19
 410              	.L20:
 786:Middlewares/Third_Party/FatFs/src/ff.c **** 		}
 787:Middlewares/Third_Party/FatFs/src/ff.c **** 	}
 788:Middlewares/Third_Party/FatFs/src/ff.c **** 	if (i == _FS_LOCK) {	/* The object is not opened */
ARM GAS  C:\Users\zdy\AppData\Local\Temp\ccxXfRHS.s 			page 22


 411              		.loc 1 788 2 is_stmt 1 view .LVU119
 412              		.loc 1 788 5 is_stmt 0 view .LVU120
 413 0040 022B     		cmp	r3, #2
 414 0042 0BD0     		beq	.L30
 789:Middlewares/Third_Party/FatFs/src/ff.c **** 		return (be || acc == 2) ? FR_OK : FR_TOO_MANY_OPEN_FILES;	/* Is there a blank entry for new objec
 790:Middlewares/Third_Party/FatFs/src/ff.c **** 	}
 791:Middlewares/Third_Party/FatFs/src/ff.c **** 
 792:Middlewares/Third_Party/FatFs/src/ff.c **** 	/* The object has been opened. Reject any open against writing file and all write mode open */
 793:Middlewares/Third_Party/FatFs/src/ff.c **** 	return (acc || Files[i].ctr == 0x100) ? FR_LOCKED : FR_OK;
 415              		.loc 1 793 2 is_stmt 1 view .LVU121
 416              		.loc 1 793 52 is_stmt 0 view .LVU122
 417 0044 B1B9     		cbnz	r1, .L27
 418              		.loc 1 793 25 discriminator 2 view .LVU123
 419 0046 0C4A     		ldr	r2, .L32
 420 0048 02EB0313 		add	r3, r2, r3, lsl #4
 421              	.LVL41:
 422              		.loc 1 793 25 discriminator 2 view .LVU124
 423 004c 9B89     		ldrh	r3, [r3, #12]
 424              		.loc 1 793 14 discriminator 2 view .LVU125
 425 004e B3F5807F 		cmp	r3, #256
 426 0052 0DD0     		beq	.L31
 427              		.loc 1 793 52 view .LVU126
 428 0054 0020     		movs	r0, #0
 429              	.LVL42:
 430              	.L24:
 794:Middlewares/Third_Party/FatFs/src/ff.c **** }
 431              		.loc 1 794 1 view .LVU127
 432 0056 5DF8044B 		ldr	r4, [sp], #4
 433              	.LCFI1:
 434              		.cfi_remember_state
 435              		.cfi_restore 4
 436              		.cfi_def_cfa_offset 0
 437 005a 7047     		bx	lr
 438              	.LVL43:
 439              	.L30:
 440              	.LCFI2:
 441              		.cfi_restore_state
 789:Middlewares/Third_Party/FatFs/src/ff.c **** 		return (be || acc == 2) ? FR_OK : FR_TOO_MANY_OPEN_FILES;	/* Is there a blank entry for new objec
 442              		.loc 1 789 3 is_stmt 1 view .LVU128
 789:Middlewares/Third_Party/FatFs/src/ff.c **** 		return (be || acc == 2) ? FR_OK : FR_TOO_MANY_OPEN_FILES;	/* Is there a blank entry for new objec
 443              		.loc 1 789 14 is_stmt 0 view .LVU129
 444 005c 0229     		cmp	r1, #2
 445 005e 14BF     		ite	ne
 446 0060 6346     		movne	r3, ip
 447 0062 4CF00103 		orreq	r3, ip, #1
 448              	.LVL44:
 789:Middlewares/Third_Party/FatFs/src/ff.c **** 		return (be || acc == 2) ? FR_OK : FR_TOO_MANY_OPEN_FILES;	/* Is there a blank entry for new objec
 449              		.loc 1 789 35 view .LVU130
 450 0066 0BB1     		cbz	r3, .L26
 451 0068 0020     		movs	r0, #0
 452              	.LVL45:
 789:Middlewares/Third_Party/FatFs/src/ff.c **** 		return (be || acc == 2) ? FR_OK : FR_TOO_MANY_OPEN_FILES;	/* Is there a blank entry for new objec
 453              		.loc 1 789 35 view .LVU131
 454 006a F4E7     		b	.L24
 455              	.LVL46:
 456              	.L26:
 789:Middlewares/Third_Party/FatFs/src/ff.c **** 		return (be || acc == 2) ? FR_OK : FR_TOO_MANY_OPEN_FILES;	/* Is there a blank entry for new objec
ARM GAS  C:\Users\zdy\AppData\Local\Temp\ccxXfRHS.s 			page 23


 457              		.loc 1 789 35 view .LVU132
 458 006c 1220     		movs	r0, #18
 459              	.LVL47:
 789:Middlewares/Third_Party/FatFs/src/ff.c **** 		return (be || acc == 2) ? FR_OK : FR_TOO_MANY_OPEN_FILES;	/* Is there a blank entry for new objec
 460              		.loc 1 789 35 view .LVU133
 461 006e F2E7     		b	.L24
 462              	.LVL48:
 463              	.L31:
 793:Middlewares/Third_Party/FatFs/src/ff.c **** }
 464              		.loc 1 793 52 view .LVU134
 465 0070 1020     		movs	r0, #16
 466              	.LVL49:
 793:Middlewares/Third_Party/FatFs/src/ff.c **** }
 467              		.loc 1 793 52 view .LVU135
 468 0072 F0E7     		b	.L24
 469              	.LVL50:
 470              	.L27:
 793:Middlewares/Third_Party/FatFs/src/ff.c **** }
 471              		.loc 1 793 52 view .LVU136
 472 0074 1020     		movs	r0, #16
 473              	.LVL51:
 793:Middlewares/Third_Party/FatFs/src/ff.c **** }
 474              		.loc 1 793 52 view .LVU137
 475 0076 EEE7     		b	.L24
 476              	.L33:
 477              		.align	2
 478              	.L32:
 479 0078 00000000 		.word	.LANCHOR0
 480              		.cfi_endproc
 481              	.LFE348:
 483              		.section	.text.enq_lock,"ax",%progbits
 484              		.align	1
 485              		.syntax unified
 486              		.thumb
 487              		.thumb_func
 489              	enq_lock:
 490              	.LFB349:
 795:Middlewares/Third_Party/FatFs/src/ff.c **** 
 796:Middlewares/Third_Party/FatFs/src/ff.c **** 
 797:Middlewares/Third_Party/FatFs/src/ff.c **** static
 798:Middlewares/Third_Party/FatFs/src/ff.c **** int enq_lock (void)	/* Check if an entry is available for a new object */
 799:Middlewares/Third_Party/FatFs/src/ff.c **** {
 491              		.loc 1 799 1 is_stmt 1 view -0
 492              		.cfi_startproc
 493              		@ args = 0, pretend = 0, frame = 0
 494              		@ frame_needed = 0, uses_anonymous_args = 0
 495              		@ link register save eliminated.
 800:Middlewares/Third_Party/FatFs/src/ff.c **** 	UINT i;
 496              		.loc 1 800 2 view .LVU139
 801:Middlewares/Third_Party/FatFs/src/ff.c **** 
 802:Middlewares/Third_Party/FatFs/src/ff.c **** 	for (i = 0; i < _FS_LOCK && Files[i].fs; i++) ;
 497              		.loc 1 802 2 view .LVU140
 498              	.LVL52:
 499              		.loc 1 802 9 is_stmt 0 view .LVU141
 500 0000 0020     		movs	r0, #0
 501              		.loc 1 802 2 view .LVU142
 502 0002 00E0     		b	.L35
ARM GAS  C:\Users\zdy\AppData\Local\Temp\ccxXfRHS.s 			page 24


 503              	.LVL53:
 504              	.L37:
 505              		.loc 1 802 48 is_stmt 1 discriminator 4 view .LVU143
 506              		.loc 1 802 43 discriminator 4 view .LVU144
 507              		.loc 1 802 44 is_stmt 0 discriminator 4 view .LVU145
 508 0004 0130     		adds	r0, r0, #1
 509              	.LVL54:
 510              	.L35:
 511              		.loc 1 802 14 is_stmt 1 discriminator 1 view .LVU146
 512              		.loc 1 802 2 is_stmt 0 discriminator 1 view .LVU147
 513 0006 0128     		cmp	r0, #1
 514 0008 04D8     		bhi	.L36
 515              		.loc 1 802 38 discriminator 3 view .LVU148
 516 000a 0301     		lsls	r3, r0, #4
 517 000c 034A     		ldr	r2, .L38
 518 000e D358     		ldr	r3, [r2, r3]
 519              		.loc 1 802 27 discriminator 3 view .LVU149
 520 0010 002B     		cmp	r3, #0
 521 0012 F7D1     		bne	.L37
 522              	.L36:
 803:Middlewares/Third_Party/FatFs/src/ff.c **** 	return (i == _FS_LOCK) ? 0 : 1;
 523              		.loc 1 803 2 is_stmt 1 view .LVU150
 804:Middlewares/Third_Party/FatFs/src/ff.c **** }
 524              		.loc 1 804 1 is_stmt 0 view .LVU151
 525 0014 0238     		subs	r0, r0, #2
 526              	.LVL55:
 527              		.loc 1 804 1 view .LVU152
 528 0016 18BF     		it	ne
 529 0018 0120     		movne	r0, #1
 530              	.LVL56:
 531              		.loc 1 804 1 view .LVU153
 532 001a 7047     		bx	lr
 533              	.L39:
 534              		.align	2
 535              	.L38:
 536 001c 00000000 		.word	.LANCHOR0
 537              		.cfi_endproc
 538              	.LFE349:
 540              		.section	.text.inc_lock,"ax",%progbits
 541              		.align	1
 542              		.syntax unified
 543              		.thumb
 544              		.thumb_func
 546              	inc_lock:
 547              	.LVL57:
 548              	.LFB350:
 805:Middlewares/Third_Party/FatFs/src/ff.c **** 
 806:Middlewares/Third_Party/FatFs/src/ff.c **** 
 807:Middlewares/Third_Party/FatFs/src/ff.c **** static
 808:Middlewares/Third_Party/FatFs/src/ff.c **** UINT inc_lock (	/* Increment object open counter and returns its index (0:Internal error) */
 809:Middlewares/Third_Party/FatFs/src/ff.c **** 	DIR* dp,	/* Directory object pointing the file to register or increment */
 810:Middlewares/Third_Party/FatFs/src/ff.c **** 	int acc		/* Desired access (0:Read, 1:Write, 2:Delete/Rename) */
 811:Middlewares/Third_Party/FatFs/src/ff.c **** )
 812:Middlewares/Third_Party/FatFs/src/ff.c **** {
 549              		.loc 1 812 1 is_stmt 1 view -0
 550              		.cfi_startproc
 551              		@ args = 0, pretend = 0, frame = 0
ARM GAS  C:\Users\zdy\AppData\Local\Temp\ccxXfRHS.s 			page 25


 552              		@ frame_needed = 0, uses_anonymous_args = 0
 553              		@ link register save eliminated.
 554              		.loc 1 812 1 is_stmt 0 view .LVU155
 555 0000 70B4     		push	{r4, r5, r6}
 556              	.LCFI3:
 557              		.cfi_def_cfa_offset 12
 558              		.cfi_offset 4, -12
 559              		.cfi_offset 5, -8
 560              		.cfi_offset 6, -4
 813:Middlewares/Third_Party/FatFs/src/ff.c **** 	UINT i;
 561              		.loc 1 813 2 is_stmt 1 view .LVU156
 814:Middlewares/Third_Party/FatFs/src/ff.c **** 
 815:Middlewares/Third_Party/FatFs/src/ff.c **** 
 816:Middlewares/Third_Party/FatFs/src/ff.c **** 	for (i = 0; i < _FS_LOCK; i++) {	/* Find the object */
 562              		.loc 1 816 2 view .LVU157
 563              	.LVL58:
 564              		.loc 1 816 9 is_stmt 0 view .LVU158
 565 0002 0023     		movs	r3, #0
 566              		.loc 1 816 2 view .LVU159
 567 0004 00E0     		b	.L41
 568              	.LVL59:
 569              	.L42:
 570              		.loc 1 816 28 is_stmt 1 discriminator 2 view .LVU160
 571              		.loc 1 816 29 is_stmt 0 discriminator 2 view .LVU161
 572 0006 0133     		adds	r3, r3, #1
 573              	.LVL60:
 574              	.L41:
 575              		.loc 1 816 14 is_stmt 1 discriminator 1 view .LVU162
 576              		.loc 1 816 2 is_stmt 0 discriminator 1 view .LVU163
 577 0008 012B     		cmp	r3, #1
 578 000a 13D8     		bhi	.L43
 817:Middlewares/Third_Party/FatFs/src/ff.c **** 		if (Files[i].fs == dp->obj.fs &&
 579              		.loc 1 817 3 is_stmt 1 view .LVU164
 580              		.loc 1 817 15 is_stmt 0 view .LVU165
 581 000c 1A01     		lsls	r2, r3, #4
 582 000e 244C     		ldr	r4, .L58
 583 0010 A458     		ldr	r4, [r4, r2]
 584              		.loc 1 817 29 view .LVU166
 585 0012 0268     		ldr	r2, [r0]
 586              		.loc 1 817 6 view .LVU167
 587 0014 9442     		cmp	r4, r2
 588 0016 F6D1     		bne	.L42
 818:Middlewares/Third_Party/FatFs/src/ff.c **** 			Files[i].clu == dp->obj.sclust &&
 589              		.loc 1 818 12 discriminator 1 view .LVU168
 590 0018 214A     		ldr	r2, .L58
 591 001a 02EB0312 		add	r2, r2, r3, lsl #4
 592 001e 5468     		ldr	r4, [r2, #4]
 593              		.loc 1 818 27 discriminator 1 view .LVU169
 594 0020 8268     		ldr	r2, [r0, #8]
 817:Middlewares/Third_Party/FatFs/src/ff.c **** 		if (Files[i].fs == dp->obj.fs &&
 595              		.loc 1 817 33 discriminator 1 view .LVU170
 596 0022 9442     		cmp	r4, r2
 597 0024 EFD1     		bne	.L42
 819:Middlewares/Third_Party/FatFs/src/ff.c **** 			Files[i].ofs == dp->dptr) break;
 598              		.loc 1 819 12 view .LVU171
 599 0026 1E4A     		ldr	r2, .L58
 600 0028 02EB0312 		add	r2, r2, r3, lsl #4
ARM GAS  C:\Users\zdy\AppData\Local\Temp\ccxXfRHS.s 			page 26


 601 002c 9468     		ldr	r4, [r2, #8]
 602              		.loc 1 819 22 view .LVU172
 603 002e 4269     		ldr	r2, [r0, #20]
 818:Middlewares/Third_Party/FatFs/src/ff.c **** 			Files[i].clu == dp->obj.sclust &&
 604              		.loc 1 818 35 view .LVU173
 605 0030 9442     		cmp	r4, r2
 606 0032 E8D1     		bne	.L42
 607              	.L43:
 820:Middlewares/Third_Party/FatFs/src/ff.c **** 	}
 821:Middlewares/Third_Party/FatFs/src/ff.c **** 
 822:Middlewares/Third_Party/FatFs/src/ff.c **** 	if (i == _FS_LOCK) {				/* Not opened. Register it as new. */
 608              		.loc 1 822 2 is_stmt 1 view .LVU174
 609              		.loc 1 822 5 is_stmt 0 view .LVU175
 610 0034 022B     		cmp	r3, #2
 611 0036 0DD0     		beq	.L57
 612              	.LVL61:
 613              	.L46:
 823:Middlewares/Third_Party/FatFs/src/ff.c **** 		for (i = 0; i < _FS_LOCK && Files[i].fs; i++) ;
 824:Middlewares/Third_Party/FatFs/src/ff.c **** 		if (i == _FS_LOCK) return 0;	/* No free entry to register (int err) */
 825:Middlewares/Third_Party/FatFs/src/ff.c **** 		Files[i].fs = dp->obj.fs;
 826:Middlewares/Third_Party/FatFs/src/ff.c **** 		Files[i].clu = dp->obj.sclust;
 827:Middlewares/Third_Party/FatFs/src/ff.c **** 		Files[i].ofs = dp->dptr;
 828:Middlewares/Third_Party/FatFs/src/ff.c **** 		Files[i].ctr = 0;
 829:Middlewares/Third_Party/FatFs/src/ff.c **** 	}
 830:Middlewares/Third_Party/FatFs/src/ff.c **** 
 831:Middlewares/Third_Party/FatFs/src/ff.c **** 	if (acc && Files[i].ctr) return 0;	/* Access violation (int err) */
 614              		.loc 1 831 2 is_stmt 1 view .LVU176
 615              		.loc 1 831 5 is_stmt 0 view .LVU177
 616 0038 21B1     		cbz	r1, .L50
 617              		.loc 1 831 21 discriminator 1 view .LVU178
 618 003a 194A     		ldr	r2, .L58
 619 003c 02EB0312 		add	r2, r2, r3, lsl #4
 620 0040 9289     		ldrh	r2, [r2, #12]
 621              		.loc 1 831 10 discriminator 1 view .LVU179
 622 0042 52BB     		cbnz	r2, .L54
 623              	.L50:
 832:Middlewares/Third_Party/FatFs/src/ff.c **** 
 833:Middlewares/Third_Party/FatFs/src/ff.c **** 	Files[i].ctr = acc ? 0x100 : Files[i].ctr + 1;	/* Set semaphore value */
 624              		.loc 1 833 2 is_stmt 1 view .LVU180
 625              		.loc 1 833 15 is_stmt 0 view .LVU181
 626 0044 F1B9     		cbnz	r1, .L55
 627              		.loc 1 833 39 discriminator 1 view .LVU182
 628 0046 164A     		ldr	r2, .L58
 629 0048 02EB0312 		add	r2, r2, r3, lsl #4
 630 004c 9189     		ldrh	r1, [r2, #12]
 631              	.LVL62:
 632              		.loc 1 833 15 discriminator 1 view .LVU183
 633 004e 0131     		adds	r1, r1, #1
 634 0050 89B2     		uxth	r1, r1
 635 0052 19E0     		b	.L51
 636              	.LVL63:
 637              	.L57:
 823:Middlewares/Third_Party/FatFs/src/ff.c **** 		for (i = 0; i < _FS_LOCK && Files[i].fs; i++) ;
 638              		.loc 1 823 10 view .LVU184
 639 0054 0023     		movs	r3, #0
 640              	.LVL64:
 641              	.L45:
ARM GAS  C:\Users\zdy\AppData\Local\Temp\ccxXfRHS.s 			page 27


 823:Middlewares/Third_Party/FatFs/src/ff.c **** 		for (i = 0; i < _FS_LOCK && Files[i].fs; i++) ;
 642              		.loc 1 823 15 is_stmt 1 discriminator 1 view .LVU185
 823:Middlewares/Third_Party/FatFs/src/ff.c **** 		for (i = 0; i < _FS_LOCK && Files[i].fs; i++) ;
 643              		.loc 1 823 3 is_stmt 0 discriminator 1 view .LVU186
 644 0056 012B     		cmp	r3, #1
 645 0058 05D8     		bhi	.L47
 823:Middlewares/Third_Party/FatFs/src/ff.c **** 		for (i = 0; i < _FS_LOCK && Files[i].fs; i++) ;
 646              		.loc 1 823 39 discriminator 3 view .LVU187
 647 005a 1A01     		lsls	r2, r3, #4
 648 005c 104C     		ldr	r4, .L58
 649 005e A258     		ldr	r2, [r4, r2]
 823:Middlewares/Third_Party/FatFs/src/ff.c **** 		for (i = 0; i < _FS_LOCK && Files[i].fs; i++) ;
 650              		.loc 1 823 28 discriminator 3 view .LVU188
 651 0060 0AB1     		cbz	r2, .L47
 823:Middlewares/Third_Party/FatFs/src/ff.c **** 		for (i = 0; i < _FS_LOCK && Files[i].fs; i++) ;
 652              		.loc 1 823 49 is_stmt 1 discriminator 4 view .LVU189
 823:Middlewares/Third_Party/FatFs/src/ff.c **** 		for (i = 0; i < _FS_LOCK && Files[i].fs; i++) ;
 653              		.loc 1 823 44 discriminator 4 view .LVU190
 823:Middlewares/Third_Party/FatFs/src/ff.c **** 		for (i = 0; i < _FS_LOCK && Files[i].fs; i++) ;
 654              		.loc 1 823 45 is_stmt 0 discriminator 4 view .LVU191
 655 0062 0133     		adds	r3, r3, #1
 656              	.LVL65:
 823:Middlewares/Third_Party/FatFs/src/ff.c **** 		for (i = 0; i < _FS_LOCK && Files[i].fs; i++) ;
 657              		.loc 1 823 45 discriminator 4 view .LVU192
 658 0064 F7E7     		b	.L45
 659              	.L47:
 824:Middlewares/Third_Party/FatFs/src/ff.c **** 		Files[i].fs = dp->obj.fs;
 660              		.loc 1 824 3 is_stmt 1 view .LVU193
 824:Middlewares/Third_Party/FatFs/src/ff.c **** 		Files[i].fs = dp->obj.fs;
 661              		.loc 1 824 6 is_stmt 0 view .LVU194
 662 0066 022B     		cmp	r3, #2
 663 0068 15D0     		beq	.L53
 825:Middlewares/Third_Party/FatFs/src/ff.c **** 		Files[i].clu = dp->obj.sclust;
 664              		.loc 1 825 3 is_stmt 1 view .LVU195
 825:Middlewares/Third_Party/FatFs/src/ff.c **** 		Files[i].clu = dp->obj.sclust;
 665              		.loc 1 825 15 is_stmt 0 view .LVU196
 666 006a 0D4D     		ldr	r5, .L58
 667 006c 1C01     		lsls	r4, r3, #4
 668 006e 05EB0312 		add	r2, r5, r3, lsl #4
 669 0072 0668     		ldr	r6, [r0]
 670 0074 2E51     		str	r6, [r5, r4]
 826:Middlewares/Third_Party/FatFs/src/ff.c **** 		Files[i].ofs = dp->dptr;
 671              		.loc 1 826 3 is_stmt 1 view .LVU197
 826:Middlewares/Third_Party/FatFs/src/ff.c **** 		Files[i].ofs = dp->dptr;
 672              		.loc 1 826 25 is_stmt 0 view .LVU198
 673 0076 8468     		ldr	r4, [r0, #8]
 826:Middlewares/Third_Party/FatFs/src/ff.c **** 		Files[i].ofs = dp->dptr;
 674              		.loc 1 826 16 view .LVU199
 675 0078 5460     		str	r4, [r2, #4]
 827:Middlewares/Third_Party/FatFs/src/ff.c **** 		Files[i].ctr = 0;
 676              		.loc 1 827 3 is_stmt 1 view .LVU200
 827:Middlewares/Third_Party/FatFs/src/ff.c **** 		Files[i].ctr = 0;
 677              		.loc 1 827 20 is_stmt 0 view .LVU201
 678 007a 4069     		ldr	r0, [r0, #20]
 679              	.LVL66:
 827:Middlewares/Third_Party/FatFs/src/ff.c **** 		Files[i].ctr = 0;
 680              		.loc 1 827 16 view .LVU202
ARM GAS  C:\Users\zdy\AppData\Local\Temp\ccxXfRHS.s 			page 28


 681 007c 9060     		str	r0, [r2, #8]
 828:Middlewares/Third_Party/FatFs/src/ff.c **** 	}
 682              		.loc 1 828 3 is_stmt 1 view .LVU203
 828:Middlewares/Third_Party/FatFs/src/ff.c **** 	}
 683              		.loc 1 828 16 is_stmt 0 view .LVU204
 684 007e 0020     		movs	r0, #0
 685 0080 9081     		strh	r0, [r2, #12]	@ movhi
 686 0082 D9E7     		b	.L46
 687              	.L55:
 688              		.loc 1 833 15 view .LVU205
 689 0084 4FF48071 		mov	r1, #256
 690              	.LVL67:
 691              	.L51:
 692              		.loc 1 833 15 discriminator 4 view .LVU206
 693 0088 054A     		ldr	r2, .L58
 694 008a 02EB0312 		add	r2, r2, r3, lsl #4
 695 008e 9181     		strh	r1, [r2, #12]	@ movhi
 834:Middlewares/Third_Party/FatFs/src/ff.c **** 
 835:Middlewares/Third_Party/FatFs/src/ff.c **** 	return i + 1;
 696              		.loc 1 835 2 is_stmt 1 discriminator 4 view .LVU207
 697              		.loc 1 835 11 is_stmt 0 discriminator 4 view .LVU208
 698 0090 581C     		adds	r0, r3, #1
 699              	.L40:
 836:Middlewares/Third_Party/FatFs/src/ff.c **** }
 700              		.loc 1 836 1 view .LVU209
 701 0092 70BC     		pop	{r4, r5, r6}
 702              	.LCFI4:
 703              		.cfi_remember_state
 704              		.cfi_restore 6
 705              		.cfi_restore 5
 706              		.cfi_restore 4
 707              		.cfi_def_cfa_offset 0
 708 0094 7047     		bx	lr
 709              	.LVL68:
 710              	.L53:
 711              	.LCFI5:
 712              		.cfi_restore_state
 824:Middlewares/Third_Party/FatFs/src/ff.c **** 		Files[i].fs = dp->obj.fs;
 713              		.loc 1 824 29 view .LVU210
 714 0096 0020     		movs	r0, #0
 715              	.LVL69:
 824:Middlewares/Third_Party/FatFs/src/ff.c **** 		Files[i].fs = dp->obj.fs;
 716              		.loc 1 824 29 view .LVU211
 717 0098 FBE7     		b	.L40
 718              	.L54:
 831:Middlewares/Third_Party/FatFs/src/ff.c **** 
 719              		.loc 1 831 34 view .LVU212
 720 009a 0020     		movs	r0, #0
 721 009c F9E7     		b	.L40
 722              	.L59:
 723 009e 00BF     		.align	2
 724              	.L58:
 725 00a0 00000000 		.word	.LANCHOR0
 726              		.cfi_endproc
 727              	.LFE350:
 729              		.section	.text.dec_lock,"ax",%progbits
 730              		.align	1
ARM GAS  C:\Users\zdy\AppData\Local\Temp\ccxXfRHS.s 			page 29


 731              		.syntax unified
 732              		.thumb
 733              		.thumb_func
 735              	dec_lock:
 736              	.LVL70:
 737              	.LFB351:
 837:Middlewares/Third_Party/FatFs/src/ff.c **** 
 838:Middlewares/Third_Party/FatFs/src/ff.c **** 
 839:Middlewares/Third_Party/FatFs/src/ff.c **** static
 840:Middlewares/Third_Party/FatFs/src/ff.c **** FRESULT dec_lock (	/* Decrement object open counter */
 841:Middlewares/Third_Party/FatFs/src/ff.c **** 	UINT i			/* Semaphore index (1..) */
 842:Middlewares/Third_Party/FatFs/src/ff.c **** )
 843:Middlewares/Third_Party/FatFs/src/ff.c **** {
 738              		.loc 1 843 1 is_stmt 1 view -0
 739              		.cfi_startproc
 740              		@ args = 0, pretend = 0, frame = 0
 741              		@ frame_needed = 0, uses_anonymous_args = 0
 742              		@ link register save eliminated.
 844:Middlewares/Third_Party/FatFs/src/ff.c **** 	WORD n;
 743              		.loc 1 844 2 view .LVU214
 845:Middlewares/Third_Party/FatFs/src/ff.c **** 	FRESULT res;
 744              		.loc 1 845 2 view .LVU215
 846:Middlewares/Third_Party/FatFs/src/ff.c **** 
 847:Middlewares/Third_Party/FatFs/src/ff.c **** 
 848:Middlewares/Third_Party/FatFs/src/ff.c **** 	if (--i < _FS_LOCK) {	/* Shift index number origin from 0 */
 745              		.loc 1 848 2 view .LVU216
 746              		.loc 1 848 5 is_stmt 0 view .LVU217
 747 0000 0138     		subs	r0, r0, #1
 748              	.LVL71:
 749              		.loc 1 848 5 view .LVU218
 750 0002 0128     		cmp	r0, #1
 751 0004 15D8     		bhi	.L63
 849:Middlewares/Third_Party/FatFs/src/ff.c **** 		n = Files[i].ctr;
 752              		.loc 1 849 3 is_stmt 1 view .LVU219
 753              		.loc 1 849 5 is_stmt 0 view .LVU220
 754 0006 0D4B     		ldr	r3, .L66
 755 0008 03EB0013 		add	r3, r3, r0, lsl #4
 756 000c 9B89     		ldrh	r3, [r3, #12]
 757              	.LVL72:
 850:Middlewares/Third_Party/FatFs/src/ff.c **** 		if (n == 0x100) n = 0;		/* If write mode open, delete the entry */
 758              		.loc 1 850 3 is_stmt 1 view .LVU221
 759              		.loc 1 850 6 is_stmt 0 view .LVU222
 760 000e B3F5807F 		cmp	r3, #256
 761 0012 03D0     		beq	.L64
 851:Middlewares/Third_Party/FatFs/src/ff.c **** 		if (n > 0) n--;				/* Decrement read mode open count */
 762              		.loc 1 851 3 is_stmt 1 view .LVU223
 763              		.loc 1 851 6 is_stmt 0 view .LVU224
 764 0014 1BB1     		cbz	r3, .L62
 765              		.loc 1 851 14 is_stmt 1 discriminator 1 view .LVU225
 766              		.loc 1 851 15 is_stmt 0 discriminator 1 view .LVU226
 767 0016 013B     		subs	r3, r3, #1
 768              	.LVL73:
 769              		.loc 1 851 15 discriminator 1 view .LVU227
 770 0018 9BB2     		uxth	r3, r3
 771              	.LVL74:
 772              		.loc 1 851 15 discriminator 1 view .LVU228
 773 001a 00E0     		b	.L62
ARM GAS  C:\Users\zdy\AppData\Local\Temp\ccxXfRHS.s 			page 30


 774              	.L64:
 850:Middlewares/Third_Party/FatFs/src/ff.c **** 		if (n == 0x100) n = 0;		/* If write mode open, delete the entry */
 775              		.loc 1 850 21 view .LVU229
 776 001c 0023     		movs	r3, #0
 777              	.LVL75:
 778              	.L62:
 852:Middlewares/Third_Party/FatFs/src/ff.c **** 		Files[i].ctr = n;
 779              		.loc 1 852 3 is_stmt 1 view .LVU230
 780              		.loc 1 852 16 is_stmt 0 view .LVU231
 781 001e 074A     		ldr	r2, .L66
 782 0020 02EB0012 		add	r2, r2, r0, lsl #4
 783 0024 9381     		strh	r3, [r2, #12]	@ movhi
 853:Middlewares/Third_Party/FatFs/src/ff.c **** 		if (n == 0) Files[i].fs = 0;	/* Delete the entry if open count gets zero */
 784              		.loc 1 853 3 is_stmt 1 view .LVU232
 785              		.loc 1 853 6 is_stmt 0 view .LVU233
 786 0026 33B9     		cbnz	r3, .L65
 787              		.loc 1 853 15 is_stmt 1 discriminator 1 view .LVU234
 788              		.loc 1 853 27 is_stmt 0 discriminator 1 view .LVU235
 789 0028 0301     		lsls	r3, r0, #4
 790              	.LVL76:
 791              		.loc 1 853 27 discriminator 1 view .LVU236
 792 002a 0020     		movs	r0, #0
 793              	.LVL77:
 794              		.loc 1 853 27 discriminator 1 view .LVU237
 795 002c 034A     		ldr	r2, .L66
 796              	.LVL78:
 797              		.loc 1 853 27 discriminator 1 view .LVU238
 798 002e D050     		str	r0, [r2, r3]
 799 0030 7047     		bx	lr
 800              	.LVL79:
 801              	.L63:
 854:Middlewares/Third_Party/FatFs/src/ff.c **** 		res = FR_OK;
 855:Middlewares/Third_Party/FatFs/src/ff.c **** 	} else {
 856:Middlewares/Third_Party/FatFs/src/ff.c **** 		res = FR_INT_ERR;			/* Invalid index nunber */
 802              		.loc 1 856 7 view .LVU239
 803 0032 0220     		movs	r0, #2
 804              	.LVL80:
 805              		.loc 1 856 7 view .LVU240
 806 0034 7047     		bx	lr
 807              	.LVL81:
 808              	.L65:
 854:Middlewares/Third_Party/FatFs/src/ff.c **** 		res = FR_OK;
 809              		.loc 1 854 7 view .LVU241
 810 0036 0020     		movs	r0, #0
 811              	.LVL82:
 857:Middlewares/Third_Party/FatFs/src/ff.c **** 	}
 858:Middlewares/Third_Party/FatFs/src/ff.c **** 	return res;
 812              		.loc 1 858 2 is_stmt 1 view .LVU242
 859:Middlewares/Third_Party/FatFs/src/ff.c **** }
 813              		.loc 1 859 1 is_stmt 0 view .LVU243
 814 0038 7047     		bx	lr
 815              	.L67:
 816 003a 00BF     		.align	2
 817              	.L66:
 818 003c 00000000 		.word	.LANCHOR0
 819              		.cfi_endproc
 820              	.LFE351:
ARM GAS  C:\Users\zdy\AppData\Local\Temp\ccxXfRHS.s 			page 31


 822              		.section	.text.clear_lock,"ax",%progbits
 823              		.align	1
 824              		.syntax unified
 825              		.thumb
 826              		.thumb_func
 828              	clear_lock:
 829              	.LVL83:
 830              	.LFB352:
 860:Middlewares/Third_Party/FatFs/src/ff.c **** 
 861:Middlewares/Third_Party/FatFs/src/ff.c **** 
 862:Middlewares/Third_Party/FatFs/src/ff.c **** static
 863:Middlewares/Third_Party/FatFs/src/ff.c **** void clear_lock (	/* Clear lock entries of the volume */
 864:Middlewares/Third_Party/FatFs/src/ff.c **** 	FATFS *fs
 865:Middlewares/Third_Party/FatFs/src/ff.c **** )
 866:Middlewares/Third_Party/FatFs/src/ff.c **** {
 831              		.loc 1 866 1 is_stmt 1 view -0
 832              		.cfi_startproc
 833              		@ args = 0, pretend = 0, frame = 0
 834              		@ frame_needed = 0, uses_anonymous_args = 0
 835              		@ link register save eliminated.
 867:Middlewares/Third_Party/FatFs/src/ff.c **** 	UINT i;
 836              		.loc 1 867 2 view .LVU245
 868:Middlewares/Third_Party/FatFs/src/ff.c **** 
 869:Middlewares/Third_Party/FatFs/src/ff.c **** 	for (i = 0; i < _FS_LOCK; i++) {
 837              		.loc 1 869 2 view .LVU246
 838              		.loc 1 869 9 is_stmt 0 view .LVU247
 839 0000 0023     		movs	r3, #0
 840              		.loc 1 869 2 view .LVU248
 841 0002 03E0     		b	.L73
 842              	.LVL84:
 843              	.L80:
 844              	.LCFI6:
 845              		.cfi_def_cfa_offset 4
 846              		.cfi_offset 4, -4
 870:Middlewares/Third_Party/FatFs/src/ff.c **** 		if (Files[i].fs == fs) Files[i].fs = 0;
 871:Middlewares/Third_Party/FatFs/src/ff.c **** 	}
 872:Middlewares/Third_Party/FatFs/src/ff.c **** }
 847              		.loc 1 872 1 view .LVU249
 848 0004 5DF8044B 		ldr	r4, [sp], #4
 849              	.LCFI7:
 850              		.cfi_restore 4
 851              		.cfi_def_cfa_offset 0
 852 0008 7047     		bx	lr
 853              	.L79:
 869:Middlewares/Third_Party/FatFs/src/ff.c **** 		if (Files[i].fs == fs) Files[i].fs = 0;
 854              		.loc 1 869 28 is_stmt 1 view .LVU250
 869:Middlewares/Third_Party/FatFs/src/ff.c **** 		if (Files[i].fs == fs) Files[i].fs = 0;
 855              		.loc 1 869 29 is_stmt 0 view .LVU251
 856 000a 0133     		adds	r3, r3, #1
 857              	.LVL85:
 858              	.L73:
 869:Middlewares/Third_Party/FatFs/src/ff.c **** 		if (Files[i].fs == fs) Files[i].fs = 0;
 859              		.loc 1 869 14 is_stmt 1 view .LVU252
 869:Middlewares/Third_Party/FatFs/src/ff.c **** 		if (Files[i].fs == fs) Files[i].fs = 0;
 860              		.loc 1 869 2 is_stmt 0 view .LVU253
 861 000c 012B     		cmp	r3, #1
 862 000e 11D8     		bhi	.L78
ARM GAS  C:\Users\zdy\AppData\Local\Temp\ccxXfRHS.s 			page 32


 870:Middlewares/Third_Party/FatFs/src/ff.c **** 		if (Files[i].fs == fs) Files[i].fs = 0;
 863              		.loc 1 870 3 is_stmt 1 view .LVU254
 870:Middlewares/Third_Party/FatFs/src/ff.c **** 		if (Files[i].fs == fs) Files[i].fs = 0;
 864              		.loc 1 870 15 is_stmt 0 view .LVU255
 865 0010 1A01     		lsls	r2, r3, #4
 866 0012 0949     		ldr	r1, .L81
 867 0014 8A58     		ldr	r2, [r1, r2]
 870:Middlewares/Third_Party/FatFs/src/ff.c **** 		if (Files[i].fs == fs) Files[i].fs = 0;
 868              		.loc 1 870 6 view .LVU256
 869 0016 8242     		cmp	r2, r0
 870 0018 F7D1     		bne	.L79
 866:Middlewares/Third_Party/FatFs/src/ff.c **** 	UINT i;
 871              		.loc 1 866 1 view .LVU257
 872 001a 10B4     		push	{r4}
 873              	.LCFI8:
 874              		.cfi_def_cfa_offset 4
 875              		.cfi_offset 4, -4
 876              	.L74:
 870:Middlewares/Third_Party/FatFs/src/ff.c **** 		if (Files[i].fs == fs) Files[i].fs = 0;
 877              		.loc 1 870 26 is_stmt 1 discriminator 1 view .LVU258
 870:Middlewares/Third_Party/FatFs/src/ff.c **** 		if (Files[i].fs == fs) Files[i].fs = 0;
 878              		.loc 1 870 38 is_stmt 0 discriminator 1 view .LVU259
 879 001c 1A01     		lsls	r2, r3, #4
 880 001e 0024     		movs	r4, #0
 881 0020 8C50     		str	r4, [r1, r2]
 882              	.L70:
 869:Middlewares/Third_Party/FatFs/src/ff.c **** 		if (Files[i].fs == fs) Files[i].fs = 0;
 883              		.loc 1 869 28 is_stmt 1 discriminator 2 view .LVU260
 869:Middlewares/Third_Party/FatFs/src/ff.c **** 		if (Files[i].fs == fs) Files[i].fs = 0;
 884              		.loc 1 869 29 is_stmt 0 discriminator 2 view .LVU261
 885 0022 0133     		adds	r3, r3, #1
 886              	.LVL86:
 869:Middlewares/Third_Party/FatFs/src/ff.c **** 		if (Files[i].fs == fs) Files[i].fs = 0;
 887              		.loc 1 869 14 is_stmt 1 discriminator 2 view .LVU262
 869:Middlewares/Third_Party/FatFs/src/ff.c **** 		if (Files[i].fs == fs) Files[i].fs = 0;
 888              		.loc 1 869 2 is_stmt 0 discriminator 2 view .LVU263
 889 0024 012B     		cmp	r3, #1
 890 0026 EDD8     		bhi	.L80
 870:Middlewares/Third_Party/FatFs/src/ff.c **** 		if (Files[i].fs == fs) Files[i].fs = 0;
 891              		.loc 1 870 3 is_stmt 1 view .LVU264
 870:Middlewares/Third_Party/FatFs/src/ff.c **** 		if (Files[i].fs == fs) Files[i].fs = 0;
 892              		.loc 1 870 15 is_stmt 0 view .LVU265
 893 0028 1A01     		lsls	r2, r3, #4
 894 002a 0349     		ldr	r1, .L81
 895 002c 8A58     		ldr	r2, [r1, r2]
 870:Middlewares/Third_Party/FatFs/src/ff.c **** 		if (Files[i].fs == fs) Files[i].fs = 0;
 896              		.loc 1 870 6 view .LVU266
 897 002e 8242     		cmp	r2, r0
 898 0030 F7D1     		bne	.L70
 899 0032 F3E7     		b	.L74
 900              	.L78:
 901              	.LCFI9:
 902              		.cfi_def_cfa_offset 0
 903              		.cfi_restore 4
 870:Middlewares/Third_Party/FatFs/src/ff.c **** 		if (Files[i].fs == fs) Files[i].fs = 0;
 904              		.loc 1 870 6 view .LVU267
 905 0034 7047     		bx	lr
ARM GAS  C:\Users\zdy\AppData\Local\Temp\ccxXfRHS.s 			page 33


 906              	.L82:
 907 0036 00BF     		.align	2
 908              	.L81:
 909 0038 00000000 		.word	.LANCHOR0
 910              		.cfi_endproc
 911              	.LFE352:
 913              		.section	.text.clust2sect,"ax",%progbits
 914              		.align	1
 915              		.syntax unified
 916              		.thumb
 917              		.thumb_func
 919              	clust2sect:
 920              	.LVL87:
 921              	.LFB356:
 873:Middlewares/Third_Party/FatFs/src/ff.c **** 
 874:Middlewares/Third_Party/FatFs/src/ff.c **** #endif	/* _FS_LOCK != 0 */
 875:Middlewares/Third_Party/FatFs/src/ff.c **** 
 876:Middlewares/Third_Party/FatFs/src/ff.c **** 
 877:Middlewares/Third_Party/FatFs/src/ff.c **** 
 878:Middlewares/Third_Party/FatFs/src/ff.c **** /*-----------------------------------------------------------------------*/
 879:Middlewares/Third_Party/FatFs/src/ff.c **** /* Move/Flush disk access window in the file system object               */
 880:Middlewares/Third_Party/FatFs/src/ff.c **** /*-----------------------------------------------------------------------*/
 881:Middlewares/Third_Party/FatFs/src/ff.c **** #if !_FS_READONLY
 882:Middlewares/Third_Party/FatFs/src/ff.c **** static
 883:Middlewares/Third_Party/FatFs/src/ff.c **** FRESULT sync_window (	/* Returns FR_OK or FR_DISK_ERROR */
 884:Middlewares/Third_Party/FatFs/src/ff.c **** 	FATFS* fs			/* File system object */
 885:Middlewares/Third_Party/FatFs/src/ff.c **** )
 886:Middlewares/Third_Party/FatFs/src/ff.c **** {
 887:Middlewares/Third_Party/FatFs/src/ff.c **** 	DWORD wsect;
 888:Middlewares/Third_Party/FatFs/src/ff.c **** 	UINT nf;
 889:Middlewares/Third_Party/FatFs/src/ff.c **** 	FRESULT res = FR_OK;
 890:Middlewares/Third_Party/FatFs/src/ff.c **** 
 891:Middlewares/Third_Party/FatFs/src/ff.c **** 
 892:Middlewares/Third_Party/FatFs/src/ff.c **** 	if (fs->wflag) {	/* Write back the sector if it is dirty */
 893:Middlewares/Third_Party/FatFs/src/ff.c **** 		wsect = fs->winsect;	/* Current sector number */
 894:Middlewares/Third_Party/FatFs/src/ff.c **** 		if (disk_write(fs->drv, fs->win, wsect, 1) != RES_OK) {
 895:Middlewares/Third_Party/FatFs/src/ff.c **** 			res = FR_DISK_ERR;
 896:Middlewares/Third_Party/FatFs/src/ff.c **** 		} else {
 897:Middlewares/Third_Party/FatFs/src/ff.c **** 			fs->wflag = 0;
 898:Middlewares/Third_Party/FatFs/src/ff.c **** 			if (wsect - fs->fatbase < fs->fsize) {		/* Is it in the FAT area? */
 899:Middlewares/Third_Party/FatFs/src/ff.c **** 				for (nf = fs->n_fats; nf >= 2; nf--) {	/* Reflect the change to all FAT copies */
 900:Middlewares/Third_Party/FatFs/src/ff.c **** 					wsect += fs->fsize;
 901:Middlewares/Third_Party/FatFs/src/ff.c **** 					disk_write(fs->drv, fs->win, wsect, 1);
 902:Middlewares/Third_Party/FatFs/src/ff.c **** 				}
 903:Middlewares/Third_Party/FatFs/src/ff.c **** 			}
 904:Middlewares/Third_Party/FatFs/src/ff.c **** 		}
 905:Middlewares/Third_Party/FatFs/src/ff.c **** 	}
 906:Middlewares/Third_Party/FatFs/src/ff.c **** 	return res;
 907:Middlewares/Third_Party/FatFs/src/ff.c **** }
 908:Middlewares/Third_Party/FatFs/src/ff.c **** #endif
 909:Middlewares/Third_Party/FatFs/src/ff.c **** 
 910:Middlewares/Third_Party/FatFs/src/ff.c **** 
 911:Middlewares/Third_Party/FatFs/src/ff.c **** static
 912:Middlewares/Third_Party/FatFs/src/ff.c **** FRESULT move_window (	/* Returns FR_OK or FR_DISK_ERROR */
 913:Middlewares/Third_Party/FatFs/src/ff.c **** 	FATFS* fs,			/* File system object */
 914:Middlewares/Third_Party/FatFs/src/ff.c **** 	DWORD sector		/* Sector number to make appearance in the fs->win[] */
 915:Middlewares/Third_Party/FatFs/src/ff.c **** )
ARM GAS  C:\Users\zdy\AppData\Local\Temp\ccxXfRHS.s 			page 34


 916:Middlewares/Third_Party/FatFs/src/ff.c **** {
 917:Middlewares/Third_Party/FatFs/src/ff.c **** 	FRESULT res = FR_OK;
 918:Middlewares/Third_Party/FatFs/src/ff.c **** 
 919:Middlewares/Third_Party/FatFs/src/ff.c **** 
 920:Middlewares/Third_Party/FatFs/src/ff.c **** 	if (sector != fs->winsect) {	/* Window offset changed? */
 921:Middlewares/Third_Party/FatFs/src/ff.c **** #if !_FS_READONLY
 922:Middlewares/Third_Party/FatFs/src/ff.c **** 		res = sync_window(fs);		/* Write-back changes */
 923:Middlewares/Third_Party/FatFs/src/ff.c **** #endif
 924:Middlewares/Third_Party/FatFs/src/ff.c **** 		if (res == FR_OK) {			/* Fill sector window with new data */
 925:Middlewares/Third_Party/FatFs/src/ff.c **** 			if (disk_read(fs->drv, fs->win, sector, 1) != RES_OK) {
 926:Middlewares/Third_Party/FatFs/src/ff.c **** 				sector = 0xFFFFFFFF;	/* Invalidate window if data is not reliable */
 927:Middlewares/Third_Party/FatFs/src/ff.c **** 				res = FR_DISK_ERR;
 928:Middlewares/Third_Party/FatFs/src/ff.c **** 			}
 929:Middlewares/Third_Party/FatFs/src/ff.c **** 			fs->winsect = sector;
 930:Middlewares/Third_Party/FatFs/src/ff.c **** 		}
 931:Middlewares/Third_Party/FatFs/src/ff.c **** 	}
 932:Middlewares/Third_Party/FatFs/src/ff.c **** 	return res;
 933:Middlewares/Third_Party/FatFs/src/ff.c **** }
 934:Middlewares/Third_Party/FatFs/src/ff.c **** 
 935:Middlewares/Third_Party/FatFs/src/ff.c **** 
 936:Middlewares/Third_Party/FatFs/src/ff.c **** 
 937:Middlewares/Third_Party/FatFs/src/ff.c **** 
 938:Middlewares/Third_Party/FatFs/src/ff.c **** #if !_FS_READONLY
 939:Middlewares/Third_Party/FatFs/src/ff.c **** /*-----------------------------------------------------------------------*/
 940:Middlewares/Third_Party/FatFs/src/ff.c **** /* Synchronize file system and strage device                             */
 941:Middlewares/Third_Party/FatFs/src/ff.c **** /*-----------------------------------------------------------------------*/
 942:Middlewares/Third_Party/FatFs/src/ff.c **** 
 943:Middlewares/Third_Party/FatFs/src/ff.c **** static
 944:Middlewares/Third_Party/FatFs/src/ff.c **** FRESULT sync_fs (	/* FR_OK:succeeded, !=0:error */
 945:Middlewares/Third_Party/FatFs/src/ff.c **** 	FATFS* fs		/* File system object */
 946:Middlewares/Third_Party/FatFs/src/ff.c **** )
 947:Middlewares/Third_Party/FatFs/src/ff.c **** {
 948:Middlewares/Third_Party/FatFs/src/ff.c **** 	FRESULT res;
 949:Middlewares/Third_Party/FatFs/src/ff.c **** 
 950:Middlewares/Third_Party/FatFs/src/ff.c **** 
 951:Middlewares/Third_Party/FatFs/src/ff.c **** 	res = sync_window(fs);
 952:Middlewares/Third_Party/FatFs/src/ff.c **** 	if (res == FR_OK) {
 953:Middlewares/Third_Party/FatFs/src/ff.c **** 		/* Update FSInfo sector if needed */
 954:Middlewares/Third_Party/FatFs/src/ff.c **** 		if (fs->fs_type == FS_FAT32 && fs->fsi_flag == 1) {
 955:Middlewares/Third_Party/FatFs/src/ff.c **** 			/* Create FSInfo structure */
 956:Middlewares/Third_Party/FatFs/src/ff.c **** 			mem_set(fs->win, 0, SS(fs));
 957:Middlewares/Third_Party/FatFs/src/ff.c **** 			st_word(fs->win + BS_55AA, 0xAA55);
 958:Middlewares/Third_Party/FatFs/src/ff.c **** 			st_dword(fs->win + FSI_LeadSig, 0x41615252);
 959:Middlewares/Third_Party/FatFs/src/ff.c **** 			st_dword(fs->win + FSI_StrucSig, 0x61417272);
 960:Middlewares/Third_Party/FatFs/src/ff.c **** 			st_dword(fs->win + FSI_Free_Count, fs->free_clst);
 961:Middlewares/Third_Party/FatFs/src/ff.c **** 			st_dword(fs->win + FSI_Nxt_Free, fs->last_clst);
 962:Middlewares/Third_Party/FatFs/src/ff.c **** 			/* Write it into the FSInfo sector */
 963:Middlewares/Third_Party/FatFs/src/ff.c **** 			fs->winsect = fs->volbase + 1;
 964:Middlewares/Third_Party/FatFs/src/ff.c **** 			disk_write(fs->drv, fs->win, fs->winsect, 1);
 965:Middlewares/Third_Party/FatFs/src/ff.c **** 			fs->fsi_flag = 0;
 966:Middlewares/Third_Party/FatFs/src/ff.c **** 		}
 967:Middlewares/Third_Party/FatFs/src/ff.c **** 		/* Make sure that no pending write process in the physical drive */
 968:Middlewares/Third_Party/FatFs/src/ff.c **** 		if (disk_ioctl(fs->drv, CTRL_SYNC, 0) != RES_OK) res = FR_DISK_ERR;
 969:Middlewares/Third_Party/FatFs/src/ff.c **** 	}
 970:Middlewares/Third_Party/FatFs/src/ff.c **** 
 971:Middlewares/Third_Party/FatFs/src/ff.c **** 	return res;
 972:Middlewares/Third_Party/FatFs/src/ff.c **** }
ARM GAS  C:\Users\zdy\AppData\Local\Temp\ccxXfRHS.s 			page 35


 973:Middlewares/Third_Party/FatFs/src/ff.c **** 
 974:Middlewares/Third_Party/FatFs/src/ff.c **** #endif
 975:Middlewares/Third_Party/FatFs/src/ff.c **** 
 976:Middlewares/Third_Party/FatFs/src/ff.c **** 
 977:Middlewares/Third_Party/FatFs/src/ff.c **** 
 978:Middlewares/Third_Party/FatFs/src/ff.c **** /*-----------------------------------------------------------------------*/
 979:Middlewares/Third_Party/FatFs/src/ff.c **** /* Get sector# from cluster#                                             */
 980:Middlewares/Third_Party/FatFs/src/ff.c **** /*-----------------------------------------------------------------------*/
 981:Middlewares/Third_Party/FatFs/src/ff.c **** 
 982:Middlewares/Third_Party/FatFs/src/ff.c **** static
 983:Middlewares/Third_Party/FatFs/src/ff.c **** DWORD clust2sect (	/* !=0:Sector number, 0:Failed (invalid cluster#) */
 984:Middlewares/Third_Party/FatFs/src/ff.c **** 	FATFS* fs,		/* File system object */
 985:Middlewares/Third_Party/FatFs/src/ff.c **** 	DWORD clst		/* Cluster# to be converted */
 986:Middlewares/Third_Party/FatFs/src/ff.c **** )
 987:Middlewares/Third_Party/FatFs/src/ff.c **** {
 922              		.loc 1 987 1 is_stmt 1 view -0
 923              		.cfi_startproc
 924              		@ args = 0, pretend = 0, frame = 0
 925              		@ frame_needed = 0, uses_anonymous_args = 0
 926              		@ link register save eliminated.
 988:Middlewares/Third_Party/FatFs/src/ff.c **** 	clst -= 2;
 927              		.loc 1 988 2 view .LVU269
 928              		.loc 1 988 7 is_stmt 0 view .LVU270
 929 0000 0239     		subs	r1, r1, #2
 930              	.LVL88:
 989:Middlewares/Third_Party/FatFs/src/ff.c **** 	if (clst >= fs->n_fatent - 2) return 0;		/* Invalid cluster# */
 931              		.loc 1 989 2 is_stmt 1 view .LVU271
 932              		.loc 1 989 16 is_stmt 0 view .LVU272
 933 0002 8369     		ldr	r3, [r0, #24]
 934              		.loc 1 989 27 view .LVU273
 935 0004 023B     		subs	r3, r3, #2
 936              		.loc 1 989 5 view .LVU274
 937 0006 8B42     		cmp	r3, r1
 938 0008 04D9     		bls	.L85
 990:Middlewares/Third_Party/FatFs/src/ff.c **** 	return clst * fs->csize + fs->database;
 939              		.loc 1 990 2 is_stmt 1 view .LVU275
 940              		.loc 1 990 18 is_stmt 0 view .LVU276
 941 000a 4389     		ldrh	r3, [r0, #10]
 942              		.loc 1 990 30 view .LVU277
 943 000c C06A     		ldr	r0, [r0, #44]
 944              	.LVL89:
 945              		.loc 1 990 26 view .LVU278
 946 000e 01FB0300 		mla	r0, r1, r3, r0
 947 0012 7047     		bx	lr
 948              	.LVL90:
 949              	.L85:
 989:Middlewares/Third_Party/FatFs/src/ff.c **** 	if (clst >= fs->n_fatent - 2) return 0;		/* Invalid cluster# */
 950              		.loc 1 989 39 view .LVU279
 951 0014 0020     		movs	r0, #0
 952              	.LVL91:
 991:Middlewares/Third_Party/FatFs/src/ff.c **** }
 953              		.loc 1 991 1 view .LVU280
 954 0016 7047     		bx	lr
 955              		.cfi_endproc
 956              	.LFE356:
 958              		.section	.text.clmt_clust,"ax",%progbits
 959              		.align	1
ARM GAS  C:\Users\zdy\AppData\Local\Temp\ccxXfRHS.s 			page 36


 960              		.syntax unified
 961              		.thumb
 962              		.thumb_func
 964              	clmt_clust:
 965              	.LVL92:
 966              	.LFB361:
 992:Middlewares/Third_Party/FatFs/src/ff.c **** 
 993:Middlewares/Third_Party/FatFs/src/ff.c **** 
 994:Middlewares/Third_Party/FatFs/src/ff.c **** 
 995:Middlewares/Third_Party/FatFs/src/ff.c **** 
 996:Middlewares/Third_Party/FatFs/src/ff.c **** /*-----------------------------------------------------------------------*/
 997:Middlewares/Third_Party/FatFs/src/ff.c **** /* FAT access - Read value of a FAT entry                                */
 998:Middlewares/Third_Party/FatFs/src/ff.c **** /*-----------------------------------------------------------------------*/
 999:Middlewares/Third_Party/FatFs/src/ff.c **** 
1000:Middlewares/Third_Party/FatFs/src/ff.c **** static
1001:Middlewares/Third_Party/FatFs/src/ff.c **** DWORD get_fat (	/* 0xFFFFFFFF:Disk error, 1:Internal error, 2..0x7FFFFFFF:Cluster status */
1002:Middlewares/Third_Party/FatFs/src/ff.c **** 	_FDID* obj,	/* Corresponding object */
1003:Middlewares/Third_Party/FatFs/src/ff.c **** 	DWORD clst	/* Cluster number to get the value */
1004:Middlewares/Third_Party/FatFs/src/ff.c **** )
1005:Middlewares/Third_Party/FatFs/src/ff.c **** {
1006:Middlewares/Third_Party/FatFs/src/ff.c **** 	UINT wc, bc;
1007:Middlewares/Third_Party/FatFs/src/ff.c **** 	DWORD val;
1008:Middlewares/Third_Party/FatFs/src/ff.c **** 	FATFS *fs = obj->fs;
1009:Middlewares/Third_Party/FatFs/src/ff.c **** 
1010:Middlewares/Third_Party/FatFs/src/ff.c **** 
1011:Middlewares/Third_Party/FatFs/src/ff.c **** 	if (clst < 2 || clst >= fs->n_fatent) {	/* Check if in valid range */
1012:Middlewares/Third_Party/FatFs/src/ff.c **** 		val = 1;	/* Internal error */
1013:Middlewares/Third_Party/FatFs/src/ff.c **** 
1014:Middlewares/Third_Party/FatFs/src/ff.c **** 	} else {
1015:Middlewares/Third_Party/FatFs/src/ff.c **** 		val = 0xFFFFFFFF;	/* Default value falls on disk error */
1016:Middlewares/Third_Party/FatFs/src/ff.c **** 
1017:Middlewares/Third_Party/FatFs/src/ff.c **** 		switch (fs->fs_type) {
1018:Middlewares/Third_Party/FatFs/src/ff.c **** 		case FS_FAT12 :
1019:Middlewares/Third_Party/FatFs/src/ff.c **** 			bc = (UINT)clst; bc += bc / 2;
1020:Middlewares/Third_Party/FatFs/src/ff.c **** 			if (move_window(fs, fs->fatbase + (bc / SS(fs))) != FR_OK) break;
1021:Middlewares/Third_Party/FatFs/src/ff.c **** 			wc = fs->win[bc++ % SS(fs)];
1022:Middlewares/Third_Party/FatFs/src/ff.c **** 			if (move_window(fs, fs->fatbase + (bc / SS(fs))) != FR_OK) break;
1023:Middlewares/Third_Party/FatFs/src/ff.c **** 			wc |= fs->win[bc % SS(fs)] << 8;
1024:Middlewares/Third_Party/FatFs/src/ff.c **** 			val = (clst & 1) ? (wc >> 4) : (wc & 0xFFF);
1025:Middlewares/Third_Party/FatFs/src/ff.c **** 			break;
1026:Middlewares/Third_Party/FatFs/src/ff.c **** 
1027:Middlewares/Third_Party/FatFs/src/ff.c **** 		case FS_FAT16 :
1028:Middlewares/Third_Party/FatFs/src/ff.c **** 			if (move_window(fs, fs->fatbase + (clst / (SS(fs) / 2))) != FR_OK) break;
1029:Middlewares/Third_Party/FatFs/src/ff.c **** 			val = ld_word(fs->win + clst * 2 % SS(fs));
1030:Middlewares/Third_Party/FatFs/src/ff.c **** 			break;
1031:Middlewares/Third_Party/FatFs/src/ff.c **** 
1032:Middlewares/Third_Party/FatFs/src/ff.c **** 		case FS_FAT32 :
1033:Middlewares/Third_Party/FatFs/src/ff.c **** 			if (move_window(fs, fs->fatbase + (clst / (SS(fs) / 4))) != FR_OK) break;
1034:Middlewares/Third_Party/FatFs/src/ff.c **** 			val = ld_dword(fs->win + clst * 4 % SS(fs)) & 0x0FFFFFFF;
1035:Middlewares/Third_Party/FatFs/src/ff.c **** 			break;
1036:Middlewares/Third_Party/FatFs/src/ff.c **** #if _FS_EXFAT
1037:Middlewares/Third_Party/FatFs/src/ff.c **** 		case FS_EXFAT :
1038:Middlewares/Third_Party/FatFs/src/ff.c **** 			if (obj->objsize) {
1039:Middlewares/Third_Party/FatFs/src/ff.c **** 				DWORD cofs = clst - obj->sclust;	/* Offset from start cluster */
1040:Middlewares/Third_Party/FatFs/src/ff.c **** 				DWORD clen = (DWORD)((obj->objsize - 1) / SS(fs)) / fs->csize;	/* Number of clusters - 1 */
1041:Middlewares/Third_Party/FatFs/src/ff.c **** 
1042:Middlewares/Third_Party/FatFs/src/ff.c **** 				if (obj->stat == 2) {	/* Is there no valid chain on the FAT? */
ARM GAS  C:\Users\zdy\AppData\Local\Temp\ccxXfRHS.s 			page 37


1043:Middlewares/Third_Party/FatFs/src/ff.c **** 					if (cofs <= clen) {
1044:Middlewares/Third_Party/FatFs/src/ff.c **** 						val = (cofs == clen) ? 0x7FFFFFFF : clst + 1;	/* Generate the value */
1045:Middlewares/Third_Party/FatFs/src/ff.c **** 						break;
1046:Middlewares/Third_Party/FatFs/src/ff.c **** 					}
1047:Middlewares/Third_Party/FatFs/src/ff.c **** 				}
1048:Middlewares/Third_Party/FatFs/src/ff.c **** 				if (obj->stat == 3 && cofs < obj->n_cont) {	/* Is it in the 1st fragment? */
1049:Middlewares/Third_Party/FatFs/src/ff.c **** 					val = clst + 1; 	/* Generate the value */
1050:Middlewares/Third_Party/FatFs/src/ff.c **** 					break;
1051:Middlewares/Third_Party/FatFs/src/ff.c **** 				}
1052:Middlewares/Third_Party/FatFs/src/ff.c **** 				if (obj->stat != 2) {	/* Get value from FAT if FAT chain is valid */
1053:Middlewares/Third_Party/FatFs/src/ff.c **** 					if (obj->n_frag != 0) {	/* Is it on the growing edge? */
1054:Middlewares/Third_Party/FatFs/src/ff.c **** 						val = 0x7FFFFFFF;	/* Generate EOC */
1055:Middlewares/Third_Party/FatFs/src/ff.c **** 					} else {
1056:Middlewares/Third_Party/FatFs/src/ff.c **** 						if (move_window(fs, fs->fatbase + (clst / (SS(fs) / 4))) != FR_OK) break;
1057:Middlewares/Third_Party/FatFs/src/ff.c **** 						val = ld_dword(fs->win + clst * 4 % SS(fs)) & 0x7FFFFFFF;
1058:Middlewares/Third_Party/FatFs/src/ff.c **** 					}
1059:Middlewares/Third_Party/FatFs/src/ff.c **** 					break;
1060:Middlewares/Third_Party/FatFs/src/ff.c **** 				}
1061:Middlewares/Third_Party/FatFs/src/ff.c **** 			}
1062:Middlewares/Third_Party/FatFs/src/ff.c **** 			/* go to default */
1063:Middlewares/Third_Party/FatFs/src/ff.c **** #endif
1064:Middlewares/Third_Party/FatFs/src/ff.c **** 		default:
1065:Middlewares/Third_Party/FatFs/src/ff.c **** 			val = 1;	/* Internal error */
1066:Middlewares/Third_Party/FatFs/src/ff.c **** 		}
1067:Middlewares/Third_Party/FatFs/src/ff.c **** 	}
1068:Middlewares/Third_Party/FatFs/src/ff.c **** 
1069:Middlewares/Third_Party/FatFs/src/ff.c **** 	return val;
1070:Middlewares/Third_Party/FatFs/src/ff.c **** }
1071:Middlewares/Third_Party/FatFs/src/ff.c **** 
1072:Middlewares/Third_Party/FatFs/src/ff.c **** 
1073:Middlewares/Third_Party/FatFs/src/ff.c **** 
1074:Middlewares/Third_Party/FatFs/src/ff.c **** 
1075:Middlewares/Third_Party/FatFs/src/ff.c **** #if !_FS_READONLY
1076:Middlewares/Third_Party/FatFs/src/ff.c **** /*-----------------------------------------------------------------------*/
1077:Middlewares/Third_Party/FatFs/src/ff.c **** /* FAT access - Change value of a FAT entry                              */
1078:Middlewares/Third_Party/FatFs/src/ff.c **** /*-----------------------------------------------------------------------*/
1079:Middlewares/Third_Party/FatFs/src/ff.c **** 
1080:Middlewares/Third_Party/FatFs/src/ff.c **** static
1081:Middlewares/Third_Party/FatFs/src/ff.c **** FRESULT put_fat (	/* FR_OK(0):succeeded, !=0:error */
1082:Middlewares/Third_Party/FatFs/src/ff.c **** 	FATFS* fs,		/* Corresponding file system object */
1083:Middlewares/Third_Party/FatFs/src/ff.c **** 	DWORD clst,		/* FAT index number (cluster number) to be changed */
1084:Middlewares/Third_Party/FatFs/src/ff.c **** 	DWORD val		/* New value to be set to the entry */
1085:Middlewares/Third_Party/FatFs/src/ff.c **** )
1086:Middlewares/Third_Party/FatFs/src/ff.c **** {
1087:Middlewares/Third_Party/FatFs/src/ff.c **** 	UINT bc;
1088:Middlewares/Third_Party/FatFs/src/ff.c **** 	BYTE *p;
1089:Middlewares/Third_Party/FatFs/src/ff.c **** 	FRESULT res = FR_INT_ERR;
1090:Middlewares/Third_Party/FatFs/src/ff.c **** 
1091:Middlewares/Third_Party/FatFs/src/ff.c **** 	if (clst >= 2 && clst < fs->n_fatent) {	/* Check if in valid range */
1092:Middlewares/Third_Party/FatFs/src/ff.c **** 		switch (fs->fs_type) {
1093:Middlewares/Third_Party/FatFs/src/ff.c **** 		case FS_FAT12 :	/* Bitfield items */
1094:Middlewares/Third_Party/FatFs/src/ff.c **** 			bc = (UINT)clst; bc += bc / 2;
1095:Middlewares/Third_Party/FatFs/src/ff.c **** 			res = move_window(fs, fs->fatbase + (bc / SS(fs)));
1096:Middlewares/Third_Party/FatFs/src/ff.c **** 			if (res != FR_OK) break;
1097:Middlewares/Third_Party/FatFs/src/ff.c **** 			p = fs->win + bc++ % SS(fs);
1098:Middlewares/Third_Party/FatFs/src/ff.c **** 			*p = (clst & 1) ? ((*p & 0x0F) | ((BYTE)val << 4)) : (BYTE)val;
1099:Middlewares/Third_Party/FatFs/src/ff.c **** 			fs->wflag = 1;
ARM GAS  C:\Users\zdy\AppData\Local\Temp\ccxXfRHS.s 			page 38


1100:Middlewares/Third_Party/FatFs/src/ff.c **** 			res = move_window(fs, fs->fatbase + (bc / SS(fs)));
1101:Middlewares/Third_Party/FatFs/src/ff.c **** 			if (res != FR_OK) break;
1102:Middlewares/Third_Party/FatFs/src/ff.c **** 			p = fs->win + bc % SS(fs);
1103:Middlewares/Third_Party/FatFs/src/ff.c **** 			*p = (clst & 1) ? (BYTE)(val >> 4) : ((*p & 0xF0) | ((BYTE)(val >> 8) & 0x0F));
1104:Middlewares/Third_Party/FatFs/src/ff.c **** 			fs->wflag = 1;
1105:Middlewares/Third_Party/FatFs/src/ff.c **** 			break;
1106:Middlewares/Third_Party/FatFs/src/ff.c **** 
1107:Middlewares/Third_Party/FatFs/src/ff.c **** 		case FS_FAT16 :	/* WORD aligned items */
1108:Middlewares/Third_Party/FatFs/src/ff.c **** 			res = move_window(fs, fs->fatbase + (clst / (SS(fs) / 2)));
1109:Middlewares/Third_Party/FatFs/src/ff.c **** 			if (res != FR_OK) break;
1110:Middlewares/Third_Party/FatFs/src/ff.c **** 			st_word(fs->win + clst * 2 % SS(fs), (WORD)val);
1111:Middlewares/Third_Party/FatFs/src/ff.c **** 			fs->wflag = 1;
1112:Middlewares/Third_Party/FatFs/src/ff.c **** 			break;
1113:Middlewares/Third_Party/FatFs/src/ff.c **** 
1114:Middlewares/Third_Party/FatFs/src/ff.c **** 		case FS_FAT32 :	/* DWORD aligned items */
1115:Middlewares/Third_Party/FatFs/src/ff.c **** #if _FS_EXFAT
1116:Middlewares/Third_Party/FatFs/src/ff.c **** 		case FS_EXFAT :
1117:Middlewares/Third_Party/FatFs/src/ff.c **** #endif
1118:Middlewares/Third_Party/FatFs/src/ff.c **** 			res = move_window(fs, fs->fatbase + (clst / (SS(fs) / 4)));
1119:Middlewares/Third_Party/FatFs/src/ff.c **** 			if (res != FR_OK) break;
1120:Middlewares/Third_Party/FatFs/src/ff.c **** 			if (!_FS_EXFAT || fs->fs_type != FS_EXFAT) {
1121:Middlewares/Third_Party/FatFs/src/ff.c **** 				val = (val & 0x0FFFFFFF) | (ld_dword(fs->win + clst * 4 % SS(fs)) & 0xF0000000);
1122:Middlewares/Third_Party/FatFs/src/ff.c **** 			}
1123:Middlewares/Third_Party/FatFs/src/ff.c **** 			st_dword(fs->win + clst * 4 % SS(fs), val);
1124:Middlewares/Third_Party/FatFs/src/ff.c **** 			fs->wflag = 1;
1125:Middlewares/Third_Party/FatFs/src/ff.c **** 			break;
1126:Middlewares/Third_Party/FatFs/src/ff.c **** 		}
1127:Middlewares/Third_Party/FatFs/src/ff.c **** 	}
1128:Middlewares/Third_Party/FatFs/src/ff.c **** 	return res;
1129:Middlewares/Third_Party/FatFs/src/ff.c **** }
1130:Middlewares/Third_Party/FatFs/src/ff.c **** 
1131:Middlewares/Third_Party/FatFs/src/ff.c **** #endif /* !_FS_READONLY */
1132:Middlewares/Third_Party/FatFs/src/ff.c **** 
1133:Middlewares/Third_Party/FatFs/src/ff.c **** 
1134:Middlewares/Third_Party/FatFs/src/ff.c **** 
1135:Middlewares/Third_Party/FatFs/src/ff.c **** 
1136:Middlewares/Third_Party/FatFs/src/ff.c **** #if _FS_EXFAT && !_FS_READONLY
1137:Middlewares/Third_Party/FatFs/src/ff.c **** /*-----------------------------------------------------------------------*/
1138:Middlewares/Third_Party/FatFs/src/ff.c **** /* exFAT: Accessing FAT and Allocation Bitmap                            */
1139:Middlewares/Third_Party/FatFs/src/ff.c **** /*-----------------------------------------------------------------------*/
1140:Middlewares/Third_Party/FatFs/src/ff.c **** 
1141:Middlewares/Third_Party/FatFs/src/ff.c **** /*--------------------------------------*/
1142:Middlewares/Third_Party/FatFs/src/ff.c **** /* Find a contiguous free cluster block */
1143:Middlewares/Third_Party/FatFs/src/ff.c **** /*--------------------------------------*/
1144:Middlewares/Third_Party/FatFs/src/ff.c **** 
1145:Middlewares/Third_Party/FatFs/src/ff.c **** static
1146:Middlewares/Third_Party/FatFs/src/ff.c **** DWORD find_bitmap (	/* 0:Not found, 2..:Cluster block found, 0xFFFFFFFF:Disk error */
1147:Middlewares/Third_Party/FatFs/src/ff.c **** 	FATFS* fs,	/* File system object */
1148:Middlewares/Third_Party/FatFs/src/ff.c **** 	DWORD clst,	/* Cluster number to scan from */
1149:Middlewares/Third_Party/FatFs/src/ff.c **** 	DWORD ncl	/* Number of contiguous clusters to find (1..) */
1150:Middlewares/Third_Party/FatFs/src/ff.c **** )
1151:Middlewares/Third_Party/FatFs/src/ff.c **** {
1152:Middlewares/Third_Party/FatFs/src/ff.c **** 	BYTE bm, bv;
1153:Middlewares/Third_Party/FatFs/src/ff.c **** 	UINT i;
1154:Middlewares/Third_Party/FatFs/src/ff.c **** 	DWORD val, scl, ctr;
1155:Middlewares/Third_Party/FatFs/src/ff.c **** 
1156:Middlewares/Third_Party/FatFs/src/ff.c **** 
ARM GAS  C:\Users\zdy\AppData\Local\Temp\ccxXfRHS.s 			page 39


1157:Middlewares/Third_Party/FatFs/src/ff.c **** 	clst -= 2;	/* The first bit in the bitmap corresponds to cluster #2 */
1158:Middlewares/Third_Party/FatFs/src/ff.c **** 	if (clst >= fs->n_fatent - 2) clst = 0;
1159:Middlewares/Third_Party/FatFs/src/ff.c **** 	scl = val = clst; ctr = 0;
1160:Middlewares/Third_Party/FatFs/src/ff.c **** 	for (;;) {
1161:Middlewares/Third_Party/FatFs/src/ff.c **** 		if (move_window(fs, fs->database + val / 8 / SS(fs)) != FR_OK) return 0xFFFFFFFF;	/* (assuming bi
1162:Middlewares/Third_Party/FatFs/src/ff.c **** 		i = val / 8 % SS(fs); bm = 1 << (val % 8);
1163:Middlewares/Third_Party/FatFs/src/ff.c **** 		do {
1164:Middlewares/Third_Party/FatFs/src/ff.c **** 			do {
1165:Middlewares/Third_Party/FatFs/src/ff.c **** 				bv = fs->win[i] & bm; bm <<= 1;		/* Get bit value */
1166:Middlewares/Third_Party/FatFs/src/ff.c **** 				if (++val >= fs->n_fatent - 2) {	/* Next cluster (with wrap-around) */
1167:Middlewares/Third_Party/FatFs/src/ff.c **** 					val = 0; bm = 0; i = SS(fs);
1168:Middlewares/Third_Party/FatFs/src/ff.c **** 				}
1169:Middlewares/Third_Party/FatFs/src/ff.c **** 				if (!bv) {	/* Is it a free cluster? */
1170:Middlewares/Third_Party/FatFs/src/ff.c **** 					if (++ctr == ncl) return scl + 2;	/* Check if run length is sufficient for required */
1171:Middlewares/Third_Party/FatFs/src/ff.c **** 				} else {
1172:Middlewares/Third_Party/FatFs/src/ff.c **** 					scl = val; ctr = 0;		/* Encountered a cluster in-use, restart to scan */
1173:Middlewares/Third_Party/FatFs/src/ff.c **** 				}
1174:Middlewares/Third_Party/FatFs/src/ff.c **** 				if (val == clst) return 0;	/* All cluster scanned? */
1175:Middlewares/Third_Party/FatFs/src/ff.c **** 			} while (bm);
1176:Middlewares/Third_Party/FatFs/src/ff.c **** 			bm = 1;
1177:Middlewares/Third_Party/FatFs/src/ff.c **** 		} while (++i < SS(fs));
1178:Middlewares/Third_Party/FatFs/src/ff.c **** 	}
1179:Middlewares/Third_Party/FatFs/src/ff.c **** }
1180:Middlewares/Third_Party/FatFs/src/ff.c **** 
1181:Middlewares/Third_Party/FatFs/src/ff.c **** 
1182:Middlewares/Third_Party/FatFs/src/ff.c **** /*----------------------------------------*/
1183:Middlewares/Third_Party/FatFs/src/ff.c **** /* Set/Clear a block of allocation bitmap */
1184:Middlewares/Third_Party/FatFs/src/ff.c **** /*----------------------------------------*/
1185:Middlewares/Third_Party/FatFs/src/ff.c **** 
1186:Middlewares/Third_Party/FatFs/src/ff.c **** static
1187:Middlewares/Third_Party/FatFs/src/ff.c **** FRESULT change_bitmap (
1188:Middlewares/Third_Party/FatFs/src/ff.c **** 	FATFS* fs,	/* File system object */
1189:Middlewares/Third_Party/FatFs/src/ff.c **** 	DWORD clst,	/* Cluster number to change from */
1190:Middlewares/Third_Party/FatFs/src/ff.c **** 	DWORD ncl,	/* Number of clusters to be changed */
1191:Middlewares/Third_Party/FatFs/src/ff.c **** 	int bv		/* bit value to be set (0 or 1) */
1192:Middlewares/Third_Party/FatFs/src/ff.c **** )
1193:Middlewares/Third_Party/FatFs/src/ff.c **** {
1194:Middlewares/Third_Party/FatFs/src/ff.c **** 	BYTE bm;
1195:Middlewares/Third_Party/FatFs/src/ff.c **** 	UINT i;
1196:Middlewares/Third_Party/FatFs/src/ff.c **** 	DWORD sect;
1197:Middlewares/Third_Party/FatFs/src/ff.c **** 
1198:Middlewares/Third_Party/FatFs/src/ff.c **** 	clst -= 2;	/* The first bit corresponds to cluster #2 */
1199:Middlewares/Third_Party/FatFs/src/ff.c **** 	sect = fs->database + clst / 8 / SS(fs);	/* Sector address (assuming bitmap is located top of the 
1200:Middlewares/Third_Party/FatFs/src/ff.c **** 	i = clst / 8 % SS(fs);						/* Byte offset in the sector */
1201:Middlewares/Third_Party/FatFs/src/ff.c **** 	bm = 1 << (clst % 8);						/* Bit mask in the byte */
1202:Middlewares/Third_Party/FatFs/src/ff.c **** 	for (;;) {
1203:Middlewares/Third_Party/FatFs/src/ff.c **** 		if (move_window(fs, sect++) != FR_OK) return FR_DISK_ERR;
1204:Middlewares/Third_Party/FatFs/src/ff.c **** 		do {
1205:Middlewares/Third_Party/FatFs/src/ff.c **** 			do {
1206:Middlewares/Third_Party/FatFs/src/ff.c **** 				if (bv == (int)((fs->win[i] & bm) != 0)) return FR_INT_ERR;	/* Is the bit expected value? */
1207:Middlewares/Third_Party/FatFs/src/ff.c **** 				fs->win[i] ^= bm;	/* Flip the bit */
1208:Middlewares/Third_Party/FatFs/src/ff.c **** 				fs->wflag = 1;
1209:Middlewares/Third_Party/FatFs/src/ff.c **** 				if (--ncl == 0) return FR_OK;	/* All bits processed? */
1210:Middlewares/Third_Party/FatFs/src/ff.c **** 			} while (bm <<= 1);		/* Next bit */
1211:Middlewares/Third_Party/FatFs/src/ff.c **** 			bm = 1;
1212:Middlewares/Third_Party/FatFs/src/ff.c **** 		} while (++i < SS(fs));		/* Next byte */
1213:Middlewares/Third_Party/FatFs/src/ff.c **** 		i = 0;
ARM GAS  C:\Users\zdy\AppData\Local\Temp\ccxXfRHS.s 			page 40


1214:Middlewares/Third_Party/FatFs/src/ff.c **** 	}
1215:Middlewares/Third_Party/FatFs/src/ff.c **** }
1216:Middlewares/Third_Party/FatFs/src/ff.c **** 
1217:Middlewares/Third_Party/FatFs/src/ff.c **** 
1218:Middlewares/Third_Party/FatFs/src/ff.c **** /*---------------------------------------------*/
1219:Middlewares/Third_Party/FatFs/src/ff.c **** /* Fill the first fragment of the FAT chain    */
1220:Middlewares/Third_Party/FatFs/src/ff.c **** /*---------------------------------------------*/
1221:Middlewares/Third_Party/FatFs/src/ff.c **** 
1222:Middlewares/Third_Party/FatFs/src/ff.c **** static
1223:Middlewares/Third_Party/FatFs/src/ff.c **** FRESULT fill_first_frag (
1224:Middlewares/Third_Party/FatFs/src/ff.c **** 	_FDID* obj	/* Pointer to the corresponding object */
1225:Middlewares/Third_Party/FatFs/src/ff.c **** )
1226:Middlewares/Third_Party/FatFs/src/ff.c **** {
1227:Middlewares/Third_Party/FatFs/src/ff.c **** 	FRESULT res;
1228:Middlewares/Third_Party/FatFs/src/ff.c **** 	DWORD cl, n;
1229:Middlewares/Third_Party/FatFs/src/ff.c **** 
1230:Middlewares/Third_Party/FatFs/src/ff.c **** 	if (obj->stat == 3) {	/* Has the object been changed 'fragmented'? */
1231:Middlewares/Third_Party/FatFs/src/ff.c **** 		for (cl = obj->sclust, n = obj->n_cont; n; cl++, n--) {	/* Create cluster chain on the FAT */
1232:Middlewares/Third_Party/FatFs/src/ff.c **** 			res = put_fat(obj->fs, cl, cl + 1);
1233:Middlewares/Third_Party/FatFs/src/ff.c **** 			if (res != FR_OK) return res;
1234:Middlewares/Third_Party/FatFs/src/ff.c **** 		}
1235:Middlewares/Third_Party/FatFs/src/ff.c **** 		obj->stat = 0;	/* Change status 'FAT chain is valid' */
1236:Middlewares/Third_Party/FatFs/src/ff.c **** 	}
1237:Middlewares/Third_Party/FatFs/src/ff.c **** 	return FR_OK;
1238:Middlewares/Third_Party/FatFs/src/ff.c **** }
1239:Middlewares/Third_Party/FatFs/src/ff.c **** 
1240:Middlewares/Third_Party/FatFs/src/ff.c **** 
1241:Middlewares/Third_Party/FatFs/src/ff.c **** /*---------------------------------------------*/
1242:Middlewares/Third_Party/FatFs/src/ff.c **** /* Fill the last fragment of the FAT chain     */
1243:Middlewares/Third_Party/FatFs/src/ff.c **** /*---------------------------------------------*/
1244:Middlewares/Third_Party/FatFs/src/ff.c **** 
1245:Middlewares/Third_Party/FatFs/src/ff.c **** static
1246:Middlewares/Third_Party/FatFs/src/ff.c **** FRESULT fill_last_frag (
1247:Middlewares/Third_Party/FatFs/src/ff.c **** 	_FDID* obj,	/* Pointer to the corresponding object */
1248:Middlewares/Third_Party/FatFs/src/ff.c **** 	DWORD lcl,	/* Last cluster of the fragment */
1249:Middlewares/Third_Party/FatFs/src/ff.c **** 	DWORD term	/* Value to set the last FAT entry */
1250:Middlewares/Third_Party/FatFs/src/ff.c **** )
1251:Middlewares/Third_Party/FatFs/src/ff.c **** {
1252:Middlewares/Third_Party/FatFs/src/ff.c **** 	FRESULT res;
1253:Middlewares/Third_Party/FatFs/src/ff.c **** 
1254:Middlewares/Third_Party/FatFs/src/ff.c **** 	while (obj->n_frag > 0) {	/* Create the last chain on the FAT */
1255:Middlewares/Third_Party/FatFs/src/ff.c **** 		res = put_fat(obj->fs, lcl - obj->n_frag + 1, (obj->n_frag > 1) ? lcl - obj->n_frag + 2 : term);
1256:Middlewares/Third_Party/FatFs/src/ff.c **** 		if (res != FR_OK) return res;
1257:Middlewares/Third_Party/FatFs/src/ff.c **** 		obj->n_frag--;
1258:Middlewares/Third_Party/FatFs/src/ff.c **** 	}
1259:Middlewares/Third_Party/FatFs/src/ff.c **** 	return FR_OK;
1260:Middlewares/Third_Party/FatFs/src/ff.c **** }
1261:Middlewares/Third_Party/FatFs/src/ff.c **** 
1262:Middlewares/Third_Party/FatFs/src/ff.c **** #endif	/* _FS_EXFAT && !_FS_READONLY */
1263:Middlewares/Third_Party/FatFs/src/ff.c **** 
1264:Middlewares/Third_Party/FatFs/src/ff.c **** 
1265:Middlewares/Third_Party/FatFs/src/ff.c **** 
1266:Middlewares/Third_Party/FatFs/src/ff.c **** #if !_FS_READONLY
1267:Middlewares/Third_Party/FatFs/src/ff.c **** /*-----------------------------------------------------------------------*/
1268:Middlewares/Third_Party/FatFs/src/ff.c **** /* FAT handling - Remove a cluster chain                                 */
1269:Middlewares/Third_Party/FatFs/src/ff.c **** /*-----------------------------------------------------------------------*/
1270:Middlewares/Third_Party/FatFs/src/ff.c **** static
ARM GAS  C:\Users\zdy\AppData\Local\Temp\ccxXfRHS.s 			page 41


1271:Middlewares/Third_Party/FatFs/src/ff.c **** FRESULT remove_chain (	/* FR_OK(0):succeeded, !=0:error */
1272:Middlewares/Third_Party/FatFs/src/ff.c **** 	_FDID* obj,			/* Corresponding object */
1273:Middlewares/Third_Party/FatFs/src/ff.c **** 	DWORD clst,			/* Cluster to remove a chain from */
1274:Middlewares/Third_Party/FatFs/src/ff.c **** 	DWORD pclst			/* Previous cluster of clst (0:an entire chain) */
1275:Middlewares/Third_Party/FatFs/src/ff.c **** )
1276:Middlewares/Third_Party/FatFs/src/ff.c **** {
1277:Middlewares/Third_Party/FatFs/src/ff.c **** 	FRESULT res = FR_OK;
1278:Middlewares/Third_Party/FatFs/src/ff.c **** 	DWORD nxt;
1279:Middlewares/Third_Party/FatFs/src/ff.c **** 	FATFS *fs = obj->fs;
1280:Middlewares/Third_Party/FatFs/src/ff.c **** #if _FS_EXFAT || _USE_TRIM
1281:Middlewares/Third_Party/FatFs/src/ff.c **** 	DWORD scl = clst, ecl = clst;
1282:Middlewares/Third_Party/FatFs/src/ff.c **** #endif
1283:Middlewares/Third_Party/FatFs/src/ff.c **** #if _USE_TRIM
1284:Middlewares/Third_Party/FatFs/src/ff.c **** 	DWORD rt[2];
1285:Middlewares/Third_Party/FatFs/src/ff.c **** #endif
1286:Middlewares/Third_Party/FatFs/src/ff.c **** 
1287:Middlewares/Third_Party/FatFs/src/ff.c **** 	if (clst < 2 || clst >= fs->n_fatent) return FR_INT_ERR;	/* Check if in valid range */
1288:Middlewares/Third_Party/FatFs/src/ff.c **** 
1289:Middlewares/Third_Party/FatFs/src/ff.c **** 	/* Mark the previous cluster 'EOC' on the FAT if it exists */
1290:Middlewares/Third_Party/FatFs/src/ff.c **** 	if (pclst && (!_FS_EXFAT || fs->fs_type != FS_EXFAT || obj->stat != 2)) {
1291:Middlewares/Third_Party/FatFs/src/ff.c **** 		res = put_fat(fs, pclst, 0xFFFFFFFF);
1292:Middlewares/Third_Party/FatFs/src/ff.c **** 		if (res != FR_OK) return res;
1293:Middlewares/Third_Party/FatFs/src/ff.c **** 	}
1294:Middlewares/Third_Party/FatFs/src/ff.c **** 
1295:Middlewares/Third_Party/FatFs/src/ff.c **** 	/* Remove the chain */
1296:Middlewares/Third_Party/FatFs/src/ff.c **** 	do {
1297:Middlewares/Third_Party/FatFs/src/ff.c **** 		nxt = get_fat(obj, clst);			/* Get cluster status */
1298:Middlewares/Third_Party/FatFs/src/ff.c **** 		if (nxt == 0) break;				/* Empty cluster? */
1299:Middlewares/Third_Party/FatFs/src/ff.c **** 		if (nxt == 1) return FR_INT_ERR;	/* Internal error? */
1300:Middlewares/Third_Party/FatFs/src/ff.c **** 		if (nxt == 0xFFFFFFFF) return FR_DISK_ERR;	/* Disk error? */
1301:Middlewares/Third_Party/FatFs/src/ff.c **** 		if (!_FS_EXFAT || fs->fs_type != FS_EXFAT) {
1302:Middlewares/Third_Party/FatFs/src/ff.c **** 			res = put_fat(fs, clst, 0);		/* Mark the cluster 'free' on the FAT */
1303:Middlewares/Third_Party/FatFs/src/ff.c **** 			if (res != FR_OK) return res;
1304:Middlewares/Third_Party/FatFs/src/ff.c **** 		}
1305:Middlewares/Third_Party/FatFs/src/ff.c **** 		if (fs->free_clst < fs->n_fatent - 2) {	/* Update FSINFO */
1306:Middlewares/Third_Party/FatFs/src/ff.c **** 			fs->free_clst++;
1307:Middlewares/Third_Party/FatFs/src/ff.c **** 			fs->fsi_flag |= 1;
1308:Middlewares/Third_Party/FatFs/src/ff.c **** 		}
1309:Middlewares/Third_Party/FatFs/src/ff.c **** #if _FS_EXFAT || _USE_TRIM
1310:Middlewares/Third_Party/FatFs/src/ff.c **** 		if (ecl + 1 == nxt) {	/* Is next cluster contiguous? */
1311:Middlewares/Third_Party/FatFs/src/ff.c **** 			ecl = nxt;
1312:Middlewares/Third_Party/FatFs/src/ff.c **** 		} else {				/* End of contiguous cluster block */
1313:Middlewares/Third_Party/FatFs/src/ff.c **** #if _FS_EXFAT
1314:Middlewares/Third_Party/FatFs/src/ff.c **** 			if (fs->fs_type == FS_EXFAT) {
1315:Middlewares/Third_Party/FatFs/src/ff.c **** 				res = change_bitmap(fs, scl, ecl - scl + 1, 0);	/* Mark the cluster block 'free' on the bitmap 
1316:Middlewares/Third_Party/FatFs/src/ff.c **** 				if (res != FR_OK) return res;
1317:Middlewares/Third_Party/FatFs/src/ff.c **** 			}
1318:Middlewares/Third_Party/FatFs/src/ff.c **** #endif
1319:Middlewares/Third_Party/FatFs/src/ff.c **** #if _USE_TRIM
1320:Middlewares/Third_Party/FatFs/src/ff.c **** 			rt[0] = clust2sect(fs, scl);					/* Start sector */
1321:Middlewares/Third_Party/FatFs/src/ff.c **** 			rt[1] = clust2sect(fs, ecl) + fs->csize - 1;	/* End sector */
1322:Middlewares/Third_Party/FatFs/src/ff.c **** 			disk_ioctl(fs->drv, CTRL_TRIM, rt);				/* Inform device the block can be erased */
1323:Middlewares/Third_Party/FatFs/src/ff.c **** #endif
1324:Middlewares/Third_Party/FatFs/src/ff.c **** 			scl = ecl = nxt;
1325:Middlewares/Third_Party/FatFs/src/ff.c **** 		}
1326:Middlewares/Third_Party/FatFs/src/ff.c **** #endif
1327:Middlewares/Third_Party/FatFs/src/ff.c **** 		clst = nxt;					/* Next cluster */
ARM GAS  C:\Users\zdy\AppData\Local\Temp\ccxXfRHS.s 			page 42


1328:Middlewares/Third_Party/FatFs/src/ff.c **** 	} while (clst < fs->n_fatent);	/* Repeat while not the last link */
1329:Middlewares/Third_Party/FatFs/src/ff.c **** 
1330:Middlewares/Third_Party/FatFs/src/ff.c **** #if _FS_EXFAT
1331:Middlewares/Third_Party/FatFs/src/ff.c **** 	if (fs->fs_type == FS_EXFAT) {
1332:Middlewares/Third_Party/FatFs/src/ff.c **** 		if (pclst == 0) {	/* Does the object have no chain? */
1333:Middlewares/Third_Party/FatFs/src/ff.c **** 			obj->stat = 0;		/* Change the object status 'initial' */
1334:Middlewares/Third_Party/FatFs/src/ff.c **** 		} else {
1335:Middlewares/Third_Party/FatFs/src/ff.c **** 			if (obj->stat == 3 && pclst >= obj->sclust && pclst <= obj->sclust + obj->n_cont) {	/* Did the c
1336:Middlewares/Third_Party/FatFs/src/ff.c **** 				obj->stat = 2;	/* Change the object status 'contiguous' */
1337:Middlewares/Third_Party/FatFs/src/ff.c **** 			}
1338:Middlewares/Third_Party/FatFs/src/ff.c **** 		}
1339:Middlewares/Third_Party/FatFs/src/ff.c **** 	}
1340:Middlewares/Third_Party/FatFs/src/ff.c **** #endif
1341:Middlewares/Third_Party/FatFs/src/ff.c **** 	return FR_OK;
1342:Middlewares/Third_Party/FatFs/src/ff.c **** }
1343:Middlewares/Third_Party/FatFs/src/ff.c **** 
1344:Middlewares/Third_Party/FatFs/src/ff.c **** 
1345:Middlewares/Third_Party/FatFs/src/ff.c **** 
1346:Middlewares/Third_Party/FatFs/src/ff.c **** 
1347:Middlewares/Third_Party/FatFs/src/ff.c **** /*-----------------------------------------------------------------------*/
1348:Middlewares/Third_Party/FatFs/src/ff.c **** /* FAT handling - Stretch a chain or Create a new chain                  */
1349:Middlewares/Third_Party/FatFs/src/ff.c **** /*-----------------------------------------------------------------------*/
1350:Middlewares/Third_Party/FatFs/src/ff.c **** static
1351:Middlewares/Third_Party/FatFs/src/ff.c **** DWORD create_chain (	/* 0:No free cluster, 1:Internal error, 0xFFFFFFFF:Disk error, >=2:New cluster
1352:Middlewares/Third_Party/FatFs/src/ff.c **** 	_FDID* obj,			/* Corresponding object */
1353:Middlewares/Third_Party/FatFs/src/ff.c **** 	DWORD clst			/* Cluster# to stretch, 0:Create a new chain */
1354:Middlewares/Third_Party/FatFs/src/ff.c **** )
1355:Middlewares/Third_Party/FatFs/src/ff.c **** {
1356:Middlewares/Third_Party/FatFs/src/ff.c **** 	DWORD cs, ncl, scl;
1357:Middlewares/Third_Party/FatFs/src/ff.c **** 	FRESULT res;
1358:Middlewares/Third_Party/FatFs/src/ff.c **** 	FATFS *fs = obj->fs;
1359:Middlewares/Third_Party/FatFs/src/ff.c **** 
1360:Middlewares/Third_Party/FatFs/src/ff.c **** 
1361:Middlewares/Third_Party/FatFs/src/ff.c **** 	if (clst == 0) {	/* Create a new chain */
1362:Middlewares/Third_Party/FatFs/src/ff.c **** 		scl = fs->last_clst;				/* Get suggested cluster to start from */
1363:Middlewares/Third_Party/FatFs/src/ff.c **** 		if (scl == 0 || scl >= fs->n_fatent) scl = 1;
1364:Middlewares/Third_Party/FatFs/src/ff.c **** 	}
1365:Middlewares/Third_Party/FatFs/src/ff.c **** 	else {				/* Stretch current chain */
1366:Middlewares/Third_Party/FatFs/src/ff.c **** 		cs = get_fat(obj, clst);			/* Check the cluster status */
1367:Middlewares/Third_Party/FatFs/src/ff.c **** 		if (cs < 2) return 1;				/* Invalid FAT value */
1368:Middlewares/Third_Party/FatFs/src/ff.c **** 		if (cs == 0xFFFFFFFF) return cs;	/* A disk error occurred */
1369:Middlewares/Third_Party/FatFs/src/ff.c **** 		if (cs < fs->n_fatent) return cs;	/* It is already followed by next cluster */
1370:Middlewares/Third_Party/FatFs/src/ff.c **** 		scl = clst;
1371:Middlewares/Third_Party/FatFs/src/ff.c **** 	}
1372:Middlewares/Third_Party/FatFs/src/ff.c **** 
1373:Middlewares/Third_Party/FatFs/src/ff.c **** #if _FS_EXFAT
1374:Middlewares/Third_Party/FatFs/src/ff.c **** 	if (fs->fs_type == FS_EXFAT) {	/* On the exFAT volume */
1375:Middlewares/Third_Party/FatFs/src/ff.c **** 		ncl = find_bitmap(fs, scl, 1);				/* Find a free cluster */
1376:Middlewares/Third_Party/FatFs/src/ff.c **** 		if (ncl == 0 || ncl == 0xFFFFFFFF) return ncl;	/* No free cluster or hard error? */
1377:Middlewares/Third_Party/FatFs/src/ff.c **** 		res = change_bitmap(fs, ncl, 1, 1);			/* Mark the cluster 'in use' */
1378:Middlewares/Third_Party/FatFs/src/ff.c **** 		if (res == FR_INT_ERR) return 1;
1379:Middlewares/Third_Party/FatFs/src/ff.c **** 		if (res == FR_DISK_ERR) return 0xFFFFFFFF;
1380:Middlewares/Third_Party/FatFs/src/ff.c **** 		if (clst == 0) {							/* Is it a new chain? */
1381:Middlewares/Third_Party/FatFs/src/ff.c **** 			obj->stat = 2;							/* Set status 'contiguous' */
1382:Middlewares/Third_Party/FatFs/src/ff.c **** 		} else {									/* It is a stretched chain */
1383:Middlewares/Third_Party/FatFs/src/ff.c **** 			if (obj->stat == 2 && ncl != scl + 1) {	/* Is the chain got fragmented? */
1384:Middlewares/Third_Party/FatFs/src/ff.c **** 				obj->n_cont = scl - obj->sclust;	/* Set size of the contiguous part */
ARM GAS  C:\Users\zdy\AppData\Local\Temp\ccxXfRHS.s 			page 43


1385:Middlewares/Third_Party/FatFs/src/ff.c **** 				obj->stat = 3;						/* Change status 'just fragmented' */
1386:Middlewares/Third_Party/FatFs/src/ff.c **** 			}
1387:Middlewares/Third_Party/FatFs/src/ff.c **** 		}
1388:Middlewares/Third_Party/FatFs/src/ff.c **** 		if (obj->stat != 2) {	/* Is the file non-contiguous? */
1389:Middlewares/Third_Party/FatFs/src/ff.c **** 			if (ncl == clst + 1) {	/* Is the cluster next to previous one? */
1390:Middlewares/Third_Party/FatFs/src/ff.c **** 				obj->n_frag = obj->n_frag ? obj->n_frag + 1 : 2;	/* Increment size of last framgent */
1391:Middlewares/Third_Party/FatFs/src/ff.c **** 			} else {				/* New fragment */
1392:Middlewares/Third_Party/FatFs/src/ff.c **** 				if (obj->n_frag == 0) obj->n_frag = 1;
1393:Middlewares/Third_Party/FatFs/src/ff.c **** 				res = fill_last_frag(obj, clst, ncl);	/* Fill last fragment on the FAT and link it to new one *
1394:Middlewares/Third_Party/FatFs/src/ff.c **** 				if (res == FR_OK) obj->n_frag = 1;
1395:Middlewares/Third_Party/FatFs/src/ff.c **** 			}
1396:Middlewares/Third_Party/FatFs/src/ff.c **** 		}
1397:Middlewares/Third_Party/FatFs/src/ff.c **** 	} else
1398:Middlewares/Third_Party/FatFs/src/ff.c **** #endif
1399:Middlewares/Third_Party/FatFs/src/ff.c **** 	{	/* On the FAT12/16/32 volume */
1400:Middlewares/Third_Party/FatFs/src/ff.c **** 		ncl = scl;	/* Start cluster */
1401:Middlewares/Third_Party/FatFs/src/ff.c **** 		for (;;) {
1402:Middlewares/Third_Party/FatFs/src/ff.c **** 			ncl++;							/* Next cluster */
1403:Middlewares/Third_Party/FatFs/src/ff.c **** 			if (ncl >= fs->n_fatent) {		/* Check wrap-around */
1404:Middlewares/Third_Party/FatFs/src/ff.c **** 				ncl = 2;
1405:Middlewares/Third_Party/FatFs/src/ff.c **** 				if (ncl > scl) return 0;	/* No free cluster */
1406:Middlewares/Third_Party/FatFs/src/ff.c **** 			}
1407:Middlewares/Third_Party/FatFs/src/ff.c **** 			cs = get_fat(obj, ncl);			/* Get the cluster status */
1408:Middlewares/Third_Party/FatFs/src/ff.c **** 			if (cs == 0) break;				/* Found a free cluster */
1409:Middlewares/Third_Party/FatFs/src/ff.c **** 			if (cs == 1 || cs == 0xFFFFFFFF) return cs;	/* An error occurred */
1410:Middlewares/Third_Party/FatFs/src/ff.c **** 			if (ncl == scl) return 0;		/* No free cluster */
1411:Middlewares/Third_Party/FatFs/src/ff.c **** 		}
1412:Middlewares/Third_Party/FatFs/src/ff.c **** 		res = put_fat(fs, ncl, 0xFFFFFFFF);	/* Mark the new cluster 'EOC' */
1413:Middlewares/Third_Party/FatFs/src/ff.c **** 		if (res == FR_OK && clst != 0) {
1414:Middlewares/Third_Party/FatFs/src/ff.c **** 			res = put_fat(fs, clst, ncl);	/* Link it from the previous one if needed */
1415:Middlewares/Third_Party/FatFs/src/ff.c **** 		}
1416:Middlewares/Third_Party/FatFs/src/ff.c **** 	}
1417:Middlewares/Third_Party/FatFs/src/ff.c **** 
1418:Middlewares/Third_Party/FatFs/src/ff.c **** 	if (res == FR_OK) {			/* Update FSINFO if function succeeded. */
1419:Middlewares/Third_Party/FatFs/src/ff.c **** 		fs->last_clst = ncl;
1420:Middlewares/Third_Party/FatFs/src/ff.c **** 		if (fs->free_clst <= fs->n_fatent - 2) fs->free_clst--;
1421:Middlewares/Third_Party/FatFs/src/ff.c **** 		fs->fsi_flag |= 1;
1422:Middlewares/Third_Party/FatFs/src/ff.c **** 	} else {
1423:Middlewares/Third_Party/FatFs/src/ff.c **** 		ncl = (res == FR_DISK_ERR) ? 0xFFFFFFFF : 1;	/* Failed. Generate error status */
1424:Middlewares/Third_Party/FatFs/src/ff.c **** 	}
1425:Middlewares/Third_Party/FatFs/src/ff.c **** 
1426:Middlewares/Third_Party/FatFs/src/ff.c **** 	return ncl;		/* Return new cluster number or error status */
1427:Middlewares/Third_Party/FatFs/src/ff.c **** }
1428:Middlewares/Third_Party/FatFs/src/ff.c **** 
1429:Middlewares/Third_Party/FatFs/src/ff.c **** #endif /* !_FS_READONLY */
1430:Middlewares/Third_Party/FatFs/src/ff.c **** 
1431:Middlewares/Third_Party/FatFs/src/ff.c **** 
1432:Middlewares/Third_Party/FatFs/src/ff.c **** 
1433:Middlewares/Third_Party/FatFs/src/ff.c **** 
1434:Middlewares/Third_Party/FatFs/src/ff.c **** #if _USE_FASTSEEK
1435:Middlewares/Third_Party/FatFs/src/ff.c **** /*-----------------------------------------------------------------------*/
1436:Middlewares/Third_Party/FatFs/src/ff.c **** /* FAT handling - Convert offset into cluster with link map table        */
1437:Middlewares/Third_Party/FatFs/src/ff.c **** /*-----------------------------------------------------------------------*/
1438:Middlewares/Third_Party/FatFs/src/ff.c **** 
1439:Middlewares/Third_Party/FatFs/src/ff.c **** static
1440:Middlewares/Third_Party/FatFs/src/ff.c **** DWORD clmt_clust (	/* <2:Error, >=2:Cluster number */
1441:Middlewares/Third_Party/FatFs/src/ff.c **** 	FIL* fp,		/* Pointer to the file object */
ARM GAS  C:\Users\zdy\AppData\Local\Temp\ccxXfRHS.s 			page 44


1442:Middlewares/Third_Party/FatFs/src/ff.c **** 	FSIZE_t ofs		/* File offset to be converted to cluster# */
1443:Middlewares/Third_Party/FatFs/src/ff.c **** )
1444:Middlewares/Third_Party/FatFs/src/ff.c **** {
 967              		.loc 1 1444 1 is_stmt 1 view -0
 968              		.cfi_startproc
 969              		@ args = 0, pretend = 0, frame = 0
 970              		@ frame_needed = 0, uses_anonymous_args = 0
 971              		@ link register save eliminated.
1445:Middlewares/Third_Party/FatFs/src/ff.c **** 	DWORD cl, ncl, *tbl;
 972              		.loc 1 1445 2 view .LVU282
1446:Middlewares/Third_Party/FatFs/src/ff.c **** 	FATFS *fs = fp->obj.fs;
 973              		.loc 1 1446 2 view .LVU283
 974              		.loc 1 1446 9 is_stmt 0 view .LVU284
 975 0000 0268     		ldr	r2, [r0]
 976              	.LVL93:
1447:Middlewares/Third_Party/FatFs/src/ff.c **** 
1448:Middlewares/Third_Party/FatFs/src/ff.c **** 
1449:Middlewares/Third_Party/FatFs/src/ff.c **** 	tbl = fp->cltbl + 1;	/* Top of CLMT */
 977              		.loc 1 1449 2 is_stmt 1 view .LVU285
 978              		.loc 1 1449 10 is_stmt 0 view .LVU286
 979 0002 C36A     		ldr	r3, [r0, #44]
 980              		.loc 1 1449 6 view .LVU287
 981 0004 0433     		adds	r3, r3, #4
 982              	.LVL94:
1450:Middlewares/Third_Party/FatFs/src/ff.c **** 	cl = (DWORD)(ofs / SS(fs) / fs->csize);	/* Cluster order from top of the file */
 983              		.loc 1 1450 2 is_stmt 1 view .LVU288
 984              		.loc 1 1450 19 is_stmt 0 view .LVU289
 985 0006 490A     		lsrs	r1, r1, #9
 986              	.LVL95:
 987              		.loc 1 1450 32 view .LVU290
 988 0008 5289     		ldrh	r2, [r2, #10]
 989              	.LVL96:
 990              		.loc 1 1450 5 view .LVU291
 991 000a B1FBF2F1 		udiv	r1, r1, r2
 992              	.LVL97:
 993              		.loc 1 1450 5 view .LVU292
 994 000e 01E0     		b	.L89
 995              	.LVL98:
 996              	.L90:
1451:Middlewares/Third_Party/FatFs/src/ff.c **** 	for (;;) {
1452:Middlewares/Third_Party/FatFs/src/ff.c **** 		ncl = *tbl++;			/* Number of cluters in the fragment */
1453:Middlewares/Third_Party/FatFs/src/ff.c **** 		if (ncl == 0) return 0;	/* End of table? (error) */
1454:Middlewares/Third_Party/FatFs/src/ff.c **** 		if (cl < ncl) break;	/* In this fragment? */
1455:Middlewares/Third_Party/FatFs/src/ff.c **** 		cl -= ncl; tbl++;		/* Next fragment */
 997              		.loc 1 1455 3 is_stmt 1 view .LVU293
 998              		.loc 1 1455 6 is_stmt 0 view .LVU294
 999 0010 091A     		subs	r1, r1, r0
 1000              	.LVL99:
 1001              		.loc 1 1455 14 is_stmt 1 view .LVU295
 1002              		.loc 1 1455 17 is_stmt 0 view .LVU296
 1003 0012 0833     		adds	r3, r3, #8
 1004              	.LVL100:
1451:Middlewares/Third_Party/FatFs/src/ff.c **** 	for (;;) {
 1005              		.loc 1 1451 8 is_stmt 1 view .LVU297
 1006              	.L89:
1451:Middlewares/Third_Party/FatFs/src/ff.c **** 	for (;;) {
 1007              		.loc 1 1451 2 view .LVU298
ARM GAS  C:\Users\zdy\AppData\Local\Temp\ccxXfRHS.s 			page 45


1452:Middlewares/Third_Party/FatFs/src/ff.c **** 		if (ncl == 0) return 0;	/* End of table? (error) */
 1008              		.loc 1 1452 3 view .LVU299
1452:Middlewares/Third_Party/FatFs/src/ff.c **** 		if (ncl == 0) return 0;	/* End of table? (error) */
 1009              		.loc 1 1452 7 is_stmt 0 view .LVU300
 1010 0014 1868     		ldr	r0, [r3]
 1011              	.LVL101:
1453:Middlewares/Third_Party/FatFs/src/ff.c **** 		if (cl < ncl) break;	/* In this fragment? */
 1012              		.loc 1 1453 3 is_stmt 1 view .LVU301
1453:Middlewares/Third_Party/FatFs/src/ff.c **** 		if (cl < ncl) break;	/* In this fragment? */
 1013              		.loc 1 1453 6 is_stmt 0 view .LVU302
 1014 0016 18B1     		cbz	r0, .L86
1454:Middlewares/Third_Party/FatFs/src/ff.c **** 		cl -= ncl; tbl++;		/* Next fragment */
 1015              		.loc 1 1454 3 is_stmt 1 view .LVU303
1454:Middlewares/Third_Party/FatFs/src/ff.c **** 		cl -= ncl; tbl++;		/* Next fragment */
 1016              		.loc 1 1454 6 is_stmt 0 view .LVU304
 1017 0018 8142     		cmp	r1, r0
 1018 001a F9D2     		bcs	.L90
1456:Middlewares/Third_Party/FatFs/src/ff.c **** 	}
1457:Middlewares/Third_Party/FatFs/src/ff.c **** 	return cl + *tbl;	/* Return the cluster number */
 1019              		.loc 1 1457 2 is_stmt 1 view .LVU305
 1020              		.loc 1 1457 14 is_stmt 0 view .LVU306
 1021 001c 5868     		ldr	r0, [r3, #4]
 1022              	.LVL102:
 1023              		.loc 1 1457 12 view .LVU307
 1024 001e 0844     		add	r0, r0, r1
 1025              	.L86:
1458:Middlewares/Third_Party/FatFs/src/ff.c **** }
 1026              		.loc 1 1458 1 view .LVU308
 1027 0020 7047     		bx	lr
 1028              		.cfi_endproc
 1029              	.LFE361:
 1031              		.section	.text.ld_clust,"ax",%progbits
 1032              		.align	1
 1033              		.syntax unified
 1034              		.thumb
 1035              		.thumb_func
 1037              	ld_clust:
 1038              	.LVL103:
 1039              	.LFB365:
1459:Middlewares/Third_Party/FatFs/src/ff.c **** 
1460:Middlewares/Third_Party/FatFs/src/ff.c **** #endif	/* _USE_FASTSEEK */
1461:Middlewares/Third_Party/FatFs/src/ff.c **** 
1462:Middlewares/Third_Party/FatFs/src/ff.c **** 
1463:Middlewares/Third_Party/FatFs/src/ff.c **** 
1464:Middlewares/Third_Party/FatFs/src/ff.c **** 
1465:Middlewares/Third_Party/FatFs/src/ff.c **** /*-----------------------------------------------------------------------*/
1466:Middlewares/Third_Party/FatFs/src/ff.c **** /* Directory handling - Set directory index                              */
1467:Middlewares/Third_Party/FatFs/src/ff.c **** /*-----------------------------------------------------------------------*/
1468:Middlewares/Third_Party/FatFs/src/ff.c **** 
1469:Middlewares/Third_Party/FatFs/src/ff.c **** static
1470:Middlewares/Third_Party/FatFs/src/ff.c **** FRESULT dir_sdi (	/* FR_OK(0):succeeded, !=0:error */
1471:Middlewares/Third_Party/FatFs/src/ff.c **** 	DIR* dp,		/* Pointer to directory object */
1472:Middlewares/Third_Party/FatFs/src/ff.c **** 	DWORD ofs		/* Offset of directory table */
1473:Middlewares/Third_Party/FatFs/src/ff.c **** )
1474:Middlewares/Third_Party/FatFs/src/ff.c **** {
1475:Middlewares/Third_Party/FatFs/src/ff.c **** 	DWORD csz, clst;
1476:Middlewares/Third_Party/FatFs/src/ff.c **** 	FATFS *fs = dp->obj.fs;
ARM GAS  C:\Users\zdy\AppData\Local\Temp\ccxXfRHS.s 			page 46


1477:Middlewares/Third_Party/FatFs/src/ff.c **** 
1478:Middlewares/Third_Party/FatFs/src/ff.c **** 
1479:Middlewares/Third_Party/FatFs/src/ff.c **** 	if (ofs >= (DWORD)((_FS_EXFAT && fs->fs_type == FS_EXFAT) ? MAX_DIR_EX : MAX_DIR) || ofs % SZDIRE)
1480:Middlewares/Third_Party/FatFs/src/ff.c **** 		return FR_INT_ERR;
1481:Middlewares/Third_Party/FatFs/src/ff.c **** 	}
1482:Middlewares/Third_Party/FatFs/src/ff.c **** 	dp->dptr = ofs;				/* Set current offset */
1483:Middlewares/Third_Party/FatFs/src/ff.c **** 	clst = dp->obj.sclust;		/* Table start cluster (0:root) */
1484:Middlewares/Third_Party/FatFs/src/ff.c **** 	if (clst == 0 && fs->fs_type >= FS_FAT32) {	/* Replace cluster# 0 with root cluster# */
1485:Middlewares/Third_Party/FatFs/src/ff.c **** 		clst = fs->dirbase;
1486:Middlewares/Third_Party/FatFs/src/ff.c **** 		if (_FS_EXFAT) dp->obj.stat = 0;	/* exFAT: Root dir has an FAT chain */
1487:Middlewares/Third_Party/FatFs/src/ff.c **** 	}
1488:Middlewares/Third_Party/FatFs/src/ff.c **** 
1489:Middlewares/Third_Party/FatFs/src/ff.c **** 	if (clst == 0) {	/* Static table (root-directory in FAT12/16) */
1490:Middlewares/Third_Party/FatFs/src/ff.c **** 		if (ofs / SZDIRE >= fs->n_rootdir)	return FR_INT_ERR;	/* Is index out of range? */
1491:Middlewares/Third_Party/FatFs/src/ff.c **** 		dp->sect = fs->dirbase;
1492:Middlewares/Third_Party/FatFs/src/ff.c **** 
1493:Middlewares/Third_Party/FatFs/src/ff.c **** 	} else {			/* Dynamic table (sub-directory or root-directory in FAT32+) */
1494:Middlewares/Third_Party/FatFs/src/ff.c **** 		csz = (DWORD)fs->csize * SS(fs);	/* Bytes per cluster */
1495:Middlewares/Third_Party/FatFs/src/ff.c **** 		while (ofs >= csz) {				/* Follow cluster chain */
1496:Middlewares/Third_Party/FatFs/src/ff.c **** 			clst = get_fat(&dp->obj, clst);				/* Get next cluster */
1497:Middlewares/Third_Party/FatFs/src/ff.c **** 			if (clst == 0xFFFFFFFF) return FR_DISK_ERR;	/* Disk error */
1498:Middlewares/Third_Party/FatFs/src/ff.c **** 			if (clst < 2 || clst >= fs->n_fatent) return FR_INT_ERR;	/* Reached to end of table or internal 
1499:Middlewares/Third_Party/FatFs/src/ff.c **** 			ofs -= csz;
1500:Middlewares/Third_Party/FatFs/src/ff.c **** 		}
1501:Middlewares/Third_Party/FatFs/src/ff.c **** 		dp->sect = clust2sect(fs, clst);
1502:Middlewares/Third_Party/FatFs/src/ff.c **** 	}
1503:Middlewares/Third_Party/FatFs/src/ff.c **** 	dp->clust = clst;					/* Current cluster# */
1504:Middlewares/Third_Party/FatFs/src/ff.c **** 	if (!dp->sect) return FR_INT_ERR;
1505:Middlewares/Third_Party/FatFs/src/ff.c **** 	dp->sect += ofs / SS(fs);			/* Sector# of the directory entry */
1506:Middlewares/Third_Party/FatFs/src/ff.c **** 	dp->dir = fs->win + (ofs % SS(fs));	/* Pointer to the entry in the win[] */
1507:Middlewares/Third_Party/FatFs/src/ff.c **** 
1508:Middlewares/Third_Party/FatFs/src/ff.c **** 	return FR_OK;
1509:Middlewares/Third_Party/FatFs/src/ff.c **** }
1510:Middlewares/Third_Party/FatFs/src/ff.c **** 
1511:Middlewares/Third_Party/FatFs/src/ff.c **** 
1512:Middlewares/Third_Party/FatFs/src/ff.c **** 
1513:Middlewares/Third_Party/FatFs/src/ff.c **** 
1514:Middlewares/Third_Party/FatFs/src/ff.c **** /*-----------------------------------------------------------------------*/
1515:Middlewares/Third_Party/FatFs/src/ff.c **** /* Directory handling - Move directory table index next                  */
1516:Middlewares/Third_Party/FatFs/src/ff.c **** /*-----------------------------------------------------------------------*/
1517:Middlewares/Third_Party/FatFs/src/ff.c **** 
1518:Middlewares/Third_Party/FatFs/src/ff.c **** static
1519:Middlewares/Third_Party/FatFs/src/ff.c **** FRESULT dir_next (	/* FR_OK(0):succeeded, FR_NO_FILE:End of table, FR_DENIED:Could not stretch */
1520:Middlewares/Third_Party/FatFs/src/ff.c **** 	DIR* dp,		/* Pointer to the directory object */
1521:Middlewares/Third_Party/FatFs/src/ff.c **** 	int stretch		/* 0: Do not stretch table, 1: Stretch table if needed */
1522:Middlewares/Third_Party/FatFs/src/ff.c **** )
1523:Middlewares/Third_Party/FatFs/src/ff.c **** {
1524:Middlewares/Third_Party/FatFs/src/ff.c **** 	DWORD ofs, clst;
1525:Middlewares/Third_Party/FatFs/src/ff.c **** 	FATFS *fs = dp->obj.fs;
1526:Middlewares/Third_Party/FatFs/src/ff.c **** #if !_FS_READONLY
1527:Middlewares/Third_Party/FatFs/src/ff.c **** 	UINT n;
1528:Middlewares/Third_Party/FatFs/src/ff.c **** #endif
1529:Middlewares/Third_Party/FatFs/src/ff.c **** 
1530:Middlewares/Third_Party/FatFs/src/ff.c **** 	ofs = dp->dptr + SZDIRE;	/* Next entry */
1531:Middlewares/Third_Party/FatFs/src/ff.c **** 	if (!dp->sect || ofs >= (DWORD)((_FS_EXFAT && fs->fs_type == FS_EXFAT) ? MAX_DIR_EX : MAX_DIR)) re
1532:Middlewares/Third_Party/FatFs/src/ff.c **** 
1533:Middlewares/Third_Party/FatFs/src/ff.c **** 	if (ofs % SS(fs) == 0) {	/* Sector changed? */
ARM GAS  C:\Users\zdy\AppData\Local\Temp\ccxXfRHS.s 			page 47


1534:Middlewares/Third_Party/FatFs/src/ff.c **** 		dp->sect++;				/* Next sector */
1535:Middlewares/Third_Party/FatFs/src/ff.c **** 
1536:Middlewares/Third_Party/FatFs/src/ff.c **** 		if (!dp->clust) {		/* Static table */
1537:Middlewares/Third_Party/FatFs/src/ff.c **** 			if (ofs / SZDIRE >= fs->n_rootdir) {	/* Report EOT if it reached end of static table */
1538:Middlewares/Third_Party/FatFs/src/ff.c **** 				dp->sect = 0; return FR_NO_FILE;
1539:Middlewares/Third_Party/FatFs/src/ff.c **** 			}
1540:Middlewares/Third_Party/FatFs/src/ff.c **** 		}
1541:Middlewares/Third_Party/FatFs/src/ff.c **** 		else {					/* Dynamic table */
1542:Middlewares/Third_Party/FatFs/src/ff.c **** 			if ((ofs / SS(fs) & (fs->csize - 1)) == 0) {		/* Cluster changed? */
1543:Middlewares/Third_Party/FatFs/src/ff.c **** 				clst = get_fat(&dp->obj, dp->clust);			/* Get next cluster */
1544:Middlewares/Third_Party/FatFs/src/ff.c **** 				if (clst <= 1) return FR_INT_ERR;				/* Internal error */
1545:Middlewares/Third_Party/FatFs/src/ff.c **** 				if (clst == 0xFFFFFFFF) return FR_DISK_ERR;		/* Disk error */
1546:Middlewares/Third_Party/FatFs/src/ff.c **** 				if (clst >= fs->n_fatent) {						/* Reached end of dynamic table */
1547:Middlewares/Third_Party/FatFs/src/ff.c **** #if !_FS_READONLY
1548:Middlewares/Third_Party/FatFs/src/ff.c **** 					if (!stretch) {								/* If no stretch, report EOT */
1549:Middlewares/Third_Party/FatFs/src/ff.c **** 						dp->sect = 0; return FR_NO_FILE;
1550:Middlewares/Third_Party/FatFs/src/ff.c **** 					}
1551:Middlewares/Third_Party/FatFs/src/ff.c **** 					clst = create_chain(&dp->obj, dp->clust);	/* Allocate a cluster */
1552:Middlewares/Third_Party/FatFs/src/ff.c **** 					if (clst == 0) return FR_DENIED;			/* No free cluster */
1553:Middlewares/Third_Party/FatFs/src/ff.c **** 					if (clst == 1) return FR_INT_ERR;			/* Internal error */
1554:Middlewares/Third_Party/FatFs/src/ff.c **** 					if (clst == 0xFFFFFFFF) return FR_DISK_ERR;	/* Disk error */
1555:Middlewares/Third_Party/FatFs/src/ff.c **** 					/* Clean-up the stretched table */
1556:Middlewares/Third_Party/FatFs/src/ff.c **** 					if (_FS_EXFAT) dp->obj.stat |= 4;			/* The directory needs to be updated */
1557:Middlewares/Third_Party/FatFs/src/ff.c **** 					if (sync_window(fs) != FR_OK) return FR_DISK_ERR;	/* Flush disk access window */
1558:Middlewares/Third_Party/FatFs/src/ff.c **** 					mem_set(fs->win, 0, SS(fs));				/* Clear window buffer */
1559:Middlewares/Third_Party/FatFs/src/ff.c **** 					for (n = 0, fs->winsect = clust2sect(fs, clst); n < fs->csize; n++, fs->winsect++) {	/* Fill t
1560:Middlewares/Third_Party/FatFs/src/ff.c **** 						fs->wflag = 1;
1561:Middlewares/Third_Party/FatFs/src/ff.c **** 						if (sync_window(fs) != FR_OK) return FR_DISK_ERR;
1562:Middlewares/Third_Party/FatFs/src/ff.c **** 					}
1563:Middlewares/Third_Party/FatFs/src/ff.c **** 					fs->winsect -= n;							/* Restore window offset */
1564:Middlewares/Third_Party/FatFs/src/ff.c **** #else
1565:Middlewares/Third_Party/FatFs/src/ff.c **** 					if (!stretch) dp->sect = 0;					/* (this line is to suppress compiler warning) */
1566:Middlewares/Third_Party/FatFs/src/ff.c **** 					dp->sect = 0; return FR_NO_FILE;			/* Report EOT */
1567:Middlewares/Third_Party/FatFs/src/ff.c **** #endif
1568:Middlewares/Third_Party/FatFs/src/ff.c **** 				}
1569:Middlewares/Third_Party/FatFs/src/ff.c **** 				dp->clust = clst;		/* Initialize data for new cluster */
1570:Middlewares/Third_Party/FatFs/src/ff.c **** 				dp->sect = clust2sect(fs, clst);
1571:Middlewares/Third_Party/FatFs/src/ff.c **** 			}
1572:Middlewares/Third_Party/FatFs/src/ff.c **** 		}
1573:Middlewares/Third_Party/FatFs/src/ff.c **** 	}
1574:Middlewares/Third_Party/FatFs/src/ff.c **** 	dp->dptr = ofs;						/* Current entry */
1575:Middlewares/Third_Party/FatFs/src/ff.c **** 	dp->dir = fs->win + ofs % SS(fs);	/* Pointer to the entry in the win[] */
1576:Middlewares/Third_Party/FatFs/src/ff.c **** 
1577:Middlewares/Third_Party/FatFs/src/ff.c **** 	return FR_OK;
1578:Middlewares/Third_Party/FatFs/src/ff.c **** }
1579:Middlewares/Third_Party/FatFs/src/ff.c **** 
1580:Middlewares/Third_Party/FatFs/src/ff.c **** 
1581:Middlewares/Third_Party/FatFs/src/ff.c **** 
1582:Middlewares/Third_Party/FatFs/src/ff.c **** 
1583:Middlewares/Third_Party/FatFs/src/ff.c **** #if !_FS_READONLY
1584:Middlewares/Third_Party/FatFs/src/ff.c **** /*-----------------------------------------------------------------------*/
1585:Middlewares/Third_Party/FatFs/src/ff.c **** /* Directory handling - Reserve a block of directory entries             */
1586:Middlewares/Third_Party/FatFs/src/ff.c **** /*-----------------------------------------------------------------------*/
1587:Middlewares/Third_Party/FatFs/src/ff.c **** 
1588:Middlewares/Third_Party/FatFs/src/ff.c **** static
1589:Middlewares/Third_Party/FatFs/src/ff.c **** FRESULT dir_alloc (	/* FR_OK(0):succeeded, !=0:error */
1590:Middlewares/Third_Party/FatFs/src/ff.c **** 	DIR* dp,		/* Pointer to the directory object */
ARM GAS  C:\Users\zdy\AppData\Local\Temp\ccxXfRHS.s 			page 48


1591:Middlewares/Third_Party/FatFs/src/ff.c **** 	UINT nent		/* Number of contiguous entries to allocate */
1592:Middlewares/Third_Party/FatFs/src/ff.c **** )
1593:Middlewares/Third_Party/FatFs/src/ff.c **** {
1594:Middlewares/Third_Party/FatFs/src/ff.c **** 	FRESULT res;
1595:Middlewares/Third_Party/FatFs/src/ff.c **** 	UINT n;
1596:Middlewares/Third_Party/FatFs/src/ff.c **** 	FATFS *fs = dp->obj.fs;
1597:Middlewares/Third_Party/FatFs/src/ff.c **** 
1598:Middlewares/Third_Party/FatFs/src/ff.c **** 
1599:Middlewares/Third_Party/FatFs/src/ff.c **** 	res = dir_sdi(dp, 0);
1600:Middlewares/Third_Party/FatFs/src/ff.c **** 	if (res == FR_OK) {
1601:Middlewares/Third_Party/FatFs/src/ff.c **** 		n = 0;
1602:Middlewares/Third_Party/FatFs/src/ff.c **** 		do {
1603:Middlewares/Third_Party/FatFs/src/ff.c **** 			res = move_window(fs, dp->sect);
1604:Middlewares/Third_Party/FatFs/src/ff.c **** 			if (res != FR_OK) break;
1605:Middlewares/Third_Party/FatFs/src/ff.c **** #if _FS_EXFAT
1606:Middlewares/Third_Party/FatFs/src/ff.c **** 			if ((fs->fs_type == FS_EXFAT) ? (int)((dp->dir[XDIR_Type] & 0x80) == 0) : (int)(dp->dir[DIR_Name
1607:Middlewares/Third_Party/FatFs/src/ff.c **** #else
1608:Middlewares/Third_Party/FatFs/src/ff.c **** 			if (dp->dir[DIR_Name] == DDEM || dp->dir[DIR_Name] == 0) {
1609:Middlewares/Third_Party/FatFs/src/ff.c **** #endif
1610:Middlewares/Third_Party/FatFs/src/ff.c **** 				if (++n == nent) break;	/* A block of contiguous free entries is found */
1611:Middlewares/Third_Party/FatFs/src/ff.c **** 			} else {
1612:Middlewares/Third_Party/FatFs/src/ff.c **** 				n = 0;					/* Not a blank entry. Restart to search */
1613:Middlewares/Third_Party/FatFs/src/ff.c **** 			}
1614:Middlewares/Third_Party/FatFs/src/ff.c **** 			res = dir_next(dp, 1);
1615:Middlewares/Third_Party/FatFs/src/ff.c **** 		} while (res == FR_OK);	/* Next entry with table stretch enabled */
1616:Middlewares/Third_Party/FatFs/src/ff.c **** 	}
1617:Middlewares/Third_Party/FatFs/src/ff.c **** 
1618:Middlewares/Third_Party/FatFs/src/ff.c **** 	if (res == FR_NO_FILE) res = FR_DENIED;	/* No directory entry to allocate */
1619:Middlewares/Third_Party/FatFs/src/ff.c **** 	return res;
1620:Middlewares/Third_Party/FatFs/src/ff.c **** }
1621:Middlewares/Third_Party/FatFs/src/ff.c **** 
1622:Middlewares/Third_Party/FatFs/src/ff.c **** #endif	/* !_FS_READONLY */
1623:Middlewares/Third_Party/FatFs/src/ff.c **** 
1624:Middlewares/Third_Party/FatFs/src/ff.c **** 
1625:Middlewares/Third_Party/FatFs/src/ff.c **** 
1626:Middlewares/Third_Party/FatFs/src/ff.c **** 
1627:Middlewares/Third_Party/FatFs/src/ff.c **** /*-----------------------------------------------------------------------*/
1628:Middlewares/Third_Party/FatFs/src/ff.c **** /* FAT: Directory handling - Load/Store start cluster number             */
1629:Middlewares/Third_Party/FatFs/src/ff.c **** /*-----------------------------------------------------------------------*/
1630:Middlewares/Third_Party/FatFs/src/ff.c **** 
1631:Middlewares/Third_Party/FatFs/src/ff.c **** static
1632:Middlewares/Third_Party/FatFs/src/ff.c **** DWORD ld_clust (	/* Returns the top cluster value of the SFN entry */
1633:Middlewares/Third_Party/FatFs/src/ff.c **** 	FATFS* fs,		/* Pointer to the fs object */
1634:Middlewares/Third_Party/FatFs/src/ff.c **** 	const BYTE* dir	/* Pointer to the key entry */
1635:Middlewares/Third_Party/FatFs/src/ff.c **** )
1636:Middlewares/Third_Party/FatFs/src/ff.c **** {
 1040              		.loc 1 1636 1 is_stmt 1 view -0
 1041              		.cfi_startproc
 1042              		@ args = 0, pretend = 0, frame = 0
 1043              		@ frame_needed = 0, uses_anonymous_args = 0
 1044              		.loc 1 1636 1 is_stmt 0 view .LVU310
 1045 0000 70B5     		push	{r4, r5, r6, lr}
 1046              	.LCFI10:
 1047              		.cfi_def_cfa_offset 16
 1048              		.cfi_offset 4, -16
 1049              		.cfi_offset 5, -12
 1050              		.cfi_offset 6, -8
ARM GAS  C:\Users\zdy\AppData\Local\Temp\ccxXfRHS.s 			page 49


 1051              		.cfi_offset 14, -4
 1052 0002 0646     		mov	r6, r0
 1053 0004 0D46     		mov	r5, r1
1637:Middlewares/Third_Party/FatFs/src/ff.c **** 	DWORD cl;
 1054              		.loc 1 1637 2 is_stmt 1 view .LVU311
1638:Middlewares/Third_Party/FatFs/src/ff.c **** 
1639:Middlewares/Third_Party/FatFs/src/ff.c **** 	cl = ld_word(dir + DIR_FstClusLO);
 1055              		.loc 1 1639 2 view .LVU312
 1056              		.loc 1 1639 7 is_stmt 0 view .LVU313
 1057 0006 01F11A00 		add	r0, r1, #26
 1058              	.LVL104:
 1059              		.loc 1 1639 7 view .LVU314
 1060 000a FFF7FEFF 		bl	ld_word
 1061              	.LVL105:
1640:Middlewares/Third_Party/FatFs/src/ff.c **** 	if (fs->fs_type == FS_FAT32) {
 1062              		.loc 1 1640 2 is_stmt 1 view .LVU315
 1063              		.loc 1 1640 8 is_stmt 0 view .LVU316
 1064 000e 3378     		ldrb	r3, [r6]	@ zero_extendqisi2
 1065              		.loc 1 1640 5 view .LVU317
 1066 0010 032B     		cmp	r3, #3
 1067 0012 00D0     		beq	.L94
 1068              	.LVL106:
 1069              	.L91:
1641:Middlewares/Third_Party/FatFs/src/ff.c **** 		cl |= (DWORD)ld_word(dir + DIR_FstClusHI) << 16;
1642:Middlewares/Third_Party/FatFs/src/ff.c **** 	}
1643:Middlewares/Third_Party/FatFs/src/ff.c **** 
1644:Middlewares/Third_Party/FatFs/src/ff.c **** 	return cl;
1645:Middlewares/Third_Party/FatFs/src/ff.c **** }
 1070              		.loc 1 1645 1 view .LVU318
 1071 0014 70BD     		pop	{r4, r5, r6, pc}
 1072              	.LVL107:
 1073              	.L94:
 1074              		.loc 1 1645 1 view .LVU319
 1075 0016 0446     		mov	r4, r0
1641:Middlewares/Third_Party/FatFs/src/ff.c **** 		cl |= (DWORD)ld_word(dir + DIR_FstClusHI) << 16;
 1076              		.loc 1 1641 3 is_stmt 1 view .LVU320
1641:Middlewares/Third_Party/FatFs/src/ff.c **** 		cl |= (DWORD)ld_word(dir + DIR_FstClusHI) << 16;
 1077              		.loc 1 1641 16 is_stmt 0 view .LVU321
 1078 0018 05F11400 		add	r0, r5, #20
 1079              	.LVL108:
1641:Middlewares/Third_Party/FatFs/src/ff.c **** 		cl |= (DWORD)ld_word(dir + DIR_FstClusHI) << 16;
 1080              		.loc 1 1641 16 view .LVU322
 1081 001c FFF7FEFF 		bl	ld_word
 1082              	.LVL109:
1641:Middlewares/Third_Party/FatFs/src/ff.c **** 		cl |= (DWORD)ld_word(dir + DIR_FstClusHI) << 16;
 1083              		.loc 1 1641 6 view .LVU323
 1084 0020 44EA0040 		orr	r0, r4, r0, lsl #16
 1085              	.LVL110:
1644:Middlewares/Third_Party/FatFs/src/ff.c **** }
 1086              		.loc 1 1644 2 is_stmt 1 view .LVU324
1644:Middlewares/Third_Party/FatFs/src/ff.c **** }
 1087              		.loc 1 1644 9 is_stmt 0 view .LVU325
 1088 0024 F6E7     		b	.L91
 1089              		.cfi_endproc
 1090              	.LFE365:
 1092              		.section	.text.st_clust,"ax",%progbits
 1093              		.align	1
ARM GAS  C:\Users\zdy\AppData\Local\Temp\ccxXfRHS.s 			page 50


 1094              		.syntax unified
 1095              		.thumb
 1096              		.thumb_func
 1098              	st_clust:
 1099              	.LVL111:
 1100              	.LFB366:
1646:Middlewares/Third_Party/FatFs/src/ff.c **** 
1647:Middlewares/Third_Party/FatFs/src/ff.c **** 
1648:Middlewares/Third_Party/FatFs/src/ff.c **** #if !_FS_READONLY
1649:Middlewares/Third_Party/FatFs/src/ff.c **** static
1650:Middlewares/Third_Party/FatFs/src/ff.c **** void st_clust (
1651:Middlewares/Third_Party/FatFs/src/ff.c **** 	FATFS* fs,	/* Pointer to the fs object */
1652:Middlewares/Third_Party/FatFs/src/ff.c **** 	BYTE* dir,	/* Pointer to the key entry */
1653:Middlewares/Third_Party/FatFs/src/ff.c **** 	DWORD cl	/* Value to be set */
1654:Middlewares/Third_Party/FatFs/src/ff.c **** )
1655:Middlewares/Third_Party/FatFs/src/ff.c **** {
 1101              		.loc 1 1655 1 is_stmt 1 view -0
 1102              		.cfi_startproc
 1103              		@ args = 0, pretend = 0, frame = 0
 1104              		@ frame_needed = 0, uses_anonymous_args = 0
 1105              		.loc 1 1655 1 is_stmt 0 view .LVU327
 1106 0000 70B5     		push	{r4, r5, r6, lr}
 1107              	.LCFI11:
 1108              		.cfi_def_cfa_offset 16
 1109              		.cfi_offset 4, -16
 1110              		.cfi_offset 5, -12
 1111              		.cfi_offset 6, -8
 1112              		.cfi_offset 14, -4
 1113 0002 0646     		mov	r6, r0
 1114 0004 0C46     		mov	r4, r1
 1115 0006 1546     		mov	r5, r2
1656:Middlewares/Third_Party/FatFs/src/ff.c **** 	st_word(dir + DIR_FstClusLO, (WORD)cl);
 1116              		.loc 1 1656 2 is_stmt 1 view .LVU328
 1117 0008 91B2     		uxth	r1, r2
 1118              	.LVL112:
 1119              		.loc 1 1656 2 is_stmt 0 view .LVU329
 1120 000a 04F11A00 		add	r0, r4, #26
 1121              	.LVL113:
 1122              		.loc 1 1656 2 view .LVU330
 1123 000e FFF7FEFF 		bl	st_word
 1124              	.LVL114:
1657:Middlewares/Third_Party/FatFs/src/ff.c **** 	if (fs->fs_type == FS_FAT32) {
 1125              		.loc 1 1657 2 is_stmt 1 view .LVU331
 1126              		.loc 1 1657 8 is_stmt 0 view .LVU332
 1127 0012 3378     		ldrb	r3, [r6]	@ zero_extendqisi2
 1128              		.loc 1 1657 5 view .LVU333
 1129 0014 032B     		cmp	r3, #3
 1130 0016 00D0     		beq	.L98
 1131              	.L95:
1658:Middlewares/Third_Party/FatFs/src/ff.c **** 		st_word(dir + DIR_FstClusHI, (WORD)(cl >> 16));
1659:Middlewares/Third_Party/FatFs/src/ff.c **** 	}
1660:Middlewares/Third_Party/FatFs/src/ff.c **** }
 1132              		.loc 1 1660 1 view .LVU334
 1133 0018 70BD     		pop	{r4, r5, r6, pc}
 1134              	.LVL115:
 1135              	.L98:
1658:Middlewares/Third_Party/FatFs/src/ff.c **** 		st_word(dir + DIR_FstClusHI, (WORD)(cl >> 16));
ARM GAS  C:\Users\zdy\AppData\Local\Temp\ccxXfRHS.s 			page 51


 1136              		.loc 1 1658 3 is_stmt 1 view .LVU335
 1137 001a 290C     		lsrs	r1, r5, #16
 1138 001c 04F11400 		add	r0, r4, #20
 1139 0020 FFF7FEFF 		bl	st_word
 1140              	.LVL116:
 1141              		.loc 1 1660 1 is_stmt 0 view .LVU336
 1142 0024 F8E7     		b	.L95
 1143              		.cfi_endproc
 1144              	.LFE366:
 1146              		.section	.text.get_fileinfo,"ax",%progbits
 1147              		.align	1
 1148              		.syntax unified
 1149              		.thumb
 1150              		.thumb_func
 1152              	get_fileinfo:
 1153              	.LVL117:
 1154              	.LFB371:
1661:Middlewares/Third_Party/FatFs/src/ff.c **** #endif
1662:Middlewares/Third_Party/FatFs/src/ff.c **** 
1663:Middlewares/Third_Party/FatFs/src/ff.c **** 
1664:Middlewares/Third_Party/FatFs/src/ff.c **** 
1665:Middlewares/Third_Party/FatFs/src/ff.c **** #if _USE_LFN != 0
1666:Middlewares/Third_Party/FatFs/src/ff.c **** /*------------------------------------------------------------------------*/
1667:Middlewares/Third_Party/FatFs/src/ff.c **** /* FAT-LFN: LFN handling                                                  */
1668:Middlewares/Third_Party/FatFs/src/ff.c **** /*------------------------------------------------------------------------*/
1669:Middlewares/Third_Party/FatFs/src/ff.c **** static
1670:Middlewares/Third_Party/FatFs/src/ff.c **** const BYTE LfnOfs[] = {1,3,5,7,9,14,16,18,20,22,24,28,30};	/* Offset of LFN characters in the direc
1671:Middlewares/Third_Party/FatFs/src/ff.c **** 
1672:Middlewares/Third_Party/FatFs/src/ff.c **** 
1673:Middlewares/Third_Party/FatFs/src/ff.c **** /*--------------------------------------------------------*/
1674:Middlewares/Third_Party/FatFs/src/ff.c **** /* FAT-LFN: Compare a part of file name with an LFN entry */
1675:Middlewares/Third_Party/FatFs/src/ff.c **** /*--------------------------------------------------------*/
1676:Middlewares/Third_Party/FatFs/src/ff.c **** static
1677:Middlewares/Third_Party/FatFs/src/ff.c **** int cmp_lfn (				/* 1:matched, 0:not matched */
1678:Middlewares/Third_Party/FatFs/src/ff.c **** 	const WCHAR* lfnbuf,	/* Pointer to the LFN working buffer to be compared */
1679:Middlewares/Third_Party/FatFs/src/ff.c **** 	BYTE* dir				/* Pointer to the directory entry containing the part of LFN */
1680:Middlewares/Third_Party/FatFs/src/ff.c **** )
1681:Middlewares/Third_Party/FatFs/src/ff.c **** {
1682:Middlewares/Third_Party/FatFs/src/ff.c **** 	UINT i, s;
1683:Middlewares/Third_Party/FatFs/src/ff.c **** 	WCHAR wc, uc;
1684:Middlewares/Third_Party/FatFs/src/ff.c **** 
1685:Middlewares/Third_Party/FatFs/src/ff.c **** 
1686:Middlewares/Third_Party/FatFs/src/ff.c **** 	if (ld_word(dir + LDIR_FstClusLO) != 0) return 0;	/* Check LDIR_FstClusLO */
1687:Middlewares/Third_Party/FatFs/src/ff.c **** 
1688:Middlewares/Third_Party/FatFs/src/ff.c **** 	i = ((dir[LDIR_Ord] & 0x3F) - 1) * 13;	/* Offset in the LFN buffer */
1689:Middlewares/Third_Party/FatFs/src/ff.c **** 
1690:Middlewares/Third_Party/FatFs/src/ff.c **** 	for (wc = 1, s = 0; s < 13; s++) {		/* Process all characters in the entry */
1691:Middlewares/Third_Party/FatFs/src/ff.c **** 		uc = ld_word(dir + LfnOfs[s]);		/* Pick an LFN character */
1692:Middlewares/Third_Party/FatFs/src/ff.c **** 		if (wc) {
1693:Middlewares/Third_Party/FatFs/src/ff.c **** 			if (i >= _MAX_LFN || ff_wtoupper(uc) != ff_wtoupper(lfnbuf[i++])) {	/* Compare it */
1694:Middlewares/Third_Party/FatFs/src/ff.c **** 				return 0;					/* Not matched */
1695:Middlewares/Third_Party/FatFs/src/ff.c **** 			}
1696:Middlewares/Third_Party/FatFs/src/ff.c **** 			wc = uc;
1697:Middlewares/Third_Party/FatFs/src/ff.c **** 		} else {
1698:Middlewares/Third_Party/FatFs/src/ff.c **** 			if (uc != 0xFFFF) return 0;		/* Check filler */
1699:Middlewares/Third_Party/FatFs/src/ff.c **** 		}
1700:Middlewares/Third_Party/FatFs/src/ff.c **** 	}
ARM GAS  C:\Users\zdy\AppData\Local\Temp\ccxXfRHS.s 			page 52


1701:Middlewares/Third_Party/FatFs/src/ff.c **** 
1702:Middlewares/Third_Party/FatFs/src/ff.c **** 	if ((dir[LDIR_Ord] & LLEF) && wc && lfnbuf[i]) return 0;	/* Last segment matched but different len
1703:Middlewares/Third_Party/FatFs/src/ff.c **** 
1704:Middlewares/Third_Party/FatFs/src/ff.c **** 	return 1;		/* The part of LFN matched */
1705:Middlewares/Third_Party/FatFs/src/ff.c **** }
1706:Middlewares/Third_Party/FatFs/src/ff.c **** 
1707:Middlewares/Third_Party/FatFs/src/ff.c **** 
1708:Middlewares/Third_Party/FatFs/src/ff.c **** #if _FS_MINIMIZE <= 1 || _FS_RPATH >= 2 || _USE_LABEL || _FS_EXFAT
1709:Middlewares/Third_Party/FatFs/src/ff.c **** /*-----------------------------------------------------*/
1710:Middlewares/Third_Party/FatFs/src/ff.c **** /* FAT-LFN: Pick a part of file name from an LFN entry */
1711:Middlewares/Third_Party/FatFs/src/ff.c **** /*-----------------------------------------------------*/
1712:Middlewares/Third_Party/FatFs/src/ff.c **** static
1713:Middlewares/Third_Party/FatFs/src/ff.c **** int pick_lfn (			/* 1:succeeded, 0:buffer overflow or invalid LFN entry */
1714:Middlewares/Third_Party/FatFs/src/ff.c **** 	WCHAR* lfnbuf,		/* Pointer to the LFN working buffer */
1715:Middlewares/Third_Party/FatFs/src/ff.c **** 	BYTE* dir			/* Pointer to the LFN entry */
1716:Middlewares/Third_Party/FatFs/src/ff.c **** )
1717:Middlewares/Third_Party/FatFs/src/ff.c **** {
1718:Middlewares/Third_Party/FatFs/src/ff.c **** 	UINT i, s;
1719:Middlewares/Third_Party/FatFs/src/ff.c **** 	WCHAR wc, uc;
1720:Middlewares/Third_Party/FatFs/src/ff.c **** 
1721:Middlewares/Third_Party/FatFs/src/ff.c **** 
1722:Middlewares/Third_Party/FatFs/src/ff.c **** 	if (ld_word(dir + LDIR_FstClusLO) != 0) return 0;	/* Check LDIR_FstClusLO is 0 */
1723:Middlewares/Third_Party/FatFs/src/ff.c **** 
1724:Middlewares/Third_Party/FatFs/src/ff.c **** 	i = ((dir[LDIR_Ord] & ~LLEF) - 1) * 13;	/* Offset in the LFN buffer */
1725:Middlewares/Third_Party/FatFs/src/ff.c **** 
1726:Middlewares/Third_Party/FatFs/src/ff.c **** 	for (wc = 1, s = 0; s < 13; s++) {		/* Process all characters in the entry */
1727:Middlewares/Third_Party/FatFs/src/ff.c **** 		uc = ld_word(dir + LfnOfs[s]);		/* Pick an LFN character */
1728:Middlewares/Third_Party/FatFs/src/ff.c **** 		if (wc) {
1729:Middlewares/Third_Party/FatFs/src/ff.c **** 			if (i >= _MAX_LFN) return 0;	/* Buffer overflow? */
1730:Middlewares/Third_Party/FatFs/src/ff.c **** 			lfnbuf[i++] = wc = uc;			/* Store it */
1731:Middlewares/Third_Party/FatFs/src/ff.c **** 		} else {
1732:Middlewares/Third_Party/FatFs/src/ff.c **** 			if (uc != 0xFFFF) return 0;		/* Check filler */
1733:Middlewares/Third_Party/FatFs/src/ff.c **** 		}
1734:Middlewares/Third_Party/FatFs/src/ff.c **** 	}
1735:Middlewares/Third_Party/FatFs/src/ff.c **** 
1736:Middlewares/Third_Party/FatFs/src/ff.c **** 	if (dir[LDIR_Ord] & LLEF) {				/* Put terminator if it is the last LFN part */
1737:Middlewares/Third_Party/FatFs/src/ff.c **** 		if (i >= _MAX_LFN) return 0;		/* Buffer overflow? */
1738:Middlewares/Third_Party/FatFs/src/ff.c **** 		lfnbuf[i] = 0;
1739:Middlewares/Third_Party/FatFs/src/ff.c **** 	}
1740:Middlewares/Third_Party/FatFs/src/ff.c **** 
1741:Middlewares/Third_Party/FatFs/src/ff.c **** 	return 1;		/* The part of LFN is valid */
1742:Middlewares/Third_Party/FatFs/src/ff.c **** }
1743:Middlewares/Third_Party/FatFs/src/ff.c **** #endif
1744:Middlewares/Third_Party/FatFs/src/ff.c **** 
1745:Middlewares/Third_Party/FatFs/src/ff.c **** 
1746:Middlewares/Third_Party/FatFs/src/ff.c **** #if !_FS_READONLY
1747:Middlewares/Third_Party/FatFs/src/ff.c **** /*-----------------------------------------*/
1748:Middlewares/Third_Party/FatFs/src/ff.c **** /* FAT-LFN: Create an entry of LFN entries */
1749:Middlewares/Third_Party/FatFs/src/ff.c **** /*-----------------------------------------*/
1750:Middlewares/Third_Party/FatFs/src/ff.c **** static
1751:Middlewares/Third_Party/FatFs/src/ff.c **** void put_lfn (
1752:Middlewares/Third_Party/FatFs/src/ff.c **** 	const WCHAR* lfn,	/* Pointer to the LFN */
1753:Middlewares/Third_Party/FatFs/src/ff.c **** 	BYTE* dir,			/* Pointer to the LFN entry to be created */
1754:Middlewares/Third_Party/FatFs/src/ff.c **** 	BYTE ord,			/* LFN order (1-20) */
1755:Middlewares/Third_Party/FatFs/src/ff.c **** 	BYTE sum			/* Checksum of the corresponding SFN */
1756:Middlewares/Third_Party/FatFs/src/ff.c **** )
1757:Middlewares/Third_Party/FatFs/src/ff.c **** {
ARM GAS  C:\Users\zdy\AppData\Local\Temp\ccxXfRHS.s 			page 53


1758:Middlewares/Third_Party/FatFs/src/ff.c **** 	UINT i, s;
1759:Middlewares/Third_Party/FatFs/src/ff.c **** 	WCHAR wc;
1760:Middlewares/Third_Party/FatFs/src/ff.c **** 
1761:Middlewares/Third_Party/FatFs/src/ff.c **** 
1762:Middlewares/Third_Party/FatFs/src/ff.c **** 	dir[LDIR_Chksum] = sum;			/* Set checksum */
1763:Middlewares/Third_Party/FatFs/src/ff.c **** 	dir[LDIR_Attr] = AM_LFN;		/* Set attribute. LFN entry */
1764:Middlewares/Third_Party/FatFs/src/ff.c **** 	dir[LDIR_Type] = 0;
1765:Middlewares/Third_Party/FatFs/src/ff.c **** 	st_word(dir + LDIR_FstClusLO, 0);
1766:Middlewares/Third_Party/FatFs/src/ff.c **** 
1767:Middlewares/Third_Party/FatFs/src/ff.c **** 	i = (ord - 1) * 13;				/* Get offset in the LFN working buffer */
1768:Middlewares/Third_Party/FatFs/src/ff.c **** 	s = wc = 0;
1769:Middlewares/Third_Party/FatFs/src/ff.c **** 	do {
1770:Middlewares/Third_Party/FatFs/src/ff.c **** 		if (wc != 0xFFFF) wc = lfn[i++];	/* Get an effective character */
1771:Middlewares/Third_Party/FatFs/src/ff.c **** 		st_word(dir + LfnOfs[s], wc);		/* Put it */
1772:Middlewares/Third_Party/FatFs/src/ff.c **** 		if (wc == 0) wc = 0xFFFF;		/* Padding characters for left locations */
1773:Middlewares/Third_Party/FatFs/src/ff.c **** 	} while (++s < 13);
1774:Middlewares/Third_Party/FatFs/src/ff.c **** 	if (wc == 0xFFFF || !lfn[i]) ord |= LLEF;	/* Last LFN part is the start of LFN sequence */
1775:Middlewares/Third_Party/FatFs/src/ff.c **** 	dir[LDIR_Ord] = ord;			/* Set the LFN order */
1776:Middlewares/Third_Party/FatFs/src/ff.c **** }
1777:Middlewares/Third_Party/FatFs/src/ff.c **** 
1778:Middlewares/Third_Party/FatFs/src/ff.c **** #endif	/* !_FS_READONLY */
1779:Middlewares/Third_Party/FatFs/src/ff.c **** #endif	/* _USE_LFN != 0 */
1780:Middlewares/Third_Party/FatFs/src/ff.c **** 
1781:Middlewares/Third_Party/FatFs/src/ff.c **** 
1782:Middlewares/Third_Party/FatFs/src/ff.c **** 
1783:Middlewares/Third_Party/FatFs/src/ff.c **** #if _USE_LFN != 0 && !_FS_READONLY
1784:Middlewares/Third_Party/FatFs/src/ff.c **** /*-----------------------------------------------------------------------*/
1785:Middlewares/Third_Party/FatFs/src/ff.c **** /* FAT-LFN: Create a Numbered SFN                                        */
1786:Middlewares/Third_Party/FatFs/src/ff.c **** /*-----------------------------------------------------------------------*/
1787:Middlewares/Third_Party/FatFs/src/ff.c **** 
1788:Middlewares/Third_Party/FatFs/src/ff.c **** static
1789:Middlewares/Third_Party/FatFs/src/ff.c **** void gen_numname (
1790:Middlewares/Third_Party/FatFs/src/ff.c **** 	BYTE* dst,			/* Pointer to the buffer to store numbered SFN */
1791:Middlewares/Third_Party/FatFs/src/ff.c **** 	const BYTE* src,	/* Pointer to SFN */
1792:Middlewares/Third_Party/FatFs/src/ff.c **** 	const WCHAR* lfn,	/* Pointer to LFN */
1793:Middlewares/Third_Party/FatFs/src/ff.c **** 	UINT seq			/* Sequence number */
1794:Middlewares/Third_Party/FatFs/src/ff.c **** )
1795:Middlewares/Third_Party/FatFs/src/ff.c **** {
1796:Middlewares/Third_Party/FatFs/src/ff.c **** 	BYTE ns[8], c;
1797:Middlewares/Third_Party/FatFs/src/ff.c **** 	UINT i, j;
1798:Middlewares/Third_Party/FatFs/src/ff.c **** 	WCHAR wc;
1799:Middlewares/Third_Party/FatFs/src/ff.c **** 	DWORD sr;
1800:Middlewares/Third_Party/FatFs/src/ff.c **** 
1801:Middlewares/Third_Party/FatFs/src/ff.c **** 
1802:Middlewares/Third_Party/FatFs/src/ff.c **** 	mem_cpy(dst, src, 11);
1803:Middlewares/Third_Party/FatFs/src/ff.c **** 
1804:Middlewares/Third_Party/FatFs/src/ff.c **** 	if (seq > 5) {	/* In case of many collisions, generate a hash number instead of sequential number 
1805:Middlewares/Third_Party/FatFs/src/ff.c **** 		sr = seq;
1806:Middlewares/Third_Party/FatFs/src/ff.c **** 		while (*lfn) {	/* Create a CRC */
1807:Middlewares/Third_Party/FatFs/src/ff.c **** 			wc = *lfn++;
1808:Middlewares/Third_Party/FatFs/src/ff.c **** 			for (i = 0; i < 16; i++) {
1809:Middlewares/Third_Party/FatFs/src/ff.c **** 				sr = (sr << 1) + (wc & 1);
1810:Middlewares/Third_Party/FatFs/src/ff.c **** 				wc >>= 1;
1811:Middlewares/Third_Party/FatFs/src/ff.c **** 				if (sr & 0x10000) sr ^= 0x11021;
1812:Middlewares/Third_Party/FatFs/src/ff.c **** 			}
1813:Middlewares/Third_Party/FatFs/src/ff.c **** 		}
1814:Middlewares/Third_Party/FatFs/src/ff.c **** 		seq = (UINT)sr;
ARM GAS  C:\Users\zdy\AppData\Local\Temp\ccxXfRHS.s 			page 54


1815:Middlewares/Third_Party/FatFs/src/ff.c **** 	}
1816:Middlewares/Third_Party/FatFs/src/ff.c **** 
1817:Middlewares/Third_Party/FatFs/src/ff.c **** 	/* itoa (hexdecimal) */
1818:Middlewares/Third_Party/FatFs/src/ff.c **** 	i = 7;
1819:Middlewares/Third_Party/FatFs/src/ff.c **** 	do {
1820:Middlewares/Third_Party/FatFs/src/ff.c **** 		c = (BYTE)((seq % 16) + '0');
1821:Middlewares/Third_Party/FatFs/src/ff.c **** 		if (c > '9') c += 7;
1822:Middlewares/Third_Party/FatFs/src/ff.c **** 		ns[i--] = c;
1823:Middlewares/Third_Party/FatFs/src/ff.c **** 		seq /= 16;
1824:Middlewares/Third_Party/FatFs/src/ff.c **** 	} while (seq);
1825:Middlewares/Third_Party/FatFs/src/ff.c **** 	ns[i] = '~';
1826:Middlewares/Third_Party/FatFs/src/ff.c **** 
1827:Middlewares/Third_Party/FatFs/src/ff.c **** 	/* Append the number */
1828:Middlewares/Third_Party/FatFs/src/ff.c **** 	for (j = 0; j < i && dst[j] != ' '; j++) {
1829:Middlewares/Third_Party/FatFs/src/ff.c **** 		if (IsDBCS1(dst[j])) {
1830:Middlewares/Third_Party/FatFs/src/ff.c **** 			if (j == i - 1) break;
1831:Middlewares/Third_Party/FatFs/src/ff.c **** 			j++;
1832:Middlewares/Third_Party/FatFs/src/ff.c **** 		}
1833:Middlewares/Third_Party/FatFs/src/ff.c **** 	}
1834:Middlewares/Third_Party/FatFs/src/ff.c **** 	do {
1835:Middlewares/Third_Party/FatFs/src/ff.c **** 		dst[j++] = (i < 8) ? ns[i++] : ' ';
1836:Middlewares/Third_Party/FatFs/src/ff.c **** 	} while (j < 8);
1837:Middlewares/Third_Party/FatFs/src/ff.c **** }
1838:Middlewares/Third_Party/FatFs/src/ff.c **** #endif	/* _USE_LFN != 0 && !_FS_READONLY */
1839:Middlewares/Third_Party/FatFs/src/ff.c **** 
1840:Middlewares/Third_Party/FatFs/src/ff.c **** 
1841:Middlewares/Third_Party/FatFs/src/ff.c **** 
1842:Middlewares/Third_Party/FatFs/src/ff.c **** #if _USE_LFN != 0
1843:Middlewares/Third_Party/FatFs/src/ff.c **** /*-----------------------------------------------------------------------*/
1844:Middlewares/Third_Party/FatFs/src/ff.c **** /* FAT-LFN: Calculate checksum of an SFN entry                           */
1845:Middlewares/Third_Party/FatFs/src/ff.c **** /*-----------------------------------------------------------------------*/
1846:Middlewares/Third_Party/FatFs/src/ff.c **** 
1847:Middlewares/Third_Party/FatFs/src/ff.c **** static
1848:Middlewares/Third_Party/FatFs/src/ff.c **** BYTE sum_sfn (
1849:Middlewares/Third_Party/FatFs/src/ff.c **** 	const BYTE* dir		/* Pointer to the SFN entry */
1850:Middlewares/Third_Party/FatFs/src/ff.c **** )
1851:Middlewares/Third_Party/FatFs/src/ff.c **** {
1852:Middlewares/Third_Party/FatFs/src/ff.c **** 	BYTE sum = 0;
1853:Middlewares/Third_Party/FatFs/src/ff.c **** 	UINT n = 11;
1854:Middlewares/Third_Party/FatFs/src/ff.c **** 
1855:Middlewares/Third_Party/FatFs/src/ff.c **** 	do {
1856:Middlewares/Third_Party/FatFs/src/ff.c **** 		sum = (sum >> 1) + (sum << 7) + *dir++;
1857:Middlewares/Third_Party/FatFs/src/ff.c **** 	} while (--n);
1858:Middlewares/Third_Party/FatFs/src/ff.c **** 	return sum;
1859:Middlewares/Third_Party/FatFs/src/ff.c **** }
1860:Middlewares/Third_Party/FatFs/src/ff.c **** 
1861:Middlewares/Third_Party/FatFs/src/ff.c **** #endif	/* _USE_LFN != 0 */
1862:Middlewares/Third_Party/FatFs/src/ff.c **** 
1863:Middlewares/Third_Party/FatFs/src/ff.c **** 
1864:Middlewares/Third_Party/FatFs/src/ff.c **** 
1865:Middlewares/Third_Party/FatFs/src/ff.c **** #if _FS_EXFAT
1866:Middlewares/Third_Party/FatFs/src/ff.c **** /*-----------------------------------------------------------------------*/
1867:Middlewares/Third_Party/FatFs/src/ff.c **** /* exFAT: Checksum                                                       */
1868:Middlewares/Third_Party/FatFs/src/ff.c **** /*-----------------------------------------------------------------------*/
1869:Middlewares/Third_Party/FatFs/src/ff.c **** 
1870:Middlewares/Third_Party/FatFs/src/ff.c **** static
1871:Middlewares/Third_Party/FatFs/src/ff.c **** WORD xdir_sum (			/* Get checksum of the directoly block */
ARM GAS  C:\Users\zdy\AppData\Local\Temp\ccxXfRHS.s 			page 55


1872:Middlewares/Third_Party/FatFs/src/ff.c **** 	const BYTE* dir		/* Directory entry block to be calculated */
1873:Middlewares/Third_Party/FatFs/src/ff.c **** )
1874:Middlewares/Third_Party/FatFs/src/ff.c **** {
1875:Middlewares/Third_Party/FatFs/src/ff.c **** 	UINT i, szblk;
1876:Middlewares/Third_Party/FatFs/src/ff.c **** 	WORD sum;
1877:Middlewares/Third_Party/FatFs/src/ff.c **** 
1878:Middlewares/Third_Party/FatFs/src/ff.c **** 
1879:Middlewares/Third_Party/FatFs/src/ff.c **** 	szblk = (dir[XDIR_NumSec] + 1) * SZDIRE;
1880:Middlewares/Third_Party/FatFs/src/ff.c **** 	for (i = sum = 0; i < szblk; i++) {
1881:Middlewares/Third_Party/FatFs/src/ff.c **** 		if (i == XDIR_SetSum) {	/* Skip sum field */
1882:Middlewares/Third_Party/FatFs/src/ff.c **** 			i++;
1883:Middlewares/Third_Party/FatFs/src/ff.c **** 		} else {
1884:Middlewares/Third_Party/FatFs/src/ff.c **** 			sum = ((sum & 1) ? 0x8000 : 0) + (sum >> 1) + dir[i];
1885:Middlewares/Third_Party/FatFs/src/ff.c **** 		}
1886:Middlewares/Third_Party/FatFs/src/ff.c **** 	}
1887:Middlewares/Third_Party/FatFs/src/ff.c **** 	return sum;
1888:Middlewares/Third_Party/FatFs/src/ff.c **** }
1889:Middlewares/Third_Party/FatFs/src/ff.c **** 
1890:Middlewares/Third_Party/FatFs/src/ff.c **** 
1891:Middlewares/Third_Party/FatFs/src/ff.c **** 
1892:Middlewares/Third_Party/FatFs/src/ff.c **** static
1893:Middlewares/Third_Party/FatFs/src/ff.c **** WORD xname_sum (		/* Get check sum (to be used as hash) of the name */
1894:Middlewares/Third_Party/FatFs/src/ff.c **** 	const WCHAR* name	/* File name to be calculated */
1895:Middlewares/Third_Party/FatFs/src/ff.c **** )
1896:Middlewares/Third_Party/FatFs/src/ff.c **** {
1897:Middlewares/Third_Party/FatFs/src/ff.c **** 	WCHAR chr;
1898:Middlewares/Third_Party/FatFs/src/ff.c **** 	WORD sum = 0;
1899:Middlewares/Third_Party/FatFs/src/ff.c **** 
1900:Middlewares/Third_Party/FatFs/src/ff.c **** 
1901:Middlewares/Third_Party/FatFs/src/ff.c **** 	while ((chr = *name++) != 0) {
1902:Middlewares/Third_Party/FatFs/src/ff.c **** 		chr = ff_wtoupper(chr);		/* File name needs to be ignored case */
1903:Middlewares/Third_Party/FatFs/src/ff.c **** 		sum = ((sum & 1) ? 0x8000 : 0) + (sum >> 1) + (chr & 0xFF);
1904:Middlewares/Third_Party/FatFs/src/ff.c **** 		sum = ((sum & 1) ? 0x8000 : 0) + (sum >> 1) + (chr >> 8);
1905:Middlewares/Third_Party/FatFs/src/ff.c **** 	}
1906:Middlewares/Third_Party/FatFs/src/ff.c **** 	return sum;
1907:Middlewares/Third_Party/FatFs/src/ff.c **** }
1908:Middlewares/Third_Party/FatFs/src/ff.c **** 
1909:Middlewares/Third_Party/FatFs/src/ff.c **** 
1910:Middlewares/Third_Party/FatFs/src/ff.c **** #if !_FS_READONLY && _USE_MKFS
1911:Middlewares/Third_Party/FatFs/src/ff.c **** static
1912:Middlewares/Third_Party/FatFs/src/ff.c **** DWORD xsum32 (
1913:Middlewares/Third_Party/FatFs/src/ff.c **** 	BYTE  dat,	/* Data to be sumed */
1914:Middlewares/Third_Party/FatFs/src/ff.c **** 	DWORD sum	/* Previous value */
1915:Middlewares/Third_Party/FatFs/src/ff.c **** )
1916:Middlewares/Third_Party/FatFs/src/ff.c **** {
1917:Middlewares/Third_Party/FatFs/src/ff.c **** 	sum = ((sum & 1) ? 0x80000000 : 0) + (sum >> 1) + dat;
1918:Middlewares/Third_Party/FatFs/src/ff.c **** 	return sum;
1919:Middlewares/Third_Party/FatFs/src/ff.c **** }
1920:Middlewares/Third_Party/FatFs/src/ff.c **** #endif
1921:Middlewares/Third_Party/FatFs/src/ff.c **** 
1922:Middlewares/Third_Party/FatFs/src/ff.c **** 
1923:Middlewares/Third_Party/FatFs/src/ff.c **** #if _FS_MINIMIZE <= 1 || _FS_RPATH >= 2
1924:Middlewares/Third_Party/FatFs/src/ff.c **** /*------------------------------------------------------*/
1925:Middlewares/Third_Party/FatFs/src/ff.c **** /* exFAT: Get object information from a directory block */
1926:Middlewares/Third_Party/FatFs/src/ff.c **** /*------------------------------------------------------*/
1927:Middlewares/Third_Party/FatFs/src/ff.c **** 
1928:Middlewares/Third_Party/FatFs/src/ff.c **** static
ARM GAS  C:\Users\zdy\AppData\Local\Temp\ccxXfRHS.s 			page 56


1929:Middlewares/Third_Party/FatFs/src/ff.c **** void get_xdir_info (
1930:Middlewares/Third_Party/FatFs/src/ff.c **** 	BYTE* dirb,			/* Pointer to the direcotry entry block 85+C0+C1s */
1931:Middlewares/Third_Party/FatFs/src/ff.c **** 	FILINFO* fno		/* Buffer to store the extracted file information */
1932:Middlewares/Third_Party/FatFs/src/ff.c **** )
1933:Middlewares/Third_Party/FatFs/src/ff.c **** {
1934:Middlewares/Third_Party/FatFs/src/ff.c **** 	UINT di, si;
1935:Middlewares/Third_Party/FatFs/src/ff.c **** 	WCHAR w;
1936:Middlewares/Third_Party/FatFs/src/ff.c **** #if !_LFN_UNICODE
1937:Middlewares/Third_Party/FatFs/src/ff.c **** 	UINT nc;
1938:Middlewares/Third_Party/FatFs/src/ff.c **** #endif
1939:Middlewares/Third_Party/FatFs/src/ff.c **** 
1940:Middlewares/Third_Party/FatFs/src/ff.c **** 	/* Get file name */
1941:Middlewares/Third_Party/FatFs/src/ff.c **** 	di = 0;
1942:Middlewares/Third_Party/FatFs/src/ff.c **** #if _LFN_UNICODE
1943:Middlewares/Third_Party/FatFs/src/ff.c **** 	for (si = SZDIRE * 2; di < dirb[XDIR_NumName]; si += 2, di++) {
1944:Middlewares/Third_Party/FatFs/src/ff.c **** 		if ((si % SZDIRE) == 0) si += 2;		/* Skip entry type field */
1945:Middlewares/Third_Party/FatFs/src/ff.c **** 		w = ld_word(dirb + si);					/* Get a character */
1946:Middlewares/Third_Party/FatFs/src/ff.c **** 		if (di >= _MAX_LFN) { di = 0; break; }	/* Buffer overflow --> inaccessible object name */
1947:Middlewares/Third_Party/FatFs/src/ff.c **** 		fno->fname[di] = w;						/* Store it */
1948:Middlewares/Third_Party/FatFs/src/ff.c **** 	}
1949:Middlewares/Third_Party/FatFs/src/ff.c **** #else
1950:Middlewares/Third_Party/FatFs/src/ff.c **** 	for (si = SZDIRE * 2, nc = 0; nc < dirb[XDIR_NumName]; si += 2, nc++) {
1951:Middlewares/Third_Party/FatFs/src/ff.c **** 		if ((si % SZDIRE) == 0) si += 2;		/* Skip entry type field */
1952:Middlewares/Third_Party/FatFs/src/ff.c **** 		w = ff_convert(ld_word(dirb + si), 0);	/* Get a character and Unicode -> OEM */
1953:Middlewares/Third_Party/FatFs/src/ff.c **** 		if (_DF1S && w >= 0x100) {				/* Is it a double byte char? (always false at SBCS cfg) */
1954:Middlewares/Third_Party/FatFs/src/ff.c **** 			fno->fname[di++] = (char)(w >> 8);	/* Put 1st byte of the DBC */
1955:Middlewares/Third_Party/FatFs/src/ff.c **** 		}
1956:Middlewares/Third_Party/FatFs/src/ff.c **** 		if (w == 0 || di >= _MAX_LFN) { di = 0; break; }	/* Invalid char or buffer overflow --> inaccessi
1957:Middlewares/Third_Party/FatFs/src/ff.c **** 		fno->fname[di++] = (char)w;
1958:Middlewares/Third_Party/FatFs/src/ff.c **** 	}
1959:Middlewares/Third_Party/FatFs/src/ff.c **** #endif
1960:Middlewares/Third_Party/FatFs/src/ff.c **** 	if (di == 0) fno->fname[di++] = '?';	/* Inaccessible object name? */
1961:Middlewares/Third_Party/FatFs/src/ff.c **** 	fno->fname[di] = 0;						/* Terminate file name */
1962:Middlewares/Third_Party/FatFs/src/ff.c **** 
1963:Middlewares/Third_Party/FatFs/src/ff.c **** 	fno->altname[0] = 0;							/* No SFN */
1964:Middlewares/Third_Party/FatFs/src/ff.c **** 	fno->fattrib = dirb[XDIR_Attr];					/* Attribute */
1965:Middlewares/Third_Party/FatFs/src/ff.c **** 	fno->fsize = (fno->fattrib & AM_DIR) ? 0 : ld_qword(dirb + XDIR_FileSize);	/* Size */
1966:Middlewares/Third_Party/FatFs/src/ff.c **** 	fno->ftime = ld_word(dirb + XDIR_ModTime + 0);	/* Time */
1967:Middlewares/Third_Party/FatFs/src/ff.c **** 	fno->fdate = ld_word(dirb + XDIR_ModTime + 2);	/* Date */
1968:Middlewares/Third_Party/FatFs/src/ff.c **** }
1969:Middlewares/Third_Party/FatFs/src/ff.c **** 
1970:Middlewares/Third_Party/FatFs/src/ff.c **** #endif	/* _FS_MINIMIZE <= 1 || _FS_RPATH >= 2 */
1971:Middlewares/Third_Party/FatFs/src/ff.c **** 
1972:Middlewares/Third_Party/FatFs/src/ff.c **** 
1973:Middlewares/Third_Party/FatFs/src/ff.c **** /*-----------------------------------*/
1974:Middlewares/Third_Party/FatFs/src/ff.c **** /* exFAT: Get a directry entry block */
1975:Middlewares/Third_Party/FatFs/src/ff.c **** /*-----------------------------------*/
1976:Middlewares/Third_Party/FatFs/src/ff.c **** 
1977:Middlewares/Third_Party/FatFs/src/ff.c **** static
1978:Middlewares/Third_Party/FatFs/src/ff.c **** FRESULT load_xdir (	/* FR_INT_ERR: invalid entry block */
1979:Middlewares/Third_Party/FatFs/src/ff.c **** 	DIR* dp			/* Pointer to the reading direcotry object pointing the 85 entry */
1980:Middlewares/Third_Party/FatFs/src/ff.c **** )
1981:Middlewares/Third_Party/FatFs/src/ff.c **** {
1982:Middlewares/Third_Party/FatFs/src/ff.c **** 	FRESULT res;
1983:Middlewares/Third_Party/FatFs/src/ff.c **** 	UINT i, sz_ent;
1984:Middlewares/Third_Party/FatFs/src/ff.c **** 	BYTE* dirb = dp->obj.fs->dirbuf;	/* Pointer to the on-memory direcotry entry block 85+C0+C1s */
1985:Middlewares/Third_Party/FatFs/src/ff.c **** 
ARM GAS  C:\Users\zdy\AppData\Local\Temp\ccxXfRHS.s 			page 57


1986:Middlewares/Third_Party/FatFs/src/ff.c **** 
1987:Middlewares/Third_Party/FatFs/src/ff.c **** 	/* Load 85 entry */
1988:Middlewares/Third_Party/FatFs/src/ff.c **** 	res = move_window(dp->obj.fs, dp->sect);
1989:Middlewares/Third_Party/FatFs/src/ff.c **** 	if (res != FR_OK) return res;
1990:Middlewares/Third_Party/FatFs/src/ff.c **** 	if (dp->dir[XDIR_Type] != 0x85) return FR_INT_ERR;
1991:Middlewares/Third_Party/FatFs/src/ff.c **** 	mem_cpy(dirb + 0, dp->dir, SZDIRE);
1992:Middlewares/Third_Party/FatFs/src/ff.c **** 	sz_ent = (dirb[XDIR_NumSec] + 1) * SZDIRE;
1993:Middlewares/Third_Party/FatFs/src/ff.c **** 	if (sz_ent < 3 * SZDIRE || sz_ent > 19 * SZDIRE) return FR_INT_ERR;
1994:Middlewares/Third_Party/FatFs/src/ff.c **** 
1995:Middlewares/Third_Party/FatFs/src/ff.c **** 	/* Load C0 entry */
1996:Middlewares/Third_Party/FatFs/src/ff.c **** 	res = dir_next(dp, 0);
1997:Middlewares/Third_Party/FatFs/src/ff.c **** 	if (res != FR_OK) return res;
1998:Middlewares/Third_Party/FatFs/src/ff.c **** 	res = move_window(dp->obj.fs, dp->sect);
1999:Middlewares/Third_Party/FatFs/src/ff.c **** 	if (res != FR_OK) return res;
2000:Middlewares/Third_Party/FatFs/src/ff.c **** 	if (dp->dir[XDIR_Type] != 0xC0) return FR_INT_ERR;
2001:Middlewares/Third_Party/FatFs/src/ff.c **** 	mem_cpy(dirb + SZDIRE, dp->dir, SZDIRE);
2002:Middlewares/Third_Party/FatFs/src/ff.c **** 	if (MAXDIRB(dirb[XDIR_NumName]) > sz_ent) return FR_INT_ERR;
2003:Middlewares/Third_Party/FatFs/src/ff.c **** 
2004:Middlewares/Third_Party/FatFs/src/ff.c **** 	/* Load C1 entries */
2005:Middlewares/Third_Party/FatFs/src/ff.c **** 	i = SZDIRE * 2;	/* C1 offset */
2006:Middlewares/Third_Party/FatFs/src/ff.c **** 	do {
2007:Middlewares/Third_Party/FatFs/src/ff.c **** 		res = dir_next(dp, 0);
2008:Middlewares/Third_Party/FatFs/src/ff.c **** 		if (res != FR_OK) return res;
2009:Middlewares/Third_Party/FatFs/src/ff.c **** 		res = move_window(dp->obj.fs, dp->sect);
2010:Middlewares/Third_Party/FatFs/src/ff.c **** 		if (res != FR_OK) return res;
2011:Middlewares/Third_Party/FatFs/src/ff.c **** 		if (dp->dir[XDIR_Type] != 0xC1) return FR_INT_ERR;
2012:Middlewares/Third_Party/FatFs/src/ff.c **** 		if (i < MAXDIRB(_MAX_LFN)) mem_cpy(dirb + i, dp->dir, SZDIRE);
2013:Middlewares/Third_Party/FatFs/src/ff.c **** 	} while ((i += SZDIRE) < sz_ent);
2014:Middlewares/Third_Party/FatFs/src/ff.c **** 
2015:Middlewares/Third_Party/FatFs/src/ff.c **** 	/* Sanity check (do it when accessible object name) */
2016:Middlewares/Third_Party/FatFs/src/ff.c **** 	if (i <= MAXDIRB(_MAX_LFN)) {
2017:Middlewares/Third_Party/FatFs/src/ff.c **** 		if (xdir_sum(dirb) != ld_word(dirb + XDIR_SetSum)) return FR_INT_ERR;
2018:Middlewares/Third_Party/FatFs/src/ff.c **** 	}
2019:Middlewares/Third_Party/FatFs/src/ff.c **** 	return FR_OK;
2020:Middlewares/Third_Party/FatFs/src/ff.c **** }
2021:Middlewares/Third_Party/FatFs/src/ff.c **** 
2022:Middlewares/Third_Party/FatFs/src/ff.c **** 
2023:Middlewares/Third_Party/FatFs/src/ff.c **** #if !_FS_READONLY || _FS_RPATH != 0
2024:Middlewares/Third_Party/FatFs/src/ff.c **** /*------------------------------------------------*/
2025:Middlewares/Third_Party/FatFs/src/ff.c **** /* exFAT: Load the object's directory entry block */
2026:Middlewares/Third_Party/FatFs/src/ff.c **** /*------------------------------------------------*/
2027:Middlewares/Third_Party/FatFs/src/ff.c **** static
2028:Middlewares/Third_Party/FatFs/src/ff.c **** FRESULT load_obj_dir (
2029:Middlewares/Third_Party/FatFs/src/ff.c **** 	DIR* dp,			/* Blank directory object to be used to access containing direcotry */
2030:Middlewares/Third_Party/FatFs/src/ff.c **** 	const _FDID* obj	/* Object with its containing directory information */
2031:Middlewares/Third_Party/FatFs/src/ff.c **** )
2032:Middlewares/Third_Party/FatFs/src/ff.c **** {
2033:Middlewares/Third_Party/FatFs/src/ff.c **** 	FRESULT res;
2034:Middlewares/Third_Party/FatFs/src/ff.c **** 
2035:Middlewares/Third_Party/FatFs/src/ff.c **** 	/* Open object containing directory */
2036:Middlewares/Third_Party/FatFs/src/ff.c **** 	dp->obj.fs = obj->fs;
2037:Middlewares/Third_Party/FatFs/src/ff.c **** 	dp->obj.sclust = obj->c_scl;
2038:Middlewares/Third_Party/FatFs/src/ff.c **** 	dp->obj.stat = (BYTE)obj->c_size;
2039:Middlewares/Third_Party/FatFs/src/ff.c **** 	dp->obj.objsize = obj->c_size & 0xFFFFFF00;
2040:Middlewares/Third_Party/FatFs/src/ff.c **** 	dp->blk_ofs = obj->c_ofs;
2041:Middlewares/Third_Party/FatFs/src/ff.c **** 
2042:Middlewares/Third_Party/FatFs/src/ff.c **** 	res = dir_sdi(dp, dp->blk_ofs);	/* Goto object's entry block */
ARM GAS  C:\Users\zdy\AppData\Local\Temp\ccxXfRHS.s 			page 58


2043:Middlewares/Third_Party/FatFs/src/ff.c **** 	if (res == FR_OK) {
2044:Middlewares/Third_Party/FatFs/src/ff.c **** 		res = load_xdir(dp);		/* Load the object's entry block */
2045:Middlewares/Third_Party/FatFs/src/ff.c **** 	}
2046:Middlewares/Third_Party/FatFs/src/ff.c **** 	return res;
2047:Middlewares/Third_Party/FatFs/src/ff.c **** }
2048:Middlewares/Third_Party/FatFs/src/ff.c **** #endif
2049:Middlewares/Third_Party/FatFs/src/ff.c **** 
2050:Middlewares/Third_Party/FatFs/src/ff.c **** 
2051:Middlewares/Third_Party/FatFs/src/ff.c **** #if !_FS_READONLY
2052:Middlewares/Third_Party/FatFs/src/ff.c **** /*-----------------------------------------------*/
2053:Middlewares/Third_Party/FatFs/src/ff.c **** /* exFAT: Store the directory block to the media */
2054:Middlewares/Third_Party/FatFs/src/ff.c **** /*-----------------------------------------------*/
2055:Middlewares/Third_Party/FatFs/src/ff.c **** static
2056:Middlewares/Third_Party/FatFs/src/ff.c **** FRESULT store_xdir (
2057:Middlewares/Third_Party/FatFs/src/ff.c **** 	DIR* dp				/* Pointer to the direcotry object */
2058:Middlewares/Third_Party/FatFs/src/ff.c **** )
2059:Middlewares/Third_Party/FatFs/src/ff.c **** {
2060:Middlewares/Third_Party/FatFs/src/ff.c **** 	FRESULT res;
2061:Middlewares/Third_Party/FatFs/src/ff.c **** 	UINT nent;
2062:Middlewares/Third_Party/FatFs/src/ff.c **** 	BYTE* dirb = dp->obj.fs->dirbuf;	/* Pointer to the direcotry entry block 85+C0+C1s */
2063:Middlewares/Third_Party/FatFs/src/ff.c **** 
2064:Middlewares/Third_Party/FatFs/src/ff.c **** 	/* Create set sum */
2065:Middlewares/Third_Party/FatFs/src/ff.c **** 	st_word(dirb + XDIR_SetSum, xdir_sum(dirb));
2066:Middlewares/Third_Party/FatFs/src/ff.c **** 	nent = dirb[XDIR_NumSec] + 1;
2067:Middlewares/Third_Party/FatFs/src/ff.c **** 
2068:Middlewares/Third_Party/FatFs/src/ff.c **** 	/* Store the set of directory to the volume */
2069:Middlewares/Third_Party/FatFs/src/ff.c **** 	res = dir_sdi(dp, dp->blk_ofs);
2070:Middlewares/Third_Party/FatFs/src/ff.c **** 	while (res == FR_OK) {
2071:Middlewares/Third_Party/FatFs/src/ff.c **** 		res = move_window(dp->obj.fs, dp->sect);
2072:Middlewares/Third_Party/FatFs/src/ff.c **** 		if (res != FR_OK) break;
2073:Middlewares/Third_Party/FatFs/src/ff.c **** 		mem_cpy(dp->dir, dirb, SZDIRE);
2074:Middlewares/Third_Party/FatFs/src/ff.c **** 		dp->obj.fs->wflag = 1;
2075:Middlewares/Third_Party/FatFs/src/ff.c **** 		if (--nent == 0) break;
2076:Middlewares/Third_Party/FatFs/src/ff.c **** 		dirb += SZDIRE;
2077:Middlewares/Third_Party/FatFs/src/ff.c **** 		res = dir_next(dp, 0);
2078:Middlewares/Third_Party/FatFs/src/ff.c **** 	}
2079:Middlewares/Third_Party/FatFs/src/ff.c **** 	return (res == FR_OK || res == FR_DISK_ERR) ? res : FR_INT_ERR;
2080:Middlewares/Third_Party/FatFs/src/ff.c **** }
2081:Middlewares/Third_Party/FatFs/src/ff.c **** 
2082:Middlewares/Third_Party/FatFs/src/ff.c **** 
2083:Middlewares/Third_Party/FatFs/src/ff.c **** 
2084:Middlewares/Third_Party/FatFs/src/ff.c **** /*-------------------------------------------*/
2085:Middlewares/Third_Party/FatFs/src/ff.c **** /* exFAT: Create a new directory enrty block */
2086:Middlewares/Third_Party/FatFs/src/ff.c **** /*-------------------------------------------*/
2087:Middlewares/Third_Party/FatFs/src/ff.c **** 
2088:Middlewares/Third_Party/FatFs/src/ff.c **** static
2089:Middlewares/Third_Party/FatFs/src/ff.c **** void create_xdir (
2090:Middlewares/Third_Party/FatFs/src/ff.c **** 	BYTE* dirb,			/* Pointer to the direcotry entry block buffer */
2091:Middlewares/Third_Party/FatFs/src/ff.c **** 	const WCHAR* lfn	/* Pointer to the nul terminated file name */
2092:Middlewares/Third_Party/FatFs/src/ff.c **** )
2093:Middlewares/Third_Party/FatFs/src/ff.c **** {
2094:Middlewares/Third_Party/FatFs/src/ff.c **** 	UINT i;
2095:Middlewares/Third_Party/FatFs/src/ff.c **** 	BYTE nb, nc;
2096:Middlewares/Third_Party/FatFs/src/ff.c **** 	WCHAR chr;
2097:Middlewares/Third_Party/FatFs/src/ff.c **** 
2098:Middlewares/Third_Party/FatFs/src/ff.c **** 
2099:Middlewares/Third_Party/FatFs/src/ff.c **** 	/* Create 85+C0 entry */
ARM GAS  C:\Users\zdy\AppData\Local\Temp\ccxXfRHS.s 			page 59


2100:Middlewares/Third_Party/FatFs/src/ff.c **** 	mem_set(dirb, 0, 2 * SZDIRE);
2101:Middlewares/Third_Party/FatFs/src/ff.c **** 	dirb[XDIR_Type] = 0x85;
2102:Middlewares/Third_Party/FatFs/src/ff.c **** 	dirb[XDIR_Type + SZDIRE] = 0xC0;
2103:Middlewares/Third_Party/FatFs/src/ff.c **** 
2104:Middlewares/Third_Party/FatFs/src/ff.c **** 	/* Create C1 entries */
2105:Middlewares/Third_Party/FatFs/src/ff.c **** 	nc = 0; nb = 1; chr = 1; i = SZDIRE * 2;
2106:Middlewares/Third_Party/FatFs/src/ff.c **** 	do {
2107:Middlewares/Third_Party/FatFs/src/ff.c **** 		dirb[i++] = 0xC1; dirb[i++] = 0;	/* Entry type C1 */
2108:Middlewares/Third_Party/FatFs/src/ff.c **** 		do {	/* Fill name field */
2109:Middlewares/Third_Party/FatFs/src/ff.c **** 			if (chr && (chr = lfn[nc]) != 0) nc++;	/* Get a character if exist */
2110:Middlewares/Third_Party/FatFs/src/ff.c **** 			st_word(dirb + i, chr); 		/* Store it */
2111:Middlewares/Third_Party/FatFs/src/ff.c **** 		} while ((i += 2) % SZDIRE != 0);
2112:Middlewares/Third_Party/FatFs/src/ff.c **** 		nb++;
2113:Middlewares/Third_Party/FatFs/src/ff.c **** 	} while (lfn[nc]);	/* Fill next entry if any char follows */
2114:Middlewares/Third_Party/FatFs/src/ff.c **** 
2115:Middlewares/Third_Party/FatFs/src/ff.c **** 	dirb[XDIR_NumName] = nc;	/* Set name length */
2116:Middlewares/Third_Party/FatFs/src/ff.c **** 	dirb[XDIR_NumSec] = nb;		/* Set block length */
2117:Middlewares/Third_Party/FatFs/src/ff.c **** 	st_word(dirb + XDIR_NameHash, xname_sum(lfn));	/* Set name hash */
2118:Middlewares/Third_Party/FatFs/src/ff.c **** }
2119:Middlewares/Third_Party/FatFs/src/ff.c **** 
2120:Middlewares/Third_Party/FatFs/src/ff.c **** #endif	/* !_FS_READONLY */
2121:Middlewares/Third_Party/FatFs/src/ff.c **** #endif	/* _FS_EXFAT */
2122:Middlewares/Third_Party/FatFs/src/ff.c **** 
2123:Middlewares/Third_Party/FatFs/src/ff.c **** 
2124:Middlewares/Third_Party/FatFs/src/ff.c **** 
2125:Middlewares/Third_Party/FatFs/src/ff.c **** #if _FS_MINIMIZE <= 1 || _FS_RPATH >= 2 || _USE_LABEL || _FS_EXFAT
2126:Middlewares/Third_Party/FatFs/src/ff.c **** /*-----------------------------------------------------------------------*/
2127:Middlewares/Third_Party/FatFs/src/ff.c **** /* Read an object from the directory                                     */
2128:Middlewares/Third_Party/FatFs/src/ff.c **** /*-----------------------------------------------------------------------*/
2129:Middlewares/Third_Party/FatFs/src/ff.c **** 
2130:Middlewares/Third_Party/FatFs/src/ff.c **** static
2131:Middlewares/Third_Party/FatFs/src/ff.c **** FRESULT dir_read (
2132:Middlewares/Third_Party/FatFs/src/ff.c **** 	DIR* dp,		/* Pointer to the directory object */
2133:Middlewares/Third_Party/FatFs/src/ff.c **** 	int vol			/* Filtered by 0:file/directory or 1:volume label */
2134:Middlewares/Third_Party/FatFs/src/ff.c **** )
2135:Middlewares/Third_Party/FatFs/src/ff.c **** {
2136:Middlewares/Third_Party/FatFs/src/ff.c **** 	FRESULT res = FR_NO_FILE;
2137:Middlewares/Third_Party/FatFs/src/ff.c **** 	FATFS *fs = dp->obj.fs;
2138:Middlewares/Third_Party/FatFs/src/ff.c **** 	BYTE a, c;
2139:Middlewares/Third_Party/FatFs/src/ff.c **** #if _USE_LFN != 0
2140:Middlewares/Third_Party/FatFs/src/ff.c **** 	BYTE ord = 0xFF, sum = 0xFF;
2141:Middlewares/Third_Party/FatFs/src/ff.c **** #endif
2142:Middlewares/Third_Party/FatFs/src/ff.c **** 
2143:Middlewares/Third_Party/FatFs/src/ff.c **** 	while (dp->sect) {
2144:Middlewares/Third_Party/FatFs/src/ff.c **** 		res = move_window(fs, dp->sect);
2145:Middlewares/Third_Party/FatFs/src/ff.c **** 		if (res != FR_OK) break;
2146:Middlewares/Third_Party/FatFs/src/ff.c **** 		c = dp->dir[DIR_Name];	/* Test for the entry type */
2147:Middlewares/Third_Party/FatFs/src/ff.c **** 		if (c == 0) {
2148:Middlewares/Third_Party/FatFs/src/ff.c **** 			res = FR_NO_FILE; break; /* Reached to end of the directory */
2149:Middlewares/Third_Party/FatFs/src/ff.c **** 		}
2150:Middlewares/Third_Party/FatFs/src/ff.c **** #if _FS_EXFAT
2151:Middlewares/Third_Party/FatFs/src/ff.c **** 		if (fs->fs_type == FS_EXFAT) {	/* On the exFAT volume */
2152:Middlewares/Third_Party/FatFs/src/ff.c **** 			if (_USE_LABEL && vol) {
2153:Middlewares/Third_Party/FatFs/src/ff.c **** 				if (c == 0x83) break;	/* Volume label entry? */
2154:Middlewares/Third_Party/FatFs/src/ff.c **** 			} else {
2155:Middlewares/Third_Party/FatFs/src/ff.c **** 				if (c == 0x85) {		/* Start of the file entry block? */
2156:Middlewares/Third_Party/FatFs/src/ff.c **** 					dp->blk_ofs = dp->dptr;	/* Get location of the block */
ARM GAS  C:\Users\zdy\AppData\Local\Temp\ccxXfRHS.s 			page 60


2157:Middlewares/Third_Party/FatFs/src/ff.c **** 					res = load_xdir(dp);	/* Load the entry block */
2158:Middlewares/Third_Party/FatFs/src/ff.c **** 					if (res == FR_OK) {
2159:Middlewares/Third_Party/FatFs/src/ff.c **** 						dp->obj.attr = fs->dirbuf[XDIR_Attr] & AM_MASK;	/* Get attribute */
2160:Middlewares/Third_Party/FatFs/src/ff.c **** 					}
2161:Middlewares/Third_Party/FatFs/src/ff.c **** 					break;
2162:Middlewares/Third_Party/FatFs/src/ff.c **** 				}
2163:Middlewares/Third_Party/FatFs/src/ff.c **** 			}
2164:Middlewares/Third_Party/FatFs/src/ff.c **** 		} else
2165:Middlewares/Third_Party/FatFs/src/ff.c **** #endif
2166:Middlewares/Third_Party/FatFs/src/ff.c **** 		{	/* On the FAT12/16/32 volume */
2167:Middlewares/Third_Party/FatFs/src/ff.c **** 			dp->obj.attr = a = dp->dir[DIR_Attr] & AM_MASK;	/* Get attribute */
2168:Middlewares/Third_Party/FatFs/src/ff.c **** #if _USE_LFN != 0	/* LFN configuration */
2169:Middlewares/Third_Party/FatFs/src/ff.c **** 			if (c == DDEM || c == '.' || (int)((a & ~AM_ARC) == AM_VOL) != vol) {	/* An entry without valid 
2170:Middlewares/Third_Party/FatFs/src/ff.c **** 				ord = 0xFF;
2171:Middlewares/Third_Party/FatFs/src/ff.c **** 			} else {
2172:Middlewares/Third_Party/FatFs/src/ff.c **** 				if (a == AM_LFN) {			/* An LFN entry is found */
2173:Middlewares/Third_Party/FatFs/src/ff.c **** 					if (c & LLEF) {			/* Is it start of an LFN sequence? */
2174:Middlewares/Third_Party/FatFs/src/ff.c **** 						sum = dp->dir[LDIR_Chksum];
2175:Middlewares/Third_Party/FatFs/src/ff.c **** 						c &= (BYTE)~LLEF; ord = c;
2176:Middlewares/Third_Party/FatFs/src/ff.c **** 						dp->blk_ofs = dp->dptr;
2177:Middlewares/Third_Party/FatFs/src/ff.c **** 					}
2178:Middlewares/Third_Party/FatFs/src/ff.c **** 					/* Check LFN validity and capture it */
2179:Middlewares/Third_Party/FatFs/src/ff.c **** 					ord = (c == ord && sum == dp->dir[LDIR_Chksum] && pick_lfn(fs->lfnbuf, dp->dir)) ? ord - 1 : 0
2180:Middlewares/Third_Party/FatFs/src/ff.c **** 				} else {					/* An SFN entry is found */
2181:Middlewares/Third_Party/FatFs/src/ff.c **** 					if (ord || sum != sum_sfn(dp->dir)) {	/* Is there a valid LFN? */
2182:Middlewares/Third_Party/FatFs/src/ff.c **** 						dp->blk_ofs = 0xFFFFFFFF;			/* It has no LFN. */
2183:Middlewares/Third_Party/FatFs/src/ff.c **** 					}
2184:Middlewares/Third_Party/FatFs/src/ff.c **** 					break;
2185:Middlewares/Third_Party/FatFs/src/ff.c **** 				}
2186:Middlewares/Third_Party/FatFs/src/ff.c **** 			}
2187:Middlewares/Third_Party/FatFs/src/ff.c **** #else		/* Non LFN configuration */
2188:Middlewares/Third_Party/FatFs/src/ff.c **** 			if (c != DDEM && c != '.' && a != AM_LFN && (int)((a & ~AM_ARC) == AM_VOL) == vol) {	/* Is it a 
2189:Middlewares/Third_Party/FatFs/src/ff.c **** 				break;
2190:Middlewares/Third_Party/FatFs/src/ff.c **** 			}
2191:Middlewares/Third_Party/FatFs/src/ff.c **** #endif
2192:Middlewares/Third_Party/FatFs/src/ff.c **** 		}
2193:Middlewares/Third_Party/FatFs/src/ff.c **** 		res = dir_next(dp, 0);		/* Next entry */
2194:Middlewares/Third_Party/FatFs/src/ff.c **** 		if (res != FR_OK) break;
2195:Middlewares/Third_Party/FatFs/src/ff.c **** 	}
2196:Middlewares/Third_Party/FatFs/src/ff.c **** 
2197:Middlewares/Third_Party/FatFs/src/ff.c **** 	if (res != FR_OK) dp->sect = 0;		/* Terminate the read operation on error or EOT */
2198:Middlewares/Third_Party/FatFs/src/ff.c **** 	return res;
2199:Middlewares/Third_Party/FatFs/src/ff.c **** }
2200:Middlewares/Third_Party/FatFs/src/ff.c **** 
2201:Middlewares/Third_Party/FatFs/src/ff.c **** #endif	/* _FS_MINIMIZE <= 1 || _USE_LABEL || _FS_RPATH >= 2 */
2202:Middlewares/Third_Party/FatFs/src/ff.c **** 
2203:Middlewares/Third_Party/FatFs/src/ff.c **** 
2204:Middlewares/Third_Party/FatFs/src/ff.c **** 
2205:Middlewares/Third_Party/FatFs/src/ff.c **** /*-----------------------------------------------------------------------*/
2206:Middlewares/Third_Party/FatFs/src/ff.c **** /* Directory handling - Find an object in the directory                  */
2207:Middlewares/Third_Party/FatFs/src/ff.c **** /*-----------------------------------------------------------------------*/
2208:Middlewares/Third_Party/FatFs/src/ff.c **** 
2209:Middlewares/Third_Party/FatFs/src/ff.c **** static
2210:Middlewares/Third_Party/FatFs/src/ff.c **** FRESULT dir_find (	/* FR_OK(0):succeeded, !=0:error */
2211:Middlewares/Third_Party/FatFs/src/ff.c **** 	DIR* dp			/* Pointer to the directory object with the file name */
2212:Middlewares/Third_Party/FatFs/src/ff.c **** )
2213:Middlewares/Third_Party/FatFs/src/ff.c **** {
ARM GAS  C:\Users\zdy\AppData\Local\Temp\ccxXfRHS.s 			page 61


2214:Middlewares/Third_Party/FatFs/src/ff.c **** 	FRESULT res;
2215:Middlewares/Third_Party/FatFs/src/ff.c **** 	FATFS *fs = dp->obj.fs;
2216:Middlewares/Third_Party/FatFs/src/ff.c **** 	BYTE c;
2217:Middlewares/Third_Party/FatFs/src/ff.c **** #if _USE_LFN != 0
2218:Middlewares/Third_Party/FatFs/src/ff.c **** 	BYTE a, ord, sum;
2219:Middlewares/Third_Party/FatFs/src/ff.c **** #endif
2220:Middlewares/Third_Party/FatFs/src/ff.c **** 
2221:Middlewares/Third_Party/FatFs/src/ff.c **** 	res = dir_sdi(dp, 0);			/* Rewind directory object */
2222:Middlewares/Third_Party/FatFs/src/ff.c **** 	if (res != FR_OK) return res;
2223:Middlewares/Third_Party/FatFs/src/ff.c **** #if _FS_EXFAT
2224:Middlewares/Third_Party/FatFs/src/ff.c **** 	if (fs->fs_type == FS_EXFAT) {	/* On the exFAT volume */
2225:Middlewares/Third_Party/FatFs/src/ff.c **** 		BYTE nc;
2226:Middlewares/Third_Party/FatFs/src/ff.c **** 		UINT di, ni;
2227:Middlewares/Third_Party/FatFs/src/ff.c **** 		WORD hash = xname_sum(fs->lfnbuf);		/* Hash value of the name to find */
2228:Middlewares/Third_Party/FatFs/src/ff.c **** 
2229:Middlewares/Third_Party/FatFs/src/ff.c **** 		while ((res = dir_read(dp, 0)) == FR_OK) {	/* Read an item */
2230:Middlewares/Third_Party/FatFs/src/ff.c **** #if _MAX_LFN < 255
2231:Middlewares/Third_Party/FatFs/src/ff.c **** 			if (fs->dirbuf[XDIR_NumName] > _MAX_LFN) continue;			/* Skip comparison if inaccessible object n
2232:Middlewares/Third_Party/FatFs/src/ff.c **** #endif
2233:Middlewares/Third_Party/FatFs/src/ff.c **** 			if (ld_word(fs->dirbuf + XDIR_NameHash) != hash) continue;	/* Skip comparison if hash mismatched
2234:Middlewares/Third_Party/FatFs/src/ff.c **** 			for (nc = fs->dirbuf[XDIR_NumName], di = SZDIRE * 2, ni = 0; nc; nc--, di += 2, ni++) {	/* Compa
2235:Middlewares/Third_Party/FatFs/src/ff.c **** 				if ((di % SZDIRE) == 0) di += 2;
2236:Middlewares/Third_Party/FatFs/src/ff.c **** 				if (ff_wtoupper(ld_word(fs->dirbuf + di)) != ff_wtoupper(fs->lfnbuf[ni])) break;
2237:Middlewares/Third_Party/FatFs/src/ff.c **** 			}
2238:Middlewares/Third_Party/FatFs/src/ff.c **** 			if (nc == 0 && !fs->lfnbuf[ni]) break;	/* Name matched? */
2239:Middlewares/Third_Party/FatFs/src/ff.c **** 		}
2240:Middlewares/Third_Party/FatFs/src/ff.c **** 		return res;
2241:Middlewares/Third_Party/FatFs/src/ff.c **** 	}
2242:Middlewares/Third_Party/FatFs/src/ff.c **** #endif
2243:Middlewares/Third_Party/FatFs/src/ff.c **** 	/* On the FAT12/16/32 volume */
2244:Middlewares/Third_Party/FatFs/src/ff.c **** #if _USE_LFN != 0
2245:Middlewares/Third_Party/FatFs/src/ff.c **** 	ord = sum = 0xFF; dp->blk_ofs = 0xFFFFFFFF;	/* Reset LFN sequence */
2246:Middlewares/Third_Party/FatFs/src/ff.c **** #endif
2247:Middlewares/Third_Party/FatFs/src/ff.c **** 	do {
2248:Middlewares/Third_Party/FatFs/src/ff.c **** 		res = move_window(fs, dp->sect);
2249:Middlewares/Third_Party/FatFs/src/ff.c **** 		if (res != FR_OK) break;
2250:Middlewares/Third_Party/FatFs/src/ff.c **** 		c = dp->dir[DIR_Name];
2251:Middlewares/Third_Party/FatFs/src/ff.c **** 		if (c == 0) { res = FR_NO_FILE; break; }	/* Reached to end of table */
2252:Middlewares/Third_Party/FatFs/src/ff.c **** #if _USE_LFN != 0	/* LFN configuration */
2253:Middlewares/Third_Party/FatFs/src/ff.c **** 		dp->obj.attr = a = dp->dir[DIR_Attr] & AM_MASK;
2254:Middlewares/Third_Party/FatFs/src/ff.c **** 		if (c == DDEM || ((a & AM_VOL) && a != AM_LFN)) {	/* An entry without valid data */
2255:Middlewares/Third_Party/FatFs/src/ff.c **** 			ord = 0xFF; dp->blk_ofs = 0xFFFFFFFF;	/* Reset LFN sequence */
2256:Middlewares/Third_Party/FatFs/src/ff.c **** 		} else {
2257:Middlewares/Third_Party/FatFs/src/ff.c **** 			if (a == AM_LFN) {			/* An LFN entry is found */
2258:Middlewares/Third_Party/FatFs/src/ff.c **** 				if (!(dp->fn[NSFLAG] & NS_NOLFN)) {
2259:Middlewares/Third_Party/FatFs/src/ff.c **** 					if (c & LLEF) {		/* Is it start of LFN sequence? */
2260:Middlewares/Third_Party/FatFs/src/ff.c **** 						sum = dp->dir[LDIR_Chksum];
2261:Middlewares/Third_Party/FatFs/src/ff.c **** 						c &= (BYTE)~LLEF; ord = c;	/* LFN start order */
2262:Middlewares/Third_Party/FatFs/src/ff.c **** 						dp->blk_ofs = dp->dptr;	/* Start offset of LFN */
2263:Middlewares/Third_Party/FatFs/src/ff.c **** 					}
2264:Middlewares/Third_Party/FatFs/src/ff.c **** 					/* Check validity of the LFN entry and compare it with given name */
2265:Middlewares/Third_Party/FatFs/src/ff.c **** 					ord = (c == ord && sum == dp->dir[LDIR_Chksum] && cmp_lfn(fs->lfnbuf, dp->dir)) ? ord - 1 : 0x
2266:Middlewares/Third_Party/FatFs/src/ff.c **** 				}
2267:Middlewares/Third_Party/FatFs/src/ff.c **** 			} else {					/* An SFN entry is found */
2268:Middlewares/Third_Party/FatFs/src/ff.c **** 				if (!ord && sum == sum_sfn(dp->dir)) break;	/* LFN matched? */
2269:Middlewares/Third_Party/FatFs/src/ff.c **** 				if (!(dp->fn[NSFLAG] & NS_LOSS) && !mem_cmp(dp->dir, dp->fn, 11)) break;	/* SFN matched? */
2270:Middlewares/Third_Party/FatFs/src/ff.c **** 				ord = 0xFF; dp->blk_ofs = 0xFFFFFFFF;	/* Reset LFN sequence */
ARM GAS  C:\Users\zdy\AppData\Local\Temp\ccxXfRHS.s 			page 62


2271:Middlewares/Third_Party/FatFs/src/ff.c **** 			}
2272:Middlewares/Third_Party/FatFs/src/ff.c **** 		}
2273:Middlewares/Third_Party/FatFs/src/ff.c **** #else		/* Non LFN configuration */
2274:Middlewares/Third_Party/FatFs/src/ff.c **** 		dp->obj.attr = dp->dir[DIR_Attr] & AM_MASK;
2275:Middlewares/Third_Party/FatFs/src/ff.c **** 		if (!(dp->dir[DIR_Attr] & AM_VOL) && !mem_cmp(dp->dir, dp->fn, 11)) break;	/* Is it a valid entry
2276:Middlewares/Third_Party/FatFs/src/ff.c **** #endif
2277:Middlewares/Third_Party/FatFs/src/ff.c **** 		res = dir_next(dp, 0);	/* Next entry */
2278:Middlewares/Third_Party/FatFs/src/ff.c **** 	} while (res == FR_OK);
2279:Middlewares/Third_Party/FatFs/src/ff.c **** 
2280:Middlewares/Third_Party/FatFs/src/ff.c **** 	return res;
2281:Middlewares/Third_Party/FatFs/src/ff.c **** }
2282:Middlewares/Third_Party/FatFs/src/ff.c **** 
2283:Middlewares/Third_Party/FatFs/src/ff.c **** 
2284:Middlewares/Third_Party/FatFs/src/ff.c **** 
2285:Middlewares/Third_Party/FatFs/src/ff.c **** 
2286:Middlewares/Third_Party/FatFs/src/ff.c **** #if !_FS_READONLY
2287:Middlewares/Third_Party/FatFs/src/ff.c **** /*-----------------------------------------------------------------------*/
2288:Middlewares/Third_Party/FatFs/src/ff.c **** /* Register an object to the directory                                   */
2289:Middlewares/Third_Party/FatFs/src/ff.c **** /*-----------------------------------------------------------------------*/
2290:Middlewares/Third_Party/FatFs/src/ff.c **** 
2291:Middlewares/Third_Party/FatFs/src/ff.c **** static
2292:Middlewares/Third_Party/FatFs/src/ff.c **** FRESULT dir_register (	/* FR_OK:succeeded, FR_DENIED:no free entry or too many SFN collision, FR_DI
2293:Middlewares/Third_Party/FatFs/src/ff.c **** 	DIR* dp				/* Target directory with object name to be created */
2294:Middlewares/Third_Party/FatFs/src/ff.c **** )
2295:Middlewares/Third_Party/FatFs/src/ff.c **** {
2296:Middlewares/Third_Party/FatFs/src/ff.c **** 	FRESULT res;
2297:Middlewares/Third_Party/FatFs/src/ff.c **** 	FATFS *fs = dp->obj.fs;
2298:Middlewares/Third_Party/FatFs/src/ff.c **** #if _USE_LFN != 0	/* LFN configuration */
2299:Middlewares/Third_Party/FatFs/src/ff.c **** 	UINT n, nlen, nent;
2300:Middlewares/Third_Party/FatFs/src/ff.c **** 	BYTE sn[12], sum;
2301:Middlewares/Third_Party/FatFs/src/ff.c **** 
2302:Middlewares/Third_Party/FatFs/src/ff.c **** 
2303:Middlewares/Third_Party/FatFs/src/ff.c **** 	if (dp->fn[NSFLAG] & (NS_DOT | NS_NONAME)) return FR_INVALID_NAME;	/* Check name validity */
2304:Middlewares/Third_Party/FatFs/src/ff.c **** 	for (nlen = 0; fs->lfnbuf[nlen]; nlen++) ;	/* Get lfn length */
2305:Middlewares/Third_Party/FatFs/src/ff.c **** 
2306:Middlewares/Third_Party/FatFs/src/ff.c **** #if _FS_EXFAT
2307:Middlewares/Third_Party/FatFs/src/ff.c **** 	if (fs->fs_type == FS_EXFAT) {	/* On the exFAT volume */
2308:Middlewares/Third_Party/FatFs/src/ff.c **** 		DIR dj;
2309:Middlewares/Third_Party/FatFs/src/ff.c **** 
2310:Middlewares/Third_Party/FatFs/src/ff.c **** 		nent = (nlen + 14) / 15 + 2;	/* Number of entries to allocate (85+C0+C1s) */
2311:Middlewares/Third_Party/FatFs/src/ff.c **** 		res = dir_alloc(dp, nent);		/* Allocate entries */
2312:Middlewares/Third_Party/FatFs/src/ff.c **** 		if (res != FR_OK) return res;
2313:Middlewares/Third_Party/FatFs/src/ff.c **** 		dp->blk_ofs = dp->dptr - SZDIRE * (nent - 1);	/* Set the allocated entry block offset */
2314:Middlewares/Third_Party/FatFs/src/ff.c **** 
