ARM GAS  C:\Users\zdy\AppData\Local\Temp\cckmpJrg.s 			page 1


   1              		.cpu cortex-m7
   2              		.arch armv7e-m
   3              		.fpu fpv5-d16
   4              		.eabi_attribute 28, 1
   5              		.eabi_attribute 20, 1
   6              		.eabi_attribute 21, 1
   7              		.eabi_attribute 23, 3
   8              		.eabi_attribute 24, 1
   9              		.eabi_attribute 25, 1
  10              		.eabi_attribute 26, 1
  11              		.eabi_attribute 30, 1
  12              		.eabi_attribute 34, 1
  13              		.eabi_attribute 18, 4
  14              		.file	"fs.c"
  15              		.text
  16              	.Ltext0:
  17              		.cfi_sections	.debug_frame
  18              		.section	.text.fs_open,"ax",%progbits
  19              		.align	1
  20              		.global	fs_open
  21              		.syntax unified
  22              		.thumb
  23              		.thumb_func
  25              	fs_open:
  26              	.LVL0:
  27              	.LFB359:
  28              		.file 1 "Middlewares/Third_Party/LwIP/src/apps/http/fs.c"
   1:Middlewares/Third_Party/LwIP/src/apps/http/fs.c **** /*
   2:Middlewares/Third_Party/LwIP/src/apps/http/fs.c ****  * Copyright (c) 2001-2003 Swedish Institute of Computer Science.
   3:Middlewares/Third_Party/LwIP/src/apps/http/fs.c ****  * All rights reserved.
   4:Middlewares/Third_Party/LwIP/src/apps/http/fs.c ****  *
   5:Middlewares/Third_Party/LwIP/src/apps/http/fs.c ****  * Redistribution and use in source and binary forms, with or without modification,
   6:Middlewares/Third_Party/LwIP/src/apps/http/fs.c ****  * are permitted provided that the following conditions are met:
   7:Middlewares/Third_Party/LwIP/src/apps/http/fs.c ****  *
   8:Middlewares/Third_Party/LwIP/src/apps/http/fs.c ****  * 1. Redistributions of source code must retain the above copyright notice,
   9:Middlewares/Third_Party/LwIP/src/apps/http/fs.c ****  *    this list of conditions and the following disclaimer.
  10:Middlewares/Third_Party/LwIP/src/apps/http/fs.c ****  * 2. Redistributions in binary form must reproduce the above copyright notice,
  11:Middlewares/Third_Party/LwIP/src/apps/http/fs.c ****  *    this list of conditions and the following disclaimer in the documentation
  12:Middlewares/Third_Party/LwIP/src/apps/http/fs.c ****  *    and/or other materials provided with the distribution.
  13:Middlewares/Third_Party/LwIP/src/apps/http/fs.c ****  * 3. The name of the author may not be used to endorse or promote products
  14:Middlewares/Third_Party/LwIP/src/apps/http/fs.c ****  *    derived from this software without specific prior written permission.
  15:Middlewares/Third_Party/LwIP/src/apps/http/fs.c ****  *
  16:Middlewares/Third_Party/LwIP/src/apps/http/fs.c ****  * THIS SOFTWARE IS PROVIDED BY THE AUTHOR ``AS IS'' AND ANY EXPRESS OR IMPLIED
  17:Middlewares/Third_Party/LwIP/src/apps/http/fs.c ****  * WARRANTIES, INCLUDING, BUT NOT LIMITED TO, THE IMPLIED WARRANTIES OF
  18:Middlewares/Third_Party/LwIP/src/apps/http/fs.c ****  * MERCHANTABILITY AND FITNESS FOR A PARTICULAR PURPOSE ARE DISCLAIMED. IN NO EVENT
  19:Middlewares/Third_Party/LwIP/src/apps/http/fs.c ****  * SHALL THE AUTHOR BE LIABLE FOR ANY DIRECT, INDIRECT, INCIDENTAL, SPECIAL,
  20:Middlewares/Third_Party/LwIP/src/apps/http/fs.c ****  * EXEMPLARY, OR CONSEQUENTIAL DAMAGES (INCLUDING, BUT NOT LIMITED TO, PROCUREMENT
  21:Middlewares/Third_Party/LwIP/src/apps/http/fs.c ****  * OF SUBSTITUTE GOODS OR SERVICES; LOSS OF USE, DATA, OR PROFITS; OR BUSINESS
  22:Middlewares/Third_Party/LwIP/src/apps/http/fs.c ****  * INTERRUPTION) HOWEVER CAUSED AND ON ANY THEORY OF LIABILITY, WHETHER IN
  23:Middlewares/Third_Party/LwIP/src/apps/http/fs.c ****  * CONTRACT, STRICT LIABILITY, OR TORT (INCLUDING NEGLIGENCE OR OTHERWISE) ARISING
  24:Middlewares/Third_Party/LwIP/src/apps/http/fs.c ****  * IN ANY WAY OUT OF THE USE OF THIS SOFTWARE, EVEN IF ADVISED OF THE POSSIBILITY
  25:Middlewares/Third_Party/LwIP/src/apps/http/fs.c ****  * OF SUCH DAMAGE.
  26:Middlewares/Third_Party/LwIP/src/apps/http/fs.c ****  *
  27:Middlewares/Third_Party/LwIP/src/apps/http/fs.c ****  * This file is part of the lwIP TCP/IP stack.
  28:Middlewares/Third_Party/LwIP/src/apps/http/fs.c ****  *
  29:Middlewares/Third_Party/LwIP/src/apps/http/fs.c ****  * Author: Adam Dunkels <adam@sics.se>
  30:Middlewares/Third_Party/LwIP/src/apps/http/fs.c ****  *
ARM GAS  C:\Users\zdy\AppData\Local\Temp\cckmpJrg.s 			page 2


  31:Middlewares/Third_Party/LwIP/src/apps/http/fs.c ****  */
  32:Middlewares/Third_Party/LwIP/src/apps/http/fs.c **** 
  33:Middlewares/Third_Party/LwIP/src/apps/http/fs.c **** #include "lwip/apps/httpd_opts.h"
  34:Middlewares/Third_Party/LwIP/src/apps/http/fs.c **** #include "lwip/def.h"
  35:Middlewares/Third_Party/LwIP/src/apps/http/fs.c **** #include "lwip/apps/fs.h"
  36:Middlewares/Third_Party/LwIP/src/apps/http/fs.c **** #include <string.h>
  37:Middlewares/Third_Party/LwIP/src/apps/http/fs.c **** 
  38:Middlewares/Third_Party/LwIP/src/apps/http/fs.c **** 
  39:Middlewares/Third_Party/LwIP/src/apps/http/fs.c **** #include HTTPD_FSDATA_FILE
  40:Middlewares/Third_Party/LwIP/src/apps/http/fs.c **** 
  41:Middlewares/Third_Party/LwIP/src/apps/http/fs.c **** /*-----------------------------------------------------------------------------------*/
  42:Middlewares/Third_Party/LwIP/src/apps/http/fs.c **** 
  43:Middlewares/Third_Party/LwIP/src/apps/http/fs.c **** #if LWIP_HTTPD_CUSTOM_FILES
  44:Middlewares/Third_Party/LwIP/src/apps/http/fs.c **** int fs_open_custom(struct fs_file *file, const char *name);
  45:Middlewares/Third_Party/LwIP/src/apps/http/fs.c **** void fs_close_custom(struct fs_file *file);
  46:Middlewares/Third_Party/LwIP/src/apps/http/fs.c **** #if LWIP_HTTPD_FS_ASYNC_READ
  47:Middlewares/Third_Party/LwIP/src/apps/http/fs.c **** u8_t fs_canread_custom(struct fs_file *file);
  48:Middlewares/Third_Party/LwIP/src/apps/http/fs.c **** u8_t fs_wait_read_custom(struct fs_file *file, fs_wait_cb callback_fn, void *callback_arg);
  49:Middlewares/Third_Party/LwIP/src/apps/http/fs.c **** int fs_read_async_custom(struct fs_file *file, char *buffer, int count, fs_wait_cb callback_fn, voi
  50:Middlewares/Third_Party/LwIP/src/apps/http/fs.c **** #else /* LWIP_HTTPD_FS_ASYNC_READ */
  51:Middlewares/Third_Party/LwIP/src/apps/http/fs.c **** int fs_read_custom(struct fs_file *file, char *buffer, int count);
  52:Middlewares/Third_Party/LwIP/src/apps/http/fs.c **** #endif /* LWIP_HTTPD_FS_ASYNC_READ */
  53:Middlewares/Third_Party/LwIP/src/apps/http/fs.c **** #endif /* LWIP_HTTPD_CUSTOM_FILES */
  54:Middlewares/Third_Party/LwIP/src/apps/http/fs.c **** 
  55:Middlewares/Third_Party/LwIP/src/apps/http/fs.c **** /*-----------------------------------------------------------------------------------*/
  56:Middlewares/Third_Party/LwIP/src/apps/http/fs.c **** err_t
  57:Middlewares/Third_Party/LwIP/src/apps/http/fs.c **** fs_open(struct fs_file *file, const char *name)
  58:Middlewares/Third_Party/LwIP/src/apps/http/fs.c **** {
  29              		.loc 1 58 1 view -0
  30              		.cfi_startproc
  31              		@ args = 0, pretend = 0, frame = 0
  32              		@ frame_needed = 0, uses_anonymous_args = 0
  59:Middlewares/Third_Party/LwIP/src/apps/http/fs.c ****   const struct fsdata_file *f;
  33              		.loc 1 59 3 view .LVU1
  60:Middlewares/Third_Party/LwIP/src/apps/http/fs.c **** 
  61:Middlewares/Third_Party/LwIP/src/apps/http/fs.c ****   if ((file == NULL) || (name == NULL)) {
  34              		.loc 1 61 3 view .LVU2
  35              		.loc 1 61 6 is_stmt 0 view .LVU3
  36 0000 0029     		cmp	r1, #0
  37 0002 18BF     		it	ne
  38 0004 0028     		cmpne	r0, #0
  39 0006 18D0     		beq	.L6
  58:Middlewares/Third_Party/LwIP/src/apps/http/fs.c ****   const struct fsdata_file *f;
  40              		.loc 1 58 1 view .LVU4
  41 0008 70B5     		push	{r4, r5, r6, lr}
  42              	.LCFI0:
  43              		.cfi_def_cfa_offset 16
  44              		.cfi_offset 4, -16
  45              		.cfi_offset 5, -12
  46              		.cfi_offset 6, -8
  47              		.cfi_offset 14, -4
  48 000a 0646     		mov	r6, r0
  49 000c 0D46     		mov	r5, r1
  62:Middlewares/Third_Party/LwIP/src/apps/http/fs.c ****     return ERR_ARG;
  63:Middlewares/Third_Party/LwIP/src/apps/http/fs.c ****   }
  64:Middlewares/Third_Party/LwIP/src/apps/http/fs.c **** 
  65:Middlewares/Third_Party/LwIP/src/apps/http/fs.c **** #if LWIP_HTTPD_CUSTOM_FILES
ARM GAS  C:\Users\zdy\AppData\Local\Temp\cckmpJrg.s 			page 3


  66:Middlewares/Third_Party/LwIP/src/apps/http/fs.c ****   if (fs_open_custom(file, name)) {
  67:Middlewares/Third_Party/LwIP/src/apps/http/fs.c ****     file->is_custom_file = 1;
  68:Middlewares/Third_Party/LwIP/src/apps/http/fs.c ****     return ERR_OK;
  69:Middlewares/Third_Party/LwIP/src/apps/http/fs.c ****   }
  70:Middlewares/Third_Party/LwIP/src/apps/http/fs.c ****   file->is_custom_file = 0;
  71:Middlewares/Third_Party/LwIP/src/apps/http/fs.c **** #endif /* LWIP_HTTPD_CUSTOM_FILES */
  72:Middlewares/Third_Party/LwIP/src/apps/http/fs.c **** 
  73:Middlewares/Third_Party/LwIP/src/apps/http/fs.c ****   for (f = FS_ROOT; f != NULL; f = f->next) {
  50              		.loc 1 73 10 view .LVU5
  51 000e 0C4C     		ldr	r4, .L12
  52 0010 00E0     		b	.L3
  53              	.LVL1:
  54              	.L4:
  55              		.loc 1 73 32 is_stmt 1 discriminator 2 view .LVU6
  56              		.loc 1 73 34 is_stmt 0 discriminator 2 view .LVU7
  57 0012 2468     		ldr	r4, [r4]
  58              	.LVL2:
  59              	.L3:
  60              		.loc 1 73 21 is_stmt 1 discriminator 1 view .LVU8
  61              		.loc 1 73 3 is_stmt 0 discriminator 1 view .LVU9
  62 0014 74B1     		cbz	r4, .L11
  74:Middlewares/Third_Party/LwIP/src/apps/http/fs.c ****     if (!strcmp(name, (const char *)f->name)) {
  63              		.loc 1 74 5 is_stmt 1 view .LVU10
  64              		.loc 1 74 10 is_stmt 0 view .LVU11
  65 0016 6168     		ldr	r1, [r4, #4]
  66 0018 2846     		mov	r0, r5
  67 001a FFF7FEFF 		bl	strcmp
  68              	.LVL3:
  69              		.loc 1 74 8 view .LVU12
  70 001e 0028     		cmp	r0, #0
  71 0020 F7D1     		bne	.L4
  75:Middlewares/Third_Party/LwIP/src/apps/http/fs.c ****       file->data = (const char *)f->data;
  72              		.loc 1 75 7 is_stmt 1 view .LVU13
  73              		.loc 1 75 35 is_stmt 0 view .LVU14
  74 0022 A368     		ldr	r3, [r4, #8]
  75              		.loc 1 75 18 view .LVU15
  76 0024 3360     		str	r3, [r6]
  76:Middlewares/Third_Party/LwIP/src/apps/http/fs.c ****       file->len = f->len;
  77              		.loc 1 76 7 is_stmt 1 view .LVU16
  78              		.loc 1 76 20 is_stmt 0 view .LVU17
  79 0026 E368     		ldr	r3, [r4, #12]
  80              		.loc 1 76 17 view .LVU18
  81 0028 7360     		str	r3, [r6, #4]
  77:Middlewares/Third_Party/LwIP/src/apps/http/fs.c ****       file->index = f->len;
  82              		.loc 1 77 7 is_stmt 1 view .LVU19
  83              		.loc 1 77 19 is_stmt 0 view .LVU20
  84 002a B360     		str	r3, [r6, #8]
  78:Middlewares/Third_Party/LwIP/src/apps/http/fs.c ****       file->pextension = NULL;
  85              		.loc 1 78 7 is_stmt 1 view .LVU21
  86              		.loc 1 78 24 is_stmt 0 view .LVU22
  87 002c F060     		str	r0, [r6, #12]
  79:Middlewares/Third_Party/LwIP/src/apps/http/fs.c ****       file->flags = f->flags;
  88              		.loc 1 79 7 is_stmt 1 view .LVU23
  89              		.loc 1 79 22 is_stmt 0 view .LVU24
  90 002e 237C     		ldrb	r3, [r4, #16]	@ zero_extendqisi2
  91              		.loc 1 79 19 view .LVU25
  92 0030 3374     		strb	r3, [r6, #16]
ARM GAS  C:\Users\zdy\AppData\Local\Temp\cckmpJrg.s 			page 4


  80:Middlewares/Third_Party/LwIP/src/apps/http/fs.c **** #if HTTPD_PRECALCULATED_CHECKSUM
  81:Middlewares/Third_Party/LwIP/src/apps/http/fs.c ****       file->chksum_count = f->chksum_count;
  82:Middlewares/Third_Party/LwIP/src/apps/http/fs.c ****       file->chksum = f->chksum;
  83:Middlewares/Third_Party/LwIP/src/apps/http/fs.c **** #endif /* HTTPD_PRECALCULATED_CHECKSUM */
  84:Middlewares/Third_Party/LwIP/src/apps/http/fs.c **** #if LWIP_HTTPD_FILE_STATE
  85:Middlewares/Third_Party/LwIP/src/apps/http/fs.c ****       file->state = fs_state_init(file, name);
  86:Middlewares/Third_Party/LwIP/src/apps/http/fs.c **** #endif /* #if LWIP_HTTPD_FILE_STATE */
  87:Middlewares/Third_Party/LwIP/src/apps/http/fs.c ****       return ERR_OK;
  93              		.loc 1 87 7 is_stmt 1 view .LVU26
  94              		.loc 1 87 14 is_stmt 0 view .LVU27
  95 0032 01E0     		b	.L2
  96              	.L11:
  88:Middlewares/Third_Party/LwIP/src/apps/http/fs.c ****     }
  89:Middlewares/Third_Party/LwIP/src/apps/http/fs.c ****   }
  90:Middlewares/Third_Party/LwIP/src/apps/http/fs.c ****   /* file not found */
  91:Middlewares/Third_Party/LwIP/src/apps/http/fs.c ****   return ERR_VAL;
  97              		.loc 1 91 10 view .LVU28
  98 0034 6FF00500 		mvn	r0, #5
  99              	.L2:
  92:Middlewares/Third_Party/LwIP/src/apps/http/fs.c **** }
 100              		.loc 1 92 1 view .LVU29
 101 0038 70BD     		pop	{r4, r5, r6, pc}
 102              	.LVL4:
 103              	.L6:
 104              	.LCFI1:
 105              		.cfi_def_cfa_offset 0
 106              		.cfi_restore 4
 107              		.cfi_restore 5
 108              		.cfi_restore 6
 109              		.cfi_restore 14
  62:Middlewares/Third_Party/LwIP/src/apps/http/fs.c ****   }
 110              		.loc 1 62 12 view .LVU30
 111 003a 6FF00F00 		mvn	r0, #15
 112              	.LVL5:
 113              		.loc 1 92 1 view .LVU31
 114 003e 7047     		bx	lr
 115              	.L13:
 116              		.align	2
 117              	.L12:
 118 0040 00000000 		.word	.LANCHOR0
 119              		.cfi_endproc
 120              	.LFE359:
 122              		.section	.text.fs_close,"ax",%progbits
 123              		.align	1
 124              		.global	fs_close
 125              		.syntax unified
 126              		.thumb
 127              		.thumb_func
 129              	fs_close:
 130              	.LVL6:
 131              	.LFB360:
  93:Middlewares/Third_Party/LwIP/src/apps/http/fs.c **** 
  94:Middlewares/Third_Party/LwIP/src/apps/http/fs.c **** /*-----------------------------------------------------------------------------------*/
  95:Middlewares/Third_Party/LwIP/src/apps/http/fs.c **** void
  96:Middlewares/Third_Party/LwIP/src/apps/http/fs.c **** fs_close(struct fs_file *file)
  97:Middlewares/Third_Party/LwIP/src/apps/http/fs.c **** {
 132              		.loc 1 97 1 is_stmt 1 view -0
ARM GAS  C:\Users\zdy\AppData\Local\Temp\cckmpJrg.s 			page 5


 133              		.cfi_startproc
 134              		@ args = 0, pretend = 0, frame = 0
 135              		@ frame_needed = 0, uses_anonymous_args = 0
 136              		@ link register save eliminated.
  98:Middlewares/Third_Party/LwIP/src/apps/http/fs.c **** #if LWIP_HTTPD_CUSTOM_FILES
  99:Middlewares/Third_Party/LwIP/src/apps/http/fs.c ****   if (file->is_custom_file) {
 100:Middlewares/Third_Party/LwIP/src/apps/http/fs.c ****     fs_close_custom(file);
 101:Middlewares/Third_Party/LwIP/src/apps/http/fs.c ****   }
 102:Middlewares/Third_Party/LwIP/src/apps/http/fs.c **** #endif /* LWIP_HTTPD_CUSTOM_FILES */
 103:Middlewares/Third_Party/LwIP/src/apps/http/fs.c **** #if LWIP_HTTPD_FILE_STATE
 104:Middlewares/Third_Party/LwIP/src/apps/http/fs.c ****   fs_state_free(file, file->state);
 105:Middlewares/Third_Party/LwIP/src/apps/http/fs.c **** #endif /* #if LWIP_HTTPD_FILE_STATE */
 106:Middlewares/Third_Party/LwIP/src/apps/http/fs.c ****   LWIP_UNUSED_ARG(file);
 137              		.loc 1 106 3 view .LVU33
 107:Middlewares/Third_Party/LwIP/src/apps/http/fs.c **** }
 138              		.loc 1 107 1 is_stmt 0 view .LVU34
 139 0000 7047     		bx	lr
 140              		.cfi_endproc
 141              	.LFE360:
 143              		.section	.text.fs_bytes_left,"ax",%progbits
 144              		.align	1
 145              		.global	fs_bytes_left
 146              		.syntax unified
 147              		.thumb
 148              		.thumb_func
 150              	fs_bytes_left:
 151              	.LVL7:
 152              	.LFB361:
 108:Middlewares/Third_Party/LwIP/src/apps/http/fs.c **** /*-----------------------------------------------------------------------------------*/
 109:Middlewares/Third_Party/LwIP/src/apps/http/fs.c **** #if LWIP_HTTPD_DYNAMIC_FILE_READ
 110:Middlewares/Third_Party/LwIP/src/apps/http/fs.c **** #if LWIP_HTTPD_FS_ASYNC_READ
 111:Middlewares/Third_Party/LwIP/src/apps/http/fs.c **** int
 112:Middlewares/Third_Party/LwIP/src/apps/http/fs.c **** fs_read_async(struct fs_file *file, char *buffer, int count, fs_wait_cb callback_fn, void *callback
 113:Middlewares/Third_Party/LwIP/src/apps/http/fs.c **** #else /* LWIP_HTTPD_FS_ASYNC_READ */
 114:Middlewares/Third_Party/LwIP/src/apps/http/fs.c **** int
 115:Middlewares/Third_Party/LwIP/src/apps/http/fs.c **** fs_read(struct fs_file *file, char *buffer, int count)
 116:Middlewares/Third_Party/LwIP/src/apps/http/fs.c **** #endif /* LWIP_HTTPD_FS_ASYNC_READ */
 117:Middlewares/Third_Party/LwIP/src/apps/http/fs.c **** {
 118:Middlewares/Third_Party/LwIP/src/apps/http/fs.c ****   int read;
 119:Middlewares/Third_Party/LwIP/src/apps/http/fs.c ****   if (file->index == file->len) {
 120:Middlewares/Third_Party/LwIP/src/apps/http/fs.c ****     return FS_READ_EOF;
 121:Middlewares/Third_Party/LwIP/src/apps/http/fs.c ****   }
 122:Middlewares/Third_Party/LwIP/src/apps/http/fs.c **** #if LWIP_HTTPD_FS_ASYNC_READ
 123:Middlewares/Third_Party/LwIP/src/apps/http/fs.c ****   LWIP_UNUSED_ARG(callback_fn);
 124:Middlewares/Third_Party/LwIP/src/apps/http/fs.c ****   LWIP_UNUSED_ARG(callback_arg);
 125:Middlewares/Third_Party/LwIP/src/apps/http/fs.c **** #endif /* LWIP_HTTPD_FS_ASYNC_READ */
 126:Middlewares/Third_Party/LwIP/src/apps/http/fs.c **** #if LWIP_HTTPD_CUSTOM_FILES
 127:Middlewares/Third_Party/LwIP/src/apps/http/fs.c ****   if (file->is_custom_file) {
 128:Middlewares/Third_Party/LwIP/src/apps/http/fs.c **** #if LWIP_HTTPD_FS_ASYNC_READ
 129:Middlewares/Third_Party/LwIP/src/apps/http/fs.c ****     return fs_read_async_custom(file, buffer, count, callback_fn, callback_arg);
 130:Middlewares/Third_Party/LwIP/src/apps/http/fs.c **** #else /* LWIP_HTTPD_FS_ASYNC_READ */
 131:Middlewares/Third_Party/LwIP/src/apps/http/fs.c ****     return fs_read_custom(file, buffer, count);
 132:Middlewares/Third_Party/LwIP/src/apps/http/fs.c **** #endif /* LWIP_HTTPD_FS_ASYNC_READ */
 133:Middlewares/Third_Party/LwIP/src/apps/http/fs.c ****   }
 134:Middlewares/Third_Party/LwIP/src/apps/http/fs.c **** #endif /* LWIP_HTTPD_CUSTOM_FILES */
 135:Middlewares/Third_Party/LwIP/src/apps/http/fs.c **** 
 136:Middlewares/Third_Party/LwIP/src/apps/http/fs.c ****   read = file->len - file->index;
ARM GAS  C:\Users\zdy\AppData\Local\Temp\cckmpJrg.s 			page 6


 137:Middlewares/Third_Party/LwIP/src/apps/http/fs.c ****   if (read > count) {
 138:Middlewares/Third_Party/LwIP/src/apps/http/fs.c ****     read = count;
 139:Middlewares/Third_Party/LwIP/src/apps/http/fs.c ****   }
 140:Middlewares/Third_Party/LwIP/src/apps/http/fs.c **** 
 141:Middlewares/Third_Party/LwIP/src/apps/http/fs.c ****   MEMCPY(buffer, (file->data + file->index), read);
 142:Middlewares/Third_Party/LwIP/src/apps/http/fs.c ****   file->index += read;
 143:Middlewares/Third_Party/LwIP/src/apps/http/fs.c **** 
 144:Middlewares/Third_Party/LwIP/src/apps/http/fs.c ****   return (read);
 145:Middlewares/Third_Party/LwIP/src/apps/http/fs.c **** }
 146:Middlewares/Third_Party/LwIP/src/apps/http/fs.c **** #endif /* LWIP_HTTPD_DYNAMIC_FILE_READ */
 147:Middlewares/Third_Party/LwIP/src/apps/http/fs.c **** /*-----------------------------------------------------------------------------------*/
 148:Middlewares/Third_Party/LwIP/src/apps/http/fs.c **** #if LWIP_HTTPD_FS_ASYNC_READ
 149:Middlewares/Third_Party/LwIP/src/apps/http/fs.c **** int
 150:Middlewares/Third_Party/LwIP/src/apps/http/fs.c **** fs_is_file_ready(struct fs_file *file, fs_wait_cb callback_fn, void *callback_arg)
 151:Middlewares/Third_Party/LwIP/src/apps/http/fs.c **** {
 152:Middlewares/Third_Party/LwIP/src/apps/http/fs.c ****   if (file != NULL) {
 153:Middlewares/Third_Party/LwIP/src/apps/http/fs.c **** #if LWIP_HTTPD_FS_ASYNC_READ
 154:Middlewares/Third_Party/LwIP/src/apps/http/fs.c **** #if LWIP_HTTPD_CUSTOM_FILES
 155:Middlewares/Third_Party/LwIP/src/apps/http/fs.c ****     if (!fs_canread_custom(file)) {
 156:Middlewares/Third_Party/LwIP/src/apps/http/fs.c ****       if (fs_wait_read_custom(file, callback_fn, callback_arg)) {
 157:Middlewares/Third_Party/LwIP/src/apps/http/fs.c ****         return 0;
 158:Middlewares/Third_Party/LwIP/src/apps/http/fs.c ****       }
 159:Middlewares/Third_Party/LwIP/src/apps/http/fs.c ****     }
 160:Middlewares/Third_Party/LwIP/src/apps/http/fs.c **** #else /* LWIP_HTTPD_CUSTOM_FILES */
 161:Middlewares/Third_Party/LwIP/src/apps/http/fs.c ****     LWIP_UNUSED_ARG(callback_fn);
 162:Middlewares/Third_Party/LwIP/src/apps/http/fs.c ****     LWIP_UNUSED_ARG(callback_arg);
 163:Middlewares/Third_Party/LwIP/src/apps/http/fs.c **** #endif /* LWIP_HTTPD_CUSTOM_FILES */
 164:Middlewares/Third_Party/LwIP/src/apps/http/fs.c **** #endif /* LWIP_HTTPD_FS_ASYNC_READ */
 165:Middlewares/Third_Party/LwIP/src/apps/http/fs.c ****   }
 166:Middlewares/Third_Party/LwIP/src/apps/http/fs.c ****   return 1;
 167:Middlewares/Third_Party/LwIP/src/apps/http/fs.c **** }
 168:Middlewares/Third_Party/LwIP/src/apps/http/fs.c **** #endif /* LWIP_HTTPD_FS_ASYNC_READ */
 169:Middlewares/Third_Party/LwIP/src/apps/http/fs.c **** /*-----------------------------------------------------------------------------------*/
 170:Middlewares/Third_Party/LwIP/src/apps/http/fs.c **** int
 171:Middlewares/Third_Party/LwIP/src/apps/http/fs.c **** fs_bytes_left(struct fs_file *file)
 172:Middlewares/Third_Party/LwIP/src/apps/http/fs.c **** {
 153              		.loc 1 172 1 is_stmt 1 view -0
 154              		.cfi_startproc
 155              		@ args = 0, pretend = 0, frame = 0
 156              		@ frame_needed = 0, uses_anonymous_args = 0
 157              		@ link register save eliminated.
 173:Middlewares/Third_Party/LwIP/src/apps/http/fs.c ****   return file->len - file->index;
 158              		.loc 1 173 3 view .LVU36
 159              		.loc 1 173 14 is_stmt 0 view .LVU37
 160 0000 4268     		ldr	r2, [r0, #4]
 161              		.loc 1 173 26 view .LVU38
 162 0002 8068     		ldr	r0, [r0, #8]
 163              	.LVL8:
 174:Middlewares/Third_Party/LwIP/src/apps/http/fs.c **** }
 164              		.loc 1 174 1 view .LVU39
 165 0004 101A     		subs	r0, r2, r0
 166 0006 7047     		bx	lr
 167              		.cfi_endproc
 168              	.LFE361:
 170              		.global	file__STM32F4x7LED_html
 171              		.global	file__STM32F4x7ADC_shtml
 172              		.global	file__index_html
ARM GAS  C:\Users\zdy\AppData\Local\Temp\cckmpJrg.s 			page 7


 173              		.global	file__404_html
 174              		.global	file__STM32F4x7_files_stm32_jpg
 175              		.global	file__STM32F4x7_files_ST_gif
 176              		.global	file__STM32F4x7_files_logo_jpg
 177              		.section	.rodata.data__404_html,"a"
 178              		.align	2
 181              	data__404_html:
 182 0000 2F343034 		.ascii	"/404.html\000\000\000HTTP/1.0 404 File not found\015"
 182      2E68746D 
 182      6C000000 
 182      48545450 
 182      2F312E30 
 183 0028 0A536572 		.ascii	"\012Server: lwIP/1.3.1 (http://savannah.nongnu.org/"
 183      7665723A 
 183      206C7749 
 183      502F312E 
 183      332E3120 
 184 0058 70726F6A 		.ascii	"projects/lwip)\015\012Content-type: text/html\015\012"
 184      65637473 
 184      2F6C7769 
 184      70290D0A 
 184      436F6E74 
 185 0081 0D0A3C21 		.ascii	"\015\012<!DOCTYPE HTML PUBLIC \"-//W3C//DTD HTML 4."
 185      444F4354 
 185      59504520 
 185      48544D4C 
 185      20505542 
 186 00ad 30312054 		.ascii	"01 Transitional//EN\">\015\012<html><head><title>ST"
 186      72616E73 
 186      6974696F 
 186      6E616C2F 
 186      2F454E22 
 187 00d9 4D333246 		.ascii	"M32F4x7</title>\015\012\015\012</head>\015\012<body"
 187      3478373C 
 187      2F746974 
 187      6C653E0D 
 187      0A0D0A3C 
 188 00fa 20737479 		.ascii	" style=\"color: black; background-color: white;\">\015"
 188      6C653D22 
 188      636F6C6F 
 188      723A2062 
 188      6C61636B 
 189 012b 0A3C7461 		.ascii	"\012<table width=\"100%\">\015\012<tbody>\015\012<t"
 189      626C6520 
 189      77696474 
 189      683D2231 
 189      30302522 
 190 014d 72207661 		.ascii	"r valign=\"top\">\015\012<td width=\"80\"><br>\015\012"
 190      6C69676E 
 190      3D22746F 
 190      70223E0D 
 190      0A3C7464 
 191 0173 3C646976 		.ascii	"<div style=\"text-align: center;\"><img style=\"wid"
 191      20737479 
 191      6C653D22 
 191      74657874 
 191      2D616C69 
ARM GAS  C:\Users\zdy\AppData\Local\Temp\cckmpJrg.s 			page 8


 192 01a3 74683A20 		.ascii	"th: 96px; height: 57px;\" alt=\"ST logo\" src=\"STM"
 192      39367078 
 192      3B206865 
 192      69676874 
 192      3A203537 
 193 01d2 33324634 		.ascii	"32F4x7_files/logo.jpg\"></div>\015\012</td>\015\012"
 193      78375F66 
 193      696C6573 
 193      2F6C6F67 
 193      6F2E6A70 
 194 01f8 3C746420 		.ascii	"<td width=\"500\">\015\012<h1><small><small><small>"
 194      77696474 
 194      683D2235 
 194      3030223E 
 194      0D0A3C68 
 195 0223 3C736D61 		.ascii	"<small><big><big><big style=\"font-weight: bold;\">"
 195      6C6C3E3C 
 195      6269673E 
 195      3C626967 
 195      3E3C6269 
 196 0254 3C626967 		.ascii	"<big><strong><span style=\"font-style: italic;\">ST"
 196      3E3C7374 
 196      726F6E67 
 196      3E3C7370 
 196      616E2073 
 197 0285 4D333246 		.ascii	"M32F4x7 Webserver Demo</span></strong></big></big><"
 197      34783720 
 197      57656273 
 197      65727665 
 197      72204465 
 198 02b8 2F626967 		.ascii	"/big></big></small></small></small></small>\015\012"
 198      3E3C2F62 
 198      69673E3C 
 198      2F736D61 
 198      6C6C3E3C 
 199 02e5 3C736D61 		.ascii	"<small style=\"font-family: Verdana;\"><small><big>"
 199      6C6C2073 
 199      74796C65 
 199      3D22666F 
 199      6E742D66 
 200 0316 3C626967 		.ascii	"<big><big><big style=\"font-weight: bold; color: rg"
 200      3E3C6269 
 200      673E3C62 
 200      69672073 
 200      74796C65 
 201 0348 62283531 		.ascii	"b(51, 51, 255);\"><big><strong><span style=\"font-s"
 201      2C203531 
 201      2C203235 
 201      35293B22 
 201      3E3C6269 
 202 0379 74796C65 		.ascii	"tyle: italic;\"></span></strong></big><span style=\""
 202      3A206974 
 202      616C6963 
 202      3B223E3C 
 202      2F737061 
 203 03ab 636F6C6F 		.ascii	"color: rgb(51, 51, 255);\"><br>\015\012</span></big"
 203      723A2072 
ARM GAS  C:\Users\zdy\AppData\Local\Temp\cckmpJrg.s 			page 9


 203      67622835 
 203      312C2035 
 203      312C2032 
 204 03d7 3E3C2F62 		.ascii	"></big></big></big></small></small></h1>\015\012<h2"
 204      69673E3C 
 204      2F626967 
 204      3E3C2F62 
 204      69673E3C 
 205 0404 3E343034 		.ascii	">404 - Page not found</h2>\015\012<p><span style=\""
 205      202D2050 
 205      61676520 
 205      6E6F7420 
 205      666F756E 
 206 0430 666F6E74 		.ascii	"font-family: Times New Roman,Times,serif;\"> Sorry,"
 206      2D66616D 
 206      696C793A 
 206      2054696D 
 206      6573204E 
 207 0462 0D0A7468 		.ascii	"\015\012the page you are requesting was not found o"
 207      65207061 
 207      67652079 
 207      6F752061 
 207      72652072 
 208 048f 6E207468 		.ascii	"n this server.</span> </p>\015\012</td>\015\012</tr"
 208      69732073 
 208      65727665 
 208      722E3C2F 
 208      7370616E 
 209 04b6 3E0D0A3C 		.ascii	">\015\012</tbody>\015\012</table>\015\012</body></h"
 209      2F74626F 
 209      64793E0D 
 209      0A3C2F74 
 209      61626C65 
 210 04d7 746D6C3E 		.ascii	"tml>"
 211              		.section	.rodata.data__STM32F4x7ADC_shtml,"a"
 212              		.align	2
 215              	data__STM32F4x7ADC_shtml:
 216 0000 2F53544D 		.ascii	"/STM32F4x7ADC.shtml\000HTTP/1.0 200 OK\015\012Serve"
 216      33324634 
 216      78374144 
 216      432E7368 
 216      746D6C00 
 217 002a 723A206C 		.ascii	"r: lwIP/1.3.1 (http://savannah.nongnu.org/projects/"
 217      7749502F 
 217      312E332E 
 217      31202868 
 217      7474703A 
 218 005d 6C776970 		.ascii	"lwip)\015\012Content-type: text/html\015\012Expires"
 218      290D0A43 
 218      6F6E7465 
 218      6E742D74 
 218      7970653A 
 219 0084 3A204672 		.ascii	": Fri, 10 Apr 2008 14:00:00 GMT\015\012Pragma: no-c"
 219      692C2031 
 219      30204170 
 219      72203230 
 219      30382031 
ARM GAS  C:\Users\zdy\AppData\Local\Temp\cckmpJrg.s 			page 10


 220 00b1 61636865 		.ascii	"ache\015\012\015\012<!DOCTYPE HTML PUBLIC \"-//W3C/"
 220      0D0A0D0A 
 220      3C21444F 
 220      43545950 
 220      45204854 
 221 00d7 2F445444 		.ascii	"/DTD HTML 4.01 Transitional//EN\" \"http://www.w3c."
 221      2048544D 
 221      4C20342E 
 221      30312054 
 221      72616E73 
 222 0108 6F72672F 		.ascii	"org/TR/1999/REC-html401-19991224/loose.dtd\">\015\012"
 222      54522F31 
 222      3939392F 
 222      5245432D 
 222      68746D6C 
 223 0136 3C68746D 		.ascii	"<html><head><title>STM32F4x7ADC</title>\015\012\015"
 223      6C3E3C68 
 223      6561643E 
 223      3C746974 
 223      6C653E53 
 224 0160 0A3C6D65 		.ascii	"\012<meta http-equiv=\"Content-Type\" content=\"tex"
 224      74612068 
 224      7474702D 
 224      65717569 
 224      763D2243 
 225 018d 742F6874 		.ascii	"t/html; charset=windows-1252\">\015\012<meta http-e"
 225      6D6C3B20 
 225      63686172 
 225      7365743D 
 225      77696E64 
 226 01b9 71756976 		.ascii	"quiv=\"refresh\" content=\"1\">\015\012<meta conten"
 226      3D227265 
 226      66726573 
 226      68222063 
 226      6F6E7465 
 227 01e2 743D224D 		.ascii	"t=\"MSHTML 6.00.2900.3698\" name=\"GENERATOR\">\015"
 227      5348544D 
 227      4C20362E 
 227      30302E32 
 227      3930302E 
 228 020e 0A3C7374 		.ascii	"\012<style></style><!-- saved from url=(0038)http:/"
 228      796C653E 
 228      3C2F7374 
 228      796C653E 
 228      3C212D2D 
 229 023e 2F313932 		.ascii	"/192.168.0.10/STM32F107ADC.shtml --></head>\015\012"
 229      2E313638 
 229      2E302E31 
 229      302F5354 
 229      4D333246 
 230 026b 3C626F64 		.ascii	"<body>\015\012<h4><small style=\"font-family: Verda"
 230      793E0D0A 
 230      3C68343E 
 230      3C736D61 
 230      6C6C2073 
 231 0297 6E613B20 		.ascii	"na; \"><small><big><big><big style=\"font-weight: b"
 231      223E3C73 
ARM GAS  C:\Users\zdy\AppData\Local\Temp\cckmpJrg.s 			page 11


 231      6D616C6C 
 231      3E3C6269 
 231      673E3C62 
 232 02c8 6F6C643B 		.ascii	"old;\"><big><strong><em><span style=\"font-style: i"
 232      223E3C62 
 232      69673E3C 
 232      7374726F 
 232      6E673E3C 
 233 02f9 74616C69 		.ascii	"talic;\">STM32F4x7 ADC Conversion </span></em></str"
 233      633B223E 
 233      53544D33 
 233      32463478 
 233      37204144 
 234 032b 6F6E673E 		.ascii	"ong></big></big></big></big></small></small></h4>\015"
 234      3C2F6269 
 234      673E3C2F 
 234      6269673E 
 234      3C2F6269 
 235 035d 0A3C6872 		.ascii	"\012<hr style=\"width: 100%; height: 2px;\">\015\012"
 235      20737479 
 235      6C653D22 
 235      77696474 
 235      683A2031 
 236 0386 3C737061 		.ascii	"<span style=\"font-weight: bold;\"></span><span sty"
 236      6E207374 
 236      796C653D 
 236      22666F6E 
 236      742D7765 
 237 03b7 6C653D22 		.ascii	"le=\"font-weight: bold;\">\015\012<table style=\"wi"
 237      666F6E74 
 237      2D776569 
 237      6768743A 
 237      20626F6C 
 238 03e1 6474683A 		.ascii	"dth: 961px; height: 30px;\" border=\"1\" cellpaddin"
 238      20393631 
 238      70783B20 
 238      68656967 
 238      68743A20 
 239 0411 673D2232 		.ascii	"g=\"2\" cellspacing=\"2\">\015\012<tbody>\015\012<t"
 239      22206365 
 239      6C6C7370 
 239      6163696E 
 239      673D2232 
 240 0434 723E0D0A 		.ascii	"r>\015\012<td style=\"font-weight: bold; font-style"
 240      3C746420 
 240      7374796C 
 240      653D2266 
 240      6F6E742D 
 241 0460 3A206974 		.ascii	": italic; font-family: Verdana; background-color: r"
 241      616C6963 
 241      3B20666F 
 241      6E742D66 
 241      616D696C 
 242 0493 67622835 		.ascii	"gb(51, 51, 255); text-align: center;\"><small><a hr"
 242      312C2035 
 242      312C2032 
 242      3535293B 
ARM GAS  C:\Users\zdy\AppData\Local\Temp\cckmpJrg.s 			page 12


 242      20746578 
 243 04c5 65663D22 		.ascii	"ef=\"/index.html\"><span style=\"color: white;\">Ho"
 243      2F696E64 
 243      65782E68 
 243      746D6C22 
 243      3E3C7370 
 244 04f4 6D650D0A 		.ascii	"me\015\012page</span></a></small></td>\015\012<td s"
 244      70616765 
 244      3C2F7370 
 244      616E3E3C 
 244      2F613E3C 
 245 051b 74796C65 		.ascii	"tyle=\"font-weight: bold; font-style: italic; font-"
 245      3D22666F 
 245      6E742D77 
 245      65696768 
 245      743A2062 
 246 054d 66616D69 		.ascii	"family: Verdana; background-color: rgb(51, 51, 255)"
 246      6C793A20 
 246      56657264 
 246      616E613B 
 246      20626163 
 247 0580 3B207465 		.ascii	"; text-align: center;\"><small><a href=\"/STM32F4x7"
 247      78742D61 
 247      6C69676E 
 247      3A206365 
 247      6E746572 
 248 05b1 4C45442E 		.ascii	"LED.html\"><span style=\"color: white;\">Led\015\012"
 248      68746D6C 
 248      223E3C73 
 248      70616E20 
 248      7374796C 
 249 05dc 636F6E74 		.ascii	"control</span></a></small></td>\015\012<td style=\""
 249      726F6C3C 
 249      2F737061 
 249      6E3E3C2F 
 249      613E3C2F 
 250 0608 666F6E74 		.ascii	"font-weight: bold; font-style: italic; font-family:"
 250      2D776569 
 250      6768743A 
 250      20626F6C 
 250      643B2066 
 251 063b 20566572 		.ascii	" Verdana; background-color: rgb(51, 51, 255); text-"
 251      64616E61 
 251      3B206261 
 251      636B6772 
 251      6F756E64 
 252 066e 616C6967 		.ascii	"align: center;\"><small><a href=\"/STM32F4x7ADC.sht"
 252      6E3A2063 
 252      656E7465 
 252      723B223E 
 252      3C736D61 
 253 069f 6D6C223E 		.ascii	"ml\"><span style=\"color: white;\">ADC\015\012statu"
 253      3C737061 
 253      6E207374 
 253      796C653D 
 253      22636F6C 
 254 06c9 73206261 		.ascii	"s bar</span></a></small></td>\015\012</tr>\015\012<"
ARM GAS  C:\Users\zdy\AppData\Local\Temp\cckmpJrg.s 			page 13


 254      723C2F73 
 254      70616E3E 
 254      3C2F613E 
 254      3C2F736D 
 255 06f0 2F74626F 		.ascii	"/tbody>\015\012</table>\015\012</span><small><span "
 255      64793E0D 
 255      0A3C2F74 
 255      61626C65 
 255      3E0D0A3C 
 256 0717 7374796C 		.ascii	"style=\"font-family: Verdana;\"></span><span style="
 256      653D2266 
 256      6F6E742D 
 256      66616D69 
 256      6C793A20 
 257 0748 22666F6E 		.ascii	"\"font-family: Verdana;\"><br></span></small><dl><d"
 257      742D6661 
 257      6D696C79 
 257      3A205665 
 257      7264616E 
 258 0779 743E3C73 		.ascii	"t><small style=\"font-family: Verdana;\">This page "
 258      6D616C6C 
 258      20737479 
 258      6C653D22 
 258      666F6E74 
 259 07aa 73686F77 		.ascii	"show you\015\012    the ADC result of 16 Cha"
 259      20796F75 
 259      0D0A2020 
 259      20207468 
 259      65204144 
 260 07d0 6E6E656C 		.ascii	"nnels analog input converted value continuously by "
 260      7320616E 
 260      616C6F67 
 260      20696E70 
 260      75742063 
 261 0803 53534920 		.ascii	"SSI interface running on the STM32.</small></dt>\015"
 261      696E7465 
 261      72666163 
 261      65207275 
 261      6E6E696E 
 262 0834 0A202020 		.ascii	"\012    <dt><small style=\"font-family: Verdana;\">"
 262      203C6474 
 262      3E3C736D 
 262      616C6C20 
 262      7374796C 
 263 0862 4D6F6469 		.ascii	"Modified by backy@BK Instrumens. </small></dt><dt><"
 263      66696564 
 263      20627920 
 263      6261636B 
 263      7940424B 
 264 0895 736D616C 		.ascii	"small style=\"font-family: Verdana;\">\015\012<span"
 264      6C207374 
 264      796C653D 
 264      22666F6E 
 264      742D6661 
 265 08c0 20737479 		.ascii	" style=\"font-family: Verdana;\"></span><span style"
 265      6C653D22 
 265      666F6E74 
ARM GAS  C:\Users\zdy\AppData\Local\Temp\cckmpJrg.s 			page 14


 265      2D66616D 
 265      696C793A 
 266 08f1 3D22666F 		.ascii	"=\"font-family: Verdana;\"></span>\015\012<table bo"
 266      6E742D66 
 266      616D696C 
 266      793A2056 
 266      65726461 
 267 091c 72646572 		.ascii	"rder=\"1\" cellpadding=\"5\" cellspacing=\"1\">\015"
 267      3D223122 
 267      2063656C 
 267      6C706164 
 267      64696E67 
 268 0946 0A3C7462 		.ascii	"\012<tbody>\015\012<tr>\015\012    <td><small><span"
 268      6F64793E 
 268      0D0A3C74 
 268      723E0D0A 
 268      20202020 
 269 096a 20737479 		.ascii	" style=\"font-family: Verdana;\">ADC A0 Value</span"
 269      6C653D22 
 269      666F6E74 
 269      2D66616D 
 269      696C793A 
 270 099b 3E203C2F 		.ascii	"> </small></td>\015\012    <td><!--#A0--> <small><s"
 270      736D616C 
 270      6C3E3C2F 
 270      74643E0D 
 270      0A202020 
 271 09c8 70616E20 		.ascii	"pan style=\"font-family: Verdana;\">V</span></small"
 271      7374796C 
 271      653D2266 
 271      6F6E742D 
 271      66616D69 
 272 09f9 3E203C2F 		.ascii	"> </td>\015\012</tr>\015\012<tr>\015\012    <td><sm"
 272      74643E0D 
 272      0A3C2F74 
 272      723E0D0A 
 272      3C74723E 
 273 0a1a 616C6C3E 		.ascii	"all><span style=\"font-family: Verdana;\">ADC A1 Va"
 273      3C737061 
 273      6E207374 
 273      796C653D 
 273      22666F6E 
 274 0a4b 6C75653C 		.ascii	"lue</span> </small></td>\015\012    <td><!--#A1--> "
 274      2F737061 
 274      6E3E203C 
 274      2F736D61 
 274      6C6C3E3C 
 275 0a78 3C736D61 		.ascii	"<small><span style=\"font-family: Verdana;\">V</spa"
 275      6C6C3E3C 
 275      7370616E 
 275      20737479 
 275      6C653D22 
 276 0aa9 6E3E3C2F 		.ascii	"n></small> </td>\015\012</tr>\015\012<tr>\015\012  "
 276      736D616C 
 276      6C3E203C 
 276      2F74643E 
 276      0D0A3C2F 
ARM GAS  C:\Users\zdy\AppData\Local\Temp\cckmpJrg.s 			page 15


 277 0aca 20203C74 		.ascii	"  <td><small><span style=\"font-family: Verdana;\">"
 277      643E3C73 
 277      6D616C6C 
 277      3E3C7370 
 277      616E2073 
 278 0afb 41444320 		.ascii	"ADC A2 Value</span> </small></td>\015\012    <td><!"
 278      41322056 
 278      616C7565 
 278      3C2F7370 
 278      616E3E20 
 279 0b28 2D2D2341 		.ascii	"--#A2--> <small><span style=\"font-family: Verdana;"
 279      322D2D3E 
 279      203C736D 
 279      616C6C3E 
 279      3C737061 
 280 0b5a 223E563C 		.ascii	"\">V</span></small> </td>\015\012</tr>\015\012<tr>\015"
 280      2F737061 
 280      6E3E3C2F 
 280      736D616C 
 280      6C3E203C 
 281 0b80 0A202020 		.ascii	"\012    <td><small><span style=\"font-family: Verda"
 281      203C7464 
 281      3E3C736D 
 281      616C6C3E 
 281      3C737061 
 282 0baf 6E613B22 		.ascii	"na;\">ADC A3 Value</span> </small></td>\015\012    "
 282      3E414443 
 282      20413320 
 282      56616C75 
 282      653C2F73 
 283 0bdb 3C74643E 		.ascii	"<td><!--#A3--> <small><span style=\"font-family: Ve"
 283      3C212D2D 
 283      2341332D 
 283      2D3E203C 
 283      736D616C 
 284 0c0d 7264616E 		.ascii	"rdana;\">V</span></small> </td>\015\012</tr>\015\012"
 284      613B223E 
 284      563C2F73 
 284      70616E3E 
 284      3C2F736D 
 285 0c34 3C74723E 		.ascii	"<tr>\015\012    <td><small><span style=\"font-famil"
 285      0D0A2020 
 285      20203C74 
 285      643E3C73 
 285      6D616C6C 
 286 0c60 793A2056 		.ascii	"y: Verdana;\">ADC A4 Value</span> </small></td>\015"
 286      65726461 
 286      6E613B22 
 286      3E414443 
 286      20413420 
 287 0c8f 0A202020 		.ascii	"\012    <td><!--#A4--> <small><span style=\"font-fa"
 287      203C7464 
 287      3E3C212D 
 287      2D234134 
 287      2D2D3E20 
 288 0cbe 6D696C79 		.ascii	"mily: Verdana;\">V</span></small> </td>\015\012</tr"
 288      3A205665 
ARM GAS  C:\Users\zdy\AppData\Local\Temp\cckmpJrg.s 			page 16


 288      7264616E 
 288      613B223E 
 288      563C2F73 
 289 0cea 3E0D0A3C 		.ascii	">\015\012<tr>\015\012    <td><small><span style=\"f"
 289      74723E0D 
 289      0A202020 
 289      203C7464 
 289      3E3C736D 
 290 0d10 6F6E742D 		.ascii	"ont-family: Verdana;\">ADC A5 Value</span> </small>"
 290      66616D69 
 290      6C793A20 
 290      56657264 
 290      616E613B 
 291 0d42 3C2F7464 		.ascii	"</td>\015\012    <td><!--#A5--> <small><span style="
 291      3E0D0A20 
 291      2020203C 
 291      74643E3C 
 291      212D2D23 
 292 0d6f 22666F6E 		.ascii	"\"font-family: Verdana;\">V</span></small> </td>\015"
 292      742D6661 
 292      6D696C79 
 292      3A205665 
 292      7264616E 
 293 0d9e 0A3C2F74 		.ascii	"\012</tr>\015\012<tr>\015\012    <td><small><span s"
 293      723E0D0A 
 293      3C74723E 
 293      0D0A2020 
 293      20203C74 
 294 0dc2 74796C65 		.ascii	"tyle=\"font-family: Verdana;\">ADC A6 Value</span> "
 294      3D22666F 
 294      6E742D66 
 294      616D696C 
 294      793A2056 
 295 0df3 3C2F736D 		.ascii	"</small></td>\015\012    <td><!--#A6--> <small><spa"
 295      616C6C3E 
 295      3C2F7464 
 295      3E0D0A20 
 295      2020203C 
 296 0e20 6E207374 		.ascii	"n style=\"font-family: Verdana;\">V</span></small> "
 296      796C653D 
 296      22666F6E 
 296      742D6661 
 296      6D696C79 
 297 0e51 3C2F7464 		.ascii	"</td>\015\012</tr>\015\012<tr>\015\012    <td><smal"
 297      3E0D0A3C 
 297      2F74723E 
 297      0D0A3C74 
 297      723E0D0A 
 298 0e72 6C3E3C73 		.ascii	"l><span style=\"font-family: Verdana;\">ADC A7 Valu"
 298      70616E20 
 298      7374796C 
 298      653D2266 
 298      6F6E742D 
 299 0ea3 653C2F73 		.ascii	"e</span> </small></td>\015\012    <td><!--#A7--> <s"
 299      70616E3E 
 299      203C2F73 
 299      6D616C6C 
ARM GAS  C:\Users\zdy\AppData\Local\Temp\cckmpJrg.s 			page 17


 299      3E3C2F74 
 300 0ed0 6D616C6C 		.ascii	"mall><span style=\"font-family: Verdana;\">V</span>"
 300      3E3C7370 
 300      616E2073 
 300      74796C65 
 300      3D22666F 
 301 0f01 3C2F736D 		.ascii	"</small> </td>\015\012</tr>\015\012</tbody>\015\012"
 301      616C6C3E 
 301      203C2F74 
 301      643E0D0A 
 301      3C2F7472 
 302 0f22 3C2F7461 		.ascii	"</table>\015\012<h3 style=\"font-weight: normal;\">"
 302      626C653E 
 302      0D0A3C68 
 302      33207374 
 302      796C653D 
 303 0f4d 3C62723E 		.ascii	"<br>\015\012</h3>\015\012<font size=\"-1\"><span st"
 303      0D0A3C2F 
 303      68333E0D 
 303      0A3C666F 
 303      6E742073 
 304 0f72 796C653D 		.ascii	"yle=\"color: black;\"></span></font><br>\015\012<fo"
 304      22636F6C 
 304      6F723A20 
 304      626C6163 
 304      6B3B223E 
 305 0f9d 6E7420   		.ascii	"nt "
 306 0fa0 73697A65 		.ascii	"size=\"-1\"><span style=\"color: black;\"></span></"
 306      3D222D31 
 306      223E3C73 
 306      70616E20 
 306      7374796C 
 307 0fcf 666F6E74 		.ascii	"font><span style=\"font-family: Verdana;\"></span><"
 307      3E3C7370 
 307      616E2073 
 307      74796C65 
 307      3D22666F 
 308 1000 61207374 		.ascii	"a style=\"font-family: Verdana;\" href=\"/STM32F107"
 308      796C653D 
 308      22666F6E 
 308      742D6661 
 308      6D696C79 
 309 1030 2E68746D 		.ascii	".html\"><big><span style=\"font-weight: bold;\"></s"
 309      6C223E3C 
 309      6269673E 
 309      3C737061 
 309      6E207374 
 310 1060 70616E3E 		.ascii	"pan></big></a><font size=\"-1\"><span style=\"color"
 310      3C2F6269 
 310      673E3C2F 
 310      613E3C66 
 310      6F6E7420 
 311 1090 3A20626C 		.ascii	": black;\">________________________________________"
 311      61636B3B 
 311      223E5F5F 
 311      5F5F5F5F 
 311      5F5F5F5F 
ARM GAS  C:\Users\zdy\AppData\Local\Temp\cckmpJrg.s 			page 18


 312 10c2 5F5F5F5F 		.ascii	"___________________________________________________"
 312      5F5F5F5F 
 312      5F5F5F5F 
 312      5F5F5F5F 
 312      5F5F5F5F 
 313 10f5 5F5F5F5F 		.ascii	"____________________<br>\015\012</span></font><font"
 313      5F5F5F5F 
 313      5F5F5F5F 
 313      5F5F5F5F 
 313      5F5F5F5F 
 314 1122 20636C61 		.ascii	" class=\"footmsg\">&nbsp;\015\012&nbsp; &nbsp; &nbs"
 314      73733D22 
 314      666F6F74 
 314      6D736722 
 314      3E266E62 
 315 114d 703B2026 		.ascii	"p; &nbsp; &nbsp; &nbsp;\015\012&nbsp; &nbsp; &nbsp;"
 315      6E627370 
 315      3B20266E 
 315      6273703B 
 315      20266E62 
 316 117a 20266E62 		.ascii	" &nbsp; &nbsp; &nbsp;\015\012&nbsp; &nbsp; &nbsp; &"
 316      73703B20 
 316      266E6273 
 316      703B2026 
 316      6E627370 
 317 11a7 6E627370 		.ascii	"nbsp; &nbsp; &nbsp;\015\012&nbsp; &nbsp; &nbsp; &nb"
 317      3B20266E 
 317      6273703B 
 317      20266E62 
 317      73703B0D 
 318 11d4 73703B3C 		.ascii	"sp;<comment title=\"#config timefmt=&quot;%Y&quot; "
 318      636F6D6D 
 318      656E7420 
 318      7469746C 
 318      653D2223 
 319 1206 2220786D 		.ascii	"\" xmlns=\"http://disruptive-innovations.com/zoo/nv"
 319      6C6E733D 
 319      22687474 
 319      703A2F2F 
 319      64697372 
 320 1237 75223E3C 		.ascii	"u\"><!--#config timefmt=\"%Y\" --></comment><commen"
 320      212D2D23 
 320      636F6E66 
 320      69672074 
 320      696D6566 
 321 1267 74207469 		.ascii	"t title=\"#echo var=&quot;DATE_GMT&quot; \" xmlns=\""
 321      746C653D 
 321      22236563 
 321      686F2076 
 321      61723D26 
 322 1298 68747470 		.ascii	"http://disruptive-innovations.com/zoo/nvu\"><!--#ec"
 322      3A2F2F64 
 322      69737275 
 322      70746976 
 322      652D696E 
 323 12ca 686F2076 		.ascii	"ho var=\"DATE_GMT\" --></comment>\015\012<span styl"
 323      61723D22 
ARM GAS  C:\Users\zdy\AppData\Local\Temp\cckmpJrg.s 			page 19


 323      44415445 
 323      5F474D54 
 323      22202D2D 
 324 12f5 653D2263 		.ascii	"e=\"color: silver;\">&nbsp; &nbsp;\015\012&nbsp; &n"
 324      6F6C6F72 
 324      3A207369 
 324      6C766572 
 324      3B223E26 
 325 1320 6273703B 		.ascii	"bsp; &nbsp; &nbsp; &nbsp;All rights\015\012reserved"
 325      20266E62 
 325      73703B20 
 325      266E6273 
 325      703B2026 
 326 134d 20C2A920 		.ascii	" \302\251 2022 BK Instrumens</span>&nbsp;</font>\015"
 326      32303232 
 326      20424B20 
 326      496E7374 
 326      72756D65 
 327 1378 0A3C2F62 		.ascii	"\012</body>\015\012</html>"
 327      6F64793E 
 327      0D0A3C2F 
 327      68746D6C 
 327      3E
 328              		.section	.rodata.data__STM32F4x7LED_html,"a"
 329              		.align	2
 332              	data__STM32F4x7LED_html:
 333 0000 2F53544D 		.ascii	"/STM32F4x7LED.html\000\000HTTP/1.0 200 OK\015\012Se"
 333      33324634 
 333      78374C45 
 333      442E6874 
 333      6D6C0000 
 334 0027 72766572 		.ascii	"rver: lwIP/1.3.1 (http://savannah.nongnu.org/projec"
 334      3A206C77 
 334      49502F31 
 334      2E332E31 
 334      20286874 
 335 005a 74732F6C 		.ascii	"ts/lwip)\015\012Content-type: text/html\015\012\015"
 335      77697029 
 335      0D0A436F 
 335      6E74656E 
 335      742D7479 
 336 007e 0A3C2144 		.ascii	"\012<!DOCTYPE html PUBLIC \"-//W3C//DTD HTML 4.01//"
 336      4F435459 
 336      50452068 
 336      746D6C20 
 336      5055424C 
 337 00ad 454E2220 		.ascii	"EN\" \"http://www.w3.org/TR/html4/strict.dtd\">\015"
 337      22687474 
 337      703A2F2F 
 337      7777772E 
 337      77332E6F 
 338 00da 0A3C6874 		.ascii	"\012<html><head><title>STM32F4x7LED</title>\015\012"
 338      6D6C3E3C 
 338      68656164 
 338      3E3C7469 
 338      746C653E 
 339 0104 0D0A3C6D 		.ascii	"\015\012<meta http-equiv=\"Content-Type\" content=\""
ARM GAS  C:\Users\zdy\AppData\Local\Temp\cckmpJrg.s 			page 20


 339      65746120 
 339      68747470 
 339      2D657175 
 339      69763D22 
 340 012f 74657874 		.ascii	"text/html; charset=windows-1252\">\015\012<meta con"
 340      2F68746D 
 340      6C3B2063 
 340      68617273 
 340      65743D77 
 341 015b 74656E74 		.ascii	"tent=\"MSHTML 6.00.2800.1561\" name=\"GENERATOR\">\015"
 341      3D224D53 
 341      48544D4C 
 341      20362E30 
 341      302E3238 
 342 018a 0A3C7374 		.ascii	"\012<style =\"font-weight: normal; font-family: Ver"
 342      796C6520 
 342      3D22666F 
 342      6E742D77 
 342      65696768 
 343 01b9 64616E61 		.ascii	"dana;\"></style></head>\015\012<body>\015\012<h4><s"
 343      3B223E3C 
 343      2F737479 
 343      6C653E3C 
 343      2F686561 
 344 01df 6D616C6C 		.ascii	"mall style=\"font-family: Verdana;\"><small><big><b"
 344      20737479 
 344      6C653D22 
 344      666F6E74 
 344      2D66616D 
 345 0210 69673E3C 		.ascii	"ig><big style=\"font-weight: bold;\"><big><strong><"
 345      62696720 
 345      7374796C 
 345      653D2266 
 345      6F6E742D 
 346 0241 7370616E 		.ascii	"span style=\"font-style: italic;\">STM32F4x7 Leds c"
 346      20737479 
 346      6C653D22 
 346      666F6E74 
 346      2D737479 
 347 0272 6F6E7472 		.ascii	"ontrol</span></strong>&nbsp;\015\012&nbsp; &nbsp; &"
 347      6F6C3C2F 
 347      7370616E 
 347      3E3C2F73 
 347      74726F6E 
 348 029f 6E627370 		.ascii	"nbsp; &nbsp;&nbsp;</big></big></big></big></small><"
 348      3B20266E 
 348      6273703B 
 348      266E6273 
 348      703B3C2F 
 349 02d2 2F736D61 		.ascii	"/small></h4>\015\012<hr style=\"width: 100%; height"
 349      6C6C3E3C 
 349      2F68343E 
 349      0D0A3C68 
 349      72207374 
 350 02fe 3A203270 		.ascii	": 2px;\">\015\012<table style=\"width: 961px; heigh"
 350      783B223E 
 350      0D0A3C74 
ARM GAS  C:\Users\zdy\AppData\Local\Temp\cckmpJrg.s 			page 21


 350      61626C65 
 350      20737479 
 351 0329 743A2033 		.ascii	"t: 30px;\" border=\"1\" cellpadding=\"2\" cellspaci"
 351      3070783B 
 351      2220626F 
 351      72646572 
 351      3D223122 
 352 0357 6E673D22 		.ascii	"ng=\"2\">\015\012<tbody>\015\012<tr>\015\012<td sty"
 352      32223E0D 
 352      0A3C7462 
 352      6F64793E 
 352      0D0A3C74 
 353 0376 6C653D22 		.ascii	"le=\"font-family: Verdana; font-weight: bold; font-"
 353      666F6E74 
 353      2D66616D 
 353      696C793A 
 353      20566572 
 354 03a8 7374796C 		.ascii	"style: italic; background-color: rgb(51, 51, 255); "
 354      653A2069 
 354      74616C69 
 354      633B2062 
 354      61636B67 
 355 03db 74657874 		.ascii	"text-align: center;\"><small><a href=\"/index.html\""
 355      2D616C69 
 355      676E3A20 
 355      63656E74 
 355      65723B22 
 356 040c 3E3C7370 		.ascii	"><span style=\"color: white;\">Home\015\012page</sp"
 356      616E2073 
 356      74796C65 
 356      3D22636F 
 356      6C6F723A 
 357 0437 616E3E3C 		.ascii	"an></a></small></td>\015\012<td style=\"font-family"
 357      2F613E3C 
 357      2F736D61 
 357      6C6C3E3C 
 357      2F74643E 
 358 0463 3A205665 		.ascii	": Verdana; font-weight: bold; font-style: italic; b"
 358      7264616E 
 358      613B2066 
 358      6F6E742D 
 358      77656967 
 359 0496 61636B67 		.ascii	"ackground-color: rgb(51, 51, 255); text-align: cent"
 359      726F756E 
 359      642D636F 
 359      6C6F723A 
 359      20726762 
 360 04c9 65723B22 		.ascii	"er;\"><small><a href=\"/STM32F4x7LED.html\"><span s"
 360      3E3C736D 
 360      616C6C3E 
 360      3C612068 
 360      7265663D 
 361 04f9 74796C65 		.ascii	"tyle=\"color: white;\">Led\015\012control</span></a"
 361      3D22636F 
 361      6C6F723A 
 361      20776869 
 361      74653B22 
ARM GAS  C:\Users\zdy\AppData\Local\Temp\cckmpJrg.s 			page 22


 362 0524 3E3C2F73 		.ascii	"></small></td>\015\012<td style=\"font-family: Verd"
 362      6D616C6C 
 362      3E3C2F74 
 362      643E0D0A 
 362      3C746420 
 363 0550 616E613B 		.ascii	"ana; font-weight: bold; font-style: italic; backgro"
 363      20666F6E 
 363      742D7765 
 363      69676874 
 363      3A20626F 
 364 0583 756E642D 		.ascii	"und-color: rgb(51, 51, 255); text-align: center;\">"
 364      636F6C6F 
 364      723A2072 
 364      67622835 
 364      312C2035 
 365 05b5 3C736D61 		.ascii	"<small><a href=\"/STM32F4x7ADC.shtml\"><span style="
 365      6C6C3E3C 
 365      61206872 
 365      65663D22 
 365      2F53544D 
 366 05e6 22636F6C 		.ascii	"\"color: white;\">ADC\015\012status bar</span></a><"
 366      6F723A20 
 366      77686974 
 366      653B223E 
 366      4144430D 
 367 0611 2F736D61 		.ascii	"/small></td>\015\012\015\012</tr>\015\012</tbody>\015"
 367      6C6C3E3C 
 367      2F74643E 
 367      0D0A0D0A 
 367      3C2F7472 
 368 0631 0A3C2F74 		.ascii	"\012</table>\015\012<br>\015\012<big><br>\015\012</"
 368      61626C65 
 368      3E0D0A3C 
 368      62723E0D 
 368      0A3C6269 
 369 064f 6269673E 		.ascii	"big><small><span style=\"font-family: Verdana;\">Th"
 369      3C736D61 
 369      6C6C3E3C 
 369      7370616E 
 369      20737479 
 370 0680 69730D0A 		.ascii	"is\015\012page\015\012allows you to control the fou"
 370      70616765 
 370      0D0A616C 
 370      6C6F7773 
 370      20796F75 
 371 06a7 72204C45 		.ascii	"r LEDs: LED1, LED2, LED3 and LED4 located in\015\012"
 371      44733A20 
 371      4C454431 
 371      2C204C45 
 371      44322C20 
 372 06d5 74686526 		.ascii	"the&nbsp;STM324xG-EVAL board. To put on/off</span><"
 372      6E627370 
 372      3B53544D 
 372      33323478 
 372      472D4556 
 373 0708 62722073 		.ascii	"br style=\"font-family: Verdana;\">\015\012<span st"
 373      74796C65 
ARM GAS  C:\Users\zdy\AppData\Local\Temp\cckmpJrg.s 			page 23


 373      3D22666F 
 373      6E742D66 
 373      616D696C 
 374 0733 796C653D 		.ascii	"yle=\"font-family: Verdana;\">a LED you have to\015"
 374      22666F6E 
 374      742D6661 
 374      6D696C79 
 374      3A205665 
 375 0761 0A636865 		.ascii	"\012check/uncheck its corresponding checkbox. Then "
 375      636B2F75 
 375      6E636865 
 375      636B2069 
 375      74732063 
 376 0791 796F7520 		.ascii	"you have to click on\015\012\"Send\" button to subm"
 376      68617665 
 376      20746F20 
 376      636C6963 
 376      6B206F6E 
 377 07bc 69742074 		.ascii	"it the new LEDs</spa"
 377      6865206E 
 377      6577204C 
 377      4544733C 
 377      2F737061 
 378 07d0 6E3E3C62 		.ascii	"n><br style=\"font-family: Verdana;\">\015\012<span"
 378      72207374 
 378      796C653D 
 378      22666F6E 
 378      742D6661 
 379 07fb 20737479 		.ascii	" style=\"font-family: Verdana;\">configuration. Fin"
 379      6C653D22 
 379      666F6E74 
 379      2D66616D 
 379      696C793A 
 380 082c 616C6C79 		.ascii	"ally\015\012check in the&nbsp;STM324xG-EVAL board t"
 380      0D0A6368 
 380      65636B20 
 380      696E2074 
 380      6865266E 
 381 0859 68617420 		.ascii	"hat you get the desired LEDs\015\012are putted on/o"
 381      796F7520 
 381      67657420 
 381      74686520 
 381      64657369 
 382 0886 66662E20 		.ascii	"ff. </span><br style=\"font-family: Verdana;\">\015"
 382      3C2F7370 
 382      616E3E3C 
 382      62722073 
 382      74796C65 
 383 08b4 0A3C2F73 		.ascii	"\012</small>\015\012<br>\015\012<br>\015\012<table "
 383      6D616C6C 
 383      3E0D0A3C 
 383      62723E0D 
 383      0A3C6272 
 384 08d2 7374796C 		.ascii	"style=\"width: 787px; color: white; height: 31px;\""
 384      653D2277 
 384      69647468 
 384      3A203738 
ARM GAS  C:\Users\zdy\AppData\Local\Temp\cckmpJrg.s 			page 24


 384      3770783B 
 385 0903 20776869 		.ascii	" white=\"\" color=\"\" ;=\"\" 100=\"\" border=\"0\""
 385      74653D22 
 385      2220636F 
 385      6C6F723D 
 385      2222203B 
 386 092c 2063656C 		.ascii	" cellpadding=\"3\" cellspacing=\"0\">\015\012<tbody"
 386      6C706164 
 386      64696E67 
 386      3D223322 
 386      2063656C 
 387 0955 3E0D0A3C 		.ascii	">\015\012<tr>\015\012<td class=\"tabtitle\" style=\""
 387      74723E0D 
 387      0A3C7464 
 387      20636C61 
 387      73733D22 
 388 097a 68656967 		.ascii	"height: 15px; background-color: rgb(51, 51, 255);\""
 388      68743A20 
 388      31357078 
 388      3B206261 
 388      636B6772 
 389 09ac 3E3C6269 		.ascii	"><big><big><font size=\"-1\"><big><big><strong>STM3"
 389      673E3C62 
 389      69673E3C 
 389      666F6E74 
 389      2073697A 
 390 09dd 320D0A57 		.ascii	"2\015\012Webserver LEDs Control</strong></big></big"
 390      65627365 
 390      72766572 
 390      204C4544 
 390      7320436F 
 391 0a0a 3E3C2F66 		.ascii	"></font></big></big></td>\015\012</tr>\015\012</tbo"
 391      6F6E743E 
 391      3C2F6269 
 391      673E3C2F 
 391      6269673E 
 392 0a31 64793E0D 		.ascii	"dy>\015\012</table>\015\012<br>\015\012<form method"
 392      0A3C2F74 
 392      61626C65 
 392      3E0D0A3C 
 392      62723E0D 
 393 0a52 3D226765 		.ascii	"=\"get\" action=\"/leds.cgi\"><input value=\"1\" na"
 393      74222061 
 393      6374696F 
 393      6E3D222F 
 393      6C656473 
 394 0a7f 6D653D22 		.ascii	"me=\"led\" type=\"checkbox\">LED1<br>\015\012<input"
 394      6C656422 
 394      20747970 
 394      653D2263 
 394      6865636B 
 395 0aa8 2076616C 		.ascii	" value=\"2\" name=\"led\" type=\"checkbox\">LED2<br"
 395      75653D22 
 395      3222206E 
 395      616D653D 
 395      226C6564 
 396 0ad5 3E0D0A3C 		.ascii	">\015\012<input value=\"3\" name=\"led\" type=\"che"
ARM GAS  C:\Users\zdy\AppData\Local\Temp\cckmpJrg.s 			page 25


 396      696E7075 
 396      74207661 
 396      6C75653D 
 396      22332220 
 397 0afd 636B626F 		.ascii	"ckbox\">LED3<br>\015\012<input value=\"4\" name=\"l"
 397      78223E4C 
 397      4544333C 
 397      62723E0D 
 397      0A3C696E 
 398 0b26 65642220 		.ascii	"ed\" type=\"checkbox\">LED4\015\012<br>\015\012<br>"
 398      74797065 
 398      3D226368 
 398      65636B62 
 398      6F78223E 
 399 0b4a 0D0A3C69 		.ascii	"\015\012<input value=\"Send\" type=\"submit\"> </fo"
 399      6E707574 
 399      2076616C 
 399      75653D22 
 399      53656E64 
 400 0b73 726D3E0D 		.ascii	"rm>\015\012<h3><font size=\"-1\"><span style=\"colo"
 400      0A3C6833 
 400      3E3C666F 
 400      6E742073 
 400      697A653D 
 401 0b9d 723A2062 		.ascii	"r: black;\"></span>\015\012</font></h3><h3 style=\""
 401      6C61636B 
 401      3B223E3C 
 401      2F737061 
 401      6E3E0D0A 
 402 0bc8 666F6E74 		.ascii	"font-weight: normal; font-family: Verdana;\"><font "
 402      2D776569 
 402      6768743A 
 402      206E6F72 
 402      6D616C3B 
 403 0bfa 73697A65 		.ascii	"size=\"-1\"><br>\015\012</font></h3>\015\012<span s"
 403      3D222D31 
 403      223E3C62 
 403      723E0D0A 
 403      3C2F666F 
 404 0c1f 74796C65 		.ascii	"tyle=\"font-family: Verdana;\"></span><font size=\""
 404      3D22666F 
 404      6E742D66 
 404      616D696C 
 404      793A2056 
 405 0c4f 2D31223E 		.ascii	"-1\"><a style=\"font-family: Verdana;\" href=\"/STM"
 405      3C612073 
 405      74796C65 
 405      3D22666F 
 405      6E742D66 
 406 0c7e 33324634 		.ascii	"32F4x7.html\"><big><span style=\"font-weight: bold;"
 406      78372E68 
 406      746D6C22 
 406      3E3C6269 
 406      673E3C73 
 407 0caf 223E3C2F 		.ascii	"\"></span></big></a></font>\015\012<font size=\"-1\""
 407      7370616E 
 407      3E3C2F62 
ARM GAS  C:\Users\zdy\AppData\Local\Temp\cckmpJrg.s 			page 26


 407      69673E3C 
 407      2F613E3C 
 408 0cda 3E3C7370 		.ascii	"><span style=\"color: black;\">____________________"
 408      616E2073 
 408      74796C65 
 408      3D22636F 
 408      6C6F723A 
 409 0d0b 5F5F5F5F 		.ascii	"___________________________________________________"
 409      5F5F5F5F 
 409      5F5F5F5F 
 409      5F5F5F5F 
 409      5F5F5F5F 
 410 0d3e 5F5F5F5F 		.ascii	"________________________________________<br>\015\012"
 410      5F5F5F5F 
 410      5F5F5F5F 
 410      5F5F5F5F 
 410      5F5F5F5F 
 411 0d6c 3C2F7370 		.ascii	"</span></font><font class=\"footmsg\">&nbsp;\015\012"
 411      616E3E3C 
 411      2F666F6E 
 411      743E3C66 
 411      6F6E7420 
 412 0d98 266E6273 		.ascii	"&nbsp; &nbsp; &nbsp; &nbsp; &nbsp; &nbsp;\015\012&n"
 412      703B2026 
 412      6E627370 
 412      3B20266E 
 412      6273703B 
 413 0dc5 6273703B 		.ascii	"bsp; &nbsp; &nbsp; &nbsp; &nbsp; &nbsp;\015\012&nbs"
 413      20266E62 
 413      73703B20 
 413      266E6273 
 413      703B2026 
 414 0df2 703B2026 		.ascii	"p; &nbsp; &nbsp; &nbsp; &nbsp; &nbsp;\015\012&nbsp;"
 414      6E627370 
 414      3B20266E 
 414      6273703B 
 414      20266E62 
 415 0e1f 20266E62 		.ascii	" &nbsp; &nbsp; &nbsp;<comment title=\"#config timef"
 415      73703B20 
 415      266E6273 
 415      703B2026 
 415      6E627370 
 416 0e51 6D743D26 		.ascii	"mt=&quot;%Y&quot; \" xmlns=\"http://disruptive-inno"
 416      71756F74 
 416      3B255926 
 416      71756F74 
 416      3B202220 
 417 0e82 76617469 		.ascii	"vations.com/zoo/nvu\"><!--#config timefmt=\"%Y\" --"
 417      6F6E732E 
 417      636F6D2F 
 417      7A6F6F2F 
 417      6E767522 
 418 0eb2 3E3C2F63 		.ascii	"></comment><comment title=\"#echo var=&quot;DATE_GM"
 418      6F6D6D65 
 418      6E743E3C 
 418      636F6D6D 
 418      656E7420 
ARM GAS  C:\Users\zdy\AppData\Local\Temp\cckmpJrg.s 			page 27


 419 0ee4 54267175 		.ascii	"T&quot; \" xmlns=\"http://disruptive-innovations.co"
 419      6F743B20 
 419      2220786D 
 419      6C6E733D 
 419      22687474 
 420 0f15 6D2F7A6F 		.ascii	"m/zoo/nvu\"><!--#echo var=\"DATE_GMT\" --></comment"
 420      6F2F6E76 
 420      75223E3C 
 420      212D2D23 
 420      6563686F 
 421 0f45 3E0D0A3C 		.ascii	">\015\012<span style=\"color: silver;\">&nbsp; &nbs"
 421      7370616E 
 421      20737479 
 421      6C653D22 
 421      636F6C6F 
 422 0f70 703B0D0A 		.ascii	"p;\015\012&nbsp; &nbsp; &nbsp; &nbsp; &nbsp;All rig"
 422      266E6273 
 422      703B2026 
 422      6E627370 
 422      3B20266E 
 423 0f9d 687473   		.ascii	"hts"
 424 0fa0 0D0A7265 		.ascii	"\015\012reserved \251 2011 STMicroelectronics</span"
 424      73657276 
 424      656420A9 
 424      20323031 
 424      31205354 
 425 0fca 3E266E62 		.ascii	">&nbsp;</font>\015\012</body></html>"
 425      73703B3C 
 425      2F666F6E 
 425      743E0D0A 
 425      3C2F626F 
 426              		.section	.rodata.data__STM32F4x7_files_ST_gif,"a"
 427              		.align	2
 430              	data__STM32F4x7_files_ST_gif:
 431 0000 2F       		.byte	47
 432 0001 53       		.byte	83
 433 0002 54       		.byte	84
 434 0003 4D       		.byte	77
 435 0004 33       		.byte	51
 436 0005 32       		.byte	50
 437 0006 46       		.byte	70
 438 0007 34       		.byte	52
 439 0008 78       		.byte	120
 440 0009 37       		.byte	55
 441 000a 5F       		.byte	95
 442 000b 66       		.byte	102
 443 000c 69       		.byte	105
 444 000d 6C       		.byte	108
 445 000e 65       		.byte	101
 446 000f 73       		.byte	115
 447 0010 2F       		.byte	47
 448 0011 53       		.byte	83
 449 0012 54       		.byte	84
 450 0013 2E       		.byte	46
 451 0014 67       		.byte	103
 452 0015 69       		.byte	105
 453 0016 66       		.byte	102
ARM GAS  C:\Users\zdy\AppData\Local\Temp\cckmpJrg.s 			page 28


 454 0017 00       		.byte	0
 455 0018 48       		.byte	72
 456 0019 54       		.byte	84
 457 001a 54       		.byte	84
 458 001b 50       		.byte	80
 459 001c 2F       		.byte	47
 460 001d 31       		.byte	49
 461 001e 2E       		.byte	46
 462 001f 30       		.byte	48
 463 0020 20       		.byte	32
 464 0021 32       		.byte	50
 465 0022 30       		.byte	48
 466 0023 30       		.byte	48
 467 0024 20       		.byte	32
 468 0025 4F       		.byte	79
 469 0026 4B       		.byte	75
 470 0027 0D       		.byte	13
 471 0028 0A       		.byte	10
 472 0029 53       		.byte	83
 473 002a 65       		.byte	101
 474 002b 72       		.byte	114
 475 002c 76       		.byte	118
 476 002d 65       		.byte	101
 477 002e 72       		.byte	114
 478 002f 3A       		.byte	58
 479 0030 20       		.byte	32
 480 0031 6C       		.byte	108
 481 0032 77       		.byte	119
 482 0033 49       		.byte	73
 483 0034 50       		.byte	80
 484 0035 2F       		.byte	47
 485 0036 31       		.byte	49
 486 0037 2E       		.byte	46
 487 0038 33       		.byte	51
 488 0039 2E       		.byte	46
 489 003a 31       		.byte	49
 490 003b 20       		.byte	32
 491 003c 28       		.byte	40
 492 003d 68       		.byte	104
 493 003e 74       		.byte	116
 494 003f 74       		.byte	116
 495 0040 70       		.byte	112
 496 0041 3A       		.byte	58
 497 0042 2F       		.byte	47
 498 0043 2F       		.byte	47
 499 0044 73       		.byte	115
 500 0045 61       		.byte	97
 501 0046 76       		.byte	118
 502 0047 61       		.byte	97
 503 0048 6E       		.byte	110
 504 0049 6E       		.byte	110
 505 004a 61       		.byte	97
 506 004b 68       		.byte	104
 507 004c 2E       		.byte	46
 508 004d 6E       		.byte	110
 509 004e 6F       		.byte	111
 510 004f 6E       		.byte	110
ARM GAS  C:\Users\zdy\AppData\Local\Temp\cckmpJrg.s 			page 29


 511 0050 67       		.byte	103
 512 0051 6E       		.byte	110
 513 0052 75       		.byte	117
 514 0053 2E       		.byte	46
 515 0054 6F       		.byte	111
 516 0055 72       		.byte	114
 517 0056 67       		.byte	103
 518 0057 2F       		.byte	47
 519 0058 70       		.byte	112
 520 0059 72       		.byte	114
 521 005a 6F       		.byte	111
 522 005b 6A       		.byte	106
 523 005c 65       		.byte	101
 524 005d 63       		.byte	99
 525 005e 74       		.byte	116
 526 005f 73       		.byte	115
 527 0060 2F       		.byte	47
 528 0061 6C       		.byte	108
 529 0062 77       		.byte	119
 530 0063 69       		.byte	105
 531 0064 70       		.byte	112
 532 0065 29       		.byte	41
 533 0066 0D       		.byte	13
 534 0067 0A       		.byte	10
 535 0068 43       		.byte	67
 536 0069 6F       		.byte	111
 537 006a 6E       		.byte	110
 538 006b 74       		.byte	116
 539 006c 65       		.byte	101
 540 006d 6E       		.byte	110
 541 006e 74       		.byte	116
 542 006f 2D       		.byte	45
 543 0070 74       		.byte	116
 544 0071 79       		.byte	121
 545 0072 70       		.byte	112
 546 0073 65       		.byte	101
 547 0074 3A       		.byte	58
 548 0075 20       		.byte	32
 549 0076 69       		.byte	105
 550 0077 6D       		.byte	109
 551 0078 61       		.byte	97
 552 0079 67       		.byte	103
 553 007a 65       		.byte	101
 554 007b 2F       		.byte	47
 555 007c 67       		.byte	103
 556 007d 69       		.byte	105
 557 007e 66       		.byte	102
 558 007f 0D       		.byte	13
 559 0080 0A       		.byte	10
 560 0081 0D       		.byte	13
 561 0082 0A       		.byte	10
 562 0083 47       		.byte	71
 563 0084 49       		.byte	73
 564 0085 46       		.byte	70
 565 0086 38       		.byte	56
 566 0087 39       		.byte	57
 567 0088 61       		.byte	97
ARM GAS  C:\Users\zdy\AppData\Local\Temp\cckmpJrg.s 			page 30


 568 0089 FE       		.byte	-2
 569 008a 02       		.byte	2
 570 008b 3A       		.byte	58
 571 008c 00       		.byte	0
 572 008d F7       		.byte	-9
 573 008e 00       		.byte	0
 574 008f 00       		.byte	0
 575 0090 FF       		.byte	-1
 576 0091 FF       		.byte	-1
 577 0092 FF       		.byte	-1
 578 0093 F8       		.byte	-8
 579 0094 FB       		.byte	-5
 580 0095 FF       		.byte	-1
 581 0096 F6       		.byte	-10
 582 0097 FA       		.byte	-6
 583 0098 FF       		.byte	-1
 584 0099 F7       		.byte	-9
 585 009a F7       		.byte	-9
 586 009b F7       		.byte	-9
 587 009c EF       		.byte	-17
 588 009d F6       		.byte	-10
 589 009e FE       		.byte	-2
 590 009f F2       		.byte	-14
 591 00a0 F6       		.byte	-10
 592 00a1 FA       		.byte	-6
 593 00a2 EF       		.byte	-17
 594 00a3 EF       		.byte	-17
 595 00a4 EF       		.byte	-17
 596 00a5 EE       		.byte	-18
 597 00a6 EE       		.byte	-18
 598 00a7 F7       		.byte	-9
 599 00a8 E8       		.byte	-24
 600 00a9 EC       		.byte	-20
 601 00aa EF       		.byte	-17
 602 00ab E6       		.byte	-26
 603 00ac EF       		.byte	-17
 604 00ad F8       		.byte	-8
 605 00ae E0       		.byte	-32
 606 00af EF       		.byte	-17
 607 00b0 FF       		.byte	-1
 608 00b1 E6       		.byte	-26
 609 00b2 E6       		.byte	-26
 610 00b3 E6       		.byte	-26
 611 00b4 E2       		.byte	-30
 612 00b5 E4       		.byte	-28
 613 00b6 E7       		.byte	-25
 614 00b7 D3       		.byte	-45
 615 00b8 E5       		.byte	-27
 616 00b9 F9       		.byte	-7
 617 00ba CD       		.byte	-51
 618 00bb E4       		.byte	-28
 619 00bc FE       		.byte	-2
 620 00bd DE       		.byte	-34
 621 00be DE       		.byte	-34
 622 00bf EF       		.byte	-17
 623 00c0 DE       		.byte	-34
 624 00c1 DE       		.byte	-34
ARM GAS  C:\Users\zdy\AppData\Local\Temp\cckmpJrg.s 			page 31


 625 00c2 DE       		.byte	-34
 626 00c3 DE       		.byte	-34
 627 00c4 E1       		.byte	-31
 628 00c5 E5       		.byte	-27
 629 00c6 D0       		.byte	-48
 630 00c7 DE       		.byte	-34
 631 00c8 ED       		.byte	-19
 632 00c9 D8       		.byte	-40
 633 00ca DE       		.byte	-34
 634 00cb E5       		.byte	-27
 635 00cc BE       		.byte	-66
 636 00cd DD       		.byte	-35
 637 00ce FE       		.byte	-2
 638 00cf D6       		.byte	-42
 639 00d0 D6       		.byte	-42
 640 00d1 D6       		.byte	-42
 641 00d2 CD       		.byte	-51
 642 00d3 D5       		.byte	-43
 643 00d4 DF       		.byte	-33
 644 00d5 C6       		.byte	-58
 645 00d6 D3       		.byte	-45
 646 00d7 E2       		.byte	-30
 647 00d8 BA       		.byte	-70
 648 00d9 D7       		.byte	-41
 649 00da F7       		.byte	-9
 650 00db CE       		.byte	-50
 651 00dc CE       		.byte	-50
 652 00dd E7       		.byte	-25
 653 00de BD       		.byte	-67
 654 00df D6       		.byte	-42
 655 00e0 F2       		.byte	-14
 656 00e1 CC       		.byte	-52
 657 00e2 CC       		.byte	-52
 658 00e3 CC       		.byte	-52
 659 00e4 AD       		.byte	-83
 660 00e5 D4       		.byte	-44
 661 00e6 FE       		.byte	-2
 662 00e7 BC       		.byte	-68
 663 00e8 CD       		.byte	-51
 664 00e9 DF       		.byte	-33
 665 00ea AC       		.byte	-84
 666 00eb CF       		.byte	-49
 667 00ec F6       		.byte	-10
 668 00ed C5       		.byte	-59
 669 00ee C5       		.byte	-59
 670 00ef C5       		.byte	-59
 671 00f0 99       		.byte	-103
 672 00f1 CC       		.byte	-52
 673 00f2 FF       		.byte	-1
 674 00f3 AA       		.byte	-86
 675 00f4 C8       		.byte	-56
 676 00f5 E9       		.byte	-23
 677 00f6 A5       		.byte	-91
 678 00f7 C9       		.byte	-55
 679 00f8 F0       		.byte	-16
 680 00f9 BA       		.byte	-70
 681 00fa BA       		.byte	-70
ARM GAS  C:\Users\zdy\AppData\Local\Temp\cckmpJrg.s 			page 32


 682 00fb DD       		.byte	-35
 683 00fc 99       		.byte	-103
 684 00fd C6       		.byte	-58
 685 00fe F7       		.byte	-9
 686 00ff BD       		.byte	-67
 687 0100 BD       		.byte	-67
 688 0101 BD       		.byte	-67
 689 0102 8F       		.byte	-113
 690 0103 C4       		.byte	-60
 691 0104 FE       		.byte	-2
 692 0105 A8       		.byte	-88
 693 0106 C0       		.byte	-64
 694 0107 DA       		.byte	-38
 695 0108 B5       		.byte	-75
 696 0109 B5       		.byte	-75
 697 010a B5       		.byte	-75
 698 010b 9A       		.byte	-102
 699 010c B8       		.byte	-72
 700 010d D9       		.byte	-39
 701 010e 89       		.byte	-119
 702 010f BB       		.byte	-69
 703 0110 F0       		.byte	-16
 704 0111 8F       		.byte	-113
 705 0112 BA       		.byte	-70
 706 0113 E8       		.byte	-24
 707 0114 81       		.byte	-127
 708 0115 BC       		.byte	-68
 709 0116 FC       		.byte	-4
 710 0117 AA       		.byte	-86
 711 0118 AA       		.byte	-86
 712 0119 D5       		.byte	-43
 713 011a B1       		.byte	-79
 714 011b B0       		.byte	-80
 715 011c B0       		.byte	-80
 716 011d AB       		.byte	-85
 717 011e AA       		.byte	-86
 718 011f AA       		.byte	-86
 719 0120 81       		.byte	-127
 720 0121 B1       		.byte	-79
 721 0122 E5       		.byte	-27
 722 0123 8C       		.byte	-116
 723 0124 B0       		.byte	-80
 724 0125 D8       		.byte	-40
 725 0126 74       		.byte	116
 726 0127 B5       		.byte	-75
 727 0128 FC       		.byte	-4
 728 0129 7B       		.byte	123
 729 012a B3       		.byte	-77
 730 012b F0       		.byte	-16
 731 012c 6C       		.byte	108
 732 012d B2       		.byte	-78
 733 012e FD       		.byte	-3
 734 012f A4       		.byte	-92
 735 0130 A4       		.byte	-92
 736 0131 A4       		.byte	-92
 737 0132 82       		.byte	-126
 738 0133 AD       		.byte	-83
ARM GAS  C:\Users\zdy\AppData\Local\Temp\cckmpJrg.s 			page 33


 739 0134 DD       		.byte	-35
 740 0135 78       		.byte	120
 741 0136 AA       		.byte	-86
 742 0137 E1       		.byte	-31
 743 0138 99       		.byte	-103
 744 0139 99       		.byte	-103
 745 013a CC       		.byte	-52
 746 013b 6D       		.byte	109
 747 013c AE       		.byte	-82
 748 013d F3       		.byte	-13
 749 013e 61       		.byte	97
 750 013f AC       		.byte	-84
 751 0140 FC       		.byte	-4
 752 0141 78       		.byte	120
 753 0142 A8       		.byte	-88
 754 0143 DB       		.byte	-37
 755 0144 99       		.byte	-103
 756 0145 99       		.byte	-103
 757 0146 99       		.byte	-103
 758 0147 67       		.byte	103
 759 0148 A7       		.byte	-89
 760 0149 EC       		.byte	-20
 761 014a 6D       		.byte	109
 762 014b A6       		.byte	-90
 763 014c E4       		.byte	-28
 764 014d 59       		.byte	89
 765 014e A7       		.byte	-89
 766 014f FC       		.byte	-4
 767 0150 6B       		.byte	107
 768 0151 9E       		.byte	-98
 769 0152 D5       		.byte	-43
 770 0153 61       		.byte	97
 771 0154 9B       		.byte	-101
 772 0155 D9       		.byte	-39
 773 0156 57       		.byte	87
 774 0157 A1       		.byte	-95
 775 0158 F0       		.byte	-16
 776 0159 4C       		.byte	76
 777 015a A1       		.byte	-95
 778 015b FD       		.byte	-3
 779 015c 8B       		.byte	-117
 780 015d 8B       		.byte	-117
 781 015e C5       		.byte	-59
 782 015f 5C       		.byte	92
 783 0160 9C       		.byte	-100
 784 0161 E2       		.byte	-30
 785 0162 43       		.byte	67
 786 0163 9C       		.byte	-100
 787 0164 FC       		.byte	-4
 788 0165 5E       		.byte	94
 789 0166 98       		.byte	-104
 790 0167 D8       		.byte	-40
 791 0168 47       		.byte	71
 792 0169 97       		.byte	-105
 793 016a ED       		.byte	-19
 794 016b 33       		.byte	51
 795 016c 99       		.byte	-103
ARM GAS  C:\Users\zdy\AppData\Local\Temp\cckmpJrg.s 			page 34


 796 016d FF       		.byte	-1
 797 016e 56       		.byte	86
 798 016f 94       		.byte	-108
 799 0170 D8       		.byte	-40
 800 0171 4B       		.byte	75
 801 0172 93       		.byte	-109
 802 0173 E1       		.byte	-31
 803 0174 41       		.byte	65
 804 0175 96       		.byte	-106
 805 0176 F1       		.byte	-15
 806 0177 7C       		.byte	124
 807 0178 7C       		.byte	124
 808 0179 BE       		.byte	-66
 809 017a 4D       		.byte	77
 810 017b 8D       		.byte	-115
 811 017c D4       		.byte	-44
 812 017d 33       		.byte	51
 813 017e 99       		.byte	-103
 814 017f FF       		.byte	-1
 815 0180 39       		.byte	57
 816 0181 89       		.byte	-119
 817 0182 E0       		.byte	-32
 818 0183 31       		.byte	49
 819 0184 8B       		.byte	-117
 820 0185 ED       		.byte	-19
 821 0186 75       		.byte	117
 822 0187 75       		.byte	117
 823 0188 BA       		.byte	-70
 824 0189 27       		.byte	39
 825 018a 8D       		.byte	-115
 826 018b FC       		.byte	-4
 827 018c 2B       		.byte	43
 828 018d 8A       		.byte	-118
 829 018e F2       		.byte	-14
 830 018f 24       		.byte	36
 831 0190 8C       		.byte	-116
 832 0191 FC       		.byte	-4
 833 0192 37       		.byte	55
 834 0193 87       		.byte	-121
 835 0194 DF       		.byte	-33
 836 0195 31       		.byte	49
 837 0196 87       		.byte	-121
 838 0197 E4       		.byte	-28
 839 0198 6A       		.byte	106
 840 0199 6A       		.byte	106
 841 019a B5       		.byte	-75
 842 019b 22       		.byte	34
 843 019c 87       		.byte	-121
 844 019d F5       		.byte	-11
 845 019e 16       		.byte	22
 846 019f 85       		.byte	-123
 847 01a0 FC       		.byte	-4
 848 01a1 12       		.byte	18
 849 01a2 82       		.byte	-126
 850 01a3 FC       		.byte	-4
 851 01a4 32       		.byte	50
 852 01a5 7F       		.byte	127
ARM GAS  C:\Users\zdy\AppData\Local\Temp\cckmpJrg.s 			page 35


 853 01a6 D3       		.byte	-45
 854 01a7 65       		.byte	101
 855 01a8 65       		.byte	101
 856 01a9 B2       		.byte	-78
 857 01aa 1B       		.byte	27
 858 01ab 7B       		.byte	123
 859 01ac E4       		.byte	-28
 860 01ad 0A       		.byte	10
 861 01ae 7E       		.byte	126
 862 01af FC       		.byte	-4
 863 01b0 0A       		.byte	10
 864 01b1 7B       		.byte	123
 865 01b2 F6       		.byte	-10
 866 01b3 09       		.byte	9
 867 01b4 78       		.byte	120
 868 01b5 EF       		.byte	-17
 869 01b6 19       		.byte	25
 870 01b7 72       		.byte	114
 871 01b8 D3       		.byte	-45
 872 01b9 58       		.byte	88
 873 01ba 58       		.byte	88
 874 01bb AC       		.byte	-84
 875 01bc 13       		.byte	19
 876 01bd 74       		.byte	116
 877 01be DC       		.byte	-36
 878 01bf 09       		.byte	9
 879 01c0 77       		.byte	119
 880 01c1 EE       		.byte	-18
 881 01c2 09       		.byte	9
 882 01c3 73       		.byte	115
 883 01c4 E6       		.byte	-26
 884 01c5 09       		.byte	9
 885 01c6 70       		.byte	112
 886 01c7 DF       		.byte	-33
 887 01c8 0F       		.byte	15
 888 01c9 6E       		.byte	110
 889 01ca D4       		.byte	-44
 890 01cb 54       		.byte	84
 891 01cc 54       		.byte	84
 892 01cd AA       		.byte	-86
 893 01ce 09       		.byte	9
 894 01cf 6E       		.byte	110
 895 01d0 DC       		.byte	-36
 896 01d1 09       		.byte	9
 897 01d2 6B       		.byte	107
 898 01d3 D6       		.byte	-42
 899 01d4 4A       		.byte	74
 900 01d5 4A       		.byte	74
 901 01d6 A5       		.byte	-91
 902 01d7 44       		.byte	68
 903 01d8 44       		.byte	68
 904 01d9 A2       		.byte	-94
 905 01da 44       		.byte	68
 906 01db 44       		.byte	68
 907 01dc 8F       		.byte	-113
 908 01dd 3D       		.byte	61
 909 01de 3D       		.byte	61
ARM GAS  C:\Users\zdy\AppData\Local\Temp\cckmpJrg.s 			page 36


 910 01df 9E       		.byte	-98
 911 01e0 33       		.byte	51
 912 01e1 33       		.byte	51
 913 01e2 99       		.byte	-103
 914 01e3 30       		.byte	48
 915 01e4 30       		.byte	48
 916 01e5 83       		.byte	-125
 917 01e6 20       		.byte	32
 918 01e7 20       		.byte	32
 919 01e8 90       		.byte	-112
 920 01e9 20       		.byte	32
 921 01ea 20       		.byte	32
 922 01eb 79       		.byte	121
 923 01ec 1A       		.byte	26
 924 01ed 1A       		.byte	26
 925 01ee 8F       		.byte	-113
 926 01ef 10       		.byte	16
 927 01f0 10       		.byte	16
 928 01f1 88       		.byte	-120
 929 01f2 10       		.byte	16
 930 01f3 10       		.byte	16
 931 01f4 70       		.byte	112
 932 01f5 0C       		.byte	12
 933 01f6 0C       		.byte	12
 934 01f7 84       		.byte	-124
 935 01f8 00       		.byte	0
 936 01f9 00       		.byte	0
 937 01fa 82       		.byte	-126
 938 01fb 00       		.byte	0
 939 01fc 00       		.byte	0
 940 01fd 7F       		.byte	127
 941 01fe 00       		.byte	0
 942 01ff 00       		.byte	0
 943 0200 75       		.byte	117
 944 0201 00       		.byte	0
 945 0202 00       		.byte	0
 946 0203 66       		.byte	102
 947 0204 00       		.byte	0
 948 0205 00       		.byte	0
 949 0206 56       		.byte	86
 950 0207 00       		.byte	0
 951 0208 00       		.byte	0
 952 0209 43       		.byte	67
 953 020a 00       		.byte	0
 954 020b 00       		.byte	0
 955 020c 33       		.byte	51
 956 020d 00       		.byte	0
 957 020e 00       		.byte	0
 958 020f 21       		.byte	33
 959 0210 00       		.byte	0
 960 0211 00       		.byte	0
 961 0212 00       		.byte	0
 962 0213 00       		.byte	0
 963 0214 00       		.byte	0
 964 0215 00       		.byte	0
 965 0216 00       		.byte	0
 966 0217 00       		.byte	0
ARM GAS  C:\Users\zdy\AppData\Local\Temp\cckmpJrg.s 			page 37


 967 0218 00       		.byte	0
 968 0219 00       		.byte	0
 969 021a 00       		.byte	0
 970 021b 00       		.byte	0
 971 021c 00       		.byte	0
 972 021d 00       		.byte	0
 973 021e 00       		.byte	0
 974 021f 00       		.byte	0
 975 0220 00       		.byte	0
 976 0221 00       		.byte	0
 977 0222 00       		.byte	0
 978 0223 00       		.byte	0
 979 0224 00       		.byte	0
 980 0225 00       		.byte	0
 981 0226 00       		.byte	0
 982 0227 00       		.byte	0
 983 0228 00       		.byte	0
 984 0229 00       		.byte	0
 985 022a 00       		.byte	0
 986 022b 00       		.byte	0
 987 022c 00       		.byte	0
 988 022d 00       		.byte	0
 989 022e 00       		.byte	0
 990 022f 00       		.byte	0
 991 0230 00       		.byte	0
 992 0231 00       		.byte	0
 993 0232 00       		.byte	0
 994 0233 00       		.byte	0
 995 0234 00       		.byte	0
 996 0235 00       		.byte	0
 997 0236 00       		.byte	0
 998 0237 00       		.byte	0
 999 0238 00       		.byte	0
 1000 0239 00       		.byte	0
 1001 023a 00       		.byte	0
 1002 023b 00       		.byte	0
 1003 023c 00       		.byte	0
 1004 023d 00       		.byte	0
 1005 023e 00       		.byte	0
 1006 023f 00       		.byte	0
 1007 0240 00       		.byte	0
 1008 0241 00       		.byte	0
 1009 0242 00       		.byte	0
 1010 0243 00       		.byte	0
 1011 0244 00       		.byte	0
 1012 0245 00       		.byte	0
 1013 0246 00       		.byte	0
 1014 0247 00       		.byte	0
 1015 0248 00       		.byte	0
 1016 0249 00       		.byte	0
 1017 024a 00       		.byte	0
 1018 024b 00       		.byte	0
 1019 024c 00       		.byte	0
 1020 024d 00       		.byte	0
 1021 024e 00       		.byte	0
 1022 024f 00       		.byte	0
 1023 0250 00       		.byte	0
ARM GAS  C:\Users\zdy\AppData\Local\Temp\cckmpJrg.s 			page 38


 1024 0251 00       		.byte	0
 1025 0252 00       		.byte	0
 1026 0253 00       		.byte	0
 1027 0254 00       		.byte	0
 1028 0255 00       		.byte	0
 1029 0256 00       		.byte	0
 1030 0257 00       		.byte	0
 1031 0258 00       		.byte	0
 1032 0259 00       		.byte	0
 1033 025a 00       		.byte	0
 1034 025b 00       		.byte	0
 1035 025c 00       		.byte	0
 1036 025d 00       		.byte	0
 1037 025e 00       		.byte	0
 1038 025f 00       		.byte	0
 1039 0260 00       		.byte	0
 1040 0261 00       		.byte	0
 1041 0262 00       		.byte	0
 1042 0263 00       		.byte	0
 1043 0264 00       		.byte	0
 1044 0265 00       		.byte	0
 1045 0266 00       		.byte	0
 1046 0267 00       		.byte	0
 1047 0268 00       		.byte	0
 1048 0269 00       		.byte	0
 1049 026a 00       		.byte	0
 1050 026b 00       		.byte	0
 1051 026c 00       		.byte	0
 1052 026d 00       		.byte	0
 1053 026e 00       		.byte	0
 1054 026f 00       		.byte	0
 1055 0270 00       		.byte	0
 1056 0271 00       		.byte	0
 1057 0272 00       		.byte	0
 1058 0273 00       		.byte	0
 1059 0274 00       		.byte	0
 1060 0275 00       		.byte	0
 1061 0276 00       		.byte	0
 1062 0277 00       		.byte	0
 1063 0278 00       		.byte	0
 1064 0279 00       		.byte	0
 1065 027a 00       		.byte	0
 1066 027b 00       		.byte	0
 1067 027c 00       		.byte	0
 1068 027d 00       		.byte	0
 1069 027e 00       		.byte	0
 1070 027f 00       		.byte	0
 1071 0280 00       		.byte	0
 1072 0281 00       		.byte	0
 1073 0282 00       		.byte	0
 1074 0283 00       		.byte	0
 1075 0284 00       		.byte	0
 1076 0285 00       		.byte	0
 1077 0286 00       		.byte	0
 1078 0287 00       		.byte	0
 1079 0288 00       		.byte	0
 1080 0289 00       		.byte	0
ARM GAS  C:\Users\zdy\AppData\Local\Temp\cckmpJrg.s 			page 39


 1081 028a 00       		.byte	0
 1082 028b 00       		.byte	0
 1083 028c 00       		.byte	0
 1084 028d 00       		.byte	0
 1085 028e 00       		.byte	0
 1086 028f 00       		.byte	0
 1087 0290 00       		.byte	0
 1088 0291 00       		.byte	0
 1089 0292 00       		.byte	0
 1090 0293 00       		.byte	0
 1091 0294 00       		.byte	0
 1092 0295 00       		.byte	0
 1093 0296 00       		.byte	0
 1094 0297 00       		.byte	0
 1095 0298 00       		.byte	0
 1096 0299 00       		.byte	0
 1097 029a 00       		.byte	0
 1098 029b 00       		.byte	0
 1099 029c 00       		.byte	0
 1100 029d 00       		.byte	0
 1101 029e 00       		.byte	0
 1102 029f 00       		.byte	0
 1103 02a0 00       		.byte	0
 1104 02a1 00       		.byte	0
 1105 02a2 00       		.byte	0
 1106 02a3 00       		.byte	0
 1107 02a4 00       		.byte	0
 1108 02a5 00       		.byte	0
 1109 02a6 00       		.byte	0
 1110 02a7 00       		.byte	0
 1111 02a8 00       		.byte	0
 1112 02a9 00       		.byte	0
 1113 02aa 00       		.byte	0
 1114 02ab 00       		.byte	0
 1115 02ac 00       		.byte	0
 1116 02ad 00       		.byte	0
 1117 02ae 00       		.byte	0
 1118 02af 00       		.byte	0
 1119 02b0 00       		.byte	0
 1120 02b1 00       		.byte	0
 1121 02b2 00       		.byte	0
 1122 02b3 00       		.byte	0
 1123 02b4 00       		.byte	0
 1124 02b5 00       		.byte	0
 1125 02b6 00       		.byte	0
 1126 02b7 00       		.byte	0
 1127 02b8 00       		.byte	0
 1128 02b9 00       		.byte	0
 1129 02ba 00       		.byte	0
 1130 02bb 00       		.byte	0
 1131 02bc 00       		.byte	0
 1132 02bd 00       		.byte	0
 1133 02be 00       		.byte	0
 1134 02bf 00       		.byte	0
 1135 02c0 00       		.byte	0
 1136 02c1 00       		.byte	0
 1137 02c2 00       		.byte	0
ARM GAS  C:\Users\zdy\AppData\Local\Temp\cckmpJrg.s 			page 40


 1138 02c3 00       		.byte	0
 1139 02c4 00       		.byte	0
 1140 02c5 00       		.byte	0
 1141 02c6 00       		.byte	0
 1142 02c7 00       		.byte	0
 1143 02c8 00       		.byte	0
 1144 02c9 00       		.byte	0
 1145 02ca 00       		.byte	0
 1146 02cb 00       		.byte	0
 1147 02cc 00       		.byte	0
 1148 02cd 00       		.byte	0
 1149 02ce 00       		.byte	0
 1150 02cf 00       		.byte	0
 1151 02d0 00       		.byte	0
 1152 02d1 00       		.byte	0
 1153 02d2 00       		.byte	0
 1154 02d3 00       		.byte	0
 1155 02d4 00       		.byte	0
 1156 02d5 00       		.byte	0
 1157 02d6 00       		.byte	0
 1158 02d7 00       		.byte	0
 1159 02d8 00       		.byte	0
 1160 02d9 00       		.byte	0
 1161 02da 00       		.byte	0
 1162 02db 00       		.byte	0
 1163 02dc 00       		.byte	0
 1164 02dd 00       		.byte	0
 1165 02de 00       		.byte	0
 1166 02df 00       		.byte	0
 1167 02e0 00       		.byte	0
 1168 02e1 00       		.byte	0
 1169 02e2 00       		.byte	0
 1170 02e3 00       		.byte	0
 1171 02e4 00       		.byte	0
 1172 02e5 00       		.byte	0
 1173 02e6 00       		.byte	0
 1174 02e7 00       		.byte	0
 1175 02e8 00       		.byte	0
 1176 02e9 00       		.byte	0
 1177 02ea 00       		.byte	0
 1178 02eb 00       		.byte	0
 1179 02ec 00       		.byte	0
 1180 02ed 00       		.byte	0
 1181 02ee 00       		.byte	0
 1182 02ef 00       		.byte	0
 1183 02f0 00       		.byte	0
 1184 02f1 00       		.byte	0
 1185 02f2 00       		.byte	0
 1186 02f3 00       		.byte	0
 1187 02f4 00       		.byte	0
 1188 02f5 00       		.byte	0
 1189 02f6 00       		.byte	0
 1190 02f7 00       		.byte	0
 1191 02f8 00       		.byte	0
 1192 02f9 00       		.byte	0
 1193 02fa 00       		.byte	0
 1194 02fb 00       		.byte	0
ARM GAS  C:\Users\zdy\AppData\Local\Temp\cckmpJrg.s 			page 41


 1195 02fc 00       		.byte	0
 1196 02fd 00       		.byte	0
 1197 02fe 00       		.byte	0
 1198 02ff 00       		.byte	0
 1199 0300 00       		.byte	0
 1200 0301 00       		.byte	0
 1201 0302 00       		.byte	0
 1202 0303 00       		.byte	0
 1203 0304 00       		.byte	0
 1204 0305 00       		.byte	0
 1205 0306 00       		.byte	0
 1206 0307 00       		.byte	0
 1207 0308 00       		.byte	0
 1208 0309 00       		.byte	0
 1209 030a 00       		.byte	0
 1210 030b 00       		.byte	0
 1211 030c 00       		.byte	0
 1212 030d 00       		.byte	0
 1213 030e 00       		.byte	0
 1214 030f 00       		.byte	0
 1215 0310 00       		.byte	0
 1216 0311 00       		.byte	0
 1217 0312 00       		.byte	0
 1218 0313 00       		.byte	0
 1219 0314 00       		.byte	0
 1220 0315 00       		.byte	0
 1221 0316 00       		.byte	0
 1222 0317 00       		.byte	0
 1223 0318 00       		.byte	0
 1224 0319 00       		.byte	0
 1225 031a 00       		.byte	0
 1226 031b 00       		.byte	0
 1227 031c 00       		.byte	0
 1228 031d 00       		.byte	0
 1229 031e 00       		.byte	0
 1230 031f 00       		.byte	0
 1231 0320 00       		.byte	0
 1232 0321 00       		.byte	0
 1233 0322 00       		.byte	0
 1234 0323 00       		.byte	0
 1235 0324 00       		.byte	0
 1236 0325 00       		.byte	0
 1237 0326 00       		.byte	0
 1238 0327 00       		.byte	0
 1239 0328 00       		.byte	0
 1240 0329 00       		.byte	0
 1241 032a 00       		.byte	0
 1242 032b 00       		.byte	0
 1243 032c 00       		.byte	0
 1244 032d 00       		.byte	0
 1245 032e 00       		.byte	0
 1246 032f 00       		.byte	0
 1247 0330 00       		.byte	0
 1248 0331 00       		.byte	0
 1249 0332 00       		.byte	0
 1250 0333 00       		.byte	0
 1251 0334 00       		.byte	0
ARM GAS  C:\Users\zdy\AppData\Local\Temp\cckmpJrg.s 			page 42


 1252 0335 00       		.byte	0
 1253 0336 00       		.byte	0
 1254 0337 00       		.byte	0
 1255 0338 00       		.byte	0
 1256 0339 00       		.byte	0
 1257 033a 00       		.byte	0
 1258 033b 00       		.byte	0
 1259 033c 00       		.byte	0
 1260 033d 00       		.byte	0
 1261 033e 00       		.byte	0
 1262 033f 00       		.byte	0
 1263 0340 00       		.byte	0
 1264 0341 00       		.byte	0
 1265 0342 00       		.byte	0
 1266 0343 00       		.byte	0
 1267 0344 00       		.byte	0
 1268 0345 00       		.byte	0
 1269 0346 00       		.byte	0
 1270 0347 00       		.byte	0
 1271 0348 00       		.byte	0
 1272 0349 00       		.byte	0
 1273 034a 00       		.byte	0
 1274 034b 00       		.byte	0
 1275 034c 00       		.byte	0
 1276 034d 00       		.byte	0
 1277 034e 00       		.byte	0
 1278 034f 00       		.byte	0
 1279 0350 00       		.byte	0
 1280 0351 00       		.byte	0
 1281 0352 00       		.byte	0
 1282 0353 00       		.byte	0
 1283 0354 00       		.byte	0
 1284 0355 00       		.byte	0
 1285 0356 00       		.byte	0
 1286 0357 00       		.byte	0
 1287 0358 00       		.byte	0
 1288 0359 00       		.byte	0
 1289 035a 00       		.byte	0
 1290 035b 00       		.byte	0
 1291 035c 00       		.byte	0
 1292 035d 00       		.byte	0
 1293 035e 00       		.byte	0
 1294 035f 00       		.byte	0
 1295 0360 00       		.byte	0
 1296 0361 00       		.byte	0
 1297 0362 00       		.byte	0
 1298 0363 00       		.byte	0
 1299 0364 00       		.byte	0
 1300 0365 00       		.byte	0
 1301 0366 00       		.byte	0
 1302 0367 00       		.byte	0
 1303 0368 00       		.byte	0
 1304 0369 00       		.byte	0
 1305 036a 00       		.byte	0
 1306 036b 00       		.byte	0
 1307 036c 00       		.byte	0
 1308 036d 00       		.byte	0
ARM GAS  C:\Users\zdy\AppData\Local\Temp\cckmpJrg.s 			page 43


 1309 036e 00       		.byte	0
 1310 036f 00       		.byte	0
 1311 0370 00       		.byte	0
 1312 0371 00       		.byte	0
 1313 0372 00       		.byte	0
 1314 0373 00       		.byte	0
 1315 0374 00       		.byte	0
 1316 0375 00       		.byte	0
 1317 0376 00       		.byte	0
 1318 0377 00       		.byte	0
 1319 0378 00       		.byte	0
 1320 0379 00       		.byte	0
 1321 037a 00       		.byte	0
 1322 037b 00       		.byte	0
 1323 037c 00       		.byte	0
 1324 037d 00       		.byte	0
 1325 037e 00       		.byte	0
 1326 037f 00       		.byte	0
 1327 0380 00       		.byte	0
 1328 0381 00       		.byte	0
 1329 0382 00       		.byte	0
 1330 0383 00       		.byte	0
 1331 0384 00       		.byte	0
 1332 0385 00       		.byte	0
 1333 0386 00       		.byte	0
 1334 0387 00       		.byte	0
 1335 0388 00       		.byte	0
 1336 0389 00       		.byte	0
 1337 038a 00       		.byte	0
 1338 038b 00       		.byte	0
 1339 038c 00       		.byte	0
 1340 038d 00       		.byte	0
 1341 038e 00       		.byte	0
 1342 038f 00       		.byte	0
 1343 0390 2C       		.byte	44
 1344 0391 00       		.byte	0
 1345 0392 00       		.byte	0
 1346 0393 00       		.byte	0
 1347 0394 00       		.byte	0
 1348 0395 FE       		.byte	-2
 1349 0396 02       		.byte	2
 1350 0397 3A       		.byte	58
 1351 0398 00       		.byte	0
 1352 0399 00       		.byte	0
 1353 039a 08       		.byte	8
 1354 039b FF       		.byte	-1
 1355 039c 00       		.byte	0
 1356 039d 01       		.byte	1
 1357 039e 08       		.byte	8
 1358 039f 1C       		.byte	28
 1359 03a0 48       		.byte	72
 1360 03a1 B0       		.byte	-80
 1361 03a2 A0       		.byte	-96
 1362 03a3 C1       		.byte	-63
 1363 03a4 83       		.byte	-125
 1364 03a5 08       		.byte	8
 1365 03a6 13       		.byte	19
ARM GAS  C:\Users\zdy\AppData\Local\Temp\cckmpJrg.s 			page 44


 1366 03a7 2A       		.byte	42
 1367 03a8 5C       		.byte	92
 1368 03a9 C8       		.byte	-56
 1369 03aa B0       		.byte	-80
 1370 03ab A1       		.byte	-95
 1371 03ac C3       		.byte	-61
 1372 03ad 87       		.byte	-121
 1373 03ae 10       		.byte	16
 1374 03af 23       		.byte	35
 1375 03b0 4A       		.byte	74
 1376 03b1 9C       		.byte	-100
 1377 03b2 48       		.byte	72
 1378 03b3 B1       		.byte	-79
 1379 03b4 A2       		.byte	-94
 1380 03b5 C5       		.byte	-59
 1381 03b6 8B       		.byte	-117
 1382 03b7 18       		.byte	24
 1383 03b8 33       		.byte	51
 1384 03b9 6A       		.byte	106
 1385 03ba DC       		.byte	-36
 1386 03bb C8       		.byte	-56
 1387 03bc B1       		.byte	-79
 1388 03bd A3       		.byte	-93
 1389 03be C7       		.byte	-57
 1390 03bf 8F       		.byte	-113
 1391 03c0 20       		.byte	32
 1392 03c1 43       		.byte	67
 1393 03c2 8A       		.byte	-118
 1394 03c3 1C       		.byte	28
 1395 03c4 49       		.byte	73
 1396 03c5 B2       		.byte	-78
 1397 03c6 A4       		.byte	-92
 1398 03c7 C9       		.byte	-55
 1399 03c8 93       		.byte	-109
 1400 03c9 28       		.byte	40
 1401 03ca 53       		.byte	83
 1402 03cb AA       		.byte	-86
 1403 03cc 5C       		.byte	92
 1404 03cd C9       		.byte	-55
 1405 03ce B2       		.byte	-78
 1406 03cf A5       		.byte	-91
 1407 03d0 CB       		.byte	-53
 1408 03d1 97       		.byte	-105
 1409 03d2 30       		.byte	48
 1410 03d3 63       		.byte	99
 1411 03d4 CA       		.byte	-54
 1412 03d5 9C       		.byte	-100
 1413 03d6 49       		.byte	73
 1414 03d7 B3       		.byte	-77
 1415 03d8 A6       		.byte	-90
 1416 03d9 CD       		.byte	-51
 1417 03da 9B       		.byte	-101
 1418 03db 38       		.byte	56
 1419 03dc 73       		.byte	115
 1420 03dd EA       		.byte	-22
 1421 03de DC       		.byte	-36
 1422 03df C9       		.byte	-55
ARM GAS  C:\Users\zdy\AppData\Local\Temp\cckmpJrg.s 			page 45


 1423 03e0 B3       		.byte	-77
 1424 03e1 A7       		.byte	-89
 1425 03e2 CF       		.byte	-49
 1426 03e3 9F       		.byte	-97
 1427 03e4 40       		.byte	64
 1428 03e5 83       		.byte	-125
 1429 03e6 0A       		.byte	10
 1430 03e7 1D       		.byte	29
 1431 03e8 4A       		.byte	74
 1432 03e9 B4       		.byte	-76
 1433 03ea A8       		.byte	-88
 1434 03eb D1       		.byte	-47
 1435 03ec A3       		.byte	-93
 1436 03ed 48       		.byte	72
 1437 03ee 93       		.byte	-109
 1438 03ef 2A       		.byte	42
 1439 03f0 5D       		.byte	93
 1440 03f1 CA       		.byte	-54
 1441 03f2 B4       		.byte	-76
 1442 03f3 A9       		.byte	-87
 1443 03f4 D3       		.byte	-45
 1444 03f5 A7       		.byte	-89
 1445 03f6 50       		.byte	80
 1446 03f7 A3       		.byte	-93
 1447 03f8 4A       		.byte	74
 1448 03f9 9D       		.byte	-99
 1449 03fa 4A       		.byte	74
 1450 03fb B5       		.byte	-75
 1451 03fc AA       		.byte	-86
 1452 03fd D5       		.byte	-43
 1453 03fe AB       		.byte	-85
 1454 03ff 58       		.byte	88
 1455 0400 B3       		.byte	-77
 1456 0401 6A       		.byte	106
 1457 0402 DD       		.byte	-35
 1458 0403 CA       		.byte	-54
 1459 0404 B5       		.byte	-75
 1460 0405 AB       		.byte	-85
 1461 0406 D7       		.byte	-41
 1462 0407 AF       		.byte	-81
 1463 0408 60       		.byte	96
 1464 0409 C3       		.byte	-61
 1465 040a 8A       		.byte	-118
 1466 040b 1D       		.byte	29
 1467 040c 4B       		.byte	75
 1468 040d B6       		.byte	-74
 1469 040e AC       		.byte	-84
 1470 040f D9       		.byte	-39
 1471 0410 B3       		.byte	-77
 1472 0411 68       		.byte	104
 1473 0412 D3       		.byte	-45
 1474 0413 AA       		.byte	-86
 1475 0414 5D       		.byte	93
 1476 0415 CB       		.byte	-53
 1477 0416 B6       		.byte	-74
 1478 0417 AD       		.byte	-83
 1479 0418 DB       		.byte	-37
ARM GAS  C:\Users\zdy\AppData\Local\Temp\cckmpJrg.s 			page 46


 1480 0419 B7       		.byte	-73
 1481 041a 70       		.byte	112
 1482 041b E3       		.byte	-29
 1483 041c CA       		.byte	-54
 1484 041d 9D       		.byte	-99
 1485 041e 4B       		.byte	75
 1486 041f B7       		.byte	-73
 1487 0420 AE       		.byte	-82
 1488 0421 DD       		.byte	-35
 1489 0422 BB       		.byte	-69
 1490 0423 78       		.byte	120
 1491 0424 F3       		.byte	-13
 1492 0425 EA       		.byte	-22
 1493 0426 DD       		.byte	-35
 1494 0427 CB       		.byte	-53
 1495 0428 B7       		.byte	-73
 1496 0429 AF       		.byte	-81
 1497 042a DF       		.byte	-33
 1498 042b BF       		.byte	-65
 1499 042c 80       		.byte	-128
 1500 042d 1F       		.byte	31
 1501 042e 06       		.byte	6
 1502 042f 18       		.byte	24
 1503 0430 3C       		.byte	60
 1504 0431 A0       		.byte	-96
 1505 0432 B0       		.byte	-80
 1506 0433 E1       		.byte	-31
 1507 0434 C3       		.byte	-61
 1508 0435 88       		.byte	-120
 1509 0436 13       		.byte	19
 1510 0437 1B       		.byte	27
 1511 0438 1E       		.byte	30
 1512 0439 4C       		.byte	76
 1513 043a 58       		.byte	88
 1514 043b 71       		.byte	113
 1515 043c 61       		.byte	97
 1516 043d C6       		.byte	-58
 1517 043e 01       		.byte	1
 1518 043f 02       		.byte	2
 1519 0440 4B       		.byte	75
 1520 0441 9E       		.byte	-98
 1521 0442 4C       		.byte	76
 1522 0443 B9       		.byte	-71
 1523 0444 32       		.byte	50
 1524 0445 DB       		.byte	-37
 1525 0446 00       		.byte	0
 1526 0447 86       		.byte	-122
 1527 0448 2D       		.byte	45
 1528 0449 6B       		.byte	107
 1529 044a DE       		.byte	-34
 1530 044b CC       		.byte	-52
 1531 044c B9       		.byte	-71
 1532 044d B3       		.byte	-77
 1533 044e C9       		.byte	-55
 1534 044f 06       		.byte	6
 1535 0450 3E       		.byte	62
 1536 0451 42       		.byte	66
ARM GAS  C:\Users\zdy\AppData\Local\Temp\cckmpJrg.s 			page 47


 1537 0452 8B       		.byte	-117
 1538 0453 1E       		.byte	30
 1539 0454 4D       		.byte	77
 1540 0455 BA       		.byte	-70
 1541 0456 B4       		.byte	-76
 1542 0457 E9       		.byte	-23
 1543 0458 D3       		.byte	-45
 1544 0459 A5       		.byte	-91
 1545 045a 45       		.byte	69
 1546 045b 0C       		.byte	12
 1547 045c 80       		.byte	-128
 1548 045d 00       		.byte	0
 1549 045e 61       		.byte	97
 1550 045f 40       		.byte	64
 1551 0460 64       		.byte	100
 1552 0461 CF       		.byte	-49
 1553 0462 B0       		.byte	-80
 1554 0463 63       		.byte	99
 1555 0464 CB       		.byte	-53
 1556 0465 9E       		.byte	-98
 1557 0466 BD       		.byte	-67
 1558 0467 B0       		.byte	-80
 1559 0468 C8       		.byte	-56
 1560 0469 9A       		.byte	-102
 1561 046a 33       		.byte	51
 1562 046b 66       		.byte	102
 1563 046c 72       		.byte	114
 1564 046d EB       		.byte	-21
 1565 046e DE       		.byte	-34
 1566 046f CD       		.byte	-51
 1567 0470 BB       		.byte	-69
 1568 0471 B7       		.byte	-73
 1569 0472 EF       		.byte	-17
 1570 0473 DF       		.byte	-33
 1571 0474 BB       		.byte	-69
 1572 0475 45       		.byte	69
 1573 0476 2C       		.byte	44
 1574 0477 D8       		.byte	-40
 1575 0478 00       		.byte	0
 1576 0479 C1       		.byte	-63
 1577 047a C0       		.byte	-64
 1578 047b 00       		.byte	0
 1579 047c DA       		.byte	-38
 1580 047d C8       		.byte	-56
 1581 047e 93       		.byte	-109
 1582 047f 2B       		.byte	43
 1583 0480 B7       		.byte	-73
 1584 0481 FC       		.byte	-4
 1585 0482 80       		.byte	-128
 1586 0483 8C       		.byte	-116
 1587 0484 99       		.byte	-103
 1588 0485 30       		.byte	48
 1589 0486 60       		.byte	96
 1590 0487 A2       		.byte	-94
 1591 0488 4B       		.byte	75
 1592 0489 9F       		.byte	-97
 1593 048a 4E       		.byte	78
ARM GAS  C:\Users\zdy\AppData\Local\Temp\cckmpJrg.s 			page 48


 1594 048b BD       		.byte	-67
 1595 048c BA       		.byte	-70
 1596 048d F5       		.byte	-11
 1597 048e EB       		.byte	-21
 1598 048f D2       		.byte	-46
 1599 0490 A7       		.byte	-89
 1600 0491 00       		.byte	0
 1601 0492 A8       		.byte	-88
 1602 0493 F0       		.byte	-16
 1603 0494 A1       		.byte	-95
 1604 0495 F8       		.byte	-8
 1605 0496 F1       		.byte	-15
 1606 0497 E5       		.byte	-27
 1607 0498 E0       		.byte	-32
 1608 0499 C3       		.byte	-61
 1609 049a 8B       		.byte	-117
 1610 049b FF       		.byte	-1
 1611 049c AF       		.byte	-81
 1612 049d EB       		.byte	-21
 1613 049e 43       		.byte	67
 1614 049f 4D       		.byte	77
 1615 04a0 98       		.byte	-104
 1616 04a1 2F       		.byte	47
 1617 04a2 E8       		.byte	-24
 1618 04a3 D3       		.byte	-45
 1619 04a4 AB       		.byte	-85
 1620 04a5 5F       		.byte	95
 1621 04a6 CF       		.byte	-49
 1622 04a7 BE       		.byte	-66
 1623 04a8 BD       		.byte	-67
 1624 04a9 7B       		.byte	123
 1625 04aa F5       		.byte	-11
 1626 04ab 2C       		.byte	44
 1627 04ac 06       		.byte	6
 1628 04ad 7C       		.byte	124
 1629 04ae D8       		.byte	-40
 1630 04af B0       		.byte	-80
 1631 04b0 A0       		.byte	-96
 1632 04b1 30       		.byte	48
 1633 04b2 ED       		.byte	-19
 1634 04b3 05       		.byte	5
 1635 04b4 28       		.byte	40
 1636 04b5 78       		.byte	120
 1637 04b6 F0       		.byte	-16
 1638 04b7 A8       		.byte	-88
 1639 04b8 51       		.byte	81
 1640 04b9 82       		.byte	-126
 1641 04ba 01       		.byte	1
 1642 04bb 8A       		.byte	-118
 1643 04bc FF       		.byte	-1
 1644 04bd 00       		.byte	0
 1645 04be A2       		.byte	-94
 1646 04bf 60       		.byte	96
 1647 04c0 C0       		.byte	-64
 1648 04c1 7F       		.byte	127
 1649 04c2 0B       		.byte	11
 1650 04c3 08       		.byte	8
ARM GAS  C:\Users\zdy\AppData\Local\Temp\cckmpJrg.s 			page 49


 1651 04c4 B4       		.byte	-76
 1652 04c5 C1       		.byte	-63
 1653 04c6 7F       		.byte	127
 1654 04c7 00       		.byte	0
 1655 04c8 2C       		.byte	44
 1656 04c9 C0       		.byte	-64
 1657 04ca 03       		.byte	3
 1658 04cb 0A       		.byte	10
 1659 04cc 1B       		.byte	27
 1660 04cd 55       		.byte	85
 1661 04ce C0       		.byte	-64
 1662 04cf 43       		.byte	67
 1663 04d0 05       		.byte	5
 1664 04d1 0E       		.byte	14
 1665 04d2 0D       		.byte	13
 1666 04d3 50       		.byte	80
 1667 04d4 01       		.byte	1
 1668 04d5 84       		.byte	-124
 1669 04d6 15       		.byte	21
 1670 04d7 29       		.byte	41
 1671 04d8 C8       		.byte	-56
 1672 04d9 E0       		.byte	-32
 1673 04da 78       		.byte	120
 1674 04db 18       		.byte	24
 1675 04dc 66       		.byte	102
 1676 04dd C8       		.byte	-56
 1677 04de 50       		.byte	80
 1678 04df 02       		.byte	2
 1679 04e0 CE       		.byte	-50
 1680 04e1 81       		.byte	-127
 1681 04e2 81       		.byte	-127
 1682 04e3 DE       		.byte	-34
 1683 04e4 16       		.byte	22
 1684 04e5 20       		.byte	32
 1685 04e6 86       		.byte	-122
 1686 04e7 28       		.byte	40
 1687 04e8 E2       		.byte	-30
 1688 04e9 88       		.byte	-120
 1689 04ea 24       		.byte	36
 1690 04eb 96       		.byte	-106
 1691 04ec 68       		.byte	104
 1692 04ed E2       		.byte	-30
 1693 04ee 16       		.byte	22
 1694 04ef 55       		.byte	85
 1695 04f0 24       		.byte	36
 1696 04f1 00       		.byte	0
 1697 04f2 41       		.byte	65
 1698 04f3 09       		.byte	9
 1699 04f4 15       		.byte	21
 1700 04f5 D4       		.byte	-44
 1701 04f6 F7       		.byte	-9
 1702 04f7 5D       		.byte	93
 1703 04f8 6C       		.byte	108
 1704 04f9 0A       		.byte	10
 1705 04fa F2       		.byte	-14
 1706 04fb F0       		.byte	-16
 1707 04fc 02       		.byte	2
ARM GAS  C:\Users\zdy\AppData\Local\Temp\cckmpJrg.s 			page 50


 1708 04fd 0A       		.byte	10
 1709 04fe 35       		.byte	53
 1710 04ff 3C       		.byte	60
 1711 0500 A8       		.byte	-88
 1712 0501 DF       		.byte	-33
 1713 0502 8D       		.byte	-115
 1714 0503 FA       		.byte	-6
 1715 0504 C5       		.byte	-59
 1716 0505 C8       		.byte	-56
 1717 0506 E0       		.byte	-32
 1718 0507 00       		.byte	0
 1719 0508 37       		.byte	55
 1720 0509 02       		.byte	2
 1721 050a 30       		.byte	48
 1722 050b E0       		.byte	-32
 1723 050c 06       		.byte	6
 1724 050d 0D       		.byte	13
 1725 050e 3E       		.byte	62
 1726 050f E8       		.byte	-24
 1727 0510 90       		.byte	-112
 1728 0511 85       		.byte	-123
 1729 0512 16       		.byte	22
 1730 0513 FD       		.byte	-3
 1731 0514 A8       		.byte	-88
 1732 0515 E1       		.byte	-31
 1733 0516 91       		.byte	-111
 1734 0517 48       		.byte	72
 1735 0518 12       		.byte	18
 1736 0519 B4       		.byte	-76
 1737 051a 82       		.byte	-126
 1738 051b 1A       		.byte	26
 1739 051c 65       		.byte	101
 1740 051d 68       		.byte	104
 1741 051e A1       		.byte	-95
 1742 051f 03       		.byte	3
 1743 0520 07       		.byte	7
 1744 0521 0A       		.byte	10
 1745 0522 44       		.byte	68
 1746 0523 29       		.byte	41
 1747 0524 E5       		.byte	-27
 1748 0525 94       		.byte	-108
 1749 0526 54       		.byte	84
 1750 0527 56       		.byte	86
 1751 0528 69       		.byte	105
 1752 0529 E5       		.byte	-27
 1753 052a 95       		.byte	-107
 1754 052b 51       		.byte	81
 1755 052c CA       		.byte	-54
 1756 052d C7       		.byte	-57
 1757 052e 22       		.byte	34
 1758 052f 02       		.byte	2
 1759 0530 F6       		.byte	-10
 1760 0531 C9       		.byte	-55
 1761 0532 E6       		.byte	-26
 1762 0533 60       		.byte	96
 1763 0534 0D       		.byte	13
 1764 0535 DF       		.byte	-33
ARM GAS  C:\Users\zdy\AppData\Local\Temp\cckmpJrg.s 			page 51


 1765 0536 55       		.byte	85
 1766 0537 F0       		.byte	-16
 1767 0538 5D       		.byte	93
 1768 0539 7E       		.byte	126
 1769 053a 14       		.byte	20
 1770 053b C6       		.byte	-58
 1771 053c C8       		.byte	-56
 1772 053d 83       		.byte	-125
 1773 053e 01       		.byte	1
 1774 053f 1F       		.byte	31
 1775 0540 F4       		.byte	-12
 1776 0541 68       		.byte	104
 1777 0542 E4       		.byte	-28
 1778 0543 76       		.byte	118
 1779 0544 2E       		.byte	46
 1780 0545 E8       		.byte	-24
 1781 0546 57       		.byte	87
 1782 0547 C2       		.byte	-62
 1783 0548 80       		.byte	-128
 1784 0549 1F       		.byte	31
 1785 054a 54       		.byte	84
 1786 054b 20       		.byte	32
 1787 054c E0       		.byte	-32
 1788 054d 80       		.byte	-128
 1789 054e FA       		.byte	-6
 1790 054f 09       		.byte	9
 1791 0550 28       		.byte	40
 1792 0551 50       		.byte	80
 1793 0552 05       		.byte	5
 1794 0553 2F       		.byte	47
 1795 0554 EC       		.byte	-20
 1796 0555 07       		.byte	7
 1797 0556 A1       		.byte	-95
 1798 0557 83       		.byte	-125
 1799 0558 10       		.byte	16
 1800 0559 0E       		.byte	14
 1801 055a B0       		.byte	-80
 1802 055b 41       		.byte	65
 1803 055c 8D       		.byte	-115
 1804 055d 2F       		.byte	47
 1805 055e 40       		.byte	64
 1806 055f 60       		.byte	96
 1807 0560 60       		.byte	96
 1808 0561 9E       		.byte	-98
 1809 0562 35       		.byte	53
 1810 0563 54       		.byte	84
 1811 0564 D0       		.byte	-48
 1812 0565 66       		.byte	102
 1813 0566 0D       		.byte	13
 1814 0567 28       		.byte	40
 1815 0568 4C       		.byte	76
 1816 0569 98       		.byte	-104
 1817 056a E8       		.byte	-24
 1818 056b 07       		.byte	7
 1819 056c 0C       		.byte	12
 1820 056d D2       		.byte	-46
 1821 056e B9       		.byte	-71
ARM GAS  C:\Users\zdy\AppData\Local\Temp\cckmpJrg.s 			page 52


 1822 056f A0       		.byte	-96
 1823 0570 01       		.byte	1
 1824 0571 00       		.byte	0
 1825 0572 1C       		.byte	28
 1826 0573 F8       		.byte	-8
 1827 0574 41       		.byte	65
 1828 0575 8D       		.byte	-115
 1829 0576 28       		.byte	40
 1830 0577 0C       		.byte	12
 1831 0578 B0       		.byte	-80
 1832 0579 A6       		.byte	-90
 1833 057a A1       		.byte	-95
 1834 057b 6E       		.byte	110
 1835 057c 6E       		.byte	110
 1836 057d 57       		.byte	87
 1837 057e E3       		.byte	-29
 1838 057f 82       		.byte	-126
 1839 0580 49       		.byte	73
 1840 0581 76       		.byte	118
 1841 0582 2A       		.byte	42
 1842 0583 9B       		.byte	-101
 1843 0584 15       		.byte	21
 1844 0585 67       		.byte	103
 1845 0586 30       		.byte	48
 1846 0587 E1       		.byte	-31
 1847 0588 C0       		.byte	-64
 1848 0589 49       		.byte	73
 1849 058a AB       		.byte	-85
 1850 058b A1       		.byte	-95
 1851 058c B0       		.byte	-80
 1852 058d 41       		.byte	65
 1853 058e 04       		.byte	4
 1854 058f C6       		.byte	-58
 1855 0590 BD       		.byte	-67
 1856 0591 16       		.byte	22
 1857 0592 9B       		.byte	-101
 1858 0593 83       		.byte	-125
 1859 0594 FA       		.byte	-6
 1860 0595 B9       		.byte	-71
 1861 0596 F0       		.byte	-16
 1862 0597 01       		.byte	1
 1863 0598 A4       		.byte	-92
 1864 0599 02       		.byte	2
 1865 059a 91       		.byte	-111
 1866 059b FF       		.byte	-1
 1867 059c 29       		.byte	41
 1868 059d 90       		.byte	-112
 1869 059e 99       		.byte	-103
 1870 059f 25       		.byte	37
 1871 05a0 6C       		.byte	108
 1872 05a1 CA       		.byte	-54
 1873 05a2 43       		.byte	67
 1874 05a3 82       		.byte	-126
 1875 05a4 9C       		.byte	-100
 1876 05a5 42       		.byte	66
 1877 05a6 B0       		.byte	-80
 1878 05a7 DF       		.byte	-33
ARM GAS  C:\Users\zdy\AppData\Local\Temp\cckmpJrg.s 			page 53


 1879 05a8 06       		.byte	6
 1880 05a9 69       		.byte	105
 1881 05aa 9A       		.byte	-102
 1882 05ab C9       		.byte	-55
 1883 05ac C3       		.byte	-61
 1884 05ad 02       		.byte	2
 1885 05ae 79       		.byte	121
 1886 05af 96       		.byte	-106
 1887 05b0 50       		.byte	80
 1888 05b1 82       		.byte	-126
 1889 05b2 8C       		.byte	-116
 1890 05b3 00       		.byte	0
 1891 05b4 E8       		.byte	-24
 1892 05b5 FA       		.byte	-6
 1893 05b6 42       		.byte	66
 1894 05b7 05       		.byte	5
 1895 05b8 35       		.byte	53
 1896 05b9 2E       		.byte	46
 1897 05ba C0       		.byte	-64
 1898 05bb 67       		.byte	103
 1899 05bc A4       		.byte	-92
 1900 05bd 0B       		.byte	11
 1901 05be 6E       		.byte	110
 1902 05bf B0       		.byte	-80
 1903 05c0 9F       		.byte	-97
 1904 05c1 9F       		.byte	-97
 1905 05c2 32       		.byte	50
 1906 05c3 CA       		.byte	-54
 1907 05c4 89       		.byte	-119
 1908 05c5 C2       		.byte	-62
 1909 05c6 A1       		.byte	-95
 1910 05c7 89       		.byte	-119
 1911 05c8 B2       		.byte	-78
 1912 05c9 AA       		.byte	-86
 1913 05ca 1F       		.byte	31
 1914 05cb 00       		.byte	0
 1915 05cc C1       		.byte	-63
 1916 05cd 0E       		.byte	14
 1917 05ce FB       		.byte	-5
 1918 05cf 02       		.byte	2
 1919 05d0 00       		.byte	0
 1920 05d1 F9       		.byte	-7
 1921 05d2 21       		.byte	33
 1922 05d3 AA       		.byte	-86
 1923 05d4 5F       		.byte	95
 1924 05d5 8B       		.byte	-117
 1925 05d6 B9       		.byte	-71
 1926 05d7 EE       		.byte	-18
 1927 05d8 9A       		.byte	-102
 1928 05d9 A6       		.byte	-90
 1929 05da 83       		.byte	-125
 1930 05db 2E       		.byte	46
 1931 05dc 70       		.byte	112
 1932 05dd 57       		.byte	87
 1933 05de 83       		.byte	-125
 1934 05df A7       		.byte	-89
 1935 05e0 E8       		.byte	-24
ARM GAS  C:\Users\zdy\AppData\Local\Temp\cckmpJrg.s 			page 54


 1936 05e1 72       		.byte	114
 1937 05e2 A6       		.byte	-90
 1938 05e3 81       		.byte	-127
 1939 05e4 1A       		.byte	26
 1940 05e5 42       		.byte	66
 1941 05e6 10       		.byte	16
 1942 05e7 40       		.byte	64
 1943 05e8 EA       		.byte	-22
 1944 05e9 02       		.byte	2
 1945 05ea 8C       		.byte	-116
 1946 05eb B6       		.byte	-74
 1947 05ec D8       		.byte	-40
 1948 05ed E5       		.byte	-27
 1949 05ee 6C       		.byte	108
 1950 05ef CE       		.byte	-50
 1951 05f0 E2       		.byte	-30
 1952 05f1 58       		.byte	88
 1953 05f2 20       		.byte	32
 1954 05f3 B7       		.byte	-73
 1955 05f4 42       		.byte	66
 1956 05f5 E2       		.byte	-30
 1957 05f6 8A       		.byte	-118
 1958 05f7 42       		.byte	66
 1959 05f8 9E       		.byte	-98
 1960 05f9 3C       		.byte	60
 1961 05fa A4       		.byte	-92
 1962 05fb 79       		.byte	121
 1963 05fc 2B       		.byte	43
 1964 05fd 91       		.byte	-111
 1965 05fe C3       		.byte	-61
 1966 05ff 52       		.byte	82
 1967 0600 68       		.byte	104
 1968 0601 80       		.byte	-128
 1969 0602 82       		.byte	-126
 1970 0603 2E       		.byte	46
 1971 0604 CC       		.byte	-52
 1972 0605 4A       		.byte	74
 1973 0606 2C       		.byte	44
 1974 0607 B6       		.byte	-74
 1975 0608 BF       		.byte	-65
 1976 0609 0E       		.byte	14
 1977 060a CB       		.byte	-53
 1978 060b 22       		.byte	34
 1979 060c 99       		.byte	-103
 1980 060d CB       		.byte	-53
 1981 060e D6       		.byte	-42
 1982 060f B8       		.byte	-72
 1983 0610 C1       		.byte	-63
 1984 0611 06       		.byte	6
 1985 0612 79       		.byte	121
 1986 0613 2E       		.byte	46
 1987 0614 50       		.byte	80
 1988 0615 E3       		.byte	-29
 1989 0616 77       		.byte	119
 1990 0617 03       		.byte	3
 1991 0618 73       		.byte	115
 1992 0619 BA       		.byte	-70
ARM GAS  C:\Users\zdy\AppData\Local\Temp\cckmpJrg.s 			page 55


 1993 061a 1D       		.byte	29
 1994 061b 0F       		.byte	15
 1995 061c 40       		.byte	64
 1996 061d E2       		.byte	-30
 1997 061e BA       		.byte	-70
 1998 061f 2D       		.byte	45
 1999 0620 C2       		.byte	-62
 2000 0621 F8       		.byte	-8
 2001 0622 FD       		.byte	-3
 2002 0623 CA       		.byte	-54
 2003 0624 2C       		.byte	44
 2004 0625 B8       		.byte	-72
 2005 0626 0C       		.byte	12
 2006 0627 06       		.byte	6
 2007 0628 2C       		.byte	44
 2008 0629 90       		.byte	-112
 2009 062a 01       		.byte	1
 2010 062b 5F       		.byte	95
 2011 062c B2       		.byte	-78
 2012 062d F8       		.byte	-8
 2013 062e 62       		.byte	98
 2014 062f BA       		.byte	-70
 2015 0630 28       		.byte	40
 2016 0631 4B       		.byte	75
 2017 0632 B6       		.byte	-74
 2018 0633 C4       		.byte	-60
 2019 0634 15       		.byte	21
 2020 0635 02       		.byte	2
 2021 0636 A0       		.byte	-96
 2022 0637 64       		.byte	100
 2023 0638 00       		.byte	0
 2024 0639 04       		.byte	4
 2025 063a AE       		.byte	-82
 2026 063b 7A       		.byte	122
 2027 063c 77       		.byte	119
 2028 063d 32       		.byte	50
 2029 063e 6C       		.byte	108
 2030 063f 86       		.byte	-122
 2031 0640 0D       		.byte	13
 2032 0641 F7       		.byte	-9
 2033 0642 6D       		.byte	109
 2034 0643 AC       		.byte	-84
 2035 0644 F9       		.byte	-7
 2036 0645 5A       		.byte	90
 2037 0646 F8       		.byte	-8
 2038 0647 A5       		.byte	-91
 2039 0648 AE       		.byte	-82
 2040 0649 FF       		.byte	-1
 2041 064a 72       		.byte	114
 2042 064b 9A       		.byte	-102
 2043 064c DF       		.byte	-33
 2044 064d BD       		.byte	-67
 2045 064e FA       		.byte	-6
 2046 064f 1A       		.byte	26
 2047 0650 7C       		.byte	124
 2048 0651 E1       		.byte	-31
 2049 0652 CF       		.byte	-49
ARM GAS  C:\Users\zdy\AppData\Local\Temp\cckmpJrg.s 			page 56


 2050 0653 F9       		.byte	-7
 2051 0654 B9       		.byte	-71
 2052 0655 00       		.byte	0
 2053 0656 E0       		.byte	-32
 2054 0657 84       		.byte	-124
 2055 0658 42       		.byte	66
 2056 0659 D6       		.byte	-42
 2057 065a 09       		.byte	9
 2058 065b A0       		.byte	-96
 2059 065c 01       		.byte	1
 2060 065d D7       		.byte	-41
 2061 065e 0E       		.byte	14
 2062 065f 44       		.byte	68
 2063 0660 E4       		.byte	-28
 2064 0661 C5       		.byte	-59
 2065 0662 65       		.byte	101
 2066 0663 5A       		.byte	90
 2067 0664 4C       		.byte	76
 2068 0665 B4       		.byte	-76
 2069 0666 C7       		.byte	-57
 2070 0667 7C       		.byte	124
 2071 0668 12       		.byte	18
 2072 0669 F9       		.byte	-7
 2073 066a F3       		.byte	-13
 2074 066b 40       		.byte	64
 2075 066c 03       		.byte	3
 2076 066d E4       		.byte	-28
 2077 066e A7       		.byte	-89
 2078 066f 1F       		.byte	31
 2079 0670 98       		.byte	-104
 2080 0671 29       		.byte	41
 2081 0672 77       		.byte	119
 2082 0673 FD       		.byte	-3
 2083 0674 57       		.byte	87
 2084 0675 02       		.byte	2
 2085 0676 6A       		.byte	106
 2086 0677 60       		.byte	96
 2087 0678 80       		.byte	-128
 2088 0679 D2       		.byte	-46
 2089 067a 00       		.byte	0
 2090 067b 08       		.byte	8
 2091 067c 1C       		.byte	28
 2092 067d 48       		.byte	72
 2093 067e 9F       		.byte	-97
 2094 067f 71       		.byte	113
 2095 0680 C8       		.byte	-56
 2096 0681 E1       		.byte	-31
 2097 0682 D9       		.byte	-39
 2098 0683 22       		.byte	34
 2099 0684 04       		.byte	4
 2100 0685 35       		.byte	53
 2101 0686 52       		.byte	82
 2102 0687 28       		.byte	40
 2103 0688 AB       		.byte	-85
 2104 0689 BE       		.byte	-66
 2105 068a 12       		.byte	18
 2106 068b 42       		.byte	66
ARM GAS  C:\Users\zdy\AppData\Local\Temp\cckmpJrg.s 			page 57


 2107 068c 10       		.byte	16
 2108 068d 63       		.byte	99
 2109 068e D0       		.byte	-48
 2110 068f 69       		.byte	105
 2111 0690 96       		.byte	-106
 2112 0691 50       		.byte	80
 2113 0692 58       		.byte	88
 2114 0693 09       		.byte	9
 2115 0694 4F       		.byte	79
 2116 0695 F3       		.byte	-13
 2117 0696 78       		.byte	120
 2118 0697 26       		.byte	38
 2119 0698 D3       		.byte	-45
 2120 0699 3C       		.byte	60
 2121 069a C8       		.byte	-56
 2122 069b FF       		.byte	-1
 2123 069c C7       		.byte	-57
 2124 069d 83       		.byte	-125
 2125 069e DD       		.byte	-35
 2126 069f 12       		.byte	18
 2127 06a0 22       		.byte	34
 2128 06a1 0D       		.byte	13
 2129 06a2 61       		.byte	97
 2130 06a3 9E       		.byte	-98
 2131 06a4 7D       		.byte	125
 2132 06a5 6E       		.byte	110
 2133 06a6 60       		.byte	96
 2134 06a7 00       		.byte	0
 2135 06a8 E1       		.byte	-31
 2136 06a9 09       		.byte	9
 2137 06aa D2       		.byte	-46
 2138 06ab C7       		.byte	-57
 2139 06ac 83       		.byte	-125
 2140 06ad 0B       		.byte	11
 2141 06ae 85       		.byte	-123
 2142 06af 2D       		.byte	45
 2143 06b0 0B       		.byte	11
 2144 06b1 80       		.byte	-128
 2145 06b2 DE       		.byte	-34
 2146 06b3 06       		.byte	6
 2147 06b4 F0       		.byte	-16
 2148 06b5 9D       		.byte	-99
 2149 06b6 35       		.byte	53
 2150 06b7 D5       		.byte	-43
 2151 06b8 0F       		.byte	15
 2152 06b9 12       		.byte	18
 2153 06ba 59       		.byte	89
 2154 06bb F7       		.byte	-9
 2155 06bc DD       		.byte	-35
 2156 06bd 13       		.byte	19
 2157 06be 0E       		.byte	14
 2158 06bf 20       		.byte	32
 2159 06c0 B1       		.byte	-79
 2160 06c1 C7       		.byte	-57
 2161 06c2 5E       		.byte	94
 2162 06c3 77       		.byte	119
 2163 06c4 AE       		.byte	-82
ARM GAS  C:\Users\zdy\AppData\Local\Temp\cckmpJrg.s 			page 58


 2164 06c5 97       		.byte	-105
 2165 06c6 0F       		.byte	15
 2166 06c7 57       		.byte	87
 2167 06c8 18       		.byte	24
 2168 06c9 E4       		.byte	-28
 2169 06ca D8       		.byte	-40
 2170 06cb E8       		.byte	-24
 2171 06cc F3       		.byte	-13
 2172 06cd 62       		.byte	98
 2173 06ce 4D       		.byte	77
 2174 06cf 3A       		.byte	58
 2175 06d0 7E       		.byte	126
 2176 06d1 25       		.byte	37
 2177 06d2 C8       		.byte	-56
 2178 06d3 9C       		.byte	-100
 2179 06d4 36       		.byte	54
 2180 06d5 8E       		.byte	-114
 2181 06d6 0B       		.byte	11
 2182 06d7 8E       		.byte	-114
 2183 06d8 99       		.byte	-103
 2184 06d9 B3       		.byte	-77
 2185 06da C5       		.byte	-59
 2186 06db B8       		.byte	-72
 2187 06dc F6       		.byte	-10
 2188 06dd BC       		.byte	-68
 2189 06de 23       		.byte	35
 2190 06df BF       		.byte	-65
 2191 06e0 39       		.byte	57
 2192 06e1 C2       		.byte	-62
 2193 06e2 5E       		.byte	94
 2194 06e3 AF       		.byte	-81
 2195 06e4 7E       		.byte	126
 2196 06e5 40       		.byte	64
 2197 06e6 0E       		.byte	14
 2198 06e7 40       		.byte	64
 2199 06e8 FB       		.byte	-5
 2200 06e9 83       		.byte	-125
 2201 06ea CB       		.byte	-53
 2202 06eb B2       		.byte	-78
 2203 06ec 6D       		.byte	109
 2204 06ed AF       		.byte	-81
 2205 06ee EF       		.byte	-17
 2206 06ef 75       		.byte	117
 2207 06f0 EA       		.byte	-22
 2208 06f1 CD       		.byte	-51
 2209 06f2 7B       		.byte	123
 2210 06f3 BE       		.byte	-66
 2211 06f4 CC       		.byte	-52
 2212 06f5 DE       		.byte	-34
 2213 06f6 08       		.byte	8
 2214 06f7 E4       		.byte	-28
 2215 06f8 D5       		.byte	-43
 2216 06f9 55       		.byte	85
 2217 06fa 73       		.byte	115
 2218 06fb AA       		.byte	-86
 2219 06fc 3B       		.byte	59
 2220 06fd 8E       		.byte	-114
ARM GAS  C:\Users\zdy\AppData\Local\Temp\cckmpJrg.s 			page 59


 2221 06fe D6       		.byte	-42
 2222 06ff 2E       		.byte	46
 2223 0700 EE       		.byte	-18
 2224 0701 F9       		.byte	-7
 2225 0702 F3       		.byte	-13
 2226 0703 77       		.byte	119
 2227 0704 05       		.byte	5
 2228 0705 40       		.byte	64
 2229 0706 C6       		.byte	-58
 2230 0707 0C       		.byte	12
 2231 0708 05       		.byte	5
 2232 0709 91       		.byte	-111
 2233 070a 6D       		.byte	109
 2234 070b C1       		.byte	-63
 2235 070c 05       		.byte	5
 2236 070d D8       		.byte	-40
 2237 070e 67       		.byte	103
 2238 070f AF       		.byte	-81
 2239 0710 FD       		.byte	-3
 2240 0711 F6       		.byte	-10
 2241 0712 17       		.byte	23
 2242 0713 48       		.byte	72
 2243 0714 90       		.byte	-112
 2244 0715 40       		.byte	64
 2245 0716 41       		.byte	65
 2246 0717 06       		.byte	6
 2247 0718 4C       		.byte	76
 2248 0719 C0       		.byte	-64
 2249 071a BD       		.byte	-67
 2250 071b 04       		.byte	4
 2251 071c 12       		.byte	18
 2252 071d 90       		.byte	-112
 2253 071e EC       		.byte	-20
 2254 071f C2       		.byte	-62
 2255 0720 06       		.byte	6
 2256 0721 0C       		.byte	12
 2257 0722 A4       		.byte	-92
 2258 0723 9A       		.byte	-102
 2259 0724 1C       		.byte	28
 2260 0725 C9       		.byte	-55
 2261 0726 13       		.byte	19
 2262 0727 02       		.byte	2
 2263 0728 ED       		.byte	-19
 2264 0729 63       		.byte	99
 2265 072a 7D       		.byte	125
 2266 072b 02       		.byte	2
 2267 072c 69       		.byte	105
 2268 072d 0E       		.byte	14
 2269 072e EB       		.byte	-21
 2270 072f E3       		.byte	-29
 2271 0730 0B       		.byte	11
 2272 0731 14       		.byte	20
 2273 0732 28       		.byte	40
 2274 0733 7F       		.byte	127
 2275 0734 FC       		.byte	-4
 2276 0735 13       		.byte	19
 2277 0736 56       		.byte	86
ARM GAS  C:\Users\zdy\AppData\Local\Temp\cckmpJrg.s 			page 60


 2278 0737 60       		.byte	96
 2279 0738 DC       		.byte	-36
 2280 0739 02       		.byte	2
 2281 073a F3       		.byte	-13
 2282 073b 27       		.byte	39
 2283 073c D8       		.byte	-40
 2284 073d 3E       		.byte	62
 2285 073e D6       		.byte	-42
 2286 073f F9       		.byte	-7
 2287 0740 6B       		.byte	107
 2288 0741 8D       		.byte	-115
 2289 0742 E6       		.byte	-26
 2290 0743 BE       		.byte	-66
 2291 0744 13       		.byte	19
 2292 0745 B8       		.byte	-72
 2293 0746 16       		.byte	22
 2294 0747 E1       		.byte	-31
 2295 0748 2F       		.byte	47
 2296 0749 73       		.byte	115
 2297 074a 8F       		.byte	-113
 2298 074b 9B       		.byte	-101
 2299 074c 50       		.byte	80
 2300 074d E4       		.byte	-28
 2301 074e E0       		.byte	-32
 2302 074f E7       		.byte	-25
 2303 0750 B4       		.byte	-76
 2304 0751 FF       		.byte	-1
 2305 0752 BD       		.byte	-67
 2306 0753 EF       		.byte	-17
 2307 0754 38       		.byte	56
 2308 0755 03       		.byte	3
 2309 0756 BC       		.byte	-68
 2310 0757 5F       		.byte	95
 2311 0758 02       		.byte	2
 2312 0759 15       		.byte	21
 2313 075a B8       		.byte	-72
 2314 075b 9A       		.byte	-102
 2315 075c FC       		.byte	-4
 2316 075d 41       		.byte	65
 2317 075e EF       		.byte	-17
 2318 075f 82       		.byte	-126
 2319 0760 74       		.byte	116
 2320 0761 11       		.byte	17
 2321 0762 81       		.byte	-127
 2322 0763 1A       		.byte	26
 2323 0764 48       		.byte	72
 2324 0765 00       		.byte	0
 2325 0766 3E       		.byte	62
 2326 0767 1B       		.byte	27
 2327 0768 A0       		.byte	-96
 2328 0769 01       		.byte	1
 2329 076a 0D       		.byte	13
 2330 076b 64       		.byte	100
 2331 076c 08       		.byte	8
 2332 076d A1       		.byte	-95
 2333 076e 08       		.byte	8
 2334 076f 47       		.byte	71
ARM GAS  C:\Users\zdy\AppData\Local\Temp\cckmpJrg.s 			page 61


 2335 0770 48       		.byte	72
 2336 0771 42       		.byte	66
 2337 0772 32       		.byte	50
 2338 0773 88       		.byte	-120
 2339 0774 80       		.byte	-128
 2340 0775 20       		.byte	32
 2341 0776 9A       		.byte	-102
 2342 0777 73       		.byte	115
 2343 0778 02       		.byte	2
 2344 0779 08       		.byte	8
 2345 077a 49       		.byte	73
 2346 077b 08       		.byte	8
 2347 077c 05       		.byte	5
 2348 077d 34       		.byte	52
 2349 077e 6D       		.byte	109
 2350 077f A9       		.byte	-87
 2351 0780 74       		.byte	116
 2352 0781 18       		.byte	24
 2353 0782 8C       		.byte	-116
 2354 0783 A1       		.byte	-95
 2355 0784 0C       		.byte	12
 2356 0785 67       		.byte	103
 2357 0786 18       		.byte	24
 2358 0787 11       		.byte	17
 2359 0788 28       		.byte	40
 2360 0789 9C       		.byte	-100
 2361 078a 81       		.byte	-127
 2362 078b 83       		.byte	-125
 2363 078c 04       		.byte	4
 2364 078d 31       		.byte	49
 2365 078e 80       		.byte	-128
 2366 078f 12       		.byte	18
 2367 0790 98       		.byte	-104
 2368 0791 14       		.byte	20
 2369 0792 86       		.byte	-122
 2370 0793 1E       		.byte	30
 2371 0794 FA       		.byte	-6
 2372 0795 F0       		.byte	-16
 2373 0796 87       		.byte	-121
 2374 0797 40       		.byte	64
 2375 0798 A4       		.byte	-92
 2376 0799 82       		.byte	-126
 2377 079a BB       		.byte	-69
 2378 079b FF       		.byte	-1
 2379 079c 06       		.byte	6
 2380 079d 62       		.byte	98
 2381 079e 80       		.byte	-128
 2382 079f 0E       		.byte	14
 2383 07a0 AC       		.byte	-84
 2384 07a1 C1       		.byte	-63
 2385 07a2 0C       		.byte	12
 2386 07a3 65       		.byte	101
 2387 07a4 00       		.byte	0
 2388 07a5 22       		.byte	34
 2389 07a6 09       		.byte	9
 2390 07a7 E0       		.byte	-32
 2391 07a8 E4       		.byte	-28
ARM GAS  C:\Users\zdy\AppData\Local\Temp\cckmpJrg.s 			page 62


 2392 07a9 1D       		.byte	29
 2393 07aa 55       		.byte	85
 2394 07ab D1       		.byte	-47
 2395 07ac F0       		.byte	-16
 2396 07ad 89       		.byte	-119
 2397 07ae 50       		.byte	80
 2398 07af 8C       		.byte	-116
 2399 07b0 22       		.byte	34
 2400 07b1 00       		.byte	0
 2401 07b2 24       		.byte	36
 2402 07b3 A0       		.byte	-96
 2403 07b4 06       		.byte	6
 2404 07b5 33       		.byte	51
 2405 07b6 C8       		.byte	-56
 2406 07b7 A0       		.byte	-96
 2407 07b8 7A       		.byte	122
 2408 07b9 1A       		.byte	26
 2409 07ba F0       		.byte	-16
 2410 07bb 82       		.byte	-126
 2411 07bc 87       		.byte	-121
 2412 07bd DE       		.byte	-34
 2413 07be B3       		.byte	-77
 2414 07bf 1E       		.byte	30
 2415 07c0 10       		.byte	16
 2416 07c1 A0       		.byte	-96
 2417 07c2 70       		.byte	112
 2418 07c3 01       		.byte	1
 2419 07c4 47       		.byte	71
 2420 07c5 30       		.byte	48
 2421 07c6 CF       		.byte	-49
 2422 07c7 7A       		.byte	122
 2423 07c8 B4       		.byte	-76
 2424 07c9 53       		.byte	83
 2425 07ca 01       		.byte	1
 2426 07cb 16       		.byte	22
 2427 07cc B9       		.byte	-71
 2428 07cd 48       		.byte	72
 2429 07ce 8A       		.byte	-118
 2430 07cf 68       		.byte	104
 2431 07d0 4C       		.byte	76
 2432 07d1 23       		.byte	35
 2433 07d2 06       		.byte	6
 2434 07d3 8B       		.byte	-117
 2435 07d4 70       		.byte	112
 2436 07d5 86       		.byte	-122
 2437 07d6 30       		.byte	48
 2438 07d7 50       		.byte	80
 2439 07d8 C1       		.byte	-63
 2440 07d9 89       		.byte	-119
 2441 07da 02       		.byte	2
 2442 07db D1       		.byte	-47
 2443 07dc 40       		.byte	64
 2444 07dd 16       		.byte	22
 2445 07de B8       		.byte	-72
 2446 07df A8       		.byte	-88
 2447 07e0 9E       		.byte	-98
 2448 07e1 2A       		.byte	42
ARM GAS  C:\Users\zdy\AppData\Local\Temp\cckmpJrg.s 			page 63


 2449 07e2 0C       		.byte	12
 2450 07e3 71       		.byte	113
 2451 07e4 64       		.byte	100
 2452 07e5 16       		.byte	22
 2453 07e6 10       		.byte	16
 2454 07e7 83       		.byte	-125
 2455 07e8 19       		.byte	25
 2456 07e9 B6       		.byte	-74
 2457 07ea 98       		.byte	-104
 2458 07eb 1E       		.byte	30
 2459 07ec 13       		.byte	19
 2460 07ed 0C       		.byte	12
 2461 07ee 40       		.byte	64
 2462 07ef 58       		.byte	88
 2463 07f0 AA       		.byte	-86
 2464 07f1 53       		.byte	83
 2465 07f2 A3       		.byte	-93
 2466 07f3 20       		.byte	32
 2467 07f4 07       		.byte	7
 2468 07f5 89       		.byte	-119
 2469 07f6 2E       		.byte	46
 2470 07f7 0E       		.byte	14
 2471 07f8 ED       		.byte	-19
 2472 07f9 11       		.byte	17
 2473 07fa 0C       		.byte	12
 2474 07fb 1E       		.byte	30
 2475 07fc 38       		.byte	56
 2476 07fd 48       		.byte	72
 2477 07fe 03       		.byte	3
 2478 07ff 98       		.byte	-104
 2479 0800 C0       		.byte	-64
 2480 0801 C7       		.byte	-57
 2481 0802 F7       		.byte	-9
 2482 0803 B0       		.byte	-80
 2483 0804 E0       		.byte	-32
 2484 0805 8B       		.byte	-117
 2485 0806 36       		.byte	54
 2486 0807 58       		.byte	88
 2487 0808 43       		.byte	67
 2488 0809 19       		.byte	25
 2489 080a D6       		.byte	-42
 2490 080b A3       		.byte	-93
 2491 080c 05       		.byte	5
 2492 080d 02       		.byte	2
 2493 080e 44       		.byte	68
 2494 080f C0       		.byte	-64
 2495 0810 54       		.byte	84
 2496 0811 FC       		.byte	-4
 2497 0812 9B       		.byte	-101
 2498 0813 19       		.byte	25
 2499 0814 21       		.byte	33
 2500 0815 37       		.byte	55
 2501 0816 C9       		.byte	-55
 2502 0817 49       		.byte	73
 2503 0818 F0       		.byte	-16
 2504 0819 C0       		.byte	-64
 2505 081a 80       		.byte	-128
ARM GAS  C:\Users\zdy\AppData\Local\Temp\cckmpJrg.s 			page 64


 2506 081b 49       		.byte	73
 2507 081c E8       		.byte	-24
 2508 081d A1       		.byte	-95
 2509 081e 42       		.byte	66
 2510 081f 01       		.byte	1
 2511 0820 0E       		.byte	14
 2512 0821 52       		.byte	82
 2513 0822 00       		.byte	0
 2514 0823 21       		.byte	33
 2515 0824 34       		.byte	52
 2516 0825 B2       		.byte	-78
 2517 0826 3D       		.byte	61
 2518 0827 0D       		.byte	13
 2519 0828 40       		.byte	64
 2520 0829 61       		.byte	97
 2521 082a 04       		.byte	4
 2522 082b B8       		.byte	-72
 2523 082c 70       		.byte	112
 2524 082d 86       		.byte	-122
 2525 082e 53       		.byte	83
 2526 082f EA       		.byte	-22
 2527 0830 00       		.byte	0
 2528 0831 00       		.byte	0
 2529 0832 1F       		.byte	31
 2530 0833 78       		.byte	120
 2531 0834 A1       		.byte	-95
 2532 0835 26       		.byte	38
 2533 0836 3B       		.byte	59
 2534 0837 49       		.byte	73
 2535 0838 CB       		.byte	-53
 2536 0839 5A       		.byte	90
 2537 083a 76       		.byte	118
 2538 083b 66       		.byte	102
 2539 083c 00       		.byte	0
 2540 083d 57       		.byte	87
 2541 083e D8       		.byte	-40
 2542 083f 63       		.byte	99
 2543 0840 7A       		.byte	122
 2544 0841 72       		.byte	114
 2545 0842 80       		.byte	-128
 2546 0843 10       		.byte	16
 2547 0844 01       		.byte	1
 2548 0845 F4       		.byte	-12
 2549 0846 E0       		.byte	-32
 2550 0847 94       		.byte	-108
 2551 0848 EA       		.byte	-22
 2552 0849 19       		.byte	25
 2553 084a 02       		.byte	2
 2554 084b F8       		.byte	-8
 2555 084c 4E       		.byte	78
 2556 084d 20       		.byte	32
 2557 084e 49       		.byte	73
 2558 084f F6       		.byte	-10
 2559 0850 50       		.byte	80
 2560 0851 00       		.byte	0
 2561 0852 01       		.byte	1
 2562 0853 A6       		.byte	-90
ARM GAS  C:\Users\zdy\AppData\Local\Temp\cckmpJrg.s 			page 65


 2563 0854 42       		.byte	66
 2564 0855 95       		.byte	-107
 2565 0856 6B       		.byte	107
 2566 0857 6C       		.byte	108
 2567 0858 C9       		.byte	-55
 2568 0859 CC       		.byte	-52
 2569 085a 66       		.byte	102
 2570 085b 6A       		.byte	106
 2571 085c 26       		.byte	38
 2572 085d 04       		.byte	4
 2573 085e A0       		.byte	-96
 2574 085f 4C       		.byte	76
 2575 0860 0F       		.byte	15
 2576 0861 18       		.byte	24
 2577 0862 A8       		.byte	-88
 2578 0863 87       		.byte	-121
 2579 0864 90       		.byte	-112
 2580 0865 19       		.byte	25
 2581 0866 00       		.byte	0
 2582 0867 13       		.byte	19
 2583 0868 3D       		.byte	61
 2584 0869 1C       		.byte	28
 2585 086a F8       		.byte	-8
 2586 086b E2       		.byte	-30
 2587 086c 0E       		.byte	14
 2588 086d CF       		.byte	-49
 2589 086e A3       		.byte	-93
 2590 086f 9E       		.byte	-98
 2591 0870 24       		.byte	36
 2592 0871 44       		.byte	68
 2593 0872 4A       		.byte	74
 2594 0873 96       		.byte	-106
 2595 0874 CE       		.byte	-50
 2596 0875 0C       		.byte	12
 2597 0876 A7       		.byte	-89
 2598 0877 38       		.byte	56
 2599 0878 FF       		.byte	-1
 2600 0879 B2       		.byte	-78
 2601 087a 84       		.byte	-124
 2602 087b 36       		.byte	54
 2603 087c AE       		.byte	-82
 2604 087d 07       		.byte	7
 2605 087e 0C       		.byte	12
 2606 087f 2A       		.byte	42
 2607 0880 80       		.byte	-128
 2608 0881 E3       		.byte	-29
 2609 0882 40       		.byte	64
 2610 0883 AC       		.byte	-84
 2611 0884 C9       		.byte	-55
 2612 0885 9E       		.byte	-98
 2613 0886 24       		.byte	36
 2614 0887 B4       		.byte	-76
 2615 0888 8C       		.byte	-116
 2616 0889 88       		.byte	-120
 2617 088a 17       		.byte	23
 2618 088b 40       		.byte	64
 2619 088c 83       		.byte	-125
ARM GAS  C:\Users\zdy\AppData\Local\Temp\cckmpJrg.s 			page 66


 2620 088d 2E       		.byte	46
 2621 088e D5       		.byte	-43
 2622 088f 03       		.byte	3
 2623 0890 82       		.byte	-126
 2624 0891 3F       		.byte	63
 2625 0892 76       		.byte	118
 2626 0893 47       		.byte	71
 2627 0894 7D       		.byte	125
 2628 0895 E3       		.byte	-29
 2629 0896 CC       		.byte	-52
 2630 0897 A7       		.byte	-89
 2631 0898 3E       		.byte	62
 2632 0899 E9       		.byte	-23
 2633 089a 42       		.byte	66
 2634 089b FF       		.byte	-1
 2635 089c C5       		.byte	-59
 2636 089d 79       		.byte	121
 2637 089e AA       		.byte	-86
 2638 089f 27       		.byte	39
 2639 08a0 0C       		.byte	12
 2640 08a1 33       		.byte	51
 2641 08a2 50       		.byte	80
 2642 08a3 A7       		.byte	-89
 2643 08a4 40       		.byte	64
 2644 08a5 7E       		.byte	126
 2645 08a6 B9       		.byte	-71
 2646 08a7 1E       		.byte	30
 2647 08a8 13       		.byte	19
 2648 08a9 7C       		.byte	124
 2649 08aa 71       		.byte	113
 2650 08ab 07       		.byte	7
 2651 08ac 62       		.byte	98
 2652 08ad AC       		.byte	-84
 2653 08ae A3       		.byte	-93
 2654 08af 00       		.byte	0
 2655 08b0 CA       		.byte	-54
 2656 08b1 28       		.byte	40
 2657 08b2 AF       		.byte	-81
 2658 08b3 59       		.byte	89
 2659 08b4 EE       		.byte	-18
 2660 08b5 F3       		.byte	-13
 2661 08b6 A1       		.byte	-95
 2662 08b7 10       		.byte	16
 2663 08b8 35       		.byte	53
 2664 08b9 4B       		.byte	75
 2665 08ba 39       		.byte	57
 2666 08bb B9       		.byte	-71
 2667 08bc C9       		.byte	-55
 2668 08bd 9E       		.byte	-98
 2669 08be 30       		.byte	48
 2670 08bf F4       		.byte	-12
 2671 08c0 60       		.byte	96
 2672 08c1 94       		.byte	-108
 2673 08c2 06       		.byte	6
 2674 08c3 39       		.byte	57
 2675 08c4 C0       		.byte	-64
 2676 08c5 15       		.byte	21
ARM GAS  C:\Users\zdy\AppData\Local\Temp\cckmpJrg.s 			page 67


 2677 08c6 F8       		.byte	-8
 2678 08c7 A8       		.byte	-88
 2679 08c8 05       		.byte	5
 2680 08c9 05       		.byte	5
 2681 08ca E4       		.byte	-28
 2682 08cb 70       		.byte	112
 2683 08cc 02       		.byte	2
 2684 08cd AC       		.byte	-84
 2685 08ce 3C       		.byte	60
 2686 08cf A5       		.byte	-91
 2687 08d0 0C       		.byte	12
 2688 08d1 02       		.byte	2
 2689 08d2 00       		.byte	0
 2690 08d3 48       		.byte	72
 2691 08d4 E3       		.byte	-29
 2692 08d5 38       		.byte	56
 2693 08d6 34       		.byte	52
 2694 08d7 A2       		.byte	-94
 2695 08d8 28       		.byte	40
 2696 08d9 4D       		.byte	77
 2697 08da E9       		.byte	-23
 2698 08db 56       		.byte	86
 2699 08dc 10       		.byte	16
 2700 08dd 50       		.byte	80
 2701 08de C5       		.byte	-59
 2702 08df 6B       		.byte	107
 2703 08e0 A2       		.byte	-94
 2704 08e1 07       		.byte	7
 2705 08e2 0C       		.byte	12
 2706 08e3 48       		.byte	72
 2707 08e4 C0       		.byte	-64
 2708 08e5 28       		.byte	40
 2709 08e6 0A       		.byte	10
 2710 08e7 43       		.byte	67
 2711 08e8 30       		.byte	48
 2712 08e9 49       		.byte	73
 2713 08ea F4       		.byte	-12
 2714 08eb BC       		.byte	-68
 2715 08ec 92       		.byte	-110
 2716 08ed 20       		.byte	32
 2717 08ee 08       		.byte	8
 2718 08ef 48       		.byte	72
 2719 08f0 41       		.byte	65
 2720 08f1 31       		.byte	49
 2721 08f2 D7       		.byte	-41
 2722 08f3 A3       		.byte	-93
 2723 08f4 00       		.byte	0
 2724 08f5 FC       		.byte	-4
 2725 08f6 9C       		.byte	-100
 2726 08f7 6D       		.byte	109
 2727 08f8 99       		.byte	-103
 2728 08f9 2A       		.byte	42
 2729 08fa 0D       		.byte	13
 2730 08fb AA       		.byte	-86
 2731 08fc 50       		.byte	80
 2732 08fd B3       		.byte	-77
 2733 08fe 02       		.byte	2
ARM GAS  C:\Users\zdy\AppData\Local\Temp\cckmpJrg.s 			page 68


 2734 08ff 03       		.byte	3
 2735 0900 73       		.byte	115
 2736 0901 72       		.byte	114
 2737 0902 11       		.byte	17
 2738 0903 A6       		.byte	-90
 2739 0904 DF       		.byte	-33
 2740 0905 2B       		.byte	43
 2741 0906 08       		.byte	8
 2742 0907 02       		.byte	2
 2743 0908 36       		.byte	54
 2744 0909 8A       		.byte	-118
 2745 090a 1E       		.byte	30
 2746 090b 0A       		.byte	10
 2747 090c 7C       		.byte	124
 2748 090d D1       		.byte	-47
 2749 090e 09       		.byte	9
 2750 090f AD       		.byte	-83
 2751 0910 5C       		.byte	92
 2752 0911 8F       		.byte	-113
 2753 0912 11       		.byte	17
 2754 0913 60       		.byte	96
 2755 0914 09       		.byte	9
 2756 0915 CE       		.byte	-50
 2757 0916 A1       		.byte	-95
 2758 0917 5A       		.byte	90
 2759 0918 F5       		.byte	-11
 2760 0919 AA       		.byte	-86
 2761 091a 50       		.byte	80
 2762 091b 19       		.byte	25
 2763 091c 80       		.byte	-128
 2764 091d 17       		.byte	23
 2765 091e FC       		.byte	-4
 2766 091f F9       		.byte	-7
 2767 0920 1E       		.byte	30
 2768 0921 30       		.byte	48
 2769 0922 44       		.byte	68
 2770 0923 21       		.byte	33
 2771 0924 95       		.byte	-107
 2772 0925 39       		.byte	57
 2773 0926 BC       		.byte	-68
 2774 0927 C1       		.byte	-63
 2775 0928 24       		.byte	36
 2776 0929 A7       		.byte	-89
 2777 092a 9A       		.byte	-102
 2778 092b C3       		.byte	-61
 2779 092c 0E       		.byte	14
 2780 092d C8       		.byte	-56
 2781 092e F3       		.byte	-13
 2782 092f 94       		.byte	-108
 2783 0930 1C       		.byte	28
 2784 0931 80       		.byte	-128
 2785 0932 93       		.byte	-109
 2786 0933 32       		.byte	50
 2787 0934 05       		.byte	5
 2788 0935 8A       		.byte	-118
 2789 0936 D5       		.byte	-43
 2790 0937 B6       		.byte	-74
ARM GAS  C:\Users\zdy\AppData\Local\Temp\cckmpJrg.s 			page 69


 2791 0938 BA       		.byte	-70
 2792 0939 35       		.byte	53
 2793 093a 28       		.byte	40
 2794 093b 1E       		.byte	30
 2795 093c 88       		.byte	-120
 2796 093d 26       		.byte	38
 2797 093e 1D       		.byte	29
 2798 093f BF       		.byte	-65
 2799 0940 E0       		.byte	-32
 2800 0941 D5       		.byte	-43
 2801 0942 3B       		.byte	59
 2802 0943 FA       		.byte	-6
 2803 0944 28       		.byte	40
 2804 0945 05       		.byte	5
 2805 0946 7B       		.byte	123
 2806 0947 F4       		.byte	-12
 2807 0948 22       		.byte	34
 2808 0949 D6       		.byte	-42
 2809 094a 16       		.byte	22
 2810 094b 00       		.byte	0
 2811 094c 84       		.byte	-124
 2812 094d 84       		.byte	-124
 2813 094e A6       		.byte	-90
 2814 094f 87       		.byte	-121
 2815 0950 8C       		.byte	-116
 2816 0951 66       		.byte	102
 2817 0952 84       		.byte	-124
 2818 0953 E1       		.byte	-31
 2819 0954 5B       		.byte	91
 2820 0955 07       		.byte	7
 2821 0956 4B       		.byte	75
 2822 0957 D8       		.byte	-40
 2823 0958 9D       		.byte	-99
 2824 0959 D8       		.byte	-40
 2825 095a D0       		.byte	-48
 2826 095b A5       		.byte	-91
 2827 095c EE       		.byte	-18
 2828 095d F1       		.byte	-15
 2829 095e 28       		.byte	40
 2830 095f 11       		.byte	17
 2831 0960 53       		.byte	83
 2832 0961 70       		.byte	112
 2833 0962 86       		.byte	-122
 2834 0963 2C       		.byte	44
 2835 0964 D8       		.byte	-40
 2836 0965 35       		.byte	53
 2837 0966 7C       		.byte	124
 2838 0967 7A       		.byte	122
 2839 0968 3C       		.byte	60
 2840 0969 65       		.byte	101
 2841 096a 7C       		.byte	124
 2842 096b 4A       		.byte	74
 2843 096c 70       		.byte	112
 2844 096d 4F       		.byte	79
 2845 096e C1       		.byte	-63
 2846 096f 16       		.byte	22
 2847 0970 F6       		.byte	-10
ARM GAS  C:\Users\zdy\AppData\Local\Temp\cckmpJrg.s 			page 70


 2848 0971 B2       		.byte	-78
 2849 0972 98       		.byte	-104
 2850 0973 8D       		.byte	-115
 2851 0974 89       		.byte	-119
 2852 0975 07       		.byte	7
 2853 0976 3C       		.byte	60
 2854 0977 C0       		.byte	-64
 2855 0978 81       		.byte	-127
 2856 0979 CE       		.byte	-50
 2857 097a 7A       		.byte	122
 2858 097b F6       		.byte	-10
 2859 097c B3       		.byte	-77
 2860 097d A0       		.byte	-96
 2861 097e E5       		.byte	-27
 2862 097f 80       		.byte	-128
 2863 0980 53       		.byte	83
 2864 0981 B1       		.byte	-79
 2865 0982 86       		.byte	-122
 2866 0983 00       		.byte	0
 2867 0984 1B       		.byte	27
 2868 0985 9C       		.byte	-100
 2869 0986 E1       		.byte	-31
 2870 0987 8A       		.byte	-118
 2871 0988 A4       		.byte	-92
 2872 0989 8D       		.byte	-115
 2873 098a C1       		.byte	-63
 2874 098b 4E       		.byte	78
 2875 098c D3       		.byte	-45
 2876 098d B3       		.byte	-77
 2877 098e 05       		.byte	5
 2878 098f 02       		.byte	2
 2879 0990 40       		.byte	64
 2880 0991 00       		.byte	0
 2881 0992 93       		.byte	-109
 2882 0993 68       		.byte	104
 2883 0994 CB       		.byte	-53
 2884 0995 AC       		.byte	-84
 2885 0996 6C       		.byte	108
 2886 0997 67       		.byte	103
 2887 0998 5B       		.byte	91
 2888 0999 94       		.byte	-108
 2889 099a 14       		.byte	20
 2890 099b FF       		.byte	-1
 2891 099c 9E       		.byte	-98
 2892 099d 01       		.byte	1
 2893 099e AC       		.byte	-84
 2894 099f F1       		.byte	-15
 2895 09a0 5B       		.byte	91
 2896 09a1 40       		.byte	64
 2897 09a2 48       		.byte	72
 2898 09a3 D7       		.byte	-41
 2899 09a4 F3       		.byte	-13
 2900 09a5 03       		.byte	3
 2901 09a6 AA       		.byte	-86
 2902 09a7 42       		.byte	66
 2903 09a8 80       		.byte	-128
 2904 09a9 4B       		.byte	75
ARM GAS  C:\Users\zdy\AppData\Local\Temp\cckmpJrg.s 			page 71


 2905 09aa 27       		.byte	39
 2906 09ab A5       		.byte	-91
 2907 09ac AD       		.byte	-83
 2908 09ad 70       		.byte	112
 2909 09ae 87       		.byte	-121
 2910 09af 4B       		.byte	75
 2911 09b0 13       		.byte	19
 2912 09b1 03       		.byte	3
 2913 09b2 58       		.byte	88
 2914 09b3 00       		.byte	0
 2915 09b4 0D       		.byte	13
 2916 09b5 48       		.byte	72
 2917 09b6 50       		.byte	80
 2918 09b7 2A       		.byte	42
 2919 09b8 31       		.byte	49
 2920 09b9 CD       		.byte	-51
 2921 09ba 60       		.byte	96
 2922 09bb CC       		.byte	-52
 2923 09bc 1F       		.byte	31
 2924 09bd A5       		.byte	-91
 2925 09be 0F       		.byte	15
 2926 09bf A8       		.byte	-88
 2927 09c0 C4       		.byte	-60
 2928 09c1 8D       		.byte	-115
 2929 09c2 AE       		.byte	-82
 2930 09c3 74       		.byte	116
 2931 09c4 63       		.byte	99
 2932 09c5 32       		.byte	50
 2933 09c6 B0       		.byte	-80
 2934 09c7 30       		.byte	48
 2935 09c8 8A       		.byte	-118
 2936 09c9 6D       		.byte	109
 2937 09ca AF       		.byte	-81
 2938 09cb 4E       		.byte	78
 2939 09cc F0       		.byte	-16
 2940 09cd 2B       		.byte	43
 2941 09ce 7A       		.byte	122
 2942 09cf BC       		.byte	-68
 2943 09d0 B9       		.byte	-71
 2944 09d1 81       		.byte	-127
 2945 09d2 AA       		.byte	-86
 2946 09d3 4E       		.byte	78
 2947 09d4 F7       		.byte	-9
 2948 09d5 BB       		.byte	-69
 2949 09d6 E0       		.byte	-32
 2950 09d7 75       		.byte	117
 2951 09d8 D9       		.byte	-39
 2952 09d9 02       		.byte	2
 2953 09da 54       		.byte	84
 2954 09db 9B       		.byte	-101
 2955 09dc DC       		.byte	-36
 2956 09dd B2       		.byte	-78
 2957 09de 9E       		.byte	-98
 2958 09df 75       		.byte	117
 2959 09e0 3D       		.byte	61
 2960 09e1 1C       		.byte	28
 2961 09e2 B0       		.byte	-80
ARM GAS  C:\Users\zdy\AppData\Local\Temp\cckmpJrg.s 			page 72


 2962 09e3 67       		.byte	103
 2963 09e4 13       		.byte	19
 2964 09e5 C3       		.byte	-61
 2965 09e6 CB       		.byte	-53
 2966 09e7 DE       		.byte	-34
 2967 09e8 F6       		.byte	-10
 2968 09e9 82       		.byte	-126
 2969 09ea 64       		.byte	100
 2970 09eb 00       		.byte	0
 2971 09ec 0C       		.byte	12
 2972 09ed D8       		.byte	-40
 2973 09ee C1       		.byte	-63
 2974 09ef 6D       		.byte	109
 2975 09f0 12       		.byte	18
 2976 09f1 99       		.byte	-103
 2977 09f2 C3       		.byte	-61
 2978 09f3 20       		.byte	32
 2979 09f4 68       		.byte	104
 2980 09f5 F7       		.byte	-9
 2981 09f6 0B       		.byte	11
 2982 09f7 80       		.byte	-128
 2983 09f8 6D       		.byte	109
 2984 09f9 A8       		.byte	-88
 2985 09fa 7B       		.byte	123
 2986 09fb F7       		.byte	-9
 2987 09fc CB       		.byte	-53
 2988 09fd DF       		.byte	-33
 2989 09fe F8       		.byte	-8
 2990 09ff 91       		.byte	-111
 2991 0a00 EE       		.byte	-18
 2992 0a01 BF       		.byte	-65
 2993 0a02 08       		.byte	8
 2994 0a03 58       		.byte	88
 2995 0a04 81       		.byte	-127
 2996 0a05 12       		.byte	18
 2997 0a06 84       		.byte	-124
 2998 0a07 90       		.byte	-112
 2999 0a08 83       		.byte	-125
 3000 0a09 C8       		.byte	-56
 3001 0a0a 1C       		.byte	28
 3002 0a0b C6       		.byte	-58
 3003 0a0c 00       		.byte	0
 3004 0a0d 37       		.byte	55
 3005 0a0e E8       		.byte	-24
 3006 0a0f 41       		.byte	65
 3007 0a10 0F       		.byte	15
 3008 0a11 74       		.byte	116
 3009 0a12 C0       		.byte	-64
 3010 0a13 60       		.byte	96
 3011 0a14 06       		.byte	6
 3012 0a15 A7       		.byte	-89
 3013 0a16 F7       		.byte	-9
 3014 0a17 03       		.byte	3
 3015 0a18 95       		.byte	-107
 3016 0a19 0D       		.byte	13
 3017 0a1a 6E       		.byte	110
 3018 0a1b 7F       		.byte	127
ARM GAS  C:\Users\zdy\AppData\Local\Temp\cckmpJrg.s 			page 73


 3019 0a1c 27       		.byte	39
 3020 0a1d 2C       		.byte	44
 3021 0a1e 5B       		.byte	91
 3022 0a1f CD       		.byte	-51
 3023 0a20 D5       		.byte	-43
 3024 0a21 2F       		.byte	47
 3025 0a22 02       		.byte	2
 3026 0a23 18       		.byte	24
 3027 0a24 CE       		.byte	-50
 3028 0a25 B0       		.byte	-80
 3029 0a26 86       		.byte	-122
 3030 0a27 37       		.byte	55
 3031 0a28 CC       		.byte	-52
 3032 0a29 E1       		.byte	-31
 3033 0a2a 08       		.byte	8
 3034 0a2b 20       		.byte	32
 3035 0a2c E0       		.byte	-32
 3036 0a2d 00       		.byte	0
 3037 0a2e 20       		.byte	32
 3038 0a2f 66       		.byte	102
 3039 0a30 C0       		.byte	-64
 3040 0a31 86       		.byte	-122
 3041 0a32 F9       		.byte	-7
 3042 0a33 57       		.byte	87
 3043 0a34 80       		.byte	-128
 3044 0a35 12       		.byte	18
 3045 0a36 9B       		.byte	-101
 3046 0a37 98       		.byte	-104
 3047 0a38 64       		.byte	100
 3048 0a39 25       		.byte	37
 3049 0a3a A0       		.byte	-96
 3050 0a3b 8F       		.byte	-113
 3051 0a3c 65       		.byte	101
 3052 0a3d 29       		.byte	41
 3053 0a3e CC       		.byte	-52
 3054 0a3f E2       		.byte	-30
 3055 0a40 CC       		.byte	-52
 3056 0a41 6A       		.byte	106
 3057 0a42 AE       		.byte	-82
 3058 0a43 02       		.byte	2
 3059 0a44 0F       		.byte	15
 3060 0a45 8B       		.byte	-117
 3061 0a46 65       		.byte	101
 3062 0a47 09       		.byte	9
 3063 0a48 02       		.byte	2
 3064 0a49 44       		.byte	68
 3065 0a4a E3       		.byte	-29
 3066 0a4b 1A       		.byte	26
 3067 0a4c 07       		.byte	7
 3068 0a4d 48       		.byte	72
 3069 0a4e 58       		.byte	88
 3070 0a4f 33       		.byte	51
 3071 0a50 B6       		.byte	-74
 3072 0a51 31       		.byte	49
 3073 0a52 0A       		.byte	10
 3074 0a53 70       		.byte	112
 3075 0a54 CC       		.byte	-52
ARM GAS  C:\Users\zdy\AppData\Local\Temp\cckmpJrg.s 			page 74


 3076 0a55 E3       		.byte	-29
 3077 0a56 14       		.byte	20
 3078 0a57 07       		.byte	7
 3079 0a58 B2       		.byte	-78
 3080 0a59 C5       		.byte	-59
 3081 0a5a 40       		.byte	64
 3082 0a5b 9E       		.byte	-98
 3083 0a5c AD       		.byte	-83
 3084 0a5d A5       		.byte	-91
 3085 0a5e EA       		.byte	-22
 3086 0a5f C7       		.byte	-57
 3087 0a60 9A       		.byte	-102
 3088 0a61 FC       		.byte	-4
 3089 0a62 19       		.byte	25
 3090 0a63 F9       		.byte	-7
 3091 0a64 C8       		.byte	-56
 3092 0a65 48       		.byte	72
 3093 0a66 4E       		.byte	78
 3094 0a67 B2       		.byte	-78
 3095 0a68 92       		.byte	-110
 3096 0a69 93       		.byte	-109
 3097 0a6a 9C       		.byte	-100
 3098 0a6b 49       		.byte	73
 3099 0a6c 09       		.byte	9
 3100 0a6d 07       		.byte	7
 3101 0a6e F9       		.byte	-7
 3102 0a6f C9       		.byte	-55
 3103 0a70 6D       		.byte	109
 3104 0a71 2D       		.byte	45
 3105 0a72 4C       		.byte	76
 3106 0a73 E4       		.byte	-28
 3107 0a74 A6       		.byte	-90
 3108 0a75 4C       		.byte	76
 3109 0a76 E5       		.byte	-27
 3110 0a77 2A       		.byte	42
 3111 0a78 53       		.byte	83
 3112 0a79 19       		.byte	25
 3113 0a7a 01       		.byte	1
 3114 0a7b 58       		.byte	88
 3115 0a7c CE       		.byte	-50
 3116 0a7d B2       		.byte	-78
 3117 0a7e 96       		.byte	-106
 3118 0a7f B7       		.byte	-73
 3119 0a80 CC       		.byte	-52
 3120 0a81 65       		.byte	101
 3121 0a82 04       		.byte	4
 3122 0a83 4C       		.byte	76
 3123 0a84 F9       		.byte	-7
 3124 0a85 31       		.byte	49
 3125 0a86 50       		.byte	80
 3126 0a87 0E       		.byte	14
 3127 0a88 B3       		.byte	-77
 3128 0a89 8B       		.byte	-117
 3129 0a8a FF       		.byte	-1
 3130 0a8b 4B       		.byte	75
 3131 0a8c E6       		.byte	-26
 3132 0a8d 32       		.byte	50
ARM GAS  C:\Users\zdy\AppData\Local\Temp\cckmpJrg.s 			page 75


 3133 0a8e 3B       		.byte	59
 3134 0a8f 86       		.byte	-122
 3135 0a90 AD       		.byte	-83
 3136 0a91 62       		.byte	98
 3137 0a92 4E       		.byte	78
 3138 0a93 F3       		.byte	-13
 3139 0a94 55       		.byte	85
 3140 0a95 21       		.byte	33
 3141 0a96 C3       		.byte	-61
 3142 0a97 E6       		.byte	-26
 3143 0a98 36       		.byte	54
 3144 0a99 BB       		.byte	-69
 3145 0a9a D9       		.byte	-39
 3146 0a9b 1C       		.byte	28
 3147 0a9c CC       		.byte	-52
 3148 0a9d 87       		.byte	-121
 3149 0a9e 61       		.byte	97
 3150 0a9f 8C       		.byte	-116
 3151 0aa0 9A       		.byte	-102
 3152 0aa1 E7       		.byte	-25
 3153 0aa2 4C       		.byte	76
 3154 0aa3 E7       		.byte	-25
 3155 0aa4 3A       		.byte	58
 3156 0aa5 DB       		.byte	-37
 3157 0aa6 F9       		.byte	-7
 3158 0aa7 CE       		.byte	-50
 3159 0aa8 78       		.byte	120
 3160 0aa9 CE       		.byte	-50
 3161 0aaa B3       		.byte	-77
 3162 0aab 9E       		.byte	-98
 3163 0aac F7       		.byte	-9
 3164 0aad CC       		.byte	-52
 3165 0aae E7       		.byte	-25
 3166 0aaf 3E       		.byte	62
 3167 0ab0 FB       		.byte	-5
 3168 0ab1 F9       		.byte	-7
 3169 0ab2 CF       		.byte	-49
 3170 0ab3 80       		.byte	-128
 3171 0ab4 36       		.byte	54
 3172 0ab5 4A       		.byte	74
 3173 0ab6 40       		.byte	64
 3174 0ab7 00       		.byte	0
 3175 0ab8 00       		.byte	0
 3176 0ab9 3B       		.byte	59
 3177              		.section	.rodata.data__STM32F4x7_files_logo_jpg,"a"
 3178              		.align	2
 3181              	data__STM32F4x7_files_logo_jpg:
 3182 0000 2F53544D 		.ascii	"/STM32F4x7_files/logo.jpg\000\000\000HTTP/1.0 200 O"
 3182      33324634 
 3182      78375F66 
 3182      696C6573 
 3182      2F6C6F67 
 3183 002a 4B0D0A53 		.ascii	"K\015\012Server: lwIP/1.3.1 (http://savannah.nongnu"
 3183      65727665 
 3183      723A206C 
 3183      7749502F 
 3183      312E332E 
ARM GAS  C:\Users\zdy\AppData\Local\Temp\cckmpJrg.s 			page 76


 3184 0057 2E6F7267 		.ascii	".org/projects/lwip)\015\012Content-type: image/jpeg"
 3184      2F70726F 
 3184      6A656374 
 3184      732F6C77 
 3184      6970290D 
 3185 0084 0D0A0D0A 		.ascii	"\015\012\015\012\377\330\377\340\000\020JFIF\000\001"
 3185      FFD8FFE0 
 3185      00104A46 
 3185      49460001 
 3186 0094 0101012C 		.ascii	"\001\001\001,\001,\000\000\377\341\000hExif\000\000"
 3186      012C0000 
 3186      FFE10068 
 3186      45786966 
 3186      0000
 3187 00a6 49492A00 		.ascii	"II*\000\010\000\000\000\004\000\032\001\005\000\001"
 3187      08000000 
 3187      04001A01 
 3187      050001
 3188 00b5 0000003E 		.ascii	"\000\000\000>\000\000\000\033\001\005\000\001\000\000"
 3188      0000001B 
 3188      01050001 
 3188      0000
 3189 00c3 00460000 		.ascii	"\000F\000\000\000(\001\003\000\001\000\000\000\002\000"
 3189      00280103 
 3189      00010000 
 3189      000200
 3190 00d2 00003101 		.ascii	"\000\0001\001\002\000\021\000\000\000N\000\000\000\000"
 3190      02001100 
 3190      00004E00 
 3190      000000
 3191 00e1 0000002C 		.ascii	"\000\000\000,\001\000\000\001\000\000\000,\001\000\000"
 3191      01000001 
 3191      0000002C 
 3191      010000
 3192 00f0 01000000 		.ascii	"\001\000\000\000Paint.NET v3.5.4\000\257\377\333\000"
 3192      5061696E 
 3192      742E4E45 
 3192      54207633 
 3192      2E352E34 
 3193 0109 43000302 		.ascii	"C\000\003\002\002\003\002\002\003\003\003\003\004\003"
 3193      02030202 
 3193      03030303 
 3193      0403
 3194 0117 03040508 		.ascii	"\003\004\005\010\005\005\004\004\005\012\007\007\006"
 3194      05050404 
 3194      050A0707 
 3194      06
 3195 0124 080C0A0C 		.ascii	"\010\014\012\014\014\013\012\013\013\015\016\022\020"
 3195      0C0B0A0B 
 3195      0B0D0E12 
 3195      10
 3196 0131 0D0E110E 		.ascii	"\015\016\021\016\013\013\020\026\020\021\023\024\025"
 3196      0B0B1016 
 3196      10111314 
 3196      15
 3197 013e 15150C0F 		.ascii	"\025\025\014\017\027\030\026\024\030\022\024\025\024"
 3197      17181614 
ARM GAS  C:\Users\zdy\AppData\Local\Temp\cckmpJrg.s 			page 77


 3197      18121415 
 3197      14
 3198 014b FFDB0043 		.ascii	"\377\333\000C\001\003\004\004\005\004\005\011\005\005"
 3198      01030404 
 3198      05040509 
 3198      0505
 3199 0159 09140D0B 		.ascii	"\011\024\015\013\015\024\024\024\024\024\024\024\024"
 3199      0D141414 
 3199      14141414 
 3199      14
 3200 0166 14141414 		.ascii	"\024\024\024\024\024\024\024\024\024\024\024\024\024"
 3200      14141414 
 3200      14141414 
 3200      14
 3201 0173 14141414 		.ascii	"\024\024\024\024\024\024\024\024\024\024\024\024\024"
 3201      14141414 
 3201      14141414 
 3201      14
 3202 0180 14141414 		.ascii	"\024\024\024\024\024\024\024\024\024\024\024\024\024"
 3202      14141414 
 3202      14141414 
 3202      14
 3203 018d 141414FF 		.ascii	"\024\024\024\377\300\000\021\010\0009\000`\003\001\""
 3203      C0001108 
 3203      00390060 
 3203      030122
 3204 019c 00021101 		.ascii	"\000\002\021\001\003\021\001\377\304\000\037\000\000"
 3204      031101FF 
 3204      C4001F00 
 3204      00
 3205 01a9 01050101 		.ascii	"\001\005\001\001\001\001\001\001\000\000\000\000\000"
 3205      01010101 
 3205      00000000 
 3205      00
 3206 01b6 00000001 		.ascii	"\000\000\000\001\002\003\004\005\006\007\010\011\012"
 3206      02030405 
 3206      06070809 
 3206      0A
 3207 01c3 0BFFC400 		.ascii	"\013\377\304\000\265\020\000\002\001\003\003\002\004"
 3207      B5100002 
 3207      01030302 
 3207      04
 3208 01d0 03050504 		.ascii	"\003\005\005\004\004\000\000\001}\001\002\003\000\004"
 3208      04000001 
 3208      7D010203 
 3208      0004
 3209 01de 11051221 		.ascii	"\021\005\022!1A\006\023Qa\007\"q\0242\201\221\241\010"
 3209      31410613 
 3209      51610722 
 3209      71143281 
 3209      91A108
 3210 01f1 2342B1C1 		.ascii	"#B\261\301\025R\321\360$3br\202\011\012\026\027\030"
 3210      1552D1F0 
 3210      24336272 
 3210      82090A16 
 3210      1718
 3211 0203 191A2526 		.ascii	"\031\032%&'()*456789:CDEFGHIJSTUVWXYZcdefghijstuvwx"
ARM GAS  C:\Users\zdy\AppData\Local\Temp\cckmpJrg.s 			page 78


 3211      2728292A 
 3211      34353637 
 3211      38393A43 
 3211      44454647 
 3212 0230 797A8384 		.ascii	"yz\203\204\205\206\207\210\211\212\222\223\224\225\226"
 3212      85868788 
 3212      898A9293 
 3212      949596
 3213 023f 9798999A 		.ascii	"\227\230\231\232\242\243\244\245\246\247\250\251\252"
 3213      A2A3A4A5 
 3213      A6A7A8A9 
 3213      AA
 3214 024c B2B3B4B5 		.ascii	"\262\263\264\265\266\267\270\271\272\302\303\304\305"
 3214      B6B7B8B9 
 3214      BAC2C3C4 
 3214      C5
 3215 0259 C6C7C8C9 		.ascii	"\306\307\310\311\312\322\323\324\325\326\327\330\331"
 3215      CAD2D3D4 
 3215      D5D6D7D8 
 3215      D9
 3216 0266 DAE1E2E3 		.ascii	"\332\341\342\343\344\345\346\347\350\351\352\361\362"
 3216      E4E5E6E7 
 3216      E8E9EAF1 
 3216      F2
 3217 0273 F3F4F5F6 		.ascii	"\363\364\365\366\367\370\371\372\377\304\000\037\001"
 3217      F7F8F9FA 
 3217      FFC4001F 
 3217      01
 3218 0280 00030101 		.ascii	"\000\003\001\001\001\001\001\001\001\001\001\000\000"
 3218      01010101 
 3218      01010100 
 3218      00
 3219 028d 00000000 		.ascii	"\000\000\000\000\001\002\003\004\005\006\007\010\011"
 3219      01020304 
 3219      05060708 
 3219      09
 3220 029a 0A0BFFC4 		.ascii	"\012\013\377\304\000\265\021\000\002\001\002\004\004"
 3220      00B51100 
 3220      02010204 
 3220      04
 3221 02a7 03040705 		.ascii	"\003\004\007\005\004\004\000\001\002w\000\001\002\003"
 3221      04040001 
 3221      02770001 
 3221      0203
 3222 02b5 11040521 		.ascii	"\021\004\005!1\006\022AQ\007aq\023\"2\201\010\024B\221"
 3222      31061241 
 3222      51076171 
 3222      13223281 
 3222      08144291 
 3223 02c9 A1B1C109 		.ascii	"\241\261\301\011#3R\360\025br\321\012\026$4\341%\361"
 3223      233352F0 
 3223      156272D1 
 3223      0A162434 
 3223      E125F1
 3224 02dc 1718191A 		.ascii	"\027\030\031\032&'()*56789:CDEFGHIJSTUVWXYZcdefghij"
 3224      26272829 
 3224      2A353637 
ARM GAS  C:\Users\zdy\AppData\Local\Temp\cckmpJrg.s 			page 79


 3224      38393A43 
 3224      44454647 
 3225 0303 73747576 		.ascii	"stuvwxyz\202\203\204\205\206\207\210\211\212\222\223"
 3225      7778797A 
 3225      82838485 
 3225      86878889 
 3225      8A9293
 3226 0316 94959697 		.ascii	"\224\225\226\227\230\231\232\242\243\244\245\246\247"
 3226      98999AA2 
 3226      A3A4A5A6 
 3226      A7
 3227 0323 A8A9AAB2 		.ascii	"\250\251\252\262\263\264\265\266\267\270\271\272\302"
 3227      B3B4B5B6 
 3227      B7B8B9BA 
 3227      C2
 3228 0330 C3C4C5C6 		.ascii	"\303\304\305\306\307\310\311\312\322\323\324\325\326"
 3228      C7C8C9CA 
 3228      D2D3D4D5 
 3228      D6
 3229 033d D7D8D9DA 		.ascii	"\327\330\331\332\342\343\344\345\346\347\350\351\352"
 3229      E2E3E4E5 
 3229      E6E7E8E9 
 3229      EA
 3230 034a F2F3F4F5 		.ascii	"\362\363\364\365\366\367\370\371\372\377\332\000\014"
 3230      F6F7F8F9 
 3230      FAFFDA00 
 3230      0C
 3231 0357 03010002 		.ascii	"\003\001\000\002\021\003\021\000?\000\375S\242\212("
 3231      11031100 
 3231      3F00FD53 
 3231      A28A28
 3232 0366 012BE45F 		.ascii	"\001+\344_\211\337\265g\2114\257\035j\326>\035{/\354"
 3232      89DFB567 
 3232      8934AF1D 
 3232      6AD63E1D 
 3232      7B2FEC
 3233 0379 AB497ECF 		.ascii	"\253I~\317\033\313\006\362\354\274;g=\013\003\217lW"
 3233      1BCB06F2 
 3233      ECBC3B67 
 3233      3D0B038F 
 3233      6C57
 3234 038b BEFC72F1 		.ascii	"\276\374r\361\337\374+\337\207\032\236\243\023\355\277"
 3234      DFFC2BDF 
 3234      871A9EA3 
 3234      13EDBF
 3235 039a 957ECB66 		.ascii	"\225~\313f;\231\237 \021\376\350\313\177\300k\304~\023"
 3235      3B999F20 
 3235      11FEE8CB 
 3235      7FC06BC4 
 3235      7E13
 3236 03ac FEC8D16A 		.ascii	"\376\310\321jzd\032\267\214\347\270\216I\300\2214\310"
 3236      7A641AB7 
 3236      8CE7B88E 
 3236      49C09134 
 3236      C8
 3237 03bd 1B63283C 		.ascii	"\033c(<\2175\2719?\335\030\307s\330}\226GO\001\207\245"
 3237      8F35B939 
ARM GAS  C:\Users\zdy\AppData\Local\Temp\cckmpJrg.s 			page 80


 3237      3FDD18C7 
 3237      73D87D96 
 3237      474F0187 
 3238 03d2 3C7664AF 		.ascii	"<vd\257\037\206*\327\273\335\264\274\264\327mO\3158"
 3238      1F862AD7 
 3238      BBDDB4BC 
 3238      B4D76D4F 
 3238      CD38
 3239 03e4 A6BE6D8D 		.ascii	"\246\276m\215\304R\312\362Y8\317\343\234\223\262\212"
 3239      C452CAF2 
 3239      5938CFE3 
 3239      9C93B28A 
 3240 03f4 DA29BF3D 		.ascii	"\332)\277=]\267\321hp\377\000\360\327_\020?\347\256"
 3240      5DB7D168 
 3240      70FF00F0 
 3240      D75F103F 
 3240      E7AE
 3241 0406 9BFF0080 		.ascii	"\233\377\000\200\237\375z?\341\256\276 \177\317]7\377"
 3241      9FFD7A3F 
 3241      E1AEBE20 
 3241      7FCF5D37 
 3241      FF
 3242 0417 00013FFA 		.ascii	"\000\001?\372\365\364j\376\313\177\015U@\377\000\204"
 3242      F5F46AFE 
 3242      CB7F0D55 
 3242      40FF0084 
 3243 0427 7DCE3B9B 		.ascii	"}\316;\233\353\216\177\361\372_\370e\317\206\237\364"
 3243      EB8E7FF1 
 3243      FA5FF865 
 3243      CF869FF4 
 3244 0437 2F3FFE07 		.ascii	"/?\376\007\\\177\361\312\366\377\000\266xw\376\201\037"
 3244      5C7FF1CA 
 3244      F6FF00B6 
 3244      7877FE81 
 3244      1F
 3245 0448 FE031FFE 		.ascii	"\376\003\037\376H\371\177\365k\214\377\000\350`\277"
 3245      48F97FF5 
 3245      6B8CFF00 
 3245      E860BF
 3246 0457 F039FF00 		.ascii	"\3609\377\000\362'\316?\360\327_\020?\347\256\233\377"
 3246      F227CE3F 
 3246      F0D75F10 
 3246      3FE7AE9B 
 3246      FF
 3247 0468 00809FFD 		.ascii	"\000\200\237\375z?\341\256\276 \177\317]7\377\000\001"
 3247      7A3FE1AE 
 3247      BE207FCF 
 3247      5D37FF00 
 3247      01
 3248 0479 3FFAF5F4 		.ascii	"?\372\365\364w\3742\347\303O\372\027\237\377\000\003"
 3248      77FC32E7 
 3248      C34FFA17 
 3248      9FFF0003 
 3249 0489 AE3FF8E5 		.ascii	"\256?\370\345\037\360\313\237\015?\350^\177\374\016"
 3249      1FF0CB9F 
 3249      0D3FE85E 
 3249      7FFC0E
ARM GAS  C:\Users\zdy\AppData\Local\Temp\cckmpJrg.s 			page 81


 3250 0498 B8FF00E3 		.ascii	"\270\377\000\343\224\177l\360\357\375\002?\374\006?"
 3250      947F6CF0 
 3250      EFFD023F 
 3250      FC063F
 3251 04a7 FC907FAB 		.ascii	"\374\220\177\253\\g\377\000C\005\377\000\201\317\377"
 3251      5C67FF00 
 3251      4305FF00 
 3251      81CFFF
 3252 04b6 00913E71 		.ascii	"\000\221>q\377\000\206\272\370\201\377\000=t\337\374"
 3252      FF0086BA 
 3252      F881FF00 
 3252      3D74DFFC 
 3253 04c6 04FF00EB 		.ascii	"\004\377\000\353\321\377\000\015u\361\003\376z\351\277"
 3253      D1FF000D 
 3253      75F103FE 
 3253      7AE9BF
 3254 04d5 F809FF00 		.ascii	"\370\011\377\000\327\257\243\277\341\227>\032\177\320"
 3254      D7AFA3BF 
 3254      E1973E1A 
 3254      7FD0
 3255 04e3 BCFF00F8 		.ascii	"\274\377\000\370\035q\377\000\307(\377\000\206\\\370"
 3255      1D71FF00 
 3255      C728FF00 
 3255      865CF8
 3256 04f2 69FF0042 		.ascii	"i\377\000B\363\377\000\340u\307\377\000\034\243\373"
 3256      F3FF00E0 
 3256      75C7FF00 
 3256      1CA3FB
 3257 0501 67877FE8 		.ascii	"g\207\177\350\021\377\000\3401\377\000\344\203\375Z"
 3257      11FF00E0 
 3257      31FF00E4 
 3257      83FD5A
 3258 0510 E33FFA18 		.ascii	"\343?\372\030/\374\016\177\374\211\363\217\3745\327"
 3258      2FFC0E7F 
 3258      FC89F38F 
 3258      FC35D7
 3259 051f C40FF9EB 		.ascii	"\304\017\371\353\246\377\000\340'\377\000^\276\206\375"
 3259      A6FF00E0 
 3259      27FF005E 
 3259      BE86FD
 3260 052e 9CFC6FE2 		.ascii	"\234\374o\342\277\210\336\035\275\326\374D\366\342\331"
 3260      BF88DE1D 
 3260      BDD6FC44 
 3260      F6E2D9
 3261 053d A6F26CD6 		.ascii	"\246\362l\326\010<\275\333~\373\036NFH\003\375\323V"
 3261      083CBDDB 
 3261      7EFB1E4E 
 3261      464803FD 
 3261      D356
 3262 054f 3FE1973E 		.ascii	"?\341\227>\032\177\320\274\377\000\370\035q\377\000"
 3262      1A7FD0BC 
 3262      FF00F81D 
 3262      71FF00
 3263 055e C72BD13C 		.ascii	"\307+\321<;\341\335?\302z-\256\223\245[\213M>\325vE"
 3263      3BE1DD3F 
 3263      C27A2DAE 
 3263      93A55B8B 
ARM GAS  C:\Users\zdy\AppData\Local\Temp\cckmpJrg.s 			page 82


 3263      4D3ED576 
 3264 0573 0862DB46 		.ascii	"\010b\333FI\352I$\344\223\223\353^.m\231eX\214?\263"
 3264      49EA4924 
 3264      E49393EB 
 3264      5E2E6D99 
 3264      65588C3F 
 3265 0588 C0E1F924 		.ascii	"\300\341\371$\336\355%\247\225\233\377\000\206>\233"
 3265      DEED25A7 
 3265      959BFF00 
 3265      863E9B
 3266 0597 87B23E20 		.ascii	"\207\262> \301\343=\276k\214\366\224\322v\212\224\235"
 3266      C1E33DBE 
 3266      6B8CF694 
 3266      D2768A94 
 3266      9D
 3267 05a8 DF9DD2D1 		.ascii	"\337\235\322\321+\374\354iQEa\370\337\3056\336\011\360"
 3267      2BFCEC69 
 3267      514561F8 
 3267      DFC536DE 
 3267      09F0
 3268 05ba 9EA9AE5D 		.ascii	"\236\251\256]\343\311\262\201\245\333\234oo\341_\251"
 3268      E3C9B281 
 3268      A5DB9C6F 
 3268      6FE15FA9 
 3269 05ca 6C0FC6BE 		.ascii	"l\017\306\276>\020\225I(A]\275\021\372EZ\260\241NUj"
 3269      3E109549 
 3269      28415DBD 
 3269      11FA455A 
 3269      B0A14E55 
 3270 05df 3B4629B6 		.ascii	";F)\266\373%\271\341\177\021|Io\343\337\332O\301\376"
 3270      FB25B9E1 
 3270      7F117C49 
 3270      6FE3DFDA 
 3270      4FC1FE
 3271 05f2 102C24D3 		.ascii	"\020,$\323t\231\215\304\350yW\270\021\231p}p\021G\374"
 3271      74998DC4 
 3271      E87957B8 
 3271      1199707D 
 3271      701147FC 
 3272 0606 09857D19 		.ascii	"\011\205}\0314\236L2I\265\233b\226\332\243$\340t\025"
 3272      349E4C32 
 3272      49B59B62 
 3272      96DAA324 
 3272      E07415
 3273 0619 F9B5A1F8 		.ascii	"\371\265\241\370\357P\322<\177m\342\307o\264j\011{\366"
 3273      EF50D23C 
 3273      7F6DE2C7 
 3273      6FB46A09 
 3273      7BF6
 3274 062b C97271E6 		.ascii	"\311rq\346\022\331u\366\004\022?\032\375\016\360\177"
 3274      12D975F6 
 3274      04123F1A 
 3274      FD0EF07F 
 3275 063b 8C34BF1D 		.ascii	"\2144\277\035x~\327W\322nV\342\322u\317\037y\033\272"
 3275      787ED757 
 3275      D26E56E2 
 3275      D275CF1F 
ARM GAS  C:\Users\zdy\AppData\Local\Temp\cckmpJrg.s 			page 83


 3275      791BBA
 3276 064e 30ECC3B8 		.ascii	"0\354\303\270\257\265\342<\262y}<4R\274#\033_\2475\333"
 3276      AFB5E23C 
 3276      B2797D3C 
 3276      3452BC23 
 3276      1B5FA735 
 3277 0663 7F7DF4F4 		.ascii	"\177}\364\364\362?/\340\254\362\226oW\0339;U\224\371"
 3277      F23F2FE0 
 3277      ACF2966F 
 3277      571B393B 
 3277      5594F9
 3278 0676 92EBC964 		.ascii	"\222\353\311d\243\377\000\200\333__3\346\313\237\333"
 3278      A3FF0080 
 3278      DB5F5F33 
 3278      E6CB9FDB 
 3279 0686 6EF23B89 		.ascii	"n\362;\211U<#\020Eb\000\226\364\206\003=\306\316\265"
 3279      553C2310 
 3279      45620096 
 3279      F486033D 
 3279      C6CEB5
 3280 0699 1FFC36F5 		.ascii	"\037\3746\365\377\000\375\012v\377\000\370\034\337\374"
 3280      FF00FD0A 
 3280      76FF00F8 
 3280      1CDFFC
 3281 06a8 45759FB4 		.ascii	"Eu\237\264\037\354\337\037\213V\343\304^\030\201!\326"
 3281      1FECDF1F 
 3281      8B56E3C4 
 3281      5E188121 
 3281      D6
 3282 06b9 C02F7166 		.ascii	"\300/qf\270U\273\365#\260\223\364n\374\362~;\236\011"
 3282      B855BBF5 
 3282      23B093F4 
 3282      6EFCF27E 
 3282      3B9E09
 3283 06cc 6D679219 		.ascii	"mg\222\031\243hf\215\212<n\245YX\034\020A\350E}^U\227"
 3283      A368668D 
 3283      8A3C6EA5 
 3283      59581C10 
 3283      41E8457D 
 3284 06e3 6459AD1F 		.ascii	"dY\255\037iJ\215\244\267\\\322\272\177~\335\231\360"
 3284      694A8DA4 
 3284      B75CD2BA 
 3284      7F7EDD99 
 3284      F0
 3285 06f4 1C419CF1 		.ascii	"\034A\234\361fA\212tk\342/\027\360\311F\026k\377\000"
 3285      66418A74 
 3285      6BE22F17 
 3285      F0C94616 
 3285      6BFF00
 3286 0707 01D1F75D 		.ascii	"\001\321\367]=,\317\246?\341\267\257\377\000\350S\267"
 3286      3D2CCFA6 
 3286      3FE1B7AF 
 3286      FF00E853 
 3286      B7
 3287 0718 FF00C0E6 		.ascii	"\377\000\300\346\377\000\342+\322~\010|z\325>0kW\326"
 3287      FF00E22B 
 3287      D27E087C 
ARM GAS  C:\Users\zdy\AppData\Local\Temp\cckmpJrg.s 			page 84


 3287      7AD53E30 
 3287      6B57D6
 3288 072b CDE1E874 		.ascii	"\315\341\350t\353\0338C\313t\267&C\275\216\021\000\332"
 3288      EB1B3843 
 3288      CB74B726 
 3288      43BD8E11 
 3288      00DA
 3289 073d 3AE18F5F 		.ascii	":\341\217_\341\257\206\253\357\257\331\267\300?\360"
 3289      E1AF86AB 
 3289      EFAFD9B7 
 3289      C03FF0
 3290 074c 82FC32B1 		.ascii	"\202\3742\261\363\343\331\250j\177\351\327\031\034\215"
 3290      F3E3D9A8 
 3290      6A7FE9D7 
 3290      191C8D
 3291 075b C06C53F4 		.ascii	"\300lS\364\\q\352Mp\361\026Y\225\345\230>jT\2559;-e"
 3291      5C71EA4D 
 3291      70F11659 
 3291      95E5983E 
 3291      6A54AD39 
 3292 0772 F37BF6FC 		.ascii	"\363{\366\374\317S\2033\314\373<\314\224+\342\033\245"
 3292      CF538333 
 3292      CCFB3CCC 
 3292      942BE21B 
 3292      A5
 3293 0783 05797BB1 		.ascii	"\005y{\261W\350\225\324z\277\3013\266\361\337\213\255"
 3293      57E895D4 
 3293      7ABFC133 
 3293      B6F1DF8B 
 3293      AD
 3294 0794 BC0BE11D 		.ascii	"\274\013\341\035S]\272\033\242\262\204\310\0238\363"
 3294      535DBA1B 
 3294      A2B284C8 
 3294      1338F3
 3295 07a3 1FA2A67F 		.ascii	"\037\242\246\177\332b\007\343_5\377\000\303o_\177\320"
 3295      DA6207E3 
 3295      5F35FF00 
 3295      C36F5F7F 
 3295      D0
 3296 07b4 A76FFF00 		.ascii	"\247o\377\000\201\315\377\000\304U\277\3337\307\337"
 3296      81CDFF00 
 3296      C455BFDB 
 3296      37C7DF
 3297 07c3 F20BF085 		.ascii	"\362\013\360\205\264\237\364\373x\024\366\344F"
 3297      B49FF4FB 
 3297      7814F6E4 
 3297      46
 3298 07d0 A7FF001E 		.ascii	"\247\377\000\036l\177\273_,\200X\200\006I\355O\207x"
 3298      6C7FBB5F 
 3298      2C805880 
 3298      0649ED4F 
 3298      8778
 3299 07e2 7B0B88C1 		.ascii	"{\013\210\301,F6\034\316OMZ\262\3715\276\376\226\027"
 3299      2C46361C 
 3299      CE4F4D5A 
 3299      B2F935BE 
 3299      FE9617
ARM GAS  C:\Users\zdy\AppData\Local\Temp\cckmpJrg.s 			page 85


 3300 07f5 19718E3F 		.ascii	"\031q\216?\007\231\274\036YW\2260V\226\211\336OW\272"
 3300      0799BC1E 
 3300      59579630 
 3300      569689DE 
 3300      4F57BA
 3301 0808 7B68BD6E 		.ascii	"{h\275n}\337\360/\343^\251\361\206\343Sy\264(\264\315"
 3301      7DDFF02F 
 3301      E35EA9F1 
 3301      86E35379 
 3301      B428B4CD 
 3302 081c 3EC9557C 		.ascii	">\311U|\364\234\310^F\350\243*:\000I\372\217Z\365\352"
 3302      F49CC85E 
 3302      46E8A32A 
 3302      3A0049FA 
 3302      8F5AF5EA 
 3303 0830 F3FF0081 		.ascii	"\363\377\000\201~\002\377\000\205y\360\333K\323\245"
 3303      7E02FF00 
 3303      8579F0DB 
 3303      4BD3A5
 3304 083f 8C25F4CB 		.ascii	"\214%\364\313\366\253\3169\363\\\002A\377\000tm_\370"
 3304      F6ABCE39 
 3304      F35C0241 
 3304      FF00746D 
 3304      5FF8
 3305 0851 0D7A057E 		.ascii	"\015z\005~w\231<;\305\324\372\244yi\247e\273\333K\353"
 3305      77993C3B 
 3305      C5D4FAA4 
 3305      7969A765 
 3305      BBDB4BEB 
 3306 0865 DF73F65C 		.ascii	"\337s\366\\\2228\310\345\364^a>j\255^N\311j\365\265"
 3306      9238C8E5 
 3306      F45E613E 
 3306      6AAD5E4E 
 3306      C96AF5B5 
 3307 0879 924B4D82 		.ascii	"\222KM\202\276^\375\263\274{\345[i~\021\266\227\346"
 3307      BE5EFDB3 
 3307      BC7BE55B 
 3307      697E11B6 
 3307      97E6
 3308 088b 948BDBC0 		.ascii	"\224\213\333\300\247\370FDj~\247s\177\300V\276\2405"
 3308      A7F84644 
 3308      6A7EA773 
 3308      7FC056BE 
 3308      A035
 3309 089d F217C44F 		.ascii	"\362\027\304O\331\313\342'\217\274i\253k\263\0154}\256"
 3309      D9CBE227 
 3309      8FBC69AB 
 3309      6BB30D34 
 3309      7DAE
 3310 08af 626346BB 		.ascii	"bcF\2739H\307\010\277w\262\200+\330\341\265\205\206"
 3310      3948C708 
 3310      BF77B280 
 3310      2BD8E1B5 
 3310      8586
 3311 08c1 3957C5CD 		.ascii	"9W\305\315F0\325_\253\351\367o\367\0377\306\317\035"
 3311      4630D55F 
 3311      ABE9F76F 
ARM GAS  C:\Users\zdy\AppData\Local\Temp\cckmpJrg.s 			page 86


 3311      F71F37C6 
 3311      CF1D
 3312 08d3 532B784C 		.ascii	"S+xL\276\224\247*\216\317\225^\321\335\375\373z6|\337"
 3312      BE94A72A 
 3312      8ECF955E 
 3312      D1DDFDFB 
 3312      7A367CDF 
 3313 08e7 5DD7C27F 		.ascii	"]\327\302\177\213z\277\302\215t]\3311\270\323\346 ]"
 3313      8B7ABFC2 
 3313      8D745DD9 
 3313      31B8D3E6 
 3313      205D
 3314 08f9 D83B6126 		.ascii	"\330;a&_Q\350\303\263\1771\305v\177\360\310>>\364\323"
 3314      5F51E8C3 
 3314      B37F31C5 
 3314      767FF0C8 
 3314      3E3EF4D3 
 3315 090d 3FF028FF 		.ascii	"?\360(\377\000\3614\177\303 \370\373\323L\377\000\300"
 3315      00F1347F 
 3315      C320F8FB 
 3315      D34CFF00 
 3315      C0
 3316 091e A3FF00C4 		.ascii	"\243\377\000\304\327\353\025\363\\\243\025NTkV\213\213"
 3316      D7EB15F3 
 3316      5CA3154E 
 3316      546B568B 
 3316      8B
 3317 092f DD5CFE7C 		.ascii	"\335\\\376|\302d<E\201\257\034N\033\015R3\216\251\245"
 3317      C2643C45 
 3317      81AF1C4E 
 3317      1B0D5233 
 3317      8EA9A5
 3318 0942 FD7CD753 		.ascii	"\375|\327S\353\377\000\002\370\357H\370\211\341\370"
 3318      EBFF0002 
 3318      F8EF48F8 
 3318      89E1F8
 3319 0951 356D1EE0 		.ascii	"5m\036\340Mo'\016\215\303\304\375\321\307b?\372\343"
 3319      4D6F270E 
 3319      8DC3C4FD 
 3319      D1C7623F 
 3319      FAE3
 3320 0963 20D78B7E 		.ascii	" \327\213~\325\037\005\354\265m\002\357\306:\\\013\006"
 3320      D51F05EC 
 3320      B56D02EF 
 3320      C63A5C0B 
 3320      06
 3321 0974 AB64A1EF 		.ascii	"\253d\241\357\0261\201q\020\340\261\037\336Q\316{\200"
 3321      16318171 
 3321      10E0B11F 
 3321      DE51CE7B 
 3321      80
 3322 0985 73D0543F 		.ascii	"s\320T?\263\357\300\217\031\3744\361\224\232\206\247"
 3322      B3EFC08F 
 3322      19FC34F1 
 3322      949A86A7 
 3323 0995 7D6B6FA5 		.ascii	"}ko\245\274\014\223Z\333\316d\363\333\370r0\000\332"
 3323      BC0C935A 
ARM GAS  C:\Users\zdy\AppData\Local\Temp\cckmpJrg.s 			page 87


 3323      DBCE64F3 
 3323      DBF87230 
 3323      00DA
 3324 09a7 79CF5EDD 		.ascii	"y\317^\335\315{?\305[\353m;\341\257\212'\272 B4\333"
 3324      CD7B3FC5 
 3324      5BEB6D3B 
 3324      E1AF8A27 
 3324      BA204234 
 3325 09bc 8520F726 		.ascii	"\205 \367&2\000\374I\003\361\257\311\324\241\225f\260"
 3325      3200FC49 
 3325      03F1AFC9 
 3325      D4A19566 
 3325      B0
 3326 09cd 79755E78 		.ascii	"yu^x\335m\3257\254_\177\351\356\177A\312\0253\374\202"
 3326      DD6DD537 
 3326      AC5F7FE9 
 3326      EE7F41CA 
 3326      1533FC82 
 3327 09e1 A2CE687B 		.ascii	"\242\316h{9\244\357~\215-&\272\257\370u\252\337\341"
 3327      39A4EF7E 
 3327      8D2D26BA 
 3327      AFF875AA 
 3327      DFE1
 3328 09f3 9F81DE03 		.ascii	"\237\201\336\003?\020\376$izl\221\357\261\211\276\325"
 3328      3F10FE24 
 3328      697A6C91 
 3328      EFB189BE 
 3328      D5
 3329 0a04 79C71E52 		.ascii	"y\307\036R\020H?\357\035\253\377\000\002\257\320]B\376"
 3329      10483FEF 
 3329      1DABFF00 
 3329      02AFD05D 
 3329      42FE
 3330 0a16 DF45D32E 		.ascii	"\337E\323.o.dX-mbi\244s\321QA$\376B\274'\366?\360\017"
 3330      6F2E6458 
 3330      2D6D6269 
 3330      A473D151 
 3330      4124FE42 
 3331 0a30 F61782EE 		.ascii	"\366\027\202\356|Es\026\333\275]\361\021a\312\300\204"
 3331      7C457316 
 3331      DBBD5DF1 
 3331      1161CAC0 
 3331      84
 3332 0a41 81FF007D 		.ascii	"\201\377\000}6\343\356\002\324\277\265\357\217\277\341"
 3332      36E3EE02 
 3332      D4BFB5EF 
 3332      8FBFE1
 3333 0a50 1EF0343A 		.ascii	"\036\3604:\005\264\233o5\227\333 \007\225\201\010-\371"
 3333      05B49B6F 
 3333      3597DB20 
 3333      07958108 
 3333      2DF9
 3334 0a62 9DABEE37 		.ascii	"\235\253\3567W\255\234\324\226w\234\307\005I\373\261"
 3334      57AD9CD4 
 3334      96779CC7 
 3334      0549FBB1 
 3335 0a72 7CBFAC9F 		.ascii	"|\277\254\237\313\364>\177\206h\323\341n\032\251\231"
ARM GAS  C:\Users\zdy\AppData\Local\Temp\cckmpJrg.s 			page 88


 3335      CBF43E7F 
 3335      8668D3E1 
 3335      6E1AA999 
 3336 0a82 D75EFCD7 		.ascii	"\327^\374\327?\351\010\374\357\177\373x\3713\307\276"
 3336      3FE908FC 
 3336      EF7FFB78 
 3336      F933C7BE 
 3337 0a92 2DB8F1D7 		.ascii	"-\270\361\327\214umv\347!\357'.\250\307\356 \341\027"
 3337      8C756D76 
 3337      E721EF27 
 3337      2EA8C7EE 
 3337      20E117
 3338 0aa5 F05007E1 		.ascii	"\360P\007\341]\237\354\341\340\037\370N\376&\330\011"
 3338      5D9FECE1 
 3338      E01FF84E 
 3338      FE26D809 
 3339 0ab5 E3DFA769 		.ascii	"\343\337\247i\277\351\2679\034\035\244lS\365lq\350\015"
 3339      BFE9B739 
 3339      1C1DA46C 
 3339      53F56C71 
 3339      E80D
 3340 0ac7 796D7DC7 		.ascii	"ym}\307\373(\370\007\376\021?\207)\252\\G\262\377\000"
 3340      FB28F807 
 3340      FE113F87 
 3340      29AA5C47 
 3340      B2FF00
 3341 0ada 5A617272 		.ascii	"Zarr9\020\216\"\037\210%\277\340u\367Y\366.9VX\341K"
 3341      39108E22 
 3341      1F8825BF 
 3341      E075F759 
 3341      F62E3956 
 3342 0af1 46D72C7E 		.ascii	"F\327,~\357\321~6?(\341,\272y\376y\032\230\217yE\272"
 3342      EFD17E36 
 3342      3F28E12C 
 3342      BA79FE79 
 3342      1A988F79 
 3343 0b07 937DF5BF 		.ascii	"\223}\365\277\343&\276W=\250\014\012Z(\257\301O\353"
 3343      E326BE57 
 3343      3DA80C0A 
 3343      5A28AFC1 
 3343      4FEB
 3344 0b19 70A28A28 		.ascii	"p\242\212(\000\242\212(\002;\211\226\332\011%`\354\250"
 3344      00A28A28 
 3344      023B8996 
 3344      DA092560 
 3344      ECA8
 3345 0b2b A5888D0B 		.ascii	"\245\210\215\013\261\000g\2002I\366\034\327\315\177"
 3345      B1006780 
 3345      3249F61C 
 3345      D7CD7F
 3346 0b3a 18757F19 		.ascii	"\030u\177\031|b\325\364\377\000\011\351\036\031\326"
 3346      7C62D5F4 
 3346      FF0009E9 
 3346      1E19D6
 3347 0b49 B49F0CCD 		.ascii	"\264\237\014\315u\030\272\324/,\236/4n\0371\310\371"
 3347      7518BAD4 
 3347      2F2C9E2F 
ARM GAS  C:\Users\zdy\AppData\Local\Temp\cckmpJrg.s 			page 89


 3347      346E1F31 
 3347      C8F9
 3348 0b5b 517EF60F 		.ascii	"Q~\366\017$\201\323\030\257\246(\257K\003\214X\032\236"
 3348      2481D318 
 3348      AFA628AF 
 3348      4B038C58 
 3348      1A9E
 3349 0b6d D9414A4B 		.ascii	"\331AJKk\364}\355\325\256\207\211\233e\262\315h\375"
 3349      6BF47DED 
 3349      D5AE8789 
 3349      9B65B2CD 
 3349      68FD
 3350 0b7f 59D57083 		.ascii	"Y\325p\203\370\222J\362]\257\321>\266)\351:]\276\207"
 3350      F8924AF2 
 3350      5DAFD13E 
 3350      B629E93A 
 3350      5DBE87
 3351 0b92 A4DA69F6 		.ascii	"\244\332i\366\221\210\255maXb\214\177\012\250\300\037"
 3351      9188AD6D 
 3351      6158628C 
 3351      7F0AA8C0 
 3351      1F
 3352 0ba3 90AF8B7E 		.ascii	"\220\257\213~;x{\307?\021~$jZ\204>\025\326\345\323\340"
 3352      3B787BC7 
 3352      3F117E24 
 3352      6A5A843E 
 3352      15D6E5D3 
 3353 0bb8 3F64B322 		.ascii	"?d\263\"\306B\014HO\3148\376\"Y\277\340U\366\365\025"
 3353      C6420C48 
 3353      4FCC38FE 
 3353      2259BFE0 
 3353      55F6F515 
 3354 0bcc D595E693 		.ascii	"\325\225\346\223\312\353\313\021\030)I\253k~\273\234"
 3354      CAEBCB11 
 3354      182949AB 
 3354      6B7EBB9C 
 3355 0bdc 19F6414F 		.ascii	"\031\366AO=\302\303\007:\216\020N\366\215\265\262\262"
 3355      3DC2C307 
 3355      3A8E104E 
 3355      F68DB5B2 
 3355      B2
 3356 0bed 5E88FCFC 		.ascii	"^\210\374\374\360?\300\177\026k\376.\322\2545/\017j"
 3356      F03FC07F 
 3356      166BFE2E 
 3356      D2AC352F 
 3356      0F6A
 3357 0bff 9A769F34 		.ascii	"\232v\2374\353\366\233\253\213W\215\022!\313|\304`\034"
 3357      EBF69BAB 
 3357      8B578D12 
 3357      21CB7CC4 
 3357      601C
 3358 0c11 0207B915 		.ascii	"\002\007\271\025\367\365\265\274vv\321A\012,qD\201\021"
 3358      F7F5B5BC 
 3358      7676D141 
 3358      0A2C7144 
 3358      8111
 3359 0c23 14602A81 		.ascii	"\024`*\201\200\005KEi\233\3475\263\211\302UR\212\216"
ARM GAS  C:\Users\zdy\AppData\Local\Temp\cckmpJrg.s 			page 90


 3359      80054B45 
 3359      699BE735 
 3359      B389C255 
 3359      528A8E
 3360 0c36 C979EECC 		.ascii	"\311y\356\314xs\206p\3349N\244hI\311\315\253\267k\351"
 3360      78738670 
 3360      DC394EA4 
 3360      6849C9CD 
 3360      ABB76BE9 
 3361 0c4a B2D3E7F7 		.ascii	"\262\323\347\367\205\024Q_>}\201\377\331"
 3361      8514515F 
 3361      3E7D81FF 
 3361      D9
 3362              		.section	.rodata.data__STM32F4x7_files_stm32_jpg,"a"
 3363              		.align	2
 3366              	data__STM32F4x7_files_stm32_jpg:
 3367 0000 2F53544D 		.ascii	"/STM32F4x7_files/stm32.jpg\000\000HTTP/1.0 200 OK\015"
 3367      33324634 
 3367      78375F66 
 3367      696C6573 
 3367      2F73746D 
 3368 002c 0A536572 		.ascii	"\012Server: lwIP/1.3.1 (http://savannah.nongnu.org/"
 3368      7665723A 
 3368      206C7749 
 3368      502F312E 
 3368      332E3120 
 3369 005c 70726F6A 		.ascii	"projects/lwip)\015\012Content-type: image/jpeg\015\012"
 3369      65637473 
 3369      2F6C7769 
 3369      70290D0A 
 3369      436F6E74 
 3370 0086 0D0AFFD8 		.ascii	"\015\012\377\330\377\340\000\020JFIF\000\001\001\001"
 3370      FFE00010 
 3370      4A464946 
 3370      00010101 
 3371 0096 00600060 		.ascii	"\000`\000`\000\000\377\333\000C\000\010\006\006\007"
 3371      0000FFDB 
 3371      00430008 
 3371      060607
 3372 00a5 06050807 		.ascii	"\006\005\010\007\007\007\011\011\010\012\014\024\015"
 3372      07070909 
 3372      080A0C14 
 3372      0D
 3373 00b2 0C0B0B0C 		.ascii	"\014\013\013\014\031\022\023\017\024\035\032\037\036"
 3373      1912130F 
 3373      141D1A1F 
 3373      1E
 3374 00bf 1D1A1C1C 		.ascii	"\035\032\034\034 $.' \",#\034\034(7),01444\037'9=82"
 3374      20242E27 
 3374      20222C23 
 3374      1C1C2837 
 3374      292C3031 
 3375 00dc 3C2E3334 		.ascii	"<.342\377\333\000C\001\011\011\011\014\013\014\030\015"
 3375      32FFDB00 
 3375      43010909 
 3375      090C0B0C 
 3375      180D
ARM GAS  C:\Users\zdy\AppData\Local\Temp\cckmpJrg.s 			page 91


 3376 00ee 0D183221 		.ascii	"\015\0302!\034!222222222222222222222222222222222222"
 3376      1C213232 
 3376      32323232 
 3376      32323232 
 3376      32323232 
 3377 0118 32323232 		.ascii	"22222222222222\377\300\000\021\010\001~\003\000\003"
 3377      32323232 
 3377      32323232 
 3377      3232FFC0 
 3377      00110801 
 3378 0130 01220002 		.ascii	"\001\"\000\002\021\001\003\021\001\377\304\000\037\000"
 3378      11010311 
 3378      01FFC400 
 3378      1F00
 3379 013e 00010501 		.ascii	"\000\001\005\001\001\001\001\001\001\000\000\000\000"
 3379      01010101 
 3379      01000000 
 3379      00
 3380 014b 00000000 		.ascii	"\000\000\000\000\001\002\003\004\005\006\007\010\011"
 3380      01020304 
 3380      05060708 
 3380      09
 3381 0158 0A0BFFC4 		.ascii	"\012\013\377\304\000\265\020\000\002\001\003\003\002"
 3381      00B51000 
 3381      02010303 
 3381      02
 3382 0165 04030505 		.ascii	"\004\003\005\005\004\004\000\000\001}\001\002\003\000"
 3382      04040000 
 3382      017D0102 
 3382      0300
 3383 0173 04110512 		.ascii	"\004\021\005\022!1A\006\023Qa\007\"q\0242\201\221\241"
 3383      21314106 
 3383      13516107 
 3383      22711432 
 3383      8191A1
 3384 0186 082342B1 		.ascii	"\010#B\261\301\025R\321\360$3br\202\011\012\026\027"
 3384      C11552D1 
 3384      F0243362 
 3384      7282090A 
 3384      1617
 3385 0198 18191A25 		.ascii	"\030\031\032%&'()*456789:CDEFGHIJSTUVWXYZcdefghijst"
 3385      26272829 
 3385      2A343536 
 3385      3738393A 
 3385      43444546 
 3386 01c2 75767778 		.ascii	"uvwxyz\203\204\205\206\207\210\211\212\222\223\224\225"
 3386      797A8384 
 3386      85868788 
 3386      898A9293 
 3386      9495
 3387 01d4 96979899 		.ascii	"\226\227\230\231\232\242\243\244\245\246\247\250\251"
 3387      9AA2A3A4 
 3387      A5A6A7A8 
 3387      A9
 3388 01e1 AAB2B3B4 		.ascii	"\252\262\263\264\265\266\267\270\271\272\302\303\304"
 3388      B5B6B7B8 
 3388      B9BAC2C3 
ARM GAS  C:\Users\zdy\AppData\Local\Temp\cckmpJrg.s 			page 92


 3388      C4
 3389 01ee C5C6C7C8 		.ascii	"\305\306\307\310\311\312\322\323\324\325\326\327\330"
 3389      C9CAD2D3 
 3389      D4D5D6D7 
 3389      D8
 3390 01fb D9DAE1E2 		.ascii	"\331\332\341\342\343\344\345\346\347\350\351\352\361"
 3390      E3E4E5E6 
 3390      E7E8E9EA 
 3390      F1
 3391 0208 F2F3F4F5 		.ascii	"\362\363\364\365\366\367\370\371\372\377\304\000\037"
 3391      F6F7F8F9 
 3391      FAFFC400 
 3391      1F
 3392 0215 01000301 		.ascii	"\001\000\003\001\001\001\001\001\001\001\001\001\000"
 3392      01010101 
 3392      01010101 
 3392      00
 3393 0222 00000000 		.ascii	"\000\000\000\000\000\001\002\003\004\005\006\007\010"
 3393      00010203 
 3393      04050607 
 3393      08
 3394 022f 090A0BFF 		.ascii	"\011\012\013\377\304\000\265\021\000\002\001\002\004"
 3394      C400B511 
 3394      00020102 
 3394      04
 3395 023c 04030407 		.ascii	"\004\003\004\007\005\004\004\000\001\002w\000\001\002"
 3395      05040400 
 3395      01027700 
 3395      0102
 3396 024a 03110405 		.ascii	"\003\021\004\005!1\006\022AQ\007aq\023\"2\201\010\024"
 3396      21310612 
 3396      41510761 
 3396      71132232 
 3396      810814
 3397 025d 4291A1B1 		.ascii	"B\221\241\261\301\011#3R\360\025br\321\012\026$4\341"
 3397      C1092333 
 3397      52F01562 
 3397      72D10A16 
 3397      2434E1
 3398 0270 25F11718 		.ascii	"%\361\027\030\031\032&'()*56789:CDEFGHIJSTUVWXYZcde"
 3398      191A2627 
 3398      28292A35 
 3398      36373839 
 3398      3A434445 
 3399 0294 66676869 		.ascii	"fghijstuvwxyz\202\203\204\205\206\207\210\211\212\222"
 3399      6A737475 
 3399      76777879 
 3399      7A828384 
 3399      85868788 
 3400 02ab 93949596 		.ascii	"\223\224\225\226\227\230\231\232\242\243\244\245\246"
 3400      9798999A 
 3400      A2A3A4A5 
 3400      A6
 3401 02b8 A7A8A9AA 		.ascii	"\247\250\251\252\262\263\264\265\266\267\270\271\272"
 3401      B2B3B4B5 
 3401      B6B7B8B9 
 3401      BA
ARM GAS  C:\Users\zdy\AppData\Local\Temp\cckmpJrg.s 			page 93


 3402 02c5 C2C3C4C5 		.ascii	"\302\303\304\305\306\307\310\311\312\322\323\324\325"
 3402      C6C7C8C9 
 3402      CAD2D3D4 
 3402      D5
 3403 02d2 D6D7D8D9 		.ascii	"\326\327\330\331\332\342\343\344\345\346\347\350\351"
 3403      DAE2E3E4 
 3403      E5E6E7E8 
 3403      E9
 3404 02df EAF2F3F4 		.ascii	"\352\362\363\364\365\366\367\370\371\372\377\332\000"
 3404      F5F6F7F8 
 3404      F9FAFFDA 
 3404      00
 3405 02ec 0C030100 		.ascii	"\014\003\001\000\002\021\003\021\000?\000\367\332(\242"
 3405      02110311 
 3405      003F00F7 
 3405      DA28A2
 3406 02fb 800A28A2 		.ascii	"\200\012(\242\200\012(\242\200\012(\242\200\012(\242"
 3406      800A28A2 
 3406      800A28A2 
 3406      800A28A2 
 3407 030b 800A28A2 		.ascii	"\200\012(\242\200\012(\242\200\012(\242\200\012(\242"
 3407      800A28A2 
 3407      800A28A2 
 3407      800A28A2 
 3408 031b 800A28A2 		.ascii	"\200\012(\242\200\012(\242\200\012(\242\200\012(\242"
 3408      800A28A2 
 3408      800A28A2 
 3408      800A28A2 
 3409 032b 800A28A2 		.ascii	"\200\012(\242\200\012(\242\200\012\300\361\277\210d"
 3409      800A28A2 
 3409      800AC0F1 
 3409      BF8864
 3410 033a F0A78375 		.ascii	"\360\247\203u-n\030Rimc\005#rB\226,\024g\035\271\255"
 3410      2D6E1852 
 3410      696D6305 
 3410      23724296 
 3410      2C14671D 
 3411 0350 FAF2AF8F 		.ascii	"\372\362\257\217\032\236\271e\340\370\355t\313\021="
 3411      1A9EB965 
 3411      E0F8ED74 
 3411      CB113D
 3412 035f 8DE33457 		.ascii	"\215\3434W\322\371^g\226\274\025\030\355\223\237\233"
 3412      D2F95E67 
 3412      96BC1518 
 3412      ED939F9B 
 3413 036f B102803A 		.ascii	"\261\002\200:\177\207\236<\262\361\356\201\366\330T"
 3413      7F879E3C 
 3413      B2F1EE81 
 3413      F6D854
 3414 037e 417B0909 		.ascii	"A{\011\011wm\234\371m\330\217U=\217\324v\256\272\276"
 3414      776D9CF9 
 3414      6DD88F55 
 3414      3D8FD476 
 3414      AEBABE
 3415 0391 2481BC55 		.ascii	"$\201\274U\340\250\341\275\201\357\264\237\267\306B"
 3415      E0A8E1BD 
 3415      81EFB49F 
ARM GAS  C:\Users\zdy\AppData\Local\Temp\cckmpJrg.s 			page 94


 3415      B7C642
 3416 03a0 32931991 		.ascii	"2\223\031\221G\267_\342\343\353\221^\273\360g\301\372"
 3416      47B75FE2 
 3416      E3EB915E 
 3416      BBF067C1 
 3416      FA
 3417 03b1 EEAFA85A 		.ascii	"\356\257\250Z\370\313W\326\356e\263M\306\336/\2654\215"
 3417      F8CB57D6 
 3417      EE65B34D 
 3417      C6DE2FB5 
 3417      348D
 3418 03c3 2BF2A77F 		.ascii	"+\362\247\177<\001\317\007\257\323\250\007\277QE\024"
 3418      3C01CF07 
 3418      AFD3A807 
 3418      BF514514 
 3419 03d3 00514514 		.ascii	"\000QE\024\000QE\024\000QE\024\000QE\024\000QE\024\000"
 3419      00514514 
 3419      00514514 
 3419      00514514 
 3419      00514514 
 3420 03e8 51451400 		.ascii	"QE\024\000QE\024\000QE\024\000QE\024\000QE\024\000Q"
 3420      51451400 
 3420      51451400 
 3420      51451400 
 3420      51451400 
 3421 03fd 45140051 		.ascii	"E\024\000QE\024\000QE\024\000QE\024\000QE\024\000QE"
 3421      45140051 
 3421      45140051 
 3421      45140051 
 3421      45140051 
 3422 0412 14005145 		.ascii	"\024\000QE\024\000QE\024\000QE\024\000QE\024\000QE\024"
 3422      14005145 
 3422      14005145 
 3422      14005145 
 3422      14005145 
 3423 0427 00514514 		.ascii	"\000QE\024\000QE\024\000QE\024\000QE\024\000QE\024\000"
 3423      00514514 
 3423      00514514 
 3423      00514514 
 3423      00514514 
 3424 043c 51451400 		.ascii	"QE\024\000QE\024\000QE\024\000QE\024\000QE\024\000Q"
 3424      51451400 
 3424      51451400 
 3424      51451400 
 3424      51451400 
 3425 0451 45140051 		.ascii	"E\024\000QE\024\000QE\024\000QE\024\000QE\024\000QE"
 3425      45140051 
 3425      45140051 
 3425      45140051 
 3425      45140051 
 3426 0466 14005145 		.ascii	"\024\000QE\024\000QE\024\000QE\024\001\347\277\025\376"
 3426      14005145 
 3426      14005145 
 3426      1401E7BF 
 3426      15FE
 3427 0478 233F8074 		.ascii	"#?\200t{ag\004sjW\245\226\001/\334\215W\033\230\216"
 3427      7B616704 
ARM GAS  C:\Users\zdy\AppData\Local\Temp\cckmpJrg.s 			page 95


 3427      736A57A5 
 3427      96012FDC 
 3427      8D571B98 
 3428 048d FD460570 		.ascii	"\375F\005pV\360\374r\324t\270\365\3305$\011,bh\355G"
 3428      56F0FC72 
 3428      D474B8F5 
 3428      D8352409 
 3428      2C6268ED 
 3429 04a2 941D948C 		.ascii	"\224\035\224\214\214&\334r;\023\232\357\376*|9\036?"
 3429      8C26DC72 
 3429      3B139AEF 
 3429      FE2A7C39 
 3429      1E3F
 3430 04b4 D2AD85BD 		.ascii	"\322\255\205\275\324v\332\215\221c\003I\367\03462\255"
 3430      D476DA8D 
 3430      91630349 
 3430      F71C3632 
 3430      AD
 3431 04c5 8E4741CD 		.ascii	"\216GA\315y\204\022\374h\360\005\262\300-\246\276\323"
 3431      798412FC 
 3431      68F005B2 
 3431      C02DA6BE 
 3431      D3
 3432 04d6 EDD4051B 		.ascii	"\355\324\005\033\026\351\025G\241_\234\017\312\200:"
 3432      16E91547 
 3432      A15F9C0F 
 3432      CA803A
 3433 04e5 0F05FC56 		.ascii	"\017\005\374V\361'\213\364\015kH\212\336!\342\253[c"
 3433      F1278BF4 
 3433      0D6B488A 
 3433      DE21E2AB 
 3433      5B63
 3434 04f7 2D9C91A2 		.ascii	"-\234\221\242\250\233\014\001\005[\345\0142=\217\266"
 3434      A89B0C01 
 3434      055BE50C 
 3434      323D8FB6 
 3435 0507 2B9ED7FC 		.ascii	"+\236\327\374c\361\243\302\372p\3245\222\226\266\246"
 3435      63F1A3C2 
 3435      FA70D435 
 3435      9296B6A6 
 3436 0517 411890C1 		.ascii	"A\030\220\301n\3371\311\003\013\223\330\327g\360\263"
 3436      6EDF31C9 
 3436      030B93D8 
 3436      D767F0B3 
 3437 0527 E2969FE2 		.ascii	"\342\226\237\342\315Y\364\273\335\032\323N\326J3$\226"
 3437      CD59F4BB 
 3437      DD1AD34E 
 3437      D64A3324 
 3437      96
 3438 0538 E802CC07 		.ascii	"\350\002\314\007,=A\357\214\234\340\324\337\264/\374"
 3438      2C3D41EF 
 3438      8C9CE0D4 
 3438      DFB42FFC 
 3439 0548 9378BFEC 		.ascii	"\223x\277\354!\027\376\202\364\001\305\350\276*\370"
 3439      2117FE82 
 3439      F401C5E8 
 3439      BE2AF8
ARM GAS  C:\Users\zdy\AppData\Local\Temp\cckmpJrg.s 			page 96


 3440 0557 DBE22D2A 		.ascii	"\333\342-*-OJ\011qg)`\222\010m\32788<\034\036\242\244"
 3440      2D4F4A09 
 3440      71672960 
 3440      92086DD7 
 3440      38383C1C 
 3441 056e F88BF13F 		.ascii	"\370\213\361?\307\036\024\327,4\350\257\243\267\224"
 3441      C71E14D7 
 3441      2C34E8AF 
 3441      A3B794
 3442 057d E9B6F2DC 		.ascii	"\351\266\362\334\241\267\215\2613)\337\316\017q\333"
 3442      A1B78DB1 
 3442      3329DFCE 
 3442      0F71DB
 3443 058c 8AF42F81 		.ascii	"\212\364/\201\277\362J4\317\372\3517\376\214j\362\317"
 3443      BFF24A34 
 3443      CFFAE937 
 3443      FE8C6AF2 
 3443      CF
 3444 059d 8C50C773 		.ascii	"\214P\307s\361\303L\202e\017\024\251h\216\247\272\227"
 3444      F1C34C82 
 3444      650F14A9 
 3444      688EA7BA 
 3444      97
 3445 05ae 208FCA80 		.ascii	" \217\312\200=o\341\037\215.|k\340\357\264\352\022\244"
 3445      3D6FE11F 
 3445      8D2E7C6B 
 3445      E0EFB4EA 
 3445      12A4
 3446 05c0 9A95B4CD 		.ascii	"\232\225\264\315\015\301U\013\273\272\266\007\003\203"
 3446      0DC1550B 
 3446      BBBAB607 
 3446      0383
 3447 05ce 8FC0D70B 		.ascii	"\217\300\327\013\361{\342\306\273\341\257\027\246\217"
 3447      F17BE2C6 
 3447      BBE1AF17 
 3447      A68F
 3448 05dc E1EBC8E0 		.ascii	"\341\353\310\340X V\271-\012I\231\033\220>`q\205\307"
 3448      582056B9 
 3448      2D0A4999 
 3448      1B903E60 
 3448      7185C7
 3449 05ef E758DF0D 		.ascii	"\347X\337\015o\307\303\237\213\032\347\206\365\011|"
 3449      6FC7C39F 
 3449      8B1AE786 
 3449      F5097C
 3450 05fe BB29048B 		.ascii	"\273)\004\213\271\216\007\356\301x\333\361L\376b\271"
 3450      B98E07EE 
 3450      C178DBF1 
 3450      4CFE62B9 
 3451 060e 11692F8B 		.ascii	"\021i/\213\254<s\343[\304%b\333\345n\354\362J\270\003"
 3451      AC3C73E3 
 3451      5BC42562 
 3451      DBE56EEC 
 3451      F24AB803 
 3452 0622 FDD418FC 		.ascii	"\375\324\030\374E\000{W\201>#^M\360\247P\361_\211g\373"
 3452      45007B57 
 3452      813E235E 
ARM GAS  C:\Users\zdy\AppData\Local\Temp\cckmpJrg.s 			page 97


 3452      4DF0A750 
 3452      F15F8967 
 3453 0637 4C9693C8 		.ascii	"L\226\223\310\237\273\215P\270\001B\240\000\001\222"
 3453      9FBB8D50 
 3453      B80142A0 
 3453      000192
 3454 0646 CD8CFBD6 		.ascii	"\315\214\373\326\305\255\267\304\215N\3215\007\3264"
 3454      C5ADB7C4 
 3454      8D4ED135 
 3454      07D634
 3455 0655 8D2E4957 		.ascii	"\215.IWzi\337a3\004\007\220\257!`s\353\201\\\337\300"
 3455      7A69DF61 
 3455      33040790 
 3455      AF216073 
 3455      EB815CDF 
 3456 066a 9D3ACF55 		.ascii	"\235:\317U\370W5\245\375\254WV\355\250;\030\245@\312"
 3456      F85735A5 
 3456      FDAC5756 
 3456      EDA83B18 
 3456      A540CA
 3457 067d 480841C1 		.ascii	"H\010A\301\364 W{\342i\374_\016\321\341\233\015*\341"
 3457      F420577B 
 3457      E269FC5F 
 3457      0ED1E19B 
 3457      0D2AE1
 3458 0690 7CB3B9AF 		.ascii	"|\263\271\257gt`\375\200\000`\214z\221@\031:G\304\023"
 3458      677460FD 
 3458      8000608C 
 3458      7A914019 
 3458      3A47C413 
 3459 06a4 FF0008CE 		.ascii	"\377\000\010\316\273{\342\013E\264\277\320$h\257\242"
 3459      BB7BE20B 
 3459      45B4BFD0 
 3459      2468AFA2 
 3460 06b4 81B723B0 		.ascii	"\201\267#\260\031S\031=\233\266j\013\005\370\215\256"
 3460      1953193D 
 3460      9BB66A0B 
 3460      05F88DAE 
 3461 06c4 E9F16ABF 		.ascii	"\351\361j\277\332\272N\216.\020K\016\236l\214\345P\214"
 3461      DABA4E8E 
 3461      2E104B0E 
 3461      9E6C8CE5 
 3461      508C
 3462 06d6 A891CB03 		.ascii	"\250\221\313\003\234u\300\342\251x\017O\3225\275\037"
 3462      9C75C0E2 
 3462      A9780F4F 
 3462      D235BD1F 
 3463 06e6 5FD1B5AB 		.ascii	"_\321\265\253k\211\265\211\256\304\272\345\275\340\012"
 3463      6B89B589 
 3463      AEC4BAE5 
 3463      BDE00A
 3464 06f5 5A4382A5 		.ascii	"ZC\202\245v\034y\177/\313\203\332\272\237\021\370\307"
 3464      761C797F 
 3464      2FCB83DA 
 3464      BA9F11F8 
 3464      C7
 3465 0706 48F0A470 		.ascii	"H\360\244p\332\310^\347P\224m\265\323mW|\363\036\300"
ARM GAS  C:\Users\zdy\AppData\Local\Temp\cckmpJrg.s 			page 98


 3465      DAC85EE7 
 3465      50946DB5 
 3465      D36D577C 
 3465      F31EC0
 3466 0719 28E83DCF 		.ascii	"(\350=\317\024\001\312G\247X|T\265\274\320\374c\247"
 3466      1401CA47 
 3466      A7587C54 
 3466      B5BCD0FC 
 3466      63A7
 3467 072b FD9B5BD0 		.ascii	"\375\233[\320\256\002Ll\345!N\365\310t'?+\001\320\372"
 3467      AE024C6C 
 3467      E5214EF5 
 3467      C874273F 
 3467      2B01D0FA 
 3468 073f 0AEF3C3F 		.ascii	"\012\357<?\341\375;\303\032,\032N\225\011\212\322\034"
 3468      E1FD3BC3 
 3468      1A2C1A4E 
 3468      95098AD2 
 3468      1C
 3469 0750 ED05B249 		.ascii	"\355\005\262I'$\223\334\223X>\004\320u;'\325u\375u#"
 3469      272493DC 
 3469      93583E04 
 3469      D0753B27 
 3469      D575FD75 
 3470 0765 8B58D6A6 		.ascii	"\213X\326\246Y\245\267\215\267-\274j1\034y\356@\352"
 3470      59A5B78D 
 3470      B72DBC6A 
 3470      311C79EE 
 3470      40EA
 3471 0777 6BB1A00E 		.ascii	"k\261\240\016/\342v\271\252\350>\034\263\233G\273[["
 3471      2FE276B9 
 3471      AAE83E1C 
 3471      B39B47BB 
 3471      5B5B
 3472 0789 AB8D460B 		.ascii	"\253\215F\013S+D\262mW$\036\033\217Ji\360\327\216\377"
 3472      532B44B2 
 3472      6D57241E 
 3472      1B8F4A69 
 3472      F0D78EFF 
 3473 079d 00E8A12F 		.ascii	"\000\350\241/\376\011\241\377\000\032\316\370\322\362"
 3473      FE09A1FF 
 3473      001ACEF8 
 3473      D2F2
 3474 07ab 47E11D35 		.ascii	"G\341\0355\341\213\315\225u\213R\221\356\333\274\344"
 3474      E18BCD95 
 3474      758B5291 
 3474      EEDBBCE4 
 3475 07bb E067B67D 		.ascii	"\340g\266}j\361\361?\217?\350\235\217\374\034\303\376"
 3475      6AF1F13F 
 3475      8F3FE89D 
 3475      8FFC1CC3 
 3475      FE
 3476 07cc 14015AC7 		.ascii	"\024\001Z\307"
 3477 07d0 C41E26F0 		.ascii	"\304\036&\360\347\2154\337\016\370\236\342\327R\266"
 3477      E78D34DF 
 3477      0EF89EE2 
 3477      D752B6
ARM GAS  C:\Users\zdy\AppData\Local\Temp\cckmpJrg.s 			page 99


 3478 07df D555FEC7 		.ascii	"\325U\376\307\250\333\303\344\260\221\006J:\016:w\036"
 3478      A8DBC3E4 
 3478      B091064A 
 3478      3A0E3A77 
 3478      1E
 3479 07f0 BF977B3D 		.ascii	"\277\227{=\314\026\261\371\227\023\307\014\177\336\221"
 3479      CC16B1F9 
 3479      9713C70C 
 3479      7FDE91
 3480 07ff C28FCCD7 		.ascii	"\302\217\314\327\226\350\227w\236'\370\245n\336,\207"
 3480      96E89777 
 3480      9E27F8A5 
 3480      6EDE2C87 
 3481 080f FB2751D2 		.ascii	"\373'Q\322 yt\355$|\341\303\2144\336oG\364\300\351\217"
 3481      207974ED 
 3481      247CE1C3 
 3481      8C34DE6F 
 3481      47F4C0E9 
 3482 0824 63585A47 		.ascii	"cXZG\210|\021\342=_R\327<s\252\332Mq\366\231!\261\323"
 3482      887C11E2 
 3482      3D5F52D7 
 3482      3C73AADA 
 3482      4D71F699 
 3483 083b AEB73456 		.ascii	"\256\2674V\260)\300;1\202\315\214\222h\003\334b\226"
 3483      B029C03B 
 3483      3182CD8C 
 3483      926803DC 
 3483      6296
 3484 084d 29E35921 		.ascii	")\343Y!\221$\215\27220 \376\"\271?\207\332\356\241\257"
 3484      91248DBA 
 3484      323020FE 
 3484      22B93F87 
 3484      DAEEA1AF 
 3485 0861 596B526A 		.ascii	"YkRj3,\257k\253\334Z\304B\005\333\032\021\264q\327\353"
 3485      332CAF6B 
 3485      ABDC5AC4 
 3485      4205DB1A 
 3485      11B471D7 
 3486 0876 5C3E9BAF 		.ascii	"\\>\233\257xWD\370\207\243'\202\265H_O\325\244kk\375"
 3486      785744F8 
 3486      87A32782 
 3486      B5485F4F 
 3486      D5A46B6B 
 3487 088b 3602DE5A 		.ascii	"6\002\336Z>3\034\252\247\2059\340\342\250E\342+\217"
 3487      3E331CAA 
 3487      A78539E0 
 3487      E2A845E2 
 3487      2B8F
 3488 089d 0E7C3AF1 		.ascii	"\016|:\361<\226\227Kisy\342\213\2134\271?\362\300;\015"
 3488      3C96974B 
 3488      697379E2 
 3488      8B8B34B9 
 3488      3FF2C03B 
 3489 08b2 CFF82834 		.ascii	"\317\370(4\001\355\315}f\227\"\331\256\340Y\317H\214"
 3489      01EDCD7D 
 3489      669722D9 
 3489      AEE059CF 
ARM GAS  C:\Users\zdy\AppData\Local\Temp\cckmpJrg.s 			page 100


 3489      488C
 3490 08c4 8031FC33 		.ascii	"\2001\3743\232\261^5\002\374\023\217K\373\034\367\332"
 3490      9AB15E35 
 3490      02FC138F 
 3490      4BFB1CF7 
 3490      DA
 3491 08d5 75CCACBF 		.ascii	"u\314\254\277\274\274\230\271\270v\356\376f2\016y\340"
 3491      BCBC98B9 
 3491      B876EEFE 
 3491      66320E79 
 3491      E0
 3492 08e6 D4BE1CD4 		.ascii	"\324\276\034\324u\017\022\374?\327\264;\037\023\"\246"
 3492      750F12FC 
 3492      3FD7B43B 
 3492      1F1322A6 
 3493 08f6 9D79F668 		.ascii	"\235y\366h\365\231\234\202\326g\014\016\357\357m\312"
 3493      F5999C82 
 3493      D6670C0E 
 3493      EFEF6DCA 
 3494 0906 E6803D5F 		.ascii	"\346\200=_\373F\307\355?g\373e\277\237\234y^j\356\374"
 3494      FB46C7ED 
 3494      3F67FB65 
 3494      BF9F9C79 
 3494      5E6AEEFC 
 3495 091a B39AB35E 		.ascii	"\263\232\263^?u\007\301\265\323$\323\355\241\262\273"
 3495      3F7507C1 
 3495      B5D324D3 
 3495      EDA1B2BB 
 3496 092a 9846555E 		.ascii	"\230FU^\312\027\236\340\2668\"D\004\226\3179\315QK\315"
 3496      CA179EE0 
 3496      B6382244 
 3496      0496CF39 
 3496      CD514BCD 
 3497 093e 7B5DF813 		.ascii	"{]\370\023\240\\b\372\3665\272U\324\322\331\217\332"
 3497      A05C62FA 
 3497      F635BA55 
 3497      D4D2D98F 
 3497      DA
 3498 094f 26B44919 		.ascii	"&\264I\031X\0029'\001s\336\200=\232+\3739\346ha\273"
 3498      58023927 
 3498      0173DE80 
 3498      3D9A2BFB 
 3498      39E66861 
 3499 0964 824957AA 		.ascii	"\202IW\252$\252X~\000\326u\332kg\305Zk\332\334\333\256"
 3499      24AA587E 
 3499      00D675DA 
 3499      6B67C55A 
 3499      6BDADCDB 
 3500 0979 8C2197ED 		.ascii	"\214!\227\355\220\266<\307||\205x\350;\362+\315d\263"
 3500      90B63CC7 
 3500      7C7C8578 
 3500      E83BF22B 
 3500      CD64B3
 3501 098c F859E22D 		.ascii	"\370Y\342-;\354\236\036\273\323\264Mmq\366I\266\265"
 3501      3BEC9E1E 
 3501      BBD3B44D 
 3501      6D71F649 
ARM GAS  C:\Users\zdy\AppData\Local\Temp\cckmpJrg.s 			page 101


 3501      B6B5
 3502 099e B4F0CA3A 		.ascii	"\264\360\312:g8-\3569\315n\337\245\324_\027<\023\025"
 3502      67382DEE 
 3502      39CD6EDF 
 3502      A5D45F17 
 3502      3C1315
 3503 09b1 E4CB2DCA 		.ascii	"\344\313-\312\351\227Bi\020mWp\243,\007l\236h\003\320"
 3503      E9974269 
 3503      106D5770 
 3503      A32C076C 
 3503      9E6803D0 
 3504 09c5 A5B88218 		.ascii	"\245\270\202\030\232Yf\2168\327\202\354\340\001\370"
 3504      9A59668E 
 3504      38D782EC 
 3504      E001F8
 3505 09d4 D105C437 		.ascii	"\321\005\30471\011`\2329c=\0326\014?1^C\360\333\301"
 3505      3109609A 
 3505      39633D1A 
 3505      360C3F31 
 3505      5E43F0DB 
 3506 09e9 F61E2087 		.ascii	"\366\036 \207Z\276\327S\373B\336-b\352;[9\316\350c;"
 3506      5ABED753 
 3506      FB42DE2D 
 3506      62EA3B5B 
 3506      39CEE863 
 3507 09fe BE672BD0 		.ascii	"\276g+\320\261\310\0319\300\034V\230\322l\274\031\361"
 3507      B1C81939 
 3507      C01C5698 
 3507      D26CBC19 
 3507      F1
 3508 0a0f 77458743 		.ascii	"wE\207C\210YXk\026\227\002\356\322#\210\213D\241\203"
 3508      8859586B 
 3508      169702EE 
 3508      D223888B 
 3508      44A183
 3509 0a22 85E80F6E 		.ascii	"\205\350\017n?\255\000zU\305\325\275\244~e\314\361B"
 3509      3FAD007A 
 3509      55C5D5BD 
 3509      A47E65CC 
 3509      F142
 3510 0a34 9D3748E1 		.ascii	"\2357H\341G\346i\313,n\210\351\"2\277\335!\201\015\364"
 3510      47E669CB 
 3510      2C6E88E9 
 3510      2232BFDD 
 3510      21810DF4 
 3511 0a48 F5AF30F0 		.ascii	"\365\2570\360N\203c\343\353I\374a\342{d\324\245\274"
 3511      4E8363E3 
 3511      EB49FC61 
 3511      E27B64D4 
 3511      A5BC
 3512 0a5a B8952CED 		.ascii	"\270\225,\355\356>h\255`W*\025P\361\223\202I\252\036"
 3512      EE3E68AD 
 3512      60572A15 
 3512      50F19382 
 3512      49AA1E
 3513 0a6d 23F0BC1E 		.ascii	"#\360\274\036\031\370\213\340\263\2443[\3517Z\2133X"
 3513      19F88BE0 
ARM GAS  C:\Users\zdy\AppData\Local\Temp\cckmpJrg.s 			page 102


 3513      B3A4335B 
 3513      E9375A8B 
 3513      3358
 3514 0a7f AB1F2E29 		.ascii	"\253\037.)\202\375\344\037\302\030\036@\343\201@\036"
 3514      82FDE41F 
 3514      C2181E40 
 3514      E381401E 
 3515 0a8f C0485049 		.ascii	"\300HPI \001\324\232PA\031\007 \367\025\005\345\244"
 3515      2001D49A 
 3515      50411907 
 3515      20F71505 
 3515      E5A4
 3516 0aa1 37F633D9 		.ascii	"7\3663\331\334\246\370'\215\243\221}T\214\032\342\376"
 3516      DCA6F827 
 3516      8DA3917D 
 3516      548C1AE2 
 3516      FE
 3517 0ab2 185DCF6D 		.ascii	"\030]\317m\246j\036\024\277\220\265\366\201rm\2677W"
 3517      A66A1E14 
 3517      BF90B5F6 
 3517      81726DB7 
 3517      3757
 3518 0ac4 80FCD13F 		.ascii	"\200\374\321?\342\274~\024\001\335n]\333r7u\306y\250"
 3518      E2BC7E14 
 3518      01DD6E5D 
 3518      DB723775 
 3518      C679A8
 3519 0ad7 24BFB38A 		.ascii	"$\277\263\212\340A%\335\272LzF\322\250c\370g5\343:\246"
 3519      E04125DD 
 3519      BA4C7A46 
 3519      D2A863F8 
 3519      6735E33A 
 3520 0aec B77F3C9A 		.ascii	"\267\177<\232\367\212\364\331|\273\235N\376/\016\350"
 3520      F78AF4D9 
 3520      7CBB9D4E 
 3520      FE2F0EE8 
 3521 0afc D31E4451 		.ascii	"\323\036DQ\206\303\310\277V\015\203\352+\272\264\370"
 3521      86C3C8BF 
 3521      560D83EA 
 3521      2BBAB4F8 
 3522 0b0c 55E0F834 		.ascii	"U\340\3704\337\262\335h\360\337L\313\373\353\313\254"
 3522      DFB2DD68 
 3522      F0DF4CCB 
 3522      FBEBCBAC 
 3523 0b1c BCF2B1EA 		.ascii	"\274\362\261\352\305\311\310'\330\214P\007fHPK\020\000"
 3523      C5C9C827 
 3523      D88C5007 
 3523      6648504B 
 3523      1000
 3524 0b2e EA4D2F51 		.ascii	"\352M/Q\221^'\252\334^h\376\025\370\201\340\333\233"
 3524      915E27AA 
 3524      DC5E68FE 
 3524      15F881E0 
 3524      DB9B
 3525 0b40 A9AEA0D3 		.ascii	"\251\256\240\323-\022\342\302i\237t\202\0119\010O}\247"
 3525      2D12E2C2 
 3525      699F7482 
ARM GAS  C:\Users\zdy\AppData\Local\Temp\cckmpJrg.s 			page 103


 3525      0939084F 
 3525      7DA7
 3526 0b52 806BD6F4 		.ascii	"\200k\326\364\017\371\026\364\277\372\363\207\377\000"
 3526      0FF916F4 
 3526      BFFAF387 
 3526      FF00
 3527 0b60 4014017F 		.ascii	"@\024\001\177z|\3372\374\275y\351CH\211\267s\250\334"
 3527      7A7CDF32 
 3527      FCBD79E9 
 3527      434889B7 
 3527      73A8DC
 3528 0b73 70B938CF 		.ascii	"p\2718\317\322\274kRc\366o\214\\\236\026<s\323\3675"
 3528      D2BC6B52 
 3528      63F66F8C 
 3528      5C9E163C 
 3528      73D3F735 
 3529 0b87 D1F833C0 		.ascii	"\321\3703\300\326wz~\221\342M|\311\250k-\014S\302\317"
 3529      D6777A7E 
 3529      91E24D7C 
 3529      C9A86B2D 
 3529      0C53C2CF 
 3530 0b9b 23797683 		.ascii	"#yv\203h(\221\2408\030\030\344\347'&\200=\022\240\270"
 3530      682891A0 
 3530      381818E4 
 3530      E7272680 
 3530      3D12A0B8 
 3531 0baf BCB5B400 		.ascii	"\274\265\264\000\334\334\303\006\356\236l\201s\371\326"
 3531      DCDCC306 
 3531      EE9E6C81 
 3531      73F9D6
 3532 0bbe 5F8C35C6 		.ascii	"_\2145\306\360\327\2045]e\020<\226\266\354\361\251\350"
 3532      F0D78435 
 3532      5D65103C 
 3532      96B6ECF1 
 3532      A9E8
 3533 0bd0 5FA2E7DB 		.ascii	"_\242\347\333$W\205|8\370z\277\024`\324<M\342\315N\372"
 3533      2457857C 
 3533      38F87ABF 
 3533      1460D43C 
 3533      4DE2CD4E 
 3534 0be5 72D39863 		.ascii	"r\323\230c\021\310\001,\000$\344\203\2002\000\002\200"
 3534      11C8012C 
 3534      0024E483 
 3534      80320002 
 3534      80
 3535 0bf6 3E8E4749 		.ascii	">\216GI\020<n\256\215\310e9\006\221e\215\311\013\"1"
 3535      103C6EAE 
 3535      8DC86539 
 3535      0691658D 
 3535      C90B2231 
 3536 0c0a 1D70C0E2 		.ascii	"\035p\300\342\274\233\300?\017\274[\340O\031\314\226"
 3536      BC9BC03F 
 3536      0FBC5BE0 
 3536      4F19CC96 
 3537 0c1a FA84573E 		.ascii	"\372\204W>\026\224\262\230\344\230\357\3062\254\023"
 3537      1694B298 
 3537      E498EFC6 
ARM GAS  C:\Users\zdy\AppData\Local\Temp\cckmpJrg.s 			page 104


 3537      32AC13
 3538 0c29 180C0E01 		.ascii	"\030\014\016\001\307Q\232\362?\007hZ\267\212\374y\254"
 3538      C7519AF2 
 3538      3F07685A 
 3538      B78AFC79 
 3538      AC
 3539 0c3a E83A7EA5 		.ascii	"\350:~\245%\205\265\313J\327\263.I\362VO\273\214\214"
 3539      2585B5CB 
 3539      4AD7B32E 
 3539      49F2564F 
 3539      BB8C8C
 3540 0c4d E495E334 		.ascii	"\344\225\3434\001\365\244\027\020\\\241{y\243\225A\332"
 3540      01F5A417 
 3540      105CA17B 
 3540      79A39541 
 3540      DA
 3541 0c5e 4C6C1803 		.ascii	"Ll\030\003\351\305F/\354\332\343\354\342\356\334\317"
 3541      E9C5462F 
 3541      ECDAE3EC 
 3541      E2EEDCCF 
 3542 0c6e FF003C84 		.ascii	"\377\000<\204\253\273\362\316k\347\237\210\013?\302"
 3542      ABBBF2CE 
 3542      6BE79F88 
 3542      0B3FC2
 3543 0c7d 5F095B78 		.ascii	"_\011[x?B\324\356\017\366\244\322]\\]\020\021\3250\253"
 3543      3F42D4EE 
 3543      0FF6A4D2 
 3543      5D5C5D10 
 3543      11D530AB 
 3544 0c91 B011D012 		.ascii	"\260\021\320\0229=x\305s7\372_\303\030|0\362i\376(\324"
 3544      393D78C5 
 3544      7337FA5F 
 3544      C3187C30 
 3544      F269FE28 
 3545 0ca6 5FC451C7 		.ascii	"_\304Q\307\346,\215\003\210\344\224s\267\0338\004\360"
 3545      E62C8D03 
 3545      88E49473 
 3545      B71B3804 
 3545      F0
 3546 0cb7 0E78EB40 		.ascii	"\016x\353@\037ZUYu+\013y|\251\257m\243\223\373\217*"
 3546      1F5A5559 
 3546      752B0B79 
 3546      7CA9AF6D 
 3546      A393FB8F 
 3547 0ccc 83F9135E 		.ascii	"\203\371\023^1\340o\023\353\3763\370E\252X\215n\033"
 3547      31E06F13 
 3547      EBFE33F8 
 3547      45AA588D 
 3547      6E1B
 3548 0cde 0D4AC1D6 		.ascii	"\015J\301\326\027\324\356\234\215\260\021\234\226\354"
 3548      17D4EE9C 
 3548      8DB0119C 
 3548      96EC
 3549 0cec D80573FD 		.ascii	"\330\005s\375k\220\217@\370[\246\370~\341u\317\023I"
 3549      6B908F40 
 3549      F85BA6F8 
 3549      7EE175CF 
ARM GAS  C:\Users\zdy\AppData\Local\Temp\cckmpJrg.s 			page 105


 3549      1349
 3550 0cfe AAEBAFBC 		.ascii	"\252\353\257\274\211l\014\214\273\277\204/\313\203\333"
 3550      896C0C8C 
 3550      BBBF842F 
 3550      CB83DB
 3551 0d0d 249A00FA 		.ascii	"$\232\000\372x\310\201\003\227P\207\243g\212\362\357"
 3551      78C88103 
 3551      975087A3 
 3551      678AF2EF 
 3552 0d1d 87BF15AF 		.ascii	"\207\277\025\257|a\342\375KF\275\261\263\265\202\322"
 3552      7C61E2FD 
 3552      4B46BDB1 
 3552      B3B582D2 
 3553 0d2d 27759637 		.ascii	"'u\22679b\256\024\016N:\032\340>\013i\343\306\272\016"
 3553      3962AE14 
 3553      0E4E3A1A 
 3553      E03E0B69 
 3553      E3C6BA0E 
 3554 0d41 BFE16D62 		.ascii	"\277\341mb\352\351\364\2640O\032G.\014m\271\276\351"
 3554      EAE9F4B4 
 3554      304F1A47 
 3554      2E0C6DB9 
 3554      BEE9
 3555 0d53 39C03819 		.ascii	"9\3008\031\036\325\317\3740\360>\223\342\317\034\352"
 3555      1ED5CFFC 
 3555      30F03E93 
 3555      E2CF1CEA 
 3556 0d63 DA46A4D7 		.ascii	"\332F\244\327B\332\326)\0363\014\201[+\"\250\311\301"
 3556      42DAD629 
 3556      1E330C81 
 3556      5B2B22A8 
 3556      C9C1
 3557 0d75 EC6803DC 		.ascii	"\354h\003\334\257[\342\027\374,\250\305\254\366c\302"
 3557      AF5BE217 
 3557      FC2CA8C5 
 3557      ACF663C2 
 3558 0d85 9E6C7B90 		.ascii	"\236l{\220\230\274\315\233\006\356\2777\336\315w\251"
 3558      98BCCD9B 
 3558      06EEBF37 
 3558      DECD77A9 
 3559 0d95 2C721C24 		.ascii	",r\034$\210\304vV\006\276t\326\001\213\366\242\263\205"
 3559      88C47656 
 3559      06BE74D6 
 3559      018BF6A2 
 3559      B385
 3560 0da7 59B62DCD 		.ascii	"Y\266-\315\262\200Oa\012\323t\320~\034\376\321-fI\217"
 3560      B2804F61 
 3560      0AD374D0 
 3560      7E1CFED1 
 3560      2D66498F 
 3561 0dbb 4ED42528 		.ascii	"N\324%(\200\236<\271\271_\311\360?\012\000\3725\345"
 3561      809E3CB9 
 3561      B95FC9F0 
 3561      3F0A00FA 
 3561      35E5
 3562 0dcd 8E3C6F91 		.ascii	"\216<o\221\027=70\025\301\3337\304/\370Yo\366\213\213"
 3562      173D3730 
ARM GAS  C:\Users\zdy\AppData\Local\Temp\cckmpJrg.s 			page 106


 3562      15C1DB37 
 3562      C42FF859 
 3562      6FF68B8B 
 3563 0de1 3FF844FC 		.ascii	"?\370D\374\327\302\003\027\231\263a\333\376\327\336"
 3563      D7C20317 
 3563      99B361DB 
 3563      FED7DE
 3564 0df0 C579B789 		.ascii	"\305y\267\211\003|B\375\241\255\264\205,\372~\230\313"
 3564      037C42FD 
 3564      A1ADB485 
 3564      2CFA7E98 
 3564      CB
 3565 0e01 1CA01E36 		.ascii	"\034\240\0366\307\363\311\371\261\333\371U{8\205\337"
 3565      C7F3C9F9 
 3565      B1DBF955 
 3565      7B3885DF 
 3566 0e11 ED3D7B69 		.ascii	"\355={i#?\225,\327\021\260V\307\006\006\007\037\235"
 3566      233F952C 
 3566      D711B056 
 3566      C7060607 
 3566      1F9D
 3567 0e23 0077DAB7 		.ascii	"\000w\332\267\305[\335?\342\325\267\204#\262\263{)e"
 3567      C55BDD3F 
 3567      E2D5B784 
 3567      23B2B37B 
 3567      2965
 3568 0e35 850DC973 		.ascii	"\205\015\311s\270\007PI\353\2163^\235\366\210r\007\235"
 3568      B8075049 
 3568      EB8E335E 
 3568      9DF68872 
 3568      079D
 3569 0e47 1E4F4F9C 		.ascii	"\036OO\234s_)k^\005\322,>6\332xN\026\272:l\263@\214"
 3569      735F296B 
 3569      5E05D22C 
 3569      3E36DA78 
 3569      4E16BA3A 
 3570 0e5f 5A4064C3 		.ascii	"Z@d\303\250'\346\307\277\245u\037\031~\037[x[\303:&"
 3570      A827E6C7 
 3570      BFA5751F 
 3570      197E1F5B 
 3570      785BC33A 
 3571 0e74 A3A21B81 		.ascii	"\243\242\033\201\026\236\346\332Gw\334\370f.\214O\035"
 3571      169EE6DA 
 3571      4777DCF8 
 3571      662E8C4F 
 3571      1D
 3572 0e85 18B0FC45 		.ascii	"\030\260\374E\000}\020X*\226b\000\035I4\211\"H\011G"
 3572      007D1058 
 3572      2A966200 
 3572      1D493489 
 3572      22480947 
 3573 0e99 5603FBA7 		.ascii	"V\003\373\2475\341\337\022\376 .\243\360OI\232\0111"
 3573      35E1DF12 
 3573      FE202EA3 
 3573      F04F499A 
 3573      0931
 3574 0eab 75AE058E 		.ascii	"u\256\005\216P\247\221\345\377\000\255\377\000\307\200"
ARM GAS  C:\Users\zdy\AppData\Local\Temp\cckmpJrg.s 			page 107


 3574      50A791E5 
 3574      FF00ADFF 
 3574      00C780
 3575 0eba 1F8D77DF 		.ascii	"\037\215w\337\012|4|1\360\377\000O\267\225J\335\334"
 3575      0A7C347C 
 3575      31F0FF00 
 3575      4FB7954A 
 3575      DDDC
 3576 0ecc AFDAAE33 		.ascii	"\257\332\2563\327s\214\201\370.\321\370P\007kE\024P"
 3576      D7738C81 
 3576      F82ED1F8 
 3576      50076B45 
 3576      1450
 3577 0ede 01451450 		.ascii	"\001E\024P\001E\024P\001E\024P\001E\024P\001E\024P\001"
 3577      01451450 
 3577      01451450 
 3577      01451450 
 3577      01451450 
 3578 0ef3 45145001 		.ascii	"E\024P\001E\024P\001E\024P\001E\024P\001E\024P\001E"
 3578      45145001 
 3578      45145001 
 3578      45145001 
 3578      45145001 
 3579 0f08 14500145 		.ascii	"\024P\001E\024P\001E\024P\001E\024P\001E\024P\001E\024"
 3579      14500145 
 3579      14500145 
 3579      14500145 
 3579      14500145 
 3580 0f1d 50014514 		.ascii	"P\001E\024P\001E\024P\001E\024P\007\220|l\360\006\263"
 3580      50014514 
 3580      50014514 
 3580      5007907C 
 3580      6CF006B3 
 3581 0f31 E24167AD 		.ascii	"\342Ag\255\350\036d\327V\261\230\246\266G\303:g!\227"
 3581      E81E64D7 
 3581      56B198A6 
 3581      B647C33A 
 3581      672197
 3582 0f44 D4824F1D 		.ascii	"\324\202O\035y\366\254+?\215\376.\260\262K\035C\301"
 3582      79F6AC2B 
 3582      3F8DFE2E 
 3582      B0B24B1D 
 3582      43C1
 3583 0f56 57136A31 		.ascii	"W\023j1\250C&\331#\336G\031)\264\363\3645\357\224P\007"
 3583      A84326D9 
 3583      23DE4719 
 3583      29B4F3F4 
 3583      35EF9450 
 3584 0f6b 827C28F0 		.ascii	"\202|(\3607\210n\374wq\343}~\304\351\312\315,\261@\311"
 3584      37886EFC 
 3584      7771E37D 
 3584      7EC4E9CA 
 3584      CD2CB140 
 3585 0f80 B19E4933 		.ascii	"\261\236I3\234'UP\030\365\366\256\267\343\276\235{\251"
 3585      9C275550 
 3585      18F5F6AE 
 3585      B7E3BE9D 
ARM GAS  C:\Users\zdy\AppData\Local\Temp\cckmpJrg.s 			page 108


 3585      7BA9
 3586 0f92 FC3E8ADE 		.ascii	"\374>\212\336\302\316\342\352o\267F\336\\\021"
 3586      C2CEE2EA 
 3586      6FB746DE 
 3586      5C11
 3587 0fa0 976C6D6E 		.ascii	"\227lmnp;W\247Q@\034\017\301\233+\275?\341\216\235m"
 3587      703B57A7 
 3587      51401C0F 
 3587      C19B2BBD 
 3587      3FE18E9D 
 3588 0fb5 7B6D35B4 		.ascii	"{m5\264\353$\333\242\231\0120\314\214FA\346\274\343"
 3588      EB24DBA2 
 3588      990A30CC 
 3588      8C4641E6 
 3588      BCE3
 3589 0fc7 E29685AB 		.ascii	"\342\226\205\253\336\374k\322\257-t\273\331\355S\354"
 3589      DEFC6BD2 
 3589      AF2D74BB 
 3589      D9ED53EC 
 3590 0fd7 9BA68A06 		.ascii	"\233\246\212\006d\030\223',\0068\257\241h\240\017\237"
 3590      64189327 
 3590      2C0638AF 
 3590      A168A00F 
 3590      9F
 3591 0fe8 FE3F782A 		.ascii	"\376?x*\376\363[\323\365\355\"\302\346\351\347\210\301"
 3591      FEF35BD3 
 3591      F5ED22C2 
 3591      E6E9E788 
 3591      C1
 3592 0ff9 72B6D133 		.ascii	"r\266\3213\220\313\367X\200;\202G\374\006\265\033\301"
 3592      90CBF758 
 3592      803B8247 
 3592      FC06B51B 
 3592      C1
 3593 100a B77A27EC 		.ascii	"\267z'\354\341s\246\305e4\232\235\342%\314\320$e\244"
 3593      E173A6C5 
 3593      65349A9D 
 3593      E225CCD0 
 3593      2465A4
 3594 101d DED221DB 		.ascii	"\336\322!\333\264s\220\240\017\300\327\266Q@\036\023"
 3594      B47390A0 
 3594      0FC0D7B6 
 3594      51401E13 
 3595 102d E08F0AF8 		.ascii	"\340\217\012\370\206\177\202\263\331\332Esa\254[\352"
 3595      867F82B3 
 3595      D9DA4573 
 3595      61AC5BEA 
 3596 103d 9F6CB78A 		.ascii	"\237l\267\212p\320\231vm;Nq\303\014\217L\327y\017\305"
 3596      70D09976 
 3596      6D3B4E71 
 3596      C30C8F4C 
 3596      D7790FC5 
 3597 1051 2D292054 		.ascii	"-) T\324\264\275j\313R\003\017d\332t\256\373\273\205"
 3597      D4B4BD6A 
 3597      CB52030F 
 3597      64DA74AE 
 3597      FBBB85
ARM GAS  C:\Users\zdy\AppData\Local\Temp\cckmpJrg.s 			page 109


 3598 1064 2A0AB0F4 		.ascii	"*\012\260\3649\256\352\212\000\362)n<I\246\332x\253"
 3598      39AEEA8A 
 3598      00F2296E 
 3598      3C49A6DA 
 3598      78AB
 3599 1076 C7A9A2DC 		.ascii	"\307\251\242\334\303\250\352I\015\256\233\247\030\214"
 3599      C3A8EA49 
 3599      0DAE9BA7 
 3599      188C
 3600 1084 93222FCA 		.ascii	"\223\"/\312$\221W<\363\273\035\261\212<+\342\017\017"
 3600      2491573C 
 3600      F3BB1DB1 
 3600      8A3C2BE2 
 3600      0F0F
 3601 1096 F86A269C 		.ascii	"\370j&\234\370\177\305W\232\275\300\335y\250\317\244"
 3601      F87FC557 
 3601      9ABDC0DD 
 3601      79A8CFA4 
 3602 10a6 C8D2CCFD 		.ascii	"\310\322\314\375\371=\027\321G\025\353\264P\006\027"
 3602      F93D17D1 
 3602      4715EBB4 
 3602      500617
 3603 10b5 877C556D 		.ascii	"\207|Um\342V\270\026\372v\253i\344\005'\355\366m\006"
 3603      E256B816 
 3603      FA76AB69 
 3603      E40527ED 
 3603      F66D06
 3604 10c8 ECE7EEE7 		.ascii	"\354\347\356\347\257N\177\012\335\242\212\000\340\376"
 3604      AF4E7F0A 
 3604      DDA28A00 
 3604      E0FE
 3605 10d6 2C59DD5F 		.ascii	",Y\335_xwJ\216\322\332k\207Mb\325\331bB\304(c\222@\354"
 3605      78774A8E 
 3605      D2DA6B87 
 3605      4D62D5D9 
 3605      6242C428 
 3606 10ee 3D6BBCA2 		.ascii	"=k\274\242\212\000\340|Ygq\037\305/\004\352\260\332"
 3606      8A00E07C 
 3606      5967711F 
 3606      C52F04EA 
 3606      B0DA
 3607 1100 CD24086E 		.ascii	"\315$\010nm\256%\2162\3020\3106\356#\240\311=k+E\274"
 3607      6DAE258E 
 3607      32C230C8 
 3607      36EE23A0 
 3607      C93D6B2B 
 3608 1116 1F0D6EB5 		.ascii	"\037\015n\265\015\027\\\323.\244\322\036\352K\235?Q"
 3608      0D175CD3 
 3608      2EA4D21E 
 3608      EA4B9D3F 
 3608      51
 3609 1127 B7B569D0 		.ascii	"\267\265i\320#\234\230\337h%X\034\366\346\275N\212\000"
 3609      239C98DF 
 3609      6825581C 
 3609      F6E6BD4E 
 3609      8A00
 3610 1139 E0B4ED7B 		.ascii	"\340\264\355{R\361O\212\254[B\261\236\307\303\326\273"
ARM GAS  C:\Users\zdy\AppData\Local\Temp\cckmpJrg.s 			page 110


 3610      52F14F8A 
 3610      AC5B42B1 
 3610      9EC7C3D6 
 3610      BB
 3611 114a A4BCBCBB 		.ascii	"\244\274\274\273\263\362\215\323c\345\2160\343p\000"
 3611      B3F28DD3 
 3611      63E58E30 
 3611      E37000
 3612 1159 F25B8FF1 		.ascii	"\362[\217\361\345\354\274#\252\352\336\006\361\024\020"
 3612      E5ECBC23 
 3612      AAEADE06 
 3612      F11410
 3613 1168 5BBC1A9C 		.ascii	"[\274\032\234\036$\233Q\261[\204*%dpW\257f\031\000\364"
 3613      1E249B51 
 3613      B15B842A 
 3613      25647057 
 3613      AF661900 
 3614 117d AF65A280 		.ascii	"\257e\242\200<\372/\211z2Z\204\277\320u{mT.\037O\032"
 3614      3CFA2F89 
 3614      7A325A84 
 3614      BFD0757B 
 3614      6D542E1F 
 3615 1193 648EE5FB 		.ascii	"d\216\345\373\205`\273H\317C\232\347\374E\246\370\263"
 3615      8560BB48 
 3615      CF439AE7 
 3615      FC45A6F8 
 3615      B3
 3616 11a4 57F05DBE 		.ascii	"W\360]\276\243\254i\215q\020\326\022\366}\016\004P\353"
 3616      A3AC698D 
 3616      7110D612 
 3616      F67D0E04 
 3616      50EB
 3617 11b6 64B9C447 		.ascii	"d\271\304Go\337n\344\037\351^\303E\000p1\370\367O\272"
 3617      6FDF6EE4 
 3617      1FE95EC3 
 3617      45007031 
 3617      F8F74FBA 
 3618 11ca B2FECEF0 		.ascii	"\262\376\316\360\226\213\1776\240\353\262(>\300\366"
 3618      968B7F36 
 3618      A0EBB228 
 3618      3EC0F6
 3619 11d9 F1404F19 		.ascii	"\361@O\031\221\230\005U\035\361\223\307\025\313xN\353"
 3619      91980555 
 3619      1DF193C7 
 3619      15CB784E 
 3619      EB
 3620 11ea C57E1DF0 		.ascii	"\305~\035\360\026\237ka\244\3375\316\213z\343T\262{"
 3620      169F6B61 
 3620      A4DF35CE 
 3620      8B7AE354 
 3620      B27B
 3621 11fc 6C35D42E 		.ascii	"l5\324.\354s\0137\336#\203\307\255{=\024\001\345\236"
 3621      EC730B37 
 3621      DE2383C7 
 3621      AD7B3D14 
 3621      01E59E
 3622 120f 28F15F85 		.ascii	"(\361_\205\374W\241\335i\361xsQ\325u9\342)\025\263i"
ARM GAS  C:\Users\zdy\AppData\Local\Temp\cckmpJrg.s 			page 111


 3622      FC57A1DD 
 3622      69F17873 
 3622      51D57539 
 3622      E22915B3 
 3623 1224 722491C8 		.ascii	"r$\221\310F\001.\312\002`\363\234\366\243K\3215\235"
 3623      46012ECA 
 3623      0260F39C 
 3623      F6A34BD1 
 3623      359D
 3624 1236 3BC65F0F 		.ascii	";\306_\017\343\324Ri\345\262\322n\"\272\270\000\272"
 3624      E3D45269 
 3624      E5B2D26E 
 3624      22BAB800 
 3624      BA
 3625 1247 23ED1852 		.ascii	"#\355\030R\3753\333\337\025\352tP\007\015\360\262\316"
 3625      FD33DBDF 
 3625      15EA7450 
 3625      070DF0B2 
 3625      CE
 3626 1258 EACB41D5 		.ascii	"\352\313A\325\222\356\332h\035\365\233\251\025eB\245"
 3626      92EEDA68 
 3626      1DF59BA9 
 3626      156542A5 
 3627 1268 94B0C30C 		.ascii	"\224\260\303\014\366>\264x\212\316\346o\213\036\016"
 3627      F63EB478 
 3627      8ACEE66F 
 3627      8B1E0E
 3628 1277 B98EDA57 		.ascii	"\271\216\332W\266\206\013\301,\252\204\242n@\006\343"
 3628      B6860BC1 
 3628      2CAA84A2 
 3628      6E4006E3 
 3629 1287 D066BB9A 		.ascii	"\320f\273\232(\003\314t)u\177\206\246\357C\272\320u"
 3629      2803CC74 
 3629      29757F86 
 3629      A6EF43BA 
 3629      D075
 3630 1299 1D4F43FB 		.ascii	"\035OC\373C\315\247\336i\261y\315\0329\334c\2213\221"
 3630      43CDA7DE 
 3630      69B179CD 
 3630      1A39DC63 
 3630      913391
 3631 12ac 824F3EF5 		.ascii	"\202O>\365\225\342\015GX\327>!x&\376\353M\237K\323W"
 3631      95E20D47 
 3631      58D73E21 
 3631      7826FEEB 
 3631      4D9F4BD3 
 3632 12c1 5068ED6D 		.ascii	"Ph\355m\256\200\023\312v\345\244e\004\354\000\000\000"
 3632      AE8013CA 
 3632      76E5A465 
 3632      04EC0000 
 3632      00
 3633 12d2 3CF535D4 		.ascii	"<\3655\324.\203\343\017\015\352W\322xr\366\303P\323"
 3633      2E83E30F 
 3633      0DEA57D2 
 3633      7872F6C3 
 3633      50D3
 3634 12e4 6F2769FE 		.ascii	"o'i\376\307\252I\"\275\273\267P\222.r\276\304qO\323"
ARM GAS  C:\Users\zdy\AppData\Local\Temp\cckmpJrg.s 			page 112


 3634      C7AA4922 
 3634      BDBBB750 
 3634      922E72BE 
 3634      C4714FD3 
 3635 12f8 3C2DAEEA 		.ascii	"<-\256\352>+\265\361'\213.\354\214\266\021\272XXX\006"
 3635      3E2BB5F1 
 3635      278B2EEC 
 3635      8CB611BA 
 3635      58585806 
 3636 130c 31425C61 		.ascii	"1B\\a\235\231\271f\307\035(\003\270\257)\370\2345?\015"
 3636      9D99B966 
 3636      C71D2803 
 3636      B8AF29F8 
 3636      9C353F0D 
 3637 1320 EBB6DE20 		.ascii	"\353\266\336 \320\243\337s\254[\266\2132\003\214\312"
 3637      D0A3DF73 
 3637      AC5BB68B 
 3637      32038CCA 
 3638 1330 FCC327B9 		.ascii	"\374\303'\271\007?\220\257V\256.\017\014k\372\247\212"
 3638      073F90AF 
 3638      56AE2E0F 
 3638      0C6BFAA7 
 3638      8A
 3639 1341 ECB56F13 		.ascii	"\354\265o\023_i\362Z\351\214\357cic\033\200dn\004\222"
 3639      5F69F25A 
 3639      E98CEF63 
 3639      69631B80 
 3639      646E0492 
 3640 1355 163C903A 		.ascii	"\026<\220:\001\336\200+\353\276\002\221\376\032\330"
 3640      01DE802B 
 3640      EBBE0291 
 3640      FE1AD8
 3641 1364 681A33A2 		.ascii	"h\0323\242_iF\033\2137~\025\347\214\347\237\367\211"
 3641      5F69461B 
 3641      8B377E15 
 3641      E78CE79F 
 3641      F789
 3642 1376 6FC4D107 		.ascii	"o\304\321\007\305+\010\255V=[G\326\254\265e\030\222"
 3642      C52B08AD 
 3642      563D5B47 
 3642      D6ACB565 
 3642      1892
 3643 1388 C069F248 		.ascii	"\300i\362H\305\373\204e\033X\036\3075\336Q@\036W\017"
 3643      C5FB8465 
 3643      1B581EC7 
 3643      35DE5140 
 3643      1E570F
 3644 139b 8475AF11 		.ascii	"\204u\257\021\350~2\325\265+o\261j\236 \200Cig#\014"
 3644      E87E32D5 
 3644      B52B6FB1 
 3644      6A9E2080 
 3644      43696723 
 3645 13b0 C1122FEE 		.ascii	"\301\022/\356\325\317fc\327\322\257h\037\021\354\355"
 3645      D5CF6663 
 3645      D7D2AF68 
 3645      1F11ECED 
 3646 13c0 342B2D37 		.ascii	"4+-7Q\3225\250u\253h\022\011,SO\221\331\335F\337\225"
ARM GAS  C:\Users\zdy\AppData\Local\Temp\cckmpJrg.s 			page 113


 3646      51D235A8 
 3646      75AB6812 
 3646      092C534F 
 3646      91D9DD46 
 3647 13d6 80DA41C7 		.ascii	"\200\332A\307\004\221\326\275\032\212\000\361;];\304"
 3647      0491D6BD 
 3647      1A8A00F1 
 3647      3B5D3BC4 
 3648 13e6 13681F14 		.ascii	"\023h\037\024d\324\264\271\242\275\324\021d\212\024"
 3648      64D4B4B9 
 3648      A2BDD411 
 3648      648A14
 3649 13f5 42FBB746 		.ascii	"B\373\267FHE |\345A\012q\334\032\365\217\014\306\360"
 3649      4845207C 
 3649      E5410A71 
 3649      DC1AF58F 
 3649      0CC6F0
 3650 1408 F853478A 		.ascii	"\370SG\212Td\221,\241VF\030*B\014\202=kR\212\000\311"
 3650      5464912C 
 3650      A1564618 
 3650      2A420C82 
 3650      3D6B528A 
 3651 141e F13E871F 		.ascii	"\361>\207\037\211|1\250\350\322\277\226\267\2204a\361"
 3651      897C31A8 
 3651      E8D2BF96 
 3651      B7903461 
 3651      F1
 3652 142f 9DADD41F 		.ascii	"\235\255\324\037\300\200k\302<\037\257\370\257\341\000"
 3652      C0806BC2 
 3652      3C1FAFF8 
 3652      AFE100
 3653 143e BED0B56F 		.ascii	"\276\320\265o\012\336_\332I1\226\031-\363\267v\000%"
 3653      0ADE5FDA 
 3653      49319619 
 3653      2DF3B776 
 3653      0025
 3654 1450 58290548 		.ascii	"X)\005H\003\320\212\3726\212\000\361\317\207\247\307"
 3654      03D08AFA 
 3654      368A00F1 
 3654      CF87A7C7 
 3655 1460 FE28F1AC 		.ascii	"\376(\361\254\336#\326\344\277\322\364 Y\342\323\344"
 3655      DE23D6E4 
 3655      BFD2F420 
 3655      59E2D3E4 
 3656 1470 76547246 		.ascii	"vTrF\025B\036J\216\244\340d\212\305\3701\242\352\272"
 3656      15421E4A 
 3656      8EA4E064 
 3656      8AC5F831 
 3656      A2EABA
 3657 1483 7FC4ED7E 		.ascii	"\177\304\355~\346\367L\274\266\202Hf\011,\3202+\023"
 3657      E6F74CBC 
 3657      B6824866 
 3657      092CD032 
 3657      2B13
 3658 1495 32918246 		.ascii	"2\221\202F\017\025\357\264P\007\224|m\370\177\177\342"
 3658      0F15EFB4 
 3658      5007947C 
ARM GAS  C:\Users\zdy\AppData\Local\Temp\cckmpJrg.s 			page 114


 3658      6DF87F7F 
 3658      E2
 3659 14a6 ED32CB52 		.ascii	"\3552\313R\321\343\363\265\015?p0\003\314\261\266\017"
 3659      D1E3F3B5 
 3659      0D3F7030 
 3659      03CCB1B6 
 3659      0F
 3660 14b7 CBEE08E9 		.ascii	"\313\356\010\351\337&\2711\361\037Tm!t\330\276\030\377"
 3660      DF26B931 
 3660      F11F546D 
 3660      2174D8BE 
 3660      18FF
 3661 14c9 00C4FF00 		.ascii	"\000\304\377\000g\225\346\233,\246\376\233\366l\317"
 3661      6795E69B 
 3661      2CA6FE9B 
 3661      F66CCF
 3662 14d8 BE338F7A 		.ascii	"\2763\217z\372\016\212\000\360\357\024\370K\306z\257"
 3662      FA0E8A00 
 3662      F0EF14F8 
 3662      4BC67AAF 
 3663 14e8 C1C29756 		.ascii	"\301\302\227V\266\377\000\332\357v\227S\330\330\333"
 3663      B6FF00DA 
 3663      EF769753 
 3663      D8D8DB
 3664 14f7 A467C900 		.ascii	"\244g\311\000\200\204'\337`Hl~\003\245dx/\304\262\351"
 3664      808427DF 
 3664      60486C7E 
 3664      03A56478 
 3664      2FC4B2E9 
 3665 150b BE138F40 		.ascii	"\276\023\217@\322\376\034\336K\342\001\033\306n\215"
 3665      D2FE1CDE 
 3665      4BE2011B 
 3665      C66E8D
 3666 151a B00A5CE7 		.ascii	"\260\012\\\347\347wa\221\214\364<q\326\276\210\242\200"
 3666      E7776191 
 3666      8CF43C71 
 3666      D6BE88A2 
 3666      80
 3667 152b 3C1BF67B 		.ascii	"<\033\366{\3225M\037W\327\223S\323/-\014\220\305\261"
 3667      D2354D1F 
 3667      57D79353 
 3667      D32F2D0C 
 3667      90C5B1
 3668 153e A7819036 		.ascii	"\247\201\2206\326l\340\221\317Q\\\307\207\333\305_\014"
 3668      D66CE091 
 3668      CF515CC7 
 3668      87DBC55F 
 3668      0C
 3669 154f 7E20EAD7 		.ascii	"~ \352\327\257\341;\355@O\346\304<\270\337k+8`\312\312"
 3669      AFE13BED 
 3669      404FE6C4 
 3669      3CB8DF6B 
 3669      2B3860CA 
 3670 1564 A41E83F3 		.ascii	"\244\036\203\363\257\250(\240\017\237u]\033W\237\366"
 3670      AFA828A0 
 3670      0F9F755D 
 3670      1B579FF6 
ARM GAS  C:\Users\zdy\AppData\Local\Temp\cckmpJrg.s 			page 115


 3671 1574 91B4D517 		.ascii	"\221\264\325\027J\275\373\021\270\267v\234@\3065\375"
 3671      4ABDFB11 
 3671      B8B7769C 
 3671      40C635FD 
 3672 1584 CAE7E6C6 		.ascii	"\312\347\346\3068<V\347\307\277\011\337jv\332N\277\244"
 3672      383C56E7 
 3672      C7BF09DF 
 3672      6A76DA4E 
 3672      BFA4
 3673 1596 5ACF3DF5 		.ascii	"Z\317=\365\244\236K\255\272\027}\207\346V\300\347\206"
 3673      A49E4BAD 
 3673      BA177D87 
 3673      E656C0E7 
 3673      86
 3674 15a7 07FEFAAF 		.ascii	"\007\376\372\257f\242\200<_\340?\205u\0336\326|G\255"
 3674      66A2803C 
 3674      5FE03F85 
 3674      751B36D6 
 3674      7C47AD
 3675 15ba DADC437F 		.ascii	"\332\334C\177w'\222\237i\214\243\221\235\356\330<\362"
 3675      7727929F 
 3675      698CA391 
 3675      9DEED83C 
 3675      F2
 3676 15cb C47E5593 		.ascii	"\304~U\223\246h\232\252~\323\023\352M\246^-\211\271"
 3676      A6689AAA 
 3676      7ED313EA 
 3676      4DA65E2D 
 3676      89B9
 3677 15dd 948B9303 		.ascii	"\224\213\223\003\010\360a \035\330\307^+\337\250\240"
 3677      08F06120 
 3677      1DD8C75E 
 3677      2BDFA8A0 
 3678 15ed 0F9DFE26 		.ascii	"\017\235\376&\351>\"\321~1\333x\262\313C\271\324-Q\240"
 3678      E93E22D1 
 3678      7E31DB78 
 3678      B2CB43B9 
 3678      D42D51A0 
 3679 1601 9A330C6C 		.ascii	"\2323\014l\352\305\024\002\254T\035\247\217\326\275"
 3679      EAC51402 
 3679      AC541DA7 
 3679      8FD6BD
 3680 1610 5D164F89 		.ascii	"]\026O\211\037\014\347\213R\323d\323e\324a\221>\317"
 3680      1F0CE78B 
 3680      52D364D3 
 3680      65D46191 
 3680      3ECF
 3681 1622 367744C1 		.ascii	"6wD\301\216\3069\000\365\001\272Wc\\W\304?\010k\236"
 3681      8EC63900 
 3681      F501BA57 
 3681      635C57C4 
 3681      3F086B9E 
 3682 1636 2C86C534 		.ascii	",\206\3054_\020\311\244\030\014\236iFq\346\206\003\000"
 3682      5F10C9A4 
 3682      180C9E69 
 3682      4671E686 
 3682      0300
ARM GAS  C:\Users\zdy\AppData\Local\Temp\cckmpJrg.s 			page 116


 3683 1648 ED23A60F 		.ascii	"\355#\246\017\347@\0379|>\320/|Q\343\255+\303\267\254"
 3683      E7401F39 
 3683      7C3ED02F 
 3683      7C51E3AD 
 3683      2BC3B7AC 
 3684 165c CF65A74D 		.ascii	"\317e\247M$\323DNV5R\013\217\370\023\000?\032\373\013"
 3684      24D3444E 
 3684      5635520B 
 3684      8FF81300 
 3684      3F1AFB0B 
 3685 1670 A74E95C0 		.ascii	"\247N\225\300\3745\370ak\360\376+\251\332\360\337jW"
 3685      FC35F861 
 3685      6BF0FE2B 
 3685      A9DAF0DF 
 3685      6A57
 3686 1682 402C93EC 		.ascii	"@,\223\354\332\252\240\347j\214\236\374\223\337\002"
 3686      DAAAA0E7 
 3686      6A8C9EFC 
 3686      93DF02
 3687 1691 BBEA0028 		.ascii	"\273\352\000(\242\212\000(\242\212\000(\242\212\000"
 3687      A28A0028 
 3687      A28A0028 
 3687      A28A00
 3688 16a0 28A28A00 		.ascii	"(\242\212\000(\242\212\000(\242\212\000(\242\212\000"
 3688      28A28A00 
 3688      28A28A00 
 3688      28A28A00 
 3689 16b0 28A28A00 		.ascii	"(\242\212\000(\242\212\000(\242\212\000(\242\212\000"
 3689      28A28A00 
 3689      28A28A00 
 3689      28A28A00 
 3690 16c0 28A28A00 		.ascii	"(\242\212\000(\242\212\000(\242\212\000(\242\212\000"
 3690      28A28A00 
 3690      28A28A00 
 3690      28A28A00 
 3691 16d0 28A28A00 		.ascii	"(\242\212\000(\242\212\000(\242\212\000(\242\212\000"
 3691      28A28A00 
 3691      28A28A00 
 3691      28A28A00 
 3692 16e0 28A28A00 		.ascii	"(\242\212\000(\242\212\000(\242\212\000(\242\212\000"
 3692      28A28A00 
 3692      28A28A00 
 3692      28A28A00 
 3693 16f0 28A28A00 		.ascii	"(\242\212\000(\242\212\000(\242\212\000(\242\212\000"
 3693      28A28A00 
 3693      28A28A00 
 3693      28A28A00 
 3694 1700 28A28A00 		.ascii	"(\242\212\000(\242\212\000(\242\212\000(\242\212\000"
 3694      28A28A00 
 3694      28A28A00 
 3694      28A28A00 
 3695 1710 28A28A00 		.ascii	"(\242\212\000(\242\212\000(\242\212\000(\242\212\000"
 3695      28A28A00 
 3695      28A28A00 
 3695      28A28A00 
 3696 1720 28A28A00 		.ascii	"(\242\212\000(\242\212\000(\242\212\000(\242\212\000"
 3696      28A28A00 
ARM GAS  C:\Users\zdy\AppData\Local\Temp\cckmpJrg.s 			page 117


 3696      28A28A00 
 3696      28A28A00 
 3697 1730 28A28A00 		.ascii	"(\242\212\000(\242\212\000(\242\212\000(\242\212\000"
 3697      28A28A00 
 3697      28A28A00 
 3697      28A28A00 
 3698 1740 28A28A00 		.ascii	"(\242\212\000(\242\212\000(\242\212\000(\242\212\000"
 3698      28A28A00 
 3698      28A28A00 
 3698      28A28A00 
 3699 1750 28A28A00 		.ascii	"(\242\212\000(\242\212\000(\242\212\000(\242\212\000"
 3699      28A28A00 
 3699      28A28A00 
 3699      28A28A00 
 3700 1760 28A28A00 		.ascii	"(\242\212\000(\242\212\000(\242\212\000(\242\212\000"
 3700      28A28A00 
 3700      28A28A00 
 3700      28A28A00 
 3701 1770 28A28A00 		.ascii	"(\242\212\000(\242\212\000(\242\212\000(\242\212\000"
 3701      28A28A00 
 3701      28A28A00 
 3701      28A28A00 
 3702 1780 28A28A00 		.ascii	"(\242\212\000(\242\212\000(\242\212\000(\242\212\000"
 3702      28A28A00 
 3702      28A28A00 
 3702      28A28A00 
 3703 1790 28A28A00 		.ascii	"(\242\212\000(\242\212\000(\242\212\000(\242\212\000"
 3703      28A28A00 
 3703      28A28A00 
 3703      28A28A00 
 3704 17a0 28A28A00 		.ascii	"(\242\212\000(\242\212\000(\242\212\000(\242\212\000"
 3704      28A28A00 
 3704      28A28A00 
 3704      28A28A00 
 3705 17b0 28A28A00 		.ascii	"(\242\212\000(\242\212\000(\242\212\000+3S\361\026\213"
 3705      28A28A00 
 3705      28A28A00 
 3705      2B3353F1 
 3705      168B
 3706 17c2 A2FF00C8 		.ascii	"\242\377\000\310OU\263\264?\335\232eV\374\272\327\237"
 3706      4F55B3B4 
 3706      3FDD9A65 
 3706      56FCBAD7 
 3706      9F
 3707 17d3 FC57F885 		.ascii	"\374W\370\205u\240\262h:4\276V\241,~e\305\310\344\301"
 3707      75A0B268 
 3707      3A34BE56 
 3707      A12C7E65 
 3707      C5C8E4C1 
 3708 17e7 19E817FD 		.ascii	"\031\350\027\375\243\372\012\360\370m.o\247i\211w\221"
 3708      A3FA0AF0 
 3708      F86D2E6F 
 3708      A7698977 
 3708      91
 3709 17f8 CE5A5909 		.ascii	"\316ZY\011gc\352I\346\235\215\251\321s\324\372\202\037"
 3709      6763EA49 
 3709      E69D8DA9 
ARM GAS  C:\Users\zdy\AppData\Local\Temp\cckmpJrg.s 			page 118


 3709      D173D4FA 
 3709      821F
 3710 180a 1FF84677 		.ascii	"\037\370Fw\011\037\210\264\362\307\326`?\235n\333^Z"
 3710      091F88B4 
 3710      F2C7D660 
 3710      3F9D6EDB 
 3710      5E5A
 3711 181c DEC7E65A 		.ascii	"\336\307\346Z\\\303:\177z'\014?J\371Z-\002\344\216X"
 3711      5CC33A7F 
 3711      7A270C3F 
 3711      4AF95A2D 
 3711      02E48E58 
 3712 1830 D59B7D3F 		.ascii	"\325\233}?Q\323e\023ZM$2\016C\302\305\017\346)hj\360"
 3712      51D36513 
 3712      5A4D2432 
 3712      0E43C2C5 
 3712      0FE62968 
 3713 1846 AFA33EA6 		.ascii	"\257\243>\246\242\274'F\370\241\342-!\226=D.\241\000"
 3713      A2BC2746 
 3713      F8A1E22D 
 3713      21963D44 
 3713      2EA100
 3714 1859 E0F9C36C 		.ascii	"\340\371\303l\200{8\353\370\203^\243\341\357\035h\236"
 3714      807B38EB 
 3714      F8835EA3 
 3714      E1EF1D68 
 3714      9E
 3715 186a 220B1C17 		.ascii	"\"\013\034\027\036E\331\377\000\227i\360\255\370vo\302"
 3715      1E45D9FF 
 3715      009769F0 
 3715      ADF8766F 
 3715      C2
 3716 187b 8309D294 		.ascii	"\203\011\322\2247GKE\024Pf\024QE\000\024QE\000\024Q"
 3716      37474B45 
 3716      14506614 
 3716      51450014 
 3716      51450014 
 3717 1890 45001451 		.ascii	"E\000\024QE\000\024QE\000\024QE\000\024QE\000\024QE"
 3717      45001451 
 3717      45001451 
 3717      45001451 
 3717      45001451 
 3718 18a5 00145145 		.ascii	"\000\024QE\000\024W)\342?\210Z\027\2077\305$\377\000"
 3718      00145729 
 3718      E23F885A 
 3718      178737C5 
 3718      24FF00
 3719 18b8 6ABC5FF9 		.ascii	"j\274_\371w\267!\210?\355\036\213\370\363^Y\255|Q\361"
 3719      77B72188 
 3719      3FED1E8B 
 3719      F8F35E59 
 3719      AD7C51F1 
 3720 18cc 36B2CD1D 		.ascii	"6\262\315\035\201\032}\271\350\266\343/\217w?\320\012"
 3720      811A7DB9 
 3720      E8B6E32F 
 3720      8F773FD0 
 3720      0A
ARM GAS  C:\Users\zdy\AppData\Local\Temp\cckmpJrg.s 			page 119


 3721 18dd 76348529 		.ascii	"v4\205)\317d{\265\325\365\245\204~e\345\324\026\351"
 3721      CF647BB5 
 3721      D5F5A584 
 3721      7E65E5D4 
 3721      16E9
 3722 18ef FDE9A408 		.ascii	"\375\351\244\010?Z\303\227\342\007\204ar\217\342-<\021"
 3722      3F5AC397 
 3722      E2078461 
 3722      728FE22D 
 3722      3C11
 3723 1901 E9303FCA 		.ascii	"\3510?\312\276s\270\260\324u\011L\3272<\262\036K\312"
 3723      BE73B8B0 
 3723      D475094C 
 3723      D7323CB2 
 3723      1E4BCA
 3724 1914 C5DBF335 		.ascii	"\305\333\3635^M\012\355FC5;.\347B\302>\254\372\243L"
 3724      5E4D0AED 
 3724      4643353B 
 3724      2EE742C2 
 3724      3EACFAA3 
 3725 1929 D7B48D65 		.ascii	"\327\264\215es\246jv\227x\352!\231X\217\300sZ\025\361"
 3725      73A66A76 
 3725      9778EA21 
 3725      99588FC0 
 3725      735A15F1 
 3726 193d C6CBBD36 		.ascii	"\306\313\2756\351.\021\244\206h\316Rh\211GS\352\010"
 3726      E92E11A4 
 3726      8668CE52 
 3726      68894753 
 3726      EA08
 3727 194f AFA17E17 		.ascii	"\257\241~\027x\352_\023\351rY\352N\255\251Zct\200c\317"
 3727      78EA5F13 
 3727      E97259EA 
 3727      4EADA95A 
 3727      63748063 
 3728 1964 43D1F1EB 		.ascii	"C\321\361\353\306\017\377\000^\207\033jeV\203\247\251"
 3728      C60FFF00 
 3728      5E871B6A 
 3728      655683A7 
 3728      A9
 3729 1975 E8545145 		.ascii	"\350TQEI\200QE\024\000QE\024\000QE\024\000QE\024\000"
 3729      49805145 
 3729      14005145 
 3729      14005145 
 3729      14005145 
 3730 198b 51451400 		.ascii	"QE\024\000QE\024\000QE\024\000QE\024\000QE\024\000Q"
 3730      51451400 
 3730      51451400 
 3730      51451400 
 3730      51451400 
 3731 19a0 45140051 		.ascii	"E\024\000QE\024\000QE\024\000QE\024\000QE\024\000QE"
 3731      45140051 
 3731      45140051 
 3731      45140051 
 3731      45140051 
 3732 19b5 14005145 		.ascii	"\024\000QEW\271\275\206\327\002BK\267\335E\031c\370"
 3732      57B9BD86 
ARM GAS  C:\Users\zdy\AppData\Local\Temp\cckmpJrg.s 			page 120


 3732      D702424B 
 3732      B7DD4519 
 3732      63F8
 3733 19c7 50058A2A 		.ascii	"P\005\212*\200\324\230\377\000\313\234\240\177\274\271"
 3733      80D498FF 
 3733      00CB9CA0 
 3733      7FBCB9
 3734 19d6 FE75226A 		.ascii	"\376u\"j01\304\233\342?\364\321p?>\224\001n\212@A\000"
 3734      3031C49B 
 3734      E23FF4D1 
 3734      703F3E94 
 3734      016E8A40 
 3735 19ec 82083DC5 		.ascii	"\202\010=\305-\000\024QE\000\024QE\000\024QE\000\024"
 3735      2D001451 
 3735      45001451 
 3735      45001451 
 3735      450014
 3736 19ff 51450014 		.ascii	"QE\000\024QU\357n\322\306\316[\231\001+\032\347\003"
 3736      5155EF6E 
 3736      D2C6CE5B 
 3736      99012B1A 
 3736      E703
 3737 1a11 A93D80FA 		.ascii	"\251=\200\372\320\004\354\312\212Y\230(\035\311\300"
 3737      D004ECCA 
 3737      8A599828 
 3737      1DC9C0
 3738 1a20 A8D6EADD 		.ascii	"\250\326\352\335\276\355\304G\350\342\271\217\263\313"
 3738      BEEDC447 
 3738      E8E2B98F 
 3738      B3CB
 3739 1a2e 7EE26D40 		.ascii	"~\342m@\371\322\036DY\375\334~\300w\372\232\266\272"
 3739      F9D21E44 
 3739      59FDDC7E 
 3739      C077FA9A 
 3739      B6BA
 3740 1a40 642579B5 		.ascii	"d%y\265\207\037\356\012\000\350G##\245\025\200\226-"
 3740      871FEE0A 
 3740      00E84723 
 3740      23A51580 
 3740      962D
 3741 1a52 6E736D24 		.ascii	"nsm$\260\037Dl\257\375\362x\253Q\35270`\\\304%O\371"
 3741      B01F446C 
 3741      AFFDF278 
 3741      AB51EA37 
 3741      30605CC4 
 3742 1a69 E910E47D 		.ascii	"\351\020\344}W\374(\003V\212\216\031\342\270\214I\014"
 3742      57FC2803 
 3742      568A8E19 
 3742      E2B88C49 
 3742      0C
 3743 1a7a 8AEA7B83 		.ascii	"\212\352{\203RP\001E\024P\001E\024P\001E\024P\001E\024"
 3743      52500145 
 3743      14500145 
 3743      14500145 
 3743      14500145 
 3744 1a8f 50014514 		.ascii	"P\001E\024P\007\313\3360/\251|B\326\344\220\222M\353"
 3744      5007CBDE 
ARM GAS  C:\Users\zdy\AppData\Local\Temp\cckmpJrg.s 			page 121


 3744      302FA97C 
 3744      42D6E490 
 3744      924DEB
 3745 1aa2 463FDD40 		.ascii	"F?\335@\024\017\322\267t\215.4\211IQT<Mm\366_\210:\322"
 3745      140FD2B7 
 3745      748D2E34 
 3745      89495154 
 3745      3C4D6DF6 
 3746 1aba 30C7FA6B 		.ascii	"0\307\372k8\3720\015\375kz\316uH\007=\251I\236\225%"
 3746      38FA300D 
 3746      FD6B7ACE 
 3746      7548073D 
 3746      A9499E95 
 3747 1acf EEAB1756 		.ascii	"\356\253\027V\332$\030\300\241\255\341a\320VM\336\253"
 3747      DA2418C0 
 3747      A1ADE161 
 3747      D0564DDE 
 3747      AB
 3748 1ae0 E59C03CD 		.ascii	"\345\234\003\315UMe\263\322\246\315\235\324\360\262"
 3748      554D65B3 
 3748      D2A6CD9D 
 3748      D4F0B2
 3749 1aef 92B9A771 		.ascii	"\222\271\247q\245\305(?(\254K\255\014\241\335\036F9"
 3749      A5C5283F 
 3749      28AC4BAD 
 3749      0CA1DD1E 
 3749      4639
 3750 1b01 15A90EAC 		.ascii	"\025\251\016\254\255\214\234U\305\271\216Q\324\0325"
 3750      AD8C9C55 
 3750      C5B98E51 
 3750      D41A35
 3751 1b10 429E1E51 		.ascii	"B\236\036Q\335\011\241|@\327|>V\013\262o\355\007\033"
 3751      DD09A17C 
 3751      40D77C3E 
 3751      560BB26F 
 3751      ED071B
 3752 1b23 266F9D47 		.ascii	"&o\235G\373/\3769\257R\360\377\000\214t\177\021\240"
 3752      FB2FFE39 
 3752      AF52F0FF 
 3752      008C747F 
 3752      11A0
 3753 1b35 5B3B8D97 		.ascii	"[;\215\227\030\313[K\362\310>\203\270\367\025\345\023"
 3753      18CB5B4B 
 3753      F2C83E83 
 3753      B8F715E5 
 3753      13
 3754 1b46 DA45329E 		.ascii	"\332E2\236\005a\335i\257\003\211 b\254\247*T\340\203"
 3754      0561DD69 
 3754      AF038920 
 3754      62ACA72A 
 3754      54E083
 3755 1b59 EA0F6AA4 		.ascii	"\352\017j\244\316\032\230T\365Z\037IQ^+\341\357\212"
 3755      CE1A9854 
 3755      F55A1F49 
 3755      515E2BE1 
 3755      EF8A
 3756 1b6b 5A8E92E9 		.ascii	"Z\216\222\351k\254\243^\333\216<\316\222\250\372\364"
ARM GAS  C:\Users\zdy\AppData\Local\Temp\cckmpJrg.s 			page 122


 3756      6BACA35E 
 3756      DB8E3CCE 
 3756      92A8FAF4 
 3757 1b7b 6FC79F7A 		.ascii	"o\307\237z\365\215\033^\3235\373_\264i\267I2\377\000"
 3757      F58D1B5E 
 3757      D335FB5F 
 3757      B469B749 
 3757      32FF00
 3758 1b8e 128E190F 		.ascii	"\022\216\031\017\243/QL\341\2359A\373\310\322\242\212"
 3758      A32F514C 
 3758      E19D3941 
 3758      FBC8D2A2 
 3758      8A
 3759 1b9f 282028A2 		.ascii	"( (\242\212\000(\242\212\000(\242\212\000(\242\212\000"
 3759      8A0028A2 
 3759      8A0028A2 
 3759      8A0028A2 
 3759      8A00
 3760 1bb1 28A28A00 		.ascii	"(\242\212\000(\254\235{\304\332G\206\255>\321\252^$"
 3760      28AC9D7B 
 3760      C4DA4786 
 3760      AD3ED1AA 
 3760      5E24
 3761 1bc3 208F923E 		.ascii	" \217\222>\256\377\000\356\257S^7\342?\213:\266\272"
 3761      AEFF00EE 
 3761      AF535E37 
 3761      E23F8B3A 
 3761      B6BA
 3762 1bd5 EF6BA2AB 		.ascii	"\357k\242\253i\366\207\215\340\376\365\307\271\376\037"
 3762      69F6878D 
 3762      E0FEF5C7 
 3762      B9FE1F
 3763 1be4 C3F3A695 		.ascii	"\303\363\246\225\315)\322\225G\356\243\325\274I\343"
 3763      CD29D295 
 3763      47EEA3D5 
 3763      BC49E3
 3764 1bf3 9D13C32A 		.ascii	"\235\023\303*\311uq\347]\343\213X0\317\370\366_\306"
 3764      C97571E7 
 3764      5DE38B58 
 3764      30CFF8F6 
 3764      5FC6
 3765 1c05 BC9B5EF8 		.ascii	"\274\233^\370\201\342\037\022\227\202\335\215\205\223"
 3765      81E21F12 
 3765      9782DD8D 
 3765      8593
 3766 1c13 71E540C4 		.ascii	"q\345@\3043\017\366\237\251\3740+\236\262\322\232F\363"
 3766      330FF69F 
 3766      A9FC302B 
 3766      9EB2D29A 
 3766      46F3
 3767 1c25 2725DD8E 		.ascii	"'%\335\216I'95\275\005\254q(\340Q\242;\351\341\022\337"
 3767      49273935 
 3767      BD05AC71 
 3767      28E051A2 
 3767      3BE9E112 
 3768 1c3a 56635AE8 		.ascii	"VcZ\350y \311\311\353[Pi\261F\007\312)\357u\024#\222"
 3768      7920C9C9 
ARM GAS  C:\Users\zdy\AppData\Local\Temp\cckmpJrg.s 			page 123


 3768      EB5B5069 
 3768      B14607CA 
 3768      29EF7514 
 3769 1c50 2A85C6B2 		.ascii	"*\205\306\262\251\235\224Y\263\276\236\032r\331\032"
 3769      A99D9459 
 3769      B3BE9E1A 
 3769      72D91A
 3770 1c5f CB6F10EC 		.ascii	"\313o\020\354(kh\330p\005sg]\223uh\330j\302s\265\216"
 3770      286B68D8 
 3770      70057367 
 3770      5D937568 
 3770      D86AC273 
 3771 1c75 0D27092D 		.ascii	"\015'\011-Y\245L\034\342\256\312\332\276\226\217\033"
 3771      59A54C1C 
 3771      E2AECADA 
 3771      BE968F1B 
 3772 1c85 7CA2A3F8 		.ascii	"|\242\243\370m<\232w\214\342U$\007G\215\207\250\306"
 3772      6D3C9A77 
 3772      8CE25524 
 3772      07478D87 
 3772      A8C6
 3773 1c97 EFE6B5AD 		.ascii	"\357\346\265\255{\"\264'\351Y\276\015\207\177\213\342"
 3773      7B22B427 
 3773      E959BE0D 
 3773      877F8BE2 
 3774 1ca7 75FE1DED 		.ascii	"u\376\035\355\377\000\216\343\372\323OC\316\256\277"
 3774      FF008EE3 
 3774      FAD34F43 
 3774      CEAEBF
 3775 1cb6 76EE7D19 		.ascii	"v\356}\031o'\231\012\267\250\251j\246\235\377\000\036"
 3775      6F27990A 
 3775      B7A8A96A 
 3775      A69DFF00 
 3775      1E
 3776 1cc7 899F4AB7 		.ascii	"\211\237J\267H\362\202\212(\240\002\212(\240\002\212"
 3776      48F2828A 
 3776      28A0028A 
 3776      28A0028A 
 3777 1cd7 28A0028A 		.ascii	"(\240\002\212(\240\002\212+\036\367^\2167hl\323\355"
 3777      28A0028A 
 3777      2B1EF75E 
 3777      8E37686C 
 3777      D3ED
 3778 1ce9 128E0B67 		.ascii	"\022\216\013g\010\277S\337\360\240\015Yf\216\010\313"
 3778      08BF53DF 
 3778      F0A00D59 
 3778      668E08CB 
 3779 1cf9 CAEA883A 		.ascii	"\312\352\210:\2268\025\217q\3428\271[(^\341\277\275"
 3779      9638158F 
 3779      71E238B9 
 3779      5B285EE1 
 3779      BFBD
 3780 1d0b F753F335 		.ascii	"\367S\3635\235\366K\213\371|\333\271\014\255\330\036"
 3780      9DF64B8B 
 3780      F97CDBB9 
 3780      0CADD81E 
 3781 1d1b 157E82B4 		.ascii	"\025~\202\264\241\323T\001\272\2002\237P\327\244$\375"
ARM GAS  C:\Users\zdy\AppData\Local\Temp\cckmpJrg.s 			page 124


 3781      A1D35401 
 3781      BA80329F 
 3781      50D7A424 
 3781      FD
 3782 1d2c AADE207A 		.ascii	"\252\336 z*\307\234U\213Mn\372\324\001~\213q\036y\222"
 3782      2AC79C55 
 3782      8B4D6EFA 
 3782      D4017E8B 
 3782      711E7992 
 3783 1d40 2E187E15 		.ascii	".\030~\025\255\375\235\031\035*\205\325\217\225\363"
 3783      ADFD9D19 
 3783      1D2A85D5 
 3783      8F95F3
 3784 1d4f 2D006EC3 		.ascii	"-\000n\3034w\021,\2618ta\220\303\275>\260\364\027\362"
 3784      3477112C 
 3784      B1387461 
 3784      90C3BD3E 
 3784      B0F417F2 
 3785 1d63 E4B8B51F 		.ascii	"\344\270\265\037tbE\036\231\353\372\326\345\000\024"
 3785      7462451E 
 3785      99EBFAD6 
 3785      E50014
 3786 1d72 51450014 		.ascii	"QE\000\024QE\000\024QE\000\024QE\000\024QHHPK\020\000"
 3786      51450014 
 3786      51450014 
 3786      51450014 
 3786      51484850 
 3787 1d89 EE680168 		.ascii	"\356h\001h\252\022\352\260!+\020i\237\375\201\307\347"
 3787      AA12EAB0 
 3787      212B1069 
 3787      9FFD81C7 
 3787      E7
 3788 1d9a 55CEA977 		.ascii	"U\316\251w\332\3320=\336\2005\350\2526\272\222L\342"
 3788      DADA303D 
 3788      DE8035E8 
 3788      AA36BA92 
 3788      4CE2
 3789 1dac 2950C521 		.ascii	")P\305!\350\011\310?CW\250\000\254Kui\344{\206\377\000"
 3789      E809C83F 
 3789      4357A800 
 3789      AC4B7569 
 3789      E47B86FF 
 3790 1dc1 592B139F 		.ascii	"Y+\023\237E\354+l\362+*\304\201\032\347\267\024\001"
 3790      45EC2B6C 
 3790      F22B2AC4 
 3790      811AE7B7 
 3790      1401
 3791 1dd3 692D4639 		.ascii	"i-F9\240\333\361\305:I\302\016*\001vs@\010 x\016ac\031"
 3791      A0DBF1C5 
 3791      3A49C20E 
 3791      2A017673 
 3791      40082078 
 3792 1deb F41CA9FC 		.ascii	"\364\034\251\374*x\257\001!&_-\373\034\374\247\350i"
