ARM GAS  C:\usertemp\ccoJaLKY.s 			page 1


   1              		.cpu cortex-m7
   2              		.arch armv7e-m
   3              		.fpu fpv5-d16
   4              		.eabi_attribute 28, 1
   5              		.eabi_attribute 20, 1
   6              		.eabi_attribute 21, 1
   7              		.eabi_attribute 23, 3
   8              		.eabi_attribute 24, 1
   9              		.eabi_attribute 25, 1
  10              		.eabi_attribute 26, 1
  11              		.eabi_attribute 30, 1
  12              		.eabi_attribute 34, 1
  13              		.eabi_attribute 18, 4
  14              		.file	"gifdec.c"
  15              		.text
  16              	.Ltext0:
  17              		.cfi_sections	.debug_frame
  18              		.file 1 "lvgl/src/extra/libs/gif/gifdec.c"
  19              		.section	.text.interlaced_line_index,"ax",%progbits
  20              		.align	1
  21              		.syntax unified
  22              		.thumb
  23              		.thumb_func
  25              	interlaced_line_index:
  26              	.LVL0:
  27              	.LFB31:
   1:lvgl/src/extra/libs/gif/gifdec.c **** #include "gifdec.h"
   2:lvgl/src/extra/libs/gif/gifdec.c **** #include "../../../misc/lv_log.h"
   3:lvgl/src/extra/libs/gif/gifdec.c **** #include "../../../misc/lv_mem.h"
   4:lvgl/src/extra/libs/gif/gifdec.c **** #include "../../../misc/lv_color.h"
   5:lvgl/src/extra/libs/gif/gifdec.c **** #if LV_USE_GIF
   6:lvgl/src/extra/libs/gif/gifdec.c **** 
   7:lvgl/src/extra/libs/gif/gifdec.c **** #include <stdlib.h>
   8:lvgl/src/extra/libs/gif/gifdec.c **** #include <string.h>
   9:lvgl/src/extra/libs/gif/gifdec.c **** #include <stdbool.h>
  10:lvgl/src/extra/libs/gif/gifdec.c **** 
  11:lvgl/src/extra/libs/gif/gifdec.c **** #define MIN(A, B) ((A) < (B) ? (A) : (B))
  12:lvgl/src/extra/libs/gif/gifdec.c **** #define MAX(A, B) ((A) > (B) ? (A) : (B))
  13:lvgl/src/extra/libs/gif/gifdec.c **** 
  14:lvgl/src/extra/libs/gif/gifdec.c **** typedef struct Entry {
  15:lvgl/src/extra/libs/gif/gifdec.c ****     uint16_t length;
  16:lvgl/src/extra/libs/gif/gifdec.c ****     uint16_t prefix;
  17:lvgl/src/extra/libs/gif/gifdec.c ****     uint8_t  suffix;
  18:lvgl/src/extra/libs/gif/gifdec.c **** } Entry;
  19:lvgl/src/extra/libs/gif/gifdec.c **** 
  20:lvgl/src/extra/libs/gif/gifdec.c **** typedef struct Table {
  21:lvgl/src/extra/libs/gif/gifdec.c ****     int bulk;
  22:lvgl/src/extra/libs/gif/gifdec.c ****     int nentries;
  23:lvgl/src/extra/libs/gif/gifdec.c ****     Entry *entries;
  24:lvgl/src/extra/libs/gif/gifdec.c **** } Table;
  25:lvgl/src/extra/libs/gif/gifdec.c **** 
  26:lvgl/src/extra/libs/gif/gifdec.c **** static gd_GIF *  gif_open(gd_GIF * gif);
  27:lvgl/src/extra/libs/gif/gifdec.c **** static bool f_gif_open(gd_GIF * gif, const void * path, bool is_file);
  28:lvgl/src/extra/libs/gif/gifdec.c **** static void f_gif_read(gd_GIF * gif, void * buf, size_t len);
  29:lvgl/src/extra/libs/gif/gifdec.c **** static int f_gif_seek(gd_GIF * gif, size_t pos, int k);
  30:lvgl/src/extra/libs/gif/gifdec.c **** static void f_gif_close(gd_GIF * gif);
  31:lvgl/src/extra/libs/gif/gifdec.c **** 
ARM GAS  C:\usertemp\ccoJaLKY.s 			page 2


  32:lvgl/src/extra/libs/gif/gifdec.c **** static uint16_t
  33:lvgl/src/extra/libs/gif/gifdec.c **** read_num(gd_GIF * gif)
  34:lvgl/src/extra/libs/gif/gifdec.c **** {
  35:lvgl/src/extra/libs/gif/gifdec.c ****     uint8_t bytes[2];
  36:lvgl/src/extra/libs/gif/gifdec.c **** 
  37:lvgl/src/extra/libs/gif/gifdec.c ****     f_gif_read(gif, bytes, 2);
  38:lvgl/src/extra/libs/gif/gifdec.c ****     return bytes[0] + (((uint16_t) bytes[1]) << 8);
  39:lvgl/src/extra/libs/gif/gifdec.c **** }
  40:lvgl/src/extra/libs/gif/gifdec.c **** 
  41:lvgl/src/extra/libs/gif/gifdec.c **** 
  42:lvgl/src/extra/libs/gif/gifdec.c **** 
  43:lvgl/src/extra/libs/gif/gifdec.c **** gd_GIF *
  44:lvgl/src/extra/libs/gif/gifdec.c **** gd_open_gif_file(const char *fname)
  45:lvgl/src/extra/libs/gif/gifdec.c **** {
  46:lvgl/src/extra/libs/gif/gifdec.c ****     gd_GIF gif_base;
  47:lvgl/src/extra/libs/gif/gifdec.c ****     memset(&gif_base, 0, sizeof(gif_base));
  48:lvgl/src/extra/libs/gif/gifdec.c **** 
  49:lvgl/src/extra/libs/gif/gifdec.c ****     bool res = f_gif_open(&gif_base, fname, true);
  50:lvgl/src/extra/libs/gif/gifdec.c ****     if(!res) return NULL;
  51:lvgl/src/extra/libs/gif/gifdec.c **** 
  52:lvgl/src/extra/libs/gif/gifdec.c ****     return gif_open(&gif_base);
  53:lvgl/src/extra/libs/gif/gifdec.c **** }
  54:lvgl/src/extra/libs/gif/gifdec.c **** 
  55:lvgl/src/extra/libs/gif/gifdec.c **** 
  56:lvgl/src/extra/libs/gif/gifdec.c **** gd_GIF *
  57:lvgl/src/extra/libs/gif/gifdec.c **** gd_open_gif_data(const void *data)
  58:lvgl/src/extra/libs/gif/gifdec.c **** {
  59:lvgl/src/extra/libs/gif/gifdec.c ****     gd_GIF gif_base;
  60:lvgl/src/extra/libs/gif/gifdec.c ****     memset(&gif_base, 0, sizeof(gif_base));
  61:lvgl/src/extra/libs/gif/gifdec.c **** 
  62:lvgl/src/extra/libs/gif/gifdec.c ****     bool res = f_gif_open(&gif_base, data, false);
  63:lvgl/src/extra/libs/gif/gifdec.c ****     if(!res) return NULL;
  64:lvgl/src/extra/libs/gif/gifdec.c **** 
  65:lvgl/src/extra/libs/gif/gifdec.c ****     return gif_open(&gif_base);
  66:lvgl/src/extra/libs/gif/gifdec.c **** }
  67:lvgl/src/extra/libs/gif/gifdec.c **** 
  68:lvgl/src/extra/libs/gif/gifdec.c **** static gd_GIF * gif_open(gd_GIF * gif_base)
  69:lvgl/src/extra/libs/gif/gifdec.c **** {
  70:lvgl/src/extra/libs/gif/gifdec.c ****     uint8_t sigver[3];
  71:lvgl/src/extra/libs/gif/gifdec.c ****     uint16_t width, height, depth;
  72:lvgl/src/extra/libs/gif/gifdec.c ****     uint8_t fdsz, bgidx, aspect;
  73:lvgl/src/extra/libs/gif/gifdec.c ****     int i;
  74:lvgl/src/extra/libs/gif/gifdec.c ****     uint8_t *bgcolor;
  75:lvgl/src/extra/libs/gif/gifdec.c ****     int gct_sz;
  76:lvgl/src/extra/libs/gif/gifdec.c ****     gd_GIF *gif = NULL;
  77:lvgl/src/extra/libs/gif/gifdec.c **** 
  78:lvgl/src/extra/libs/gif/gifdec.c ****     /* Header */
  79:lvgl/src/extra/libs/gif/gifdec.c ****     f_gif_read(gif_base, sigver, 3);
  80:lvgl/src/extra/libs/gif/gifdec.c ****     if (memcmp(sigver, "GIF", 3) != 0) {
  81:lvgl/src/extra/libs/gif/gifdec.c ****         LV_LOG_WARN("invalid signature\n");
  82:lvgl/src/extra/libs/gif/gifdec.c ****         goto fail;
  83:lvgl/src/extra/libs/gif/gifdec.c ****     }
  84:lvgl/src/extra/libs/gif/gifdec.c ****     /* Version */
  85:lvgl/src/extra/libs/gif/gifdec.c ****     f_gif_read(gif_base, sigver, 3);
  86:lvgl/src/extra/libs/gif/gifdec.c ****     if (memcmp(sigver, "89a", 3) != 0) {
  87:lvgl/src/extra/libs/gif/gifdec.c ****         LV_LOG_WARN("invalid version\n");
  88:lvgl/src/extra/libs/gif/gifdec.c ****         goto fail;
ARM GAS  C:\usertemp\ccoJaLKY.s 			page 3


  89:lvgl/src/extra/libs/gif/gifdec.c ****     }
  90:lvgl/src/extra/libs/gif/gifdec.c ****     /* Width x Height */
  91:lvgl/src/extra/libs/gif/gifdec.c ****     width  = read_num(gif_base);
  92:lvgl/src/extra/libs/gif/gifdec.c ****     height = read_num(gif_base);
  93:lvgl/src/extra/libs/gif/gifdec.c ****     /* FDSZ */
  94:lvgl/src/extra/libs/gif/gifdec.c ****     f_gif_read(gif_base, &fdsz, 1);
  95:lvgl/src/extra/libs/gif/gifdec.c ****     /* Presence of GCT */
  96:lvgl/src/extra/libs/gif/gifdec.c ****     if (!(fdsz & 0x80)) {
  97:lvgl/src/extra/libs/gif/gifdec.c ****         LV_LOG_WARN("no global color table\n");
  98:lvgl/src/extra/libs/gif/gifdec.c ****         goto fail;
  99:lvgl/src/extra/libs/gif/gifdec.c ****     }
 100:lvgl/src/extra/libs/gif/gifdec.c ****     /* Color Space's Depth */
 101:lvgl/src/extra/libs/gif/gifdec.c ****     depth = ((fdsz >> 4) & 7) + 1;
 102:lvgl/src/extra/libs/gif/gifdec.c ****     /* Ignore Sort Flag. */
 103:lvgl/src/extra/libs/gif/gifdec.c ****     /* GCT Size */
 104:lvgl/src/extra/libs/gif/gifdec.c ****     gct_sz = 1 << ((fdsz & 0x07) + 1);
 105:lvgl/src/extra/libs/gif/gifdec.c ****     /* Background Color Index */
 106:lvgl/src/extra/libs/gif/gifdec.c ****     f_gif_read(gif_base, &bgidx, 1);
 107:lvgl/src/extra/libs/gif/gifdec.c ****     /* Aspect Ratio */
 108:lvgl/src/extra/libs/gif/gifdec.c ****     f_gif_read(gif_base, &aspect, 1);
 109:lvgl/src/extra/libs/gif/gifdec.c ****     /* Create gd_GIF Structure. */
 110:lvgl/src/extra/libs/gif/gifdec.c **** #if LV_COLOR_DEPTH == 32
 111:lvgl/src/extra/libs/gif/gifdec.c ****     gif = lv_mem_alloc(sizeof(gd_GIF) + 5 * width * height);
 112:lvgl/src/extra/libs/gif/gifdec.c **** #elif LV_COLOR_DEPTH == 16
 113:lvgl/src/extra/libs/gif/gifdec.c ****     gif = lv_mem_alloc(sizeof(gd_GIF) + 4 * width * height);
 114:lvgl/src/extra/libs/gif/gifdec.c **** #elif LV_COLOR_DEPTH == 8 || LV_COLOR_DEPTH == 1
 115:lvgl/src/extra/libs/gif/gifdec.c ****     gif = lv_mem_alloc(sizeof(gd_GIF) + 3 * width * height);
 116:lvgl/src/extra/libs/gif/gifdec.c **** #endif
 117:lvgl/src/extra/libs/gif/gifdec.c **** 
 118:lvgl/src/extra/libs/gif/gifdec.c ****     if (!gif) goto fail;
 119:lvgl/src/extra/libs/gif/gifdec.c ****     memcpy(gif, gif_base, sizeof(gd_GIF));
 120:lvgl/src/extra/libs/gif/gifdec.c ****     gif->width  = width;
 121:lvgl/src/extra/libs/gif/gifdec.c ****     gif->height = height;
 122:lvgl/src/extra/libs/gif/gifdec.c ****     gif->depth  = depth;
 123:lvgl/src/extra/libs/gif/gifdec.c ****     /* Read GCT */
 124:lvgl/src/extra/libs/gif/gifdec.c ****     gif->gct.size = gct_sz;
 125:lvgl/src/extra/libs/gif/gifdec.c ****     f_gif_read(gif, gif->gct.colors, 3 * gif->gct.size);
 126:lvgl/src/extra/libs/gif/gifdec.c ****     gif->palette = &gif->gct;
 127:lvgl/src/extra/libs/gif/gifdec.c ****     gif->bgindex = bgidx;
 128:lvgl/src/extra/libs/gif/gifdec.c ****     gif->canvas = (uint8_t *) &gif[1];
 129:lvgl/src/extra/libs/gif/gifdec.c **** #if LV_COLOR_DEPTH == 32
 130:lvgl/src/extra/libs/gif/gifdec.c ****     gif->frame = &gif->canvas[4 * width * height];
 131:lvgl/src/extra/libs/gif/gifdec.c **** #elif LV_COLOR_DEPTH == 16
 132:lvgl/src/extra/libs/gif/gifdec.c ****     gif->frame = &gif->canvas[3 * width * height];
 133:lvgl/src/extra/libs/gif/gifdec.c **** #elif LV_COLOR_DEPTH == 8 || LV_COLOR_DEPTH == 1
 134:lvgl/src/extra/libs/gif/gifdec.c ****     gif->frame = &gif->canvas[2 * width * height];
 135:lvgl/src/extra/libs/gif/gifdec.c **** #endif
 136:lvgl/src/extra/libs/gif/gifdec.c ****     if (gif->bgindex)
 137:lvgl/src/extra/libs/gif/gifdec.c ****         memset(gif->frame, gif->bgindex, gif->width * gif->height);
 138:lvgl/src/extra/libs/gif/gifdec.c ****     bgcolor = &gif->palette->colors[gif->bgindex*3];
 139:lvgl/src/extra/libs/gif/gifdec.c **** 
 140:lvgl/src/extra/libs/gif/gifdec.c ****     if (bgcolor[0] || bgcolor[1] || bgcolor [2])
 141:lvgl/src/extra/libs/gif/gifdec.c ****         for (i = 0; i < gif->width * gif->height; i++) {
 142:lvgl/src/extra/libs/gif/gifdec.c **** #if LV_COLOR_DEPTH == 32
 143:lvgl/src/extra/libs/gif/gifdec.c ****             gif->canvas[i*4 + 0] = *(bgcolor + 2);
 144:lvgl/src/extra/libs/gif/gifdec.c ****             gif->canvas[i*4 + 1] = *(bgcolor + 1);
 145:lvgl/src/extra/libs/gif/gifdec.c ****             gif->canvas[i*4 + 2] = *(bgcolor + 0);
ARM GAS  C:\usertemp\ccoJaLKY.s 			page 4


 146:lvgl/src/extra/libs/gif/gifdec.c ****             gif->canvas[i*4 + 3] = 0xff;
 147:lvgl/src/extra/libs/gif/gifdec.c **** #elif LV_COLOR_DEPTH == 16
 148:lvgl/src/extra/libs/gif/gifdec.c ****             lv_color_t c = lv_color_make(*(bgcolor + 0), *(bgcolor + 1), *(bgcolor + 2));
 149:lvgl/src/extra/libs/gif/gifdec.c ****             gif->canvas[i*3 + 0] = c.full & 0xff;
 150:lvgl/src/extra/libs/gif/gifdec.c ****             gif->canvas[i*3 + 1] = (c.full >> 8) & 0xff;
 151:lvgl/src/extra/libs/gif/gifdec.c ****             gif->canvas[i*3 + 2] = 0xff;
 152:lvgl/src/extra/libs/gif/gifdec.c **** #elif LV_COLOR_DEPTH == 8
 153:lvgl/src/extra/libs/gif/gifdec.c ****             lv_color_t c = lv_color_make(*(bgcolor + 0), *(bgcolor + 1), *(bgcolor + 2));
 154:lvgl/src/extra/libs/gif/gifdec.c ****             gif->canvas[i*2 + 0] = c.full;
 155:lvgl/src/extra/libs/gif/gifdec.c ****             gif->canvas[i*2 + 1] = 0xff;
 156:lvgl/src/extra/libs/gif/gifdec.c **** #endif
 157:lvgl/src/extra/libs/gif/gifdec.c ****         }
 158:lvgl/src/extra/libs/gif/gifdec.c ****     gif->anim_start = f_gif_seek(gif, 0, LV_FS_SEEK_CUR);
 159:lvgl/src/extra/libs/gif/gifdec.c ****     goto ok;
 160:lvgl/src/extra/libs/gif/gifdec.c **** fail:
 161:lvgl/src/extra/libs/gif/gifdec.c ****     f_gif_close(gif_base);
 162:lvgl/src/extra/libs/gif/gifdec.c **** ok:
 163:lvgl/src/extra/libs/gif/gifdec.c ****     return gif;
 164:lvgl/src/extra/libs/gif/gifdec.c **** }
 165:lvgl/src/extra/libs/gif/gifdec.c **** 
 166:lvgl/src/extra/libs/gif/gifdec.c **** static void
 167:lvgl/src/extra/libs/gif/gifdec.c **** discard_sub_blocks(gd_GIF *gif)
 168:lvgl/src/extra/libs/gif/gifdec.c **** {
 169:lvgl/src/extra/libs/gif/gifdec.c ****     uint8_t size;
 170:lvgl/src/extra/libs/gif/gifdec.c **** 
 171:lvgl/src/extra/libs/gif/gifdec.c ****     do {
 172:lvgl/src/extra/libs/gif/gifdec.c ****         f_gif_read(gif, &size, 1);
 173:lvgl/src/extra/libs/gif/gifdec.c ****         f_gif_seek(gif, size, LV_FS_SEEK_CUR);
 174:lvgl/src/extra/libs/gif/gifdec.c ****     } while (size);
 175:lvgl/src/extra/libs/gif/gifdec.c **** }
 176:lvgl/src/extra/libs/gif/gifdec.c **** 
 177:lvgl/src/extra/libs/gif/gifdec.c **** static void
 178:lvgl/src/extra/libs/gif/gifdec.c **** read_plain_text_ext(gd_GIF *gif)
 179:lvgl/src/extra/libs/gif/gifdec.c **** {
 180:lvgl/src/extra/libs/gif/gifdec.c ****     if (gif->plain_text) {
 181:lvgl/src/extra/libs/gif/gifdec.c ****         uint16_t tx, ty, tw, th;
 182:lvgl/src/extra/libs/gif/gifdec.c ****         uint8_t cw, ch, fg, bg;
 183:lvgl/src/extra/libs/gif/gifdec.c ****         size_t sub_block;
 184:lvgl/src/extra/libs/gif/gifdec.c ****         f_gif_seek(gif, 1, LV_FS_SEEK_CUR); /* block size = 12 */
 185:lvgl/src/extra/libs/gif/gifdec.c ****         tx = read_num(gif);
 186:lvgl/src/extra/libs/gif/gifdec.c ****         ty = read_num(gif);
 187:lvgl/src/extra/libs/gif/gifdec.c ****         tw = read_num(gif);
 188:lvgl/src/extra/libs/gif/gifdec.c ****         th = read_num(gif);
 189:lvgl/src/extra/libs/gif/gifdec.c ****         f_gif_read(gif, &cw, 1);
 190:lvgl/src/extra/libs/gif/gifdec.c ****         f_gif_read(gif, &ch, 1);
 191:lvgl/src/extra/libs/gif/gifdec.c ****         f_gif_read(gif, &fg, 1);
 192:lvgl/src/extra/libs/gif/gifdec.c ****         f_gif_read(gif, &bg, 1);
 193:lvgl/src/extra/libs/gif/gifdec.c ****         sub_block = f_gif_seek(gif, 0, LV_FS_SEEK_CUR);
 194:lvgl/src/extra/libs/gif/gifdec.c ****         gif->plain_text(gif, tx, ty, tw, th, cw, ch, fg, bg);
 195:lvgl/src/extra/libs/gif/gifdec.c ****         f_gif_seek(gif, sub_block, LV_FS_SEEK_SET);
 196:lvgl/src/extra/libs/gif/gifdec.c ****     } else {
 197:lvgl/src/extra/libs/gif/gifdec.c ****         /* Discard plain text metadata. */
 198:lvgl/src/extra/libs/gif/gifdec.c ****         f_gif_seek(gif, 13, LV_FS_SEEK_CUR);
 199:lvgl/src/extra/libs/gif/gifdec.c ****     }
 200:lvgl/src/extra/libs/gif/gifdec.c ****     /* Discard plain text sub-blocks. */
 201:lvgl/src/extra/libs/gif/gifdec.c ****     discard_sub_blocks(gif);
 202:lvgl/src/extra/libs/gif/gifdec.c **** }
ARM GAS  C:\usertemp\ccoJaLKY.s 			page 5


 203:lvgl/src/extra/libs/gif/gifdec.c **** 
 204:lvgl/src/extra/libs/gif/gifdec.c **** static void
 205:lvgl/src/extra/libs/gif/gifdec.c **** read_graphic_control_ext(gd_GIF *gif)
 206:lvgl/src/extra/libs/gif/gifdec.c **** {
 207:lvgl/src/extra/libs/gif/gifdec.c ****     uint8_t rdit;
 208:lvgl/src/extra/libs/gif/gifdec.c **** 
 209:lvgl/src/extra/libs/gif/gifdec.c ****     /* Discard block size (always 0x04). */
 210:lvgl/src/extra/libs/gif/gifdec.c ****     f_gif_seek(gif, 1, LV_FS_SEEK_CUR);
 211:lvgl/src/extra/libs/gif/gifdec.c ****     f_gif_read(gif, &rdit, 1);
 212:lvgl/src/extra/libs/gif/gifdec.c ****     gif->gce.disposal = (rdit >> 2) & 3;
 213:lvgl/src/extra/libs/gif/gifdec.c ****     gif->gce.input = rdit & 2;
 214:lvgl/src/extra/libs/gif/gifdec.c ****     gif->gce.transparency = rdit & 1;
 215:lvgl/src/extra/libs/gif/gifdec.c ****     gif->gce.delay = read_num(gif);
 216:lvgl/src/extra/libs/gif/gifdec.c ****     f_gif_read(gif, &gif->gce.tindex, 1);
 217:lvgl/src/extra/libs/gif/gifdec.c ****     /* Skip block terminator. */
 218:lvgl/src/extra/libs/gif/gifdec.c ****     f_gif_seek(gif, 1, LV_FS_SEEK_CUR);
 219:lvgl/src/extra/libs/gif/gifdec.c **** }
 220:lvgl/src/extra/libs/gif/gifdec.c **** 
 221:lvgl/src/extra/libs/gif/gifdec.c **** static void
 222:lvgl/src/extra/libs/gif/gifdec.c **** read_comment_ext(gd_GIF *gif)
 223:lvgl/src/extra/libs/gif/gifdec.c **** {
 224:lvgl/src/extra/libs/gif/gifdec.c ****     if (gif->comment) {
 225:lvgl/src/extra/libs/gif/gifdec.c ****         size_t sub_block = f_gif_seek(gif, 0, LV_FS_SEEK_CUR);
 226:lvgl/src/extra/libs/gif/gifdec.c ****         gif->comment(gif);
 227:lvgl/src/extra/libs/gif/gifdec.c ****         f_gif_seek(gif, sub_block, LV_FS_SEEK_SET);
 228:lvgl/src/extra/libs/gif/gifdec.c ****     }
 229:lvgl/src/extra/libs/gif/gifdec.c ****     /* Discard comment sub-blocks. */
 230:lvgl/src/extra/libs/gif/gifdec.c ****     discard_sub_blocks(gif);
 231:lvgl/src/extra/libs/gif/gifdec.c **** }
 232:lvgl/src/extra/libs/gif/gifdec.c **** 
 233:lvgl/src/extra/libs/gif/gifdec.c **** static void
 234:lvgl/src/extra/libs/gif/gifdec.c **** read_application_ext(gd_GIF *gif)
 235:lvgl/src/extra/libs/gif/gifdec.c **** {
 236:lvgl/src/extra/libs/gif/gifdec.c ****     char app_id[8];
 237:lvgl/src/extra/libs/gif/gifdec.c ****     char app_auth_code[3];
 238:lvgl/src/extra/libs/gif/gifdec.c **** 
 239:lvgl/src/extra/libs/gif/gifdec.c ****     /* Discard block size (always 0x0B). */
 240:lvgl/src/extra/libs/gif/gifdec.c ****     f_gif_seek(gif, 1, LV_FS_SEEK_CUR);
 241:lvgl/src/extra/libs/gif/gifdec.c ****     /* Application Identifier. */
 242:lvgl/src/extra/libs/gif/gifdec.c ****     f_gif_read(gif, app_id, 8);
 243:lvgl/src/extra/libs/gif/gifdec.c ****     /* Application Authentication Code. */
 244:lvgl/src/extra/libs/gif/gifdec.c ****     f_gif_read(gif, app_auth_code, 3);
 245:lvgl/src/extra/libs/gif/gifdec.c ****     if (!strncmp(app_id, "NETSCAPE", sizeof(app_id))) {
 246:lvgl/src/extra/libs/gif/gifdec.c ****         /* Discard block size (0x03) and constant byte (0x01). */
 247:lvgl/src/extra/libs/gif/gifdec.c ****         f_gif_seek(gif, 2, LV_FS_SEEK_CUR);
 248:lvgl/src/extra/libs/gif/gifdec.c ****         gif->loop_count = read_num(gif);
 249:lvgl/src/extra/libs/gif/gifdec.c ****         /* Skip block terminator. */
 250:lvgl/src/extra/libs/gif/gifdec.c ****         f_gif_seek(gif, 1, LV_FS_SEEK_CUR);
 251:lvgl/src/extra/libs/gif/gifdec.c ****     } else if (gif->application) {
 252:lvgl/src/extra/libs/gif/gifdec.c ****         size_t sub_block = f_gif_seek(gif, 0, LV_FS_SEEK_CUR);
 253:lvgl/src/extra/libs/gif/gifdec.c ****         gif->application(gif, app_id, app_auth_code);
 254:lvgl/src/extra/libs/gif/gifdec.c ****         f_gif_seek(gif, sub_block, LV_FS_SEEK_SET);
 255:lvgl/src/extra/libs/gif/gifdec.c ****         discard_sub_blocks(gif);
 256:lvgl/src/extra/libs/gif/gifdec.c ****     } else {
 257:lvgl/src/extra/libs/gif/gifdec.c ****         discard_sub_blocks(gif);
 258:lvgl/src/extra/libs/gif/gifdec.c ****     }
 259:lvgl/src/extra/libs/gif/gifdec.c **** }
ARM GAS  C:\usertemp\ccoJaLKY.s 			page 6


 260:lvgl/src/extra/libs/gif/gifdec.c **** 
 261:lvgl/src/extra/libs/gif/gifdec.c **** static void
 262:lvgl/src/extra/libs/gif/gifdec.c **** read_ext(gd_GIF *gif)
 263:lvgl/src/extra/libs/gif/gifdec.c **** {
 264:lvgl/src/extra/libs/gif/gifdec.c ****     uint8_t label;
 265:lvgl/src/extra/libs/gif/gifdec.c **** 
 266:lvgl/src/extra/libs/gif/gifdec.c ****     f_gif_read(gif, &label, 1);
 267:lvgl/src/extra/libs/gif/gifdec.c ****     switch (label) {
 268:lvgl/src/extra/libs/gif/gifdec.c ****     case 0x01:
 269:lvgl/src/extra/libs/gif/gifdec.c ****         read_plain_text_ext(gif);
 270:lvgl/src/extra/libs/gif/gifdec.c ****         break;
 271:lvgl/src/extra/libs/gif/gifdec.c ****     case 0xF9:
 272:lvgl/src/extra/libs/gif/gifdec.c ****         read_graphic_control_ext(gif);
 273:lvgl/src/extra/libs/gif/gifdec.c ****         break;
 274:lvgl/src/extra/libs/gif/gifdec.c ****     case 0xFE:
 275:lvgl/src/extra/libs/gif/gifdec.c ****         read_comment_ext(gif);
 276:lvgl/src/extra/libs/gif/gifdec.c ****         break;
 277:lvgl/src/extra/libs/gif/gifdec.c ****     case 0xFF:
 278:lvgl/src/extra/libs/gif/gifdec.c ****         read_application_ext(gif);
 279:lvgl/src/extra/libs/gif/gifdec.c ****         break;
 280:lvgl/src/extra/libs/gif/gifdec.c ****     default:
 281:lvgl/src/extra/libs/gif/gifdec.c ****         LV_LOG_WARN("unknown extension: %02X\n", label);
 282:lvgl/src/extra/libs/gif/gifdec.c ****     }
 283:lvgl/src/extra/libs/gif/gifdec.c **** }
 284:lvgl/src/extra/libs/gif/gifdec.c **** 
 285:lvgl/src/extra/libs/gif/gifdec.c **** static Table *
 286:lvgl/src/extra/libs/gif/gifdec.c **** new_table(int key_size)
 287:lvgl/src/extra/libs/gif/gifdec.c **** {
 288:lvgl/src/extra/libs/gif/gifdec.c ****     int key;
 289:lvgl/src/extra/libs/gif/gifdec.c ****     int init_bulk = MAX(1 << (key_size + 1), 0x100);
 290:lvgl/src/extra/libs/gif/gifdec.c ****     Table *table = lv_mem_alloc(sizeof(*table) + sizeof(Entry) * init_bulk);
 291:lvgl/src/extra/libs/gif/gifdec.c ****     if (table) {
 292:lvgl/src/extra/libs/gif/gifdec.c ****         table->bulk = init_bulk;
 293:lvgl/src/extra/libs/gif/gifdec.c ****         table->nentries = (1 << key_size) + 2;
 294:lvgl/src/extra/libs/gif/gifdec.c ****         table->entries = (Entry *) &table[1];
 295:lvgl/src/extra/libs/gif/gifdec.c ****         for (key = 0; key < (1 << key_size); key++)
 296:lvgl/src/extra/libs/gif/gifdec.c ****             table->entries[key] = (Entry) {1, 0xFFF, key};
 297:lvgl/src/extra/libs/gif/gifdec.c ****     }
 298:lvgl/src/extra/libs/gif/gifdec.c ****     return table;
 299:lvgl/src/extra/libs/gif/gifdec.c **** }
 300:lvgl/src/extra/libs/gif/gifdec.c **** 
 301:lvgl/src/extra/libs/gif/gifdec.c **** /* Add table entry. Return value:
 302:lvgl/src/extra/libs/gif/gifdec.c ****  *  0 on success
 303:lvgl/src/extra/libs/gif/gifdec.c ****  *  +1 if key size must be incremented after this addition
 304:lvgl/src/extra/libs/gif/gifdec.c ****  *  -1 if could not realloc table */
 305:lvgl/src/extra/libs/gif/gifdec.c **** static int
 306:lvgl/src/extra/libs/gif/gifdec.c **** add_entry(Table **tablep, uint16_t length, uint16_t prefix, uint8_t suffix)
 307:lvgl/src/extra/libs/gif/gifdec.c **** {
 308:lvgl/src/extra/libs/gif/gifdec.c ****     Table *table = *tablep;
 309:lvgl/src/extra/libs/gif/gifdec.c ****     if (table->nentries == table->bulk) {
 310:lvgl/src/extra/libs/gif/gifdec.c ****         table->bulk *= 2;
 311:lvgl/src/extra/libs/gif/gifdec.c ****         table = lv_mem_realloc(table, sizeof(*table) + sizeof(Entry) * table->bulk);
 312:lvgl/src/extra/libs/gif/gifdec.c ****         if (!table) return -1;
 313:lvgl/src/extra/libs/gif/gifdec.c ****         table->entries = (Entry *) &table[1];
 314:lvgl/src/extra/libs/gif/gifdec.c ****         *tablep = table;
 315:lvgl/src/extra/libs/gif/gifdec.c ****     }
 316:lvgl/src/extra/libs/gif/gifdec.c ****     table->entries[table->nentries] = (Entry) {length, prefix, suffix};
ARM GAS  C:\usertemp\ccoJaLKY.s 			page 7


 317:lvgl/src/extra/libs/gif/gifdec.c ****     table->nentries++;
 318:lvgl/src/extra/libs/gif/gifdec.c ****     if ((table->nentries & (table->nentries - 1)) == 0)
 319:lvgl/src/extra/libs/gif/gifdec.c ****         return 1;
 320:lvgl/src/extra/libs/gif/gifdec.c ****     return 0;
 321:lvgl/src/extra/libs/gif/gifdec.c **** }
 322:lvgl/src/extra/libs/gif/gifdec.c **** 
 323:lvgl/src/extra/libs/gif/gifdec.c **** static uint16_t
 324:lvgl/src/extra/libs/gif/gifdec.c **** get_key(gd_GIF *gif, int key_size, uint8_t *sub_len, uint8_t *shift, uint8_t *byte)
 325:lvgl/src/extra/libs/gif/gifdec.c **** {
 326:lvgl/src/extra/libs/gif/gifdec.c ****     int bits_read;
 327:lvgl/src/extra/libs/gif/gifdec.c ****     int rpad;
 328:lvgl/src/extra/libs/gif/gifdec.c ****     int frag_size;
 329:lvgl/src/extra/libs/gif/gifdec.c ****     uint16_t key;
 330:lvgl/src/extra/libs/gif/gifdec.c **** 
 331:lvgl/src/extra/libs/gif/gifdec.c ****     key = 0;
 332:lvgl/src/extra/libs/gif/gifdec.c ****     for (bits_read = 0; bits_read < key_size; bits_read += frag_size) {
 333:lvgl/src/extra/libs/gif/gifdec.c ****         rpad = (*shift + bits_read) % 8;
 334:lvgl/src/extra/libs/gif/gifdec.c ****         if (rpad == 0) {
 335:lvgl/src/extra/libs/gif/gifdec.c ****             /* Update byte. */
 336:lvgl/src/extra/libs/gif/gifdec.c ****             if (*sub_len == 0) {
 337:lvgl/src/extra/libs/gif/gifdec.c ****                 f_gif_read(gif, sub_len, 1); /* Must be nonzero! */
 338:lvgl/src/extra/libs/gif/gifdec.c ****                 if (*sub_len == 0) return 0x1000;
 339:lvgl/src/extra/libs/gif/gifdec.c ****             }
 340:lvgl/src/extra/libs/gif/gifdec.c ****             f_gif_read(gif, byte, 1);
 341:lvgl/src/extra/libs/gif/gifdec.c ****             (*sub_len)--;
 342:lvgl/src/extra/libs/gif/gifdec.c ****         }
 343:lvgl/src/extra/libs/gif/gifdec.c ****         frag_size = MIN(key_size - bits_read, 8 - rpad);
 344:lvgl/src/extra/libs/gif/gifdec.c ****         key |= ((uint16_t) ((*byte) >> rpad)) << bits_read;
 345:lvgl/src/extra/libs/gif/gifdec.c ****     }
 346:lvgl/src/extra/libs/gif/gifdec.c ****     /* Clear extra bits to the left. */
 347:lvgl/src/extra/libs/gif/gifdec.c ****     key &= (1 << key_size) - 1;
 348:lvgl/src/extra/libs/gif/gifdec.c ****     *shift = (*shift + key_size) % 8;
 349:lvgl/src/extra/libs/gif/gifdec.c ****     return key;
 350:lvgl/src/extra/libs/gif/gifdec.c **** }
 351:lvgl/src/extra/libs/gif/gifdec.c **** 
 352:lvgl/src/extra/libs/gif/gifdec.c **** /* Compute output index of y-th input line, in frame of height h. */
 353:lvgl/src/extra/libs/gif/gifdec.c **** static int
 354:lvgl/src/extra/libs/gif/gifdec.c **** interlaced_line_index(int h, int y)
 355:lvgl/src/extra/libs/gif/gifdec.c **** {
  28              		.loc 1 355 1 view -0
  29              		.cfi_startproc
  30              		@ args = 0, pretend = 0, frame = 0
  31              		@ frame_needed = 0, uses_anonymous_args = 0
  32              		@ link register save eliminated.
 356:lvgl/src/extra/libs/gif/gifdec.c ****     int p; /* number of lines in current pass */
  33              		.loc 1 356 5 view .LVU1
 357:lvgl/src/extra/libs/gif/gifdec.c **** 
 358:lvgl/src/extra/libs/gif/gifdec.c ****     p = (h - 1) / 8 + 1;
  34              		.loc 1 358 5 view .LVU2
  35              		.loc 1 358 17 is_stmt 0 view .LVU3
  36 0000 431E     		subs	r3, r0, #1
  37 0002 15D4     		bmi	.L9
  38              	.L2:
  39 0004 DB10     		asrs	r3, r3, #3
  40              		.loc 1 358 7 view .LVU4
  41 0006 0133     		adds	r3, r3, #1
  42              	.LVL1:
ARM GAS  C:\usertemp\ccoJaLKY.s 			page 8


 359:lvgl/src/extra/libs/gif/gifdec.c ****     if (y < p) /* pass 1 */
  43              		.loc 1 359 5 is_stmt 1 view .LVU5
  44              		.loc 1 359 8 is_stmt 0 view .LVU6
  45 0008 8B42     		cmp	r3, r1
  46 000a 13DC     		bgt	.L10
 360:lvgl/src/extra/libs/gif/gifdec.c ****         return y * 8;
 361:lvgl/src/extra/libs/gif/gifdec.c ****     y -= p;
  47              		.loc 1 361 5 is_stmt 1 view .LVU7
  48              		.loc 1 361 7 is_stmt 0 view .LVU8
  49 000c C91A     		subs	r1, r1, r3
  50              	.LVL2:
 362:lvgl/src/extra/libs/gif/gifdec.c ****     p = (h - 5) / 8 + 1;
  51              		.loc 1 362 5 is_stmt 1 view .LVU9
  52              		.loc 1 362 17 is_stmt 0 view .LVU10
  53 000e 431F     		subs	r3, r0, #5
  54              	.LVL3:
  55              		.loc 1 362 17 view .LVU11
  56 0010 12D4     		bmi	.L11
  57              	.L5:
  58 0012 DB10     		asrs	r3, r3, #3
  59              		.loc 1 362 7 view .LVU12
  60 0014 0133     		adds	r3, r3, #1
  61              	.LVL4:
 363:lvgl/src/extra/libs/gif/gifdec.c ****     if (y < p) /* pass 2 */
  62              		.loc 1 363 5 is_stmt 1 view .LVU13
  63              		.loc 1 363 8 is_stmt 0 view .LVU14
  64 0016 9942     		cmp	r1, r3
  65 0018 10DB     		blt	.L12
 364:lvgl/src/extra/libs/gif/gifdec.c ****         return y * 8 + 4;
 365:lvgl/src/extra/libs/gif/gifdec.c ****     y -= p;
  66              		.loc 1 365 5 is_stmt 1 view .LVU15
  67              		.loc 1 365 7 is_stmt 0 view .LVU16
  68 001a C91A     		subs	r1, r1, r3
  69              	.LVL5:
 366:lvgl/src/extra/libs/gif/gifdec.c ****     p = (h - 3) / 4 + 1;
  70              		.loc 1 366 5 is_stmt 1 view .LVU17
  71              		.loc 1 366 17 is_stmt 0 view .LVU18
  72 001c 0338     		subs	r0, r0, #3
  73              	.LVL6:
  74              		.loc 1 366 17 view .LVU19
  75 001e 10D4     		bmi	.L13
  76              	.LVL7:
  77              	.L7:
  78              		.loc 1 366 17 view .LVU20
  79 0020 8010     		asrs	r0, r0, #2
  80              		.loc 1 366 7 view .LVU21
  81 0022 0130     		adds	r0, r0, #1
  82              	.LVL8:
 367:lvgl/src/extra/libs/gif/gifdec.c ****     if (y < p) /* pass 3 */
  83              		.loc 1 367 5 is_stmt 1 view .LVU22
  84              		.loc 1 367 8 is_stmt 0 view .LVU23
  85 0024 8142     		cmp	r1, r0
  86 0026 0EDB     		blt	.L14
 368:lvgl/src/extra/libs/gif/gifdec.c ****         return y * 4 + 2;
 369:lvgl/src/extra/libs/gif/gifdec.c ****     y -= p;
  87              		.loc 1 369 5 is_stmt 1 view .LVU24
  88              		.loc 1 369 7 is_stmt 0 view .LVU25
ARM GAS  C:\usertemp\ccoJaLKY.s 			page 9


  89 0028 091A     		subs	r1, r1, r0
  90              	.LVL9:
 370:lvgl/src/extra/libs/gif/gifdec.c ****     /* pass 4 */
 371:lvgl/src/extra/libs/gif/gifdec.c ****     return y * 2 + 1;
  91              		.loc 1 371 5 is_stmt 1 view .LVU26
  92              		.loc 1 371 14 is_stmt 0 view .LVU27
  93 002a 4900     		lsls	r1, r1, #1
  94              	.LVL10:
  95              		.loc 1 371 18 view .LVU28
  96 002c 481C     		adds	r0, r1, #1
  97              	.LVL11:
 372:lvgl/src/extra/libs/gif/gifdec.c **** }
  98              		.loc 1 372 1 view .LVU29
  99 002e 7047     		bx	lr
 100              	.LVL12:
 101              	.L9:
 358:lvgl/src/extra/libs/gif/gifdec.c ****     if (y < p) /* pass 1 */
 102              		.loc 1 358 17 view .LVU30
 103 0030 0733     		adds	r3, r3, #7
 104 0032 E7E7     		b	.L2
 105              	.LVL13:
 106              	.L10:
 360:lvgl/src/extra/libs/gif/gifdec.c ****     y -= p;
 107              		.loc 1 360 9 is_stmt 1 view .LVU31
 360:lvgl/src/extra/libs/gif/gifdec.c ****     y -= p;
 108              		.loc 1 360 18 is_stmt 0 view .LVU32
 109 0034 C800     		lsls	r0, r1, #3
 110              	.LVL14:
 360:lvgl/src/extra/libs/gif/gifdec.c ****     y -= p;
 111              		.loc 1 360 18 view .LVU33
 112 0036 7047     		bx	lr
 113              	.LVL15:
 114              	.L11:
 362:lvgl/src/extra/libs/gif/gifdec.c ****     if (y < p) /* pass 2 */
 115              		.loc 1 362 17 view .LVU34
 116 0038 0733     		adds	r3, r3, #7
 117 003a EAE7     		b	.L5
 118              	.LVL16:
 119              	.L12:
 364:lvgl/src/extra/libs/gif/gifdec.c ****     y -= p;
 120              		.loc 1 364 9 is_stmt 1 view .LVU35
 364:lvgl/src/extra/libs/gif/gifdec.c ****     y -= p;
 121              		.loc 1 364 18 is_stmt 0 view .LVU36
 122 003c C900     		lsls	r1, r1, #3
 123              	.LVL17:
 364:lvgl/src/extra/libs/gif/gifdec.c ****     y -= p;
 124              		.loc 1 364 22 view .LVU37
 125 003e 081D     		adds	r0, r1, #4
 126              	.LVL18:
 364:lvgl/src/extra/libs/gif/gifdec.c ****     y -= p;
 127              		.loc 1 364 22 view .LVU38
 128 0040 7047     		bx	lr
 129              	.LVL19:
 130              	.L13:
 366:lvgl/src/extra/libs/gif/gifdec.c ****     if (y < p) /* pass 3 */
 131              		.loc 1 366 17 view .LVU39
 132 0042 0330     		adds	r0, r0, #3
ARM GAS  C:\usertemp\ccoJaLKY.s 			page 10


 133              	.LVL20:
 366:lvgl/src/extra/libs/gif/gifdec.c ****     if (y < p) /* pass 3 */
 134              		.loc 1 366 17 view .LVU40
 135 0044 ECE7     		b	.L7
 136              	.LVL21:
 137              	.L14:
 368:lvgl/src/extra/libs/gif/gifdec.c ****     y -= p;
 138              		.loc 1 368 9 is_stmt 1 view .LVU41
 368:lvgl/src/extra/libs/gif/gifdec.c ****     y -= p;
 139              		.loc 1 368 18 is_stmt 0 view .LVU42
 140 0046 8900     		lsls	r1, r1, #2
 141              	.LVL22:
 368:lvgl/src/extra/libs/gif/gifdec.c ****     y -= p;
 142              		.loc 1 368 22 view .LVU43
 143 0048 881C     		adds	r0, r1, #2
 144              	.LVL23:
 368:lvgl/src/extra/libs/gif/gifdec.c ****     y -= p;
 145              		.loc 1 368 22 view .LVU44
 146 004a 7047     		bx	lr
 147              		.cfi_endproc
 148              	.LFE31:
 150              		.section	.text.render_frame_rect,"ax",%progbits
 151              		.align	1
 152              		.syntax unified
 153              		.thumb
 154              		.thumb_func
 156              	render_frame_rect:
 157              	.LVL24:
 158              	.LFB34:
 373:lvgl/src/extra/libs/gif/gifdec.c **** 
 374:lvgl/src/extra/libs/gif/gifdec.c **** /* Decompress image pixels.
 375:lvgl/src/extra/libs/gif/gifdec.c ****  * Return 0 on success or -1 on out-of-memory (w.r.t. LZW code table). */
 376:lvgl/src/extra/libs/gif/gifdec.c **** static int
 377:lvgl/src/extra/libs/gif/gifdec.c **** read_image_data(gd_GIF *gif, int interlace)
 378:lvgl/src/extra/libs/gif/gifdec.c **** {
 379:lvgl/src/extra/libs/gif/gifdec.c ****     uint8_t sub_len, shift, byte;
 380:lvgl/src/extra/libs/gif/gifdec.c ****     int init_key_size, key_size, table_is_full=0;
 381:lvgl/src/extra/libs/gif/gifdec.c ****     int frm_off, frm_size, str_len=0, i, p, x, y;
 382:lvgl/src/extra/libs/gif/gifdec.c ****     uint16_t key, clear, stop;
 383:lvgl/src/extra/libs/gif/gifdec.c ****     int ret;
 384:lvgl/src/extra/libs/gif/gifdec.c ****     Table *table;
 385:lvgl/src/extra/libs/gif/gifdec.c ****     Entry entry = {0};
 386:lvgl/src/extra/libs/gif/gifdec.c ****     size_t start, end;
 387:lvgl/src/extra/libs/gif/gifdec.c **** 
 388:lvgl/src/extra/libs/gif/gifdec.c ****     f_gif_read(gif, &byte, 1);
 389:lvgl/src/extra/libs/gif/gifdec.c ****     key_size = (int) byte;
 390:lvgl/src/extra/libs/gif/gifdec.c ****     start = f_gif_seek(gif, 0, LV_FS_SEEK_CUR);
 391:lvgl/src/extra/libs/gif/gifdec.c ****     discard_sub_blocks(gif);
 392:lvgl/src/extra/libs/gif/gifdec.c ****     end = f_gif_seek(gif, 0, LV_FS_SEEK_CUR);
 393:lvgl/src/extra/libs/gif/gifdec.c ****     f_gif_seek(gif, start, LV_FS_SEEK_SET);
 394:lvgl/src/extra/libs/gif/gifdec.c ****     clear = 1 << key_size;
 395:lvgl/src/extra/libs/gif/gifdec.c ****     stop = clear + 1;
 396:lvgl/src/extra/libs/gif/gifdec.c ****     table = new_table(key_size);
 397:lvgl/src/extra/libs/gif/gifdec.c ****     key_size++;
 398:lvgl/src/extra/libs/gif/gifdec.c ****     init_key_size = key_size;
 399:lvgl/src/extra/libs/gif/gifdec.c ****     sub_len = shift = 0;
 400:lvgl/src/extra/libs/gif/gifdec.c ****     key = get_key(gif, key_size, &sub_len, &shift, &byte); /* clear code */
ARM GAS  C:\usertemp\ccoJaLKY.s 			page 11


 401:lvgl/src/extra/libs/gif/gifdec.c ****     frm_off = 0;
 402:lvgl/src/extra/libs/gif/gifdec.c ****     ret = 0;
 403:lvgl/src/extra/libs/gif/gifdec.c ****     frm_size = gif->fw*gif->fh;
 404:lvgl/src/extra/libs/gif/gifdec.c ****     while (frm_off < frm_size) {
 405:lvgl/src/extra/libs/gif/gifdec.c ****         if (key == clear) {
 406:lvgl/src/extra/libs/gif/gifdec.c ****             key_size = init_key_size;
 407:lvgl/src/extra/libs/gif/gifdec.c ****             table->nentries = (1 << (key_size - 1)) + 2;
 408:lvgl/src/extra/libs/gif/gifdec.c ****             table_is_full = 0;
 409:lvgl/src/extra/libs/gif/gifdec.c ****         } else if (!table_is_full) {
 410:lvgl/src/extra/libs/gif/gifdec.c ****             ret = add_entry(&table, str_len + 1, key, entry.suffix);
 411:lvgl/src/extra/libs/gif/gifdec.c ****             if (ret == -1) {
 412:lvgl/src/extra/libs/gif/gifdec.c ****                 lv_mem_free(table);
 413:lvgl/src/extra/libs/gif/gifdec.c ****                 return -1;
 414:lvgl/src/extra/libs/gif/gifdec.c ****             }
 415:lvgl/src/extra/libs/gif/gifdec.c ****             if (table->nentries == 0x1000) {
 416:lvgl/src/extra/libs/gif/gifdec.c ****                 ret = 0;
 417:lvgl/src/extra/libs/gif/gifdec.c ****                 table_is_full = 1;
 418:lvgl/src/extra/libs/gif/gifdec.c ****             }
 419:lvgl/src/extra/libs/gif/gifdec.c ****         }
 420:lvgl/src/extra/libs/gif/gifdec.c ****         key = get_key(gif, key_size, &sub_len, &shift, &byte);
 421:lvgl/src/extra/libs/gif/gifdec.c ****         if (key == clear) continue;
 422:lvgl/src/extra/libs/gif/gifdec.c ****         if (key == stop || key == 0x1000) break;
 423:lvgl/src/extra/libs/gif/gifdec.c ****         if (ret == 1) key_size++;
 424:lvgl/src/extra/libs/gif/gifdec.c ****         entry = table->entries[key];
 425:lvgl/src/extra/libs/gif/gifdec.c ****         str_len = entry.length;
 426:lvgl/src/extra/libs/gif/gifdec.c ****         for (i = 0; i < str_len; i++) {
 427:lvgl/src/extra/libs/gif/gifdec.c ****             p = frm_off + entry.length - 1;
 428:lvgl/src/extra/libs/gif/gifdec.c ****             x = p % gif->fw;
 429:lvgl/src/extra/libs/gif/gifdec.c ****             y = p / gif->fw;
 430:lvgl/src/extra/libs/gif/gifdec.c ****             if (interlace)
 431:lvgl/src/extra/libs/gif/gifdec.c ****                 y = interlaced_line_index((int) gif->fh, y);
 432:lvgl/src/extra/libs/gif/gifdec.c ****             gif->frame[(gif->fy + y) * gif->width + gif->fx + x] = entry.suffix;
 433:lvgl/src/extra/libs/gif/gifdec.c ****             if (entry.prefix == 0xFFF)
 434:lvgl/src/extra/libs/gif/gifdec.c ****                 break;
 435:lvgl/src/extra/libs/gif/gifdec.c ****             else
 436:lvgl/src/extra/libs/gif/gifdec.c ****                 entry = table->entries[entry.prefix];
 437:lvgl/src/extra/libs/gif/gifdec.c ****         }
 438:lvgl/src/extra/libs/gif/gifdec.c ****         frm_off += str_len;
 439:lvgl/src/extra/libs/gif/gifdec.c ****         if (key < table->nentries - 1 && !table_is_full)
 440:lvgl/src/extra/libs/gif/gifdec.c ****             table->entries[table->nentries - 1].suffix = entry.suffix;
 441:lvgl/src/extra/libs/gif/gifdec.c ****     }
 442:lvgl/src/extra/libs/gif/gifdec.c ****     lv_mem_free(table);
 443:lvgl/src/extra/libs/gif/gifdec.c ****     if (key == stop) f_gif_read(gif, &sub_len, 1); /* Must be zero! */
 444:lvgl/src/extra/libs/gif/gifdec.c ****     f_gif_seek(gif, end, LV_FS_SEEK_SET);
 445:lvgl/src/extra/libs/gif/gifdec.c ****     return 0;
 446:lvgl/src/extra/libs/gif/gifdec.c **** }
 447:lvgl/src/extra/libs/gif/gifdec.c **** 
 448:lvgl/src/extra/libs/gif/gifdec.c **** /* Read image.
 449:lvgl/src/extra/libs/gif/gifdec.c ****  * Return 0 on success or -1 on out-of-memory (w.r.t. LZW code table). */
 450:lvgl/src/extra/libs/gif/gifdec.c **** static int
 451:lvgl/src/extra/libs/gif/gifdec.c **** read_image(gd_GIF *gif)
 452:lvgl/src/extra/libs/gif/gifdec.c **** {
 453:lvgl/src/extra/libs/gif/gifdec.c ****     uint8_t fisrz;
 454:lvgl/src/extra/libs/gif/gifdec.c ****     int interlace;
 455:lvgl/src/extra/libs/gif/gifdec.c **** 
 456:lvgl/src/extra/libs/gif/gifdec.c ****     /* Image Descriptor. */
 457:lvgl/src/extra/libs/gif/gifdec.c ****     gif->fx = read_num(gif);
ARM GAS  C:\usertemp\ccoJaLKY.s 			page 12


 458:lvgl/src/extra/libs/gif/gifdec.c ****     gif->fy = read_num(gif);
 459:lvgl/src/extra/libs/gif/gifdec.c ****     gif->fw = read_num(gif);
 460:lvgl/src/extra/libs/gif/gifdec.c ****     gif->fh = read_num(gif);
 461:lvgl/src/extra/libs/gif/gifdec.c ****     f_gif_read(gif, &fisrz, 1);
 462:lvgl/src/extra/libs/gif/gifdec.c ****     interlace = fisrz & 0x40;
 463:lvgl/src/extra/libs/gif/gifdec.c ****     /* Ignore Sort Flag. */
 464:lvgl/src/extra/libs/gif/gifdec.c ****     /* Local Color Table? */
 465:lvgl/src/extra/libs/gif/gifdec.c ****     if (fisrz & 0x80) {
 466:lvgl/src/extra/libs/gif/gifdec.c ****         /* Read LCT */
 467:lvgl/src/extra/libs/gif/gifdec.c ****         gif->lct.size = 1 << ((fisrz & 0x07) + 1);
 468:lvgl/src/extra/libs/gif/gifdec.c ****         f_gif_read(gif, gif->lct.colors, 3 * gif->lct.size);
 469:lvgl/src/extra/libs/gif/gifdec.c ****         gif->palette = &gif->lct;
 470:lvgl/src/extra/libs/gif/gifdec.c ****     } else
 471:lvgl/src/extra/libs/gif/gifdec.c ****         gif->palette = &gif->gct;
 472:lvgl/src/extra/libs/gif/gifdec.c ****     /* Image Data. */
 473:lvgl/src/extra/libs/gif/gifdec.c ****     return read_image_data(gif, interlace);
 474:lvgl/src/extra/libs/gif/gifdec.c **** }
 475:lvgl/src/extra/libs/gif/gifdec.c **** 
 476:lvgl/src/extra/libs/gif/gifdec.c **** static void
 477:lvgl/src/extra/libs/gif/gifdec.c **** render_frame_rect(gd_GIF *gif, uint8_t *buffer)
 478:lvgl/src/extra/libs/gif/gifdec.c **** {
 159              		.loc 1 478 1 is_stmt 1 view -0
 160              		.cfi_startproc
 161              		@ args = 0, pretend = 0, frame = 0
 162              		@ frame_needed = 0, uses_anonymous_args = 0
 163              		.loc 1 478 1 is_stmt 0 view .LVU46
 164 0000 2DE9F043 		push	{r4, r5, r6, r7, r8, r9, lr}
 165              	.LCFI0:
 166              		.cfi_def_cfa_offset 28
 167              		.cfi_offset 4, -28
 168              		.cfi_offset 5, -24
 169              		.cfi_offset 6, -20
 170              		.cfi_offset 7, -16
 171              		.cfi_offset 8, -12
 172              		.cfi_offset 9, -8
 173              		.cfi_offset 14, -4
 479:lvgl/src/extra/libs/gif/gifdec.c ****     int i, j, k;
 174              		.loc 1 479 5 is_stmt 1 view .LVU47
 480:lvgl/src/extra/libs/gif/gifdec.c ****     uint8_t index, *color;
 175              		.loc 1 480 5 view .LVU48
 481:lvgl/src/extra/libs/gif/gifdec.c ****     i = gif->fy * gif->width + gif->fx;
 176              		.loc 1 481 5 view .LVU49
 177              		.loc 1 481 12 is_stmt 0 view .LVU50
 178 0004 B0F84A36 		ldrh	r3, [r0, #1610]
 179              		.loc 1 481 22 view .LVU51
 180 0008 828B     		ldrh	r2, [r0, #28]
 181              		.loc 1 481 35 view .LVU52
 182 000a B0F84846 		ldrh	r4, [r0, #1608]
 183              		.loc 1 481 7 view .LVU53
 184 000e 02FB0349 		mla	r9, r2, r3, r4
 185              	.LVL25:
 482:lvgl/src/extra/libs/gif/gifdec.c ****     for (j = 0; j < gif->fh; j++) {
 186              		.loc 1 482 5 is_stmt 1 view .LVU54
 187              		.loc 1 482 12 is_stmt 0 view .LVU55
 188 0012 4FF0000E 		mov	lr, #0
 189              		.loc 1 482 5 view .LVU56
 190 0016 3BE0     		b	.L16
ARM GAS  C:\usertemp\ccoJaLKY.s 			page 13


 191              	.LVL26:
 192              	.L17:
 193              	.LBB12:
 483:lvgl/src/extra/libs/gif/gifdec.c ****         for (k = 0; k < gif->fw; k++) {
 484:lvgl/src/extra/libs/gif/gifdec.c ****             index = gif->frame[(gif->fy + j) * gif->width + gif->fx + k];
 485:lvgl/src/extra/libs/gif/gifdec.c ****             color = &gif->palette->colors[index*3];
 486:lvgl/src/extra/libs/gif/gifdec.c ****             if (!gif->gce.transparency || index != gif->gce.tindex) {
 487:lvgl/src/extra/libs/gif/gifdec.c **** #if LV_COLOR_DEPTH == 32
 488:lvgl/src/extra/libs/gif/gifdec.c ****                 buffer[(i+k)*4 + 0] = *(color + 2);
 489:lvgl/src/extra/libs/gif/gifdec.c ****                 buffer[(i+k)*4 + 1] = *(color + 1);
 490:lvgl/src/extra/libs/gif/gifdec.c ****                 buffer[(i+k)*4 + 2] = *(color + 0);
 491:lvgl/src/extra/libs/gif/gifdec.c ****                 buffer[(i+k)*4 + 3] = 0xFF;
 492:lvgl/src/extra/libs/gif/gifdec.c **** #elif LV_COLOR_DEPTH == 16
 493:lvgl/src/extra/libs/gif/gifdec.c ****                 lv_color_t c = lv_color_make(*(color + 0), *(color + 1), *(color + 2));
 194              		.loc 1 493 17 is_stmt 1 view .LVU57
 195              		.loc 1 493 32 is_stmt 0 view .LVU58
 196 0018 3D44     		add	r5, r5, r7
 197 001a 2D79     		ldrb	r5, [r5, #4]	@ zero_extendqisi2
 198 001c 5E78     		ldrb	r6, [r3, #1]	@ zero_extendqisi2
 199              	.LVL27:
 200              		.loc 1 493 32 view .LVU59
 201 001e 9F78     		ldrb	r7, [r3, #2]	@ zero_extendqisi2
 202              	.LVL28:
 203              	.LBB13:
 204              	.LBI13:
 205              		.file 2 "lvgl/src/extra/libs/gif/../../../misc/lv_color.h"
   1:lvgl/src/extra/libs/gif/../../../misc/lv_color.h **** /**
   2:lvgl/src/extra/libs/gif/../../../misc/lv_color.h ****  * @file lv_color.h
   3:lvgl/src/extra/libs/gif/../../../misc/lv_color.h ****  *
   4:lvgl/src/extra/libs/gif/../../../misc/lv_color.h ****  */
   5:lvgl/src/extra/libs/gif/../../../misc/lv_color.h **** 
   6:lvgl/src/extra/libs/gif/../../../misc/lv_color.h **** #ifndef LV_COLOR_H
   7:lvgl/src/extra/libs/gif/../../../misc/lv_color.h **** #define LV_COLOR_H
   8:lvgl/src/extra/libs/gif/../../../misc/lv_color.h **** 
   9:lvgl/src/extra/libs/gif/../../../misc/lv_color.h **** #ifdef __cplusplus
  10:lvgl/src/extra/libs/gif/../../../misc/lv_color.h **** extern "C" {
  11:lvgl/src/extra/libs/gif/../../../misc/lv_color.h **** #endif
  12:lvgl/src/extra/libs/gif/../../../misc/lv_color.h **** 
  13:lvgl/src/extra/libs/gif/../../../misc/lv_color.h **** /*********************
  14:lvgl/src/extra/libs/gif/../../../misc/lv_color.h ****  *      INCLUDES
  15:lvgl/src/extra/libs/gif/../../../misc/lv_color.h ****  *********************/
  16:lvgl/src/extra/libs/gif/../../../misc/lv_color.h **** #include "../lv_conf_internal.h"
  17:lvgl/src/extra/libs/gif/../../../misc/lv_color.h **** #include "lv_assert.h"
  18:lvgl/src/extra/libs/gif/../../../misc/lv_color.h **** #include "lv_math.h"
  19:lvgl/src/extra/libs/gif/../../../misc/lv_color.h **** #include "lv_types.h"
  20:lvgl/src/extra/libs/gif/../../../misc/lv_color.h **** 
  21:lvgl/src/extra/libs/gif/../../../misc/lv_color.h **** /*Error checking*/
  22:lvgl/src/extra/libs/gif/../../../misc/lv_color.h **** #if LV_COLOR_DEPTH == 24
  23:lvgl/src/extra/libs/gif/../../../misc/lv_color.h **** #error "LV_COLOR_DEPTH 24 is deprecated. Use LV_COLOR_DEPTH 32 instead (lv_conf.h)"
  24:lvgl/src/extra/libs/gif/../../../misc/lv_color.h **** #endif
  25:lvgl/src/extra/libs/gif/../../../misc/lv_color.h **** 
  26:lvgl/src/extra/libs/gif/../../../misc/lv_color.h **** #if LV_COLOR_DEPTH != 32 && LV_COLOR_SCREEN_TRANSP != 0
  27:lvgl/src/extra/libs/gif/../../../misc/lv_color.h **** #error "LV_COLOR_SCREEN_TRANSP requires LV_COLOR_DEPTH == 32. Set it in lv_conf.h"
  28:lvgl/src/extra/libs/gif/../../../misc/lv_color.h **** #endif
  29:lvgl/src/extra/libs/gif/../../../misc/lv_color.h **** 
  30:lvgl/src/extra/libs/gif/../../../misc/lv_color.h **** #if LV_COLOR_DEPTH != 16 && LV_COLOR_16_SWAP != 0
  31:lvgl/src/extra/libs/gif/../../../misc/lv_color.h **** #error "LV_COLOR_16_SWAP requires LV_COLOR_DEPTH == 16. Set it in lv_conf.h"
ARM GAS  C:\usertemp\ccoJaLKY.s 			page 14


  32:lvgl/src/extra/libs/gif/../../../misc/lv_color.h **** #endif
  33:lvgl/src/extra/libs/gif/../../../misc/lv_color.h **** 
  34:lvgl/src/extra/libs/gif/../../../misc/lv_color.h **** #include <stdint.h>
  35:lvgl/src/extra/libs/gif/../../../misc/lv_color.h **** 
  36:lvgl/src/extra/libs/gif/../../../misc/lv_color.h **** /*********************
  37:lvgl/src/extra/libs/gif/../../../misc/lv_color.h ****  *      DEFINES
  38:lvgl/src/extra/libs/gif/../../../misc/lv_color.h ****  *********************/
  39:lvgl/src/extra/libs/gif/../../../misc/lv_color.h **** LV_EXPORT_CONST_INT(LV_COLOR_DEPTH);
  40:lvgl/src/extra/libs/gif/../../../misc/lv_color.h **** LV_EXPORT_CONST_INT(LV_COLOR_16_SWAP);
  41:lvgl/src/extra/libs/gif/../../../misc/lv_color.h **** 
  42:lvgl/src/extra/libs/gif/../../../misc/lv_color.h **** /**
  43:lvgl/src/extra/libs/gif/../../../misc/lv_color.h ****  * Opacity percentages.
  44:lvgl/src/extra/libs/gif/../../../misc/lv_color.h ****  */
  45:lvgl/src/extra/libs/gif/../../../misc/lv_color.h **** enum {
  46:lvgl/src/extra/libs/gif/../../../misc/lv_color.h ****     LV_OPA_TRANSP = 0,
  47:lvgl/src/extra/libs/gif/../../../misc/lv_color.h ****     LV_OPA_0      = 0,
  48:lvgl/src/extra/libs/gif/../../../misc/lv_color.h ****     LV_OPA_10     = 25,
  49:lvgl/src/extra/libs/gif/../../../misc/lv_color.h ****     LV_OPA_20     = 51,
  50:lvgl/src/extra/libs/gif/../../../misc/lv_color.h ****     LV_OPA_30     = 76,
  51:lvgl/src/extra/libs/gif/../../../misc/lv_color.h ****     LV_OPA_40     = 102,
  52:lvgl/src/extra/libs/gif/../../../misc/lv_color.h ****     LV_OPA_50     = 127,
  53:lvgl/src/extra/libs/gif/../../../misc/lv_color.h ****     LV_OPA_60     = 153,
  54:lvgl/src/extra/libs/gif/../../../misc/lv_color.h ****     LV_OPA_70     = 178,
  55:lvgl/src/extra/libs/gif/../../../misc/lv_color.h ****     LV_OPA_80     = 204,
  56:lvgl/src/extra/libs/gif/../../../misc/lv_color.h ****     LV_OPA_90     = 229,
  57:lvgl/src/extra/libs/gif/../../../misc/lv_color.h ****     LV_OPA_100    = 255,
  58:lvgl/src/extra/libs/gif/../../../misc/lv_color.h ****     LV_OPA_COVER  = 255,
  59:lvgl/src/extra/libs/gif/../../../misc/lv_color.h **** };
  60:lvgl/src/extra/libs/gif/../../../misc/lv_color.h **** 
  61:lvgl/src/extra/libs/gif/../../../misc/lv_color.h **** #define LV_OPA_MIN 2    /*Opacities below this will be transparent*/
  62:lvgl/src/extra/libs/gif/../../../misc/lv_color.h **** #define LV_OPA_MAX 253  /*Opacities above this will fully cover*/
  63:lvgl/src/extra/libs/gif/../../../misc/lv_color.h **** 
  64:lvgl/src/extra/libs/gif/../../../misc/lv_color.h **** #if LV_COLOR_DEPTH == 1
  65:lvgl/src/extra/libs/gif/../../../misc/lv_color.h **** #define LV_COLOR_SIZE 8
  66:lvgl/src/extra/libs/gif/../../../misc/lv_color.h **** #elif LV_COLOR_DEPTH == 8
  67:lvgl/src/extra/libs/gif/../../../misc/lv_color.h **** #define LV_COLOR_SIZE 8
  68:lvgl/src/extra/libs/gif/../../../misc/lv_color.h **** #elif LV_COLOR_DEPTH == 16
  69:lvgl/src/extra/libs/gif/../../../misc/lv_color.h **** #define LV_COLOR_SIZE 16
  70:lvgl/src/extra/libs/gif/../../../misc/lv_color.h **** #elif LV_COLOR_DEPTH == 32
  71:lvgl/src/extra/libs/gif/../../../misc/lv_color.h **** #define LV_COLOR_SIZE 32
  72:lvgl/src/extra/libs/gif/../../../misc/lv_color.h **** #else
  73:lvgl/src/extra/libs/gif/../../../misc/lv_color.h **** #error "Invalid LV_COLOR_DEPTH in lv_conf.h! Set it to 1, 8, 16 or 32!"
  74:lvgl/src/extra/libs/gif/../../../misc/lv_color.h **** #endif
  75:lvgl/src/extra/libs/gif/../../../misc/lv_color.h **** 
  76:lvgl/src/extra/libs/gif/../../../misc/lv_color.h **** #if defined(__cplusplus) && !defined(_LV_COLOR_HAS_MODERN_CPP)
  77:lvgl/src/extra/libs/gif/../../../misc/lv_color.h **** /**
  78:lvgl/src/extra/libs/gif/../../../misc/lv_color.h **** * MSVC compiler's definition of the __cplusplus indicating 199711L regardless to C++ standard versi
  79:lvgl/src/extra/libs/gif/../../../misc/lv_color.h **** * see https://devblogs.microsoft.com/cppblog/msvc-now-correctly-reports-cplusplus
  80:lvgl/src/extra/libs/gif/../../../misc/lv_color.h **** * so we use _MSC_VER macro instead of __cplusplus
  81:lvgl/src/extra/libs/gif/../../../misc/lv_color.h **** */
  82:lvgl/src/extra/libs/gif/../../../misc/lv_color.h **** #ifdef _MSC_VER
  83:lvgl/src/extra/libs/gif/../../../misc/lv_color.h **** #if _MSC_VER >= 1900 /*Visual Studio 2015*/
  84:lvgl/src/extra/libs/gif/../../../misc/lv_color.h **** #define _LV_COLOR_HAS_MODERN_CPP 1
  85:lvgl/src/extra/libs/gif/../../../misc/lv_color.h **** #endif
  86:lvgl/src/extra/libs/gif/../../../misc/lv_color.h **** #else
  87:lvgl/src/extra/libs/gif/../../../misc/lv_color.h **** #if __cplusplus >= 201103L
  88:lvgl/src/extra/libs/gif/../../../misc/lv_color.h **** #define _LV_COLOR_HAS_MODERN_CPP 1
ARM GAS  C:\usertemp\ccoJaLKY.s 			page 15


  89:lvgl/src/extra/libs/gif/../../../misc/lv_color.h **** #endif
  90:lvgl/src/extra/libs/gif/../../../misc/lv_color.h **** #endif
  91:lvgl/src/extra/libs/gif/../../../misc/lv_color.h **** #endif /*__cplusplus*/
  92:lvgl/src/extra/libs/gif/../../../misc/lv_color.h **** 
  93:lvgl/src/extra/libs/gif/../../../misc/lv_color.h **** #ifndef _LV_COLOR_HAS_MODERN_CPP
  94:lvgl/src/extra/libs/gif/../../../misc/lv_color.h **** #define _LV_COLOR_HAS_MODERN_CPP 0
  95:lvgl/src/extra/libs/gif/../../../misc/lv_color.h **** #endif
  96:lvgl/src/extra/libs/gif/../../../misc/lv_color.h **** 
  97:lvgl/src/extra/libs/gif/../../../misc/lv_color.h **** #if _LV_COLOR_HAS_MODERN_CPP
  98:lvgl/src/extra/libs/gif/../../../misc/lv_color.h **** /*Fix msvc compiler error C4576 inside C++ code*/
  99:lvgl/src/extra/libs/gif/../../../misc/lv_color.h **** #define _LV_COLOR_MAKE_TYPE_HELPER lv_color_t
 100:lvgl/src/extra/libs/gif/../../../misc/lv_color.h **** #else
 101:lvgl/src/extra/libs/gif/../../../misc/lv_color.h **** #define _LV_COLOR_MAKE_TYPE_HELPER (lv_color_t)
 102:lvgl/src/extra/libs/gif/../../../misc/lv_color.h **** #endif
 103:lvgl/src/extra/libs/gif/../../../misc/lv_color.h **** 
 104:lvgl/src/extra/libs/gif/../../../misc/lv_color.h **** /*---------------------------------------
 105:lvgl/src/extra/libs/gif/../../../misc/lv_color.h ****  * Macros for all existing color depths
 106:lvgl/src/extra/libs/gif/../../../misc/lv_color.h ****  * to set/get values of the color channels
 107:lvgl/src/extra/libs/gif/../../../misc/lv_color.h ****  *------------------------------------------*/
 108:lvgl/src/extra/libs/gif/../../../misc/lv_color.h **** # define LV_COLOR_SET_R1(c, v) (c).ch.red = (uint8_t)((v) & 0x1)
 109:lvgl/src/extra/libs/gif/../../../misc/lv_color.h **** # define LV_COLOR_SET_G1(c, v) (c).ch.green = (uint8_t)((v) & 0x1)
 110:lvgl/src/extra/libs/gif/../../../misc/lv_color.h **** # define LV_COLOR_SET_B1(c, v) (c).ch.blue = (uint8_t)((v) & 0x1)
 111:lvgl/src/extra/libs/gif/../../../misc/lv_color.h **** # define LV_COLOR_SET_A1(c, v) do {} while(0)
 112:lvgl/src/extra/libs/gif/../../../misc/lv_color.h **** 
 113:lvgl/src/extra/libs/gif/../../../misc/lv_color.h **** # define LV_COLOR_GET_R1(c) (c).ch.red
 114:lvgl/src/extra/libs/gif/../../../misc/lv_color.h **** # define LV_COLOR_GET_G1(c) (c).ch.green
 115:lvgl/src/extra/libs/gif/../../../misc/lv_color.h **** # define LV_COLOR_GET_B1(c) (c).ch.blue
 116:lvgl/src/extra/libs/gif/../../../misc/lv_color.h **** # define LV_COLOR_GET_A1(c) 0xFF
 117:lvgl/src/extra/libs/gif/../../../misc/lv_color.h **** 
 118:lvgl/src/extra/libs/gif/../../../misc/lv_color.h **** # define _LV_COLOR_ZERO_INITIALIZER1 {0x00}
 119:lvgl/src/extra/libs/gif/../../../misc/lv_color.h **** # define LV_COLOR_MAKE1(r8, g8, b8)  {(uint8_t)((b8 >> 7) | (g8 >> 7) | (r8 >> 7))}
 120:lvgl/src/extra/libs/gif/../../../misc/lv_color.h **** 
 121:lvgl/src/extra/libs/gif/../../../misc/lv_color.h **** # define LV_COLOR_SET_R8(c, v) (c).ch.red = (uint8_t)((v) & 0x7U)
 122:lvgl/src/extra/libs/gif/../../../misc/lv_color.h **** # define LV_COLOR_SET_G8(c, v) (c).ch.green = (uint8_t)((v) & 0x7U)
 123:lvgl/src/extra/libs/gif/../../../misc/lv_color.h **** # define LV_COLOR_SET_B8(c, v) (c).ch.blue = (uint8_t)((v) & 0x3U)
 124:lvgl/src/extra/libs/gif/../../../misc/lv_color.h **** # define LV_COLOR_SET_A8(c, v) do {} while(0)
 125:lvgl/src/extra/libs/gif/../../../misc/lv_color.h **** 
 126:lvgl/src/extra/libs/gif/../../../misc/lv_color.h **** # define LV_COLOR_GET_R8(c) (c).ch.red
 127:lvgl/src/extra/libs/gif/../../../misc/lv_color.h **** # define LV_COLOR_GET_G8(c) (c).ch.green
 128:lvgl/src/extra/libs/gif/../../../misc/lv_color.h **** # define LV_COLOR_GET_B8(c) (c).ch.blue
 129:lvgl/src/extra/libs/gif/../../../misc/lv_color.h **** # define LV_COLOR_GET_A8(c) 0xFF
 130:lvgl/src/extra/libs/gif/../../../misc/lv_color.h **** 
 131:lvgl/src/extra/libs/gif/../../../misc/lv_color.h **** # define _LV_COLOR_ZERO_INITIALIZER8 {{0x00, 0x00, 0x00}}
 132:lvgl/src/extra/libs/gif/../../../misc/lv_color.h **** # define LV_COLOR_MAKE8(r8, g8, b8) {{(uint8_t)((b8 >> 6) & 0x3U), (uint8_t)((g8 >> 5) & 0x7U), (ui
 133:lvgl/src/extra/libs/gif/../../../misc/lv_color.h **** 
 134:lvgl/src/extra/libs/gif/../../../misc/lv_color.h **** # define LV_COLOR_SET_R16(c, v) (c).ch.red = (uint8_t)((v) & 0x1FU)
 135:lvgl/src/extra/libs/gif/../../../misc/lv_color.h **** #if LV_COLOR_16_SWAP == 0
 136:lvgl/src/extra/libs/gif/../../../misc/lv_color.h **** # define LV_COLOR_SET_G16(c, v) (c).ch.green = (uint8_t)((v) & 0x3FU)
 137:lvgl/src/extra/libs/gif/../../../misc/lv_color.h **** #else
 138:lvgl/src/extra/libs/gif/../../../misc/lv_color.h **** # define LV_COLOR_SET_G16(c, v) {(c).ch.green_h = (uint8_t)(((v) >> 3) & 0x7); (c).ch.green_l = (ui
 139:lvgl/src/extra/libs/gif/../../../misc/lv_color.h **** #endif
 140:lvgl/src/extra/libs/gif/../../../misc/lv_color.h **** # define LV_COLOR_SET_B16(c, v) (c).ch.blue = (uint8_t)((v) & 0x1FU)
 141:lvgl/src/extra/libs/gif/../../../misc/lv_color.h **** # define LV_COLOR_SET_A16(c, v) do {} while(0)
 142:lvgl/src/extra/libs/gif/../../../misc/lv_color.h **** 
 143:lvgl/src/extra/libs/gif/../../../misc/lv_color.h **** # define LV_COLOR_GET_R16(c) (c).ch.red
 144:lvgl/src/extra/libs/gif/../../../misc/lv_color.h **** #if LV_COLOR_16_SWAP == 0
 145:lvgl/src/extra/libs/gif/../../../misc/lv_color.h **** # define LV_COLOR_GET_G16(c) (c).ch.green
ARM GAS  C:\usertemp\ccoJaLKY.s 			page 16


 146:lvgl/src/extra/libs/gif/../../../misc/lv_color.h **** #else
 147:lvgl/src/extra/libs/gif/../../../misc/lv_color.h **** # define LV_COLOR_GET_G16(c) (((c).ch.green_h << 3) + (c).ch.green_l)
 148:lvgl/src/extra/libs/gif/../../../misc/lv_color.h **** #endif
 149:lvgl/src/extra/libs/gif/../../../misc/lv_color.h **** # define LV_COLOR_GET_B16(c) (c).ch.blue
 150:lvgl/src/extra/libs/gif/../../../misc/lv_color.h **** # define LV_COLOR_GET_A16(c) 0xFF
 151:lvgl/src/extra/libs/gif/../../../misc/lv_color.h **** 
 152:lvgl/src/extra/libs/gif/../../../misc/lv_color.h **** #if LV_COLOR_16_SWAP == 0
 153:lvgl/src/extra/libs/gif/../../../misc/lv_color.h **** # define _LV_COLOR_ZERO_INITIALIZER16  {{0x00, 0x00, 0x00}}
 154:lvgl/src/extra/libs/gif/../../../misc/lv_color.h **** # define LV_COLOR_MAKE16(r8, g8, b8) {{(uint8_t)((b8 >> 3) & 0x1FU), (uint8_t)((g8 >> 2) & 0x3FU), 
 155:lvgl/src/extra/libs/gif/../../../misc/lv_color.h **** #else
 156:lvgl/src/extra/libs/gif/../../../misc/lv_color.h **** # define _LV_COLOR_ZERO_INITIALIZER16 {{0x00, 0x00, 0x00, 0x00}}
 157:lvgl/src/extra/libs/gif/../../../misc/lv_color.h **** # define LV_COLOR_MAKE16(r8, g8, b8) {{(uint8_t)((g8 >> 5) & 0x7U), (uint8_t)((r8 >> 3) & 0x1FU), (
 158:lvgl/src/extra/libs/gif/../../../misc/lv_color.h **** #endif
 159:lvgl/src/extra/libs/gif/../../../misc/lv_color.h **** 
 160:lvgl/src/extra/libs/gif/../../../misc/lv_color.h **** # define LV_COLOR_SET_R32(c, v) (c).ch.red = (uint8_t)((v) & 0xFF)
 161:lvgl/src/extra/libs/gif/../../../misc/lv_color.h **** # define LV_COLOR_SET_G32(c, v) (c).ch.green = (uint8_t)((v) & 0xFF)
 162:lvgl/src/extra/libs/gif/../../../misc/lv_color.h **** # define LV_COLOR_SET_B32(c, v) (c).ch.blue = (uint8_t)((v) & 0xFF)
 163:lvgl/src/extra/libs/gif/../../../misc/lv_color.h **** # define LV_COLOR_SET_A32(c, v) (c).ch.alpha = (uint8_t)((v) & 0xFF)
 164:lvgl/src/extra/libs/gif/../../../misc/lv_color.h **** 
 165:lvgl/src/extra/libs/gif/../../../misc/lv_color.h **** # define LV_COLOR_GET_R32(c) (c).ch.red
 166:lvgl/src/extra/libs/gif/../../../misc/lv_color.h **** # define LV_COLOR_GET_G32(c) (c).ch.green
 167:lvgl/src/extra/libs/gif/../../../misc/lv_color.h **** # define LV_COLOR_GET_B32(c) (c).ch.blue
 168:lvgl/src/extra/libs/gif/../../../misc/lv_color.h **** # define LV_COLOR_GET_A32(c) (c).ch.alpha
 169:lvgl/src/extra/libs/gif/../../../misc/lv_color.h **** 
 170:lvgl/src/extra/libs/gif/../../../misc/lv_color.h **** # define _LV_COLOR_ZERO_INITIALIZER32  {{0x00, 0x00, 0x00, 0x00}}
 171:lvgl/src/extra/libs/gif/../../../misc/lv_color.h **** # define LV_COLOR_MAKE32(r8, g8, b8) {{b8, g8, r8, 0xff}} /*Fix 0xff alpha*/
 172:lvgl/src/extra/libs/gif/../../../misc/lv_color.h **** 
 173:lvgl/src/extra/libs/gif/../../../misc/lv_color.h **** /*---------------------------------------
 174:lvgl/src/extra/libs/gif/../../../misc/lv_color.h ****  * Macros for the current color depth
 175:lvgl/src/extra/libs/gif/../../../misc/lv_color.h ****  * to set/get values of the color channels
 176:lvgl/src/extra/libs/gif/../../../misc/lv_color.h ****  *------------------------------------------*/
 177:lvgl/src/extra/libs/gif/../../../misc/lv_color.h **** #define LV_COLOR_SET_R(c, v) LV_CONCAT(LV_COLOR_SET_R, LV_COLOR_DEPTH)(c, v)
 178:lvgl/src/extra/libs/gif/../../../misc/lv_color.h **** #define LV_COLOR_SET_G(c, v) LV_CONCAT(LV_COLOR_SET_G, LV_COLOR_DEPTH)(c, v)
 179:lvgl/src/extra/libs/gif/../../../misc/lv_color.h **** #define LV_COLOR_SET_B(c, v) LV_CONCAT(LV_COLOR_SET_B, LV_COLOR_DEPTH)(c, v)
 180:lvgl/src/extra/libs/gif/../../../misc/lv_color.h **** #define LV_COLOR_SET_A(c, v) LV_CONCAT(LV_COLOR_SET_A, LV_COLOR_DEPTH)(c, v)
 181:lvgl/src/extra/libs/gif/../../../misc/lv_color.h **** 
 182:lvgl/src/extra/libs/gif/../../../misc/lv_color.h **** #define LV_COLOR_GET_R(c) LV_CONCAT(LV_COLOR_GET_R, LV_COLOR_DEPTH)(c)
 183:lvgl/src/extra/libs/gif/../../../misc/lv_color.h **** #define LV_COLOR_GET_G(c) LV_CONCAT(LV_COLOR_GET_G, LV_COLOR_DEPTH)(c)
 184:lvgl/src/extra/libs/gif/../../../misc/lv_color.h **** #define LV_COLOR_GET_B(c) LV_CONCAT(LV_COLOR_GET_B, LV_COLOR_DEPTH)(c)
 185:lvgl/src/extra/libs/gif/../../../misc/lv_color.h **** #define LV_COLOR_GET_A(c) LV_CONCAT(LV_COLOR_GET_A, LV_COLOR_DEPTH)(c)
 186:lvgl/src/extra/libs/gif/../../../misc/lv_color.h **** 
 187:lvgl/src/extra/libs/gif/../../../misc/lv_color.h **** #define _LV_COLOR_ZERO_INITIALIZER LV_CONCAT(_LV_COLOR_ZERO_INITIALIZER, LV_COLOR_DEPTH)
 188:lvgl/src/extra/libs/gif/../../../misc/lv_color.h **** #define LV_COLOR_MAKE(r8, g8, b8) LV_CONCAT(LV_COLOR_MAKE, LV_COLOR_DEPTH)(r8, g8, b8)
 189:lvgl/src/extra/libs/gif/../../../misc/lv_color.h **** 
 190:lvgl/src/extra/libs/gif/../../../misc/lv_color.h **** /**********************
 191:lvgl/src/extra/libs/gif/../../../misc/lv_color.h ****  *      TYPEDEFS
 192:lvgl/src/extra/libs/gif/../../../misc/lv_color.h ****  **********************/
 193:lvgl/src/extra/libs/gif/../../../misc/lv_color.h **** 
 194:lvgl/src/extra/libs/gif/../../../misc/lv_color.h **** typedef union {
 195:lvgl/src/extra/libs/gif/../../../misc/lv_color.h ****     uint8_t full; /*must be declared first to set all bits of byte via initializer list*/
 196:lvgl/src/extra/libs/gif/../../../misc/lv_color.h ****     union {
 197:lvgl/src/extra/libs/gif/../../../misc/lv_color.h ****         uint8_t blue : 1;
 198:lvgl/src/extra/libs/gif/../../../misc/lv_color.h ****         uint8_t green : 1;
 199:lvgl/src/extra/libs/gif/../../../misc/lv_color.h ****         uint8_t red : 1;
 200:lvgl/src/extra/libs/gif/../../../misc/lv_color.h ****     } ch;
 201:lvgl/src/extra/libs/gif/../../../misc/lv_color.h **** } lv_color1_t;
 202:lvgl/src/extra/libs/gif/../../../misc/lv_color.h **** 
ARM GAS  C:\usertemp\ccoJaLKY.s 			page 17


 203:lvgl/src/extra/libs/gif/../../../misc/lv_color.h **** typedef union {
 204:lvgl/src/extra/libs/gif/../../../misc/lv_color.h ****     struct {
 205:lvgl/src/extra/libs/gif/../../../misc/lv_color.h ****         uint8_t blue : 2;
 206:lvgl/src/extra/libs/gif/../../../misc/lv_color.h ****         uint8_t green : 3;
 207:lvgl/src/extra/libs/gif/../../../misc/lv_color.h ****         uint8_t red : 3;
 208:lvgl/src/extra/libs/gif/../../../misc/lv_color.h ****     } ch;
 209:lvgl/src/extra/libs/gif/../../../misc/lv_color.h ****     uint8_t full;
 210:lvgl/src/extra/libs/gif/../../../misc/lv_color.h **** } lv_color8_t;
 211:lvgl/src/extra/libs/gif/../../../misc/lv_color.h **** 
 212:lvgl/src/extra/libs/gif/../../../misc/lv_color.h **** typedef union {
 213:lvgl/src/extra/libs/gif/../../../misc/lv_color.h ****     struct {
 214:lvgl/src/extra/libs/gif/../../../misc/lv_color.h **** #if LV_COLOR_16_SWAP == 0
 215:lvgl/src/extra/libs/gif/../../../misc/lv_color.h ****         uint16_t blue : 5;
 216:lvgl/src/extra/libs/gif/../../../misc/lv_color.h ****         uint16_t green : 6;
 217:lvgl/src/extra/libs/gif/../../../misc/lv_color.h ****         uint16_t red : 5;
 218:lvgl/src/extra/libs/gif/../../../misc/lv_color.h **** #else
 219:lvgl/src/extra/libs/gif/../../../misc/lv_color.h ****         uint16_t green_h : 3;
 220:lvgl/src/extra/libs/gif/../../../misc/lv_color.h ****         uint16_t red : 5;
 221:lvgl/src/extra/libs/gif/../../../misc/lv_color.h ****         uint16_t blue : 5;
 222:lvgl/src/extra/libs/gif/../../../misc/lv_color.h ****         uint16_t green_l : 3;
 223:lvgl/src/extra/libs/gif/../../../misc/lv_color.h **** #endif
 224:lvgl/src/extra/libs/gif/../../../misc/lv_color.h ****     } ch;
 225:lvgl/src/extra/libs/gif/../../../misc/lv_color.h ****     uint16_t full;
 226:lvgl/src/extra/libs/gif/../../../misc/lv_color.h **** } lv_color16_t;
 227:lvgl/src/extra/libs/gif/../../../misc/lv_color.h **** 
 228:lvgl/src/extra/libs/gif/../../../misc/lv_color.h **** typedef union {
 229:lvgl/src/extra/libs/gif/../../../misc/lv_color.h ****     struct {
 230:lvgl/src/extra/libs/gif/../../../misc/lv_color.h ****         uint8_t blue;
 231:lvgl/src/extra/libs/gif/../../../misc/lv_color.h ****         uint8_t green;
 232:lvgl/src/extra/libs/gif/../../../misc/lv_color.h ****         uint8_t red;
 233:lvgl/src/extra/libs/gif/../../../misc/lv_color.h ****         uint8_t alpha;
 234:lvgl/src/extra/libs/gif/../../../misc/lv_color.h ****     } ch;
 235:lvgl/src/extra/libs/gif/../../../misc/lv_color.h ****     uint32_t full;
 236:lvgl/src/extra/libs/gif/../../../misc/lv_color.h **** } lv_color32_t;
 237:lvgl/src/extra/libs/gif/../../../misc/lv_color.h **** 
 238:lvgl/src/extra/libs/gif/../../../misc/lv_color.h **** typedef LV_CONCAT3(uint, LV_COLOR_SIZE, _t) lv_color_int_t;
 239:lvgl/src/extra/libs/gif/../../../misc/lv_color.h **** typedef LV_CONCAT3(lv_color, LV_COLOR_DEPTH, _t) lv_color_t;
 240:lvgl/src/extra/libs/gif/../../../misc/lv_color.h **** 
 241:lvgl/src/extra/libs/gif/../../../misc/lv_color.h **** typedef struct {
 242:lvgl/src/extra/libs/gif/../../../misc/lv_color.h ****     uint16_t h;
 243:lvgl/src/extra/libs/gif/../../../misc/lv_color.h ****     uint8_t s;
 244:lvgl/src/extra/libs/gif/../../../misc/lv_color.h ****     uint8_t v;
 245:lvgl/src/extra/libs/gif/../../../misc/lv_color.h **** } lv_color_hsv_t;
 246:lvgl/src/extra/libs/gif/../../../misc/lv_color.h **** 
 247:lvgl/src/extra/libs/gif/../../../misc/lv_color.h **** //! @cond Doxygen_Suppress
 248:lvgl/src/extra/libs/gif/../../../misc/lv_color.h **** /*No idea where the guard is required but else throws warnings in the docs*/
 249:lvgl/src/extra/libs/gif/../../../misc/lv_color.h **** typedef uint8_t lv_opa_t;
 250:lvgl/src/extra/libs/gif/../../../misc/lv_color.h **** //! @endcond
 251:lvgl/src/extra/libs/gif/../../../misc/lv_color.h **** 
 252:lvgl/src/extra/libs/gif/../../../misc/lv_color.h **** struct _lv_color_filter_dsc_t;
 253:lvgl/src/extra/libs/gif/../../../misc/lv_color.h **** 
 254:lvgl/src/extra/libs/gif/../../../misc/lv_color.h **** typedef lv_color_t (*lv_color_filter_cb_t)(const struct _lv_color_filter_dsc_t *, lv_color_t, lv_op
 255:lvgl/src/extra/libs/gif/../../../misc/lv_color.h **** 
 256:lvgl/src/extra/libs/gif/../../../misc/lv_color.h **** typedef struct _lv_color_filter_dsc_t {
 257:lvgl/src/extra/libs/gif/../../../misc/lv_color.h ****     lv_color_filter_cb_t filter_cb;
 258:lvgl/src/extra/libs/gif/../../../misc/lv_color.h ****     void * user_data;
 259:lvgl/src/extra/libs/gif/../../../misc/lv_color.h **** } lv_color_filter_dsc_t;
ARM GAS  C:\usertemp\ccoJaLKY.s 			page 18


 260:lvgl/src/extra/libs/gif/../../../misc/lv_color.h **** 
 261:lvgl/src/extra/libs/gif/../../../misc/lv_color.h **** 
 262:lvgl/src/extra/libs/gif/../../../misc/lv_color.h **** typedef enum {
 263:lvgl/src/extra/libs/gif/../../../misc/lv_color.h ****     LV_PALETTE_RED,
 264:lvgl/src/extra/libs/gif/../../../misc/lv_color.h ****     LV_PALETTE_PINK,
 265:lvgl/src/extra/libs/gif/../../../misc/lv_color.h ****     LV_PALETTE_PURPLE,
 266:lvgl/src/extra/libs/gif/../../../misc/lv_color.h ****     LV_PALETTE_DEEP_PURPLE,
 267:lvgl/src/extra/libs/gif/../../../misc/lv_color.h ****     LV_PALETTE_INDIGO,
 268:lvgl/src/extra/libs/gif/../../../misc/lv_color.h ****     LV_PALETTE_BLUE,
 269:lvgl/src/extra/libs/gif/../../../misc/lv_color.h ****     LV_PALETTE_LIGHT_BLUE,
 270:lvgl/src/extra/libs/gif/../../../misc/lv_color.h ****     LV_PALETTE_CYAN,
 271:lvgl/src/extra/libs/gif/../../../misc/lv_color.h ****     LV_PALETTE_TEAL,
 272:lvgl/src/extra/libs/gif/../../../misc/lv_color.h ****     LV_PALETTE_GREEN,
 273:lvgl/src/extra/libs/gif/../../../misc/lv_color.h ****     LV_PALETTE_LIGHT_GREEN,
 274:lvgl/src/extra/libs/gif/../../../misc/lv_color.h ****     LV_PALETTE_LIME,
 275:lvgl/src/extra/libs/gif/../../../misc/lv_color.h ****     LV_PALETTE_YELLOW,
 276:lvgl/src/extra/libs/gif/../../../misc/lv_color.h ****     LV_PALETTE_AMBER,
 277:lvgl/src/extra/libs/gif/../../../misc/lv_color.h ****     LV_PALETTE_ORANGE,
 278:lvgl/src/extra/libs/gif/../../../misc/lv_color.h ****     LV_PALETTE_DEEP_ORANGE,
 279:lvgl/src/extra/libs/gif/../../../misc/lv_color.h ****     LV_PALETTE_BROWN,
 280:lvgl/src/extra/libs/gif/../../../misc/lv_color.h ****     LV_PALETTE_BLUE_GREY,
 281:lvgl/src/extra/libs/gif/../../../misc/lv_color.h ****     LV_PALETTE_GREY,
 282:lvgl/src/extra/libs/gif/../../../misc/lv_color.h ****     _LV_PALETTE_LAST,
 283:lvgl/src/extra/libs/gif/../../../misc/lv_color.h ****     LV_PALETTE_NONE = 0xff,
 284:lvgl/src/extra/libs/gif/../../../misc/lv_color.h **** } lv_palette_t;
 285:lvgl/src/extra/libs/gif/../../../misc/lv_color.h **** 
 286:lvgl/src/extra/libs/gif/../../../misc/lv_color.h **** /**********************
 287:lvgl/src/extra/libs/gif/../../../misc/lv_color.h ****  * GLOBAL PROTOTYPES
 288:lvgl/src/extra/libs/gif/../../../misc/lv_color.h ****  **********************/
 289:lvgl/src/extra/libs/gif/../../../misc/lv_color.h **** 
 290:lvgl/src/extra/libs/gif/../../../misc/lv_color.h **** /*In color conversations:
 291:lvgl/src/extra/libs/gif/../../../misc/lv_color.h ****  * - When converting to bigger color type the LSB weight of 1 LSB is calculated
 292:lvgl/src/extra/libs/gif/../../../misc/lv_color.h ****  *   E.g. 16 bit Red has 5 bits
 293:lvgl/src/extra/libs/gif/../../../misc/lv_color.h ****  *         8 bit Red has 3 bits
 294:lvgl/src/extra/libs/gif/../../../misc/lv_color.h ****  *        ----------------------
 295:lvgl/src/extra/libs/gif/../../../misc/lv_color.h ****  *        8 bit red LSB = (2^5 - 1) / (2^3 - 1) = 31 / 7 = 4
 296:lvgl/src/extra/libs/gif/../../../misc/lv_color.h ****  *
 297:lvgl/src/extra/libs/gif/../../../misc/lv_color.h ****  * - When calculating to smaller color type simply shift out the LSBs
 298:lvgl/src/extra/libs/gif/../../../misc/lv_color.h ****  *   E.g.  8 bit Red has 3 bits
 299:lvgl/src/extra/libs/gif/../../../misc/lv_color.h ****  *        16 bit Red has 5 bits
 300:lvgl/src/extra/libs/gif/../../../misc/lv_color.h ****  *        ----------------------
 301:lvgl/src/extra/libs/gif/../../../misc/lv_color.h ****  *         Shift right with 5 - 3 = 2
 302:lvgl/src/extra/libs/gif/../../../misc/lv_color.h ****  */
 303:lvgl/src/extra/libs/gif/../../../misc/lv_color.h **** static inline uint8_t lv_color_to1(lv_color_t color)
 304:lvgl/src/extra/libs/gif/../../../misc/lv_color.h **** {
 305:lvgl/src/extra/libs/gif/../../../misc/lv_color.h **** #if LV_COLOR_DEPTH == 1
 306:lvgl/src/extra/libs/gif/../../../misc/lv_color.h ****     return color.full;
 307:lvgl/src/extra/libs/gif/../../../misc/lv_color.h **** #elif LV_COLOR_DEPTH == 8
 308:lvgl/src/extra/libs/gif/../../../misc/lv_color.h ****     if((LV_COLOR_GET_R(color) & 0x4) || (LV_COLOR_GET_G(color) & 0x4) || (LV_COLOR_GET_B(color) & 0
 309:lvgl/src/extra/libs/gif/../../../misc/lv_color.h ****         return 1;
 310:lvgl/src/extra/libs/gif/../../../misc/lv_color.h ****     }
 311:lvgl/src/extra/libs/gif/../../../misc/lv_color.h ****     else {
 312:lvgl/src/extra/libs/gif/../../../misc/lv_color.h ****         return 0;
 313:lvgl/src/extra/libs/gif/../../../misc/lv_color.h ****     }
 314:lvgl/src/extra/libs/gif/../../../misc/lv_color.h **** #elif LV_COLOR_DEPTH == 16
 315:lvgl/src/extra/libs/gif/../../../misc/lv_color.h ****     if((LV_COLOR_GET_R(color) & 0x10) || (LV_COLOR_GET_G(color) & 0x20) || (LV_COLOR_GET_B(color) &
 316:lvgl/src/extra/libs/gif/../../../misc/lv_color.h ****         return 1;
ARM GAS  C:\usertemp\ccoJaLKY.s 			page 19


 317:lvgl/src/extra/libs/gif/../../../misc/lv_color.h ****     }
 318:lvgl/src/extra/libs/gif/../../../misc/lv_color.h ****     else {
 319:lvgl/src/extra/libs/gif/../../../misc/lv_color.h ****         return 0;
 320:lvgl/src/extra/libs/gif/../../../misc/lv_color.h ****     }
 321:lvgl/src/extra/libs/gif/../../../misc/lv_color.h **** #elif LV_COLOR_DEPTH == 32
 322:lvgl/src/extra/libs/gif/../../../misc/lv_color.h ****     if((LV_COLOR_GET_R(color) & 0x80) || (LV_COLOR_GET_G(color) & 0x80) || (LV_COLOR_GET_B(color) &
 323:lvgl/src/extra/libs/gif/../../../misc/lv_color.h ****         return 1;
 324:lvgl/src/extra/libs/gif/../../../misc/lv_color.h ****     }
 325:lvgl/src/extra/libs/gif/../../../misc/lv_color.h ****     else {
 326:lvgl/src/extra/libs/gif/../../../misc/lv_color.h ****         return 0;
 327:lvgl/src/extra/libs/gif/../../../misc/lv_color.h ****     }
 328:lvgl/src/extra/libs/gif/../../../misc/lv_color.h **** #endif
 329:lvgl/src/extra/libs/gif/../../../misc/lv_color.h **** }
 330:lvgl/src/extra/libs/gif/../../../misc/lv_color.h **** 
 331:lvgl/src/extra/libs/gif/../../../misc/lv_color.h **** static inline uint8_t lv_color_to8(lv_color_t color)
 332:lvgl/src/extra/libs/gif/../../../misc/lv_color.h **** {
 333:lvgl/src/extra/libs/gif/../../../misc/lv_color.h **** #if LV_COLOR_DEPTH == 1
 334:lvgl/src/extra/libs/gif/../../../misc/lv_color.h ****     if(color.full == 0)
 335:lvgl/src/extra/libs/gif/../../../misc/lv_color.h ****         return 0;
 336:lvgl/src/extra/libs/gif/../../../misc/lv_color.h ****     else
 337:lvgl/src/extra/libs/gif/../../../misc/lv_color.h ****         return 0xFF;
 338:lvgl/src/extra/libs/gif/../../../misc/lv_color.h **** #elif LV_COLOR_DEPTH == 8
 339:lvgl/src/extra/libs/gif/../../../misc/lv_color.h ****     return color.full;
 340:lvgl/src/extra/libs/gif/../../../misc/lv_color.h **** #elif LV_COLOR_DEPTH == 16
 341:lvgl/src/extra/libs/gif/../../../misc/lv_color.h ****     lv_color8_t ret;
 342:lvgl/src/extra/libs/gif/../../../misc/lv_color.h ****     LV_COLOR_SET_R8(ret, LV_COLOR_GET_R(color) >> 2); /*5 - 3  = 2*/
 343:lvgl/src/extra/libs/gif/../../../misc/lv_color.h ****     LV_COLOR_SET_G8(ret, LV_COLOR_GET_G(color) >> 3); /*6 - 3  = 3*/
 344:lvgl/src/extra/libs/gif/../../../misc/lv_color.h ****     LV_COLOR_SET_B8(ret, LV_COLOR_GET_B(color) >> 3); /*5 - 2  = 3*/
 345:lvgl/src/extra/libs/gif/../../../misc/lv_color.h ****     return ret.full;
 346:lvgl/src/extra/libs/gif/../../../misc/lv_color.h **** #elif LV_COLOR_DEPTH == 32
 347:lvgl/src/extra/libs/gif/../../../misc/lv_color.h ****     lv_color8_t ret;
 348:lvgl/src/extra/libs/gif/../../../misc/lv_color.h ****     LV_COLOR_SET_R8(ret, LV_COLOR_GET_R(color) >> 5); /*8 - 3  = 5*/
 349:lvgl/src/extra/libs/gif/../../../misc/lv_color.h ****     LV_COLOR_SET_G8(ret, LV_COLOR_GET_G(color) >> 5); /*8 - 3  = 5*/
 350:lvgl/src/extra/libs/gif/../../../misc/lv_color.h ****     LV_COLOR_SET_B8(ret, LV_COLOR_GET_B(color) >> 6); /*8 - 2  = 6*/
 351:lvgl/src/extra/libs/gif/../../../misc/lv_color.h ****     return ret.full;
 352:lvgl/src/extra/libs/gif/../../../misc/lv_color.h **** #endif
 353:lvgl/src/extra/libs/gif/../../../misc/lv_color.h **** }
 354:lvgl/src/extra/libs/gif/../../../misc/lv_color.h **** 
 355:lvgl/src/extra/libs/gif/../../../misc/lv_color.h **** static inline uint16_t lv_color_to16(lv_color_t color)
 356:lvgl/src/extra/libs/gif/../../../misc/lv_color.h **** {
 357:lvgl/src/extra/libs/gif/../../../misc/lv_color.h **** #if LV_COLOR_DEPTH == 1
 358:lvgl/src/extra/libs/gif/../../../misc/lv_color.h ****     if(color.full == 0)
 359:lvgl/src/extra/libs/gif/../../../misc/lv_color.h ****         return 0;
 360:lvgl/src/extra/libs/gif/../../../misc/lv_color.h ****     else
 361:lvgl/src/extra/libs/gif/../../../misc/lv_color.h ****         return 0xFFFF;
 362:lvgl/src/extra/libs/gif/../../../misc/lv_color.h **** #elif LV_COLOR_DEPTH == 8
 363:lvgl/src/extra/libs/gif/../../../misc/lv_color.h ****     lv_color16_t ret;
 364:lvgl/src/extra/libs/gif/../../../misc/lv_color.h ****     LV_COLOR_SET_R16(ret, LV_COLOR_GET_R(color) * 4);  /*(2^5 - 1)/(2^3 - 1) = 31/7 = 4*/
 365:lvgl/src/extra/libs/gif/../../../misc/lv_color.h ****     LV_COLOR_SET_G16(ret, LV_COLOR_GET_G(color) * 9);  /*(2^6 - 1)/(2^3 - 1) = 63/7 = 9*/
 366:lvgl/src/extra/libs/gif/../../../misc/lv_color.h ****     LV_COLOR_SET_B16(ret, LV_COLOR_GET_B(color) * 10); /*(2^5 - 1)/(2^2 - 1) = 31/3 = 10*/
 367:lvgl/src/extra/libs/gif/../../../misc/lv_color.h ****     return ret.full;
 368:lvgl/src/extra/libs/gif/../../../misc/lv_color.h **** #elif LV_COLOR_DEPTH == 16
 369:lvgl/src/extra/libs/gif/../../../misc/lv_color.h ****     return color.full;
 370:lvgl/src/extra/libs/gif/../../../misc/lv_color.h **** #elif LV_COLOR_DEPTH == 32
 371:lvgl/src/extra/libs/gif/../../../misc/lv_color.h ****     lv_color16_t ret;
 372:lvgl/src/extra/libs/gif/../../../misc/lv_color.h ****     LV_COLOR_SET_R16(ret, LV_COLOR_GET_R(color) >> 3); /*8 - 5  = 3*/
 373:lvgl/src/extra/libs/gif/../../../misc/lv_color.h ****     LV_COLOR_SET_G16(ret, LV_COLOR_GET_G(color) >> 2); /*8 - 6  = 2*/
ARM GAS  C:\usertemp\ccoJaLKY.s 			page 20


 374:lvgl/src/extra/libs/gif/../../../misc/lv_color.h ****     LV_COLOR_SET_B16(ret, LV_COLOR_GET_B(color) >> 3); /*8 - 5  = 3*/
 375:lvgl/src/extra/libs/gif/../../../misc/lv_color.h ****     return ret.full;
 376:lvgl/src/extra/libs/gif/../../../misc/lv_color.h **** #endif
 377:lvgl/src/extra/libs/gif/../../../misc/lv_color.h **** }
 378:lvgl/src/extra/libs/gif/../../../misc/lv_color.h **** 
 379:lvgl/src/extra/libs/gif/../../../misc/lv_color.h **** static inline uint32_t lv_color_to32(lv_color_t color)
 380:lvgl/src/extra/libs/gif/../../../misc/lv_color.h **** {
 381:lvgl/src/extra/libs/gif/../../../misc/lv_color.h **** #if LV_COLOR_DEPTH == 1
 382:lvgl/src/extra/libs/gif/../../../misc/lv_color.h ****     if(color.full == 0)
 383:lvgl/src/extra/libs/gif/../../../misc/lv_color.h ****         return 0xFF000000;
 384:lvgl/src/extra/libs/gif/../../../misc/lv_color.h ****     else
 385:lvgl/src/extra/libs/gif/../../../misc/lv_color.h ****         return 0xFFFFFFFF;
 386:lvgl/src/extra/libs/gif/../../../misc/lv_color.h **** #elif LV_COLOR_DEPTH == 8
 387:lvgl/src/extra/libs/gif/../../../misc/lv_color.h ****     lv_color32_t ret;
 388:lvgl/src/extra/libs/gif/../../../misc/lv_color.h ****     LV_COLOR_SET_R32(ret, LV_COLOR_GET_R(color) * 36); /*(2^8 - 1)/(2^3 - 1) = 255/7 = 36*/
 389:lvgl/src/extra/libs/gif/../../../misc/lv_color.h ****     LV_COLOR_SET_G32(ret, LV_COLOR_GET_G(color) * 36); /*(2^8 - 1)/(2^3 - 1) = 255/7 = 36*/
 390:lvgl/src/extra/libs/gif/../../../misc/lv_color.h ****     LV_COLOR_SET_B32(ret, LV_COLOR_GET_B(color) * 85); /*(2^8 - 1)/(2^2 - 1) = 255/3 = 85*/
 391:lvgl/src/extra/libs/gif/../../../misc/lv_color.h ****     LV_COLOR_SET_A32(ret, 0xFF);
 392:lvgl/src/extra/libs/gif/../../../misc/lv_color.h ****     return ret.full;
 393:lvgl/src/extra/libs/gif/../../../misc/lv_color.h **** #elif LV_COLOR_DEPTH == 16
 394:lvgl/src/extra/libs/gif/../../../misc/lv_color.h ****     /**
 395:lvgl/src/extra/libs/gif/../../../misc/lv_color.h ****      * The floating point math for conversion is:
 396:lvgl/src/extra/libs/gif/../../../misc/lv_color.h ****      *  valueto = valuefrom * ( (2^bitsto - 1) / (float)(2^bitsfrom - 1) )
 397:lvgl/src/extra/libs/gif/../../../misc/lv_color.h ****      * The faster integer math for conversion is:
 398:lvgl/src/extra/libs/gif/../../../misc/lv_color.h ****      *  valueto = ( valuefrom * multiplier + adder ) >> divisor
 399:lvgl/src/extra/libs/gif/../../../misc/lv_color.h ****      *   multiplier = FLOOR( ( (2^bitsto - 1) << divisor ) / (float)(2^bitsfrom - 1) )
 400:lvgl/src/extra/libs/gif/../../../misc/lv_color.h ****      *
 401:lvgl/src/extra/libs/gif/../../../misc/lv_color.h ****      * Find the first divisor where ( adder >> divisor ) <= 0
 402:lvgl/src/extra/libs/gif/../../../misc/lv_color.h ****      *
 403:lvgl/src/extra/libs/gif/../../../misc/lv_color.h ****      * 5-bit to 8-bit: ( 31 * multiplier + adder ) >> divisor = 255
 404:lvgl/src/extra/libs/gif/../../../misc/lv_color.h ****      * divisor  multiplier  adder  min (0)  max (31)
 405:lvgl/src/extra/libs/gif/../../../misc/lv_color.h ****      *       0           8      7        7       255
 406:lvgl/src/extra/libs/gif/../../../misc/lv_color.h ****      *       1          16     14        7       255
 407:lvgl/src/extra/libs/gif/../../../misc/lv_color.h ****      *       2          32     28        7       255
 408:lvgl/src/extra/libs/gif/../../../misc/lv_color.h ****      *       3          65     25        3       255
 409:lvgl/src/extra/libs/gif/../../../misc/lv_color.h ****      *       4         131     19        1       255
 410:lvgl/src/extra/libs/gif/../../../misc/lv_color.h ****      *       5         263      7        0       255
 411:lvgl/src/extra/libs/gif/../../../misc/lv_color.h ****      *
 412:lvgl/src/extra/libs/gif/../../../misc/lv_color.h ****      * 6-bit to 8-bit: 255 = ( 63 * multiplier + adder ) >> divisor
 413:lvgl/src/extra/libs/gif/../../../misc/lv_color.h ****      * divisor  multiplier  adder  min (0)  max (63)
 414:lvgl/src/extra/libs/gif/../../../misc/lv_color.h ****      *       0           4      3        3       255
 415:lvgl/src/extra/libs/gif/../../../misc/lv_color.h ****      *       1           8      6        3       255
 416:lvgl/src/extra/libs/gif/../../../misc/lv_color.h ****      *       2          16     12        3       255
 417:lvgl/src/extra/libs/gif/../../../misc/lv_color.h ****      *       3          32     24        3       255
 418:lvgl/src/extra/libs/gif/../../../misc/lv_color.h ****      *       4          64     48        3       255
 419:lvgl/src/extra/libs/gif/../../../misc/lv_color.h ****      *       5         129     33        1       255
 420:lvgl/src/extra/libs/gif/../../../misc/lv_color.h ****      *       6         259      3        0       255
 421:lvgl/src/extra/libs/gif/../../../misc/lv_color.h ****      */
 422:lvgl/src/extra/libs/gif/../../../misc/lv_color.h **** 
 423:lvgl/src/extra/libs/gif/../../../misc/lv_color.h ****     lv_color32_t ret;
 424:lvgl/src/extra/libs/gif/../../../misc/lv_color.h ****     LV_COLOR_SET_R32(ret, (LV_COLOR_GET_R(color) * 263 + 7) >> 5);
 425:lvgl/src/extra/libs/gif/../../../misc/lv_color.h ****     LV_COLOR_SET_G32(ret, (LV_COLOR_GET_G(color) * 259 + 3) >> 6);
 426:lvgl/src/extra/libs/gif/../../../misc/lv_color.h ****     LV_COLOR_SET_B32(ret, (LV_COLOR_GET_B(color) * 263 + 7) >> 5);
 427:lvgl/src/extra/libs/gif/../../../misc/lv_color.h ****     LV_COLOR_SET_A32(ret, 0xFF);
 428:lvgl/src/extra/libs/gif/../../../misc/lv_color.h ****     return ret.full;
 429:lvgl/src/extra/libs/gif/../../../misc/lv_color.h **** #elif LV_COLOR_DEPTH == 32
 430:lvgl/src/extra/libs/gif/../../../misc/lv_color.h ****     return color.full;
ARM GAS  C:\usertemp\ccoJaLKY.s 			page 21


 431:lvgl/src/extra/libs/gif/../../../misc/lv_color.h **** #endif
 432:lvgl/src/extra/libs/gif/../../../misc/lv_color.h **** }
 433:lvgl/src/extra/libs/gif/../../../misc/lv_color.h **** 
 434:lvgl/src/extra/libs/gif/../../../misc/lv_color.h **** //! @cond Doxygen_Suppress
 435:lvgl/src/extra/libs/gif/../../../misc/lv_color.h **** 
 436:lvgl/src/extra/libs/gif/../../../misc/lv_color.h **** /**
 437:lvgl/src/extra/libs/gif/../../../misc/lv_color.h ****  * Mix two colors with a given ratio.
 438:lvgl/src/extra/libs/gif/../../../misc/lv_color.h ****  * @param c1 the first color to mix (usually the foreground)
 439:lvgl/src/extra/libs/gif/../../../misc/lv_color.h ****  * @param c2 the second color to mix (usually the background)
 440:lvgl/src/extra/libs/gif/../../../misc/lv_color.h ****  * @param mix The ratio of the colors. 0: full `c2`, 255: full `c1`, 127: half `c1` and half`c2`
 441:lvgl/src/extra/libs/gif/../../../misc/lv_color.h ****  * @return the mixed color
 442:lvgl/src/extra/libs/gif/../../../misc/lv_color.h ****  */
 443:lvgl/src/extra/libs/gif/../../../misc/lv_color.h **** LV_ATTRIBUTE_FAST_MEM static inline lv_color_t lv_color_mix(lv_color_t c1, lv_color_t c2, uint8_t m
 444:lvgl/src/extra/libs/gif/../../../misc/lv_color.h **** {
 445:lvgl/src/extra/libs/gif/../../../misc/lv_color.h ****     lv_color_t ret;
 446:lvgl/src/extra/libs/gif/../../../misc/lv_color.h **** 
 447:lvgl/src/extra/libs/gif/../../../misc/lv_color.h **** #if LV_COLOR_DEPTH == 16 && LV_COLOR_16_SWAP == 0
 448:lvgl/src/extra/libs/gif/../../../misc/lv_color.h ****     /*Source: https://stackoverflow.com/a/50012418/1999969*/
 449:lvgl/src/extra/libs/gif/../../../misc/lv_color.h ****     mix = (mix + 4) >> 3;
 450:lvgl/src/extra/libs/gif/../../../misc/lv_color.h ****     uint32_t bg = (uint32_t)((uint32_t)c2.full | ((uint32_t)c2.full << 16)) &
 451:lvgl/src/extra/libs/gif/../../../misc/lv_color.h ****                   0x7E0F81F; /*0b00000111111000001111100000011111*/
 452:lvgl/src/extra/libs/gif/../../../misc/lv_color.h ****     uint32_t fg = (uint32_t)((uint32_t)c1.full | ((uint32_t)c1.full << 16)) & 0x7E0F81F;
 453:lvgl/src/extra/libs/gif/../../../misc/lv_color.h ****     uint32_t result = ((((fg - bg) * mix) >> 5) + bg) & 0x7E0F81F;
 454:lvgl/src/extra/libs/gif/../../../misc/lv_color.h ****     ret.full = (uint16_t)((result >> 16) | result);
 455:lvgl/src/extra/libs/gif/../../../misc/lv_color.h **** #elif LV_COLOR_DEPTH != 1
 456:lvgl/src/extra/libs/gif/../../../misc/lv_color.h ****     /*LV_COLOR_DEPTH == 8, 16 or 32*/
 457:lvgl/src/extra/libs/gif/../../../misc/lv_color.h ****     LV_COLOR_SET_R(ret, LV_UDIV255((uint16_t)LV_COLOR_GET_R(c1) * mix + LV_COLOR_GET_R(c2) *
 458:lvgl/src/extra/libs/gif/../../../misc/lv_color.h ****                                    (255 - mix) + LV_COLOR_MIX_ROUND_OFS));
 459:lvgl/src/extra/libs/gif/../../../misc/lv_color.h ****     LV_COLOR_SET_G(ret, LV_UDIV255((uint16_t)LV_COLOR_GET_G(c1) * mix + LV_COLOR_GET_G(c2) *
 460:lvgl/src/extra/libs/gif/../../../misc/lv_color.h ****                                    (255 - mix) + LV_COLOR_MIX_ROUND_OFS));
 461:lvgl/src/extra/libs/gif/../../../misc/lv_color.h ****     LV_COLOR_SET_B(ret, LV_UDIV255((uint16_t)LV_COLOR_GET_B(c1) * mix + LV_COLOR_GET_B(c2) *
 462:lvgl/src/extra/libs/gif/../../../misc/lv_color.h ****                                    (255 - mix) + LV_COLOR_MIX_ROUND_OFS));
 463:lvgl/src/extra/libs/gif/../../../misc/lv_color.h ****     LV_COLOR_SET_A(ret, 0xFF);
 464:lvgl/src/extra/libs/gif/../../../misc/lv_color.h **** #else
 465:lvgl/src/extra/libs/gif/../../../misc/lv_color.h ****     /*LV_COLOR_DEPTH == 1*/
 466:lvgl/src/extra/libs/gif/../../../misc/lv_color.h ****     ret.full = mix > LV_OPA_50 ? c1.full : c2.full;
 467:lvgl/src/extra/libs/gif/../../../misc/lv_color.h **** #endif
 468:lvgl/src/extra/libs/gif/../../../misc/lv_color.h **** 
 469:lvgl/src/extra/libs/gif/../../../misc/lv_color.h ****     return ret;
 470:lvgl/src/extra/libs/gif/../../../misc/lv_color.h **** }
 471:lvgl/src/extra/libs/gif/../../../misc/lv_color.h **** 
 472:lvgl/src/extra/libs/gif/../../../misc/lv_color.h **** LV_ATTRIBUTE_FAST_MEM static inline void lv_color_premult(lv_color_t c, uint8_t mix, uint16_t * out
 473:lvgl/src/extra/libs/gif/../../../misc/lv_color.h **** {
 474:lvgl/src/extra/libs/gif/../../../misc/lv_color.h **** #if LV_COLOR_DEPTH != 1
 475:lvgl/src/extra/libs/gif/../../../misc/lv_color.h ****     out[0] = (uint16_t)LV_COLOR_GET_R(c) * mix;
 476:lvgl/src/extra/libs/gif/../../../misc/lv_color.h ****     out[1] = (uint16_t)LV_COLOR_GET_G(c) * mix;
 477:lvgl/src/extra/libs/gif/../../../misc/lv_color.h ****     out[2] = (uint16_t)LV_COLOR_GET_B(c) * mix;
 478:lvgl/src/extra/libs/gif/../../../misc/lv_color.h **** #else
 479:lvgl/src/extra/libs/gif/../../../misc/lv_color.h ****     (void) mix;
 480:lvgl/src/extra/libs/gif/../../../misc/lv_color.h ****     /*Pre-multiplication can't be used with 1 bpp*/
 481:lvgl/src/extra/libs/gif/../../../misc/lv_color.h ****     out[0] = LV_COLOR_GET_R(c);
 482:lvgl/src/extra/libs/gif/../../../misc/lv_color.h ****     out[1] = LV_COLOR_GET_G(c);
 483:lvgl/src/extra/libs/gif/../../../misc/lv_color.h ****     out[2] = LV_COLOR_GET_B(c);
 484:lvgl/src/extra/libs/gif/../../../misc/lv_color.h **** #endif
 485:lvgl/src/extra/libs/gif/../../../misc/lv_color.h **** 
 486:lvgl/src/extra/libs/gif/../../../misc/lv_color.h **** }
 487:lvgl/src/extra/libs/gif/../../../misc/lv_color.h **** 
ARM GAS  C:\usertemp\ccoJaLKY.s 			page 22


 488:lvgl/src/extra/libs/gif/../../../misc/lv_color.h **** /**
 489:lvgl/src/extra/libs/gif/../../../misc/lv_color.h ****  * Mix two colors with a given ratio. It runs faster then `lv_color_mix` but requires some pre comp
 490:lvgl/src/extra/libs/gif/../../../misc/lv_color.h ****  * @param premult_c1 The first color. Should be preprocessed with `lv_color_premult(c1)`
 491:lvgl/src/extra/libs/gif/../../../misc/lv_color.h ****  * @param c2 The second color. As it is no pre computation required on it
 492:lvgl/src/extra/libs/gif/../../../misc/lv_color.h ****  * @param mix The ratio of the colors. 0: full `c1`, 255: full `c2`, 127: half `c1` and half `c2`.
 493:lvgl/src/extra/libs/gif/../../../misc/lv_color.h ****  *            Should be modified like mix = `255 - mix`
 494:lvgl/src/extra/libs/gif/../../../misc/lv_color.h ****  * @return the mixed color
 495:lvgl/src/extra/libs/gif/../../../misc/lv_color.h ****  * @note 255 won't give clearly `c1`.
 496:lvgl/src/extra/libs/gif/../../../misc/lv_color.h ****  */
 497:lvgl/src/extra/libs/gif/../../../misc/lv_color.h **** LV_ATTRIBUTE_FAST_MEM static inline lv_color_t lv_color_mix_premult(uint16_t * premult_c1, lv_color
 498:lvgl/src/extra/libs/gif/../../../misc/lv_color.h **** {
 499:lvgl/src/extra/libs/gif/../../../misc/lv_color.h ****     lv_color_t ret;
 500:lvgl/src/extra/libs/gif/../../../misc/lv_color.h **** #if LV_COLOR_DEPTH != 1
 501:lvgl/src/extra/libs/gif/../../../misc/lv_color.h ****     /*LV_COLOR_DEPTH == 8 or 32*/
 502:lvgl/src/extra/libs/gif/../../../misc/lv_color.h ****     LV_COLOR_SET_R(ret, LV_UDIV255(premult_c1[0] + LV_COLOR_GET_R(c2) * mix + LV_COLOR_MIX_ROUND_OF
 503:lvgl/src/extra/libs/gif/../../../misc/lv_color.h ****     LV_COLOR_SET_G(ret, LV_UDIV255(premult_c1[1] + LV_COLOR_GET_G(c2) * mix + LV_COLOR_MIX_ROUND_OF
 504:lvgl/src/extra/libs/gif/../../../misc/lv_color.h ****     LV_COLOR_SET_B(ret, LV_UDIV255(premult_c1[2] + LV_COLOR_GET_B(c2) * mix + LV_COLOR_MIX_ROUND_OF
 505:lvgl/src/extra/libs/gif/../../../misc/lv_color.h ****     LV_COLOR_SET_A(ret, 0xFF);
 506:lvgl/src/extra/libs/gif/../../../misc/lv_color.h **** #else
 507:lvgl/src/extra/libs/gif/../../../misc/lv_color.h ****     /*LV_COLOR_DEPTH == 1*/
 508:lvgl/src/extra/libs/gif/../../../misc/lv_color.h ****     /*Restore color1*/
 509:lvgl/src/extra/libs/gif/../../../misc/lv_color.h ****     lv_color_t c1;
 510:lvgl/src/extra/libs/gif/../../../misc/lv_color.h ****     LV_COLOR_SET_R(c1, premult_c1[0]);
 511:lvgl/src/extra/libs/gif/../../../misc/lv_color.h ****     LV_COLOR_SET_G(c1, premult_c1[1]);
 512:lvgl/src/extra/libs/gif/../../../misc/lv_color.h ****     LV_COLOR_SET_B(c1, premult_c1[2]);
 513:lvgl/src/extra/libs/gif/../../../misc/lv_color.h ****     ret.full = mix > LV_OPA_50 ? c2.full : c1.full;
 514:lvgl/src/extra/libs/gif/../../../misc/lv_color.h **** #endif
 515:lvgl/src/extra/libs/gif/../../../misc/lv_color.h **** 
 516:lvgl/src/extra/libs/gif/../../../misc/lv_color.h ****     return ret;
 517:lvgl/src/extra/libs/gif/../../../misc/lv_color.h **** }
 518:lvgl/src/extra/libs/gif/../../../misc/lv_color.h **** 
 519:lvgl/src/extra/libs/gif/../../../misc/lv_color.h **** /**
 520:lvgl/src/extra/libs/gif/../../../misc/lv_color.h ****  * Mix two colors. Both color can have alpha value.
 521:lvgl/src/extra/libs/gif/../../../misc/lv_color.h ****  * @param bg_color background color
 522:lvgl/src/extra/libs/gif/../../../misc/lv_color.h ****  * @param bg_opa alpha of the background color
 523:lvgl/src/extra/libs/gif/../../../misc/lv_color.h ****  * @param fg_color foreground color
 524:lvgl/src/extra/libs/gif/../../../misc/lv_color.h ****  * @param fg_opa alpha of the foreground color
 525:lvgl/src/extra/libs/gif/../../../misc/lv_color.h ****  * @param res_color the result color
 526:lvgl/src/extra/libs/gif/../../../misc/lv_color.h ****  * @param res_opa the result opacity
 527:lvgl/src/extra/libs/gif/../../../misc/lv_color.h ****  */
 528:lvgl/src/extra/libs/gif/../../../misc/lv_color.h **** LV_ATTRIBUTE_FAST_MEM static inline void lv_color_mix_with_alpha(lv_color_t bg_color, lv_opa_t bg_o
 529:lvgl/src/extra/libs/gif/../../../misc/lv_color.h ****                                                                  lv_color_t fg_color, lv_opa_t fg_o
 530:lvgl/src/extra/libs/gif/../../../misc/lv_color.h ****                                                                  lv_color_t * res_color, lv_opa_t *
 531:lvgl/src/extra/libs/gif/../../../misc/lv_color.h **** {
 532:lvgl/src/extra/libs/gif/../../../misc/lv_color.h ****     /*Pick the foreground if it's fully opaque or the Background is fully transparent*/
 533:lvgl/src/extra/libs/gif/../../../misc/lv_color.h ****     if(fg_opa >= LV_OPA_MAX || bg_opa <= LV_OPA_MIN) {
 534:lvgl/src/extra/libs/gif/../../../misc/lv_color.h ****         res_color->full = fg_color.full;
 535:lvgl/src/extra/libs/gif/../../../misc/lv_color.h ****         *res_opa = fg_opa;
 536:lvgl/src/extra/libs/gif/../../../misc/lv_color.h ****     }
 537:lvgl/src/extra/libs/gif/../../../misc/lv_color.h ****     /*Transparent foreground: use the Background*/
 538:lvgl/src/extra/libs/gif/../../../misc/lv_color.h ****     else if(fg_opa <= LV_OPA_MIN) {
 539:lvgl/src/extra/libs/gif/../../../misc/lv_color.h ****         res_color->full = bg_color.full;
 540:lvgl/src/extra/libs/gif/../../../misc/lv_color.h ****         *res_opa = bg_opa;
 541:lvgl/src/extra/libs/gif/../../../misc/lv_color.h ****     }
 542:lvgl/src/extra/libs/gif/../../../misc/lv_color.h ****     /*Opaque background: use simple mix*/
 543:lvgl/src/extra/libs/gif/../../../misc/lv_color.h ****     else if(bg_opa >= LV_OPA_MAX) {
 544:lvgl/src/extra/libs/gif/../../../misc/lv_color.h ****         *res_color = lv_color_mix(fg_color, bg_color, fg_opa);
ARM GAS  C:\usertemp\ccoJaLKY.s 			page 23


 545:lvgl/src/extra/libs/gif/../../../misc/lv_color.h ****         *res_opa = LV_OPA_COVER;
 546:lvgl/src/extra/libs/gif/../../../misc/lv_color.h ****     }
 547:lvgl/src/extra/libs/gif/../../../misc/lv_color.h ****     /*Both colors have alpha. Expensive calculation need to be applied*/
 548:lvgl/src/extra/libs/gif/../../../misc/lv_color.h ****     else {
 549:lvgl/src/extra/libs/gif/../../../misc/lv_color.h ****         /*Save the parameters and the result. If they will be asked again don't compute again*/
 550:lvgl/src/extra/libs/gif/../../../misc/lv_color.h ****         static lv_opa_t fg_opa_save     = 0;
 551:lvgl/src/extra/libs/gif/../../../misc/lv_color.h ****         static lv_opa_t bg_opa_save     = 0;
 552:lvgl/src/extra/libs/gif/../../../misc/lv_color.h ****         static lv_color_t fg_color_save = _LV_COLOR_ZERO_INITIALIZER;
 553:lvgl/src/extra/libs/gif/../../../misc/lv_color.h ****         static lv_color_t bg_color_save = _LV_COLOR_ZERO_INITIALIZER;
 554:lvgl/src/extra/libs/gif/../../../misc/lv_color.h ****         static lv_color_t res_color_saved = _LV_COLOR_ZERO_INITIALIZER;
 555:lvgl/src/extra/libs/gif/../../../misc/lv_color.h ****         static lv_opa_t res_opa_saved = 0;
 556:lvgl/src/extra/libs/gif/../../../misc/lv_color.h **** 
 557:lvgl/src/extra/libs/gif/../../../misc/lv_color.h ****         if(fg_opa != fg_opa_save || bg_opa != bg_opa_save || fg_color.full != fg_color_save.full ||
 558:lvgl/src/extra/libs/gif/../../../misc/lv_color.h ****            bg_color.full != bg_color_save.full) {
 559:lvgl/src/extra/libs/gif/../../../misc/lv_color.h ****             fg_opa_save        = fg_opa;
 560:lvgl/src/extra/libs/gif/../../../misc/lv_color.h ****             bg_opa_save        = bg_opa;
 561:lvgl/src/extra/libs/gif/../../../misc/lv_color.h ****             fg_color_save.full = fg_color.full;
 562:lvgl/src/extra/libs/gif/../../../misc/lv_color.h ****             bg_color_save.full = bg_color.full;
 563:lvgl/src/extra/libs/gif/../../../misc/lv_color.h ****             /*Info:
 564:lvgl/src/extra/libs/gif/../../../misc/lv_color.h ****              * https://en.wikipedia.org/wiki/Alpha_compositing#Analytical_derivation_of_the_over_op
 565:lvgl/src/extra/libs/gif/../../../misc/lv_color.h ****             res_opa_saved = 255 - ((uint16_t)((uint16_t)(255 - fg_opa) * (255 - bg_opa)) >> 8);
 566:lvgl/src/extra/libs/gif/../../../misc/lv_color.h ****             LV_ASSERT(res_opa_saved != 0);
 567:lvgl/src/extra/libs/gif/../../../misc/lv_color.h ****             lv_opa_t ratio = (uint16_t)((uint16_t)fg_opa * 255) / res_opa_saved;
 568:lvgl/src/extra/libs/gif/../../../misc/lv_color.h ****             res_color_saved = lv_color_mix(fg_color, bg_color, ratio);
 569:lvgl/src/extra/libs/gif/../../../misc/lv_color.h **** 
 570:lvgl/src/extra/libs/gif/../../../misc/lv_color.h ****         }
 571:lvgl/src/extra/libs/gif/../../../misc/lv_color.h **** 
 572:lvgl/src/extra/libs/gif/../../../misc/lv_color.h ****         res_color->full = res_color_saved.full;
 573:lvgl/src/extra/libs/gif/../../../misc/lv_color.h ****         *res_opa = res_opa_saved;
 574:lvgl/src/extra/libs/gif/../../../misc/lv_color.h ****     }
 575:lvgl/src/extra/libs/gif/../../../misc/lv_color.h **** }
 576:lvgl/src/extra/libs/gif/../../../misc/lv_color.h **** 
 577:lvgl/src/extra/libs/gif/../../../misc/lv_color.h **** //! @endcond
 578:lvgl/src/extra/libs/gif/../../../misc/lv_color.h **** 
 579:lvgl/src/extra/libs/gif/../../../misc/lv_color.h **** /**
 580:lvgl/src/extra/libs/gif/../../../misc/lv_color.h ****  * Get the brightness of a color
 581:lvgl/src/extra/libs/gif/../../../misc/lv_color.h ****  * @param color a color
 582:lvgl/src/extra/libs/gif/../../../misc/lv_color.h ****  * @return the brightness [0..255]
 583:lvgl/src/extra/libs/gif/../../../misc/lv_color.h ****  */
 584:lvgl/src/extra/libs/gif/../../../misc/lv_color.h **** static inline uint8_t lv_color_brightness(lv_color_t color)
 585:lvgl/src/extra/libs/gif/../../../misc/lv_color.h **** {
 586:lvgl/src/extra/libs/gif/../../../misc/lv_color.h ****     lv_color32_t c32;
 587:lvgl/src/extra/libs/gif/../../../misc/lv_color.h ****     c32.full        = lv_color_to32(color);
 588:lvgl/src/extra/libs/gif/../../../misc/lv_color.h ****     uint16_t bright = (uint16_t)(3u * LV_COLOR_GET_R32(c32) + LV_COLOR_GET_B32(c32) + 4u * LV_COLOR
 589:lvgl/src/extra/libs/gif/../../../misc/lv_color.h ****     return (uint8_t)(bright >> 3);
 590:lvgl/src/extra/libs/gif/../../../misc/lv_color.h **** }
 591:lvgl/src/extra/libs/gif/../../../misc/lv_color.h **** 
 592:lvgl/src/extra/libs/gif/../../../misc/lv_color.h **** static inline lv_color_t lv_color_make(uint8_t r, uint8_t g, uint8_t b)
 206              		.loc 2 592 26 is_stmt 1 view .LVU60
 207              	.LBB14:
 593:lvgl/src/extra/libs/gif/../../../misc/lv_color.h **** {
 594:lvgl/src/extra/libs/gif/../../../misc/lv_color.h ****     return _LV_COLOR_MAKE_TYPE_HELPER LV_COLOR_MAKE(r, g, b);
 208              		.loc 2 594 5 view .LVU61
 209              		.loc 2 594 39 is_stmt 0 view .LVU62
 210 0020 FF08     		lsrs	r7, r7, #3
 211 0022 B608     		lsrs	r6, r6, #2
 212 0024 EB08     		lsrs	r3, r5, #3
ARM GAS  C:\usertemp\ccoJaLKY.s 			page 24


 213              	.LVL29:
 214              		.loc 2 594 12 view .LVU63
 215 0026 67F3040C 		bfi	ip, r7, #0, #5
 216 002a 66F34A1C 		bfi	ip, r6, #5, #6
 217 002e 63F3CF2C 		bfi	ip, r3, #11, #5
 218              	.LVL30:
 219              		.loc 2 594 12 view .LVU64
 220              	.LBE14:
 221              	.LBE13:
 494:lvgl/src/extra/libs/gif/gifdec.c ****                 buffer[(i+k)*3 + 0] = c.full & 0xff;
 222              		.loc 1 494 17 is_stmt 1 view .LVU65
 223              		.loc 1 494 40 is_stmt 0 view .LVU66
 224 0032 1FFA8CF5 		uxth	r5, ip
 225              		.loc 1 494 26 view .LVU67
 226 0036 09EB0203 		add	r3, r9, r2
 227              		.loc 1 494 29 view .LVU68
 228 003a 03EB4303 		add	r3, r3, r3, lsl #1
 229              		.loc 1 494 37 view .LVU69
 230 003e CD54     		strb	r5, [r1, r3]
 231              	.LVL31:
 495:lvgl/src/extra/libs/gif/gifdec.c ****                 buffer[(i+k)*3 + 1] = (c.full >> 8) & 0xff;
 232              		.loc 1 495 17 is_stmt 1 view .LVU70
 233              		.loc 1 495 23 is_stmt 0 view .LVU71
 234 0040 5E1C     		adds	r6, r3, #1
 235              		.loc 1 495 37 view .LVU72
 236 0042 2D0A     		lsrs	r5, r5, #8
 237 0044 8D55     		strb	r5, [r1, r6]
 496:lvgl/src/extra/libs/gif/gifdec.c ****                 buffer[(i+k)*3 + 2] = 0xff;
 238              		.loc 1 496 17 is_stmt 1 view .LVU73
 239              		.loc 1 496 23 is_stmt 0 view .LVU74
 240 0046 0233     		adds	r3, r3, #2
 241              		.loc 1 496 37 view .LVU75
 242 0048 FF25     		movs	r5, #255
 243 004a CD54     		strb	r5, [r1, r3]
 244              	.L18:
 245              		.loc 1 496 37 view .LVU76
 246              	.LBE12:
 483:lvgl/src/extra/libs/gif/gifdec.c ****             index = gif->frame[(gif->fy + j) * gif->width + gif->fx + k];
 247              		.loc 1 483 35 is_stmt 1 discriminator 2 view .LVU77
 248 004c 0132     		adds	r2, r2, #1
 249              	.LVL32:
 250              	.L20:
 483:lvgl/src/extra/libs/gif/gifdec.c ****             index = gif->frame[(gif->fy + j) * gif->width + gif->fx + k];
 251              		.loc 1 483 23 discriminator 1 view .LVU78
 483:lvgl/src/extra/libs/gif/gifdec.c ****             index = gif->frame[(gif->fy + j) * gif->width + gif->fx + k];
 252              		.loc 1 483 28 is_stmt 0 discriminator 1 view .LVU79
 253 004e B0F84C36 		ldrh	r3, [r0, #1612]
 483:lvgl/src/extra/libs/gif/gifdec.c ****             index = gif->frame[(gif->fy + j) * gif->width + gif->fx + k];
 254              		.loc 1 483 23 discriminator 1 view .LVU80
 255 0052 9342     		cmp	r3, r2
 256 0054 18DD     		ble	.L23
 484:lvgl/src/extra/libs/gif/gifdec.c ****             color = &gif->palette->colors[index*3];
 257              		.loc 1 484 13 is_stmt 1 view .LVU81
 484:lvgl/src/extra/libs/gif/gifdec.c ****             color = &gif->palette->colors[index*3];
 258              		.loc 1 484 36 is_stmt 0 view .LVU82
 259 0056 B0F84A56 		ldrh	r5, [r0, #1610]
 484:lvgl/src/extra/libs/gif/gifdec.c ****             color = &gif->palette->colors[index*3];
ARM GAS  C:\usertemp\ccoJaLKY.s 			page 25


 260              		.loc 1 484 41 view .LVU83
 261 005a 7544     		add	r5, r5, lr
 484:lvgl/src/extra/libs/gif/gifdec.c ****             color = &gif->palette->colors[index*3];
 262              		.loc 1 484 51 view .LVU84
 263 005c 868B     		ldrh	r6, [r0, #28]
 484:lvgl/src/extra/libs/gif/gifdec.c ****             color = &gif->palette->colors[index*3];
 264              		.loc 1 484 64 view .LVU85
 265 005e B0F84836 		ldrh	r3, [r0, #1608]
 484:lvgl/src/extra/libs/gif/gifdec.c ****             color = &gif->palette->colors[index*3];
 266              		.loc 1 484 59 view .LVU86
 267 0062 06FB0533 		mla	r3, r6, r5, r3
 484:lvgl/src/extra/libs/gif/gifdec.c ****             color = &gif->palette->colors[index*3];
 268              		.loc 1 484 69 view .LVU87
 269 0066 1344     		add	r3, r3, r2
 484:lvgl/src/extra/libs/gif/gifdec.c ****             color = &gif->palette->colors[index*3];
 270              		.loc 1 484 19 view .LVU88
 271 0068 D0F85856 		ldr	r5, [r0, #1624]
 272 006c EE5C     		ldrb	r6, [r5, r3]	@ zero_extendqisi2
 273              	.LVL33:
 485:lvgl/src/extra/libs/gif/gifdec.c ****             if (!gif->gce.transparency || index != gif->gce.tindex) {
 274              		.loc 1 485 13 is_stmt 1 view .LVU89
 485:lvgl/src/extra/libs/gif/gifdec.c ****             if (!gif->gce.transparency || index != gif->gce.tindex) {
 275              		.loc 1 485 25 is_stmt 0 view .LVU90
 276 006e 056B     		ldr	r5, [r0, #48]
 485:lvgl/src/extra/libs/gif/gifdec.c ****             if (!gif->gce.transparency || index != gif->gce.tindex) {
 277              		.loc 1 485 48 view .LVU91
 278 0070 06EB4607 		add	r7, r6, r6, lsl #1
 485:lvgl/src/extra/libs/gif/gifdec.c ****             if (!gif->gce.transparency || index != gif->gce.tindex) {
 279              		.loc 1 485 19 view .LVU92
 280 0074 EB19     		adds	r3, r5, r7
 281 0076 0433     		adds	r3, r3, #4
 282              	.LVL34:
 486:lvgl/src/extra/libs/gif/gifdec.c **** #if LV_COLOR_DEPTH == 32
 283              		.loc 1 486 13 is_stmt 1 view .LVU93
 486:lvgl/src/extra/libs/gif/gifdec.c **** #if LV_COLOR_DEPTH == 32
 284              		.loc 1 486 16 is_stmt 0 view .LVU94
 285 0078 C46A     		ldr	r4, [r0, #44]
 286 007a 002C     		cmp	r4, #0
 287 007c CCD0     		beq	.L17
 486:lvgl/src/extra/libs/gif/gifdec.c **** #if LV_COLOR_DEPTH == 32
 288              		.loc 1 486 60 discriminator 1 view .LVU95
 289 007e 90F82680 		ldrb	r8, [r0, #38]	@ zero_extendqisi2
 486:lvgl/src/extra/libs/gif/gifdec.c **** #if LV_COLOR_DEPTH == 32
 290              		.loc 1 486 40 discriminator 1 view .LVU96
 291 0082 B045     		cmp	r8, r6
 292 0084 C8D1     		bne	.L17
 293 0086 E1E7     		b	.L18
 294              	.LVL35:
 295              	.L23:
 497:lvgl/src/extra/libs/gif/gifdec.c **** #elif LV_COLOR_DEPTH == 8
 498:lvgl/src/extra/libs/gif/gifdec.c ****                 lv_color_t c = lv_color_make(*(color + 0), *(color + 1), *(color + 2));
 499:lvgl/src/extra/libs/gif/gifdec.c ****                 buffer[(i+k)*2 + 0] = c.full;
 500:lvgl/src/extra/libs/gif/gifdec.c ****                 buffer[(i+k)*2 + 1] = 0xff;
 501:lvgl/src/extra/libs/gif/gifdec.c **** #elif LV_COLOR_DEPTH == 1
 502:lvgl/src/extra/libs/gif/gifdec.c ****                 uint8_t b = (*(color + 0)) | (*(color + 1)) | (*(color + 2));
 503:lvgl/src/extra/libs/gif/gifdec.c ****                 buffer[(i+k)*2 + 0] = b > 128 ? 1 : 0;
 504:lvgl/src/extra/libs/gif/gifdec.c ****                 buffer[(i+k)*2 + 1] = 0xff;
ARM GAS  C:\usertemp\ccoJaLKY.s 			page 26


 505:lvgl/src/extra/libs/gif/gifdec.c **** #endif
 506:lvgl/src/extra/libs/gif/gifdec.c ****             }
 507:lvgl/src/extra/libs/gif/gifdec.c ****         }
 508:lvgl/src/extra/libs/gif/gifdec.c ****         i += gif->width;
 296              		.loc 1 508 9 is_stmt 1 view .LVU97
 297              		.loc 1 508 17 is_stmt 0 view .LVU98
 298 0088 838B     		ldrh	r3, [r0, #28]
 299              		.loc 1 508 11 view .LVU99
 300 008a 9944     		add	r9, r9, r3
 301              	.LVL36:
 482:lvgl/src/extra/libs/gif/gifdec.c ****         for (k = 0; k < gif->fw; k++) {
 302              		.loc 1 482 31 is_stmt 1 discriminator 2 view .LVU100
 303 008c 0EF1010E 		add	lr, lr, #1
 304              	.LVL37:
 305              	.L16:
 482:lvgl/src/extra/libs/gif/gifdec.c ****         for (k = 0; k < gif->fw; k++) {
 306              		.loc 1 482 19 discriminator 1 view .LVU101
 482:lvgl/src/extra/libs/gif/gifdec.c ****         for (k = 0; k < gif->fw; k++) {
 307              		.loc 1 482 24 is_stmt 0 discriminator 1 view .LVU102
 308 0090 B0F84E36 		ldrh	r3, [r0, #1614]
 482:lvgl/src/extra/libs/gif/gifdec.c ****         for (k = 0; k < gif->fw; k++) {
 309              		.loc 1 482 19 discriminator 1 view .LVU103
 310 0094 7345     		cmp	r3, lr
 311 0096 01DD     		ble	.L24
 483:lvgl/src/extra/libs/gif/gifdec.c ****             index = gif->frame[(gif->fy + j) * gif->width + gif->fx + k];
 312              		.loc 1 483 16 view .LVU104
 313 0098 0022     		movs	r2, #0
 314 009a D8E7     		b	.L20
 315              	.L24:
 509:lvgl/src/extra/libs/gif/gifdec.c ****     }
 510:lvgl/src/extra/libs/gif/gifdec.c **** }
 316              		.loc 1 510 1 view .LVU105
 317 009c BDE8F083 		pop	{r4, r5, r6, r7, r8, r9, pc}
 318              		.loc 1 510 1 view .LVU106
 319              		.cfi_endproc
 320              	.LFE34:
 322              		.section	.text.dispose,"ax",%progbits
 323              		.align	1
 324              		.syntax unified
 325              		.thumb
 326              		.thumb_func
 328              	dispose:
 329              	.LVL38:
 330              	.LFB35:
 511:lvgl/src/extra/libs/gif/gifdec.c **** 
 512:lvgl/src/extra/libs/gif/gifdec.c **** static void
 513:lvgl/src/extra/libs/gif/gifdec.c **** dispose(gd_GIF *gif)
 514:lvgl/src/extra/libs/gif/gifdec.c **** {
 331              		.loc 1 514 1 is_stmt 1 view -0
 332              		.cfi_startproc
 333              		@ args = 0, pretend = 0, frame = 0
 334              		@ frame_needed = 0, uses_anonymous_args = 0
 335              		.loc 1 514 1 is_stmt 0 view .LVU108
 336 0000 2DE9F047 		push	{r4, r5, r6, r7, r8, r9, r10, lr}
 337              	.LCFI1:
 338              		.cfi_def_cfa_offset 32
 339              		.cfi_offset 4, -32
ARM GAS  C:\usertemp\ccoJaLKY.s 			page 27


 340              		.cfi_offset 5, -28
 341              		.cfi_offset 6, -24
 342              		.cfi_offset 7, -20
 343              		.cfi_offset 8, -16
 344              		.cfi_offset 9, -12
 345              		.cfi_offset 10, -8
 346              		.cfi_offset 14, -4
 515:lvgl/src/extra/libs/gif/gifdec.c ****     int i, j, k;
 347              		.loc 1 515 5 is_stmt 1 view .LVU109
 516:lvgl/src/extra/libs/gif/gifdec.c ****     uint8_t *bgcolor;
 348              		.loc 1 516 5 view .LVU110
 517:lvgl/src/extra/libs/gif/gifdec.c ****     switch (gif->gce.disposal) {
 349              		.loc 1 517 5 view .LVU111
 350              		.loc 1 517 21 is_stmt 0 view .LVU112
 351 0004 90F82730 		ldrb	r3, [r0, #39]	@ zero_extendqisi2
 352              		.loc 1 517 5 view .LVU113
 353 0008 022B     		cmp	r3, #2
 354 000a 07D0     		beq	.L26
 355 000c 032B     		cmp	r3, #3
 356 000e 03D0     		beq	.L25
 357              	.LBB15:
 518:lvgl/src/extra/libs/gif/gifdec.c ****     case 2: /* Restore to background color. */
 519:lvgl/src/extra/libs/gif/gifdec.c ****         bgcolor = &gif->palette->colors[gif->bgindex*3];
 520:lvgl/src/extra/libs/gif/gifdec.c **** 
 521:lvgl/src/extra/libs/gif/gifdec.c ****         uint8_t opa = 0xff;
 522:lvgl/src/extra/libs/gif/gifdec.c ****         if(gif->gce.transparency) opa = 0x00;
 523:lvgl/src/extra/libs/gif/gifdec.c **** 
 524:lvgl/src/extra/libs/gif/gifdec.c ****         i = gif->fy * gif->width + gif->fx;
 525:lvgl/src/extra/libs/gif/gifdec.c ****         for (j = 0; j < gif->fh; j++) {
 526:lvgl/src/extra/libs/gif/gifdec.c ****             for (k = 0; k < gif->fw; k++) {
 527:lvgl/src/extra/libs/gif/gifdec.c **** #if LV_COLOR_DEPTH == 32
 528:lvgl/src/extra/libs/gif/gifdec.c ****                 gif->canvas[(i+k)*4 + 0] = *(bgcolor + 2);
 529:lvgl/src/extra/libs/gif/gifdec.c ****                 gif->canvas[(i+k)*4 + 1] = *(bgcolor + 1);
 530:lvgl/src/extra/libs/gif/gifdec.c ****                 gif->canvas[(i+k)*4 + 2] = *(bgcolor + 0);
 531:lvgl/src/extra/libs/gif/gifdec.c ****                 gif->canvas[(i+k)*4 + 3] = opa;
 532:lvgl/src/extra/libs/gif/gifdec.c **** #elif LV_COLOR_DEPTH == 16
 533:lvgl/src/extra/libs/gif/gifdec.c ****                 lv_color_t c = lv_color_make(*(bgcolor + 0), *(bgcolor + 1), *(bgcolor + 2));
 534:lvgl/src/extra/libs/gif/gifdec.c ****                 gif->canvas[(i+k)*3 + 0] = c.full & 0xff;
 535:lvgl/src/extra/libs/gif/gifdec.c ****                 gif->canvas[(i+k)*3 + 1] = (c.full >> 8) & 0xff;
 536:lvgl/src/extra/libs/gif/gifdec.c ****                 gif->canvas[(i+k)*3 + 2] = opa;
 537:lvgl/src/extra/libs/gif/gifdec.c **** #elif LV_COLOR_DEPTH == 8
 538:lvgl/src/extra/libs/gif/gifdec.c ****                 lv_color_t c = lv_color_make(*(bgcolor + 0), *(bgcolor + 1), *(bgcolor + 2));
 539:lvgl/src/extra/libs/gif/gifdec.c ****                 gif->canvas[(i+k)*2 + 0] = c.full;
 540:lvgl/src/extra/libs/gif/gifdec.c ****                 gif->canvas[(i+k)*2 + 1] = opa;
 541:lvgl/src/extra/libs/gif/gifdec.c **** #elif LV_COLOR_DEPTH == 1
 542:lvgl/src/extra/libs/gif/gifdec.c ****                 uint8_t b = (*(bgcolor + 0)) | (*(bgcolor + 1)) | (*(bgcolor + 2));
 543:lvgl/src/extra/libs/gif/gifdec.c ****                 gif->canvas[(i+k)*2 + 0] = b > 128 ? 1 : 0;
 544:lvgl/src/extra/libs/gif/gifdec.c ****                 gif->canvas[(i+k)*2 + 1] = opa;
 545:lvgl/src/extra/libs/gif/gifdec.c **** #endif
 546:lvgl/src/extra/libs/gif/gifdec.c ****             }
 547:lvgl/src/extra/libs/gif/gifdec.c ****             i += gif->width;
 548:lvgl/src/extra/libs/gif/gifdec.c ****         }
 549:lvgl/src/extra/libs/gif/gifdec.c ****         break;
 550:lvgl/src/extra/libs/gif/gifdec.c ****     case 3: /* Restore to previous, i.e., don't update canvas.*/
 551:lvgl/src/extra/libs/gif/gifdec.c ****         break;
 552:lvgl/src/extra/libs/gif/gifdec.c ****     default:
 553:lvgl/src/extra/libs/gif/gifdec.c ****         /* Add frame non-transparent pixels to canvas. */
ARM GAS  C:\usertemp\ccoJaLKY.s 			page 28


 554:lvgl/src/extra/libs/gif/gifdec.c ****         render_frame_rect(gif, gif->canvas);
 358              		.loc 1 554 9 is_stmt 1 view .LVU114
 359 0010 D0F85416 		ldr	r1, [r0, #1620]
 360 0014 FFF7FEFF 		bl	render_frame_rect
 361              	.LVL39:
 362              	.L25:
 363              		.loc 1 554 9 is_stmt 0 view .LVU115
 364              	.LBE15:
 555:lvgl/src/extra/libs/gif/gifdec.c ****     }
 556:lvgl/src/extra/libs/gif/gifdec.c **** }
 365              		.loc 1 556 1 view .LVU116
 366 0018 BDE8F087 		pop	{r4, r5, r6, r7, r8, r9, r10, pc}
 367              	.LVL40:
 368              	.L26:
 369              	.LBB19:
 519:lvgl/src/extra/libs/gif/gifdec.c **** 
 370              		.loc 1 519 9 is_stmt 1 view .LVU117
 519:lvgl/src/extra/libs/gif/gifdec.c **** 
 371              		.loc 1 519 23 is_stmt 0 view .LVU118
 372 001c 056B     		ldr	r5, [r0, #48]
 519:lvgl/src/extra/libs/gif/gifdec.c **** 
 373              		.loc 1 519 44 view .LVU119
 374 001e 90F85046 		ldrb	r4, [r0, #1616]	@ zero_extendqisi2
 519:lvgl/src/extra/libs/gif/gifdec.c **** 
 375              		.loc 1 519 53 view .LVU120
 376 0022 04EB4404 		add	r4, r4, r4, lsl #1
 519:lvgl/src/extra/libs/gif/gifdec.c **** 
 377              		.loc 1 519 17 view .LVU121
 378 0026 05EB040C 		add	ip, r5, r4
 379 002a 0CF1040C 		add	ip, ip, #4
 380              	.LVL41:
 521:lvgl/src/extra/libs/gif/gifdec.c ****         if(gif->gce.transparency) opa = 0x00;
 381              		.loc 1 521 9 is_stmt 1 view .LVU122
 522:lvgl/src/extra/libs/gif/gifdec.c **** 
 382              		.loc 1 522 9 view .LVU123
 522:lvgl/src/extra/libs/gif/gifdec.c **** 
 383              		.loc 1 522 20 is_stmt 0 view .LVU124
 384 002e C36A     		ldr	r3, [r0, #44]
 522:lvgl/src/extra/libs/gif/gifdec.c **** 
 385              		.loc 1 522 11 view .LVU125
 386 0030 53B9     		cbnz	r3, .L33
 521:lvgl/src/extra/libs/gif/gifdec.c ****         if(gif->gce.transparency) opa = 0x00;
 387              		.loc 1 521 17 view .LVU126
 388 0032 FF26     		movs	r6, #255
 389              	.L29:
 390              	.LVL42:
 524:lvgl/src/extra/libs/gif/gifdec.c ****         for (j = 0; j < gif->fh; j++) {
 391              		.loc 1 524 9 is_stmt 1 view .LVU127
 524:lvgl/src/extra/libs/gif/gifdec.c ****         for (j = 0; j < gif->fh; j++) {
 392              		.loc 1 524 16 is_stmt 0 view .LVU128
 393 0034 B0F84A36 		ldrh	r3, [r0, #1610]
 524:lvgl/src/extra/libs/gif/gifdec.c ****         for (j = 0; j < gif->fh; j++) {
 394              		.loc 1 524 26 view .LVU129
 395 0038 828B     		ldrh	r2, [r0, #28]
 524:lvgl/src/extra/libs/gif/gifdec.c ****         for (j = 0; j < gif->fh; j++) {
 396              		.loc 1 524 39 view .LVU130
 397 003a B0F848E6 		ldrh	lr, [r0, #1608]
ARM GAS  C:\usertemp\ccoJaLKY.s 			page 29


 524:lvgl/src/extra/libs/gif/gifdec.c ****         for (j = 0; j < gif->fh; j++) {
 398              		.loc 1 524 11 view .LVU131
 399 003e 02FB03EE 		mla	lr, r2, r3, lr
 400              	.LVL43:
 525:lvgl/src/extra/libs/gif/gifdec.c ****             for (k = 0; k < gif->fw; k++) {
 401              		.loc 1 525 9 is_stmt 1 view .LVU132
 525:lvgl/src/extra/libs/gif/gifdec.c ****             for (k = 0; k < gif->fw; k++) {
 402              		.loc 1 525 16 is_stmt 0 view .LVU133
 403 0042 4FF0000A 		mov	r10, #0
 525:lvgl/src/extra/libs/gif/gifdec.c ****             for (k = 0; k < gif->fw; k++) {
 404              		.loc 1 525 9 view .LVU134
 405 0046 31E0     		b	.L30
 406              	.LVL44:
 407              	.L33:
 522:lvgl/src/extra/libs/gif/gifdec.c **** 
 408              		.loc 1 522 39 discriminator 1 view .LVU135
 409 0048 0026     		movs	r6, #0
 410 004a F3E7     		b	.L29
 411              	.LVL45:
 412              	.L31:
 413              	.LBB16:
 533:lvgl/src/extra/libs/gif/gifdec.c ****                 gif->canvas[(i+k)*3 + 0] = c.full & 0xff;
 414              		.loc 1 533 17 is_stmt 1 view .LVU136
 533:lvgl/src/extra/libs/gif/gifdec.c ****                 gif->canvas[(i+k)*3 + 0] = c.full & 0xff;
 415              		.loc 1 533 32 is_stmt 0 view .LVU137
 416 004c 2B19     		adds	r3, r5, r4
 417 004e 1B79     		ldrb	r3, [r3, #4]	@ zero_extendqisi2
 418 0050 9CF80180 		ldrb	r8, [ip, #1]	@ zero_extendqisi2
 419 0054 9CF80290 		ldrb	r9, [ip, #2]	@ zero_extendqisi2
 420              	.LVL46:
 421              	.LBB17:
 422              	.LBI17:
 592:lvgl/src/extra/libs/gif/../../../misc/lv_color.h **** {
 423              		.loc 2 592 26 is_stmt 1 view .LVU138
 424              	.LBB18:
 425              		.loc 2 594 5 view .LVU139
 426              		.loc 2 594 39 is_stmt 0 view .LVU140
 427 0058 4FEAD909 		lsr	r9, r9, #3
 428 005c 4FEA9808 		lsr	r8, r8, #2
 429 0060 DB08     		lsrs	r3, r3, #3
 430              		.loc 2 594 12 view .LVU141
 431 0062 69F30401 		bfi	r1, r9, #0, #5
 432 0066 68F34A11 		bfi	r1, r8, #5, #6
 433 006a 63F3CF21 		bfi	r1, r3, #11, #5
 434              	.LVL47:
 435              		.loc 2 594 12 view .LVU142
 436              	.LBE18:
 437              	.LBE17:
 534:lvgl/src/extra/libs/gif/gifdec.c ****                 gif->canvas[(i+k)*3 + 1] = (c.full >> 8) & 0xff;
 438              		.loc 1 534 17 is_stmt 1 view .LVU143
 534:lvgl/src/extra/libs/gif/gifdec.c ****                 gif->canvas[(i+k)*3 + 1] = (c.full >> 8) & 0xff;
 439              		.loc 1 534 45 is_stmt 0 view .LVU144
 440 006e 1FFA81F8 		uxth	r8, r1
 534:lvgl/src/extra/libs/gif/gifdec.c ****                 gif->canvas[(i+k)*3 + 1] = (c.full >> 8) & 0xff;
 441              		.loc 1 534 31 view .LVU145
 442 0072 0EEB0203 		add	r3, lr, r2
 534:lvgl/src/extra/libs/gif/gifdec.c ****                 gif->canvas[(i+k)*3 + 1] = (c.full >> 8) & 0xff;
ARM GAS  C:\usertemp\ccoJaLKY.s 			page 30


 443              		.loc 1 534 34 view .LVU146
 444 0076 03EB4303 		add	r3, r3, r3, lsl #1
 534:lvgl/src/extra/libs/gif/gifdec.c ****                 gif->canvas[(i+k)*3 + 1] = (c.full >> 8) & 0xff;
 445              		.loc 1 534 42 view .LVU147
 446 007a D0F85476 		ldr	r7, [r0, #1620]
 447 007e 07F80380 		strb	r8, [r7, r3]
 535:lvgl/src/extra/libs/gif/gifdec.c ****                 gif->canvas[(i+k)*3 + 2] = opa;
 448              		.loc 1 535 17 is_stmt 1 view .LVU148
 535:lvgl/src/extra/libs/gif/gifdec.c ****                 gif->canvas[(i+k)*3 + 2] = opa;
 449              		.loc 1 535 28 is_stmt 0 view .LVU149
 450 0082 03F10109 		add	r9, r3, #1
 535:lvgl/src/extra/libs/gif/gifdec.c ****                 gif->canvas[(i+k)*3 + 2] = opa;
 451              		.loc 1 535 42 view .LVU150
 452 0086 4FEA1828 		lsr	r8, r8, #8
 453 008a D0F85476 		ldr	r7, [r0, #1620]
 454 008e 07F80980 		strb	r8, [r7, r9]
 536:lvgl/src/extra/libs/gif/gifdec.c **** #elif LV_COLOR_DEPTH == 8
 455              		.loc 1 536 17 is_stmt 1 view .LVU151
 536:lvgl/src/extra/libs/gif/gifdec.c **** #elif LV_COLOR_DEPTH == 8
 456              		.loc 1 536 28 is_stmt 0 view .LVU152
 457 0092 0233     		adds	r3, r3, #2
 536:lvgl/src/extra/libs/gif/gifdec.c **** #elif LV_COLOR_DEPTH == 8
 458              		.loc 1 536 42 view .LVU153
 459 0094 D0F85476 		ldr	r7, [r0, #1620]
 460 0098 FE54     		strb	r6, [r7, r3]
 461              	.LBE16:
 526:lvgl/src/extra/libs/gif/gifdec.c **** #if LV_COLOR_DEPTH == 32
 462              		.loc 1 526 39 is_stmt 1 discriminator 3 view .LVU154
 463 009a 0132     		adds	r2, r2, #1
 464              	.LVL48:
 465              	.L32:
 526:lvgl/src/extra/libs/gif/gifdec.c **** #if LV_COLOR_DEPTH == 32
 466              		.loc 1 526 27 discriminator 1 view .LVU155
 526:lvgl/src/extra/libs/gif/gifdec.c **** #if LV_COLOR_DEPTH == 32
 467              		.loc 1 526 32 is_stmt 0 discriminator 1 view .LVU156
 468 009c B0F84C36 		ldrh	r3, [r0, #1612]
 526:lvgl/src/extra/libs/gif/gifdec.c **** #if LV_COLOR_DEPTH == 32
 469              		.loc 1 526 27 discriminator 1 view .LVU157
 470 00a0 9342     		cmp	r3, r2
 471 00a2 D3DC     		bgt	.L31
 547:lvgl/src/extra/libs/gif/gifdec.c ****         }
 472              		.loc 1 547 13 is_stmt 1 view .LVU158
 547:lvgl/src/extra/libs/gif/gifdec.c ****         }
 473              		.loc 1 547 21 is_stmt 0 view .LVU159
 474 00a4 838B     		ldrh	r3, [r0, #28]
 547:lvgl/src/extra/libs/gif/gifdec.c ****         }
 475              		.loc 1 547 15 view .LVU160
 476 00a6 9E44     		add	lr, lr, r3
 477              	.LVL49:
 525:lvgl/src/extra/libs/gif/gifdec.c ****             for (k = 0; k < gif->fw; k++) {
 478              		.loc 1 525 35 is_stmt 1 discriminator 2 view .LVU161
 479 00a8 0AF1010A 		add	r10, r10, #1
 480              	.LVL50:
 481              	.L30:
 525:lvgl/src/extra/libs/gif/gifdec.c ****             for (k = 0; k < gif->fw; k++) {
 482              		.loc 1 525 23 discriminator 1 view .LVU162
 525:lvgl/src/extra/libs/gif/gifdec.c ****             for (k = 0; k < gif->fw; k++) {
ARM GAS  C:\usertemp\ccoJaLKY.s 			page 31


 483              		.loc 1 525 28 is_stmt 0 discriminator 1 view .LVU163
 484 00ac B0F84E36 		ldrh	r3, [r0, #1614]
 525:lvgl/src/extra/libs/gif/gifdec.c ****             for (k = 0; k < gif->fw; k++) {
 485              		.loc 1 525 23 discriminator 1 view .LVU164
 486 00b0 5345     		cmp	r3, r10
 487 00b2 B1DD     		ble	.L25
 526:lvgl/src/extra/libs/gif/gifdec.c **** #if LV_COLOR_DEPTH == 32
 488              		.loc 1 526 20 view .LVU165
 489 00b4 0022     		movs	r2, #0
 490 00b6 F1E7     		b	.L32
 491              	.LBE19:
 492              		.cfi_endproc
 493              	.LFE35:
 495              		.section	.text.f_gif_open,"ax",%progbits
 496              		.align	1
 497              		.syntax unified
 498              		.thumb
 499              		.thumb_func
 501              	f_gif_open:
 502              	.LVL51:
 503              	.LFB40:
 557:lvgl/src/extra/libs/gif/gifdec.c **** 
 558:lvgl/src/extra/libs/gif/gifdec.c **** /* Return 1 if got a frame; 0 if got GIF trailer; -1 if error. */
 559:lvgl/src/extra/libs/gif/gifdec.c **** int
 560:lvgl/src/extra/libs/gif/gifdec.c **** gd_get_frame(gd_GIF *gif)
 561:lvgl/src/extra/libs/gif/gifdec.c **** {
 562:lvgl/src/extra/libs/gif/gifdec.c ****     char sep;
 563:lvgl/src/extra/libs/gif/gifdec.c **** 
 564:lvgl/src/extra/libs/gif/gifdec.c ****     dispose(gif);
 565:lvgl/src/extra/libs/gif/gifdec.c ****     f_gif_read(gif, &sep, 1);
 566:lvgl/src/extra/libs/gif/gifdec.c ****     while (sep != ',') {
 567:lvgl/src/extra/libs/gif/gifdec.c ****         if (sep == ';')
 568:lvgl/src/extra/libs/gif/gifdec.c ****             return 0;
 569:lvgl/src/extra/libs/gif/gifdec.c ****         if (sep == '!')
 570:lvgl/src/extra/libs/gif/gifdec.c ****             read_ext(gif);
 571:lvgl/src/extra/libs/gif/gifdec.c ****         else return -1;
 572:lvgl/src/extra/libs/gif/gifdec.c ****         f_gif_read(gif, &sep, 1);
 573:lvgl/src/extra/libs/gif/gifdec.c ****     }
 574:lvgl/src/extra/libs/gif/gifdec.c ****     if (read_image(gif) == -1)
 575:lvgl/src/extra/libs/gif/gifdec.c ****         return -1;
 576:lvgl/src/extra/libs/gif/gifdec.c ****     return 1;
 577:lvgl/src/extra/libs/gif/gifdec.c **** }
 578:lvgl/src/extra/libs/gif/gifdec.c **** 
 579:lvgl/src/extra/libs/gif/gifdec.c **** void
 580:lvgl/src/extra/libs/gif/gifdec.c **** gd_render_frame(gd_GIF *gif, uint8_t *buffer)
 581:lvgl/src/extra/libs/gif/gifdec.c **** {
 582:lvgl/src/extra/libs/gif/gifdec.c **** //    uint32_t i;
 583:lvgl/src/extra/libs/gif/gifdec.c **** //    uint32_t j;
 584:lvgl/src/extra/libs/gif/gifdec.c **** //    for(i = 0, j = 0; i < gif->width * gif->height * 3; i+= 3, j+=4) {
 585:lvgl/src/extra/libs/gif/gifdec.c **** //        buffer[j + 0] = gif->canvas[i + 2];
 586:lvgl/src/extra/libs/gif/gifdec.c **** //        buffer[j + 1] = gif->canvas[i + 1];
 587:lvgl/src/extra/libs/gif/gifdec.c **** //        buffer[j + 2] = gif->canvas[i + 0];
 588:lvgl/src/extra/libs/gif/gifdec.c **** //        buffer[j + 3] = 0xFF;
 589:lvgl/src/extra/libs/gif/gifdec.c **** //    }
 590:lvgl/src/extra/libs/gif/gifdec.c **** //    memcpy(buffer, gif->canvas, gif->width * gif->height * 3);
 591:lvgl/src/extra/libs/gif/gifdec.c ****     render_frame_rect(gif, buffer);
 592:lvgl/src/extra/libs/gif/gifdec.c **** }
ARM GAS  C:\usertemp\ccoJaLKY.s 			page 32


 593:lvgl/src/extra/libs/gif/gifdec.c **** 
 594:lvgl/src/extra/libs/gif/gifdec.c **** void
 595:lvgl/src/extra/libs/gif/gifdec.c **** gd_rewind(gd_GIF *gif)
 596:lvgl/src/extra/libs/gif/gifdec.c **** {
 597:lvgl/src/extra/libs/gif/gifdec.c ****     f_gif_seek(gif, gif->anim_start, LV_FS_SEEK_SET);
 598:lvgl/src/extra/libs/gif/gifdec.c **** }
 599:lvgl/src/extra/libs/gif/gifdec.c **** 
 600:lvgl/src/extra/libs/gif/gifdec.c **** void
 601:lvgl/src/extra/libs/gif/gifdec.c **** gd_close_gif(gd_GIF *gif)
 602:lvgl/src/extra/libs/gif/gifdec.c **** {
 603:lvgl/src/extra/libs/gif/gifdec.c ****     f_gif_close(gif);
 604:lvgl/src/extra/libs/gif/gifdec.c ****     lv_mem_free(gif);
 605:lvgl/src/extra/libs/gif/gifdec.c **** }
 606:lvgl/src/extra/libs/gif/gifdec.c **** 
 607:lvgl/src/extra/libs/gif/gifdec.c **** static bool f_gif_open(gd_GIF * gif, const void * path, bool is_file)
 608:lvgl/src/extra/libs/gif/gifdec.c **** {
 504              		.loc 1 608 1 is_stmt 1 view -0
 505              		.cfi_startproc
 506              		@ args = 0, pretend = 0, frame = 0
 507              		@ frame_needed = 0, uses_anonymous_args = 0
 609:lvgl/src/extra/libs/gif/gifdec.c ****     gif->f_rw_p = 0;
 508              		.loc 1 609 5 view .LVU167
 509              		.loc 1 609 17 is_stmt 0 view .LVU168
 510 0000 0023     		movs	r3, #0
 511 0002 4361     		str	r3, [r0, #20]
 610:lvgl/src/extra/libs/gif/gifdec.c ****     gif->data = NULL;
 512              		.loc 1 610 5 is_stmt 1 view .LVU169
 513              		.loc 1 610 15 is_stmt 0 view .LVU170
 514 0004 C360     		str	r3, [r0, #12]
 611:lvgl/src/extra/libs/gif/gifdec.c ****     gif->is_file = is_file;
 515              		.loc 1 611 5 is_stmt 1 view .LVU171
 516              		.loc 1 611 18 is_stmt 0 view .LVU172
 517 0006 0274     		strb	r2, [r0, #16]
 612:lvgl/src/extra/libs/gif/gifdec.c **** 
 613:lvgl/src/extra/libs/gif/gifdec.c ****     if(is_file) {
 518              		.loc 1 613 5 is_stmt 1 view .LVU173
 519              		.loc 1 613 7 is_stmt 0 view .LVU174
 520 0008 12B9     		cbnz	r2, .L45
 614:lvgl/src/extra/libs/gif/gifdec.c ****         lv_fs_res_t res = lv_fs_open(&gif->fd, path, LV_FS_MODE_RD);
 615:lvgl/src/extra/libs/gif/gifdec.c ****         if(res != LV_FS_RES_OK) return false;
 616:lvgl/src/extra/libs/gif/gifdec.c ****         else return true;
 617:lvgl/src/extra/libs/gif/gifdec.c ****     } else {
 618:lvgl/src/extra/libs/gif/gifdec.c ****         gif->data = path;
 521              		.loc 1 618 9 is_stmt 1 view .LVU175
 522              		.loc 1 618 19 is_stmt 0 view .LVU176
 523 000a C160     		str	r1, [r0, #12]
 619:lvgl/src/extra/libs/gif/gifdec.c ****         return true;
 524              		.loc 1 619 9 is_stmt 1 view .LVU177
 525              		.loc 1 619 16 is_stmt 0 view .LVU178
 526 000c 0120     		movs	r0, #1
 527              	.LVL52:
 620:lvgl/src/extra/libs/gif/gifdec.c ****     }
 621:lvgl/src/extra/libs/gif/gifdec.c **** }
 528              		.loc 1 621 1 view .LVU179
 529 000e 7047     		bx	lr
 530              	.LVL53:
 531              	.L45:
ARM GAS  C:\usertemp\ccoJaLKY.s 			page 33


 608:lvgl/src/extra/libs/gif/gifdec.c ****     gif->f_rw_p = 0;
 532              		.loc 1 608 1 view .LVU180
 533 0010 10B5     		push	{r4, lr}
 534              	.LCFI2:
 535              		.cfi_def_cfa_offset 8
 536              		.cfi_offset 4, -8
 537              		.cfi_offset 14, -4
 538 0012 1446     		mov	r4, r2
 539              	.LBB20:
 614:lvgl/src/extra/libs/gif/gifdec.c ****         if(res != LV_FS_RES_OK) return false;
 540              		.loc 1 614 9 is_stmt 1 view .LVU181
 614:lvgl/src/extra/libs/gif/gifdec.c ****         if(res != LV_FS_RES_OK) return false;
 541              		.loc 1 614 27 is_stmt 0 view .LVU182
 542 0014 0222     		movs	r2, #2
 543              	.LVL54:
 614:lvgl/src/extra/libs/gif/gifdec.c ****         if(res != LV_FS_RES_OK) return false;
 544              		.loc 1 614 27 view .LVU183
 545 0016 FFF7FEFF 		bl	lv_fs_open
 546              	.LVL55:
 615:lvgl/src/extra/libs/gif/gifdec.c ****         else return true;
 547              		.loc 1 615 9 is_stmt 1 view .LVU184
 615:lvgl/src/extra/libs/gif/gifdec.c ****         else return true;
 548              		.loc 1 615 11 is_stmt 0 view .LVU185
 549 001a 08B1     		cbz	r0, .L40
 615:lvgl/src/extra/libs/gif/gifdec.c ****         else return true;
 550              		.loc 1 615 40 discriminator 1 view .LVU186
 551 001c 0020     		movs	r0, #0
 552              	.LVL56:
 553              	.L39:
 615:lvgl/src/extra/libs/gif/gifdec.c ****         else return true;
 554              		.loc 1 615 40 discriminator 1 view .LVU187
 555              	.LBE20:
 556              		.loc 1 621 1 view .LVU188
 557 001e 10BD     		pop	{r4, pc}
 558              	.LVL57:
 559              	.L40:
 560              	.LBB21:
 616:lvgl/src/extra/libs/gif/gifdec.c ****     } else {
 561              		.loc 1 616 21 view .LVU189
 562 0020 2046     		mov	r0, r4
 563              	.LVL58:
 616:lvgl/src/extra/libs/gif/gifdec.c ****     } else {
 564              		.loc 1 616 21 view .LVU190
 565 0022 FCE7     		b	.L39
 566              	.LBE21:
 567              		.cfi_endproc
 568              	.LFE40:
 570              		.section	.text.new_table,"ax",%progbits
 571              		.align	1
 572              		.syntax unified
 573              		.thumb
 574              		.thumb_func
 576              	new_table:
 577              	.LVL59:
 578              	.LFB28:
 287:lvgl/src/extra/libs/gif/gifdec.c ****     int key;
 579              		.loc 1 287 1 is_stmt 1 view -0
ARM GAS  C:\usertemp\ccoJaLKY.s 			page 34


 580              		.cfi_startproc
 581              		@ args = 0, pretend = 0, frame = 0
 582              		@ frame_needed = 0, uses_anonymous_args = 0
 287:lvgl/src/extra/libs/gif/gifdec.c ****     int key;
 583              		.loc 1 287 1 is_stmt 0 view .LVU192
 584 0000 70B5     		push	{r4, r5, r6, lr}
 585              	.LCFI3:
 586              		.cfi_def_cfa_offset 16
 587              		.cfi_offset 4, -16
 588              		.cfi_offset 5, -12
 589              		.cfi_offset 6, -8
 590              		.cfi_offset 14, -4
 591 0002 0646     		mov	r6, r0
 288:lvgl/src/extra/libs/gif/gifdec.c ****     int init_bulk = MAX(1 << (key_size + 1), 0x100);
 592              		.loc 1 288 5 is_stmt 1 view .LVU193
 289:lvgl/src/extra/libs/gif/gifdec.c ****     Table *table = lv_mem_alloc(sizeof(*table) + sizeof(Entry) * init_bulk);
 593              		.loc 1 289 5 view .LVU194
 289:lvgl/src/extra/libs/gif/gifdec.c ****     Table *table = lv_mem_alloc(sizeof(*table) + sizeof(Entry) * init_bulk);
 594              		.loc 1 289 21 is_stmt 0 view .LVU195
 595 0004 431C     		adds	r3, r0, #1
 596 0006 0125     		movs	r5, #1
 597 0008 9D40     		lsls	r5, r5, r3
 289:lvgl/src/extra/libs/gif/gifdec.c ****     Table *table = lv_mem_alloc(sizeof(*table) + sizeof(Entry) * init_bulk);
 598              		.loc 1 289 9 view .LVU196
 599 000a B5F5807F 		cmp	r5, #256
 600 000e B8BF     		it	lt
 601 0010 4FF48075 		movlt	r5, #256
 602              	.LVL60:
 290:lvgl/src/extra/libs/gif/gifdec.c ****     if (table) {
 603              		.loc 1 290 5 is_stmt 1 view .LVU197
 290:lvgl/src/extra/libs/gif/gifdec.c ****     if (table) {
 604              		.loc 1 290 64 is_stmt 0 view .LVU198
 605 0014 05EB4500 		add	r0, r5, r5, lsl #1
 606              	.LVL61:
 290:lvgl/src/extra/libs/gif/gifdec.c ****     if (table) {
 607              		.loc 1 290 64 view .LVU199
 608 0018 4000     		lsls	r0, r0, #1
 290:lvgl/src/extra/libs/gif/gifdec.c ****     if (table) {
 609              		.loc 1 290 20 view .LVU200
 610 001a 0C30     		adds	r0, r0, #12
 611 001c FFF7FEFF 		bl	lv_mem_alloc
 612              	.LVL62:
 291:lvgl/src/extra/libs/gif/gifdec.c ****         table->bulk = init_bulk;
 613              		.loc 1 291 5 is_stmt 1 view .LVU201
 291:lvgl/src/extra/libs/gif/gifdec.c ****         table->bulk = init_bulk;
 614              		.loc 1 291 8 is_stmt 0 view .LVU202
 615 0020 0446     		mov	r4, r0
 616 0022 D0B1     		cbz	r0, .L46
 292:lvgl/src/extra/libs/gif/gifdec.c ****         table->nentries = (1 << key_size) + 2;
 617              		.loc 1 292 9 is_stmt 1 view .LVU203
 292:lvgl/src/extra/libs/gif/gifdec.c ****         table->nentries = (1 << key_size) + 2;
 618              		.loc 1 292 21 is_stmt 0 view .LVU204
 619 0024 0560     		str	r5, [r0]
 293:lvgl/src/extra/libs/gif/gifdec.c ****         table->entries = (Entry *) &table[1];
 620              		.loc 1 293 9 is_stmt 1 view .LVU205
 293:lvgl/src/extra/libs/gif/gifdec.c ****         table->entries = (Entry *) &table[1];
 621              		.loc 1 293 30 is_stmt 0 view .LVU206
ARM GAS  C:\usertemp\ccoJaLKY.s 			page 35


 622 0026 0123     		movs	r3, #1
 623 0028 03FA06F0 		lsl	r0, r3, r6
 624              	.LVL63:
 293:lvgl/src/extra/libs/gif/gifdec.c ****         table->entries = (Entry *) &table[1];
 625              		.loc 1 293 43 view .LVU207
 626 002c 831C     		adds	r3, r0, #2
 293:lvgl/src/extra/libs/gif/gifdec.c ****         table->entries = (Entry *) &table[1];
 627              		.loc 1 293 25 view .LVU208
 628 002e 6360     		str	r3, [r4, #4]
 294:lvgl/src/extra/libs/gif/gifdec.c ****         for (key = 0; key < (1 << key_size); key++)
 629              		.loc 1 294 9 is_stmt 1 view .LVU209
 294:lvgl/src/extra/libs/gif/gifdec.c ****         for (key = 0; key < (1 << key_size); key++)
 630              		.loc 1 294 36 is_stmt 0 view .LVU210
 631 0030 04F10C03 		add	r3, r4, #12
 294:lvgl/src/extra/libs/gif/gifdec.c ****         for (key = 0; key < (1 << key_size); key++)
 632              		.loc 1 294 24 view .LVU211
 633 0034 A360     		str	r3, [r4, #8]
 295:lvgl/src/extra/libs/gif/gifdec.c ****             table->entries[key] = (Entry) {1, 0xFFF, key};
 634              		.loc 1 295 9 is_stmt 1 view .LVU212
 635              	.LVL64:
 295:lvgl/src/extra/libs/gif/gifdec.c ****             table->entries[key] = (Entry) {1, 0xFFF, key};
 636              		.loc 1 295 18 is_stmt 0 view .LVU213
 637 0036 0023     		movs	r3, #0
 295:lvgl/src/extra/libs/gif/gifdec.c ****             table->entries[key] = (Entry) {1, 0xFFF, key};
 638              		.loc 1 295 9 view .LVU214
 639 0038 0DE0     		b	.L48
 640              	.LVL65:
 641              	.L49:
 642              	.LBB22:
 296:lvgl/src/extra/libs/gif/gifdec.c ****     }
 643              		.loc 1 296 13 is_stmt 1 view .LVU215
 296:lvgl/src/extra/libs/gif/gifdec.c ****     }
 644              		.loc 1 296 18 is_stmt 0 view .LVU216
 645 003a A168     		ldr	r1, [r4, #8]
 296:lvgl/src/extra/libs/gif/gifdec.c ****     }
 646              		.loc 1 296 27 view .LVU217
 647 003c 03EB430C 		add	ip, r3, r3, lsl #1
 648 0040 01EB4C02 		add	r2, r1, ip, lsl #1
 296:lvgl/src/extra/libs/gif/gifdec.c ****     }
 649              		.loc 1 296 33 view .LVU218
 650 0044 4FF0010E 		mov	lr, #1
 651 0048 21F81CE0 		strh	lr, [r1, ip, lsl #1]	@ movhi
 652 004c 40F6FF71 		movw	r1, #4095
 653 0050 5180     		strh	r1, [r2, #2]	@ movhi
 654 0052 1371     		strb	r3, [r2, #4]
 655              	.LBE22:
 295:lvgl/src/extra/libs/gif/gifdec.c ****             table->entries[key] = (Entry) {1, 0xFFF, key};
 656              		.loc 1 295 49 is_stmt 1 discriminator 3 view .LVU219
 657 0054 7344     		add	r3, r3, lr
 658              	.LVL66:
 659              	.L48:
 295:lvgl/src/extra/libs/gif/gifdec.c ****             table->entries[key] = (Entry) {1, 0xFFF, key};
 660              		.loc 1 295 27 discriminator 1 view .LVU220
 661 0056 9842     		cmp	r0, r3
 662 0058 EFDC     		bgt	.L49
 663              	.LVL67:
 664              	.L46:
ARM GAS  C:\usertemp\ccoJaLKY.s 			page 36


 299:lvgl/src/extra/libs/gif/gifdec.c **** 
 665              		.loc 1 299 1 is_stmt 0 view .LVU221
 666 005a 2046     		mov	r0, r4
 667 005c 70BD     		pop	{r4, r5, r6, pc}
 299:lvgl/src/extra/libs/gif/gifdec.c **** 
 668              		.loc 1 299 1 view .LVU222
 669              		.cfi_endproc
 670              	.LFE28:
 672              		.section	.text.f_gif_read,"ax",%progbits
 673              		.align	1
 674              		.syntax unified
 675              		.thumb
 676              		.thumb_func
 678              	f_gif_read:
 679              	.LVL68:
 680              	.LFB41:
 622:lvgl/src/extra/libs/gif/gifdec.c **** 
 623:lvgl/src/extra/libs/gif/gifdec.c **** static void f_gif_read(gd_GIF * gif, void * buf, size_t len)
 624:lvgl/src/extra/libs/gif/gifdec.c **** {
 681              		.loc 1 624 1 is_stmt 1 view -0
 682              		.cfi_startproc
 683              		@ args = 0, pretend = 0, frame = 0
 684              		@ frame_needed = 0, uses_anonymous_args = 0
 685              		.loc 1 624 1 is_stmt 0 view .LVU224
 686 0000 38B5     		push	{r3, r4, r5, lr}
 687              	.LCFI4:
 688              		.cfi_def_cfa_offset 16
 689              		.cfi_offset 3, -16
 690              		.cfi_offset 4, -12
 691              		.cfi_offset 5, -8
 692              		.cfi_offset 14, -4
 693 0002 0446     		mov	r4, r0
 694 0004 0846     		mov	r0, r1
 695              	.LVL69:
 696              		.loc 1 624 1 view .LVU225
 697 0006 1546     		mov	r5, r2
 625:lvgl/src/extra/libs/gif/gifdec.c ****     if(gif->is_file) {
 698              		.loc 1 625 5 is_stmt 1 view .LVU226
 699              		.loc 1 625 11 is_stmt 0 view .LVU227
 700 0008 237C     		ldrb	r3, [r4, #16]	@ zero_extendqisi2
 701              		.loc 1 625 7 view .LVU228
 702 000a 23B1     		cbz	r3, .L52
 626:lvgl/src/extra/libs/gif/gifdec.c ****         lv_fs_read(&gif->fd, buf, len, NULL);
 703              		.loc 1 626 9 is_stmt 1 view .LVU229
 704 000c 0023     		movs	r3, #0
 705 000e 2046     		mov	r0, r4
 706 0010 FFF7FEFF 		bl	lv_fs_read
 707              	.LVL70:
 708              	.L51:
 627:lvgl/src/extra/libs/gif/gifdec.c ****     } else
 628:lvgl/src/extra/libs/gif/gifdec.c ****     {
 629:lvgl/src/extra/libs/gif/gifdec.c ****         memcpy(buf, &gif->data[gif->f_rw_p], len);
 630:lvgl/src/extra/libs/gif/gifdec.c ****         gif->f_rw_p += len;
 631:lvgl/src/extra/libs/gif/gifdec.c ****     }
 632:lvgl/src/extra/libs/gif/gifdec.c **** }
 709              		.loc 1 632 1 is_stmt 0 view .LVU230
 710 0014 38BD     		pop	{r3, r4, r5, pc}
ARM GAS  C:\usertemp\ccoJaLKY.s 			page 37


 711              	.LVL71:
 712              	.L52:
 629:lvgl/src/extra/libs/gif/gifdec.c ****         gif->f_rw_p += len;
 713              		.loc 1 629 9 is_stmt 1 view .LVU231
 629:lvgl/src/extra/libs/gif/gifdec.c ****         gif->f_rw_p += len;
 714              		.loc 1 629 25 is_stmt 0 view .LVU232
 715 0016 E168     		ldr	r1, [r4, #12]
 629:lvgl/src/extra/libs/gif/gifdec.c ****         gif->f_rw_p += len;
 716              		.loc 1 629 35 view .LVU233
 717 0018 6369     		ldr	r3, [r4, #20]
 629:lvgl/src/extra/libs/gif/gifdec.c ****         gif->f_rw_p += len;
 718              		.loc 1 629 9 view .LVU234
 719 001a 1944     		add	r1, r1, r3
 720 001c FFF7FEFF 		bl	memcpy
 721              	.LVL72:
 630:lvgl/src/extra/libs/gif/gifdec.c ****     }
 722              		.loc 1 630 9 is_stmt 1 view .LVU235
 630:lvgl/src/extra/libs/gif/gifdec.c ****     }
 723              		.loc 1 630 12 is_stmt 0 view .LVU236
 724 0020 6369     		ldr	r3, [r4, #20]
 630:lvgl/src/extra/libs/gif/gifdec.c ****     }
 725              		.loc 1 630 21 view .LVU237
 726 0022 2B44     		add	r3, r3, r5
 727 0024 6361     		str	r3, [r4, #20]
 728              		.loc 1 632 1 view .LVU238
 729 0026 F5E7     		b	.L51
 730              		.cfi_endproc
 731              	.LFE41:
 733              		.section	.text.read_num,"ax",%progbits
 734              		.align	1
 735              		.syntax unified
 736              		.thumb
 737              		.thumb_func
 739              	read_num:
 740              	.LVL73:
 741              	.LFB18:
  34:lvgl/src/extra/libs/gif/gifdec.c ****     uint8_t bytes[2];
 742              		.loc 1 34 1 is_stmt 1 view -0
 743              		.cfi_startproc
 744              		@ args = 0, pretend = 0, frame = 8
 745              		@ frame_needed = 0, uses_anonymous_args = 0
  34:lvgl/src/extra/libs/gif/gifdec.c ****     uint8_t bytes[2];
 746              		.loc 1 34 1 is_stmt 0 view .LVU240
 747 0000 00B5     		push	{lr}
 748              	.LCFI5:
 749              		.cfi_def_cfa_offset 4
 750              		.cfi_offset 14, -4
 751 0002 83B0     		sub	sp, sp, #12
 752              	.LCFI6:
 753              		.cfi_def_cfa_offset 16
  35:lvgl/src/extra/libs/gif/gifdec.c **** 
 754              		.loc 1 35 5 is_stmt 1 view .LVU241
  37:lvgl/src/extra/libs/gif/gifdec.c ****     return bytes[0] + (((uint16_t) bytes[1]) << 8);
 755              		.loc 1 37 5 view .LVU242
 756 0004 0222     		movs	r2, #2
 757 0006 01A9     		add	r1, sp, #4
 758 0008 FFF7FEFF 		bl	f_gif_read
ARM GAS  C:\usertemp\ccoJaLKY.s 			page 38


 759              	.LVL74:
  38:lvgl/src/extra/libs/gif/gifdec.c **** }
 760              		.loc 1 38 5 view .LVU243
  38:lvgl/src/extra/libs/gif/gifdec.c **** }
 761              		.loc 1 38 17 is_stmt 0 view .LVU244
 762 000c 9DF80400 		ldrb	r0, [sp, #4]	@ zero_extendqisi2
  38:lvgl/src/extra/libs/gif/gifdec.c **** }
 763              		.loc 1 38 41 view .LVU245
 764 0010 9DF80530 		ldrb	r3, [sp, #5]	@ zero_extendqisi2
  38:lvgl/src/extra/libs/gif/gifdec.c **** }
 765              		.loc 1 38 21 view .LVU246
 766 0014 00EB0320 		add	r0, r0, r3, lsl #8
  39:lvgl/src/extra/libs/gif/gifdec.c **** 
 767              		.loc 1 39 1 view .LVU247
 768 0018 80B2     		uxth	r0, r0
 769 001a 03B0     		add	sp, sp, #12
 770              	.LCFI7:
 771              		.cfi_def_cfa_offset 4
 772              		@ sp needed
 773 001c 5DF804FB 		ldr	pc, [sp], #4
 774              		.cfi_endproc
 775              	.LFE18:
 777              		.section	.text.get_key,"ax",%progbits
 778              		.align	1
 779              		.syntax unified
 780              		.thumb
 781              		.thumb_func
 783              	get_key:
 784              	.LVL75:
 785              	.LFB30:
 325:lvgl/src/extra/libs/gif/gifdec.c ****     int bits_read;
 786              		.loc 1 325 1 is_stmt 1 view -0
 787              		.cfi_startproc
 788              		@ args = 4, pretend = 0, frame = 8
 789              		@ frame_needed = 0, uses_anonymous_args = 0
 325:lvgl/src/extra/libs/gif/gifdec.c ****     int bits_read;
 790              		.loc 1 325 1 is_stmt 0 view .LVU249
 791 0000 2DE9F04F 		push	{r4, r5, r6, r7, r8, r9, r10, fp, lr}
 792              	.LCFI8:
 793              		.cfi_def_cfa_offset 36
 794              		.cfi_offset 4, -36
 795              		.cfi_offset 5, -32
 796              		.cfi_offset 6, -28
 797              		.cfi_offset 7, -24
 798              		.cfi_offset 8, -20
 799              		.cfi_offset 9, -16
 800              		.cfi_offset 10, -12
 801              		.cfi_offset 11, -8
 802              		.cfi_offset 14, -4
 803 0004 83B0     		sub	sp, sp, #12
 804              	.LCFI9:
 805              		.cfi_def_cfa_offset 48
 806 0006 0190     		str	r0, [sp, #4]
 807 0008 0F46     		mov	r7, r1
 808 000a 9046     		mov	r8, r2
 809 000c 9B46     		mov	fp, r3
 810 000e DDF830A0 		ldr	r10, [sp, #48]
ARM GAS  C:\usertemp\ccoJaLKY.s 			page 39


 326:lvgl/src/extra/libs/gif/gifdec.c ****     int rpad;
 811              		.loc 1 326 5 is_stmt 1 view .LVU250
 327:lvgl/src/extra/libs/gif/gifdec.c ****     int frag_size;
 812              		.loc 1 327 5 view .LVU251
 328:lvgl/src/extra/libs/gif/gifdec.c ****     uint16_t key;
 813              		.loc 1 328 5 view .LVU252
 329:lvgl/src/extra/libs/gif/gifdec.c **** 
 814              		.loc 1 329 5 view .LVU253
 331:lvgl/src/extra/libs/gif/gifdec.c ****     for (bits_read = 0; bits_read < key_size; bits_read += frag_size) {
 815              		.loc 1 331 5 view .LVU254
 816              	.LVL76:
 332:lvgl/src/extra/libs/gif/gifdec.c ****         rpad = (*shift + bits_read) % 8;
 817              		.loc 1 332 5 view .LVU255
 331:lvgl/src/extra/libs/gif/gifdec.c ****     for (bits_read = 0; bits_read < key_size; bits_read += frag_size) {
 818              		.loc 1 331 9 is_stmt 0 view .LVU256
 819 0012 4FF00009 		mov	r9, #0
 332:lvgl/src/extra/libs/gif/gifdec.c ****         rpad = (*shift + bits_read) % 8;
 820              		.loc 1 332 20 view .LVU257
 821 0016 4D46     		mov	r5, r9
 332:lvgl/src/extra/libs/gif/gifdec.c ****         rpad = (*shift + bits_read) % 8;
 822              		.loc 1 332 5 view .LVU258
 823 0018 19E0     		b	.L58
 824              	.LVL77:
 825              	.L60:
 340:lvgl/src/extra/libs/gif/gifdec.c ****             (*sub_len)--;
 826              		.loc 1 340 13 is_stmt 1 view .LVU259
 827 001a 0122     		movs	r2, #1
 828 001c 5146     		mov	r1, r10
 829 001e 0198     		ldr	r0, [sp, #4]
 830 0020 FFF7FEFF 		bl	f_gif_read
 831              	.LVL78:
 341:lvgl/src/extra/libs/gif/gifdec.c ****         }
 832              		.loc 1 341 13 view .LVU260
 341:lvgl/src/extra/libs/gif/gifdec.c ****         }
 833              		.loc 1 341 14 is_stmt 0 view .LVU261
 834 0024 98F80030 		ldrb	r3, [r8]	@ zero_extendqisi2
 341:lvgl/src/extra/libs/gif/gifdec.c ****         }
 835              		.loc 1 341 23 view .LVU262
 836 0028 013B     		subs	r3, r3, #1
 837 002a 88F80030 		strb	r3, [r8]
 838              	.L59:
 343:lvgl/src/extra/libs/gif/gifdec.c ****         key |= ((uint16_t) ((*byte) >> rpad)) << bits_read;
 839              		.loc 1 343 9 is_stmt 1 view .LVU263
 343:lvgl/src/extra/libs/gif/gifdec.c ****         key |= ((uint16_t) ((*byte) >> rpad)) << bits_read;
 840              		.loc 1 343 21 is_stmt 0 view .LVU264
 841 002e C6F10806 		rsb	r6, r6, #8
 842              	.LVL79:
 343:lvgl/src/extra/libs/gif/gifdec.c ****         key |= ((uint16_t) ((*byte) >> rpad)) << bits_read;
 843              		.loc 1 343 21 view .LVU265
 844 0032 7A1B     		subs	r2, r7, r5
 845              	.LVL80:
 344:lvgl/src/extra/libs/gif/gifdec.c ****     }
 846              		.loc 1 344 9 is_stmt 1 view .LVU266
 344:lvgl/src/extra/libs/gif/gifdec.c ****     }
 847              		.loc 1 344 30 is_stmt 0 view .LVU267
 848 0034 9AF80030 		ldrb	r3, [r10]	@ zero_extendqisi2
 344:lvgl/src/extra/libs/gif/gifdec.c ****     }
ARM GAS  C:\usertemp\ccoJaLKY.s 			page 40


 849              		.loc 1 344 37 view .LVU268
 850 0038 2341     		asrs	r3, r3, r4
 344:lvgl/src/extra/libs/gif/gifdec.c ****     }
 851              		.loc 1 344 47 view .LVU269
 852 003a 9BB2     		uxth	r3, r3
 853 003c AB40     		lsls	r3, r3, r5
 344:lvgl/src/extra/libs/gif/gifdec.c ****     }
 854              		.loc 1 344 13 view .LVU270
 855 003e 49EA0303 		orr	r3, r9, r3
 856 0042 1FFA83F9 		uxth	r9, r3
 857              	.LVL81:
 332:lvgl/src/extra/libs/gif/gifdec.c ****         rpad = (*shift + bits_read) % 8;
 858              		.loc 1 332 57 is_stmt 1 discriminator 2 view .LVU271
 859 0046 9642     		cmp	r6, r2
 860 0048 D4BF     		ite	le
 861 004a AD19     		addle	r5, r5, r6
 862 004c AD18     		addgt	r5, r5, r2
 863              	.LVL82:
 864              	.L58:
 332:lvgl/src/extra/libs/gif/gifdec.c ****         rpad = (*shift + bits_read) % 8;
 865              		.loc 1 332 35 discriminator 1 view .LVU272
 866 004e BD42     		cmp	r5, r7
 867 0050 1CDA     		bge	.L65
 333:lvgl/src/extra/libs/gif/gifdec.c ****         if (rpad == 0) {
 868              		.loc 1 333 9 view .LVU273
 333:lvgl/src/extra/libs/gif/gifdec.c ****         if (rpad == 0) {
 869              		.loc 1 333 17 is_stmt 0 view .LVU274
 870 0052 9BF80040 		ldrb	r4, [fp]	@ zero_extendqisi2
 333:lvgl/src/extra/libs/gif/gifdec.c ****         if (rpad == 0) {
 871              		.loc 1 333 24 view .LVU275
 872 0056 2C44     		add	r4, r4, r5
 333:lvgl/src/extra/libs/gif/gifdec.c ****         if (rpad == 0) {
 873              		.loc 1 333 14 view .LVU276
 874 0058 6342     		rsbs	r3, r4, #0
 875 005a 04F00706 		and	r6, r4, #7
 876 005e 03F00703 		and	r3, r3, #7
 877 0062 58BF     		it	pl
 878 0064 5E42     		rsbpl	r6, r3, #0
 879              	.LVL83:
 334:lvgl/src/extra/libs/gif/gifdec.c ****             /* Update byte. */
 880              		.loc 1 334 9 is_stmt 1 view .LVU277
 334:lvgl/src/extra/libs/gif/gifdec.c ****             /* Update byte. */
 881              		.loc 1 334 12 is_stmt 0 view .LVU278
 882 0066 14F00704 		ands	r4, r4, #7
 883 006a E0D1     		bne	.L59
 336:lvgl/src/extra/libs/gif/gifdec.c ****                 f_gif_read(gif, sub_len, 1); /* Must be nonzero! */
 884              		.loc 1 336 13 is_stmt 1 view .LVU279
 336:lvgl/src/extra/libs/gif/gifdec.c ****                 f_gif_read(gif, sub_len, 1); /* Must be nonzero! */
 885              		.loc 1 336 17 is_stmt 0 view .LVU280
 886 006c 98F80030 		ldrb	r3, [r8]	@ zero_extendqisi2
 336:lvgl/src/extra/libs/gif/gifdec.c ****                 f_gif_read(gif, sub_len, 1); /* Must be nonzero! */
 887              		.loc 1 336 16 view .LVU281
 888 0070 002B     		cmp	r3, #0
 889 0072 D2D1     		bne	.L60
 337:lvgl/src/extra/libs/gif/gifdec.c ****                 if (*sub_len == 0) return 0x1000;
 890              		.loc 1 337 17 is_stmt 1 view .LVU282
 891 0074 0122     		movs	r2, #1
ARM GAS  C:\usertemp\ccoJaLKY.s 			page 41


 892 0076 4146     		mov	r1, r8
 893 0078 0198     		ldr	r0, [sp, #4]
 894 007a FFF7FEFF 		bl	f_gif_read
 895              	.LVL84:
 338:lvgl/src/extra/libs/gif/gifdec.c ****             }
 896              		.loc 1 338 17 view .LVU283
 338:lvgl/src/extra/libs/gif/gifdec.c ****             }
 897              		.loc 1 338 21 is_stmt 0 view .LVU284
 898 007e 98F80030 		ldrb	r3, [r8]	@ zero_extendqisi2
 338:lvgl/src/extra/libs/gif/gifdec.c ****             }
 899              		.loc 1 338 20 view .LVU285
 900 0082 002B     		cmp	r3, #0
 901 0084 C9D1     		bne	.L60
 338:lvgl/src/extra/libs/gif/gifdec.c ****             }
 902              		.loc 1 338 43 discriminator 1 view .LVU286
 903 0086 4FF48050 		mov	r0, #4096
 904 008a 10E0     		b	.L61
 905              	.LVL85:
 906              	.L65:
 347:lvgl/src/extra/libs/gif/gifdec.c ****     *shift = (*shift + key_size) % 8;
 907              		.loc 1 347 5 is_stmt 1 view .LVU287
 347:lvgl/src/extra/libs/gif/gifdec.c ****     *shift = (*shift + key_size) % 8;
 908              		.loc 1 347 15 is_stmt 0 view .LVU288
 909 008c 0120     		movs	r0, #1
 910 008e B840     		lsls	r0, r0, r7
 347:lvgl/src/extra/libs/gif/gifdec.c ****     *shift = (*shift + key_size) % 8;
 911              		.loc 1 347 28 view .LVU289
 912 0090 0138     		subs	r0, r0, #1
 913 0092 00EA0900 		and	r0, r0, r9
 914              	.LVL86:
 348:lvgl/src/extra/libs/gif/gifdec.c ****     return key;
 915              		.loc 1 348 5 is_stmt 1 view .LVU290
 348:lvgl/src/extra/libs/gif/gifdec.c ****     return key;
 916              		.loc 1 348 15 is_stmt 0 view .LVU291
 917 0096 9BF80030 		ldrb	r3, [fp]	@ zero_extendqisi2
 348:lvgl/src/extra/libs/gif/gifdec.c ****     return key;
 918              		.loc 1 348 22 view .LVU292
 919 009a 3B44     		add	r3, r3, r7
 348:lvgl/src/extra/libs/gif/gifdec.c ****     return key;
 920              		.loc 1 348 34 view .LVU293
 921 009c 5A42     		rsbs	r2, r3, #0
 922 009e 03F00703 		and	r3, r3, #7
 923 00a2 02F00702 		and	r2, r2, #7
 924 00a6 58BF     		it	pl
 925 00a8 5342     		rsbpl	r3, r2, #0
 348:lvgl/src/extra/libs/gif/gifdec.c ****     return key;
 926              		.loc 1 348 12 view .LVU294
 927 00aa 8BF80030 		strb	r3, [fp]
 349:lvgl/src/extra/libs/gif/gifdec.c **** }
 928              		.loc 1 349 5 is_stmt 1 view .LVU295
 929              	.LVL87:
 930              	.L61:
 350:lvgl/src/extra/libs/gif/gifdec.c **** 
 931              		.loc 1 350 1 is_stmt 0 view .LVU296
 932 00ae 03B0     		add	sp, sp, #12
 933              	.LCFI10:
 934              		.cfi_def_cfa_offset 36
ARM GAS  C:\usertemp\ccoJaLKY.s 			page 42


 935              		@ sp needed
 936 00b0 BDE8F08F 		pop	{r4, r5, r6, r7, r8, r9, r10, fp, pc}
 350:lvgl/src/extra/libs/gif/gifdec.c **** 
 937              		.loc 1 350 1 view .LVU297
 938              		.cfi_endproc
 939              	.LFE30:
 941              		.section	.text.f_gif_seek,"ax",%progbits
 942              		.align	1
 943              		.syntax unified
 944              		.thumb
 945              		.thumb_func
 947              	f_gif_seek:
 948              	.LVL88:
 949              	.LFB42:
 633:lvgl/src/extra/libs/gif/gifdec.c **** 
 634:lvgl/src/extra/libs/gif/gifdec.c **** static int f_gif_seek(gd_GIF * gif, size_t pos, int k)
 635:lvgl/src/extra/libs/gif/gifdec.c **** {
 950              		.loc 1 635 1 is_stmt 1 view -0
 951              		.cfi_startproc
 952              		@ args = 0, pretend = 0, frame = 8
 953              		@ frame_needed = 0, uses_anonymous_args = 0
 954              		.loc 1 635 1 is_stmt 0 view .LVU299
 955 0000 10B5     		push	{r4, lr}
 956              	.LCFI11:
 957              		.cfi_def_cfa_offset 8
 958              		.cfi_offset 4, -8
 959              		.cfi_offset 14, -4
 960 0002 82B0     		sub	sp, sp, #8
 961              	.LCFI12:
 962              		.cfi_def_cfa_offset 16
 963 0004 0446     		mov	r4, r0
 636:lvgl/src/extra/libs/gif/gifdec.c ****     if(gif->is_file) {
 964              		.loc 1 636 5 is_stmt 1 view .LVU300
 965              		.loc 1 636 11 is_stmt 0 view .LVU301
 966 0006 037C     		ldrb	r3, [r0, #16]	@ zero_extendqisi2
 967              		.loc 1 636 7 view .LVU302
 968 0008 23B9     		cbnz	r3, .L72
 637:lvgl/src/extra/libs/gif/gifdec.c ****         lv_fs_seek(&gif->fd, pos, k);
 638:lvgl/src/extra/libs/gif/gifdec.c ****         uint32_t x;
 639:lvgl/src/extra/libs/gif/gifdec.c ****         lv_fs_tell(&gif->fd, &x);
 640:lvgl/src/extra/libs/gif/gifdec.c ****         return x;
 641:lvgl/src/extra/libs/gif/gifdec.c ****     } else {
 642:lvgl/src/extra/libs/gif/gifdec.c ****         if(k == LV_FS_SEEK_CUR) gif->f_rw_p += pos;
 969              		.loc 1 642 9 is_stmt 1 view .LVU303
 970              		.loc 1 642 11 is_stmt 0 view .LVU304
 971 000a 012A     		cmp	r2, #1
 972 000c 0BD0     		beq	.L73
 643:lvgl/src/extra/libs/gif/gifdec.c ****         else if(k == LV_FS_SEEK_SET) gif->f_rw_p = pos;
 973              		.loc 1 643 14 is_stmt 1 view .LVU305
 974              		.loc 1 643 16 is_stmt 0 view .LVU306
 975 000e 6AB9     		cbnz	r2, .L70
 976              		.loc 1 643 38 is_stmt 1 discriminator 1 view .LVU307
 977              		.loc 1 643 50 is_stmt 0 discriminator 1 view .LVU308
 978 0010 4161     		str	r1, [r0, #20]
 979 0012 0BE0     		b	.L70
 980              	.L72:
 981              	.LBB23:
ARM GAS  C:\usertemp\ccoJaLKY.s 			page 43


 637:lvgl/src/extra/libs/gif/gifdec.c ****         lv_fs_seek(&gif->fd, pos, k);
 982              		.loc 1 637 9 is_stmt 1 view .LVU309
 983 0014 D2B2     		uxtb	r2, r2
 984              	.LVL89:
 637:lvgl/src/extra/libs/gif/gifdec.c ****         lv_fs_seek(&gif->fd, pos, k);
 985              		.loc 1 637 9 is_stmt 0 view .LVU310
 986 0016 FFF7FEFF 		bl	lv_fs_seek
 987              	.LVL90:
 638:lvgl/src/extra/libs/gif/gifdec.c ****         lv_fs_tell(&gif->fd, &x);
 988              		.loc 1 638 9 is_stmt 1 view .LVU311
 639:lvgl/src/extra/libs/gif/gifdec.c ****         return x;
 989              		.loc 1 639 9 view .LVU312
 990 001a 01A9     		add	r1, sp, #4
 991 001c 2046     		mov	r0, r4
 992 001e FFF7FEFF 		bl	lv_fs_tell
 993              	.LVL91:
 640:lvgl/src/extra/libs/gif/gifdec.c ****     } else {
 994              		.loc 1 640 9 view .LVU313
 640:lvgl/src/extra/libs/gif/gifdec.c ****     } else {
 995              		.loc 1 640 16 is_stmt 0 view .LVU314
 996 0022 0198     		ldr	r0, [sp, #4]
 997 0024 03E0     		b	.L66
 998              	.LVL92:
 999              	.L73:
 640:lvgl/src/extra/libs/gif/gifdec.c ****     } else {
 1000              		.loc 1 640 16 view .LVU315
 1001              	.LBE23:
 642:lvgl/src/extra/libs/gif/gifdec.c ****         else if(k == LV_FS_SEEK_SET) gif->f_rw_p = pos;
 1002              		.loc 1 642 33 is_stmt 1 discriminator 1 view .LVU316
 642:lvgl/src/extra/libs/gif/gifdec.c ****         else if(k == LV_FS_SEEK_SET) gif->f_rw_p = pos;
 1003              		.loc 1 642 36 is_stmt 0 discriminator 1 view .LVU317
 1004 0026 4369     		ldr	r3, [r0, #20]
 642:lvgl/src/extra/libs/gif/gifdec.c ****         else if(k == LV_FS_SEEK_SET) gif->f_rw_p = pos;
 1005              		.loc 1 642 45 discriminator 1 view .LVU318
 1006 0028 0B44     		add	r3, r3, r1
 1007 002a 4361     		str	r3, [r0, #20]
 1008              	.L70:
 644:lvgl/src/extra/libs/gif/gifdec.c ****         return gif->f_rw_p;
 1009              		.loc 1 644 9 is_stmt 1 view .LVU319
 1010              		.loc 1 644 19 is_stmt 0 view .LVU320
 1011 002c 6069     		ldr	r0, [r4, #20]
 1012              	.LVL93:
 1013              	.L66:
 645:lvgl/src/extra/libs/gif/gifdec.c ****     }
 646:lvgl/src/extra/libs/gif/gifdec.c **** }
 1014              		.loc 1 646 1 view .LVU321
 1015 002e 02B0     		add	sp, sp, #8
 1016              	.LCFI13:
 1017              		.cfi_def_cfa_offset 8
 1018              		@ sp needed
 1019 0030 10BD     		pop	{r4, pc}
 1020              		.loc 1 646 1 view .LVU322
 1021              		.cfi_endproc
 1022              	.LFE42:
 1024              		.section	.text.discard_sub_blocks,"ax",%progbits
 1025              		.align	1
 1026              		.syntax unified
ARM GAS  C:\usertemp\ccoJaLKY.s 			page 44


 1027              		.thumb
 1028              		.thumb_func
 1030              	discard_sub_blocks:
 1031              	.LVL94:
 1032              	.LFB22:
 168:lvgl/src/extra/libs/gif/gifdec.c ****     uint8_t size;
 1033              		.loc 1 168 1 is_stmt 1 view -0
 1034              		.cfi_startproc
 1035              		@ args = 0, pretend = 0, frame = 8
 1036              		@ frame_needed = 0, uses_anonymous_args = 0
 168:lvgl/src/extra/libs/gif/gifdec.c ****     uint8_t size;
 1037              		.loc 1 168 1 is_stmt 0 view .LVU324
 1038 0000 10B5     		push	{r4, lr}
 1039              	.LCFI14:
 1040              		.cfi_def_cfa_offset 8
 1041              		.cfi_offset 4, -8
 1042              		.cfi_offset 14, -4
 1043 0002 82B0     		sub	sp, sp, #8
 1044              	.LCFI15:
 1045              		.cfi_def_cfa_offset 16
 1046 0004 0446     		mov	r4, r0
 1047              	.LVL95:
 1048              	.L75:
 169:lvgl/src/extra/libs/gif/gifdec.c **** 
 1049              		.loc 1 169 5 is_stmt 1 view .LVU325
 171:lvgl/src/extra/libs/gif/gifdec.c ****         f_gif_read(gif, &size, 1);
 1050              		.loc 1 171 5 view .LVU326
 172:lvgl/src/extra/libs/gif/gifdec.c ****         f_gif_seek(gif, size, LV_FS_SEEK_CUR);
 1051              		.loc 1 172 9 view .LVU327
 1052 0006 0122     		movs	r2, #1
 1053 0008 0DF10701 		add	r1, sp, #7
 1054 000c 2046     		mov	r0, r4
 1055 000e FFF7FEFF 		bl	f_gif_read
 1056              	.LVL96:
 173:lvgl/src/extra/libs/gif/gifdec.c ****     } while (size);
 1057              		.loc 1 173 9 view .LVU328
 1058 0012 0122     		movs	r2, #1
 1059 0014 9DF80710 		ldrb	r1, [sp, #7]	@ zero_extendqisi2
 1060 0018 2046     		mov	r0, r4
 1061 001a FFF7FEFF 		bl	f_gif_seek
 1062              	.LVL97:
 174:lvgl/src/extra/libs/gif/gifdec.c **** }
 1063              		.loc 1 174 14 discriminator 1 view .LVU329
 1064 001e 9DF80730 		ldrb	r3, [sp, #7]	@ zero_extendqisi2
 1065 0022 002B     		cmp	r3, #0
 1066 0024 EFD1     		bne	.L75
 175:lvgl/src/extra/libs/gif/gifdec.c **** 
 1067              		.loc 1 175 1 is_stmt 0 view .LVU330
 1068 0026 02B0     		add	sp, sp, #8
 1069              	.LCFI16:
 1070              		.cfi_def_cfa_offset 8
 1071              		@ sp needed
 1072 0028 10BD     		pop	{r4, pc}
 175:lvgl/src/extra/libs/gif/gifdec.c **** 
 1073              		.loc 1 175 1 view .LVU331
 1074              		.cfi_endproc
 1075              	.LFE22:
ARM GAS  C:\usertemp\ccoJaLKY.s 			page 45


 1077              		.section	.text.read_plain_text_ext,"ax",%progbits
 1078              		.align	1
 1079              		.syntax unified
 1080              		.thumb
 1081              		.thumb_func
 1083              	read_plain_text_ext:
 1084              	.LVL98:
 1085              	.LFB23:
 179:lvgl/src/extra/libs/gif/gifdec.c ****     if (gif->plain_text) {
 1086              		.loc 1 179 1 is_stmt 1 view -0
 1087              		.cfi_startproc
 1088              		@ args = 0, pretend = 0, frame = 8
 1089              		@ frame_needed = 0, uses_anonymous_args = 0
 179:lvgl/src/extra/libs/gif/gifdec.c ****     if (gif->plain_text) {
 1090              		.loc 1 179 1 is_stmt 0 view .LVU333
 1091 0000 2DE9F043 		push	{r4, r5, r6, r7, r8, r9, lr}
 1092              	.LCFI17:
 1093              		.cfi_def_cfa_offset 28
 1094              		.cfi_offset 4, -28
 1095              		.cfi_offset 5, -24
 1096              		.cfi_offset 6, -20
 1097              		.cfi_offset 7, -16
 1098              		.cfi_offset 8, -12
 1099              		.cfi_offset 9, -8
 1100              		.cfi_offset 14, -4
 1101 0004 89B0     		sub	sp, sp, #36
 1102              	.LCFI18:
 1103              		.cfi_def_cfa_offset 64
 1104 0006 0446     		mov	r4, r0
 180:lvgl/src/extra/libs/gif/gifdec.c ****         uint16_t tx, ty, tw, th;
 1105              		.loc 1 180 5 is_stmt 1 view .LVU334
 180:lvgl/src/extra/libs/gif/gifdec.c ****         uint16_t tx, ty, tw, th;
 1106              		.loc 1 180 12 is_stmt 0 view .LVU335
 1107 0008 D0F83C36 		ldr	r3, [r0, #1596]
 180:lvgl/src/extra/libs/gif/gifdec.c ****         uint16_t tx, ty, tw, th;
 1108              		.loc 1 180 8 view .LVU336
 1109 000c 002B     		cmp	r3, #0
 1110 000e 50D0     		beq	.L78
 1111              	.LBB24:
 181:lvgl/src/extra/libs/gif/gifdec.c ****         uint8_t cw, ch, fg, bg;
 1112              		.loc 1 181 9 is_stmt 1 view .LVU337
 182:lvgl/src/extra/libs/gif/gifdec.c ****         size_t sub_block;
 1113              		.loc 1 182 9 view .LVU338
 183:lvgl/src/extra/libs/gif/gifdec.c ****         f_gif_seek(gif, 1, LV_FS_SEEK_CUR); /* block size = 12 */
 1114              		.loc 1 183 9 view .LVU339
 184:lvgl/src/extra/libs/gif/gifdec.c ****         tx = read_num(gif);
 1115              		.loc 1 184 9 view .LVU340
 1116 0010 0122     		movs	r2, #1
 1117 0012 1146     		mov	r1, r2
 1118 0014 FFF7FEFF 		bl	f_gif_seek
 1119              	.LVL99:
 185:lvgl/src/extra/libs/gif/gifdec.c ****         ty = read_num(gif);
 1120              		.loc 1 185 9 view .LVU341
 185:lvgl/src/extra/libs/gif/gifdec.c ****         ty = read_num(gif);
 1121              		.loc 1 185 14 is_stmt 0 view .LVU342
 1122 0018 2046     		mov	r0, r4
 1123 001a FFF7FEFF 		bl	read_num
ARM GAS  C:\usertemp\ccoJaLKY.s 			page 46


 1124              	.LVL100:
 1125 001e 0646     		mov	r6, r0
 1126              	.LVL101:
 186:lvgl/src/extra/libs/gif/gifdec.c ****         tw = read_num(gif);
 1127              		.loc 1 186 9 is_stmt 1 view .LVU343
 186:lvgl/src/extra/libs/gif/gifdec.c ****         tw = read_num(gif);
 1128              		.loc 1 186 14 is_stmt 0 view .LVU344
 1129 0020 2046     		mov	r0, r4
 1130 0022 FFF7FEFF 		bl	read_num
 1131              	.LVL102:
 1132 0026 0746     		mov	r7, r0
 1133              	.LVL103:
 187:lvgl/src/extra/libs/gif/gifdec.c ****         th = read_num(gif);
 1134              		.loc 1 187 9 is_stmt 1 view .LVU345
 187:lvgl/src/extra/libs/gif/gifdec.c ****         th = read_num(gif);
 1135              		.loc 1 187 14 is_stmt 0 view .LVU346
 1136 0028 2046     		mov	r0, r4
 1137 002a FFF7FEFF 		bl	read_num
 1138              	.LVL104:
 1139 002e 8046     		mov	r8, r0
 1140              	.LVL105:
 188:lvgl/src/extra/libs/gif/gifdec.c ****         f_gif_read(gif, &cw, 1);
 1141              		.loc 1 188 9 is_stmt 1 view .LVU347
 188:lvgl/src/extra/libs/gif/gifdec.c ****         f_gif_read(gif, &cw, 1);
 1142              		.loc 1 188 14 is_stmt 0 view .LVU348
 1143 0030 2046     		mov	r0, r4
 1144 0032 FFF7FEFF 		bl	read_num
 1145              	.LVL106:
 1146 0036 8146     		mov	r9, r0
 1147              	.LVL107:
 189:lvgl/src/extra/libs/gif/gifdec.c ****         f_gif_read(gif, &ch, 1);
 1148              		.loc 1 189 9 is_stmt 1 view .LVU349
 1149 0038 0122     		movs	r2, #1
 1150 003a 07A9     		add	r1, sp, #28
 1151 003c 2046     		mov	r0, r4
 1152 003e FFF7FEFF 		bl	f_gif_read
 1153              	.LVL108:
 190:lvgl/src/extra/libs/gif/gifdec.c ****         f_gif_read(gif, &fg, 1);
 1154              		.loc 1 190 9 view .LVU350
 1155 0042 0122     		movs	r2, #1
 1156 0044 0DF11D01 		add	r1, sp, #29
 1157 0048 2046     		mov	r0, r4
 1158 004a FFF7FEFF 		bl	f_gif_read
 1159              	.LVL109:
 191:lvgl/src/extra/libs/gif/gifdec.c ****         f_gif_read(gif, &bg, 1);
 1160              		.loc 1 191 9 view .LVU351
 1161 004e 0122     		movs	r2, #1
 1162 0050 0DF11E01 		add	r1, sp, #30
 1163 0054 2046     		mov	r0, r4
 1164 0056 FFF7FEFF 		bl	f_gif_read
 1165              	.LVL110:
 192:lvgl/src/extra/libs/gif/gifdec.c ****         sub_block = f_gif_seek(gif, 0, LV_FS_SEEK_CUR);
 1166              		.loc 1 192 9 view .LVU352
 1167 005a 0122     		movs	r2, #1
 1168 005c 0DF11F01 		add	r1, sp, #31
 1169 0060 2046     		mov	r0, r4
 1170 0062 FFF7FEFF 		bl	f_gif_read
ARM GAS  C:\usertemp\ccoJaLKY.s 			page 47


 1171              	.LVL111:
 193:lvgl/src/extra/libs/gif/gifdec.c ****         gif->plain_text(gif, tx, ty, tw, th, cw, ch, fg, bg);
 1172              		.loc 1 193 9 view .LVU353
 193:lvgl/src/extra/libs/gif/gifdec.c ****         gif->plain_text(gif, tx, ty, tw, th, cw, ch, fg, bg);
 1173              		.loc 1 193 21 is_stmt 0 view .LVU354
 1174 0066 0122     		movs	r2, #1
 1175 0068 0021     		movs	r1, #0
 1176 006a 2046     		mov	r0, r4
 1177 006c FFF7FEFF 		bl	f_gif_seek
 1178              	.LVL112:
 1179 0070 0546     		mov	r5, r0
 1180              	.LVL113:
 194:lvgl/src/extra/libs/gif/gifdec.c ****         f_gif_seek(gif, sub_block, LV_FS_SEEK_SET);
 1181              		.loc 1 194 9 is_stmt 1 view .LVU355
 1182 0072 9DF81F30 		ldrb	r3, [sp, #31]	@ zero_extendqisi2
 1183 0076 0493     		str	r3, [sp, #16]
 1184 0078 9DF81E30 		ldrb	r3, [sp, #30]	@ zero_extendqisi2
 1185 007c 0393     		str	r3, [sp, #12]
 1186 007e 9DF81D30 		ldrb	r3, [sp, #29]	@ zero_extendqisi2
 1187 0082 0293     		str	r3, [sp, #8]
 1188 0084 9DF81C30 		ldrb	r3, [sp, #28]	@ zero_extendqisi2
 1189 0088 0193     		str	r3, [sp, #4]
 1190 008a CDF80090 		str	r9, [sp]
 1191 008e 4346     		mov	r3, r8
 1192 0090 3A46     		mov	r2, r7
 1193 0092 3146     		mov	r1, r6
 1194 0094 2046     		mov	r0, r4
 1195              	.LVL114:
 194:lvgl/src/extra/libs/gif/gifdec.c ****         f_gif_seek(gif, sub_block, LV_FS_SEEK_SET);
 1196              		.loc 1 194 9 is_stmt 0 view .LVU356
 1197 0096 D4F83C66 		ldr	r6, [r4, #1596]
 1198              	.LVL115:
 194:lvgl/src/extra/libs/gif/gifdec.c ****         f_gif_seek(gif, sub_block, LV_FS_SEEK_SET);
 1199              		.loc 1 194 9 view .LVU357
 1200 009a B047     		blx	r6
 1201              	.LVL116:
 195:lvgl/src/extra/libs/gif/gifdec.c ****     } else {
 1202              		.loc 1 195 9 is_stmt 1 view .LVU358
 1203 009c 0022     		movs	r2, #0
 1204 009e 2946     		mov	r1, r5
 1205 00a0 2046     		mov	r0, r4
 1206 00a2 FFF7FEFF 		bl	f_gif_seek
 1207              	.LVL117:
 1208              	.L79:
 195:lvgl/src/extra/libs/gif/gifdec.c ****     } else {
 1209              		.loc 1 195 9 is_stmt 0 view .LVU359
 1210              	.LBE24:
 201:lvgl/src/extra/libs/gif/gifdec.c **** }
 1211              		.loc 1 201 5 is_stmt 1 view .LVU360
 1212 00a6 2046     		mov	r0, r4
 1213 00a8 FFF7FEFF 		bl	discard_sub_blocks
 1214              	.LVL118:
 202:lvgl/src/extra/libs/gif/gifdec.c **** 
 1215              		.loc 1 202 1 is_stmt 0 view .LVU361
 1216 00ac 09B0     		add	sp, sp, #36
 1217              	.LCFI19:
 1218              		.cfi_remember_state
ARM GAS  C:\usertemp\ccoJaLKY.s 			page 48


 1219              		.cfi_def_cfa_offset 28
 1220              		@ sp needed
 1221 00ae BDE8F083 		pop	{r4, r5, r6, r7, r8, r9, pc}
 1222              	.LVL119:
 1223              	.L78:
 1224              	.LCFI20:
 1225              		.cfi_restore_state
 198:lvgl/src/extra/libs/gif/gifdec.c ****     }
 1226              		.loc 1 198 9 is_stmt 1 view .LVU362
 1227 00b2 0122     		movs	r2, #1
 1228 00b4 0D21     		movs	r1, #13
 1229 00b6 FFF7FEFF 		bl	f_gif_seek
 1230              	.LVL120:
 198:lvgl/src/extra/libs/gif/gifdec.c ****     }
 1231              		.loc 1 198 9 is_stmt 0 view .LVU363
 1232 00ba F4E7     		b	.L79
 1233              		.cfi_endproc
 1234              	.LFE23:
 1236              		.section	.text.read_graphic_control_ext,"ax",%progbits
 1237              		.align	1
 1238              		.syntax unified
 1239              		.thumb
 1240              		.thumb_func
 1242              	read_graphic_control_ext:
 1243              	.LVL121:
 1244              	.LFB24:
 206:lvgl/src/extra/libs/gif/gifdec.c ****     uint8_t rdit;
 1245              		.loc 1 206 1 is_stmt 1 view -0
 1246              		.cfi_startproc
 1247              		@ args = 0, pretend = 0, frame = 8
 1248              		@ frame_needed = 0, uses_anonymous_args = 0
 206:lvgl/src/extra/libs/gif/gifdec.c ****     uint8_t rdit;
 1249              		.loc 1 206 1 is_stmt 0 view .LVU365
 1250 0000 10B5     		push	{r4, lr}
 1251              	.LCFI21:
 1252              		.cfi_def_cfa_offset 8
 1253              		.cfi_offset 4, -8
 1254              		.cfi_offset 14, -4
 1255 0002 82B0     		sub	sp, sp, #8
 1256              	.LCFI22:
 1257              		.cfi_def_cfa_offset 16
 1258 0004 0446     		mov	r4, r0
 207:lvgl/src/extra/libs/gif/gifdec.c **** 
 1259              		.loc 1 207 5 is_stmt 1 view .LVU366
 210:lvgl/src/extra/libs/gif/gifdec.c ****     f_gif_read(gif, &rdit, 1);
 1260              		.loc 1 210 5 view .LVU367
 1261 0006 0122     		movs	r2, #1
 1262 0008 1146     		mov	r1, r2
 1263 000a FFF7FEFF 		bl	f_gif_seek
 1264              	.LVL122:
 211:lvgl/src/extra/libs/gif/gifdec.c ****     gif->gce.disposal = (rdit >> 2) & 3;
 1265              		.loc 1 211 5 view .LVU368
 1266 000e 0122     		movs	r2, #1
 1267 0010 0DF10701 		add	r1, sp, #7
 1268 0014 2046     		mov	r0, r4
 1269 0016 FFF7FEFF 		bl	f_gif_read
 1270              	.LVL123:
ARM GAS  C:\usertemp\ccoJaLKY.s 			page 49


 212:lvgl/src/extra/libs/gif/gifdec.c ****     gif->gce.input = rdit & 2;
 1271              		.loc 1 212 5 view .LVU369
 212:lvgl/src/extra/libs/gif/gifdec.c ****     gif->gce.input = rdit & 2;
 1272              		.loc 1 212 37 is_stmt 0 view .LVU370
 1273 001a 9DF80730 		ldrb	r3, [sp, #7]	@ zero_extendqisi2
 1274 001e C3F38102 		ubfx	r2, r3, #2, #2
 212:lvgl/src/extra/libs/gif/gifdec.c ****     gif->gce.input = rdit & 2;
 1275              		.loc 1 212 23 view .LVU371
 1276 0022 84F82720 		strb	r2, [r4, #39]
 213:lvgl/src/extra/libs/gif/gifdec.c ****     gif->gce.transparency = rdit & 1;
 1277              		.loc 1 213 5 is_stmt 1 view .LVU372
 213:lvgl/src/extra/libs/gif/gifdec.c ****     gif->gce.transparency = rdit & 1;
 1278              		.loc 1 213 27 is_stmt 0 view .LVU373
 1279 0026 03F00202 		and	r2, r3, #2
 213:lvgl/src/extra/libs/gif/gifdec.c ****     gif->gce.transparency = rdit & 1;
 1280              		.loc 1 213 20 view .LVU374
 1281 002a A262     		str	r2, [r4, #40]
 214:lvgl/src/extra/libs/gif/gifdec.c ****     gif->gce.delay = read_num(gif);
 1282              		.loc 1 214 5 is_stmt 1 view .LVU375
 214:lvgl/src/extra/libs/gif/gifdec.c ****     gif->gce.delay = read_num(gif);
 1283              		.loc 1 214 34 is_stmt 0 view .LVU376
 1284 002c 03F00103 		and	r3, r3, #1
 214:lvgl/src/extra/libs/gif/gifdec.c ****     gif->gce.delay = read_num(gif);
 1285              		.loc 1 214 27 view .LVU377
 1286 0030 E362     		str	r3, [r4, #44]
 215:lvgl/src/extra/libs/gif/gifdec.c ****     f_gif_read(gif, &gif->gce.tindex, 1);
 1287              		.loc 1 215 5 is_stmt 1 view .LVU378
 215:lvgl/src/extra/libs/gif/gifdec.c ****     f_gif_read(gif, &gif->gce.tindex, 1);
 1288              		.loc 1 215 22 is_stmt 0 view .LVU379
 1289 0032 2046     		mov	r0, r4
 1290 0034 FFF7FEFF 		bl	read_num
 1291              	.LVL124:
 215:lvgl/src/extra/libs/gif/gifdec.c ****     f_gif_read(gif, &gif->gce.tindex, 1);
 1292              		.loc 1 215 20 discriminator 1 view .LVU380
 1293 0038 A084     		strh	r0, [r4, #36]	@ movhi
 216:lvgl/src/extra/libs/gif/gifdec.c ****     /* Skip block terminator. */
 1294              		.loc 1 216 5 is_stmt 1 view .LVU381
 1295 003a 0122     		movs	r2, #1
 1296 003c 04F12601 		add	r1, r4, #38
 1297 0040 2046     		mov	r0, r4
 1298 0042 FFF7FEFF 		bl	f_gif_read
 1299              	.LVL125:
 218:lvgl/src/extra/libs/gif/gifdec.c **** }
 1300              		.loc 1 218 5 view .LVU382
 1301 0046 0122     		movs	r2, #1
 1302 0048 1146     		mov	r1, r2
 1303 004a 2046     		mov	r0, r4
 1304 004c FFF7FEFF 		bl	f_gif_seek
 1305              	.LVL126:
 219:lvgl/src/extra/libs/gif/gifdec.c **** 
 1306              		.loc 1 219 1 is_stmt 0 view .LVU383
 1307 0050 02B0     		add	sp, sp, #8
 1308              	.LCFI23:
 1309              		.cfi_def_cfa_offset 8
 1310              		@ sp needed
 1311 0052 10BD     		pop	{r4, pc}
 219:lvgl/src/extra/libs/gif/gifdec.c **** 
ARM GAS  C:\usertemp\ccoJaLKY.s 			page 50


 1312              		.loc 1 219 1 view .LVU384
 1313              		.cfi_endproc
 1314              	.LFE24:
 1316              		.section	.text.read_comment_ext,"ax",%progbits
 1317              		.align	1
 1318              		.syntax unified
 1319              		.thumb
 1320              		.thumb_func
 1322              	read_comment_ext:
 1323              	.LVL127:
 1324              	.LFB25:
 223:lvgl/src/extra/libs/gif/gifdec.c ****     if (gif->comment) {
 1325              		.loc 1 223 1 is_stmt 1 view -0
 1326              		.cfi_startproc
 1327              		@ args = 0, pretend = 0, frame = 0
 1328              		@ frame_needed = 0, uses_anonymous_args = 0
 223:lvgl/src/extra/libs/gif/gifdec.c ****     if (gif->comment) {
 1329              		.loc 1 223 1 is_stmt 0 view .LVU386
 1330 0000 38B5     		push	{r3, r4, r5, lr}
 1331              	.LCFI24:
 1332              		.cfi_def_cfa_offset 16
 1333              		.cfi_offset 3, -16
 1334              		.cfi_offset 4, -12
 1335              		.cfi_offset 5, -8
 1336              		.cfi_offset 14, -4
 1337 0002 0446     		mov	r4, r0
 224:lvgl/src/extra/libs/gif/gifdec.c ****         size_t sub_block = f_gif_seek(gif, 0, LV_FS_SEEK_CUR);
 1338              		.loc 1 224 5 is_stmt 1 view .LVU387
 224:lvgl/src/extra/libs/gif/gifdec.c ****         size_t sub_block = f_gif_seek(gif, 0, LV_FS_SEEK_CUR);
 1339              		.loc 1 224 12 is_stmt 0 view .LVU388
 1340 0004 D0F84036 		ldr	r3, [r0, #1600]
 224:lvgl/src/extra/libs/gif/gifdec.c ****         size_t sub_block = f_gif_seek(gif, 0, LV_FS_SEEK_CUR);
 1341              		.loc 1 224 8 view .LVU389
 1342 0008 6BB1     		cbz	r3, .L84
 1343              	.LBB25:
 225:lvgl/src/extra/libs/gif/gifdec.c ****         gif->comment(gif);
 1344              		.loc 1 225 9 is_stmt 1 view .LVU390
 225:lvgl/src/extra/libs/gif/gifdec.c ****         gif->comment(gif);
 1345              		.loc 1 225 28 is_stmt 0 view .LVU391
 1346 000a 0122     		movs	r2, #1
 1347 000c 0021     		movs	r1, #0
 1348 000e FFF7FEFF 		bl	f_gif_seek
 1349              	.LVL128:
 225:lvgl/src/extra/libs/gif/gifdec.c ****         gif->comment(gif);
 1350              		.loc 1 225 28 view .LVU392
 1351 0012 0546     		mov	r5, r0
 1352              	.LVL129:
 226:lvgl/src/extra/libs/gif/gifdec.c ****         f_gif_seek(gif, sub_block, LV_FS_SEEK_SET);
 1353              		.loc 1 226 9 is_stmt 1 view .LVU393
 226:lvgl/src/extra/libs/gif/gifdec.c ****         f_gif_seek(gif, sub_block, LV_FS_SEEK_SET);
 1354              		.loc 1 226 12 is_stmt 0 view .LVU394
 1355 0014 D4F84036 		ldr	r3, [r4, #1600]
 226:lvgl/src/extra/libs/gif/gifdec.c ****         f_gif_seek(gif, sub_block, LV_FS_SEEK_SET);
 1356              		.loc 1 226 9 view .LVU395
 1357 0018 2046     		mov	r0, r4
 1358              	.LVL130:
 226:lvgl/src/extra/libs/gif/gifdec.c ****         f_gif_seek(gif, sub_block, LV_FS_SEEK_SET);
ARM GAS  C:\usertemp\ccoJaLKY.s 			page 51


 1359              		.loc 1 226 9 view .LVU396
 1360 001a 9847     		blx	r3
 1361              	.LVL131:
 227:lvgl/src/extra/libs/gif/gifdec.c ****     }
 1362              		.loc 1 227 9 is_stmt 1 view .LVU397
 1363 001c 0022     		movs	r2, #0
 1364 001e 2946     		mov	r1, r5
 1365 0020 2046     		mov	r0, r4
 1366 0022 FFF7FEFF 		bl	f_gif_seek
 1367              	.LVL132:
 1368              	.L84:
 227:lvgl/src/extra/libs/gif/gifdec.c ****     }
 1369              		.loc 1 227 9 is_stmt 0 view .LVU398
 1370              	.LBE25:
 230:lvgl/src/extra/libs/gif/gifdec.c **** }
 1371              		.loc 1 230 5 is_stmt 1 view .LVU399
 1372 0026 2046     		mov	r0, r4
 1373 0028 FFF7FEFF 		bl	discard_sub_blocks
 1374              	.LVL133:
 231:lvgl/src/extra/libs/gif/gifdec.c **** 
 1375              		.loc 1 231 1 is_stmt 0 view .LVU400
 1376 002c 38BD     		pop	{r3, r4, r5, pc}
 231:lvgl/src/extra/libs/gif/gifdec.c **** 
 1377              		.loc 1 231 1 view .LVU401
 1378              		.cfi_endproc
 1379              	.LFE25:
 1381              		.section	.text.f_gif_close,"ax",%progbits
 1382              		.align	1
 1383              		.syntax unified
 1384              		.thumb
 1385              		.thumb_func
 1387              	f_gif_close:
 1388              	.LVL134:
 1389              	.LFB43:
 647:lvgl/src/extra/libs/gif/gifdec.c **** 
 648:lvgl/src/extra/libs/gif/gifdec.c **** static void f_gif_close(gd_GIF * gif)
 649:lvgl/src/extra/libs/gif/gifdec.c **** {
 1390              		.loc 1 649 1 is_stmt 1 view -0
 1391              		.cfi_startproc
 1392              		@ args = 0, pretend = 0, frame = 0
 1393              		@ frame_needed = 0, uses_anonymous_args = 0
 1394              		.loc 1 649 1 is_stmt 0 view .LVU403
 1395 0000 08B5     		push	{r3, lr}
 1396              	.LCFI25:
 1397              		.cfi_def_cfa_offset 8
 1398              		.cfi_offset 3, -8
 1399              		.cfi_offset 14, -4
 650:lvgl/src/extra/libs/gif/gifdec.c ****     if(gif->is_file) {
 1400              		.loc 1 650 5 is_stmt 1 view .LVU404
 1401              		.loc 1 650 11 is_stmt 0 view .LVU405
 1402 0002 037C     		ldrb	r3, [r0, #16]	@ zero_extendqisi2
 1403              		.loc 1 650 7 view .LVU406
 1404 0004 03B9     		cbnz	r3, .L89
 1405              	.LVL135:
 1406              	.L86:
 651:lvgl/src/extra/libs/gif/gifdec.c ****         lv_fs_close(&gif->fd);
 652:lvgl/src/extra/libs/gif/gifdec.c ****     }
ARM GAS  C:\usertemp\ccoJaLKY.s 			page 52


 653:lvgl/src/extra/libs/gif/gifdec.c **** }
 1407              		.loc 1 653 1 view .LVU407
 1408 0006 08BD     		pop	{r3, pc}
 1409              	.LVL136:
 1410              	.L89:
 651:lvgl/src/extra/libs/gif/gifdec.c ****         lv_fs_close(&gif->fd);
 1411              		.loc 1 651 9 is_stmt 1 view .LVU408
 1412 0008 FFF7FEFF 		bl	lv_fs_close
 1413              	.LVL137:
 1414              		.loc 1 653 1 is_stmt 0 view .LVU409
 1415 000c FBE7     		b	.L86
 1416              		.cfi_endproc
 1417              	.LFE43:
 1419              		.section	.rodata.gif_open.str1.4,"aMS",%progbits,1
 1420              		.align	2
 1421              	.LC0:
 1422 0000 47494600 		.ascii	"GIF\000"
 1423              		.align	2
 1424              	.LC1:
 1425 0004 38396100 		.ascii	"89a\000"
 1426              		.section	.text.gif_open,"ax",%progbits
 1427              		.align	1
 1428              		.syntax unified
 1429              		.thumb
 1430              		.thumb_func
 1432              	gif_open:
 1433              	.LVL138:
 1434              	.LFB21:
  69:lvgl/src/extra/libs/gif/gifdec.c ****     uint8_t sigver[3];
 1435              		.loc 1 69 1 is_stmt 1 view -0
 1436              		.cfi_startproc
 1437              		@ args = 0, pretend = 0, frame = 16
 1438              		@ frame_needed = 0, uses_anonymous_args = 0
  69:lvgl/src/extra/libs/gif/gifdec.c ****     uint8_t sigver[3];
 1439              		.loc 1 69 1 is_stmt 0 view .LVU411
 1440 0000 2DE9F04F 		push	{r4, r5, r6, r7, r8, r9, r10, fp, lr}
 1441              	.LCFI26:
 1442              		.cfi_def_cfa_offset 36
 1443              		.cfi_offset 4, -36
 1444              		.cfi_offset 5, -32
 1445              		.cfi_offset 6, -28
 1446              		.cfi_offset 7, -24
 1447              		.cfi_offset 8, -20
 1448              		.cfi_offset 9, -16
 1449              		.cfi_offset 10, -12
 1450              		.cfi_offset 11, -8
 1451              		.cfi_offset 14, -4
 1452 0004 85B0     		sub	sp, sp, #20
 1453              	.LCFI27:
 1454              		.cfi_def_cfa_offset 56
 1455 0006 0646     		mov	r6, r0
  70:lvgl/src/extra/libs/gif/gifdec.c ****     uint16_t width, height, depth;
 1456              		.loc 1 70 5 is_stmt 1 view .LVU412
  71:lvgl/src/extra/libs/gif/gifdec.c ****     uint8_t fdsz, bgidx, aspect;
 1457              		.loc 1 71 5 view .LVU413
  72:lvgl/src/extra/libs/gif/gifdec.c ****     int i;
 1458              		.loc 1 72 5 view .LVU414
ARM GAS  C:\usertemp\ccoJaLKY.s 			page 53


  73:lvgl/src/extra/libs/gif/gifdec.c ****     uint8_t *bgcolor;
 1459              		.loc 1 73 5 view .LVU415
  74:lvgl/src/extra/libs/gif/gifdec.c ****     int gct_sz;
 1460              		.loc 1 74 5 view .LVU416
  75:lvgl/src/extra/libs/gif/gifdec.c ****     gd_GIF *gif = NULL;
 1461              		.loc 1 75 5 view .LVU417
  76:lvgl/src/extra/libs/gif/gifdec.c **** 
 1462              		.loc 1 76 5 view .LVU418
 1463              	.LVL139:
  79:lvgl/src/extra/libs/gif/gifdec.c ****     if (memcmp(sigver, "GIF", 3) != 0) {
 1464              		.loc 1 79 5 view .LVU419
 1465 0008 0322     		movs	r2, #3
 1466 000a 03A9     		add	r1, sp, #12
 1467 000c FFF7FEFF 		bl	f_gif_read
 1468              	.LVL140:
  80:lvgl/src/extra/libs/gif/gifdec.c ****         LV_LOG_WARN("invalid signature\n");
 1469              		.loc 1 80 5 view .LVU420
  80:lvgl/src/extra/libs/gif/gifdec.c ****         LV_LOG_WARN("invalid signature\n");
 1470              		.loc 1 80 9 is_stmt 0 view .LVU421
 1471 0010 0322     		movs	r2, #3
 1472 0012 6049     		ldr	r1, .L100
 1473 0014 03A8     		add	r0, sp, #12
 1474 0016 FFF7FEFF 		bl	memcmp
 1475              	.LVL141:
  80:lvgl/src/extra/libs/gif/gifdec.c ****         LV_LOG_WARN("invalid signature\n");
 1476              		.loc 1 80 8 discriminator 1 view .LVU422
 1477 001a 0028     		cmp	r0, #0
 1478 001c 40F0B280 		bne	.L91
  85:lvgl/src/extra/libs/gif/gifdec.c ****     if (memcmp(sigver, "89a", 3) != 0) {
 1479              		.loc 1 85 5 is_stmt 1 view .LVU423
 1480 0020 0322     		movs	r2, #3
 1481 0022 03A9     		add	r1, sp, #12
 1482 0024 3046     		mov	r0, r6
 1483 0026 FFF7FEFF 		bl	f_gif_read
 1484              	.LVL142:
  86:lvgl/src/extra/libs/gif/gifdec.c ****         LV_LOG_WARN("invalid version\n");
 1485              		.loc 1 86 5 view .LVU424
  86:lvgl/src/extra/libs/gif/gifdec.c ****         LV_LOG_WARN("invalid version\n");
 1486              		.loc 1 86 9 is_stmt 0 view .LVU425
 1487 002a 0322     		movs	r2, #3
 1488 002c 5A49     		ldr	r1, .L100+4
 1489 002e 03A8     		add	r0, sp, #12
 1490 0030 FFF7FEFF 		bl	memcmp
 1491              	.LVL143:
  86:lvgl/src/extra/libs/gif/gifdec.c ****         LV_LOG_WARN("invalid version\n");
 1492              		.loc 1 86 8 discriminator 1 view .LVU426
 1493 0034 0546     		mov	r5, r0
 1494 0036 0028     		cmp	r0, #0
 1495 0038 40F0A480 		bne	.L91
  91:lvgl/src/extra/libs/gif/gifdec.c ****     height = read_num(gif_base);
 1496              		.loc 1 91 5 is_stmt 1 view .LVU427
  91:lvgl/src/extra/libs/gif/gifdec.c ****     height = read_num(gif_base);
 1497              		.loc 1 91 14 is_stmt 0 view .LVU428
 1498 003c 3046     		mov	r0, r6
 1499 003e FFF7FEFF 		bl	read_num
 1500              	.LVL144:
 1501 0042 8246     		mov	r10, r0
ARM GAS  C:\usertemp\ccoJaLKY.s 			page 54


 1502              	.LVL145:
  92:lvgl/src/extra/libs/gif/gifdec.c ****     /* FDSZ */
 1503              		.loc 1 92 5 is_stmt 1 view .LVU429
  92:lvgl/src/extra/libs/gif/gifdec.c ****     /* FDSZ */
 1504              		.loc 1 92 14 is_stmt 0 view .LVU430
 1505 0044 3046     		mov	r0, r6
 1506 0046 FFF7FEFF 		bl	read_num
 1507              	.LVL146:
 1508 004a 8146     		mov	r9, r0
 1509              	.LVL147:
  94:lvgl/src/extra/libs/gif/gifdec.c ****     /* Presence of GCT */
 1510              		.loc 1 94 5 is_stmt 1 view .LVU431
 1511 004c 0122     		movs	r2, #1
 1512 004e 0DF10B01 		add	r1, sp, #11
 1513 0052 3046     		mov	r0, r6
 1514 0054 FFF7FEFF 		bl	f_gif_read
 1515              	.LVL148:
  96:lvgl/src/extra/libs/gif/gifdec.c ****         LV_LOG_WARN("no global color table\n");
 1516              		.loc 1 96 5 view .LVU432
  96:lvgl/src/extra/libs/gif/gifdec.c ****         LV_LOG_WARN("no global color table\n");
 1517              		.loc 1 96 9 is_stmt 0 view .LVU433
 1518 0058 9DF80B80 		ldrb	r8, [sp, #11]	@ zero_extendqisi2
 1519 005c 9DF90B30 		ldrsb	r3, [sp, #11]
  96:lvgl/src/extra/libs/gif/gifdec.c ****         LV_LOG_WARN("no global color table\n");
 1520              		.loc 1 96 8 view .LVU434
 1521 0060 002B     		cmp	r3, #0
 1522 0062 80F28F80 		bge	.L91
 101:lvgl/src/extra/libs/gif/gifdec.c ****     /* Ignore Sort Flag. */
 1523              		.loc 1 101 5 is_stmt 1 view .LVU435
 101:lvgl/src/extra/libs/gif/gifdec.c ****     /* Ignore Sort Flag. */
 1524              		.loc 1 101 26 is_stmt 0 view .LVU436
 1525 0066 C8F30213 		ubfx	r3, r8, #4, #3
 101:lvgl/src/extra/libs/gif/gifdec.c ****     /* Ignore Sort Flag. */
 1526              		.loc 1 101 11 view .LVU437
 1527 006a 0133     		adds	r3, r3, #1
 1528 006c 0093     		str	r3, [sp]
 1529              	.LVL149:
 104:lvgl/src/extra/libs/gif/gifdec.c ****     /* Background Color Index */
 1530              		.loc 1 104 5 is_stmt 1 view .LVU438
 104:lvgl/src/extra/libs/gif/gifdec.c ****     /* Background Color Index */
 1531              		.loc 1 104 26 is_stmt 0 view .LVU439
 1532 006e 08F00708 		and	r8, r8, #7
 104:lvgl/src/extra/libs/gif/gifdec.c ****     /* Background Color Index */
 1533              		.loc 1 104 34 view .LVU440
 1534 0072 08F10108 		add	r8, r8, #1
 104:lvgl/src/extra/libs/gif/gifdec.c ****     /* Background Color Index */
 1535              		.loc 1 104 12 view .LVU441
 1536 0076 0124     		movs	r4, #1
 1537 0078 04FA08F2 		lsl	r2, r4, r8
 1538 007c 0192     		str	r2, [sp, #4]
 1539              	.LVL150:
 106:lvgl/src/extra/libs/gif/gifdec.c ****     /* Aspect Ratio */
 1540              		.loc 1 106 5 is_stmt 1 view .LVU442
 1541 007e 2246     		mov	r2, r4
 1542              	.LVL151:
 106:lvgl/src/extra/libs/gif/gifdec.c ****     /* Aspect Ratio */
 1543              		.loc 1 106 5 is_stmt 0 view .LVU443
ARM GAS  C:\usertemp\ccoJaLKY.s 			page 55


 1544 0080 0DF10A01 		add	r1, sp, #10
 1545 0084 3046     		mov	r0, r6
 1546 0086 FFF7FEFF 		bl	f_gif_read
 1547              	.LVL152:
 108:lvgl/src/extra/libs/gif/gifdec.c ****     /* Create gd_GIF Structure. */
 1548              		.loc 1 108 5 is_stmt 1 view .LVU444
 1549 008a 2246     		mov	r2, r4
 1550 008c 0DF10901 		add	r1, sp, #9
 1551 0090 3046     		mov	r0, r6
 1552 0092 FFF7FEFF 		bl	f_gif_read
 1553              	.LVL153:
 113:lvgl/src/extra/libs/gif/gifdec.c **** #elif LV_COLOR_DEPTH == 8 || LV_COLOR_DEPTH == 1
 1554              		.loc 1 113 5 view .LVU445
 113:lvgl/src/extra/libs/gif/gifdec.c **** #elif LV_COLOR_DEPTH == 8 || LV_COLOR_DEPTH == 1
 1555              		.loc 1 113 51 is_stmt 0 view .LVU446
 1556 0096 09FB0AFB 		mul	fp, r9, r10
 1557 009a 4FEA8B00 		lsl	r0, fp, #2
 113:lvgl/src/extra/libs/gif/gifdec.c **** #elif LV_COLOR_DEPTH == 8 || LV_COLOR_DEPTH == 1
 1558              		.loc 1 113 11 view .LVU447
 1559 009e 00F25C60 		addw	r0, r0, #1628
 1560 00a2 FFF7FEFF 		bl	lv_mem_alloc
 1561              	.LVL154:
 118:lvgl/src/extra/libs/gif/gifdec.c ****     memcpy(gif, gif_base, sizeof(gd_GIF));
 1562              		.loc 1 118 5 is_stmt 1 view .LVU448
 118:lvgl/src/extra/libs/gif/gifdec.c ****     memcpy(gif, gif_base, sizeof(gd_GIF));
 1563              		.loc 1 118 8 is_stmt 0 view .LVU449
 1564 00a6 0446     		mov	r4, r0
 1565 00a8 0028     		cmp	r0, #0
 1566 00aa 6BD0     		beq	.L91
 119:lvgl/src/extra/libs/gif/gifdec.c ****     gif->width  = width;
 1567              		.loc 1 119 5 is_stmt 1 view .LVU450
 1568 00ac 40F25C62 		movw	r2, #1628
 1569 00b0 3146     		mov	r1, r6
 1570 00b2 FFF7FEFF 		bl	memcpy
 1571              	.LVL155:
 120:lvgl/src/extra/libs/gif/gifdec.c ****     gif->height = height;
 1572              		.loc 1 120 5 view .LVU451
 120:lvgl/src/extra/libs/gif/gifdec.c ****     gif->height = height;
 1573              		.loc 1 120 17 is_stmt 0 view .LVU452
 1574 00b6 A4F81CA0 		strh	r10, [r4, #28]	@ movhi
 121:lvgl/src/extra/libs/gif/gifdec.c ****     gif->depth  = depth;
 1575              		.loc 1 121 5 is_stmt 1 view .LVU453
 121:lvgl/src/extra/libs/gif/gifdec.c ****     gif->depth  = depth;
 1576              		.loc 1 121 17 is_stmt 0 view .LVU454
 1577 00ba A4F81E90 		strh	r9, [r4, #30]	@ movhi
 122:lvgl/src/extra/libs/gif/gifdec.c ****     /* Read GCT */
 1578              		.loc 1 122 5 is_stmt 1 view .LVU455
 122:lvgl/src/extra/libs/gif/gifdec.c ****     /* Read GCT */
 1579              		.loc 1 122 17 is_stmt 0 view .LVU456
 1580 00be 009B     		ldr	r3, [sp]
 1581 00c0 2384     		strh	r3, [r4, #32]	@ movhi
 124:lvgl/src/extra/libs/gif/gifdec.c ****     f_gif_read(gif, gif->gct.colors, 3 * gif->gct.size);
 1582              		.loc 1 124 5 is_stmt 1 view .LVU457
 124:lvgl/src/extra/libs/gif/gifdec.c ****     f_gif_read(gif, gif->gct.colors, 3 * gif->gct.size);
 1583              		.loc 1 124 19 is_stmt 0 view .LVU458
 1584 00c2 019A     		ldr	r2, [sp, #4]
 1585 00c4 C4F83823 		str	r2, [r4, #824]
ARM GAS  C:\usertemp\ccoJaLKY.s 			page 56


 125:lvgl/src/extra/libs/gif/gifdec.c ****     gif->palette = &gif->gct;
 1586              		.loc 1 125 5 is_stmt 1 view .LVU459
 1587 00c8 0322     		movs	r2, #3
 1588 00ca 02FA08F2 		lsl	r2, r2, r8
 1589 00ce 04F54F71 		add	r1, r4, #828
 1590 00d2 2046     		mov	r0, r4
 1591 00d4 FFF7FEFF 		bl	f_gif_read
 1592              	.LVL156:
 126:lvgl/src/extra/libs/gif/gifdec.c ****     gif->bgindex = bgidx;
 1593              		.loc 1 126 5 view .LVU460
 126:lvgl/src/extra/libs/gif/gifdec.c ****     gif->bgindex = bgidx;
 1594              		.loc 1 126 20 is_stmt 0 view .LVU461
 1595 00d8 04F54E73 		add	r3, r4, #824
 126:lvgl/src/extra/libs/gif/gifdec.c ****     gif->bgindex = bgidx;
 1596              		.loc 1 126 18 view .LVU462
 1597 00dc 2363     		str	r3, [r4, #48]
 127:lvgl/src/extra/libs/gif/gifdec.c ****     gif->canvas = (uint8_t *) &gif[1];
 1598              		.loc 1 127 5 is_stmt 1 view .LVU463
 127:lvgl/src/extra/libs/gif/gifdec.c ****     gif->canvas = (uint8_t *) &gif[1];
 1599              		.loc 1 127 18 is_stmt 0 view .LVU464
 1600 00de 9DF80A10 		ldrb	r1, [sp, #10]	@ zero_extendqisi2
 1601 00e2 84F85016 		strb	r1, [r4, #1616]
 128:lvgl/src/extra/libs/gif/gifdec.c **** #if LV_COLOR_DEPTH == 32
 1602              		.loc 1 128 5 is_stmt 1 view .LVU465
 128:lvgl/src/extra/libs/gif/gifdec.c **** #if LV_COLOR_DEPTH == 32
 1603              		.loc 1 128 31 is_stmt 0 view .LVU466
 1604 00e6 04F25C60 		addw	r0, r4, #1628
 128:lvgl/src/extra/libs/gif/gifdec.c **** #if LV_COLOR_DEPTH == 32
 1605              		.loc 1 128 17 view .LVU467
 1606 00ea C4F85406 		str	r0, [r4, #1620]
 132:lvgl/src/extra/libs/gif/gifdec.c **** #elif LV_COLOR_DEPTH == 8 || LV_COLOR_DEPTH == 1
 1607              		.loc 1 132 5 is_stmt 1 view .LVU468
 132:lvgl/src/extra/libs/gif/gifdec.c **** #elif LV_COLOR_DEPTH == 8 || LV_COLOR_DEPTH == 1
 1608              		.loc 1 132 41 is_stmt 0 view .LVU469
 1609 00ee 0BEB4B0B 		add	fp, fp, fp, lsl #1
 132:lvgl/src/extra/libs/gif/gifdec.c **** #elif LV_COLOR_DEPTH == 8 || LV_COLOR_DEPTH == 1
 1610              		.loc 1 132 18 view .LVU470
 1611 00f2 5844     		add	r0, r0, fp
 132:lvgl/src/extra/libs/gif/gifdec.c **** #elif LV_COLOR_DEPTH == 8 || LV_COLOR_DEPTH == 1
 1612              		.loc 1 132 16 view .LVU471
 1613 00f4 C4F85806 		str	r0, [r4, #1624]
 136:lvgl/src/extra/libs/gif/gifdec.c ****         memset(gif->frame, gif->bgindex, gif->width * gif->height);
 1614              		.loc 1 136 5 is_stmt 1 view .LVU472
 136:lvgl/src/extra/libs/gif/gifdec.c ****         memset(gif->frame, gif->bgindex, gif->width * gif->height);
 1615              		.loc 1 136 8 is_stmt 0 view .LVU473
 1616 00f8 79B9     		cbnz	r1, .L99
 1617              	.L92:
 138:lvgl/src/extra/libs/gif/gifdec.c **** 
 1618              		.loc 1 138 5 is_stmt 1 view .LVU474
 138:lvgl/src/extra/libs/gif/gifdec.c **** 
 1619              		.loc 1 138 19 is_stmt 0 view .LVU475
 1620 00fa D4F830C0 		ldr	ip, [r4, #48]
 138:lvgl/src/extra/libs/gif/gifdec.c **** 
 1621              		.loc 1 138 40 view .LVU476
 1622 00fe 94F85066 		ldrb	r6, [r4, #1616]	@ zero_extendqisi2
 1623              	.LVL157:
 138:lvgl/src/extra/libs/gif/gifdec.c **** 
ARM GAS  C:\usertemp\ccoJaLKY.s 			page 57


 1624              		.loc 1 138 49 view .LVU477
 1625 0102 06EB4606 		add	r6, r6, r6, lsl #1
 138:lvgl/src/extra/libs/gif/gifdec.c **** 
 1626              		.loc 1 138 13 view .LVU478
 1627 0106 0CEB0603 		add	r3, ip, r6
 1628 010a 191D     		adds	r1, r3, #4
 1629              	.LVL158:
 140:lvgl/src/extra/libs/gif/gifdec.c ****         for (i = 0; i < gif->width * gif->height; i++) {
 1630              		.loc 1 140 5 is_stmt 1 view .LVU479
 140:lvgl/src/extra/libs/gif/gifdec.c ****         for (i = 0; i < gif->width * gif->height; i++) {
 1631              		.loc 1 140 16 is_stmt 0 view .LVU480
 1632 010c 1B79     		ldrb	r3, [r3, #4]	@ zero_extendqisi2
 140:lvgl/src/extra/libs/gif/gifdec.c ****         for (i = 0; i < gif->width * gif->height; i++) {
 1633              		.loc 1 140 8 view .LVU481
 1634 010e 63BB     		cbnz	r3, .L95
 140:lvgl/src/extra/libs/gif/gifdec.c ****         for (i = 0; i < gif->width * gif->height; i++) {
 1635              		.loc 1 140 30 discriminator 1 view .LVU482
 1636 0110 4B78     		ldrb	r3, [r1, #1]	@ zero_extendqisi2
 140:lvgl/src/extra/libs/gif/gifdec.c ****         for (i = 0; i < gif->width * gif->height; i++) {
 1637              		.loc 1 140 20 discriminator 1 view .LVU483
 1638 0112 53BB     		cbnz	r3, .L95
 140:lvgl/src/extra/libs/gif/gifdec.c ****         for (i = 0; i < gif->width * gif->height; i++) {
 1639              		.loc 1 140 45 discriminator 2 view .LVU484
 1640 0114 8B78     		ldrb	r3, [r1, #2]	@ zero_extendqisi2
 140:lvgl/src/extra/libs/gif/gifdec.c ****         for (i = 0; i < gif->width * gif->height; i++) {
 1641              		.loc 1 140 34 discriminator 2 view .LVU485
 1642 0116 43BB     		cbnz	r3, .L95
 1643 0118 2DE0     		b	.L94
 1644              	.LVL159:
 1645              	.L99:
 137:lvgl/src/extra/libs/gif/gifdec.c ****     bgcolor = &gif->palette->colors[gif->bgindex*3];
 1646              		.loc 1 137 9 is_stmt 1 view .LVU486
 137:lvgl/src/extra/libs/gif/gifdec.c ****     bgcolor = &gif->palette->colors[gif->bgindex*3];
 1647              		.loc 1 137 45 is_stmt 0 view .LVU487
 1648 011a A38B     		ldrh	r3, [r4, #28]
 137:lvgl/src/extra/libs/gif/gifdec.c ****     bgcolor = &gif->palette->colors[gif->bgindex*3];
 1649              		.loc 1 137 58 view .LVU488
 1650 011c E28B     		ldrh	r2, [r4, #30]
 137:lvgl/src/extra/libs/gif/gifdec.c ****     bgcolor = &gif->palette->colors[gif->bgindex*3];
 1651              		.loc 1 137 9 view .LVU489
 1652 011e 03FB02F2 		mul	r2, r3, r2
 1653 0122 FFF7FEFF 		bl	memset
 1654              	.LVL160:
 1655 0126 E8E7     		b	.L92
 1656              	.LVL161:
 1657              	.L96:
 1658              	.LBB26:
 148:lvgl/src/extra/libs/gif/gifdec.c ****             gif->canvas[i*3 + 0] = c.full & 0xff;
 1659              		.loc 1 148 13 is_stmt 1 view .LVU490
 148:lvgl/src/extra/libs/gif/gifdec.c ****             gif->canvas[i*3 + 0] = c.full & 0xff;
 1660              		.loc 1 148 28 is_stmt 0 view .LVU491
 1661 0128 0CEB0603 		add	r3, ip, r6
 1662 012c 1B79     		ldrb	r3, [r3, #4]	@ zero_extendqisi2
 1663 012e 4A78     		ldrb	r2, [r1, #1]	@ zero_extendqisi2
 1664 0130 8878     		ldrb	r0, [r1, #2]	@ zero_extendqisi2
 1665              	.LVL162:
 1666              	.LBB27:
ARM GAS  C:\usertemp\ccoJaLKY.s 			page 58


 1667              	.LBI27:
 592:lvgl/src/extra/libs/gif/../../../misc/lv_color.h **** {
 1668              		.loc 2 592 26 is_stmt 1 view .LVU492
 1669              	.LBB28:
 1670              		.loc 2 594 5 view .LVU493
 1671              		.loc 2 594 39 is_stmt 0 view .LVU494
 1672 0132 C008     		lsrs	r0, r0, #3
 1673 0134 9208     		lsrs	r2, r2, #2
 1674 0136 DB08     		lsrs	r3, r3, #3
 1675              		.loc 2 594 12 view .LVU495
 1676 0138 60F30407 		bfi	r7, r0, #0, #5
 1677 013c 62F34A17 		bfi	r7, r2, #5, #6
 1678 0140 63F3CF27 		bfi	r7, r3, #11, #5
 1679              	.LVL163:
 1680              		.loc 2 594 12 view .LVU496
 1681              	.LBE28:
 1682              	.LBE27:
 149:lvgl/src/extra/libs/gif/gifdec.c ****             gif->canvas[i*3 + 1] = (c.full >> 8) & 0xff;
 1683              		.loc 1 149 13 is_stmt 1 view .LVU497
 149:lvgl/src/extra/libs/gif/gifdec.c ****             gif->canvas[i*3 + 1] = (c.full >> 8) & 0xff;
 1684              		.loc 1 149 37 is_stmt 0 view .LVU498
 1685 0144 BAB2     		uxth	r2, r7
 149:lvgl/src/extra/libs/gif/gifdec.c ****             gif->canvas[i*3 + 1] = (c.full >> 8) & 0xff;
 1686              		.loc 1 149 13 view .LVU499
 1687 0146 D4F85406 		ldr	r0, [r4, #1620]
 149:lvgl/src/extra/libs/gif/gifdec.c ****             gif->canvas[i*3 + 1] = (c.full >> 8) & 0xff;
 1688              		.loc 1 149 26 view .LVU500
 1689 014a 05EB4503 		add	r3, r5, r5, lsl #1
 149:lvgl/src/extra/libs/gif/gifdec.c ****             gif->canvas[i*3 + 1] = (c.full >> 8) & 0xff;
 1690              		.loc 1 149 34 view .LVU501
 1691 014e C254     		strb	r2, [r0, r3]
 150:lvgl/src/extra/libs/gif/gifdec.c ****             gif->canvas[i*3 + 2] = 0xff;
 1692              		.loc 1 150 13 is_stmt 1 view .LVU502
 150:lvgl/src/extra/libs/gif/gifdec.c ****             gif->canvas[i*3 + 2] = 0xff;
 1693              		.loc 1 150 16 is_stmt 0 view .LVU503
 1694 0150 D4F85406 		ldr	r0, [r4, #1620]
 150:lvgl/src/extra/libs/gif/gifdec.c ****             gif->canvas[i*3 + 2] = 0xff;
 1695              		.loc 1 150 24 view .LVU504
 1696 0154 03F1010E 		add	lr, r3, #1
 150:lvgl/src/extra/libs/gif/gifdec.c ****             gif->canvas[i*3 + 2] = 0xff;
 1697              		.loc 1 150 34 view .LVU505
 1698 0158 120A     		lsrs	r2, r2, #8
 1699 015a 00F80E20 		strb	r2, [r0, lr]
 151:lvgl/src/extra/libs/gif/gifdec.c **** #elif LV_COLOR_DEPTH == 8
 1700              		.loc 1 151 13 is_stmt 1 view .LVU506
 151:lvgl/src/extra/libs/gif/gifdec.c **** #elif LV_COLOR_DEPTH == 8
 1701              		.loc 1 151 16 is_stmt 0 view .LVU507
 1702 015e D4F85426 		ldr	r2, [r4, #1620]
 151:lvgl/src/extra/libs/gif/gifdec.c **** #elif LV_COLOR_DEPTH == 8
 1703              		.loc 1 151 24 view .LVU508
 1704 0162 0233     		adds	r3, r3, #2
 151:lvgl/src/extra/libs/gif/gifdec.c **** #elif LV_COLOR_DEPTH == 8
 1705              		.loc 1 151 34 view .LVU509
 1706 0164 FF20     		movs	r0, #255
 1707 0166 D054     		strb	r0, [r2, r3]
 1708              	.LBE26:
 141:lvgl/src/extra/libs/gif/gifdec.c **** #if LV_COLOR_DEPTH == 32
ARM GAS  C:\usertemp\ccoJaLKY.s 			page 59


 1709              		.loc 1 141 52 is_stmt 1 discriminator 3 view .LVU510
 1710 0168 0135     		adds	r5, r5, #1
 1711              	.LVL164:
 1712              	.L95:
 141:lvgl/src/extra/libs/gif/gifdec.c **** #if LV_COLOR_DEPTH == 32
 1713              		.loc 1 141 23 discriminator 1 view .LVU511
 141:lvgl/src/extra/libs/gif/gifdec.c **** #if LV_COLOR_DEPTH == 32
 1714              		.loc 1 141 28 is_stmt 0 discriminator 1 view .LVU512
 1715 016a A38B     		ldrh	r3, [r4, #28]
 141:lvgl/src/extra/libs/gif/gifdec.c **** #if LV_COLOR_DEPTH == 32
 1716              		.loc 1 141 41 discriminator 1 view .LVU513
 1717 016c E28B     		ldrh	r2, [r4, #30]
 141:lvgl/src/extra/libs/gif/gifdec.c **** #if LV_COLOR_DEPTH == 32
 1718              		.loc 1 141 36 discriminator 1 view .LVU514
 1719 016e 02FB03F3 		mul	r3, r2, r3
 141:lvgl/src/extra/libs/gif/gifdec.c **** #if LV_COLOR_DEPTH == 32
 1720              		.loc 1 141 23 discriminator 1 view .LVU515
 1721 0172 AB42     		cmp	r3, r5
 1722 0174 D8DC     		bgt	.L96
 1723              	.LVL165:
 1724              	.L94:
 158:lvgl/src/extra/libs/gif/gifdec.c ****     goto ok;
 1725              		.loc 1 158 5 is_stmt 1 view .LVU516
 158:lvgl/src/extra/libs/gif/gifdec.c ****     goto ok;
 1726              		.loc 1 158 23 is_stmt 0 view .LVU517
 1727 0176 0122     		movs	r2, #1
 1728 0178 0021     		movs	r1, #0
 1729              	.LVL166:
 158:lvgl/src/extra/libs/gif/gifdec.c ****     goto ok;
 1730              		.loc 1 158 23 view .LVU518
 1731 017a 2046     		mov	r0, r4
 1732 017c FFF7FEFF 		bl	f_gif_seek
 1733              	.LVL167:
 158:lvgl/src/extra/libs/gif/gifdec.c ****     goto ok;
 1734              		.loc 1 158 21 discriminator 1 view .LVU519
 1735 0180 A061     		str	r0, [r4, #24]
 159:lvgl/src/extra/libs/gif/gifdec.c **** fail:
 1736              		.loc 1 159 5 is_stmt 1 view .LVU520
 1737 0182 03E0     		b	.L90
 1738              	.LVL168:
 1739              	.L91:
 161:lvgl/src/extra/libs/gif/gifdec.c **** ok:
 1740              		.loc 1 161 5 view .LVU521
 1741 0184 3046     		mov	r0, r6
 1742 0186 FFF7FEFF 		bl	f_gif_close
 1743              	.LVL169:
 1744 018a 0024     		movs	r4, #0
 1745              	.L97:
 163:lvgl/src/extra/libs/gif/gifdec.c **** }
 1746              		.loc 1 163 5 view .LVU522
 1747              	.LVL170:
 1748              	.L90:
 164:lvgl/src/extra/libs/gif/gifdec.c **** 
 1749              		.loc 1 164 1 is_stmt 0 view .LVU523
 1750 018c 2046     		mov	r0, r4
 1751 018e 05B0     		add	sp, sp, #20
 1752              	.LCFI28:
ARM GAS  C:\usertemp\ccoJaLKY.s 			page 60


 1753              		.cfi_def_cfa_offset 36
 1754              		@ sp needed
 1755 0190 BDE8F08F 		pop	{r4, r5, r6, r7, r8, r9, r10, fp, pc}
 1756              	.L101:
 1757              		.align	2
 1758              	.L100:
 1759 0194 00000000 		.word	.LC0
 1760 0198 04000000 		.word	.LC1
 1761              		.cfi_endproc
 1762              	.LFE21:
 1764              		.section	.rodata.read_application_ext.str1.4,"aMS",%progbits,1
 1765              		.align	2
 1766              	.LC2:
 1767 0000 4E455453 		.ascii	"NETSCAPE\000"
 1767      43415045 
 1767      00
 1768              		.section	.text.read_application_ext,"ax",%progbits
 1769              		.align	1
 1770              		.syntax unified
 1771              		.thumb
 1772              		.thumb_func
 1774              	read_application_ext:
 1775              	.LVL171:
 1776              	.LFB26:
 235:lvgl/src/extra/libs/gif/gifdec.c ****     char app_id[8];
 1777              		.loc 1 235 1 is_stmt 1 view -0
 1778              		.cfi_startproc
 1779              		@ args = 0, pretend = 0, frame = 16
 1780              		@ frame_needed = 0, uses_anonymous_args = 0
 235:lvgl/src/extra/libs/gif/gifdec.c ****     char app_id[8];
 1781              		.loc 1 235 1 is_stmt 0 view .LVU525
 1782 0000 30B5     		push	{r4, r5, lr}
 1783              	.LCFI29:
 1784              		.cfi_def_cfa_offset 12
 1785              		.cfi_offset 4, -12
 1786              		.cfi_offset 5, -8
 1787              		.cfi_offset 14, -4
 1788 0002 85B0     		sub	sp, sp, #20
 1789              	.LCFI30:
 1790              		.cfi_def_cfa_offset 32
 1791 0004 0446     		mov	r4, r0
 236:lvgl/src/extra/libs/gif/gifdec.c ****     char app_auth_code[3];
 1792              		.loc 1 236 5 is_stmt 1 view .LVU526
 237:lvgl/src/extra/libs/gif/gifdec.c **** 
 1793              		.loc 1 237 5 view .LVU527
 240:lvgl/src/extra/libs/gif/gifdec.c ****     /* Application Identifier. */
 1794              		.loc 1 240 5 view .LVU528
 1795 0006 0122     		movs	r2, #1
 1796 0008 1146     		mov	r1, r2
 1797 000a FFF7FEFF 		bl	f_gif_seek
 1798              	.LVL172:
 242:lvgl/src/extra/libs/gif/gifdec.c ****     /* Application Authentication Code. */
 1799              		.loc 1 242 5 view .LVU529
 1800 000e 0822     		movs	r2, #8
 1801 0010 0DEB0201 		add	r1, sp, r2
 1802 0014 2046     		mov	r0, r4
 1803 0016 FFF7FEFF 		bl	f_gif_read
ARM GAS  C:\usertemp\ccoJaLKY.s 			page 61


 1804              	.LVL173:
 244:lvgl/src/extra/libs/gif/gifdec.c ****     if (!strncmp(app_id, "NETSCAPE", sizeof(app_id))) {
 1805              		.loc 1 244 5 view .LVU530
 1806 001a 0322     		movs	r2, #3
 1807 001c 01A9     		add	r1, sp, #4
 1808 001e 2046     		mov	r0, r4
 1809 0020 FFF7FEFF 		bl	f_gif_read
 1810              	.LVL174:
 245:lvgl/src/extra/libs/gif/gifdec.c ****         /* Discard block size (0x03) and constant byte (0x01). */
 1811              		.loc 1 245 5 view .LVU531
 245:lvgl/src/extra/libs/gif/gifdec.c ****         /* Discard block size (0x03) and constant byte (0x01). */
 1812              		.loc 1 245 10 is_stmt 0 view .LVU532
 1813 0024 0822     		movs	r2, #8
 1814 0026 1949     		ldr	r1, .L108
 1815 0028 0DEB0200 		add	r0, sp, r2
 1816 002c FFF7FEFF 		bl	strncmp
 1817              	.LVL175:
 245:lvgl/src/extra/libs/gif/gifdec.c ****         /* Discard block size (0x03) and constant byte (0x01). */
 1818              		.loc 1 245 8 discriminator 1 view .LVU533
 1819 0030 C0B1     		cbz	r0, .L107
 251:lvgl/src/extra/libs/gif/gifdec.c ****         size_t sub_block = f_gif_seek(gif, 0, LV_FS_SEEK_CUR);
 1820              		.loc 1 251 12 is_stmt 1 view .LVU534
 251:lvgl/src/extra/libs/gif/gifdec.c ****         size_t sub_block = f_gif_seek(gif, 0, LV_FS_SEEK_CUR);
 1821              		.loc 1 251 19 is_stmt 0 view .LVU535
 1822 0032 D4F84436 		ldr	r3, [r4, #1604]
 251:lvgl/src/extra/libs/gif/gifdec.c ****         size_t sub_block = f_gif_seek(gif, 0, LV_FS_SEEK_CUR);
 1823              		.loc 1 251 15 view .LVU536
 1824 0036 23B3     		cbz	r3, .L105
 1825              	.LBB29:
 252:lvgl/src/extra/libs/gif/gifdec.c ****         gif->application(gif, app_id, app_auth_code);
 1826              		.loc 1 252 9 is_stmt 1 view .LVU537
 252:lvgl/src/extra/libs/gif/gifdec.c ****         gif->application(gif, app_id, app_auth_code);
 1827              		.loc 1 252 28 is_stmt 0 view .LVU538
 1828 0038 0122     		movs	r2, #1
 1829 003a 0021     		movs	r1, #0
 1830 003c 2046     		mov	r0, r4
 1831 003e FFF7FEFF 		bl	f_gif_seek
 1832              	.LVL176:
 1833 0042 0546     		mov	r5, r0
 1834              	.LVL177:
 253:lvgl/src/extra/libs/gif/gifdec.c ****         f_gif_seek(gif, sub_block, LV_FS_SEEK_SET);
 1835              		.loc 1 253 9 is_stmt 1 view .LVU539
 253:lvgl/src/extra/libs/gif/gifdec.c ****         f_gif_seek(gif, sub_block, LV_FS_SEEK_SET);
 1836              		.loc 1 253 12 is_stmt 0 view .LVU540
 1837 0044 D4F84436 		ldr	r3, [r4, #1604]
 253:lvgl/src/extra/libs/gif/gifdec.c ****         f_gif_seek(gif, sub_block, LV_FS_SEEK_SET);
 1838              		.loc 1 253 9 view .LVU541
 1839 0048 01AA     		add	r2, sp, #4
 1840 004a 02A9     		add	r1, sp, #8
 1841 004c 2046     		mov	r0, r4
 1842              	.LVL178:
 253:lvgl/src/extra/libs/gif/gifdec.c ****         f_gif_seek(gif, sub_block, LV_FS_SEEK_SET);
 1843              		.loc 1 253 9 view .LVU542
 1844 004e 9847     		blx	r3
 1845              	.LVL179:
 254:lvgl/src/extra/libs/gif/gifdec.c ****         discard_sub_blocks(gif);
 1846              		.loc 1 254 9 is_stmt 1 view .LVU543
ARM GAS  C:\usertemp\ccoJaLKY.s 			page 62


 1847 0050 0022     		movs	r2, #0
 1848 0052 2946     		mov	r1, r5
 1849 0054 2046     		mov	r0, r4
 1850 0056 FFF7FEFF 		bl	f_gif_seek
 1851              	.LVL180:
 255:lvgl/src/extra/libs/gif/gifdec.c ****     } else {
 1852              		.loc 1 255 9 view .LVU544
 1853 005a 2046     		mov	r0, r4
 1854 005c FFF7FEFF 		bl	discard_sub_blocks
 1855              	.LVL181:
 1856              	.L102:
 255:lvgl/src/extra/libs/gif/gifdec.c ****     } else {
 1857              		.loc 1 255 9 is_stmt 0 view .LVU545
 1858              	.LBE29:
 259:lvgl/src/extra/libs/gif/gifdec.c **** 
 1859              		.loc 1 259 1 view .LVU546
 1860 0060 05B0     		add	sp, sp, #20
 1861              	.LCFI31:
 1862              		.cfi_remember_state
 1863              		.cfi_def_cfa_offset 12
 1864              		@ sp needed
 1865 0062 30BD     		pop	{r4, r5, pc}
 1866              	.LVL182:
 1867              	.L107:
 1868              	.LCFI32:
 1869              		.cfi_restore_state
 247:lvgl/src/extra/libs/gif/gifdec.c ****         gif->loop_count = read_num(gif);
 1870              		.loc 1 247 9 is_stmt 1 view .LVU547
 1871 0064 0122     		movs	r2, #1
 1872 0066 0221     		movs	r1, #2
 1873 0068 2046     		mov	r0, r4
 1874 006a FFF7FEFF 		bl	f_gif_seek
 1875              	.LVL183:
 248:lvgl/src/extra/libs/gif/gifdec.c ****         /* Skip block terminator. */
 1876              		.loc 1 248 9 view .LVU548
 248:lvgl/src/extra/libs/gif/gifdec.c ****         /* Skip block terminator. */
 1877              		.loc 1 248 27 is_stmt 0 view .LVU549
 1878 006e 2046     		mov	r0, r4
 1879 0070 FFF7FEFF 		bl	read_num
 1880              	.LVL184:
 248:lvgl/src/extra/libs/gif/gifdec.c ****         /* Skip block terminator. */
 1881              		.loc 1 248 25 discriminator 1 view .LVU550
 1882 0074 6084     		strh	r0, [r4, #34]	@ movhi
 250:lvgl/src/extra/libs/gif/gifdec.c ****     } else if (gif->application) {
 1883              		.loc 1 250 9 is_stmt 1 view .LVU551
 1884 0076 0122     		movs	r2, #1
 1885 0078 1146     		mov	r1, r2
 1886 007a 2046     		mov	r0, r4
 1887 007c FFF7FEFF 		bl	f_gif_seek
 1888              	.LVL185:
 1889 0080 EEE7     		b	.L102
 1890              	.L105:
 257:lvgl/src/extra/libs/gif/gifdec.c ****     }
 1891              		.loc 1 257 9 view .LVU552
 1892 0082 2046     		mov	r0, r4
 1893 0084 FFF7FEFF 		bl	discard_sub_blocks
 1894              	.LVL186:
ARM GAS  C:\usertemp\ccoJaLKY.s 			page 63


 259:lvgl/src/extra/libs/gif/gifdec.c **** 
 1895              		.loc 1 259 1 is_stmt 0 view .LVU553
 1896 0088 EAE7     		b	.L102
 1897              	.L109:
 1898 008a 00BF     		.align	2
 1899              	.L108:
 1900 008c 00000000 		.word	.LC2
 1901              		.cfi_endproc
 1902              	.LFE26:
 1904              		.section	.text.read_ext,"ax",%progbits
 1905              		.align	1
 1906              		.syntax unified
 1907              		.thumb
 1908              		.thumb_func
 1910              	read_ext:
 1911              	.LVL187:
 1912              	.LFB27:
 263:lvgl/src/extra/libs/gif/gifdec.c ****     uint8_t label;
 1913              		.loc 1 263 1 is_stmt 1 view -0
 1914              		.cfi_startproc
 1915              		@ args = 0, pretend = 0, frame = 8
 1916              		@ frame_needed = 0, uses_anonymous_args = 0
 263:lvgl/src/extra/libs/gif/gifdec.c ****     uint8_t label;
 1917              		.loc 1 263 1 is_stmt 0 view .LVU555
 1918 0000 10B5     		push	{r4, lr}
 1919              	.LCFI33:
 1920              		.cfi_def_cfa_offset 8
 1921              		.cfi_offset 4, -8
 1922              		.cfi_offset 14, -4
 1923 0002 82B0     		sub	sp, sp, #8
 1924              	.LCFI34:
 1925              		.cfi_def_cfa_offset 16
 1926 0004 0446     		mov	r4, r0
 264:lvgl/src/extra/libs/gif/gifdec.c **** 
 1927              		.loc 1 264 5 is_stmt 1 view .LVU556
 266:lvgl/src/extra/libs/gif/gifdec.c ****     switch (label) {
 1928              		.loc 1 266 5 view .LVU557
 1929 0006 0122     		movs	r2, #1
 1930 0008 0DF10701 		add	r1, sp, #7
 1931 000c FFF7FEFF 		bl	f_gif_read
 1932              	.LVL188:
 267:lvgl/src/extra/libs/gif/gifdec.c ****     case 0x01:
 1933              		.loc 1 267 5 view .LVU558
 1934 0010 9DF80730 		ldrb	r3, [sp, #7]	@ zero_extendqisi2
 1935 0014 FE2B     		cmp	r3, #254
 1936 0016 13D0     		beq	.L111
 1937 0018 07D8     		bhi	.L112
 1938 001a 012B     		cmp	r3, #1
 1939 001c 0BD0     		beq	.L113
 1940 001e F92B     		cmp	r3, #249
 1941 0020 0CD1     		bne	.L110
 272:lvgl/src/extra/libs/gif/gifdec.c ****         break;
 1942              		.loc 1 272 9 view .LVU559
 1943 0022 2046     		mov	r0, r4
 1944 0024 FFF7FEFF 		bl	read_graphic_control_ext
 1945              	.LVL189:
 273:lvgl/src/extra/libs/gif/gifdec.c ****     case 0xFE:
ARM GAS  C:\usertemp\ccoJaLKY.s 			page 64


 1946              		.loc 1 273 9 view .LVU560
 1947 0028 08E0     		b	.L110
 1948              	.L112:
 267:lvgl/src/extra/libs/gif/gifdec.c ****     case 0x01:
 1949              		.loc 1 267 5 is_stmt 0 view .LVU561
 1950 002a FF2B     		cmp	r3, #255
 1951 002c 06D1     		bne	.L110
 278:lvgl/src/extra/libs/gif/gifdec.c ****         break;
 1952              		.loc 1 278 9 is_stmt 1 view .LVU562
 1953 002e 2046     		mov	r0, r4
 1954 0030 FFF7FEFF 		bl	read_application_ext
 1955              	.LVL190:
 279:lvgl/src/extra/libs/gif/gifdec.c ****     default:
 1956              		.loc 1 279 9 view .LVU563
 281:lvgl/src/extra/libs/gif/gifdec.c ****     }
 1957              		.loc 1 281 9 view .LVU564
 281:lvgl/src/extra/libs/gif/gifdec.c ****     }
 1958              		.loc 1 281 9 view .LVU565
 281:lvgl/src/extra/libs/gif/gifdec.c ****     }
 1959              		.loc 1 281 9 view .LVU566
 283:lvgl/src/extra/libs/gif/gifdec.c **** 
 1960              		.loc 1 283 1 is_stmt 0 view .LVU567
 1961 0034 02E0     		b	.L110
 1962              	.L113:
 269:lvgl/src/extra/libs/gif/gifdec.c ****         break;
 1963              		.loc 1 269 9 is_stmt 1 view .LVU568
 1964 0036 2046     		mov	r0, r4
 1965 0038 FFF7FEFF 		bl	read_plain_text_ext
 1966              	.LVL191:
 270:lvgl/src/extra/libs/gif/gifdec.c ****     case 0xF9:
 1967              		.loc 1 270 9 view .LVU569
 1968              	.L110:
 283:lvgl/src/extra/libs/gif/gifdec.c **** 
 1969              		.loc 1 283 1 is_stmt 0 view .LVU570
 1970 003c 02B0     		add	sp, sp, #8
 1971              	.LCFI35:
 1972              		.cfi_remember_state
 1973              		.cfi_def_cfa_offset 8
 1974              		@ sp needed
 1975 003e 10BD     		pop	{r4, pc}
 1976              	.LVL192:
 1977              	.L111:
 1978              	.LCFI36:
 1979              		.cfi_restore_state
 275:lvgl/src/extra/libs/gif/gifdec.c ****         break;
 1980              		.loc 1 275 9 is_stmt 1 view .LVU571
 1981 0040 2046     		mov	r0, r4
 1982 0042 FFF7FEFF 		bl	read_comment_ext
 1983              	.LVL193:
 276:lvgl/src/extra/libs/gif/gifdec.c ****     case 0xFF:
 1984              		.loc 1 276 9 view .LVU572
 1985 0046 F9E7     		b	.L110
 1986              		.cfi_endproc
 1987              	.LFE27:
 1989              		.section	.text.add_entry,"ax",%progbits
 1990              		.align	1
 1991              		.syntax unified
ARM GAS  C:\usertemp\ccoJaLKY.s 			page 65


 1992              		.thumb
 1993              		.thumb_func
 1995              	add_entry:
 1996              	.LVL194:
 1997              	.LFB29:
 307:lvgl/src/extra/libs/gif/gifdec.c ****     Table *table = *tablep;
 1998              		.loc 1 307 1 view -0
 1999              		.cfi_startproc
 2000              		@ args = 0, pretend = 0, frame = 0
 2001              		@ frame_needed = 0, uses_anonymous_args = 0
 307:lvgl/src/extra/libs/gif/gifdec.c ****     Table *table = *tablep;
 2002              		.loc 1 307 1 is_stmt 0 view .LVU574
 2003 0000 2DE9F041 		push	{r4, r5, r6, r7, r8, lr}
 2004              	.LCFI37:
 2005              		.cfi_def_cfa_offset 24
 2006              		.cfi_offset 4, -24
 2007              		.cfi_offset 5, -20
 2008              		.cfi_offset 6, -16
 2009              		.cfi_offset 7, -12
 2010              		.cfi_offset 8, -8
 2011              		.cfi_offset 14, -4
 2012 0004 8846     		mov	r8, r1
 2013 0006 1746     		mov	r7, r2
 2014 0008 1E46     		mov	r6, r3
 308:lvgl/src/extra/libs/gif/gifdec.c ****     if (table->nentries == table->bulk) {
 2015              		.loc 1 308 5 is_stmt 1 view .LVU575
 308:lvgl/src/extra/libs/gif/gifdec.c ****     if (table->nentries == table->bulk) {
 2016              		.loc 1 308 12 is_stmt 0 view .LVU576
 2017 000a 0468     		ldr	r4, [r0]
 2018              	.LVL195:
 309:lvgl/src/extra/libs/gif/gifdec.c ****         table->bulk *= 2;
 2019              		.loc 1 309 5 is_stmt 1 view .LVU577
 309:lvgl/src/extra/libs/gif/gifdec.c ****         table->bulk *= 2;
 2020              		.loc 1 309 14 is_stmt 0 view .LVU578
 2021 000c 6268     		ldr	r2, [r4, #4]
 2022              	.LVL196:
 309:lvgl/src/extra/libs/gif/gifdec.c ****         table->bulk *= 2;
 2023              		.loc 1 309 33 view .LVU579
 2024 000e 2368     		ldr	r3, [r4]
 2025              	.LVL197:
 309:lvgl/src/extra/libs/gif/gifdec.c ****         table->bulk *= 2;
 2026              		.loc 1 309 8 view .LVU580
 2027 0010 9A42     		cmp	r2, r3
 2028 0012 11D0     		beq	.L124
 2029              	.LVL198:
 2030              	.L119:
 316:lvgl/src/extra/libs/gif/gifdec.c ****     table->nentries++;
 2031              		.loc 1 316 5 is_stmt 1 view .LVU581
 316:lvgl/src/extra/libs/gif/gifdec.c ****     table->nentries++;
 2032              		.loc 1 316 10 is_stmt 0 view .LVU582
 2033 0014 A268     		ldr	r2, [r4, #8]
 316:lvgl/src/extra/libs/gif/gifdec.c ****     table->nentries++;
 2034              		.loc 1 316 25 view .LVU583
 2035 0016 6068     		ldr	r0, [r4, #4]
 316:lvgl/src/extra/libs/gif/gifdec.c ****     table->nentries++;
 2036              		.loc 1 316 19 view .LVU584
 2037 0018 00EB4000 		add	r0, r0, r0, lsl #1
ARM GAS  C:\usertemp\ccoJaLKY.s 			page 66


 2038 001c 02EB4003 		add	r3, r2, r0, lsl #1
 316:lvgl/src/extra/libs/gif/gifdec.c ****     table->nentries++;
 2039              		.loc 1 316 37 view .LVU585
 2040 0020 22F81080 		strh	r8, [r2, r0, lsl #1]	@ movhi
 2041 0024 5F80     		strh	r7, [r3, #2]	@ movhi
 2042 0026 1E71     		strb	r6, [r3, #4]
 317:lvgl/src/extra/libs/gif/gifdec.c ****     if ((table->nentries & (table->nentries - 1)) == 0)
 2043              		.loc 1 317 5 is_stmt 1 view .LVU586
 317:lvgl/src/extra/libs/gif/gifdec.c ****     if ((table->nentries & (table->nentries - 1)) == 0)
 2044              		.loc 1 317 10 is_stmt 0 view .LVU587
 2045 0028 6268     		ldr	r2, [r4, #4]
 317:lvgl/src/extra/libs/gif/gifdec.c ****     if ((table->nentries & (table->nentries - 1)) == 0)
 2046              		.loc 1 317 20 view .LVU588
 2047 002a 531C     		adds	r3, r2, #1
 2048 002c 6360     		str	r3, [r4, #4]
 318:lvgl/src/extra/libs/gif/gifdec.c ****         return 1;
 2049              		.loc 1 318 5 is_stmt 1 view .LVU589
 318:lvgl/src/extra/libs/gif/gifdec.c ****         return 1;
 2050              		.loc 1 318 8 is_stmt 0 view .LVU590
 2051 002e 1A42     		tst	r2, r3
 2052 0030 16D0     		beq	.L122
 320:lvgl/src/extra/libs/gif/gifdec.c **** }
 2053              		.loc 1 320 12 view .LVU591
 2054 0032 0020     		movs	r0, #0
 2055              	.L118:
 321:lvgl/src/extra/libs/gif/gifdec.c **** 
 2056              		.loc 1 321 1 view .LVU592
 2057 0034 BDE8F081 		pop	{r4, r5, r6, r7, r8, pc}
 2058              	.LVL199:
 2059              	.L124:
 321:lvgl/src/extra/libs/gif/gifdec.c **** 
 2060              		.loc 1 321 1 view .LVU593
 2061 0038 0546     		mov	r5, r0
 310:lvgl/src/extra/libs/gif/gifdec.c ****         table = lv_mem_realloc(table, sizeof(*table) + sizeof(Entry) * table->bulk);
 2062              		.loc 1 310 9 is_stmt 1 view .LVU594
 310:lvgl/src/extra/libs/gif/gifdec.c ****         table = lv_mem_realloc(table, sizeof(*table) + sizeof(Entry) * table->bulk);
 2063              		.loc 1 310 21 is_stmt 0 view .LVU595
 2064 003a 5900     		lsls	r1, r3, #1
 2065              	.LVL200:
 310:lvgl/src/extra/libs/gif/gifdec.c ****         table = lv_mem_realloc(table, sizeof(*table) + sizeof(Entry) * table->bulk);
 2066              		.loc 1 310 21 view .LVU596
 2067 003c 2160     		str	r1, [r4]
 311:lvgl/src/extra/libs/gif/gifdec.c ****         if (!table) return -1;
 2068              		.loc 1 311 9 is_stmt 1 view .LVU597
 311:lvgl/src/extra/libs/gif/gifdec.c ****         if (!table) return -1;
 2069              		.loc 1 311 70 is_stmt 0 view .LVU598
 2070 003e 01EB8301 		add	r1, r1, r3, lsl #2
 2071 0042 4900     		lsls	r1, r1, #1
 311:lvgl/src/extra/libs/gif/gifdec.c ****         if (!table) return -1;
 2072              		.loc 1 311 17 view .LVU599
 2073 0044 0C31     		adds	r1, r1, #12
 2074 0046 2046     		mov	r0, r4
 2075              	.LVL201:
 311:lvgl/src/extra/libs/gif/gifdec.c ****         if (!table) return -1;
 2076              		.loc 1 311 17 view .LVU600
 2077 0048 FFF7FEFF 		bl	lv_mem_realloc
 2078              	.LVL202:
ARM GAS  C:\usertemp\ccoJaLKY.s 			page 67


 312:lvgl/src/extra/libs/gif/gifdec.c ****         table->entries = (Entry *) &table[1];
 2079              		.loc 1 312 9 is_stmt 1 view .LVU601
 312:lvgl/src/extra/libs/gif/gifdec.c ****         table->entries = (Entry *) &table[1];
 2080              		.loc 1 312 12 is_stmt 0 view .LVU602
 2081 004c 0446     		mov	r4, r0
 2082 004e 20B1     		cbz	r0, .L121
 313:lvgl/src/extra/libs/gif/gifdec.c ****         *tablep = table;
 2083              		.loc 1 313 9 is_stmt 1 view .LVU603
 313:lvgl/src/extra/libs/gif/gifdec.c ****         *tablep = table;
 2084              		.loc 1 313 36 is_stmt 0 view .LVU604
 2085 0050 00F10C03 		add	r3, r0, #12
 313:lvgl/src/extra/libs/gif/gifdec.c ****         *tablep = table;
 2086              		.loc 1 313 24 view .LVU605
 2087 0054 8360     		str	r3, [r0, #8]
 314:lvgl/src/extra/libs/gif/gifdec.c ****     }
 2088              		.loc 1 314 9 is_stmt 1 view .LVU606
 314:lvgl/src/extra/libs/gif/gifdec.c ****     }
 2089              		.loc 1 314 17 is_stmt 0 view .LVU607
 2090 0056 2860     		str	r0, [r5]
 2091 0058 DCE7     		b	.L119
 2092              	.L121:
 312:lvgl/src/extra/libs/gif/gifdec.c ****         table->entries = (Entry *) &table[1];
 2093              		.loc 1 312 28 discriminator 1 view .LVU608
 2094 005a 4FF0FF30 		mov	r0, #-1
 2095              	.LVL203:
 312:lvgl/src/extra/libs/gif/gifdec.c ****         table->entries = (Entry *) &table[1];
 2096              		.loc 1 312 28 discriminator 1 view .LVU609
 2097 005e E9E7     		b	.L118
 2098              	.LVL204:
 2099              	.L122:
 319:lvgl/src/extra/libs/gif/gifdec.c ****     return 0;
 2100              		.loc 1 319 16 view .LVU610
 2101 0060 0120     		movs	r0, #1
 2102 0062 E7E7     		b	.L118
 2103              		.cfi_endproc
 2104              	.LFE29:
 2106              		.section	.text.read_image_data,"ax",%progbits
 2107              		.align	1
 2108              		.syntax unified
 2109              		.thumb
 2110              		.thumb_func
 2112              	read_image_data:
 2113              	.LVL205:
 2114              	.LFB32:
 378:lvgl/src/extra/libs/gif/gifdec.c ****     uint8_t sub_len, shift, byte;
 2115              		.loc 1 378 1 is_stmt 1 view -0
 2116              		.cfi_startproc
 2117              		@ args = 0, pretend = 0, frame = 48
 2118              		@ frame_needed = 0, uses_anonymous_args = 0
 378:lvgl/src/extra/libs/gif/gifdec.c ****     uint8_t sub_len, shift, byte;
 2119              		.loc 1 378 1 is_stmt 0 view .LVU612
 2120 0000 2DE9F04F 		push	{r4, r5, r6, r7, r8, r9, r10, fp, lr}
 2121              	.LCFI38:
 2122              		.cfi_def_cfa_offset 36
 2123              		.cfi_offset 4, -36
 2124              		.cfi_offset 5, -32
 2125              		.cfi_offset 6, -28
ARM GAS  C:\usertemp\ccoJaLKY.s 			page 68


 2126              		.cfi_offset 7, -24
 2127              		.cfi_offset 8, -20
 2128              		.cfi_offset 9, -16
 2129              		.cfi_offset 10, -12
 2130              		.cfi_offset 11, -8
 2131              		.cfi_offset 14, -4
 2132 0004 8FB0     		sub	sp, sp, #60
 2133              	.LCFI39:
 2134              		.cfi_def_cfa_offset 96
 2135 0006 0546     		mov	r5, r0
 2136 0008 8A46     		mov	r10, r1
 379:lvgl/src/extra/libs/gif/gifdec.c ****     int init_key_size, key_size, table_is_full=0;
 2137              		.loc 1 379 5 is_stmt 1 view .LVU613
 380:lvgl/src/extra/libs/gif/gifdec.c ****     int frm_off, frm_size, str_len=0, i, p, x, y;
 2138              		.loc 1 380 5 view .LVU614
 2139              	.LVL206:
 381:lvgl/src/extra/libs/gif/gifdec.c ****     uint16_t key, clear, stop;
 2140              		.loc 1 381 5 view .LVU615
 382:lvgl/src/extra/libs/gif/gifdec.c ****     int ret;
 2141              		.loc 1 382 5 view .LVU616
 383:lvgl/src/extra/libs/gif/gifdec.c ****     Table *table;
 2142              		.loc 1 383 5 view .LVU617
 384:lvgl/src/extra/libs/gif/gifdec.c ****     Entry entry = {0};
 2143              		.loc 1 384 5 view .LVU618
 385:lvgl/src/extra/libs/gif/gifdec.c ****     size_t start, end;
 2144              		.loc 1 385 5 view .LVU619
 385:lvgl/src/extra/libs/gif/gifdec.c ****     size_t start, end;
 2145              		.loc 1 385 11 is_stmt 0 view .LVU620
 2146 000a 0024     		movs	r4, #0
 2147 000c 0A94     		str	r4, [sp, #40]
 2148 000e ADF82C40 		strh	r4, [sp, #44]	@ movhi
 386:lvgl/src/extra/libs/gif/gifdec.c **** 
 2149              		.loc 1 386 5 is_stmt 1 view .LVU621
 388:lvgl/src/extra/libs/gif/gifdec.c ****     key_size = (int) byte;
 2150              		.loc 1 388 5 view .LVU622
 2151 0012 0DF13506 		add	r6, sp, #53
 2152 0016 0122     		movs	r2, #1
 2153 0018 3146     		mov	r1, r6
 2154              	.LVL207:
 388:lvgl/src/extra/libs/gif/gifdec.c ****     key_size = (int) byte;
 2155              		.loc 1 388 5 is_stmt 0 view .LVU623
 2156 001a FFF7FEFF 		bl	f_gif_read
 2157              	.LVL208:
 389:lvgl/src/extra/libs/gif/gifdec.c ****     start = f_gif_seek(gif, 0, LV_FS_SEEK_CUR);
 2158              		.loc 1 389 5 is_stmt 1 view .LVU624
 389:lvgl/src/extra/libs/gif/gifdec.c ****     start = f_gif_seek(gif, 0, LV_FS_SEEK_CUR);
 2159              		.loc 1 389 16 is_stmt 0 view .LVU625
 2160 001e 9DF83570 		ldrb	r7, [sp, #53]	@ zero_extendqisi2
 2161              	.LVL209:
 390:lvgl/src/extra/libs/gif/gifdec.c ****     discard_sub_blocks(gif);
 2162              		.loc 1 390 5 is_stmt 1 view .LVU626
 390:lvgl/src/extra/libs/gif/gifdec.c ****     discard_sub_blocks(gif);
 2163              		.loc 1 390 13 is_stmt 0 view .LVU627
 2164 0022 0122     		movs	r2, #1
 2165 0024 2146     		mov	r1, r4
 2166 0026 2846     		mov	r0, r5
 2167 0028 FFF7FEFF 		bl	f_gif_seek
ARM GAS  C:\usertemp\ccoJaLKY.s 			page 69


 2168              	.LVL210:
 2169 002c 8046     		mov	r8, r0
 2170              	.LVL211:
 391:lvgl/src/extra/libs/gif/gifdec.c ****     end = f_gif_seek(gif, 0, LV_FS_SEEK_CUR);
 2171              		.loc 1 391 5 is_stmt 1 view .LVU628
 2172 002e 2846     		mov	r0, r5
 2173              	.LVL212:
 391:lvgl/src/extra/libs/gif/gifdec.c ****     end = f_gif_seek(gif, 0, LV_FS_SEEK_CUR);
 2174              		.loc 1 391 5 is_stmt 0 view .LVU629
 2175 0030 FFF7FEFF 		bl	discard_sub_blocks
 2176              	.LVL213:
 392:lvgl/src/extra/libs/gif/gifdec.c ****     f_gif_seek(gif, start, LV_FS_SEEK_SET);
 2177              		.loc 1 392 5 is_stmt 1 view .LVU630
 392:lvgl/src/extra/libs/gif/gifdec.c ****     f_gif_seek(gif, start, LV_FS_SEEK_SET);
 2178              		.loc 1 392 11 is_stmt 0 view .LVU631
 2179 0034 0122     		movs	r2, #1
 2180 0036 2146     		mov	r1, r4
 2181 0038 2846     		mov	r0, r5
 2182 003a FFF7FEFF 		bl	f_gif_seek
 2183              	.LVL214:
 2184 003e 0990     		str	r0, [sp, #36]
 2185              	.LVL215:
 393:lvgl/src/extra/libs/gif/gifdec.c ****     clear = 1 << key_size;
 2186              		.loc 1 393 5 is_stmt 1 view .LVU632
 2187 0040 2246     		mov	r2, r4
 2188 0042 4146     		mov	r1, r8
 2189 0044 2846     		mov	r0, r5
 2190              	.LVL216:
 393:lvgl/src/extra/libs/gif/gifdec.c ****     clear = 1 << key_size;
 2191              		.loc 1 393 5 is_stmt 0 view .LVU633
 2192 0046 FFF7FEFF 		bl	f_gif_seek
 2193              	.LVL217:
 394:lvgl/src/extra/libs/gif/gifdec.c ****     stop = clear + 1;
 2194              		.loc 1 394 5 is_stmt 1 view .LVU634
 394:lvgl/src/extra/libs/gif/gifdec.c ****     stop = clear + 1;
 2195              		.loc 1 394 15 is_stmt 0 view .LVU635
 2196 004a 0123     		movs	r3, #1
 2197 004c BB40     		lsls	r3, r3, r7
 2198 004e 0793     		str	r3, [sp, #28]
 394:lvgl/src/extra/libs/gif/gifdec.c ****     stop = clear + 1;
 2199              		.loc 1 394 11 view .LVU636
 2200 0050 1FFA83FB 		uxth	fp, r3
 2201              	.LVL218:
 395:lvgl/src/extra/libs/gif/gifdec.c ****     table = new_table(key_size);
 2202              		.loc 1 395 5 is_stmt 1 view .LVU637
 395:lvgl/src/extra/libs/gif/gifdec.c ****     table = new_table(key_size);
 2203              		.loc 1 395 10 is_stmt 0 view .LVU638
 2204 0054 0BF10103 		add	r3, fp, #1
 2205 0058 9BB2     		uxth	r3, r3
 2206 005a 0693     		str	r3, [sp, #24]
 2207              	.LVL219:
 396:lvgl/src/extra/libs/gif/gifdec.c ****     key_size++;
 2208              		.loc 1 396 5 is_stmt 1 view .LVU639
 396:lvgl/src/extra/libs/gif/gifdec.c ****     key_size++;
 2209              		.loc 1 396 13 is_stmt 0 view .LVU640
 2210 005c 3846     		mov	r0, r7
 2211 005e FFF7FEFF 		bl	new_table
ARM GAS  C:\usertemp\ccoJaLKY.s 			page 70


 2212              	.LVL220:
 396:lvgl/src/extra/libs/gif/gifdec.c ****     key_size++;
 2213              		.loc 1 396 11 discriminator 1 view .LVU641
 2214 0062 0C90     		str	r0, [sp, #48]
 397:lvgl/src/extra/libs/gif/gifdec.c ****     init_key_size = key_size;
 2215              		.loc 1 397 5 is_stmt 1 view .LVU642
 397:lvgl/src/extra/libs/gif/gifdec.c ****     init_key_size = key_size;
 2216              		.loc 1 397 13 is_stmt 0 view .LVU643
 2217 0064 7B1C     		adds	r3, r7, #1
 2218 0066 1946     		mov	r1, r3
 2219 0068 0893     		str	r3, [sp, #32]
 2220              	.LVL221:
 398:lvgl/src/extra/libs/gif/gifdec.c ****     sub_len = shift = 0;
 2221              		.loc 1 398 5 is_stmt 1 view .LVU644
 399:lvgl/src/extra/libs/gif/gifdec.c ****     key = get_key(gif, key_size, &sub_len, &shift, &byte); /* clear code */
 2222              		.loc 1 399 5 view .LVU645
 399:lvgl/src/extra/libs/gif/gifdec.c ****     key = get_key(gif, key_size, &sub_len, &shift, &byte); /* clear code */
 2223              		.loc 1 399 21 is_stmt 0 view .LVU646
 2224 006a 8DF83640 		strb	r4, [sp, #54]
 399:lvgl/src/extra/libs/gif/gifdec.c ****     key = get_key(gif, key_size, &sub_len, &shift, &byte); /* clear code */
 2225              		.loc 1 399 13 view .LVU647
 2226 006e 8DF83740 		strb	r4, [sp, #55]
 400:lvgl/src/extra/libs/gif/gifdec.c ****     frm_off = 0;
 2227              		.loc 1 400 5 is_stmt 1 view .LVU648
 400:lvgl/src/extra/libs/gif/gifdec.c ****     frm_off = 0;
 2228              		.loc 1 400 11 is_stmt 0 view .LVU649
 2229 0072 0096     		str	r6, [sp]
 2230 0074 0DF13603 		add	r3, sp, #54
 2231 0078 0DF13702 		add	r2, sp, #55
 2232 007c 0E46     		mov	r6, r1
 2233 007e 2846     		mov	r0, r5
 2234 0080 FFF7FEFF 		bl	get_key
 2235              	.LVL222:
 401:lvgl/src/extra/libs/gif/gifdec.c ****     ret = 0;
 2236              		.loc 1 401 5 is_stmt 1 view .LVU650
 402:lvgl/src/extra/libs/gif/gifdec.c ****     frm_size = gif->fw*gif->fh;
 2237              		.loc 1 402 5 view .LVU651
 403:lvgl/src/extra/libs/gif/gifdec.c ****     while (frm_off < frm_size) {
 2238              		.loc 1 403 5 view .LVU652
 403:lvgl/src/extra/libs/gif/gifdec.c ****     while (frm_off < frm_size) {
 2239              		.loc 1 403 19 is_stmt 0 view .LVU653
 2240 0084 B5F84C36 		ldrh	r3, [r5, #1612]
 403:lvgl/src/extra/libs/gif/gifdec.c ****     while (frm_off < frm_size) {
 2241              		.loc 1 403 27 view .LVU654
 2242 0088 B5F84E26 		ldrh	r2, [r5, #1614]
 403:lvgl/src/extra/libs/gif/gifdec.c ****     while (frm_off < frm_size) {
 2243              		.loc 1 403 14 view .LVU655
 2244 008c 02FB03F2 		mul	r2, r2, r3
 2245 0090 0492     		str	r2, [sp, #16]
 2246              	.LVL223:
 404:lvgl/src/extra/libs/gif/gifdec.c ****         if (key == clear) {
 2247              		.loc 1 404 5 is_stmt 1 view .LVU656
 397:lvgl/src/extra/libs/gif/gifdec.c ****     init_key_size = key_size;
 2248              		.loc 1 397 13 is_stmt 0 view .LVU657
 2249 0092 0296     		str	r6, [sp, #8]
 402:lvgl/src/extra/libs/gif/gifdec.c ****     frm_size = gif->fw*gif->fh;
 2250              		.loc 1 402 9 view .LVU658
ARM GAS  C:\usertemp\ccoJaLKY.s 			page 71


 2251 0094 0594     		str	r4, [sp, #20]
 381:lvgl/src/extra/libs/gif/gifdec.c ****     uint16_t key, clear, stop;
 2252              		.loc 1 381 28 view .LVU659
 2253 0096 A146     		mov	r9, r4
 401:lvgl/src/extra/libs/gif/gifdec.c ****     ret = 0;
 2254              		.loc 1 401 13 view .LVU660
 2255 0098 A046     		mov	r8, r4
 2256              	.LVL224:
 401:lvgl/src/extra/libs/gif/gifdec.c ****     ret = 0;
 2257              		.loc 1 401 13 view .LVU661
 2258 009a 0394     		str	r4, [sp, #12]
 2259 009c 5346     		mov	r3, r10
 2260 009e 8246     		mov	r10, r0
 2261              	.LVL225:
 401:lvgl/src/extra/libs/gif/gifdec.c ****     ret = 0;
 2262              		.loc 1 401 13 view .LVU662
 2263 00a0 1F46     		mov	r7, r3
 2264              	.LVL226:
 404:lvgl/src/extra/libs/gif/gifdec.c ****         if (key == clear) {
 2265              		.loc 1 404 11 view .LVU663
 2266 00a2 6DE0     		b	.L126
 2267              	.LVL227:
 2268              	.L143:
 406:lvgl/src/extra/libs/gif/gifdec.c ****             table->nentries = (1 << (key_size - 1)) + 2;
 2269              		.loc 1 406 13 is_stmt 1 view .LVU664
 407:lvgl/src/extra/libs/gif/gifdec.c ****             table_is_full = 0;
 2270              		.loc 1 407 13 view .LVU665
 407:lvgl/src/extra/libs/gif/gifdec.c ****             table_is_full = 0;
 2271              		.loc 1 407 53 is_stmt 0 view .LVU666
 2272 00a4 079B     		ldr	r3, [sp, #28]
 2273 00a6 0233     		adds	r3, r3, #2
 407:lvgl/src/extra/libs/gif/gifdec.c ****             table_is_full = 0;
 2274              		.loc 1 407 29 view .LVU667
 2275 00a8 0C9A     		ldr	r2, [sp, #48]
 2276 00aa 5360     		str	r3, [r2, #4]
 408:lvgl/src/extra/libs/gif/gifdec.c ****         } else if (!table_is_full) {
 2277              		.loc 1 408 13 is_stmt 1 view .LVU668
 2278              	.LVL228:
 406:lvgl/src/extra/libs/gif/gifdec.c ****             table->nentries = (1 << (key_size - 1)) + 2;
 2279              		.loc 1 406 22 is_stmt 0 view .LVU669
 2280 00ac 089B     		ldr	r3, [sp, #32]
 2281 00ae 0293     		str	r3, [sp, #8]
 408:lvgl/src/extra/libs/gif/gifdec.c ****         } else if (!table_is_full) {
 2282              		.loc 1 408 27 view .LVU670
 2283 00b0 0023     		movs	r3, #0
 2284 00b2 0393     		str	r3, [sp, #12]
 2285 00b4 6CE0     		b	.L128
 2286              	.LVL229:
 2287              	.L144:
 410:lvgl/src/extra/libs/gif/gifdec.c ****             if (ret == -1) {
 2288              		.loc 1 410 13 is_stmt 1 view .LVU671
 410:lvgl/src/extra/libs/gif/gifdec.c ****             if (ret == -1) {
 2289              		.loc 1 410 19 is_stmt 0 view .LVU672
 2290 00b6 09F10101 		add	r1, r9, #1
 2291 00ba 9DF82C30 		ldrb	r3, [sp, #44]	@ zero_extendqisi2
 2292              	.LVL230:
 410:lvgl/src/extra/libs/gif/gifdec.c ****             if (ret == -1) {
ARM GAS  C:\usertemp\ccoJaLKY.s 			page 72


 2293              		.loc 1 410 19 view .LVU673
 2294 00be 5246     		mov	r2, r10
 2295 00c0 89B2     		uxth	r1, r1
 2296 00c2 0CA8     		add	r0, sp, #48
 2297 00c4 FFF7FEFF 		bl	add_entry
 2298              	.LVL231:
 2299 00c8 0590     		str	r0, [sp, #20]
 2300              	.LVL232:
 411:lvgl/src/extra/libs/gif/gifdec.c ****                 lv_mem_free(table);
 2301              		.loc 1 411 13 is_stmt 1 view .LVU674
 411:lvgl/src/extra/libs/gif/gifdec.c ****                 lv_mem_free(table);
 2302              		.loc 1 411 16 is_stmt 0 view .LVU675
 2303 00ca B0F1FF3F 		cmp	r0, #-1
 2304 00ce 09D0     		beq	.L142
 415:lvgl/src/extra/libs/gif/gifdec.c ****                 ret = 0;
 2305              		.loc 1 415 13 is_stmt 1 view .LVU676
 415:lvgl/src/extra/libs/gif/gifdec.c ****                 ret = 0;
 2306              		.loc 1 415 22 is_stmt 0 view .LVU677
 2307 00d0 0C9B     		ldr	r3, [sp, #48]
 2308 00d2 5B68     		ldr	r3, [r3, #4]
 415:lvgl/src/extra/libs/gif/gifdec.c ****                 ret = 0;
 2309              		.loc 1 415 16 view .LVU678
 2310 00d4 B3F5805F 		cmp	r3, #4096
 2311 00d8 5AD1     		bne	.L128
 416:lvgl/src/extra/libs/gif/gifdec.c ****                 table_is_full = 1;
 2312              		.loc 1 416 21 view .LVU679
 2313 00da 039B     		ldr	r3, [sp, #12]
 2314 00dc 0593     		str	r3, [sp, #20]
 417:lvgl/src/extra/libs/gif/gifdec.c ****             }
 2315              		.loc 1 417 31 view .LVU680
 2316 00de 0123     		movs	r3, #1
 2317 00e0 0393     		str	r3, [sp, #12]
 2318              	.LVL233:
 417:lvgl/src/extra/libs/gif/gifdec.c ****             }
 2319              		.loc 1 417 31 view .LVU681
 2320 00e2 55E0     		b	.L128
 2321              	.LVL234:
 2322              	.L142:
 412:lvgl/src/extra/libs/gif/gifdec.c ****                 return -1;
 2323              		.loc 1 412 17 is_stmt 1 view .LVU682
 2324 00e4 0C98     		ldr	r0, [sp, #48]
 2325              	.LVL235:
 412:lvgl/src/extra/libs/gif/gifdec.c ****                 return -1;
 2326              		.loc 1 412 17 is_stmt 0 view .LVU683
 2327 00e6 FFF7FEFF 		bl	lv_mem_free
 2328              	.LVL236:
 413:lvgl/src/extra/libs/gif/gifdec.c ****             }
 2329              		.loc 1 413 17 is_stmt 1 view .LVU684
 413:lvgl/src/extra/libs/gif/gifdec.c ****             }
 2330              		.loc 1 413 24 is_stmt 0 view .LVU685
 2331 00ea 85E0     		b	.L125
 2332              	.LVL237:
 2333              	.L145:
 423:lvgl/src/extra/libs/gif/gifdec.c ****         entry = table->entries[key];
 2334              		.loc 1 423 23 is_stmt 1 discriminator 1 view .LVU686
 423:lvgl/src/extra/libs/gif/gifdec.c ****         entry = table->entries[key];
 2335              		.loc 1 423 31 is_stmt 0 discriminator 1 view .LVU687
ARM GAS  C:\usertemp\ccoJaLKY.s 			page 73


 2336 00ec 029B     		ldr	r3, [sp, #8]
 2337 00ee 0133     		adds	r3, r3, #1
 2338 00f0 0293     		str	r3, [sp, #8]
 2339              	.LVL238:
 423:lvgl/src/extra/libs/gif/gifdec.c ****         entry = table->entries[key];
 2340              		.loc 1 423 31 discriminator 1 view .LVU688
 2341 00f2 64E0     		b	.L133
 2342              	.LVL239:
 2343              	.L135:
 432:lvgl/src/extra/libs/gif/gifdec.c ****             if (entry.prefix == 0xFFF)
 2344              		.loc 1 432 13 is_stmt 1 view .LVU689
 432:lvgl/src/extra/libs/gif/gifdec.c ****             if (entry.prefix == 0xFFF)
 2345              		.loc 1 432 16 is_stmt 0 view .LVU690
 2346 00f4 D5F85826 		ldr	r2, [r5, #1624]
 432:lvgl/src/extra/libs/gif/gifdec.c ****             if (entry.prefix == 0xFFF)
 2347              		.loc 1 432 28 view .LVU691
 2348 00f8 B5F84A36 		ldrh	r3, [r5, #1610]
 432:lvgl/src/extra/libs/gif/gifdec.c ****             if (entry.prefix == 0xFFF)
 2349              		.loc 1 432 33 view .LVU692
 2350 00fc 1844     		add	r0, r0, r3
 2351              	.LVL240:
 432:lvgl/src/extra/libs/gif/gifdec.c ****             if (entry.prefix == 0xFFF)
 2352              		.loc 1 432 43 view .LVU693
 2353 00fe A98B     		ldrh	r1, [r5, #28]
 432:lvgl/src/extra/libs/gif/gifdec.c ****             if (entry.prefix == 0xFFF)
 2354              		.loc 1 432 56 view .LVU694
 2355 0100 B5F84836 		ldrh	r3, [r5, #1608]
 432:lvgl/src/extra/libs/gif/gifdec.c ****             if (entry.prefix == 0xFFF)
 2356              		.loc 1 432 51 view .LVU695
 2357 0104 01FB0033 		mla	r3, r1, r0, r3
 432:lvgl/src/extra/libs/gif/gifdec.c ****             if (entry.prefix == 0xFFF)
 2358              		.loc 1 432 61 view .LVU696
 2359 0108 3344     		add	r3, r3, r6
 432:lvgl/src/extra/libs/gif/gifdec.c ****             if (entry.prefix == 0xFFF)
 2360              		.loc 1 432 73 view .LVU697
 2361 010a 9DF82C10 		ldrb	r1, [sp, #44]	@ zero_extendqisi2
 432:lvgl/src/extra/libs/gif/gifdec.c ****             if (entry.prefix == 0xFFF)
 2362              		.loc 1 432 66 view .LVU698
 2363 010e D154     		strb	r1, [r2, r3]
 433:lvgl/src/extra/libs/gif/gifdec.c ****                 break;
 2364              		.loc 1 433 13 is_stmt 1 view .LVU699
 433:lvgl/src/extra/libs/gif/gifdec.c ****                 break;
 2365              		.loc 1 433 22 is_stmt 0 view .LVU700
 2366 0110 BDF82A30 		ldrh	r3, [sp, #42]
 433:lvgl/src/extra/libs/gif/gifdec.c ****                 break;
 2367              		.loc 1 433 16 view .LVU701
 2368 0114 40F6FF72 		movw	r2, #4095
 2369 0118 9342     		cmp	r3, r2
 2370 011a 20D0     		beq	.L136
 436:lvgl/src/extra/libs/gif/gifdec.c ****         }
 2371              		.loc 1 436 17 is_stmt 1 view .LVU702
 436:lvgl/src/extra/libs/gif/gifdec.c ****         }
 2372              		.loc 1 436 30 is_stmt 0 view .LVU703
 2373 011c 0C9A     		ldr	r2, [sp, #48]
 2374 011e 9268     		ldr	r2, [r2, #8]
 436:lvgl/src/extra/libs/gif/gifdec.c ****         }
 2375              		.loc 1 436 39 view .LVU704
ARM GAS  C:\usertemp\ccoJaLKY.s 			page 74


 2376 0120 03EB4303 		add	r3, r3, r3, lsl #1
 2377 0124 02EB4301 		add	r1, r2, r3, lsl #1
 436:lvgl/src/extra/libs/gif/gifdec.c ****         }
 2378              		.loc 1 436 23 view .LVU705
 2379 0128 52F81300 		ldr	r0, [r2, r3, lsl #1]	@ unaligned
 2380 012c 0A90     		str	r0, [sp, #40]
 2381              	.LVL241:
 436:lvgl/src/extra/libs/gif/gifdec.c ****         }
 2382              		.loc 1 436 23 view .LVU706
 2383 012e 8B88     		ldrh	r3, [r1, #4]	@ unaligned
 2384 0130 ADF82C30 		strh	r3, [sp, #44]	@ unaligned
 426:lvgl/src/extra/libs/gif/gifdec.c ****             p = frm_off + entry.length - 1;
 2385              		.loc 1 426 35 is_stmt 1 discriminator 2 view .LVU707
 2386 0134 0134     		adds	r4, r4, #1
 2387              	.LVL242:
 2388              	.L134:
 426:lvgl/src/extra/libs/gif/gifdec.c ****             p = frm_off + entry.length - 1;
 2389              		.loc 1 426 23 discriminator 1 view .LVU708
 2390 0136 4C45     		cmp	r4, r9
 2391 0138 11DA     		bge	.L136
 427:lvgl/src/extra/libs/gif/gifdec.c ****             x = p % gif->fw;
 2392              		.loc 1 427 13 view .LVU709
 427:lvgl/src/extra/libs/gif/gifdec.c ****             x = p % gif->fw;
 2393              		.loc 1 427 32 is_stmt 0 view .LVU710
 2394 013a BDF82860 		ldrh	r6, [sp, #40]
 427:lvgl/src/extra/libs/gif/gifdec.c ****             x = p % gif->fw;
 2395              		.loc 1 427 25 view .LVU711
 2396 013e 4644     		add	r6, r6, r8
 427:lvgl/src/extra/libs/gif/gifdec.c ****             x = p % gif->fw;
 2397              		.loc 1 427 15 view .LVU712
 2398 0140 013E     		subs	r6, r6, #1
 2399              	.LVL243:
 428:lvgl/src/extra/libs/gif/gifdec.c ****             y = p / gif->fw;
 2400              		.loc 1 428 13 is_stmt 1 view .LVU713
 428:lvgl/src/extra/libs/gif/gifdec.c ****             y = p / gif->fw;
 2401              		.loc 1 428 24 is_stmt 0 view .LVU714
 2402 0142 B5F84C36 		ldrh	r3, [r5, #1612]
 428:lvgl/src/extra/libs/gif/gifdec.c ****             y = p / gif->fw;
 2403              		.loc 1 428 15 view .LVU715
 2404 0146 96FBF3F1 		sdiv	r1, r6, r3
 2405 014a 03FB1166 		mls	r6, r3, r1, r6
 2406              	.LVL244:
 429:lvgl/src/extra/libs/gif/gifdec.c ****             if (interlace)
 2407              		.loc 1 429 13 is_stmt 1 view .LVU716
 429:lvgl/src/extra/libs/gif/gifdec.c ****             if (interlace)
 2408              		.loc 1 429 15 is_stmt 0 view .LVU717
 2409 014e 0846     		mov	r0, r1
 2410              	.LVL245:
 430:lvgl/src/extra/libs/gif/gifdec.c ****                 y = interlaced_line_index((int) gif->fh, y);
 2411              		.loc 1 430 13 is_stmt 1 view .LVU718
 430:lvgl/src/extra/libs/gif/gifdec.c ****                 y = interlaced_line_index((int) gif->fh, y);
 2412              		.loc 1 430 16 is_stmt 0 view .LVU719
 2413 0150 002F     		cmp	r7, #0
 2414 0152 CFD0     		beq	.L135
 431:lvgl/src/extra/libs/gif/gifdec.c ****             gif->frame[(gif->fy + y) * gif->width + gif->fx + x] = entry.suffix;
 2415              		.loc 1 431 17 is_stmt 1 view .LVU720
 431:lvgl/src/extra/libs/gif/gifdec.c ****             gif->frame[(gif->fy + y) * gif->width + gif->fx + x] = entry.suffix;
ARM GAS  C:\usertemp\ccoJaLKY.s 			page 75


 2416              		.loc 1 431 21 is_stmt 0 view .LVU721
 2417 0154 B5F84E06 		ldrh	r0, [r5, #1614]
 2418              	.LVL246:
 431:lvgl/src/extra/libs/gif/gifdec.c ****             gif->frame[(gif->fy + y) * gif->width + gif->fx + x] = entry.suffix;
 2419              		.loc 1 431 21 view .LVU722
 2420 0158 FFF7FEFF 		bl	interlaced_line_index
 2421              	.LVL247:
 431:lvgl/src/extra/libs/gif/gifdec.c ****             gif->frame[(gif->fy + y) * gif->width + gif->fx + x] = entry.suffix;
 2422              		.loc 1 431 21 view .LVU723
 2423 015c CAE7     		b	.L135
 2424              	.LVL248:
 2425              	.L136:
 438:lvgl/src/extra/libs/gif/gifdec.c ****         if (key < table->nentries - 1 && !table_is_full)
 2426              		.loc 1 438 9 is_stmt 1 view .LVU724
 438:lvgl/src/extra/libs/gif/gifdec.c ****         if (key < table->nentries - 1 && !table_is_full)
 2427              		.loc 1 438 17 is_stmt 0 view .LVU725
 2428 015e C844     		add	r8, r8, r9
 2429              	.LVL249:
 439:lvgl/src/extra/libs/gif/gifdec.c ****             table->entries[table->nentries - 1].suffix = entry.suffix;
 2430              		.loc 1 439 9 is_stmt 1 view .LVU726
 439:lvgl/src/extra/libs/gif/gifdec.c ****             table->entries[table->nentries - 1].suffix = entry.suffix;
 2431              		.loc 1 439 24 is_stmt 0 view .LVU727
 2432 0160 0C99     		ldr	r1, [sp, #48]
 2433 0162 4B68     		ldr	r3, [r1, #4]
 439:lvgl/src/extra/libs/gif/gifdec.c ****             table->entries[table->nentries - 1].suffix = entry.suffix;
 2434              		.loc 1 439 35 view .LVU728
 2435 0164 581E     		subs	r0, r3, #1
 439:lvgl/src/extra/libs/gif/gifdec.c ****             table->entries[table->nentries - 1].suffix = entry.suffix;
 2436              		.loc 1 439 12 view .LVU729
 2437 0166 8245     		cmp	r10, r0
 2438 0168 0ADA     		bge	.L126
 439:lvgl/src/extra/libs/gif/gifdec.c ****             table->entries[table->nentries - 1].suffix = entry.suffix;
 2439              		.loc 1 439 39 discriminator 1 view .LVU730
 2440 016a 039A     		ldr	r2, [sp, #12]
 2441 016c 42B9     		cbnz	r2, .L126
 440:lvgl/src/extra/libs/gif/gifdec.c ****     }
 2442              		.loc 1 440 13 is_stmt 1 view .LVU731
 440:lvgl/src/extra/libs/gif/gifdec.c ****     }
 2443              		.loc 1 440 18 is_stmt 0 view .LVU732
 2444 016e 8968     		ldr	r1, [r1, #8]
 440:lvgl/src/extra/libs/gif/gifdec.c ****     }
 2445              		.loc 1 440 27 view .LVU733
 2446 0170 03EB4303 		add	r3, r3, r3, lsl #1
 2447 0174 5B00     		lsls	r3, r3, #1
 2448 0176 063B     		subs	r3, r3, #6
 2449 0178 0B44     		add	r3, r3, r1
 440:lvgl/src/extra/libs/gif/gifdec.c ****     }
 2450              		.loc 1 440 63 view .LVU734
 2451 017a 9DF82C10 		ldrb	r1, [sp, #44]	@ zero_extendqisi2
 440:lvgl/src/extra/libs/gif/gifdec.c ****     }
 2452              		.loc 1 440 56 view .LVU735
 2453 017e 1971     		strb	r1, [r3, #4]
 2454              	.LVL250:
 2455              	.L126:
 404:lvgl/src/extra/libs/gif/gifdec.c ****         if (key == clear) {
 2456              		.loc 1 404 20 is_stmt 1 view .LVU736
 2457 0180 049B     		ldr	r3, [sp, #16]
ARM GAS  C:\usertemp\ccoJaLKY.s 			page 76


 2458 0182 9845     		cmp	r8, r3
 2459 0184 2BDA     		bge	.L132
 405:lvgl/src/extra/libs/gif/gifdec.c ****             key_size = init_key_size;
 2460              		.loc 1 405 9 view .LVU737
 405:lvgl/src/extra/libs/gif/gifdec.c ****             key_size = init_key_size;
 2461              		.loc 1 405 12 is_stmt 0 view .LVU738
 2462 0186 DA45     		cmp	r10, fp
 2463 0188 8CD0     		beq	.L143
