ARM GAS  C:\usertemp\ccFN5a0o.s 			page 1


   1              		.cpu cortex-m7
   2              		.arch armv7e-m
   3              		.fpu fpv5-d16
   4              		.eabi_attribute 28, 1
   5              		.eabi_attribute 20, 1
   6              		.eabi_attribute 21, 1
   7              		.eabi_attribute 23, 3
   8              		.eabi_attribute 24, 1
   9              		.eabi_attribute 25, 1
  10              		.eabi_attribute 26, 1
  11              		.eabi_attribute 30, 1
  12              		.eabi_attribute 34, 1
  13              		.eabi_attribute 18, 4
  14              		.file	"httpd_cgi_ssi.c"
  15              		.text
  16              	.Ltext0:
  17              		.cfi_sections	.debug_frame
  18              		.file 1 "Core/Src/httpd_cgi_ssi.c"
  19              		.section	.rodata.ADC_Handler.str1.4,"aMS",%progbits,1
  20              		.align	2
  21              	.LC0:
  22 0000 25322E33 		.ascii	"%2.3f\000"
  22      6600
  23              		.section	.text.ADC_Handler,"ax",%progbits
  24              		.align	1
  25              		.global	ADC_Handler
  26              		.syntax unified
  27              		.thumb
  28              		.thumb_func
  30              	ADC_Handler:
  31              	.LVL0:
  32              	.LFB359:
   1:Core/Src/httpd_cgi_ssi.c **** /**
   2:Core/Src/httpd_cgi_ssi.c ****   ******************************************************************************
   3:Core/Src/httpd_cgi_ssi.c ****   * @file    httpd_cg_ssi.c
   4:Core/Src/httpd_cgi_ssi.c ****   * @author  MCD Application Team
   5:Core/Src/httpd_cgi_ssi.c ****   * @version V1.1.0
   6:Core/Src/httpd_cgi_ssi.c ****   * @date    31-July-2013
   7:Core/Src/httpd_cgi_ssi.c ****   * @brief   Webserver SSI and CGI handlers
   8:Core/Src/httpd_cgi_ssi.c ****   ******************************************************************************
   9:Core/Src/httpd_cgi_ssi.c ****   * @attention
  10:Core/Src/httpd_cgi_ssi.c ****   *
  11:Core/Src/httpd_cgi_ssi.c ****   * <h2><center>&copy; COPYRIGHT 2013 STMicroelectronics</center></h2>
  12:Core/Src/httpd_cgi_ssi.c ****   *
  13:Core/Src/httpd_cgi_ssi.c ****   * Licensed under MCD-ST Liberty SW License Agreement V2, (the "License");
  14:Core/Src/httpd_cgi_ssi.c ****   * You may not use this file except in compliance with the License.
  15:Core/Src/httpd_cgi_ssi.c ****   * You may obtain a copy of the License at:
  16:Core/Src/httpd_cgi_ssi.c ****   *
  17:Core/Src/httpd_cgi_ssi.c ****   *        http://www.st.com/software_license_agreement_liberty_v2
  18:Core/Src/httpd_cgi_ssi.c ****   *
  19:Core/Src/httpd_cgi_ssi.c ****   * Unless required by applicable law or agreed to in writing, software 
  20:Core/Src/httpd_cgi_ssi.c ****   * distributed under the License is distributed on an "AS IS" BASIS, 
  21:Core/Src/httpd_cgi_ssi.c ****   * WITHOUT WARRANTIES OR CONDITIONS OF ANY KIND, either express or implied.
  22:Core/Src/httpd_cgi_ssi.c ****   * See the License for the specific language governing permissions and
  23:Core/Src/httpd_cgi_ssi.c ****   * limitations under the License.
  24:Core/Src/httpd_cgi_ssi.c ****   *
  25:Core/Src/httpd_cgi_ssi.c ****   ******************************************************************************
ARM GAS  C:\usertemp\ccFN5a0o.s 			page 2


  26:Core/Src/httpd_cgi_ssi.c ****   */
  27:Core/Src/httpd_cgi_ssi.c **** 
  28:Core/Src/httpd_cgi_ssi.c **** /* Includes ------------------------------------------------------------------*/
  29:Core/Src/httpd_cgi_ssi.c **** 
  30:Core/Src/httpd_cgi_ssi.c **** 
  31:Core/Src/httpd_cgi_ssi.c **** #include "lwip/debug.h"
  32:Core/Src/httpd_cgi_ssi.c **** #include "httpd.h"
  33:Core/Src/httpd_cgi_ssi.c **** #include "lwip/tcp.h"
  34:Core/Src/httpd_cgi_ssi.c **** #include "fs.h"
  35:Core/Src/httpd_cgi_ssi.c **** #include "main.h"
  36:Core/Src/httpd_cgi_ssi.c **** #include "ad7606.h"
  37:Core/Src/httpd_cgi_ssi.c **** 
  38:Core/Src/httpd_cgi_ssi.c **** #include <string.h>
  39:Core/Src/httpd_cgi_ssi.c **** #include <stdlib.h>
  40:Core/Src/httpd_cgi_ssi.c **** 
  41:Core/Src/httpd_cgi_ssi.c **** tSSIHandler ADC_Page_SSI_Handler;
  42:Core/Src/httpd_cgi_ssi.c **** uint32_t ADC_not_configured=1;
  43:Core/Src/httpd_cgi_ssi.c **** 
  44:Core/Src/httpd_cgi_ssi.c **** extern short testAdc[testCHs];
  45:Core/Src/httpd_cgi_ssi.c **** /* we will use character "t" as tag for CGI */
  46:Core/Src/httpd_cgi_ssi.c **** char const* TAGCHAR[]=
  47:Core/Src/httpd_cgi_ssi.c **** {
  48:Core/Src/httpd_cgi_ssi.c **** 	"A0",
  49:Core/Src/httpd_cgi_ssi.c **** 	"A1",
  50:Core/Src/httpd_cgi_ssi.c **** 	"A2",
  51:Core/Src/httpd_cgi_ssi.c **** 	"A3",
  52:Core/Src/httpd_cgi_ssi.c **** 	"A4",
  53:Core/Src/httpd_cgi_ssi.c **** 	"A5",
  54:Core/Src/httpd_cgi_ssi.c **** 	"A6",
  55:Core/Src/httpd_cgi_ssi.c **** 	"A7",
  56:Core/Src/httpd_cgi_ssi.c **** };
  57:Core/Src/httpd_cgi_ssi.c **** //char const** TAGS[]=&TAGCHAR;
  58:Core/Src/httpd_cgi_ssi.c **** 
  59:Core/Src/httpd_cgi_ssi.c **** 
  60:Core/Src/httpd_cgi_ssi.c **** 
  61:Core/Src/httpd_cgi_ssi.c **** 
  62:Core/Src/httpd_cgi_ssi.c **** /* CGI handler for LED control */ 
  63:Core/Src/httpd_cgi_ssi.c **** const char * LEDS_CGI_Handler(int iIndex, int iNumParams, char *pcParam[], char *pcValue[]);
  64:Core/Src/httpd_cgi_ssi.c **** 
  65:Core/Src/httpd_cgi_ssi.c **** /* Html request for "/leds.cgi" will start LEDS_CGI_Handler */
  66:Core/Src/httpd_cgi_ssi.c **** const tCGI LEDS_CGI={"/leds.cgi", LEDS_CGI_Handler};
  67:Core/Src/httpd_cgi_ssi.c **** 
  68:Core/Src/httpd_cgi_ssi.c **** /* Cgi call table, only one CGI used */
  69:Core/Src/httpd_cgi_ssi.c **** tCGI CGI_TAB[1];
  70:Core/Src/httpd_cgi_ssi.c **** 
  71:Core/Src/httpd_cgi_ssi.c **** 
  72:Core/Src/httpd_cgi_ssi.c **** /**
  73:Core/Src/httpd_cgi_ssi.c ****   * @brief  ADC_Handler : SSI handler for ADC page 
  74:Core/Src/httpd_cgi_ssi.c ****   * @param int iIndex - tag index in the tag array char const* TAGCHAR[].
  75:Core/Src/httpd_cgi_ssi.c ****   * @param char *pcInsert information need to be returned from SSI service.
  76:Core/Src/httpd_cgi_ssi.c ****   * @param iInsertLen - length of the charactars inserted following the TAGs? ... not clearly enoug
  77:Core/Src/httpd_cgi_ssi.c ****   * @return  the length of pcInserts transfered to front end.
  78:Core/Src/httpd_cgi_ssi.c ****   */
  79:Core/Src/httpd_cgi_ssi.c **** u16_t ADC_Handler(int iIndex, char *pcInsert, int iInsertLen)
  80:Core/Src/httpd_cgi_ssi.c **** {
  33              		.loc 1 80 1 view -0
  34              		.cfi_startproc
ARM GAS  C:\usertemp\ccFN5a0o.s 			page 3


  35              		@ args = 0, pretend = 0, frame = 16
  36              		@ frame_needed = 0, uses_anonymous_args = 0
  37              		.loc 1 80 1 is_stmt 0 view .LVU1
  38 0000 10B5     		push	{r4, lr}
  39              	.LCFI0:
  40              		.cfi_def_cfa_offset 8
  41              		.cfi_offset 4, -8
  42              		.cfi_offset 14, -4
  43 0002 84B0     		sub	sp, sp, #16
  44              	.LCFI1:
  45              		.cfi_def_cfa_offset 24
  81:Core/Src/httpd_cgi_ssi.c ****   /* We have only one SSI handler iIndex = 0 */
  82:Core/Src/httpd_cgi_ssi.c ****     
  83:Core/Src/httpd_cgi_ssi.c ****     char Digit[10]={0}; 
  46              		.loc 1 83 5 is_stmt 1 view .LVU2
  47              		.loc 1 83 10 is_stmt 0 view .LVU3
  48 0004 0023     		movs	r3, #0
  49 0006 0193     		str	r3, [sp, #4]
  50 0008 0293     		str	r3, [sp, #8]
  51 000a ADF80C30 		strh	r3, [sp, #12]	@ movhi
  84:Core/Src/httpd_cgi_ssi.c ****     short ADCVal = 0;      
  52              		.loc 1 84 5 is_stmt 1 view .LVU4
  53              	.LVL1:
  85:Core/Src/httpd_cgi_ssi.c **** 		int i=0;
  54              		.loc 1 85 3 view .LVU5
  86:Core/Src/httpd_cgi_ssi.c **** 		if (iIndex <8)
  55              		.loc 1 86 3 view .LVU6
  56              		.loc 1 86 6 is_stmt 0 view .LVU7
  57 000e 0728     		cmp	r0, #7
  58 0010 02DD     		ble	.L7
  87:Core/Src/httpd_cgi_ssi.c **** 		{
  88:Core/Src/httpd_cgi_ssi.c **** 		/* copy buf value in AD7616 result bufs*/
  89:Core/Src/httpd_cgi_ssi.c ****      ADCVal = testAdc[iIndex]; 
  90:Core/Src/httpd_cgi_ssi.c **** 		
  91:Core/Src/httpd_cgi_ssi.c **** 		/* get digits to display */ 
  92:Core/Src/httpd_cgi_ssi.c ****      sprintf(Digit,"%2.3f",ADCVal/32768.0*10);
  93:Core/Src/httpd_cgi_ssi.c ****      
  94:Core/Src/httpd_cgi_ssi.c ****      while(Digit[i]!=0)
  95:Core/Src/httpd_cgi_ssi.c **** 		 {
  96:Core/Src/httpd_cgi_ssi.c **** 			 *(pcInsert+i)=Digit[i];
  97:Core/Src/httpd_cgi_ssi.c **** 			 i++;
  98:Core/Src/httpd_cgi_ssi.c **** 		 }
  99:Core/Src/httpd_cgi_ssi.c ****     /* prepare data to be inserted in html */
 100:Core/Src/httpd_cgi_ssi.c **** 
 101:Core/Src/httpd_cgi_ssi.c **** 		/* strlen(pcInsert) characters need to be inserted in html*/
 102:Core/Src/httpd_cgi_ssi.c **** 		iInsertLen=strlen(pcInsert);
 103:Core/Src/httpd_cgi_ssi.c **** 		return iInsertLen;
 104:Core/Src/httpd_cgi_ssi.c **** 		}
 105:Core/Src/httpd_cgi_ssi.c ****   return 0;
  59              		.loc 1 105 10 view .LVU8
  60 0012 0020     		movs	r0, #0
  61              	.LVL2:
  62              	.L2:
 106:Core/Src/httpd_cgi_ssi.c **** }
  63              		.loc 1 106 1 view .LVU9
  64 0014 04B0     		add	sp, sp, #16
  65              	.LCFI2:
ARM GAS  C:\usertemp\ccFN5a0o.s 			page 4


  66              		.cfi_remember_state
  67              		.cfi_def_cfa_offset 8
  68              		@ sp needed
  69 0016 10BD     		pop	{r4, pc}
  70              	.LVL3:
  71              	.L7:
  72              	.LCFI3:
  73              		.cfi_restore_state
  74              		.loc 1 106 1 view .LVU10
  75 0018 0C46     		mov	r4, r1
  89:Core/Src/httpd_cgi_ssi.c **** 		
  76              		.loc 1 89 6 is_stmt 1 view .LVU11
  89:Core/Src/httpd_cgi_ssi.c **** 		
  77              		.loc 1 89 13 is_stmt 0 view .LVU12
  78 001a 154B     		ldr	r3, .L8+8
  79 001c 33F91030 		ldrsh	r3, [r3, r0, lsl #1]
  80 0020 07EE103A 		vmov	s14, r3	@ int
  81              	.LVL4:
  92:Core/Src/httpd_cgi_ssi.c ****      
  82              		.loc 1 92 6 is_stmt 1 view .LVU13
  92:Core/Src/httpd_cgi_ssi.c ****      
  83              		.loc 1 92 34 is_stmt 0 view .LVU14
  84 0024 B8EEC77B 		vcvt.f64.s32	d7, s14
  85 0028 9FED0F6B 		vldr.64	d6, .L8
  86 002c 27EE067B 		vmul.f64	d7, d7, d6
  92:Core/Src/httpd_cgi_ssi.c ****      
  87              		.loc 1 92 6 view .LVU15
  88 0030 B2EE046B 		vmov.f64	d6, #1.0e+1
  89 0034 27EE067B 		vmul.f64	d7, d7, d6
  90 0038 53EC172B 		vmov	r2, r3, d7
  91              	.LVL5:
  92:Core/Src/httpd_cgi_ssi.c ****      
  92              		.loc 1 92 6 view .LVU16
  93 003c 0D49     		ldr	r1, .L8+12
  94              	.LVL6:
  92:Core/Src/httpd_cgi_ssi.c ****      
  95              		.loc 1 92 6 view .LVU17
  96 003e 01A8     		add	r0, sp, #4
  97              	.LVL7:
  92:Core/Src/httpd_cgi_ssi.c ****      
  98              		.loc 1 92 6 view .LVU18
  99 0040 FFF7FEFF 		bl	sprintf
 100              	.LVL8:
  94:Core/Src/httpd_cgi_ssi.c **** 		 {
 101              		.loc 1 94 6 is_stmt 1 view .LVU19
  85:Core/Src/httpd_cgi_ssi.c **** 		if (iIndex <8)
 102              		.loc 1 85 7 is_stmt 0 view .LVU20
 103 0044 0023     		movs	r3, #0
  94:Core/Src/httpd_cgi_ssi.c **** 		 {
 104              		.loc 1 94 11 view .LVU21
 105 0046 01E0     		b	.L3
 106              	.LVL9:
 107              	.L4:
  96:Core/Src/httpd_cgi_ssi.c **** 			 i++;
 108              		.loc 1 96 5 is_stmt 1 view .LVU22
  96:Core/Src/httpd_cgi_ssi.c **** 			 i++;
 109              		.loc 1 96 18 is_stmt 0 view .LVU23
ARM GAS  C:\usertemp\ccFN5a0o.s 			page 5


 110 0048 E254     		strb	r2, [r4, r3]
  97:Core/Src/httpd_cgi_ssi.c **** 		 }
 111              		.loc 1 97 5 is_stmt 1 view .LVU24
  97:Core/Src/httpd_cgi_ssi.c **** 		 }
 112              		.loc 1 97 6 is_stmt 0 view .LVU25
 113 004a 0133     		adds	r3, r3, #1
 114              	.LVL10:
 115              	.L3:
  94:Core/Src/httpd_cgi_ssi.c **** 		 {
 116              		.loc 1 94 20 is_stmt 1 view .LVU26
  94:Core/Src/httpd_cgi_ssi.c **** 		 {
 117              		.loc 1 94 17 is_stmt 0 view .LVU27
 118 004c 03F11002 		add	r2, r3, #16
 119 0050 6A44     		add	r2, sp, r2
 120 0052 12F80C2C 		ldrb	r2, [r2, #-12]	@ zero_extendqisi2
  94:Core/Src/httpd_cgi_ssi.c **** 		 {
 121              		.loc 1 94 20 view .LVU28
 122 0056 002A     		cmp	r2, #0
 123 0058 F6D1     		bne	.L4
 102:Core/Src/httpd_cgi_ssi.c **** 		return iInsertLen;
 124              		.loc 1 102 3 is_stmt 1 view .LVU29
 102:Core/Src/httpd_cgi_ssi.c **** 		return iInsertLen;
 125              		.loc 1 102 14 is_stmt 0 view .LVU30
 126 005a 2046     		mov	r0, r4
 127 005c FFF7FEFF 		bl	strlen
 128              	.LVL11:
 103:Core/Src/httpd_cgi_ssi.c **** 		}
 129              		.loc 1 103 3 is_stmt 1 view .LVU31
 103:Core/Src/httpd_cgi_ssi.c **** 		}
 130              		.loc 1 103 10 is_stmt 0 view .LVU32
 131 0060 80B2     		uxth	r0, r0
 132              	.LVL12:
 103:Core/Src/httpd_cgi_ssi.c **** 		}
 133              		.loc 1 103 10 view .LVU33
 134 0062 D7E7     		b	.L2
 135              	.L9:
 136 0064 AFF30080 		.align	3
 137              	.L8:
 138 0068 00000000 		.word	0
 139 006c 0000003F 		.word	1056964608
 140 0070 00000000 		.word	testAdc
 141 0074 00000000 		.word	.LC0
 142              		.cfi_endproc
 143              	.LFE359:
 145              		.section	.rodata.LEDS_CGI_Handler.str1.4,"aMS",%progbits,1
 146              		.align	2
 147              	.LC1:
 148 0000 6C656400 		.ascii	"led\000"
 149              		.align	2
 150              	.LC2:
 151 0004 3100     		.ascii	"1\000"
 152 0006 0000     		.align	2
 153              	.LC3:
 154 0008 3200     		.ascii	"2\000"
 155 000a 0000     		.align	2
 156              	.LC4:
 157 000c 3300     		.ascii	"3\000"
ARM GAS  C:\usertemp\ccFN5a0o.s 			page 6


 158 000e 0000     		.align	2
 159              	.LC5:
 160 0010 3400     		.ascii	"4\000"
 161 0012 0000     		.align	2
 162              	.LC6:
 163 0014 2F53544D 		.ascii	"/STM32F4x7LED.html\000"
 163      33324634 
 163      78374C45 
 163      442E6874 
 163      6D6C00
 164              		.section	.text.LEDS_CGI_Handler,"ax",%progbits
 165              		.align	1
 166              		.global	LEDS_CGI_Handler
 167              		.syntax unified
 168              		.thumb
 169              		.thumb_func
 171              	LEDS_CGI_Handler:
 172              	.LVL13:
 173              	.LFB360:
 107:Core/Src/httpd_cgi_ssi.c **** 
 108:Core/Src/httpd_cgi_ssi.c **** /**
 109:Core/Src/httpd_cgi_ssi.c ****   * @brief  CGI handler for LEDs control 
 110:Core/Src/httpd_cgi_ssi.c ****   */
 111:Core/Src/httpd_cgi_ssi.c **** const char * LEDS_CGI_Handler(int iIndex, int iNumParams, char *pcParam[], char *pcValue[])
 112:Core/Src/httpd_cgi_ssi.c **** {
 174              		.loc 1 112 1 is_stmt 1 view -0
 175              		.cfi_startproc
 176              		@ args = 0, pretend = 0, frame = 0
 177              		@ frame_needed = 0, uses_anonymous_args = 0
 113:Core/Src/httpd_cgi_ssi.c ****   uint32_t i=0;
 178              		.loc 1 113 3 view .LVU35
 114:Core/Src/httpd_cgi_ssi.c ****   
 115:Core/Src/httpd_cgi_ssi.c ****   /* We have only one SSI handler iIndex = 0 */
 116:Core/Src/httpd_cgi_ssi.c ****   if (iIndex==0)
 179              		.loc 1 116 3 view .LVU36
 180              		.loc 1 116 6 is_stmt 0 view .LVU37
 181 0000 0028     		cmp	r0, #0
 182 0002 3ED0     		beq	.L18
 117:Core/Src/httpd_cgi_ssi.c ****   {
 118:Core/Src/httpd_cgi_ssi.c ****     /* All leds off */
 119:Core/Src/httpd_cgi_ssi.c ****     // STM_EVAL_LEDOff(LED1);
 120:Core/Src/httpd_cgi_ssi.c ****     // STM_EVAL_LEDOff(LED2);
 121:Core/Src/httpd_cgi_ssi.c ****     // STM_EVAL_LEDOff(LED3);
 122:Core/Src/httpd_cgi_ssi.c ****     // STM_EVAL_LEDOff(LED4);
 123:Core/Src/httpd_cgi_ssi.c ****     
 124:Core/Src/httpd_cgi_ssi.c ****     /* Check cgi parameter : example GET /leds.cgi?led=2&led=4 */
 125:Core/Src/httpd_cgi_ssi.c ****     for (i=0; i<iNumParams; i++)
 126:Core/Src/httpd_cgi_ssi.c ****     {
 127:Core/Src/httpd_cgi_ssi.c ****       /* check parameter "led" */
 128:Core/Src/httpd_cgi_ssi.c ****       if (strcmp(pcParam[i] , "led")==0)   
 129:Core/Src/httpd_cgi_ssi.c ****       {
 130:Core/Src/httpd_cgi_ssi.c ****         /* switch led1 ON if 1 */
 131:Core/Src/httpd_cgi_ssi.c ****         if(strcmp(pcValue[i], "1") ==0) 
 132:Core/Src/httpd_cgi_ssi.c ****           HAL_GPIO_WritePin(PG14_GPIO_Port,PG14_Pin,GPIO_PIN_SET);
 133:Core/Src/httpd_cgi_ssi.c ****         /* switch led2 ON if 2 */
 134:Core/Src/httpd_cgi_ssi.c ****         else if(strcmp(pcValue[i], "2") ==0) 
 135:Core/Src/httpd_cgi_ssi.c ****           HAL_GPIO_WritePin(PG14_GPIO_Port,PG14_Pin,GPIO_PIN_SET);
ARM GAS  C:\usertemp\ccFN5a0o.s 			page 7


 136:Core/Src/httpd_cgi_ssi.c ****         
 137:Core/Src/httpd_cgi_ssi.c ****         /* switch led3 ON if 3 */
 138:Core/Src/httpd_cgi_ssi.c ****         else if(strcmp(pcValue[i], "3") ==0) 
 139:Core/Src/httpd_cgi_ssi.c ****           HAL_GPIO_WritePin(PG14_GPIO_Port,PG14_Pin,GPIO_PIN_SET);
 140:Core/Src/httpd_cgi_ssi.c ****         
 141:Core/Src/httpd_cgi_ssi.c ****         /* switch led4 ON if 4 */
 142:Core/Src/httpd_cgi_ssi.c ****         else if(strcmp(pcValue[i], "4") ==0) 
 143:Core/Src/httpd_cgi_ssi.c ****           HAL_GPIO_WritePin(PG14_GPIO_Port,PG14_Pin,GPIO_PIN_SET);
 144:Core/Src/httpd_cgi_ssi.c ****       }
 145:Core/Src/httpd_cgi_ssi.c ****     }
 146:Core/Src/httpd_cgi_ssi.c ****   }
 147:Core/Src/httpd_cgi_ssi.c ****   /* uri to send after cgi call*/
 148:Core/Src/httpd_cgi_ssi.c ****   return "/STM32F4x7LED.html";  
 183              		.loc 1 148 3 is_stmt 1 view .LVU38
 149:Core/Src/httpd_cgi_ssi.c **** }
 184              		.loc 1 149 1 is_stmt 0 view .LVU39
 185 0004 2448     		ldr	r0, .L26
 186              	.LVL14:
 187              		.loc 1 149 1 view .LVU40
 188 0006 7047     		bx	lr
 189              	.LVL15:
 190              	.L23:
 191              	.LCFI4:
 192              		.cfi_def_cfa_offset 24
 193              		.cfi_offset 4, -24
 194              		.cfi_offset 5, -20
 195              		.cfi_offset 6, -16
 196              		.cfi_offset 7, -12
 197              		.cfi_offset 8, -8
 198              		.cfi_offset 14, -4
 132:Core/Src/httpd_cgi_ssi.c ****         /* switch led2 ON if 2 */
 199              		.loc 1 132 11 is_stmt 1 view .LVU41
 200 0008 0122     		movs	r2, #1
 201 000a 4FF48041 		mov	r1, #16384
 202 000e 2348     		ldr	r0, .L26+4
 203 0010 FFF7FEFF 		bl	HAL_GPIO_WritePin
 204              	.LVL16:
 205              	.L13:
 125:Core/Src/httpd_cgi_ssi.c ****     {
 206              		.loc 1 125 30 discriminator 2 view .LVU42
 207 0014 0134     		adds	r4, r4, #1
 208              	.LVL17:
 209              	.L11:
 125:Core/Src/httpd_cgi_ssi.c ****     {
 210              		.loc 1 125 16 discriminator 1 view .LVU43
 211 0016 A542     		cmp	r5, r4
 212 0018 3AD9     		bls	.L22
 128:Core/Src/httpd_cgi_ssi.c ****       {
 213              		.loc 1 128 7 view .LVU44
 128:Core/Src/httpd_cgi_ssi.c ****       {
 214              		.loc 1 128 11 is_stmt 0 view .LVU45
 215 001a 2149     		ldr	r1, .L26+8
 216 001c 56F82400 		ldr	r0, [r6, r4, lsl #2]
 217 0020 FFF7FEFF 		bl	strcmp
 218              	.LVL18:
 128:Core/Src/httpd_cgi_ssi.c ****       {
 219              		.loc 1 128 10 discriminator 1 view .LVU46
ARM GAS  C:\usertemp\ccFN5a0o.s 			page 8


 220 0024 0028     		cmp	r0, #0
 221 0026 F5D1     		bne	.L13
 131:Core/Src/httpd_cgi_ssi.c ****           HAL_GPIO_WritePin(PG14_GPIO_Port,PG14_Pin,GPIO_PIN_SET);
 222              		.loc 1 131 9 is_stmt 1 view .LVU47
 131:Core/Src/httpd_cgi_ssi.c ****           HAL_GPIO_WritePin(PG14_GPIO_Port,PG14_Pin,GPIO_PIN_SET);
 223              		.loc 1 131 12 is_stmt 0 view .LVU48
 224 0028 58F82470 		ldr	r7, [r8, r4, lsl #2]
 225 002c 1D49     		ldr	r1, .L26+12
 226 002e 3846     		mov	r0, r7
 227 0030 FFF7FEFF 		bl	strcmp
 228              	.LVL19:
 131:Core/Src/httpd_cgi_ssi.c ****           HAL_GPIO_WritePin(PG14_GPIO_Port,PG14_Pin,GPIO_PIN_SET);
 229              		.loc 1 131 11 discriminator 1 view .LVU49
 230 0034 0028     		cmp	r0, #0
 231 0036 E7D0     		beq	.L23
 134:Core/Src/httpd_cgi_ssi.c ****           HAL_GPIO_WritePin(PG14_GPIO_Port,PG14_Pin,GPIO_PIN_SET);
 232              		.loc 1 134 14 is_stmt 1 view .LVU50
 134:Core/Src/httpd_cgi_ssi.c ****           HAL_GPIO_WritePin(PG14_GPIO_Port,PG14_Pin,GPIO_PIN_SET);
 233              		.loc 1 134 17 is_stmt 0 view .LVU51
 234 0038 1B49     		ldr	r1, .L26+16
 235 003a 3846     		mov	r0, r7
 236 003c FFF7FEFF 		bl	strcmp
 237              	.LVL20:
 134:Core/Src/httpd_cgi_ssi.c ****           HAL_GPIO_WritePin(PG14_GPIO_Port,PG14_Pin,GPIO_PIN_SET);
 238              		.loc 1 134 16 discriminator 1 view .LVU52
 239 0040 88B1     		cbz	r0, .L24
 138:Core/Src/httpd_cgi_ssi.c ****           HAL_GPIO_WritePin(PG14_GPIO_Port,PG14_Pin,GPIO_PIN_SET);
 240              		.loc 1 138 14 is_stmt 1 view .LVU53
 138:Core/Src/httpd_cgi_ssi.c ****           HAL_GPIO_WritePin(PG14_GPIO_Port,PG14_Pin,GPIO_PIN_SET);
 241              		.loc 1 138 17 is_stmt 0 view .LVU54
 242 0042 1A49     		ldr	r1, .L26+20
 243 0044 3846     		mov	r0, r7
 244 0046 FFF7FEFF 		bl	strcmp
 245              	.LVL21:
 138:Core/Src/httpd_cgi_ssi.c ****           HAL_GPIO_WritePin(PG14_GPIO_Port,PG14_Pin,GPIO_PIN_SET);
 246              		.loc 1 138 16 discriminator 1 view .LVU55
 247 004a 98B1     		cbz	r0, .L25
 142:Core/Src/httpd_cgi_ssi.c ****           HAL_GPIO_WritePin(PG14_GPIO_Port,PG14_Pin,GPIO_PIN_SET);
 248              		.loc 1 142 14 is_stmt 1 view .LVU56
 142:Core/Src/httpd_cgi_ssi.c ****           HAL_GPIO_WritePin(PG14_GPIO_Port,PG14_Pin,GPIO_PIN_SET);
 249              		.loc 1 142 17 is_stmt 0 view .LVU57
 250 004c 1849     		ldr	r1, .L26+24
 251 004e 3846     		mov	r0, r7
 252 0050 FFF7FEFF 		bl	strcmp
 253              	.LVL22:
 142:Core/Src/httpd_cgi_ssi.c ****           HAL_GPIO_WritePin(PG14_GPIO_Port,PG14_Pin,GPIO_PIN_SET);
 254              		.loc 1 142 16 discriminator 1 view .LVU58
 255 0054 0028     		cmp	r0, #0
 256 0056 DDD1     		bne	.L13
 143:Core/Src/httpd_cgi_ssi.c ****       }
 257              		.loc 1 143 11 is_stmt 1 view .LVU59
 258 0058 0122     		movs	r2, #1
 259 005a 4FF48041 		mov	r1, #16384
 260 005e 0F48     		ldr	r0, .L26+4
 261 0060 FFF7FEFF 		bl	HAL_GPIO_WritePin
 262              	.LVL23:
 263 0064 D6E7     		b	.L13
ARM GAS  C:\usertemp\ccFN5a0o.s 			page 9


 264              	.L24:
 135:Core/Src/httpd_cgi_ssi.c ****         
 265              		.loc 1 135 11 view .LVU60
 266 0066 0122     		movs	r2, #1
 267 0068 4FF48041 		mov	r1, #16384
 268 006c 0B48     		ldr	r0, .L26+4
 269 006e FFF7FEFF 		bl	HAL_GPIO_WritePin
 270              	.LVL24:
 271 0072 CFE7     		b	.L13
 272              	.L25:
 139:Core/Src/httpd_cgi_ssi.c ****         
 273              		.loc 1 139 11 view .LVU61
 274 0074 0122     		movs	r2, #1
 275 0076 4FF48041 		mov	r1, #16384
 276 007a 0848     		ldr	r0, .L26+4
 277 007c FFF7FEFF 		bl	HAL_GPIO_WritePin
 278              	.LVL25:
 279 0080 C8E7     		b	.L13
 280              	.LVL26:
 281              	.L18:
 282              	.LCFI5:
 283              		.cfi_def_cfa_offset 0
 284              		.cfi_restore 4
 285              		.cfi_restore 5
 286              		.cfi_restore 6
 287              		.cfi_restore 7
 288              		.cfi_restore 8
 289              		.cfi_restore 14
 112:Core/Src/httpd_cgi_ssi.c ****   uint32_t i=0;
 290              		.loc 1 112 1 is_stmt 0 view .LVU62
 291 0082 2DE9F041 		push	{r4, r5, r6, r7, r8, lr}
 292              	.LCFI6:
 293              		.cfi_def_cfa_offset 24
 294              		.cfi_offset 4, -24
 295              		.cfi_offset 5, -20
 296              		.cfi_offset 6, -16
 297              		.cfi_offset 7, -12
 298              		.cfi_offset 8, -8
 299              		.cfi_offset 14, -4
 300 0086 0D46     		mov	r5, r1
 301 0088 1646     		mov	r6, r2
 302 008a 9846     		mov	r8, r3
 125:Core/Src/httpd_cgi_ssi.c ****     {
 303              		.loc 1 125 11 view .LVU63
 304 008c 0024     		movs	r4, #0
 305 008e C2E7     		b	.L11
 306              	.LVL27:
 307              	.L22:
 148:Core/Src/httpd_cgi_ssi.c **** }
 308              		.loc 1 148 3 is_stmt 1 view .LVU64
 309              		.loc 1 149 1 is_stmt 0 view .LVU65
 310 0090 0148     		ldr	r0, .L26
 311 0092 BDE8F081 		pop	{r4, r5, r6, r7, r8, pc}
 312              	.LVL28:
 313              	.L27:
 314              		.loc 1 149 1 view .LVU66
 315 0096 00BF     		.align	2
ARM GAS  C:\usertemp\ccFN5a0o.s 			page 10


 316              	.L26:
 317 0098 14000000 		.word	.LC6
 318 009c 00180258 		.word	1476532224
 319 00a0 00000000 		.word	.LC1
 320 00a4 04000000 		.word	.LC2
 321 00a8 08000000 		.word	.LC3
 322 00ac 0C000000 		.word	.LC4
 323 00b0 10000000 		.word	.LC5
 324              		.cfi_endproc
 325              	.LFE360:
 327              		.section	.text.httpd_ssi_init,"ax",%progbits
 328              		.align	1
 329              		.global	httpd_ssi_init
 330              		.syntax unified
 331              		.thumb
 332              		.thumb_func
 334              	httpd_ssi_init:
 335              	.LFB361:
 150:Core/Src/httpd_cgi_ssi.c **** 
 151:Core/Src/httpd_cgi_ssi.c **** /**
 152:Core/Src/httpd_cgi_ssi.c ****  * Initialize SSI handlers
 153:Core/Src/httpd_cgi_ssi.c ****  */
 154:Core/Src/httpd_cgi_ssi.c **** void httpd_ssi_init(void)
 155:Core/Src/httpd_cgi_ssi.c **** {  
 336              		.loc 1 155 1 is_stmt 1 view -0
 337              		.cfi_startproc
 338              		@ args = 0, pretend = 0, frame = 0
 339              		@ frame_needed = 0, uses_anonymous_args = 0
 340 0000 08B5     		push	{r3, lr}
 341              	.LCFI7:
 342              		.cfi_def_cfa_offset 8
 343              		.cfi_offset 3, -8
 344              		.cfi_offset 14, -4
 156:Core/Src/httpd_cgi_ssi.c ****   /* configure SSI handlers (ADC page SSI) */
 157:Core/Src/httpd_cgi_ssi.c ****   http_set_ssi_handler(ADC_Handler, TAGCHAR, 16);
 345              		.loc 1 157 3 view .LVU68
 346 0002 1022     		movs	r2, #16
 347 0004 0249     		ldr	r1, .L30
 348 0006 0348     		ldr	r0, .L30+4
 349 0008 FFF7FEFF 		bl	http_set_ssi_handler
 350              	.LVL29:
 158:Core/Src/httpd_cgi_ssi.c **** }
 351              		.loc 1 158 1 is_stmt 0 view .LVU69
 352 000c 08BD     		pop	{r3, pc}
 353              	.L31:
 354 000e 00BF     		.align	2
 355              	.L30:
 356 0010 00000000 		.word	TAGCHAR
 357 0014 00000000 		.word	ADC_Handler
 358              		.cfi_endproc
 359              	.LFE361:
 361              		.section	.text.httpd_cgi_init,"ax",%progbits
 362              		.align	1
 363              		.global	httpd_cgi_init
 364              		.syntax unified
 365              		.thumb
 366              		.thumb_func
ARM GAS  C:\usertemp\ccFN5a0o.s 			page 11


 368              	httpd_cgi_init:
 369              	.LFB362:
 159:Core/Src/httpd_cgi_ssi.c **** 
 160:Core/Src/httpd_cgi_ssi.c **** /**
 161:Core/Src/httpd_cgi_ssi.c ****  * Initialize CGI handlers
 162:Core/Src/httpd_cgi_ssi.c ****  */
 163:Core/Src/httpd_cgi_ssi.c **** void httpd_cgi_init(void)
 164:Core/Src/httpd_cgi_ssi.c **** { 
 370              		.loc 1 164 1 is_stmt 1 view -0
 371              		.cfi_startproc
 372              		@ args = 0, pretend = 0, frame = 0
 373              		@ frame_needed = 0, uses_anonymous_args = 0
 374 0000 08B5     		push	{r3, lr}
 375              	.LCFI8:
 376              		.cfi_def_cfa_offset 8
 377              		.cfi_offset 3, -8
 378              		.cfi_offset 14, -4
 165:Core/Src/httpd_cgi_ssi.c ****   /* configure CGI handlers (LEDs control CGI) */
 166:Core/Src/httpd_cgi_ssi.c ****   CGI_TAB[0] = LEDS_CGI;
 379              		.loc 1 166 3 view .LVU71
 380              		.loc 1 166 14 is_stmt 0 view .LVU72
 381 0002 054B     		ldr	r3, .L34
 382 0004 054A     		ldr	r2, .L34+4
 383 0006 92E80300 		ldm	r2, {r0, r1}
 384 000a 83E80300 		stm	r3, {r0, r1}
 167:Core/Src/httpd_cgi_ssi.c ****   http_set_cgi_handlers(CGI_TAB, 1);
 385              		.loc 1 167 3 is_stmt 1 view .LVU73
 386 000e 0121     		movs	r1, #1
 387 0010 1846     		mov	r0, r3
 388 0012 FFF7FEFF 		bl	http_set_cgi_handlers
 389              	.LVL30:
 168:Core/Src/httpd_cgi_ssi.c **** }
 390              		.loc 1 168 1 is_stmt 0 view .LVU74
 391 0016 08BD     		pop	{r3, pc}
 392              	.L35:
 393              		.align	2
 394              	.L34:
 395 0018 00000000 		.word	CGI_TAB
 396 001c 00000000 		.word	LEDS_CGI
 397              		.cfi_endproc
 398              	.LFE362:
 400              		.global	CGI_TAB
 401              		.section	.bss.CGI_TAB,"aw",%nobits
 402              		.align	2
 405              	CGI_TAB:
 406 0000 00000000 		.space	8
 406      00000000 
 407              		.global	LEDS_CGI
 408              		.section	.rodata.str1.4,"aMS",%progbits,1
 409              		.align	2
 410              	.LC7:
 411 0000 2F6C6564 		.ascii	"/leds.cgi\000"
 411      732E6367 
 411      6900
 412              		.section	.rodata.LEDS_CGI,"a"
 413              		.align	2
 416              	LEDS_CGI:
ARM GAS  C:\usertemp\ccFN5a0o.s 			page 12


 417 0000 00000000 		.word	.LC7
 418 0004 00000000 		.word	LEDS_CGI_Handler
 419              		.global	TAGCHAR
 420              		.section	.rodata.str1.4
 421 000a 0000     		.align	2
 422              	.LC8:
 423 000c 413000   		.ascii	"A0\000"
 424 000f 00       		.align	2
 425              	.LC9:
 426 0010 413100   		.ascii	"A1\000"
 427 0013 00       		.align	2
 428              	.LC10:
 429 0014 413200   		.ascii	"A2\000"
 430 0017 00       		.align	2
 431              	.LC11:
 432 0018 413300   		.ascii	"A3\000"
 433 001b 00       		.align	2
 434              	.LC12:
 435 001c 413400   		.ascii	"A4\000"
 436 001f 00       		.align	2
 437              	.LC13:
 438 0020 413500   		.ascii	"A5\000"
 439 0023 00       		.align	2
 440              	.LC14:
 441 0024 413600   		.ascii	"A6\000"
 442 0027 00       		.align	2
 443              	.LC15:
 444 0028 413700   		.ascii	"A7\000"
 445              		.section	.data.TAGCHAR,"aw"
 446              		.align	2
 449              	TAGCHAR:
 450 0000 0C000000 		.word	.LC8
 451 0004 10000000 		.word	.LC9
 452 0008 14000000 		.word	.LC10
 453 000c 18000000 		.word	.LC11
 454 0010 1C000000 		.word	.LC12
 455 0014 20000000 		.word	.LC13
 456 0018 24000000 		.word	.LC14
 457 001c 28000000 		.word	.LC15
 458              		.global	ADC_not_configured
 459              		.section	.data.ADC_not_configured,"aw"
 460              		.align	2
 463              	ADC_not_configured:
 464 0000 01000000 		.word	1
 465              		.global	ADC_Page_SSI_Handler
 466              		.section	.bss.ADC_Page_SSI_Handler,"aw",%nobits
 467              		.align	2
 470              	ADC_Page_SSI_Handler:
 471 0000 00000000 		.space	4
 472              		.text
 473              	.Letext0:
 474              		.file 2 "D:/armtoolchain/arm-gnu-toolchain-13.3.rel1-mingw-w64-i686-arm-none-eabi/lib/gcc/arm-none
 475              		.file 3 "D:/armtoolchain/arm-gnu-toolchain-13.3.rel1-mingw-w64-i686-arm-none-eabi/arm-none-eabi/in
 476              		.file 4 "D:/armtoolchain/arm-gnu-toolchain-13.3.rel1-mingw-w64-i686-arm-none-eabi/arm-none-eabi/in
 477              		.file 5 "Middlewares/Third_Party/LwIP/src/include/lwip/arch.h"
 478              		.file 6 "Drivers/CMSIS/Device/ST/STM32H7xx/Include/stm32h743xx.h"
 479              		.file 7 "Drivers/STM32H7xx_HAL_Driver/Inc/stm32h7xx_hal_gpio.h"
ARM GAS  C:\usertemp\ccFN5a0o.s 			page 13


 480              		.file 8 "Middlewares/Third_Party/LwIP/src/include/lwip/apps/httpd.h"
 481              		.file 9 "Middlewares/Third_Party/LwIP/src/include/lwip/memp.h"
 482              		.file 10 "D:/armtoolchain/arm-gnu-toolchain-13.3.rel1-mingw-w64-i686-arm-none-eabi/arm-none-eabi/i
 483              		.file 11 "D:/armtoolchain/arm-gnu-toolchain-13.3.rel1-mingw-w64-i686-arm-none-eabi/arm-none-eabi/i
ARM GAS  C:\usertemp\ccFN5a0o.s 			page 14

