ARM GAS  C:\usertemp\ccgzrlsb.s 			page 1


   1              		.cpu cortex-m7
   2              		.arch armv7e-m
   3              		.fpu fpv5-d16
   4              		.eabi_attribute 28, 1
   5              		.eabi_attribute 20, 1
   6              		.eabi_attribute 21, 1
   7              		.eabi_attribute 23, 3
   8              		.eabi_attribute 24, 1
   9              		.eabi_attribute 25, 1
  10              		.eabi_attribute 26, 1
  11              		.eabi_attribute 30, 1
  12              		.eabi_attribute 34, 1
  13              		.eabi_attribute 18, 4
  14              		.file	"lcdTest.c"
  15              		.text
  16              	.Ltext0:
  17              		.cfi_sections	.debug_frame
  18              		.file 1 "Drivers/LCD_FMC/src/lcdTest.c"
  19              		.section	.text.testlines,"ax",%progbits
  20              		.align	1
  21              		.global	testlines
  22              		.syntax unified
  23              		.thumb
  24              		.thumb_func
  26              	testlines:
  27              	.LFB339:
   1:Drivers/LCD_FMC/src/lcdTest.c **** //
   2:Drivers/LCD_FMC/src/lcdTest.c **** // Created by Alex-Hua on 2024/7/26.
   3:Drivers/LCD_FMC/src/lcdTest.c **** //
   4:Drivers/LCD_FMC/src/lcdTest.c **** 
   5:Drivers/LCD_FMC/src/lcdTest.c **** #include "lcdTest.h"
   6:Drivers/LCD_FMC/src/lcdTest.c **** #include "cmsis_os.h"
   7:Drivers/LCD_FMC/src/lcdTest.c **** 
   8:Drivers/LCD_FMC/src/lcdTest.c **** /*LCD测试函数*/
   9:Drivers/LCD_FMC/src/lcdTest.c **** void LCD_TEST(void)
  10:Drivers/LCD_FMC/src/lcdTest.c **** {
  11:Drivers/LCD_FMC/src/lcdTest.c ****     // LCD_RST_CLR();
  12:Drivers/LCD_FMC/src/lcdTest.c ****     // HAL_Delay(50);
  13:Drivers/LCD_FMC/src/lcdTest.c ****     // LCD_RST_SET();
  14:Drivers/LCD_FMC/src/lcdTest.c ****     // HAL_Delay(50);
  15:Drivers/LCD_FMC/src/lcdTest.c ****     /*画线测试*/
  16:Drivers/LCD_FMC/src/lcdTest.c ****     testlines();
  17:Drivers/LCD_FMC/src/lcdTest.c ****     osDelay(1000);
  18:Drivers/LCD_FMC/src/lcdTest.c ****     /*画正方形测试*/
  19:Drivers/LCD_FMC/src/lcdTest.c ****     testdrawrects();
  20:Drivers/LCD_FMC/src/lcdTest.c ****     osDelay(1000);
  21:Drivers/LCD_FMC/src/lcdTest.c ****     /*画圆测试*/
  22:Drivers/LCD_FMC/src/lcdTest.c ****     testfillcircles(15);
  23:Drivers/LCD_FMC/src/lcdTest.c ****     osDelay(1000);
  24:Drivers/LCD_FMC/src/lcdTest.c ****     /*字体测试*/
  25:Drivers/LCD_FMC/src/lcdTest.c ****     tftPrintTest();
  26:Drivers/LCD_FMC/src/lcdTest.c **** }
  27:Drivers/LCD_FMC/src/lcdTest.c **** 
  28:Drivers/LCD_FMC/src/lcdTest.c **** /*画线测试*/
  29:Drivers/LCD_FMC/src/lcdTest.c **** void testlines(void)
  30:Drivers/LCD_FMC/src/lcdTest.c **** {
  28              		.loc 1 30 1 view -0
ARM GAS  C:\usertemp\ccgzrlsb.s 			page 2


  29              		.cfi_startproc
  30              		@ args = 0, pretend = 0, frame = 0
  31              		@ frame_needed = 0, uses_anonymous_args = 0
  32 0000 10B5     		push	{r4, lr}
  33              	.LCFI0:
  34              		.cfi_def_cfa_offset 8
  35              		.cfi_offset 4, -8
  36              		.cfi_offset 14, -4
  31:Drivers/LCD_FMC/src/lcdTest.c ****     LCD_Clear(GREEN);
  37              		.loc 1 31 5 view .LVU1
  38 0002 4FF4FC60 		mov	r0, #2016
  39 0006 FFF7FEFF 		bl	LCD_Clear
  40              	.LVL0:
  32:Drivers/LCD_FMC/src/lcdTest.c ****     POINT_COLOR=BLACK;
  41              		.loc 1 32 5 view .LVU2
  42              		.loc 1 32 16 is_stmt 0 view .LVU3
  43 000a 0022     		movs	r2, #0
  44 000c 564B     		ldr	r3, .L19
  45 000e 1A60     		str	r2, [r3]
  33:Drivers/LCD_FMC/src/lcdTest.c ****     for (int16_t x=0; x < SSD_VER_RESOLUTION; x+=6)
  46              		.loc 1 33 5 is_stmt 1 view .LVU4
  47              	.LBB2:
  48              		.loc 1 33 10 view .LVU5
  49              	.LVL1:
  50              		.loc 1 33 5 is_stmt 0 view .LVU6
  51 0010 0CE0     		b	.L2
  52              	.LVL2:
  53              	.L3:
  34:Drivers/LCD_FMC/src/lcdTest.c ****     {
  35:Drivers/LCD_FMC/src/lcdTest.c ****         LCD_DrawLine(0, 0, x, SSD_HOR_RESOLUTION-1);
  54              		.loc 1 35 9 is_stmt 1 view .LVU7
  55 0012 94B2     		uxth	r4, r2
  56 0014 40F21F33 		movw	r3, #799
  57 0018 2246     		mov	r2, r4
  58              		.loc 1 35 9 is_stmt 0 view .LVU8
  59 001a 0021     		movs	r1, #0
  60 001c 0846     		mov	r0, r1
  61 001e FFF7FEFF 		bl	LCD_DrawLine
  62              	.LVL3:
  36:Drivers/LCD_FMC/src/lcdTest.c ****         osDelay(3);
  63              		.loc 1 36 9 is_stmt 1 view .LVU9
  64 0022 0320     		movs	r0, #3
  65 0024 FFF7FEFF 		bl	osDelay
  66              	.LVL4:
  33:Drivers/LCD_FMC/src/lcdTest.c ****     for (int16_t x=0; x < SSD_VER_RESOLUTION; x+=6)
  67              		.loc 1 33 48 discriminator 3 view .LVU10
  68 0028 A21D     		adds	r2, r4, #6
  69 002a 12B2     		sxth	r2, r2
  70              	.LVL5:
  71              	.L2:
  33:Drivers/LCD_FMC/src/lcdTest.c ****     for (int16_t x=0; x < SSD_VER_RESOLUTION; x+=6)
  72              		.loc 1 33 25 discriminator 1 view .LVU11
  73 002c B2F5F07F 		cmp	r2, #480
  74 0030 EFDB     		blt	.L3
  75              	.LBE2:
  76              	.LBB3:
  37:Drivers/LCD_FMC/src/lcdTest.c ****     }
ARM GAS  C:\usertemp\ccgzrlsb.s 			page 3


  38:Drivers/LCD_FMC/src/lcdTest.c ****     for (int16_t y=0; y < SSD_HOR_RESOLUTION; y+=6)
  77              		.loc 1 38 18 is_stmt 0 view .LVU12
  78 0032 0023     		movs	r3, #0
  79 0034 0CE0     		b	.L4
  80              	.LVL6:
  81              	.L5:
  39:Drivers/LCD_FMC/src/lcdTest.c ****     {
  40:Drivers/LCD_FMC/src/lcdTest.c ****         LCD_DrawLine(0, 0, SSD_VER_RESOLUTION-1, y);
  82              		.loc 1 40 9 is_stmt 1 view .LVU13
  83 0036 9CB2     		uxth	r4, r3
  84 0038 2346     		mov	r3, r4
  85              		.loc 1 40 9 is_stmt 0 view .LVU14
  86 003a 40F2DF12 		movw	r2, #479
  87 003e 0021     		movs	r1, #0
  88 0040 0846     		mov	r0, r1
  89 0042 FFF7FEFF 		bl	LCD_DrawLine
  90              	.LVL7:
  41:Drivers/LCD_FMC/src/lcdTest.c ****         osDelay(3);
  91              		.loc 1 41 9 is_stmt 1 view .LVU15
  92 0046 0320     		movs	r0, #3
  93 0048 FFF7FEFF 		bl	osDelay
  94              	.LVL8:
  38:Drivers/LCD_FMC/src/lcdTest.c ****     {
  95              		.loc 1 38 48 discriminator 3 view .LVU16
  96 004c A31D     		adds	r3, r4, #6
  97 004e 1BB2     		sxth	r3, r3
  98              	.LVL9:
  99              	.L4:
  38:Drivers/LCD_FMC/src/lcdTest.c ****     {
 100              		.loc 1 38 25 discriminator 1 view .LVU17
 101 0050 B3F5487F 		cmp	r3, #800
 102 0054 EFDB     		blt	.L5
 103              	.LBE3:
  42:Drivers/LCD_FMC/src/lcdTest.c ****     }
  43:Drivers/LCD_FMC/src/lcdTest.c **** 
  44:Drivers/LCD_FMC/src/lcdTest.c ****     LCD_Clear(GREEN);
 104              		.loc 1 44 5 view .LVU18
 105 0056 4FF4FC60 		mov	r0, #2016
 106 005a FFF7FEFF 		bl	LCD_Clear
 107              	.LVL10:
  45:Drivers/LCD_FMC/src/lcdTest.c ****     POINT_COLOR=BLUE;
 108              		.loc 1 45 5 view .LVU19
 109              		.loc 1 45 16 is_stmt 0 view .LVU20
 110 005e 424B     		ldr	r3, .L19
 111 0060 1F22     		movs	r2, #31
 112 0062 1A60     		str	r2, [r3]
  46:Drivers/LCD_FMC/src/lcdTest.c ****     for (int16_t x=0; x < SSD_VER_RESOLUTION; x+=6)
 113              		.loc 1 46 5 is_stmt 1 view .LVU21
 114              	.LBB4:
 115              		.loc 1 46 10 view .LVU22
 116              	.LVL11:
 117              		.loc 1 46 18 is_stmt 0 view .LVU23
 118 0064 0022     		movs	r2, #0
 119              		.loc 1 46 5 view .LVU24
 120 0066 0DE0     		b	.L6
 121              	.LVL12:
 122              	.L7:
ARM GAS  C:\usertemp\ccgzrlsb.s 			page 4


  47:Drivers/LCD_FMC/src/lcdTest.c ****     {
  48:Drivers/LCD_FMC/src/lcdTest.c ****         LCD_DrawLine(SSD_VER_RESOLUTION-1, 0, x, SSD_HOR_RESOLUTION-1);
 123              		.loc 1 48 9 is_stmt 1 view .LVU25
 124 0068 94B2     		uxth	r4, r2
 125 006a 40F21F33 		movw	r3, #799
 126 006e 2246     		mov	r2, r4
 127              		.loc 1 48 9 is_stmt 0 view .LVU26
 128 0070 0021     		movs	r1, #0
 129 0072 40F2DF10 		movw	r0, #479
 130 0076 FFF7FEFF 		bl	LCD_DrawLine
 131              	.LVL13:
  49:Drivers/LCD_FMC/src/lcdTest.c ****         osDelay(3);
 132              		.loc 1 49 9 is_stmt 1 view .LVU27
 133 007a 0320     		movs	r0, #3
 134 007c FFF7FEFF 		bl	osDelay
 135              	.LVL14:
  46:Drivers/LCD_FMC/src/lcdTest.c ****     for (int16_t x=0; x < SSD_VER_RESOLUTION; x+=6)
 136              		.loc 1 46 48 discriminator 3 view .LVU28
 137 0080 A21D     		adds	r2, r4, #6
 138 0082 12B2     		sxth	r2, r2
 139              	.LVL15:
 140              	.L6:
  46:Drivers/LCD_FMC/src/lcdTest.c ****     for (int16_t x=0; x < SSD_VER_RESOLUTION; x+=6)
 141              		.loc 1 46 25 discriminator 1 view .LVU29
 142 0084 B2F5F07F 		cmp	r2, #480
 143 0088 EEDB     		blt	.L7
 144              	.LBE4:
 145              	.LBB5:
  50:Drivers/LCD_FMC/src/lcdTest.c ****     }
  51:Drivers/LCD_FMC/src/lcdTest.c ****     for (int16_t y=0; y < SSD_HOR_RESOLUTION; y+=6)
 146              		.loc 1 51 18 is_stmt 0 view .LVU30
 147 008a 0023     		movs	r3, #0
 148 008c 0CE0     		b	.L8
 149              	.LVL16:
 150              	.L9:
  52:Drivers/LCD_FMC/src/lcdTest.c ****     {
  53:Drivers/LCD_FMC/src/lcdTest.c ****         LCD_DrawLine(SSD_VER_RESOLUTION-1, 0, 0, y);
 151              		.loc 1 53 9 is_stmt 1 view .LVU31
 152 008e 9CB2     		uxth	r4, r3
 153 0090 2346     		mov	r3, r4
 154              		.loc 1 53 9 is_stmt 0 view .LVU32
 155 0092 0022     		movs	r2, #0
 156 0094 1146     		mov	r1, r2
 157 0096 40F2DF10 		movw	r0, #479
 158 009a FFF7FEFF 		bl	LCD_DrawLine
 159              	.LVL17:
  54:Drivers/LCD_FMC/src/lcdTest.c ****         osDelay(3);
 160              		.loc 1 54 9 is_stmt 1 view .LVU33
 161 009e 0320     		movs	r0, #3
 162 00a0 FFF7FEFF 		bl	osDelay
 163              	.LVL18:
  51:Drivers/LCD_FMC/src/lcdTest.c ****     {
 164              		.loc 1 51 48 discriminator 3 view .LVU34
 165 00a4 A31D     		adds	r3, r4, #6
 166 00a6 1BB2     		sxth	r3, r3
 167              	.LVL19:
 168              	.L8:
ARM GAS  C:\usertemp\ccgzrlsb.s 			page 5


  51:Drivers/LCD_FMC/src/lcdTest.c ****     {
 169              		.loc 1 51 25 discriminator 1 view .LVU35
 170 00a8 B3F5487F 		cmp	r3, #800
 171 00ac EFDB     		blt	.L9
 172              	.LBE5:
  55:Drivers/LCD_FMC/src/lcdTest.c ****     }
  56:Drivers/LCD_FMC/src/lcdTest.c **** 
  57:Drivers/LCD_FMC/src/lcdTest.c ****     LCD_Clear(WHITE);
 173              		.loc 1 57 5 view .LVU36
 174 00ae 4FF6FF70 		movw	r0, #65535
 175 00b2 FFF7FEFF 		bl	LCD_Clear
 176              	.LVL20:
  58:Drivers/LCD_FMC/src/lcdTest.c ****     POINT_COLOR=RED;
 177              		.loc 1 58 5 view .LVU37
 178              		.loc 1 58 16 is_stmt 0 view .LVU38
 179 00b6 2C4B     		ldr	r3, .L19
 180 00b8 4FF47842 		mov	r2, #63488
 181 00bc 1A60     		str	r2, [r3]
  59:Drivers/LCD_FMC/src/lcdTest.c ****     for (int16_t y=0; y < SSD_HOR_RESOLUTION; y+=6)
 182              		.loc 1 59 5 is_stmt 1 view .LVU39
 183              	.LBB6:
 184              		.loc 1 59 10 view .LVU40
 185              	.LVL21:
 186              		.loc 1 59 18 is_stmt 0 view .LVU41
 187 00be 0023     		movs	r3, #0
 188              		.loc 1 59 5 view .LVU42
 189 00c0 0DE0     		b	.L10
 190              	.LVL22:
 191              	.L11:
  60:Drivers/LCD_FMC/src/lcdTest.c ****     {
  61:Drivers/LCD_FMC/src/lcdTest.c ****         LCD_DrawLine(0, SSD_HOR_RESOLUTION-1, SSD_VER_RESOLUTION-1, y);
 192              		.loc 1 61 9 is_stmt 1 view .LVU43
 193 00c2 9CB2     		uxth	r4, r3
 194 00c4 2346     		mov	r3, r4
 195              		.loc 1 61 9 is_stmt 0 view .LVU44
 196 00c6 40F2DF12 		movw	r2, #479
 197 00ca 40F21F31 		movw	r1, #799
 198 00ce 0020     		movs	r0, #0
 199 00d0 FFF7FEFF 		bl	LCD_DrawLine
 200              	.LVL23:
  62:Drivers/LCD_FMC/src/lcdTest.c ****         osDelay(3);
 201              		.loc 1 62 9 is_stmt 1 view .LVU45
 202 00d4 0320     		movs	r0, #3
 203 00d6 FFF7FEFF 		bl	osDelay
 204              	.LVL24:
  59:Drivers/LCD_FMC/src/lcdTest.c ****     for (int16_t y=0; y < SSD_HOR_RESOLUTION; y+=6)
 205              		.loc 1 59 48 discriminator 3 view .LVU46
 206 00da A31D     		adds	r3, r4, #6
 207 00dc 1BB2     		sxth	r3, r3
 208              	.LVL25:
 209              	.L10:
  59:Drivers/LCD_FMC/src/lcdTest.c ****     for (int16_t y=0; y < SSD_HOR_RESOLUTION; y+=6)
 210              		.loc 1 59 25 discriminator 1 view .LVU47
 211 00de B3F5487F 		cmp	r3, #800
 212 00e2 EEDB     		blt	.L11
 213              	.LBE6:
 214              	.LBB7:
ARM GAS  C:\usertemp\ccgzrlsb.s 			page 6


  63:Drivers/LCD_FMC/src/lcdTest.c ****     }
  64:Drivers/LCD_FMC/src/lcdTest.c ****     for (int16_t x=0; x < SSD_VER_RESOLUTION; x+=6)
 215              		.loc 1 64 18 is_stmt 0 view .LVU48
 216 00e4 0022     		movs	r2, #0
 217 00e6 0CE0     		b	.L12
 218              	.LVL26:
 219              	.L13:
  65:Drivers/LCD_FMC/src/lcdTest.c ****     {
  66:Drivers/LCD_FMC/src/lcdTest.c ****         LCD_DrawLine(0, SSD_HOR_RESOLUTION-1, x, 0);
 220              		.loc 1 66 9 is_stmt 1 view .LVU49
 221 00e8 94B2     		uxth	r4, r2
 222 00ea 0023     		movs	r3, #0
 223 00ec 2246     		mov	r2, r4
 224              		.loc 1 66 9 is_stmt 0 view .LVU50
 225 00ee 40F21F31 		movw	r1, #799
 226 00f2 1846     		mov	r0, r3
 227 00f4 FFF7FEFF 		bl	LCD_DrawLine
 228              	.LVL27:
  67:Drivers/LCD_FMC/src/lcdTest.c ****         osDelay(3);
 229              		.loc 1 67 9 is_stmt 1 view .LVU51
 230 00f8 0320     		movs	r0, #3
 231 00fa FFF7FEFF 		bl	osDelay
 232              	.LVL28:
  64:Drivers/LCD_FMC/src/lcdTest.c ****     {
 233              		.loc 1 64 48 discriminator 3 view .LVU52
 234 00fe A21D     		adds	r2, r4, #6
 235 0100 12B2     		sxth	r2, r2
 236              	.LVL29:
 237              	.L12:
  64:Drivers/LCD_FMC/src/lcdTest.c ****     {
 238              		.loc 1 64 25 discriminator 1 view .LVU53
 239 0102 B2F5F07F 		cmp	r2, #480
 240 0106 EFDB     		blt	.L13
 241              	.LBE7:
  68:Drivers/LCD_FMC/src/lcdTest.c ****     }
  69:Drivers/LCD_FMC/src/lcdTest.c **** 
  70:Drivers/LCD_FMC/src/lcdTest.c ****     LCD_Clear(WHITE);
 242              		.loc 1 70 5 view .LVU54
 243 0108 4FF6FF70 		movw	r0, #65535
 244 010c FFF7FEFF 		bl	LCD_Clear
 245              	.LVL30:
  71:Drivers/LCD_FMC/src/lcdTest.c ****     POINT_COLOR=MAGENTA;
 246              		.loc 1 71 5 view .LVU55
 247              		.loc 1 71 16 is_stmt 0 view .LVU56
 248 0110 154B     		ldr	r3, .L19
 249 0112 4FF61F02 		movw	r2, #63519
 250 0116 1A60     		str	r2, [r3]
  72:Drivers/LCD_FMC/src/lcdTest.c ****     for (int16_t x=0; x < SSD_VER_RESOLUTION; x+=6)
 251              		.loc 1 72 5 is_stmt 1 view .LVU57
 252              	.LBB8:
 253              		.loc 1 72 10 view .LVU58
 254              	.LVL31:
 255              		.loc 1 72 18 is_stmt 0 view .LVU59
 256 0118 0022     		movs	r2, #0
 257              		.loc 1 72 5 view .LVU60
 258 011a 0DE0     		b	.L14
 259              	.LVL32:
ARM GAS  C:\usertemp\ccgzrlsb.s 			page 7


 260              	.L15:
  73:Drivers/LCD_FMC/src/lcdTest.c ****     {
  74:Drivers/LCD_FMC/src/lcdTest.c ****         LCD_DrawLine(SSD_VER_RESOLUTION-1, SSD_HOR_RESOLUTION-1, x, 0);
 261              		.loc 1 74 9 is_stmt 1 view .LVU61
 262 011c 94B2     		uxth	r4, r2
 263 011e 0023     		movs	r3, #0
 264 0120 2246     		mov	r2, r4
 265              		.loc 1 74 9 is_stmt 0 view .LVU62
 266 0122 40F21F31 		movw	r1, #799
 267 0126 40F2DF10 		movw	r0, #479
 268 012a FFF7FEFF 		bl	LCD_DrawLine
 269              	.LVL33:
  75:Drivers/LCD_FMC/src/lcdTest.c ****         osDelay(3);
 270              		.loc 1 75 9 is_stmt 1 view .LVU63
 271 012e 0320     		movs	r0, #3
 272 0130 FFF7FEFF 		bl	osDelay
 273              	.LVL34:
  72:Drivers/LCD_FMC/src/lcdTest.c ****     for (int16_t x=0; x < SSD_VER_RESOLUTION; x+=6)
 274              		.loc 1 72 48 discriminator 3 view .LVU64
 275 0134 A21D     		adds	r2, r4, #6
 276 0136 12B2     		sxth	r2, r2
 277              	.LVL35:
 278              	.L14:
  72:Drivers/LCD_FMC/src/lcdTest.c ****     for (int16_t x=0; x < SSD_VER_RESOLUTION; x+=6)
 279              		.loc 1 72 25 discriminator 1 view .LVU65
 280 0138 B2F5F07F 		cmp	r2, #480
 281 013c EEDB     		blt	.L15
 282              	.LBE8:
 283              	.LBB9:
  76:Drivers/LCD_FMC/src/lcdTest.c ****     }
  77:Drivers/LCD_FMC/src/lcdTest.c ****     for (int16_t y=0; y < SSD_HOR_RESOLUTION; y+=6)
 284              		.loc 1 77 18 is_stmt 0 view .LVU66
 285 013e 0023     		movs	r3, #0
 286 0140 0DE0     		b	.L16
 287              	.LVL36:
 288              	.L17:
  78:Drivers/LCD_FMC/src/lcdTest.c ****     {
  79:Drivers/LCD_FMC/src/lcdTest.c ****         LCD_DrawLine(SSD_VER_RESOLUTION-1, SSD_HOR_RESOLUTION-1, 0, y);
 289              		.loc 1 79 9 is_stmt 1 view .LVU67
 290 0142 9CB2     		uxth	r4, r3
 291 0144 2346     		mov	r3, r4
 292              		.loc 1 79 9 is_stmt 0 view .LVU68
 293 0146 0022     		movs	r2, #0
 294 0148 40F21F31 		movw	r1, #799
 295 014c 40F2DF10 		movw	r0, #479
 296 0150 FFF7FEFF 		bl	LCD_DrawLine
 297              	.LVL37:
  80:Drivers/LCD_FMC/src/lcdTest.c ****         osDelay(3);
 298              		.loc 1 80 9 is_stmt 1 view .LVU69
 299 0154 0320     		movs	r0, #3
 300 0156 FFF7FEFF 		bl	osDelay
 301              	.LVL38:
  77:Drivers/LCD_FMC/src/lcdTest.c ****     {
 302              		.loc 1 77 48 discriminator 3 view .LVU70
 303 015a A31D     		adds	r3, r4, #6
 304 015c 1BB2     		sxth	r3, r3
 305              	.LVL39:
ARM GAS  C:\usertemp\ccgzrlsb.s 			page 8


 306              	.L16:
  77:Drivers/LCD_FMC/src/lcdTest.c ****     {
 307              		.loc 1 77 25 discriminator 1 view .LVU71
 308 015e B3F5487F 		cmp	r3, #800
 309 0162 EEDB     		blt	.L17
 310              	.LBE9:
  81:Drivers/LCD_FMC/src/lcdTest.c ****     }
  82:Drivers/LCD_FMC/src/lcdTest.c **** }
 311              		.loc 1 82 1 is_stmt 0 view .LVU72
 312 0164 10BD     		pop	{r4, pc}
 313              	.L20:
 314 0166 00BF     		.align	2
 315              	.L19:
 316 0168 00000000 		.word	POINT_COLOR
 317              		.cfi_endproc
 318              	.LFE339:
 320              		.section	.text.testdrawrects,"ax",%progbits
 321              		.align	1
 322              		.global	testdrawrects
 323              		.syntax unified
 324              		.thumb
 325              		.thumb_func
 327              	testdrawrects:
 328              	.LFB340:
  83:Drivers/LCD_FMC/src/lcdTest.c **** 
  84:Drivers/LCD_FMC/src/lcdTest.c **** /*画正方形测试*/
  85:Drivers/LCD_FMC/src/lcdTest.c **** void testdrawrects(void)
  86:Drivers/LCD_FMC/src/lcdTest.c **** {
 329              		.loc 1 86 1 is_stmt 1 view -0
 330              		.cfi_startproc
 331              		@ args = 0, pretend = 0, frame = 0
 332              		@ frame_needed = 0, uses_anonymous_args = 0
 333 0000 10B5     		push	{r4, lr}
 334              	.LCFI1:
 335              		.cfi_def_cfa_offset 8
 336              		.cfi_offset 4, -8
 337              		.cfi_offset 14, -4
  87:Drivers/LCD_FMC/src/lcdTest.c ****     LCD_Clear(WHITE);
 338              		.loc 1 87 5 view .LVU74
 339 0002 4FF6FF70 		movw	r0, #65535
 340 0006 FFF7FEFF 		bl	LCD_Clear
 341              	.LVL40:
  88:Drivers/LCD_FMC/src/lcdTest.c ****     POINT_COLOR=BLACK;
 342              		.loc 1 88 5 view .LVU75
 343              		.loc 1 88 16 is_stmt 0 view .LVU76
 344 000a 0023     		movs	r3, #0
 345 000c 0D4A     		ldr	r2, .L27
 346 000e 1360     		str	r3, [r2]
  89:Drivers/LCD_FMC/src/lcdTest.c ****     for (int16_t x=0; x < SSD_VER_RESOLUTION; x+=6)
 347              		.loc 1 89 5 is_stmt 1 view .LVU77
 348              	.LBB10:
 349              		.loc 1 89 10 view .LVU78
 350              	.LVL41:
 351              		.loc 1 89 5 is_stmt 0 view .LVU79
 352 0010 0EE0     		b	.L22
 353              	.LVL42:
 354              	.L23:
ARM GAS  C:\usertemp\ccgzrlsb.s 			page 9


  90:Drivers/LCD_FMC/src/lcdTest.c ****     {
  91:Drivers/LCD_FMC/src/lcdTest.c ****         LCD_DrawRectangle(SSD_VER_RESOLUTION/2 -x/2, SSD_HOR_RESOLUTION/2 -x/2 , x, x);
 355              		.loc 1 91 9 view .LVU80
 356 0012 C0F34F00 		ubfx	r0, r0, #1, #16
 357 0016 9CB2     		uxth	r4, r3
 358 0018 C0F5C871 		rsb	r1, r0, #400
 359 001c C0F1F000 		rsb	r0, r0, #240
 360 0020 2346     		mov	r3, r4
 361              		.loc 1 91 9 view .LVU81
 362 0022 2246     		mov	r2, r4
 363 0024 89B2     		uxth	r1, r1
 364 0026 80B2     		uxth	r0, r0
 365 0028 FFF7FEFF 		bl	LCD_DrawRectangle
 366              	.LVL43:
  89:Drivers/LCD_FMC/src/lcdTest.c ****     for (int16_t x=0; x < SSD_VER_RESOLUTION; x+=6)
 367              		.loc 1 89 48 is_stmt 1 discriminator 3 view .LVU82
 368 002c A31D     		adds	r3, r4, #6
 369 002e 1BB2     		sxth	r3, r3
 370              	.LVL44:
 371              	.L22:
  89:Drivers/LCD_FMC/src/lcdTest.c ****     for (int16_t x=0; x < SSD_VER_RESOLUTION; x+=6)
 372              		.loc 1 89 25 discriminator 1 view .LVU83
 373 0030 B3F5F07F 		cmp	r3, #480
 374 0034 04DA     		bge	.L26
 375              		.loc 1 91 9 view .LVU84
 376 0036 1846     		mov	r0, r3
 377 0038 002B     		cmp	r3, #0
 378 003a EADA     		bge	.L23
 379 003c 581C     		adds	r0, r3, #1
 380 003e E8E7     		b	.L23
 381              	.L26:
 382              	.LBE10:
  92:Drivers/LCD_FMC/src/lcdTest.c ****     }
  93:Drivers/LCD_FMC/src/lcdTest.c **** }
 383              		.loc 1 93 1 is_stmt 0 view .LVU85
 384 0040 10BD     		pop	{r4, pc}
 385              	.L28:
 386 0042 00BF     		.align	2
 387              	.L27:
 388 0044 00000000 		.word	POINT_COLOR
 389              		.cfi_endproc
 390              	.LFE340:
 392              		.section	.text.testfillcircles,"ax",%progbits
 393              		.align	1
 394              		.global	testfillcircles
 395              		.syntax unified
 396              		.thumb
 397              		.thumb_func
 399              	testfillcircles:
 400              	.LVL45:
 401              	.LFB341:
  94:Drivers/LCD_FMC/src/lcdTest.c **** 
  95:Drivers/LCD_FMC/src/lcdTest.c **** /*画圆测试*/
  96:Drivers/LCD_FMC/src/lcdTest.c **** void testfillcircles(uint8_t radius)
  97:Drivers/LCD_FMC/src/lcdTest.c **** {
 402              		.loc 1 97 1 is_stmt 1 view -0
 403              		.cfi_startproc
ARM GAS  C:\usertemp\ccgzrlsb.s 			page 10


 404              		@ args = 0, pretend = 0, frame = 0
 405              		@ frame_needed = 0, uses_anonymous_args = 0
 406              		.loc 1 97 1 is_stmt 0 view .LVU87
 407 0000 F8B5     		push	{r3, r4, r5, r6, r7, lr}
 408              	.LCFI2:
 409              		.cfi_def_cfa_offset 24
 410              		.cfi_offset 3, -24
 411              		.cfi_offset 4, -20
 412              		.cfi_offset 5, -16
 413              		.cfi_offset 6, -12
 414              		.cfi_offset 7, -8
 415              		.cfi_offset 14, -4
 416 0002 0546     		mov	r5, r0
  98:Drivers/LCD_FMC/src/lcdTest.c ****     LCD_Clear(WHITE);
 417              		.loc 1 98 5 is_stmt 1 view .LVU88
 418 0004 4FF6FF70 		movw	r0, #65535
 419              	.LVL46:
 420              		.loc 1 98 5 is_stmt 0 view .LVU89
 421 0008 FFF7FEFF 		bl	LCD_Clear
 422              	.LVL47:
  99:Drivers/LCD_FMC/src/lcdTest.c ****     POINT_COLOR=BLUE;
 423              		.loc 1 99 5 is_stmt 1 view .LVU90
 424              		.loc 1 99 16 is_stmt 0 view .LVU91
 425 000c 1F4B     		ldr	r3, .L41
 426 000e 1F22     		movs	r2, #31
 427 0010 1A60     		str	r2, [r3]
 100:Drivers/LCD_FMC/src/lcdTest.c ****     for(int16_t x=radius; x < SSD_VER_RESOLUTION; x+=radius*2)
 428              		.loc 1 100 5 is_stmt 1 view .LVU92
 429              	.LBB11:
 430              		.loc 1 100 9 view .LVU93
 431              		.loc 1 100 17 is_stmt 0 view .LVU94
 432 0012 2FB2     		sxth	r7, r5
 433              	.LVL48:
 434              		.loc 1 100 17 view .LVU95
 435 0014 3E46     		mov	r6, r7
 436              		.loc 1 100 5 view .LVU96
 437 0016 0EE0     		b	.L30
 438              	.LVL49:
 439              	.L31:
 440              	.LBB12:
 101:Drivers/LCD_FMC/src/lcdTest.c ****     {
 102:Drivers/LCD_FMC/src/lcdTest.c ****         for(int16_t y=radius; y < SSD_HOR_RESOLUTION; y+=radius*2)
 103:Drivers/LCD_FMC/src/lcdTest.c ****         {
 104:Drivers/LCD_FMC/src/lcdTest.c ****             LCD_Draw_Circle(x, y, radius);
 441              		.loc 1 104 13 is_stmt 1 view .LVU97
 442 0018 8CB2     		uxth	r4, r1
 443 001a 2A46     		mov	r2, r5
 444 001c 2146     		mov	r1, r4
 445              		.loc 1 104 13 is_stmt 0 view .LVU98
 446 001e B0B2     		uxth	r0, r6
 447 0020 FFF7FEFF 		bl	LCD_Draw_Circle
 448              	.LVL50:
 102:Drivers/LCD_FMC/src/lcdTest.c ****         {
 449              		.loc 1 102 56 is_stmt 1 discriminator 3 view .LVU99
 450 0024 04EB4501 		add	r1, r4, r5, lsl #1
 451 0028 09B2     		sxth	r1, r1
 452              	.LVL51:
ARM GAS  C:\usertemp\ccgzrlsb.s 			page 11


 453              	.L32:
 102:Drivers/LCD_FMC/src/lcdTest.c ****         {
 454              		.loc 1 102 33 discriminator 1 view .LVU100
 455 002a B1F5487F 		cmp	r1, #800
 456 002e F3DB     		blt	.L31
 457              	.LBE12:
 100:Drivers/LCD_FMC/src/lcdTest.c ****     for(int16_t x=radius; x < SSD_VER_RESOLUTION; x+=radius*2)
 458              		.loc 1 100 52 discriminator 2 view .LVU101
 459 0030 06EB4506 		add	r6, r6, r5, lsl #1
 460              	.LVL52:
 100:Drivers/LCD_FMC/src/lcdTest.c ****     for(int16_t x=radius; x < SSD_VER_RESOLUTION; x+=radius*2)
 461              		.loc 1 100 52 is_stmt 0 discriminator 2 view .LVU102
 462 0034 36B2     		sxth	r6, r6
 463              	.LVL53:
 464              	.L30:
 100:Drivers/LCD_FMC/src/lcdTest.c ****     for(int16_t x=radius; x < SSD_VER_RESOLUTION; x+=radius*2)
 465              		.loc 1 100 29 is_stmt 1 discriminator 1 view .LVU103
 466 0036 B6F5F07F 		cmp	r6, #480
 467 003a 01DA     		bge	.L39
 468              	.LBB13:
 102:Drivers/LCD_FMC/src/lcdTest.c ****         {
 469              		.loc 1 102 21 is_stmt 0 view .LVU104
 470 003c 3946     		mov	r1, r7
 471 003e F4E7     		b	.L32
 472              	.L39:
 473              	.LBE13:
 474              	.LBE11:
 105:Drivers/LCD_FMC/src/lcdTest.c ****         }
 106:Drivers/LCD_FMC/src/lcdTest.c ****     }
 107:Drivers/LCD_FMC/src/lcdTest.c ****     osDelay(1500);
 475              		.loc 1 107 5 is_stmt 1 view .LVU105
 476 0040 40F2DC50 		movw	r0, #1500
 477 0044 FFF7FEFF 		bl	osDelay
 478              	.LVL54:
 108:Drivers/LCD_FMC/src/lcdTest.c ****     LCD_Clear(WHITE);
 479              		.loc 1 108 5 view .LVU106
 480 0048 4FF6FF70 		movw	r0, #65535
 481 004c FFF7FEFF 		bl	LCD_Clear
 482              	.LVL55:
 109:Drivers/LCD_FMC/src/lcdTest.c ****     POINT_COLOR=MAGENTA;
 483              		.loc 1 109 5 view .LVU107
 484              		.loc 1 109 16 is_stmt 0 view .LVU108
 485 0050 0E4B     		ldr	r3, .L41
 486 0052 4FF61F02 		movw	r2, #63519
 487 0056 1A60     		str	r2, [r3]
 110:Drivers/LCD_FMC/src/lcdTest.c ****     radius = radius / 2;
 488              		.loc 1 110 5 is_stmt 1 view .LVU109
 489              		.loc 1 110 12 is_stmt 0 view .LVU110
 490 0058 6E08     		lsrs	r6, r5, #1
 491              	.LVL56:
 111:Drivers/LCD_FMC/src/lcdTest.c ****     for(int16_t x=radius; x < SSD_VER_RESOLUTION; x+=radius*2)
 492              		.loc 1 111 5 is_stmt 1 view .LVU111
 493              	.LBB14:
 494              		.loc 1 111 9 view .LVU112
 495              		.loc 1 111 17 is_stmt 0 view .LVU113
 496 005a 3546     		mov	r5, r6
 497              	.LVL57:
ARM GAS  C:\usertemp\ccgzrlsb.s 			page 12


 498              		.loc 1 111 17 view .LVU114
 499 005c 3746     		mov	r7, r6
 500              		.loc 1 111 5 view .LVU115
 501 005e 0EE0     		b	.L33
 502              	.LVL58:
 503              	.L34:
 504              	.LBB15:
 112:Drivers/LCD_FMC/src/lcdTest.c ****     {
 113:Drivers/LCD_FMC/src/lcdTest.c ****         for(int16_t y=radius; y < SSD_HOR_RESOLUTION; y+=radius*2)
 114:Drivers/LCD_FMC/src/lcdTest.c ****         {
 115:Drivers/LCD_FMC/src/lcdTest.c ****             LCD_Draw_Circle(x, y, radius);
 505              		.loc 1 115 13 is_stmt 1 view .LVU116
 506 0060 8CB2     		uxth	r4, r1
 507 0062 3246     		mov	r2, r6
 508 0064 2146     		mov	r1, r4
 509              		.loc 1 115 13 is_stmt 0 view .LVU117
 510 0066 B8B2     		uxth	r0, r7
 511 0068 FFF7FEFF 		bl	LCD_Draw_Circle
 512              	.LVL59:
 113:Drivers/LCD_FMC/src/lcdTest.c ****         {
 513              		.loc 1 113 56 is_stmt 1 discriminator 3 view .LVU118
 514 006c 04EB4601 		add	r1, r4, r6, lsl #1
 515 0070 09B2     		sxth	r1, r1
 516              	.LVL60:
 517              	.L35:
 113:Drivers/LCD_FMC/src/lcdTest.c ****         {
 518              		.loc 1 113 33 discriminator 1 view .LVU119
 519 0072 B1F5487F 		cmp	r1, #800
 520 0076 F3DB     		blt	.L34
 521              	.LBE15:
 111:Drivers/LCD_FMC/src/lcdTest.c ****     for(int16_t x=radius; x < SSD_VER_RESOLUTION; x+=radius*2)
 522              		.loc 1 111 52 discriminator 2 view .LVU120
 523 0078 07EB4607 		add	r7, r7, r6, lsl #1
 524              	.LVL61:
 111:Drivers/LCD_FMC/src/lcdTest.c ****     for(int16_t x=radius; x < SSD_VER_RESOLUTION; x+=radius*2)
 525              		.loc 1 111 52 is_stmt 0 discriminator 2 view .LVU121
 526 007c 3FB2     		sxth	r7, r7
 527              	.LVL62:
 528              	.L33:
 111:Drivers/LCD_FMC/src/lcdTest.c ****     for(int16_t x=radius; x < SSD_VER_RESOLUTION; x+=radius*2)
 529              		.loc 1 111 29 is_stmt 1 discriminator 1 view .LVU122
 530 007e B7F5F07F 		cmp	r7, #480
 531 0082 01DA     		bge	.L40
 532              	.LBB16:
 113:Drivers/LCD_FMC/src/lcdTest.c ****         {
 533              		.loc 1 113 21 is_stmt 0 view .LVU123
 534 0084 2946     		mov	r1, r5
 535 0086 F4E7     		b	.L35
 536              	.L40:
 537              	.LBE16:
 538              	.LBE14:
 116:Drivers/LCD_FMC/src/lcdTest.c ****         }
 117:Drivers/LCD_FMC/src/lcdTest.c ****     }
 118:Drivers/LCD_FMC/src/lcdTest.c **** }
 539              		.loc 1 118 1 view .LVU124
 540 0088 F8BD     		pop	{r3, r4, r5, r6, r7, pc}
 541              	.LVL63:
ARM GAS  C:\usertemp\ccgzrlsb.s 			page 13


 542              	.L42:
 543              		.loc 1 118 1 view .LVU125
 544 008a 00BF     		.align	2
 545              	.L41:
 546 008c 00000000 		.word	POINT_COLOR
 547              		.cfi_endproc
 548              	.LFE341:
 550              		.section	.rodata.tftPrintTest.str1.4,"aMS",%progbits,1
 551              		.align	2
 552              	.LC0:
 553 0000 48656C6C 		.ascii	"Hello World!\000"
 553      6F20576F 
 553      726C6421 
 553      00
 554 000d 000000   		.align	2
 555              	.LC1:
 556 0010 2057616E 		.ascii	" Want pi?\000"
 556      74207069 
 556      3F00
 557 001a 0000     		.align	2
 558              	.LC2:
 559 001c 20507269 		.ascii	" Print HEX! ZJX ZDY\000"
 559      6E742048 
 559      45582120 
 559      5A4A5820 
 559      5A445900 
 560              		.align	2
 561              	.LC3:
 562 0030 536B6574 		.ascii	"Sketch has been\000"
 562      63682068 
 562      61732062 
 562      65656E00 
 563              		.align	2
 564              	.LC4:
 565 0040 72756E6E 		.ascii	"running for: \000"
 565      696E6720 
 565      666F723A 
 565      2000
 566 004e 0000     		.align	2
 567              	.LC5:
 568 0050 20736563 		.ascii	" seconds.\000"
 568      6F6E6473 
 568      2E00
 569              		.section	.text.tftPrintTest,"ax",%progbits
 570              		.align	1
 571              		.global	tftPrintTest
 572              		.syntax unified
 573              		.thumb
 574              		.thumb_func
 576              	tftPrintTest:
 577              	.LFB342:
 119:Drivers/LCD_FMC/src/lcdTest.c **** 
 120:Drivers/LCD_FMC/src/lcdTest.c **** /*字体测试*/
 121:Drivers/LCD_FMC/src/lcdTest.c **** void tftPrintTest(void)
 122:Drivers/LCD_FMC/src/lcdTest.c **** {
 578              		.loc 1 122 1 is_stmt 1 view -0
 579              		.cfi_startproc
ARM GAS  C:\usertemp\ccgzrlsb.s 			page 14


 580              		@ args = 0, pretend = 0, frame = 0
 581              		@ frame_needed = 0, uses_anonymous_args = 0
 582 0000 2DE9F04F 		push	{r4, r5, r6, r7, r8, r9, r10, fp, lr}
 583              	.LCFI3:
 584              		.cfi_def_cfa_offset 36
 585              		.cfi_offset 4, -36
 586              		.cfi_offset 5, -32
 587              		.cfi_offset 6, -28
 588              		.cfi_offset 7, -24
 589              		.cfi_offset 8, -20
 590              		.cfi_offset 9, -16
 591              		.cfi_offset 10, -12
 592              		.cfi_offset 11, -8
 593              		.cfi_offset 14, -4
 594 0004 83B0     		sub	sp, sp, #12
 595              	.LCFI4:
 596              		.cfi_def_cfa_offset 48
 123:Drivers/LCD_FMC/src/lcdTest.c ****     LCD_Clear(WHITE);
 597              		.loc 1 123 5 view .LVU127
 598 0006 4FF6FF70 		movw	r0, #65535
 599 000a FFF7FEFF 		bl	LCD_Clear
 600              	.LVL64:
 124:Drivers/LCD_FMC/src/lcdTest.c ****     LCD_SetCursor(0, 30);
 601              		.loc 1 124 5 view .LVU128
 602 000e 1E21     		movs	r1, #30
 603 0010 0020     		movs	r0, #0
 604 0012 FFF7FEFF 		bl	LCD_SetCursor
 605              	.LVL65:
 125:Drivers/LCD_FMC/src/lcdTest.c ****     POINT_COLOR=RED;
 606              		.loc 1 125 5 view .LVU129
 607              		.loc 1 125 16 is_stmt 0 view .LVU130
 608 0016 434D     		ldr	r5, .L45
 609 0018 4FF47843 		mov	r3, #63488
 610 001c 2B60     		str	r3, [r5]
 126:Drivers/LCD_FMC/src/lcdTest.c ****     LCD_ShowString(0,30,200,16,16,(uint8_t *)"Hello World!");
 611              		.loc 1 126 5 is_stmt 1 view .LVU131
 612 001e 424F     		ldr	r7, .L45+4
 613 0020 0197     		str	r7, [sp, #4]
 614 0022 1024     		movs	r4, #16
 615 0024 0094     		str	r4, [sp]
 616 0026 2346     		mov	r3, r4
 617 0028 C822     		movs	r2, #200
 618 002a 1E21     		movs	r1, #30
 619 002c 0020     		movs	r0, #0
 620 002e FFF7FEFF 		bl	LCD_ShowString
 621              	.LVL66:
 127:Drivers/LCD_FMC/src/lcdTest.c ****     POINT_COLOR=YELLOW;
 622              		.loc 1 127 5 view .LVU132
 623              		.loc 1 127 16 is_stmt 0 view .LVU133
 624 0032 4FF6E07B 		movw	fp, #65504
 625 0036 C5F800B0 		str	fp, [r5]
 128:Drivers/LCD_FMC/src/lcdTest.c ****     LCD_ShowString(0,60,200,16,24,(uint8_t *)"Hello World!");
 626              		.loc 1 128 5 is_stmt 1 view .LVU134
 627 003a 0197     		str	r7, [sp, #4]
 628 003c 1826     		movs	r6, #24
 629 003e 0096     		str	r6, [sp]
 630 0040 2346     		mov	r3, r4
ARM GAS  C:\usertemp\ccgzrlsb.s 			page 15


 631 0042 C822     		movs	r2, #200
 632 0044 3C21     		movs	r1, #60
 633 0046 0020     		movs	r0, #0
 634 0048 FFF7FEFF 		bl	LCD_ShowString
 635              	.LVL67:
 129:Drivers/LCD_FMC/src/lcdTest.c ****     POINT_COLOR=GREEN;
 636              		.loc 1 129 5 view .LVU135
 637              		.loc 1 129 16 is_stmt 0 view .LVU136
 638 004c 4FF4FC6A 		mov	r10, #2016
 639 0050 C5F800A0 		str	r10, [r5]
 130:Drivers/LCD_FMC/src/lcdTest.c ****     LCD_ShowString(0,90,200,16,32,(uint8_t *)"Hello World!");
 640              		.loc 1 130 5 is_stmt 1 view .LVU137
 641 0054 0197     		str	r7, [sp, #4]
 642 0056 4FF02008 		mov	r8, #32
 643 005a CDF80080 		str	r8, [sp]
 644 005e 2346     		mov	r3, r4
 645 0060 C822     		movs	r2, #200
 646 0062 5A21     		movs	r1, #90
 647 0064 0020     		movs	r0, #0
 648 0066 FFF7FEFF 		bl	LCD_ShowString
 649              	.LVL68:
 131:Drivers/LCD_FMC/src/lcdTest.c ****     POINT_COLOR=BLUE;
 650              		.loc 1 131 5 view .LVU138
 651              		.loc 1 131 16 is_stmt 0 view .LVU139
 652 006a 4FF01F09 		mov	r9, #31
 653 006e C5F80090 		str	r9, [r5]
 132:Drivers/LCD_FMC/src/lcdTest.c ****     LCD_ShowxNum(0,120,1234,4,24,1);
 654              		.loc 1 132 5 is_stmt 1 view .LVU140
 655 0072 0123     		movs	r3, #1
 656 0074 0193     		str	r3, [sp, #4]
 657 0076 0096     		str	r6, [sp]
 658 0078 0423     		movs	r3, #4
 659 007a 40F2D242 		movw	r2, #1234
 660 007e 7821     		movs	r1, #120
 661 0080 0020     		movs	r0, #0
 662 0082 FFF7FEFF 		bl	LCD_ShowxNum
 663              	.LVL69:
 133:Drivers/LCD_FMC/src/lcdTest.c ****     osDelay(1500);
 664              		.loc 1 133 5 view .LVU141
 665 0086 40F2DC50 		movw	r0, #1500
 666 008a FFF7FEFF 		bl	osDelay
 667              	.LVL70:
 134:Drivers/LCD_FMC/src/lcdTest.c ****     POINT_COLOR=YELLOW;
 668              		.loc 1 134 5 view .LVU142
 669              		.loc 1 134 16 is_stmt 0 view .LVU143
 670 008e C5F800B0 		str	fp, [r5]
 135:Drivers/LCD_FMC/src/lcdTest.c ****     LCD_ShowString(0,180,200,16,24,(uint8_t *)"Hello World!");
 671              		.loc 1 135 5 is_stmt 1 view .LVU144
 672 0092 0197     		str	r7, [sp, #4]
 673 0094 0096     		str	r6, [sp]
 674 0096 2346     		mov	r3, r4
 675 0098 C822     		movs	r2, #200
 676 009a B421     		movs	r1, #180
 677 009c 0020     		movs	r0, #0
 678 009e FFF7FEFF 		bl	LCD_ShowString
 679              	.LVL71:
 136:Drivers/LCD_FMC/src/lcdTest.c ****     POINT_COLOR=GREEN;
ARM GAS  C:\usertemp\ccgzrlsb.s 			page 16


 680              		.loc 1 136 5 view .LVU145
 681              		.loc 1 136 16 is_stmt 0 view .LVU146
 682 00a2 C5F800A0 		str	r10, [r5]
 137:Drivers/LCD_FMC/src/lcdTest.c ****     LCD_ShowString(0,210,200,16,32,(uint8_t *)" Want pi?");
 683              		.loc 1 137 5 is_stmt 1 view .LVU147
 684 00a6 214B     		ldr	r3, .L45+8
 685 00a8 0193     		str	r3, [sp, #4]
 686 00aa CDF80080 		str	r8, [sp]
 687 00ae 2346     		mov	r3, r4
 688 00b0 C822     		movs	r2, #200
 689 00b2 D221     		movs	r1, #210
 690 00b4 0020     		movs	r0, #0
 691 00b6 FFF7FEFF 		bl	LCD_ShowString
 692              	.LVL72:
 138:Drivers/LCD_FMC/src/lcdTest.c ****     LCD_ShowString(0,240,300,16,32,(uint8_t *)" Print HEX! ZJX ZDY");
 693              		.loc 1 138 5 view .LVU148
 694 00ba 1D4B     		ldr	r3, .L45+12
 695 00bc 0193     		str	r3, [sp, #4]
 696 00be CDF80080 		str	r8, [sp]
 697 00c2 2346     		mov	r3, r4
 698 00c4 4FF49672 		mov	r2, #300
 699 00c8 F021     		movs	r1, #240
 700 00ca 0020     		movs	r0, #0
 701 00cc FFF7FEFF 		bl	LCD_ShowString
 702              	.LVL73:
 139:Drivers/LCD_FMC/src/lcdTest.c ****     POINT_COLOR=BLUE;
 703              		.loc 1 139 5 view .LVU149
 704              		.loc 1 139 16 is_stmt 0 view .LVU150
 705 00d0 C5F80090 		str	r9, [r5]
 140:Drivers/LCD_FMC/src/lcdTest.c ****     LCD_ShowString(0,270,200,16,16,(uint8_t *)"Sketch has been");
 706              		.loc 1 140 5 is_stmt 1 view .LVU151
 707 00d4 174B     		ldr	r3, .L45+16
 708 00d6 0193     		str	r3, [sp, #4]
 709 00d8 0094     		str	r4, [sp]
 710 00da 2346     		mov	r3, r4
 711 00dc C822     		movs	r2, #200
 712 00de 4FF48771 		mov	r1, #270
 713 00e2 0020     		movs	r0, #0
 714 00e4 FFF7FEFF 		bl	LCD_ShowString
 715              	.LVL74:
 141:Drivers/LCD_FMC/src/lcdTest.c ****     LCD_ShowString(0,300,200,16,24,(uint8_t *)"running for: ");
 716              		.loc 1 141 5 view .LVU152
 717 00e8 134B     		ldr	r3, .L45+20
 718 00ea 0193     		str	r3, [sp, #4]
 719 00ec 0096     		str	r6, [sp]
 720 00ee 2346     		mov	r3, r4
 721 00f0 C822     		movs	r2, #200
 722 00f2 4FF49671 		mov	r1, #300
 723 00f6 0020     		movs	r0, #0
 724 00f8 FFF7FEFF 		bl	LCD_ShowString
 725              	.LVL75:
 142:Drivers/LCD_FMC/src/lcdTest.c ****     POINT_COLOR=MAGENTA;
 726              		.loc 1 142 5 view .LVU153
 727              		.loc 1 142 16 is_stmt 0 view .LVU154
 728 00fc 4FF61F03 		movw	r3, #63519
 729 0100 2B60     		str	r3, [r5]
 143:Drivers/LCD_FMC/src/lcdTest.c ****     LCD_ShowString(0,330,200,16,24,(uint8_t *)" seconds.");
ARM GAS  C:\usertemp\ccgzrlsb.s 			page 17


 730              		.loc 1 143 5 is_stmt 1 view .LVU155
 731 0102 0E4B     		ldr	r3, .L45+24
 732 0104 0193     		str	r3, [sp, #4]
 733 0106 0096     		str	r6, [sp]
 734 0108 2346     		mov	r3, r4
 735 010a C822     		movs	r2, #200
 736 010c 4FF4A571 		mov	r1, #330
 737 0110 0020     		movs	r0, #0
 738 0112 FFF7FEFF 		bl	LCD_ShowString
 739              	.LVL76:
 144:Drivers/LCD_FMC/src/lcdTest.c ****     osDelay(2500);
 740              		.loc 1 144 5 view .LVU156
 741 0116 40F6C410 		movw	r0, #2500
 742 011a FFF7FEFF 		bl	osDelay
 743              	.LVL77:
 145:Drivers/LCD_FMC/src/lcdTest.c **** }...
 744              		.loc 1 145 1 is_stmt 0 view .LVU157
 745 011e 03B0     		add	sp, sp, #12
 746              	.LCFI5:
 747              		.cfi_def_cfa_offset 36
 748              		@ sp needed
 749 0120 BDE8F08F 		pop	{r4, r5, r6, r7, r8, r9, r10, fp, pc}
 750              	.L46:
 751              		.align	2
 752              	.L45:
 753 0124 00000000 		.word	POINT_COLOR
 754 0128 00000000 		.word	.LC0
 755 012c 10000000 		.word	.LC1
 756 0130 1C000000 		.word	.LC2
 757 0134 30000000 		.word	.LC3
 758 0138 40000000 		.word	.LC4
 759 013c 50000000 		.word	.LC5
 760              		.cfi_endproc
 761              	.LFE342:
 763              		.section	.text.LCD_TEST,"ax",%progbits
 764              		.align	1
 765              		.global	LCD_TEST
 766              		.syntax unified
 767              		.thumb
 768              		.thumb_func
 770              	LCD_TEST:
 771              	.LFB338:
  10:Drivers/LCD_FMC/src/lcdTest.c **** {
 772              		.loc 1 10 1 is_stmt 1 view -0
 773              		.cfi_startproc
 774              		@ args = 0, pretend = 0, frame = 0
 775              		@ frame_needed = 0, uses_anonymous_args = 0
 776 0000 08B5     		push	{r3, lr}
 777              	.LCFI6:
 778              		.cfi_def_cfa_offset 8
 779              		.cfi_offset 3, -8
 780              		.cfi_offset 14, -4
  16:Drivers/LCD_FMC/src/lcdTest.c ****     testlines();
 781              		.loc 1 16 5 view .LVU159
 782 0002 FFF7FEFF 		bl	testlines
 783              	.LVL78:
  17:Drivers/LCD_FMC/src/lcdTest.c ****     osDelay(1000);
ARM GAS  C:\usertemp\ccgzrlsb.s 			page 18


 784              		.loc 1 17 5 view .LVU160
 785 0006 4FF47A70 		mov	r0, #1000
 786 000a FFF7FEFF 		bl	osDelay
 787              	.LVL79:
  19:Drivers/LCD_FMC/src/lcdTest.c ****     testdrawrects();
 788              		.loc 1 19 5 view .LVU161
 789 000e FFF7FEFF 		bl	testdrawrects
 790              	.LVL80:
  20:Drivers/LCD_FMC/src/lcdTest.c ****     osDelay(1000);
 791              		.loc 1 20 5 view .LVU162
 792 0012 4FF47A70 		mov	r0, #1000
 793 0016 FFF7FEFF 		bl	osDelay
 794              	.LVL81:
  22:Drivers/LCD_FMC/src/lcdTest.c ****     testfillcircles(15);
 795              		.loc 1 22 5 view .LVU163
 796 001a 0F20     		movs	r0, #15
 797 001c FFF7FEFF 		bl	testfillcircles
 798              	.LVL82:
  23:Drivers/LCD_FMC/src/lcdTest.c ****     osDelay(1000);
 799              		.loc 1 23 5 view .LVU164
 800 0020 4FF47A70 		mov	r0, #1000
 801 0024 FFF7FEFF 		bl	osDelay
 802              	.LVL83:
  25:Drivers/LCD_FMC/src/lcdTest.c ****     tftPrintTest();
 803              		.loc 1 25 5 view .LVU165
 804 0028 FFF7FEFF 		bl	tftPrintTest
 805              	.LVL84:
  26:Drivers/LCD_FMC/src/lcdTest.c **** }
 806              		.loc 1 26 1 is_stmt 0 view .LVU166
 807 002c 08BD     		pop	{r3, pc}
 808              		.cfi_endproc
 809              	.LFE338:
 811              		.text
 812              	.Letext0:
 813              		.file 2 "D:/armtoolchain/arm-gnu-toolchain-13.3.rel1-mingw-w64-i686-arm-none-eabi/arm-none-eabi/in
 814              		.file 3 "D:/armtoolchain/arm-gnu-toolchain-13.3.rel1-mingw-w64-i686-arm-none-eabi/arm-none-eabi/in
 815              		.file 4 "Middlewares/Third_Party/FreeRTOS/Source/CMSIS_RTOS/cmsis_os.h"
 816              		.file 5 "Drivers/LCD_FMC/inc/tftLCD.h"
ARM GAS  C:\usertemp\ccgzrlsb.s 			page 19


DEFINED SYMBOLS
                            *ABS*:00000000 lcdTest.c
C:\usertemp\ccgzrlsb.s:20     .text.testlines:00000000 $t
C:\usertemp\ccgzrlsb.s:26     .text.testlines:00000000 testlines
C:\usertemp\ccgzrlsb.s:316    .text.testlines:00000168 $d
C:\usertemp\ccgzrlsb.s:321    .text.testdrawrects:00000000 $t
C:\usertemp\ccgzrlsb.s:327    .text.testdrawrects:00000000 testdrawrects
C:\usertemp\ccgzrlsb.s:388    .text.testdrawrects:00000044 $d
C:\usertemp\ccgzrlsb.s:393    .text.testfillcircles:00000000 $t
C:\usertemp\ccgzrlsb.s:399    .text.testfillcircles:00000000 testfillcircles
C:\usertemp\ccgzrlsb.s:546    .text.testfillcircles:0000008c $d
C:\usertemp\ccgzrlsb.s:551    .rodata.tftPrintTest.str1.4:00000000 $d
C:\usertemp\ccgzrlsb.s:570    .text.tftPrintTest:00000000 $t
C:\usertemp\ccgzrlsb.s:576    .text.tftPrintTest:00000000 tftPrintTest
C:\usertemp\ccgzrlsb.s:753    .text.tftPrintTest:00000124 $d
C:\usertemp\ccgzrlsb.s:764    .text.LCD_TEST:00000000 $t
C:\usertemp\ccgzrlsb.s:770    .text.LCD_TEST:00000000 LCD_TEST

UNDEFINED SYMBOLS
LCD_Clear
LCD_DrawLine
osDelay
POINT_COLOR
LCD_DrawRectangle
LCD_Draw_Circle
LCD_SetCursor
LCD_ShowString
LCD_ShowxNum
