ARM GAS  C:\usertemp\cc6W5uFK.s 			page 1


   1              		.cpu cortex-m7
   2              		.arch armv7e-m
   3              		.fpu fpv5-d16
   4              		.eabi_attribute 28, 1
   5              		.eabi_attribute 20, 1
   6              		.eabi_attribute 21, 1
   7              		.eabi_attribute 23, 3
   8              		.eabi_attribute 24, 1
   9              		.eabi_attribute 25, 1
  10              		.eabi_attribute 26, 1
  11              		.eabi_attribute 30, 1
  12              		.eabi_attribute 34, 1
  13              		.eabi_attribute 18, 4
  14              		.file	"lodepng.c"
  15              		.text
  16              	.Ltext0:
  17              		.cfi_sections	.debug_frame
  18              		.file 1 "lvgl/src/extra/libs/png/lodepng.c"
  19              		.section	.text.lodepng_memcpy,"ax",%progbits
  20              		.align	1
  21              		.syntax unified
  22              		.thumb
  23              		.thumb_func
  25              	lodepng_memcpy:
  26              	.LVL0:
  27              	.LFB199:
   1:lvgl/src/extra/libs/png/lodepng.c **** /*
   2:lvgl/src/extra/libs/png/lodepng.c **** LodePNG version 20201017
   3:lvgl/src/extra/libs/png/lodepng.c **** 
   4:lvgl/src/extra/libs/png/lodepng.c **** Copyright (c) 2005-2020 Lode Vandevenne
   5:lvgl/src/extra/libs/png/lodepng.c **** 
   6:lvgl/src/extra/libs/png/lodepng.c **** This software is provided 'as-is', without any express or implied
   7:lvgl/src/extra/libs/png/lodepng.c **** warranty. In no event will the authors be held liable for any damages
   8:lvgl/src/extra/libs/png/lodepng.c **** arising from the use of this software.
   9:lvgl/src/extra/libs/png/lodepng.c **** 
  10:lvgl/src/extra/libs/png/lodepng.c **** Permission is granted to anyone to use this software for any purpose,
  11:lvgl/src/extra/libs/png/lodepng.c **** including commercial applications, and to alter it and redistribute it
  12:lvgl/src/extra/libs/png/lodepng.c **** freely, subject to the following restrictions:
  13:lvgl/src/extra/libs/png/lodepng.c **** 
  14:lvgl/src/extra/libs/png/lodepng.c ****     1. The origin of this software must not be misrepresented; you must not
  15:lvgl/src/extra/libs/png/lodepng.c ****     claim that you wrote the original software. If you use this software
  16:lvgl/src/extra/libs/png/lodepng.c ****     in a product, an acknowledgment in the product documentation would be
  17:lvgl/src/extra/libs/png/lodepng.c ****     appreciated but is not required.
  18:lvgl/src/extra/libs/png/lodepng.c **** 
  19:lvgl/src/extra/libs/png/lodepng.c ****     2. Altered source versions must be plainly marked as such, and must not be
  20:lvgl/src/extra/libs/png/lodepng.c ****     misrepresented as being the original software.
  21:lvgl/src/extra/libs/png/lodepng.c **** 
  22:lvgl/src/extra/libs/png/lodepng.c ****     3. This notice may not be removed or altered from any source
  23:lvgl/src/extra/libs/png/lodepng.c ****     distribution.
  24:lvgl/src/extra/libs/png/lodepng.c **** */
  25:lvgl/src/extra/libs/png/lodepng.c **** 
  26:lvgl/src/extra/libs/png/lodepng.c **** /*
  27:lvgl/src/extra/libs/png/lodepng.c **** The manual and changelog are in the header file "lodepng.h"
  28:lvgl/src/extra/libs/png/lodepng.c **** Rename this file to lodepng.cpp to use it for C++, or to lodepng.c to use it for C.
  29:lvgl/src/extra/libs/png/lodepng.c **** */
  30:lvgl/src/extra/libs/png/lodepng.c **** 
  31:lvgl/src/extra/libs/png/lodepng.c **** #include "lodepng.h"
ARM GAS  C:\usertemp\cc6W5uFK.s 			page 2


  32:lvgl/src/extra/libs/png/lodepng.c **** #if LV_USE_PNG
  33:lvgl/src/extra/libs/png/lodepng.c **** 
  34:lvgl/src/extra/libs/png/lodepng.c **** #ifdef LODEPNG_COMPILE_DISK
  35:lvgl/src/extra/libs/png/lodepng.c **** #include <limits.h> /* LONG_MAX */
  36:lvgl/src/extra/libs/png/lodepng.c **** #endif /* LODEPNG_COMPILE_DISK */
  37:lvgl/src/extra/libs/png/lodepng.c **** 
  38:lvgl/src/extra/libs/png/lodepng.c **** #ifdef LODEPNG_COMPILE_ALLOCATORS
  39:lvgl/src/extra/libs/png/lodepng.c **** #include <stdlib.h> /* allocations */
  40:lvgl/src/extra/libs/png/lodepng.c **** #endif /* LODEPNG_COMPILE_ALLOCATORS */
  41:lvgl/src/extra/libs/png/lodepng.c **** 
  42:lvgl/src/extra/libs/png/lodepng.c **** #if defined(_MSC_VER) && (_MSC_VER >= 1310) /*Visual Studio: A few warning types are not desired he
  43:lvgl/src/extra/libs/png/lodepng.c **** #pragma warning( disable : 4244 ) /*implicit conversions: not warned by gcc -Wall -Wextra and requi
  44:lvgl/src/extra/libs/png/lodepng.c **** #pragma warning( disable : 4996 ) /*VS does not like fopen, but fopen_s is not standard C so unusab
  45:lvgl/src/extra/libs/png/lodepng.c **** #endif /*_MSC_VER */
  46:lvgl/src/extra/libs/png/lodepng.c **** 
  47:lvgl/src/extra/libs/png/lodepng.c **** const char* LODEPNG_VERSION_STRING = "20201017";
  48:lvgl/src/extra/libs/png/lodepng.c **** 
  49:lvgl/src/extra/libs/png/lodepng.c **** /*
  50:lvgl/src/extra/libs/png/lodepng.c **** This source file is built up in the following large parts. The code sections
  51:lvgl/src/extra/libs/png/lodepng.c **** with the "LODEPNG_COMPILE_" #defines divide this up further in an intermixed way.
  52:lvgl/src/extra/libs/png/lodepng.c **** -Tools for C and common code for PNG and Zlib
  53:lvgl/src/extra/libs/png/lodepng.c **** -C Code for Zlib (huffman, deflate, ...)
  54:lvgl/src/extra/libs/png/lodepng.c **** -C Code for PNG (file format chunks, adam7, PNG filters, color conversions, ...)
  55:lvgl/src/extra/libs/png/lodepng.c **** -The C++ wrapper around all of the above
  56:lvgl/src/extra/libs/png/lodepng.c **** */
  57:lvgl/src/extra/libs/png/lodepng.c **** 
  58:lvgl/src/extra/libs/png/lodepng.c **** /* ////////////////////////////////////////////////////////////////////////// */
  59:lvgl/src/extra/libs/png/lodepng.c **** /* ////////////////////////////////////////////////////////////////////////// */
  60:lvgl/src/extra/libs/png/lodepng.c **** /* // Tools for C, and common code for PNG and Zlib.                       // */
  61:lvgl/src/extra/libs/png/lodepng.c **** /* ////////////////////////////////////////////////////////////////////////// */
  62:lvgl/src/extra/libs/png/lodepng.c **** /* ////////////////////////////////////////////////////////////////////////// */
  63:lvgl/src/extra/libs/png/lodepng.c **** 
  64:lvgl/src/extra/libs/png/lodepng.c **** /*The malloc, realloc and free functions defined here with "lodepng_" in front
  65:lvgl/src/extra/libs/png/lodepng.c **** of the name, so that you can easily change them to others related to your
  66:lvgl/src/extra/libs/png/lodepng.c **** platform if needed. Everything else in the code calls these. Pass
  67:lvgl/src/extra/libs/png/lodepng.c **** -DLODEPNG_NO_COMPILE_ALLOCATORS to the compiler, or comment out
  68:lvgl/src/extra/libs/png/lodepng.c **** #define LODEPNG_COMPILE_ALLOCATORS in the header, to disable the ones here and
  69:lvgl/src/extra/libs/png/lodepng.c **** define them in your own project's source files without needing to change
  70:lvgl/src/extra/libs/png/lodepng.c **** lodepng source code. Don't forget to remove "static" if you copypaste them
  71:lvgl/src/extra/libs/png/lodepng.c **** from here.*/
  72:lvgl/src/extra/libs/png/lodepng.c **** 
  73:lvgl/src/extra/libs/png/lodepng.c **** #ifdef LODEPNG_COMPILE_ALLOCATORS
  74:lvgl/src/extra/libs/png/lodepng.c **** static void* lodepng_malloc(size_t size) {
  75:lvgl/src/extra/libs/png/lodepng.c **** #ifdef LODEPNG_MAX_ALLOC
  76:lvgl/src/extra/libs/png/lodepng.c ****   if(size > LODEPNG_MAX_ALLOC) return 0;
  77:lvgl/src/extra/libs/png/lodepng.c **** #endif
  78:lvgl/src/extra/libs/png/lodepng.c ****   return lv_mem_alloc(size);
  79:lvgl/src/extra/libs/png/lodepng.c **** }
  80:lvgl/src/extra/libs/png/lodepng.c **** 
  81:lvgl/src/extra/libs/png/lodepng.c **** /* NOTE: when realloc returns NULL, it leaves the original memory untouched */
  82:lvgl/src/extra/libs/png/lodepng.c **** static void* lodepng_realloc(void* ptr, size_t new_size) {
  83:lvgl/src/extra/libs/png/lodepng.c **** #ifdef LODEPNG_MAX_ALLOC
  84:lvgl/src/extra/libs/png/lodepng.c ****   if(new_size > LODEPNG_MAX_ALLOC) return 0;
  85:lvgl/src/extra/libs/png/lodepng.c **** #endif
  86:lvgl/src/extra/libs/png/lodepng.c ****   return lv_mem_realloc(ptr, new_size);
  87:lvgl/src/extra/libs/png/lodepng.c **** }
  88:lvgl/src/extra/libs/png/lodepng.c **** 
ARM GAS  C:\usertemp\cc6W5uFK.s 			page 3


  89:lvgl/src/extra/libs/png/lodepng.c **** static void lodepng_free(void* ptr) {
  90:lvgl/src/extra/libs/png/lodepng.c ****   lv_mem_free(ptr);
  91:lvgl/src/extra/libs/png/lodepng.c **** }
  92:lvgl/src/extra/libs/png/lodepng.c **** #else /*LODEPNG_COMPILE_ALLOCATORS*/
  93:lvgl/src/extra/libs/png/lodepng.c **** /* TODO: support giving additional void* payload to the custom allocators */
  94:lvgl/src/extra/libs/png/lodepng.c **** void* lodepng_malloc(size_t size);
  95:lvgl/src/extra/libs/png/lodepng.c **** void* lodepng_realloc(void* ptr, size_t new_size);
  96:lvgl/src/extra/libs/png/lodepng.c **** void lodepng_free(void* ptr);
  97:lvgl/src/extra/libs/png/lodepng.c **** #endif /*LODEPNG_COMPILE_ALLOCATORS*/
  98:lvgl/src/extra/libs/png/lodepng.c **** 
  99:lvgl/src/extra/libs/png/lodepng.c **** /* convince the compiler to inline a function, for use when this measurably improves performance */
 100:lvgl/src/extra/libs/png/lodepng.c **** /* inline is not available in C90, but use it when supported by the compiler */
 101:lvgl/src/extra/libs/png/lodepng.c **** #if (defined(__STDC_VERSION__) && (__STDC_VERSION__ >= 199901L)) || (defined(__cplusplus) && (__cpl
 102:lvgl/src/extra/libs/png/lodepng.c **** #define LODEPNG_INLINE inline
 103:lvgl/src/extra/libs/png/lodepng.c **** #else
 104:lvgl/src/extra/libs/png/lodepng.c **** #define LODEPNG_INLINE /* not available */
 105:lvgl/src/extra/libs/png/lodepng.c **** #endif
 106:lvgl/src/extra/libs/png/lodepng.c **** 
 107:lvgl/src/extra/libs/png/lodepng.c **** /* restrict is not available in C90, but use it when supported by the compiler */
 108:lvgl/src/extra/libs/png/lodepng.c **** #if (defined(__GNUC__) && (__GNUC__ > 3 || (__GNUC__ == 3 && __GNUC_MINOR__ >= 1))) ||\
 109:lvgl/src/extra/libs/png/lodepng.c ****     (defined(_MSC_VER) && (_MSC_VER >= 1400)) || \
 110:lvgl/src/extra/libs/png/lodepng.c ****     (defined(__WATCOMC__) && (__WATCOMC__ >= 1250) && !defined(__cplusplus))
 111:lvgl/src/extra/libs/png/lodepng.c **** #define LODEPNG_RESTRICT __restrict
 112:lvgl/src/extra/libs/png/lodepng.c **** #else
 113:lvgl/src/extra/libs/png/lodepng.c **** #define LODEPNG_RESTRICT /* not available */
 114:lvgl/src/extra/libs/png/lodepng.c **** #endif
 115:lvgl/src/extra/libs/png/lodepng.c **** 
 116:lvgl/src/extra/libs/png/lodepng.c **** /* Replacements for C library functions such as memcpy and strlen, to support platforms
 117:lvgl/src/extra/libs/png/lodepng.c **** where a full C library is not available. The compiler can recognize them and compile
 118:lvgl/src/extra/libs/png/lodepng.c **** to something as fast. */
 119:lvgl/src/extra/libs/png/lodepng.c **** 
 120:lvgl/src/extra/libs/png/lodepng.c **** static void lodepng_memcpy(void* LODEPNG_RESTRICT dst,
 121:lvgl/src/extra/libs/png/lodepng.c ****                            const void* LODEPNG_RESTRICT src, size_t size) {
  28              		.loc 1 121 75 view -0
  29              		.cfi_startproc
  30              		@ args = 0, pretend = 0, frame = 0
  31              		@ frame_needed = 0, uses_anonymous_args = 0
  32              		@ link register save eliminated.
 122:lvgl/src/extra/libs/png/lodepng.c ****   size_t i;
  33              		.loc 1 122 3 view .LVU1
 123:lvgl/src/extra/libs/png/lodepng.c ****   for(i = 0; i < size; i++) ((char*)dst)[i] = ((const char*)src)[i];
  34              		.loc 1 123 3 view .LVU2
  35              		.loc 1 123 9 is_stmt 0 view .LVU3
  36 0000 0023     		movs	r3, #0
  37              		.loc 1 123 3 view .LVU4
  38 0002 04E0     		b	.L2
  39              	.LVL1:
  40              	.L3:
  41              		.loc 1 123 29 is_stmt 1 discriminator 3 view .LVU5
  42              		.loc 1 123 65 is_stmt 0 discriminator 3 view .LVU6
  43 0004 11F803C0 		ldrb	ip, [r1, r3]	@ zero_extendqisi2
  44              		.loc 1 123 45 discriminator 3 view .LVU7
  45 0008 00F803C0 		strb	ip, [r0, r3]
  46              		.loc 1 123 25 is_stmt 1 discriminator 3 view .LVU8
  47 000c 0133     		adds	r3, r3, #1
  48              	.LVL2:
  49              	.L2:
ARM GAS  C:\usertemp\cc6W5uFK.s 			page 4


  50              		.loc 1 123 16 discriminator 1 view .LVU9
  51 000e 9342     		cmp	r3, r2
  52 0010 F8D3     		bcc	.L3
 124:lvgl/src/extra/libs/png/lodepng.c **** }
  53              		.loc 1 124 1 is_stmt 0 view .LVU10
  54 0012 7047     		bx	lr
  55              		.cfi_endproc
  56              	.LFE199:
  58              		.section	.text.lodepng_memset,"ax",%progbits
  59              		.align	1
  60              		.syntax unified
  61              		.thumb
  62              		.thumb_func
  64              	lodepng_memset:
  65              	.LVL3:
  66              	.LFB200:
 125:lvgl/src/extra/libs/png/lodepng.c **** 
 126:lvgl/src/extra/libs/png/lodepng.c **** static void lodepng_memset(void* LODEPNG_RESTRICT dst,
 127:lvgl/src/extra/libs/png/lodepng.c ****                            int value, size_t num) {
  67              		.loc 1 127 51 is_stmt 1 view -0
  68              		.cfi_startproc
  69              		@ args = 0, pretend = 0, frame = 0
  70              		@ frame_needed = 0, uses_anonymous_args = 0
  71              		@ link register save eliminated.
 128:lvgl/src/extra/libs/png/lodepng.c ****   size_t i;
  72              		.loc 1 128 3 view .LVU12
 129:lvgl/src/extra/libs/png/lodepng.c ****   for(i = 0; i < num; i++) ((char*)dst)[i] = (char)value;
  73              		.loc 1 129 3 view .LVU13
  74              		.loc 1 129 9 is_stmt 0 view .LVU14
  75 0000 0023     		movs	r3, #0
  76              		.loc 1 129 3 view .LVU15
  77 0002 01E0     		b	.L5
  78              	.LVL4:
  79              	.L6:
  80              		.loc 1 129 28 is_stmt 1 discriminator 3 view .LVU16
  81              		.loc 1 129 44 is_stmt 0 discriminator 3 view .LVU17
  82 0004 C154     		strb	r1, [r0, r3]
  83              		.loc 1 129 24 is_stmt 1 discriminator 3 view .LVU18
  84 0006 0133     		adds	r3, r3, #1
  85              	.LVL5:
  86              	.L5:
  87              		.loc 1 129 16 discriminator 1 view .LVU19
  88 0008 9342     		cmp	r3, r2
  89 000a FBD3     		bcc	.L6
 130:lvgl/src/extra/libs/png/lodepng.c **** }
  90              		.loc 1 130 1 is_stmt 0 view .LVU20
  91 000c 7047     		bx	lr
  92              		.cfi_endproc
  93              	.LFE200:
  95              		.section	.text.lodepng_strlen,"ax",%progbits
  96              		.align	1
  97              		.syntax unified
  98              		.thumb
  99              		.thumb_func
 101              	lodepng_strlen:
 102              	.LVL6:
 103              	.LFB201:
ARM GAS  C:\usertemp\cc6W5uFK.s 			page 5


 131:lvgl/src/extra/libs/png/lodepng.c **** 
 132:lvgl/src/extra/libs/png/lodepng.c **** /* does not check memory out of bounds, do not use on untrusted data */
 133:lvgl/src/extra/libs/png/lodepng.c **** static size_t lodepng_strlen(const char* a) {
 104              		.loc 1 133 45 is_stmt 1 view -0
 105              		.cfi_startproc
 106              		@ args = 0, pretend = 0, frame = 0
 107              		@ frame_needed = 0, uses_anonymous_args = 0
 108              		@ link register save eliminated.
 134:lvgl/src/extra/libs/png/lodepng.c ****   const char* orig = a;
 109              		.loc 1 134 3 view .LVU22
 135:lvgl/src/extra/libs/png/lodepng.c ****   /* avoid warning about unused function in case of disabled COMPILE... macros */
 136:lvgl/src/extra/libs/png/lodepng.c ****   (void)(&lodepng_strlen);
 110              		.loc 1 136 3 view .LVU23
 137:lvgl/src/extra/libs/png/lodepng.c ****   while(*a) a++;
 111              		.loc 1 137 3 view .LVU24
 112              		.loc 1 137 8 is_stmt 0 view .LVU25
 113 0000 0346     		mov	r3, r0
 114 0002 00E0     		b	.L8
 115              	.LVL7:
 116              	.L9:
 117              		.loc 1 137 13 is_stmt 1 discriminator 2 view .LVU26
 118              		.loc 1 137 14 is_stmt 0 discriminator 2 view .LVU27
 119 0004 0133     		adds	r3, r3, #1
 120              	.LVL8:
 121              	.L8:
 122              		.loc 1 137 9 is_stmt 1 discriminator 1 view .LVU28
 123 0006 1A78     		ldrb	r2, [r3]	@ zero_extendqisi2
 124 0008 002A     		cmp	r2, #0
 125 000a FBD1     		bne	.L9
 138:lvgl/src/extra/libs/png/lodepng.c ****   return (size_t)(a - orig);
 126              		.loc 1 138 3 view .LVU29
 139:lvgl/src/extra/libs/png/lodepng.c **** }
 127              		.loc 1 139 1 is_stmt 0 view .LVU30
 128 000c 181A     		subs	r0, r3, r0
 129              	.LVL9:
 130              		.loc 1 139 1 view .LVU31
 131 000e 7047     		bx	lr
 132              		.cfi_endproc
 133              	.LFE201:
 135              		.section	.text.lodepng_addofl,"ax",%progbits
 136              		.align	1
 137              		.syntax unified
 138              		.thumb
 139              		.thumb_func
 141              	lodepng_addofl:
 142              	.LVL10:
 143              	.LFB202:
 140:lvgl/src/extra/libs/png/lodepng.c **** 
 141:lvgl/src/extra/libs/png/lodepng.c **** #define LODEPNG_MAX(a, b) (((a) > (b)) ? (a) : (b))
 142:lvgl/src/extra/libs/png/lodepng.c **** #define LODEPNG_MIN(a, b) (((a) < (b)) ? (a) : (b))
 143:lvgl/src/extra/libs/png/lodepng.c **** #define LODEPNG_ABS(x) ((x) < 0 ? -(x) : (x))
 144:lvgl/src/extra/libs/png/lodepng.c **** 
 145:lvgl/src/extra/libs/png/lodepng.c **** #if defined(LODEPNG_COMPILE_PNG) || defined(LODEPNG_COMPILE_DECODER)
 146:lvgl/src/extra/libs/png/lodepng.c **** /* Safely check if adding two integers will overflow (no undefined
 147:lvgl/src/extra/libs/png/lodepng.c **** behavior, compiler removing the code, etc...) and output result. */
 148:lvgl/src/extra/libs/png/lodepng.c **** static int lodepng_addofl(size_t a, size_t b, size_t* result) {
 144              		.loc 1 148 63 is_stmt 1 view -0
ARM GAS  C:\usertemp\cc6W5uFK.s 			page 6


 145              		.cfi_startproc
 146              		@ args = 0, pretend = 0, frame = 0
 147              		@ frame_needed = 0, uses_anonymous_args = 0
 148              		@ link register save eliminated.
 149:lvgl/src/extra/libs/png/lodepng.c ****   *result = a + b; /* Unsigned addition is well defined and safe in C90 */
 149              		.loc 1 149 3 view .LVU33
 150              		.loc 1 149 15 is_stmt 0 view .LVU34
 151 0000 0144     		add	r1, r1, r0
 152              	.LVL11:
 153              		.loc 1 149 11 view .LVU35
 154 0002 1160     		str	r1, [r2]
 150:lvgl/src/extra/libs/png/lodepng.c ****   return *result < a;
 155              		.loc 1 150 3 is_stmt 1 view .LVU36
 151:lvgl/src/extra/libs/png/lodepng.c **** }
 156              		.loc 1 151 1 is_stmt 0 view .LVU37
 157 0004 8142     		cmp	r1, r0
 158 0006 2CBF     		ite	cs
 159 0008 0020     		movcs	r0, #0
 160              	.LVL12:
 161              		.loc 1 151 1 view .LVU38
 162 000a 0120     		movcc	r0, #1
 163 000c 7047     		bx	lr
 164              		.cfi_endproc
 165              	.LFE202:
 167              		.section	.text.lodepng_mulofl,"ax",%progbits
 168              		.align	1
 169              		.syntax unified
 170              		.thumb
 171              		.thumb_func
 173              	lodepng_mulofl:
 174              	.LVL13:
 175              	.LFB203:
 152:lvgl/src/extra/libs/png/lodepng.c **** #endif /*defined(LODEPNG_COMPILE_PNG) || defined(LODEPNG_COMPILE_DECODER)*/
 153:lvgl/src/extra/libs/png/lodepng.c **** 
 154:lvgl/src/extra/libs/png/lodepng.c **** #ifdef LODEPNG_COMPILE_DECODER
 155:lvgl/src/extra/libs/png/lodepng.c **** /* Safely check if multiplying two integers will overflow (no undefined
 156:lvgl/src/extra/libs/png/lodepng.c **** behavior, compiler removing the code, etc...) and output result. */
 157:lvgl/src/extra/libs/png/lodepng.c **** static int lodepng_mulofl(size_t a, size_t b, size_t* result) {
 176              		.loc 1 157 63 is_stmt 1 view -0
 177              		.cfi_startproc
 178              		@ args = 0, pretend = 0, frame = 0
 179              		@ frame_needed = 0, uses_anonymous_args = 0
 180              		@ link register save eliminated.
 158:lvgl/src/extra/libs/png/lodepng.c ****   *result = a * b; /* Unsigned multiplication is well defined and safe in C90 */
 181              		.loc 1 158 3 view .LVU40
 182              		.loc 1 158 15 is_stmt 0 view .LVU41
 183 0000 01FB00F3 		mul	r3, r1, r0
 184              		.loc 1 158 11 view .LVU42
 185 0004 1360     		str	r3, [r2]
 159:lvgl/src/extra/libs/png/lodepng.c ****   return (a != 0 && *result / a != b);
 186              		.loc 1 159 3 is_stmt 1 view .LVU43
 187              		.loc 1 159 18 is_stmt 0 view .LVU44
 188 0006 38B1     		cbz	r0, .L13
 189              		.loc 1 159 29 discriminator 1 view .LVU45
 190 0008 B3FBF0F3 		udiv	r3, r3, r0
 191              		.loc 1 159 18 discriminator 1 view .LVU46
 192 000c 8B42     		cmp	r3, r1
ARM GAS  C:\usertemp\cc6W5uFK.s 			page 7


 193 000e 01D0     		beq	.L15
 194              		.loc 1 159 18 discriminator 3 view .LVU47
 195 0010 0120     		movs	r0, #1
 196              	.LVL14:
 160:lvgl/src/extra/libs/png/lodepng.c **** }
 197              		.loc 1 160 1 view .LVU48
 198 0012 7047     		bx	lr
 199              	.LVL15:
 200              	.L15:
 159:lvgl/src/extra/libs/png/lodepng.c ****   return (a != 0 && *result / a != b);
 201              		.loc 1 159 18 discriminator 4 view .LVU49
 202 0014 0020     		movs	r0, #0
 203              	.LVL16:
 159:lvgl/src/extra/libs/png/lodepng.c ****   return (a != 0 && *result / a != b);
 204              		.loc 1 159 18 discriminator 4 view .LVU50
 205 0016 7047     		bx	lr
 206              	.LVL17:
 207              	.L13:
 159:lvgl/src/extra/libs/png/lodepng.c ****   return (a != 0 && *result / a != b);
 208              		.loc 1 159 18 discriminator 4 view .LVU51
 209 0018 0020     		movs	r0, #0
 210              	.LVL18:
 159:lvgl/src/extra/libs/png/lodepng.c ****   return (a != 0 && *result / a != b);
 211              		.loc 1 159 18 discriminator 4 view .LVU52
 212 001a 7047     		bx	lr
 213              		.cfi_endproc
 214              	.LFE203:
 216              		.section	.text.lodepng_gtofl,"ax",%progbits
 217              		.align	1
 218              		.syntax unified
 219              		.thumb
 220              		.thumb_func
 222              	lodepng_gtofl:
 223              	.LVL19:
 224              	.LFB204:
 161:lvgl/src/extra/libs/png/lodepng.c **** 
 162:lvgl/src/extra/libs/png/lodepng.c **** #ifdef LODEPNG_COMPILE_ZLIB
 163:lvgl/src/extra/libs/png/lodepng.c **** /* Safely check if a + b > c, even if overflow could happen. */
 164:lvgl/src/extra/libs/png/lodepng.c **** static int lodepng_gtofl(size_t a, size_t b, size_t c) {
 225              		.loc 1 164 56 is_stmt 1 view -0
 226              		.cfi_startproc
 227              		@ args = 0, pretend = 0, frame = 8
 228              		@ frame_needed = 0, uses_anonymous_args = 0
 229              		.loc 1 164 56 is_stmt 0 view .LVU54
 230 0000 10B5     		push	{r4, lr}
 231              	.LCFI0:
 232              		.cfi_def_cfa_offset 8
 233              		.cfi_offset 4, -8
 234              		.cfi_offset 14, -4
 235 0002 82B0     		sub	sp, sp, #8
 236              	.LCFI1:
 237              		.cfi_def_cfa_offset 16
 238 0004 1446     		mov	r4, r2
 165:lvgl/src/extra/libs/png/lodepng.c ****   size_t d;
 239              		.loc 1 165 3 is_stmt 1 view .LVU55
 166:lvgl/src/extra/libs/png/lodepng.c ****   if(lodepng_addofl(a, b, &d)) return 1;
 240              		.loc 1 166 3 view .LVU56
ARM GAS  C:\usertemp\cc6W5uFK.s 			page 8


 241              		.loc 1 166 6 is_stmt 0 view .LVU57
 242 0006 01AA     		add	r2, sp, #4
 243              	.LVL20:
 244              		.loc 1 166 6 view .LVU58
 245 0008 FFF7FEFF 		bl	lodepng_addofl
 246              	.LVL21:
 247              		.loc 1 166 5 discriminator 1 view .LVU59
 248 000c 30B9     		cbnz	r0, .L18
 167:lvgl/src/extra/libs/png/lodepng.c ****   return d > c;
 249              		.loc 1 167 3 is_stmt 1 view .LVU60
 250              		.loc 1 167 12 is_stmt 0 view .LVU61
 251 000e 0198     		ldr	r0, [sp, #4]
 252 0010 A042     		cmp	r0, r4
 253 0012 94BF     		ite	ls
 254 0014 0020     		movls	r0, #0
 255 0016 0120     		movhi	r0, #1
 256              	.L16:
 168:lvgl/src/extra/libs/png/lodepng.c **** }
 257              		.loc 1 168 1 view .LVU62
 258 0018 02B0     		add	sp, sp, #8
 259              	.LCFI2:
 260              		.cfi_remember_state
 261              		.cfi_def_cfa_offset 8
 262              		@ sp needed
 263 001a 10BD     		pop	{r4, pc}
 264              	.LVL22:
 265              	.L18:
 266              	.LCFI3:
 267              		.cfi_restore_state
 166:lvgl/src/extra/libs/png/lodepng.c ****   if(lodepng_addofl(a, b, &d)) return 1;
 268              		.loc 1 166 39 discriminator 1 view .LVU63
 269 001c 0120     		movs	r0, #1
 270 001e FBE7     		b	.L16
 271              		.cfi_endproc
 272              	.LFE204:
 274              		.section	.text.uivector_init,"ax",%progbits
 275              		.align	1
 276              		.syntax unified
 277              		.thumb
 278              		.thumb_func
 280              	uivector_init:
 281              	.LVL23:
 282              	.LFB207:
 169:lvgl/src/extra/libs/png/lodepng.c **** #endif /*LODEPNG_COMPILE_ZLIB*/
 170:lvgl/src/extra/libs/png/lodepng.c **** #endif /*LODEPNG_COMPILE_DECODER*/
 171:lvgl/src/extra/libs/png/lodepng.c **** 
 172:lvgl/src/extra/libs/png/lodepng.c **** 
 173:lvgl/src/extra/libs/png/lodepng.c **** /*
 174:lvgl/src/extra/libs/png/lodepng.c **** Often in case of an error a value is assigned to a variable and then it breaks
 175:lvgl/src/extra/libs/png/lodepng.c **** out of a loop (to go to the cleanup phase of a function). This macro does that.
 176:lvgl/src/extra/libs/png/lodepng.c **** It makes the error handling code shorter and more readable.
 177:lvgl/src/extra/libs/png/lodepng.c **** 
 178:lvgl/src/extra/libs/png/lodepng.c **** Example: if(!uivector_resize(&lz77_encoded, datasize)) ERROR_BREAK(83);
 179:lvgl/src/extra/libs/png/lodepng.c **** */
 180:lvgl/src/extra/libs/png/lodepng.c **** #define CERROR_BREAK(errorvar, code){\
 181:lvgl/src/extra/libs/png/lodepng.c ****   errorvar = code;\
 182:lvgl/src/extra/libs/png/lodepng.c ****   break;\
ARM GAS  C:\usertemp\cc6W5uFK.s 			page 9


 183:lvgl/src/extra/libs/png/lodepng.c **** }
 184:lvgl/src/extra/libs/png/lodepng.c **** 
 185:lvgl/src/extra/libs/png/lodepng.c **** /*version of CERROR_BREAK that assumes the common case where the error variable is named "error"*/
 186:lvgl/src/extra/libs/png/lodepng.c **** #define ERROR_BREAK(code) CERROR_BREAK(error, code)
 187:lvgl/src/extra/libs/png/lodepng.c **** 
 188:lvgl/src/extra/libs/png/lodepng.c **** /*Set error var to the error code, and return it.*/
 189:lvgl/src/extra/libs/png/lodepng.c **** #define CERROR_RETURN_ERROR(errorvar, code){\
 190:lvgl/src/extra/libs/png/lodepng.c ****   errorvar = code;\
 191:lvgl/src/extra/libs/png/lodepng.c ****   return code;\
 192:lvgl/src/extra/libs/png/lodepng.c **** }
 193:lvgl/src/extra/libs/png/lodepng.c **** 
 194:lvgl/src/extra/libs/png/lodepng.c **** /*Try the code, if it returns error, also return the error.*/
 195:lvgl/src/extra/libs/png/lodepng.c **** #define CERROR_TRY_RETURN(call){\
 196:lvgl/src/extra/libs/png/lodepng.c ****   unsigned error = call;\
 197:lvgl/src/extra/libs/png/lodepng.c ****   if(error) return error;\
 198:lvgl/src/extra/libs/png/lodepng.c **** }
 199:lvgl/src/extra/libs/png/lodepng.c **** 
 200:lvgl/src/extra/libs/png/lodepng.c **** /*Set error var to the error code, and return from the void function.*/
 201:lvgl/src/extra/libs/png/lodepng.c **** #define CERROR_RETURN(errorvar, code){\
 202:lvgl/src/extra/libs/png/lodepng.c ****   errorvar = code;\
 203:lvgl/src/extra/libs/png/lodepng.c ****   return;\
 204:lvgl/src/extra/libs/png/lodepng.c **** }
 205:lvgl/src/extra/libs/png/lodepng.c **** 
 206:lvgl/src/extra/libs/png/lodepng.c **** /*
 207:lvgl/src/extra/libs/png/lodepng.c **** About uivector, ucvector and string:
 208:lvgl/src/extra/libs/png/lodepng.c **** -All of them wrap dynamic arrays or text strings in a similar way.
 209:lvgl/src/extra/libs/png/lodepng.c **** -LodePNG was originally written in C++. The vectors replace the std::vectors that were used in the 
 210:lvgl/src/extra/libs/png/lodepng.c **** -The string tools are made to avoid problems with compilers that declare things like strncat as dep
 211:lvgl/src/extra/libs/png/lodepng.c **** -They're not used in the interface, only internally in this file as static functions.
 212:lvgl/src/extra/libs/png/lodepng.c **** -As with many other structs in this file, the init and cleanup functions serve as ctor and dtor.
 213:lvgl/src/extra/libs/png/lodepng.c **** */
 214:lvgl/src/extra/libs/png/lodepng.c **** 
 215:lvgl/src/extra/libs/png/lodepng.c **** #ifdef LODEPNG_COMPILE_ZLIB
 216:lvgl/src/extra/libs/png/lodepng.c **** #ifdef LODEPNG_COMPILE_ENCODER
 217:lvgl/src/extra/libs/png/lodepng.c **** /*dynamic vector of unsigned ints*/
 218:lvgl/src/extra/libs/png/lodepng.c **** typedef struct uivector {
 219:lvgl/src/extra/libs/png/lodepng.c ****   unsigned* data;
 220:lvgl/src/extra/libs/png/lodepng.c ****   size_t size; /*size in number of unsigned longs*/
 221:lvgl/src/extra/libs/png/lodepng.c ****   size_t allocsize; /*allocated size in bytes*/
 222:lvgl/src/extra/libs/png/lodepng.c **** } uivector;
 223:lvgl/src/extra/libs/png/lodepng.c **** 
 224:lvgl/src/extra/libs/png/lodepng.c **** static void uivector_cleanup(void* p) {
 225:lvgl/src/extra/libs/png/lodepng.c ****   ((uivector*)p)->size = ((uivector*)p)->allocsize = 0;
 226:lvgl/src/extra/libs/png/lodepng.c ****   lodepng_free(((uivector*)p)->data);
 227:lvgl/src/extra/libs/png/lodepng.c ****   ((uivector*)p)->data = NULL;
 228:lvgl/src/extra/libs/png/lodepng.c **** }
 229:lvgl/src/extra/libs/png/lodepng.c **** 
 230:lvgl/src/extra/libs/png/lodepng.c **** /*returns 1 if success, 0 if failure ==> nothing done*/
 231:lvgl/src/extra/libs/png/lodepng.c **** static unsigned uivector_resize(uivector* p, size_t size) {
 232:lvgl/src/extra/libs/png/lodepng.c ****   size_t allocsize = size * sizeof(unsigned);
 233:lvgl/src/extra/libs/png/lodepng.c ****   if(allocsize > p->allocsize) {
 234:lvgl/src/extra/libs/png/lodepng.c ****     size_t newsize = allocsize + (p->allocsize >> 1u);
 235:lvgl/src/extra/libs/png/lodepng.c ****     void* data = lodepng_realloc(p->data, newsize);
 236:lvgl/src/extra/libs/png/lodepng.c ****     if(data) {
 237:lvgl/src/extra/libs/png/lodepng.c ****       p->allocsize = newsize;
 238:lvgl/src/extra/libs/png/lodepng.c ****       p->data = (unsigned*)data;
 239:lvgl/src/extra/libs/png/lodepng.c ****     }
ARM GAS  C:\usertemp\cc6W5uFK.s 			page 10


 240:lvgl/src/extra/libs/png/lodepng.c ****     else return 0; /*error: not enough memory*/
 241:lvgl/src/extra/libs/png/lodepng.c ****   }
 242:lvgl/src/extra/libs/png/lodepng.c ****   p->size = size;
 243:lvgl/src/extra/libs/png/lodepng.c ****   return 1; /*success*/
 244:lvgl/src/extra/libs/png/lodepng.c **** }
 245:lvgl/src/extra/libs/png/lodepng.c **** 
 246:lvgl/src/extra/libs/png/lodepng.c **** static void uivector_init(uivector* p) {
 283              		.loc 1 246 40 is_stmt 1 view -0
 284              		.cfi_startproc
 285              		@ args = 0, pretend = 0, frame = 0
 286              		@ frame_needed = 0, uses_anonymous_args = 0
 287              		@ link register save eliminated.
 247:lvgl/src/extra/libs/png/lodepng.c ****   p->data = NULL;
 288              		.loc 1 247 3 view .LVU65
 289              		.loc 1 247 11 is_stmt 0 view .LVU66
 290 0000 0023     		movs	r3, #0
 291 0002 0360     		str	r3, [r0]
 248:lvgl/src/extra/libs/png/lodepng.c ****   p->size = p->allocsize = 0;
 292              		.loc 1 248 3 is_stmt 1 view .LVU67
 293              		.loc 1 248 26 is_stmt 0 view .LVU68
 294 0004 8360     		str	r3, [r0, #8]
 295              		.loc 1 248 11 view .LVU69
 296 0006 4360     		str	r3, [r0, #4]
 249:lvgl/src/extra/libs/png/lodepng.c **** }
 297              		.loc 1 249 1 view .LVU70
 298 0008 7047     		bx	lr
 299              		.cfi_endproc
 300              	.LFE207:
 302              		.section	.text.ucvector_init,"ax",%progbits
 303              		.align	1
 304              		.syntax unified
 305              		.thumb
 306              		.thumb_func
 308              	ucvector_init:
 309              	.LVL24:
 310              	.LFB210:
 250:lvgl/src/extra/libs/png/lodepng.c **** 
 251:lvgl/src/extra/libs/png/lodepng.c **** /*returns 1 if success, 0 if failure ==> nothing done*/
 252:lvgl/src/extra/libs/png/lodepng.c **** static unsigned uivector_push_back(uivector* p, unsigned c) {
 253:lvgl/src/extra/libs/png/lodepng.c ****   if(!uivector_resize(p, p->size + 1)) return 0;
 254:lvgl/src/extra/libs/png/lodepng.c ****   p->data[p->size - 1] = c;
 255:lvgl/src/extra/libs/png/lodepng.c ****   return 1;
 256:lvgl/src/extra/libs/png/lodepng.c **** }
 257:lvgl/src/extra/libs/png/lodepng.c **** #endif /*LODEPNG_COMPILE_ENCODER*/
 258:lvgl/src/extra/libs/png/lodepng.c **** #endif /*LODEPNG_COMPILE_ZLIB*/
 259:lvgl/src/extra/libs/png/lodepng.c **** 
 260:lvgl/src/extra/libs/png/lodepng.c **** /* /////////////////////////////////////////////////////////////////////////// */
 261:lvgl/src/extra/libs/png/lodepng.c **** 
 262:lvgl/src/extra/libs/png/lodepng.c **** /*dynamic vector of unsigned chars*/
 263:lvgl/src/extra/libs/png/lodepng.c **** typedef struct ucvector {
 264:lvgl/src/extra/libs/png/lodepng.c ****   unsigned char* data;
 265:lvgl/src/extra/libs/png/lodepng.c ****   size_t size; /*used size*/
 266:lvgl/src/extra/libs/png/lodepng.c ****   size_t allocsize; /*allocated size*/
 267:lvgl/src/extra/libs/png/lodepng.c **** } ucvector;
 268:lvgl/src/extra/libs/png/lodepng.c **** 
 269:lvgl/src/extra/libs/png/lodepng.c **** /*returns 1 if success, 0 if failure ==> nothing done*/
 270:lvgl/src/extra/libs/png/lodepng.c **** static unsigned ucvector_resize(ucvector* p, size_t size) {
ARM GAS  C:\usertemp\cc6W5uFK.s 			page 11


 271:lvgl/src/extra/libs/png/lodepng.c ****   if(size > p->allocsize) {
 272:lvgl/src/extra/libs/png/lodepng.c ****     size_t newsize = size + (p->allocsize >> 1u);
 273:lvgl/src/extra/libs/png/lodepng.c ****     void* data = lodepng_realloc(p->data, newsize);
 274:lvgl/src/extra/libs/png/lodepng.c ****     if(data) {
 275:lvgl/src/extra/libs/png/lodepng.c ****       p->allocsize = newsize;
 276:lvgl/src/extra/libs/png/lodepng.c ****       p->data = (unsigned char*)data;
 277:lvgl/src/extra/libs/png/lodepng.c ****     }
 278:lvgl/src/extra/libs/png/lodepng.c ****     else return 0; /*error: not enough memory*/
 279:lvgl/src/extra/libs/png/lodepng.c ****   }
 280:lvgl/src/extra/libs/png/lodepng.c ****   p->size = size;
 281:lvgl/src/extra/libs/png/lodepng.c ****   return 1; /*success*/
 282:lvgl/src/extra/libs/png/lodepng.c **** }
 283:lvgl/src/extra/libs/png/lodepng.c **** 
 284:lvgl/src/extra/libs/png/lodepng.c **** static ucvector ucvector_init(unsigned char* buffer, size_t size) {
 311              		.loc 1 284 67 is_stmt 1 view -0
 312              		.cfi_startproc
 313              		@ args = 0, pretend = 0, frame = 0
 314              		@ frame_needed = 0, uses_anonymous_args = 0
 315              		@ link register save eliminated.
 285:lvgl/src/extra/libs/png/lodepng.c ****   ucvector v;
 316              		.loc 1 285 3 view .LVU72
 286:lvgl/src/extra/libs/png/lodepng.c ****   v.data = buffer;
 317              		.loc 1 286 3 view .LVU73
 318              		.loc 1 286 10 is_stmt 0 view .LVU74
 319 0000 0160     		str	r1, [r0]
 287:lvgl/src/extra/libs/png/lodepng.c ****   v.allocsize = v.size = size;
 320              		.loc 1 287 3 is_stmt 1 view .LVU75
 321              		.loc 1 287 24 is_stmt 0 view .LVU76
 322 0002 4260     		str	r2, [r0, #4]
 323              		.loc 1 287 15 view .LVU77
 324 0004 8260     		str	r2, [r0, #8]
 288:lvgl/src/extra/libs/png/lodepng.c ****   return v;
 325              		.loc 1 288 3 is_stmt 1 view .LVU78
 289:lvgl/src/extra/libs/png/lodepng.c **** }
 326              		.loc 1 289 1 is_stmt 0 view .LVU79
 327 0006 7047     		bx	lr
 328              		.cfi_endproc
 329              	.LFE210:
 331              		.section	.text.lodepng_read32bitInt,"ax",%progbits
 332              		.align	1
 333              		.syntax unified
 334              		.thumb
 335              		.thumb_func
 337              	lodepng_read32bitInt:
 338              	.LVL25:
 339              	.LFB214:
 290:lvgl/src/extra/libs/png/lodepng.c **** 
 291:lvgl/src/extra/libs/png/lodepng.c **** /* ////////////////////////////////////////////////////////////////////////// */
 292:lvgl/src/extra/libs/png/lodepng.c **** 
 293:lvgl/src/extra/libs/png/lodepng.c **** #ifdef LODEPNG_COMPILE_PNG
 294:lvgl/src/extra/libs/png/lodepng.c **** #ifdef LODEPNG_COMPILE_ANCILLARY_CHUNKS
 295:lvgl/src/extra/libs/png/lodepng.c **** 
 296:lvgl/src/extra/libs/png/lodepng.c **** /*free string pointer and set it to NULL*/
 297:lvgl/src/extra/libs/png/lodepng.c **** static void string_cleanup(char** out) {
 298:lvgl/src/extra/libs/png/lodepng.c ****   lodepng_free(*out);
 299:lvgl/src/extra/libs/png/lodepng.c ****   *out = NULL;
 300:lvgl/src/extra/libs/png/lodepng.c **** }
ARM GAS  C:\usertemp\cc6W5uFK.s 			page 12


 301:lvgl/src/extra/libs/png/lodepng.c **** 
 302:lvgl/src/extra/libs/png/lodepng.c **** /*also appends null termination character*/
 303:lvgl/src/extra/libs/png/lodepng.c **** static char* alloc_string_sized(const char* in, size_t insize) {
 304:lvgl/src/extra/libs/png/lodepng.c ****   char* out = (char*)lodepng_malloc(insize + 1);
 305:lvgl/src/extra/libs/png/lodepng.c ****   if(out) {
 306:lvgl/src/extra/libs/png/lodepng.c ****     lodepng_memcpy(out, in, insize);
 307:lvgl/src/extra/libs/png/lodepng.c ****     out[insize] = 0;
 308:lvgl/src/extra/libs/png/lodepng.c ****   }
 309:lvgl/src/extra/libs/png/lodepng.c ****   return out;
 310:lvgl/src/extra/libs/png/lodepng.c **** }
 311:lvgl/src/extra/libs/png/lodepng.c **** 
 312:lvgl/src/extra/libs/png/lodepng.c **** /* dynamically allocates a new string with a copy of the null terminated input text */
 313:lvgl/src/extra/libs/png/lodepng.c **** static char* alloc_string(const char* in) {
 314:lvgl/src/extra/libs/png/lodepng.c ****   return alloc_string_sized(in, lodepng_strlen(in));
 315:lvgl/src/extra/libs/png/lodepng.c **** }
 316:lvgl/src/extra/libs/png/lodepng.c **** #endif /*LODEPNG_COMPILE_ANCILLARY_CHUNKS*/
 317:lvgl/src/extra/libs/png/lodepng.c **** #endif /*LODEPNG_COMPILE_PNG*/
 318:lvgl/src/extra/libs/png/lodepng.c **** 
 319:lvgl/src/extra/libs/png/lodepng.c **** /* ////////////////////////////////////////////////////////////////////////// */
 320:lvgl/src/extra/libs/png/lodepng.c **** 
 321:lvgl/src/extra/libs/png/lodepng.c **** #if defined(LODEPNG_COMPILE_DECODER) || defined(LODEPNG_COMPILE_PNG)
 322:lvgl/src/extra/libs/png/lodepng.c **** static unsigned lodepng_read32bitInt(const unsigned char* buffer) {
 340              		.loc 1 322 67 is_stmt 1 view -0
 341              		.cfi_startproc
 342              		@ args = 0, pretend = 0, frame = 0
 343              		@ frame_needed = 0, uses_anonymous_args = 0
 344              		@ link register save eliminated.
 323:lvgl/src/extra/libs/png/lodepng.c ****   return (((unsigned)buffer[0] << 24u) | ((unsigned)buffer[1] << 16u) |
 345              		.loc 1 323 3 view .LVU81
 346              		.loc 1 323 28 is_stmt 0 view .LVU82
 347 0000 0278     		ldrb	r2, [r0]	@ zero_extendqisi2
 348              		.loc 1 323 59 view .LVU83
 349 0002 4378     		ldrb	r3, [r0, #1]	@ zero_extendqisi2
 350              		.loc 1 323 63 view .LVU84
 351 0004 1B04     		lsls	r3, r3, #16
 352              		.loc 1 323 40 view .LVU85
 353 0006 43EA0263 		orr	r3, r3, r2, lsl #24
 324:lvgl/src/extra/libs/png/lodepng.c ****          ((unsigned)buffer[2] << 8u) | (unsigned)buffer[3]);
 354              		.loc 1 324 27 view .LVU86
 355 000a 8278     		ldrb	r2, [r0, #2]	@ zero_extendqisi2
 323:lvgl/src/extra/libs/png/lodepng.c ****   return (((unsigned)buffer[0] << 24u) | ((unsigned)buffer[1] << 16u) |
 356              		.loc 1 323 71 view .LVU87
 357 000c 43EA0223 		orr	r3, r3, r2, lsl #8
 358              		.loc 1 324 56 view .LVU88
 359 0010 C078     		ldrb	r0, [r0, #3]	@ zero_extendqisi2
 360              	.LVL26:
 325:lvgl/src/extra/libs/png/lodepng.c **** }
 361              		.loc 1 325 1 view .LVU89
 362 0012 1843     		orrs	r0, r0, r3
 363 0014 7047     		bx	lr
 364              		.cfi_endproc
 365              	.LFE214:
 367              		.section	.text.lodepng_set32bitInt,"ax",%progbits
 368              		.align	1
 369              		.syntax unified
 370              		.thumb
 371              		.thumb_func
ARM GAS  C:\usertemp\cc6W5uFK.s 			page 13


 373              	lodepng_set32bitInt:
 374              	.LVL27:
 375              	.LFB215:
 326:lvgl/src/extra/libs/png/lodepng.c **** #endif /*defined(LODEPNG_COMPILE_DECODER) || defined(LODEPNG_COMPILE_PNG)*/
 327:lvgl/src/extra/libs/png/lodepng.c **** 
 328:lvgl/src/extra/libs/png/lodepng.c **** #if defined(LODEPNG_COMPILE_PNG) || defined(LODEPNG_COMPILE_ENCODER)
 329:lvgl/src/extra/libs/png/lodepng.c **** /*buffer must have at least 4 allocated bytes available*/
 330:lvgl/src/extra/libs/png/lodepng.c **** static void lodepng_set32bitInt(unsigned char* buffer, unsigned value) {
 376              		.loc 1 330 72 is_stmt 1 view -0
 377              		.cfi_startproc
 378              		@ args = 0, pretend = 0, frame = 0
 379              		@ frame_needed = 0, uses_anonymous_args = 0
 380              		@ link register save eliminated.
 331:lvgl/src/extra/libs/png/lodepng.c ****   buffer[0] = (unsigned char)((value >> 24) & 0xff);
 381              		.loc 1 331 3 view .LVU91
 382              		.loc 1 331 15 is_stmt 0 view .LVU92
 383 0000 0B0E     		lsrs	r3, r1, #24
 384              		.loc 1 331 13 view .LVU93
 385 0002 0370     		strb	r3, [r0]
 332:lvgl/src/extra/libs/png/lodepng.c ****   buffer[1] = (unsigned char)((value >> 16) & 0xff);
 386              		.loc 1 332 3 is_stmt 1 view .LVU94
 387              		.loc 1 332 15 is_stmt 0 view .LVU95
 388 0004 C1F30743 		ubfx	r3, r1, #16, #8
 389              		.loc 1 332 13 view .LVU96
 390 0008 4370     		strb	r3, [r0, #1]
 333:lvgl/src/extra/libs/png/lodepng.c ****   buffer[2] = (unsigned char)((value >>  8) & 0xff);
 391              		.loc 1 333 3 is_stmt 1 view .LVU97
 392              		.loc 1 333 15 is_stmt 0 view .LVU98
 393 000a C1F30723 		ubfx	r3, r1, #8, #8
 394              		.loc 1 333 13 view .LVU99
 395 000e 8370     		strb	r3, [r0, #2]
 334:lvgl/src/extra/libs/png/lodepng.c ****   buffer[3] = (unsigned char)((value      ) & 0xff);
 396              		.loc 1 334 3 is_stmt 1 view .LVU100
 397              		.loc 1 334 13 is_stmt 0 view .LVU101
 398 0010 C170     		strb	r1, [r0, #3]
 335:lvgl/src/extra/libs/png/lodepng.c **** }
 399              		.loc 1 335 1 view .LVU102
 400 0012 7047     		bx	lr
 401              		.cfi_endproc
 402              	.LFE215:
 404              		.section	.text.LodePNGBitWriter_init,"ax",%progbits
 405              		.align	1
 406              		.syntax unified
 407              		.thumb
 408              		.thumb_func
 410              	LodePNGBitWriter_init:
 411              	.LVL28:
 412              	.LFB220:
 336:lvgl/src/extra/libs/png/lodepng.c **** #endif /*defined(LODEPNG_COMPILE_PNG) || defined(LODEPNG_COMPILE_ENCODER)*/
 337:lvgl/src/extra/libs/png/lodepng.c **** 
 338:lvgl/src/extra/libs/png/lodepng.c **** /* ////////////////////////////////////////////////////////////////////////// */
 339:lvgl/src/extra/libs/png/lodepng.c **** /* / File IO                                                                / */
 340:lvgl/src/extra/libs/png/lodepng.c **** /* ////////////////////////////////////////////////////////////////////////// */
 341:lvgl/src/extra/libs/png/lodepng.c **** 
 342:lvgl/src/extra/libs/png/lodepng.c **** #ifdef LODEPNG_COMPILE_DISK
 343:lvgl/src/extra/libs/png/lodepng.c **** 
 344:lvgl/src/extra/libs/png/lodepng.c **** /* returns negative value on error. This should be pure C compatible, so no fstat. */
ARM GAS  C:\usertemp\cc6W5uFK.s 			page 14


 345:lvgl/src/extra/libs/png/lodepng.c **** static long lodepng_filesize(const char* filename) {
 346:lvgl/src/extra/libs/png/lodepng.c ****     lv_fs_file_t f;
 347:lvgl/src/extra/libs/png/lodepng.c ****     lv_fs_res_t res = lv_fs_open(&f, filename, LV_FS_MODE_RD);
 348:lvgl/src/extra/libs/png/lodepng.c ****     if(res != LV_FS_RES_OK) return -1;
 349:lvgl/src/extra/libs/png/lodepng.c ****     uint32_t size = 0;
 350:lvgl/src/extra/libs/png/lodepng.c ****     if(lv_fs_seek(&f, 0, LV_FS_SEEK_END) != 0) {
 351:lvgl/src/extra/libs/png/lodepng.c ****       lv_fs_close(&f);
 352:lvgl/src/extra/libs/png/lodepng.c ****       return -1;
 353:lvgl/src/extra/libs/png/lodepng.c ****     }
 354:lvgl/src/extra/libs/png/lodepng.c **** 
 355:lvgl/src/extra/libs/png/lodepng.c ****     lv_fs_tell(&f, &size);
 356:lvgl/src/extra/libs/png/lodepng.c ****     lv_fs_close(&f);
 357:lvgl/src/extra/libs/png/lodepng.c ****     return size;
 358:lvgl/src/extra/libs/png/lodepng.c **** }
 359:lvgl/src/extra/libs/png/lodepng.c **** 
 360:lvgl/src/extra/libs/png/lodepng.c **** /* load file into buffer that already has the correct allocated size. Returns error code.*/
 361:lvgl/src/extra/libs/png/lodepng.c **** static unsigned lodepng_buffer_file(unsigned char* out, size_t size, const char* filename) {
 362:lvgl/src/extra/libs/png/lodepng.c ****     lv_fs_file_t f;
 363:lvgl/src/extra/libs/png/lodepng.c ****     lv_fs_res_t res = lv_fs_open(&f, filename, LV_FS_MODE_RD);
 364:lvgl/src/extra/libs/png/lodepng.c ****     if(res != LV_FS_RES_OK) return 78;
 365:lvgl/src/extra/libs/png/lodepng.c **** 
 366:lvgl/src/extra/libs/png/lodepng.c ****     uint32_t br;
 367:lvgl/src/extra/libs/png/lodepng.c ****     res = lv_fs_read(&f, out, size, &br);
 368:lvgl/src/extra/libs/png/lodepng.c ****     if(res != LV_FS_RES_OK) return 78;
 369:lvgl/src/extra/libs/png/lodepng.c ****     if (br != size) return 78;
 370:lvgl/src/extra/libs/png/lodepng.c ****     lv_fs_close(&f);
 371:lvgl/src/extra/libs/png/lodepng.c ****     return 0;
 372:lvgl/src/extra/libs/png/lodepng.c **** }
 373:lvgl/src/extra/libs/png/lodepng.c **** 
 374:lvgl/src/extra/libs/png/lodepng.c **** unsigned lodepng_load_file(unsigned char** out, size_t* outsize, const char* filename) {
 375:lvgl/src/extra/libs/png/lodepng.c ****   long size = lodepng_filesize(filename);
 376:lvgl/src/extra/libs/png/lodepng.c ****   if(size < 0) return 78;
 377:lvgl/src/extra/libs/png/lodepng.c ****   *outsize = (size_t)size;
 378:lvgl/src/extra/libs/png/lodepng.c **** 
 379:lvgl/src/extra/libs/png/lodepng.c ****   *out = (unsigned char*)lodepng_malloc((size_t)size);
 380:lvgl/src/extra/libs/png/lodepng.c ****   if(!(*out) && size > 0) return 83; /*the above malloc failed*/
 381:lvgl/src/extra/libs/png/lodepng.c **** 
 382:lvgl/src/extra/libs/png/lodepng.c ****   return lodepng_buffer_file(*out, (size_t)size, filename);
 383:lvgl/src/extra/libs/png/lodepng.c **** }
 384:lvgl/src/extra/libs/png/lodepng.c **** 
 385:lvgl/src/extra/libs/png/lodepng.c **** /*write given buffer to the file, overwriting the file, it doesn't append to it.*/
 386:lvgl/src/extra/libs/png/lodepng.c **** unsigned lodepng_save_file(const unsigned char* buffer, size_t buffersize, const char* filename) {
 387:lvgl/src/extra/libs/png/lodepng.c ****   lv_fs_file_t f;
 388:lvgl/src/extra/libs/png/lodepng.c ****   lv_fs_res_t res = lv_fs_open(&f, filename, LV_FS_MODE_WR);
 389:lvgl/src/extra/libs/png/lodepng.c ****   if(res != LV_FS_RES_OK) return 79;
 390:lvgl/src/extra/libs/png/lodepng.c **** 
 391:lvgl/src/extra/libs/png/lodepng.c ****   uint32_t bw;
 392:lvgl/src/extra/libs/png/lodepng.c ****   res = lv_fs_write(&f, buffer, buffersize, &bw);
 393:lvgl/src/extra/libs/png/lodepng.c ****   lv_fs_close(&f);
 394:lvgl/src/extra/libs/png/lodepng.c ****   return 0;
 395:lvgl/src/extra/libs/png/lodepng.c **** }
 396:lvgl/src/extra/libs/png/lodepng.c **** 
 397:lvgl/src/extra/libs/png/lodepng.c **** #endif /*LODEPNG_COMPILE_DISK*/
 398:lvgl/src/extra/libs/png/lodepng.c **** 
 399:lvgl/src/extra/libs/png/lodepng.c **** /* ////////////////////////////////////////////////////////////////////////// */
 400:lvgl/src/extra/libs/png/lodepng.c **** /* ////////////////////////////////////////////////////////////////////////// */
 401:lvgl/src/extra/libs/png/lodepng.c **** /* // End of common code and tools. Begin of Zlib related code.            // */
ARM GAS  C:\usertemp\cc6W5uFK.s 			page 15


 402:lvgl/src/extra/libs/png/lodepng.c **** /* ////////////////////////////////////////////////////////////////////////// */
 403:lvgl/src/extra/libs/png/lodepng.c **** /* ////////////////////////////////////////////////////////////////////////// */
 404:lvgl/src/extra/libs/png/lodepng.c **** 
 405:lvgl/src/extra/libs/png/lodepng.c **** #ifdef LODEPNG_COMPILE_ZLIB
 406:lvgl/src/extra/libs/png/lodepng.c **** #ifdef LODEPNG_COMPILE_ENCODER
 407:lvgl/src/extra/libs/png/lodepng.c **** 
 408:lvgl/src/extra/libs/png/lodepng.c **** typedef struct {
 409:lvgl/src/extra/libs/png/lodepng.c ****   ucvector* data;
 410:lvgl/src/extra/libs/png/lodepng.c ****   unsigned char bp; /*ok to overflow, indicates bit pos inside byte*/
 411:lvgl/src/extra/libs/png/lodepng.c **** } LodePNGBitWriter;
 412:lvgl/src/extra/libs/png/lodepng.c **** 
 413:lvgl/src/extra/libs/png/lodepng.c **** static void LodePNGBitWriter_init(LodePNGBitWriter* writer, ucvector* data) {
 413              		.loc 1 413 77 is_stmt 1 view -0
 414              		.cfi_startproc
 415              		@ args = 0, pretend = 0, frame = 0
 416              		@ frame_needed = 0, uses_anonymous_args = 0
 417              		@ link register save eliminated.
 414:lvgl/src/extra/libs/png/lodepng.c ****   writer->data = data;
 418              		.loc 1 414 3 view .LVU104
 419              		.loc 1 414 16 is_stmt 0 view .LVU105
 420 0000 0160     		str	r1, [r0]
 415:lvgl/src/extra/libs/png/lodepng.c ****   writer->bp = 0;
 421              		.loc 1 415 3 is_stmt 1 view .LVU106
 422              		.loc 1 415 14 is_stmt 0 view .LVU107
 423 0002 0023     		movs	r3, #0
 424 0004 0371     		strb	r3, [r0, #4]
 416:lvgl/src/extra/libs/png/lodepng.c **** }
 425              		.loc 1 416 1 view .LVU108
 426 0006 7047     		bx	lr
 427              		.cfi_endproc
 428              	.LFE220:
 430              		.section	.text.LodePNGBitReader_init,"ax",%progbits
 431              		.align	1
 432              		.syntax unified
 433              		.thumb
 434              		.thumb_func
 436              	LodePNGBitReader_init:
 437              	.LVL29:
 438              	.LFB223:
 417:lvgl/src/extra/libs/png/lodepng.c **** 
 418:lvgl/src/extra/libs/png/lodepng.c **** /*TODO: this ignores potential out of memory errors*/
 419:lvgl/src/extra/libs/png/lodepng.c **** #define WRITEBIT(writer, bit){\
 420:lvgl/src/extra/libs/png/lodepng.c ****   /* append new byte */\
 421:lvgl/src/extra/libs/png/lodepng.c ****   if(((writer->bp) & 7u) == 0) {\
 422:lvgl/src/extra/libs/png/lodepng.c ****     if(!ucvector_resize(writer->data, writer->data->size + 1)) return;\
 423:lvgl/src/extra/libs/png/lodepng.c ****     writer->data->data[writer->data->size - 1] = 0;\
 424:lvgl/src/extra/libs/png/lodepng.c ****   }\
 425:lvgl/src/extra/libs/png/lodepng.c ****   (writer->data->data[writer->data->size - 1]) |= (bit << ((writer->bp) & 7u));\
 426:lvgl/src/extra/libs/png/lodepng.c ****   ++writer->bp;\
 427:lvgl/src/extra/libs/png/lodepng.c **** }
 428:lvgl/src/extra/libs/png/lodepng.c **** 
 429:lvgl/src/extra/libs/png/lodepng.c **** /* LSB of value is written first, and LSB of bytes is used first */
 430:lvgl/src/extra/libs/png/lodepng.c **** static void writeBits(LodePNGBitWriter* writer, unsigned value, size_t nbits) {
 431:lvgl/src/extra/libs/png/lodepng.c ****   if(nbits == 1) { /* compiler should statically compile this case if nbits == 1 */
 432:lvgl/src/extra/libs/png/lodepng.c ****     WRITEBIT(writer, value);
 433:lvgl/src/extra/libs/png/lodepng.c ****   } else {
 434:lvgl/src/extra/libs/png/lodepng.c ****     /* TODO: increase output size only once here rather than in each WRITEBIT */
ARM GAS  C:\usertemp\cc6W5uFK.s 			page 16


 435:lvgl/src/extra/libs/png/lodepng.c ****     size_t i;
 436:lvgl/src/extra/libs/png/lodepng.c ****     for(i = 0; i != nbits; ++i) {
 437:lvgl/src/extra/libs/png/lodepng.c ****       WRITEBIT(writer, (unsigned char)((value >> i) & 1));
 438:lvgl/src/extra/libs/png/lodepng.c ****     }
 439:lvgl/src/extra/libs/png/lodepng.c ****   }
 440:lvgl/src/extra/libs/png/lodepng.c **** }
 441:lvgl/src/extra/libs/png/lodepng.c **** 
 442:lvgl/src/extra/libs/png/lodepng.c **** /* This one is to use for adding huffman symbol, the value bits are written MSB first */
 443:lvgl/src/extra/libs/png/lodepng.c **** static void writeBitsReversed(LodePNGBitWriter* writer, unsigned value, size_t nbits) {
 444:lvgl/src/extra/libs/png/lodepng.c ****   size_t i;
 445:lvgl/src/extra/libs/png/lodepng.c ****   for(i = 0; i != nbits; ++i) {
 446:lvgl/src/extra/libs/png/lodepng.c ****     /* TODO: increase output size only once here rather than in each WRITEBIT */
 447:lvgl/src/extra/libs/png/lodepng.c ****     WRITEBIT(writer, (unsigned char)((value >> (nbits - 1u - i)) & 1u));
 448:lvgl/src/extra/libs/png/lodepng.c ****   }
 449:lvgl/src/extra/libs/png/lodepng.c **** }
 450:lvgl/src/extra/libs/png/lodepng.c **** #endif /*LODEPNG_COMPILE_ENCODER*/
 451:lvgl/src/extra/libs/png/lodepng.c **** 
 452:lvgl/src/extra/libs/png/lodepng.c **** #ifdef LODEPNG_COMPILE_DECODER
 453:lvgl/src/extra/libs/png/lodepng.c **** 
 454:lvgl/src/extra/libs/png/lodepng.c **** typedef struct {
 455:lvgl/src/extra/libs/png/lodepng.c ****   const unsigned char* data;
 456:lvgl/src/extra/libs/png/lodepng.c ****   size_t size; /*size of data in bytes*/
 457:lvgl/src/extra/libs/png/lodepng.c ****   size_t bitsize; /*size of data in bits, end of valid bp values, should be 8*size*/
 458:lvgl/src/extra/libs/png/lodepng.c ****   size_t bp;
 459:lvgl/src/extra/libs/png/lodepng.c ****   unsigned buffer; /*buffer for reading bits. NOTE: 'unsigned' must support at least 32 bits*/
 460:lvgl/src/extra/libs/png/lodepng.c **** } LodePNGBitReader;
 461:lvgl/src/extra/libs/png/lodepng.c **** 
 462:lvgl/src/extra/libs/png/lodepng.c **** /* data size argument is in bytes. Returns error if size too large causing overflow */
 463:lvgl/src/extra/libs/png/lodepng.c **** static unsigned LodePNGBitReader_init(LodePNGBitReader* reader, const unsigned char* data, size_t s
 439              		.loc 1 463 105 is_stmt 1 view -0
 440              		.cfi_startproc
 441              		@ args = 0, pretend = 0, frame = 8
 442              		@ frame_needed = 0, uses_anonymous_args = 0
 443              		.loc 1 463 105 is_stmt 0 view .LVU110
 444 0000 10B5     		push	{r4, lr}
 445              	.LCFI4:
 446              		.cfi_def_cfa_offset 8
 447              		.cfi_offset 4, -8
 448              		.cfi_offset 14, -4
 449 0002 82B0     		sub	sp, sp, #8
 450              	.LCFI5:
 451              		.cfi_def_cfa_offset 16
 452 0004 0446     		mov	r4, r0
 453 0006 1046     		mov	r0, r2
 454              	.LVL30:
 464:lvgl/src/extra/libs/png/lodepng.c ****   size_t temp;
 455              		.loc 1 464 3 is_stmt 1 view .LVU111
 465:lvgl/src/extra/libs/png/lodepng.c ****   reader->data = data;
 456              		.loc 1 465 3 view .LVU112
 457              		.loc 1 465 16 is_stmt 0 view .LVU113
 458 0008 2160     		str	r1, [r4]
 466:lvgl/src/extra/libs/png/lodepng.c ****   reader->size = size;
 459              		.loc 1 466 3 is_stmt 1 view .LVU114
 460              		.loc 1 466 16 is_stmt 0 view .LVU115
 461 000a 6260     		str	r2, [r4, #4]
 467:lvgl/src/extra/libs/png/lodepng.c ****   /* size in bits, return error if overflow (if size_t is 32 bit this supports up to 500MB)  */
 468:lvgl/src/extra/libs/png/lodepng.c ****   if(lodepng_mulofl(size, 8u, &reader->bitsize)) return 105;
ARM GAS  C:\usertemp\cc6W5uFK.s 			page 17


 462              		.loc 1 468 3 is_stmt 1 view .LVU116
 463              		.loc 1 468 6 is_stmt 0 view .LVU117
 464 000c 04F10802 		add	r2, r4, #8
 465              	.LVL31:
 466              		.loc 1 468 6 view .LVU118
 467 0010 0821     		movs	r1, #8
 468              	.LVL32:
 469              		.loc 1 468 6 view .LVU119
 470 0012 FFF7FEFF 		bl	lodepng_mulofl
 471              	.LVL33:
 472              		.loc 1 468 5 discriminator 1 view .LVU120
 473 0016 48B9     		cbnz	r0, .L27
 469:lvgl/src/extra/libs/png/lodepng.c ****   /*ensure incremented bp can be compared to bitsize without overflow even when it would be increme
 470:lvgl/src/extra/libs/png/lodepng.c ****   trying to ensure 32 more bits*/
 471:lvgl/src/extra/libs/png/lodepng.c ****   if(lodepng_addofl(reader->bitsize, 64u, &temp)) return 105;
 474              		.loc 1 471 3 is_stmt 1 view .LVU121
 475              		.loc 1 471 6 is_stmt 0 view .LVU122
 476 0018 01AA     		add	r2, sp, #4
 477 001a 4021     		movs	r1, #64
 478 001c A068     		ldr	r0, [r4, #8]
 479 001e FFF7FEFF 		bl	lodepng_addofl
 480              	.LVL34:
 481              		.loc 1 471 5 discriminator 1 view .LVU123
 482 0022 28B9     		cbnz	r0, .L28
 472:lvgl/src/extra/libs/png/lodepng.c ****   reader->bp = 0;
 483              		.loc 1 472 3 is_stmt 1 view .LVU124
 484              		.loc 1 472 14 is_stmt 0 view .LVU125
 485 0024 E060     		str	r0, [r4, #12]
 473:lvgl/src/extra/libs/png/lodepng.c ****   reader->buffer = 0;
 486              		.loc 1 473 3 is_stmt 1 view .LVU126
 487              		.loc 1 473 18 is_stmt 0 view .LVU127
 488 0026 2061     		str	r0, [r4, #16]
 474:lvgl/src/extra/libs/png/lodepng.c ****   return 0; /*ok*/
 489              		.loc 1 474 3 is_stmt 1 view .LVU128
 490              	.L25:
 475:lvgl/src/extra/libs/png/lodepng.c **** }
 491              		.loc 1 475 1 is_stmt 0 view .LVU129
 492 0028 02B0     		add	sp, sp, #8
 493              	.LCFI6:
 494              		.cfi_remember_state
 495              		.cfi_def_cfa_offset 8
 496              		@ sp needed
 497 002a 10BD     		pop	{r4, pc}
 498              	.LVL35:
 499              	.L27:
 500              	.LCFI7:
 501              		.cfi_restore_state
 468:lvgl/src/extra/libs/png/lodepng.c ****   /*ensure incremented bp can be compared to bitsize without overflow even when it would be increme
 502              		.loc 1 468 57 discriminator 1 view .LVU130
 503 002c 6920     		movs	r0, #105
 504 002e FBE7     		b	.L25
 505              	.L28:
 471:lvgl/src/extra/libs/png/lodepng.c ****   reader->bp = 0;
 506              		.loc 1 471 58 discriminator 1 view .LVU131
 507 0030 6920     		movs	r0, #105
 508 0032 F9E7     		b	.L25
 509              		.cfi_endproc
ARM GAS  C:\usertemp\cc6W5uFK.s 			page 18


 510              	.LFE223:
 512              		.section	.text.ensureBits9,"ax",%progbits
 513              		.align	1
 514              		.syntax unified
 515              		.thumb
 516              		.thumb_func
 518              	ensureBits9:
 519              	.LVL36:
 520              	.LFB224:
 476:lvgl/src/extra/libs/png/lodepng.c **** 
 477:lvgl/src/extra/libs/png/lodepng.c **** /*
 478:lvgl/src/extra/libs/png/lodepng.c **** ensureBits functions:
 479:lvgl/src/extra/libs/png/lodepng.c **** Ensures the reader can at least read nbits bits in one or more readBits calls,
 480:lvgl/src/extra/libs/png/lodepng.c **** safely even if not enough bits are available.
 481:lvgl/src/extra/libs/png/lodepng.c **** Returns 1 if there are enough bits available, 0 if not.
 482:lvgl/src/extra/libs/png/lodepng.c **** */
 483:lvgl/src/extra/libs/png/lodepng.c **** 
 484:lvgl/src/extra/libs/png/lodepng.c **** /*See ensureBits documentation above. This one ensures exactly 1 bit */
 485:lvgl/src/extra/libs/png/lodepng.c **** /*static unsigned ensureBits1(LodePNGBitReader* reader) {
 486:lvgl/src/extra/libs/png/lodepng.c ****   if(reader->bp >= reader->bitsize) return 0;
 487:lvgl/src/extra/libs/png/lodepng.c ****   reader->buffer = (unsigned)reader->data[reader->bp >> 3u] >> (reader->bp & 7u);
 488:lvgl/src/extra/libs/png/lodepng.c ****   return 1;
 489:lvgl/src/extra/libs/png/lodepng.c **** }*/
 490:lvgl/src/extra/libs/png/lodepng.c **** 
 491:lvgl/src/extra/libs/png/lodepng.c **** /*See ensureBits documentation above. This one ensures up to 9 bits */
 492:lvgl/src/extra/libs/png/lodepng.c **** static unsigned ensureBits9(LodePNGBitReader* reader, size_t nbits) {
 521              		.loc 1 492 69 is_stmt 1 view -0
 522              		.cfi_startproc
 523              		@ args = 0, pretend = 0, frame = 0
 524              		@ frame_needed = 0, uses_anonymous_args = 0
 525              		@ link register save eliminated.
 526              		.loc 1 492 69 is_stmt 0 view .LVU133
 527 0000 30B4     		push	{r4, r5}
 528              	.LCFI8:
 529              		.cfi_def_cfa_offset 8
 530              		.cfi_offset 4, -8
 531              		.cfi_offset 5, -4
 493:lvgl/src/extra/libs/png/lodepng.c ****   size_t start = reader->bp >> 3u;
 532              		.loc 1 493 3 is_stmt 1 view .LVU134
 533              		.loc 1 493 24 is_stmt 0 view .LVU135
 534 0002 C368     		ldr	r3, [r0, #12]
 535              		.loc 1 493 10 view .LVU136
 536 0004 DA08     		lsrs	r2, r3, #3
 537              	.LVL37:
 494:lvgl/src/extra/libs/png/lodepng.c ****   size_t size = reader->size;
 538              		.loc 1 494 3 is_stmt 1 view .LVU137
 539              		.loc 1 494 10 is_stmt 0 view .LVU138
 540 0006 4468     		ldr	r4, [r0, #4]
 541              	.LVL38:
 495:lvgl/src/extra/libs/png/lodepng.c ****   if(start + 1u < size) {
 542              		.loc 1 495 3 is_stmt 1 view .LVU139
 543              		.loc 1 495 12 is_stmt 0 view .LVU140
 544 0008 02F1010C 		add	ip, r2, #1
 545              		.loc 1 495 5 view .LVU141
 546 000c A445     		cmp	ip, r4
 547 000e 0DD2     		bcs	.L31
 496:lvgl/src/extra/libs/png/lodepng.c ****     reader->buffer = (unsigned)reader->data[start + 0] | ((unsigned)reader->data[start + 1] << 8u);
ARM GAS  C:\usertemp\cc6W5uFK.s 			page 19


 548              		.loc 1 496 5 is_stmt 1 view .LVU142
 549 0010 0168     		ldr	r1, [r0]
 550              	.LVL39:
 551              		.loc 1 496 44 is_stmt 0 view .LVU143
 552 0012 8A5C     		ldrb	r2, [r1, r2]	@ zero_extendqisi2
 553              	.LVL40:
 554              		.loc 1 496 81 view .LVU144
 555 0014 11F80C10 		ldrb	r1, [r1, ip]	@ zero_extendqisi2
 556              		.loc 1 496 56 view .LVU145
 557 0018 42EA0122 		orr	r2, r2, r1, lsl #8
 558              		.loc 1 496 20 view .LVU146
 559 001c 0261     		str	r2, [r0, #16]
 497:lvgl/src/extra/libs/png/lodepng.c ****     reader->buffer >>= (reader->bp & 7u);
 560              		.loc 1 497 5 is_stmt 1 view .LVU147
 561              		.loc 1 497 36 is_stmt 0 view .LVU148
 562 001e 03F00703 		and	r3, r3, #7
 563              		.loc 1 497 20 view .LVU149
 564 0022 DA40     		lsrs	r2, r2, r3
 565 0024 0261     		str	r2, [r0, #16]
 498:lvgl/src/extra/libs/png/lodepng.c ****     return 1;
 566              		.loc 1 498 5 is_stmt 1 view .LVU150
 567              		.loc 1 498 12 is_stmt 0 view .LVU151
 568 0026 0120     		movs	r0, #1
 569              	.LVL41:
 570              	.L30:
 499:lvgl/src/extra/libs/png/lodepng.c ****   } else {
 500:lvgl/src/extra/libs/png/lodepng.c ****     reader->buffer = 0;
 501:lvgl/src/extra/libs/png/lodepng.c ****     if(start + 0u < size) reader->buffer |= reader->data[start + 0];
 502:lvgl/src/extra/libs/png/lodepng.c ****     reader->buffer >>= (reader->bp & 7u);
 503:lvgl/src/extra/libs/png/lodepng.c ****     return reader->bp + nbits <= reader->bitsize;
 504:lvgl/src/extra/libs/png/lodepng.c ****   }
 505:lvgl/src/extra/libs/png/lodepng.c **** }
 571              		.loc 1 505 1 view .LVU152
 572 0028 30BC     		pop	{r4, r5}
 573              	.LCFI9:
 574              		.cfi_remember_state
 575              		.cfi_restore 5
 576              		.cfi_restore 4
 577              		.cfi_def_cfa_offset 0
 578 002a 7047     		bx	lr
 579              	.LVL42:
 580              	.L31:
 581              	.LCFI10:
 582              		.cfi_restore_state
 500:lvgl/src/extra/libs/png/lodepng.c ****     if(start + 0u < size) reader->buffer |= reader->data[start + 0];
 583              		.loc 1 500 5 is_stmt 1 view .LVU153
 500:lvgl/src/extra/libs/png/lodepng.c ****     if(start + 0u < size) reader->buffer |= reader->data[start + 0];
 584              		.loc 1 500 20 is_stmt 0 view .LVU154
 585 002c 0025     		movs	r5, #0
 586 002e 0561     		str	r5, [r0, #16]
 501:lvgl/src/extra/libs/png/lodepng.c ****     reader->buffer >>= (reader->bp & 7u);
 587              		.loc 1 501 5 is_stmt 1 view .LVU155
 501:lvgl/src/extra/libs/png/lodepng.c ****     reader->buffer >>= (reader->bp & 7u);
 588              		.loc 1 501 7 is_stmt 0 view .LVU156
 589 0030 A242     		cmp	r2, r4
 590 0032 02D2     		bcs	.L33
 501:lvgl/src/extra/libs/png/lodepng.c ****     reader->buffer >>= (reader->bp & 7u);
ARM GAS  C:\usertemp\cc6W5uFK.s 			page 20


 591              		.loc 1 501 27 is_stmt 1 discriminator 1 view .LVU157
 501:lvgl/src/extra/libs/png/lodepng.c ****     reader->buffer >>= (reader->bp & 7u);
 592              		.loc 1 501 5 is_stmt 0 discriminator 1 view .LVU158
 593 0034 0468     		ldr	r4, [r0]
 594              	.LVL43:
 501:lvgl/src/extra/libs/png/lodepng.c ****     reader->buffer >>= (reader->bp & 7u);
 595              		.loc 1 501 57 discriminator 1 view .LVU159
 596 0036 A25C     		ldrb	r2, [r4, r2]	@ zero_extendqisi2
 597              	.LVL44:
 501:lvgl/src/extra/libs/png/lodepng.c ****     reader->buffer >>= (reader->bp & 7u);
 598              		.loc 1 501 42 discriminator 1 view .LVU160
 599 0038 0261     		str	r2, [r0, #16]
 600              	.L33:
 502:lvgl/src/extra/libs/png/lodepng.c ****     return reader->bp + nbits <= reader->bitsize;
 601              		.loc 1 502 5 is_stmt 1 view .LVU161
 502:lvgl/src/extra/libs/png/lodepng.c ****     return reader->bp + nbits <= reader->bitsize;
 602              		.loc 1 502 11 is_stmt 0 view .LVU162
 603 003a 0269     		ldr	r2, [r0, #16]
 502:lvgl/src/extra/libs/png/lodepng.c ****     return reader->bp + nbits <= reader->bitsize;
 604              		.loc 1 502 36 view .LVU163
 605 003c 03F00704 		and	r4, r3, #7
 502:lvgl/src/extra/libs/png/lodepng.c ****     return reader->bp + nbits <= reader->bitsize;
 606              		.loc 1 502 20 view .LVU164
 607 0040 E240     		lsrs	r2, r2, r4
 608 0042 0261     		str	r2, [r0, #16]
 503:lvgl/src/extra/libs/png/lodepng.c ****   }
 609              		.loc 1 503 5 is_stmt 1 view .LVU165
 503:lvgl/src/extra/libs/png/lodepng.c ****   }
 610              		.loc 1 503 23 is_stmt 0 view .LVU166
 611 0044 0B44     		add	r3, r3, r1
 503:lvgl/src/extra/libs/png/lodepng.c ****   }
 612              		.loc 1 503 40 view .LVU167
 613 0046 8068     		ldr	r0, [r0, #8]
 614              	.LVL45:
 503:lvgl/src/extra/libs/png/lodepng.c ****   }
 615              		.loc 1 503 31 view .LVU168
 616 0048 8342     		cmp	r3, r0
 617 004a 8CBF     		ite	hi
 618 004c 0020     		movhi	r0, #0
 619 004e 0120     		movls	r0, #1
 620 0050 EAE7     		b	.L30
 621              		.cfi_endproc
 622              	.LFE224:
 624              		.section	.text.ensureBits17,"ax",%progbits
 625              		.align	1
 626              		.syntax unified
 627              		.thumb
 628              		.thumb_func
 630              	ensureBits17:
 631              	.LVL46:
 632              	.LFB225:
 506:lvgl/src/extra/libs/png/lodepng.c **** 
 507:lvgl/src/extra/libs/png/lodepng.c **** /*See ensureBits documentation above. This one ensures up to 17 bits */
 508:lvgl/src/extra/libs/png/lodepng.c **** static unsigned ensureBits17(LodePNGBitReader* reader, size_t nbits) {
 633              		.loc 1 508 70 is_stmt 1 view -0
 634              		.cfi_startproc
 635              		@ args = 0, pretend = 0, frame = 0
ARM GAS  C:\usertemp\cc6W5uFK.s 			page 21


 636              		@ frame_needed = 0, uses_anonymous_args = 0
 637              		@ link register save eliminated.
 638              		.loc 1 508 70 is_stmt 0 view .LVU170
 639 0000 30B4     		push	{r4, r5}
 640              	.LCFI11:
 641              		.cfi_def_cfa_offset 8
 642              		.cfi_offset 4, -8
 643              		.cfi_offset 5, -4
 509:lvgl/src/extra/libs/png/lodepng.c ****   size_t start = reader->bp >> 3u;
 644              		.loc 1 509 3 is_stmt 1 view .LVU171
 645              		.loc 1 509 24 is_stmt 0 view .LVU172
 646 0002 C368     		ldr	r3, [r0, #12]
 647              		.loc 1 509 10 view .LVU173
 648 0004 DA08     		lsrs	r2, r3, #3
 649              	.LVL47:
 510:lvgl/src/extra/libs/png/lodepng.c ****   size_t size = reader->size;
 650              		.loc 1 510 3 is_stmt 1 view .LVU174
 651              		.loc 1 510 10 is_stmt 0 view .LVU175
 652 0006 4468     		ldr	r4, [r0, #4]
 653              	.LVL48:
 511:lvgl/src/extra/libs/png/lodepng.c ****   if(start + 2u < size) {
 654              		.loc 1 511 3 is_stmt 1 view .LVU176
 655              		.loc 1 511 12 is_stmt 0 view .LVU177
 656 0008 02F1020C 		add	ip, r2, #2
 657              		.loc 1 511 5 view .LVU178
 658 000c A445     		cmp	ip, r4
 659 000e 11D2     		bcs	.L36
 512:lvgl/src/extra/libs/png/lodepng.c ****     reader->buffer = (unsigned)reader->data[start + 0] | ((unsigned)reader->data[start + 1] << 8u) 
 660              		.loc 1 512 5 is_stmt 1 view .LVU179
 661 0010 0468     		ldr	r4, [r0]
 662              	.LVL49:
 663              		.loc 1 512 44 is_stmt 0 view .LVU180
 664 0012 A15C     		ldrb	r1, [r4, r2]	@ zero_extendqisi2
 665              	.LVL50:
 666              		.loc 1 512 81 view .LVU181
 667 0014 2244     		add	r2, r2, r4
 668              	.LVL51:
 669              		.loc 1 512 81 view .LVU182
 670 0016 5278     		ldrb	r2, [r2, #1]	@ zero_extendqisi2
 671              		.loc 1 512 56 view .LVU183
 672 0018 41EA0222 		orr	r2, r1, r2, lsl #8
 513:lvgl/src/extra/libs/png/lodepng.c ****                      ((unsigned)reader->data[start + 2] << 16u);
 673              		.loc 1 513 45 view .LVU184
 674 001c 14F80C10 		ldrb	r1, [r4, ip]	@ zero_extendqisi2
 512:lvgl/src/extra/libs/png/lodepng.c ****     reader->buffer = (unsigned)reader->data[start + 0] | ((unsigned)reader->data[start + 1] << 8u) 
 675              		.loc 1 512 100 view .LVU185
 676 0020 42EA0142 		orr	r2, r2, r1, lsl #16
 512:lvgl/src/extra/libs/png/lodepng.c ****     reader->buffer = (unsigned)reader->data[start + 0] | ((unsigned)reader->data[start + 1] << 8u) 
 677              		.loc 1 512 20 view .LVU186
 678 0024 0261     		str	r2, [r0, #16]
 514:lvgl/src/extra/libs/png/lodepng.c ****     reader->buffer >>= (reader->bp & 7u);
 679              		.loc 1 514 5 is_stmt 1 view .LVU187
 680              		.loc 1 514 36 is_stmt 0 view .LVU188
 681 0026 03F00703 		and	r3, r3, #7
 682              		.loc 1 514 20 view .LVU189
 683 002a DA40     		lsrs	r2, r2, r3
 684 002c 0261     		str	r2, [r0, #16]
ARM GAS  C:\usertemp\cc6W5uFK.s 			page 22


 515:lvgl/src/extra/libs/png/lodepng.c ****     return 1;
 685              		.loc 1 515 5 is_stmt 1 view .LVU190
 686              		.loc 1 515 12 is_stmt 0 view .LVU191
 687 002e 0120     		movs	r0, #1
 688              	.LVL52:
 689              	.L35:
 516:lvgl/src/extra/libs/png/lodepng.c ****   } else {
 517:lvgl/src/extra/libs/png/lodepng.c ****     reader->buffer = 0;
 518:lvgl/src/extra/libs/png/lodepng.c ****     if(start + 0u < size) reader->buffer |= reader->data[start + 0];
 519:lvgl/src/extra/libs/png/lodepng.c ****     if(start + 1u < size) reader->buffer |= ((unsigned)reader->data[start + 1] << 8u);
 520:lvgl/src/extra/libs/png/lodepng.c ****     reader->buffer >>= (reader->bp & 7u);
 521:lvgl/src/extra/libs/png/lodepng.c ****     return reader->bp + nbits <= reader->bitsize;
 522:lvgl/src/extra/libs/png/lodepng.c ****   }
 523:lvgl/src/extra/libs/png/lodepng.c **** }
 690              		.loc 1 523 1 view .LVU192
 691 0030 30BC     		pop	{r4, r5}
 692              	.LCFI12:
 693              		.cfi_remember_state
 694              		.cfi_restore 5
 695              		.cfi_restore 4
 696              		.cfi_def_cfa_offset 0
 697 0032 7047     		bx	lr
 698              	.LVL53:
 699              	.L36:
 700              	.LCFI13:
 701              		.cfi_restore_state
 517:lvgl/src/extra/libs/png/lodepng.c ****     if(start + 0u < size) reader->buffer |= reader->data[start + 0];
 702              		.loc 1 517 5 is_stmt 1 view .LVU193
 517:lvgl/src/extra/libs/png/lodepng.c ****     if(start + 0u < size) reader->buffer |= reader->data[start + 0];
 703              		.loc 1 517 20 is_stmt 0 view .LVU194
 704 0034 0025     		movs	r5, #0
 705 0036 0561     		str	r5, [r0, #16]
 518:lvgl/src/extra/libs/png/lodepng.c ****     if(start + 1u < size) reader->buffer |= ((unsigned)reader->data[start + 1] << 8u);
 706              		.loc 1 518 5 is_stmt 1 view .LVU195
 518:lvgl/src/extra/libs/png/lodepng.c ****     if(start + 1u < size) reader->buffer |= ((unsigned)reader->data[start + 1] << 8u);
 707              		.loc 1 518 7 is_stmt 0 view .LVU196
 708 0038 A242     		cmp	r2, r4
 709 003a 02D2     		bcs	.L38
 518:lvgl/src/extra/libs/png/lodepng.c ****     if(start + 1u < size) reader->buffer |= ((unsigned)reader->data[start + 1] << 8u);
 710              		.loc 1 518 27 is_stmt 1 discriminator 1 view .LVU197
 518:lvgl/src/extra/libs/png/lodepng.c ****     if(start + 1u < size) reader->buffer |= ((unsigned)reader->data[start + 1] << 8u);
 711              		.loc 1 518 5 is_stmt 0 discriminator 1 view .LVU198
 712 003c 0568     		ldr	r5, [r0]
 518:lvgl/src/extra/libs/png/lodepng.c ****     if(start + 1u < size) reader->buffer |= ((unsigned)reader->data[start + 1] << 8u);
 713              		.loc 1 518 57 discriminator 1 view .LVU199
 714 003e AD5C     		ldrb	r5, [r5, r2]	@ zero_extendqisi2
 518:lvgl/src/extra/libs/png/lodepng.c ****     if(start + 1u < size) reader->buffer |= ((unsigned)reader->data[start + 1] << 8u);
 715              		.loc 1 518 42 discriminator 1 view .LVU200
 716 0040 0561     		str	r5, [r0, #16]
 717              	.L38:
 519:lvgl/src/extra/libs/png/lodepng.c ****     reader->buffer >>= (reader->bp & 7u);
 718              		.loc 1 519 5 is_stmt 1 view .LVU201
 519:lvgl/src/extra/libs/png/lodepng.c ****     reader->buffer >>= (reader->bp & 7u);
 719              		.loc 1 519 14 is_stmt 0 view .LVU202
 720 0042 0132     		adds	r2, r2, #1
 721              	.LVL54:
 519:lvgl/src/extra/libs/png/lodepng.c ****     reader->buffer >>= (reader->bp & 7u);
ARM GAS  C:\usertemp\cc6W5uFK.s 			page 23


 722              		.loc 1 519 7 view .LVU203
 723 0044 A242     		cmp	r2, r4
 724 0046 05D2     		bcs	.L39
 519:lvgl/src/extra/libs/png/lodepng.c ****     reader->buffer >>= (reader->bp & 7u);
 725              		.loc 1 519 27 is_stmt 1 discriminator 1 view .LVU204
 519:lvgl/src/extra/libs/png/lodepng.c ****     reader->buffer >>= (reader->bp & 7u);
 726              		.loc 1 519 33 is_stmt 0 discriminator 1 view .LVU205
 727 0048 0469     		ldr	r4, [r0, #16]
 728              	.LVL55:
 519:lvgl/src/extra/libs/png/lodepng.c ****     reader->buffer >>= (reader->bp & 7u);
 729              		.loc 1 519 62 discriminator 1 view .LVU206
 730 004a 0568     		ldr	r5, [r0]
 519:lvgl/src/extra/libs/png/lodepng.c ****     reader->buffer >>= (reader->bp & 7u);
 731              		.loc 1 519 68 discriminator 1 view .LVU207
 732 004c AA5C     		ldrb	r2, [r5, r2]	@ zero_extendqisi2
 733              	.LVL56:
 519:lvgl/src/extra/libs/png/lodepng.c ****     reader->buffer >>= (reader->bp & 7u);
 734              		.loc 1 519 42 discriminator 1 view .LVU208
 735 004e 44EA0224 		orr	r4, r4, r2, lsl #8
 736 0052 0461     		str	r4, [r0, #16]
 737              	.L39:
 520:lvgl/src/extra/libs/png/lodepng.c ****     return reader->bp + nbits <= reader->bitsize;
 738              		.loc 1 520 5 is_stmt 1 view .LVU209
 520:lvgl/src/extra/libs/png/lodepng.c ****     return reader->bp + nbits <= reader->bitsize;
 739              		.loc 1 520 11 is_stmt 0 view .LVU210
 740 0054 0269     		ldr	r2, [r0, #16]
 520:lvgl/src/extra/libs/png/lodepng.c ****     return reader->bp + nbits <= reader->bitsize;
 741              		.loc 1 520 36 view .LVU211
 742 0056 03F00704 		and	r4, r3, #7
 520:lvgl/src/extra/libs/png/lodepng.c ****     return reader->bp + nbits <= reader->bitsize;
 743              		.loc 1 520 20 view .LVU212
 744 005a E240     		lsrs	r2, r2, r4
 745 005c 0261     		str	r2, [r0, #16]
 521:lvgl/src/extra/libs/png/lodepng.c ****   }
 746              		.loc 1 521 5 is_stmt 1 view .LVU213
 521:lvgl/src/extra/libs/png/lodepng.c ****   }
 747              		.loc 1 521 23 is_stmt 0 view .LVU214
 748 005e 0B44     		add	r3, r3, r1
 521:lvgl/src/extra/libs/png/lodepng.c ****   }
 749              		.loc 1 521 40 view .LVU215
 750 0060 8068     		ldr	r0, [r0, #8]
 751              	.LVL57:
 521:lvgl/src/extra/libs/png/lodepng.c ****   }
 752              		.loc 1 521 31 view .LVU216
 753 0062 8342     		cmp	r3, r0
 754 0064 8CBF     		ite	hi
 755 0066 0020     		movhi	r0, #0
 756 0068 0120     		movls	r0, #1
 757 006a E1E7     		b	.L35
 758              		.cfi_endproc
 759              	.LFE225:
 761              		.section	.text.ensureBits25,"ax",%progbits
 762              		.align	1
 763              		.syntax unified
 764              		.thumb
 765              		.thumb_func
 767              	ensureBits25:
ARM GAS  C:\usertemp\cc6W5uFK.s 			page 24


 768              	.LVL58:
 769              	.LFB226:
 524:lvgl/src/extra/libs/png/lodepng.c **** 
 525:lvgl/src/extra/libs/png/lodepng.c **** /*See ensureBits documentation above. This one ensures up to 25 bits */
 526:lvgl/src/extra/libs/png/lodepng.c **** static LODEPNG_INLINE unsigned ensureBits25(LodePNGBitReader* reader, size_t nbits) {
 770              		.loc 1 526 85 is_stmt 1 view -0
 771              		.cfi_startproc
 772              		@ args = 0, pretend = 0, frame = 0
 773              		@ frame_needed = 0, uses_anonymous_args = 0
 774              		.loc 1 526 85 is_stmt 0 view .LVU218
 775 0000 70B5     		push	{r4, r5, r6, lr}
 776              	.LCFI14:
 777              		.cfi_def_cfa_offset 16
 778              		.cfi_offset 4, -16
 779              		.cfi_offset 5, -12
 780              		.cfi_offset 6, -8
 781              		.cfi_offset 14, -4
 527:lvgl/src/extra/libs/png/lodepng.c ****   size_t start = reader->bp >> 3u;
 782              		.loc 1 527 3 is_stmt 1 view .LVU219
 783              		.loc 1 527 24 is_stmt 0 view .LVU220
 784 0002 C368     		ldr	r3, [r0, #12]
 785              		.loc 1 527 10 view .LVU221
 786 0004 DA08     		lsrs	r2, r3, #3
 787              	.LVL59:
 528:lvgl/src/extra/libs/png/lodepng.c ****   size_t size = reader->size;
 788              		.loc 1 528 3 is_stmt 1 view .LVU222
 789              		.loc 1 528 10 is_stmt 0 view .LVU223
 790 0006 4468     		ldr	r4, [r0, #4]
 791              	.LVL60:
 529:lvgl/src/extra/libs/png/lodepng.c ****   if(start + 3u < size) {
 792              		.loc 1 529 3 is_stmt 1 view .LVU224
 793              		.loc 1 529 12 is_stmt 0 view .LVU225
 794 0008 02F1030C 		add	ip, r2, #3
 795              		.loc 1 529 5 view .LVU226
 796 000c A445     		cmp	ip, r4
 797 000e 16D2     		bcs	.L42
 530:lvgl/src/extra/libs/png/lodepng.c ****     reader->buffer = (unsigned)reader->data[start + 0] | ((unsigned)reader->data[start + 1] << 8u) 
 798              		.loc 1 530 5 is_stmt 1 view .LVU227
 799 0010 0468     		ldr	r4, [r0]
 800              	.LVL61:
 801              		.loc 1 530 44 is_stmt 0 view .LVU228
 802 0012 A15C     		ldrb	r1, [r4, r2]	@ zero_extendqisi2
 803              	.LVL62:
 804              		.loc 1 530 81 view .LVU229
 805 0014 04EB020E 		add	lr, r4, r2
 806 0018 9EF80120 		ldrb	r2, [lr, #1]	@ zero_extendqisi2
 807              	.LVL63:
 808              		.loc 1 530 56 view .LVU230
 809 001c 41EA0222 		orr	r2, r1, r2, lsl #8
 531:lvgl/src/extra/libs/png/lodepng.c ****                      ((unsigned)reader->data[start + 2] << 16u) | ((unsigned)reader->data[start + 3
 810              		.loc 1 531 45 view .LVU231
 811 0020 9EF80210 		ldrb	r1, [lr, #2]	@ zero_extendqisi2
 530:lvgl/src/extra/libs/png/lodepng.c ****     reader->buffer = (unsigned)reader->data[start + 0] | ((unsigned)reader->data[start + 1] << 8u) 
 812              		.loc 1 530 100 view .LVU232
 813 0024 42EA0142 		orr	r2, r2, r1, lsl #16
 814              		.loc 1 531 90 view .LVU233
 815 0028 14F80C10 		ldrb	r1, [r4, ip]	@ zero_extendqisi2
ARM GAS  C:\usertemp\cc6W5uFK.s 			page 25


 816              		.loc 1 531 65 view .LVU234
 817 002c 42EA0162 		orr	r2, r2, r1, lsl #24
 530:lvgl/src/extra/libs/png/lodepng.c ****     reader->buffer = (unsigned)reader->data[start + 0] | ((unsigned)reader->data[start + 1] << 8u) 
 818              		.loc 1 530 20 view .LVU235
 819 0030 0261     		str	r2, [r0, #16]
 532:lvgl/src/extra/libs/png/lodepng.c ****     reader->buffer >>= (reader->bp & 7u);
 820              		.loc 1 532 5 is_stmt 1 view .LVU236
 821              		.loc 1 532 36 is_stmt 0 view .LVU237
 822 0032 03F00703 		and	r3, r3, #7
 823              		.loc 1 532 20 view .LVU238
 824 0036 DA40     		lsrs	r2, r2, r3
 825 0038 0261     		str	r2, [r0, #16]
 533:lvgl/src/extra/libs/png/lodepng.c ****     return 1;
 826              		.loc 1 533 5 is_stmt 1 view .LVU239
 827              		.loc 1 533 12 is_stmt 0 view .LVU240
 828 003a 0120     		movs	r0, #1
 829              	.LVL64:
 830              	.L41:
 534:lvgl/src/extra/libs/png/lodepng.c ****   } else {
 535:lvgl/src/extra/libs/png/lodepng.c ****     reader->buffer = 0;
 536:lvgl/src/extra/libs/png/lodepng.c ****     if(start + 0u < size) reader->buffer |= reader->data[start + 0];
 537:lvgl/src/extra/libs/png/lodepng.c ****     if(start + 1u < size) reader->buffer |= ((unsigned)reader->data[start + 1] << 8u);
 538:lvgl/src/extra/libs/png/lodepng.c ****     if(start + 2u < size) reader->buffer |= ((unsigned)reader->data[start + 2] << 16u);
 539:lvgl/src/extra/libs/png/lodepng.c ****     reader->buffer >>= (reader->bp & 7u);
 540:lvgl/src/extra/libs/png/lodepng.c ****     return reader->bp + nbits <= reader->bitsize;
 541:lvgl/src/extra/libs/png/lodepng.c ****   }
 542:lvgl/src/extra/libs/png/lodepng.c **** }
 831              		.loc 1 542 1 view .LVU241
 832 003c 70BD     		pop	{r4, r5, r6, pc}
 833              	.LVL65:
 834              	.L42:
 535:lvgl/src/extra/libs/png/lodepng.c ****     if(start + 0u < size) reader->buffer |= reader->data[start + 0];
 835              		.loc 1 535 5 is_stmt 1 view .LVU242
 535:lvgl/src/extra/libs/png/lodepng.c ****     if(start + 0u < size) reader->buffer |= reader->data[start + 0];
 836              		.loc 1 535 20 is_stmt 0 view .LVU243
 837 003e 0025     		movs	r5, #0
 838 0040 0561     		str	r5, [r0, #16]
 536:lvgl/src/extra/libs/png/lodepng.c ****     if(start + 1u < size) reader->buffer |= ((unsigned)reader->data[start + 1] << 8u);
 839              		.loc 1 536 5 is_stmt 1 view .LVU244
 536:lvgl/src/extra/libs/png/lodepng.c ****     if(start + 1u < size) reader->buffer |= ((unsigned)reader->data[start + 1] << 8u);
 840              		.loc 1 536 7 is_stmt 0 view .LVU245
 841 0042 A242     		cmp	r2, r4
 842 0044 02D2     		bcs	.L44
 536:lvgl/src/extra/libs/png/lodepng.c ****     if(start + 1u < size) reader->buffer |= ((unsigned)reader->data[start + 1] << 8u);
 843              		.loc 1 536 27 is_stmt 1 discriminator 1 view .LVU246
 536:lvgl/src/extra/libs/png/lodepng.c ****     if(start + 1u < size) reader->buffer |= ((unsigned)reader->data[start + 1] << 8u);
 844              		.loc 1 536 5 is_stmt 0 discriminator 1 view .LVU247
 845 0046 0568     		ldr	r5, [r0]
 536:lvgl/src/extra/libs/png/lodepng.c ****     if(start + 1u < size) reader->buffer |= ((unsigned)reader->data[start + 1] << 8u);
 846              		.loc 1 536 57 discriminator 1 view .LVU248
 847 0048 AD5C     		ldrb	r5, [r5, r2]	@ zero_extendqisi2
 536:lvgl/src/extra/libs/png/lodepng.c ****     if(start + 1u < size) reader->buffer |= ((unsigned)reader->data[start + 1] << 8u);
 848              		.loc 1 536 42 discriminator 1 view .LVU249
 849 004a 0561     		str	r5, [r0, #16]
 850              	.L44:
 537:lvgl/src/extra/libs/png/lodepng.c ****     if(start + 2u < size) reader->buffer |= ((unsigned)reader->data[start + 2] << 16u);
 851              		.loc 1 537 5 is_stmt 1 view .LVU250
ARM GAS  C:\usertemp\cc6W5uFK.s 			page 26


 537:lvgl/src/extra/libs/png/lodepng.c ****     if(start + 2u < size) reader->buffer |= ((unsigned)reader->data[start + 2] << 16u);
 852              		.loc 1 537 14 is_stmt 0 view .LVU251
 853 004c 02F1010C 		add	ip, r2, #1
 537:lvgl/src/extra/libs/png/lodepng.c ****     if(start + 2u < size) reader->buffer |= ((unsigned)reader->data[start + 2] << 16u);
 854              		.loc 1 537 7 view .LVU252
 855 0050 A445     		cmp	ip, r4
 856 0052 06D2     		bcs	.L45
 537:lvgl/src/extra/libs/png/lodepng.c ****     if(start + 2u < size) reader->buffer |= ((unsigned)reader->data[start + 2] << 16u);
 857              		.loc 1 537 27 is_stmt 1 discriminator 1 view .LVU253
 537:lvgl/src/extra/libs/png/lodepng.c ****     if(start + 2u < size) reader->buffer |= ((unsigned)reader->data[start + 2] << 16u);
 858              		.loc 1 537 62 is_stmt 0 discriminator 1 view .LVU254
 859 0054 0568     		ldr	r5, [r0]
 537:lvgl/src/extra/libs/png/lodepng.c ****     if(start + 2u < size) reader->buffer |= ((unsigned)reader->data[start + 2] << 16u);
 860              		.loc 1 537 68 discriminator 1 view .LVU255
 861 0056 15F80C50 		ldrb	r5, [r5, ip]	@ zero_extendqisi2
 537:lvgl/src/extra/libs/png/lodepng.c ****     if(start + 2u < size) reader->buffer |= ((unsigned)reader->data[start + 2] << 16u);
 862              		.loc 1 537 42 discriminator 1 view .LVU256
 863 005a 0669     		ldr	r6, [r0, #16]
 864 005c 46EA0525 		orr	r5, r6, r5, lsl #8
 865 0060 0561     		str	r5, [r0, #16]
 866              	.L45:
 538:lvgl/src/extra/libs/png/lodepng.c ****     reader->buffer >>= (reader->bp & 7u);
 867              		.loc 1 538 5 is_stmt 1 view .LVU257
 538:lvgl/src/extra/libs/png/lodepng.c ****     reader->buffer >>= (reader->bp & 7u);
 868              		.loc 1 538 14 is_stmt 0 view .LVU258
 869 0062 0232     		adds	r2, r2, #2
 870              	.LVL66:
 538:lvgl/src/extra/libs/png/lodepng.c ****     reader->buffer >>= (reader->bp & 7u);
 871              		.loc 1 538 7 view .LVU259
 872 0064 A242     		cmp	r2, r4
 873 0066 05D2     		bcs	.L46
 538:lvgl/src/extra/libs/png/lodepng.c ****     reader->buffer >>= (reader->bp & 7u);
 874              		.loc 1 538 27 is_stmt 1 discriminator 1 view .LVU260
 538:lvgl/src/extra/libs/png/lodepng.c ****     reader->buffer >>= (reader->bp & 7u);
 875              		.loc 1 538 33 is_stmt 0 discriminator 1 view .LVU261
 876 0068 0469     		ldr	r4, [r0, #16]
 877              	.LVL67:
 538:lvgl/src/extra/libs/png/lodepng.c ****     reader->buffer >>= (reader->bp & 7u);
 878              		.loc 1 538 62 discriminator 1 view .LVU262
 879 006a 0568     		ldr	r5, [r0]
 538:lvgl/src/extra/libs/png/lodepng.c ****     reader->buffer >>= (reader->bp & 7u);
 880              		.loc 1 538 68 discriminator 1 view .LVU263
 881 006c AA5C     		ldrb	r2, [r5, r2]	@ zero_extendqisi2
 538:lvgl/src/extra/libs/png/lodepng.c ****     reader->buffer >>= (reader->bp & 7u);
 882              		.loc 1 538 42 discriminator 1 view .LVU264
 883 006e 44EA0244 		orr	r4, r4, r2, lsl #16
 884 0072 0461     		str	r4, [r0, #16]
 885              	.L46:
 539:lvgl/src/extra/libs/png/lodepng.c ****     return reader->bp + nbits <= reader->bitsize;
 886              		.loc 1 539 5 is_stmt 1 view .LVU265
 539:lvgl/src/extra/libs/png/lodepng.c ****     return reader->bp + nbits <= reader->bitsize;
 887              		.loc 1 539 11 is_stmt 0 view .LVU266
 888 0074 0269     		ldr	r2, [r0, #16]
 539:lvgl/src/extra/libs/png/lodepng.c ****     return reader->bp + nbits <= reader->bitsize;
 889              		.loc 1 539 36 view .LVU267
 890 0076 03F00704 		and	r4, r3, #7
 539:lvgl/src/extra/libs/png/lodepng.c ****     return reader->bp + nbits <= reader->bitsize;
ARM GAS  C:\usertemp\cc6W5uFK.s 			page 27


 891              		.loc 1 539 20 view .LVU268
 892 007a E240     		lsrs	r2, r2, r4
 893 007c 0261     		str	r2, [r0, #16]
 540:lvgl/src/extra/libs/png/lodepng.c ****   }
 894              		.loc 1 540 5 is_stmt 1 view .LVU269
 540:lvgl/src/extra/libs/png/lodepng.c ****   }
 895              		.loc 1 540 23 is_stmt 0 view .LVU270
 896 007e 0B44     		add	r3, r3, r1
 540:lvgl/src/extra/libs/png/lodepng.c ****   }
 897              		.loc 1 540 40 view .LVU271
 898 0080 8068     		ldr	r0, [r0, #8]
 899              	.LVL68:
 540:lvgl/src/extra/libs/png/lodepng.c ****   }
 900              		.loc 1 540 31 view .LVU272
 901 0082 8342     		cmp	r3, r0
 902 0084 8CBF     		ite	hi
 903 0086 0020     		movhi	r0, #0
 904 0088 0120     		movls	r0, #1
 905 008a D7E7     		b	.L41
 906              		.cfi_endproc
 907              	.LFE226:
 909              		.section	.text.ensureBits32,"ax",%progbits
 910              		.align	1
 911              		.syntax unified
 912              		.thumb
 913              		.thumb_func
 915              	ensureBits32:
 916              	.LVL69:
 917              	.LFB227:
 543:lvgl/src/extra/libs/png/lodepng.c **** 
 544:lvgl/src/extra/libs/png/lodepng.c **** /*See ensureBits documentation above. This one ensures up to 32 bits */
 545:lvgl/src/extra/libs/png/lodepng.c **** static LODEPNG_INLINE unsigned ensureBits32(LodePNGBitReader* reader, size_t nbits) {
 918              		.loc 1 545 85 is_stmt 1 view -0
 919              		.cfi_startproc
 920              		@ args = 0, pretend = 0, frame = 0
 921              		@ frame_needed = 0, uses_anonymous_args = 0
 922              		.loc 1 545 85 is_stmt 0 view .LVU274
 923 0000 70B5     		push	{r4, r5, r6, lr}
 924              	.LCFI15:
 925              		.cfi_def_cfa_offset 16
 926              		.cfi_offset 4, -16
 927              		.cfi_offset 5, -12
 928              		.cfi_offset 6, -8
 929              		.cfi_offset 14, -4
 546:lvgl/src/extra/libs/png/lodepng.c ****   size_t start = reader->bp >> 3u;
 930              		.loc 1 546 3 is_stmt 1 view .LVU275
 931              		.loc 1 546 24 is_stmt 0 view .LVU276
 932 0002 C368     		ldr	r3, [r0, #12]
 933              		.loc 1 546 10 view .LVU277
 934 0004 DA08     		lsrs	r2, r3, #3
 935              	.LVL70:
 547:lvgl/src/extra/libs/png/lodepng.c ****   size_t size = reader->size;
 936              		.loc 1 547 3 is_stmt 1 view .LVU278
 937              		.loc 1 547 10 is_stmt 0 view .LVU279
 938 0006 4468     		ldr	r4, [r0, #4]
 939              	.LVL71:
 548:lvgl/src/extra/libs/png/lodepng.c ****   if(start + 4u < size) {
ARM GAS  C:\usertemp\cc6W5uFK.s 			page 28


 940              		.loc 1 548 3 is_stmt 1 view .LVU280
 941              		.loc 1 548 12 is_stmt 0 view .LVU281
 942 0008 02F1040C 		add	ip, r2, #4
 943              		.loc 1 548 5 view .LVU282
 944 000c A445     		cmp	ip, r4
 945 000e 1FD2     		bcs	.L49
 549:lvgl/src/extra/libs/png/lodepng.c ****     reader->buffer = (unsigned)reader->data[start + 0] | ((unsigned)reader->data[start + 1] << 8u) 
 946              		.loc 1 549 5 is_stmt 1 view .LVU283
 947 0010 0468     		ldr	r4, [r0]
 948              	.LVL72:
 949              		.loc 1 549 44 is_stmt 0 view .LVU284
 950 0012 A15C     		ldrb	r1, [r4, r2]	@ zero_extendqisi2
 951              	.LVL73:
 952              		.loc 1 549 81 view .LVU285
 953 0014 04EB020E 		add	lr, r4, r2
 954 0018 9EF80120 		ldrb	r2, [lr, #1]	@ zero_extendqisi2
 955              	.LVL74:
 956              		.loc 1 549 56 view .LVU286
 957 001c 41EA0222 		orr	r2, r1, r2, lsl #8
 550:lvgl/src/extra/libs/png/lodepng.c ****                      ((unsigned)reader->data[start + 2] << 16u) | ((unsigned)reader->data[start + 3
 958              		.loc 1 550 45 view .LVU287
 959 0020 9EF80210 		ldrb	r1, [lr, #2]	@ zero_extendqisi2
 549:lvgl/src/extra/libs/png/lodepng.c ****     reader->buffer = (unsigned)reader->data[start + 0] | ((unsigned)reader->data[start + 1] << 8u) 
 960              		.loc 1 549 100 view .LVU288
 961 0024 42EA0142 		orr	r2, r2, r1, lsl #16
 962              		.loc 1 550 90 view .LVU289
 963 0028 9EF80310 		ldrb	r1, [lr, #3]	@ zero_extendqisi2
 964              		.loc 1 550 65 view .LVU290
 965 002c 42EA0162 		orr	r2, r2, r1, lsl #24
 549:lvgl/src/extra/libs/png/lodepng.c ****     reader->buffer = (unsigned)reader->data[start + 0] | ((unsigned)reader->data[start + 1] << 8u) 
 966              		.loc 1 549 20 view .LVU291
 967 0030 0261     		str	r2, [r0, #16]
 551:lvgl/src/extra/libs/png/lodepng.c ****     reader->buffer >>= (reader->bp & 7u);
 968              		.loc 1 551 5 is_stmt 1 view .LVU292
 969              		.loc 1 551 36 is_stmt 0 view .LVU293
 970 0032 03F00703 		and	r3, r3, #7
 971              		.loc 1 551 20 view .LVU294
 972 0036 DA40     		lsrs	r2, r2, r3
 973 0038 0261     		str	r2, [r0, #16]
 552:lvgl/src/extra/libs/png/lodepng.c ****     reader->buffer |= (((unsigned)reader->data[start + 4] << 24u) << (8u - (reader->bp & 7u)));
 974              		.loc 1 552 5 is_stmt 1 view .LVU295
 975              		.loc 1 552 47 is_stmt 0 view .LVU296
 976 003a 14F80C10 		ldrb	r1, [r4, ip]	@ zero_extendqisi2
 977              		.loc 1 552 59 view .LVU297
 978 003e 0906     		lsls	r1, r1, #24
 979              		.loc 1 552 74 view .LVU298
 980 0040 C3F10803 		rsb	r3, r3, #8
 981              		.loc 1 552 67 view .LVU299
 982 0044 01FA03F3 		lsl	r3, r1, r3
 983              		.loc 1 552 20 view .LVU300
 984 0048 1A43     		orrs	r2, r2, r3
 985 004a 0261     		str	r2, [r0, #16]
 553:lvgl/src/extra/libs/png/lodepng.c ****     return 1;
 986              		.loc 1 553 5 is_stmt 1 view .LVU301
 987              		.loc 1 553 12 is_stmt 0 view .LVU302
 988 004c 0120     		movs	r0, #1
 989              	.LVL75:
ARM GAS  C:\usertemp\cc6W5uFK.s 			page 29


 990              	.L48:
 554:lvgl/src/extra/libs/png/lodepng.c ****   } else {
 555:lvgl/src/extra/libs/png/lodepng.c ****     reader->buffer = 0;
 556:lvgl/src/extra/libs/png/lodepng.c ****     if(start + 0u < size) reader->buffer |= reader->data[start + 0];
 557:lvgl/src/extra/libs/png/lodepng.c ****     if(start + 1u < size) reader->buffer |= ((unsigned)reader->data[start + 1] << 8u);
 558:lvgl/src/extra/libs/png/lodepng.c ****     if(start + 2u < size) reader->buffer |= ((unsigned)reader->data[start + 2] << 16u);
 559:lvgl/src/extra/libs/png/lodepng.c ****     if(start + 3u < size) reader->buffer |= ((unsigned)reader->data[start + 3] << 24u);
 560:lvgl/src/extra/libs/png/lodepng.c ****     reader->buffer >>= (reader->bp & 7u);
 561:lvgl/src/extra/libs/png/lodepng.c ****     return reader->bp + nbits <= reader->bitsize;
 562:lvgl/src/extra/libs/png/lodepng.c ****   }
 563:lvgl/src/extra/libs/png/lodepng.c **** }
 991              		.loc 1 563 1 view .LVU303
 992 004e 70BD     		pop	{r4, r5, r6, pc}
 993              	.LVL76:
 994              	.L49:
 555:lvgl/src/extra/libs/png/lodepng.c ****     if(start + 0u < size) reader->buffer |= reader->data[start + 0];
 995              		.loc 1 555 5 is_stmt 1 view .LVU304
 555:lvgl/src/extra/libs/png/lodepng.c ****     if(start + 0u < size) reader->buffer |= reader->data[start + 0];
 996              		.loc 1 555 20 is_stmt 0 view .LVU305
 997 0050 0025     		movs	r5, #0
 998 0052 0561     		str	r5, [r0, #16]
 556:lvgl/src/extra/libs/png/lodepng.c ****     if(start + 1u < size) reader->buffer |= ((unsigned)reader->data[start + 1] << 8u);
 999              		.loc 1 556 5 is_stmt 1 view .LVU306
 556:lvgl/src/extra/libs/png/lodepng.c ****     if(start + 1u < size) reader->buffer |= ((unsigned)reader->data[start + 1] << 8u);
 1000              		.loc 1 556 7 is_stmt 0 view .LVU307
 1001 0054 A242     		cmp	r2, r4
 1002 0056 02D2     		bcs	.L51
 556:lvgl/src/extra/libs/png/lodepng.c ****     if(start + 1u < size) reader->buffer |= ((unsigned)reader->data[start + 1] << 8u);
 1003              		.loc 1 556 27 is_stmt 1 discriminator 1 view .LVU308
 556:lvgl/src/extra/libs/png/lodepng.c ****     if(start + 1u < size) reader->buffer |= ((unsigned)reader->data[start + 1] << 8u);
 1004              		.loc 1 556 5 is_stmt 0 discriminator 1 view .LVU309
 1005 0058 0568     		ldr	r5, [r0]
 556:lvgl/src/extra/libs/png/lodepng.c ****     if(start + 1u < size) reader->buffer |= ((unsigned)reader->data[start + 1] << 8u);
 1006              		.loc 1 556 57 discriminator 1 view .LVU310
 1007 005a AD5C     		ldrb	r5, [r5, r2]	@ zero_extendqisi2
 556:lvgl/src/extra/libs/png/lodepng.c ****     if(start + 1u < size) reader->buffer |= ((unsigned)reader->data[start + 1] << 8u);
 1008              		.loc 1 556 42 discriminator 1 view .LVU311
 1009 005c 0561     		str	r5, [r0, #16]
 1010              	.L51:
 557:lvgl/src/extra/libs/png/lodepng.c ****     if(start + 2u < size) reader->buffer |= ((unsigned)reader->data[start + 2] << 16u);
 1011              		.loc 1 557 5 is_stmt 1 view .LVU312
 557:lvgl/src/extra/libs/png/lodepng.c ****     if(start + 2u < size) reader->buffer |= ((unsigned)reader->data[start + 2] << 16u);
 1012              		.loc 1 557 14 is_stmt 0 view .LVU313
 1013 005e 02F1010C 		add	ip, r2, #1
 557:lvgl/src/extra/libs/png/lodepng.c ****     if(start + 2u < size) reader->buffer |= ((unsigned)reader->data[start + 2] << 16u);
 1014              		.loc 1 557 7 view .LVU314
 1015 0062 A445     		cmp	ip, r4
 1016 0064 06D2     		bcs	.L52
 557:lvgl/src/extra/libs/png/lodepng.c ****     if(start + 2u < size) reader->buffer |= ((unsigned)reader->data[start + 2] << 16u);
 1017              		.loc 1 557 27 is_stmt 1 discriminator 1 view .LVU315
 557:lvgl/src/extra/libs/png/lodepng.c ****     if(start + 2u < size) reader->buffer |= ((unsigned)reader->data[start + 2] << 16u);
 1018              		.loc 1 557 33 is_stmt 0 discriminator 1 view .LVU316
 1019 0066 0569     		ldr	r5, [r0, #16]
 557:lvgl/src/extra/libs/png/lodepng.c ****     if(start + 2u < size) reader->buffer |= ((unsigned)reader->data[start + 2] << 16u);
 1020              		.loc 1 557 68 discriminator 1 view .LVU317
 1021 0068 0668     		ldr	r6, [r0]
 1022 006a 16F80CC0 		ldrb	ip, [r6, ip]	@ zero_extendqisi2
ARM GAS  C:\usertemp\cc6W5uFK.s 			page 30


 557:lvgl/src/extra/libs/png/lodepng.c ****     if(start + 2u < size) reader->buffer |= ((unsigned)reader->data[start + 2] << 16u);
 1023              		.loc 1 557 42 discriminator 1 view .LVU318
 1024 006e 45EA0C25 		orr	r5, r5, ip, lsl #8
 1025 0072 0561     		str	r5, [r0, #16]
 1026              	.L52:
 558:lvgl/src/extra/libs/png/lodepng.c ****     if(start + 3u < size) reader->buffer |= ((unsigned)reader->data[start + 3] << 24u);
 1027              		.loc 1 558 5 is_stmt 1 view .LVU319
 558:lvgl/src/extra/libs/png/lodepng.c ****     if(start + 3u < size) reader->buffer |= ((unsigned)reader->data[start + 3] << 24u);
 1028              		.loc 1 558 14 is_stmt 0 view .LVU320
 1029 0074 02F1020C 		add	ip, r2, #2
 558:lvgl/src/extra/libs/png/lodepng.c ****     if(start + 3u < size) reader->buffer |= ((unsigned)reader->data[start + 3] << 24u);
 1030              		.loc 1 558 7 view .LVU321
 1031 0078 A445     		cmp	ip, r4
 1032 007a 06D2     		bcs	.L53
 558:lvgl/src/extra/libs/png/lodepng.c ****     if(start + 3u < size) reader->buffer |= ((unsigned)reader->data[start + 3] << 24u);
 1033              		.loc 1 558 27 is_stmt 1 discriminator 1 view .LVU322
 558:lvgl/src/extra/libs/png/lodepng.c ****     if(start + 3u < size) reader->buffer |= ((unsigned)reader->data[start + 3] << 24u);
 1034              		.loc 1 558 62 is_stmt 0 discriminator 1 view .LVU323
 1035 007c 0568     		ldr	r5, [r0]
 558:lvgl/src/extra/libs/png/lodepng.c ****     if(start + 3u < size) reader->buffer |= ((unsigned)reader->data[start + 3] << 24u);
 1036              		.loc 1 558 68 discriminator 1 view .LVU324
 1037 007e 15F80C50 		ldrb	r5, [r5, ip]	@ zero_extendqisi2
 558:lvgl/src/extra/libs/png/lodepng.c ****     if(start + 3u < size) reader->buffer |= ((unsigned)reader->data[start + 3] << 24u);
 1038              		.loc 1 558 42 discriminator 1 view .LVU325
 1039 0082 0669     		ldr	r6, [r0, #16]
 1040 0084 46EA0545 		orr	r5, r6, r5, lsl #16
 1041 0088 0561     		str	r5, [r0, #16]
 1042              	.L53:
 559:lvgl/src/extra/libs/png/lodepng.c ****     reader->buffer >>= (reader->bp & 7u);
 1043              		.loc 1 559 5 is_stmt 1 view .LVU326
 559:lvgl/src/extra/libs/png/lodepng.c ****     reader->buffer >>= (reader->bp & 7u);
 1044              		.loc 1 559 14 is_stmt 0 view .LVU327
 1045 008a 0332     		adds	r2, r2, #3
 1046              	.LVL77:
 559:lvgl/src/extra/libs/png/lodepng.c ****     reader->buffer >>= (reader->bp & 7u);
 1047              		.loc 1 559 7 view .LVU328
 1048 008c A242     		cmp	r2, r4
 1049 008e 05D2     		bcs	.L54
 559:lvgl/src/extra/libs/png/lodepng.c ****     reader->buffer >>= (reader->bp & 7u);
 1050              		.loc 1 559 27 is_stmt 1 discriminator 1 view .LVU329
 559:lvgl/src/extra/libs/png/lodepng.c ****     reader->buffer >>= (reader->bp & 7u);
 1051              		.loc 1 559 33 is_stmt 0 discriminator 1 view .LVU330
 1052 0090 0469     		ldr	r4, [r0, #16]
 1053              	.LVL78:
 559:lvgl/src/extra/libs/png/lodepng.c ****     reader->buffer >>= (reader->bp & 7u);
 1054              		.loc 1 559 62 discriminator 1 view .LVU331
 1055 0092 0568     		ldr	r5, [r0]
 559:lvgl/src/extra/libs/png/lodepng.c ****     reader->buffer >>= (reader->bp & 7u);
 1056              		.loc 1 559 68 discriminator 1 view .LVU332
 1057 0094 AA5C     		ldrb	r2, [r5, r2]	@ zero_extendqisi2
 559:lvgl/src/extra/libs/png/lodepng.c ****     reader->buffer >>= (reader->bp & 7u);
 1058              		.loc 1 559 42 discriminator 1 view .LVU333
 1059 0096 44EA0264 		orr	r4, r4, r2, lsl #24
 1060 009a 0461     		str	r4, [r0, #16]
 1061              	.L54:
 560:lvgl/src/extra/libs/png/lodepng.c ****     return reader->bp + nbits <= reader->bitsize;
 1062              		.loc 1 560 5 is_stmt 1 view .LVU334
ARM GAS  C:\usertemp\cc6W5uFK.s 			page 31


 560:lvgl/src/extra/libs/png/lodepng.c ****     return reader->bp + nbits <= reader->bitsize;
 1063              		.loc 1 560 11 is_stmt 0 view .LVU335
 1064 009c 0269     		ldr	r2, [r0, #16]
 560:lvgl/src/extra/libs/png/lodepng.c ****     return reader->bp + nbits <= reader->bitsize;
 1065              		.loc 1 560 36 view .LVU336
 1066 009e 03F00704 		and	r4, r3, #7
 560:lvgl/src/extra/libs/png/lodepng.c ****     return reader->bp + nbits <= reader->bitsize;
 1067              		.loc 1 560 20 view .LVU337
 1068 00a2 E240     		lsrs	r2, r2, r4
 1069 00a4 0261     		str	r2, [r0, #16]
 561:lvgl/src/extra/libs/png/lodepng.c ****   }
 1070              		.loc 1 561 5 is_stmt 1 view .LVU338
 561:lvgl/src/extra/libs/png/lodepng.c ****   }
 1071              		.loc 1 561 23 is_stmt 0 view .LVU339
 1072 00a6 0B44     		add	r3, r3, r1
 561:lvgl/src/extra/libs/png/lodepng.c ****   }
 1073              		.loc 1 561 40 view .LVU340
 1074 00a8 8068     		ldr	r0, [r0, #8]
 1075              	.LVL79:
 561:lvgl/src/extra/libs/png/lodepng.c ****   }
 1076              		.loc 1 561 31 view .LVU341
 1077 00aa 8342     		cmp	r3, r0
 1078 00ac 8CBF     		ite	hi
 1079 00ae 0020     		movhi	r0, #0
 1080 00b0 0120     		movls	r0, #1
 1081 00b2 CCE7     		b	.L48
 1082              		.cfi_endproc
 1083              	.LFE227:
 1085              		.section	.text.peekBits,"ax",%progbits
 1086              		.align	1
 1087              		.syntax unified
 1088              		.thumb
 1089              		.thumb_func
 1091              	peekBits:
 1092              	.LVL80:
 1093              	.LFB228:
 564:lvgl/src/extra/libs/png/lodepng.c **** 
 565:lvgl/src/extra/libs/png/lodepng.c **** /* Get bits without advancing the bit pointer. Must have enough bits available with ensureBits. Max
 566:lvgl/src/extra/libs/png/lodepng.c **** static unsigned peekBits(LodePNGBitReader* reader, size_t nbits) {
 1094              		.loc 1 566 66 is_stmt 1 view -0
 1095              		.cfi_startproc
 1096              		@ args = 0, pretend = 0, frame = 0
 1097              		@ frame_needed = 0, uses_anonymous_args = 0
 1098              		@ link register save eliminated.
 567:lvgl/src/extra/libs/png/lodepng.c ****   /* The shift allows nbits to be only up to 31. */
 568:lvgl/src/extra/libs/png/lodepng.c ****   return reader->buffer & ((1u << nbits) - 1u);
 1099              		.loc 1 568 3 view .LVU343
 1100              		.loc 1 568 16 is_stmt 0 view .LVU344
 1101 0000 0069     		ldr	r0, [r0, #16]
 1102              	.LVL81:
 1103              		.loc 1 568 25 view .LVU345
 1104 0002 4FF0FF33 		mov	r3, #-1
 1105 0006 8B40     		lsls	r3, r3, r1
 569:lvgl/src/extra/libs/png/lodepng.c **** }
 1106              		.loc 1 569 1 view .LVU346
 1107 0008 20EA0300 		bic	r0, r0, r3
 1108 000c 7047     		bx	lr
ARM GAS  C:\usertemp\cc6W5uFK.s 			page 32


 1109              		.cfi_endproc
 1110              	.LFE228:
 1112              		.section	.text.advanceBits,"ax",%progbits
 1113              		.align	1
 1114              		.syntax unified
 1115              		.thumb
 1116              		.thumb_func
 1118              	advanceBits:
 1119              	.LVL82:
 1120              	.LFB229:
 570:lvgl/src/extra/libs/png/lodepng.c **** 
 571:lvgl/src/extra/libs/png/lodepng.c **** /* Must have enough bits available with ensureBits */
 572:lvgl/src/extra/libs/png/lodepng.c **** static void advanceBits(LodePNGBitReader* reader, size_t nbits) {
 1121              		.loc 1 572 65 is_stmt 1 view -0
 1122              		.cfi_startproc
 1123              		@ args = 0, pretend = 0, frame = 0
 1124              		@ frame_needed = 0, uses_anonymous_args = 0
 1125              		@ link register save eliminated.
 573:lvgl/src/extra/libs/png/lodepng.c ****   reader->buffer >>= nbits;
 1126              		.loc 1 573 3 view .LVU348
 1127              		.loc 1 573 9 is_stmt 0 view .LVU349
 1128 0000 0369     		ldr	r3, [r0, #16]
 1129              		.loc 1 573 18 view .LVU350
 1130 0002 CB40     		lsrs	r3, r3, r1
 1131 0004 0361     		str	r3, [r0, #16]
 574:lvgl/src/extra/libs/png/lodepng.c ****   reader->bp += nbits;
 1132              		.loc 1 574 3 is_stmt 1 view .LVU351
 1133              		.loc 1 574 9 is_stmt 0 view .LVU352
 1134 0006 C368     		ldr	r3, [r0, #12]
 1135              		.loc 1 574 14 view .LVU353
 1136 0008 0B44     		add	r3, r3, r1
 1137 000a C360     		str	r3, [r0, #12]
 575:lvgl/src/extra/libs/png/lodepng.c **** }
 1138              		.loc 1 575 1 view .LVU354
 1139 000c 7047     		bx	lr
 1140              		.cfi_endproc
 1141              	.LFE229:
 1143              		.section	.text.readBits,"ax",%progbits
 1144              		.align	1
 1145              		.syntax unified
 1146              		.thumb
 1147              		.thumb_func
 1149              	readBits:
 1150              	.LVL83:
 1151              	.LFB230:
 576:lvgl/src/extra/libs/png/lodepng.c **** 
 577:lvgl/src/extra/libs/png/lodepng.c **** /* Must have enough bits available with ensureBits */
 578:lvgl/src/extra/libs/png/lodepng.c **** static unsigned readBits(LodePNGBitReader* reader, size_t nbits) {
 1152              		.loc 1 578 66 is_stmt 1 view -0
 1153              		.cfi_startproc
 1154              		@ args = 0, pretend = 0, frame = 0
 1155              		@ frame_needed = 0, uses_anonymous_args = 0
 1156              		.loc 1 578 66 is_stmt 0 view .LVU356
 1157 0000 70B5     		push	{r4, r5, r6, lr}
 1158              	.LCFI16:
 1159              		.cfi_def_cfa_offset 16
 1160              		.cfi_offset 4, -16
ARM GAS  C:\usertemp\cc6W5uFK.s 			page 33


 1161              		.cfi_offset 5, -12
 1162              		.cfi_offset 6, -8
 1163              		.cfi_offset 14, -4
 1164 0002 0546     		mov	r5, r0
 1165 0004 0E46     		mov	r6, r1
 579:lvgl/src/extra/libs/png/lodepng.c ****   unsigned result = peekBits(reader, nbits);
 1166              		.loc 1 579 3 is_stmt 1 view .LVU357
 1167              		.loc 1 579 21 is_stmt 0 view .LVU358
 1168 0006 FFF7FEFF 		bl	peekBits
 1169              	.LVL84:
 1170              		.loc 1 579 21 view .LVU359
 1171 000a 0446     		mov	r4, r0
 1172              	.LVL85:
 580:lvgl/src/extra/libs/png/lodepng.c ****   advanceBits(reader, nbits);
 1173              		.loc 1 580 3 is_stmt 1 view .LVU360
 1174 000c 3146     		mov	r1, r6
 1175 000e 2846     		mov	r0, r5
 1176              	.LVL86:
 1177              		.loc 1 580 3 is_stmt 0 view .LVU361
 1178 0010 FFF7FEFF 		bl	advanceBits
 1179              	.LVL87:
 581:lvgl/src/extra/libs/png/lodepng.c ****   return result;
 1180              		.loc 1 581 3 is_stmt 1 view .LVU362
 582:lvgl/src/extra/libs/png/lodepng.c **** }
 1181              		.loc 1 582 1 is_stmt 0 view .LVU363
 1182 0014 2046     		mov	r0, r4
 1183 0016 70BD     		pop	{r4, r5, r6, pc}
 1184              		.loc 1 582 1 view .LVU364
 1185              		.cfi_endproc
 1186              	.LFE230:
 1188              		.section	.text.reverseBits,"ax",%progbits
 1189              		.align	1
 1190              		.syntax unified
 1191              		.thumb
 1192              		.thumb_func
 1194              	reverseBits:
 1195              	.LVL88:
 1196              	.LFB231:
 583:lvgl/src/extra/libs/png/lodepng.c **** 
 584:lvgl/src/extra/libs/png/lodepng.c **** #if 0 /*Disable because tests fail due to unused declaration*/
 585:lvgl/src/extra/libs/png/lodepng.c **** /* Public for testing only. steps and result must have numsteps values. */
 586:lvgl/src/extra/libs/png/lodepng.c **** static unsigned lode_png_test_bitreader(const unsigned char* data, size_t size,
 587:lvgl/src/extra/libs/png/lodepng.c ****                                  size_t numsteps, const size_t* steps, unsigned* result) {
 588:lvgl/src/extra/libs/png/lodepng.c ****   size_t i;
 589:lvgl/src/extra/libs/png/lodepng.c ****   LodePNGBitReader reader;
 590:lvgl/src/extra/libs/png/lodepng.c ****   unsigned error = LodePNGBitReader_init(&reader, data, size);
 591:lvgl/src/extra/libs/png/lodepng.c ****   if(error) return 0;
 592:lvgl/src/extra/libs/png/lodepng.c ****   for(i = 0; i < numsteps; i++) {
 593:lvgl/src/extra/libs/png/lodepng.c ****     size_t step = steps[i];
 594:lvgl/src/extra/libs/png/lodepng.c ****     unsigned ok;
 595:lvgl/src/extra/libs/png/lodepng.c ****     if(step > 25) ok = ensureBits32(&reader, step);
 596:lvgl/src/extra/libs/png/lodepng.c ****     else if(step > 17) ok = ensureBits25(&reader, step);
 597:lvgl/src/extra/libs/png/lodepng.c ****     else if(step > 9) ok = ensureBits17(&reader, step);
 598:lvgl/src/extra/libs/png/lodepng.c ****     else ok = ensureBits9(&reader, step);
 599:lvgl/src/extra/libs/png/lodepng.c ****     if(!ok) return 0;
 600:lvgl/src/extra/libs/png/lodepng.c ****     result[i] = readBits(&reader, step);
 601:lvgl/src/extra/libs/png/lodepng.c ****   }
ARM GAS  C:\usertemp\cc6W5uFK.s 			page 34


 602:lvgl/src/extra/libs/png/lodepng.c ****   return 1;
 603:lvgl/src/extra/libs/png/lodepng.c **** }
 604:lvgl/src/extra/libs/png/lodepng.c **** #endif
 605:lvgl/src/extra/libs/png/lodepng.c **** 
 606:lvgl/src/extra/libs/png/lodepng.c **** #endif /*LODEPNG_COMPILE_DECODER*/
 607:lvgl/src/extra/libs/png/lodepng.c **** 
 608:lvgl/src/extra/libs/png/lodepng.c **** static unsigned reverseBits(unsigned bits, unsigned num) {
 1197              		.loc 1 608 58 is_stmt 1 view -0
 1198              		.cfi_startproc
 1199              		@ args = 0, pretend = 0, frame = 0
 1200              		@ frame_needed = 0, uses_anonymous_args = 0
 1201              		@ link register save eliminated.
 1202              		.loc 1 608 58 is_stmt 0 view .LVU366
 1203 0000 8446     		mov	ip, r0
 609:lvgl/src/extra/libs/png/lodepng.c ****   /*TODO: implement faster lookup table based version when needed*/
 610:lvgl/src/extra/libs/png/lodepng.c ****   unsigned i, result = 0;
 1204              		.loc 1 610 3 is_stmt 1 view .LVU367
 1205              	.LVL89:
 611:lvgl/src/extra/libs/png/lodepng.c ****   for(i = 0; i < num; i++) result |= ((bits >> (num - i - 1u)) & 1u) << i;
 1206              		.loc 1 611 3 view .LVU368
 610:lvgl/src/extra/libs/png/lodepng.c ****   for(i = 0; i < num; i++) result |= ((bits >> (num - i - 1u)) & 1u) << i;
 1207              		.loc 1 610 15 is_stmt 0 view .LVU369
 1208 0002 0020     		movs	r0, #0
 1209              	.LVL90:
 1210              		.loc 1 611 9 view .LVU370
 1211 0004 0246     		mov	r2, r0
 1212              		.loc 1 611 3 view .LVU371
 1213 0006 08E0     		b	.L61
 1214              	.LVL91:
 1215              	.L62:
 1216              		.loc 1 611 28 is_stmt 1 discriminator 3 view .LVU372
 1217              		.loc 1 611 53 is_stmt 0 discriminator 3 view .LVU373
 1218 0008 8B1A     		subs	r3, r1, r2
 1219              		.loc 1 611 57 discriminator 3 view .LVU374
 1220 000a 013B     		subs	r3, r3, #1
 1221              		.loc 1 611 45 discriminator 3 view .LVU375
 1222 000c 2CFA03F3 		lsr	r3, ip, r3
 1223              		.loc 1 611 64 discriminator 3 view .LVU376
 1224 0010 03F00103 		and	r3, r3, #1
 1225              		.loc 1 611 70 discriminator 3 view .LVU377
 1226 0014 9340     		lsls	r3, r3, r2
 1227              		.loc 1 611 35 discriminator 3 view .LVU378
 1228 0016 1843     		orrs	r0, r0, r3
 1229              	.LVL92:
 1230              		.loc 1 611 24 is_stmt 1 discriminator 3 view .LVU379
 1231 0018 0132     		adds	r2, r2, #1
 1232              	.LVL93:
 1233              	.L61:
 1234              		.loc 1 611 16 discriminator 1 view .LVU380
 1235 001a 8A42     		cmp	r2, r1
 1236 001c F4D3     		bcc	.L62
 612:lvgl/src/extra/libs/png/lodepng.c ****   return result;
 1237              		.loc 1 612 3 view .LVU381
 613:lvgl/src/extra/libs/png/lodepng.c **** }
 1238              		.loc 1 613 1 is_stmt 0 view .LVU382
 1239 001e 7047     		bx	lr
 1240              		.cfi_endproc
ARM GAS  C:\usertemp\cc6W5uFK.s 			page 35


 1241              	.LFE231:
 1243              		.section	.text.HuffmanTree_init,"ax",%progbits
 1244              		.align	1
 1245              		.syntax unified
 1246              		.thumb
 1247              		.thumb_func
 1249              	HuffmanTree_init:
 1250              	.LVL94:
 1251              	.LFB232:
 614:lvgl/src/extra/libs/png/lodepng.c **** 
 615:lvgl/src/extra/libs/png/lodepng.c **** /* ////////////////////////////////////////////////////////////////////////// */
 616:lvgl/src/extra/libs/png/lodepng.c **** /* / Deflate - Huffman                                                      / */
 617:lvgl/src/extra/libs/png/lodepng.c **** /* ////////////////////////////////////////////////////////////////////////// */
 618:lvgl/src/extra/libs/png/lodepng.c **** 
 619:lvgl/src/extra/libs/png/lodepng.c **** #define FIRST_LENGTH_CODE_INDEX 257
 620:lvgl/src/extra/libs/png/lodepng.c **** #define LAST_LENGTH_CODE_INDEX 285
 621:lvgl/src/extra/libs/png/lodepng.c **** /*256 literals, the end code, some length codes, and 2 unused codes*/
 622:lvgl/src/extra/libs/png/lodepng.c **** #define NUM_DEFLATE_CODE_SYMBOLS 288
 623:lvgl/src/extra/libs/png/lodepng.c **** /*the distance codes have their own symbols, 30 used, 2 unused*/
 624:lvgl/src/extra/libs/png/lodepng.c **** #define NUM_DISTANCE_SYMBOLS 32
 625:lvgl/src/extra/libs/png/lodepng.c **** /*the code length codes. 0-15: code lengths, 16: copy previous 3-6 times, 17: 3-10 zeros, 18: 11-13
 626:lvgl/src/extra/libs/png/lodepng.c **** #define NUM_CODE_LENGTH_CODES 19
 627:lvgl/src/extra/libs/png/lodepng.c **** 
 628:lvgl/src/extra/libs/png/lodepng.c **** /*the base lengths represented by codes 257-285*/
 629:lvgl/src/extra/libs/png/lodepng.c **** static const unsigned LENGTHBASE[29]
 630:lvgl/src/extra/libs/png/lodepng.c ****   = {3, 4, 5, 6, 7, 8, 9, 10, 11, 13, 15, 17, 19, 23, 27, 31, 35, 43, 51, 59,
 631:lvgl/src/extra/libs/png/lodepng.c ****      67, 83, 99, 115, 131, 163, 195, 227, 258};
 632:lvgl/src/extra/libs/png/lodepng.c **** 
 633:lvgl/src/extra/libs/png/lodepng.c **** /*the extra bits used by codes 257-285 (added to base length)*/
 634:lvgl/src/extra/libs/png/lodepng.c **** static const unsigned LENGTHEXTRA[29]
 635:lvgl/src/extra/libs/png/lodepng.c ****   = {0, 0, 0, 0, 0, 0, 0,  0,  1,  1,  1,  1,  2,  2,  2,  2,  3,  3,  3,  3,
 636:lvgl/src/extra/libs/png/lodepng.c ****       4,  4,  4,   4,   5,   5,   5,   5,   0};
 637:lvgl/src/extra/libs/png/lodepng.c **** 
 638:lvgl/src/extra/libs/png/lodepng.c **** /*the base backwards distances (the bits of distance codes appear after length codes and use their 
 639:lvgl/src/extra/libs/png/lodepng.c **** static const unsigned DISTANCEBASE[30]
 640:lvgl/src/extra/libs/png/lodepng.c ****   = {1, 2, 3, 4, 5, 7, 9, 13, 17, 25, 33, 49, 65, 97, 129, 193, 257, 385, 513,
 641:lvgl/src/extra/libs/png/lodepng.c ****      769, 1025, 1537, 2049, 3073, 4097, 6145, 8193, 12289, 16385, 24577};
 642:lvgl/src/extra/libs/png/lodepng.c **** 
 643:lvgl/src/extra/libs/png/lodepng.c **** /*the extra bits of backwards distances (added to base)*/
 644:lvgl/src/extra/libs/png/lodepng.c **** static const unsigned DISTANCEEXTRA[30]
 645:lvgl/src/extra/libs/png/lodepng.c ****   = {0, 0, 0, 0, 1, 1, 2,  2,  3,  3,  4,  4,  5,  5,   6,   6,   7,   7,   8,
 646:lvgl/src/extra/libs/png/lodepng.c ****        8,    9,    9,   10,   10,   11,   11,   12,    12,    13,    13};
 647:lvgl/src/extra/libs/png/lodepng.c **** 
 648:lvgl/src/extra/libs/png/lodepng.c **** /*the order in which "code length alphabet code lengths" are stored as specified by deflate, out of
 649:lvgl/src/extra/libs/png/lodepng.c **** tree of the dynamic huffman tree lengths is generated*/
 650:lvgl/src/extra/libs/png/lodepng.c **** static const unsigned CLCL_ORDER[NUM_CODE_LENGTH_CODES]
 651:lvgl/src/extra/libs/png/lodepng.c ****   = {16, 17, 18, 0, 8, 7, 9, 6, 10, 5, 11, 4, 12, 3, 13, 2, 14, 1, 15};
 652:lvgl/src/extra/libs/png/lodepng.c **** 
 653:lvgl/src/extra/libs/png/lodepng.c **** /* ////////////////////////////////////////////////////////////////////////// */
 654:lvgl/src/extra/libs/png/lodepng.c **** 
 655:lvgl/src/extra/libs/png/lodepng.c **** /*
 656:lvgl/src/extra/libs/png/lodepng.c **** Huffman tree struct, containing multiple representations of the tree
 657:lvgl/src/extra/libs/png/lodepng.c **** */
 658:lvgl/src/extra/libs/png/lodepng.c **** typedef struct HuffmanTree {
 659:lvgl/src/extra/libs/png/lodepng.c ****   unsigned* codes; /*the huffman codes (bit patterns representing the symbols)*/
 660:lvgl/src/extra/libs/png/lodepng.c ****   unsigned* lengths; /*the lengths of the huffman codes*/
 661:lvgl/src/extra/libs/png/lodepng.c ****   unsigned maxbitlen; /*maximum number of bits a single code can get*/
ARM GAS  C:\usertemp\cc6W5uFK.s 			page 36


 662:lvgl/src/extra/libs/png/lodepng.c ****   unsigned numcodes; /*number of symbols in the alphabet = number of codes*/
 663:lvgl/src/extra/libs/png/lodepng.c ****   /* for reading only */
 664:lvgl/src/extra/libs/png/lodepng.c ****   unsigned char* table_len; /*length of symbol from lookup table, or max length if secondary lookup
 665:lvgl/src/extra/libs/png/lodepng.c ****   unsigned short* table_value; /*value of symbol from lookup table, or pointer to secondary table i
 666:lvgl/src/extra/libs/png/lodepng.c **** } HuffmanTree;
 667:lvgl/src/extra/libs/png/lodepng.c **** 
 668:lvgl/src/extra/libs/png/lodepng.c **** static void HuffmanTree_init(HuffmanTree* tree) {
 1252              		.loc 1 668 49 is_stmt 1 view -0
 1253              		.cfi_startproc
 1254              		@ args = 0, pretend = 0, frame = 0
 1255              		@ frame_needed = 0, uses_anonymous_args = 0
 1256              		@ link register save eliminated.
 669:lvgl/src/extra/libs/png/lodepng.c ****   tree->codes = 0;
 1257              		.loc 1 669 3 view .LVU384
 1258              		.loc 1 669 15 is_stmt 0 view .LVU385
 1259 0000 0023     		movs	r3, #0
 1260 0002 0360     		str	r3, [r0]
 670:lvgl/src/extra/libs/png/lodepng.c ****   tree->lengths = 0;
 1261              		.loc 1 670 3 is_stmt 1 view .LVU386
 1262              		.loc 1 670 17 is_stmt 0 view .LVU387
 1263 0004 4360     		str	r3, [r0, #4]
 671:lvgl/src/extra/libs/png/lodepng.c ****   tree->table_len = 0;
 1264              		.loc 1 671 3 is_stmt 1 view .LVU388
 1265              		.loc 1 671 19 is_stmt 0 view .LVU389
 1266 0006 0361     		str	r3, [r0, #16]
 672:lvgl/src/extra/libs/png/lodepng.c ****   tree->table_value = 0;
 1267              		.loc 1 672 3 is_stmt 1 view .LVU390
 1268              		.loc 1 672 21 is_stmt 0 view .LVU391
 1269 0008 4361     		str	r3, [r0, #20]
 673:lvgl/src/extra/libs/png/lodepng.c **** }
 1270              		.loc 1 673 1 view .LVU392
 1271 000a 7047     		bx	lr
 1272              		.cfi_endproc
 1273              	.LFE232:
 1275              		.section	.text.bpmnode_create,"ax",%progbits
 1276              		.align	1
 1277              		.syntax unified
 1278              		.thumb
 1279              		.thumb_func
 1281              	bpmnode_create:
 1282              	.LVL95:
 1283              	.LFB237:
 674:lvgl/src/extra/libs/png/lodepng.c **** 
 675:lvgl/src/extra/libs/png/lodepng.c **** static void HuffmanTree_cleanup(HuffmanTree* tree) {
 676:lvgl/src/extra/libs/png/lodepng.c ****   lodepng_free(tree->codes);
 677:lvgl/src/extra/libs/png/lodepng.c ****   lodepng_free(tree->lengths);
 678:lvgl/src/extra/libs/png/lodepng.c ****   lodepng_free(tree->table_len);
 679:lvgl/src/extra/libs/png/lodepng.c ****   lodepng_free(tree->table_value);
 680:lvgl/src/extra/libs/png/lodepng.c **** }
 681:lvgl/src/extra/libs/png/lodepng.c **** 
 682:lvgl/src/extra/libs/png/lodepng.c **** /* amount of bits for first huffman table lookup (aka root bits), see HuffmanTree_makeTable and huf
 683:lvgl/src/extra/libs/png/lodepng.c **** /* values 8u and 9u work the fastest */
 684:lvgl/src/extra/libs/png/lodepng.c **** #define FIRSTBITS 9u
 685:lvgl/src/extra/libs/png/lodepng.c **** 
 686:lvgl/src/extra/libs/png/lodepng.c **** /* a symbol value too big to represent any valid symbol, to indicate reading disallowed huffman bit
 687:lvgl/src/extra/libs/png/lodepng.c **** which is possible in case of only 0 or 1 present symbols. */
 688:lvgl/src/extra/libs/png/lodepng.c **** #define INVALIDSYMBOL 65535u
ARM GAS  C:\usertemp\cc6W5uFK.s 			page 37


 689:lvgl/src/extra/libs/png/lodepng.c **** 
 690:lvgl/src/extra/libs/png/lodepng.c **** /* make table for huffman decoding */
 691:lvgl/src/extra/libs/png/lodepng.c **** static unsigned HuffmanTree_makeTable(HuffmanTree* tree) {
 692:lvgl/src/extra/libs/png/lodepng.c ****   static const unsigned headsize = 1u << FIRSTBITS; /*size of the first table*/
 693:lvgl/src/extra/libs/png/lodepng.c ****   static const unsigned mask = (1u << FIRSTBITS) /*headsize*/ - 1u;
 694:lvgl/src/extra/libs/png/lodepng.c ****   size_t i, numpresent, pointer, size; /*total table size*/
 695:lvgl/src/extra/libs/png/lodepng.c ****   unsigned* maxlens = (unsigned*)lodepng_malloc(headsize * sizeof(unsigned));
 696:lvgl/src/extra/libs/png/lodepng.c ****   if(!maxlens) return 83; /*alloc fail*/
 697:lvgl/src/extra/libs/png/lodepng.c **** 
 698:lvgl/src/extra/libs/png/lodepng.c ****   /* compute maxlens: max total bit length of symbols sharing prefix in the first table*/
 699:lvgl/src/extra/libs/png/lodepng.c ****   lodepng_memset(maxlens, 0, headsize * sizeof(*maxlens));
 700:lvgl/src/extra/libs/png/lodepng.c ****   for(i = 0; i < tree->numcodes; i++) {
 701:lvgl/src/extra/libs/png/lodepng.c ****     unsigned symbol = tree->codes[i];
 702:lvgl/src/extra/libs/png/lodepng.c ****     unsigned l = tree->lengths[i];
 703:lvgl/src/extra/libs/png/lodepng.c ****     unsigned index;
 704:lvgl/src/extra/libs/png/lodepng.c ****     if(l <= FIRSTBITS) continue; /*symbols that fit in first table don't increase secondary table s
 705:lvgl/src/extra/libs/png/lodepng.c ****     /*get the FIRSTBITS MSBs, the MSBs of the symbol are encoded first. See later comment about the
 706:lvgl/src/extra/libs/png/lodepng.c ****     index = reverseBits(symbol >> (l - FIRSTBITS), FIRSTBITS);
 707:lvgl/src/extra/libs/png/lodepng.c ****     maxlens[index] = LODEPNG_MAX(maxlens[index], l);
 708:lvgl/src/extra/libs/png/lodepng.c ****   }
 709:lvgl/src/extra/libs/png/lodepng.c ****   /* compute total table size: size of first table plus all secondary tables for symbols longer tha
 710:lvgl/src/extra/libs/png/lodepng.c ****   size = headsize;
 711:lvgl/src/extra/libs/png/lodepng.c ****   for(i = 0; i < headsize; ++i) {
 712:lvgl/src/extra/libs/png/lodepng.c ****     unsigned l = maxlens[i];
 713:lvgl/src/extra/libs/png/lodepng.c ****     if(l > FIRSTBITS) size += (1u << (l - FIRSTBITS));
 714:lvgl/src/extra/libs/png/lodepng.c ****   }
 715:lvgl/src/extra/libs/png/lodepng.c ****   tree->table_len = (unsigned char*)lodepng_malloc(size * sizeof(*tree->table_len));
 716:lvgl/src/extra/libs/png/lodepng.c ****   tree->table_value = (unsigned short*)lodepng_malloc(size * sizeof(*tree->table_value));
 717:lvgl/src/extra/libs/png/lodepng.c ****   if(!tree->table_len || !tree->table_value) {
 718:lvgl/src/extra/libs/png/lodepng.c ****     lodepng_free(maxlens);
 719:lvgl/src/extra/libs/png/lodepng.c ****     /* freeing tree->table values is done at a higher scope */
 720:lvgl/src/extra/libs/png/lodepng.c ****     return 83; /*alloc fail*/
 721:lvgl/src/extra/libs/png/lodepng.c ****   }
 722:lvgl/src/extra/libs/png/lodepng.c ****   /*initialize with an invalid length to indicate unused entries*/
 723:lvgl/src/extra/libs/png/lodepng.c ****   for(i = 0; i < size; ++i) tree->table_len[i] = 16;
 724:lvgl/src/extra/libs/png/lodepng.c **** 
 725:lvgl/src/extra/libs/png/lodepng.c ****   /*fill in the first table for long symbols: max prefix size and pointer to secondary tables*/
 726:lvgl/src/extra/libs/png/lodepng.c ****   pointer = headsize;
 727:lvgl/src/extra/libs/png/lodepng.c ****   for(i = 0; i < headsize; ++i) {
 728:lvgl/src/extra/libs/png/lodepng.c ****     unsigned l = maxlens[i];
 729:lvgl/src/extra/libs/png/lodepng.c ****     if(l <= FIRSTBITS) continue;
 730:lvgl/src/extra/libs/png/lodepng.c ****     tree->table_len[i] = l;
 731:lvgl/src/extra/libs/png/lodepng.c ****     tree->table_value[i] = pointer;
 732:lvgl/src/extra/libs/png/lodepng.c ****     pointer += (1u << (l - FIRSTBITS));
 733:lvgl/src/extra/libs/png/lodepng.c ****   }
 734:lvgl/src/extra/libs/png/lodepng.c ****   lodepng_free(maxlens);
 735:lvgl/src/extra/libs/png/lodepng.c **** 
 736:lvgl/src/extra/libs/png/lodepng.c ****   /*fill in the first table for short symbols, or secondary table for long symbols*/
 737:lvgl/src/extra/libs/png/lodepng.c ****   numpresent = 0;
 738:lvgl/src/extra/libs/png/lodepng.c ****   for(i = 0; i < tree->numcodes; ++i) {
 739:lvgl/src/extra/libs/png/lodepng.c ****     unsigned l = tree->lengths[i];
 740:lvgl/src/extra/libs/png/lodepng.c ****     unsigned symbol = tree->codes[i]; /*the huffman bit pattern. i itself is the value.*/
 741:lvgl/src/extra/libs/png/lodepng.c ****     /*reverse bits, because the huffman bits are given in MSB first order but the bit reader reads 
 742:lvgl/src/extra/libs/png/lodepng.c ****     unsigned reverse = reverseBits(symbol, l);
 743:lvgl/src/extra/libs/png/lodepng.c ****     if(l == 0) continue;
 744:lvgl/src/extra/libs/png/lodepng.c ****     numpresent++;
 745:lvgl/src/extra/libs/png/lodepng.c **** 
ARM GAS  C:\usertemp\cc6W5uFK.s 			page 38


 746:lvgl/src/extra/libs/png/lodepng.c ****     if(l <= FIRSTBITS) {
 747:lvgl/src/extra/libs/png/lodepng.c ****       /*short symbol, fully in first table, replicated num times if l < FIRSTBITS*/
 748:lvgl/src/extra/libs/png/lodepng.c ****       unsigned num = 1u << (FIRSTBITS - l);
 749:lvgl/src/extra/libs/png/lodepng.c ****       unsigned j;
 750:lvgl/src/extra/libs/png/lodepng.c ****       for(j = 0; j < num; ++j) {
 751:lvgl/src/extra/libs/png/lodepng.c ****         /*bit reader will read the l bits of symbol first, the remaining FIRSTBITS - l bits go to t
 752:lvgl/src/extra/libs/png/lodepng.c ****         unsigned index = reverse | (j << l);
 753:lvgl/src/extra/libs/png/lodepng.c ****         if(tree->table_len[index] != 16) return 55; /*invalid tree: long symbol shares prefix with 
 754:lvgl/src/extra/libs/png/lodepng.c ****         tree->table_len[index] = l;
 755:lvgl/src/extra/libs/png/lodepng.c ****         tree->table_value[index] = i;
 756:lvgl/src/extra/libs/png/lodepng.c ****       }
 757:lvgl/src/extra/libs/png/lodepng.c ****     } else {
 758:lvgl/src/extra/libs/png/lodepng.c ****       /*long symbol, shares prefix with other long symbols in first lookup table, needs second look
 759:lvgl/src/extra/libs/png/lodepng.c ****       /*the FIRSTBITS MSBs of the symbol are the first table index*/
 760:lvgl/src/extra/libs/png/lodepng.c ****       unsigned index = reverse & mask;
 761:lvgl/src/extra/libs/png/lodepng.c ****       unsigned maxlen = tree->table_len[index];
 762:lvgl/src/extra/libs/png/lodepng.c ****       /*log2 of secondary table length, should be >= l - FIRSTBITS*/
 763:lvgl/src/extra/libs/png/lodepng.c ****       unsigned tablelen = maxlen - FIRSTBITS;
 764:lvgl/src/extra/libs/png/lodepng.c ****       unsigned start = tree->table_value[index]; /*starting index in secondary table*/
 765:lvgl/src/extra/libs/png/lodepng.c ****       unsigned num = 1u << (tablelen - (l - FIRSTBITS)); /*amount of entries of this symbol in seco
 766:lvgl/src/extra/libs/png/lodepng.c ****       unsigned j;
 767:lvgl/src/extra/libs/png/lodepng.c ****       if(maxlen < l) return 55; /*invalid tree: long symbol shares prefix with short symbol*/
 768:lvgl/src/extra/libs/png/lodepng.c ****       for(j = 0; j < num; ++j) {
 769:lvgl/src/extra/libs/png/lodepng.c ****         unsigned reverse2 = reverse >> FIRSTBITS; /* l - FIRSTBITS bits */
 770:lvgl/src/extra/libs/png/lodepng.c ****         unsigned index2 = start + (reverse2 | (j << (l - FIRSTBITS)));
 771:lvgl/src/extra/libs/png/lodepng.c ****         tree->table_len[index2] = l;
 772:lvgl/src/extra/libs/png/lodepng.c ****         tree->table_value[index2] = i;
 773:lvgl/src/extra/libs/png/lodepng.c ****       }
 774:lvgl/src/extra/libs/png/lodepng.c ****     }
 775:lvgl/src/extra/libs/png/lodepng.c ****   }
 776:lvgl/src/extra/libs/png/lodepng.c **** 
 777:lvgl/src/extra/libs/png/lodepng.c ****   if(numpresent < 2) {
 778:lvgl/src/extra/libs/png/lodepng.c ****     /* In case of exactly 1 symbol, in theory the huffman symbol needs 0 bits,
 779:lvgl/src/extra/libs/png/lodepng.c ****     but deflate uses 1 bit instead. In case of 0 symbols, no symbols can
 780:lvgl/src/extra/libs/png/lodepng.c ****     appear at all, but such huffman tree could still exist (e.g. if distance
 781:lvgl/src/extra/libs/png/lodepng.c ****     codes are never used). In both cases, not all symbols of the table will be
 782:lvgl/src/extra/libs/png/lodepng.c ****     filled in. Fill them in with an invalid symbol value so returning them from
 783:lvgl/src/extra/libs/png/lodepng.c ****     huffmanDecodeSymbol will cause error. */
 784:lvgl/src/extra/libs/png/lodepng.c ****     for(i = 0; i < size; ++i) {
 785:lvgl/src/extra/libs/png/lodepng.c ****       if(tree->table_len[i] == 16) {
 786:lvgl/src/extra/libs/png/lodepng.c ****         /* As length, use a value smaller than FIRSTBITS for the head table,
 787:lvgl/src/extra/libs/png/lodepng.c ****         and a value larger than FIRSTBITS for the secondary table, to ensure
 788:lvgl/src/extra/libs/png/lodepng.c ****         valid behavior for advanceBits when reading this symbol. */
 789:lvgl/src/extra/libs/png/lodepng.c ****         tree->table_len[i] = (i < headsize) ? 1 : (FIRSTBITS + 1);
 790:lvgl/src/extra/libs/png/lodepng.c ****         tree->table_value[i] = INVALIDSYMBOL;
 791:lvgl/src/extra/libs/png/lodepng.c ****       }
 792:lvgl/src/extra/libs/png/lodepng.c ****     }
 793:lvgl/src/extra/libs/png/lodepng.c ****   } else {
 794:lvgl/src/extra/libs/png/lodepng.c ****     /* A good huffman tree has N * 2 - 1 nodes, of which N - 1 are internal nodes.
 795:lvgl/src/extra/libs/png/lodepng.c ****     If that is not the case (due to too long length codes), the table will not
 796:lvgl/src/extra/libs/png/lodepng.c ****     have been fully used, and this is an error (not all bit combinations can be
 797:lvgl/src/extra/libs/png/lodepng.c ****     decoded): an oversubscribed huffman tree, indicated by error 55. */
 798:lvgl/src/extra/libs/png/lodepng.c ****     for(i = 0; i < size; ++i) {
 799:lvgl/src/extra/libs/png/lodepng.c ****       if(tree->table_len[i] == 16) return 55;
 800:lvgl/src/extra/libs/png/lodepng.c ****     }
 801:lvgl/src/extra/libs/png/lodepng.c ****   }
 802:lvgl/src/extra/libs/png/lodepng.c **** 
ARM GAS  C:\usertemp\cc6W5uFK.s 			page 39


 803:lvgl/src/extra/libs/png/lodepng.c ****   return 0;
 804:lvgl/src/extra/libs/png/lodepng.c **** }
 805:lvgl/src/extra/libs/png/lodepng.c **** 
 806:lvgl/src/extra/libs/png/lodepng.c **** /*
 807:lvgl/src/extra/libs/png/lodepng.c **** Second step for the ...makeFromLengths and ...makeFromFrequencies functions.
 808:lvgl/src/extra/libs/png/lodepng.c **** numcodes, lengths and maxbitlen must already be filled in correctly. return
 809:lvgl/src/extra/libs/png/lodepng.c **** value is error.
 810:lvgl/src/extra/libs/png/lodepng.c **** */
 811:lvgl/src/extra/libs/png/lodepng.c **** static unsigned HuffmanTree_makeFromLengths2(HuffmanTree* tree) {
 812:lvgl/src/extra/libs/png/lodepng.c ****   unsigned* blcount;
 813:lvgl/src/extra/libs/png/lodepng.c ****   unsigned* nextcode;
 814:lvgl/src/extra/libs/png/lodepng.c ****   unsigned error = 0;
 815:lvgl/src/extra/libs/png/lodepng.c ****   unsigned bits, n;
 816:lvgl/src/extra/libs/png/lodepng.c **** 
 817:lvgl/src/extra/libs/png/lodepng.c ****   tree->codes = (unsigned*)lodepng_malloc(tree->numcodes * sizeof(unsigned));
 818:lvgl/src/extra/libs/png/lodepng.c ****   blcount = (unsigned*)lodepng_malloc((tree->maxbitlen + 1) * sizeof(unsigned));
 819:lvgl/src/extra/libs/png/lodepng.c ****   nextcode = (unsigned*)lodepng_malloc((tree->maxbitlen + 1) * sizeof(unsigned));
 820:lvgl/src/extra/libs/png/lodepng.c ****   if(!tree->codes || !blcount || !nextcode) error = 83; /*alloc fail*/
 821:lvgl/src/extra/libs/png/lodepng.c **** 
 822:lvgl/src/extra/libs/png/lodepng.c ****   if(!error) {
 823:lvgl/src/extra/libs/png/lodepng.c ****     for(n = 0; n != tree->maxbitlen + 1; n++) blcount[n] = nextcode[n] = 0;
 824:lvgl/src/extra/libs/png/lodepng.c ****     /*step 1: count number of instances of each code length*/
 825:lvgl/src/extra/libs/png/lodepng.c ****     for(bits = 0; bits != tree->numcodes; ++bits) ++blcount[tree->lengths[bits]];
 826:lvgl/src/extra/libs/png/lodepng.c ****     /*step 2: generate the nextcode values*/
 827:lvgl/src/extra/libs/png/lodepng.c ****     for(bits = 1; bits <= tree->maxbitlen; ++bits) {
 828:lvgl/src/extra/libs/png/lodepng.c ****       nextcode[bits] = (nextcode[bits - 1] + blcount[bits - 1]) << 1u;
 829:lvgl/src/extra/libs/png/lodepng.c ****     }
 830:lvgl/src/extra/libs/png/lodepng.c ****     /*step 3: generate all the codes*/
 831:lvgl/src/extra/libs/png/lodepng.c ****     for(n = 0; n != tree->numcodes; ++n) {
 832:lvgl/src/extra/libs/png/lodepng.c ****       if(tree->lengths[n] != 0) {
 833:lvgl/src/extra/libs/png/lodepng.c ****         tree->codes[n] = nextcode[tree->lengths[n]]++;
 834:lvgl/src/extra/libs/png/lodepng.c ****         /*remove superfluous bits from the code*/
 835:lvgl/src/extra/libs/png/lodepng.c ****         tree->codes[n] &= ((1u << tree->lengths[n]) - 1u);
 836:lvgl/src/extra/libs/png/lodepng.c ****       }
 837:lvgl/src/extra/libs/png/lodepng.c ****     }
 838:lvgl/src/extra/libs/png/lodepng.c ****   }
 839:lvgl/src/extra/libs/png/lodepng.c **** 
 840:lvgl/src/extra/libs/png/lodepng.c ****   lodepng_free(blcount);
 841:lvgl/src/extra/libs/png/lodepng.c ****   lodepng_free(nextcode);
 842:lvgl/src/extra/libs/png/lodepng.c **** 
 843:lvgl/src/extra/libs/png/lodepng.c ****   if(!error) error = HuffmanTree_makeTable(tree);
 844:lvgl/src/extra/libs/png/lodepng.c ****   return error;
 845:lvgl/src/extra/libs/png/lodepng.c **** }
 846:lvgl/src/extra/libs/png/lodepng.c **** 
 847:lvgl/src/extra/libs/png/lodepng.c **** /*
 848:lvgl/src/extra/libs/png/lodepng.c **** given the code lengths (as stored in the PNG file), generate the tree as defined
 849:lvgl/src/extra/libs/png/lodepng.c **** by Deflate. maxbitlen is the maximum bits that a code in the tree can have.
 850:lvgl/src/extra/libs/png/lodepng.c **** return value is error.
 851:lvgl/src/extra/libs/png/lodepng.c **** */
 852:lvgl/src/extra/libs/png/lodepng.c **** static unsigned HuffmanTree_makeFromLengths(HuffmanTree* tree, const unsigned* bitlen,
 853:lvgl/src/extra/libs/png/lodepng.c ****                                             size_t numcodes, unsigned maxbitlen) {
 854:lvgl/src/extra/libs/png/lodepng.c ****   unsigned i;
 855:lvgl/src/extra/libs/png/lodepng.c ****   tree->lengths = (unsigned*)lodepng_malloc(numcodes * sizeof(unsigned));
 856:lvgl/src/extra/libs/png/lodepng.c ****   if(!tree->lengths) return 83; /*alloc fail*/
 857:lvgl/src/extra/libs/png/lodepng.c ****   for(i = 0; i != numcodes; ++i) tree->lengths[i] = bitlen[i];
 858:lvgl/src/extra/libs/png/lodepng.c ****   tree->numcodes = (unsigned)numcodes; /*number of symbols*/
 859:lvgl/src/extra/libs/png/lodepng.c ****   tree->maxbitlen = maxbitlen;
ARM GAS  C:\usertemp\cc6W5uFK.s 			page 40


 860:lvgl/src/extra/libs/png/lodepng.c ****   return HuffmanTree_makeFromLengths2(tree);
 861:lvgl/src/extra/libs/png/lodepng.c **** }
 862:lvgl/src/extra/libs/png/lodepng.c **** 
 863:lvgl/src/extra/libs/png/lodepng.c **** #ifdef LODEPNG_COMPILE_ENCODER
 864:lvgl/src/extra/libs/png/lodepng.c **** 
 865:lvgl/src/extra/libs/png/lodepng.c **** /*BPM: Boundary Package Merge, see "A Fast and Space-Economical Algorithm for Length-Limited Coding
 866:lvgl/src/extra/libs/png/lodepng.c **** Jyrki Katajainen, Alistair Moffat, Andrew Turpin, 1995.*/
 867:lvgl/src/extra/libs/png/lodepng.c **** 
 868:lvgl/src/extra/libs/png/lodepng.c **** /*chain node for boundary package merge*/
 869:lvgl/src/extra/libs/png/lodepng.c **** typedef struct BPMNode {
 870:lvgl/src/extra/libs/png/lodepng.c ****   int weight; /*the sum of all weights in this chain*/
 871:lvgl/src/extra/libs/png/lodepng.c ****   unsigned index; /*index of this leaf node (called "count" in the paper)*/
 872:lvgl/src/extra/libs/png/lodepng.c ****   struct BPMNode* tail; /*the next nodes in this chain (null if last)*/
 873:lvgl/src/extra/libs/png/lodepng.c ****   int in_use;
 874:lvgl/src/extra/libs/png/lodepng.c **** } BPMNode;
 875:lvgl/src/extra/libs/png/lodepng.c **** 
 876:lvgl/src/extra/libs/png/lodepng.c **** /*lists of chains*/
 877:lvgl/src/extra/libs/png/lodepng.c **** typedef struct BPMLists {
 878:lvgl/src/extra/libs/png/lodepng.c ****   /*memory pool*/
 879:lvgl/src/extra/libs/png/lodepng.c ****   unsigned memsize;
 880:lvgl/src/extra/libs/png/lodepng.c ****   BPMNode* memory;
 881:lvgl/src/extra/libs/png/lodepng.c ****   unsigned numfree;
 882:lvgl/src/extra/libs/png/lodepng.c ****   unsigned nextfree;
 883:lvgl/src/extra/libs/png/lodepng.c ****   BPMNode** freelist;
 884:lvgl/src/extra/libs/png/lodepng.c ****   /*two heads of lookahead chains per list*/
 885:lvgl/src/extra/libs/png/lodepng.c ****   unsigned listsize;
 886:lvgl/src/extra/libs/png/lodepng.c ****   BPMNode** chains0;
 887:lvgl/src/extra/libs/png/lodepng.c ****   BPMNode** chains1;
 888:lvgl/src/extra/libs/png/lodepng.c **** } BPMLists;
 889:lvgl/src/extra/libs/png/lodepng.c **** 
 890:lvgl/src/extra/libs/png/lodepng.c **** /*creates a new chain node with the given parameters, from the memory in the lists */
 891:lvgl/src/extra/libs/png/lodepng.c **** static BPMNode* bpmnode_create(BPMLists* lists, int weight, unsigned index, BPMNode* tail) {
 1284              		.loc 1 891 92 is_stmt 1 view -0
 1285              		.cfi_startproc
 1286              		@ args = 0, pretend = 0, frame = 0
 1287              		@ frame_needed = 0, uses_anonymous_args = 0
 1288              		.loc 1 891 92 is_stmt 0 view .LVU394
 1289 0000 70B5     		push	{r4, r5, r6, lr}
 1290              	.LCFI17:
 1291              		.cfi_def_cfa_offset 16
 1292              		.cfi_offset 4, -16
 1293              		.cfi_offset 5, -12
 1294              		.cfi_offset 6, -8
 1295              		.cfi_offset 14, -4
 1296 0002 1446     		mov	r4, r2
 1297 0004 1D46     		mov	r5, r3
 892:lvgl/src/extra/libs/png/lodepng.c ****   unsigned i;
 1298              		.loc 1 892 3 is_stmt 1 view .LVU395
 893:lvgl/src/extra/libs/png/lodepng.c ****   BPMNode* result;
 1299              		.loc 1 893 3 view .LVU396
 894:lvgl/src/extra/libs/png/lodepng.c **** 
 895:lvgl/src/extra/libs/png/lodepng.c ****   /*memory full, so garbage collect*/
 896:lvgl/src/extra/libs/png/lodepng.c ****   if(lists->nextfree >= lists->numfree) {
 1300              		.loc 1 896 3 view .LVU397
 1301              		.loc 1 896 11 is_stmt 0 view .LVU398
 1302 0006 C268     		ldr	r2, [r0, #12]
 1303              	.LVL96:
ARM GAS  C:\usertemp\cc6W5uFK.s 			page 41


 1304              		.loc 1 896 30 view .LVU399
 1305 0008 8368     		ldr	r3, [r0, #8]
 1306              	.LVL97:
 1307              		.loc 1 896 5 view .LVU400
 1308 000a 9A42     		cmp	r2, r3
 1309 000c 16D2     		bcs	.L77
 1310              	.L66:
 897:lvgl/src/extra/libs/png/lodepng.c ****     /*mark only those that are in use*/
 898:lvgl/src/extra/libs/png/lodepng.c ****     for(i = 0; i != lists->memsize; ++i) lists->memory[i].in_use = 0;
 899:lvgl/src/extra/libs/png/lodepng.c ****     for(i = 0; i != lists->listsize; ++i) {
 900:lvgl/src/extra/libs/png/lodepng.c ****       BPMNode* node;
 901:lvgl/src/extra/libs/png/lodepng.c ****       for(node = lists->chains0[i]; node != 0; node = node->tail) node->in_use = 1;
 902:lvgl/src/extra/libs/png/lodepng.c ****       for(node = lists->chains1[i]; node != 0; node = node->tail) node->in_use = 1;
 903:lvgl/src/extra/libs/png/lodepng.c ****     }
 904:lvgl/src/extra/libs/png/lodepng.c ****     /*collect those that are free*/
 905:lvgl/src/extra/libs/png/lodepng.c ****     lists->numfree = 0;
 906:lvgl/src/extra/libs/png/lodepng.c ****     for(i = 0; i != lists->memsize; ++i) {
 907:lvgl/src/extra/libs/png/lodepng.c ****       if(!lists->memory[i].in_use) lists->freelist[lists->numfree++] = &lists->memory[i];
 908:lvgl/src/extra/libs/png/lodepng.c ****     }
 909:lvgl/src/extra/libs/png/lodepng.c ****     lists->nextfree = 0;
 910:lvgl/src/extra/libs/png/lodepng.c ****   }
 911:lvgl/src/extra/libs/png/lodepng.c **** 
 912:lvgl/src/extra/libs/png/lodepng.c ****   result = lists->freelist[lists->nextfree++];
 1311              		.loc 1 912 3 is_stmt 1 view .LVU401
 1312              		.loc 1 912 17 is_stmt 0 view .LVU402
 1313 000e 0269     		ldr	r2, [r0, #16]
 1314              		.loc 1 912 33 view .LVU403
 1315 0010 C368     		ldr	r3, [r0, #12]
 1316              		.loc 1 912 43 view .LVU404
 1317 0012 5E1C     		adds	r6, r3, #1
 1318 0014 C660     		str	r6, [r0, #12]
 1319              		.loc 1 912 10 view .LVU405
 1320 0016 52F82300 		ldr	r0, [r2, r3, lsl #2]
 1321              	.LVL98:
 913:lvgl/src/extra/libs/png/lodepng.c ****   result->weight = weight;
 1322              		.loc 1 913 3 is_stmt 1 view .LVU406
 1323              		.loc 1 913 18 is_stmt 0 view .LVU407
 1324 001a 0160     		str	r1, [r0]
 914:lvgl/src/extra/libs/png/lodepng.c ****   result->index = index;
 1325              		.loc 1 914 3 is_stmt 1 view .LVU408
 1326              		.loc 1 914 17 is_stmt 0 view .LVU409
 1327 001c 4460     		str	r4, [r0, #4]
 915:lvgl/src/extra/libs/png/lodepng.c ****   result->tail = tail;
 1328              		.loc 1 915 3 is_stmt 1 view .LVU410
 1329              		.loc 1 915 16 is_stmt 0 view .LVU411
 1330 001e 8560     		str	r5, [r0, #8]
 916:lvgl/src/extra/libs/png/lodepng.c ****   return result;
 1331              		.loc 1 916 3 is_stmt 1 view .LVU412
 917:lvgl/src/extra/libs/png/lodepng.c **** }
 1332              		.loc 1 917 1 is_stmt 0 view .LVU413
 1333 0020 70BD     		pop	{r4, r5, r6, pc}
 1334              	.LVL99:
 1335              	.L67:
 898:lvgl/src/extra/libs/png/lodepng.c ****     for(i = 0; i != lists->listsize; ++i) {
 1336              		.loc 1 898 42 is_stmt 1 discriminator 3 view .LVU414
 898:lvgl/src/extra/libs/png/lodepng.c ****     for(i = 0; i != lists->listsize; ++i) {
 1337              		.loc 1 898 47 is_stmt 0 discriminator 3 view .LVU415
ARM GAS  C:\usertemp\cc6W5uFK.s 			page 42


 1338 0022 4368     		ldr	r3, [r0, #4]
 898:lvgl/src/extra/libs/png/lodepng.c ****     for(i = 0; i != lists->listsize; ++i) {
 1339              		.loc 1 898 55 discriminator 3 view .LVU416
 1340 0024 03EB0C13 		add	r3, r3, ip, lsl #4
 898:lvgl/src/extra/libs/png/lodepng.c ****     for(i = 0; i != lists->listsize; ++i) {
 1341              		.loc 1 898 66 discriminator 3 view .LVU417
 1342 0028 0022     		movs	r2, #0
 1343 002a DA60     		str	r2, [r3, #12]
 898:lvgl/src/extra/libs/png/lodepng.c ****     for(i = 0; i != lists->listsize; ++i) {
 1344              		.loc 1 898 37 is_stmt 1 discriminator 3 view .LVU418
 1345 002c 0CF1010C 		add	ip, ip, #1
 1346              	.LVL100:
 1347              	.L65:
 898:lvgl/src/extra/libs/png/lodepng.c ****     for(i = 0; i != lists->listsize; ++i) {
 1348              		.loc 1 898 18 discriminator 1 view .LVU419
 898:lvgl/src/extra/libs/png/lodepng.c ****     for(i = 0; i != lists->listsize; ++i) {
 1349              		.loc 1 898 26 is_stmt 0 discriminator 1 view .LVU420
 1350 0030 0368     		ldr	r3, [r0]
 898:lvgl/src/extra/libs/png/lodepng.c ****     for(i = 0; i != lists->listsize; ++i) {
 1351              		.loc 1 898 18 discriminator 1 view .LVU421
 1352 0032 6345     		cmp	r3, ip
 1353 0034 F5D1     		bne	.L67
 899:lvgl/src/extra/libs/png/lodepng.c ****       BPMNode* node;
 1354              		.loc 1 899 11 view .LVU422
 1355 0036 4FF0000C 		mov	ip, #0
 1356              	.LVL101:
 899:lvgl/src/extra/libs/png/lodepng.c ****       BPMNode* node;
 1357              		.loc 1 899 11 view .LVU423
 1358 003a 12E0     		b	.L68
 1359              	.LVL102:
 1360              	.L77:
 898:lvgl/src/extra/libs/png/lodepng.c ****     for(i = 0; i != lists->listsize; ++i) {
 1361              		.loc 1 898 11 view .LVU424
 1362 003c 4FF0000C 		mov	ip, #0
 1363 0040 F6E7     		b	.L65
 1364              	.LVL103:
 1365              	.L70:
 1366              	.LBB2:
 901:lvgl/src/extra/libs/png/lodepng.c ****       for(node = lists->chains1[i]; node != 0; node = node->tail) node->in_use = 1;
 1367              		.loc 1 901 67 is_stmt 1 discriminator 3 view .LVU425
 901:lvgl/src/extra/libs/png/lodepng.c ****       for(node = lists->chains1[i]; node != 0; node = node->tail) node->in_use = 1;
 1368              		.loc 1 901 80 is_stmt 0 discriminator 3 view .LVU426
 1369 0042 0122     		movs	r2, #1
 1370 0044 DA60     		str	r2, [r3, #12]
 901:lvgl/src/extra/libs/png/lodepng.c ****       for(node = lists->chains1[i]; node != 0; node = node->tail) node->in_use = 1;
 1371              		.loc 1 901 53 is_stmt 1 discriminator 3 view .LVU427
 1372 0046 9B68     		ldr	r3, [r3, #8]
 1373              	.LVL104:
 1374              	.L69:
 901:lvgl/src/extra/libs/png/lodepng.c ****       for(node = lists->chains1[i]; node != 0; node = node->tail) node->in_use = 1;
 1375              		.loc 1 901 42 discriminator 1 view .LVU428
 1376 0048 002B     		cmp	r3, #0
 1377 004a FAD1     		bne	.L70
 902:lvgl/src/extra/libs/png/lodepng.c ****     }
 1378              		.loc 1 902 7 view .LVU429
 902:lvgl/src/extra/libs/png/lodepng.c ****     }
 1379              		.loc 1 902 23 is_stmt 0 view .LVU430
ARM GAS  C:\usertemp\cc6W5uFK.s 			page 43


 1380 004c C369     		ldr	r3, [r0, #28]
 1381              	.LVL105:
 902:lvgl/src/extra/libs/png/lodepng.c ****     }
 1382              		.loc 1 902 16 view .LVU431
 1383 004e 53F80E30 		ldr	r3, [r3, lr]
 1384              	.LVL106:
 902:lvgl/src/extra/libs/png/lodepng.c ****     }
 1385              		.loc 1 902 7 view .LVU432
 1386 0052 02E0     		b	.L71
 1387              	.L72:
 902:lvgl/src/extra/libs/png/lodepng.c ****     }
 1388              		.loc 1 902 67 is_stmt 1 discriminator 3 view .LVU433
 902:lvgl/src/extra/libs/png/lodepng.c ****     }
 1389              		.loc 1 902 80 is_stmt 0 discriminator 3 view .LVU434
 1390 0054 0122     		movs	r2, #1
 1391 0056 DA60     		str	r2, [r3, #12]
 902:lvgl/src/extra/libs/png/lodepng.c ****     }
 1392              		.loc 1 902 53 is_stmt 1 discriminator 3 view .LVU435
 1393 0058 9B68     		ldr	r3, [r3, #8]
 1394              	.LVL107:
 1395              	.L71:
 902:lvgl/src/extra/libs/png/lodepng.c ****     }
 1396              		.loc 1 902 42 discriminator 1 view .LVU436
 1397 005a 002B     		cmp	r3, #0
 1398 005c FAD1     		bne	.L72
 902:lvgl/src/extra/libs/png/lodepng.c ****     }
 1399              		.loc 1 902 42 is_stmt 0 discriminator 1 view .LVU437
 1400              	.LBE2:
 899:lvgl/src/extra/libs/png/lodepng.c ****       BPMNode* node;
 1401              		.loc 1 899 38 is_stmt 1 discriminator 2 view .LVU438
 1402 005e 0CF1010C 		add	ip, ip, #1
 1403              	.LVL108:
 1404              	.L68:
 899:lvgl/src/extra/libs/png/lodepng.c ****       BPMNode* node;
 1405              		.loc 1 899 18 discriminator 1 view .LVU439
 899:lvgl/src/extra/libs/png/lodepng.c ****       BPMNode* node;
 1406              		.loc 1 899 26 is_stmt 0 discriminator 1 view .LVU440
 1407 0062 4369     		ldr	r3, [r0, #20]
 899:lvgl/src/extra/libs/png/lodepng.c ****       BPMNode* node;
 1408              		.loc 1 899 18 discriminator 1 view .LVU441
 1409 0064 6345     		cmp	r3, ip
 1410 0066 05D0     		beq	.L79
 1411              	.LBB3:
 900:lvgl/src/extra/libs/png/lodepng.c ****       for(node = lists->chains0[i]; node != 0; node = node->tail) node->in_use = 1;
 1412              		.loc 1 900 7 is_stmt 1 view .LVU442
 901:lvgl/src/extra/libs/png/lodepng.c ****       for(node = lists->chains1[i]; node != 0; node = node->tail) node->in_use = 1;
 1413              		.loc 1 901 7 view .LVU443
 901:lvgl/src/extra/libs/png/lodepng.c ****       for(node = lists->chains1[i]; node != 0; node = node->tail) node->in_use = 1;
 1414              		.loc 1 901 23 is_stmt 0 view .LVU444
 1415 0068 8369     		ldr	r3, [r0, #24]
 901:lvgl/src/extra/libs/png/lodepng.c ****       for(node = lists->chains1[i]; node != 0; node = node->tail) node->in_use = 1;
 1416              		.loc 1 901 32 view .LVU445
 1417 006a 4FEA8C0E 		lsl	lr, ip, #2
 901:lvgl/src/extra/libs/png/lodepng.c ****       for(node = lists->chains1[i]; node != 0; node = node->tail) node->in_use = 1;
 1418              		.loc 1 901 16 view .LVU446
 1419 006e 53F82C30 		ldr	r3, [r3, ip, lsl #2]
 1420              	.LVL109:
ARM GAS  C:\usertemp\cc6W5uFK.s 			page 44


 901:lvgl/src/extra/libs/png/lodepng.c ****       for(node = lists->chains1[i]; node != 0; node = node->tail) node->in_use = 1;
 1421              		.loc 1 901 7 view .LVU447
 1422 0072 E9E7     		b	.L69
 1423              	.LVL110:
 1424              	.L79:
 901:lvgl/src/extra/libs/png/lodepng.c ****       for(node = lists->chains1[i]; node != 0; node = node->tail) node->in_use = 1;
 1425              		.loc 1 901 7 view .LVU448
 1426              	.LBE3:
 905:lvgl/src/extra/libs/png/lodepng.c ****     for(i = 0; i != lists->memsize; ++i) {
 1427              		.loc 1 905 5 is_stmt 1 view .LVU449
 905:lvgl/src/extra/libs/png/lodepng.c ****     for(i = 0; i != lists->memsize; ++i) {
 1428              		.loc 1 905 20 is_stmt 0 view .LVU450
 1429 0074 4FF0000C 		mov	ip, #0
 1430              	.LVL111:
 905:lvgl/src/extra/libs/png/lodepng.c ****     for(i = 0; i != lists->memsize; ++i) {
 1431              		.loc 1 905 20 view .LVU451
 1432 0078 C0F808C0 		str	ip, [r0, #8]
 906:lvgl/src/extra/libs/png/lodepng.c ****       if(!lists->memory[i].in_use) lists->freelist[lists->numfree++] = &lists->memory[i];
 1433              		.loc 1 906 5 is_stmt 1 view .LVU452
 1434              	.LVL112:
 906:lvgl/src/extra/libs/png/lodepng.c ****       if(!lists->memory[i].in_use) lists->freelist[lists->numfree++] = &lists->memory[i];
 1435              		.loc 1 906 5 is_stmt 0 view .LVU453
 1436 007c 01E0     		b	.L74
 1437              	.LVL113:
 1438              	.L75:
 906:lvgl/src/extra/libs/png/lodepng.c ****       if(!lists->memory[i].in_use) lists->freelist[lists->numfree++] = &lists->memory[i];
 1439              		.loc 1 906 37 is_stmt 1 discriminator 2 view .LVU454
 1440 007e 0CF1010C 		add	ip, ip, #1
 1441              	.LVL114:
 1442              	.L74:
 906:lvgl/src/extra/libs/png/lodepng.c ****       if(!lists->memory[i].in_use) lists->freelist[lists->numfree++] = &lists->memory[i];
 1443              		.loc 1 906 18 discriminator 1 view .LVU455
 906:lvgl/src/extra/libs/png/lodepng.c ****       if(!lists->memory[i].in_use) lists->freelist[lists->numfree++] = &lists->memory[i];
 1444              		.loc 1 906 26 is_stmt 0 discriminator 1 view .LVU456
 1445 0082 0368     		ldr	r3, [r0]
 906:lvgl/src/extra/libs/png/lodepng.c ****       if(!lists->memory[i].in_use) lists->freelist[lists->numfree++] = &lists->memory[i];
 1446              		.loc 1 906 18 discriminator 1 view .LVU457
 1447 0084 6345     		cmp	r3, ip
 1448 0086 0CD0     		beq	.L80
 907:lvgl/src/extra/libs/png/lodepng.c ****     }
 1449              		.loc 1 907 7 is_stmt 1 view .LVU458
 907:lvgl/src/extra/libs/png/lodepng.c ****     }
 1450              		.loc 1 907 16 is_stmt 0 view .LVU459
 1451 0088 4368     		ldr	r3, [r0, #4]
 907:lvgl/src/extra/libs/png/lodepng.c ****     }
 1452              		.loc 1 907 24 view .LVU460
 1453 008a 03EB0C13 		add	r3, r3, ip, lsl #4
 907:lvgl/src/extra/libs/png/lodepng.c ****     }
 1454              		.loc 1 907 27 view .LVU461
 1455 008e DA68     		ldr	r2, [r3, #12]
 907:lvgl/src/extra/libs/png/lodepng.c ****     }
 1456              		.loc 1 907 9 view .LVU462
 1457 0090 002A     		cmp	r2, #0
 1458 0092 F4D1     		bne	.L75
 907:lvgl/src/extra/libs/png/lodepng.c ****     }
 1459              		.loc 1 907 36 is_stmt 1 discriminator 1 view .LVU463
 907:lvgl/src/extra/libs/png/lodepng.c ****     }
ARM GAS  C:\usertemp\cc6W5uFK.s 			page 45


 1460              		.loc 1 907 57 is_stmt 0 discriminator 1 view .LVU464
 1461 0094 8268     		ldr	r2, [r0, #8]
 907:lvgl/src/extra/libs/png/lodepng.c ****     }
 1462              		.loc 1 907 66 discriminator 1 view .LVU465
 1463 0096 561C     		adds	r6, r2, #1
 1464 0098 8660     		str	r6, [r0, #8]
 907:lvgl/src/extra/libs/png/lodepng.c ****     }
 1465              		.loc 1 907 70 discriminator 1 view .LVU466
 1466 009a 0669     		ldr	r6, [r0, #16]
 1467 009c 46F82230 		str	r3, [r6, r2, lsl #2]
 1468 00a0 EDE7     		b	.L75
 1469              	.L80:
 909:lvgl/src/extra/libs/png/lodepng.c ****   }
 1470              		.loc 1 909 5 is_stmt 1 view .LVU467
 909:lvgl/src/extra/libs/png/lodepng.c ****   }
 1471              		.loc 1 909 21 is_stmt 0 view .LVU468
 1472 00a2 0023     		movs	r3, #0
 1473 00a4 C360     		str	r3, [r0, #12]
 1474 00a6 B2E7     		b	.L66
 1475              		.cfi_endproc
 1476              	.LFE237:
 1478              		.section	.text.boundaryPM,"ax",%progbits
 1479              		.align	1
 1480              		.syntax unified
 1481              		.thumb
 1482              		.thumb_func
 1484              	boundaryPM:
 1485              	.LVL115:
 1486              	.LFB239:
 918:lvgl/src/extra/libs/png/lodepng.c **** 
 919:lvgl/src/extra/libs/png/lodepng.c **** /*sort the leaves with stable mergesort*/
 920:lvgl/src/extra/libs/png/lodepng.c **** static void bpmnode_sort(BPMNode* leaves, size_t num) {
 921:lvgl/src/extra/libs/png/lodepng.c ****   BPMNode* mem = (BPMNode*)lodepng_malloc(sizeof(*leaves) * num);
 922:lvgl/src/extra/libs/png/lodepng.c ****   size_t width, counter = 0;
 923:lvgl/src/extra/libs/png/lodepng.c ****   for(width = 1; width < num; width *= 2) {
 924:lvgl/src/extra/libs/png/lodepng.c ****     BPMNode* a = (counter & 1) ? mem : leaves;
 925:lvgl/src/extra/libs/png/lodepng.c ****     BPMNode* b = (counter & 1) ? leaves : mem;
 926:lvgl/src/extra/libs/png/lodepng.c ****     size_t p;
 927:lvgl/src/extra/libs/png/lodepng.c ****     for(p = 0; p < num; p += 2 * width) {
 928:lvgl/src/extra/libs/png/lodepng.c ****       size_t q = (p + width > num) ? num : (p + width);
 929:lvgl/src/extra/libs/png/lodepng.c ****       size_t r = (p + 2 * width > num) ? num : (p + 2 * width);
 930:lvgl/src/extra/libs/png/lodepng.c ****       size_t i = p, j = q, k;
 931:lvgl/src/extra/libs/png/lodepng.c ****       for(k = p; k < r; k++) {
 932:lvgl/src/extra/libs/png/lodepng.c ****         if(i < q && (j >= r || a[i].weight <= a[j].weight)) b[k] = a[i++];
 933:lvgl/src/extra/libs/png/lodepng.c ****         else b[k] = a[j++];
 934:lvgl/src/extra/libs/png/lodepng.c ****       }
 935:lvgl/src/extra/libs/png/lodepng.c ****     }
 936:lvgl/src/extra/libs/png/lodepng.c ****     counter++;
 937:lvgl/src/extra/libs/png/lodepng.c ****   }
 938:lvgl/src/extra/libs/png/lodepng.c ****   if(counter & 1) lodepng_memcpy(leaves, mem, sizeof(*leaves) * num);
 939:lvgl/src/extra/libs/png/lodepng.c ****   lodepng_free(mem);
 940:lvgl/src/extra/libs/png/lodepng.c **** }
 941:lvgl/src/extra/libs/png/lodepng.c **** 
 942:lvgl/src/extra/libs/png/lodepng.c **** /*Boundary Package Merge step, numpresent is the amount of leaves, and c is the current chain.*/
 943:lvgl/src/extra/libs/png/lodepng.c **** static void boundaryPM(BPMLists* lists, BPMNode* leaves, size_t numpresent, int c, int num) {
 1487              		.loc 1 943 93 is_stmt 1 view -0
 1488              		.cfi_startproc
ARM GAS  C:\usertemp\cc6W5uFK.s 			page 46


 1489              		@ args = 4, pretend = 0, frame = 0
 1490              		@ frame_needed = 0, uses_anonymous_args = 0
 1491              		.loc 1 943 93 is_stmt 0 view .LVU470
 1492 0000 2DE9F041 		push	{r4, r5, r6, r7, r8, lr}
 1493              	.LCFI18:
 1494              		.cfi_def_cfa_offset 24
 1495              		.cfi_offset 4, -24
 1496              		.cfi_offset 5, -20
 1497              		.cfi_offset 6, -16
 1498              		.cfi_offset 7, -12
 1499              		.cfi_offset 8, -8
 1500              		.cfi_offset 14, -4
 1501 0004 82B0     		sub	sp, sp, #8
 1502              	.LCFI19:
 1503              		.cfi_def_cfa_offset 32
 1504 0006 0546     		mov	r5, r0
 1505 0008 0F46     		mov	r7, r1
 1506 000a 1646     		mov	r6, r2
 1507 000c 1C46     		mov	r4, r3
 944:lvgl/src/extra/libs/png/lodepng.c ****   unsigned lastindex = lists->chains1[c]->index;
 1508              		.loc 1 944 3 is_stmt 1 view .LVU471
 1509              		.loc 1 944 29 is_stmt 0 view .LVU472
 1510 000e D0F81CC0 		ldr	ip, [r0, #28]
 1511              		.loc 1 944 38 view .LVU473
 1512 0012 5CF82300 		ldr	r0, [ip, r3, lsl #2]
 1513              	.LVL116:
 1514              		.loc 1 944 12 view .LVU474
 1515 0016 4268     		ldr	r2, [r0, #4]
 1516              	.LVL117:
 945:lvgl/src/extra/libs/png/lodepng.c **** 
 946:lvgl/src/extra/libs/png/lodepng.c ****   if(c == 0) {
 1517              		.loc 1 946 3 is_stmt 1 view .LVU475
 1518              		.loc 1 946 5 is_stmt 0 view .LVU476
 1519 0018 7BB9     		cbnz	r3, .L82
 947:lvgl/src/extra/libs/png/lodepng.c ****     if(lastindex >= numpresent) return;
 1520              		.loc 1 947 5 is_stmt 1 view .LVU477
 1521              		.loc 1 947 7 is_stmt 0 view .LVU478
 1522 001a B242     		cmp	r2, r6
 1523 001c 33D2     		bcs	.L81
 948:lvgl/src/extra/libs/png/lodepng.c ****     lists->chains0[c] = lists->chains1[c];
 1524              		.loc 1 948 5 is_stmt 1 view .LVU479
 1525              		.loc 1 948 10 is_stmt 0 view .LVU480
 1526 001e AB69     		ldr	r3, [r5, #24]
 1527              	.LVL118:
 1528              		.loc 1 948 23 view .LVU481
 1529 0020 43F82400 		str	r0, [r3, r4, lsl #2]
 949:lvgl/src/extra/libs/png/lodepng.c ****     lists->chains1[c] = bpmnode_create(lists, leaves[lastindex].weight, lastindex + 1, 0);
 1530              		.loc 1 949 5 is_stmt 1 view .LVU482
 1531              		.loc 1 949 53 is_stmt 0 view .LVU483
 1532 0024 1101     		lsls	r1, r2, #4
 1533              	.LVL119:
 1534              		.loc 1 949 10 view .LVU484
 1535 0026 EE69     		ldr	r6, [r5, #28]
 1536              	.LVL120:
 1537              		.loc 1 949 25 view .LVU485
 1538 0028 0023     		movs	r3, #0
 1539 002a 0132     		adds	r2, r2, #1
ARM GAS  C:\usertemp\cc6W5uFK.s 			page 47


 1540              	.LVL121:
 1541              		.loc 1 949 25 view .LVU486
 1542 002c 7958     		ldr	r1, [r7, r1]
 1543 002e 2846     		mov	r0, r5
 1544 0030 FFF7FEFF 		bl	bpmnode_create
 1545              	.LVL122:
 1546              		.loc 1 949 23 discriminator 1 view .LVU487
 1547 0034 46F82400 		str	r0, [r6, r4, lsl #2]
 1548 0038 25E0     		b	.L81
 1549              	.LVL123:
 1550              	.L82:
 1551              	.LBB4:
 950:lvgl/src/extra/libs/png/lodepng.c ****   } else {
 951:lvgl/src/extra/libs/png/lodepng.c ****     /*sum of the weights of the head nodes of the previous lookahead chains.*/
 952:lvgl/src/extra/libs/png/lodepng.c ****     int sum = lists->chains0[c - 1]->weight + lists->chains1[c - 1]->weight;
 1552              		.loc 1 952 5 is_stmt 1 view .LVU488
 1553              		.loc 1 952 20 is_stmt 0 view .LVU489
 1554 003a D5F818E0 		ldr	lr, [r5, #24]
 1555              		.loc 1 952 29 view .LVU490
 1556 003e 6FF04043 		mvn	r3, #-1073741824
 1557              	.LVL124:
 1558              		.loc 1 952 29 view .LVU491
 1559 0042 2344     		add	r3, r3, r4
 1560 0044 5EF82310 		ldr	r1, [lr, r3, lsl #2]
 1561              	.LVL125:
 1562              		.loc 1 952 36 view .LVU492
 1563 0048 0968     		ldr	r1, [r1]
 1564              		.loc 1 952 61 view .LVU493
 1565 004a 5CF823C0 		ldr	ip, [ip, r3, lsl #2]
 1566              		.loc 1 952 68 view .LVU494
 1567 004e DCF800C0 		ldr	ip, [ip]
 1568              		.loc 1 952 9 view .LVU495
 1569 0052 6144     		add	r1, r1, ip
 1570              	.LVL126:
 953:lvgl/src/extra/libs/png/lodepng.c ****     lists->chains0[c] = lists->chains1[c];
 1571              		.loc 1 953 5 is_stmt 1 view .LVU496
 1572              		.loc 1 953 23 is_stmt 0 view .LVU497
 1573 0054 4EF82400 		str	r0, [lr, r4, lsl #2]
 954:lvgl/src/extra/libs/png/lodepng.c ****     if(lastindex < numpresent && sum > leaves[lastindex].weight) {
 1574              		.loc 1 954 5 is_stmt 1 view .LVU498
 1575              		.loc 1 954 7 is_stmt 0 view .LVU499
 1576 0058 B242     		cmp	r2, r6
 1577 005a 03D2     		bcs	.L84
 1578              		.loc 1 954 46 discriminator 1 view .LVU500
 1579 005c 1001     		lsls	r0, r2, #4
 1580              		.loc 1 954 57 discriminator 1 view .LVU501
 1581 005e 3858     		ldr	r0, [r7, r0]
 1582              		.loc 1 954 31 discriminator 1 view .LVU502
 1583 0060 8842     		cmp	r0, r1
 1584 0062 13DB     		blt	.L86
 1585              	.L84:
 955:lvgl/src/extra/libs/png/lodepng.c ****       lists->chains1[c] = bpmnode_create(lists, leaves[lastindex].weight, lastindex + 1, lists->cha
 956:lvgl/src/extra/libs/png/lodepng.c ****       return;
 957:lvgl/src/extra/libs/png/lodepng.c ****     }
 958:lvgl/src/extra/libs/png/lodepng.c ****     lists->chains1[c] = bpmnode_create(lists, sum, lastindex, lists->chains1[c - 1]);
 1586              		.loc 1 958 5 is_stmt 1 view .LVU503
 1587              		.loc 1 958 68 is_stmt 0 view .LVU504
ARM GAS  C:\usertemp\cc6W5uFK.s 			page 48


 1588 0064 D5F81C80 		ldr	r8, [r5, #28]
 1589              		.loc 1 958 25 view .LVU505
 1590 0068 58F82330 		ldr	r3, [r8, r3, lsl #2]
 1591 006c 2846     		mov	r0, r5
 1592 006e FFF7FEFF 		bl	bpmnode_create
 1593              	.LVL127:
 1594              		.loc 1 958 23 discriminator 1 view .LVU506
 1595 0072 48F82400 		str	r0, [r8, r4, lsl #2]
 959:lvgl/src/extra/libs/png/lodepng.c ****     /*in the end we are only interested in the chain of the last list, so no
 960:lvgl/src/extra/libs/png/lodepng.c ****     need to recurse if we're at the last one (this gives measurable speedup)*/
 961:lvgl/src/extra/libs/png/lodepng.c ****     if(num + 1 < (int)(2 * numpresent - 2)) {
 1596              		.loc 1 961 5 is_stmt 1 view .LVU507
 1597              		.loc 1 961 12 is_stmt 0 view .LVU508
 1598 0076 089B     		ldr	r3, [sp, #32]
 1599 0078 5A1C     		adds	r2, r3, #1
 1600              		.loc 1 961 39 view .LVU509
 1601 007a 6FF00043 		mvn	r3, #-2147483648
 1602 007e 3344     		add	r3, r3, r6
 1603              		.loc 1 961 7 view .LVU510
 1604 0080 B2EB430F 		cmp	r2, r3, lsl #1
 1605 0084 0EDB     		blt	.L87
 1606              	.LVL128:
 1607              	.L81:
 1608              		.loc 1 961 7 view .LVU511
 1609              	.LBE4:
 962:lvgl/src/extra/libs/png/lodepng.c ****       boundaryPM(lists, leaves, numpresent, c - 1, num);
 963:lvgl/src/extra/libs/png/lodepng.c ****       boundaryPM(lists, leaves, numpresent, c - 1, num);
 964:lvgl/src/extra/libs/png/lodepng.c ****     }
 965:lvgl/src/extra/libs/png/lodepng.c ****   }
 966:lvgl/src/extra/libs/png/lodepng.c **** }
 1610              		.loc 1 966 1 view .LVU512
 1611 0086 02B0     		add	sp, sp, #8
 1612              	.LCFI20:
 1613              		.cfi_remember_state
 1614              		.cfi_def_cfa_offset 24
 1615              		@ sp needed
 1616 0088 BDE8F081 		pop	{r4, r5, r6, r7, r8, pc}
 1617              	.LVL129:
 1618              	.L86:
 1619              	.LCFI21:
 1620              		.cfi_restore_state
 1621              	.LBB5:
 955:lvgl/src/extra/libs/png/lodepng.c ****       return;
 1622              		.loc 1 955 7 is_stmt 1 view .LVU513
 955:lvgl/src/extra/libs/png/lodepng.c ****       return;
 1623              		.loc 1 955 95 is_stmt 0 view .LVU514
 1624 008c EE69     		ldr	r6, [r5, #28]
 1625              	.LVL130:
 955:lvgl/src/extra/libs/png/lodepng.c ****       return;
 1626              		.loc 1 955 104 view .LVU515
 1627 008e 56F82430 		ldr	r3, [r6, r4, lsl #2]
 955:lvgl/src/extra/libs/png/lodepng.c ****       return;
 1628              		.loc 1 955 27 view .LVU516
 1629 0092 9B68     		ldr	r3, [r3, #8]
 1630 0094 0132     		adds	r2, r2, #1
 1631              	.LVL131:
 955:lvgl/src/extra/libs/png/lodepng.c ****       return;
ARM GAS  C:\usertemp\cc6W5uFK.s 			page 49


 1632              		.loc 1 955 27 view .LVU517
 1633 0096 0146     		mov	r1, r0
 1634              	.LVL132:
 955:lvgl/src/extra/libs/png/lodepng.c ****       return;
 1635              		.loc 1 955 27 view .LVU518
 1636 0098 2846     		mov	r0, r5
 1637 009a FFF7FEFF 		bl	bpmnode_create
 1638              	.LVL133:
 955:lvgl/src/extra/libs/png/lodepng.c ****       return;
 1639              		.loc 1 955 25 discriminator 1 view .LVU519
 1640 009e 46F82400 		str	r0, [r6, r4, lsl #2]
 956:lvgl/src/extra/libs/png/lodepng.c ****     }
 1641              		.loc 1 956 7 is_stmt 1 view .LVU520
 1642 00a2 F0E7     		b	.L81
 1643              	.LVL134:
 1644              	.L87:
 962:lvgl/src/extra/libs/png/lodepng.c ****       boundaryPM(lists, leaves, numpresent, c - 1, num);
 1645              		.loc 1 962 7 view .LVU521
 1646 00a4 013C     		subs	r4, r4, #1
 1647              	.LVL135:
 962:lvgl/src/extra/libs/png/lodepng.c ****       boundaryPM(lists, leaves, numpresent, c - 1, num);
 1648              		.loc 1 962 7 is_stmt 0 view .LVU522
 1649 00a6 089B     		ldr	r3, [sp, #32]
 1650 00a8 0093     		str	r3, [sp]
 1651 00aa 2346     		mov	r3, r4
 1652 00ac 3246     		mov	r2, r6
 1653 00ae 3946     		mov	r1, r7
 1654 00b0 2846     		mov	r0, r5
 1655 00b2 FFF7A5FF 		bl	boundaryPM
 1656              	.LVL136:
 963:lvgl/src/extra/libs/png/lodepng.c ****     }
 1657              		.loc 1 963 7 is_stmt 1 view .LVU523
 1658 00b6 089B     		ldr	r3, [sp, #32]
 1659 00b8 0093     		str	r3, [sp]
 1660 00ba 2346     		mov	r3, r4
 1661 00bc 3246     		mov	r2, r6
 1662 00be 3946     		mov	r1, r7
 1663 00c0 2846     		mov	r0, r5
 1664 00c2 FFF79DFF 		bl	boundaryPM
 1665              	.LVL137:
 1666 00c6 DEE7     		b	.L81
 1667              	.LBE5:
 1668              		.cfi_endproc
 1669              	.LFE239:
 1671              		.section	.text.huffmanDecodeSymbol,"ax",%progbits
 1672              		.align	1
 1673              		.syntax unified
 1674              		.thumb
 1675              		.thumb_func
 1677              	huffmanDecodeSymbol:
 1678              	.LVL138:
 1679              	.LFB244:
 967:lvgl/src/extra/libs/png/lodepng.c **** 
 968:lvgl/src/extra/libs/png/lodepng.c **** unsigned lodepng_huffman_code_lengths(unsigned* lengths, const unsigned* frequencies,
 969:lvgl/src/extra/libs/png/lodepng.c ****                                       size_t numcodes, unsigned maxbitlen) {
 970:lvgl/src/extra/libs/png/lodepng.c ****   unsigned error = 0;
 971:lvgl/src/extra/libs/png/lodepng.c ****   unsigned i;
ARM GAS  C:\usertemp\cc6W5uFK.s 			page 50


 972:lvgl/src/extra/libs/png/lodepng.c ****   size_t numpresent = 0; /*number of symbols with non-zero frequency*/
 973:lvgl/src/extra/libs/png/lodepng.c ****   BPMNode* leaves; /*the symbols, only those with > 0 frequency*/
 974:lvgl/src/extra/libs/png/lodepng.c **** 
 975:lvgl/src/extra/libs/png/lodepng.c ****   if(numcodes == 0) return 80; /*error: a tree of 0 symbols is not supposed to be made*/
 976:lvgl/src/extra/libs/png/lodepng.c ****   if((1u << maxbitlen) < (unsigned)numcodes) return 80; /*error: represent all symbols*/
 977:lvgl/src/extra/libs/png/lodepng.c **** 
 978:lvgl/src/extra/libs/png/lodepng.c ****   leaves = (BPMNode*)lodepng_malloc(numcodes * sizeof(*leaves));
 979:lvgl/src/extra/libs/png/lodepng.c ****   if(!leaves) return 83; /*alloc fail*/
 980:lvgl/src/extra/libs/png/lodepng.c **** 
 981:lvgl/src/extra/libs/png/lodepng.c ****   for(i = 0; i != numcodes; ++i) {
 982:lvgl/src/extra/libs/png/lodepng.c ****     if(frequencies[i] > 0) {
 983:lvgl/src/extra/libs/png/lodepng.c ****       leaves[numpresent].weight = (int)frequencies[i];
 984:lvgl/src/extra/libs/png/lodepng.c ****       leaves[numpresent].index = i;
 985:lvgl/src/extra/libs/png/lodepng.c ****       ++numpresent;
 986:lvgl/src/extra/libs/png/lodepng.c ****     }
 987:lvgl/src/extra/libs/png/lodepng.c ****   }
 988:lvgl/src/extra/libs/png/lodepng.c **** 
 989:lvgl/src/extra/libs/png/lodepng.c ****   lodepng_memset(lengths, 0, numcodes * sizeof(*lengths));
 990:lvgl/src/extra/libs/png/lodepng.c **** 
 991:lvgl/src/extra/libs/png/lodepng.c ****   /*ensure at least two present symbols. There should be at least one symbol
 992:lvgl/src/extra/libs/png/lodepng.c ****   according to RFC 1951 section 3.2.7. Some decoders incorrectly require two. To
 993:lvgl/src/extra/libs/png/lodepng.c ****   make these work as well ensure there are at least two symbols. The
 994:lvgl/src/extra/libs/png/lodepng.c ****   Package-Merge code below also doesn't work correctly if there's only one
 995:lvgl/src/extra/libs/png/lodepng.c ****   symbol, it'd give it the theoretical 0 bits but in practice zlib wants 1 bit*/
 996:lvgl/src/extra/libs/png/lodepng.c ****   if(numpresent == 0) {
 997:lvgl/src/extra/libs/png/lodepng.c ****     lengths[0] = lengths[1] = 1; /*note that for RFC 1951 section 3.2.7, only lengths[0] = 1 is nee
 998:lvgl/src/extra/libs/png/lodepng.c ****   } else if(numpresent == 1) {
 999:lvgl/src/extra/libs/png/lodepng.c ****     lengths[leaves[0].index] = 1;
1000:lvgl/src/extra/libs/png/lodepng.c ****     lengths[leaves[0].index == 0 ? 1 : 0] = 1;
1001:lvgl/src/extra/libs/png/lodepng.c ****   } else {
1002:lvgl/src/extra/libs/png/lodepng.c ****     BPMLists lists;
1003:lvgl/src/extra/libs/png/lodepng.c ****     BPMNode* node;
1004:lvgl/src/extra/libs/png/lodepng.c **** 
1005:lvgl/src/extra/libs/png/lodepng.c ****     bpmnode_sort(leaves, numpresent);
1006:lvgl/src/extra/libs/png/lodepng.c **** 
1007:lvgl/src/extra/libs/png/lodepng.c ****     lists.listsize = maxbitlen;
1008:lvgl/src/extra/libs/png/lodepng.c ****     lists.memsize = 2 * maxbitlen * (maxbitlen + 1);
1009:lvgl/src/extra/libs/png/lodepng.c ****     lists.nextfree = 0;
1010:lvgl/src/extra/libs/png/lodepng.c ****     lists.numfree = lists.memsize;
1011:lvgl/src/extra/libs/png/lodepng.c ****     lists.memory = (BPMNode*)lodepng_malloc(lists.memsize * sizeof(*lists.memory));
1012:lvgl/src/extra/libs/png/lodepng.c ****     lists.freelist = (BPMNode**)lodepng_malloc(lists.memsize * sizeof(BPMNode*));
1013:lvgl/src/extra/libs/png/lodepng.c ****     lists.chains0 = (BPMNode**)lodepng_malloc(lists.listsize * sizeof(BPMNode*));
1014:lvgl/src/extra/libs/png/lodepng.c ****     lists.chains1 = (BPMNode**)lodepng_malloc(lists.listsize * sizeof(BPMNode*));
1015:lvgl/src/extra/libs/png/lodepng.c ****     if(!lists.memory || !lists.freelist || !lists.chains0 || !lists.chains1) error = 83; /*alloc fa
1016:lvgl/src/extra/libs/png/lodepng.c **** 
1017:lvgl/src/extra/libs/png/lodepng.c ****     if(!error) {
1018:lvgl/src/extra/libs/png/lodepng.c ****       for(i = 0; i != lists.memsize; ++i) lists.freelist[i] = &lists.memory[i];
1019:lvgl/src/extra/libs/png/lodepng.c **** 
1020:lvgl/src/extra/libs/png/lodepng.c ****       bpmnode_create(&lists, leaves[0].weight, 1, 0);
1021:lvgl/src/extra/libs/png/lodepng.c ****       bpmnode_create(&lists, leaves[1].weight, 2, 0);
1022:lvgl/src/extra/libs/png/lodepng.c **** 
1023:lvgl/src/extra/libs/png/lodepng.c ****       for(i = 0; i != lists.listsize; ++i) {
1024:lvgl/src/extra/libs/png/lodepng.c ****         lists.chains0[i] = &lists.memory[0];
1025:lvgl/src/extra/libs/png/lodepng.c ****         lists.chains1[i] = &lists.memory[1];
1026:lvgl/src/extra/libs/png/lodepng.c ****       }
1027:lvgl/src/extra/libs/png/lodepng.c **** 
1028:lvgl/src/extra/libs/png/lodepng.c ****       /*each boundaryPM call adds one chain to the last list, and we need 2 * numpresent - 2 chains
ARM GAS  C:\usertemp\cc6W5uFK.s 			page 51


1029:lvgl/src/extra/libs/png/lodepng.c ****       for(i = 2; i != 2 * numpresent - 2; ++i) boundaryPM(&lists, leaves, numpresent, (int)maxbitle
1030:lvgl/src/extra/libs/png/lodepng.c **** 
1031:lvgl/src/extra/libs/png/lodepng.c ****       for(node = lists.chains1[maxbitlen - 1]; node; node = node->tail) {
1032:lvgl/src/extra/libs/png/lodepng.c ****         for(i = 0; i != node->index; ++i) ++lengths[leaves[i].index];
1033:lvgl/src/extra/libs/png/lodepng.c ****       }
1034:lvgl/src/extra/libs/png/lodepng.c ****     }
1035:lvgl/src/extra/libs/png/lodepng.c **** 
1036:lvgl/src/extra/libs/png/lodepng.c ****     lodepng_free(lists.memory);
1037:lvgl/src/extra/libs/png/lodepng.c ****     lodepng_free(lists.freelist);
1038:lvgl/src/extra/libs/png/lodepng.c ****     lodepng_free(lists.chains0);
1039:lvgl/src/extra/libs/png/lodepng.c ****     lodepng_free(lists.chains1);
1040:lvgl/src/extra/libs/png/lodepng.c ****   }
1041:lvgl/src/extra/libs/png/lodepng.c **** 
1042:lvgl/src/extra/libs/png/lodepng.c ****   lodepng_free(leaves);
1043:lvgl/src/extra/libs/png/lodepng.c ****   return error;
1044:lvgl/src/extra/libs/png/lodepng.c **** }
1045:lvgl/src/extra/libs/png/lodepng.c **** 
1046:lvgl/src/extra/libs/png/lodepng.c **** /*Create the Huffman tree given the symbol frequencies*/
1047:lvgl/src/extra/libs/png/lodepng.c **** static unsigned HuffmanTree_makeFromFrequencies(HuffmanTree* tree, const unsigned* frequencies,
1048:lvgl/src/extra/libs/png/lodepng.c ****                                                 size_t mincodes, size_t numcodes, unsigned maxbitle
1049:lvgl/src/extra/libs/png/lodepng.c ****   unsigned error = 0;
1050:lvgl/src/extra/libs/png/lodepng.c ****   while(!frequencies[numcodes - 1] && numcodes > mincodes) --numcodes; /*trim zeroes*/
1051:lvgl/src/extra/libs/png/lodepng.c ****   tree->lengths = (unsigned*)lodepng_malloc(numcodes * sizeof(unsigned));
1052:lvgl/src/extra/libs/png/lodepng.c ****   if(!tree->lengths) return 83; /*alloc fail*/
1053:lvgl/src/extra/libs/png/lodepng.c ****   tree->maxbitlen = maxbitlen;
1054:lvgl/src/extra/libs/png/lodepng.c ****   tree->numcodes = (unsigned)numcodes; /*number of symbols*/
1055:lvgl/src/extra/libs/png/lodepng.c **** 
1056:lvgl/src/extra/libs/png/lodepng.c ****   error = lodepng_huffman_code_lengths(tree->lengths, frequencies, numcodes, maxbitlen);
1057:lvgl/src/extra/libs/png/lodepng.c ****   if(!error) error = HuffmanTree_makeFromLengths2(tree);
1058:lvgl/src/extra/libs/png/lodepng.c ****   return error;
1059:lvgl/src/extra/libs/png/lodepng.c **** }
1060:lvgl/src/extra/libs/png/lodepng.c **** #endif /*LODEPNG_COMPILE_ENCODER*/
1061:lvgl/src/extra/libs/png/lodepng.c **** 
1062:lvgl/src/extra/libs/png/lodepng.c **** /*get the literal and length code tree of a deflated block with fixed tree, as per the deflate spec
1063:lvgl/src/extra/libs/png/lodepng.c **** static unsigned generateFixedLitLenTree(HuffmanTree* tree) {
1064:lvgl/src/extra/libs/png/lodepng.c ****   unsigned i, error = 0;
1065:lvgl/src/extra/libs/png/lodepng.c ****   unsigned* bitlen = (unsigned*)lodepng_malloc(NUM_DEFLATE_CODE_SYMBOLS * sizeof(unsigned));
1066:lvgl/src/extra/libs/png/lodepng.c ****   if(!bitlen) return 83; /*alloc fail*/
1067:lvgl/src/extra/libs/png/lodepng.c **** 
1068:lvgl/src/extra/libs/png/lodepng.c ****   /*288 possible codes: 0-255=literals, 256=endcode, 257-285=lengthcodes, 286-287=unused*/
1069:lvgl/src/extra/libs/png/lodepng.c ****   for(i =   0; i <= 143; ++i) bitlen[i] = 8;
1070:lvgl/src/extra/libs/png/lodepng.c ****   for(i = 144; i <= 255; ++i) bitlen[i] = 9;
1071:lvgl/src/extra/libs/png/lodepng.c ****   for(i = 256; i <= 279; ++i) bitlen[i] = 7;
1072:lvgl/src/extra/libs/png/lodepng.c ****   for(i = 280; i <= 287; ++i) bitlen[i] = 8;
1073:lvgl/src/extra/libs/png/lodepng.c **** 
1074:lvgl/src/extra/libs/png/lodepng.c ****   error = HuffmanTree_makeFromLengths(tree, bitlen, NUM_DEFLATE_CODE_SYMBOLS, 15);
1075:lvgl/src/extra/libs/png/lodepng.c **** 
1076:lvgl/src/extra/libs/png/lodepng.c ****   lodepng_free(bitlen);
1077:lvgl/src/extra/libs/png/lodepng.c ****   return error;
1078:lvgl/src/extra/libs/png/lodepng.c **** }
1079:lvgl/src/extra/libs/png/lodepng.c **** 
1080:lvgl/src/extra/libs/png/lodepng.c **** /*get the distance code tree of a deflated block with fixed tree, as specified in the deflate speci
1081:lvgl/src/extra/libs/png/lodepng.c **** static unsigned generateFixedDistanceTree(HuffmanTree* tree) {
1082:lvgl/src/extra/libs/png/lodepng.c ****   unsigned i, error = 0;
1083:lvgl/src/extra/libs/png/lodepng.c ****   unsigned* bitlen = (unsigned*)lodepng_malloc(NUM_DISTANCE_SYMBOLS * sizeof(unsigned));
1084:lvgl/src/extra/libs/png/lodepng.c ****   if(!bitlen) return 83; /*alloc fail*/
1085:lvgl/src/extra/libs/png/lodepng.c **** 
ARM GAS  C:\usertemp\cc6W5uFK.s 			page 52


1086:lvgl/src/extra/libs/png/lodepng.c ****   /*there are 32 distance codes, but 30-31 are unused*/
1087:lvgl/src/extra/libs/png/lodepng.c ****   for(i = 0; i != NUM_DISTANCE_SYMBOLS; ++i) bitlen[i] = 5;
1088:lvgl/src/extra/libs/png/lodepng.c ****   error = HuffmanTree_makeFromLengths(tree, bitlen, NUM_DISTANCE_SYMBOLS, 15);
1089:lvgl/src/extra/libs/png/lodepng.c **** 
1090:lvgl/src/extra/libs/png/lodepng.c ****   lodepng_free(bitlen);
1091:lvgl/src/extra/libs/png/lodepng.c ****   return error;
1092:lvgl/src/extra/libs/png/lodepng.c **** }
1093:lvgl/src/extra/libs/png/lodepng.c **** 
1094:lvgl/src/extra/libs/png/lodepng.c **** #ifdef LODEPNG_COMPILE_DECODER
1095:lvgl/src/extra/libs/png/lodepng.c **** 
1096:lvgl/src/extra/libs/png/lodepng.c **** /*
1097:lvgl/src/extra/libs/png/lodepng.c **** returns the code. The bit reader must already have been ensured at least 15 bits
1098:lvgl/src/extra/libs/png/lodepng.c **** */
1099:lvgl/src/extra/libs/png/lodepng.c **** static unsigned huffmanDecodeSymbol(LodePNGBitReader* reader, const HuffmanTree* codetree) {
 1680              		.loc 1 1099 92 view -0
 1681              		.cfi_startproc
 1682              		@ args = 0, pretend = 0, frame = 0
 1683              		@ frame_needed = 0, uses_anonymous_args = 0
 1684              		.loc 1 1099 92 is_stmt 0 view .LVU525
 1685 0000 F8B5     		push	{r3, r4, r5, r6, r7, lr}
 1686              	.LCFI22:
 1687              		.cfi_def_cfa_offset 24
 1688              		.cfi_offset 3, -24
 1689              		.cfi_offset 4, -20
 1690              		.cfi_offset 5, -16
 1691              		.cfi_offset 6, -12
 1692              		.cfi_offset 7, -8
 1693              		.cfi_offset 14, -4
 1694 0002 0646     		mov	r6, r0
 1695 0004 0C46     		mov	r4, r1
1100:lvgl/src/extra/libs/png/lodepng.c ****   unsigned short code = peekBits(reader, FIRSTBITS);
 1696              		.loc 1 1100 3 is_stmt 1 view .LVU526
 1697              		.loc 1 1100 25 is_stmt 0 view .LVU527
 1698 0006 0921     		movs	r1, #9
 1699              	.LVL139:
 1700              		.loc 1 1100 25 view .LVU528
 1701 0008 FFF7FEFF 		bl	peekBits
 1702              	.LVL140:
1101:lvgl/src/extra/libs/png/lodepng.c ****   unsigned short l = codetree->table_len[code];
 1703              		.loc 1 1101 3 is_stmt 1 view .LVU529
 1704              		.loc 1 1101 30 is_stmt 0 view .LVU530
 1705 000c 2369     		ldr	r3, [r4, #16]
 1706 000e 80B2     		uxth	r0, r0
 1707              		.loc 1 1101 41 view .LVU531
 1708 0010 1F5C     		ldrb	r7, [r3, r0]	@ zero_extendqisi2
 1709              	.LVL141:
1102:lvgl/src/extra/libs/png/lodepng.c ****   unsigned short value = codetree->table_value[code];
 1710              		.loc 1 1102 3 is_stmt 1 view .LVU532
 1711              		.loc 1 1102 34 is_stmt 0 view .LVU533
 1712 0012 6369     		ldr	r3, [r4, #20]
 1713              		.loc 1 1102 18 view .LVU534
 1714 0014 33F81050 		ldrh	r5, [r3, r0, lsl #1]
 1715              	.LVL142:
1103:lvgl/src/extra/libs/png/lodepng.c ****   if(l <= FIRSTBITS) {
 1716              		.loc 1 1103 3 is_stmt 1 view .LVU535
 1717              		.loc 1 1103 5 is_stmt 0 view .LVU536
 1718 0018 092F     		cmp	r7, #9
ARM GAS  C:\usertemp\cc6W5uFK.s 			page 53


 1719 001a 05D8     		bhi	.L89
1104:lvgl/src/extra/libs/png/lodepng.c ****     advanceBits(reader, l);
 1720              		.loc 1 1104 5 is_stmt 1 view .LVU537
 1721 001c 3946     		mov	r1, r7
 1722 001e 3046     		mov	r0, r6
 1723              	.LVL143:
 1724              		.loc 1 1104 5 is_stmt 0 view .LVU538
 1725 0020 FFF7FEFF 		bl	advanceBits
 1726              	.LVL144:
1105:lvgl/src/extra/libs/png/lodepng.c ****     return value;
 1727              		.loc 1 1105 5 is_stmt 1 view .LVU539
 1728              		.loc 1 1105 12 is_stmt 0 view .LVU540
 1729 0024 2846     		mov	r0, r5
 1730              	.LVL145:
 1731              	.L88:
1106:lvgl/src/extra/libs/png/lodepng.c ****   } else {
1107:lvgl/src/extra/libs/png/lodepng.c ****     unsigned index2;
1108:lvgl/src/extra/libs/png/lodepng.c ****     advanceBits(reader, FIRSTBITS);
1109:lvgl/src/extra/libs/png/lodepng.c ****     index2 = value + peekBits(reader, l - FIRSTBITS);
1110:lvgl/src/extra/libs/png/lodepng.c ****     advanceBits(reader, codetree->table_len[index2] - FIRSTBITS);
1111:lvgl/src/extra/libs/png/lodepng.c ****     return codetree->table_value[index2];
1112:lvgl/src/extra/libs/png/lodepng.c ****   }
1113:lvgl/src/extra/libs/png/lodepng.c **** }
 1732              		.loc 1 1113 1 view .LVU541
 1733 0026 F8BD     		pop	{r3, r4, r5, r6, r7, pc}
 1734              	.LVL146:
 1735              	.L89:
 1736              	.LBB6:
1107:lvgl/src/extra/libs/png/lodepng.c ****     advanceBits(reader, FIRSTBITS);
 1737              		.loc 1 1107 5 is_stmt 1 view .LVU542
1108:lvgl/src/extra/libs/png/lodepng.c ****     index2 = value + peekBits(reader, l - FIRSTBITS);
 1738              		.loc 1 1108 5 view .LVU543
 1739 0028 0921     		movs	r1, #9
 1740 002a 3046     		mov	r0, r6
 1741              	.LVL147:
1108:lvgl/src/extra/libs/png/lodepng.c ****     index2 = value + peekBits(reader, l - FIRSTBITS);
 1742              		.loc 1 1108 5 is_stmt 0 view .LVU544
 1743 002c FFF7FEFF 		bl	advanceBits
 1744              	.LVL148:
1109:lvgl/src/extra/libs/png/lodepng.c ****     advanceBits(reader, codetree->table_len[index2] - FIRSTBITS);
 1745              		.loc 1 1109 5 is_stmt 1 view .LVU545
1109:lvgl/src/extra/libs/png/lodepng.c ****     advanceBits(reader, codetree->table_len[index2] - FIRSTBITS);
 1746              		.loc 1 1109 22 is_stmt 0 view .LVU546
 1747 0030 A7F10901 		sub	r1, r7, #9
 1748 0034 3046     		mov	r0, r6
 1749 0036 FFF7FEFF 		bl	peekBits
 1750              	.LVL149:
1109:lvgl/src/extra/libs/png/lodepng.c ****     advanceBits(reader, codetree->table_len[index2] - FIRSTBITS);
 1751              		.loc 1 1109 12 discriminator 1 view .LVU547
 1752 003a 0544     		add	r5, r5, r0
 1753              	.LVL150:
1110:lvgl/src/extra/libs/png/lodepng.c ****     return codetree->table_value[index2];
 1754              		.loc 1 1110 5 is_stmt 1 view .LVU548
1110:lvgl/src/extra/libs/png/lodepng.c ****     return codetree->table_value[index2];
 1755              		.loc 1 1110 33 is_stmt 0 view .LVU549
 1756 003c 2369     		ldr	r3, [r4, #16]
1110:lvgl/src/extra/libs/png/lodepng.c ****     return codetree->table_value[index2];
ARM GAS  C:\usertemp\cc6W5uFK.s 			page 54


 1757              		.loc 1 1110 44 view .LVU550
 1758 003e 595D     		ldrb	r1, [r3, r5]	@ zero_extendqisi2
1110:lvgl/src/extra/libs/png/lodepng.c ****     return codetree->table_value[index2];
 1759              		.loc 1 1110 5 view .LVU551
 1760 0040 0939     		subs	r1, r1, #9
 1761 0042 3046     		mov	r0, r6
 1762 0044 FFF7FEFF 		bl	advanceBits
 1763              	.LVL151:
1111:lvgl/src/extra/libs/png/lodepng.c ****   }
 1764              		.loc 1 1111 5 is_stmt 1 view .LVU552
1111:lvgl/src/extra/libs/png/lodepng.c ****   }
 1765              		.loc 1 1111 20 is_stmt 0 view .LVU553
 1766 0048 6369     		ldr	r3, [r4, #20]
1111:lvgl/src/extra/libs/png/lodepng.c ****   }
 1767              		.loc 1 1111 33 view .LVU554
 1768 004a 33F81500 		ldrh	r0, [r3, r5, lsl #1]
 1769 004e EAE7     		b	.L88
 1770              	.LBE6:
 1771              		.cfi_endproc
 1772              	.LFE244:
 1774              		.section	.text.searchCodeIndex,"ax",%progbits
 1775              		.align	1
 1776              		.syntax unified
 1777              		.thumb
 1778              		.thumb_func
 1780              	searchCodeIndex:
 1781              	.LVL152:
 1782              	.LFB252:
1114:lvgl/src/extra/libs/png/lodepng.c **** #endif /*LODEPNG_COMPILE_DECODER*/
1115:lvgl/src/extra/libs/png/lodepng.c **** 
1116:lvgl/src/extra/libs/png/lodepng.c **** #ifdef LODEPNG_COMPILE_DECODER
1117:lvgl/src/extra/libs/png/lodepng.c **** 
1118:lvgl/src/extra/libs/png/lodepng.c **** /* ////////////////////////////////////////////////////////////////////////// */
1119:lvgl/src/extra/libs/png/lodepng.c **** /* / Inflator (Decompressor)                                                / */
1120:lvgl/src/extra/libs/png/lodepng.c **** /* ////////////////////////////////////////////////////////////////////////// */
1121:lvgl/src/extra/libs/png/lodepng.c **** 
1122:lvgl/src/extra/libs/png/lodepng.c **** /*get the tree of a deflated block with fixed tree, as specified in the deflate specification
1123:lvgl/src/extra/libs/png/lodepng.c **** Returns error code.*/
1124:lvgl/src/extra/libs/png/lodepng.c **** static unsigned getTreeInflateFixed(HuffmanTree* tree_ll, HuffmanTree* tree_d) {
1125:lvgl/src/extra/libs/png/lodepng.c ****   unsigned error = generateFixedLitLenTree(tree_ll);
1126:lvgl/src/extra/libs/png/lodepng.c ****   if(error) return error;
1127:lvgl/src/extra/libs/png/lodepng.c ****   return generateFixedDistanceTree(tree_d);
1128:lvgl/src/extra/libs/png/lodepng.c **** }
1129:lvgl/src/extra/libs/png/lodepng.c **** 
1130:lvgl/src/extra/libs/png/lodepng.c **** /*get the tree of a deflated block with dynamic tree, the tree itself is also Huffman compressed wi
1131:lvgl/src/extra/libs/png/lodepng.c **** static unsigned getTreeInflateDynamic(HuffmanTree* tree_ll, HuffmanTree* tree_d,
1132:lvgl/src/extra/libs/png/lodepng.c ****                                       LodePNGBitReader* reader) {
1133:lvgl/src/extra/libs/png/lodepng.c ****   /*make sure that length values that aren't filled in will be 0, or a wrong tree will be generated
1134:lvgl/src/extra/libs/png/lodepng.c ****   unsigned error = 0;
1135:lvgl/src/extra/libs/png/lodepng.c ****   unsigned n, HLIT, HDIST, HCLEN, i;
1136:lvgl/src/extra/libs/png/lodepng.c **** 
1137:lvgl/src/extra/libs/png/lodepng.c ****   /*see comments in deflateDynamic for explanation of the context and these variables, it is analog
1138:lvgl/src/extra/libs/png/lodepng.c ****   unsigned* bitlen_ll = 0; /*lit,len code lengths*/
1139:lvgl/src/extra/libs/png/lodepng.c ****   unsigned* bitlen_d = 0; /*dist code lengths*/
1140:lvgl/src/extra/libs/png/lodepng.c ****   /*code length code lengths ("clcl"), the bit lengths of the huffman tree used to compress bitlen_
1141:lvgl/src/extra/libs/png/lodepng.c ****   unsigned* bitlen_cl = 0;
1142:lvgl/src/extra/libs/png/lodepng.c ****   HuffmanTree tree_cl; /*the code tree for code length codes (the huffman tree for compressed huffm
ARM GAS  C:\usertemp\cc6W5uFK.s 			page 55


1143:lvgl/src/extra/libs/png/lodepng.c **** 
1144:lvgl/src/extra/libs/png/lodepng.c ****   if(!ensureBits17(reader, 14)) return 49; /*error: the bit pointer is or will go past the memory*/
1145:lvgl/src/extra/libs/png/lodepng.c **** 
1146:lvgl/src/extra/libs/png/lodepng.c ****   /*number of literal/length codes + 257. Unlike the spec, the value 257 is added to it here alread
1147:lvgl/src/extra/libs/png/lodepng.c ****   HLIT =  readBits(reader, 5) + 257;
1148:lvgl/src/extra/libs/png/lodepng.c ****   /*number of distance codes. Unlike the spec, the value 1 is added to it here already*/
1149:lvgl/src/extra/libs/png/lodepng.c ****   HDIST = readBits(reader, 5) + 1;
1150:lvgl/src/extra/libs/png/lodepng.c ****   /*number of code length codes. Unlike the spec, the value 4 is added to it here already*/
1151:lvgl/src/extra/libs/png/lodepng.c ****   HCLEN = readBits(reader, 4) + 4;
1152:lvgl/src/extra/libs/png/lodepng.c **** 
1153:lvgl/src/extra/libs/png/lodepng.c ****   bitlen_cl = (unsigned*)lodepng_malloc(NUM_CODE_LENGTH_CODES * sizeof(unsigned));
1154:lvgl/src/extra/libs/png/lodepng.c ****   if(!bitlen_cl) return 83 /*alloc fail*/;
1155:lvgl/src/extra/libs/png/lodepng.c **** 
1156:lvgl/src/extra/libs/png/lodepng.c ****   HuffmanTree_init(&tree_cl);
1157:lvgl/src/extra/libs/png/lodepng.c **** 
1158:lvgl/src/extra/libs/png/lodepng.c ****   while(!error) {
1159:lvgl/src/extra/libs/png/lodepng.c ****     /*read the code length codes out of 3 * (amount of code length codes) bits*/
1160:lvgl/src/extra/libs/png/lodepng.c ****     if(lodepng_gtofl(reader->bp, HCLEN * 3, reader->bitsize)) {
1161:lvgl/src/extra/libs/png/lodepng.c ****       ERROR_BREAK(50); /*error: the bit pointer is or will go past the memory*/
1162:lvgl/src/extra/libs/png/lodepng.c ****     }
1163:lvgl/src/extra/libs/png/lodepng.c ****     for(i = 0; i != HCLEN; ++i) {
1164:lvgl/src/extra/libs/png/lodepng.c ****       ensureBits9(reader, 3); /*out of bounds already checked above */
1165:lvgl/src/extra/libs/png/lodepng.c ****       bitlen_cl[CLCL_ORDER[i]] = readBits(reader, 3);
1166:lvgl/src/extra/libs/png/lodepng.c ****     }
1167:lvgl/src/extra/libs/png/lodepng.c ****     for(i = HCLEN; i != NUM_CODE_LENGTH_CODES; ++i) {
1168:lvgl/src/extra/libs/png/lodepng.c ****       bitlen_cl[CLCL_ORDER[i]] = 0;
1169:lvgl/src/extra/libs/png/lodepng.c ****     }
1170:lvgl/src/extra/libs/png/lodepng.c **** 
1171:lvgl/src/extra/libs/png/lodepng.c ****     error = HuffmanTree_makeFromLengths(&tree_cl, bitlen_cl, NUM_CODE_LENGTH_CODES, 7);
1172:lvgl/src/extra/libs/png/lodepng.c ****     if(error) break;
1173:lvgl/src/extra/libs/png/lodepng.c **** 
1174:lvgl/src/extra/libs/png/lodepng.c ****     /*now we can use this tree to read the lengths for the tree that this function will return*/
1175:lvgl/src/extra/libs/png/lodepng.c ****     bitlen_ll = (unsigned*)lodepng_malloc(NUM_DEFLATE_CODE_SYMBOLS * sizeof(unsigned));
1176:lvgl/src/extra/libs/png/lodepng.c ****     bitlen_d = (unsigned*)lodepng_malloc(NUM_DISTANCE_SYMBOLS * sizeof(unsigned));
1177:lvgl/src/extra/libs/png/lodepng.c ****     if(!bitlen_ll || !bitlen_d) ERROR_BREAK(83 /*alloc fail*/);
1178:lvgl/src/extra/libs/png/lodepng.c ****     lodepng_memset(bitlen_ll, 0, NUM_DEFLATE_CODE_SYMBOLS * sizeof(*bitlen_ll));
1179:lvgl/src/extra/libs/png/lodepng.c ****     lodepng_memset(bitlen_d, 0, NUM_DISTANCE_SYMBOLS * sizeof(*bitlen_d));
1180:lvgl/src/extra/libs/png/lodepng.c **** 
1181:lvgl/src/extra/libs/png/lodepng.c ****     /*i is the current symbol we're reading in the part that contains the code lengths of lit/len a
1182:lvgl/src/extra/libs/png/lodepng.c ****     i = 0;
1183:lvgl/src/extra/libs/png/lodepng.c ****     while(i < HLIT + HDIST) {
1184:lvgl/src/extra/libs/png/lodepng.c ****       unsigned code;
1185:lvgl/src/extra/libs/png/lodepng.c ****       ensureBits25(reader, 22); /* up to 15 bits for huffman code, up to 7 extra bits below*/
1186:lvgl/src/extra/libs/png/lodepng.c ****       code = huffmanDecodeSymbol(reader, &tree_cl);
1187:lvgl/src/extra/libs/png/lodepng.c ****       if(code <= 15) /*a length code*/ {
1188:lvgl/src/extra/libs/png/lodepng.c ****         if(i < HLIT) bitlen_ll[i] = code;
1189:lvgl/src/extra/libs/png/lodepng.c ****         else bitlen_d[i - HLIT] = code;
1190:lvgl/src/extra/libs/png/lodepng.c ****         ++i;
1191:lvgl/src/extra/libs/png/lodepng.c ****       } else if(code == 16) /*repeat previous*/ {
1192:lvgl/src/extra/libs/png/lodepng.c ****         unsigned replength = 3; /*read in the 2 bits that indicate repeat length (3-6)*/
1193:lvgl/src/extra/libs/png/lodepng.c ****         unsigned value; /*set value to the previous code*/
1194:lvgl/src/extra/libs/png/lodepng.c **** 
1195:lvgl/src/extra/libs/png/lodepng.c ****         if(i == 0) ERROR_BREAK(54); /*can't repeat previous if i is 0*/
1196:lvgl/src/extra/libs/png/lodepng.c **** 
1197:lvgl/src/extra/libs/png/lodepng.c ****         replength += readBits(reader, 2);
1198:lvgl/src/extra/libs/png/lodepng.c **** 
1199:lvgl/src/extra/libs/png/lodepng.c ****         if(i < HLIT + 1) value = bitlen_ll[i - 1];
ARM GAS  C:\usertemp\cc6W5uFK.s 			page 56


1200:lvgl/src/extra/libs/png/lodepng.c ****         else value = bitlen_d[i - HLIT - 1];
1201:lvgl/src/extra/libs/png/lodepng.c ****         /*repeat this value in the next lengths*/
1202:lvgl/src/extra/libs/png/lodepng.c ****         for(n = 0; n < replength; ++n) {
1203:lvgl/src/extra/libs/png/lodepng.c ****           if(i >= HLIT + HDIST) ERROR_BREAK(13); /*error: i is larger than the amount of codes*/
1204:lvgl/src/extra/libs/png/lodepng.c ****           if(i < HLIT) bitlen_ll[i] = value;
1205:lvgl/src/extra/libs/png/lodepng.c ****           else bitlen_d[i - HLIT] = value;
1206:lvgl/src/extra/libs/png/lodepng.c ****           ++i;
1207:lvgl/src/extra/libs/png/lodepng.c ****         }
1208:lvgl/src/extra/libs/png/lodepng.c ****       } else if(code == 17) /*repeat "0" 3-10 times*/ {
1209:lvgl/src/extra/libs/png/lodepng.c ****         unsigned replength = 3; /*read in the bits that indicate repeat length*/
1210:lvgl/src/extra/libs/png/lodepng.c ****         replength += readBits(reader, 3);
1211:lvgl/src/extra/libs/png/lodepng.c **** 
1212:lvgl/src/extra/libs/png/lodepng.c ****         /*repeat this value in the next lengths*/
1213:lvgl/src/extra/libs/png/lodepng.c ****         for(n = 0; n < replength; ++n) {
1214:lvgl/src/extra/libs/png/lodepng.c ****           if(i >= HLIT + HDIST) ERROR_BREAK(14); /*error: i is larger than the amount of codes*/
1215:lvgl/src/extra/libs/png/lodepng.c **** 
1216:lvgl/src/extra/libs/png/lodepng.c ****           if(i < HLIT) bitlen_ll[i] = 0;
1217:lvgl/src/extra/libs/png/lodepng.c ****           else bitlen_d[i - HLIT] = 0;
1218:lvgl/src/extra/libs/png/lodepng.c ****           ++i;
1219:lvgl/src/extra/libs/png/lodepng.c ****         }
1220:lvgl/src/extra/libs/png/lodepng.c ****       } else if(code == 18) /*repeat "0" 11-138 times*/ {
1221:lvgl/src/extra/libs/png/lodepng.c ****         unsigned replength = 11; /*read in the bits that indicate repeat length*/
1222:lvgl/src/extra/libs/png/lodepng.c ****         replength += readBits(reader, 7);
1223:lvgl/src/extra/libs/png/lodepng.c **** 
1224:lvgl/src/extra/libs/png/lodepng.c ****         /*repeat this value in the next lengths*/
1225:lvgl/src/extra/libs/png/lodepng.c ****         for(n = 0; n < replength; ++n) {
1226:lvgl/src/extra/libs/png/lodepng.c ****           if(i >= HLIT + HDIST) ERROR_BREAK(15); /*error: i is larger than the amount of codes*/
1227:lvgl/src/extra/libs/png/lodepng.c **** 
1228:lvgl/src/extra/libs/png/lodepng.c ****           if(i < HLIT) bitlen_ll[i] = 0;
1229:lvgl/src/extra/libs/png/lodepng.c ****           else bitlen_d[i - HLIT] = 0;
1230:lvgl/src/extra/libs/png/lodepng.c ****           ++i;
1231:lvgl/src/extra/libs/png/lodepng.c ****         }
1232:lvgl/src/extra/libs/png/lodepng.c ****       } else /*if(code == INVALIDSYMBOL)*/ {
1233:lvgl/src/extra/libs/png/lodepng.c ****         ERROR_BREAK(16); /*error: tried to read disallowed huffman symbol*/
1234:lvgl/src/extra/libs/png/lodepng.c ****       }
1235:lvgl/src/extra/libs/png/lodepng.c ****       /*check if any of the ensureBits above went out of bounds*/
1236:lvgl/src/extra/libs/png/lodepng.c ****       if(reader->bp > reader->bitsize) {
1237:lvgl/src/extra/libs/png/lodepng.c ****         /*return error code 10 or 11 depending on the situation that happened in huffmanDecodeSymbo
1238:lvgl/src/extra/libs/png/lodepng.c ****         (10=no endcode, 11=wrong jump outside of tree)*/
1239:lvgl/src/extra/libs/png/lodepng.c ****         /* TODO: revise error codes 10,11,50: the above comment is no longer valid */
1240:lvgl/src/extra/libs/png/lodepng.c ****         ERROR_BREAK(50); /*error, bit pointer jumps past memory*/
1241:lvgl/src/extra/libs/png/lodepng.c ****       }
1242:lvgl/src/extra/libs/png/lodepng.c ****     }
1243:lvgl/src/extra/libs/png/lodepng.c ****     if(error) break;
1244:lvgl/src/extra/libs/png/lodepng.c **** 
1245:lvgl/src/extra/libs/png/lodepng.c ****     if(bitlen_ll[256] == 0) ERROR_BREAK(64); /*the length of the end code 256 must be larger than 0
1246:lvgl/src/extra/libs/png/lodepng.c **** 
1247:lvgl/src/extra/libs/png/lodepng.c ****     /*now we've finally got HLIT and HDIST, so generate the code trees, and the function is done*/
1248:lvgl/src/extra/libs/png/lodepng.c ****     error = HuffmanTree_makeFromLengths(tree_ll, bitlen_ll, NUM_DEFLATE_CODE_SYMBOLS, 15);
1249:lvgl/src/extra/libs/png/lodepng.c ****     if(error) break;
1250:lvgl/src/extra/libs/png/lodepng.c ****     error = HuffmanTree_makeFromLengths(tree_d, bitlen_d, NUM_DISTANCE_SYMBOLS, 15);
1251:lvgl/src/extra/libs/png/lodepng.c **** 
1252:lvgl/src/extra/libs/png/lodepng.c ****     break; /*end of error-while*/
1253:lvgl/src/extra/libs/png/lodepng.c ****   }
1254:lvgl/src/extra/libs/png/lodepng.c **** 
1255:lvgl/src/extra/libs/png/lodepng.c ****   lodepng_free(bitlen_cl);
1256:lvgl/src/extra/libs/png/lodepng.c ****   lodepng_free(bitlen_ll);
ARM GAS  C:\usertemp\cc6W5uFK.s 			page 57


1257:lvgl/src/extra/libs/png/lodepng.c ****   lodepng_free(bitlen_d);
1258:lvgl/src/extra/libs/png/lodepng.c ****   HuffmanTree_cleanup(&tree_cl);
1259:lvgl/src/extra/libs/png/lodepng.c **** 
1260:lvgl/src/extra/libs/png/lodepng.c ****   return error;
1261:lvgl/src/extra/libs/png/lodepng.c **** }
1262:lvgl/src/extra/libs/png/lodepng.c **** 
1263:lvgl/src/extra/libs/png/lodepng.c **** /*inflate a block with dynamic of fixed Huffman tree. btype must be 1 or 2.*/
1264:lvgl/src/extra/libs/png/lodepng.c **** static unsigned inflateHuffmanBlock(ucvector* out, LodePNGBitReader* reader,
1265:lvgl/src/extra/libs/png/lodepng.c ****                                     unsigned btype, size_t max_output_size) {
1266:lvgl/src/extra/libs/png/lodepng.c ****   unsigned error = 0;
1267:lvgl/src/extra/libs/png/lodepng.c ****   HuffmanTree tree_ll; /*the huffman tree for literal and length codes*/
1268:lvgl/src/extra/libs/png/lodepng.c ****   HuffmanTree tree_d; /*the huffman tree for distance codes*/
1269:lvgl/src/extra/libs/png/lodepng.c **** 
1270:lvgl/src/extra/libs/png/lodepng.c ****   HuffmanTree_init(&tree_ll);
1271:lvgl/src/extra/libs/png/lodepng.c ****   HuffmanTree_init(&tree_d);
1272:lvgl/src/extra/libs/png/lodepng.c **** 
1273:lvgl/src/extra/libs/png/lodepng.c ****   if(btype == 1) error = getTreeInflateFixed(&tree_ll, &tree_d);
1274:lvgl/src/extra/libs/png/lodepng.c ****   else /*if(btype == 2)*/ error = getTreeInflateDynamic(&tree_ll, &tree_d, reader);
1275:lvgl/src/extra/libs/png/lodepng.c **** 
1276:lvgl/src/extra/libs/png/lodepng.c ****   while(!error) /*decode all symbols until end reached, breaks at end code*/ {
1277:lvgl/src/extra/libs/png/lodepng.c ****     /*code_ll is literal, length or end code*/
1278:lvgl/src/extra/libs/png/lodepng.c ****     unsigned code_ll;
1279:lvgl/src/extra/libs/png/lodepng.c ****     ensureBits25(reader, 20); /* up to 15 for the huffman symbol, up to 5 for the length extra bits
1280:lvgl/src/extra/libs/png/lodepng.c ****     code_ll = huffmanDecodeSymbol(reader, &tree_ll);
1281:lvgl/src/extra/libs/png/lodepng.c ****     if(code_ll <= 255) /*literal symbol*/ {
1282:lvgl/src/extra/libs/png/lodepng.c ****       if(!ucvector_resize(out, out->size + 1)) ERROR_BREAK(83 /*alloc fail*/);
1283:lvgl/src/extra/libs/png/lodepng.c ****       out->data[out->size - 1] = (unsigned char)code_ll;
1284:lvgl/src/extra/libs/png/lodepng.c ****     } else if(code_ll >= FIRST_LENGTH_CODE_INDEX && code_ll <= LAST_LENGTH_CODE_INDEX) /*length cod
1285:lvgl/src/extra/libs/png/lodepng.c ****       unsigned code_d, distance;
1286:lvgl/src/extra/libs/png/lodepng.c ****       unsigned numextrabits_l, numextrabits_d; /*extra bits for length and distance*/
1287:lvgl/src/extra/libs/png/lodepng.c ****       size_t start, backward, length;
1288:lvgl/src/extra/libs/png/lodepng.c **** 
1289:lvgl/src/extra/libs/png/lodepng.c ****       /*part 1: get length base*/
1290:lvgl/src/extra/libs/png/lodepng.c ****       length = LENGTHBASE[code_ll - FIRST_LENGTH_CODE_INDEX];
1291:lvgl/src/extra/libs/png/lodepng.c **** 
1292:lvgl/src/extra/libs/png/lodepng.c ****       /*part 2: get extra bits and add the value of that to length*/
1293:lvgl/src/extra/libs/png/lodepng.c ****       numextrabits_l = LENGTHEXTRA[code_ll - FIRST_LENGTH_CODE_INDEX];
1294:lvgl/src/extra/libs/png/lodepng.c ****       if(numextrabits_l != 0) {
1295:lvgl/src/extra/libs/png/lodepng.c ****         /* bits already ensured above */
1296:lvgl/src/extra/libs/png/lodepng.c ****         length += readBits(reader, numextrabits_l);
1297:lvgl/src/extra/libs/png/lodepng.c ****       }
1298:lvgl/src/extra/libs/png/lodepng.c **** 
1299:lvgl/src/extra/libs/png/lodepng.c ****       /*part 3: get distance code*/
1300:lvgl/src/extra/libs/png/lodepng.c ****       ensureBits32(reader, 28); /* up to 15 for the huffman symbol, up to 13 for the extra bits */
1301:lvgl/src/extra/libs/png/lodepng.c ****       code_d = huffmanDecodeSymbol(reader, &tree_d);
1302:lvgl/src/extra/libs/png/lodepng.c ****       if(code_d > 29) {
1303:lvgl/src/extra/libs/png/lodepng.c ****         if(code_d <= 31) {
1304:lvgl/src/extra/libs/png/lodepng.c ****           ERROR_BREAK(18); /*error: invalid distance code (30-31 are never used)*/
1305:lvgl/src/extra/libs/png/lodepng.c ****         } else /* if(code_d == INVALIDSYMBOL) */{
1306:lvgl/src/extra/libs/png/lodepng.c ****           ERROR_BREAK(16); /*error: tried to read disallowed huffman symbol*/
1307:lvgl/src/extra/libs/png/lodepng.c ****         }
1308:lvgl/src/extra/libs/png/lodepng.c ****       }
1309:lvgl/src/extra/libs/png/lodepng.c ****       distance = DISTANCEBASE[code_d];
1310:lvgl/src/extra/libs/png/lodepng.c **** 
1311:lvgl/src/extra/libs/png/lodepng.c ****       /*part 4: get extra bits from distance*/
1312:lvgl/src/extra/libs/png/lodepng.c ****       numextrabits_d = DISTANCEEXTRA[code_d];
1313:lvgl/src/extra/libs/png/lodepng.c ****       if(numextrabits_d != 0) {
ARM GAS  C:\usertemp\cc6W5uFK.s 			page 58


1314:lvgl/src/extra/libs/png/lodepng.c ****         /* bits already ensured above */
1315:lvgl/src/extra/libs/png/lodepng.c ****         distance += readBits(reader, numextrabits_d);
1316:lvgl/src/extra/libs/png/lodepng.c ****       }
1317:lvgl/src/extra/libs/png/lodepng.c **** 
1318:lvgl/src/extra/libs/png/lodepng.c ****       /*part 5: fill in all the out[n] values based on the length and dist*/
1319:lvgl/src/extra/libs/png/lodepng.c ****       start = out->size;
1320:lvgl/src/extra/libs/png/lodepng.c ****       if(distance > start) ERROR_BREAK(52); /*too long backward distance*/
1321:lvgl/src/extra/libs/png/lodepng.c ****       backward = start - distance;
1322:lvgl/src/extra/libs/png/lodepng.c **** 
1323:lvgl/src/extra/libs/png/lodepng.c ****       if(!ucvector_resize(out, out->size + length)) ERROR_BREAK(83 /*alloc fail*/);
1324:lvgl/src/extra/libs/png/lodepng.c ****       if(distance < length) {
1325:lvgl/src/extra/libs/png/lodepng.c ****         size_t forward;
1326:lvgl/src/extra/libs/png/lodepng.c ****         lodepng_memcpy(out->data + start, out->data + backward, distance);
1327:lvgl/src/extra/libs/png/lodepng.c ****         start += distance;
1328:lvgl/src/extra/libs/png/lodepng.c ****         for(forward = distance; forward < length; ++forward) {
1329:lvgl/src/extra/libs/png/lodepng.c ****           out->data[start++] = out->data[backward++];
1330:lvgl/src/extra/libs/png/lodepng.c ****         }
1331:lvgl/src/extra/libs/png/lodepng.c ****       } else {
1332:lvgl/src/extra/libs/png/lodepng.c ****         lodepng_memcpy(out->data + start, out->data + backward, length);
1333:lvgl/src/extra/libs/png/lodepng.c ****       }
1334:lvgl/src/extra/libs/png/lodepng.c ****     } else if(code_ll == 256) {
1335:lvgl/src/extra/libs/png/lodepng.c ****       break; /*end code, break the loop*/
1336:lvgl/src/extra/libs/png/lodepng.c ****     } else /*if(code_ll == INVALIDSYMBOL)*/ {
1337:lvgl/src/extra/libs/png/lodepng.c ****       ERROR_BREAK(16); /*error: tried to read disallowed huffman symbol*/
1338:lvgl/src/extra/libs/png/lodepng.c ****     }
1339:lvgl/src/extra/libs/png/lodepng.c ****     /*check if any of the ensureBits above went out of bounds*/
1340:lvgl/src/extra/libs/png/lodepng.c ****     if(reader->bp > reader->bitsize) {
1341:lvgl/src/extra/libs/png/lodepng.c ****       /*return error code 10 or 11 depending on the situation that happened in huffmanDecodeSymbol
1342:lvgl/src/extra/libs/png/lodepng.c ****       (10=no endcode, 11=wrong jump outside of tree)*/
1343:lvgl/src/extra/libs/png/lodepng.c ****       /* TODO: revise error codes 10,11,50: the above comment is no longer valid */
1344:lvgl/src/extra/libs/png/lodepng.c ****       ERROR_BREAK(51); /*error, bit pointer jumps past memory*/
1345:lvgl/src/extra/libs/png/lodepng.c ****     }
1346:lvgl/src/extra/libs/png/lodepng.c ****     if(max_output_size && out->size > max_output_size) {
1347:lvgl/src/extra/libs/png/lodepng.c ****       ERROR_BREAK(109); /*error, larger than max size*/
1348:lvgl/src/extra/libs/png/lodepng.c ****     }
1349:lvgl/src/extra/libs/png/lodepng.c ****   }
1350:lvgl/src/extra/libs/png/lodepng.c **** 
1351:lvgl/src/extra/libs/png/lodepng.c ****   HuffmanTree_cleanup(&tree_ll);
1352:lvgl/src/extra/libs/png/lodepng.c ****   HuffmanTree_cleanup(&tree_d);
1353:lvgl/src/extra/libs/png/lodepng.c **** 
1354:lvgl/src/extra/libs/png/lodepng.c ****   return error;
1355:lvgl/src/extra/libs/png/lodepng.c **** }
1356:lvgl/src/extra/libs/png/lodepng.c **** 
1357:lvgl/src/extra/libs/png/lodepng.c **** static unsigned inflateNoCompression(ucvector* out, LodePNGBitReader* reader,
1358:lvgl/src/extra/libs/png/lodepng.c ****                                      const LodePNGDecompressSettings* settings) {
1359:lvgl/src/extra/libs/png/lodepng.c ****   size_t bytepos;
1360:lvgl/src/extra/libs/png/lodepng.c ****   size_t size = reader->size;
1361:lvgl/src/extra/libs/png/lodepng.c ****   unsigned LEN, NLEN, error = 0;
1362:lvgl/src/extra/libs/png/lodepng.c **** 
1363:lvgl/src/extra/libs/png/lodepng.c ****   /*go to first boundary of byte*/
1364:lvgl/src/extra/libs/png/lodepng.c ****   bytepos = (reader->bp + 7u) >> 3u;
1365:lvgl/src/extra/libs/png/lodepng.c **** 
1366:lvgl/src/extra/libs/png/lodepng.c ****   /*read LEN (2 bytes) and NLEN (2 bytes)*/
1367:lvgl/src/extra/libs/png/lodepng.c ****   if(bytepos + 4 >= size) return 52; /*error, bit pointer will jump past memory*/
1368:lvgl/src/extra/libs/png/lodepng.c ****   LEN = (unsigned)reader->data[bytepos] + ((unsigned)reader->data[bytepos + 1] << 8u); bytepos += 2
1369:lvgl/src/extra/libs/png/lodepng.c ****   NLEN = (unsigned)reader->data[bytepos] + ((unsigned)reader->data[bytepos + 1] << 8u); bytepos += 
1370:lvgl/src/extra/libs/png/lodepng.c **** 
ARM GAS  C:\usertemp\cc6W5uFK.s 			page 59


1371:lvgl/src/extra/libs/png/lodepng.c ****   /*check if 16-bit NLEN is really the one's complement of LEN*/
1372:lvgl/src/extra/libs/png/lodepng.c ****   if(!settings->ignore_nlen && LEN + NLEN != 65535) {
1373:lvgl/src/extra/libs/png/lodepng.c ****     return 21; /*error: NLEN is not one's complement of LEN*/
1374:lvgl/src/extra/libs/png/lodepng.c ****   }
1375:lvgl/src/extra/libs/png/lodepng.c **** 
1376:lvgl/src/extra/libs/png/lodepng.c ****   if(!ucvector_resize(out, out->size + LEN)) return 83; /*alloc fail*/
1377:lvgl/src/extra/libs/png/lodepng.c **** 
1378:lvgl/src/extra/libs/png/lodepng.c ****   /*read the literal data: LEN bytes are now stored in the out buffer*/
1379:lvgl/src/extra/libs/png/lodepng.c ****   if(bytepos + LEN > size) return 23; /*error: reading outside of in buffer*/
1380:lvgl/src/extra/libs/png/lodepng.c **** 
1381:lvgl/src/extra/libs/png/lodepng.c ****   lodepng_memcpy(out->data + out->size - LEN, reader->data + bytepos, LEN);
1382:lvgl/src/extra/libs/png/lodepng.c ****   bytepos += LEN;
1383:lvgl/src/extra/libs/png/lodepng.c **** 
1384:lvgl/src/extra/libs/png/lodepng.c ****   reader->bp = bytepos << 3u;
1385:lvgl/src/extra/libs/png/lodepng.c **** 
1386:lvgl/src/extra/libs/png/lodepng.c ****   return error;
1387:lvgl/src/extra/libs/png/lodepng.c **** }
1388:lvgl/src/extra/libs/png/lodepng.c **** 
1389:lvgl/src/extra/libs/png/lodepng.c **** static unsigned lodepng_inflatev(ucvector* out,
1390:lvgl/src/extra/libs/png/lodepng.c ****                                  const unsigned char* in, size_t insize,
1391:lvgl/src/extra/libs/png/lodepng.c ****                                  const LodePNGDecompressSettings* settings) {
1392:lvgl/src/extra/libs/png/lodepng.c ****   unsigned BFINAL = 0;
1393:lvgl/src/extra/libs/png/lodepng.c ****   LodePNGBitReader reader;
1394:lvgl/src/extra/libs/png/lodepng.c ****   unsigned error = LodePNGBitReader_init(&reader, in, insize);
1395:lvgl/src/extra/libs/png/lodepng.c **** 
1396:lvgl/src/extra/libs/png/lodepng.c ****   if(error) return error;
1397:lvgl/src/extra/libs/png/lodepng.c **** 
1398:lvgl/src/extra/libs/png/lodepng.c ****   while(!BFINAL) {
1399:lvgl/src/extra/libs/png/lodepng.c ****     unsigned BTYPE;
1400:lvgl/src/extra/libs/png/lodepng.c ****     if(!ensureBits9(&reader, 3)) return 52; /*error, bit pointer will jump past memory*/
1401:lvgl/src/extra/libs/png/lodepng.c ****     BFINAL = readBits(&reader, 1);
1402:lvgl/src/extra/libs/png/lodepng.c ****     BTYPE = readBits(&reader, 2);
1403:lvgl/src/extra/libs/png/lodepng.c **** 
1404:lvgl/src/extra/libs/png/lodepng.c ****     if(BTYPE == 3) return 20; /*error: invalid BTYPE*/
1405:lvgl/src/extra/libs/png/lodepng.c ****     else if(BTYPE == 0) error = inflateNoCompression(out, &reader, settings); /*no compression*/
1406:lvgl/src/extra/libs/png/lodepng.c ****     else error = inflateHuffmanBlock(out, &reader, BTYPE, settings->max_output_size); /*compression
1407:lvgl/src/extra/libs/png/lodepng.c ****     if(!error && settings->max_output_size && out->size > settings->max_output_size) error = 109;
1408:lvgl/src/extra/libs/png/lodepng.c ****     if(error) break;
1409:lvgl/src/extra/libs/png/lodepng.c ****   }
1410:lvgl/src/extra/libs/png/lodepng.c **** 
1411:lvgl/src/extra/libs/png/lodepng.c ****   return error;
1412:lvgl/src/extra/libs/png/lodepng.c **** }
1413:lvgl/src/extra/libs/png/lodepng.c **** 
1414:lvgl/src/extra/libs/png/lodepng.c **** unsigned lodepng_inflate(unsigned char** out, size_t* outsize,
1415:lvgl/src/extra/libs/png/lodepng.c ****                          const unsigned char* in, size_t insize,
1416:lvgl/src/extra/libs/png/lodepng.c ****                          const LodePNGDecompressSettings* settings) {
1417:lvgl/src/extra/libs/png/lodepng.c ****   ucvector v = ucvector_init(*out, *outsize);
1418:lvgl/src/extra/libs/png/lodepng.c ****   unsigned error = lodepng_inflatev(&v, in, insize, settings);
1419:lvgl/src/extra/libs/png/lodepng.c ****   *out = v.data;
1420:lvgl/src/extra/libs/png/lodepng.c ****   *outsize = v.size;
1421:lvgl/src/extra/libs/png/lodepng.c ****   return error;
1422:lvgl/src/extra/libs/png/lodepng.c **** }
1423:lvgl/src/extra/libs/png/lodepng.c **** 
1424:lvgl/src/extra/libs/png/lodepng.c **** static unsigned inflatev(ucvector* out, const unsigned char* in, size_t insize,
1425:lvgl/src/extra/libs/png/lodepng.c ****                         const LodePNGDecompressSettings* settings) {
1426:lvgl/src/extra/libs/png/lodepng.c ****   if(settings->custom_inflate) {
1427:lvgl/src/extra/libs/png/lodepng.c ****     unsigned error = settings->custom_inflate(&out->data, &out->size, in, insize, settings);
ARM GAS  C:\usertemp\cc6W5uFK.s 			page 60


1428:lvgl/src/extra/libs/png/lodepng.c ****     out->allocsize = out->size;
1429:lvgl/src/extra/libs/png/lodepng.c ****     if(error) {
1430:lvgl/src/extra/libs/png/lodepng.c ****       /*the custom inflate is allowed to have its own error codes, however, we translate it to code
1431:lvgl/src/extra/libs/png/lodepng.c ****       error = 110;
1432:lvgl/src/extra/libs/png/lodepng.c ****       /*if there's a max output size, and the custom zlib returned error, then indicate that error 
1433:lvgl/src/extra/libs/png/lodepng.c ****       if(settings->max_output_size && out->size > settings->max_output_size) error = 109;
1434:lvgl/src/extra/libs/png/lodepng.c ****     }
1435:lvgl/src/extra/libs/png/lodepng.c ****     return error;
1436:lvgl/src/extra/libs/png/lodepng.c ****   } else {
1437:lvgl/src/extra/libs/png/lodepng.c ****     return lodepng_inflatev(out, in, insize, settings);
1438:lvgl/src/extra/libs/png/lodepng.c ****   }
1439:lvgl/src/extra/libs/png/lodepng.c **** }
1440:lvgl/src/extra/libs/png/lodepng.c **** 
1441:lvgl/src/extra/libs/png/lodepng.c **** #endif /*LODEPNG_COMPILE_DECODER*/
1442:lvgl/src/extra/libs/png/lodepng.c **** 
1443:lvgl/src/extra/libs/png/lodepng.c **** #ifdef LODEPNG_COMPILE_ENCODER
1444:lvgl/src/extra/libs/png/lodepng.c **** 
1445:lvgl/src/extra/libs/png/lodepng.c **** /* ////////////////////////////////////////////////////////////////////////// */
1446:lvgl/src/extra/libs/png/lodepng.c **** /* / Deflator (Compressor)                                                  / */
1447:lvgl/src/extra/libs/png/lodepng.c **** /* ////////////////////////////////////////////////////////////////////////// */
1448:lvgl/src/extra/libs/png/lodepng.c **** 
1449:lvgl/src/extra/libs/png/lodepng.c **** static const size_t MAX_SUPPORTED_DEFLATE_LENGTH = 258;
1450:lvgl/src/extra/libs/png/lodepng.c **** 
1451:lvgl/src/extra/libs/png/lodepng.c **** /*search the index in the array, that has the largest value smaller than or equal to the given valu
1452:lvgl/src/extra/libs/png/lodepng.c **** given array must be sorted (if no value is smaller, it returns the size of the given array)*/
1453:lvgl/src/extra/libs/png/lodepng.c **** static size_t searchCodeIndex(const unsigned* array, size_t array_size, size_t value) {
 1783              		.loc 1 1453 87 is_stmt 1 view -0
 1784              		.cfi_startproc
 1785              		@ args = 0, pretend = 0, frame = 0
 1786              		@ frame_needed = 0, uses_anonymous_args = 0
 1787              		.loc 1 1453 87 is_stmt 0 view .LVU556
 1788 0000 10B5     		push	{r4, lr}
 1789              	.LCFI23:
 1790              		.cfi_def_cfa_offset 8
 1791              		.cfi_offset 4, -8
 1792              		.cfi_offset 14, -4
 1793 0002 8646     		mov	lr, r0
1454:lvgl/src/extra/libs/png/lodepng.c ****   /*binary search (only small gain over linear). TODO: use CPU log2 instruction for getting symbols
1455:lvgl/src/extra/libs/png/lodepng.c ****   size_t left = 1;
 1794              		.loc 1 1455 3 is_stmt 1 view .LVU557
 1795              	.LVL153:
1456:lvgl/src/extra/libs/png/lodepng.c ****   size_t right = array_size - 1;
 1796              		.loc 1 1456 3 view .LVU558
 1797              		.loc 1 1456 10 is_stmt 0 view .LVU559
 1798 0004 01F1FF3C 		add	ip, r1, #-1
 1799              	.LVL154:
1457:lvgl/src/extra/libs/png/lodepng.c **** 
1458:lvgl/src/extra/libs/png/lodepng.c ****   while(left <= right) {
 1800              		.loc 1 1458 3 is_stmt 1 view .LVU560
1455:lvgl/src/extra/libs/png/lodepng.c ****   size_t right = array_size - 1;
 1801              		.loc 1 1455 10 is_stmt 0 view .LVU561
 1802 0008 0120     		movs	r0, #1
 1803              	.LVL155:
 1804              		.loc 1 1458 8 view .LVU562
 1805 000a 00E0     		b	.L93
 1806              	.LVL156:
 1807              	.L94:
ARM GAS  C:\usertemp\cc6W5uFK.s 			page 61


 1808              	.LBB7:
1459:lvgl/src/extra/libs/png/lodepng.c ****     size_t mid = (left + right) >> 1;
1460:lvgl/src/extra/libs/png/lodepng.c ****     if(array[mid] >= value) right = mid - 1;
1461:lvgl/src/extra/libs/png/lodepng.c ****     else left = mid + 1;
 1809              		.loc 1 1461 10 is_stmt 1 view .LVU563
 1810              		.loc 1 1461 15 is_stmt 0 view .LVU564
 1811 000c 581C     		adds	r0, r3, #1
 1812              	.LVL157:
 1813              	.L93:
 1814              		.loc 1 1461 15 view .LVU565
 1815              	.LBE7:
1458:lvgl/src/extra/libs/png/lodepng.c ****     size_t mid = (left + right) >> 1;
 1816              		.loc 1 1458 14 is_stmt 1 view .LVU566
 1817 000e 6045     		cmp	r0, ip
 1818 0010 09D8     		bhi	.L100
 1819              	.LBB8:
1459:lvgl/src/extra/libs/png/lodepng.c ****     size_t mid = (left + right) >> 1;
 1820              		.loc 1 1459 5 view .LVU567
1459:lvgl/src/extra/libs/png/lodepng.c ****     size_t mid = (left + right) >> 1;
 1821              		.loc 1 1459 24 is_stmt 0 view .LVU568
 1822 0012 00EB0C03 		add	r3, r0, ip
1459:lvgl/src/extra/libs/png/lodepng.c ****     size_t mid = (left + right) >> 1;
 1823              		.loc 1 1459 12 view .LVU569
 1824 0016 5B08     		lsrs	r3, r3, #1
 1825              	.LVL158:
1460:lvgl/src/extra/libs/png/lodepng.c ****     else left = mid + 1;
 1826              		.loc 1 1460 5 is_stmt 1 view .LVU570
1460:lvgl/src/extra/libs/png/lodepng.c ****     else left = mid + 1;
 1827              		.loc 1 1460 7 is_stmt 0 view .LVU571
 1828 0018 5EF82340 		ldr	r4, [lr, r3, lsl #2]
 1829 001c 9442     		cmp	r4, r2
 1830 001e F5D3     		bcc	.L94
1460:lvgl/src/extra/libs/png/lodepng.c ****     else left = mid + 1;
 1831              		.loc 1 1460 29 is_stmt 1 discriminator 1 view .LVU572
1460:lvgl/src/extra/libs/png/lodepng.c ****     else left = mid + 1;
 1832              		.loc 1 1460 35 is_stmt 0 discriminator 1 view .LVU573
 1833 0020 03F1FF3C 		add	ip, r3, #-1
 1834              	.LVL159:
1460:lvgl/src/extra/libs/png/lodepng.c ****     else left = mid + 1;
 1835              		.loc 1 1460 35 discriminator 1 view .LVU574
 1836 0024 F3E7     		b	.L93
 1837              	.LVL160:
 1838              	.L100:
1460:lvgl/src/extra/libs/png/lodepng.c ****     else left = mid + 1;
 1839              		.loc 1 1460 35 discriminator 1 view .LVU575
 1840              	.LBE8:
1462:lvgl/src/extra/libs/png/lodepng.c ****   }
1463:lvgl/src/extra/libs/png/lodepng.c ****   if(left >= array_size || array[left] > value) left--;
 1841              		.loc 1 1463 3 is_stmt 1 view .LVU576
 1842              		.loc 1 1463 5 is_stmt 0 view .LVU577
 1843 0026 8842     		cmp	r0, r1
 1844 0028 03D2     		bcs	.L97
 1845              		.loc 1 1463 33 discriminator 2 view .LVU578
 1846 002a 5EF82030 		ldr	r3, [lr, r0, lsl #2]
 1847              		.loc 1 1463 25 discriminator 2 view .LVU579
 1848 002e 9342     		cmp	r3, r2
 1849 0030 00D9     		bls	.L92
ARM GAS  C:\usertemp\cc6W5uFK.s 			page 62


 1850              	.L97:
 1851              		.loc 1 1463 49 is_stmt 1 discriminator 3 view .LVU580
 1852              		.loc 1 1463 53 is_stmt 0 discriminator 3 view .LVU581
 1853 0032 0138     		subs	r0, r0, #1
 1854              	.LVL161:
1464:lvgl/src/extra/libs/png/lodepng.c ****   return left;
 1855              		.loc 1 1464 3 is_stmt 1 view .LVU582
 1856              	.L92:
1465:lvgl/src/extra/libs/png/lodepng.c **** }
 1857              		.loc 1 1465 1 is_stmt 0 view .LVU583
 1858 0034 10BD     		pop	{r4, pc}
 1859              		.cfi_endproc
 1860              	.LFE252:
 1862              		.section	.text.getHash,"ax",%progbits
 1863              		.align	1
 1864              		.syntax unified
 1865              		.thumb
 1866              		.thumb_func
 1868              	getHash:
 1869              	.LVL162:
 1870              	.LFB256:
1466:lvgl/src/extra/libs/png/lodepng.c **** 
1467:lvgl/src/extra/libs/png/lodepng.c **** static void addLengthDistance(uivector* values, size_t length, size_t distance) {
1468:lvgl/src/extra/libs/png/lodepng.c ****   /*values in encoded vector are those used by deflate:
1469:lvgl/src/extra/libs/png/lodepng.c ****   0-255: literal bytes
1470:lvgl/src/extra/libs/png/lodepng.c ****   256: end
1471:lvgl/src/extra/libs/png/lodepng.c ****   257-285: length/distance pair (length code, followed by extra length bits, distance code, extra d
1472:lvgl/src/extra/libs/png/lodepng.c ****   286-287: invalid*/
1473:lvgl/src/extra/libs/png/lodepng.c **** 
1474:lvgl/src/extra/libs/png/lodepng.c ****   unsigned length_code = (unsigned)searchCodeIndex(LENGTHBASE, 29, length);
1475:lvgl/src/extra/libs/png/lodepng.c ****   unsigned extra_length = (unsigned)(length - LENGTHBASE[length_code]);
1476:lvgl/src/extra/libs/png/lodepng.c ****   unsigned dist_code = (unsigned)searchCodeIndex(DISTANCEBASE, 30, distance);
1477:lvgl/src/extra/libs/png/lodepng.c ****   unsigned extra_distance = (unsigned)(distance - DISTANCEBASE[dist_code]);
1478:lvgl/src/extra/libs/png/lodepng.c **** 
1479:lvgl/src/extra/libs/png/lodepng.c ****   size_t pos = values->size;
1480:lvgl/src/extra/libs/png/lodepng.c ****   /*TODO: return error when this fails (out of memory)*/
1481:lvgl/src/extra/libs/png/lodepng.c ****   unsigned ok = uivector_resize(values, values->size + 4);
1482:lvgl/src/extra/libs/png/lodepng.c ****   if(ok) {
1483:lvgl/src/extra/libs/png/lodepng.c ****     values->data[pos + 0] = length_code + FIRST_LENGTH_CODE_INDEX;
1484:lvgl/src/extra/libs/png/lodepng.c ****     values->data[pos + 1] = extra_length;
1485:lvgl/src/extra/libs/png/lodepng.c ****     values->data[pos + 2] = dist_code;
1486:lvgl/src/extra/libs/png/lodepng.c ****     values->data[pos + 3] = extra_distance;
1487:lvgl/src/extra/libs/png/lodepng.c ****   }
1488:lvgl/src/extra/libs/png/lodepng.c **** }
1489:lvgl/src/extra/libs/png/lodepng.c **** 
1490:lvgl/src/extra/libs/png/lodepng.c **** /*3 bytes of data get encoded into two bytes. The hash cannot use more than 3
1491:lvgl/src/extra/libs/png/lodepng.c **** bytes as input because 3 is the minimum match length for deflate*/
1492:lvgl/src/extra/libs/png/lodepng.c **** static const unsigned HASH_NUM_VALUES = 65536;
1493:lvgl/src/extra/libs/png/lodepng.c **** static const unsigned HASH_BIT_MASK = 65535; /*HASH_NUM_VALUES - 1, but C90 does not like that as i
1494:lvgl/src/extra/libs/png/lodepng.c **** 
1495:lvgl/src/extra/libs/png/lodepng.c **** typedef struct Hash {
1496:lvgl/src/extra/libs/png/lodepng.c ****   int* head; /*hash value to head circular pos - can be outdated if went around window*/
1497:lvgl/src/extra/libs/png/lodepng.c ****   /*circular pos to prev circular pos*/
1498:lvgl/src/extra/libs/png/lodepng.c ****   unsigned short* chain;
1499:lvgl/src/extra/libs/png/lodepng.c ****   int* val; /*circular pos to hash value*/
1500:lvgl/src/extra/libs/png/lodepng.c **** 
1501:lvgl/src/extra/libs/png/lodepng.c ****   /*TODO: do this not only for zeros but for any repeated byte. However for PNG
ARM GAS  C:\usertemp\cc6W5uFK.s 			page 63


1502:lvgl/src/extra/libs/png/lodepng.c ****   it's always going to be the zeros that dominate, so not important for PNG*/
1503:lvgl/src/extra/libs/png/lodepng.c ****   int* headz; /*similar to head, but for chainz*/
1504:lvgl/src/extra/libs/png/lodepng.c ****   unsigned short* chainz; /*those with same amount of zeros*/
1505:lvgl/src/extra/libs/png/lodepng.c ****   unsigned short* zeros; /*length of zeros streak, used as a second hash chain*/
1506:lvgl/src/extra/libs/png/lodepng.c **** } Hash;
1507:lvgl/src/extra/libs/png/lodepng.c **** 
1508:lvgl/src/extra/libs/png/lodepng.c **** static unsigned hash_init(Hash* hash, unsigned windowsize) {
1509:lvgl/src/extra/libs/png/lodepng.c ****   unsigned i;
1510:lvgl/src/extra/libs/png/lodepng.c ****   hash->head = (int*)lodepng_malloc(sizeof(int) * HASH_NUM_VALUES);
1511:lvgl/src/extra/libs/png/lodepng.c ****   hash->val = (int*)lodepng_malloc(sizeof(int) * windowsize);
1512:lvgl/src/extra/libs/png/lodepng.c ****   hash->chain = (unsigned short*)lodepng_malloc(sizeof(unsigned short) * windowsize);
1513:lvgl/src/extra/libs/png/lodepng.c **** 
1514:lvgl/src/extra/libs/png/lodepng.c ****   hash->zeros = (unsigned short*)lodepng_malloc(sizeof(unsigned short) * windowsize);
1515:lvgl/src/extra/libs/png/lodepng.c ****   hash->headz = (int*)lodepng_malloc(sizeof(int) * (MAX_SUPPORTED_DEFLATE_LENGTH + 1));
1516:lvgl/src/extra/libs/png/lodepng.c ****   hash->chainz = (unsigned short*)lodepng_malloc(sizeof(unsigned short) * windowsize);
1517:lvgl/src/extra/libs/png/lodepng.c **** 
1518:lvgl/src/extra/libs/png/lodepng.c ****   if(!hash->head || !hash->chain || !hash->val  || !hash->headz|| !hash->chainz || !hash->zeros) {
1519:lvgl/src/extra/libs/png/lodepng.c ****     return 83; /*alloc fail*/
1520:lvgl/src/extra/libs/png/lodepng.c ****   }
1521:lvgl/src/extra/libs/png/lodepng.c **** 
1522:lvgl/src/extra/libs/png/lodepng.c ****   /*initialize hash table*/
1523:lvgl/src/extra/libs/png/lodepng.c ****   for(i = 0; i != HASH_NUM_VALUES; ++i) hash->head[i] = -1;
1524:lvgl/src/extra/libs/png/lodepng.c ****   for(i = 0; i != windowsize; ++i) hash->val[i] = -1;
1525:lvgl/src/extra/libs/png/lodepng.c ****   for(i = 0; i != windowsize; ++i) hash->chain[i] = i; /*same value as index indicates uninitialize
1526:lvgl/src/extra/libs/png/lodepng.c **** 
1527:lvgl/src/extra/libs/png/lodepng.c ****   for(i = 0; i <= MAX_SUPPORTED_DEFLATE_LENGTH; ++i) hash->headz[i] = -1;
1528:lvgl/src/extra/libs/png/lodepng.c ****   for(i = 0; i != windowsize; ++i) hash->chainz[i] = i; /*same value as index indicates uninitializ
1529:lvgl/src/extra/libs/png/lodepng.c **** 
1530:lvgl/src/extra/libs/png/lodepng.c ****   return 0;
1531:lvgl/src/extra/libs/png/lodepng.c **** }
1532:lvgl/src/extra/libs/png/lodepng.c **** 
1533:lvgl/src/extra/libs/png/lodepng.c **** static void hash_cleanup(Hash* hash) {
1534:lvgl/src/extra/libs/png/lodepng.c ****   lodepng_free(hash->head);
1535:lvgl/src/extra/libs/png/lodepng.c ****   lodepng_free(hash->val);
1536:lvgl/src/extra/libs/png/lodepng.c ****   lodepng_free(hash->chain);
1537:lvgl/src/extra/libs/png/lodepng.c **** 
1538:lvgl/src/extra/libs/png/lodepng.c ****   lodepng_free(hash->zeros);
1539:lvgl/src/extra/libs/png/lodepng.c ****   lodepng_free(hash->headz);
1540:lvgl/src/extra/libs/png/lodepng.c ****   lodepng_free(hash->chainz);
1541:lvgl/src/extra/libs/png/lodepng.c **** }
1542:lvgl/src/extra/libs/png/lodepng.c **** 
1543:lvgl/src/extra/libs/png/lodepng.c **** 
1544:lvgl/src/extra/libs/png/lodepng.c **** 
1545:lvgl/src/extra/libs/png/lodepng.c **** static unsigned getHash(const unsigned char* data, size_t size, size_t pos) {
 1871              		.loc 1 1545 77 is_stmt 1 view -0
 1872              		.cfi_startproc
 1873              		@ args = 0, pretend = 0, frame = 0
 1874              		@ frame_needed = 0, uses_anonymous_args = 0
1546:lvgl/src/extra/libs/png/lodepng.c ****   unsigned result = 0;
 1875              		.loc 1 1546 3 view .LVU585
1547:lvgl/src/extra/libs/png/lodepng.c ****   if(pos + 2 < size) {
 1876              		.loc 1 1547 3 view .LVU586
 1877              		.loc 1 1547 10 is_stmt 0 view .LVU587
 1878 0000 931C     		adds	r3, r2, #2
 1879              		.loc 1 1547 5 view .LVU588
 1880 0002 8B42     		cmp	r3, r1
 1881 0004 0BD2     		bcs	.L102
ARM GAS  C:\usertemp\cc6W5uFK.s 			page 64


1548:lvgl/src/extra/libs/png/lodepng.c ****     /*A simple shift and xor hash is used. Since the data of PNGs is dominated
1549:lvgl/src/extra/libs/png/lodepng.c ****     by zeroes due to the filters, a better hash does not have a significant
1550:lvgl/src/extra/libs/png/lodepng.c ****     effect on speed in traversing the chain, and causes more time spend on
1551:lvgl/src/extra/libs/png/lodepng.c ****     calculating the hash.*/
1552:lvgl/src/extra/libs/png/lodepng.c ****     result ^= ((unsigned)data[pos + 0] << 0u);
 1882              		.loc 1 1552 5 is_stmt 1 view .LVU589
 1883              		.loc 1 1552 30 is_stmt 0 view .LVU590
 1884 0006 10F802C0 		ldrb	ip, [r0, r2]	@ zero_extendqisi2
 1885              	.LVL163:
1553:lvgl/src/extra/libs/png/lodepng.c ****     result ^= ((unsigned)data[pos + 1] << 4u);
 1886              		.loc 1 1553 5 is_stmt 1 view .LVU591
 1887              		.loc 1 1553 30 is_stmt 0 view .LVU592
 1888 000a 0244     		add	r2, r2, r0
 1889              	.LVL164:
 1890              		.loc 1 1553 30 view .LVU593
 1891 000c 5278     		ldrb	r2, [r2, #1]	@ zero_extendqisi2
 1892              		.loc 1 1553 12 view .LVU594
 1893 000e 8CEA021C 		eor	ip, ip, r2, lsl #4
 1894              	.LVL165:
1554:lvgl/src/extra/libs/png/lodepng.c ****     result ^= ((unsigned)data[pos + 2] << 8u);
 1895              		.loc 1 1554 5 is_stmt 1 view .LVU595
 1896              		.loc 1 1554 30 is_stmt 0 view .LVU596
 1897 0012 C35C     		ldrb	r3, [r0, r3]	@ zero_extendqisi2
 1898              	.LVL166:
 1899              		.loc 1 1554 12 view .LVU597
 1900 0014 8CEA032C 		eor	ip, ip, r3, lsl #8
 1901              	.LVL167:
 1902              	.L109:
1555:lvgl/src/extra/libs/png/lodepng.c ****   } else {
1556:lvgl/src/extra/libs/png/lodepng.c ****     size_t amount, i;
1557:lvgl/src/extra/libs/png/lodepng.c ****     if(pos >= size) return 0;
1558:lvgl/src/extra/libs/png/lodepng.c ****     amount = size - pos;
1559:lvgl/src/extra/libs/png/lodepng.c ****     for(i = 0; i != amount; ++i) result ^= ((unsigned)data[pos + i] << (i * 8u));
1560:lvgl/src/extra/libs/png/lodepng.c ****   }
1561:lvgl/src/extra/libs/png/lodepng.c ****   return result & HASH_BIT_MASK;
 1903              		.loc 1 1561 3 is_stmt 1 view .LVU598
 1904              		.loc 1 1561 17 is_stmt 0 view .LVU599
 1905 0018 1FFA8CF0 		uxth	r0, ip
 1906              	.LVL168:
1562:lvgl/src/extra/libs/png/lodepng.c **** }
 1907              		.loc 1 1562 1 view .LVU600
 1908 001c 7047     		bx	lr
 1909              	.LVL169:
 1910              	.L102:
 1911              	.LBB9:
1556:lvgl/src/extra/libs/png/lodepng.c ****     if(pos >= size) return 0;
 1912              		.loc 1 1556 5 is_stmt 1 view .LVU601
1557:lvgl/src/extra/libs/png/lodepng.c ****     amount = size - pos;
 1913              		.loc 1 1557 5 view .LVU602
1557:lvgl/src/extra/libs/png/lodepng.c ****     amount = size - pos;
 1914              		.loc 1 1557 7 is_stmt 0 view .LVU603
 1915 001e 8A42     		cmp	r2, r1
 1916 0020 13D2     		bcs	.L107
1558:lvgl/src/extra/libs/png/lodepng.c ****     for(i = 0; i != amount; ++i) result ^= ((unsigned)data[pos + i] << (i * 8u));
 1917              		.loc 1 1558 5 is_stmt 1 view .LVU604
1558:lvgl/src/extra/libs/png/lodepng.c ****     for(i = 0; i != amount; ++i) result ^= ((unsigned)data[pos + i] << (i * 8u));
 1918              		.loc 1 1558 12 is_stmt 0 view .LVU605
ARM GAS  C:\usertemp\cc6W5uFK.s 			page 65


 1919 0022 891A     		subs	r1, r1, r2
 1920              	.LVL170:
1559:lvgl/src/extra/libs/png/lodepng.c ****   }
 1921              		.loc 1 1559 5 is_stmt 1 view .LVU606
1559:lvgl/src/extra/libs/png/lodepng.c ****   }
 1922              		.loc 1 1559 11 is_stmt 0 view .LVU607
 1923 0024 0023     		movs	r3, #0
 1924              	.LBE9:
1546:lvgl/src/extra/libs/png/lodepng.c ****   if(pos + 2 < size) {
 1925              		.loc 1 1546 12 view .LVU608
 1926 0026 9C46     		mov	ip, r3
 1927              	.LVL171:
 1928              	.LBB10:
1559:lvgl/src/extra/libs/png/lodepng.c ****   }
 1929              		.loc 1 1559 18 is_stmt 1 discriminator 1 view .LVU609
 1930 0028 8B42     		cmp	r3, r1
 1931 002a F5D0     		beq	.L109
 1932              	.LBE10:
1545:lvgl/src/extra/libs/png/lodepng.c ****   unsigned result = 0;
 1933              		.loc 1 1545 77 is_stmt 0 view .LVU610
 1934 002c 10B5     		push	{r4, lr}
 1935              	.LCFI24:
 1936              		.cfi_def_cfa_offset 8
 1937              		.cfi_offset 4, -8
 1938              		.cfi_offset 14, -4
 1939              	.LVL172:
 1940              	.L106:
 1941              	.LBB11:
1559:lvgl/src/extra/libs/png/lodepng.c ****   }
 1942              		.loc 1 1559 34 is_stmt 1 discriminator 3 view .LVU611
1559:lvgl/src/extra/libs/png/lodepng.c ****   }
 1943              		.loc 1 1559 64 is_stmt 0 discriminator 3 view .LVU612
 1944 002e 9C18     		adds	r4, r3, r2
1559:lvgl/src/extra/libs/png/lodepng.c ****   }
 1945              		.loc 1 1559 59 discriminator 3 view .LVU613
 1946 0030 10F804E0 		ldrb	lr, [r0, r4]	@ zero_extendqisi2
1559:lvgl/src/extra/libs/png/lodepng.c ****   }
 1947              		.loc 1 1559 75 discriminator 3 view .LVU614
 1948 0034 DC00     		lsls	r4, r3, #3
1559:lvgl/src/extra/libs/png/lodepng.c ****   }
 1949              		.loc 1 1559 69 discriminator 3 view .LVU615
 1950 0036 0EFA04FE 		lsl	lr, lr, r4
1559:lvgl/src/extra/libs/png/lodepng.c ****   }
 1951              		.loc 1 1559 41 discriminator 3 view .LVU616
 1952 003a 8CEA0E0C 		eor	ip, ip, lr
 1953              	.LVL173:
1559:lvgl/src/extra/libs/png/lodepng.c ****   }
 1954              		.loc 1 1559 29 is_stmt 1 discriminator 3 view .LVU617
 1955 003e 0133     		adds	r3, r3, #1
 1956              	.LVL174:
1559:lvgl/src/extra/libs/png/lodepng.c ****   }
 1957              		.loc 1 1559 18 discriminator 1 view .LVU618
 1958 0040 8B42     		cmp	r3, r1
 1959 0042 F4D1     		bne	.L106
1559:lvgl/src/extra/libs/png/lodepng.c ****   }
 1960              		.loc 1 1559 18 is_stmt 0 discriminator 1 view .LVU619
 1961              	.LBE11:
ARM GAS  C:\usertemp\cc6W5uFK.s 			page 66


1561:lvgl/src/extra/libs/png/lodepng.c **** }
 1962              		.loc 1 1561 3 is_stmt 1 view .LVU620
1561:lvgl/src/extra/libs/png/lodepng.c **** }
 1963              		.loc 1 1561 17 is_stmt 0 view .LVU621
 1964 0044 1FFA8CF0 		uxth	r0, ip
 1965              	.LVL175:
 1966              		.loc 1 1562 1 view .LVU622
 1967 0048 10BD     		pop	{r4, pc}
 1968              	.LVL176:
 1969              	.L107:
 1970              	.LCFI25:
 1971              		.cfi_def_cfa_offset 0
 1972              		.cfi_restore 4
 1973              		.cfi_restore 14
 1974              	.LBB12:
1557:lvgl/src/extra/libs/png/lodepng.c ****     amount = size - pos;
 1975              		.loc 1 1557 28 discriminator 1 view .LVU623
 1976 004a 0020     		movs	r0, #0
 1977              	.LVL177:
1557:lvgl/src/extra/libs/png/lodepng.c ****     amount = size - pos;
 1978              		.loc 1 1557 28 discriminator 1 view .LVU624
 1979 004c 7047     		bx	lr
 1980              	.LBE12:
 1981              		.cfi_endproc
 1982              	.LFE256:
 1984              		.section	.text.countZeros,"ax",%progbits
 1985              		.align	1
 1986              		.syntax unified
 1987              		.thumb
 1988              		.thumb_func
 1990              	countZeros:
 1991              	.LVL178:
 1992              	.LFB257:
1563:lvgl/src/extra/libs/png/lodepng.c **** 
1564:lvgl/src/extra/libs/png/lodepng.c **** static unsigned countZeros(const unsigned char* data, size_t size, size_t pos) {
 1993              		.loc 1 1564 80 is_stmt 1 view -0
 1994              		.cfi_startproc
 1995              		@ args = 0, pretend = 0, frame = 0
 1996              		@ frame_needed = 0, uses_anonymous_args = 0
 1997              		@ link register save eliminated.
1565:lvgl/src/extra/libs/png/lodepng.c ****   const unsigned char* start = data + pos;
 1998              		.loc 1 1565 3 view .LVU626
 1999              		.loc 1 1565 24 is_stmt 0 view .LVU627
 2000 0000 0244     		add	r2, r2, r0
 2001              	.LVL179:
1566:lvgl/src/extra/libs/png/lodepng.c ****   const unsigned char* end = start + MAX_SUPPORTED_DEFLATE_LENGTH;
 2002              		.loc 1 1566 3 is_stmt 1 view .LVU628
 2003              		.loc 1 1566 24 is_stmt 0 view .LVU629
 2004 0002 02F58173 		add	r3, r2, #258
 2005              	.LVL180:
1567:lvgl/src/extra/libs/png/lodepng.c ****   if(end > data + size) end = data + size;
 2006              		.loc 1 1567 3 is_stmt 1 view .LVU630
 2007              		.loc 1 1567 17 is_stmt 0 view .LVU631
 2008 0006 00EB010C 		add	ip, r0, r1
 2009              		.loc 1 1567 5 view .LVU632
 2010 000a 9C45     		cmp	ip, r3
 2011 000c 00D3     		bcc	.L115
ARM GAS  C:\usertemp\cc6W5uFK.s 			page 67


1566:lvgl/src/extra/libs/png/lodepng.c ****   const unsigned char* end = start + MAX_SUPPORTED_DEFLATE_LENGTH;
 2012              		.loc 1 1566 24 view .LVU633
 2013 000e 9C46     		mov	ip, r3
 2014              	.L115:
 2015              	.LVL181:
1568:lvgl/src/extra/libs/png/lodepng.c ****   data = start;
 2016              		.loc 1 1568 3 is_stmt 1 view .LVU634
1569:lvgl/src/extra/libs/png/lodepng.c ****   while(data != end && *data == 0) ++data;
 2017              		.loc 1 1569 3 view .LVU635
1568:lvgl/src/extra/libs/png/lodepng.c ****   data = start;
 2018              		.loc 1 1568 8 is_stmt 0 view .LVU636
 2019 0010 1046     		mov	r0, r2
 2020              		.loc 1 1569 8 view .LVU637
 2021 0012 00E0     		b	.L116
 2022              	.LVL182:
 2023              	.L118:
 2024              		.loc 1 1569 36 is_stmt 1 discriminator 3 view .LVU638
 2025 0014 0130     		adds	r0, r0, #1
 2026              	.LVL183:
 2027              	.L116:
 2028              		.loc 1 1569 21 discriminator 1 view .LVU639
 2029 0016 6045     		cmp	r0, ip
 2030 0018 02D0     		beq	.L117
 2031              		.loc 1 1569 24 is_stmt 0 discriminator 2 view .LVU640
 2032 001a 0178     		ldrb	r1, [r0]	@ zero_extendqisi2
 2033              		.loc 1 1569 21 discriminator 2 view .LVU641
 2034 001c 0029     		cmp	r1, #0
 2035 001e F9D0     		beq	.L118
 2036              	.L117:
1570:lvgl/src/extra/libs/png/lodepng.c ****   /*subtracting two addresses returned as 32-bit number (max value is MAX_SUPPORTED_DEFLATE_LENGTH)
1571:lvgl/src/extra/libs/png/lodepng.c ****   return (unsigned)(data - start);
 2037              		.loc 1 1571 3 is_stmt 1 view .LVU642
1572:lvgl/src/extra/libs/png/lodepng.c **** }
 2038              		.loc 1 1572 1 is_stmt 0 view .LVU643
 2039 0020 801A     		subs	r0, r0, r2
 2040              	.LVL184:
 2041              		.loc 1 1572 1 view .LVU644
 2042 0022 7047     		bx	lr
 2043              		.cfi_endproc
 2044              	.LFE257:
 2046              		.section	.text.updateHashChain,"ax",%progbits
 2047              		.align	1
 2048              		.syntax unified
 2049              		.thumb
 2050              		.thumb_func
 2052              	updateHashChain:
 2053              	.LVL185:
 2054              	.LFB258:
1573:lvgl/src/extra/libs/png/lodepng.c **** 
1574:lvgl/src/extra/libs/png/lodepng.c **** /*wpos = pos & (windowsize - 1)*/
1575:lvgl/src/extra/libs/png/lodepng.c **** static void updateHashChain(Hash* hash, size_t wpos, unsigned hashval, unsigned short numzeros) {
 2055              		.loc 1 1575 97 is_stmt 1 view -0
 2056              		.cfi_startproc
 2057              		@ args = 0, pretend = 0, frame = 0
 2058              		@ frame_needed = 0, uses_anonymous_args = 0
 2059              		@ link register save eliminated.
 2060              		.loc 1 1575 97 is_stmt 0 view .LVU646
ARM GAS  C:\usertemp\cc6W5uFK.s 			page 68


 2061 0000 30B4     		push	{r4, r5}
 2062              	.LCFI26:
 2063              		.cfi_def_cfa_offset 8
 2064              		.cfi_offset 4, -8
 2065              		.cfi_offset 5, -4
1576:lvgl/src/extra/libs/png/lodepng.c ****   hash->val[wpos] = (int)hashval;
 2066              		.loc 1 1576 3 is_stmt 1 view .LVU647
 2067              		.loc 1 1576 7 is_stmt 0 view .LVU648
 2068 0002 8468     		ldr	r4, [r0, #8]
 2069              		.loc 1 1576 19 view .LVU649
 2070 0004 44F82120 		str	r2, [r4, r1, lsl #2]
1577:lvgl/src/extra/libs/png/lodepng.c ****   if(hash->head[hashval] != -1) hash->chain[wpos] = hash->head[hashval];
 2071              		.loc 1 1577 3 is_stmt 1 view .LVU650
 2072              		.loc 1 1577 10 is_stmt 0 view .LVU651
 2073 0008 0468     		ldr	r4, [r0]
 2074              		.loc 1 1577 16 view .LVU652
 2075 000a 54F82240 		ldr	r4, [r4, r2, lsl #2]
 2076              		.loc 1 1577 5 view .LVU653
 2077 000e B4F1FF3F 		cmp	r4, #-1
 2078 0012 02D0     		beq	.L120
 2079              		.loc 1 1577 33 is_stmt 1 discriminator 1 view .LVU654
 2080              		.loc 1 1577 51 is_stmt 0 discriminator 1 view .LVU655
 2081 0014 4568     		ldr	r5, [r0, #4]
 2082 0016 25F81140 		strh	r4, [r5, r1, lsl #1]	@ movhi
 2083              	.L120:
1578:lvgl/src/extra/libs/png/lodepng.c ****   hash->head[hashval] = (int)wpos;
 2084              		.loc 1 1578 3 is_stmt 1 view .LVU656
 2085              		.loc 1 1578 7 is_stmt 0 view .LVU657
 2086 001a 0468     		ldr	r4, [r0]
 2087              		.loc 1 1578 23 view .LVU658
 2088 001c 44F82210 		str	r1, [r4, r2, lsl #2]
1579:lvgl/src/extra/libs/png/lodepng.c **** 
1580:lvgl/src/extra/libs/png/lodepng.c ****   hash->zeros[wpos] = numzeros;
 2089              		.loc 1 1580 3 is_stmt 1 view .LVU659
 2090              		.loc 1 1580 7 is_stmt 0 view .LVU660
 2091 0020 4269     		ldr	r2, [r0, #20]
 2092              	.LVL186:
 2093              		.loc 1 1580 21 view .LVU661
 2094 0022 22F81130 		strh	r3, [r2, r1, lsl #1]	@ movhi
1581:lvgl/src/extra/libs/png/lodepng.c ****   if(hash->headz[numzeros] != -1) hash->chainz[wpos] = hash->headz[numzeros];
 2095              		.loc 1 1581 3 is_stmt 1 view .LVU662
 2096              		.loc 1 1581 10 is_stmt 0 view .LVU663
 2097 0026 C268     		ldr	r2, [r0, #12]
 2098              		.loc 1 1581 17 view .LVU664
 2099 0028 52F82320 		ldr	r2, [r2, r3, lsl #2]
 2100              		.loc 1 1581 5 view .LVU665
 2101 002c B2F1FF3F 		cmp	r2, #-1
 2102 0030 02D0     		beq	.L121
 2103              		.loc 1 1581 35 is_stmt 1 discriminator 1 view .LVU666
 2104              		.loc 1 1581 39 is_stmt 0 discriminator 1 view .LVU667
 2105 0032 0469     		ldr	r4, [r0, #16]
 2106              		.loc 1 1581 54 discriminator 1 view .LVU668
 2107 0034 24F81120 		strh	r2, [r4, r1, lsl #1]	@ movhi
 2108              	.L121:
1582:lvgl/src/extra/libs/png/lodepng.c ****   hash->headz[numzeros] = (int)wpos;
 2109              		.loc 1 1582 3 is_stmt 1 view .LVU669
 2110              		.loc 1 1582 7 is_stmt 0 view .LVU670
ARM GAS  C:\usertemp\cc6W5uFK.s 			page 69


 2111 0038 C268     		ldr	r2, [r0, #12]
 2112              		.loc 1 1582 25 view .LVU671
 2113 003a 42F82310 		str	r1, [r2, r3, lsl #2]
1583:lvgl/src/extra/libs/png/lodepng.c **** }
 2114              		.loc 1 1583 1 view .LVU672
 2115 003e 30BC     		pop	{r4, r5}
 2116              	.LCFI27:
 2117              		.cfi_restore 5
 2118              		.cfi_restore 4
 2119              		.cfi_def_cfa_offset 0
 2120 0040 7047     		bx	lr
 2121              		.cfi_endproc
 2122              	.LFE258:
 2124              		.section	.text.update_adler32,"ax",%progbits
 2125              		.align	1
 2126              		.syntax unified
 2127              		.thumb
 2128              		.thumb_func
 2130              	update_adler32:
 2131              	.LVL187:
 2132              	.LFB267:
1584:lvgl/src/extra/libs/png/lodepng.c **** 
1585:lvgl/src/extra/libs/png/lodepng.c **** /*
1586:lvgl/src/extra/libs/png/lodepng.c **** LZ77-encode the data. Return value is error code. The input are raw bytes, the output
1587:lvgl/src/extra/libs/png/lodepng.c **** is in the form of unsigned integers with codes representing for example literal bytes, or
1588:lvgl/src/extra/libs/png/lodepng.c **** length/distance pairs.
1589:lvgl/src/extra/libs/png/lodepng.c **** It uses a hash table technique to let it encode faster. When doing LZ77 encoding, a
1590:lvgl/src/extra/libs/png/lodepng.c **** sliding window (of windowsize) is used, and all past bytes in that window can be used as
1591:lvgl/src/extra/libs/png/lodepng.c **** the "dictionary". A brute force search through all possible distances would be slow, and
1592:lvgl/src/extra/libs/png/lodepng.c **** this hash technique is one out of several ways to speed this up.
1593:lvgl/src/extra/libs/png/lodepng.c **** */
1594:lvgl/src/extra/libs/png/lodepng.c **** static unsigned encodeLZ77(uivector* out, Hash* hash,
1595:lvgl/src/extra/libs/png/lodepng.c ****                            const unsigned char* in, size_t inpos, size_t insize, unsigned windowsiz
1596:lvgl/src/extra/libs/png/lodepng.c ****                            unsigned minmatch, unsigned nicematch, unsigned lazymatching) {
1597:lvgl/src/extra/libs/png/lodepng.c ****   size_t pos;
1598:lvgl/src/extra/libs/png/lodepng.c ****   unsigned i, error = 0;
1599:lvgl/src/extra/libs/png/lodepng.c ****   /*for large window lengths, assume the user wants no compression loss. Otherwise, max hash chain 
1600:lvgl/src/extra/libs/png/lodepng.c ****   unsigned maxchainlength = windowsize >= 8192 ? windowsize : windowsize / 8u;
1601:lvgl/src/extra/libs/png/lodepng.c ****   unsigned maxlazymatch = windowsize >= 8192 ? MAX_SUPPORTED_DEFLATE_LENGTH : 64;
1602:lvgl/src/extra/libs/png/lodepng.c **** 
1603:lvgl/src/extra/libs/png/lodepng.c ****   unsigned usezeros = 1; /*not sure if setting it to false for windowsize < 8192 is better or worse
1604:lvgl/src/extra/libs/png/lodepng.c ****   unsigned numzeros = 0;
1605:lvgl/src/extra/libs/png/lodepng.c **** 
1606:lvgl/src/extra/libs/png/lodepng.c ****   unsigned offset; /*the offset represents the distance in LZ77 terminology*/
1607:lvgl/src/extra/libs/png/lodepng.c ****   unsigned length;
1608:lvgl/src/extra/libs/png/lodepng.c ****   unsigned lazy = 0;
1609:lvgl/src/extra/libs/png/lodepng.c ****   unsigned lazylength = 0, lazyoffset = 0;
1610:lvgl/src/extra/libs/png/lodepng.c ****   unsigned hashval;
1611:lvgl/src/extra/libs/png/lodepng.c ****   unsigned current_offset, current_length;
1612:lvgl/src/extra/libs/png/lodepng.c ****   unsigned prev_offset;
1613:lvgl/src/extra/libs/png/lodepng.c ****   const unsigned char *lastptr, *foreptr, *backptr;
1614:lvgl/src/extra/libs/png/lodepng.c ****   unsigned hashpos;
1615:lvgl/src/extra/libs/png/lodepng.c **** 
1616:lvgl/src/extra/libs/png/lodepng.c ****   if(windowsize == 0 || windowsize > 32768) return 60; /*error: windowsize smaller/larger than allo
1617:lvgl/src/extra/libs/png/lodepng.c ****   if((windowsize & (windowsize - 1)) != 0) return 90; /*error: must be power of two*/
1618:lvgl/src/extra/libs/png/lodepng.c **** 
1619:lvgl/src/extra/libs/png/lodepng.c ****   if(nicematch > MAX_SUPPORTED_DEFLATE_LENGTH) nicematch = MAX_SUPPORTED_DEFLATE_LENGTH;
ARM GAS  C:\usertemp\cc6W5uFK.s 			page 70


1620:lvgl/src/extra/libs/png/lodepng.c **** 
1621:lvgl/src/extra/libs/png/lodepng.c ****   for(pos = inpos; pos < insize; ++pos) {
1622:lvgl/src/extra/libs/png/lodepng.c ****     size_t wpos = pos & (windowsize - 1); /*position for in 'circular' hash buffers*/
1623:lvgl/src/extra/libs/png/lodepng.c ****     unsigned chainlength = 0;
1624:lvgl/src/extra/libs/png/lodepng.c **** 
1625:lvgl/src/extra/libs/png/lodepng.c ****     hashval = getHash(in, insize, pos);
1626:lvgl/src/extra/libs/png/lodepng.c **** 
1627:lvgl/src/extra/libs/png/lodepng.c ****     if(usezeros && hashval == 0) {
1628:lvgl/src/extra/libs/png/lodepng.c ****       if(numzeros == 0) numzeros = countZeros(in, insize, pos);
1629:lvgl/src/extra/libs/png/lodepng.c ****       else if(pos + numzeros > insize || in[pos + numzeros - 1] != 0) --numzeros;
1630:lvgl/src/extra/libs/png/lodepng.c ****     } else {
1631:lvgl/src/extra/libs/png/lodepng.c ****       numzeros = 0;
1632:lvgl/src/extra/libs/png/lodepng.c ****     }
1633:lvgl/src/extra/libs/png/lodepng.c **** 
1634:lvgl/src/extra/libs/png/lodepng.c ****     updateHashChain(hash, wpos, hashval, numzeros);
1635:lvgl/src/extra/libs/png/lodepng.c **** 
1636:lvgl/src/extra/libs/png/lodepng.c ****     /*the length and offset found for the current position*/
1637:lvgl/src/extra/libs/png/lodepng.c ****     length = 0;
1638:lvgl/src/extra/libs/png/lodepng.c ****     offset = 0;
1639:lvgl/src/extra/libs/png/lodepng.c **** 
1640:lvgl/src/extra/libs/png/lodepng.c ****     hashpos = hash->chain[wpos];
1641:lvgl/src/extra/libs/png/lodepng.c **** 
1642:lvgl/src/extra/libs/png/lodepng.c ****     lastptr = &in[insize < pos + MAX_SUPPORTED_DEFLATE_LENGTH ? insize : pos + MAX_SUPPORTED_DEFLAT
