ARM GAS  C:\usertemp\cccAcFiV.s 			page 1


   1              		.cpu cortex-m7
   2              		.arch armv7e-m
   3              		.fpu fpv5-d16
   4              		.eabi_attribute 28, 1
   5              		.eabi_attribute 20, 1
   6              		.eabi_attribute 21, 1
   7              		.eabi_attribute 23, 3
   8              		.eabi_attribute 24, 1
   9              		.eabi_attribute 25, 1
  10              		.eabi_attribute 26, 1
  11              		.eabi_attribute 30, 1
  12              		.eabi_attribute 34, 1
  13              		.eabi_attribute 18, 4
  14              		.file	"lv_async.c"
  15              		.text
  16              	.Ltext0:
  17              		.cfi_sections	.debug_frame
  18              		.file 1 "lvgl/src/misc/lv_async.c"
  19              		.section	.text.lv_async_timer_cb,"ax",%progbits
  20              		.align	1
  21              		.syntax unified
  22              		.thumb
  23              		.thumb_func
  25              	lv_async_timer_cb:
  26              	.LVL0:
  27              	.LFB2:
   1:lvgl/src/misc/lv_async.c **** /**
   2:lvgl/src/misc/lv_async.c ****  * @file lv_async.c
   3:lvgl/src/misc/lv_async.c ****  *
   4:lvgl/src/misc/lv_async.c ****  */
   5:lvgl/src/misc/lv_async.c **** 
   6:lvgl/src/misc/lv_async.c **** /*********************
   7:lvgl/src/misc/lv_async.c ****  *      INCLUDES
   8:lvgl/src/misc/lv_async.c ****  *********************/
   9:lvgl/src/misc/lv_async.c **** 
  10:lvgl/src/misc/lv_async.c **** #include "lv_async.h"
  11:lvgl/src/misc/lv_async.c **** #include "lv_mem.h"
  12:lvgl/src/misc/lv_async.c **** #include "lv_timer.h"
  13:lvgl/src/misc/lv_async.c **** 
  14:lvgl/src/misc/lv_async.c **** /*********************
  15:lvgl/src/misc/lv_async.c ****  *      DEFINES
  16:lvgl/src/misc/lv_async.c ****  *********************/
  17:lvgl/src/misc/lv_async.c **** 
  18:lvgl/src/misc/lv_async.c **** /**********************
  19:lvgl/src/misc/lv_async.c ****  *      TYPEDEFS
  20:lvgl/src/misc/lv_async.c ****  **********************/
  21:lvgl/src/misc/lv_async.c **** 
  22:lvgl/src/misc/lv_async.c **** typedef struct _lv_async_info_t {
  23:lvgl/src/misc/lv_async.c ****     lv_async_cb_t cb;
  24:lvgl/src/misc/lv_async.c ****     void * user_data;
  25:lvgl/src/misc/lv_async.c **** } lv_async_info_t;
  26:lvgl/src/misc/lv_async.c **** 
  27:lvgl/src/misc/lv_async.c **** /**********************
  28:lvgl/src/misc/lv_async.c ****  *  STATIC PROTOTYPES
  29:lvgl/src/misc/lv_async.c ****  **********************/
  30:lvgl/src/misc/lv_async.c **** 
  31:lvgl/src/misc/lv_async.c **** static void lv_async_timer_cb(lv_timer_t * timer);
ARM GAS  C:\usertemp\cccAcFiV.s 			page 2


  32:lvgl/src/misc/lv_async.c **** 
  33:lvgl/src/misc/lv_async.c **** /**********************
  34:lvgl/src/misc/lv_async.c ****  *  STATIC VARIABLES
  35:lvgl/src/misc/lv_async.c ****  **********************/
  36:lvgl/src/misc/lv_async.c **** 
  37:lvgl/src/misc/lv_async.c **** /**********************
  38:lvgl/src/misc/lv_async.c ****  *      MACROS
  39:lvgl/src/misc/lv_async.c ****  **********************/
  40:lvgl/src/misc/lv_async.c **** 
  41:lvgl/src/misc/lv_async.c **** /**********************
  42:lvgl/src/misc/lv_async.c ****  *   GLOBAL FUNCTIONS
  43:lvgl/src/misc/lv_async.c ****  **********************/
  44:lvgl/src/misc/lv_async.c **** 
  45:lvgl/src/misc/lv_async.c **** lv_res_t lv_async_call(lv_async_cb_t async_xcb, void * user_data)
  46:lvgl/src/misc/lv_async.c **** {
  47:lvgl/src/misc/lv_async.c ****     /*Allocate an info structure*/
  48:lvgl/src/misc/lv_async.c ****     lv_async_info_t * info = lv_mem_alloc(sizeof(lv_async_info_t));
  49:lvgl/src/misc/lv_async.c **** 
  50:lvgl/src/misc/lv_async.c ****     if(info == NULL)
  51:lvgl/src/misc/lv_async.c ****         return LV_RES_INV;
  52:lvgl/src/misc/lv_async.c **** 
  53:lvgl/src/misc/lv_async.c ****     /*Create a new timer*/
  54:lvgl/src/misc/lv_async.c ****     lv_timer_t * timer = lv_timer_create(lv_async_timer_cb, 0, info);
  55:lvgl/src/misc/lv_async.c **** 
  56:lvgl/src/misc/lv_async.c ****     if(timer == NULL) {
  57:lvgl/src/misc/lv_async.c ****         lv_mem_free(info);
  58:lvgl/src/misc/lv_async.c ****         return LV_RES_INV;
  59:lvgl/src/misc/lv_async.c ****     }
  60:lvgl/src/misc/lv_async.c **** 
  61:lvgl/src/misc/lv_async.c ****     info->cb = async_xcb;
  62:lvgl/src/misc/lv_async.c ****     info->user_data = user_data;
  63:lvgl/src/misc/lv_async.c **** 
  64:lvgl/src/misc/lv_async.c ****     lv_timer_set_repeat_count(timer, 1);
  65:lvgl/src/misc/lv_async.c ****     return LV_RES_OK;
  66:lvgl/src/misc/lv_async.c **** }
  67:lvgl/src/misc/lv_async.c **** 
  68:lvgl/src/misc/lv_async.c **** /**********************
  69:lvgl/src/misc/lv_async.c ****  *   STATIC FUNCTIONS
  70:lvgl/src/misc/lv_async.c ****  **********************/
  71:lvgl/src/misc/lv_async.c **** 
  72:lvgl/src/misc/lv_async.c **** static void lv_async_timer_cb(lv_timer_t * timer)
  73:lvgl/src/misc/lv_async.c **** {
  28              		.loc 1 73 1 view -0
  29              		.cfi_startproc
  30              		@ args = 0, pretend = 0, frame = 0
  31              		@ frame_needed = 0, uses_anonymous_args = 0
  32              		.loc 1 73 1 is_stmt 0 view .LVU1
  33 0000 10B5     		push	{r4, lr}
  34              	.LCFI0:
  35              		.cfi_def_cfa_offset 8
  36              		.cfi_offset 4, -8
  37              		.cfi_offset 14, -4
  74:lvgl/src/misc/lv_async.c ****     lv_async_info_t * info = (lv_async_info_t *)timer->user_data;
  38              		.loc 1 74 5 is_stmt 1 view .LVU2
  39              		.loc 1 74 23 is_stmt 0 view .LVU3
  40 0002 C468     		ldr	r4, [r0, #12]
  41              	.LVL1:
ARM GAS  C:\usertemp\cccAcFiV.s 			page 3


  75:lvgl/src/misc/lv_async.c **** 
  76:lvgl/src/misc/lv_async.c ****     info->cb(info->user_data);
  42              		.loc 1 76 5 is_stmt 1 view .LVU4
  43              		.loc 1 76 9 is_stmt 0 view .LVU5
  44 0004 2368     		ldr	r3, [r4]
  45              		.loc 1 76 5 view .LVU6
  46 0006 6068     		ldr	r0, [r4, #4]
  47              	.LVL2:
  48              		.loc 1 76 5 view .LVU7
  49 0008 9847     		blx	r3
  50              	.LVL3:
  77:lvgl/src/misc/lv_async.c ****     lv_mem_free(info);
  51              		.loc 1 77 5 is_stmt 1 view .LVU8
  52 000a 2046     		mov	r0, r4
  53 000c FFF7FEFF 		bl	lv_mem_free
  54              	.LVL4:
  78:lvgl/src/misc/lv_async.c **** }
  55              		.loc 1 78 1 is_stmt 0 view .LVU9
  56 0010 10BD     		pop	{r4, pc}
  57              		.loc 1 78 1 view .LVU10
  58              		.cfi_endproc
  59              	.LFE2:
  61              		.section	.text.lv_async_call,"ax",%progbits
  62              		.align	1
  63              		.global	lv_async_call
  64              		.syntax unified
  65              		.thumb
  66              		.thumb_func
  68              	lv_async_call:
  69              	.LVL5:
  70              	.LFB1:
  46:lvgl/src/misc/lv_async.c ****     /*Allocate an info structure*/
  71              		.loc 1 46 1 is_stmt 1 view -0
  72              		.cfi_startproc
  73              		@ args = 0, pretend = 0, frame = 0
  74              		@ frame_needed = 0, uses_anonymous_args = 0
  46:lvgl/src/misc/lv_async.c ****     /*Allocate an info structure*/
  75              		.loc 1 46 1 is_stmt 0 view .LVU12
  76 0000 70B5     		push	{r4, r5, r6, lr}
  77              	.LCFI1:
  78              		.cfi_def_cfa_offset 16
  79              		.cfi_offset 4, -16
  80              		.cfi_offset 5, -12
  81              		.cfi_offset 6, -8
  82              		.cfi_offset 14, -4
  83 0002 0546     		mov	r5, r0
  84 0004 0C46     		mov	r4, r1
  48:lvgl/src/misc/lv_async.c **** 
  85              		.loc 1 48 5 is_stmt 1 view .LVU13
  48:lvgl/src/misc/lv_async.c **** 
  86              		.loc 1 48 30 is_stmt 0 view .LVU14
  87 0006 0820     		movs	r0, #8
  88              	.LVL6:
  48:lvgl/src/misc/lv_async.c **** 
  89              		.loc 1 48 30 view .LVU15
  90 0008 FFF7FEFF 		bl	lv_mem_alloc
  91              	.LVL7:
ARM GAS  C:\usertemp\cccAcFiV.s 			page 4


  50:lvgl/src/misc/lv_async.c ****         return LV_RES_INV;
  92              		.loc 1 50 5 is_stmt 1 view .LVU16
  50:lvgl/src/misc/lv_async.c ****         return LV_RES_INV;
  93              		.loc 1 50 7 is_stmt 0 view .LVU17
  94 000c 90B1     		cbz	r0, .L6
  95 000e 0646     		mov	r6, r0
  54:lvgl/src/misc/lv_async.c **** 
  96              		.loc 1 54 5 is_stmt 1 view .LVU18
  54:lvgl/src/misc/lv_async.c **** 
  97              		.loc 1 54 26 is_stmt 0 view .LVU19
  98 0010 0246     		mov	r2, r0
  99 0012 0021     		movs	r1, #0
 100 0014 0848     		ldr	r0, .L9
 101              	.LVL8:
  54:lvgl/src/misc/lv_async.c **** 
 102              		.loc 1 54 26 view .LVU20
 103 0016 FFF7FEFF 		bl	lv_timer_create
 104              	.LVL9:
  56:lvgl/src/misc/lv_async.c ****         lv_mem_free(info);
 105              		.loc 1 56 5 is_stmt 1 view .LVU21
  56:lvgl/src/misc/lv_async.c ****         lv_mem_free(info);
 106              		.loc 1 56 7 is_stmt 0 view .LVU22
 107 001a 30B1     		cbz	r0, .L8
  61:lvgl/src/misc/lv_async.c ****     info->user_data = user_data;
 108              		.loc 1 61 5 is_stmt 1 view .LVU23
  61:lvgl/src/misc/lv_async.c ****     info->user_data = user_data;
 109              		.loc 1 61 14 is_stmt 0 view .LVU24
 110 001c 3560     		str	r5, [r6]
  62:lvgl/src/misc/lv_async.c **** 
 111              		.loc 1 62 5 is_stmt 1 view .LVU25
  62:lvgl/src/misc/lv_async.c **** 
 112              		.loc 1 62 21 is_stmt 0 view .LVU26
 113 001e 7460     		str	r4, [r6, #4]
  64:lvgl/src/misc/lv_async.c ****     return LV_RES_OK;
 114              		.loc 1 64 5 is_stmt 1 view .LVU27
 115 0020 0121     		movs	r1, #1
 116 0022 FFF7FEFF 		bl	lv_timer_set_repeat_count
 117              	.LVL10:
  65:lvgl/src/misc/lv_async.c **** }
 118              		.loc 1 65 5 view .LVU28
  65:lvgl/src/misc/lv_async.c **** }
 119              		.loc 1 65 12 is_stmt 0 view .LVU29
 120 0026 0120     		movs	r0, #1
 121              	.LVL11:
 122              	.L4:
  66:lvgl/src/misc/lv_async.c **** 
 123              		.loc 1 66 1 view .LVU30
 124 0028 70BD     		pop	{r4, r5, r6, pc}
 125              	.LVL12:
 126              	.L8:
  57:lvgl/src/misc/lv_async.c ****         return LV_RES_INV;
 127              		.loc 1 57 9 is_stmt 1 view .LVU31
 128 002a 3046     		mov	r0, r6
 129              	.LVL13:
  57:lvgl/src/misc/lv_async.c ****         return LV_RES_INV;
 130              		.loc 1 57 9 is_stmt 0 view .LVU32
 131 002c FFF7FEFF 		bl	lv_mem_free
ARM GAS  C:\usertemp\cccAcFiV.s 			page 5


 132              	.LVL14:
  58:lvgl/src/misc/lv_async.c ****     }
 133              		.loc 1 58 9 is_stmt 1 view .LVU33
  58:lvgl/src/misc/lv_async.c ****     }
 134              		.loc 1 58 16 is_stmt 0 view .LVU34
 135 0030 0020     		movs	r0, #0
 136 0032 F9E7     		b	.L4
 137              	.LVL15:
 138              	.L6:
  51:lvgl/src/misc/lv_async.c **** 
 139              		.loc 1 51 16 view .LVU35
 140 0034 0020     		movs	r0, #0
 141              	.LVL16:
  51:lvgl/src/misc/lv_async.c **** 
 142              		.loc 1 51 16 view .LVU36
 143 0036 F7E7     		b	.L4
 144              	.L10:
 145              		.align	2
 146              	.L9:
 147 0038 00000000 		.word	lv_async_timer_cb
 148              		.cfi_endproc
 149              	.LFE1:
 151              		.text
 152              	.Letext0:
 153              		.file 2 "D:/armtoolchain/arm-gnu-toolchain-13.3.rel1-mingw-w64-i686-arm-none-eabi/arm-none-eabi/in
 154              		.file 3 "D:/armtoolchain/arm-gnu-toolchain-13.3.rel1-mingw-w64-i686-arm-none-eabi/arm-none-eabi/in
 155              		.file 4 "lvgl/src/misc/lv_types.h"
 156              		.file 5 "lvgl/src/misc/lv_async.h"
 157              		.file 6 "D:/armtoolchain/arm-gnu-toolchain-13.3.rel1-mingw-w64-i686-arm-none-eabi/lib/gcc/arm-none
 158              		.file 7 "lvgl/src/misc/lv_timer.h"
 159              		.file 8 "lvgl/src/misc/lv_mem.h"
ARM GAS  C:\usertemp\cccAcFiV.s 			page 6

