ARM GAS  C:\usertemp\ccuzpgLf.s 			page 1


   1              		.cpu cortex-m7
   2              		.arch armv7e-m
   3              		.fpu fpv5-d16
   4              		.eabi_attribute 28, 1
   5              		.eabi_attribute 20, 1
   6              		.eabi_attribute 21, 1
   7              		.eabi_attribute 23, 3
   8              		.eabi_attribute 24, 1
   9              		.eabi_attribute 25, 1
  10              		.eabi_attribute 26, 1
  11              		.eabi_attribute 30, 1
  12              		.eabi_attribute 34, 1
  13              		.eabi_attribute 18, 4
  14              		.file	"lv_btnmatrix.c"
  15              		.text
  16              	.Ltext0:
  17              		.cfi_sections	.debug_frame
  18              		.file 1 "lvgl/src/widgets/lv_btnmatrix.c"
  19              		.section	.text.get_button_width,"ax",%progbits
  20              		.align	1
  21              		.syntax unified
  22              		.thumb
  23              		.thumb_func
  25              	get_button_width:
  26              	.LVL0:
  27              	.LFB176:
   1:lvgl/src/widgets/lv_btnmatrix.c **** /**
   2:lvgl/src/widgets/lv_btnmatrix.c ****  * @file lv_btnmatrix.c
   3:lvgl/src/widgets/lv_btnmatrix.c ****  *
   4:lvgl/src/widgets/lv_btnmatrix.c ****  */
   5:lvgl/src/widgets/lv_btnmatrix.c **** 
   6:lvgl/src/widgets/lv_btnmatrix.c **** /*********************
   7:lvgl/src/widgets/lv_btnmatrix.c ****  *      INCLUDES
   8:lvgl/src/widgets/lv_btnmatrix.c ****  *********************/
   9:lvgl/src/widgets/lv_btnmatrix.c **** #include "lv_btnmatrix.h"
  10:lvgl/src/widgets/lv_btnmatrix.c **** #if LV_USE_BTNMATRIX != 0
  11:lvgl/src/widgets/lv_btnmatrix.c **** 
  12:lvgl/src/widgets/lv_btnmatrix.c **** #include "../misc/lv_assert.h"
  13:lvgl/src/widgets/lv_btnmatrix.c **** #include "../core/lv_indev.h"
  14:lvgl/src/widgets/lv_btnmatrix.c **** #include "../core/lv_group.h"
  15:lvgl/src/widgets/lv_btnmatrix.c **** #include "../draw/lv_draw.h"
  16:lvgl/src/widgets/lv_btnmatrix.c **** #include "../core/lv_refr.h"
  17:lvgl/src/widgets/lv_btnmatrix.c **** #include "../misc/lv_txt.h"
  18:lvgl/src/widgets/lv_btnmatrix.c **** #include "../misc/lv_txt_ap.h"
  19:lvgl/src/widgets/lv_btnmatrix.c **** 
  20:lvgl/src/widgets/lv_btnmatrix.c **** /*********************
  21:lvgl/src/widgets/lv_btnmatrix.c ****  *      DEFINES
  22:lvgl/src/widgets/lv_btnmatrix.c ****  *********************/
  23:lvgl/src/widgets/lv_btnmatrix.c **** #define MY_CLASS &lv_btnmatrix_class
  24:lvgl/src/widgets/lv_btnmatrix.c **** 
  25:lvgl/src/widgets/lv_btnmatrix.c **** #define BTN_EXTRA_CLICK_AREA_MAX (LV_DPI_DEF / 10)
  26:lvgl/src/widgets/lv_btnmatrix.c **** #define LV_BTNMATRIX_WIDTH_MASK 0x0007
  27:lvgl/src/widgets/lv_btnmatrix.c **** 
  28:lvgl/src/widgets/lv_btnmatrix.c **** /**********************
  29:lvgl/src/widgets/lv_btnmatrix.c ****  *      TYPEDEFS
  30:lvgl/src/widgets/lv_btnmatrix.c ****  **********************/
  31:lvgl/src/widgets/lv_btnmatrix.c **** 
ARM GAS  C:\usertemp\ccuzpgLf.s 			page 2


  32:lvgl/src/widgets/lv_btnmatrix.c **** /**********************
  33:lvgl/src/widgets/lv_btnmatrix.c ****  *  STATIC PROTOTYPES
  34:lvgl/src/widgets/lv_btnmatrix.c ****  **********************/
  35:lvgl/src/widgets/lv_btnmatrix.c **** static void lv_btnmatrix_constructor(const lv_obj_class_t * class_p, lv_obj_t * obj);
  36:lvgl/src/widgets/lv_btnmatrix.c **** static void lv_btnmatrix_destructor(const lv_obj_class_t * class_p, lv_obj_t * obj);
  37:lvgl/src/widgets/lv_btnmatrix.c **** static void lv_btnmatrix_event(const lv_obj_class_t * class_p, lv_event_t * e);
  38:lvgl/src/widgets/lv_btnmatrix.c **** static void draw_main(lv_event_t * e);
  39:lvgl/src/widgets/lv_btnmatrix.c **** 
  40:lvgl/src/widgets/lv_btnmatrix.c **** static uint8_t get_button_width(lv_btnmatrix_ctrl_t ctrl_bits);
  41:lvgl/src/widgets/lv_btnmatrix.c **** static bool button_is_hidden(lv_btnmatrix_ctrl_t ctrl_bits);
  42:lvgl/src/widgets/lv_btnmatrix.c **** static bool button_is_checked(lv_btnmatrix_ctrl_t ctrl_bits);
  43:lvgl/src/widgets/lv_btnmatrix.c **** static bool button_is_repeat_disabled(lv_btnmatrix_ctrl_t ctrl_bits);
  44:lvgl/src/widgets/lv_btnmatrix.c **** static bool button_is_inactive(lv_btnmatrix_ctrl_t ctrl_bits);
  45:lvgl/src/widgets/lv_btnmatrix.c **** static bool button_is_click_trig(lv_btnmatrix_ctrl_t ctrl_bits);
  46:lvgl/src/widgets/lv_btnmatrix.c **** static bool button_is_popover(lv_btnmatrix_ctrl_t ctrl_bits);
  47:lvgl/src/widgets/lv_btnmatrix.c **** static bool button_is_checkable(lv_btnmatrix_ctrl_t ctrl_bits);
  48:lvgl/src/widgets/lv_btnmatrix.c **** static bool button_is_recolor(lv_btnmatrix_ctrl_t ctrl_bits);
  49:lvgl/src/widgets/lv_btnmatrix.c **** static bool button_get_checked(lv_btnmatrix_ctrl_t ctrl_bits);
  50:lvgl/src/widgets/lv_btnmatrix.c **** static uint16_t get_button_from_point(lv_obj_t * obj, lv_point_t * p);
  51:lvgl/src/widgets/lv_btnmatrix.c **** static void allocate_btn_areas_and_controls(const lv_obj_t * obj, const char ** map);
  52:lvgl/src/widgets/lv_btnmatrix.c **** static void invalidate_button_area(const lv_obj_t * obj, uint16_t btn_idx);
  53:lvgl/src/widgets/lv_btnmatrix.c **** static void make_one_button_checked(lv_obj_t * obj, uint16_t btn_idx);
  54:lvgl/src/widgets/lv_btnmatrix.c **** static bool has_popovers_in_top_row(lv_obj_t * obj);
  55:lvgl/src/widgets/lv_btnmatrix.c **** 
  56:lvgl/src/widgets/lv_btnmatrix.c **** /**********************
  57:lvgl/src/widgets/lv_btnmatrix.c ****  *  STATIC VARIABLES
  58:lvgl/src/widgets/lv_btnmatrix.c ****  **********************/
  59:lvgl/src/widgets/lv_btnmatrix.c **** static const char * lv_btnmatrix_def_map[] = {"Btn1", "Btn2", "Btn3", "\n", "Btn4", "Btn5", ""};
  60:lvgl/src/widgets/lv_btnmatrix.c **** 
  61:lvgl/src/widgets/lv_btnmatrix.c **** const lv_obj_class_t lv_btnmatrix_class = {
  62:lvgl/src/widgets/lv_btnmatrix.c ****     .constructor_cb = lv_btnmatrix_constructor,
  63:lvgl/src/widgets/lv_btnmatrix.c ****     .destructor_cb = lv_btnmatrix_destructor,
  64:lvgl/src/widgets/lv_btnmatrix.c ****     .event_cb = lv_btnmatrix_event,
  65:lvgl/src/widgets/lv_btnmatrix.c ****     .width_def = LV_DPI_DEF * 2,
  66:lvgl/src/widgets/lv_btnmatrix.c ****     .height_def = LV_DPI_DEF,
  67:lvgl/src/widgets/lv_btnmatrix.c ****     .instance_size = sizeof(lv_btnmatrix_t),
  68:lvgl/src/widgets/lv_btnmatrix.c ****     .editable = LV_OBJ_CLASS_EDITABLE_TRUE,
  69:lvgl/src/widgets/lv_btnmatrix.c ****     .group_def = LV_OBJ_CLASS_GROUP_DEF_TRUE,
  70:lvgl/src/widgets/lv_btnmatrix.c ****     .base_class = &lv_obj_class
  71:lvgl/src/widgets/lv_btnmatrix.c **** };
  72:lvgl/src/widgets/lv_btnmatrix.c **** 
  73:lvgl/src/widgets/lv_btnmatrix.c **** /**********************
  74:lvgl/src/widgets/lv_btnmatrix.c ****  *      MACROS
  75:lvgl/src/widgets/lv_btnmatrix.c ****  **********************/
  76:lvgl/src/widgets/lv_btnmatrix.c **** 
  77:lvgl/src/widgets/lv_btnmatrix.c **** /**********************
  78:lvgl/src/widgets/lv_btnmatrix.c ****  *   GLOBAL FUNCTIONS
  79:lvgl/src/widgets/lv_btnmatrix.c ****  **********************/
  80:lvgl/src/widgets/lv_btnmatrix.c **** 
  81:lvgl/src/widgets/lv_btnmatrix.c **** lv_obj_t * lv_btnmatrix_create(lv_obj_t * parent)
  82:lvgl/src/widgets/lv_btnmatrix.c **** {
  83:lvgl/src/widgets/lv_btnmatrix.c ****     LV_LOG_INFO("begin");
  84:lvgl/src/widgets/lv_btnmatrix.c ****     lv_obj_t * obj = lv_obj_class_create_obj(MY_CLASS, parent);
  85:lvgl/src/widgets/lv_btnmatrix.c ****     lv_obj_class_init_obj(obj);
  86:lvgl/src/widgets/lv_btnmatrix.c ****     return obj;
  87:lvgl/src/widgets/lv_btnmatrix.c **** }
  88:lvgl/src/widgets/lv_btnmatrix.c **** 
ARM GAS  C:\usertemp\ccuzpgLf.s 			page 3


  89:lvgl/src/widgets/lv_btnmatrix.c **** /*=====================
  90:lvgl/src/widgets/lv_btnmatrix.c ****  * Setter functions
  91:lvgl/src/widgets/lv_btnmatrix.c ****  *====================*/
  92:lvgl/src/widgets/lv_btnmatrix.c **** 
  93:lvgl/src/widgets/lv_btnmatrix.c **** void lv_btnmatrix_set_map(lv_obj_t * obj, const char * map[])
  94:lvgl/src/widgets/lv_btnmatrix.c **** {
  95:lvgl/src/widgets/lv_btnmatrix.c ****     LV_ASSERT_OBJ(obj, MY_CLASS);
  96:lvgl/src/widgets/lv_btnmatrix.c ****     if(map == NULL) return;
  97:lvgl/src/widgets/lv_btnmatrix.c **** 
  98:lvgl/src/widgets/lv_btnmatrix.c ****     lv_btnmatrix_t * btnm = (lv_btnmatrix_t *)obj;
  99:lvgl/src/widgets/lv_btnmatrix.c **** 
 100:lvgl/src/widgets/lv_btnmatrix.c ****     /*Analyze the map and create the required number of buttons*/
 101:lvgl/src/widgets/lv_btnmatrix.c ****     allocate_btn_areas_and_controls(obj, map);
 102:lvgl/src/widgets/lv_btnmatrix.c ****     btnm->map_p = map;
 103:lvgl/src/widgets/lv_btnmatrix.c **** 
 104:lvgl/src/widgets/lv_btnmatrix.c ****     lv_base_dir_t base_dir = lv_obj_get_style_base_dir(obj, LV_PART_MAIN);
 105:lvgl/src/widgets/lv_btnmatrix.c **** 
 106:lvgl/src/widgets/lv_btnmatrix.c ****     /*Set size and positions of the buttons*/
 107:lvgl/src/widgets/lv_btnmatrix.c ****     lv_coord_t pleft = lv_obj_get_style_pad_left(obj, LV_PART_MAIN);
 108:lvgl/src/widgets/lv_btnmatrix.c ****     lv_coord_t ptop = lv_obj_get_style_pad_top(obj, LV_PART_MAIN);
 109:lvgl/src/widgets/lv_btnmatrix.c ****     lv_coord_t prow = lv_obj_get_style_pad_row(obj, LV_PART_MAIN);
 110:lvgl/src/widgets/lv_btnmatrix.c ****     lv_coord_t pcol = lv_obj_get_style_pad_column(obj, LV_PART_MAIN);
 111:lvgl/src/widgets/lv_btnmatrix.c **** 
 112:lvgl/src/widgets/lv_btnmatrix.c ****     lv_coord_t max_w            = lv_obj_get_content_width(obj);
 113:lvgl/src/widgets/lv_btnmatrix.c ****     lv_coord_t max_h            = lv_obj_get_content_height(obj);
 114:lvgl/src/widgets/lv_btnmatrix.c **** 
 115:lvgl/src/widgets/lv_btnmatrix.c ****     /*Calculate the position of each row*/
 116:lvgl/src/widgets/lv_btnmatrix.c ****     lv_coord_t max_h_no_gap = max_h - (prow * (btnm->row_cnt - 1));
 117:lvgl/src/widgets/lv_btnmatrix.c **** 
 118:lvgl/src/widgets/lv_btnmatrix.c ****     /*Count the units and the buttons in a line
 119:lvgl/src/widgets/lv_btnmatrix.c ****      *(A button can be 1,2,3... unit wide)*/
 120:lvgl/src/widgets/lv_btnmatrix.c ****     uint32_t txt_tot_i = 0; /*Act. index in the str map*/
 121:lvgl/src/widgets/lv_btnmatrix.c ****     uint32_t btn_tot_i = 0; /*Act. index of button areas*/
 122:lvgl/src/widgets/lv_btnmatrix.c ****     const char ** map_row = map;
 123:lvgl/src/widgets/lv_btnmatrix.c **** 
 124:lvgl/src/widgets/lv_btnmatrix.c ****     /*Count the units and the buttons in a line*/
 125:lvgl/src/widgets/lv_btnmatrix.c ****     uint32_t row;
 126:lvgl/src/widgets/lv_btnmatrix.c ****     for(row = 0; row < btnm->row_cnt; row++) {
 127:lvgl/src/widgets/lv_btnmatrix.c ****         uint16_t unit_cnt = 0;           /*Number of units in a row*/
 128:lvgl/src/widgets/lv_btnmatrix.c ****         uint16_t btn_cnt = 0;            /*Number of buttons in a row*/
 129:lvgl/src/widgets/lv_btnmatrix.c ****         /*Count the buttons and units in this row*/
 130:lvgl/src/widgets/lv_btnmatrix.c ****         while(map_row[btn_cnt] && strcmp(map_row[btn_cnt], "\n") != 0 && map_row[btn_cnt][0] != '\0
 131:lvgl/src/widgets/lv_btnmatrix.c ****             unit_cnt += get_button_width(btnm->ctrl_bits[btn_tot_i + btn_cnt]);
 132:lvgl/src/widgets/lv_btnmatrix.c ****             btn_cnt++;
 133:lvgl/src/widgets/lv_btnmatrix.c ****         }
 134:lvgl/src/widgets/lv_btnmatrix.c **** 
 135:lvgl/src/widgets/lv_btnmatrix.c ****         /*Only deal with the non empty lines*/
 136:lvgl/src/widgets/lv_btnmatrix.c ****         if(btn_cnt == 0) {
 137:lvgl/src/widgets/lv_btnmatrix.c ****             map_row = &map_row[btn_cnt + 1];       /*Set the map to the next row*/
 138:lvgl/src/widgets/lv_btnmatrix.c ****             continue;
 139:lvgl/src/widgets/lv_btnmatrix.c ****         }
 140:lvgl/src/widgets/lv_btnmatrix.c **** 
 141:lvgl/src/widgets/lv_btnmatrix.c ****         lv_coord_t row_y1 = ptop + (max_h_no_gap * row) / btnm->row_cnt + row * prow;
 142:lvgl/src/widgets/lv_btnmatrix.c ****         lv_coord_t row_y2 = ptop + (max_h_no_gap * (row + 1)) / btnm->row_cnt + row * prow - 1;
 143:lvgl/src/widgets/lv_btnmatrix.c **** 
 144:lvgl/src/widgets/lv_btnmatrix.c ****         /*Set the button size and positions*/
 145:lvgl/src/widgets/lv_btnmatrix.c ****         lv_coord_t max_w_no_gap = max_w - (pcol * (btn_cnt - 1));
ARM GAS  C:\usertemp\ccuzpgLf.s 			page 4


 146:lvgl/src/widgets/lv_btnmatrix.c ****         if(max_w_no_gap < 0) max_w_no_gap = 0;
 147:lvgl/src/widgets/lv_btnmatrix.c **** 
 148:lvgl/src/widgets/lv_btnmatrix.c ****         uint32_t row_unit_cnt = 0;  /*The current unit position in the row*/
 149:lvgl/src/widgets/lv_btnmatrix.c ****         uint32_t btn;
 150:lvgl/src/widgets/lv_btnmatrix.c ****         for(btn = 0; btn < btn_cnt; btn++, btn_tot_i++, txt_tot_i++) {
 151:lvgl/src/widgets/lv_btnmatrix.c ****             uint32_t btn_u = get_button_width(btnm->ctrl_bits[btn_tot_i]);
 152:lvgl/src/widgets/lv_btnmatrix.c **** 
 153:lvgl/src/widgets/lv_btnmatrix.c ****             lv_coord_t btn_x1 = (max_w_no_gap * row_unit_cnt) / unit_cnt + btn * pcol;
 154:lvgl/src/widgets/lv_btnmatrix.c ****             lv_coord_t btn_x2 = (max_w_no_gap * (row_unit_cnt + btn_u)) / unit_cnt + btn * pcol - 1
 155:lvgl/src/widgets/lv_btnmatrix.c **** 
 156:lvgl/src/widgets/lv_btnmatrix.c ****             /*If RTL start from the right*/
 157:lvgl/src/widgets/lv_btnmatrix.c ****             if(base_dir == LV_BASE_DIR_RTL) {
 158:lvgl/src/widgets/lv_btnmatrix.c ****                 lv_coord_t tmp = btn_x1;
 159:lvgl/src/widgets/lv_btnmatrix.c ****                 btn_x1 = btn_x2;
 160:lvgl/src/widgets/lv_btnmatrix.c ****                 btn_x2 = tmp;
 161:lvgl/src/widgets/lv_btnmatrix.c **** 
 162:lvgl/src/widgets/lv_btnmatrix.c ****                 btn_x1 = max_w - btn_x1;
 163:lvgl/src/widgets/lv_btnmatrix.c ****                 btn_x2 = max_w - btn_x2;
 164:lvgl/src/widgets/lv_btnmatrix.c ****             }
 165:lvgl/src/widgets/lv_btnmatrix.c **** 
 166:lvgl/src/widgets/lv_btnmatrix.c ****             btn_x1 += pleft;
 167:lvgl/src/widgets/lv_btnmatrix.c ****             btn_x2 += pleft;
 168:lvgl/src/widgets/lv_btnmatrix.c **** 
 169:lvgl/src/widgets/lv_btnmatrix.c ****             lv_area_set(&btnm->button_areas[btn_tot_i], btn_x1, row_y1, btn_x2, row_y2);
 170:lvgl/src/widgets/lv_btnmatrix.c **** 
 171:lvgl/src/widgets/lv_btnmatrix.c ****             row_unit_cnt += btn_u;
 172:lvgl/src/widgets/lv_btnmatrix.c ****         }
 173:lvgl/src/widgets/lv_btnmatrix.c **** 
 174:lvgl/src/widgets/lv_btnmatrix.c ****         map_row = &map_row[btn_cnt + 1];       /*Set the map to the next line*/
 175:lvgl/src/widgets/lv_btnmatrix.c ****     }
 176:lvgl/src/widgets/lv_btnmatrix.c **** 
 177:lvgl/src/widgets/lv_btnmatrix.c ****     /*Popovers in the top row will draw outside the widget and the extended draw size depends on
 178:lvgl/src/widgets/lv_btnmatrix.c ****      *the row height which may have changed when setting the new map*/
 179:lvgl/src/widgets/lv_btnmatrix.c ****     lv_obj_refresh_ext_draw_size(obj);
 180:lvgl/src/widgets/lv_btnmatrix.c **** 
 181:lvgl/src/widgets/lv_btnmatrix.c ****     lv_obj_invalidate(obj);
 182:lvgl/src/widgets/lv_btnmatrix.c **** }
 183:lvgl/src/widgets/lv_btnmatrix.c **** 
 184:lvgl/src/widgets/lv_btnmatrix.c **** void lv_btnmatrix_set_ctrl_map(lv_obj_t * obj, const lv_btnmatrix_ctrl_t ctrl_map[])
 185:lvgl/src/widgets/lv_btnmatrix.c **** {
 186:lvgl/src/widgets/lv_btnmatrix.c ****     LV_ASSERT_OBJ(obj, MY_CLASS);
 187:lvgl/src/widgets/lv_btnmatrix.c **** 
 188:lvgl/src/widgets/lv_btnmatrix.c ****     lv_btnmatrix_t * btnm = (lv_btnmatrix_t *)obj;
 189:lvgl/src/widgets/lv_btnmatrix.c ****     lv_memcpy(btnm->ctrl_bits, ctrl_map, sizeof(lv_btnmatrix_ctrl_t) * btnm->btn_cnt);
 190:lvgl/src/widgets/lv_btnmatrix.c **** 
 191:lvgl/src/widgets/lv_btnmatrix.c ****     lv_btnmatrix_set_map(obj, btnm->map_p);
 192:lvgl/src/widgets/lv_btnmatrix.c **** }
 193:lvgl/src/widgets/lv_btnmatrix.c **** 
 194:lvgl/src/widgets/lv_btnmatrix.c **** void lv_btnmatrix_set_selected_btn(lv_obj_t * obj, uint16_t btn_id)
 195:lvgl/src/widgets/lv_btnmatrix.c **** {
 196:lvgl/src/widgets/lv_btnmatrix.c ****     LV_ASSERT_OBJ(obj, MY_CLASS);
 197:lvgl/src/widgets/lv_btnmatrix.c **** 
 198:lvgl/src/widgets/lv_btnmatrix.c ****     lv_btnmatrix_t * btnm = (lv_btnmatrix_t *)obj;
 199:lvgl/src/widgets/lv_btnmatrix.c **** 
 200:lvgl/src/widgets/lv_btnmatrix.c ****     if(btn_id >= btnm->btn_cnt && btn_id != LV_BTNMATRIX_BTN_NONE) return;
 201:lvgl/src/widgets/lv_btnmatrix.c **** 
 202:lvgl/src/widgets/lv_btnmatrix.c ****     invalidate_button_area(obj, btnm->btn_id_sel);
ARM GAS  C:\usertemp\ccuzpgLf.s 			page 5


 203:lvgl/src/widgets/lv_btnmatrix.c ****     btnm->btn_id_sel = btn_id;
 204:lvgl/src/widgets/lv_btnmatrix.c ****     invalidate_button_area(obj, btn_id);
 205:lvgl/src/widgets/lv_btnmatrix.c **** }
 206:lvgl/src/widgets/lv_btnmatrix.c **** 
 207:lvgl/src/widgets/lv_btnmatrix.c **** void lv_btnmatrix_set_btn_ctrl(lv_obj_t * obj, uint16_t btn_id, lv_btnmatrix_ctrl_t ctrl)
 208:lvgl/src/widgets/lv_btnmatrix.c **** {
 209:lvgl/src/widgets/lv_btnmatrix.c ****     LV_ASSERT_OBJ(obj, MY_CLASS);
 210:lvgl/src/widgets/lv_btnmatrix.c **** 
 211:lvgl/src/widgets/lv_btnmatrix.c ****     lv_btnmatrix_t * btnm = (lv_btnmatrix_t *)obj;;
 212:lvgl/src/widgets/lv_btnmatrix.c **** 
 213:lvgl/src/widgets/lv_btnmatrix.c ****     if(btn_id >= btnm->btn_cnt) return;
 214:lvgl/src/widgets/lv_btnmatrix.c **** 
 215:lvgl/src/widgets/lv_btnmatrix.c ****     if(btnm->one_check && (ctrl & LV_BTNMATRIX_CTRL_CHECKED)) {
 216:lvgl/src/widgets/lv_btnmatrix.c ****         lv_btnmatrix_clear_btn_ctrl_all(obj, LV_BTNMATRIX_CTRL_CHECKED);
 217:lvgl/src/widgets/lv_btnmatrix.c ****     }
 218:lvgl/src/widgets/lv_btnmatrix.c **** 
 219:lvgl/src/widgets/lv_btnmatrix.c ****     btnm->ctrl_bits[btn_id] |= ctrl;
 220:lvgl/src/widgets/lv_btnmatrix.c ****     invalidate_button_area(obj, btn_id);
 221:lvgl/src/widgets/lv_btnmatrix.c **** 
 222:lvgl/src/widgets/lv_btnmatrix.c ****     if(ctrl & LV_BTNMATRIX_CTRL_POPOVER) {
 223:lvgl/src/widgets/lv_btnmatrix.c ****         lv_obj_refresh_ext_draw_size(obj);
 224:lvgl/src/widgets/lv_btnmatrix.c ****     }
 225:lvgl/src/widgets/lv_btnmatrix.c **** }
 226:lvgl/src/widgets/lv_btnmatrix.c **** 
 227:lvgl/src/widgets/lv_btnmatrix.c **** void lv_btnmatrix_clear_btn_ctrl(lv_obj_t * obj, uint16_t btn_id, lv_btnmatrix_ctrl_t ctrl)
 228:lvgl/src/widgets/lv_btnmatrix.c **** {
 229:lvgl/src/widgets/lv_btnmatrix.c ****     LV_ASSERT_OBJ(obj, MY_CLASS);
 230:lvgl/src/widgets/lv_btnmatrix.c **** 
 231:lvgl/src/widgets/lv_btnmatrix.c ****     lv_btnmatrix_t * btnm = (lv_btnmatrix_t *)obj;;
 232:lvgl/src/widgets/lv_btnmatrix.c **** 
 233:lvgl/src/widgets/lv_btnmatrix.c ****     if(btn_id >= btnm->btn_cnt) return;
 234:lvgl/src/widgets/lv_btnmatrix.c **** 
 235:lvgl/src/widgets/lv_btnmatrix.c ****     btnm->ctrl_bits[btn_id] &= (~ctrl);
 236:lvgl/src/widgets/lv_btnmatrix.c ****     invalidate_button_area(obj, btn_id);
 237:lvgl/src/widgets/lv_btnmatrix.c **** 
 238:lvgl/src/widgets/lv_btnmatrix.c ****     if(ctrl & LV_BTNMATRIX_CTRL_POPOVER) {
 239:lvgl/src/widgets/lv_btnmatrix.c ****         lv_obj_refresh_ext_draw_size(obj);
 240:lvgl/src/widgets/lv_btnmatrix.c ****     }
 241:lvgl/src/widgets/lv_btnmatrix.c **** }
 242:lvgl/src/widgets/lv_btnmatrix.c **** 
 243:lvgl/src/widgets/lv_btnmatrix.c **** void lv_btnmatrix_set_btn_ctrl_all(lv_obj_t * obj, lv_btnmatrix_ctrl_t ctrl)
 244:lvgl/src/widgets/lv_btnmatrix.c **** {
 245:lvgl/src/widgets/lv_btnmatrix.c ****     LV_ASSERT_OBJ(obj, MY_CLASS);
 246:lvgl/src/widgets/lv_btnmatrix.c **** 
 247:lvgl/src/widgets/lv_btnmatrix.c ****     lv_btnmatrix_t * btnm = (lv_btnmatrix_t *)obj;;
 248:lvgl/src/widgets/lv_btnmatrix.c ****     uint16_t i;
 249:lvgl/src/widgets/lv_btnmatrix.c ****     for(i = 0; i < btnm->btn_cnt; i++) {
 250:lvgl/src/widgets/lv_btnmatrix.c ****         lv_btnmatrix_set_btn_ctrl(obj, i, ctrl);
 251:lvgl/src/widgets/lv_btnmatrix.c ****     }
 252:lvgl/src/widgets/lv_btnmatrix.c **** }
 253:lvgl/src/widgets/lv_btnmatrix.c **** 
 254:lvgl/src/widgets/lv_btnmatrix.c **** void lv_btnmatrix_clear_btn_ctrl_all(lv_obj_t * obj, lv_btnmatrix_ctrl_t ctrl)
 255:lvgl/src/widgets/lv_btnmatrix.c **** {
 256:lvgl/src/widgets/lv_btnmatrix.c ****     LV_ASSERT_OBJ(obj, MY_CLASS);
 257:lvgl/src/widgets/lv_btnmatrix.c **** 
 258:lvgl/src/widgets/lv_btnmatrix.c ****     lv_btnmatrix_t * btnm = (lv_btnmatrix_t *)obj;;
 259:lvgl/src/widgets/lv_btnmatrix.c ****     uint16_t i;
ARM GAS  C:\usertemp\ccuzpgLf.s 			page 6


 260:lvgl/src/widgets/lv_btnmatrix.c ****     for(i = 0; i < btnm->btn_cnt; i++) {
 261:lvgl/src/widgets/lv_btnmatrix.c ****         lv_btnmatrix_clear_btn_ctrl(obj, i, ctrl);
 262:lvgl/src/widgets/lv_btnmatrix.c ****     }
 263:lvgl/src/widgets/lv_btnmatrix.c **** }
 264:lvgl/src/widgets/lv_btnmatrix.c **** 
 265:lvgl/src/widgets/lv_btnmatrix.c **** void lv_btnmatrix_set_btn_width(lv_obj_t * obj, uint16_t btn_id, uint8_t width)
 266:lvgl/src/widgets/lv_btnmatrix.c **** {
 267:lvgl/src/widgets/lv_btnmatrix.c ****     LV_ASSERT_OBJ(obj, MY_CLASS);
 268:lvgl/src/widgets/lv_btnmatrix.c **** 
 269:lvgl/src/widgets/lv_btnmatrix.c ****     lv_btnmatrix_t * btnm = (lv_btnmatrix_t *)obj;;
 270:lvgl/src/widgets/lv_btnmatrix.c ****     if(btn_id >= btnm->btn_cnt) return;
 271:lvgl/src/widgets/lv_btnmatrix.c ****     btnm->ctrl_bits[btn_id] &= (~LV_BTNMATRIX_WIDTH_MASK);
 272:lvgl/src/widgets/lv_btnmatrix.c ****     btnm->ctrl_bits[btn_id] |= (LV_BTNMATRIX_WIDTH_MASK & width);
 273:lvgl/src/widgets/lv_btnmatrix.c **** 
 274:lvgl/src/widgets/lv_btnmatrix.c ****     lv_btnmatrix_set_map(obj, btnm->map_p);
 275:lvgl/src/widgets/lv_btnmatrix.c **** }
 276:lvgl/src/widgets/lv_btnmatrix.c **** 
 277:lvgl/src/widgets/lv_btnmatrix.c **** void lv_btnmatrix_set_one_checked(lv_obj_t * obj, bool en)
 278:lvgl/src/widgets/lv_btnmatrix.c **** {
 279:lvgl/src/widgets/lv_btnmatrix.c ****     LV_ASSERT_OBJ(obj, MY_CLASS);
 280:lvgl/src/widgets/lv_btnmatrix.c **** 
 281:lvgl/src/widgets/lv_btnmatrix.c ****     lv_btnmatrix_t * btnm = (lv_btnmatrix_t *)obj;;
 282:lvgl/src/widgets/lv_btnmatrix.c ****     btnm->one_check     = en;
 283:lvgl/src/widgets/lv_btnmatrix.c **** 
 284:lvgl/src/widgets/lv_btnmatrix.c ****     /*If more than one button is toggled only the first one should be*/
 285:lvgl/src/widgets/lv_btnmatrix.c ****     make_one_button_checked(obj, 0);
 286:lvgl/src/widgets/lv_btnmatrix.c **** }
 287:lvgl/src/widgets/lv_btnmatrix.c **** 
 288:lvgl/src/widgets/lv_btnmatrix.c **** /*=====================
 289:lvgl/src/widgets/lv_btnmatrix.c ****  * Getter functions
 290:lvgl/src/widgets/lv_btnmatrix.c ****  *====================*/
 291:lvgl/src/widgets/lv_btnmatrix.c **** 
 292:lvgl/src/widgets/lv_btnmatrix.c **** const char ** lv_btnmatrix_get_map(const lv_obj_t * obj)
 293:lvgl/src/widgets/lv_btnmatrix.c **** {
 294:lvgl/src/widgets/lv_btnmatrix.c ****     LV_ASSERT_OBJ(obj, MY_CLASS);
 295:lvgl/src/widgets/lv_btnmatrix.c **** 
 296:lvgl/src/widgets/lv_btnmatrix.c ****     lv_btnmatrix_t * btnm = (lv_btnmatrix_t *)obj;;
 297:lvgl/src/widgets/lv_btnmatrix.c ****     return btnm->map_p;
 298:lvgl/src/widgets/lv_btnmatrix.c **** }
 299:lvgl/src/widgets/lv_btnmatrix.c **** 
 300:lvgl/src/widgets/lv_btnmatrix.c **** uint16_t lv_btnmatrix_get_selected_btn(const lv_obj_t * obj)
 301:lvgl/src/widgets/lv_btnmatrix.c **** {
 302:lvgl/src/widgets/lv_btnmatrix.c ****     LV_ASSERT_OBJ(obj, MY_CLASS);
 303:lvgl/src/widgets/lv_btnmatrix.c **** 
 304:lvgl/src/widgets/lv_btnmatrix.c ****     lv_btnmatrix_t * btnm = (lv_btnmatrix_t *)obj;;
 305:lvgl/src/widgets/lv_btnmatrix.c ****     return btnm->btn_id_sel;
 306:lvgl/src/widgets/lv_btnmatrix.c **** }
 307:lvgl/src/widgets/lv_btnmatrix.c **** 
 308:lvgl/src/widgets/lv_btnmatrix.c **** const char * lv_btnmatrix_get_btn_text(const lv_obj_t * obj, uint16_t btn_id)
 309:lvgl/src/widgets/lv_btnmatrix.c **** {
 310:lvgl/src/widgets/lv_btnmatrix.c ****     LV_ASSERT_OBJ(obj, MY_CLASS);
 311:lvgl/src/widgets/lv_btnmatrix.c **** 
 312:lvgl/src/widgets/lv_btnmatrix.c ****     if(btn_id == LV_BTNMATRIX_BTN_NONE) return NULL;
 313:lvgl/src/widgets/lv_btnmatrix.c **** 
 314:lvgl/src/widgets/lv_btnmatrix.c ****     lv_btnmatrix_t * btnm = (lv_btnmatrix_t *)obj;
 315:lvgl/src/widgets/lv_btnmatrix.c ****     if(btn_id > btnm->btn_cnt) return NULL;
 316:lvgl/src/widgets/lv_btnmatrix.c **** 
ARM GAS  C:\usertemp\ccuzpgLf.s 			page 7


 317:lvgl/src/widgets/lv_btnmatrix.c ****     uint16_t txt_i = 0;
 318:lvgl/src/widgets/lv_btnmatrix.c ****     uint16_t btn_i = 0;
 319:lvgl/src/widgets/lv_btnmatrix.c **** 
 320:lvgl/src/widgets/lv_btnmatrix.c ****     /*Search the text of btnm->btn_pr the buttons text in the map
 321:lvgl/src/widgets/lv_btnmatrix.c ****      *Skip "\n"-s*/
 322:lvgl/src/widgets/lv_btnmatrix.c ****     while(btn_i != btn_id) {
 323:lvgl/src/widgets/lv_btnmatrix.c ****         btn_i++;
 324:lvgl/src/widgets/lv_btnmatrix.c ****         txt_i++;
 325:lvgl/src/widgets/lv_btnmatrix.c ****         if(strcmp(btnm->map_p[txt_i], "\n") == 0) txt_i++;
 326:lvgl/src/widgets/lv_btnmatrix.c ****     }
 327:lvgl/src/widgets/lv_btnmatrix.c **** 
 328:lvgl/src/widgets/lv_btnmatrix.c ****     if(btn_i == btnm->btn_cnt) return NULL;
 329:lvgl/src/widgets/lv_btnmatrix.c **** 
 330:lvgl/src/widgets/lv_btnmatrix.c ****     return btnm->map_p[txt_i];
 331:lvgl/src/widgets/lv_btnmatrix.c **** }
 332:lvgl/src/widgets/lv_btnmatrix.c **** 
 333:lvgl/src/widgets/lv_btnmatrix.c **** bool lv_btnmatrix_has_btn_ctrl(lv_obj_t * obj, uint16_t btn_id, lv_btnmatrix_ctrl_t ctrl)
 334:lvgl/src/widgets/lv_btnmatrix.c **** {
 335:lvgl/src/widgets/lv_btnmatrix.c ****     LV_ASSERT_OBJ(obj, MY_CLASS);
 336:lvgl/src/widgets/lv_btnmatrix.c **** 
 337:lvgl/src/widgets/lv_btnmatrix.c ****     lv_btnmatrix_t * btnm = (lv_btnmatrix_t *)obj;;
 338:lvgl/src/widgets/lv_btnmatrix.c ****     if(btn_id >= btnm->btn_cnt) return false;
 339:lvgl/src/widgets/lv_btnmatrix.c **** 
 340:lvgl/src/widgets/lv_btnmatrix.c ****     return ((btnm->ctrl_bits[btn_id] & ctrl) == ctrl) ? true : false;
 341:lvgl/src/widgets/lv_btnmatrix.c **** }
 342:lvgl/src/widgets/lv_btnmatrix.c **** 
 343:lvgl/src/widgets/lv_btnmatrix.c **** bool lv_btnmatrix_get_one_checked(const lv_obj_t * obj)
 344:lvgl/src/widgets/lv_btnmatrix.c **** {
 345:lvgl/src/widgets/lv_btnmatrix.c ****     LV_ASSERT_OBJ(obj, MY_CLASS);
 346:lvgl/src/widgets/lv_btnmatrix.c **** 
 347:lvgl/src/widgets/lv_btnmatrix.c ****     lv_btnmatrix_t * btnm = (lv_btnmatrix_t *)obj;;
 348:lvgl/src/widgets/lv_btnmatrix.c **** 
 349:lvgl/src/widgets/lv_btnmatrix.c ****     return btnm->one_check;
 350:lvgl/src/widgets/lv_btnmatrix.c **** }
 351:lvgl/src/widgets/lv_btnmatrix.c **** 
 352:lvgl/src/widgets/lv_btnmatrix.c **** /**********************
 353:lvgl/src/widgets/lv_btnmatrix.c ****  *   STATIC FUNCTIONS
 354:lvgl/src/widgets/lv_btnmatrix.c ****  **********************/
 355:lvgl/src/widgets/lv_btnmatrix.c **** 
 356:lvgl/src/widgets/lv_btnmatrix.c **** static void lv_btnmatrix_constructor(const lv_obj_class_t * class_p, lv_obj_t * obj)
 357:lvgl/src/widgets/lv_btnmatrix.c **** {
 358:lvgl/src/widgets/lv_btnmatrix.c ****     LV_UNUSED(class_p);
 359:lvgl/src/widgets/lv_btnmatrix.c ****     LV_TRACE_OBJ_CREATE("begin");
 360:lvgl/src/widgets/lv_btnmatrix.c ****     lv_btnmatrix_t * btnm = (lv_btnmatrix_t *)obj;
 361:lvgl/src/widgets/lv_btnmatrix.c ****     btnm->btn_cnt        = 0;
 362:lvgl/src/widgets/lv_btnmatrix.c ****     btnm->row_cnt        = 0;
 363:lvgl/src/widgets/lv_btnmatrix.c ****     btnm->btn_id_sel     = LV_BTNMATRIX_BTN_NONE;
 364:lvgl/src/widgets/lv_btnmatrix.c ****     btnm->button_areas   = NULL;
 365:lvgl/src/widgets/lv_btnmatrix.c ****     btnm->ctrl_bits      = NULL;
 366:lvgl/src/widgets/lv_btnmatrix.c ****     btnm->map_p          = NULL;
 367:lvgl/src/widgets/lv_btnmatrix.c ****     btnm->one_check      = 0;
 368:lvgl/src/widgets/lv_btnmatrix.c **** 
 369:lvgl/src/widgets/lv_btnmatrix.c ****     lv_btnmatrix_set_map(obj, lv_btnmatrix_def_map);
 370:lvgl/src/widgets/lv_btnmatrix.c **** 
 371:lvgl/src/widgets/lv_btnmatrix.c ****     LV_TRACE_OBJ_CREATE("finished");
 372:lvgl/src/widgets/lv_btnmatrix.c **** }
 373:lvgl/src/widgets/lv_btnmatrix.c **** 
ARM GAS  C:\usertemp\ccuzpgLf.s 			page 8


 374:lvgl/src/widgets/lv_btnmatrix.c **** static void lv_btnmatrix_destructor(const lv_obj_class_t * class_p, lv_obj_t * obj)
 375:lvgl/src/widgets/lv_btnmatrix.c **** {
 376:lvgl/src/widgets/lv_btnmatrix.c ****     LV_TRACE_OBJ_CREATE("begin");
 377:lvgl/src/widgets/lv_btnmatrix.c ****     LV_UNUSED(class_p);
 378:lvgl/src/widgets/lv_btnmatrix.c ****     lv_btnmatrix_t * btnm = (lv_btnmatrix_t *)obj;
 379:lvgl/src/widgets/lv_btnmatrix.c ****     lv_mem_free(btnm->button_areas);
 380:lvgl/src/widgets/lv_btnmatrix.c ****     lv_mem_free(btnm->ctrl_bits);
 381:lvgl/src/widgets/lv_btnmatrix.c ****     btnm->button_areas = NULL;
 382:lvgl/src/widgets/lv_btnmatrix.c ****     btnm->ctrl_bits = NULL;
 383:lvgl/src/widgets/lv_btnmatrix.c ****     LV_TRACE_OBJ_CREATE("finished");
 384:lvgl/src/widgets/lv_btnmatrix.c **** }
 385:lvgl/src/widgets/lv_btnmatrix.c **** 
 386:lvgl/src/widgets/lv_btnmatrix.c **** static void lv_btnmatrix_event(const lv_obj_class_t * class_p, lv_event_t * e)
 387:lvgl/src/widgets/lv_btnmatrix.c **** {
 388:lvgl/src/widgets/lv_btnmatrix.c ****     LV_UNUSED(class_p);
 389:lvgl/src/widgets/lv_btnmatrix.c **** 
 390:lvgl/src/widgets/lv_btnmatrix.c ****     lv_res_t res;
 391:lvgl/src/widgets/lv_btnmatrix.c **** 
 392:lvgl/src/widgets/lv_btnmatrix.c ****     /*Call the ancestor's event handler*/
 393:lvgl/src/widgets/lv_btnmatrix.c ****     res = lv_obj_event_base(MY_CLASS, e);
 394:lvgl/src/widgets/lv_btnmatrix.c ****     if(res != LV_RES_OK) return;
 395:lvgl/src/widgets/lv_btnmatrix.c **** 
 396:lvgl/src/widgets/lv_btnmatrix.c ****     lv_event_code_t code = lv_event_get_code(e);
 397:lvgl/src/widgets/lv_btnmatrix.c ****     lv_obj_t * obj = lv_event_get_target(e);
 398:lvgl/src/widgets/lv_btnmatrix.c ****     lv_btnmatrix_t * btnm = (lv_btnmatrix_t *)obj;
 399:lvgl/src/widgets/lv_btnmatrix.c ****     lv_point_t p;
 400:lvgl/src/widgets/lv_btnmatrix.c **** 
 401:lvgl/src/widgets/lv_btnmatrix.c ****     if(code == LV_EVENT_REFR_EXT_DRAW_SIZE) {
 402:lvgl/src/widgets/lv_btnmatrix.c ****         lv_coord_t * s = lv_event_get_param(e);
 403:lvgl/src/widgets/lv_btnmatrix.c ****         if(has_popovers_in_top_row(obj)) {
 404:lvgl/src/widgets/lv_btnmatrix.c ****             /*reserve one row worth of extra space to account for popovers in the top row*/
 405:lvgl/src/widgets/lv_btnmatrix.c ****             *s = btnm->row_cnt > 0 ? lv_obj_get_content_height(obj) / btnm->row_cnt : 0;
 406:lvgl/src/widgets/lv_btnmatrix.c ****         }
 407:lvgl/src/widgets/lv_btnmatrix.c ****         else {
 408:lvgl/src/widgets/lv_btnmatrix.c ****             *s = 0;
 409:lvgl/src/widgets/lv_btnmatrix.c ****         }
 410:lvgl/src/widgets/lv_btnmatrix.c ****     }
 411:lvgl/src/widgets/lv_btnmatrix.c ****     if(code == LV_EVENT_STYLE_CHANGED) {
 412:lvgl/src/widgets/lv_btnmatrix.c ****         lv_btnmatrix_set_map(obj, btnm->map_p);
 413:lvgl/src/widgets/lv_btnmatrix.c ****     }
 414:lvgl/src/widgets/lv_btnmatrix.c ****     else if(code == LV_EVENT_SIZE_CHANGED) {
 415:lvgl/src/widgets/lv_btnmatrix.c ****         lv_btnmatrix_set_map(obj, btnm->map_p);
 416:lvgl/src/widgets/lv_btnmatrix.c ****     }
 417:lvgl/src/widgets/lv_btnmatrix.c ****     else if(code == LV_EVENT_PRESSED) {
 418:lvgl/src/widgets/lv_btnmatrix.c ****         void * param = lv_event_get_param(e);
 419:lvgl/src/widgets/lv_btnmatrix.c ****         invalidate_button_area(obj, btnm->btn_id_sel);
 420:lvgl/src/widgets/lv_btnmatrix.c **** 
 421:lvgl/src/widgets/lv_btnmatrix.c ****         lv_indev_type_t indev_type = lv_indev_get_type(lv_indev_get_act());
 422:lvgl/src/widgets/lv_btnmatrix.c ****         if(indev_type == LV_INDEV_TYPE_POINTER || indev_type == LV_INDEV_TYPE_BUTTON) {
 423:lvgl/src/widgets/lv_btnmatrix.c ****             uint16_t btn_pr;
 424:lvgl/src/widgets/lv_btnmatrix.c ****             /*Search the pressed area*/
 425:lvgl/src/widgets/lv_btnmatrix.c ****             lv_indev_get_point(param, &p);
 426:lvgl/src/widgets/lv_btnmatrix.c ****             btn_pr = get_button_from_point(obj, &p);
 427:lvgl/src/widgets/lv_btnmatrix.c ****             /*Handle the case where there is no button there*/
 428:lvgl/src/widgets/lv_btnmatrix.c ****             if(btn_pr != LV_BTNMATRIX_BTN_NONE) {
 429:lvgl/src/widgets/lv_btnmatrix.c ****                 if(button_is_inactive(btnm->ctrl_bits[btn_pr]) == false &&
 430:lvgl/src/widgets/lv_btnmatrix.c ****                    button_is_hidden(btnm->ctrl_bits[btn_pr]) == false) {
ARM GAS  C:\usertemp\ccuzpgLf.s 			page 9


 431:lvgl/src/widgets/lv_btnmatrix.c ****                     btnm->btn_id_sel = btn_pr;
 432:lvgl/src/widgets/lv_btnmatrix.c ****                     invalidate_button_area(obj, btnm->btn_id_sel); /*Invalidate the new area*/
 433:lvgl/src/widgets/lv_btnmatrix.c ****                 }
 434:lvgl/src/widgets/lv_btnmatrix.c ****             }
 435:lvgl/src/widgets/lv_btnmatrix.c ****         }
 436:lvgl/src/widgets/lv_btnmatrix.c **** 
 437:lvgl/src/widgets/lv_btnmatrix.c ****         if(btnm->btn_id_sel != LV_BTNMATRIX_BTN_NONE) {
 438:lvgl/src/widgets/lv_btnmatrix.c ****             if(button_is_click_trig(btnm->ctrl_bits[btnm->btn_id_sel]) == false &&
 439:lvgl/src/widgets/lv_btnmatrix.c ****                button_is_popover(btnm->ctrl_bits[btnm->btn_id_sel]) == false &&
 440:lvgl/src/widgets/lv_btnmatrix.c ****                button_is_inactive(btnm->ctrl_bits[btnm->btn_id_sel]) == false &&
 441:lvgl/src/widgets/lv_btnmatrix.c ****                button_is_hidden(btnm->ctrl_bits[btnm->btn_id_sel]) == false) {
 442:lvgl/src/widgets/lv_btnmatrix.c ****                 uint32_t b = btnm->btn_id_sel;
 443:lvgl/src/widgets/lv_btnmatrix.c ****                 res        = lv_event_send(obj, LV_EVENT_VALUE_CHANGED, &b);
 444:lvgl/src/widgets/lv_btnmatrix.c ****                 if(res != LV_RES_OK) return;
 445:lvgl/src/widgets/lv_btnmatrix.c ****             }
 446:lvgl/src/widgets/lv_btnmatrix.c ****         }
 447:lvgl/src/widgets/lv_btnmatrix.c ****     }
 448:lvgl/src/widgets/lv_btnmatrix.c ****     else if(code == LV_EVENT_PRESSING) {
 449:lvgl/src/widgets/lv_btnmatrix.c ****         void * param = lv_event_get_param(e);
 450:lvgl/src/widgets/lv_btnmatrix.c ****         uint16_t btn_pr = LV_BTNMATRIX_BTN_NONE;
 451:lvgl/src/widgets/lv_btnmatrix.c ****         /*Search the pressed area*/
 452:lvgl/src/widgets/lv_btnmatrix.c ****         lv_indev_t * indev = lv_indev_get_act();
 453:lvgl/src/widgets/lv_btnmatrix.c ****         lv_indev_type_t indev_type = lv_indev_get_type(indev);
 454:lvgl/src/widgets/lv_btnmatrix.c ****         if(indev_type == LV_INDEV_TYPE_ENCODER || indev_type == LV_INDEV_TYPE_KEYPAD) return;
 455:lvgl/src/widgets/lv_btnmatrix.c **** 
 456:lvgl/src/widgets/lv_btnmatrix.c ****         lv_indev_get_point(indev, &p);
 457:lvgl/src/widgets/lv_btnmatrix.c ****         btn_pr = get_button_from_point(obj, &p);
 458:lvgl/src/widgets/lv_btnmatrix.c ****         /*Invalidate to old and the new areas*/
 459:lvgl/src/widgets/lv_btnmatrix.c ****         if(btn_pr != btnm->btn_id_sel) {
 460:lvgl/src/widgets/lv_btnmatrix.c ****             if(btnm->btn_id_sel != LV_BTNMATRIX_BTN_NONE) {
 461:lvgl/src/widgets/lv_btnmatrix.c ****                 invalidate_button_area(obj, btnm->btn_id_sel);
 462:lvgl/src/widgets/lv_btnmatrix.c ****             }
 463:lvgl/src/widgets/lv_btnmatrix.c **** 
 464:lvgl/src/widgets/lv_btnmatrix.c ****             btnm->btn_id_sel = btn_pr;
 465:lvgl/src/widgets/lv_btnmatrix.c **** 
 466:lvgl/src/widgets/lv_btnmatrix.c ****             lv_indev_reset_long_press(param); /*Start the log press time again on the new button*/
 467:lvgl/src/widgets/lv_btnmatrix.c ****             if(btn_pr != LV_BTNMATRIX_BTN_NONE &&
 468:lvgl/src/widgets/lv_btnmatrix.c ****                button_is_inactive(btnm->ctrl_bits[btn_pr]) == false &&
 469:lvgl/src/widgets/lv_btnmatrix.c ****                button_is_hidden(btnm->ctrl_bits[btn_pr]) == false) {
 470:lvgl/src/widgets/lv_btnmatrix.c ****                 invalidate_button_area(obj, btn_pr);
 471:lvgl/src/widgets/lv_btnmatrix.c ****                 /*Send VALUE_CHANGED for the newly pressed button*/
 472:lvgl/src/widgets/lv_btnmatrix.c ****                 if(button_is_click_trig(btnm->ctrl_bits[btn_pr]) == false &&
 473:lvgl/src/widgets/lv_btnmatrix.c ****                    button_is_popover(btnm->ctrl_bits[btnm->btn_id_sel]) == false) {
 474:lvgl/src/widgets/lv_btnmatrix.c ****                     uint32_t b = btn_pr;
 475:lvgl/src/widgets/lv_btnmatrix.c ****                     res = lv_event_send(obj, LV_EVENT_VALUE_CHANGED, &b);
 476:lvgl/src/widgets/lv_btnmatrix.c ****                     if(res != LV_RES_OK) return;
 477:lvgl/src/widgets/lv_btnmatrix.c ****                 }
 478:lvgl/src/widgets/lv_btnmatrix.c ****             }
 479:lvgl/src/widgets/lv_btnmatrix.c ****         }
 480:lvgl/src/widgets/lv_btnmatrix.c ****     }
 481:lvgl/src/widgets/lv_btnmatrix.c ****     else if(code == LV_EVENT_RELEASED) {
 482:lvgl/src/widgets/lv_btnmatrix.c ****         if(btnm->btn_id_sel != LV_BTNMATRIX_BTN_NONE) {
 483:lvgl/src/widgets/lv_btnmatrix.c ****             /*Toggle the button if enabled*/
 484:lvgl/src/widgets/lv_btnmatrix.c ****             if(button_is_checkable(btnm->ctrl_bits[btnm->btn_id_sel]) &&
 485:lvgl/src/widgets/lv_btnmatrix.c ****                !button_is_inactive(btnm->ctrl_bits[btnm->btn_id_sel])) {
 486:lvgl/src/widgets/lv_btnmatrix.c ****                 if(button_get_checked(btnm->ctrl_bits[btnm->btn_id_sel]) && !btnm->one_check) {
 487:lvgl/src/widgets/lv_btnmatrix.c ****                     btnm->ctrl_bits[btnm->btn_id_sel] &= (~LV_BTNMATRIX_CTRL_CHECKED);
ARM GAS  C:\usertemp\ccuzpgLf.s 			page 10


 488:lvgl/src/widgets/lv_btnmatrix.c ****                 }
 489:lvgl/src/widgets/lv_btnmatrix.c ****                 else {
 490:lvgl/src/widgets/lv_btnmatrix.c ****                     btnm->ctrl_bits[btnm->btn_id_sel] |= LV_BTNMATRIX_CTRL_CHECKED;
 491:lvgl/src/widgets/lv_btnmatrix.c ****                 }
 492:lvgl/src/widgets/lv_btnmatrix.c ****                 if(btnm->one_check) make_one_button_checked(obj, btnm->btn_id_sel);
 493:lvgl/src/widgets/lv_btnmatrix.c ****             }
 494:lvgl/src/widgets/lv_btnmatrix.c **** 
 495:lvgl/src/widgets/lv_btnmatrix.c **** 
 496:lvgl/src/widgets/lv_btnmatrix.c ****             if((button_is_click_trig(btnm->ctrl_bits[btnm->btn_id_sel]) == true ||
 497:lvgl/src/widgets/lv_btnmatrix.c ****                 button_is_popover(btnm->ctrl_bits[btnm->btn_id_sel]) == true) &&
 498:lvgl/src/widgets/lv_btnmatrix.c ****                button_is_inactive(btnm->ctrl_bits[btnm->btn_id_sel]) == false &&
 499:lvgl/src/widgets/lv_btnmatrix.c ****                button_is_hidden(btnm->ctrl_bits[btnm->btn_id_sel]) == false) {
 500:lvgl/src/widgets/lv_btnmatrix.c ****                 uint32_t b = btnm->btn_id_sel;
 501:lvgl/src/widgets/lv_btnmatrix.c ****                 res        = lv_event_send(obj, LV_EVENT_VALUE_CHANGED, &b);
 502:lvgl/src/widgets/lv_btnmatrix.c ****                 if(res != LV_RES_OK) return;
 503:lvgl/src/widgets/lv_btnmatrix.c ****             }
 504:lvgl/src/widgets/lv_btnmatrix.c ****         }
 505:lvgl/src/widgets/lv_btnmatrix.c **** 
 506:lvgl/src/widgets/lv_btnmatrix.c ****         /*Invalidate to old pressed area*/;
 507:lvgl/src/widgets/lv_btnmatrix.c ****         invalidate_button_area(obj, btnm->btn_id_sel);
 508:lvgl/src/widgets/lv_btnmatrix.c **** 
 509:lvgl/src/widgets/lv_btnmatrix.c ****     }
 510:lvgl/src/widgets/lv_btnmatrix.c ****     else if(code == LV_EVENT_LONG_PRESSED_REPEAT) {
 511:lvgl/src/widgets/lv_btnmatrix.c ****         if(btnm->btn_id_sel != LV_BTNMATRIX_BTN_NONE) {
 512:lvgl/src/widgets/lv_btnmatrix.c ****             if(button_is_repeat_disabled(btnm->ctrl_bits[btnm->btn_id_sel]) == false &&
 513:lvgl/src/widgets/lv_btnmatrix.c ****                button_is_inactive(btnm->ctrl_bits[btnm->btn_id_sel]) == false &&
 514:lvgl/src/widgets/lv_btnmatrix.c ****                button_is_hidden(btnm->ctrl_bits[btnm->btn_id_sel]) == false) {
 515:lvgl/src/widgets/lv_btnmatrix.c ****                 uint32_t b = btnm->btn_id_sel;
 516:lvgl/src/widgets/lv_btnmatrix.c ****                 res        = lv_event_send(obj, LV_EVENT_VALUE_CHANGED, &b);
 517:lvgl/src/widgets/lv_btnmatrix.c ****                 if(res != LV_RES_OK) return;
 518:lvgl/src/widgets/lv_btnmatrix.c ****             }
 519:lvgl/src/widgets/lv_btnmatrix.c ****         }
 520:lvgl/src/widgets/lv_btnmatrix.c ****     }
 521:lvgl/src/widgets/lv_btnmatrix.c ****     else if(code == LV_EVENT_PRESS_LOST) {
 522:lvgl/src/widgets/lv_btnmatrix.c ****         invalidate_button_area(obj, btnm->btn_id_sel);
 523:lvgl/src/widgets/lv_btnmatrix.c ****         btnm->btn_id_sel = LV_BTNMATRIX_BTN_NONE;
 524:lvgl/src/widgets/lv_btnmatrix.c ****     }
 525:lvgl/src/widgets/lv_btnmatrix.c ****     else if(code == LV_EVENT_FOCUSED) {
 526:lvgl/src/widgets/lv_btnmatrix.c ****         lv_indev_t * indev = lv_event_get_param(e);
 527:lvgl/src/widgets/lv_btnmatrix.c ****         lv_indev_type_t indev_type = lv_indev_get_type(indev);
 528:lvgl/src/widgets/lv_btnmatrix.c **** 
 529:lvgl/src/widgets/lv_btnmatrix.c ****         /*If not focused by an input device assume the last input device*/
 530:lvgl/src/widgets/lv_btnmatrix.c ****         if(indev == NULL) {
 531:lvgl/src/widgets/lv_btnmatrix.c ****             indev = lv_indev_get_next(NULL);
 532:lvgl/src/widgets/lv_btnmatrix.c ****             indev_type = lv_indev_get_type(indev);
 533:lvgl/src/widgets/lv_btnmatrix.c ****         }
 534:lvgl/src/widgets/lv_btnmatrix.c **** 
 535:lvgl/src/widgets/lv_btnmatrix.c ****         bool editing = lv_group_get_editing(lv_obj_get_group(obj));
 536:lvgl/src/widgets/lv_btnmatrix.c ****         /*Focus the first button if there is not selected button*/
 537:lvgl/src/widgets/lv_btnmatrix.c ****         if(btnm->btn_id_sel == LV_BTNMATRIX_BTN_NONE) {
 538:lvgl/src/widgets/lv_btnmatrix.c ****             if(indev_type == LV_INDEV_TYPE_KEYPAD || (indev_type == LV_INDEV_TYPE_ENCODER && editin
 539:lvgl/src/widgets/lv_btnmatrix.c ****                 uint32_t b = 0;
 540:lvgl/src/widgets/lv_btnmatrix.c ****                 if(btnm->one_check) {
 541:lvgl/src/widgets/lv_btnmatrix.c ****                     while(button_is_hidden(btnm->ctrl_bits[b]) || button_is_inactive(btnm->ctrl_bit
 542:lvgl/src/widgets/lv_btnmatrix.c ****                           button_is_checked(btnm->ctrl_bits[b]) == false) b++;
 543:lvgl/src/widgets/lv_btnmatrix.c ****                 }
 544:lvgl/src/widgets/lv_btnmatrix.c ****                 else {
ARM GAS  C:\usertemp\ccuzpgLf.s 			page 11


 545:lvgl/src/widgets/lv_btnmatrix.c ****                     while(button_is_hidden(btnm->ctrl_bits[b]) || button_is_inactive(btnm->ctrl_bit
 546:lvgl/src/widgets/lv_btnmatrix.c ****                 }
 547:lvgl/src/widgets/lv_btnmatrix.c **** 
 548:lvgl/src/widgets/lv_btnmatrix.c ****                 btnm->btn_id_sel = b;
 549:lvgl/src/widgets/lv_btnmatrix.c ****             }
 550:lvgl/src/widgets/lv_btnmatrix.c ****             else {
 551:lvgl/src/widgets/lv_btnmatrix.c ****                 btnm->btn_id_sel = LV_BTNMATRIX_BTN_NONE;
 552:lvgl/src/widgets/lv_btnmatrix.c ****             }
 553:lvgl/src/widgets/lv_btnmatrix.c ****         }
 554:lvgl/src/widgets/lv_btnmatrix.c ****     }
 555:lvgl/src/widgets/lv_btnmatrix.c ****     else if(code == LV_EVENT_DEFOCUSED || code == LV_EVENT_LEAVE) {
 556:lvgl/src/widgets/lv_btnmatrix.c ****         if(btnm->btn_id_sel != LV_BTNMATRIX_BTN_NONE) invalidate_button_area(obj, btnm->btn_id_sel)
 557:lvgl/src/widgets/lv_btnmatrix.c ****         btnm->btn_id_sel = LV_BTNMATRIX_BTN_NONE;
 558:lvgl/src/widgets/lv_btnmatrix.c ****     }
 559:lvgl/src/widgets/lv_btnmatrix.c ****     else if(code == LV_EVENT_KEY) {
 560:lvgl/src/widgets/lv_btnmatrix.c **** 
 561:lvgl/src/widgets/lv_btnmatrix.c ****         invalidate_button_area(obj, btnm->btn_id_sel);
 562:lvgl/src/widgets/lv_btnmatrix.c **** 
 563:lvgl/src/widgets/lv_btnmatrix.c ****         char c = *((char *)lv_event_get_param(e));
 564:lvgl/src/widgets/lv_btnmatrix.c ****         if(c == LV_KEY_RIGHT) {
 565:lvgl/src/widgets/lv_btnmatrix.c ****             if(btnm->btn_id_sel == LV_BTNMATRIX_BTN_NONE)  btnm->btn_id_sel = 0;
 566:lvgl/src/widgets/lv_btnmatrix.c ****             else btnm->btn_id_sel++;
 567:lvgl/src/widgets/lv_btnmatrix.c ****             if(btnm->btn_id_sel >= btnm->btn_cnt) btnm->btn_id_sel = 0;
 568:lvgl/src/widgets/lv_btnmatrix.c **** 
 569:lvgl/src/widgets/lv_btnmatrix.c ****             while(button_is_hidden(btnm->ctrl_bits[btnm->btn_id_sel]) || button_is_inactive(btnm->c
 570:lvgl/src/widgets/lv_btnmatrix.c ****                 btnm->btn_id_sel++;
 571:lvgl/src/widgets/lv_btnmatrix.c ****                 if(btnm->btn_id_sel >= btnm->btn_cnt) btnm->btn_id_sel = 0;
 572:lvgl/src/widgets/lv_btnmatrix.c ****             }
 573:lvgl/src/widgets/lv_btnmatrix.c ****         }
 574:lvgl/src/widgets/lv_btnmatrix.c ****         else if(c == LV_KEY_LEFT) {
 575:lvgl/src/widgets/lv_btnmatrix.c ****             if(btnm->btn_id_sel == LV_BTNMATRIX_BTN_NONE) btnm->btn_id_sel = 0;
 576:lvgl/src/widgets/lv_btnmatrix.c **** 
 577:lvgl/src/widgets/lv_btnmatrix.c ****             if(btnm->btn_id_sel == 0) btnm->btn_id_sel = btnm->btn_cnt - 1;
 578:lvgl/src/widgets/lv_btnmatrix.c ****             else if(btnm->btn_id_sel > 0) btnm->btn_id_sel--;
 579:lvgl/src/widgets/lv_btnmatrix.c **** 
 580:lvgl/src/widgets/lv_btnmatrix.c ****             while(button_is_hidden(btnm->ctrl_bits[btnm->btn_id_sel]) || button_is_inactive(btnm->c
 581:lvgl/src/widgets/lv_btnmatrix.c ****                 if(btnm->btn_id_sel > 0) btnm->btn_id_sel--;
 582:lvgl/src/widgets/lv_btnmatrix.c ****                 else btnm->btn_id_sel = btnm->btn_cnt - 1;
 583:lvgl/src/widgets/lv_btnmatrix.c ****             }
 584:lvgl/src/widgets/lv_btnmatrix.c ****         }
 585:lvgl/src/widgets/lv_btnmatrix.c ****         else if(c == LV_KEY_DOWN) {
 586:lvgl/src/widgets/lv_btnmatrix.c ****             lv_coord_t col_gap = lv_obj_get_style_pad_column(obj, LV_PART_MAIN);
 587:lvgl/src/widgets/lv_btnmatrix.c ****             /*Find the area below the current*/
 588:lvgl/src/widgets/lv_btnmatrix.c ****             if(btnm->btn_id_sel == LV_BTNMATRIX_BTN_NONE) {
 589:lvgl/src/widgets/lv_btnmatrix.c ****                 btnm->btn_id_sel = 0;
 590:lvgl/src/widgets/lv_btnmatrix.c ****                 while(button_is_hidden(btnm->ctrl_bits[btnm->btn_id_sel]) || button_is_inactive(btn
 591:lvgl/src/widgets/lv_btnmatrix.c ****                     btnm->btn_id_sel++;
 592:lvgl/src/widgets/lv_btnmatrix.c ****                     if(btnm->btn_id_sel >= btnm->btn_cnt) btnm->btn_id_sel = 0;
 593:lvgl/src/widgets/lv_btnmatrix.c ****                 }
 594:lvgl/src/widgets/lv_btnmatrix.c ****             }
 595:lvgl/src/widgets/lv_btnmatrix.c ****             else {
 596:lvgl/src/widgets/lv_btnmatrix.c ****                 uint16_t area_below;
 597:lvgl/src/widgets/lv_btnmatrix.c ****                 lv_coord_t pr_center =
 598:lvgl/src/widgets/lv_btnmatrix.c ****                     btnm->button_areas[btnm->btn_id_sel].x1 + (lv_area_get_width(&btnm->button_area
 599:lvgl/src/widgets/lv_btnmatrix.c **** 
 600:lvgl/src/widgets/lv_btnmatrix.c ****                 for(area_below = btnm->btn_id_sel; area_below < btnm->btn_cnt; area_below++) {
 601:lvgl/src/widgets/lv_btnmatrix.c ****                     if(btnm->button_areas[area_below].y1 > btnm->button_areas[btnm->btn_id_sel].y1 
ARM GAS  C:\usertemp\ccuzpgLf.s 			page 12


 602:lvgl/src/widgets/lv_btnmatrix.c ****                        pr_center >= btnm->button_areas[area_below].x1 &&
 603:lvgl/src/widgets/lv_btnmatrix.c ****                        pr_center <= btnm->button_areas[area_below].x2 + col_gap &&
 604:lvgl/src/widgets/lv_btnmatrix.c ****                        button_is_inactive(btnm->ctrl_bits[area_below]) == false &&
 605:lvgl/src/widgets/lv_btnmatrix.c ****                        button_is_hidden(btnm->ctrl_bits[area_below]) == false) {
 606:lvgl/src/widgets/lv_btnmatrix.c ****                         break;
 607:lvgl/src/widgets/lv_btnmatrix.c ****                     }
 608:lvgl/src/widgets/lv_btnmatrix.c ****                 }
 609:lvgl/src/widgets/lv_btnmatrix.c **** 
 610:lvgl/src/widgets/lv_btnmatrix.c ****                 if(area_below < btnm->btn_cnt) btnm->btn_id_sel = area_below;
 611:lvgl/src/widgets/lv_btnmatrix.c ****             }
 612:lvgl/src/widgets/lv_btnmatrix.c ****         }
 613:lvgl/src/widgets/lv_btnmatrix.c ****         else if(c == LV_KEY_UP) {
 614:lvgl/src/widgets/lv_btnmatrix.c ****             lv_coord_t col_gap = lv_obj_get_style_pad_column(obj, LV_PART_MAIN);
 615:lvgl/src/widgets/lv_btnmatrix.c ****             /*Find the area below the current*/
 616:lvgl/src/widgets/lv_btnmatrix.c ****             if(btnm->btn_id_sel == LV_BTNMATRIX_BTN_NONE) {
 617:lvgl/src/widgets/lv_btnmatrix.c ****                 btnm->btn_id_sel = 0;
 618:lvgl/src/widgets/lv_btnmatrix.c ****                 while(button_is_hidden(btnm->ctrl_bits[btnm->btn_id_sel]) || button_is_inactive(btn
 619:lvgl/src/widgets/lv_btnmatrix.c ****                     btnm->btn_id_sel++;
 620:lvgl/src/widgets/lv_btnmatrix.c ****                     if(btnm->btn_id_sel >= btnm->btn_cnt) btnm->btn_id_sel = 0;
 621:lvgl/src/widgets/lv_btnmatrix.c ****                 }
 622:lvgl/src/widgets/lv_btnmatrix.c ****             }
 623:lvgl/src/widgets/lv_btnmatrix.c ****             else {
 624:lvgl/src/widgets/lv_btnmatrix.c ****                 int16_t area_above;
 625:lvgl/src/widgets/lv_btnmatrix.c ****                 lv_coord_t pr_center =
 626:lvgl/src/widgets/lv_btnmatrix.c ****                     btnm->button_areas[btnm->btn_id_sel].x1 + (lv_area_get_width(&btnm->button_area
 627:lvgl/src/widgets/lv_btnmatrix.c **** 
 628:lvgl/src/widgets/lv_btnmatrix.c ****                 for(area_above = btnm->btn_id_sel; area_above >= 0; area_above--) {
 629:lvgl/src/widgets/lv_btnmatrix.c ****                     if(btnm->button_areas[area_above].y1 < btnm->button_areas[btnm->btn_id_sel].y1 
 630:lvgl/src/widgets/lv_btnmatrix.c ****                        pr_center >= btnm->button_areas[area_above].x1 - col_gap &&
 631:lvgl/src/widgets/lv_btnmatrix.c ****                        pr_center <= btnm->button_areas[area_above].x2 &&
 632:lvgl/src/widgets/lv_btnmatrix.c ****                        button_is_inactive(btnm->ctrl_bits[area_above]) == false &&
 633:lvgl/src/widgets/lv_btnmatrix.c ****                        button_is_hidden(btnm->ctrl_bits[area_above]) == false) {
 634:lvgl/src/widgets/lv_btnmatrix.c ****                         break;
 635:lvgl/src/widgets/lv_btnmatrix.c ****                     }
 636:lvgl/src/widgets/lv_btnmatrix.c ****                 }
 637:lvgl/src/widgets/lv_btnmatrix.c ****                 if(area_above >= 0) btnm->btn_id_sel = area_above;
 638:lvgl/src/widgets/lv_btnmatrix.c ****             }
 639:lvgl/src/widgets/lv_btnmatrix.c ****         }
 640:lvgl/src/widgets/lv_btnmatrix.c **** 
 641:lvgl/src/widgets/lv_btnmatrix.c ****         invalidate_button_area(obj, btnm->btn_id_sel);
 642:lvgl/src/widgets/lv_btnmatrix.c ****     }
 643:lvgl/src/widgets/lv_btnmatrix.c ****     else if(code == LV_EVENT_DRAW_MAIN) {
 644:lvgl/src/widgets/lv_btnmatrix.c ****         draw_main(e);
 645:lvgl/src/widgets/lv_btnmatrix.c ****     }
 646:lvgl/src/widgets/lv_btnmatrix.c **** 
 647:lvgl/src/widgets/lv_btnmatrix.c **** }
 648:lvgl/src/widgets/lv_btnmatrix.c **** 
 649:lvgl/src/widgets/lv_btnmatrix.c **** static void draw_main(lv_event_t * e)
 650:lvgl/src/widgets/lv_btnmatrix.c **** {
 651:lvgl/src/widgets/lv_btnmatrix.c ****     lv_obj_t * obj = lv_event_get_target(e);
 652:lvgl/src/widgets/lv_btnmatrix.c ****     lv_btnmatrix_t * btnm = (lv_btnmatrix_t *)obj;
 653:lvgl/src/widgets/lv_btnmatrix.c ****     if(btnm->btn_cnt == 0) return;
 654:lvgl/src/widgets/lv_btnmatrix.c **** 
 655:lvgl/src/widgets/lv_btnmatrix.c ****     lv_draw_ctx_t * draw_ctx = lv_event_get_draw_ctx(e);
 656:lvgl/src/widgets/lv_btnmatrix.c ****     obj->skip_trans = 1;
 657:lvgl/src/widgets/lv_btnmatrix.c **** 
 658:lvgl/src/widgets/lv_btnmatrix.c ****     lv_area_t area_obj;
ARM GAS  C:\usertemp\ccuzpgLf.s 			page 13


 659:lvgl/src/widgets/lv_btnmatrix.c ****     lv_obj_get_coords(obj, &area_obj);
 660:lvgl/src/widgets/lv_btnmatrix.c **** 
 661:lvgl/src/widgets/lv_btnmatrix.c ****     lv_area_t btn_area;
 662:lvgl/src/widgets/lv_btnmatrix.c **** 
 663:lvgl/src/widgets/lv_btnmatrix.c ****     uint16_t btn_i = 0;
 664:lvgl/src/widgets/lv_btnmatrix.c ****     uint16_t txt_i = 0;
 665:lvgl/src/widgets/lv_btnmatrix.c **** 
 666:lvgl/src/widgets/lv_btnmatrix.c ****     lv_draw_rect_dsc_t draw_rect_dsc_act;
 667:lvgl/src/widgets/lv_btnmatrix.c ****     lv_draw_label_dsc_t draw_label_dsc_act;
 668:lvgl/src/widgets/lv_btnmatrix.c **** 
 669:lvgl/src/widgets/lv_btnmatrix.c ****     lv_draw_rect_dsc_t draw_rect_dsc_def;
 670:lvgl/src/widgets/lv_btnmatrix.c ****     lv_draw_label_dsc_t draw_label_dsc_def;
 671:lvgl/src/widgets/lv_btnmatrix.c **** 
 672:lvgl/src/widgets/lv_btnmatrix.c ****     lv_state_t state_ori = obj->state;
 673:lvgl/src/widgets/lv_btnmatrix.c ****     obj->state = LV_STATE_DEFAULT;
 674:lvgl/src/widgets/lv_btnmatrix.c ****     obj->skip_trans = 1;
 675:lvgl/src/widgets/lv_btnmatrix.c ****     lv_draw_rect_dsc_init(&draw_rect_dsc_def);
 676:lvgl/src/widgets/lv_btnmatrix.c ****     lv_draw_label_dsc_init(&draw_label_dsc_def);
 677:lvgl/src/widgets/lv_btnmatrix.c ****     lv_obj_init_draw_rect_dsc(obj, LV_PART_ITEMS, &draw_rect_dsc_def);
 678:lvgl/src/widgets/lv_btnmatrix.c ****     lv_obj_init_draw_label_dsc(obj, LV_PART_ITEMS, &draw_label_dsc_def);
 679:lvgl/src/widgets/lv_btnmatrix.c ****     obj->skip_trans = 0;
 680:lvgl/src/widgets/lv_btnmatrix.c ****     obj->state = state_ori;
 681:lvgl/src/widgets/lv_btnmatrix.c **** 
 682:lvgl/src/widgets/lv_btnmatrix.c ****     lv_coord_t ptop = lv_obj_get_style_pad_top(obj, LV_PART_MAIN);
 683:lvgl/src/widgets/lv_btnmatrix.c ****     lv_coord_t pbottom = lv_obj_get_style_pad_bottom(obj, LV_PART_MAIN);
 684:lvgl/src/widgets/lv_btnmatrix.c ****     lv_coord_t pleft = lv_obj_get_style_pad_left(obj, LV_PART_MAIN);
 685:lvgl/src/widgets/lv_btnmatrix.c ****     lv_coord_t pright = lv_obj_get_style_pad_right(obj, LV_PART_MAIN);
 686:lvgl/src/widgets/lv_btnmatrix.c **** 
 687:lvgl/src/widgets/lv_btnmatrix.c **** #if LV_USE_ARABIC_PERSIAN_CHARS
 688:lvgl/src/widgets/lv_btnmatrix.c ****     const size_t txt_ap_size = 256 ;
 689:lvgl/src/widgets/lv_btnmatrix.c ****     char * txt_ap = lv_mem_buf_get(txt_ap_size);
 690:lvgl/src/widgets/lv_btnmatrix.c **** #endif
 691:lvgl/src/widgets/lv_btnmatrix.c **** 
 692:lvgl/src/widgets/lv_btnmatrix.c ****     lv_obj_draw_part_dsc_t part_draw_dsc;
 693:lvgl/src/widgets/lv_btnmatrix.c ****     lv_obj_draw_dsc_init(&part_draw_dsc, draw_ctx);
 694:lvgl/src/widgets/lv_btnmatrix.c ****     part_draw_dsc.part = LV_PART_ITEMS;
 695:lvgl/src/widgets/lv_btnmatrix.c ****     part_draw_dsc.class_p = MY_CLASS;
 696:lvgl/src/widgets/lv_btnmatrix.c ****     part_draw_dsc.type = LV_BTNMATRIX_DRAW_PART_BTN;
 697:lvgl/src/widgets/lv_btnmatrix.c ****     part_draw_dsc.rect_dsc = &draw_rect_dsc_act;
 698:lvgl/src/widgets/lv_btnmatrix.c ****     part_draw_dsc.label_dsc = &draw_label_dsc_act;
 699:lvgl/src/widgets/lv_btnmatrix.c **** 
 700:lvgl/src/widgets/lv_btnmatrix.c ****     for(btn_i = 0; btn_i < btnm->btn_cnt; btn_i++, txt_i++) {
 701:lvgl/src/widgets/lv_btnmatrix.c ****         /*Search the next valid text in the map*/
 702:lvgl/src/widgets/lv_btnmatrix.c ****         while(strcmp(btnm->map_p[txt_i], "\n") == 0) {
 703:lvgl/src/widgets/lv_btnmatrix.c ****             txt_i++;
 704:lvgl/src/widgets/lv_btnmatrix.c ****         }
 705:lvgl/src/widgets/lv_btnmatrix.c **** 
 706:lvgl/src/widgets/lv_btnmatrix.c ****         /*Skip hidden buttons*/
 707:lvgl/src/widgets/lv_btnmatrix.c ****         if(button_is_hidden(btnm->ctrl_bits[btn_i])) continue;
 708:lvgl/src/widgets/lv_btnmatrix.c **** 
 709:lvgl/src/widgets/lv_btnmatrix.c ****         /*Get the state of the button*/
 710:lvgl/src/widgets/lv_btnmatrix.c ****         lv_state_t btn_state = LV_STATE_DEFAULT;
 711:lvgl/src/widgets/lv_btnmatrix.c ****         if(button_get_checked(btnm->ctrl_bits[btn_i])) btn_state |= LV_STATE_CHECKED;
 712:lvgl/src/widgets/lv_btnmatrix.c **** 
 713:lvgl/src/widgets/lv_btnmatrix.c ****         if(button_is_inactive(btnm->ctrl_bits[btn_i])) btn_state |= LV_STATE_DISABLED;
 714:lvgl/src/widgets/lv_btnmatrix.c ****         else if(btn_i == btnm->btn_id_sel) {
 715:lvgl/src/widgets/lv_btnmatrix.c ****             if(state_ori & LV_STATE_PRESSED) btn_state |= LV_STATE_PRESSED;
ARM GAS  C:\usertemp\ccuzpgLf.s 			page 14


 716:lvgl/src/widgets/lv_btnmatrix.c ****             if(state_ori & LV_STATE_FOCUSED) btn_state |= LV_STATE_FOCUSED;
 717:lvgl/src/widgets/lv_btnmatrix.c ****             if(state_ori & LV_STATE_FOCUS_KEY) btn_state |= LV_STATE_FOCUS_KEY;
 718:lvgl/src/widgets/lv_btnmatrix.c ****             if(state_ori & LV_STATE_EDITED) btn_state |= LV_STATE_EDITED;
 719:lvgl/src/widgets/lv_btnmatrix.c ****         }
 720:lvgl/src/widgets/lv_btnmatrix.c **** 
 721:lvgl/src/widgets/lv_btnmatrix.c ****         /*Get the button's area*/
 722:lvgl/src/widgets/lv_btnmatrix.c ****         lv_area_copy(&btn_area, &btnm->button_areas[btn_i]);
 723:lvgl/src/widgets/lv_btnmatrix.c ****         btn_area.x1 += area_obj.x1;
 724:lvgl/src/widgets/lv_btnmatrix.c ****         btn_area.y1 += area_obj.y1;
 725:lvgl/src/widgets/lv_btnmatrix.c ****         btn_area.x2 += area_obj.x1;
 726:lvgl/src/widgets/lv_btnmatrix.c ****         btn_area.y2 += area_obj.y1;
 727:lvgl/src/widgets/lv_btnmatrix.c **** 
 728:lvgl/src/widgets/lv_btnmatrix.c ****         /*Set up the draw descriptors*/
 729:lvgl/src/widgets/lv_btnmatrix.c ****         if(btn_state == LV_STATE_DEFAULT) {
 730:lvgl/src/widgets/lv_btnmatrix.c ****             lv_memcpy(&draw_rect_dsc_act, &draw_rect_dsc_def, sizeof(lv_draw_rect_dsc_t));
 731:lvgl/src/widgets/lv_btnmatrix.c ****             lv_memcpy(&draw_label_dsc_act, &draw_label_dsc_def, sizeof(lv_draw_label_dsc_t));
 732:lvgl/src/widgets/lv_btnmatrix.c ****         }
 733:lvgl/src/widgets/lv_btnmatrix.c ****         /*In other cases get the styles directly without caching them*/
 734:lvgl/src/widgets/lv_btnmatrix.c ****         else {
 735:lvgl/src/widgets/lv_btnmatrix.c ****             obj->state = btn_state;
 736:lvgl/src/widgets/lv_btnmatrix.c ****             obj->skip_trans = 1;
 737:lvgl/src/widgets/lv_btnmatrix.c ****             lv_draw_rect_dsc_init(&draw_rect_dsc_act);
 738:lvgl/src/widgets/lv_btnmatrix.c ****             lv_draw_label_dsc_init(&draw_label_dsc_act);
 739:lvgl/src/widgets/lv_btnmatrix.c ****             lv_obj_init_draw_rect_dsc(obj, LV_PART_ITEMS, &draw_rect_dsc_act);
 740:lvgl/src/widgets/lv_btnmatrix.c ****             lv_obj_init_draw_label_dsc(obj, LV_PART_ITEMS, &draw_label_dsc_act);
 741:lvgl/src/widgets/lv_btnmatrix.c ****             obj->state = state_ori;
 742:lvgl/src/widgets/lv_btnmatrix.c ****             obj->skip_trans = 0;
 743:lvgl/src/widgets/lv_btnmatrix.c ****         }
 744:lvgl/src/widgets/lv_btnmatrix.c **** 
 745:lvgl/src/widgets/lv_btnmatrix.c ****         bool recolor = button_is_recolor(btnm->ctrl_bits[btn_i]);
 746:lvgl/src/widgets/lv_btnmatrix.c ****         if(recolor) draw_label_dsc_act.flag |= LV_TEXT_FLAG_RECOLOR;
 747:lvgl/src/widgets/lv_btnmatrix.c ****         else draw_label_dsc_act.flag &= ~LV_TEXT_FLAG_RECOLOR;
 748:lvgl/src/widgets/lv_btnmatrix.c **** 
 749:lvgl/src/widgets/lv_btnmatrix.c **** 
 750:lvgl/src/widgets/lv_btnmatrix.c ****         part_draw_dsc.draw_area = &btn_area;
 751:lvgl/src/widgets/lv_btnmatrix.c ****         part_draw_dsc.id = btn_i;
 752:lvgl/src/widgets/lv_btnmatrix.c ****         lv_event_send(obj, LV_EVENT_DRAW_PART_BEGIN, &part_draw_dsc);
 753:lvgl/src/widgets/lv_btnmatrix.c **** 
 754:lvgl/src/widgets/lv_btnmatrix.c ****         /*Remove borders on the edges if `LV_BORDER_SIDE_INTERNAL`*/
 755:lvgl/src/widgets/lv_btnmatrix.c ****         if(draw_rect_dsc_act.border_side & LV_BORDER_SIDE_INTERNAL) {
 756:lvgl/src/widgets/lv_btnmatrix.c ****             draw_rect_dsc_act.border_side = LV_BORDER_SIDE_FULL;
 757:lvgl/src/widgets/lv_btnmatrix.c ****             if(btn_area.x1 == obj->coords.x1 + pleft) draw_rect_dsc_act.border_side &= ~LV_BORDER_S
 758:lvgl/src/widgets/lv_btnmatrix.c ****             if(btn_area.x2 == obj->coords.x2 - pright) draw_rect_dsc_act.border_side &= ~LV_BORDER_
 759:lvgl/src/widgets/lv_btnmatrix.c ****             if(btn_area.y1 == obj->coords.y1 + ptop) draw_rect_dsc_act.border_side &= ~LV_BORDER_SI
 760:lvgl/src/widgets/lv_btnmatrix.c ****             if(btn_area.y2 == obj->coords.y2 - pbottom) draw_rect_dsc_act.border_side &= ~LV_BORDER
 761:lvgl/src/widgets/lv_btnmatrix.c ****         }
 762:lvgl/src/widgets/lv_btnmatrix.c **** 
 763:lvgl/src/widgets/lv_btnmatrix.c ****         lv_coord_t btn_height = lv_area_get_height(&btn_area);
 764:lvgl/src/widgets/lv_btnmatrix.c **** 
 765:lvgl/src/widgets/lv_btnmatrix.c ****         if((btn_state & LV_STATE_PRESSED) && (btnm->ctrl_bits[btn_i] & LV_BTNMATRIX_CTRL_POPOVER)) 
 766:lvgl/src/widgets/lv_btnmatrix.c ****             /*Push up the upper boundary of the btn area to create the popover*/
 767:lvgl/src/widgets/lv_btnmatrix.c ****             btn_area.y1 -= btn_height;
 768:lvgl/src/widgets/lv_btnmatrix.c ****         }
 769:lvgl/src/widgets/lv_btnmatrix.c **** 
 770:lvgl/src/widgets/lv_btnmatrix.c ****         /*Draw the background*/
 771:lvgl/src/widgets/lv_btnmatrix.c ****         lv_draw_rect(draw_ctx, &draw_rect_dsc_act, &btn_area);
 772:lvgl/src/widgets/lv_btnmatrix.c **** 
ARM GAS  C:\usertemp\ccuzpgLf.s 			page 15


 773:lvgl/src/widgets/lv_btnmatrix.c ****         /*Calculate the size of the text*/
 774:lvgl/src/widgets/lv_btnmatrix.c ****         const lv_font_t * font = draw_label_dsc_act.font;
 775:lvgl/src/widgets/lv_btnmatrix.c ****         lv_coord_t letter_space = draw_label_dsc_act.letter_space;
 776:lvgl/src/widgets/lv_btnmatrix.c ****         lv_coord_t line_space = draw_label_dsc_act.line_space;
 777:lvgl/src/widgets/lv_btnmatrix.c ****         const char * txt = btnm->map_p[txt_i];
 778:lvgl/src/widgets/lv_btnmatrix.c **** 
 779:lvgl/src/widgets/lv_btnmatrix.c **** #if LV_USE_ARABIC_PERSIAN_CHARS
 780:lvgl/src/widgets/lv_btnmatrix.c ****         /*Get the size of the Arabic text and process it*/
 781:lvgl/src/widgets/lv_btnmatrix.c ****         size_t len_ap = _lv_txt_ap_calc_bytes_cnt(txt);
 782:lvgl/src/widgets/lv_btnmatrix.c ****         if(len_ap < txt_ap_size) {
 783:lvgl/src/widgets/lv_btnmatrix.c ****             _lv_txt_ap_proc(txt, txt_ap);
 784:lvgl/src/widgets/lv_btnmatrix.c ****             txt = txt_ap;
 785:lvgl/src/widgets/lv_btnmatrix.c ****         }
 786:lvgl/src/widgets/lv_btnmatrix.c **** #endif
 787:lvgl/src/widgets/lv_btnmatrix.c ****         lv_point_t txt_size;
 788:lvgl/src/widgets/lv_btnmatrix.c ****         lv_txt_get_size(&txt_size, txt, font, letter_space,
 789:lvgl/src/widgets/lv_btnmatrix.c ****                         line_space, lv_area_get_width(&area_obj), draw_label_dsc_act.flag);
 790:lvgl/src/widgets/lv_btnmatrix.c **** 
 791:lvgl/src/widgets/lv_btnmatrix.c ****         btn_area.x1 += (lv_area_get_width(&btn_area) - txt_size.x) / 2;
 792:lvgl/src/widgets/lv_btnmatrix.c ****         btn_area.y1 += (lv_area_get_height(&btn_area) - txt_size.y) / 2;
 793:lvgl/src/widgets/lv_btnmatrix.c ****         btn_area.x2 = btn_area.x1 + txt_size.x;
 794:lvgl/src/widgets/lv_btnmatrix.c ****         btn_area.y2 = btn_area.y1 + txt_size.y;
 795:lvgl/src/widgets/lv_btnmatrix.c **** 
 796:lvgl/src/widgets/lv_btnmatrix.c ****         if((btn_state & LV_STATE_PRESSED) && (btnm->ctrl_bits[btn_i] & LV_BTNMATRIX_CTRL_POPOVER)) 
 797:lvgl/src/widgets/lv_btnmatrix.c ****             /*Push up the button text into the popover*/
 798:lvgl/src/widgets/lv_btnmatrix.c ****             btn_area.y1 -= btn_height / 2;
 799:lvgl/src/widgets/lv_btnmatrix.c ****             btn_area.y2 -= btn_height / 2;
 800:lvgl/src/widgets/lv_btnmatrix.c ****         }
 801:lvgl/src/widgets/lv_btnmatrix.c **** 
 802:lvgl/src/widgets/lv_btnmatrix.c ****         /*Draw the text*/
 803:lvgl/src/widgets/lv_btnmatrix.c ****         lv_draw_label(draw_ctx, &draw_label_dsc_act, &btn_area, txt, NULL);
 804:lvgl/src/widgets/lv_btnmatrix.c **** 
 805:lvgl/src/widgets/lv_btnmatrix.c ****         lv_event_send(obj, LV_EVENT_DRAW_PART_END, &part_draw_dsc);
 806:lvgl/src/widgets/lv_btnmatrix.c ****     }
 807:lvgl/src/widgets/lv_btnmatrix.c **** 
 808:lvgl/src/widgets/lv_btnmatrix.c ****     obj->skip_trans = 0;
 809:lvgl/src/widgets/lv_btnmatrix.c **** #if LV_USE_ARABIC_PERSIAN_CHARS
 810:lvgl/src/widgets/lv_btnmatrix.c ****     lv_mem_buf_release(txt_ap);
 811:lvgl/src/widgets/lv_btnmatrix.c **** #endif
 812:lvgl/src/widgets/lv_btnmatrix.c **** }
 813:lvgl/src/widgets/lv_btnmatrix.c **** /**
 814:lvgl/src/widgets/lv_btnmatrix.c ****  * Create the required number of buttons and control bytes according to a map
 815:lvgl/src/widgets/lv_btnmatrix.c ****  * @param obj pointer to button matrix object
 816:lvgl/src/widgets/lv_btnmatrix.c ****  * @param map_p pointer to a string array
 817:lvgl/src/widgets/lv_btnmatrix.c ****  */
 818:lvgl/src/widgets/lv_btnmatrix.c **** static void allocate_btn_areas_and_controls(const lv_obj_t * obj, const char ** map)
 819:lvgl/src/widgets/lv_btnmatrix.c **** {
 820:lvgl/src/widgets/lv_btnmatrix.c ****     lv_btnmatrix_t * btnm = (lv_btnmatrix_t *)obj;
 821:lvgl/src/widgets/lv_btnmatrix.c ****     btnm->row_cnt = 1;
 822:lvgl/src/widgets/lv_btnmatrix.c ****     /*Count the buttons in the map*/
 823:lvgl/src/widgets/lv_btnmatrix.c ****     uint16_t btn_cnt = 0;
 824:lvgl/src/widgets/lv_btnmatrix.c ****     uint16_t i       = 0;
 825:lvgl/src/widgets/lv_btnmatrix.c ****     while(map[i] && map[i][0] != '\0') {
 826:lvgl/src/widgets/lv_btnmatrix.c ****         if(strcmp(map[i], "\n") != 0) { /*Do not count line breaks*/
 827:lvgl/src/widgets/lv_btnmatrix.c ****             btn_cnt++;
 828:lvgl/src/widgets/lv_btnmatrix.c ****         }
 829:lvgl/src/widgets/lv_btnmatrix.c ****         else {
ARM GAS  C:\usertemp\ccuzpgLf.s 			page 16


 830:lvgl/src/widgets/lv_btnmatrix.c ****             btnm->row_cnt++;
 831:lvgl/src/widgets/lv_btnmatrix.c ****         }
 832:lvgl/src/widgets/lv_btnmatrix.c ****         i++;
 833:lvgl/src/widgets/lv_btnmatrix.c ****     }
 834:lvgl/src/widgets/lv_btnmatrix.c **** 
 835:lvgl/src/widgets/lv_btnmatrix.c ****     /*Do not allocate memory for the same amount of buttons*/
 836:lvgl/src/widgets/lv_btnmatrix.c ****     if(btn_cnt == btnm->btn_cnt) return;
 837:lvgl/src/widgets/lv_btnmatrix.c **** 
 838:lvgl/src/widgets/lv_btnmatrix.c ****     if(btnm->button_areas != NULL) {
 839:lvgl/src/widgets/lv_btnmatrix.c ****         lv_mem_free(btnm->button_areas);
 840:lvgl/src/widgets/lv_btnmatrix.c ****         btnm->button_areas = NULL;
 841:lvgl/src/widgets/lv_btnmatrix.c ****     }
 842:lvgl/src/widgets/lv_btnmatrix.c ****     if(btnm->ctrl_bits != NULL) {
 843:lvgl/src/widgets/lv_btnmatrix.c ****         lv_mem_free(btnm->ctrl_bits);
 844:lvgl/src/widgets/lv_btnmatrix.c ****         btnm->ctrl_bits = NULL;
 845:lvgl/src/widgets/lv_btnmatrix.c ****     }
 846:lvgl/src/widgets/lv_btnmatrix.c **** 
 847:lvgl/src/widgets/lv_btnmatrix.c ****     btnm->button_areas = lv_mem_alloc(sizeof(lv_area_t) * btn_cnt);
 848:lvgl/src/widgets/lv_btnmatrix.c ****     LV_ASSERT_MALLOC(btnm->button_areas);
 849:lvgl/src/widgets/lv_btnmatrix.c ****     btnm->ctrl_bits = lv_mem_alloc(sizeof(lv_btnmatrix_ctrl_t) * btn_cnt);
 850:lvgl/src/widgets/lv_btnmatrix.c ****     LV_ASSERT_MALLOC(btnm->ctrl_bits);
 851:lvgl/src/widgets/lv_btnmatrix.c ****     if(btnm->button_areas == NULL || btnm->ctrl_bits == NULL) btn_cnt = 0;
 852:lvgl/src/widgets/lv_btnmatrix.c **** 
 853:lvgl/src/widgets/lv_btnmatrix.c ****     lv_memset_00(btnm->ctrl_bits, sizeof(lv_btnmatrix_ctrl_t) * btn_cnt);
 854:lvgl/src/widgets/lv_btnmatrix.c **** 
 855:lvgl/src/widgets/lv_btnmatrix.c ****     btnm->btn_cnt = btn_cnt;
 856:lvgl/src/widgets/lv_btnmatrix.c **** }
 857:lvgl/src/widgets/lv_btnmatrix.c **** 
 858:lvgl/src/widgets/lv_btnmatrix.c **** /**
 859:lvgl/src/widgets/lv_btnmatrix.c ****  * Get the width of a button in units (default is 1).
 860:lvgl/src/widgets/lv_btnmatrix.c ****  * @param ctrl_bits least significant 3 bits used (1..7 valid values)
 861:lvgl/src/widgets/lv_btnmatrix.c ****  * @return the width of the button in units
 862:lvgl/src/widgets/lv_btnmatrix.c ****  */
 863:lvgl/src/widgets/lv_btnmatrix.c **** static uint8_t get_button_width(lv_btnmatrix_ctrl_t ctrl_bits)
 864:lvgl/src/widgets/lv_btnmatrix.c **** {
  28              		.loc 1 864 1 view -0
  29              		.cfi_startproc
  30              		@ args = 0, pretend = 0, frame = 0
  31              		@ frame_needed = 0, uses_anonymous_args = 0
  32              		@ link register save eliminated.
 865:lvgl/src/widgets/lv_btnmatrix.c ****     uint8_t w = ctrl_bits & LV_BTNMATRIX_WIDTH_MASK;
  33              		.loc 1 865 5 view .LVU1
 866:lvgl/src/widgets/lv_btnmatrix.c ****     return w != 0 ? w : 1;
  34              		.loc 1 866 5 view .LVU2
  35              		.loc 1 866 23 is_stmt 0 view .LVU3
  36 0000 10F00700 		ands	r0, r0, #7
  37              	.LVL1:
  38              		.loc 1 866 23 view .LVU4
  39 0004 00D1     		bne	.L2
  40              		.loc 1 866 23 discriminator 2 view .LVU5
  41 0006 0120     		movs	r0, #1
  42              	.L2:
 867:lvgl/src/widgets/lv_btnmatrix.c **** }
  43              		.loc 1 867 1 view .LVU6
  44 0008 7047     		bx	lr
  45              		.cfi_endproc
  46              	.LFE176:
ARM GAS  C:\usertemp\ccuzpgLf.s 			page 17


  48              		.section	.text.button_is_hidden,"ax",%progbits
  49              		.align	1
  50              		.syntax unified
  51              		.thumb
  52              		.thumb_func
  54              	button_is_hidden:
  55              	.LVL2:
  56              	.LFB177:
 868:lvgl/src/widgets/lv_btnmatrix.c **** 
 869:lvgl/src/widgets/lv_btnmatrix.c **** static bool button_is_hidden(lv_btnmatrix_ctrl_t ctrl_bits)
 870:lvgl/src/widgets/lv_btnmatrix.c **** {
  57              		.loc 1 870 1 is_stmt 1 view -0
  58              		.cfi_startproc
  59              		@ args = 0, pretend = 0, frame = 0
  60              		@ frame_needed = 0, uses_anonymous_args = 0
  61              		@ link register save eliminated.
 871:lvgl/src/widgets/lv_btnmatrix.c ****     return (ctrl_bits & LV_BTNMATRIX_CTRL_HIDDEN) ? true : false;
  62              		.loc 1 871 5 view .LVU8
 872:lvgl/src/widgets/lv_btnmatrix.c **** }
  63              		.loc 1 872 1 is_stmt 0 view .LVU9
  64 0000 C0F3C000 		ubfx	r0, r0, #3, #1
  65              	.LVL3:
  66              		.loc 1 872 1 view .LVU10
  67 0004 7047     		bx	lr
  68              		.cfi_endproc
  69              	.LFE177:
  71              		.section	.text.button_is_checked,"ax",%progbits
  72              		.align	1
  73              		.syntax unified
  74              		.thumb
  75              		.thumb_func
  77              	button_is_checked:
  78              	.LVL4:
  79              	.LFB178:
 873:lvgl/src/widgets/lv_btnmatrix.c **** 
 874:lvgl/src/widgets/lv_btnmatrix.c **** static bool button_is_checked(lv_btnmatrix_ctrl_t ctrl_bits)
 875:lvgl/src/widgets/lv_btnmatrix.c **** {
  80              		.loc 1 875 1 is_stmt 1 view -0
  81              		.cfi_startproc
  82              		@ args = 0, pretend = 0, frame = 0
  83              		@ frame_needed = 0, uses_anonymous_args = 0
  84              		@ link register save eliminated.
 876:lvgl/src/widgets/lv_btnmatrix.c ****     return (ctrl_bits & LV_BTNMATRIX_CTRL_CHECKED) ? true : false;
  85              		.loc 1 876 5 view .LVU12
 877:lvgl/src/widgets/lv_btnmatrix.c **** }
  86              		.loc 1 877 1 is_stmt 0 view .LVU13
  87 0000 C0F3C010 		ubfx	r0, r0, #7, #1
  88              	.LVL5:
  89              		.loc 1 877 1 view .LVU14
  90 0004 7047     		bx	lr
  91              		.cfi_endproc
  92              	.LFE178:
  94              		.section	.text.button_is_repeat_disabled,"ax",%progbits
  95              		.align	1
  96              		.syntax unified
  97              		.thumb
  98              		.thumb_func
ARM GAS  C:\usertemp\ccuzpgLf.s 			page 18


 100              	button_is_repeat_disabled:
 101              	.LVL6:
 102              	.LFB179:
 878:lvgl/src/widgets/lv_btnmatrix.c **** 
 879:lvgl/src/widgets/lv_btnmatrix.c **** static bool button_is_repeat_disabled(lv_btnmatrix_ctrl_t ctrl_bits)
 880:lvgl/src/widgets/lv_btnmatrix.c **** {
 103              		.loc 1 880 1 is_stmt 1 view -0
 104              		.cfi_startproc
 105              		@ args = 0, pretend = 0, frame = 0
 106              		@ frame_needed = 0, uses_anonymous_args = 0
 107              		@ link register save eliminated.
 881:lvgl/src/widgets/lv_btnmatrix.c ****     return (ctrl_bits & LV_BTNMATRIX_CTRL_NO_REPEAT) ? true : false;
 108              		.loc 1 881 5 view .LVU16
 882:lvgl/src/widgets/lv_btnmatrix.c **** }
 109              		.loc 1 882 1 is_stmt 0 view .LVU17
 110 0000 C0F30010 		ubfx	r0, r0, #4, #1
 111              	.LVL7:
 112              		.loc 1 882 1 view .LVU18
 113 0004 7047     		bx	lr
 114              		.cfi_endproc
 115              	.LFE179:
 117              		.section	.text.button_is_inactive,"ax",%progbits
 118              		.align	1
 119              		.syntax unified
 120              		.thumb
 121              		.thumb_func
 123              	button_is_inactive:
 124              	.LVL8:
 125              	.LFB180:
 883:lvgl/src/widgets/lv_btnmatrix.c **** 
 884:lvgl/src/widgets/lv_btnmatrix.c **** static bool button_is_inactive(lv_btnmatrix_ctrl_t ctrl_bits)
 885:lvgl/src/widgets/lv_btnmatrix.c **** {
 126              		.loc 1 885 1 is_stmt 1 view -0
 127              		.cfi_startproc
 128              		@ args = 0, pretend = 0, frame = 0
 129              		@ frame_needed = 0, uses_anonymous_args = 0
 130              		@ link register save eliminated.
 886:lvgl/src/widgets/lv_btnmatrix.c ****     return (ctrl_bits & LV_BTNMATRIX_CTRL_DISABLED) ? true : false;
 131              		.loc 1 886 5 view .LVU20
 887:lvgl/src/widgets/lv_btnmatrix.c **** }
 132              		.loc 1 887 1 is_stmt 0 view .LVU21
 133 0000 C0F34010 		ubfx	r0, r0, #5, #1
 134              	.LVL9:
 135              		.loc 1 887 1 view .LVU22
 136 0004 7047     		bx	lr
 137              		.cfi_endproc
 138              	.LFE180:
 140              		.section	.text.button_is_click_trig,"ax",%progbits
 141              		.align	1
 142              		.syntax unified
 143              		.thumb
 144              		.thumb_func
 146              	button_is_click_trig:
 147              	.LVL10:
 148              	.LFB181:
 888:lvgl/src/widgets/lv_btnmatrix.c **** 
 889:lvgl/src/widgets/lv_btnmatrix.c **** static bool button_is_click_trig(lv_btnmatrix_ctrl_t ctrl_bits)
ARM GAS  C:\usertemp\ccuzpgLf.s 			page 19


 890:lvgl/src/widgets/lv_btnmatrix.c **** {
 149              		.loc 1 890 1 is_stmt 1 view -0
 150              		.cfi_startproc
 151              		@ args = 0, pretend = 0, frame = 0
 152              		@ frame_needed = 0, uses_anonymous_args = 0
 153              		@ link register save eliminated.
 891:lvgl/src/widgets/lv_btnmatrix.c ****     return (ctrl_bits & LV_BTNMATRIX_CTRL_CLICK_TRIG) ? true : false;
 154              		.loc 1 891 5 view .LVU24
 892:lvgl/src/widgets/lv_btnmatrix.c **** }
 155              		.loc 1 892 1 is_stmt 0 view .LVU25
 156 0000 C0F30020 		ubfx	r0, r0, #8, #1
 157              	.LVL11:
 158              		.loc 1 892 1 view .LVU26
 159 0004 7047     		bx	lr
 160              		.cfi_endproc
 161              	.LFE181:
 163              		.section	.text.button_is_popover,"ax",%progbits
 164              		.align	1
 165              		.syntax unified
 166              		.thumb
 167              		.thumb_func
 169              	button_is_popover:
 170              	.LVL12:
 171              	.LFB182:
 893:lvgl/src/widgets/lv_btnmatrix.c **** 
 894:lvgl/src/widgets/lv_btnmatrix.c **** static bool button_is_popover(lv_btnmatrix_ctrl_t ctrl_bits)
 895:lvgl/src/widgets/lv_btnmatrix.c **** {
 172              		.loc 1 895 1 is_stmt 1 view -0
 173              		.cfi_startproc
 174              		@ args = 0, pretend = 0, frame = 0
 175              		@ frame_needed = 0, uses_anonymous_args = 0
 176              		@ link register save eliminated.
 896:lvgl/src/widgets/lv_btnmatrix.c ****     return (ctrl_bits & LV_BTNMATRIX_CTRL_POPOVER) ? true : false;
 177              		.loc 1 896 5 view .LVU28
 897:lvgl/src/widgets/lv_btnmatrix.c **** }
 178              		.loc 1 897 1 is_stmt 0 view .LVU29
 179 0000 C0F34020 		ubfx	r0, r0, #9, #1
 180              	.LVL13:
 181              		.loc 1 897 1 view .LVU30
 182 0004 7047     		bx	lr
 183              		.cfi_endproc
 184              	.LFE182:
 186              		.section	.text.button_is_checkable,"ax",%progbits
 187              		.align	1
 188              		.syntax unified
 189              		.thumb
 190              		.thumb_func
 192              	button_is_checkable:
 193              	.LVL14:
 194              	.LFB183:
 898:lvgl/src/widgets/lv_btnmatrix.c **** 
 899:lvgl/src/widgets/lv_btnmatrix.c **** static bool button_is_checkable(lv_btnmatrix_ctrl_t ctrl_bits)
 900:lvgl/src/widgets/lv_btnmatrix.c **** {
 195              		.loc 1 900 1 is_stmt 1 view -0
 196              		.cfi_startproc
 197              		@ args = 0, pretend = 0, frame = 0
 198              		@ frame_needed = 0, uses_anonymous_args = 0
ARM GAS  C:\usertemp\ccuzpgLf.s 			page 20


 199              		@ link register save eliminated.
 901:lvgl/src/widgets/lv_btnmatrix.c ****     return (ctrl_bits & LV_BTNMATRIX_CTRL_CHECKABLE) ? true : false;
 200              		.loc 1 901 5 view .LVU32
 902:lvgl/src/widgets/lv_btnmatrix.c **** }
 201              		.loc 1 902 1 is_stmt 0 view .LVU33
 202 0000 C0F38010 		ubfx	r0, r0, #6, #1
 203              	.LVL15:
 204              		.loc 1 902 1 view .LVU34
 205 0004 7047     		bx	lr
 206              		.cfi_endproc
 207              	.LFE183:
 209              		.section	.text.button_get_checked,"ax",%progbits
 210              		.align	1
 211              		.syntax unified
 212              		.thumb
 213              		.thumb_func
 215              	button_get_checked:
 216              	.LVL16:
 217              	.LFB184:
 903:lvgl/src/widgets/lv_btnmatrix.c **** 
 904:lvgl/src/widgets/lv_btnmatrix.c **** static bool button_get_checked(lv_btnmatrix_ctrl_t ctrl_bits)
 905:lvgl/src/widgets/lv_btnmatrix.c **** {
 218              		.loc 1 905 1 is_stmt 1 view -0
 219              		.cfi_startproc
 220              		@ args = 0, pretend = 0, frame = 0
 221              		@ frame_needed = 0, uses_anonymous_args = 0
 222              		@ link register save eliminated.
 906:lvgl/src/widgets/lv_btnmatrix.c ****     return (ctrl_bits & LV_BTNMATRIX_CTRL_CHECKED) ? true : false;
 223              		.loc 1 906 5 view .LVU36
 907:lvgl/src/widgets/lv_btnmatrix.c **** }
 224              		.loc 1 907 1 is_stmt 0 view .LVU37
 225 0000 C0F3C010 		ubfx	r0, r0, #7, #1
 226              	.LVL17:
 227              		.loc 1 907 1 view .LVU38
 228 0004 7047     		bx	lr
 229              		.cfi_endproc
 230              	.LFE184:
 232              		.section	.text.button_is_recolor,"ax",%progbits
 233              		.align	1
 234              		.syntax unified
 235              		.thumb
 236              		.thumb_func
 238              	button_is_recolor:
 239              	.LVL18:
 240              	.LFB185:
 908:lvgl/src/widgets/lv_btnmatrix.c **** 
 909:lvgl/src/widgets/lv_btnmatrix.c **** static bool button_is_recolor(lv_btnmatrix_ctrl_t ctrl_bits)
 910:lvgl/src/widgets/lv_btnmatrix.c **** {
 241              		.loc 1 910 1 is_stmt 1 view -0
 242              		.cfi_startproc
 243              		@ args = 0, pretend = 0, frame = 0
 244              		@ frame_needed = 0, uses_anonymous_args = 0
 245              		@ link register save eliminated.
 911:lvgl/src/widgets/lv_btnmatrix.c ****     return (ctrl_bits & LV_BTNMATRIX_CTRL_RECOLOR) ? true : false;
 246              		.loc 1 911 5 view .LVU40
 912:lvgl/src/widgets/lv_btnmatrix.c **** }
 247              		.loc 1 912 1 is_stmt 0 view .LVU41
ARM GAS  C:\usertemp\ccuzpgLf.s 			page 21


 248 0000 C0F30030 		ubfx	r0, r0, #12, #1
 249              	.LVL19:
 250              		.loc 1 912 1 view .LVU42
 251 0004 7047     		bx	lr
 252              		.cfi_endproc
 253              	.LFE185:
 255              		.section	.rodata.has_popovers_in_top_row.str1.4,"aMS",%progbits,1
 256              		.align	2
 257              	.LC0:
 258 0000 0A00     		.ascii	"\012\000"
 259              		.section	.text.has_popovers_in_top_row,"ax",%progbits
 260              		.align	1
 261              		.syntax unified
 262              		.thumb
 263              		.thumb_func
 265              	has_popovers_in_top_row:
 266              	.LVL20:
 267              	.LFB189:
 913:lvgl/src/widgets/lv_btnmatrix.c **** /**
 914:lvgl/src/widgets/lv_btnmatrix.c ****  * Gives the button id of a button under a given point
 915:lvgl/src/widgets/lv_btnmatrix.c ****  * @param obj pointer to a button matrix object
 916:lvgl/src/widgets/lv_btnmatrix.c ****  * @param p a point with absolute coordinates
 917:lvgl/src/widgets/lv_btnmatrix.c ****  * @return the id of the button or LV_BTNMATRIX_BTN_NONE.
 918:lvgl/src/widgets/lv_btnmatrix.c ****  */
 919:lvgl/src/widgets/lv_btnmatrix.c **** static uint16_t get_button_from_point(lv_obj_t * obj, lv_point_t * p)
 920:lvgl/src/widgets/lv_btnmatrix.c **** {
 921:lvgl/src/widgets/lv_btnmatrix.c ****     lv_area_t obj_cords;
 922:lvgl/src/widgets/lv_btnmatrix.c ****     lv_area_t btn_area;
 923:lvgl/src/widgets/lv_btnmatrix.c ****     lv_btnmatrix_t * btnm = (lv_btnmatrix_t *)obj;;
 924:lvgl/src/widgets/lv_btnmatrix.c ****     uint16_t i;
 925:lvgl/src/widgets/lv_btnmatrix.c ****     lv_obj_get_coords(obj, &obj_cords);
 926:lvgl/src/widgets/lv_btnmatrix.c **** 
 927:lvgl/src/widgets/lv_btnmatrix.c ****     lv_coord_t w = lv_obj_get_width(obj);
 928:lvgl/src/widgets/lv_btnmatrix.c ****     lv_coord_t h = lv_obj_get_height(obj);
 929:lvgl/src/widgets/lv_btnmatrix.c ****     lv_coord_t pleft = lv_obj_get_style_pad_left(obj, LV_PART_MAIN);
 930:lvgl/src/widgets/lv_btnmatrix.c ****     lv_coord_t pright = lv_obj_get_style_pad_right(obj, LV_PART_MAIN);
 931:lvgl/src/widgets/lv_btnmatrix.c ****     lv_coord_t ptop = lv_obj_get_style_pad_top(obj, LV_PART_MAIN);
 932:lvgl/src/widgets/lv_btnmatrix.c ****     lv_coord_t pbottom = lv_obj_get_style_pad_bottom(obj, LV_PART_MAIN);
 933:lvgl/src/widgets/lv_btnmatrix.c ****     lv_coord_t prow = lv_obj_get_style_pad_row(obj, LV_PART_MAIN);
 934:lvgl/src/widgets/lv_btnmatrix.c ****     lv_coord_t pcol = lv_obj_get_style_pad_column(obj, LV_PART_MAIN);
 935:lvgl/src/widgets/lv_btnmatrix.c **** 
 936:lvgl/src/widgets/lv_btnmatrix.c ****     /*Get the half gap. Button look larger with this value. (+1 for rounding error)*/
 937:lvgl/src/widgets/lv_btnmatrix.c ****     prow = (prow / 2) + 1 + (prow & 1);
 938:lvgl/src/widgets/lv_btnmatrix.c ****     pcol = (pcol / 2) + 1 + (pcol & 1);
 939:lvgl/src/widgets/lv_btnmatrix.c **** 
 940:lvgl/src/widgets/lv_btnmatrix.c ****     prow = LV_MIN(prow, BTN_EXTRA_CLICK_AREA_MAX);
 941:lvgl/src/widgets/lv_btnmatrix.c ****     pcol = LV_MIN(pcol, BTN_EXTRA_CLICK_AREA_MAX);
 942:lvgl/src/widgets/lv_btnmatrix.c ****     pright = LV_MIN(pright, BTN_EXTRA_CLICK_AREA_MAX);
 943:lvgl/src/widgets/lv_btnmatrix.c ****     ptop = LV_MIN(ptop, BTN_EXTRA_CLICK_AREA_MAX);
 944:lvgl/src/widgets/lv_btnmatrix.c ****     pbottom = LV_MIN(pbottom, BTN_EXTRA_CLICK_AREA_MAX);
 945:lvgl/src/widgets/lv_btnmatrix.c **** 
 946:lvgl/src/widgets/lv_btnmatrix.c ****     for(i = 0; i < btnm->btn_cnt; i++) {
 947:lvgl/src/widgets/lv_btnmatrix.c ****         lv_area_copy(&btn_area, &btnm->button_areas[i]);
 948:lvgl/src/widgets/lv_btnmatrix.c ****         if(btn_area.x1 <= pleft) btn_area.x1 += obj_cords.x1 - LV_MIN(pleft, BTN_EXTRA_CLICK_AREA_M
 949:lvgl/src/widgets/lv_btnmatrix.c ****         else btn_area.x1 += obj_cords.x1 - pcol;
 950:lvgl/src/widgets/lv_btnmatrix.c **** 
 951:lvgl/src/widgets/lv_btnmatrix.c ****         if(btn_area.y1 <= ptop) btn_area.y1 += obj_cords.y1 - LV_MIN(ptop, BTN_EXTRA_CLICK_AREA_MAX
ARM GAS  C:\usertemp\ccuzpgLf.s 			page 22


 952:lvgl/src/widgets/lv_btnmatrix.c ****         else btn_area.y1 += obj_cords.y1 - prow;
 953:lvgl/src/widgets/lv_btnmatrix.c **** 
 954:lvgl/src/widgets/lv_btnmatrix.c ****         if(btn_area.x2 >= w - pright - 2) btn_area.x2 += obj_cords.x1 + LV_MIN(pright,
 955:lvgl/src/widgets/lv_btnmatrix.c ****                                                                                    BTN_EXTRA_CLICK_
 956:lvgl/src/widgets/lv_btnmatrix.c ****         else btn_area.x2 += obj_cords.x1 + pcol;
 957:lvgl/src/widgets/lv_btnmatrix.c **** 
 958:lvgl/src/widgets/lv_btnmatrix.c ****         if(btn_area.y2 >= h - pbottom - 2) btn_area.y2 += obj_cords.y1 + LV_MIN(pbottom,
 959:lvgl/src/widgets/lv_btnmatrix.c ****                                                                                     BTN_EXTRA_CLICK
 960:lvgl/src/widgets/lv_btnmatrix.c ****         else btn_area.y2 += obj_cords.y1 + prow;
 961:lvgl/src/widgets/lv_btnmatrix.c **** 
 962:lvgl/src/widgets/lv_btnmatrix.c ****         if(_lv_area_is_point_on(&btn_area, p, 0) != false) {
 963:lvgl/src/widgets/lv_btnmatrix.c ****             break;
 964:lvgl/src/widgets/lv_btnmatrix.c ****         }
 965:lvgl/src/widgets/lv_btnmatrix.c ****     }
 966:lvgl/src/widgets/lv_btnmatrix.c **** 
 967:lvgl/src/widgets/lv_btnmatrix.c ****     if(i == btnm->btn_cnt) i = LV_BTNMATRIX_BTN_NONE;
 968:lvgl/src/widgets/lv_btnmatrix.c **** 
 969:lvgl/src/widgets/lv_btnmatrix.c ****     return i;
 970:lvgl/src/widgets/lv_btnmatrix.c **** }
 971:lvgl/src/widgets/lv_btnmatrix.c **** 
 972:lvgl/src/widgets/lv_btnmatrix.c **** static void invalidate_button_area(const lv_obj_t * obj, uint16_t btn_idx)
 973:lvgl/src/widgets/lv_btnmatrix.c **** {
 974:lvgl/src/widgets/lv_btnmatrix.c ****     if(btn_idx == LV_BTNMATRIX_BTN_NONE) return;
 975:lvgl/src/widgets/lv_btnmatrix.c **** 
 976:lvgl/src/widgets/lv_btnmatrix.c ****     lv_area_t btn_area;
 977:lvgl/src/widgets/lv_btnmatrix.c ****     lv_area_t obj_area;
 978:lvgl/src/widgets/lv_btnmatrix.c **** 
 979:lvgl/src/widgets/lv_btnmatrix.c ****     lv_btnmatrix_t * btnm = (lv_btnmatrix_t *)obj;;
 980:lvgl/src/widgets/lv_btnmatrix.c ****     if(btn_idx >= btnm->btn_cnt) return;
 981:lvgl/src/widgets/lv_btnmatrix.c **** 
 982:lvgl/src/widgets/lv_btnmatrix.c ****     lv_area_copy(&btn_area, &btnm->button_areas[btn_idx]);
 983:lvgl/src/widgets/lv_btnmatrix.c ****     lv_obj_get_coords(obj, &obj_area);
 984:lvgl/src/widgets/lv_btnmatrix.c **** 
 985:lvgl/src/widgets/lv_btnmatrix.c ****     /*The buttons might have outline and shadow so make the invalidation larger with the gaps betwe
 986:lvgl/src/widgets/lv_btnmatrix.c ****      *It assumes that the outline or shadow is smaller than the gaps*/
 987:lvgl/src/widgets/lv_btnmatrix.c ****     lv_coord_t row_gap = lv_obj_get_style_pad_row(obj, LV_PART_MAIN);
 988:lvgl/src/widgets/lv_btnmatrix.c ****     lv_coord_t col_gap = lv_obj_get_style_pad_column(obj, LV_PART_MAIN);
 989:lvgl/src/widgets/lv_btnmatrix.c **** 
 990:lvgl/src/widgets/lv_btnmatrix.c ****     /*Be sure to have a minimal extra space if row/col_gap is small*/
 991:lvgl/src/widgets/lv_btnmatrix.c ****     lv_coord_t dpi = lv_disp_get_dpi(lv_obj_get_disp(obj));
 992:lvgl/src/widgets/lv_btnmatrix.c ****     row_gap = LV_MAX(row_gap, dpi / 10);
 993:lvgl/src/widgets/lv_btnmatrix.c ****     col_gap = LV_MAX(col_gap, dpi / 10);
 994:lvgl/src/widgets/lv_btnmatrix.c **** 
 995:lvgl/src/widgets/lv_btnmatrix.c ****     /*Convert relative coordinates to absolute*/
 996:lvgl/src/widgets/lv_btnmatrix.c ****     btn_area.x1 += obj_area.x1 - row_gap;
 997:lvgl/src/widgets/lv_btnmatrix.c ****     btn_area.y1 += obj_area.y1 - col_gap;
 998:lvgl/src/widgets/lv_btnmatrix.c ****     btn_area.x2 += obj_area.x1 + row_gap;
 999:lvgl/src/widgets/lv_btnmatrix.c ****     btn_area.y2 += obj_area.y1 + col_gap;
1000:lvgl/src/widgets/lv_btnmatrix.c **** 
1001:lvgl/src/widgets/lv_btnmatrix.c ****     if((btn_idx == btnm->btn_id_sel) && (btnm->ctrl_bits[btn_idx] & LV_BTNMATRIX_CTRL_POPOVER)) {
1002:lvgl/src/widgets/lv_btnmatrix.c ****         /*Push up the upper boundary of the btn area to also invalidate the popover*/
1003:lvgl/src/widgets/lv_btnmatrix.c ****         btn_area.y1 -= lv_area_get_height(&btn_area);
1004:lvgl/src/widgets/lv_btnmatrix.c ****     }
1005:lvgl/src/widgets/lv_btnmatrix.c **** 
1006:lvgl/src/widgets/lv_btnmatrix.c ****     lv_obj_invalidate_area(obj, &btn_area);
1007:lvgl/src/widgets/lv_btnmatrix.c **** }
1008:lvgl/src/widgets/lv_btnmatrix.c **** 
ARM GAS  C:\usertemp\ccuzpgLf.s 			page 23


1009:lvgl/src/widgets/lv_btnmatrix.c **** /**
1010:lvgl/src/widgets/lv_btnmatrix.c ****  * Enforces a single button being toggled on the button matrix.
1011:lvgl/src/widgets/lv_btnmatrix.c ****  * It simply clears the toggle flag on other buttons.
1012:lvgl/src/widgets/lv_btnmatrix.c ****  * @param obj Button matrix object
1013:lvgl/src/widgets/lv_btnmatrix.c ****  * @param btn_idx Button that should remain toggled
1014:lvgl/src/widgets/lv_btnmatrix.c ****  */
1015:lvgl/src/widgets/lv_btnmatrix.c **** static void make_one_button_checked(lv_obj_t * obj, uint16_t btn_idx)
1016:lvgl/src/widgets/lv_btnmatrix.c **** {
1017:lvgl/src/widgets/lv_btnmatrix.c ****     /*Save whether the button was toggled*/
1018:lvgl/src/widgets/lv_btnmatrix.c ****     bool was_toggled = lv_btnmatrix_has_btn_ctrl(obj, btn_idx, LV_BTNMATRIX_CTRL_CHECKED);
1019:lvgl/src/widgets/lv_btnmatrix.c **** 
1020:lvgl/src/widgets/lv_btnmatrix.c ****     lv_btnmatrix_clear_btn_ctrl_all(obj, LV_BTNMATRIX_CTRL_CHECKED);
1021:lvgl/src/widgets/lv_btnmatrix.c **** 
1022:lvgl/src/widgets/lv_btnmatrix.c ****     if(was_toggled) lv_btnmatrix_set_btn_ctrl(obj, btn_idx, LV_BTNMATRIX_CTRL_CHECKED);
1023:lvgl/src/widgets/lv_btnmatrix.c **** }
1024:lvgl/src/widgets/lv_btnmatrix.c **** 
1025:lvgl/src/widgets/lv_btnmatrix.c **** /**
1026:lvgl/src/widgets/lv_btnmatrix.c ****  * Check if any of the buttons in the first row has the LV_BTNMATRIX_CTRL_POPOVER control flag set.
1027:lvgl/src/widgets/lv_btnmatrix.c ****  * @param obj Button matrix object
1028:lvgl/src/widgets/lv_btnmatrix.c ****  * @return true if at least one button has the flag, false otherwise
1029:lvgl/src/widgets/lv_btnmatrix.c ****  */
1030:lvgl/src/widgets/lv_btnmatrix.c **** static bool has_popovers_in_top_row(lv_obj_t * obj)
1031:lvgl/src/widgets/lv_btnmatrix.c **** {
 268              		.loc 1 1031 1 is_stmt 1 view -0
 269              		.cfi_startproc
 270              		@ args = 0, pretend = 0, frame = 0
 271              		@ frame_needed = 0, uses_anonymous_args = 0
1032:lvgl/src/widgets/lv_btnmatrix.c ****     lv_btnmatrix_t * btnm = (lv_btnmatrix_t *)obj;
 272              		.loc 1 1032 5 view .LVU44
1033:lvgl/src/widgets/lv_btnmatrix.c **** 
1034:lvgl/src/widgets/lv_btnmatrix.c ****     if(btnm->row_cnt <= 0) {
 273              		.loc 1 1034 5 view .LVU45
 274              		.loc 1 1034 12 is_stmt 0 view .LVU46
 275 0000 438E     		ldrh	r3, [r0, #50]
 276              		.loc 1 1034 7 view .LVU47
 277 0002 D3B1     		cbz	r3, .L17
1031:lvgl/src/widgets/lv_btnmatrix.c ****     lv_btnmatrix_t * btnm = (lv_btnmatrix_t *)obj;
 278              		.loc 1 1031 1 view .LVU48
 279 0004 2DE9F041 		push	{r4, r5, r6, r7, r8, lr}
 280              	.LCFI0:
 281              		.cfi_def_cfa_offset 24
 282              		.cfi_offset 4, -24
 283              		.cfi_offset 5, -20
 284              		.cfi_offset 6, -16
 285              		.cfi_offset 7, -12
 286              		.cfi_offset 8, -8
 287              		.cfi_offset 14, -4
 288 0008 0746     		mov	r7, r0
1035:lvgl/src/widgets/lv_btnmatrix.c ****         return false;
1036:lvgl/src/widgets/lv_btnmatrix.c ****     }
1037:lvgl/src/widgets/lv_btnmatrix.c **** 
1038:lvgl/src/widgets/lv_btnmatrix.c ****     const char ** map_row = btnm->map_p;
 289              		.loc 1 1038 5 is_stmt 1 view .LVU49
 290              		.loc 1 1038 19 is_stmt 0 view .LVU50
 291 000a D0F82480 		ldr	r8, [r0, #36]
 292              	.LVL21:
1039:lvgl/src/widgets/lv_btnmatrix.c ****     uint16_t btn_cnt = 0;
ARM GAS  C:\usertemp\ccuzpgLf.s 			page 24


 293              		.loc 1 1039 5 is_stmt 1 view .LVU51
1040:lvgl/src/widgets/lv_btnmatrix.c **** 
1041:lvgl/src/widgets/lv_btnmatrix.c ****     while(map_row[btn_cnt] && strcmp(map_row[btn_cnt], "\n") != 0 && map_row[btn_cnt][0] != '\0') {
 294              		.loc 1 1041 5 view .LVU52
1039:lvgl/src/widgets/lv_btnmatrix.c ****     uint16_t btn_cnt = 0;
 295              		.loc 1 1039 14 is_stmt 0 view .LVU53
 296 000e 0024     		movs	r4, #0
 297              	.LVL22:
 298              	.L15:
 299              		.loc 1 1041 67 is_stmt 1 view .LVU54
 300              		.loc 1 1041 18 is_stmt 0 view .LVU55
 301 0010 2646     		mov	r6, r4
 302 0012 58F82450 		ldr	r5, [r8, r4, lsl #2]
 303              		.loc 1 1041 67 view .LVU56
 304 0016 9DB1     		cbz	r5, .L18
 305              		.loc 1 1041 31 discriminator 1 view .LVU57
 306 0018 0C49     		ldr	r1, .L24
 307 001a 2846     		mov	r0, r5
 308 001c FFF7FEFF 		bl	strcmp
 309              	.LVL23:
 310              		.loc 1 1041 28 discriminator 1 view .LVU58
 311 0020 90B1     		cbz	r0, .L19
 312              		.loc 1 1041 86 discriminator 2 view .LVU59
 313 0022 2B78     		ldrb	r3, [r5]	@ zero_extendqisi2
 314              		.loc 1 1041 67 discriminator 2 view .LVU60
 315 0024 6BB1     		cbz	r3, .L14
1042:lvgl/src/widgets/lv_btnmatrix.c ****         if(button_is_popover(btnm->ctrl_bits[btn_cnt])) {
 316              		.loc 1 1042 9 is_stmt 1 view .LVU61
 317              		.loc 1 1042 34 is_stmt 0 view .LVU62
 318 0026 FB6A     		ldr	r3, [r7, #44]
 319              		.loc 1 1042 12 view .LVU63
 320 0028 33F81600 		ldrh	r0, [r3, r6, lsl #1]
 321 002c FFF7FEFF 		bl	button_is_popover
 322              	.LVL24:
 323              		.loc 1 1042 11 discriminator 1 view .LVU64
 324 0030 0346     		mov	r3, r0
 325 0032 30B9     		cbnz	r0, .L14
1043:lvgl/src/widgets/lv_btnmatrix.c ****             return true;
1044:lvgl/src/widgets/lv_btnmatrix.c ****         }
1045:lvgl/src/widgets/lv_btnmatrix.c ****         btn_cnt++;
 326              		.loc 1 1045 9 is_stmt 1 view .LVU65
 327              		.loc 1 1045 16 is_stmt 0 view .LVU66
 328 0034 0134     		adds	r4, r4, #1
 329              	.LVL25:
 330              		.loc 1 1045 16 view .LVU67
 331 0036 A4B2     		uxth	r4, r4
 332              	.LVL26:
 333              		.loc 1 1045 16 view .LVU68
 334 0038 EAE7     		b	.L15
 335              	.LVL27:
 336              	.L17:
 337              	.LCFI1:
 338              		.cfi_def_cfa_offset 0
 339              		.cfi_restore 4
 340              		.cfi_restore 5
 341              		.cfi_restore 6
 342              		.cfi_restore 7
ARM GAS  C:\usertemp\ccuzpgLf.s 			page 25


 343              		.cfi_restore 8
 344              		.cfi_restore 14
1035:lvgl/src/widgets/lv_btnmatrix.c ****     }
 345              		.loc 1 1035 16 view .LVU69
 346 003a 0023     		movs	r3, #0
1046:lvgl/src/widgets/lv_btnmatrix.c ****     }
1047:lvgl/src/widgets/lv_btnmatrix.c **** 
1048:lvgl/src/widgets/lv_btnmatrix.c ****     return false;
1049:lvgl/src/widgets/lv_btnmatrix.c **** }
 347              		.loc 1 1049 1 view .LVU70
 348 003c 1846     		mov	r0, r3
 349              	.LVL28:
 350              		.loc 1 1049 1 view .LVU71
 351 003e 7047     		bx	lr
 352              	.LVL29:
 353              	.L18:
 354              	.LCFI2:
 355              		.cfi_def_cfa_offset 24
 356              		.cfi_offset 4, -24
 357              		.cfi_offset 5, -20
 358              		.cfi_offset 6, -16
 359              		.cfi_offset 7, -12
 360              		.cfi_offset 8, -8
 361              		.cfi_offset 14, -4
1048:lvgl/src/widgets/lv_btnmatrix.c **** }
 362              		.loc 1 1048 12 view .LVU72
 363 0040 0023     		movs	r3, #0
 364              	.L14:
 365              		.loc 1 1049 1 view .LVU73
 366 0042 1846     		mov	r0, r3
 367 0044 BDE8F081 		pop	{r4, r5, r6, r7, r8, pc}
 368              	.LVL30:
 369              	.L19:
1048:lvgl/src/widgets/lv_btnmatrix.c **** }
 370              		.loc 1 1048 12 view .LVU74
 371 0048 0023     		movs	r3, #0
 372 004a FAE7     		b	.L14
 373              	.L25:
 374              		.align	2
 375              	.L24:
 376 004c 00000000 		.word	.LC0
 377              		.cfi_endproc
 378              	.LFE189:
 380              		.section	.text.get_button_from_point,"ax",%progbits
 381              		.align	1
 382              		.syntax unified
 383              		.thumb
 384              		.thumb_func
 386              	get_button_from_point:
 387              	.LVL31:
 388              	.LFB186:
 920:lvgl/src/widgets/lv_btnmatrix.c ****     lv_area_t obj_cords;
 389              		.loc 1 920 1 is_stmt 1 view -0
 390              		.cfi_startproc
 391              		@ args = 0, pretend = 0, frame = 32
 392              		@ frame_needed = 0, uses_anonymous_args = 0
 920:lvgl/src/widgets/lv_btnmatrix.c ****     lv_area_t obj_cords;
ARM GAS  C:\usertemp\ccuzpgLf.s 			page 26


 393              		.loc 1 920 1 is_stmt 0 view .LVU76
 394 0000 2DE9F04F 		push	{r4, r5, r6, r7, r8, r9, r10, fp, lr}
 395              	.LCFI3:
 396              		.cfi_def_cfa_offset 36
 397              		.cfi_offset 4, -36
 398              		.cfi_offset 5, -32
 399              		.cfi_offset 6, -28
 400              		.cfi_offset 7, -24
 401              		.cfi_offset 8, -20
 402              		.cfi_offset 9, -16
 403              		.cfi_offset 10, -12
 404              		.cfi_offset 11, -8
 405              		.cfi_offset 14, -4
 406 0004 89B0     		sub	sp, sp, #36
 407              	.LCFI4:
 408              		.cfi_def_cfa_offset 72
 409 0006 0546     		mov	r5, r0
 410 0008 0391     		str	r1, [sp, #12]
 921:lvgl/src/widgets/lv_btnmatrix.c ****     lv_area_t btn_area;
 411              		.loc 1 921 5 is_stmt 1 view .LVU77
 922:lvgl/src/widgets/lv_btnmatrix.c ****     lv_btnmatrix_t * btnm = (lv_btnmatrix_t *)obj;;
 412              		.loc 1 922 5 view .LVU78
 923:lvgl/src/widgets/lv_btnmatrix.c ****     uint16_t i;
 413              		.loc 1 923 5 view .LVU79
 414              	.LVL32:
 923:lvgl/src/widgets/lv_btnmatrix.c ****     uint16_t i;
 415              		.loc 1 923 51 view .LVU80
 924:lvgl/src/widgets/lv_btnmatrix.c ****     lv_obj_get_coords(obj, &obj_cords);
 416              		.loc 1 924 5 view .LVU81
 925:lvgl/src/widgets/lv_btnmatrix.c **** 
 417              		.loc 1 925 5 view .LVU82
 418 000a 06A9     		add	r1, sp, #24
 419              	.LVL33:
 925:lvgl/src/widgets/lv_btnmatrix.c **** 
 420              		.loc 1 925 5 is_stmt 0 view .LVU83
 421 000c FFF7FEFF 		bl	lv_obj_get_coords
 422              	.LVL34:
 927:lvgl/src/widgets/lv_btnmatrix.c ****     lv_coord_t h = lv_obj_get_height(obj);
 423              		.loc 1 927 5 is_stmt 1 view .LVU84
 927:lvgl/src/widgets/lv_btnmatrix.c ****     lv_coord_t h = lv_obj_get_height(obj);
 424              		.loc 1 927 20 is_stmt 0 view .LVU85
 425 0010 2846     		mov	r0, r5
 426 0012 FFF7FEFF 		bl	lv_obj_get_width
 427              	.LVL35:
 428 0016 0190     		str	r0, [sp, #4]
 429              	.LVL36:
 928:lvgl/src/widgets/lv_btnmatrix.c ****     lv_coord_t pleft = lv_obj_get_style_pad_left(obj, LV_PART_MAIN);
 430              		.loc 1 928 5 is_stmt 1 view .LVU86
 928:lvgl/src/widgets/lv_btnmatrix.c ****     lv_coord_t pleft = lv_obj_get_style_pad_left(obj, LV_PART_MAIN);
 431              		.loc 1 928 20 is_stmt 0 view .LVU87
 432 0018 2846     		mov	r0, r5
 433 001a FFF7FEFF 		bl	lv_obj_get_height
 434              	.LVL37:
 435 001e 0290     		str	r0, [sp, #8]
 436              	.LVL38:
 929:lvgl/src/widgets/lv_btnmatrix.c ****     lv_coord_t pright = lv_obj_get_style_pad_right(obj, LV_PART_MAIN);
 437              		.loc 1 929 5 is_stmt 1 view .LVU88
ARM GAS  C:\usertemp\ccuzpgLf.s 			page 27


 438              	.LBB79:
 439              	.LBI79:
 440              		.file 2 "lvgl/src/widgets/../core/lv_obj_style_gen.h"
   1:lvgl/src/widgets/../core/lv_obj_style_gen.h **** static inline lv_coord_t lv_obj_get_style_width(const struct _lv_obj_t * obj, uint32_t part)
   2:lvgl/src/widgets/../core/lv_obj_style_gen.h **** {
   3:lvgl/src/widgets/../core/lv_obj_style_gen.h ****     lv_style_value_t v = lv_obj_get_style_prop(obj, part, LV_STYLE_WIDTH);
   4:lvgl/src/widgets/../core/lv_obj_style_gen.h ****     return (lv_coord_t)v.num;
   5:lvgl/src/widgets/../core/lv_obj_style_gen.h **** }
   6:lvgl/src/widgets/../core/lv_obj_style_gen.h **** 
   7:lvgl/src/widgets/../core/lv_obj_style_gen.h **** static inline lv_coord_t lv_obj_get_style_min_width(const struct _lv_obj_t * obj, uint32_t part)
   8:lvgl/src/widgets/../core/lv_obj_style_gen.h **** {
   9:lvgl/src/widgets/../core/lv_obj_style_gen.h ****     lv_style_value_t v = lv_obj_get_style_prop(obj, part, LV_STYLE_MIN_WIDTH);
  10:lvgl/src/widgets/../core/lv_obj_style_gen.h ****     return (lv_coord_t)v.num;
  11:lvgl/src/widgets/../core/lv_obj_style_gen.h **** }
  12:lvgl/src/widgets/../core/lv_obj_style_gen.h **** 
  13:lvgl/src/widgets/../core/lv_obj_style_gen.h **** static inline lv_coord_t lv_obj_get_style_max_width(const struct _lv_obj_t * obj, uint32_t part)
  14:lvgl/src/widgets/../core/lv_obj_style_gen.h **** {
  15:lvgl/src/widgets/../core/lv_obj_style_gen.h ****     lv_style_value_t v = lv_obj_get_style_prop(obj, part, LV_STYLE_MAX_WIDTH);
  16:lvgl/src/widgets/../core/lv_obj_style_gen.h ****     return (lv_coord_t)v.num;
  17:lvgl/src/widgets/../core/lv_obj_style_gen.h **** }
  18:lvgl/src/widgets/../core/lv_obj_style_gen.h **** 
  19:lvgl/src/widgets/../core/lv_obj_style_gen.h **** static inline lv_coord_t lv_obj_get_style_height(const struct _lv_obj_t * obj, uint32_t part)
  20:lvgl/src/widgets/../core/lv_obj_style_gen.h **** {
  21:lvgl/src/widgets/../core/lv_obj_style_gen.h ****     lv_style_value_t v = lv_obj_get_style_prop(obj, part, LV_STYLE_HEIGHT);
  22:lvgl/src/widgets/../core/lv_obj_style_gen.h ****     return (lv_coord_t)v.num;
  23:lvgl/src/widgets/../core/lv_obj_style_gen.h **** }
  24:lvgl/src/widgets/../core/lv_obj_style_gen.h **** 
  25:lvgl/src/widgets/../core/lv_obj_style_gen.h **** static inline lv_coord_t lv_obj_get_style_min_height(const struct _lv_obj_t * obj, uint32_t part)
  26:lvgl/src/widgets/../core/lv_obj_style_gen.h **** {
  27:lvgl/src/widgets/../core/lv_obj_style_gen.h ****     lv_style_value_t v = lv_obj_get_style_prop(obj, part, LV_STYLE_MIN_HEIGHT);
  28:lvgl/src/widgets/../core/lv_obj_style_gen.h ****     return (lv_coord_t)v.num;
  29:lvgl/src/widgets/../core/lv_obj_style_gen.h **** }
  30:lvgl/src/widgets/../core/lv_obj_style_gen.h **** 
  31:lvgl/src/widgets/../core/lv_obj_style_gen.h **** static inline lv_coord_t lv_obj_get_style_max_height(const struct _lv_obj_t * obj, uint32_t part)
  32:lvgl/src/widgets/../core/lv_obj_style_gen.h **** {
  33:lvgl/src/widgets/../core/lv_obj_style_gen.h ****     lv_style_value_t v = lv_obj_get_style_prop(obj, part, LV_STYLE_MAX_HEIGHT);
  34:lvgl/src/widgets/../core/lv_obj_style_gen.h ****     return (lv_coord_t)v.num;
  35:lvgl/src/widgets/../core/lv_obj_style_gen.h **** }
  36:lvgl/src/widgets/../core/lv_obj_style_gen.h **** 
  37:lvgl/src/widgets/../core/lv_obj_style_gen.h **** static inline lv_coord_t lv_obj_get_style_x(const struct _lv_obj_t * obj, uint32_t part)
  38:lvgl/src/widgets/../core/lv_obj_style_gen.h **** {
  39:lvgl/src/widgets/../core/lv_obj_style_gen.h ****     lv_style_value_t v = lv_obj_get_style_prop(obj, part, LV_STYLE_X);
  40:lvgl/src/widgets/../core/lv_obj_style_gen.h ****     return (lv_coord_t)v.num;
  41:lvgl/src/widgets/../core/lv_obj_style_gen.h **** }
  42:lvgl/src/widgets/../core/lv_obj_style_gen.h **** 
  43:lvgl/src/widgets/../core/lv_obj_style_gen.h **** static inline lv_coord_t lv_obj_get_style_y(const struct _lv_obj_t * obj, uint32_t part)
  44:lvgl/src/widgets/../core/lv_obj_style_gen.h **** {
  45:lvgl/src/widgets/../core/lv_obj_style_gen.h ****     lv_style_value_t v = lv_obj_get_style_prop(obj, part, LV_STYLE_Y);
  46:lvgl/src/widgets/../core/lv_obj_style_gen.h ****     return (lv_coord_t)v.num;
  47:lvgl/src/widgets/../core/lv_obj_style_gen.h **** }
  48:lvgl/src/widgets/../core/lv_obj_style_gen.h **** 
  49:lvgl/src/widgets/../core/lv_obj_style_gen.h **** static inline lv_align_t lv_obj_get_style_align(const struct _lv_obj_t * obj, uint32_t part)
  50:lvgl/src/widgets/../core/lv_obj_style_gen.h **** {
  51:lvgl/src/widgets/../core/lv_obj_style_gen.h ****     lv_style_value_t v = lv_obj_get_style_prop(obj, part, LV_STYLE_ALIGN);
  52:lvgl/src/widgets/../core/lv_obj_style_gen.h ****     return (lv_align_t)v.num;
  53:lvgl/src/widgets/../core/lv_obj_style_gen.h **** }
  54:lvgl/src/widgets/../core/lv_obj_style_gen.h **** 
ARM GAS  C:\usertemp\ccuzpgLf.s 			page 28


  55:lvgl/src/widgets/../core/lv_obj_style_gen.h **** static inline lv_coord_t lv_obj_get_style_transform_width(const struct _lv_obj_t * obj, uint32_t pa
  56:lvgl/src/widgets/../core/lv_obj_style_gen.h **** {
  57:lvgl/src/widgets/../core/lv_obj_style_gen.h ****     lv_style_value_t v = lv_obj_get_style_prop(obj, part, LV_STYLE_TRANSFORM_WIDTH);
  58:lvgl/src/widgets/../core/lv_obj_style_gen.h ****     return (lv_coord_t)v.num;
  59:lvgl/src/widgets/../core/lv_obj_style_gen.h **** }
  60:lvgl/src/widgets/../core/lv_obj_style_gen.h **** 
  61:lvgl/src/widgets/../core/lv_obj_style_gen.h **** static inline lv_coord_t lv_obj_get_style_transform_height(const struct _lv_obj_t * obj, uint32_t p
  62:lvgl/src/widgets/../core/lv_obj_style_gen.h **** {
  63:lvgl/src/widgets/../core/lv_obj_style_gen.h ****     lv_style_value_t v = lv_obj_get_style_prop(obj, part, LV_STYLE_TRANSFORM_HEIGHT);
  64:lvgl/src/widgets/../core/lv_obj_style_gen.h ****     return (lv_coord_t)v.num;
  65:lvgl/src/widgets/../core/lv_obj_style_gen.h **** }
  66:lvgl/src/widgets/../core/lv_obj_style_gen.h **** 
  67:lvgl/src/widgets/../core/lv_obj_style_gen.h **** static inline lv_coord_t lv_obj_get_style_translate_x(const struct _lv_obj_t * obj, uint32_t part)
  68:lvgl/src/widgets/../core/lv_obj_style_gen.h **** {
  69:lvgl/src/widgets/../core/lv_obj_style_gen.h ****     lv_style_value_t v = lv_obj_get_style_prop(obj, part, LV_STYLE_TRANSLATE_X);
  70:lvgl/src/widgets/../core/lv_obj_style_gen.h ****     return (lv_coord_t)v.num;
  71:lvgl/src/widgets/../core/lv_obj_style_gen.h **** }
  72:lvgl/src/widgets/../core/lv_obj_style_gen.h **** 
  73:lvgl/src/widgets/../core/lv_obj_style_gen.h **** static inline lv_coord_t lv_obj_get_style_translate_y(const struct _lv_obj_t * obj, uint32_t part)
  74:lvgl/src/widgets/../core/lv_obj_style_gen.h **** {
  75:lvgl/src/widgets/../core/lv_obj_style_gen.h ****     lv_style_value_t v = lv_obj_get_style_prop(obj, part, LV_STYLE_TRANSLATE_Y);
  76:lvgl/src/widgets/../core/lv_obj_style_gen.h ****     return (lv_coord_t)v.num;
  77:lvgl/src/widgets/../core/lv_obj_style_gen.h **** }
  78:lvgl/src/widgets/../core/lv_obj_style_gen.h **** 
  79:lvgl/src/widgets/../core/lv_obj_style_gen.h **** static inline lv_coord_t lv_obj_get_style_transform_zoom(const struct _lv_obj_t * obj, uint32_t par
  80:lvgl/src/widgets/../core/lv_obj_style_gen.h **** {
  81:lvgl/src/widgets/../core/lv_obj_style_gen.h ****     lv_style_value_t v = lv_obj_get_style_prop(obj, part, LV_STYLE_TRANSFORM_ZOOM);
  82:lvgl/src/widgets/../core/lv_obj_style_gen.h ****     return (lv_coord_t)v.num;
  83:lvgl/src/widgets/../core/lv_obj_style_gen.h **** }
  84:lvgl/src/widgets/../core/lv_obj_style_gen.h **** 
  85:lvgl/src/widgets/../core/lv_obj_style_gen.h **** static inline lv_coord_t lv_obj_get_style_transform_angle(const struct _lv_obj_t * obj, uint32_t pa
  86:lvgl/src/widgets/../core/lv_obj_style_gen.h **** {
  87:lvgl/src/widgets/../core/lv_obj_style_gen.h ****     lv_style_value_t v = lv_obj_get_style_prop(obj, part, LV_STYLE_TRANSFORM_ANGLE);
  88:lvgl/src/widgets/../core/lv_obj_style_gen.h ****     return (lv_coord_t)v.num;
  89:lvgl/src/widgets/../core/lv_obj_style_gen.h **** }
  90:lvgl/src/widgets/../core/lv_obj_style_gen.h **** 
  91:lvgl/src/widgets/../core/lv_obj_style_gen.h **** static inline lv_coord_t lv_obj_get_style_pad_top(const struct _lv_obj_t * obj, uint32_t part)
  92:lvgl/src/widgets/../core/lv_obj_style_gen.h **** {
  93:lvgl/src/widgets/../core/lv_obj_style_gen.h ****     lv_style_value_t v = lv_obj_get_style_prop(obj, part, LV_STYLE_PAD_TOP);
  94:lvgl/src/widgets/../core/lv_obj_style_gen.h ****     return (lv_coord_t)v.num;
  95:lvgl/src/widgets/../core/lv_obj_style_gen.h **** }
  96:lvgl/src/widgets/../core/lv_obj_style_gen.h **** 
  97:lvgl/src/widgets/../core/lv_obj_style_gen.h **** static inline lv_coord_t lv_obj_get_style_pad_bottom(const struct _lv_obj_t * obj, uint32_t part)
  98:lvgl/src/widgets/../core/lv_obj_style_gen.h **** {
  99:lvgl/src/widgets/../core/lv_obj_style_gen.h ****     lv_style_value_t v = lv_obj_get_style_prop(obj, part, LV_STYLE_PAD_BOTTOM);
 100:lvgl/src/widgets/../core/lv_obj_style_gen.h ****     return (lv_coord_t)v.num;
 101:lvgl/src/widgets/../core/lv_obj_style_gen.h **** }
 102:lvgl/src/widgets/../core/lv_obj_style_gen.h **** 
 103:lvgl/src/widgets/../core/lv_obj_style_gen.h **** static inline lv_coord_t lv_obj_get_style_pad_left(const struct _lv_obj_t * obj, uint32_t part)
 441              		.loc 2 103 26 view .LVU89
 442              	.LBB80:
 104:lvgl/src/widgets/../core/lv_obj_style_gen.h **** {
 105:lvgl/src/widgets/../core/lv_obj_style_gen.h ****     lv_style_value_t v = lv_obj_get_style_prop(obj, part, LV_STYLE_PAD_LEFT);
 443              		.loc 2 105 5 view .LVU90
 444              		.loc 2 105 26 is_stmt 0 view .LVU91
 445 0020 41F61202 		movw	r2, #6162
 446 0024 0021     		movs	r1, #0
ARM GAS  C:\usertemp\ccuzpgLf.s 			page 29


 447 0026 2846     		mov	r0, r5
 448 0028 FFF7FEFF 		bl	lv_obj_get_style_prop
 449              	.LVL39:
 106:lvgl/src/widgets/../core/lv_obj_style_gen.h ****     return (lv_coord_t)v.num;
 450              		.loc 2 106 5 is_stmt 1 view .LVU92
 451              		.loc 2 106 12 is_stmt 0 view .LVU93
 452 002c 0FFA80FB 		sxth	fp, r0
 453              	.LVL40:
 454              		.loc 2 106 12 view .LVU94
 455              	.LBE80:
 456              	.LBE79:
 930:lvgl/src/widgets/lv_btnmatrix.c ****     lv_coord_t ptop = lv_obj_get_style_pad_top(obj, LV_PART_MAIN);
 457              		.loc 1 930 5 is_stmt 1 view .LVU95
 458              	.LBB81:
 459              	.LBI81:
 107:lvgl/src/widgets/../core/lv_obj_style_gen.h **** }
 108:lvgl/src/widgets/../core/lv_obj_style_gen.h **** 
 109:lvgl/src/widgets/../core/lv_obj_style_gen.h **** static inline lv_coord_t lv_obj_get_style_pad_right(const struct _lv_obj_t * obj, uint32_t part)
 460              		.loc 2 109 26 view .LVU96
 461              	.LBB82:
 110:lvgl/src/widgets/../core/lv_obj_style_gen.h **** {
 111:lvgl/src/widgets/../core/lv_obj_style_gen.h ****     lv_style_value_t v = lv_obj_get_style_prop(obj, part, LV_STYLE_PAD_RIGHT);
 462              		.loc 2 111 5 view .LVU97
 463              		.loc 2 111 26 is_stmt 0 view .LVU98
 464 0030 41F61302 		movw	r2, #6163
 465 0034 0021     		movs	r1, #0
 466 0036 2846     		mov	r0, r5
 467 0038 FFF7FEFF 		bl	lv_obj_get_style_prop
 468              	.LVL41:
 112:lvgl/src/widgets/../core/lv_obj_style_gen.h ****     return (lv_coord_t)v.num;
 469              		.loc 2 112 5 is_stmt 1 view .LVU99
 470              		.loc 2 112 12 is_stmt 0 view .LVU100
 471 003c 0FFA80FA 		sxth	r10, r0
 472              	.LVL42:
 473              		.loc 2 112 12 view .LVU101
 474              	.LBE82:
 475              	.LBE81:
 931:lvgl/src/widgets/lv_btnmatrix.c ****     lv_coord_t pbottom = lv_obj_get_style_pad_bottom(obj, LV_PART_MAIN);
 476              		.loc 1 931 5 is_stmt 1 view .LVU102
 477              	.LBB83:
 478              	.LBI83:
  91:lvgl/src/widgets/../core/lv_obj_style_gen.h **** {
 479              		.loc 2 91 26 view .LVU103
 480              	.LBB84:
  93:lvgl/src/widgets/../core/lv_obj_style_gen.h ****     return (lv_coord_t)v.num;
 481              		.loc 2 93 5 view .LVU104
  93:lvgl/src/widgets/../core/lv_obj_style_gen.h ****     return (lv_coord_t)v.num;
 482              		.loc 2 93 26 is_stmt 0 view .LVU105
 483 0040 41F61002 		movw	r2, #6160
 484 0044 0021     		movs	r1, #0
 485 0046 2846     		mov	r0, r5
 486 0048 FFF7FEFF 		bl	lv_obj_get_style_prop
 487              	.LVL43:
  94:lvgl/src/widgets/../core/lv_obj_style_gen.h **** }
 488              		.loc 2 94 5 is_stmt 1 view .LVU106
  94:lvgl/src/widgets/../core/lv_obj_style_gen.h **** }
 489              		.loc 2 94 12 is_stmt 0 view .LVU107
ARM GAS  C:\usertemp\ccuzpgLf.s 			page 30


 490 004c 0FFA80F9 		sxth	r9, r0
 491              	.LVL44:
  94:lvgl/src/widgets/../core/lv_obj_style_gen.h **** }
 492              		.loc 2 94 12 view .LVU108
 493              	.LBE84:
 494              	.LBE83:
 932:lvgl/src/widgets/lv_btnmatrix.c ****     lv_coord_t prow = lv_obj_get_style_pad_row(obj, LV_PART_MAIN);
 495              		.loc 1 932 5 is_stmt 1 view .LVU109
 496              	.LBB85:
 497              	.LBI85:
  97:lvgl/src/widgets/../core/lv_obj_style_gen.h **** {
 498              		.loc 2 97 26 view .LVU110
 499              	.LBB86:
  99:lvgl/src/widgets/../core/lv_obj_style_gen.h ****     return (lv_coord_t)v.num;
 500              		.loc 2 99 5 view .LVU111
  99:lvgl/src/widgets/../core/lv_obj_style_gen.h ****     return (lv_coord_t)v.num;
 501              		.loc 2 99 26 is_stmt 0 view .LVU112
 502 0050 41F61102 		movw	r2, #6161
 503 0054 0021     		movs	r1, #0
 504 0056 2846     		mov	r0, r5
 505 0058 FFF7FEFF 		bl	lv_obj_get_style_prop
 506              	.LVL45:
 100:lvgl/src/widgets/../core/lv_obj_style_gen.h **** }
 507              		.loc 2 100 5 is_stmt 1 view .LVU113
 100:lvgl/src/widgets/../core/lv_obj_style_gen.h **** }
 508              		.loc 2 100 12 is_stmt 0 view .LVU114
 509 005c 0FFA80F8 		sxth	r8, r0
 510              	.LVL46:
 100:lvgl/src/widgets/../core/lv_obj_style_gen.h **** }
 511              		.loc 2 100 12 view .LVU115
 512              	.LBE86:
 513              	.LBE85:
 933:lvgl/src/widgets/lv_btnmatrix.c ****     lv_coord_t pcol = lv_obj_get_style_pad_column(obj, LV_PART_MAIN);
 514              		.loc 1 933 5 is_stmt 1 view .LVU116
 515              	.LBB87:
 516              	.LBI87:
 113:lvgl/src/widgets/../core/lv_obj_style_gen.h **** }
 114:lvgl/src/widgets/../core/lv_obj_style_gen.h **** 
 115:lvgl/src/widgets/../core/lv_obj_style_gen.h **** static inline lv_coord_t lv_obj_get_style_pad_row(const struct _lv_obj_t * obj, uint32_t part)
 517              		.loc 2 115 26 view .LVU117
 518              	.LBB88:
 116:lvgl/src/widgets/../core/lv_obj_style_gen.h **** {
 117:lvgl/src/widgets/../core/lv_obj_style_gen.h ****     lv_style_value_t v = lv_obj_get_style_prop(obj, part, LV_STYLE_PAD_ROW);
 519              		.loc 2 117 5 view .LVU118
 520              		.loc 2 117 26 is_stmt 0 view .LVU119
 521 0060 41F61402 		movw	r2, #6164
 522 0064 0021     		movs	r1, #0
 523 0066 2846     		mov	r0, r5
 524 0068 FFF7FEFF 		bl	lv_obj_get_style_prop
 525              	.LVL47:
 526 006c 0746     		mov	r7, r0
 527              	.LVL48:
 118:lvgl/src/widgets/../core/lv_obj_style_gen.h ****     return (lv_coord_t)v.num;
 528              		.loc 2 118 5 is_stmt 1 view .LVU120
 529              		.loc 2 118 12 is_stmt 0 view .LVU121
 530 006e 06B2     		sxth	r6, r0
 531              	.LVL49:
ARM GAS  C:\usertemp\ccuzpgLf.s 			page 31


 532              		.loc 2 118 12 view .LVU122
 533              	.LBE88:
 534              	.LBE87:
 934:lvgl/src/widgets/lv_btnmatrix.c **** 
 535              		.loc 1 934 5 is_stmt 1 view .LVU123
 536              	.LBB89:
 537              	.LBI89:
 119:lvgl/src/widgets/../core/lv_obj_style_gen.h **** }
 120:lvgl/src/widgets/../core/lv_obj_style_gen.h **** 
 121:lvgl/src/widgets/../core/lv_obj_style_gen.h **** static inline lv_coord_t lv_obj_get_style_pad_column(const struct _lv_obj_t * obj, uint32_t part)
 538              		.loc 2 121 26 view .LVU124
 539              	.LBB90:
 122:lvgl/src/widgets/../core/lv_obj_style_gen.h **** {
 123:lvgl/src/widgets/../core/lv_obj_style_gen.h ****     lv_style_value_t v = lv_obj_get_style_prop(obj, part, LV_STYLE_PAD_COLUMN);
 540              		.loc 2 123 5 view .LVU125
 541              		.loc 2 123 26 is_stmt 0 view .LVU126
 542 0070 41F61502 		movw	r2, #6165
 543 0074 0021     		movs	r1, #0
 544 0076 2846     		mov	r0, r5
 545              		.loc 2 123 26 view .LVU127
 546 0078 FFF7FEFF 		bl	lv_obj_get_style_prop
 547              	.LVL50:
 124:lvgl/src/widgets/../core/lv_obj_style_gen.h ****     return (lv_coord_t)v.num;
 548              		.loc 2 124 5 is_stmt 1 view .LVU128
 549              		.loc 2 124 12 is_stmt 0 view .LVU129
 550 007c 03B2     		sxth	r3, r0
 551              	.LVL51:
 552              		.loc 2 124 12 view .LVU130
 553              	.LBE90:
 554              	.LBE89:
 937:lvgl/src/widgets/lv_btnmatrix.c ****     pcol = (pcol / 2) + 1 + (pcol & 1);
 555              		.loc 1 937 5 is_stmt 1 view .LVU131
 937:lvgl/src/widgets/lv_btnmatrix.c ****     pcol = (pcol / 2) + 1 + (pcol & 1);
 556              		.loc 1 937 35 is_stmt 0 view .LVU132
 557 007e 07F00107 		and	r7, r7, #1
 558              	.LVL52:
 937:lvgl/src/widgets/lv_btnmatrix.c ****     pcol = (pcol / 2) + 1 + (pcol & 1);
 559              		.loc 1 937 27 view .LVU133
 560 0082 3246     		mov	r2, r6
 561 0084 002E     		cmp	r6, #0
 562 0086 23DB     		blt	.L43
 563              	.L27:
 564 0088 07EB6207 		add	r7, r7, r2, asr #1
 565 008c 0137     		adds	r7, r7, #1
 937:lvgl/src/widgets/lv_btnmatrix.c ****     pcol = (pcol / 2) + 1 + (pcol & 1);
 566              		.loc 1 937 10 view .LVU134
 567 008e 3FB2     		sxth	r7, r7
 568              	.LVL53:
 938:lvgl/src/widgets/lv_btnmatrix.c **** 
 569              		.loc 1 938 5 is_stmt 1 view .LVU135
 938:lvgl/src/widgets/lv_btnmatrix.c **** 
 570              		.loc 1 938 35 is_stmt 0 view .LVU136
 571 0090 00F00106 		and	r6, r0, #1
 938:lvgl/src/widgets/lv_btnmatrix.c **** 
 572              		.loc 1 938 27 view .LVU137
 573 0094 1A46     		mov	r2, r3
 574 0096 002B     		cmp	r3, #0
ARM GAS  C:\usertemp\ccuzpgLf.s 			page 32


 575 0098 1CDB     		blt	.L44
 576              	.L28:
 577 009a 06EB6206 		add	r6, r6, r2, asr #1
 578 009e 0136     		adds	r6, r6, #1
 938:lvgl/src/widgets/lv_btnmatrix.c **** 
 579              		.loc 1 938 10 view .LVU138
 580 00a0 36B2     		sxth	r6, r6
 581              	.LVL54:
 940:lvgl/src/widgets/lv_btnmatrix.c ****     pcol = LV_MIN(pcol, BTN_EXTRA_CLICK_AREA_MAX);
 582              		.loc 1 940 5 is_stmt 1 view .LVU139
 940:lvgl/src/widgets/lv_btnmatrix.c ****     pcol = LV_MIN(pcol, BTN_EXTRA_CLICK_AREA_MAX);
 583              		.loc 1 940 10 is_stmt 0 view .LVU140
 584 00a2 0D2F     		cmp	r7, #13
 585 00a4 A8BF     		it	ge
 586 00a6 0D27     		movge	r7, #13
 587              	.LVL55:
 941:lvgl/src/widgets/lv_btnmatrix.c ****     pright = LV_MIN(pright, BTN_EXTRA_CLICK_AREA_MAX);
 588              		.loc 1 941 5 is_stmt 1 view .LVU141
 941:lvgl/src/widgets/lv_btnmatrix.c ****     pright = LV_MIN(pright, BTN_EXTRA_CLICK_AREA_MAX);
 589              		.loc 1 941 10 is_stmt 0 view .LVU142
 590 00a8 0D2E     		cmp	r6, #13
 591 00aa A8BF     		it	ge
 592 00ac 0D26     		movge	r6, #13
 593              	.LVL56:
 942:lvgl/src/widgets/lv_btnmatrix.c ****     ptop = LV_MIN(ptop, BTN_EXTRA_CLICK_AREA_MAX);
 594              		.loc 1 942 5 is_stmt 1 view .LVU143
 942:lvgl/src/widgets/lv_btnmatrix.c ****     ptop = LV_MIN(ptop, BTN_EXTRA_CLICK_AREA_MAX);
 595              		.loc 1 942 12 is_stmt 0 view .LVU144
 596 00ae BAF10D0F 		cmp	r10, #13
 597 00b2 A8BF     		it	ge
 598 00b4 4FF00D0A 		movge	r10, #13
 599              	.LVL57:
 943:lvgl/src/widgets/lv_btnmatrix.c ****     pbottom = LV_MIN(pbottom, BTN_EXTRA_CLICK_AREA_MAX);
 600              		.loc 1 943 5 is_stmt 1 view .LVU145
 943:lvgl/src/widgets/lv_btnmatrix.c ****     pbottom = LV_MIN(pbottom, BTN_EXTRA_CLICK_AREA_MAX);
 601              		.loc 1 943 10 is_stmt 0 view .LVU146
 602 00b8 B9F10D0F 		cmp	r9, #13
 603 00bc A8BF     		it	ge
 604 00be 4FF00D09 		movge	r9, #13
 605              	.LVL58:
 944:lvgl/src/widgets/lv_btnmatrix.c **** 
 606              		.loc 1 944 5 is_stmt 1 view .LVU147
 944:lvgl/src/widgets/lv_btnmatrix.c **** 
 607              		.loc 1 944 13 is_stmt 0 view .LVU148
 608 00c2 B8F10D0F 		cmp	r8, #13
 609 00c6 A8BF     		it	ge
 610 00c8 4FF00D08 		movge	r8, #13
 611              	.LVL59:
 946:lvgl/src/widgets/lv_btnmatrix.c ****         lv_area_copy(&btn_area, &btnm->button_areas[i]);
 612              		.loc 1 946 5 is_stmt 1 view .LVU149
 946:lvgl/src/widgets/lv_btnmatrix.c ****         lv_area_copy(&btn_area, &btnm->button_areas[i]);
 613              		.loc 1 946 11 is_stmt 0 view .LVU150
 614 00cc 0024     		movs	r4, #0
 946:lvgl/src/widgets/lv_btnmatrix.c ****         lv_area_copy(&btn_area, &btnm->button_areas[i]);
 615              		.loc 1 946 5 view .LVU151
 616 00ce 31E0     		b	.L29
 617              	.LVL60:
ARM GAS  C:\usertemp\ccuzpgLf.s 			page 33


 618              	.L43:
 937:lvgl/src/widgets/lv_btnmatrix.c ****     pcol = (pcol / 2) + 1 + (pcol & 1);
 619              		.loc 1 937 27 view .LVU152
 620 00d0 721C     		adds	r2, r6, #1
 621 00d2 D9E7     		b	.L27
 622              	.LVL61:
 623              	.L44:
 938:lvgl/src/widgets/lv_btnmatrix.c **** 
 624              		.loc 1 938 27 view .LVU153
 625 00d4 5A1C     		adds	r2, r3, #1
 626 00d6 E0E7     		b	.L28
 627              	.LVL62:
 628              	.L30:
 949:lvgl/src/widgets/lv_btnmatrix.c **** 
 629              		.loc 1 949 14 is_stmt 1 view .LVU154
 949:lvgl/src/widgets/lv_btnmatrix.c **** 
 630              		.loc 1 949 38 is_stmt 0 view .LVU155
 631 00d8 BDF818C0 		ldrh	ip, [sp, #24]
 949:lvgl/src/widgets/lv_btnmatrix.c **** 
 632              		.loc 1 949 42 view .LVU156
 633 00dc ACEB060C 		sub	ip, ip, r6
 634 00e0 1FFA8CFC 		uxth	ip, ip
 949:lvgl/src/widgets/lv_btnmatrix.c **** 
 635              		.loc 1 949 26 view .LVU157
 636 00e4 1CFA80F0 		uxtah	r0, ip, r0
 637 00e8 ADF81000 		strh	r0, [sp, #16]	@ movhi
 638 00ec 4CE0     		b	.L31
 639              	.L32:
 952:lvgl/src/widgets/lv_btnmatrix.c **** 
 640              		.loc 1 952 14 is_stmt 1 view .LVU158
 952:lvgl/src/widgets/lv_btnmatrix.c **** 
 641              		.loc 1 952 38 is_stmt 0 view .LVU159
 642 00ee BDF81A00 		ldrh	r0, [sp, #26]
 952:lvgl/src/widgets/lv_btnmatrix.c **** 
 643              		.loc 1 952 42 view .LVU160
 644 00f2 C01B     		subs	r0, r0, r7
 645 00f4 80B2     		uxth	r0, r0
 952:lvgl/src/widgets/lv_btnmatrix.c **** 
 646              		.loc 1 952 26 view .LVU161
 647 00f6 10FA81F1 		uxtah	r1, r0, r1
 648 00fa ADF81210 		strh	r1, [sp, #18]	@ movhi
 649 00fe 56E0     		b	.L33
 650              	.L34:
 956:lvgl/src/widgets/lv_btnmatrix.c **** 
 651              		.loc 1 956 14 is_stmt 1 view .LVU162
 956:lvgl/src/widgets/lv_btnmatrix.c **** 
 652              		.loc 1 956 38 is_stmt 0 view .LVU163
 653 0100 BDF81810 		ldrh	r1, [sp, #24]
 956:lvgl/src/widgets/lv_btnmatrix.c **** 
 654              		.loc 1 956 42 view .LVU164
 655 0104 3144     		add	r1, r1, r6
 656 0106 89B2     		uxth	r1, r1
 956:lvgl/src/widgets/lv_btnmatrix.c **** 
 657              		.loc 1 956 26 view .LVU165
 658 0108 11FA82F2 		uxtah	r2, r1, r2
 659 010c ADF81420 		strh	r2, [sp, #20]	@ movhi
 660 0110 60E0     		b	.L35
ARM GAS  C:\usertemp\ccuzpgLf.s 			page 34


 661              	.L36:
 960:lvgl/src/widgets/lv_btnmatrix.c **** 
 662              		.loc 1 960 14 is_stmt 1 view .LVU166
 960:lvgl/src/widgets/lv_btnmatrix.c **** 
 663              		.loc 1 960 38 is_stmt 0 view .LVU167
 664 0112 BDF81A20 		ldrh	r2, [sp, #26]
 960:lvgl/src/widgets/lv_btnmatrix.c **** 
 665              		.loc 1 960 42 view .LVU168
 666 0116 3A44     		add	r2, r2, r7
 667 0118 92B2     		uxth	r2, r2
 960:lvgl/src/widgets/lv_btnmatrix.c **** 
 668              		.loc 1 960 26 view .LVU169
 669 011a 12FA83F3 		uxtah	r3, r2, r3
 670 011e ADF81630 		strh	r3, [sp, #22]	@ movhi
 671              	.L37:
 962:lvgl/src/widgets/lv_btnmatrix.c ****             break;
 672              		.loc 1 962 9 is_stmt 1 view .LVU170
 962:lvgl/src/widgets/lv_btnmatrix.c ****             break;
 673              		.loc 1 962 12 is_stmt 0 view .LVU171
 674 0122 0022     		movs	r2, #0
 675 0124 0399     		ldr	r1, [sp, #12]
 676 0126 04A8     		add	r0, sp, #16
 677 0128 FFF7FEFF 		bl	_lv_area_is_point_on
 678              	.LVL63:
 962:lvgl/src/widgets/lv_btnmatrix.c ****             break;
 679              		.loc 1 962 11 discriminator 1 view .LVU172
 680 012c 0028     		cmp	r0, #0
 681 012e 65D1     		bne	.L38
 946:lvgl/src/widgets/lv_btnmatrix.c ****         lv_area_copy(&btn_area, &btnm->button_areas[i]);
 682              		.loc 1 946 36 is_stmt 1 discriminator 2 view .LVU173
 683 0130 0134     		adds	r4, r4, #1
 684              	.LVL64:
 946:lvgl/src/widgets/lv_btnmatrix.c ****         lv_area_copy(&btn_area, &btnm->button_areas[i]);
 685              		.loc 1 946 36 is_stmt 0 discriminator 2 view .LVU174
 686 0132 A4B2     		uxth	r4, r4
 687              	.LVL65:
 688              	.L29:
 946:lvgl/src/widgets/lv_btnmatrix.c ****         lv_area_copy(&btn_area, &btnm->button_areas[i]);
 689              		.loc 1 946 18 is_stmt 1 discriminator 1 view .LVU175
 946:lvgl/src/widgets/lv_btnmatrix.c ****         lv_area_copy(&btn_area, &btnm->button_areas[i]);
 690              		.loc 1 946 24 is_stmt 0 discriminator 1 view .LVU176
 691 0134 2B8E     		ldrh	r3, [r5, #48]
 946:lvgl/src/widgets/lv_btnmatrix.c ****         lv_area_copy(&btn_area, &btnm->button_areas[i]);
 692              		.loc 1 946 18 discriminator 1 view .LVU177
 693 0136 A342     		cmp	r3, r4
 694 0138 60D9     		bls	.L38
 947:lvgl/src/widgets/lv_btnmatrix.c ****         if(btn_area.x1 <= pleft) btn_area.x1 += obj_cords.x1 - LV_MIN(pleft, BTN_EXTRA_CLICK_AREA_M
 695              		.loc 1 947 9 is_stmt 1 view .LVU178
 947:lvgl/src/widgets/lv_btnmatrix.c ****         if(btn_area.x1 <= pleft) btn_area.x1 += obj_cords.x1 - LV_MIN(pleft, BTN_EXTRA_CLICK_AREA_M
 696              		.loc 1 947 38 is_stmt 0 view .LVU179
 697 013a AA6A     		ldr	r2, [r5, #40]
 947:lvgl/src/widgets/lv_btnmatrix.c ****         if(btn_area.x1 <= pleft) btn_area.x1 += obj_cords.x1 - LV_MIN(pleft, BTN_EXTRA_CLICK_AREA_M
 698              		.loc 1 947 33 view .LVU180
 699 013c 02EBC403 		add	r3, r2, r4, lsl #3
 700              	.LVL66:
 701              	.LBB91:
 702              	.LBI91:
ARM GAS  C:\usertemp\ccuzpgLf.s 			page 35


 703              		.file 3 "lvgl/src/widgets/../core/../misc/../font/../misc/lv_area.h"
   1:lvgl/src/widgets/../core/../misc/../font/../misc/lv_area.h **** /**
   2:lvgl/src/widgets/../core/../misc/../font/../misc/lv_area.h ****  * @file lv_area.h
   3:lvgl/src/widgets/../core/../misc/../font/../misc/lv_area.h ****  *
   4:lvgl/src/widgets/../core/../misc/../font/../misc/lv_area.h ****  */
   5:lvgl/src/widgets/../core/../misc/../font/../misc/lv_area.h **** 
   6:lvgl/src/widgets/../core/../misc/../font/../misc/lv_area.h **** #ifndef LV_AREA_H
   7:lvgl/src/widgets/../core/../misc/../font/../misc/lv_area.h **** #define LV_AREA_H
   8:lvgl/src/widgets/../core/../misc/../font/../misc/lv_area.h **** 
   9:lvgl/src/widgets/../core/../misc/../font/../misc/lv_area.h **** #ifdef __cplusplus
  10:lvgl/src/widgets/../core/../misc/../font/../misc/lv_area.h **** extern "C" {
  11:lvgl/src/widgets/../core/../misc/../font/../misc/lv_area.h **** #endif
  12:lvgl/src/widgets/../core/../misc/../font/../misc/lv_area.h **** 
  13:lvgl/src/widgets/../core/../misc/../font/../misc/lv_area.h **** /*********************
  14:lvgl/src/widgets/../core/../misc/../font/../misc/lv_area.h ****  *      INCLUDES
  15:lvgl/src/widgets/../core/../misc/../font/../misc/lv_area.h ****  *********************/
  16:lvgl/src/widgets/../core/../misc/../font/../misc/lv_area.h **** #include "../lv_conf_internal.h"
  17:lvgl/src/widgets/../core/../misc/../font/../misc/lv_area.h **** #include <stdbool.h>
  18:lvgl/src/widgets/../core/../misc/../font/../misc/lv_area.h **** #include <stdint.h>
  19:lvgl/src/widgets/../core/../misc/../font/../misc/lv_area.h **** 
  20:lvgl/src/widgets/../core/../misc/../font/../misc/lv_area.h **** /*********************
  21:lvgl/src/widgets/../core/../misc/../font/../misc/lv_area.h ****  *      DEFINES
  22:lvgl/src/widgets/../core/../misc/../font/../misc/lv_area.h ****  *********************/
  23:lvgl/src/widgets/../core/../misc/../font/../misc/lv_area.h **** 
  24:lvgl/src/widgets/../core/../misc/../font/../misc/lv_area.h **** #if LV_USE_LARGE_COORD
  25:lvgl/src/widgets/../core/../misc/../font/../misc/lv_area.h **** typedef int32_t lv_coord_t;
  26:lvgl/src/widgets/../core/../misc/../font/../misc/lv_area.h **** #else
  27:lvgl/src/widgets/../core/../misc/../font/../misc/lv_area.h **** typedef int16_t lv_coord_t;
  28:lvgl/src/widgets/../core/../misc/../font/../misc/lv_area.h **** #endif
  29:lvgl/src/widgets/../core/../misc/../font/../misc/lv_area.h **** 
  30:lvgl/src/widgets/../core/../misc/../font/../misc/lv_area.h **** /**********************
  31:lvgl/src/widgets/../core/../misc/../font/../misc/lv_area.h ****  *      TYPEDEFS
  32:lvgl/src/widgets/../core/../misc/../font/../misc/lv_area.h ****  **********************/
  33:lvgl/src/widgets/../core/../misc/../font/../misc/lv_area.h **** 
  34:lvgl/src/widgets/../core/../misc/../font/../misc/lv_area.h **** /**
  35:lvgl/src/widgets/../core/../misc/../font/../misc/lv_area.h ****  * Represents a point on the screen.
  36:lvgl/src/widgets/../core/../misc/../font/../misc/lv_area.h ****  */
  37:lvgl/src/widgets/../core/../misc/../font/../misc/lv_area.h **** typedef struct {
  38:lvgl/src/widgets/../core/../misc/../font/../misc/lv_area.h ****     lv_coord_t x;
  39:lvgl/src/widgets/../core/../misc/../font/../misc/lv_area.h ****     lv_coord_t y;
  40:lvgl/src/widgets/../core/../misc/../font/../misc/lv_area.h **** } lv_point_t;
  41:lvgl/src/widgets/../core/../misc/../font/../misc/lv_area.h **** 
  42:lvgl/src/widgets/../core/../misc/../font/../misc/lv_area.h **** /** Represents an area of the screen.*/
  43:lvgl/src/widgets/../core/../misc/../font/../misc/lv_area.h **** typedef struct {
  44:lvgl/src/widgets/../core/../misc/../font/../misc/lv_area.h ****     lv_coord_t x1;
  45:lvgl/src/widgets/../core/../misc/../font/../misc/lv_area.h ****     lv_coord_t y1;
  46:lvgl/src/widgets/../core/../misc/../font/../misc/lv_area.h ****     lv_coord_t x2;
  47:lvgl/src/widgets/../core/../misc/../font/../misc/lv_area.h ****     lv_coord_t y2;
  48:lvgl/src/widgets/../core/../misc/../font/../misc/lv_area.h **** } lv_area_t;
  49:lvgl/src/widgets/../core/../misc/../font/../misc/lv_area.h **** 
  50:lvgl/src/widgets/../core/../misc/../font/../misc/lv_area.h **** /** Alignments*/
  51:lvgl/src/widgets/../core/../misc/../font/../misc/lv_area.h **** enum {
  52:lvgl/src/widgets/../core/../misc/../font/../misc/lv_area.h ****     LV_ALIGN_DEFAULT = 0,
  53:lvgl/src/widgets/../core/../misc/../font/../misc/lv_area.h ****     LV_ALIGN_TOP_LEFT,
  54:lvgl/src/widgets/../core/../misc/../font/../misc/lv_area.h ****     LV_ALIGN_TOP_MID,
  55:lvgl/src/widgets/../core/../misc/../font/../misc/lv_area.h ****     LV_ALIGN_TOP_RIGHT,
  56:lvgl/src/widgets/../core/../misc/../font/../misc/lv_area.h ****     LV_ALIGN_BOTTOM_LEFT,
ARM GAS  C:\usertemp\ccuzpgLf.s 			page 36


  57:lvgl/src/widgets/../core/../misc/../font/../misc/lv_area.h ****     LV_ALIGN_BOTTOM_MID,
  58:lvgl/src/widgets/../core/../misc/../font/../misc/lv_area.h ****     LV_ALIGN_BOTTOM_RIGHT,
  59:lvgl/src/widgets/../core/../misc/../font/../misc/lv_area.h ****     LV_ALIGN_LEFT_MID,
  60:lvgl/src/widgets/../core/../misc/../font/../misc/lv_area.h ****     LV_ALIGN_RIGHT_MID,
  61:lvgl/src/widgets/../core/../misc/../font/../misc/lv_area.h ****     LV_ALIGN_CENTER,
  62:lvgl/src/widgets/../core/../misc/../font/../misc/lv_area.h **** 
  63:lvgl/src/widgets/../core/../misc/../font/../misc/lv_area.h ****     LV_ALIGN_OUT_TOP_LEFT,
  64:lvgl/src/widgets/../core/../misc/../font/../misc/lv_area.h ****     LV_ALIGN_OUT_TOP_MID,
  65:lvgl/src/widgets/../core/../misc/../font/../misc/lv_area.h ****     LV_ALIGN_OUT_TOP_RIGHT,
  66:lvgl/src/widgets/../core/../misc/../font/../misc/lv_area.h ****     LV_ALIGN_OUT_BOTTOM_LEFT,
  67:lvgl/src/widgets/../core/../misc/../font/../misc/lv_area.h ****     LV_ALIGN_OUT_BOTTOM_MID,
  68:lvgl/src/widgets/../core/../misc/../font/../misc/lv_area.h ****     LV_ALIGN_OUT_BOTTOM_RIGHT,
  69:lvgl/src/widgets/../core/../misc/../font/../misc/lv_area.h ****     LV_ALIGN_OUT_LEFT_TOP,
  70:lvgl/src/widgets/../core/../misc/../font/../misc/lv_area.h ****     LV_ALIGN_OUT_LEFT_MID,
  71:lvgl/src/widgets/../core/../misc/../font/../misc/lv_area.h ****     LV_ALIGN_OUT_LEFT_BOTTOM,
  72:lvgl/src/widgets/../core/../misc/../font/../misc/lv_area.h ****     LV_ALIGN_OUT_RIGHT_TOP,
  73:lvgl/src/widgets/../core/../misc/../font/../misc/lv_area.h ****     LV_ALIGN_OUT_RIGHT_MID,
  74:lvgl/src/widgets/../core/../misc/../font/../misc/lv_area.h ****     LV_ALIGN_OUT_RIGHT_BOTTOM,
  75:lvgl/src/widgets/../core/../misc/../font/../misc/lv_area.h **** };
  76:lvgl/src/widgets/../core/../misc/../font/../misc/lv_area.h **** typedef uint8_t lv_align_t;
  77:lvgl/src/widgets/../core/../misc/../font/../misc/lv_area.h **** 
  78:lvgl/src/widgets/../core/../misc/../font/../misc/lv_area.h **** enum {
  79:lvgl/src/widgets/../core/../misc/../font/../misc/lv_area.h ****     LV_DIR_NONE     = 0x00,
  80:lvgl/src/widgets/../core/../misc/../font/../misc/lv_area.h ****     LV_DIR_LEFT     = (1 << 0),
  81:lvgl/src/widgets/../core/../misc/../font/../misc/lv_area.h ****     LV_DIR_RIGHT    = (1 << 1),
  82:lvgl/src/widgets/../core/../misc/../font/../misc/lv_area.h ****     LV_DIR_TOP      = (1 << 2),
  83:lvgl/src/widgets/../core/../misc/../font/../misc/lv_area.h ****     LV_DIR_BOTTOM   = (1 << 3),
  84:lvgl/src/widgets/../core/../misc/../font/../misc/lv_area.h ****     LV_DIR_HOR      = LV_DIR_LEFT | LV_DIR_RIGHT,
  85:lvgl/src/widgets/../core/../misc/../font/../misc/lv_area.h ****     LV_DIR_VER      = LV_DIR_TOP | LV_DIR_BOTTOM,
  86:lvgl/src/widgets/../core/../misc/../font/../misc/lv_area.h ****     LV_DIR_ALL      = LV_DIR_HOR | LV_DIR_VER,
  87:lvgl/src/widgets/../core/../misc/../font/../misc/lv_area.h **** };
  88:lvgl/src/widgets/../core/../misc/../font/../misc/lv_area.h **** 
  89:lvgl/src/widgets/../core/../misc/../font/../misc/lv_area.h **** typedef uint8_t lv_dir_t;
  90:lvgl/src/widgets/../core/../misc/../font/../misc/lv_area.h **** 
  91:lvgl/src/widgets/../core/../misc/../font/../misc/lv_area.h **** /**********************
  92:lvgl/src/widgets/../core/../misc/../font/../misc/lv_area.h ****  * GLOBAL PROTOTYPES
  93:lvgl/src/widgets/../core/../misc/../font/../misc/lv_area.h ****  **********************/
  94:lvgl/src/widgets/../core/../misc/../font/../misc/lv_area.h **** 
  95:lvgl/src/widgets/../core/../misc/../font/../misc/lv_area.h **** /**
  96:lvgl/src/widgets/../core/../misc/../font/../misc/lv_area.h ****  * Initialize an area
  97:lvgl/src/widgets/../core/../misc/../font/../misc/lv_area.h ****  * @param area_p pointer to an area
  98:lvgl/src/widgets/../core/../misc/../font/../misc/lv_area.h ****  * @param x1 left coordinate of the area
  99:lvgl/src/widgets/../core/../misc/../font/../misc/lv_area.h ****  * @param y1 top coordinate of the area
 100:lvgl/src/widgets/../core/../misc/../font/../misc/lv_area.h ****  * @param x2 right coordinate of the area
 101:lvgl/src/widgets/../core/../misc/../font/../misc/lv_area.h ****  * @param y2 bottom coordinate of the area
 102:lvgl/src/widgets/../core/../misc/../font/../misc/lv_area.h ****  */
 103:lvgl/src/widgets/../core/../misc/../font/../misc/lv_area.h **** void lv_area_set(lv_area_t * area_p, lv_coord_t x1, lv_coord_t y1, lv_coord_t x2, lv_coord_t y2);
 104:lvgl/src/widgets/../core/../misc/../font/../misc/lv_area.h **** 
 105:lvgl/src/widgets/../core/../misc/../font/../misc/lv_area.h **** /**
 106:lvgl/src/widgets/../core/../misc/../font/../misc/lv_area.h ****  * Copy an area
 107:lvgl/src/widgets/../core/../misc/../font/../misc/lv_area.h ****  * @param dest pointer to the destination area
 108:lvgl/src/widgets/../core/../misc/../font/../misc/lv_area.h ****  * @param src pointer to the source area
 109:lvgl/src/widgets/../core/../misc/../font/../misc/lv_area.h ****  */
 110:lvgl/src/widgets/../core/../misc/../font/../misc/lv_area.h **** inline static void lv_area_copy(lv_area_t * dest, const lv_area_t * src)
 704              		.loc 3 110 20 is_stmt 1 view .LVU181
 705              	.LBB92:
 111:lvgl/src/widgets/../core/../misc/../font/../misc/lv_area.h **** {
ARM GAS  C:\usertemp\ccuzpgLf.s 			page 37


 112:lvgl/src/widgets/../core/../misc/../font/../misc/lv_area.h ****     dest->x1 = src->x1;
 706              		.loc 3 112 5 view .LVU182
 707              		.loc 3 112 19 is_stmt 0 view .LVU183
 708 0140 32F93400 		ldrsh	r0, [r2, r4, lsl #3]
 709              		.loc 3 112 14 view .LVU184
 710 0144 ADF81000 		strh	r0, [sp, #16]	@ movhi
 113:lvgl/src/widgets/../core/../misc/../font/../misc/lv_area.h ****     dest->y1 = src->y1;
 711              		.loc 3 113 5 is_stmt 1 view .LVU185
 712              		.loc 3 113 19 is_stmt 0 view .LVU186
 713 0148 B3F90210 		ldrsh	r1, [r3, #2]
 714              		.loc 3 113 14 view .LVU187
 715 014c ADF81210 		strh	r1, [sp, #18]	@ movhi
 114:lvgl/src/widgets/../core/../misc/../font/../misc/lv_area.h ****     dest->x2 = src->x2;
 716              		.loc 3 114 5 is_stmt 1 view .LVU188
 717              		.loc 3 114 19 is_stmt 0 view .LVU189
 718 0150 B3F90420 		ldrsh	r2, [r3, #4]
 719              		.loc 3 114 14 view .LVU190
 720 0154 ADF81420 		strh	r2, [sp, #20]	@ movhi
 115:lvgl/src/widgets/../core/../misc/../font/../misc/lv_area.h ****     dest->y2 = src->y2;
 721              		.loc 3 115 5 is_stmt 1 view .LVU191
 722              		.loc 3 115 19 is_stmt 0 view .LVU192
 723 0158 B3F90630 		ldrsh	r3, [r3, #6]
 724              	.LVL67:
 725              		.loc 3 115 14 view .LVU193
 726 015c ADF81630 		strh	r3, [sp, #22]	@ movhi
 727              	.LVL68:
 728              		.loc 3 115 14 view .LVU194
 729              	.LBE92:
 730              	.LBE91:
 948:lvgl/src/widgets/lv_btnmatrix.c ****         else btn_area.x1 += obj_cords.x1 - pcol;
 731              		.loc 1 948 9 is_stmt 1 view .LVU195
 948:lvgl/src/widgets/lv_btnmatrix.c ****         else btn_area.x1 += obj_cords.x1 - pcol;
 732              		.loc 1 948 11 is_stmt 0 view .LVU196
 733 0160 8345     		cmp	fp, r0
 734 0162 B9DB     		blt	.L30
 948:lvgl/src/widgets/lv_btnmatrix.c ****         else btn_area.x1 += obj_cords.x1 - pcol;
 735              		.loc 1 948 34 is_stmt 1 discriminator 1 view .LVU197
 948:lvgl/src/widgets/lv_btnmatrix.c ****         else btn_area.x1 += obj_cords.x1 - pcol;
 736              		.loc 1 948 58 is_stmt 0 discriminator 1 view .LVU198
 737 0164 BDF818C0 		ldrh	ip, [sp, #24]
 948:lvgl/src/widgets/lv_btnmatrix.c ****         else btn_area.x1 += obj_cords.x1 - pcol;
 738              		.loc 1 948 64 discriminator 1 view .LVU199
 739 0168 DE46     		mov	lr, fp
 740 016a BBF10D0F 		cmp	fp, #13
 741 016e A8BF     		it	ge
 742 0170 4FF00D0E 		movge	lr, #13
 743 0174 1FFA8EFE 		uxth	lr, lr
 948:lvgl/src/widgets/lv_btnmatrix.c ****         else btn_area.x1 += obj_cords.x1 - pcol;
 744              		.loc 1 948 62 discriminator 1 view .LVU200
 745 0178 ACEB0E0C 		sub	ip, ip, lr
 746 017c 1FFA8CFC 		uxth	ip, ip
 948:lvgl/src/widgets/lv_btnmatrix.c ****         else btn_area.x1 += obj_cords.x1 - pcol;
 747              		.loc 1 948 46 discriminator 1 view .LVU201
 748 0180 1CFA80F0 		uxtah	r0, ip, r0
 749 0184 ADF81000 		strh	r0, [sp, #16]	@ movhi
 750              	.L31:
 951:lvgl/src/widgets/lv_btnmatrix.c ****         else btn_area.y1 += obj_cords.y1 - prow;
ARM GAS  C:\usertemp\ccuzpgLf.s 			page 38


 751              		.loc 1 951 9 is_stmt 1 view .LVU202
 951:lvgl/src/widgets/lv_btnmatrix.c ****         else btn_area.y1 += obj_cords.y1 - prow;
 752              		.loc 1 951 11 is_stmt 0 view .LVU203
 753 0188 8945     		cmp	r9, r1
 754 018a B0DB     		blt	.L32
 951:lvgl/src/widgets/lv_btnmatrix.c ****         else btn_area.y1 += obj_cords.y1 - prow;
 755              		.loc 1 951 33 is_stmt 1 discriminator 1 view .LVU204
 951:lvgl/src/widgets/lv_btnmatrix.c ****         else btn_area.y1 += obj_cords.y1 - prow;
 756              		.loc 1 951 57 is_stmt 0 discriminator 1 view .LVU205
 757 018c BDF81A00 		ldrh	r0, [sp, #26]
 951:lvgl/src/widgets/lv_btnmatrix.c ****         else btn_area.y1 += obj_cords.y1 - prow;
 758              		.loc 1 951 63 discriminator 1 view .LVU206
 759 0190 CC46     		mov	ip, r9
 760 0192 B9F10D0F 		cmp	r9, #13
 761 0196 A8BF     		it	ge
 762 0198 4FF00D0C 		movge	ip, #13
 763 019c 1FFA8CFC 		uxth	ip, ip
 951:lvgl/src/widgets/lv_btnmatrix.c ****         else btn_area.y1 += obj_cords.y1 - prow;
 764              		.loc 1 951 61 discriminator 1 view .LVU207
 765 01a0 A0EB0C00 		sub	r0, r0, ip
 766 01a4 80B2     		uxth	r0, r0
 951:lvgl/src/widgets/lv_btnmatrix.c ****         else btn_area.y1 += obj_cords.y1 - prow;
 767              		.loc 1 951 45 discriminator 1 view .LVU208
 768 01a6 10FA81F1 		uxtah	r1, r0, r1
 769 01aa ADF81210 		strh	r1, [sp, #18]	@ movhi
 770              	.L33:
 954:lvgl/src/widgets/lv_btnmatrix.c ****                                                                                    BTN_EXTRA_CLICK_
 771              		.loc 1 954 9 is_stmt 1 view .LVU209
 954:lvgl/src/widgets/lv_btnmatrix.c ****                                                                                    BTN_EXTRA_CLICK_
 772              		.loc 1 954 29 is_stmt 0 view .LVU210
 773 01ae 0199     		ldr	r1, [sp, #4]
 774 01b0 A1EB0A01 		sub	r1, r1, r10
 954:lvgl/src/widgets/lv_btnmatrix.c ****                                                                                    BTN_EXTRA_CLICK_
 775              		.loc 1 954 38 view .LVU211
 776 01b4 0239     		subs	r1, r1, #2
 954:lvgl/src/widgets/lv_btnmatrix.c ****                                                                                    BTN_EXTRA_CLICK_
 777              		.loc 1 954 11 view .LVU212
 778 01b6 8A42     		cmp	r2, r1
 779 01b8 A2DB     		blt	.L34
 954:lvgl/src/widgets/lv_btnmatrix.c ****                                                                                    BTN_EXTRA_CLICK_
 780              		.loc 1 954 43 is_stmt 1 discriminator 1 view .LVU213
 954:lvgl/src/widgets/lv_btnmatrix.c ****                                                                                    BTN_EXTRA_CLICK_
 781              		.loc 1 954 67 is_stmt 0 discriminator 1 view .LVU214
 782 01ba BDF81800 		ldrh	r0, [sp, #24]
 954:lvgl/src/widgets/lv_btnmatrix.c ****                                                                                    BTN_EXTRA_CLICK_
 783              		.loc 1 954 73 discriminator 1 view .LVU215
 784 01be 5146     		mov	r1, r10
 785 01c0 0D29     		cmp	r1, #13
 786 01c2 A8BF     		it	ge
 787 01c4 0D21     		movge	r1, #13
 954:lvgl/src/widgets/lv_btnmatrix.c ****                                                                                    BTN_EXTRA_CLICK_
 788              		.loc 1 954 71 discriminator 1 view .LVU216
 789 01c6 10FA81F1 		uxtah	r1, r0, r1
 790 01ca 89B2     		uxth	r1, r1
 954:lvgl/src/widgets/lv_btnmatrix.c ****                                                                                    BTN_EXTRA_CLICK_
 791              		.loc 1 954 55 discriminator 1 view .LVU217
 792 01cc 11FA82F2 		uxtah	r2, r1, r2
ARM GAS  C:\usertemp\ccuzpgLf.s 			page 39


 793 01d0 ADF81420 		strh	r2, [sp, #20]	@ movhi
 794              	.L35:
 958:lvgl/src/widgets/lv_btnmatrix.c ****                                                                                     BTN_EXTRA_CLICK
 795              		.loc 1 958 9 is_stmt 1 view .LVU218
 958:lvgl/src/widgets/lv_btnmatrix.c ****                                                                                     BTN_EXTRA_CLICK
 796              		.loc 1 958 29 is_stmt 0 view .LVU219
 797 01d4 029A     		ldr	r2, [sp, #8]
 798 01d6 A2EB0802 		sub	r2, r2, r8
 958:lvgl/src/widgets/lv_btnmatrix.c ****                                                                                     BTN_EXTRA_CLICK
 799              		.loc 1 958 39 view .LVU220
 800 01da 023A     		subs	r2, r2, #2
 958:lvgl/src/widgets/lv_btnmatrix.c ****                                                                                     BTN_EXTRA_CLICK
 801              		.loc 1 958 11 view .LVU221
 802 01dc 9342     		cmp	r3, r2
 803 01de 98DB     		blt	.L36
 958:lvgl/src/widgets/lv_btnmatrix.c ****                                                                                     BTN_EXTRA_CLICK
 804              		.loc 1 958 44 is_stmt 1 discriminator 1 view .LVU222
 958:lvgl/src/widgets/lv_btnmatrix.c ****                                                                                     BTN_EXTRA_CLICK
 805              		.loc 1 958 68 is_stmt 0 discriminator 1 view .LVU223
 806 01e0 BDF81A10 		ldrh	r1, [sp, #26]
 958:lvgl/src/widgets/lv_btnmatrix.c ****                                                                                     BTN_EXTRA_CLICK
 807              		.loc 1 958 74 discriminator 1 view .LVU224
 808 01e4 4246     		mov	r2, r8
 809 01e6 0D2A     		cmp	r2, #13
 810 01e8 A8BF     		it	ge
 811 01ea 0D22     		movge	r2, #13
 958:lvgl/src/widgets/lv_btnmatrix.c ****                                                                                     BTN_EXTRA_CLICK
 812              		.loc 1 958 72 discriminator 1 view .LVU225
 813 01ec 11FA82F2 		uxtah	r2, r1, r2
 814 01f0 92B2     		uxth	r2, r2
 958:lvgl/src/widgets/lv_btnmatrix.c ****                                                                                     BTN_EXTRA_CLICK
 815              		.loc 1 958 56 discriminator 1 view .LVU226
 816 01f2 12FA83F3 		uxtah	r3, r2, r3
 817 01f6 ADF81630 		strh	r3, [sp, #22]	@ movhi
 818 01fa 92E7     		b	.L37
 819              	.L38:
 967:lvgl/src/widgets/lv_btnmatrix.c **** 
 820              		.loc 1 967 5 is_stmt 1 view .LVU227
 967:lvgl/src/widgets/lv_btnmatrix.c **** 
 821              		.loc 1 967 17 is_stmt 0 view .LVU228
 822 01fc 2B8E     		ldrh	r3, [r5, #48]
 967:lvgl/src/widgets/lv_btnmatrix.c **** 
 823              		.loc 1 967 7 view .LVU229
 824 01fe A342     		cmp	r3, r4
 825 0200 03D0     		beq	.L45
 826              	.LVL69:
 827              	.L40:
 969:lvgl/src/widgets/lv_btnmatrix.c **** }
 828              		.loc 1 969 5 is_stmt 1 view .LVU230
 970:lvgl/src/widgets/lv_btnmatrix.c **** 
 829              		.loc 1 970 1 is_stmt 0 view .LVU231
 830 0202 2046     		mov	r0, r4
 831 0204 09B0     		add	sp, sp, #36
 832              	.LCFI5:
 833              		.cfi_remember_state
 834              		.cfi_def_cfa_offset 36
 835              		@ sp needed
ARM GAS  C:\usertemp\ccuzpgLf.s 			page 40


 836 0206 BDE8F08F 		pop	{r4, r5, r6, r7, r8, r9, r10, fp, pc}
 837              	.LVL70:
 838              	.L45:
 839              	.LCFI6:
 840              		.cfi_restore_state
 967:lvgl/src/widgets/lv_btnmatrix.c **** 
 841              		.loc 1 967 30 discriminator 1 view .LVU232
 842 020a 4FF6FF74 		movw	r4, #65535
 843              	.LVL71:
 967:lvgl/src/widgets/lv_btnmatrix.c **** 
 844              		.loc 1 967 30 discriminator 1 view .LVU233
 845 020e F8E7     		b	.L40
 846              		.cfi_endproc
 847              	.LFE186:
 849              		.section	.text.invalidate_button_area,"ax",%progbits
 850              		.align	1
 851              		.syntax unified
 852              		.thumb
 853              		.thumb_func
 855              	invalidate_button_area:
 856              	.LVL72:
 857              	.LFB187:
 973:lvgl/src/widgets/lv_btnmatrix.c ****     if(btn_idx == LV_BTNMATRIX_BTN_NONE) return;
 858              		.loc 1 973 1 is_stmt 1 view -0
 859              		.cfi_startproc
 860              		@ args = 0, pretend = 0, frame = 16
 861              		@ frame_needed = 0, uses_anonymous_args = 0
 974:lvgl/src/widgets/lv_btnmatrix.c **** 
 862              		.loc 1 974 5 view .LVU235
 974:lvgl/src/widgets/lv_btnmatrix.c **** 
 863              		.loc 1 974 7 is_stmt 0 view .LVU236
 864 0000 4FF6FF73 		movw	r3, #65535
 865 0004 9942     		cmp	r1, r3
 866 0006 78D0     		beq	.L51
 973:lvgl/src/widgets/lv_btnmatrix.c ****     if(btn_idx == LV_BTNMATRIX_BTN_NONE) return;
 867              		.loc 1 973 1 view .LVU237
 868 0008 F0B5     		push	{r4, r5, r6, r7, lr}
 869              	.LCFI7:
 870              		.cfi_def_cfa_offset 20
 871              		.cfi_offset 4, -20
 872              		.cfi_offset 5, -16
 873              		.cfi_offset 6, -12
 874              		.cfi_offset 7, -8
 875              		.cfi_offset 14, -4
 876 000a 85B0     		sub	sp, sp, #20
 877              	.LCFI8:
 878              		.cfi_def_cfa_offset 40
 879 000c 0446     		mov	r4, r0
 880 000e 0D46     		mov	r5, r1
 976:lvgl/src/widgets/lv_btnmatrix.c ****     lv_area_t obj_area;
 881              		.loc 1 976 5 is_stmt 1 view .LVU238
 977:lvgl/src/widgets/lv_btnmatrix.c **** 
 882              		.loc 1 977 5 view .LVU239
 979:lvgl/src/widgets/lv_btnmatrix.c ****     if(btn_idx >= btnm->btn_cnt) return;
 883              		.loc 1 979 5 view .LVU240
 884              	.LVL73:
 979:lvgl/src/widgets/lv_btnmatrix.c ****     if(btn_idx >= btnm->btn_cnt) return;
ARM GAS  C:\usertemp\ccuzpgLf.s 			page 41


 885              		.loc 1 979 51 view .LVU241
 980:lvgl/src/widgets/lv_btnmatrix.c **** 
 886              		.loc 1 980 5 view .LVU242
 980:lvgl/src/widgets/lv_btnmatrix.c **** 
 887              		.loc 1 980 23 is_stmt 0 view .LVU243
 888 0010 038E     		ldrh	r3, [r0, #48]
 980:lvgl/src/widgets/lv_btnmatrix.c **** 
 889              		.loc 1 980 7 view .LVU244
 890 0012 8B42     		cmp	r3, r1
 891 0014 01D8     		bhi	.L54
 892              	.LVL74:
 893              	.L46:
1007:lvgl/src/widgets/lv_btnmatrix.c **** 
 894              		.loc 1 1007 1 view .LVU245
 895 0016 05B0     		add	sp, sp, #20
 896              	.LCFI9:
 897              		.cfi_remember_state
 898              		.cfi_def_cfa_offset 20
 899              		@ sp needed
 900 0018 F0BD     		pop	{r4, r5, r6, r7, pc}
 901              	.LVL75:
 902              	.L54:
 903              	.LCFI10:
 904              		.cfi_restore_state
 982:lvgl/src/widgets/lv_btnmatrix.c ****     lv_obj_get_coords(obj, &obj_area);
 905              		.loc 1 982 5 is_stmt 1 view .LVU246
 982:lvgl/src/widgets/lv_btnmatrix.c ****     lv_obj_get_coords(obj, &obj_area);
 906              		.loc 1 982 34 is_stmt 0 view .LVU247
 907 001a 826A     		ldr	r2, [r0, #40]
 982:lvgl/src/widgets/lv_btnmatrix.c ****     lv_obj_get_coords(obj, &obj_area);
 908              		.loc 1 982 29 view .LVU248
 909 001c 02EBC103 		add	r3, r2, r1, lsl #3
 910              	.LVL76:
 911              	.LBB93:
 912              	.LBI93:
 110:lvgl/src/widgets/../core/../misc/../font/../misc/lv_area.h **** {
 913              		.loc 3 110 20 is_stmt 1 view .LVU249
 914              	.LBB94:
 112:lvgl/src/widgets/../core/../misc/../font/../misc/lv_area.h ****     dest->y1 = src->y1;
 915              		.loc 3 112 5 view .LVU250
 112:lvgl/src/widgets/../core/../misc/../font/../misc/lv_area.h ****     dest->y1 = src->y1;
 916              		.loc 3 112 19 is_stmt 0 view .LVU251
 917 0020 32F93120 		ldrsh	r2, [r2, r1, lsl #3]
 112:lvgl/src/widgets/../core/../misc/../font/../misc/lv_area.h ****     dest->y1 = src->y1;
 918              		.loc 3 112 14 view .LVU252
 919 0024 ADF80820 		strh	r2, [sp, #8]	@ movhi
 113:lvgl/src/widgets/../core/../misc/../font/../misc/lv_area.h ****     dest->x2 = src->x2;
 920              		.loc 3 113 5 is_stmt 1 view .LVU253
 113:lvgl/src/widgets/../core/../misc/../font/../misc/lv_area.h ****     dest->x2 = src->x2;
 921              		.loc 3 113 19 is_stmt 0 view .LVU254
 922 0028 B3F90220 		ldrsh	r2, [r3, #2]
 113:lvgl/src/widgets/../core/../misc/../font/../misc/lv_area.h ****     dest->x2 = src->x2;
 923              		.loc 3 113 14 view .LVU255
 924 002c ADF80A20 		strh	r2, [sp, #10]	@ movhi
 114:lvgl/src/widgets/../core/../misc/../font/../misc/lv_area.h ****     dest->y2 = src->y2;
 925              		.loc 3 114 5 is_stmt 1 view .LVU256
 114:lvgl/src/widgets/../core/../misc/../font/../misc/lv_area.h ****     dest->y2 = src->y2;
ARM GAS  C:\usertemp\ccuzpgLf.s 			page 42


 926              		.loc 3 114 19 is_stmt 0 view .LVU257
 927 0030 B3F90420 		ldrsh	r2, [r3, #4]
 114:lvgl/src/widgets/../core/../misc/../font/../misc/lv_area.h ****     dest->y2 = src->y2;
 928              		.loc 3 114 14 view .LVU258
 929 0034 ADF80C20 		strh	r2, [sp, #12]	@ movhi
 930              		.loc 3 115 5 is_stmt 1 view .LVU259
 931              		.loc 3 115 19 is_stmt 0 view .LVU260
 932 0038 B3F90630 		ldrsh	r3, [r3, #6]
 933              	.LVL77:
 934              		.loc 3 115 14 view .LVU261
 935 003c ADF80E30 		strh	r3, [sp, #14]	@ movhi
 936              	.LVL78:
 937              		.loc 3 115 14 view .LVU262
 938              	.LBE94:
 939              	.LBE93:
 983:lvgl/src/widgets/lv_btnmatrix.c **** 
 940              		.loc 1 983 5 is_stmt 1 view .LVU263
 941 0040 6946     		mov	r1, sp
 942              	.LVL79:
 983:lvgl/src/widgets/lv_btnmatrix.c **** 
 943              		.loc 1 983 5 is_stmt 0 view .LVU264
 944 0042 FFF7FEFF 		bl	lv_obj_get_coords
 945              	.LVL80:
 987:lvgl/src/widgets/lv_btnmatrix.c ****     lv_coord_t col_gap = lv_obj_get_style_pad_column(obj, LV_PART_MAIN);
 946              		.loc 1 987 5 is_stmt 1 view .LVU265
 947              	.LBB95:
 948              	.LBI95:
 115:lvgl/src/widgets/../core/lv_obj_style_gen.h **** {
 949              		.loc 2 115 26 view .LVU266
 950              	.LBB96:
 117:lvgl/src/widgets/../core/lv_obj_style_gen.h ****     return (lv_coord_t)v.num;
 951              		.loc 2 117 5 view .LVU267
 117:lvgl/src/widgets/../core/lv_obj_style_gen.h ****     return (lv_coord_t)v.num;
 952              		.loc 2 117 26 is_stmt 0 view .LVU268
 953 0046 41F61402 		movw	r2, #6164
 954 004a 0021     		movs	r1, #0
 955 004c 2046     		mov	r0, r4
 956 004e FFF7FEFF 		bl	lv_obj_get_style_prop
 957              	.LVL81:
 118:lvgl/src/widgets/../core/lv_obj_style_gen.h **** }
 958              		.loc 2 118 5 is_stmt 1 view .LVU269
 118:lvgl/src/widgets/../core/lv_obj_style_gen.h **** }
 959              		.loc 2 118 12 is_stmt 0 view .LVU270
 960 0052 06B2     		sxth	r6, r0
 961              	.LVL82:
 118:lvgl/src/widgets/../core/lv_obj_style_gen.h **** }
 962              		.loc 2 118 12 view .LVU271
 963              	.LBE96:
 964              	.LBE95:
 988:lvgl/src/widgets/lv_btnmatrix.c **** 
 965              		.loc 1 988 5 is_stmt 1 view .LVU272
 966              	.LBB97:
 967              	.LBI97:
 121:lvgl/src/widgets/../core/lv_obj_style_gen.h **** {
 968              		.loc 2 121 26 view .LVU273
 969              	.LBB98:
 123:lvgl/src/widgets/../core/lv_obj_style_gen.h ****     return (lv_coord_t)v.num;
ARM GAS  C:\usertemp\ccuzpgLf.s 			page 43


 970              		.loc 2 123 5 view .LVU274
 123:lvgl/src/widgets/../core/lv_obj_style_gen.h ****     return (lv_coord_t)v.num;
 971              		.loc 2 123 26 is_stmt 0 view .LVU275
 972 0054 41F61502 		movw	r2, #6165
 973 0058 0021     		movs	r1, #0
 974 005a 2046     		mov	r0, r4
 975 005c FFF7FEFF 		bl	lv_obj_get_style_prop
 976              	.LVL83:
 977              		.loc 2 124 5 is_stmt 1 view .LVU276
 978              		.loc 2 124 12 is_stmt 0 view .LVU277
 979 0060 07B2     		sxth	r7, r0
 980              	.LVL84:
 981              		.loc 2 124 12 view .LVU278
 982              	.LBE98:
 983              	.LBE97:
 991:lvgl/src/widgets/lv_btnmatrix.c ****     row_gap = LV_MAX(row_gap, dpi / 10);
 984              		.loc 1 991 5 is_stmt 1 view .LVU279
 991:lvgl/src/widgets/lv_btnmatrix.c ****     row_gap = LV_MAX(row_gap, dpi / 10);
 985              		.loc 1 991 38 is_stmt 0 view .LVU280
 986 0062 2046     		mov	r0, r4
 987 0064 FFF7FEFF 		bl	lv_obj_get_disp
 988              	.LVL85:
 991:lvgl/src/widgets/lv_btnmatrix.c ****     row_gap = LV_MAX(row_gap, dpi / 10);
 989              		.loc 1 991 22 discriminator 1 view .LVU281
 990 0068 FFF7FEFF 		bl	lv_disp_get_dpi
 991              	.LVL86:
 992:lvgl/src/widgets/lv_btnmatrix.c ****     col_gap = LV_MAX(col_gap, dpi / 10);
 992              		.loc 1 992 5 is_stmt 1 view .LVU282
 992:lvgl/src/widgets/lv_btnmatrix.c ****     col_gap = LV_MAX(col_gap, dpi / 10);
 993              		.loc 1 992 15 is_stmt 0 view .LVU283
 994 006c 234A     		ldr	r2, .L56
 995 006e 82FB0032 		smull	r3, r2, r2, r0
 996 0072 C317     		asrs	r3, r0, #31
 997 0074 C3EBA203 		rsb	r3, r3, r2, asr #2
 998 0078 1BB2     		sxth	r3, r3
 992:lvgl/src/widgets/lv_btnmatrix.c ****     col_gap = LV_MAX(col_gap, dpi / 10);
 999              		.loc 1 992 13 view .LVU284
 1000 007a 9E42     		cmp	r6, r3
 1001 007c B8BF     		it	lt
 1002 007e 1E46     		movlt	r6, r3
 1003              	.LVL87:
 993:lvgl/src/widgets/lv_btnmatrix.c **** 
 1004              		.loc 1 993 5 is_stmt 1 view .LVU285
 993:lvgl/src/widgets/lv_btnmatrix.c **** 
 1005              		.loc 1 993 13 is_stmt 0 view .LVU286
 1006 0080 BB42     		cmp	r3, r7
 1007 0082 B8BF     		it	lt
 1008 0084 3B46     		movlt	r3, r7
 1009              	.LVL88:
 996:lvgl/src/widgets/lv_btnmatrix.c ****     btn_area.y1 += obj_area.y1 - col_gap;
 1010              		.loc 1 996 5 is_stmt 1 view .LVU287
 996:lvgl/src/widgets/lv_btnmatrix.c ****     btn_area.y1 += obj_area.y1 - col_gap;
 1011              		.loc 1 996 13 is_stmt 0 view .LVU288
 1012 0086 BDF80800 		ldrh	r0, [sp, #8]
 1013              	.LVL89:
 996:lvgl/src/widgets/lv_btnmatrix.c ****     btn_area.y1 += obj_area.y1 - col_gap;
 1014              		.loc 1 996 28 view .LVU289
ARM GAS  C:\usertemp\ccuzpgLf.s 			page 44


 1015 008a BDF80010 		ldrh	r1, [sp]
 996:lvgl/src/widgets/lv_btnmatrix.c ****     btn_area.y1 += obj_area.y1 - col_gap;
 1016              		.loc 1 996 32 view .LVU290
 1017 008e B6B2     		uxth	r6, r6
 996:lvgl/src/widgets/lv_btnmatrix.c ****     btn_area.y1 += obj_area.y1 - col_gap;
 1018              		.loc 1 996 32 view .LVU291
 1019 0090 8A1B     		subs	r2, r1, r6
 996:lvgl/src/widgets/lv_btnmatrix.c ****     btn_area.y1 += obj_area.y1 - col_gap;
 1020              		.loc 1 996 17 view .LVU292
 1021 0092 10FA82F2 		uxtah	r2, r0, r2
 1022 0096 ADF80820 		strh	r2, [sp, #8]	@ movhi
 997:lvgl/src/widgets/lv_btnmatrix.c ****     btn_area.x2 += obj_area.x1 + row_gap;
 1023              		.loc 1 997 5 is_stmt 1 view .LVU293
 997:lvgl/src/widgets/lv_btnmatrix.c ****     btn_area.x2 += obj_area.x1 + row_gap;
 1024              		.loc 1 997 13 is_stmt 0 view .LVU294
 1025 009a BDF80A70 		ldrh	r7, [sp, #10]
 997:lvgl/src/widgets/lv_btnmatrix.c ****     btn_area.x2 += obj_area.x1 + row_gap;
 1026              		.loc 1 997 28 view .LVU295
 1027 009e BDF80220 		ldrh	r2, [sp, #2]
 997:lvgl/src/widgets/lv_btnmatrix.c ****     btn_area.x2 += obj_area.x1 + row_gap;
 1028              		.loc 1 997 32 view .LVU296
 1029 00a2 9BB2     		uxth	r3, r3
 997:lvgl/src/widgets/lv_btnmatrix.c ****     btn_area.x2 += obj_area.x1 + row_gap;
 1030              		.loc 1 997 32 view .LVU297
 1031 00a4 D01A     		subs	r0, r2, r3
 997:lvgl/src/widgets/lv_btnmatrix.c ****     btn_area.x2 += obj_area.x1 + row_gap;
 1032              		.loc 1 997 17 view .LVU298
 1033 00a6 17FA80F0 		uxtah	r0, r7, r0
 1034 00aa 80B2     		uxth	r0, r0
 1035 00ac ADF80A00 		strh	r0, [sp, #10]	@ movhi
 998:lvgl/src/widgets/lv_btnmatrix.c ****     btn_area.y2 += obj_area.y1 + col_gap;
 1036              		.loc 1 998 5 is_stmt 1 view .LVU299
 998:lvgl/src/widgets/lv_btnmatrix.c ****     btn_area.y2 += obj_area.y1 + col_gap;
 1037              		.loc 1 998 13 is_stmt 0 view .LVU300
 1038 00b0 BDF80C70 		ldrh	r7, [sp, #12]
 998:lvgl/src/widgets/lv_btnmatrix.c ****     btn_area.y2 += obj_area.y1 + col_gap;
 1039              		.loc 1 998 32 view .LVU301
 1040 00b4 3144     		add	r1, r1, r6
 998:lvgl/src/widgets/lv_btnmatrix.c ****     btn_area.y2 += obj_area.y1 + col_gap;
 1041              		.loc 1 998 17 view .LVU302
 1042 00b6 17FA81F1 		uxtah	r1, r7, r1
 1043 00ba ADF80C10 		strh	r1, [sp, #12]	@ movhi
 999:lvgl/src/widgets/lv_btnmatrix.c **** 
 1044              		.loc 1 999 5 is_stmt 1 view .LVU303
 999:lvgl/src/widgets/lv_btnmatrix.c **** 
 1045              		.loc 1 999 13 is_stmt 0 view .LVU304
 1046 00be BDF80E10 		ldrh	r1, [sp, #14]
 999:lvgl/src/widgets/lv_btnmatrix.c **** 
 1047              		.loc 1 999 32 view .LVU305
 1048 00c2 1A44     		add	r2, r2, r3
 999:lvgl/src/widgets/lv_btnmatrix.c **** 
 1049              		.loc 1 999 17 view .LVU306
 1050 00c4 11FA82F2 		uxtah	r2, r1, r2
 1051 00c8 92B2     		uxth	r2, r2
 1052 00ca ADF80E20 		strh	r2, [sp, #14]	@ movhi
1001:lvgl/src/widgets/lv_btnmatrix.c ****         /*Push up the upper boundary of the btn area to also invalidate the popover*/
 1053              		.loc 1 1001 5 is_stmt 1 view .LVU307
ARM GAS  C:\usertemp\ccuzpgLf.s 			page 45


1001:lvgl/src/widgets/lv_btnmatrix.c ****         /*Push up the upper boundary of the btn area to also invalidate the popover*/
 1054              		.loc 1 1001 24 is_stmt 0 view .LVU308
 1055 00ce A38E     		ldrh	r3, [r4, #52]
 1056              	.LVL90:
1001:lvgl/src/widgets/lv_btnmatrix.c ****         /*Push up the upper boundary of the btn area to also invalidate the popover*/
 1057              		.loc 1 1001 7 view .LVU309
 1058 00d0 AB42     		cmp	r3, r5
1001:lvgl/src/widgets/lv_btnmatrix.c ****         /*Push up the upper boundary of the btn area to also invalidate the popover*/
 1059              		.loc 1 1001 7 view .LVU310
 1060 00d2 04D0     		beq	.L55
 1061              	.L48:
1006:lvgl/src/widgets/lv_btnmatrix.c **** }
 1062              		.loc 1 1006 5 is_stmt 1 view .LVU311
 1063 00d4 02A9     		add	r1, sp, #8
 1064 00d6 2046     		mov	r0, r4
 1065 00d8 FFF7FEFF 		bl	lv_obj_invalidate_area
 1066              	.LVL91:
 1067 00dc 9BE7     		b	.L46
 1068              	.L55:
1001:lvgl/src/widgets/lv_btnmatrix.c ****         /*Push up the upper boundary of the btn area to also invalidate the popover*/
 1069              		.loc 1 1001 46 is_stmt 0 discriminator 1 view .LVU312
 1070 00de E36A     		ldr	r3, [r4, #44]
1001:lvgl/src/widgets/lv_btnmatrix.c ****         /*Push up the upper boundary of the btn area to also invalidate the popover*/
 1071              		.loc 1 1001 57 discriminator 1 view .LVU313
 1072 00e0 33F81530 		ldrh	r3, [r3, r5, lsl #1]
1001:lvgl/src/widgets/lv_btnmatrix.c ****         /*Push up the upper boundary of the btn area to also invalidate the popover*/
 1073              		.loc 1 1001 38 discriminator 1 view .LVU314
 1074 00e4 13F4007F 		tst	r3, #512
 1075 00e8 F4D0     		beq	.L48
1003:lvgl/src/widgets/lv_btnmatrix.c ****     }
 1076              		.loc 1 1003 9 is_stmt 1 view .LVU315
 1077              	.LVL92:
 1078              	.LBB99:
 1079              	.LBI99:
 116:lvgl/src/widgets/../core/../misc/../font/../misc/lv_area.h **** }
 117:lvgl/src/widgets/../core/../misc/../font/../misc/lv_area.h **** 
 118:lvgl/src/widgets/../core/../misc/../font/../misc/lv_area.h **** /**
 119:lvgl/src/widgets/../core/../misc/../font/../misc/lv_area.h ****  * Get the width of an area
 120:lvgl/src/widgets/../core/../misc/../font/../misc/lv_area.h ****  * @param area_p pointer to an area
 121:lvgl/src/widgets/../core/../misc/../font/../misc/lv_area.h ****  * @return the width of the area (if x1 == x2 -> width = 1)
 122:lvgl/src/widgets/../core/../misc/../font/../misc/lv_area.h ****  */
 123:lvgl/src/widgets/../core/../misc/../font/../misc/lv_area.h **** static inline lv_coord_t lv_area_get_width(const lv_area_t * area_p)
 124:lvgl/src/widgets/../core/../misc/../font/../misc/lv_area.h **** {
 125:lvgl/src/widgets/../core/../misc/../font/../misc/lv_area.h ****     return (lv_coord_t)(area_p->x2 - area_p->x1 + 1);
 126:lvgl/src/widgets/../core/../misc/../font/../misc/lv_area.h **** }
 127:lvgl/src/widgets/../core/../misc/../font/../misc/lv_area.h **** 
 128:lvgl/src/widgets/../core/../misc/../font/../misc/lv_area.h **** /**
 129:lvgl/src/widgets/../core/../misc/../font/../misc/lv_area.h ****  * Get the height of an area
 130:lvgl/src/widgets/../core/../misc/../font/../misc/lv_area.h ****  * @param area_p pointer to an area
 131:lvgl/src/widgets/../core/../misc/../font/../misc/lv_area.h ****  * @return the height of the area (if y1 == y2 -> height = 1)
 132:lvgl/src/widgets/../core/../misc/../font/../misc/lv_area.h ****  */
 133:lvgl/src/widgets/../core/../misc/../font/../misc/lv_area.h **** static inline lv_coord_t lv_area_get_height(const lv_area_t * area_p)
 1080              		.loc 3 133 26 view .LVU316
 1081              	.LBB100:
 134:lvgl/src/widgets/../core/../misc/../font/../misc/lv_area.h **** {
 135:lvgl/src/widgets/../core/../misc/../font/../misc/lv_area.h ****     return (lv_coord_t)(area_p->y2 - area_p->y1 + 1);
 1082              		.loc 3 135 5 view .LVU317
ARM GAS  C:\usertemp\ccuzpgLf.s 			page 46


 1083              		.loc 3 135 36 is_stmt 0 view .LVU318
 1084 00ea 131A     		subs	r3, r2, r0
 1085 00ec 9BB2     		uxth	r3, r3
 1086              		.loc 3 135 49 view .LVU319
 1087 00ee 0133     		adds	r3, r3, #1
 1088 00f0 9BB2     		uxth	r3, r3
 1089              	.LVL93:
 1090              		.loc 3 135 49 view .LVU320
 1091              	.LBE100:
 1092              	.LBE99:
1003:lvgl/src/widgets/lv_btnmatrix.c ****     }
 1093              		.loc 1 1003 21 discriminator 1 view .LVU321
 1094 00f2 C01A     		subs	r0, r0, r3
 1095 00f4 ADF80A00 		strh	r0, [sp, #10]	@ movhi
 1096 00f8 ECE7     		b	.L48
 1097              	.LVL94:
 1098              	.L51:
 1099              	.LCFI11:
 1100              		.cfi_def_cfa_offset 0
 1101              		.cfi_restore 4
 1102              		.cfi_restore 5
 1103              		.cfi_restore 6
 1104              		.cfi_restore 7
 1105              		.cfi_restore 14
1003:lvgl/src/widgets/lv_btnmatrix.c ****     }
 1106              		.loc 1 1003 21 discriminator 1 view .LVU322
 1107 00fa 7047     		bx	lr
 1108              	.L57:
 1109              		.align	2
 1110              	.L56:
 1111 00fc 67666666 		.word	1717986919
 1112              		.cfi_endproc
 1113              	.LFE187:
 1115              		.section	.text.draw_main,"ax",%progbits
 1116              		.align	1
 1117              		.syntax unified
 1118              		.thumb
 1119              		.thumb_func
 1121              	draw_main:
 1122              	.LVL95:
 1123              	.LFB174:
 650:lvgl/src/widgets/lv_btnmatrix.c ****     lv_obj_t * obj = lv_event_get_target(e);
 1124              		.loc 1 650 1 is_stmt 1 view -0
 1125              		.cfi_startproc
 1126              		@ args = 0, pretend = 0, frame = 296
 1127              		@ frame_needed = 0, uses_anonymous_args = 0
 650:lvgl/src/widgets/lv_btnmatrix.c ****     lv_obj_t * obj = lv_event_get_target(e);
 1128              		.loc 1 650 1 is_stmt 0 view .LVU324
 1129 0000 2DE9F04F 		push	{r4, r5, r6, r7, r8, r9, r10, fp, lr}
 1130              	.LCFI12:
 1131              		.cfi_def_cfa_offset 36
 1132              		.cfi_offset 4, -36
 1133              		.cfi_offset 5, -32
 1134              		.cfi_offset 6, -28
 1135              		.cfi_offset 7, -24
 1136              		.cfi_offset 8, -20
 1137              		.cfi_offset 9, -16
ARM GAS  C:\usertemp\ccuzpgLf.s 			page 47


 1138              		.cfi_offset 10, -12
 1139              		.cfi_offset 11, -8
 1140              		.cfi_offset 14, -4
 1141 0004 CFB0     		sub	sp, sp, #316
 1142              	.LCFI13:
 1143              		.cfi_def_cfa_offset 352
 1144 0006 0446     		mov	r4, r0
 651:lvgl/src/widgets/lv_btnmatrix.c ****     lv_btnmatrix_t * btnm = (lv_btnmatrix_t *)obj;
 1145              		.loc 1 651 5 is_stmt 1 view .LVU325
 651:lvgl/src/widgets/lv_btnmatrix.c ****     lv_btnmatrix_t * btnm = (lv_btnmatrix_t *)obj;
 1146              		.loc 1 651 22 is_stmt 0 view .LVU326
 1147 0008 FFF7FEFF 		bl	lv_event_get_target
 1148              	.LVL96:
 652:lvgl/src/widgets/lv_btnmatrix.c ****     if(btnm->btn_cnt == 0) return;
 1149              		.loc 1 652 5 is_stmt 1 view .LVU327
 653:lvgl/src/widgets/lv_btnmatrix.c **** 
 1150              		.loc 1 653 5 view .LVU328
 653:lvgl/src/widgets/lv_btnmatrix.c **** 
 1151              		.loc 1 653 12 is_stmt 0 view .LVU329
 1152 000c 038E     		ldrh	r3, [r0, #48]
 653:lvgl/src/widgets/lv_btnmatrix.c **** 
 1153              		.loc 1 653 7 view .LVU330
 1154 000e 13B9     		cbnz	r3, .L88
 1155              	.LVL97:
 1156              	.L58:
 812:lvgl/src/widgets/lv_btnmatrix.c **** /**
 1157              		.loc 1 812 1 view .LVU331
 1158 0010 4FB0     		add	sp, sp, #316
 1159              	.LCFI14:
 1160              		.cfi_remember_state
 1161              		.cfi_def_cfa_offset 36
 1162              		@ sp needed
 1163 0012 BDE8F08F 		pop	{r4, r5, r6, r7, r8, r9, r10, fp, pc}
 1164              	.LVL98:
 1165              	.L88:
 1166              	.LCFI15:
 1167              		.cfi_restore_state
 812:lvgl/src/widgets/lv_btnmatrix.c **** /**
 1168              		.loc 1 812 1 view .LVU332
 1169 0016 0546     		mov	r5, r0
 655:lvgl/src/widgets/lv_btnmatrix.c ****     obj->skip_trans = 1;
 1170              		.loc 1 655 5 is_stmt 1 view .LVU333
 655:lvgl/src/widgets/lv_btnmatrix.c ****     obj->skip_trans = 1;
 1171              		.loc 1 655 32 is_stmt 0 view .LVU334
 1172 0018 2046     		mov	r0, r4
 1173              	.LVL99:
 655:lvgl/src/widgets/lv_btnmatrix.c ****     obj->skip_trans = 1;
 1174              		.loc 1 655 32 view .LVU335
 1175 001a FFF7FEFF 		bl	lv_event_get_draw_ctx
 1176              	.LVL100:
 1177 001e 0646     		mov	r6, r0
 1178 0020 0490     		str	r0, [sp, #16]
 1179              	.LVL101:
 656:lvgl/src/widgets/lv_btnmatrix.c **** 
 1180              		.loc 1 656 5 is_stmt 1 view .LVU336
 656:lvgl/src/widgets/lv_btnmatrix.c **** 
 1181              		.loc 1 656 21 is_stmt 0 view .LVU337
ARM GAS  C:\usertemp\ccuzpgLf.s 			page 48


 1182 0022 95F82230 		ldrb	r3, [r5, #34]	@ zero_extendqisi2
 1183 0026 43F00403 		orr	r3, r3, #4
 1184 002a 85F82230 		strb	r3, [r5, #34]
 658:lvgl/src/widgets/lv_btnmatrix.c ****     lv_obj_get_coords(obj, &area_obj);
 1185              		.loc 1 658 5 is_stmt 1 view .LVU338
 659:lvgl/src/widgets/lv_btnmatrix.c **** 
 1186              		.loc 1 659 5 view .LVU339
 1187 002e 4CA9     		add	r1, sp, #304
 1188 0030 2846     		mov	r0, r5
 1189              	.LVL102:
 659:lvgl/src/widgets/lv_btnmatrix.c **** 
 1190              		.loc 1 659 5 is_stmt 0 view .LVU340
 1191 0032 FFF7FEFF 		bl	lv_obj_get_coords
 1192              	.LVL103:
 661:lvgl/src/widgets/lv_btnmatrix.c **** 
 1193              		.loc 1 661 5 is_stmt 1 view .LVU341
 663:lvgl/src/widgets/lv_btnmatrix.c ****     uint16_t txt_i = 0;
 1194              		.loc 1 663 5 view .LVU342
 664:lvgl/src/widgets/lv_btnmatrix.c **** 
 1195              		.loc 1 664 5 view .LVU343
 666:lvgl/src/widgets/lv_btnmatrix.c ****     lv_draw_label_dsc_t draw_label_dsc_act;
 1196              		.loc 1 666 5 view .LVU344
 667:lvgl/src/widgets/lv_btnmatrix.c **** 
 1197              		.loc 1 667 5 view .LVU345
 669:lvgl/src/widgets/lv_btnmatrix.c ****     lv_draw_label_dsc_t draw_label_dsc_def;
 1198              		.loc 1 669 5 view .LVU346
 670:lvgl/src/widgets/lv_btnmatrix.c **** 
 1199              		.loc 1 670 5 view .LVU347
 672:lvgl/src/widgets/lv_btnmatrix.c ****     obj->state = LV_STATE_DEFAULT;
 1200              		.loc 1 672 5 view .LVU348
 672:lvgl/src/widgets/lv_btnmatrix.c ****     obj->state = LV_STATE_DEFAULT;
 1201              		.loc 1 672 16 is_stmt 0 view .LVU349
 1202 0036 2C8C     		ldrh	r4, [r5, #32]
 1203              	.LVL104:
 672:lvgl/src/widgets/lv_btnmatrix.c ****     obj->state = LV_STATE_DEFAULT;
 1204              		.loc 1 672 16 view .LVU350
 1205 0038 0594     		str	r4, [sp, #20]
 1206              	.LVL105:
 673:lvgl/src/widgets/lv_btnmatrix.c ****     obj->skip_trans = 1;
 1207              		.loc 1 673 5 is_stmt 1 view .LVU351
 673:lvgl/src/widgets/lv_btnmatrix.c ****     obj->skip_trans = 1;
 1208              		.loc 1 673 16 is_stmt 0 view .LVU352
 1209 003a 0027     		movs	r7, #0
 1210 003c 2F84     		strh	r7, [r5, #32]	@ movhi
 674:lvgl/src/widgets/lv_btnmatrix.c ****     lv_draw_rect_dsc_init(&draw_rect_dsc_def);
 1211              		.loc 1 674 5 is_stmt 1 view .LVU353
 674:lvgl/src/widgets/lv_btnmatrix.c ****     lv_draw_rect_dsc_init(&draw_rect_dsc_def);
 1212              		.loc 1 674 21 is_stmt 0 view .LVU354
 1213 003e 95F82230 		ldrb	r3, [r5, #34]	@ zero_extendqisi2
 1214 0042 43F00403 		orr	r3, r3, #4
 1215 0046 85F82230 		strb	r3, [r5, #34]
 675:lvgl/src/widgets/lv_btnmatrix.c ****     lv_draw_label_dsc_init(&draw_label_dsc_def);
 1216              		.loc 1 675 5 is_stmt 1 view .LVU355
 1217 004a 26A8     		add	r0, sp, #152
 1218 004c FFF7FEFF 		bl	lv_draw_rect_dsc_init
 1219              	.LVL106:
 676:lvgl/src/widgets/lv_btnmatrix.c ****     lv_obj_init_draw_rect_dsc(obj, LV_PART_ITEMS, &draw_rect_dsc_def);
ARM GAS  C:\usertemp\ccuzpgLf.s 			page 49


 1220              		.loc 1 676 5 view .LVU356
 1221 0050 1EA8     		add	r0, sp, #120
 1222 0052 FFF7FEFF 		bl	lv_draw_label_dsc_init
 1223              	.LVL107:
 677:lvgl/src/widgets/lv_btnmatrix.c ****     lv_obj_init_draw_label_dsc(obj, LV_PART_ITEMS, &draw_label_dsc_def);
 1224              		.loc 1 677 5 view .LVU357
 1225 0056 26AA     		add	r2, sp, #152
 1226 0058 4FF4A021 		mov	r1, #327680
 1227 005c 2846     		mov	r0, r5
 1228 005e FFF7FEFF 		bl	lv_obj_init_draw_rect_dsc
 1229              	.LVL108:
 678:lvgl/src/widgets/lv_btnmatrix.c ****     obj->skip_trans = 0;
 1230              		.loc 1 678 5 view .LVU358
 1231 0062 1EAA     		add	r2, sp, #120
 1232 0064 4FF4A021 		mov	r1, #327680
 1233 0068 2846     		mov	r0, r5
 1234 006a FFF7FEFF 		bl	lv_obj_init_draw_label_dsc
 1235              	.LVL109:
 679:lvgl/src/widgets/lv_btnmatrix.c ****     obj->state = state_ori;
 1236              		.loc 1 679 5 view .LVU359
 679:lvgl/src/widgets/lv_btnmatrix.c ****     obj->state = state_ori;
 1237              		.loc 1 679 21 is_stmt 0 view .LVU360
 1238 006e 95F82230 		ldrb	r3, [r5, #34]	@ zero_extendqisi2
 1239 0072 67F38203 		bfi	r3, r7, #2, #1
 1240 0076 85F82230 		strb	r3, [r5, #34]
 680:lvgl/src/widgets/lv_btnmatrix.c **** 
 1241              		.loc 1 680 5 is_stmt 1 view .LVU361
 680:lvgl/src/widgets/lv_btnmatrix.c **** 
 1242              		.loc 1 680 16 is_stmt 0 view .LVU362
 1243 007a 2C84     		strh	r4, [r5, #32]	@ movhi
 682:lvgl/src/widgets/lv_btnmatrix.c ****     lv_coord_t pbottom = lv_obj_get_style_pad_bottom(obj, LV_PART_MAIN);
 1244              		.loc 1 682 5 is_stmt 1 view .LVU363
 1245              	.LVL110:
 1246              	.LBB101:
 1247              	.LBI101:
  91:lvgl/src/widgets/../core/lv_obj_style_gen.h **** {
 1248              		.loc 2 91 26 view .LVU364
 1249              	.LBB102:
  93:lvgl/src/widgets/../core/lv_obj_style_gen.h ****     return (lv_coord_t)v.num;
 1250              		.loc 2 93 5 view .LVU365
  93:lvgl/src/widgets/../core/lv_obj_style_gen.h ****     return (lv_coord_t)v.num;
 1251              		.loc 2 93 26 is_stmt 0 view .LVU366
 1252 007c 41F61002 		movw	r2, #6160
 1253 0080 3946     		mov	r1, r7
 1254 0082 2846     		mov	r0, r5
 1255 0084 FFF7FEFF 		bl	lv_obj_get_style_prop
 1256              	.LVL111:
  94:lvgl/src/widgets/../core/lv_obj_style_gen.h **** }
 1257              		.loc 2 94 5 is_stmt 1 view .LVU367
  94:lvgl/src/widgets/../core/lv_obj_style_gen.h **** }
 1258              		.loc 2 94 12 is_stmt 0 view .LVU368
 1259 0088 03B2     		sxth	r3, r0
 1260 008a 0693     		str	r3, [sp, #24]
 1261              	.LVL112:
  94:lvgl/src/widgets/../core/lv_obj_style_gen.h **** }
 1262              		.loc 2 94 12 view .LVU369
 1263              	.LBE102:
ARM GAS  C:\usertemp\ccuzpgLf.s 			page 50


 1264              	.LBE101:
 683:lvgl/src/widgets/lv_btnmatrix.c ****     lv_coord_t pleft = lv_obj_get_style_pad_left(obj, LV_PART_MAIN);
 1265              		.loc 1 683 5 is_stmt 1 view .LVU370
 1266              	.LBB103:
 1267              	.LBI103:
  97:lvgl/src/widgets/../core/lv_obj_style_gen.h **** {
 1268              		.loc 2 97 26 view .LVU371
 1269              	.LBB104:
  99:lvgl/src/widgets/../core/lv_obj_style_gen.h ****     return (lv_coord_t)v.num;
 1270              		.loc 2 99 5 view .LVU372
  99:lvgl/src/widgets/../core/lv_obj_style_gen.h ****     return (lv_coord_t)v.num;
 1271              		.loc 2 99 26 is_stmt 0 view .LVU373
 1272 008c 41F61102 		movw	r2, #6161
 1273 0090 3946     		mov	r1, r7
 1274 0092 2846     		mov	r0, r5
 1275 0094 FFF7FEFF 		bl	lv_obj_get_style_prop
 1276              	.LVL113:
 100:lvgl/src/widgets/../core/lv_obj_style_gen.h **** }
 1277              		.loc 2 100 5 is_stmt 1 view .LVU374
 100:lvgl/src/widgets/../core/lv_obj_style_gen.h **** }
 1278              		.loc 2 100 12 is_stmt 0 view .LVU375
 1279 0098 03B2     		sxth	r3, r0
 1280 009a 0793     		str	r3, [sp, #28]
 1281              	.LVL114:
 100:lvgl/src/widgets/../core/lv_obj_style_gen.h **** }
 1282              		.loc 2 100 12 view .LVU376
 1283              	.LBE104:
 1284              	.LBE103:
 684:lvgl/src/widgets/lv_btnmatrix.c ****     lv_coord_t pright = lv_obj_get_style_pad_right(obj, LV_PART_MAIN);
 1285              		.loc 1 684 5 is_stmt 1 view .LVU377
 1286              	.LBB105:
 1287              	.LBI105:
 103:lvgl/src/widgets/../core/lv_obj_style_gen.h **** {
 1288              		.loc 2 103 26 view .LVU378
 1289              	.LBB106:
 105:lvgl/src/widgets/../core/lv_obj_style_gen.h ****     return (lv_coord_t)v.num;
 1290              		.loc 2 105 5 view .LVU379
 105:lvgl/src/widgets/../core/lv_obj_style_gen.h ****     return (lv_coord_t)v.num;
 1291              		.loc 2 105 26 is_stmt 0 view .LVU380
 1292 009c 41F61202 		movw	r2, #6162
 1293 00a0 3946     		mov	r1, r7
 1294 00a2 2846     		mov	r0, r5
 1295 00a4 FFF7FEFF 		bl	lv_obj_get_style_prop
 1296              	.LVL115:
 106:lvgl/src/widgets/../core/lv_obj_style_gen.h **** }
 1297              		.loc 2 106 5 is_stmt 1 view .LVU381
 106:lvgl/src/widgets/../core/lv_obj_style_gen.h **** }
 1298              		.loc 2 106 12 is_stmt 0 view .LVU382
 1299 00a8 03B2     		sxth	r3, r0
 1300 00aa 0893     		str	r3, [sp, #32]
 1301              	.LVL116:
 106:lvgl/src/widgets/../core/lv_obj_style_gen.h **** }
 1302              		.loc 2 106 12 view .LVU383
 1303              	.LBE106:
 1304              	.LBE105:
 685:lvgl/src/widgets/lv_btnmatrix.c **** 
 1305              		.loc 1 685 5 is_stmt 1 view .LVU384
ARM GAS  C:\usertemp\ccuzpgLf.s 			page 51


 1306              	.LBB107:
 1307              	.LBI107:
 109:lvgl/src/widgets/../core/lv_obj_style_gen.h **** {
 1308              		.loc 2 109 26 view .LVU385
 1309              	.LBB108:
 111:lvgl/src/widgets/../core/lv_obj_style_gen.h ****     return (lv_coord_t)v.num;
 1310              		.loc 2 111 5 view .LVU386
 111:lvgl/src/widgets/../core/lv_obj_style_gen.h ****     return (lv_coord_t)v.num;
 1311              		.loc 2 111 26 is_stmt 0 view .LVU387
 1312 00ac 41F61302 		movw	r2, #6163
 1313 00b0 3946     		mov	r1, r7
 1314 00b2 2846     		mov	r0, r5
 1315 00b4 FFF7FEFF 		bl	lv_obj_get_style_prop
 1316              	.LVL117:
 112:lvgl/src/widgets/../core/lv_obj_style_gen.h **** }
 1317              		.loc 2 112 5 is_stmt 1 view .LVU388
 112:lvgl/src/widgets/../core/lv_obj_style_gen.h **** }
 1318              		.loc 2 112 12 is_stmt 0 view .LVU389
 1319 00b8 03B2     		sxth	r3, r0
 1320 00ba 0993     		str	r3, [sp, #36]
 1321              	.LVL118:
 112:lvgl/src/widgets/../core/lv_obj_style_gen.h **** }
 1322              		.loc 2 112 12 view .LVU390
 1323              	.LBE108:
 1324              	.LBE107:
 692:lvgl/src/widgets/lv_btnmatrix.c ****     lv_obj_draw_dsc_init(&part_draw_dsc, draw_ctx);
 1325              		.loc 1 692 5 is_stmt 1 view .LVU391
 693:lvgl/src/widgets/lv_btnmatrix.c ****     part_draw_dsc.part = LV_PART_ITEMS;
 1326              		.loc 1 693 5 view .LVU392
 1327 00bc 3146     		mov	r1, r6
 1328 00be 0CA8     		add	r0, sp, #48
 1329 00c0 FFF7FEFF 		bl	lv_obj_draw_dsc_init
 1330              	.LVL119:
 694:lvgl/src/widgets/lv_btnmatrix.c ****     part_draw_dsc.class_p = MY_CLASS;
 1331              		.loc 1 694 5 view .LVU393
 694:lvgl/src/widgets/lv_btnmatrix.c ****     part_draw_dsc.class_p = MY_CLASS;
 1332              		.loc 1 694 24 is_stmt 0 view .LVU394
 1333 00c4 4FF4A023 		mov	r3, #327680
 1334 00c8 1993     		str	r3, [sp, #100]
 695:lvgl/src/widgets/lv_btnmatrix.c ****     part_draw_dsc.type = LV_BTNMATRIX_DRAW_PART_BTN;
 1335              		.loc 1 695 5 is_stmt 1 view .LVU395
 695:lvgl/src/widgets/lv_btnmatrix.c ****     part_draw_dsc.type = LV_BTNMATRIX_DRAW_PART_BTN;
 1336              		.loc 1 695 27 is_stmt 0 view .LVU396
 1337 00ca C84B     		ldr	r3, .L96
 1338 00cc 0D93     		str	r3, [sp, #52]
 696:lvgl/src/widgets/lv_btnmatrix.c ****     part_draw_dsc.rect_dsc = &draw_rect_dsc_act;
 1339              		.loc 1 696 5 is_stmt 1 view .LVU397
 696:lvgl/src/widgets/lv_btnmatrix.c ****     part_draw_dsc.rect_dsc = &draw_rect_dsc_act;
 1340              		.loc 1 696 24 is_stmt 0 view .LVU398
 1341 00ce 0E97     		str	r7, [sp, #56]
 697:lvgl/src/widgets/lv_btnmatrix.c ****     part_draw_dsc.label_dsc = &draw_label_dsc_act;
 1342              		.loc 1 697 5 is_stmt 1 view .LVU399
 697:lvgl/src/widgets/lv_btnmatrix.c ****     part_draw_dsc.label_dsc = &draw_label_dsc_act;
 1343              		.loc 1 697 28 is_stmt 0 view .LVU400
 1344 00d0 3CAB     		add	r3, sp, #240
 1345 00d2 1093     		str	r3, [sp, #64]
 698:lvgl/src/widgets/lv_btnmatrix.c **** 
ARM GAS  C:\usertemp\ccuzpgLf.s 			page 52


 1346              		.loc 1 698 5 is_stmt 1 view .LVU401
 698:lvgl/src/widgets/lv_btnmatrix.c **** 
 1347              		.loc 1 698 29 is_stmt 0 view .LVU402
 1348 00d4 34AB     		add	r3, sp, #208
 1349 00d6 1193     		str	r3, [sp, #68]
 700:lvgl/src/widgets/lv_btnmatrix.c ****         /*Search the next valid text in the map*/
 1350              		.loc 1 700 5 is_stmt 1 view .LVU403
 664:lvgl/src/widgets/lv_btnmatrix.c **** 
 1351              		.loc 1 664 14 is_stmt 0 view .LVU404
 1352 00d8 3C46     		mov	r4, r7
 1353              	.LVL120:
 700:lvgl/src/widgets/lv_btnmatrix.c ****         /*Search the next valid text in the map*/
 1354              		.loc 1 700 5 view .LVU405
 1355 00da 30E1     		b	.L61
 1356              	.LVL121:
 1357              	.L62:
 1358              	.LBB109:
 703:lvgl/src/widgets/lv_btnmatrix.c ****         }
 1359              		.loc 1 703 13 is_stmt 1 view .LVU406
 703:lvgl/src/widgets/lv_btnmatrix.c ****         }
 1360              		.loc 1 703 18 is_stmt 0 view .LVU407
 1361 00dc 0134     		adds	r4, r4, #1
 1362              	.LVL122:
 703:lvgl/src/widgets/lv_btnmatrix.c ****         }
 1363              		.loc 1 703 18 view .LVU408
 1364 00de A4B2     		uxth	r4, r4
 1365              	.LVL123:
 1366              	.L84:
 702:lvgl/src/widgets/lv_btnmatrix.c ****             txt_i++;
 1367              		.loc 1 702 48 is_stmt 1 view .LVU409
 702:lvgl/src/widgets/lv_btnmatrix.c ****             txt_i++;
 1368              		.loc 1 702 26 is_stmt 0 view .LVU410
 1369 00e0 6B6A     		ldr	r3, [r5, #36]
 702:lvgl/src/widgets/lv_btnmatrix.c ****             txt_i++;
 1370              		.loc 1 702 33 view .LVU411
 1371 00e2 A600     		lsls	r6, r4, #2
 702:lvgl/src/widgets/lv_btnmatrix.c ****             txt_i++;
 1372              		.loc 1 702 15 view .LVU412
 1373 00e4 C249     		ldr	r1, .L96+4
 1374 00e6 53F82400 		ldr	r0, [r3, r4, lsl #2]
 1375 00ea FFF7FEFF 		bl	strcmp
 1376              	.LVL124:
 702:lvgl/src/widgets/lv_btnmatrix.c ****             txt_i++;
 1377              		.loc 1 702 48 discriminator 1 view .LVU413
 1378 00ee 0028     		cmp	r0, #0
 1379 00f0 F4D0     		beq	.L62
 707:lvgl/src/widgets/lv_btnmatrix.c **** 
 1380              		.loc 1 707 9 is_stmt 1 view .LVU414
 707:lvgl/src/widgets/lv_btnmatrix.c **** 
 1381              		.loc 1 707 33 is_stmt 0 view .LVU415
 1382 00f2 EB6A     		ldr	r3, [r5, #44]
 707:lvgl/src/widgets/lv_btnmatrix.c **** 
 1383              		.loc 1 707 44 view .LVU416
 1384 00f4 BA46     		mov	r10, r7
 1385 00f6 4FEA470B 		lsl	fp, r7, #1
 707:lvgl/src/widgets/lv_btnmatrix.c **** 
 1386              		.loc 1 707 12 view .LVU417
ARM GAS  C:\usertemp\ccuzpgLf.s 			page 53


 1387 00fa 33F81790 		ldrh	r9, [r3, r7, lsl #1]
 1388 00fe 4846     		mov	r0, r9
 1389 0100 FFF7FEFF 		bl	button_is_hidden
 1390              	.LVL125:
 707:lvgl/src/widgets/lv_btnmatrix.c **** 
 1391              		.loc 1 707 11 discriminator 1 view .LVU418
 1392 0104 0028     		cmp	r0, #0
 1393 0106 40F01681 		bne	.L64
 710:lvgl/src/widgets/lv_btnmatrix.c ****         if(button_get_checked(btnm->ctrl_bits[btn_i])) btn_state |= LV_STATE_CHECKED;
 1394              		.loc 1 710 9 is_stmt 1 view .LVU419
 1395              	.LVL126:
 711:lvgl/src/widgets/lv_btnmatrix.c **** 
 1396              		.loc 1 711 9 view .LVU420
 711:lvgl/src/widgets/lv_btnmatrix.c **** 
 1397              		.loc 1 711 12 is_stmt 0 view .LVU421
 1398 010a 4846     		mov	r0, r9
 1399 010c FFF7FEFF 		bl	button_get_checked
 1400              	.LVL127:
 711:lvgl/src/widgets/lv_btnmatrix.c **** 
 1401              		.loc 1 711 11 discriminator 1 view .LVU422
 1402 0110 0028     		cmp	r0, #0
 1403 0112 40F01F81 		bne	.L85
 710:lvgl/src/widgets/lv_btnmatrix.c ****         if(button_get_checked(btnm->ctrl_bits[btn_i])) btn_state |= LV_STATE_CHECKED;
 1404              		.loc 1 710 20 view .LVU423
 1405 0116 4FF00008 		mov	r8, #0
 1406              	.L65:
 1407              	.LVL128:
 713:lvgl/src/widgets/lv_btnmatrix.c ****         else if(btn_i == btnm->btn_id_sel) {
 1408              		.loc 1 713 9 is_stmt 1 view .LVU424
 713:lvgl/src/widgets/lv_btnmatrix.c ****         else if(btn_i == btnm->btn_id_sel) {
 1409              		.loc 1 713 12 is_stmt 0 view .LVU425
 1410 011a 4846     		mov	r0, r9
 1411 011c FFF7FEFF 		bl	button_is_inactive
 1412              	.LVL129:
 713:lvgl/src/widgets/lv_btnmatrix.c ****         else if(btn_i == btnm->btn_id_sel) {
 1413              		.loc 1 713 11 discriminator 1 view .LVU426
 1414 0120 0028     		cmp	r0, #0
 1415 0122 00F01A81 		beq	.L66
 713:lvgl/src/widgets/lv_btnmatrix.c ****         else if(btn_i == btnm->btn_id_sel) {
 1416              		.loc 1 713 56 is_stmt 1 discriminator 1 view .LVU427
 713:lvgl/src/widgets/lv_btnmatrix.c ****         else if(btn_i == btnm->btn_id_sel) {
 1417              		.loc 1 713 66 is_stmt 0 discriminator 1 view .LVU428
 1418 0126 48F08008 		orr	r8, r8, #128
 1419              	.LVL130:
 1420              	.L67:
 722:lvgl/src/widgets/lv_btnmatrix.c ****         btn_area.x1 += area_obj.x1;
 1421              		.loc 1 722 9 is_stmt 1 view .LVU429
 722:lvgl/src/widgets/lv_btnmatrix.c ****         btn_area.x1 += area_obj.x1;
 1422              		.loc 1 722 38 is_stmt 0 view .LVU430
 1423 012a AA6A     		ldr	r2, [r5, #40]
 722:lvgl/src/widgets/lv_btnmatrix.c ****         btn_area.x1 += area_obj.x1;
 1424              		.loc 1 722 33 view .LVU431
 1425 012c 02EBCA03 		add	r3, r2, r10, lsl #3
 1426              	.LVL131:
 1427              	.LBB110:
 1428              	.LBI110:
 110:lvgl/src/widgets/../core/../misc/../font/../misc/lv_area.h **** {
ARM GAS  C:\usertemp\ccuzpgLf.s 			page 54


 1429              		.loc 3 110 20 is_stmt 1 view .LVU432
 1430              	.LBB111:
 112:lvgl/src/widgets/../core/../misc/../font/../misc/lv_area.h ****     dest->y1 = src->y1;
 1431              		.loc 3 112 5 view .LVU433
 112:lvgl/src/widgets/../core/../misc/../font/../misc/lv_area.h ****     dest->y1 = src->y1;
 1432              		.loc 3 112 19 is_stmt 0 view .LVU434
 1433 0130 32F93A00 		ldrsh	r0, [r2, r10, lsl #3]
 112:lvgl/src/widgets/../core/../misc/../font/../misc/lv_area.h ****     dest->y1 = src->y1;
 1434              		.loc 3 112 14 view .LVU435
 1435 0134 ADF82801 		strh	r0, [sp, #296]	@ movhi
 113:lvgl/src/widgets/../core/../misc/../font/../misc/lv_area.h ****     dest->x2 = src->x2;
 1436              		.loc 3 113 5 is_stmt 1 view .LVU436
 113:lvgl/src/widgets/../core/../misc/../font/../misc/lv_area.h ****     dest->x2 = src->x2;
 1437              		.loc 3 113 19 is_stmt 0 view .LVU437
 1438 0138 B3F90210 		ldrsh	r1, [r3, #2]
 113:lvgl/src/widgets/../core/../misc/../font/../misc/lv_area.h ****     dest->x2 = src->x2;
 1439              		.loc 3 113 14 view .LVU438
 1440 013c ADF82A11 		strh	r1, [sp, #298]	@ movhi
 114:lvgl/src/widgets/../core/../misc/../font/../misc/lv_area.h ****     dest->y2 = src->y2;
 1441              		.loc 3 114 5 is_stmt 1 view .LVU439
 114:lvgl/src/widgets/../core/../misc/../font/../misc/lv_area.h ****     dest->y2 = src->y2;
 1442              		.loc 3 114 19 is_stmt 0 view .LVU440
 1443 0140 B3F90420 		ldrsh	r2, [r3, #4]
 114:lvgl/src/widgets/../core/../misc/../font/../misc/lv_area.h ****     dest->y2 = src->y2;
 1444              		.loc 3 114 14 view .LVU441
 1445 0144 ADF82C21 		strh	r2, [sp, #300]	@ movhi
 115:lvgl/src/widgets/../core/../misc/../font/../misc/lv_area.h **** }
 1446              		.loc 3 115 5 is_stmt 1 view .LVU442
 115:lvgl/src/widgets/../core/../misc/../font/../misc/lv_area.h **** }
 1447              		.loc 3 115 19 is_stmt 0 view .LVU443
 1448 0148 B3F90630 		ldrsh	r3, [r3, #6]
 1449              	.LVL132:
 115:lvgl/src/widgets/../core/../misc/../font/../misc/lv_area.h **** }
 1450              		.loc 3 115 14 view .LVU444
 1451 014c ADF82E31 		strh	r3, [sp, #302]	@ movhi
 1452              	.LVL133:
 115:lvgl/src/widgets/../core/../misc/../font/../misc/lv_area.h **** }
 1453              		.loc 3 115 14 view .LVU445
 1454              	.LBE111:
 1455              	.LBE110:
 723:lvgl/src/widgets/lv_btnmatrix.c ****         btn_area.y1 += area_obj.y1;
 1456              		.loc 1 723 9 is_stmt 1 view .LVU446
 723:lvgl/src/widgets/lv_btnmatrix.c ****         btn_area.y1 += area_obj.y1;
 1457              		.loc 1 723 32 is_stmt 0 view .LVU447
 1458 0150 BDF830C1 		ldrh	ip, [sp, #304]
 723:lvgl/src/widgets/lv_btnmatrix.c ****         btn_area.y1 += area_obj.y1;
 1459              		.loc 1 723 21 view .LVU448
 1460 0154 1CFA80F0 		uxtah	r0, ip, r0
 1461 0158 ADF82801 		strh	r0, [sp, #296]	@ movhi
 724:lvgl/src/widgets/lv_btnmatrix.c ****         btn_area.x2 += area_obj.x1;
 1462              		.loc 1 724 9 is_stmt 1 view .LVU449
 724:lvgl/src/widgets/lv_btnmatrix.c ****         btn_area.x2 += area_obj.x1;
 1463              		.loc 1 724 32 is_stmt 0 view .LVU450
 1464 015c BDF83201 		ldrh	r0, [sp, #306]
 724:lvgl/src/widgets/lv_btnmatrix.c ****         btn_area.x2 += area_obj.x1;
 1465              		.loc 1 724 21 view .LVU451
 1466 0160 10FA81F1 		uxtah	r1, r0, r1
ARM GAS  C:\usertemp\ccuzpgLf.s 			page 55


 1467 0164 ADF82A11 		strh	r1, [sp, #298]	@ movhi
 725:lvgl/src/widgets/lv_btnmatrix.c ****         btn_area.y2 += area_obj.y1;
 1468              		.loc 1 725 9 is_stmt 1 view .LVU452
 725:lvgl/src/widgets/lv_btnmatrix.c ****         btn_area.y2 += area_obj.y1;
 1469              		.loc 1 725 21 is_stmt 0 view .LVU453
 1470 0168 1CFA82F2 		uxtah	r2, ip, r2
 1471 016c ADF82C21 		strh	r2, [sp, #300]	@ movhi
 726:lvgl/src/widgets/lv_btnmatrix.c **** 
 1472              		.loc 1 726 9 is_stmt 1 view .LVU454
 726:lvgl/src/widgets/lv_btnmatrix.c **** 
 1473              		.loc 1 726 21 is_stmt 0 view .LVU455
 1474 0170 10FA83F3 		uxtah	r3, r0, r3
 1475 0174 ADF82E31 		strh	r3, [sp, #302]	@ movhi
 729:lvgl/src/widgets/lv_btnmatrix.c ****             lv_memcpy(&draw_rect_dsc_act, &draw_rect_dsc_def, sizeof(lv_draw_rect_dsc_t));
 1476              		.loc 1 729 9 is_stmt 1 view .LVU456
 729:lvgl/src/widgets/lv_btnmatrix.c ****             lv_memcpy(&draw_rect_dsc_act, &draw_rect_dsc_def, sizeof(lv_draw_rect_dsc_t));
 1477              		.loc 1 729 11 is_stmt 0 view .LVU457
 1478 0178 B8F1000F 		cmp	r8, #0
 1479 017c 40F00B81 		bne	.L71
 730:lvgl/src/widgets/lv_btnmatrix.c ****             lv_memcpy(&draw_label_dsc_act, &draw_label_dsc_def, sizeof(lv_draw_label_dsc_t));
 1480              		.loc 1 730 13 is_stmt 1 view .LVU458
 1481 0180 3822     		movs	r2, #56
 1482 0182 26A9     		add	r1, sp, #152
 1483 0184 3CA8     		add	r0, sp, #240
 1484 0186 FFF7FEFF 		bl	lv_memcpy
 1485              	.LVL134:
 731:lvgl/src/widgets/lv_btnmatrix.c ****         }
 1486              		.loc 1 731 13 view .LVU459
 1487 018a 2022     		movs	r2, #32
 1488 018c 1EA9     		add	r1, sp, #120
 1489 018e 34A8     		add	r0, sp, #208
 1490 0190 FFF7FEFF 		bl	lv_memcpy
 1491              	.LVL135:
 1492              	.L72:
 745:lvgl/src/widgets/lv_btnmatrix.c ****         if(recolor) draw_label_dsc_act.flag |= LV_TEXT_FLAG_RECOLOR;
 1493              		.loc 1 745 9 view .LVU460
 745:lvgl/src/widgets/lv_btnmatrix.c ****         if(recolor) draw_label_dsc_act.flag |= LV_TEXT_FLAG_RECOLOR;
 1494              		.loc 1 745 46 is_stmt 0 view .LVU461
 1495 0194 EB6A     		ldr	r3, [r5, #44]
 745:lvgl/src/widgets/lv_btnmatrix.c ****         if(recolor) draw_label_dsc_act.flag |= LV_TEXT_FLAG_RECOLOR;
 1496              		.loc 1 745 24 view .LVU462
 1497 0196 33F80B00 		ldrh	r0, [r3, fp]
 1498 019a FFF7FEFF 		bl	button_is_recolor
 1499              	.LVL136:
 746:lvgl/src/widgets/lv_btnmatrix.c ****         else draw_label_dsc_act.flag &= ~LV_TEXT_FLAG_RECOLOR;
 1500              		.loc 1 746 9 is_stmt 1 view .LVU463
 746:lvgl/src/widgets/lv_btnmatrix.c ****         else draw_label_dsc_act.flag &= ~LV_TEXT_FLAG_RECOLOR;
 1501              		.loc 1 746 11 is_stmt 0 view .LVU464
 1502 019e 0028     		cmp	r0, #0
 1503 01a0 00F01C81 		beq	.L73
 746:lvgl/src/widgets/lv_btnmatrix.c ****         else draw_label_dsc_act.flag &= ~LV_TEXT_FLAG_RECOLOR;
 1504              		.loc 1 746 21 is_stmt 1 discriminator 1 view .LVU465
 746:lvgl/src/widgets/lv_btnmatrix.c ****         else draw_label_dsc_act.flag &= ~LV_TEXT_FLAG_RECOLOR;
 1505              		.loc 1 746 39 is_stmt 0 discriminator 1 view .LVU466
 1506 01a4 9DF8ED30 		ldrb	r3, [sp, #237]	@ zero_extendqisi2
 746:lvgl/src/widgets/lv_btnmatrix.c ****         else draw_label_dsc_act.flag &= ~LV_TEXT_FLAG_RECOLOR;
 1507              		.loc 1 746 45 discriminator 1 view .LVU467
ARM GAS  C:\usertemp\ccuzpgLf.s 			page 56


 1508 01a8 43F00103 		orr	r3, r3, #1
 1509 01ac 8DF8ED30 		strb	r3, [sp, #237]
 1510              	.L74:
 750:lvgl/src/widgets/lv_btnmatrix.c ****         part_draw_dsc.id = btn_i;
 1511              		.loc 1 750 9 is_stmt 1 view .LVU468
 750:lvgl/src/widgets/lv_btnmatrix.c ****         part_draw_dsc.id = btn_i;
 1512              		.loc 1 750 33 is_stmt 0 view .LVU469
 1513 01b0 4AAB     		add	r3, sp, #296
 1514 01b2 0F93     		str	r3, [sp, #60]
 751:lvgl/src/widgets/lv_btnmatrix.c ****         lv_event_send(obj, LV_EVENT_DRAW_PART_BEGIN, &part_draw_dsc);
 1515              		.loc 1 751 9 is_stmt 1 view .LVU470
 751:lvgl/src/widgets/lv_btnmatrix.c ****         lv_event_send(obj, LV_EVENT_DRAW_PART_BEGIN, &part_draw_dsc);
 1516              		.loc 1 751 26 is_stmt 0 view .LVU471
 1517 01b4 CDF868A0 		str	r10, [sp, #104]
 752:lvgl/src/widgets/lv_btnmatrix.c **** 
 1518              		.loc 1 752 9 is_stmt 1 view .LVU472
 1519 01b8 0CAA     		add	r2, sp, #48
 1520 01ba 1A21     		movs	r1, #26
 1521 01bc 2846     		mov	r0, r5
 1522              	.LVL137:
 752:lvgl/src/widgets/lv_btnmatrix.c **** 
 1523              		.loc 1 752 9 is_stmt 0 view .LVU473
 1524 01be FFF7FEFF 		bl	lv_event_send
 1525              	.LVL138:
 755:lvgl/src/widgets/lv_btnmatrix.c ****             draw_rect_dsc_act.border_side = LV_BORDER_SIDE_FULL;
 1526              		.loc 1 755 9 is_stmt 1 view .LVU474
 755:lvgl/src/widgets/lv_btnmatrix.c ****             draw_rect_dsc_act.border_side = LV_BORDER_SIDE_FULL;
 1527              		.loc 1 755 29 is_stmt 0 view .LVU475
 1528 01c2 9DF81331 		ldrb	r3, [sp, #275]	@ zero_extendqisi2
 1529 01c6 C3F34403 		ubfx	r3, r3, #1, #5
 755:lvgl/src/widgets/lv_btnmatrix.c ****             draw_rect_dsc_act.border_side = LV_BORDER_SIDE_FULL;
 1530              		.loc 1 755 11 view .LVU476
 1531 01ca 0F2B     		cmp	r3, #15
 1532 01cc 2AD9     		bls	.L75
 756:lvgl/src/widgets/lv_btnmatrix.c ****             if(btn_area.x1 == obj->coords.x1 + pleft) draw_rect_dsc_act.border_side &= ~LV_BORDER_S
 1533              		.loc 1 756 13 is_stmt 1 view .LVU477
 756:lvgl/src/widgets/lv_btnmatrix.c ****             if(btn_area.x1 == obj->coords.x1 + pleft) draw_rect_dsc_act.border_side &= ~LV_BORDER_S
 1534              		.loc 1 756 43 is_stmt 0 view .LVU478
 1535 01ce 9DF81331 		ldrb	r3, [sp, #275]	@ zero_extendqisi2
 1536 01d2 0F22     		movs	r2, #15
 1537 01d4 62F34503 		bfi	r3, r2, #1, #5
 1538 01d8 8DF81331 		strb	r3, [sp, #275]
 757:lvgl/src/widgets/lv_btnmatrix.c ****             if(btn_area.x2 == obj->coords.x2 - pright) draw_rect_dsc_act.border_side &= ~LV_BORDER_
 1539              		.loc 1 757 13 is_stmt 1 view .LVU479
 757:lvgl/src/widgets/lv_btnmatrix.c ****             if(btn_area.x2 == obj->coords.x2 - pright) draw_rect_dsc_act.border_side &= ~LV_BORDER_
 1540              		.loc 1 757 24 is_stmt 0 view .LVU480
 1541 01dc BDF92821 		ldrsh	r2, [sp, #296]
 757:lvgl/src/widgets/lv_btnmatrix.c ****             if(btn_area.x2 == obj->coords.x2 - pright) draw_rect_dsc_act.border_side &= ~LV_BORDER_
 1542              		.loc 1 757 42 view .LVU481
 1543 01e0 B5F91430 		ldrsh	r3, [r5, #20]
 757:lvgl/src/widgets/lv_btnmatrix.c ****             if(btn_area.x2 == obj->coords.x2 - pright) draw_rect_dsc_act.border_side &= ~LV_BORDER_
 1544              		.loc 1 757 46 view .LVU482
 1545 01e4 0899     		ldr	r1, [sp, #32]
 1546 01e6 0B44     		add	r3, r3, r1
 757:lvgl/src/widgets/lv_btnmatrix.c ****             if(btn_area.x2 == obj->coords.x2 - pright) draw_rect_dsc_act.border_side &= ~LV_BORDER_
 1547              		.loc 1 757 15 view .LVU483
 1548 01e8 9A42     		cmp	r2, r3
ARM GAS  C:\usertemp\ccuzpgLf.s 			page 57


 1549 01ea 00F00381 		beq	.L89
 1550              	.L76:
 758:lvgl/src/widgets/lv_btnmatrix.c ****             if(btn_area.y1 == obj->coords.y1 + ptop) draw_rect_dsc_act.border_side &= ~LV_BORDER_SI
 1551              		.loc 1 758 13 is_stmt 1 view .LVU484
 758:lvgl/src/widgets/lv_btnmatrix.c ****             if(btn_area.y1 == obj->coords.y1 + ptop) draw_rect_dsc_act.border_side &= ~LV_BORDER_SI
 1552              		.loc 1 758 24 is_stmt 0 view .LVU485
 1553 01ee BDF92C21 		ldrsh	r2, [sp, #300]
 758:lvgl/src/widgets/lv_btnmatrix.c ****             if(btn_area.y1 == obj->coords.y1 + ptop) draw_rect_dsc_act.border_side &= ~LV_BORDER_SI
 1554              		.loc 1 758 42 view .LVU486
 1555 01f2 B5F91830 		ldrsh	r3, [r5, #24]
 758:lvgl/src/widgets/lv_btnmatrix.c ****             if(btn_area.y1 == obj->coords.y1 + ptop) draw_rect_dsc_act.border_side &= ~LV_BORDER_SI
 1556              		.loc 1 758 46 view .LVU487
 1557 01f6 0999     		ldr	r1, [sp, #36]
 1558 01f8 5B1A     		subs	r3, r3, r1
 758:lvgl/src/widgets/lv_btnmatrix.c ****             if(btn_area.y1 == obj->coords.y1 + ptop) draw_rect_dsc_act.border_side &= ~LV_BORDER_SI
 1559              		.loc 1 758 15 view .LVU488
 1560 01fa 9A42     		cmp	r2, r3
 1561 01fc 00F00281 		beq	.L90
 1562              	.L77:
 759:lvgl/src/widgets/lv_btnmatrix.c ****             if(btn_area.y2 == obj->coords.y2 - pbottom) draw_rect_dsc_act.border_side &= ~LV_BORDER
 1563              		.loc 1 759 13 is_stmt 1 view .LVU489
 759:lvgl/src/widgets/lv_btnmatrix.c ****             if(btn_area.y2 == obj->coords.y2 - pbottom) draw_rect_dsc_act.border_side &= ~LV_BORDER
 1564              		.loc 1 759 24 is_stmt 0 view .LVU490
 1565 0200 BDF92A21 		ldrsh	r2, [sp, #298]
 759:lvgl/src/widgets/lv_btnmatrix.c ****             if(btn_area.y2 == obj->coords.y2 - pbottom) draw_rect_dsc_act.border_side &= ~LV_BORDER
 1566              		.loc 1 759 42 view .LVU491
 1567 0204 B5F91630 		ldrsh	r3, [r5, #22]
 759:lvgl/src/widgets/lv_btnmatrix.c ****             if(btn_area.y2 == obj->coords.y2 - pbottom) draw_rect_dsc_act.border_side &= ~LV_BORDER
 1568              		.loc 1 759 46 view .LVU492
 1569 0208 0699     		ldr	r1, [sp, #24]
 1570 020a 0B44     		add	r3, r3, r1
 759:lvgl/src/widgets/lv_btnmatrix.c ****             if(btn_area.y2 == obj->coords.y2 - pbottom) draw_rect_dsc_act.border_side &= ~LV_BORDER
 1571              		.loc 1 759 15 view .LVU493
 1572 020c 9A42     		cmp	r2, r3
 1573 020e 00F00481 		beq	.L91
 1574              	.L78:
 760:lvgl/src/widgets/lv_btnmatrix.c ****         }
 1575              		.loc 1 760 13 is_stmt 1 view .LVU494
 760:lvgl/src/widgets/lv_btnmatrix.c ****         }
 1576              		.loc 1 760 24 is_stmt 0 view .LVU495
 1577 0212 BDF92E21 		ldrsh	r2, [sp, #302]
 760:lvgl/src/widgets/lv_btnmatrix.c ****         }
 1578              		.loc 1 760 42 view .LVU496
 1579 0216 B5F91A30 		ldrsh	r3, [r5, #26]
 760:lvgl/src/widgets/lv_btnmatrix.c ****         }
 1580              		.loc 1 760 46 view .LVU497
 1581 021a 0799     		ldr	r1, [sp, #28]
 1582 021c 5B1A     		subs	r3, r3, r1
 760:lvgl/src/widgets/lv_btnmatrix.c ****         }
 1583              		.loc 1 760 15 view .LVU498
 1584 021e 9A42     		cmp	r2, r3
 1585 0220 00F00681 		beq	.L92
 1586              	.L75:
 763:lvgl/src/widgets/lv_btnmatrix.c **** 
 1587              		.loc 1 763 9 is_stmt 1 view .LVU499
 1588              	.LVL139:
 1589              	.LBB112:
ARM GAS  C:\usertemp\ccuzpgLf.s 			page 58


 1590              	.LBI112:
 133:lvgl/src/widgets/../core/../misc/../font/../misc/lv_area.h **** {
 1591              		.loc 3 133 26 view .LVU500
 1592              	.LBB113:
 1593              		.loc 3 135 5 view .LVU501
 1594              		.loc 3 135 31 is_stmt 0 view .LVU502
 1595 0224 BDF82E91 		ldrh	r9, [sp, #302]
 1596              		.loc 3 135 44 view .LVU503
 1597 0228 BDF82A31 		ldrh	r3, [sp, #298]
 1598              		.loc 3 135 36 view .LVU504
 1599 022c A9EB0309 		sub	r9, r9, r3
 1600 0230 1FFA89F9 		uxth	r9, r9
 1601              		.loc 3 135 49 view .LVU505
 1602 0234 09F10109 		add	r9, r9, #1
 1603 0238 1FFA89F2 		uxth	r2, r9
 1604              		.loc 3 135 12 view .LVU506
 1605 023c 0FFA89F9 		sxth	r9, r9
 1606              	.LVL140:
 1607              		.loc 3 135 12 view .LVU507
 1608              	.LBE113:
 1609              	.LBE112:
 765:lvgl/src/widgets/lv_btnmatrix.c ****             /*Push up the upper boundary of the btn area to create the popover*/
 1610              		.loc 1 765 9 is_stmt 1 view .LVU508
 765:lvgl/src/widgets/lv_btnmatrix.c ****             /*Push up the upper boundary of the btn area to create the popover*/
 1611              		.loc 1 765 11 is_stmt 0 view .LVU509
 1612 0240 18F02008 		ands	r8, r8, #32
 1613              	.LVL141:
 765:lvgl/src/widgets/lv_btnmatrix.c ****             /*Push up the upper boundary of the btn area to create the popover*/
 1614              		.loc 1 765 11 view .LVU510
 1615 0244 08D0     		beq	.L79
 765:lvgl/src/widgets/lv_btnmatrix.c ****             /*Push up the upper boundary of the btn area to create the popover*/
 1616              		.loc 1 765 51 discriminator 1 view .LVU511
 1617 0246 E96A     		ldr	r1, [r5, #44]
 765:lvgl/src/widgets/lv_btnmatrix.c ****             /*Push up the upper boundary of the btn area to create the popover*/
 1618              		.loc 1 765 62 discriminator 1 view .LVU512
 1619 0248 31F80B10 		ldrh	r1, [r1, fp]
 765:lvgl/src/widgets/lv_btnmatrix.c ****             /*Push up the upper boundary of the btn area to create the popover*/
 1620              		.loc 1 765 43 discriminator 1 view .LVU513
 1621 024c 11F4007F 		tst	r1, #512
 1622 0250 02D0     		beq	.L79
 767:lvgl/src/widgets/lv_btnmatrix.c ****         }
 1623              		.loc 1 767 13 is_stmt 1 view .LVU514
 767:lvgl/src/widgets/lv_btnmatrix.c ****         }
 1624              		.loc 1 767 25 is_stmt 0 view .LVU515
 1625 0252 9B1A     		subs	r3, r3, r2
 1626 0254 ADF82A31 		strh	r3, [sp, #298]	@ movhi
 1627              	.L79:
 771:lvgl/src/widgets/lv_btnmatrix.c **** 
 1628              		.loc 1 771 9 is_stmt 1 view .LVU516
 1629 0258 4AAA     		add	r2, sp, #296
 1630 025a 3CA9     		add	r1, sp, #240
 1631 025c 0498     		ldr	r0, [sp, #16]
 1632 025e FFF7FEFF 		bl	lv_draw_rect
 1633              	.LVL142:
 774:lvgl/src/widgets/lv_btnmatrix.c ****         lv_coord_t letter_space = draw_label_dsc_act.letter_space;
 1634              		.loc 1 774 9 view .LVU517
 775:lvgl/src/widgets/lv_btnmatrix.c ****         lv_coord_t line_space = draw_label_dsc_act.line_space;
ARM GAS  C:\usertemp\ccuzpgLf.s 			page 59


 1635              		.loc 1 775 9 view .LVU518
 776:lvgl/src/widgets/lv_btnmatrix.c ****         const char * txt = btnm->map_p[txt_i];
 1636              		.loc 1 776 9 view .LVU519
 776:lvgl/src/widgets/lv_btnmatrix.c ****         const char * txt = btnm->map_p[txt_i];
 1637              		.loc 1 776 20 is_stmt 0 view .LVU520
 1638 0262 BDF9E220 		ldrsh	r2, [sp, #226]
 1639              	.LVL143:
 777:lvgl/src/widgets/lv_btnmatrix.c **** 
 1640              		.loc 1 777 9 is_stmt 1 view .LVU521
 777:lvgl/src/widgets/lv_btnmatrix.c **** 
 1641              		.loc 1 777 32 is_stmt 0 view .LVU522
 1642 0266 6B6A     		ldr	r3, [r5, #36]
 777:lvgl/src/widgets/lv_btnmatrix.c **** 
 1643              		.loc 1 777 22 view .LVU523
 1644 0268 9E59     		ldr	r6, [r3, r6]
 1645              	.LVL144:
 787:lvgl/src/widgets/lv_btnmatrix.c ****         lv_txt_get_size(&txt_size, txt, font, letter_space,
 1646              		.loc 1 787 9 is_stmt 1 view .LVU524
 788:lvgl/src/widgets/lv_btnmatrix.c ****                         line_space, lv_area_get_width(&area_obj), draw_label_dsc_act.flag);
 1647              		.loc 1 788 9 view .LVU525
 1648              	.LBB114:
 1649              	.LBI114:
 123:lvgl/src/widgets/../core/../misc/../font/../misc/lv_area.h **** {
 1650              		.loc 3 123 26 view .LVU526
 1651              	.LBB115:
 125:lvgl/src/widgets/../core/../misc/../font/../misc/lv_area.h **** }
 1652              		.loc 3 125 5 view .LVU527
 125:lvgl/src/widgets/../core/../misc/../font/../misc/lv_area.h **** }
 1653              		.loc 3 125 31 is_stmt 0 view .LVU528
 1654 026a BDF83431 		ldrh	r3, [sp, #308]
 125:lvgl/src/widgets/../core/../misc/../font/../misc/lv_area.h **** }
 1655              		.loc 3 125 44 view .LVU529
 1656 026e BDF83011 		ldrh	r1, [sp, #304]
 125:lvgl/src/widgets/../core/../misc/../font/../misc/lv_area.h **** }
 1657              		.loc 3 125 36 view .LVU530
 1658 0272 5B1A     		subs	r3, r3, r1
 1659 0274 9BB2     		uxth	r3, r3
 125:lvgl/src/widgets/../core/../misc/../font/../misc/lv_area.h **** }
 1660              		.loc 3 125 49 view .LVU531
 1661 0276 0133     		adds	r3, r3, #1
 125:lvgl/src/widgets/../core/../misc/../font/../misc/lv_area.h **** }
 1662              		.loc 3 125 12 view .LVU532
 1663 0278 1BB2     		sxth	r3, r3
 1664              	.LVL145:
 125:lvgl/src/widgets/../core/../misc/../font/../misc/lv_area.h **** }
 1665              		.loc 3 125 12 view .LVU533
 1666              	.LBE115:
 1667              	.LBE114:
 788:lvgl/src/widgets/lv_btnmatrix.c ****                         line_space, lv_area_get_width(&area_obj), draw_label_dsc_act.flag);
 1668              		.loc 1 788 9 discriminator 1 view .LVU534
 1669 027a 9DF8ED10 		ldrb	r1, [sp, #237]	@ zero_extendqisi2
 1670 027e 0291     		str	r1, [sp, #8]
 1671 0280 0193     		str	r3, [sp, #4]
 1672 0282 0092     		str	r2, [sp]
 1673 0284 BDF9E430 		ldrsh	r3, [sp, #228]
 1674 0288 349A     		ldr	r2, [sp, #208]
 1675 028a 3146     		mov	r1, r6
ARM GAS  C:\usertemp\ccuzpgLf.s 			page 60


 1676 028c 0BA8     		add	r0, sp, #44
 1677 028e FFF7FEFF 		bl	lv_txt_get_size
 1678              	.LVL146:
 791:lvgl/src/widgets/lv_btnmatrix.c ****         btn_area.y1 += (lv_area_get_height(&btn_area) - txt_size.y) / 2;
 1679              		.loc 1 791 9 is_stmt 1 view .LVU535
 1680              	.LBB116:
 1681              	.LBI116:
 123:lvgl/src/widgets/../core/../misc/../font/../misc/lv_area.h **** {
 1682              		.loc 3 123 26 view .LVU536
 1683              	.LBB117:
 125:lvgl/src/widgets/../core/../misc/../font/../misc/lv_area.h **** }
 1684              		.loc 3 125 5 view .LVU537
 125:lvgl/src/widgets/../core/../misc/../font/../misc/lv_area.h **** }
 1685              		.loc 3 125 31 is_stmt 0 view .LVU538
 1686 0292 BDF82C31 		ldrh	r3, [sp, #300]
 125:lvgl/src/widgets/../core/../misc/../font/../misc/lv_area.h **** }
 1687              		.loc 3 125 44 view .LVU539
 1688 0296 BDF82811 		ldrh	r1, [sp, #296]
 125:lvgl/src/widgets/../core/../misc/../font/../misc/lv_area.h **** }
 1689              		.loc 3 125 36 view .LVU540
 1690 029a 5B1A     		subs	r3, r3, r1
 1691 029c 9BB2     		uxth	r3, r3
 125:lvgl/src/widgets/../core/../misc/../font/../misc/lv_area.h **** }
 1692              		.loc 3 125 49 view .LVU541
 1693 029e 0133     		adds	r3, r3, #1
 125:lvgl/src/widgets/../core/../misc/../font/../misc/lv_area.h **** }
 1694              		.loc 3 125 12 view .LVU542
 1695 02a0 1BB2     		sxth	r3, r3
 1696              	.LVL147:
 125:lvgl/src/widgets/../core/../misc/../font/../misc/lv_area.h **** }
 1697              		.loc 3 125 12 view .LVU543
 1698              	.LBE117:
 1699              	.LBE116:
 791:lvgl/src/widgets/lv_btnmatrix.c ****         btn_area.y1 += (lv_area_get_height(&btn_area) - txt_size.y) / 2;
 1700              		.loc 1 791 64 discriminator 1 view .LVU544
 1701 02a2 BDF92C00 		ldrsh	r0, [sp, #44]
 791:lvgl/src/widgets/lv_btnmatrix.c ****         btn_area.y1 += (lv_area_get_height(&btn_area) - txt_size.y) / 2;
 1702              		.loc 1 791 68 discriminator 1 view .LVU545
 1703 02a6 1B1A     		subs	r3, r3, r0
 1704 02a8 00F1CD80 		bmi	.L93
 1705              	.L80:
 791:lvgl/src/widgets/lv_btnmatrix.c ****         btn_area.y1 += (lv_area_get_height(&btn_area) - txt_size.y) / 2;
 1706              		.loc 1 791 21 discriminator 1 view .LVU546
 1707 02ac 01EB6301 		add	r1, r1, r3, asr #1
 1708 02b0 89B2     		uxth	r1, r1
 1709 02b2 ADF82811 		strh	r1, [sp, #296]	@ movhi
 792:lvgl/src/widgets/lv_btnmatrix.c ****         btn_area.x2 = btn_area.x1 + txt_size.x;
 1710              		.loc 1 792 9 is_stmt 1 view .LVU547
 1711              	.LVL148:
 1712              	.LBB118:
 1713              	.LBI118:
 133:lvgl/src/widgets/../core/../misc/../font/../misc/lv_area.h **** {
 1714              		.loc 3 133 26 view .LVU548
 1715              	.LBB119:
 1716              		.loc 3 135 5 view .LVU549
 1717              		.loc 3 135 31 is_stmt 0 view .LVU550
 1718 02b6 BDF82E31 		ldrh	r3, [sp, #302]
ARM GAS  C:\usertemp\ccuzpgLf.s 			page 61


 1719              		.loc 3 135 44 view .LVU551
 1720 02ba BDF82A21 		ldrh	r2, [sp, #298]
 1721              		.loc 3 135 36 view .LVU552
 1722 02be 9B1A     		subs	r3, r3, r2
 1723 02c0 9BB2     		uxth	r3, r3
 1724              		.loc 3 135 49 view .LVU553
 1725 02c2 0133     		adds	r3, r3, #1
 1726              		.loc 3 135 12 view .LVU554
 1727 02c4 1BB2     		sxth	r3, r3
 1728              	.LVL149:
 1729              		.loc 3 135 12 view .LVU555
 1730              	.LBE119:
 1731              	.LBE118:
 792:lvgl/src/widgets/lv_btnmatrix.c ****         btn_area.x2 = btn_area.x1 + txt_size.x;
 1732              		.loc 1 792 65 discriminator 1 view .LVU556
 1733 02c6 BDF92EC0 		ldrsh	ip, [sp, #46]
 792:lvgl/src/widgets/lv_btnmatrix.c ****         btn_area.x2 = btn_area.x1 + txt_size.x;
 1734              		.loc 1 792 69 discriminator 1 view .LVU557
 1735 02ca B3EB0C03 		subs	r3, r3, ip
 1736 02ce 00F1BC80 		bmi	.L94
 1737              	.L81:
 792:lvgl/src/widgets/lv_btnmatrix.c ****         btn_area.x2 = btn_area.x1 + txt_size.x;
 1738              		.loc 1 792 21 discriminator 1 view .LVU558
 1739 02d2 02EB6302 		add	r2, r2, r3, asr #1
 1740 02d6 92B2     		uxth	r2, r2
 1741 02d8 ADF82A21 		strh	r2, [sp, #298]	@ movhi
 793:lvgl/src/widgets/lv_btnmatrix.c ****         btn_area.y2 = btn_area.y1 + txt_size.y;
 1742              		.loc 1 793 9 is_stmt 1 view .LVU559
 793:lvgl/src/widgets/lv_btnmatrix.c ****         btn_area.y2 = btn_area.y1 + txt_size.y;
 1743              		.loc 1 793 35 is_stmt 0 view .LVU560
 1744 02dc 11FA80F0 		uxtah	r0, r1, r0
 793:lvgl/src/widgets/lv_btnmatrix.c ****         btn_area.y2 = btn_area.y1 + txt_size.y;
 1745              		.loc 1 793 21 view .LVU561
 1746 02e0 ADF82C01 		strh	r0, [sp, #300]	@ movhi
 794:lvgl/src/widgets/lv_btnmatrix.c **** 
 1747              		.loc 1 794 9 is_stmt 1 view .LVU562
 794:lvgl/src/widgets/lv_btnmatrix.c **** 
 1748              		.loc 1 794 35 is_stmt 0 view .LVU563
 1749 02e4 12FA8CFC 		uxtah	ip, r2, ip
 1750 02e8 1FFA8CF3 		uxth	r3, ip
 794:lvgl/src/widgets/lv_btnmatrix.c **** 
 1751              		.loc 1 794 21 view .LVU564
 1752 02ec ADF82EC1 		strh	ip, [sp, #302]	@ movhi
 796:lvgl/src/widgets/lv_btnmatrix.c ****             /*Push up the button text into the popover*/
 1753              		.loc 1 796 9 is_stmt 1 view .LVU565
 796:lvgl/src/widgets/lv_btnmatrix.c ****             /*Push up the button text into the popover*/
 1754              		.loc 1 796 11 is_stmt 0 view .LVU566
 1755 02f0 B8F1000F 		cmp	r8, #0
 1756 02f4 12D0     		beq	.L82
 796:lvgl/src/widgets/lv_btnmatrix.c ****             /*Push up the button text into the popover*/
 1757              		.loc 1 796 51 discriminator 1 view .LVU567
 1758 02f6 E96A     		ldr	r1, [r5, #44]
 796:lvgl/src/widgets/lv_btnmatrix.c ****             /*Push up the button text into the popover*/
 1759              		.loc 1 796 62 discriminator 1 view .LVU568
 1760 02f8 31F80B10 		ldrh	r1, [r1, fp]
 796:lvgl/src/widgets/lv_btnmatrix.c ****             /*Push up the button text into the popover*/
 1761              		.loc 1 796 43 discriminator 1 view .LVU569
ARM GAS  C:\usertemp\ccuzpgLf.s 			page 62


 1762 02fc 11F4007F 		tst	r1, #512
 1763 0300 0CD0     		beq	.L82
 798:lvgl/src/widgets/lv_btnmatrix.c ****             btn_area.y2 -= btn_height / 2;
 1764              		.loc 1 798 13 is_stmt 1 view .LVU570
 798:lvgl/src/widgets/lv_btnmatrix.c ****             btn_area.y2 -= btn_height / 2;
 1765              		.loc 1 798 25 is_stmt 0 view .LVU571
 1766 0302 4946     		mov	r1, r9
 1767 0304 B9F1000F 		cmp	r9, #0
 1768 0308 C0F2A180 		blt	.L95
 1769              	.L83:
 1770 030c C1F34F01 		ubfx	r1, r1, #1, #16
 1771 0310 521A     		subs	r2, r2, r1
 1772 0312 ADF82A21 		strh	r2, [sp, #298]	@ movhi
 799:lvgl/src/widgets/lv_btnmatrix.c ****         }
 1773              		.loc 1 799 13 is_stmt 1 view .LVU572
 799:lvgl/src/widgets/lv_btnmatrix.c ****         }
 1774              		.loc 1 799 25 is_stmt 0 view .LVU573
 1775 0316 5B1A     		subs	r3, r3, r1
 1776 0318 ADF82E31 		strh	r3, [sp, #302]	@ movhi
 1777              	.L82:
 803:lvgl/src/widgets/lv_btnmatrix.c **** 
 1778              		.loc 1 803 9 is_stmt 1 view .LVU574
 1779 031c 0023     		movs	r3, #0
 1780 031e 0093     		str	r3, [sp]
 1781 0320 3346     		mov	r3, r6
 1782 0322 4AAA     		add	r2, sp, #296
 1783 0324 34A9     		add	r1, sp, #208
 1784 0326 0498     		ldr	r0, [sp, #16]
 1785 0328 FFF7FEFF 		bl	lv_draw_label
 1786              	.LVL150:
 805:lvgl/src/widgets/lv_btnmatrix.c ****     }
 1787              		.loc 1 805 9 view .LVU575
 1788 032c 0CAA     		add	r2, sp, #48
 1789 032e 1B21     		movs	r1, #27
 1790 0330 2846     		mov	r0, r5
 1791 0332 FFF7FEFF 		bl	lv_event_send
 1792              	.LVL151:
 1793              	.L64:
 805:lvgl/src/widgets/lv_btnmatrix.c ****     }
 1794              		.loc 1 805 9 is_stmt 0 view .LVU576
 1795              	.LBE109:
 700:lvgl/src/widgets/lv_btnmatrix.c ****         /*Search the next valid text in the map*/
 1796              		.loc 1 700 50 is_stmt 1 discriminator 2 view .LVU577
 700:lvgl/src/widgets/lv_btnmatrix.c ****         /*Search the next valid text in the map*/
 1797              		.loc 1 700 48 is_stmt 0 discriminator 2 view .LVU578
 1798 0336 0137     		adds	r7, r7, #1
 1799              	.LVL152:
 700:lvgl/src/widgets/lv_btnmatrix.c ****         /*Search the next valid text in the map*/
 1800              		.loc 1 700 48 discriminator 2 view .LVU579
 1801 0338 BFB2     		uxth	r7, r7
 1802              	.LVL153:
 700:lvgl/src/widgets/lv_btnmatrix.c ****         /*Search the next valid text in the map*/
 1803              		.loc 1 700 57 discriminator 2 view .LVU580
 1804 033a 0134     		adds	r4, r4, #1
 1805              	.LVL154:
 700:lvgl/src/widgets/lv_btnmatrix.c ****         /*Search the next valid text in the map*/
 1806              		.loc 1 700 57 discriminator 2 view .LVU581
ARM GAS  C:\usertemp\ccuzpgLf.s 			page 63


 1807 033c A4B2     		uxth	r4, r4
 1808              	.LVL155:
 1809              	.L61:
 700:lvgl/src/widgets/lv_btnmatrix.c ****         /*Search the next valid text in the map*/
 1810              		.loc 1 700 26 is_stmt 1 discriminator 1 view .LVU582
 700:lvgl/src/widgets/lv_btnmatrix.c ****         /*Search the next valid text in the map*/
 1811              		.loc 1 700 32 is_stmt 0 discriminator 1 view .LVU583
 1812 033e 2B8E     		ldrh	r3, [r5, #48]
 700:lvgl/src/widgets/lv_btnmatrix.c ****         /*Search the next valid text in the map*/
 1813              		.loc 1 700 26 discriminator 1 view .LVU584
 1814 0340 BB42     		cmp	r3, r7
 1815 0342 3FF6CDAE 		bhi	.L84
 808:lvgl/src/widgets/lv_btnmatrix.c **** #if LV_USE_ARABIC_PERSIAN_CHARS
 1816              		.loc 1 808 5 is_stmt 1 view .LVU585
 808:lvgl/src/widgets/lv_btnmatrix.c **** #if LV_USE_ARABIC_PERSIAN_CHARS
 1817              		.loc 1 808 21 is_stmt 0 view .LVU586
 1818 0346 95F82230 		ldrb	r3, [r5, #34]	@ zero_extendqisi2
 1819 034a 23F00403 		bic	r3, r3, #4
 1820 034e 85F82230 		strb	r3, [r5, #34]
 1821 0352 5DE6     		b	.L58
 1822              	.LVL156:
 1823              	.L85:
 1824              	.LBB120:
 711:lvgl/src/widgets/lv_btnmatrix.c **** 
 1825              		.loc 1 711 66 discriminator 1 view .LVU587
 1826 0354 4FF00108 		mov	r8, #1
 1827 0358 DFE6     		b	.L65
 1828              	.LVL157:
 1829              	.L66:
 714:lvgl/src/widgets/lv_btnmatrix.c ****             if(state_ori & LV_STATE_PRESSED) btn_state |= LV_STATE_PRESSED;
 1830              		.loc 1 714 14 is_stmt 1 view .LVU588
 714:lvgl/src/widgets/lv_btnmatrix.c ****             if(state_ori & LV_STATE_PRESSED) btn_state |= LV_STATE_PRESSED;
 1831              		.loc 1 714 30 is_stmt 0 view .LVU589
 1832 035a AB8E     		ldrh	r3, [r5, #52]
 714:lvgl/src/widgets/lv_btnmatrix.c ****             if(state_ori & LV_STATE_PRESSED) btn_state |= LV_STATE_PRESSED;
 1833              		.loc 1 714 16 view .LVU590
 1834 035c BB42     		cmp	r3, r7
 1835 035e 7FF4E4AE 		bne	.L67
 715:lvgl/src/widgets/lv_btnmatrix.c ****             if(state_ori & LV_STATE_FOCUSED) btn_state |= LV_STATE_FOCUSED;
 1836              		.loc 1 715 13 is_stmt 1 view .LVU591
 715:lvgl/src/widgets/lv_btnmatrix.c ****             if(state_ori & LV_STATE_FOCUSED) btn_state |= LV_STATE_FOCUSED;
 1837              		.loc 1 715 15 is_stmt 0 view .LVU592
 1838 0362 059B     		ldr	r3, [sp, #20]
 1839 0364 13F0200F 		tst	r3, #32
 1840 0368 01D0     		beq	.L68
 715:lvgl/src/widgets/lv_btnmatrix.c ****             if(state_ori & LV_STATE_FOCUSED) btn_state |= LV_STATE_FOCUSED;
 1841              		.loc 1 715 46 is_stmt 1 discriminator 1 view .LVU593
 715:lvgl/src/widgets/lv_btnmatrix.c ****             if(state_ori & LV_STATE_FOCUSED) btn_state |= LV_STATE_FOCUSED;
 1842              		.loc 1 715 56 is_stmt 0 discriminator 1 view .LVU594
 1843 036a 48F02008 		orr	r8, r8, #32
 1844              	.LVL158:
 1845              	.L68:
 716:lvgl/src/widgets/lv_btnmatrix.c ****             if(state_ori & LV_STATE_FOCUS_KEY) btn_state |= LV_STATE_FOCUS_KEY;
 1846              		.loc 1 716 13 is_stmt 1 view .LVU595
 716:lvgl/src/widgets/lv_btnmatrix.c ****             if(state_ori & LV_STATE_FOCUS_KEY) btn_state |= LV_STATE_FOCUS_KEY;
 1847              		.loc 1 716 15 is_stmt 0 view .LVU596
 1848 036e 059B     		ldr	r3, [sp, #20]
ARM GAS  C:\usertemp\ccuzpgLf.s 			page 64


 1849 0370 13F0020F 		tst	r3, #2
 1850 0374 01D0     		beq	.L69
 716:lvgl/src/widgets/lv_btnmatrix.c ****             if(state_ori & LV_STATE_FOCUS_KEY) btn_state |= LV_STATE_FOCUS_KEY;
 1851              		.loc 1 716 46 is_stmt 1 discriminator 1 view .LVU597
 716:lvgl/src/widgets/lv_btnmatrix.c ****             if(state_ori & LV_STATE_FOCUS_KEY) btn_state |= LV_STATE_FOCUS_KEY;
 1852              		.loc 1 716 56 is_stmt 0 discriminator 1 view .LVU598
 1853 0376 48F00208 		orr	r8, r8, #2
 1854              	.LVL159:
 1855              	.L69:
 717:lvgl/src/widgets/lv_btnmatrix.c ****             if(state_ori & LV_STATE_EDITED) btn_state |= LV_STATE_EDITED;
 1856              		.loc 1 717 13 is_stmt 1 view .LVU599
 717:lvgl/src/widgets/lv_btnmatrix.c ****             if(state_ori & LV_STATE_EDITED) btn_state |= LV_STATE_EDITED;
 1857              		.loc 1 717 15 is_stmt 0 view .LVU600
 1858 037a 059B     		ldr	r3, [sp, #20]
 1859 037c 13F0040F 		tst	r3, #4
 1860 0380 01D0     		beq	.L70
 717:lvgl/src/widgets/lv_btnmatrix.c ****             if(state_ori & LV_STATE_EDITED) btn_state |= LV_STATE_EDITED;
 1861              		.loc 1 717 48 is_stmt 1 discriminator 1 view .LVU601
 717:lvgl/src/widgets/lv_btnmatrix.c ****             if(state_ori & LV_STATE_EDITED) btn_state |= LV_STATE_EDITED;
 1862              		.loc 1 717 58 is_stmt 0 discriminator 1 view .LVU602
 1863 0382 48F00408 		orr	r8, r8, #4
 1864              	.LVL160:
 1865              	.L70:
 718:lvgl/src/widgets/lv_btnmatrix.c ****         }
 1866              		.loc 1 718 13 is_stmt 1 view .LVU603
 718:lvgl/src/widgets/lv_btnmatrix.c ****         }
 1867              		.loc 1 718 15 is_stmt 0 view .LVU604
 1868 0386 059B     		ldr	r3, [sp, #20]
 1869 0388 13F0080F 		tst	r3, #8
 1870 038c 3FF4CDAE 		beq	.L67
 718:lvgl/src/widgets/lv_btnmatrix.c ****         }
 1871              		.loc 1 718 45 is_stmt 1 discriminator 1 view .LVU605
 718:lvgl/src/widgets/lv_btnmatrix.c ****         }
 1872              		.loc 1 718 55 is_stmt 0 discriminator 1 view .LVU606
 1873 0390 48F00808 		orr	r8, r8, #8
 1874              	.LVL161:
 718:lvgl/src/widgets/lv_btnmatrix.c ****         }
 1875              		.loc 1 718 55 discriminator 1 view .LVU607
 1876 0394 C9E6     		b	.L67
 1877              	.L71:
 735:lvgl/src/widgets/lv_btnmatrix.c ****             obj->skip_trans = 1;
 1878              		.loc 1 735 13 is_stmt 1 view .LVU608
 735:lvgl/src/widgets/lv_btnmatrix.c ****             obj->skip_trans = 1;
 1879              		.loc 1 735 24 is_stmt 0 view .LVU609
 1880 0396 A5F82080 		strh	r8, [r5, #32]	@ movhi
 736:lvgl/src/widgets/lv_btnmatrix.c ****             lv_draw_rect_dsc_init(&draw_rect_dsc_act);
 1881              		.loc 1 736 13 is_stmt 1 view .LVU610
 736:lvgl/src/widgets/lv_btnmatrix.c ****             lv_draw_rect_dsc_init(&draw_rect_dsc_act);
 1882              		.loc 1 736 29 is_stmt 0 view .LVU611
 1883 039a 95F82230 		ldrb	r3, [r5, #34]	@ zero_extendqisi2
 1884 039e 43F00403 		orr	r3, r3, #4
 1885 03a2 85F82230 		strb	r3, [r5, #34]
 737:lvgl/src/widgets/lv_btnmatrix.c ****             lv_draw_label_dsc_init(&draw_label_dsc_act);
 1886              		.loc 1 737 13 is_stmt 1 view .LVU612
 1887 03a6 3CA8     		add	r0, sp, #240
 1888 03a8 FFF7FEFF 		bl	lv_draw_rect_dsc_init
 1889              	.LVL162:
ARM GAS  C:\usertemp\ccuzpgLf.s 			page 65


 738:lvgl/src/widgets/lv_btnmatrix.c ****             lv_obj_init_draw_rect_dsc(obj, LV_PART_ITEMS, &draw_rect_dsc_act);
 1890              		.loc 1 738 13 view .LVU613
 1891 03ac 34A8     		add	r0, sp, #208
 1892 03ae FFF7FEFF 		bl	lv_draw_label_dsc_init
 1893              	.LVL163:
 739:lvgl/src/widgets/lv_btnmatrix.c ****             lv_obj_init_draw_label_dsc(obj, LV_PART_ITEMS, &draw_label_dsc_act);
 1894              		.loc 1 739 13 view .LVU614
 1895 03b2 3CAA     		add	r2, sp, #240
 1896 03b4 4FF4A021 		mov	r1, #327680
 1897 03b8 2846     		mov	r0, r5
 1898 03ba FFF7FEFF 		bl	lv_obj_init_draw_rect_dsc
 1899              	.LVL164:
 740:lvgl/src/widgets/lv_btnmatrix.c ****             obj->state = state_ori;
 1900              		.loc 1 740 13 view .LVU615
 1901 03be 34AA     		add	r2, sp, #208
 1902 03c0 4FF4A021 		mov	r1, #327680
 1903 03c4 2846     		mov	r0, r5
 1904 03c6 FFF7FEFF 		bl	lv_obj_init_draw_label_dsc
 1905              	.LVL165:
 741:lvgl/src/widgets/lv_btnmatrix.c ****             obj->skip_trans = 0;
 1906              		.loc 1 741 13 view .LVU616
 741:lvgl/src/widgets/lv_btnmatrix.c ****             obj->skip_trans = 0;
 1907              		.loc 1 741 24 is_stmt 0 view .LVU617
 1908 03ca 059B     		ldr	r3, [sp, #20]
 1909 03cc 2B84     		strh	r3, [r5, #32]	@ movhi
 742:lvgl/src/widgets/lv_btnmatrix.c ****         }
 1910              		.loc 1 742 13 is_stmt 1 view .LVU618
 742:lvgl/src/widgets/lv_btnmatrix.c ****         }
 1911              		.loc 1 742 29 is_stmt 0 view .LVU619
 1912 03ce 95F82230 		ldrb	r3, [r5, #34]	@ zero_extendqisi2
 1913 03d2 23F00403 		bic	r3, r3, #4
 1914 03d6 85F82230 		strb	r3, [r5, #34]
 1915 03da DBE6     		b	.L72
 1916              	.LVL166:
 1917              	.L73:
 747:lvgl/src/widgets/lv_btnmatrix.c **** 
 1918              		.loc 1 747 14 is_stmt 1 view .LVU620
 747:lvgl/src/widgets/lv_btnmatrix.c **** 
 1919              		.loc 1 747 32 is_stmt 0 view .LVU621
 1920 03dc 9DF8ED30 		ldrb	r3, [sp, #237]	@ zero_extendqisi2
 747:lvgl/src/widgets/lv_btnmatrix.c **** 
 1921              		.loc 1 747 38 view .LVU622
 1922 03e0 23F00103 		bic	r3, r3, #1
 1923 03e4 8DF8ED30 		strb	r3, [sp, #237]
 1924 03e8 E2E6     		b	.L74
 1925              	.L97:
 1926 03ea 00BF     		.align	2
 1927              	.L96:
 1928 03ec 00000000 		.word	lv_btnmatrix_class
 1929 03f0 00000000 		.word	.LC0
 1930              	.LVL167:
 1931              	.L89:
 757:lvgl/src/widgets/lv_btnmatrix.c ****             if(btn_area.x2 == obj->coords.x2 - pright) draw_rect_dsc_act.border_side &= ~LV_BORDER_
 1932              		.loc 1 757 55 is_stmt 1 discriminator 1 view .LVU623
 757:lvgl/src/widgets/lv_btnmatrix.c ****             if(btn_area.x2 == obj->coords.x2 - pright) draw_rect_dsc_act.border_side &= ~LV_BORDER_
 1933              		.loc 1 757 85 is_stmt 0 discriminator 1 view .LVU624
 1934 03f4 9DF81331 		ldrb	r3, [sp, #275]	@ zero_extendqisi2
ARM GAS  C:\usertemp\ccuzpgLf.s 			page 66


 1935 03f8 0B22     		movs	r2, #11
 1936 03fa 62F34503 		bfi	r3, r2, #1, #5
 1937 03fe 8DF81331 		strb	r3, [sp, #275]
 1938 0402 F4E6     		b	.L76
 1939              	.L90:
 758:lvgl/src/widgets/lv_btnmatrix.c ****             if(btn_area.y1 == obj->coords.y1 + ptop) draw_rect_dsc_act.border_side &= ~LV_BORDER_SI
 1940              		.loc 1 758 56 is_stmt 1 discriminator 1 view .LVU625
 758:lvgl/src/widgets/lv_btnmatrix.c ****             if(btn_area.y1 == obj->coords.y1 + ptop) draw_rect_dsc_act.border_side &= ~LV_BORDER_SI
 1941              		.loc 1 758 73 is_stmt 0 discriminator 1 view .LVU626
 1942 0404 9DF81331 		ldrb	r3, [sp, #275]	@ zero_extendqisi2
 1943 0408 C3F34402 		ubfx	r2, r3, #1, #5
 758:lvgl/src/widgets/lv_btnmatrix.c ****             if(btn_area.y1 == obj->coords.y1 + ptop) draw_rect_dsc_act.border_side &= ~LV_BORDER_SI
 1944              		.loc 1 758 86 discriminator 1 view .LVU627
 1945 040c 02F01702 		and	r2, r2, #23
 1946 0410 62F34503 		bfi	r3, r2, #1, #5
 1947 0414 8DF81331 		strb	r3, [sp, #275]
 1948 0418 F2E6     		b	.L77
 1949              	.L91:
 759:lvgl/src/widgets/lv_btnmatrix.c ****             if(btn_area.y2 == obj->coords.y2 - pbottom) draw_rect_dsc_act.border_side &= ~LV_BORDER
 1950              		.loc 1 759 54 is_stmt 1 discriminator 1 view .LVU628
 759:lvgl/src/widgets/lv_btnmatrix.c ****             if(btn_area.y2 == obj->coords.y2 - pbottom) draw_rect_dsc_act.border_side &= ~LV_BORDER
 1951              		.loc 1 759 71 is_stmt 0 discriminator 1 view .LVU629
 1952 041a 9DF81331 		ldrb	r3, [sp, #275]	@ zero_extendqisi2
 1953 041e C3F34402 		ubfx	r2, r3, #1, #5
 759:lvgl/src/widgets/lv_btnmatrix.c ****             if(btn_area.y2 == obj->coords.y2 - pbottom) draw_rect_dsc_act.border_side &= ~LV_BORDER
 1954              		.loc 1 759 84 discriminator 1 view .LVU630
 1955 0422 02F01D02 		and	r2, r2, #29
 1956 0426 62F34503 		bfi	r3, r2, #1, #5
 1957 042a 8DF81331 		strb	r3, [sp, #275]
 1958 042e F0E6     		b	.L78
 1959              	.L92:
 760:lvgl/src/widgets/lv_btnmatrix.c ****         }
 1960              		.loc 1 760 57 is_stmt 1 discriminator 1 view .LVU631
 760:lvgl/src/widgets/lv_btnmatrix.c ****         }
 1961              		.loc 1 760 74 is_stmt 0 discriminator 1 view .LVU632
 1962 0430 9DF81331 		ldrb	r3, [sp, #275]	@ zero_extendqisi2
 1963 0434 C3F34402 		ubfx	r2, r3, #1, #5
 760:lvgl/src/widgets/lv_btnmatrix.c ****         }
 1964              		.loc 1 760 87 discriminator 1 view .LVU633
 1965 0438 02F01E02 		and	r2, r2, #30
 1966 043c 62F34503 		bfi	r3, r2, #1, #5
 1967 0440 8DF81331 		strb	r3, [sp, #275]
 1968 0444 EEE6     		b	.L75
 1969              	.LVL168:
 1970              	.L93:
 791:lvgl/src/widgets/lv_btnmatrix.c ****         btn_area.y1 += (lv_area_get_height(&btn_area) - txt_size.y) / 2;
 1971              		.loc 1 791 68 discriminator 1 view .LVU634
 1972 0446 0133     		adds	r3, r3, #1
 1973 0448 30E7     		b	.L80
 1974              	.L94:
 792:lvgl/src/widgets/lv_btnmatrix.c ****         btn_area.x2 = btn_area.x1 + txt_size.x;
 1975              		.loc 1 792 69 discriminator 1 view .LVU635
 1976 044a 0133     		adds	r3, r3, #1
 1977 044c 41E7     		b	.L81
 1978              	.L95:
 798:lvgl/src/widgets/lv_btnmatrix.c ****             btn_area.y2 -= btn_height / 2;
 1979              		.loc 1 798 25 view .LVU636
ARM GAS  C:\usertemp\ccuzpgLf.s 			page 67


 1980 044e 09F10101 		add	r1, r9, #1
 1981 0452 5BE7     		b	.L83
 1982              	.LBE120:
 1983              		.cfi_endproc
 1984              	.LFE174:
 1986              		.section	.text.lv_btnmatrix_destructor,"ax",%progbits
 1987              		.align	1
 1988              		.syntax unified
 1989              		.thumb
 1990              		.thumb_func
 1992              	lv_btnmatrix_destructor:
 1993              	.LVL169:
 1994              	.LFB172:
 375:lvgl/src/widgets/lv_btnmatrix.c ****     LV_TRACE_OBJ_CREATE("begin");
 1995              		.loc 1 375 1 is_stmt 1 view -0
 1996              		.cfi_startproc
 1997              		@ args = 0, pretend = 0, frame = 0
 1998              		@ frame_needed = 0, uses_anonymous_args = 0
 375:lvgl/src/widgets/lv_btnmatrix.c ****     LV_TRACE_OBJ_CREATE("begin");
 1999              		.loc 1 375 1 is_stmt 0 view .LVU638
 2000 0000 10B5     		push	{r4, lr}
 2001              	.LCFI16:
 2002              		.cfi_def_cfa_offset 8
 2003              		.cfi_offset 4, -8
 2004              		.cfi_offset 14, -4
 2005 0002 0C46     		mov	r4, r1
 376:lvgl/src/widgets/lv_btnmatrix.c ****     LV_UNUSED(class_p);
 2006              		.loc 1 376 5 is_stmt 1 view .LVU639
 376:lvgl/src/widgets/lv_btnmatrix.c ****     LV_UNUSED(class_p);
 2007              		.loc 1 376 5 view .LVU640
 376:lvgl/src/widgets/lv_btnmatrix.c ****     LV_UNUSED(class_p);
 2008              		.loc 1 376 5 view .LVU641
 377:lvgl/src/widgets/lv_btnmatrix.c ****     lv_btnmatrix_t * btnm = (lv_btnmatrix_t *)obj;
 2009              		.loc 1 377 5 view .LVU642
 378:lvgl/src/widgets/lv_btnmatrix.c ****     lv_mem_free(btnm->button_areas);
 2010              		.loc 1 378 5 view .LVU643
 2011              	.LVL170:
 379:lvgl/src/widgets/lv_btnmatrix.c ****     lv_mem_free(btnm->ctrl_bits);
 2012              		.loc 1 379 5 view .LVU644
 2013 0004 886A     		ldr	r0, [r1, #40]
 2014              	.LVL171:
 379:lvgl/src/widgets/lv_btnmatrix.c ****     lv_mem_free(btnm->ctrl_bits);
 2015              		.loc 1 379 5 is_stmt 0 view .LVU645
 2016 0006 FFF7FEFF 		bl	lv_mem_free
 2017              	.LVL172:
 380:lvgl/src/widgets/lv_btnmatrix.c ****     btnm->button_areas = NULL;
 2018              		.loc 1 380 5 is_stmt 1 view .LVU646
 2019 000a E06A     		ldr	r0, [r4, #44]
 2020 000c FFF7FEFF 		bl	lv_mem_free
 2021              	.LVL173:
 381:lvgl/src/widgets/lv_btnmatrix.c ****     btnm->ctrl_bits = NULL;
 2022              		.loc 1 381 5 view .LVU647
 381:lvgl/src/widgets/lv_btnmatrix.c ****     btnm->ctrl_bits = NULL;
 2023              		.loc 1 381 24 is_stmt 0 view .LVU648
 2024 0010 0023     		movs	r3, #0
 2025 0012 A362     		str	r3, [r4, #40]
 382:lvgl/src/widgets/lv_btnmatrix.c ****     LV_TRACE_OBJ_CREATE("finished");
ARM GAS  C:\usertemp\ccuzpgLf.s 			page 68


 2026              		.loc 1 382 5 is_stmt 1 view .LVU649
 382:lvgl/src/widgets/lv_btnmatrix.c ****     LV_TRACE_OBJ_CREATE("finished");
 2027              		.loc 1 382 21 is_stmt 0 view .LVU650
 2028 0014 E362     		str	r3, [r4, #44]
 383:lvgl/src/widgets/lv_btnmatrix.c **** }
 2029              		.loc 1 383 5 is_stmt 1 view .LVU651
 383:lvgl/src/widgets/lv_btnmatrix.c **** }
 2030              		.loc 1 383 5 view .LVU652
 383:lvgl/src/widgets/lv_btnmatrix.c **** }
 2031              		.loc 1 383 5 view .LVU653
 384:lvgl/src/widgets/lv_btnmatrix.c **** 
 2032              		.loc 1 384 1 is_stmt 0 view .LVU654
 2033 0016 10BD     		pop	{r4, pc}
 384:lvgl/src/widgets/lv_btnmatrix.c **** 
 2034              		.loc 1 384 1 view .LVU655
 2035              		.cfi_endproc
 2036              	.LFE172:
 2038              		.section	.text.allocate_btn_areas_and_controls,"ax",%progbits
 2039              		.align	1
 2040              		.syntax unified
 2041              		.thumb
 2042              		.thumb_func
 2044              	allocate_btn_areas_and_controls:
 2045              	.LVL174:
 2046              	.LFB175:
 819:lvgl/src/widgets/lv_btnmatrix.c ****     lv_btnmatrix_t * btnm = (lv_btnmatrix_t *)obj;
 2047              		.loc 1 819 1 is_stmt 1 view -0
 2048              		.cfi_startproc
 2049              		@ args = 0, pretend = 0, frame = 0
 2050              		@ frame_needed = 0, uses_anonymous_args = 0
 819:lvgl/src/widgets/lv_btnmatrix.c ****     lv_btnmatrix_t * btnm = (lv_btnmatrix_t *)obj;
 2051              		.loc 1 819 1 is_stmt 0 view .LVU657
 2052 0000 F8B5     		push	{r3, r4, r5, r6, r7, lr}
 2053              	.LCFI17:
 2054              		.cfi_def_cfa_offset 24
 2055              		.cfi_offset 3, -24
 2056              		.cfi_offset 4, -20
 2057              		.cfi_offset 5, -16
 2058              		.cfi_offset 6, -12
 2059              		.cfi_offset 7, -8
 2060              		.cfi_offset 14, -4
 2061 0002 0646     		mov	r6, r0
 2062 0004 0F46     		mov	r7, r1
 820:lvgl/src/widgets/lv_btnmatrix.c ****     btnm->row_cnt = 1;
 2063              		.loc 1 820 5 is_stmt 1 view .LVU658
 2064              	.LVL175:
 821:lvgl/src/widgets/lv_btnmatrix.c ****     /*Count the buttons in the map*/
 2065              		.loc 1 821 5 view .LVU659
 821:lvgl/src/widgets/lv_btnmatrix.c ****     /*Count the buttons in the map*/
 2066              		.loc 1 821 19 is_stmt 0 view .LVU660
 2067 0006 0123     		movs	r3, #1
 2068 0008 4386     		strh	r3, [r0, #50]	@ movhi
 823:lvgl/src/widgets/lv_btnmatrix.c ****     uint16_t i       = 0;
 2069              		.loc 1 823 5 is_stmt 1 view .LVU661
 2070              	.LVL176:
 824:lvgl/src/widgets/lv_btnmatrix.c ****     while(map[i] && map[i][0] != '\0') {
 2071              		.loc 1 824 5 view .LVU662
ARM GAS  C:\usertemp\ccuzpgLf.s 			page 69


 825:lvgl/src/widgets/lv_btnmatrix.c ****         if(strcmp(map[i], "\n") != 0) { /*Do not count line breaks*/
 2072              		.loc 1 825 5 view .LVU663
 824:lvgl/src/widgets/lv_btnmatrix.c ****     while(map[i] && map[i][0] != '\0') {
 2073              		.loc 1 824 14 is_stmt 0 view .LVU664
 2074 000a 0024     		movs	r4, #0
 823:lvgl/src/widgets/lv_btnmatrix.c ****     uint16_t i       = 0;
 2075              		.loc 1 823 14 view .LVU665
 2076 000c 2546     		mov	r5, r4
 825:lvgl/src/widgets/lv_btnmatrix.c ****         if(strcmp(map[i], "\n") != 0) { /*Do not count line breaks*/
 2077              		.loc 1 825 10 view .LVU666
 2078 000e 04E0     		b	.L101
 2079              	.LVL177:
 2080              	.L102:
 830:lvgl/src/widgets/lv_btnmatrix.c ****         }
 2081              		.loc 1 830 13 is_stmt 1 view .LVU667
 830:lvgl/src/widgets/lv_btnmatrix.c ****         }
 2082              		.loc 1 830 17 is_stmt 0 view .LVU668
 2083 0010 738E     		ldrh	r3, [r6, #50]
 830:lvgl/src/widgets/lv_btnmatrix.c ****         }
 2084              		.loc 1 830 26 view .LVU669
 2085 0012 0133     		adds	r3, r3, #1
 2086 0014 7386     		strh	r3, [r6, #50]	@ movhi
 2087              	.L103:
 832:lvgl/src/widgets/lv_btnmatrix.c ****     }
 2088              		.loc 1 832 9 is_stmt 1 view .LVU670
 832:lvgl/src/widgets/lv_btnmatrix.c ****     }
 2089              		.loc 1 832 10 is_stmt 0 view .LVU671
 2090 0016 0134     		adds	r4, r4, #1
 2091              	.LVL178:
 832:lvgl/src/widgets/lv_btnmatrix.c ****     }
 2092              		.loc 1 832 10 view .LVU672
 2093 0018 A4B2     		uxth	r4, r4
 2094              	.LVL179:
 2095              	.L101:
 825:lvgl/src/widgets/lv_btnmatrix.c ****         if(strcmp(map[i], "\n") != 0) { /*Do not count line breaks*/
 2096              		.loc 1 825 18 is_stmt 1 view .LVU673
 825:lvgl/src/widgets/lv_btnmatrix.c ****         if(strcmp(map[i], "\n") != 0) { /*Do not count line breaks*/
 2097              		.loc 1 825 14 is_stmt 0 view .LVU674
 2098 001a 57F82400 		ldr	r0, [r7, r4, lsl #2]
 825:lvgl/src/widgets/lv_btnmatrix.c ****         if(strcmp(map[i], "\n") != 0) { /*Do not count line breaks*/
 2099              		.loc 1 825 18 view .LVU675
 2100 001e 48B1     		cbz	r0, .L104
 825:lvgl/src/widgets/lv_btnmatrix.c ****         if(strcmp(map[i], "\n") != 0) { /*Do not count line breaks*/
 2101              		.loc 1 825 27 discriminator 1 view .LVU676
 2102 0020 0378     		ldrb	r3, [r0]	@ zero_extendqisi2
 825:lvgl/src/widgets/lv_btnmatrix.c ****         if(strcmp(map[i], "\n") != 0) { /*Do not count line breaks*/
 2103              		.loc 1 825 18 discriminator 1 view .LVU677
 2104 0022 3BB1     		cbz	r3, .L104
 826:lvgl/src/widgets/lv_btnmatrix.c ****             btn_cnt++;
 2105              		.loc 1 826 9 is_stmt 1 view .LVU678
 826:lvgl/src/widgets/lv_btnmatrix.c ****             btn_cnt++;
 2106              		.loc 1 826 12 is_stmt 0 view .LVU679
 2107 0024 1549     		ldr	r1, .L117
 2108 0026 FFF7FEFF 		bl	strcmp
 2109              	.LVL180:
 826:lvgl/src/widgets/lv_btnmatrix.c ****             btn_cnt++;
 2110              		.loc 1 826 11 discriminator 1 view .LVU680
ARM GAS  C:\usertemp\ccuzpgLf.s 			page 70


 2111 002a 0028     		cmp	r0, #0
 2112 002c F0D0     		beq	.L102
 827:lvgl/src/widgets/lv_btnmatrix.c ****         }
 2113              		.loc 1 827 13 is_stmt 1 view .LVU681
 827:lvgl/src/widgets/lv_btnmatrix.c ****         }
 2114              		.loc 1 827 20 is_stmt 0 view .LVU682
 2115 002e 0135     		adds	r5, r5, #1
 2116              	.LVL181:
 827:lvgl/src/widgets/lv_btnmatrix.c ****         }
 2117              		.loc 1 827 20 view .LVU683
 2118 0030 ADB2     		uxth	r5, r5
 2119              	.LVL182:
 827:lvgl/src/widgets/lv_btnmatrix.c ****         }
 2120              		.loc 1 827 20 view .LVU684
 2121 0032 F0E7     		b	.L103
 2122              	.L104:
 836:lvgl/src/widgets/lv_btnmatrix.c **** 
 2123              		.loc 1 836 5 is_stmt 1 view .LVU685
 836:lvgl/src/widgets/lv_btnmatrix.c **** 
 2124              		.loc 1 836 23 is_stmt 0 view .LVU686
 2125 0034 338E     		ldrh	r3, [r6, #48]
 836:lvgl/src/widgets/lv_btnmatrix.c **** 
 2126              		.loc 1 836 7 view .LVU687
 2127 0036 AB42     		cmp	r3, r5
 2128 0038 1BD0     		beq	.L100
 838:lvgl/src/widgets/lv_btnmatrix.c ****         lv_mem_free(btnm->button_areas);
 2129              		.loc 1 838 5 is_stmt 1 view .LVU688
 838:lvgl/src/widgets/lv_btnmatrix.c ****         lv_mem_free(btnm->button_areas);
 2130              		.loc 1 838 12 is_stmt 0 view .LVU689
 2131 003a B06A     		ldr	r0, [r6, #40]
 838:lvgl/src/widgets/lv_btnmatrix.c ****         lv_mem_free(btnm->button_areas);
 2132              		.loc 1 838 7 view .LVU690
 2133 003c 18B1     		cbz	r0, .L107
 839:lvgl/src/widgets/lv_btnmatrix.c ****         btnm->button_areas = NULL;
 2134              		.loc 1 839 9 is_stmt 1 view .LVU691
 2135 003e FFF7FEFF 		bl	lv_mem_free
 2136              	.LVL183:
 840:lvgl/src/widgets/lv_btnmatrix.c ****     }
 2137              		.loc 1 840 9 view .LVU692
 840:lvgl/src/widgets/lv_btnmatrix.c ****     }
 2138              		.loc 1 840 28 is_stmt 0 view .LVU693
 2139 0042 0023     		movs	r3, #0
 2140 0044 B362     		str	r3, [r6, #40]
 2141              	.L107:
 842:lvgl/src/widgets/lv_btnmatrix.c ****         lv_mem_free(btnm->ctrl_bits);
 2142              		.loc 1 842 5 is_stmt 1 view .LVU694
 842:lvgl/src/widgets/lv_btnmatrix.c ****         lv_mem_free(btnm->ctrl_bits);
 2143              		.loc 1 842 12 is_stmt 0 view .LVU695
 2144 0046 F06A     		ldr	r0, [r6, #44]
 842:lvgl/src/widgets/lv_btnmatrix.c ****         lv_mem_free(btnm->ctrl_bits);
 2145              		.loc 1 842 7 view .LVU696
 2146 0048 18B1     		cbz	r0, .L108
 843:lvgl/src/widgets/lv_btnmatrix.c ****         btnm->ctrl_bits = NULL;
 2147              		.loc 1 843 9 is_stmt 1 view .LVU697
 2148 004a FFF7FEFF 		bl	lv_mem_free
 2149              	.LVL184:
 844:lvgl/src/widgets/lv_btnmatrix.c ****     }
ARM GAS  C:\usertemp\ccuzpgLf.s 			page 71


 2150              		.loc 1 844 9 view .LVU698
 844:lvgl/src/widgets/lv_btnmatrix.c ****     }
 2151              		.loc 1 844 25 is_stmt 0 view .LVU699
 2152 004e 0023     		movs	r3, #0
 2153 0050 F362     		str	r3, [r6, #44]
 2154              	.L108:
 847:lvgl/src/widgets/lv_btnmatrix.c ****     LV_ASSERT_MALLOC(btnm->button_areas);
 2155              		.loc 1 847 5 is_stmt 1 view .LVU700
 847:lvgl/src/widgets/lv_btnmatrix.c ****     LV_ASSERT_MALLOC(btnm->button_areas);
 2156              		.loc 1 847 26 is_stmt 0 view .LVU701
 2157 0052 E800     		lsls	r0, r5, #3
 2158 0054 FFF7FEFF 		bl	lv_mem_alloc
 2159              	.LVL185:
 847:lvgl/src/widgets/lv_btnmatrix.c ****     LV_ASSERT_MALLOC(btnm->button_areas);
 2160              		.loc 1 847 24 discriminator 1 view .LVU702
 2161 0058 B062     		str	r0, [r6, #40]
 848:lvgl/src/widgets/lv_btnmatrix.c ****     btnm->ctrl_bits = lv_mem_alloc(sizeof(lv_btnmatrix_ctrl_t) * btn_cnt);
 2162              		.loc 1 848 5 is_stmt 1 view .LVU703
 848:lvgl/src/widgets/lv_btnmatrix.c ****     btnm->ctrl_bits = lv_mem_alloc(sizeof(lv_btnmatrix_ctrl_t) * btn_cnt);
 2163              		.loc 1 848 5 view .LVU704
 2164 005a 58B1     		cbz	r0, .L110
 848:lvgl/src/widgets/lv_btnmatrix.c ****     btnm->ctrl_bits = lv_mem_alloc(sizeof(lv_btnmatrix_ctrl_t) * btn_cnt);
 2165              		.loc 1 848 5 discriminator 2 view .LVU705
 848:lvgl/src/widgets/lv_btnmatrix.c ****     btnm->ctrl_bits = lv_mem_alloc(sizeof(lv_btnmatrix_ctrl_t) * btn_cnt);
 2166              		.loc 1 848 41 discriminator 2 view .LVU706
 849:lvgl/src/widgets/lv_btnmatrix.c ****     LV_ASSERT_MALLOC(btnm->ctrl_bits);
 2167              		.loc 1 849 5 view .LVU707
 849:lvgl/src/widgets/lv_btnmatrix.c ****     LV_ASSERT_MALLOC(btnm->ctrl_bits);
 2168              		.loc 1 849 23 is_stmt 0 view .LVU708
 2169 005c 6800     		lsls	r0, r5, #1
 2170 005e FFF7FEFF 		bl	lv_mem_alloc
 2171              	.LVL186:
 849:lvgl/src/widgets/lv_btnmatrix.c ****     LV_ASSERT_MALLOC(btnm->ctrl_bits);
 2172              		.loc 1 849 21 discriminator 1 view .LVU709
 2173 0062 F062     		str	r0, [r6, #44]
 850:lvgl/src/widgets/lv_btnmatrix.c ****     if(btnm->button_areas == NULL || btnm->ctrl_bits == NULL) btn_cnt = 0;
 2174              		.loc 1 850 5 is_stmt 1 view .LVU710
 850:lvgl/src/widgets/lv_btnmatrix.c ****     if(btnm->button_areas == NULL || btnm->ctrl_bits == NULL) btn_cnt = 0;
 2175              		.loc 1 850 5 view .LVU711
 2176 0064 38B1     		cbz	r0, .L112
 850:lvgl/src/widgets/lv_btnmatrix.c ****     if(btnm->button_areas == NULL || btnm->ctrl_bits == NULL) btn_cnt = 0;
 2177              		.loc 1 850 5 discriminator 2 view .LVU712
 850:lvgl/src/widgets/lv_btnmatrix.c ****     if(btnm->button_areas == NULL || btnm->ctrl_bits == NULL) btn_cnt = 0;
 2178              		.loc 1 850 38 discriminator 2 view .LVU713
 851:lvgl/src/widgets/lv_btnmatrix.c **** 
 2179              		.loc 1 851 5 view .LVU714
 851:lvgl/src/widgets/lv_btnmatrix.c **** 
 2180              		.loc 1 851 12 is_stmt 0 view .LVU715
 2181 0066 B36A     		ldr	r3, [r6, #40]
 851:lvgl/src/widgets/lv_btnmatrix.c **** 
 2182              		.loc 1 851 7 view .LVU716
 2183 0068 33B1     		cbz	r3, .L116
 2184              	.LVL187:
 2185              	.L113:
 853:lvgl/src/widgets/lv_btnmatrix.c **** 
 2186              		.loc 1 853 5 is_stmt 1 view .LVU717
 2187 006a 6900     		lsls	r1, r5, #1
ARM GAS  C:\usertemp\ccuzpgLf.s 			page 72


 2188 006c FFF7FEFF 		bl	lv_memset_00
 2189              	.LVL188:
 855:lvgl/src/widgets/lv_btnmatrix.c **** }
 2190              		.loc 1 855 5 view .LVU718
 855:lvgl/src/widgets/lv_btnmatrix.c **** }
 2191              		.loc 1 855 19 is_stmt 0 view .LVU719
 2192 0070 3586     		strh	r5, [r6, #48]	@ movhi
 2193              	.L100:
 856:lvgl/src/widgets/lv_btnmatrix.c **** 
 2194              		.loc 1 856 1 view .LVU720
 2195 0072 F8BD     		pop	{r3, r4, r5, r6, r7, pc}
 2196              	.LVL189:
 2197              	.L110:
 848:lvgl/src/widgets/lv_btnmatrix.c ****     btnm->ctrl_bits = lv_mem_alloc(sizeof(lv_btnmatrix_ctrl_t) * btn_cnt);
 2198              		.loc 1 848 5 is_stmt 1 discriminator 1 view .LVU721
 848:lvgl/src/widgets/lv_btnmatrix.c ****     btnm->ctrl_bits = lv_mem_alloc(sizeof(lv_btnmatrix_ctrl_t) * btn_cnt);
 2199              		.loc 1 848 5 discriminator 1 view .LVU722
 848:lvgl/src/widgets/lv_btnmatrix.c ****     btnm->ctrl_bits = lv_mem_alloc(sizeof(lv_btnmatrix_ctrl_t) * btn_cnt);
 2200              		.loc 1 848 5 discriminator 1 view .LVU723
 848:lvgl/src/widgets/lv_btnmatrix.c ****     btnm->ctrl_bits = lv_mem_alloc(sizeof(lv_btnmatrix_ctrl_t) * btn_cnt);
 2201              		.loc 1 848 5 discriminator 1 view .LVU724
 848:lvgl/src/widgets/lv_btnmatrix.c ****     btnm->ctrl_bits = lv_mem_alloc(sizeof(lv_btnmatrix_ctrl_t) * btn_cnt);
 2202              		.loc 1 848 5 discriminator 1 view .LVU725
 2203 0074 FEE7     		b	.L110
 2204              	.L112:
 850:lvgl/src/widgets/lv_btnmatrix.c ****     if(btnm->button_areas == NULL || btnm->ctrl_bits == NULL) btn_cnt = 0;
 2205              		.loc 1 850 5 discriminator 1 view .LVU726
 850:lvgl/src/widgets/lv_btnmatrix.c ****     if(btnm->button_areas == NULL || btnm->ctrl_bits == NULL) btn_cnt = 0;
 2206              		.loc 1 850 5 discriminator 1 view .LVU727
 850:lvgl/src/widgets/lv_btnmatrix.c ****     if(btnm->button_areas == NULL || btnm->ctrl_bits == NULL) btn_cnt = 0;
 2207              		.loc 1 850 5 discriminator 1 view .LVU728
 850:lvgl/src/widgets/lv_btnmatrix.c ****     if(btnm->button_areas == NULL || btnm->ctrl_bits == NULL) btn_cnt = 0;
 2208              		.loc 1 850 5 discriminator 1 view .LVU729
 850:lvgl/src/widgets/lv_btnmatrix.c ****     if(btnm->button_areas == NULL || btnm->ctrl_bits == NULL) btn_cnt = 0;
 2209              		.loc 1 850 5 discriminator 1 view .LVU730
 2210 0076 FEE7     		b	.L112
 2211              	.L116:
 851:lvgl/src/widgets/lv_btnmatrix.c **** 
 2212              		.loc 1 851 71 is_stmt 0 discriminator 3 view .LVU731
 2213 0078 0025     		movs	r5, #0
 2214              	.LVL190:
 851:lvgl/src/widgets/lv_btnmatrix.c **** 
 2215              		.loc 1 851 71 discriminator 3 view .LVU732
 2216 007a F6E7     		b	.L113
 2217              	.L118:
 2218              		.align	2
 2219              	.L117:
 2220 007c 00000000 		.word	.LC0
 2221              		.cfi_endproc
 2222              	.LFE175:
 2224              		.section	.text.lv_btnmatrix_create,"ax",%progbits
 2225              		.align	1
 2226              		.global	lv_btnmatrix_create
 2227              		.syntax unified
 2228              		.thumb
 2229              		.thumb_func
 2231              	lv_btnmatrix_create:
ARM GAS  C:\usertemp\ccuzpgLf.s 			page 73


 2232              	.LVL191:
 2233              	.LFB156:
  82:lvgl/src/widgets/lv_btnmatrix.c ****     LV_LOG_INFO("begin");
