ARM GAS  C:\usertemp\ccuzpgLf.s 			page 1


   1              		.cpu cortex-m7
   2              		.arch armv7e-m
   3              		.fpu fpv5-d16
   4              		.eabi_attribute 28, 1
   5              		.eabi_attribute 20, 1
   6              		.eabi_attribute 21, 1
   7              		.eabi_attribute 23, 3
   8              		.eabi_attribute 24, 1
   9              		.eabi_attribute 25, 1
  10              		.eabi_attribute 26, 1
  11              		.eabi_attribute 30, 1
  12              		.eabi_attribute 34, 1
  13              		.eabi_attribute 18, 4
  14              		.file	"lv_btnmatrix.c"
  15              		.text
  16              	.Ltext0:
  17              		.cfi_sections	.debug_frame
  18              		.file 1 "lvgl/src/widgets/lv_btnmatrix.c"
  19              		.section	.text.get_button_width,"ax",%progbits
  20              		.align	1
  21              		.syntax unified
  22              		.thumb
  23              		.thumb_func
  25              	get_button_width:
  26              	.LVL0:
  27              	.LFB176:
   1:lvgl/src/widgets/lv_btnmatrix.c **** /**
   2:lvgl/src/widgets/lv_btnmatrix.c ****  * @file lv_btnmatrix.c
   3:lvgl/src/widgets/lv_btnmatrix.c ****  *
   4:lvgl/src/widgets/lv_btnmatrix.c ****  */
   5:lvgl/src/widgets/lv_btnmatrix.c **** 
   6:lvgl/src/widgets/lv_btnmatrix.c **** /*********************
   7:lvgl/src/widgets/lv_btnmatrix.c ****  *      INCLUDES
   8:lvgl/src/widgets/lv_btnmatrix.c ****  *********************/
   9:lvgl/src/widgets/lv_btnmatrix.c **** #include "lv_btnmatrix.h"
  10:lvgl/src/widgets/lv_btnmatrix.c **** #if LV_USE_BTNMATRIX != 0
  11:lvgl/src/widgets/lv_btnmatrix.c **** 
  12:lvgl/src/widgets/lv_btnmatrix.c **** #include "../misc/lv_assert.h"
  13:lvgl/src/widgets/lv_btnmatrix.c **** #include "../core/lv_indev.h"
  14:lvgl/src/widgets/lv_btnmatrix.c **** #include "../core/lv_group.h"
  15:lvgl/src/widgets/lv_btnmatrix.c **** #include "../draw/lv_draw.h"
  16:lvgl/src/widgets/lv_btnmatrix.c **** #include "../core/lv_refr.h"
  17:lvgl/src/widgets/lv_btnmatrix.c **** #include "../misc/lv_txt.h"
  18:lvgl/src/widgets/lv_btnmatrix.c **** #include "../misc/lv_txt_ap.h"
  19:lvgl/src/widgets/lv_btnmatrix.c **** 
  20:lvgl/src/widgets/lv_btnmatrix.c **** /*********************
  21:lvgl/src/widgets/lv_btnmatrix.c ****  *      DEFINES
  22:lvgl/src/widgets/lv_btnmatrix.c ****  *********************/
  23:lvgl/src/widgets/lv_btnmatrix.c **** #define MY_CLASS &lv_btnmatrix_class
  24:lvgl/src/widgets/lv_btnmatrix.c **** 
  25:lvgl/src/widgets/lv_btnmatrix.c **** #define BTN_EXTRA_CLICK_AREA_MAX (LV_DPI_DEF / 10)
  26:lvgl/src/widgets/lv_btnmatrix.c **** #define LV_BTNMATRIX_WIDTH_MASK 0x0007
  27:lvgl/src/widgets/lv_btnmatrix.c **** 
  28:lvgl/src/widgets/lv_btnmatrix.c **** /**********************
  29:lvgl/src/widgets/lv_btnmatrix.c ****  *      TYPEDEFS
  30:lvgl/src/widgets/lv_btnmatrix.c ****  **********************/
  31:lvgl/src/widgets/lv_btnmatrix.c **** 
ARM GAS  C:\usertemp\ccuzpgLf.s 			page 2


  32:lvgl/src/widgets/lv_btnmatrix.c **** /**********************
  33:lvgl/src/widgets/lv_btnmatrix.c ****  *  STATIC PROTOTYPES
  34:lvgl/src/widgets/lv_btnmatrix.c ****  **********************/
  35:lvgl/src/widgets/lv_btnmatrix.c **** static void lv_btnmatrix_constructor(const lv_obj_class_t * class_p, lv_obj_t * obj);
  36:lvgl/src/widgets/lv_btnmatrix.c **** static void lv_btnmatrix_destructor(const lv_obj_class_t * class_p, lv_obj_t * obj);
  37:lvgl/src/widgets/lv_btnmatrix.c **** static void lv_btnmatrix_event(const lv_obj_class_t * class_p, lv_event_t * e);
  38:lvgl/src/widgets/lv_btnmatrix.c **** static void draw_main(lv_event_t * e);
  39:lvgl/src/widgets/lv_btnmatrix.c **** 
  40:lvgl/src/widgets/lv_btnmatrix.c **** static uint8_t get_button_width(lv_btnmatrix_ctrl_t ctrl_bits);
  41:lvgl/src/widgets/lv_btnmatrix.c **** static bool button_is_hidden(lv_btnmatrix_ctrl_t ctrl_bits);
  42:lvgl/src/widgets/lv_btnmatrix.c **** static bool button_is_checked(lv_btnmatrix_ctrl_t ctrl_bits);
  43:lvgl/src/widgets/lv_btnmatrix.c **** static bool button_is_repeat_disabled(lv_btnmatrix_ctrl_t ctrl_bits);
  44:lvgl/src/widgets/lv_btnmatrix.c **** static bool button_is_inactive(lv_btnmatrix_ctrl_t ctrl_bits);
  45:lvgl/src/widgets/lv_btnmatrix.c **** static bool button_is_click_trig(lv_btnmatrix_ctrl_t ctrl_bits);
  46:lvgl/src/widgets/lv_btnmatrix.c **** static bool button_is_popover(lv_btnmatrix_ctrl_t ctrl_bits);
  47:lvgl/src/widgets/lv_btnmatrix.c **** static bool button_is_checkable(lv_btnmatrix_ctrl_t ctrl_bits);
  48:lvgl/src/widgets/lv_btnmatrix.c **** static bool button_is_recolor(lv_btnmatrix_ctrl_t ctrl_bits);
  49:lvgl/src/widgets/lv_btnmatrix.c **** static bool button_get_checked(lv_btnmatrix_ctrl_t ctrl_bits);
  50:lvgl/src/widgets/lv_btnmatrix.c **** static uint16_t get_button_from_point(lv_obj_t * obj, lv_point_t * p);
  51:lvgl/src/widgets/lv_btnmatrix.c **** static void allocate_btn_areas_and_controls(const lv_obj_t * obj, const char ** map);
  52:lvgl/src/widgets/lv_btnmatrix.c **** static void invalidate_button_area(const lv_obj_t * obj, uint16_t btn_idx);
  53:lvgl/src/widgets/lv_btnmatrix.c **** static void make_one_button_checked(lv_obj_t * obj, uint16_t btn_idx);
  54:lvgl/src/widgets/lv_btnmatrix.c **** static bool has_popovers_in_top_row(lv_obj_t * obj);
  55:lvgl/src/widgets/lv_btnmatrix.c **** 
  56:lvgl/src/widgets/lv_btnmatrix.c **** /**********************
  57:lvgl/src/widgets/lv_btnmatrix.c ****  *  STATIC VARIABLES
  58:lvgl/src/widgets/lv_btnmatrix.c ****  **********************/
  59:lvgl/src/widgets/lv_btnmatrix.c **** static const char * lv_btnmatrix_def_map[] = {"Btn1", "Btn2", "Btn3", "\n", "Btn4", "Btn5", ""};
  60:lvgl/src/widgets/lv_btnmatrix.c **** 
  61:lvgl/src/widgets/lv_btnmatrix.c **** const lv_obj_class_t lv_btnmatrix_class = {
  62:lvgl/src/widgets/lv_btnmatrix.c ****     .constructor_cb = lv_btnmatrix_constructor,
  63:lvgl/src/widgets/lv_btnmatrix.c ****     .destructor_cb = lv_btnmatrix_destructor,
  64:lvgl/src/widgets/lv_btnmatrix.c ****     .event_cb = lv_btnmatrix_event,
  65:lvgl/src/widgets/lv_btnmatrix.c ****     .width_def = LV_DPI_DEF * 2,
  66:lvgl/src/widgets/lv_btnmatrix.c ****     .height_def = LV_DPI_DEF,
  67:lvgl/src/widgets/lv_btnmatrix.c ****     .instance_size = sizeof(lv_btnmatrix_t),
  68:lvgl/src/widgets/lv_btnmatrix.c ****     .editable = LV_OBJ_CLASS_EDITABLE_TRUE,
  69:lvgl/src/widgets/lv_btnmatrix.c ****     .group_def = LV_OBJ_CLASS_GROUP_DEF_TRUE,
  70:lvgl/src/widgets/lv_btnmatrix.c ****     .base_class = &lv_obj_class
  71:lvgl/src/widgets/lv_btnmatrix.c **** };
  72:lvgl/src/widgets/lv_btnmatrix.c **** 
  73:lvgl/src/widgets/lv_btnmatrix.c **** /**********************
  74:lvgl/src/widgets/lv_btnmatrix.c ****  *      MACROS
  75:lvgl/src/widgets/lv_btnmatrix.c ****  **********************/
  76:lvgl/src/widgets/lv_btnmatrix.c **** 
  77:lvgl/src/widgets/lv_btnmatrix.c **** /**********************
  78:lvgl/src/widgets/lv_btnmatrix.c ****  *   GLOBAL FUNCTIONS
  79:lvgl/src/widgets/lv_btnmatrix.c ****  **********************/
  80:lvgl/src/widgets/lv_btnmatrix.c **** 
  81:lvgl/src/widgets/lv_btnmatrix.c **** lv_obj_t * lv_btnmatrix_create(lv_obj_t * parent)
  82:lvgl/src/widgets/lv_btnmatrix.c **** {
  83:lvgl/src/widgets/lv_btnmatrix.c ****     LV_LOG_INFO("begin");
  84:lvgl/src/widgets/lv_btnmatrix.c ****     lv_obj_t * obj = lv_obj_class_create_obj(MY_CLASS, parent);
  85:lvgl/src/widgets/lv_btnmatrix.c ****     lv_obj_class_init_obj(obj);
  86:lvgl/src/widgets/lv_btnmatrix.c ****     return obj;
  87:lvgl/src/widgets/lv_btnmatrix.c **** }
  88:lvgl/src/widgets/lv_btnmatrix.c **** 
ARM GAS  C:\usertemp\ccuzpgLf.s 			page 3


  89:lvgl/src/widgets/lv_btnmatrix.c **** /*=====================
  90:lvgl/src/widgets/lv_btnmatrix.c ****  * Setter functions
  91:lvgl/src/widgets/lv_btnmatrix.c ****  *====================*/
  92:lvgl/src/widgets/lv_btnmatrix.c **** 
  93:lvgl/src/widgets/lv_btnmatrix.c **** void lv_btnmatrix_set_map(lv_obj_t * obj, const char * map[])
  94:lvgl/src/widgets/lv_btnmatrix.c **** {
  95:lvgl/src/widgets/lv_btnmatrix.c ****     LV_ASSERT_OBJ(obj, MY_CLASS);
  96:lvgl/src/widgets/lv_btnmatrix.c ****     if(map == NULL) return;
  97:lvgl/src/widgets/lv_btnmatrix.c **** 
  98:lvgl/src/widgets/lv_btnmatrix.c ****     lv_btnmatrix_t * btnm = (lv_btnmatrix_t *)obj;
  99:lvgl/src/widgets/lv_btnmatrix.c **** 
 100:lvgl/src/widgets/lv_btnmatrix.c ****     /*Analyze the map and create the required number of buttons*/
 101:lvgl/src/widgets/lv_btnmatrix.c ****     allocate_btn_areas_and_controls(obj, map);
 102:lvgl/src/widgets/lv_btnmatrix.c ****     btnm->map_p = map;
 103:lvgl/src/widgets/lv_btnmatrix.c **** 
 104:lvgl/src/widgets/lv_btnmatrix.c ****     lv_base_dir_t base_dir = lv_obj_get_style_base_dir(obj, LV_PART_MAIN);
 105:lvgl/src/widgets/lv_btnmatrix.c **** 
 106:lvgl/src/widgets/lv_btnmatrix.c ****     /*Set size and positions of the buttons*/
 107:lvgl/src/widgets/lv_btnmatrix.c ****     lv_coord_t pleft = lv_obj_get_style_pad_left(obj, LV_PART_MAIN);
 108:lvgl/src/widgets/lv_btnmatrix.c ****     lv_coord_t ptop = lv_obj_get_style_pad_top(obj, LV_PART_MAIN);
 109:lvgl/src/widgets/lv_btnmatrix.c ****     lv_coord_t prow = lv_obj_get_style_pad_row(obj, LV_PART_MAIN);
 110:lvgl/src/widgets/lv_btnmatrix.c ****     lv_coord_t pcol = lv_obj_get_style_pad_column(obj, LV_PART_MAIN);
 111:lvgl/src/widgets/lv_btnmatrix.c **** 
 112:lvgl/src/widgets/lv_btnmatrix.c ****     lv_coord_t max_w            = lv_obj_get_content_width(obj);
 113:lvgl/src/widgets/lv_btnmatrix.c ****     lv_coord_t max_h            = lv_obj_get_content_height(obj);
 114:lvgl/src/widgets/lv_btnmatrix.c **** 
 115:lvgl/src/widgets/lv_btnmatrix.c ****     /*Calculate the position of each row*/
 116:lvgl/src/widgets/lv_btnmatrix.c ****     lv_coord_t max_h_no_gap = max_h - (prow * (btnm->row_cnt - 1));
 117:lvgl/src/widgets/lv_btnmatrix.c **** 
 118:lvgl/src/widgets/lv_btnmatrix.c ****     /*Count the units and the buttons in a line
 119:lvgl/src/widgets/lv_btnmatrix.c ****      *(A button can be 1,2,3... unit wide)*/
 120:lvgl/src/widgets/lv_btnmatrix.c ****     uint32_t txt_tot_i = 0; /*Act. index in the str map*/
 121:lvgl/src/widgets/lv_btnmatrix.c ****     uint32_t btn_tot_i = 0; /*Act. index of button areas*/
 122:lvgl/src/widgets/lv_btnmatrix.c ****     const char ** map_row = map;
 123:lvgl/src/widgets/lv_btnmatrix.c **** 
 124:lvgl/src/widgets/lv_btnmatrix.c ****     /*Count the units and the buttons in a line*/
 125:lvgl/src/widgets/lv_btnmatrix.c ****     uint32_t row;
 126:lvgl/src/widgets/lv_btnmatrix.c ****     for(row = 0; row < btnm->row_cnt; row++) {
 127:lvgl/src/widgets/lv_btnmatrix.c ****         uint16_t unit_cnt = 0;           /*Number of units in a row*/
 128:lvgl/src/widgets/lv_btnmatrix.c ****         uint16_t btn_cnt = 0;            /*Number of buttons in a row*/
 129:lvgl/src/widgets/lv_btnmatrix.c ****         /*Count the buttons and units in this row*/
 130:lvgl/src/widgets/lv_btnmatrix.c ****         while(map_row[btn_cnt] && strcmp(map_row[btn_cnt], "\n") != 0 && map_row[btn_cnt][0] != '\0
 131:lvgl/src/widgets/lv_btnmatrix.c ****             unit_cnt += get_button_width(btnm->ctrl_bits[btn_tot_i + btn_cnt]);
 132:lvgl/src/widgets/lv_btnmatrix.c ****             btn_cnt++;
 133:lvgl/src/widgets/lv_btnmatrix.c ****         }
 134:lvgl/src/widgets/lv_btnmatrix.c **** 
 135:lvgl/src/widgets/lv_btnmatrix.c ****         /*Only deal with the non empty lines*/
 136:lvgl/src/widgets/lv_btnmatrix.c ****         if(btn_cnt == 0) {
 137:lvgl/src/widgets/lv_btnmatrix.c ****             map_row = &map_row[btn_cnt + 1];       /*Set the map to the next row*/
 138:lvgl/src/widgets/lv_btnmatrix.c ****             continue;
 139:lvgl/src/widgets/lv_btnmatrix.c ****         }
 140:lvgl/src/widgets/lv_btnmatrix.c **** 
 141:lvgl/src/widgets/lv_btnmatrix.c ****         lv_coord_t row_y1 = ptop + (max_h_no_gap * row) / btnm->row_cnt + row * prow;
 142:lvgl/src/widgets/lv_btnmatrix.c ****         lv_coord_t row_y2 = ptop + (max_h_no_gap * (row + 1)) / btnm->row_cnt + row * prow - 1;
 143:lvgl/src/widgets/lv_btnmatrix.c **** 
 144:lvgl/src/widgets/lv_btnmatrix.c ****         /*Set the button size and positions*/
 145:lvgl/src/widgets/lv_btnmatrix.c ****         lv_coord_t max_w_no_gap = max_w - (pcol * (btn_cnt - 1));
ARM GAS  C:\usertemp\ccuzpgLf.s 			page 4


 146:lvgl/src/widgets/lv_btnmatrix.c ****         if(max_w_no_gap < 0) max_w_no_gap = 0;
 147:lvgl/src/widgets/lv_btnmatrix.c **** 
 148:lvgl/src/widgets/lv_btnmatrix.c ****         uint32_t row_unit_cnt = 0;  /*The current unit position in the row*/
 149:lvgl/src/widgets/lv_btnmatrix.c ****         uint32_t btn;
 150:lvgl/src/widgets/lv_btnmatrix.c ****         for(btn = 0; btn < btn_cnt; btn++, btn_tot_i++, txt_tot_i++) {
 151:lvgl/src/widgets/lv_btnmatrix.c ****             uint32_t btn_u = get_button_width(btnm->ctrl_bits[btn_tot_i]);
 152:lvgl/src/widgets/lv_btnmatrix.c **** 
 153:lvgl/src/widgets/lv_btnmatrix.c ****             lv_coord_t btn_x1 = (max_w_no_gap * row_unit_cnt) / unit_cnt + btn * pcol;
 154:lvgl/src/widgets/lv_btnmatrix.c ****             lv_coord_t btn_x2 = (max_w_no_gap * (row_unit_cnt + btn_u)) / unit_cnt + btn * pcol - 1
 155:lvgl/src/widgets/lv_btnmatrix.c **** 
 156:lvgl/src/widgets/lv_btnmatrix.c ****             /*If RTL start from the right*/
 157:lvgl/src/widgets/lv_btnmatrix.c ****             if(base_dir == LV_BASE_DIR_RTL) {
 158:lvgl/src/widgets/lv_btnmatrix.c ****                 lv_coord_t tmp = btn_x1;
 159:lvgl/src/widgets/lv_btnmatrix.c ****                 btn_x1 = btn_x2;
 160:lvgl/src/widgets/lv_btnmatrix.c ****                 btn_x2 = tmp;
 161:lvgl/src/widgets/lv_btnmatrix.c **** 
 162:lvgl/src/widgets/lv_btnmatrix.c ****                 btn_x1 = max_w - btn_x1;
 163:lvgl/src/widgets/lv_btnmatrix.c ****                 btn_x2 = max_w - btn_x2;
 164:lvgl/src/widgets/lv_btnmatrix.c ****             }
 165:lvgl/src/widgets/lv_btnmatrix.c **** 
 166:lvgl/src/widgets/lv_btnmatrix.c ****             btn_x1 += pleft;
 167:lvgl/src/widgets/lv_btnmatrix.c ****             btn_x2 += pleft;
 168:lvgl/src/widgets/lv_btnmatrix.c **** 
 169:lvgl/src/widgets/lv_btnmatrix.c ****             lv_area_set(&btnm->button_areas[btn_tot_i], btn_x1, row_y1, btn_x2, row_y2);
 170:lvgl/src/widgets/lv_btnmatrix.c **** 
 171:lvgl/src/widgets/lv_btnmatrix.c ****             row_unit_cnt += btn_u;
 172:lvgl/src/widgets/lv_btnmatrix.c ****         }
 173:lvgl/src/widgets/lv_btnmatrix.c **** 
 174:lvgl/src/widgets/lv_btnmatrix.c ****         map_row = &map_row[btn_cnt + 1];       /*Set the map to the next line*/
 175:lvgl/src/widgets/lv_btnmatrix.c ****     }
 176:lvgl/src/widgets/lv_btnmatrix.c **** 
 177:lvgl/src/widgets/lv_btnmatrix.c ****     /*Popovers in the top row will draw outside the widget and the extended draw size depends on
 178:lvgl/src/widgets/lv_btnmatrix.c ****      *the row height which may have changed when setting the new map*/
 179:lvgl/src/widgets/lv_btnmatrix.c ****     lv_obj_refresh_ext_draw_size(obj);
 180:lvgl/src/widgets/lv_btnmatrix.c **** 
 181:lvgl/src/widgets/lv_btnmatrix.c ****     lv_obj_invalidate(obj);
 182:lvgl/src/widgets/lv_btnmatrix.c **** }
 183:lvgl/src/widgets/lv_btnmatrix.c **** 
 184:lvgl/src/widgets/lv_btnmatrix.c **** void lv_btnmatrix_set_ctrl_map(lv_obj_t * obj, const lv_btnmatrix_ctrl_t ctrl_map[])
 185:lvgl/src/widgets/lv_btnmatrix.c **** {
 186:lvgl/src/widgets/lv_btnmatrix.c ****     LV_ASSERT_OBJ(obj, MY_CLASS);
 187:lvgl/src/widgets/lv_btnmatrix.c **** 
 188:lvgl/src/widgets/lv_btnmatrix.c ****     lv_btnmatrix_t * btnm = (lv_btnmatrix_t *)obj;
 189:lvgl/src/widgets/lv_btnmatrix.c ****     lv_memcpy(btnm->ctrl_bits, ctrl_map, sizeof(lv_btnmatrix_ctrl_t) * btnm->btn_cnt);
 190:lvgl/src/widgets/lv_btnmatrix.c **** 
 191:lvgl/src/widgets/lv_btnmatrix.c ****     lv_btnmatrix_set_map(obj, btnm->map_p);
 192:lvgl/src/widgets/lv_btnmatrix.c **** }
 193:lvgl/src/widgets/lv_btnmatrix.c **** 
 194:lvgl/src/widgets/lv_btnmatrix.c **** void lv_btnmatrix_set_selected_btn(lv_obj_t * obj, uint16_t btn_id)
 195:lvgl/src/widgets/lv_btnmatrix.c **** {
 196:lvgl/src/widgets/lv_btnmatrix.c ****     LV_ASSERT_OBJ(obj, MY_CLASS);
 197:lvgl/src/widgets/lv_btnmatrix.c **** 
 198:lvgl/src/widgets/lv_btnmatrix.c ****     lv_btnmatrix_t * btnm = (lv_btnmatrix_t *)obj;
 199:lvgl/src/widgets/lv_btnmatrix.c **** 
 200:lvgl/src/widgets/lv_btnmatrix.c ****     if(btn_id >= btnm->btn_cnt && btn_id != LV_BTNMATRIX_BTN_NONE) return;
 201:lvgl/src/widgets/lv_btnmatrix.c **** 
 202:lvgl/src/widgets/lv_btnmatrix.c ****     invalidate_button_area(obj, btnm->btn_id_sel);
ARM GAS  C:\usertemp\ccuzpgLf.s 			page 5


 203:lvgl/src/widgets/lv_btnmatrix.c ****     btnm->btn_id_sel = btn_id;
 204:lvgl/src/widgets/lv_btnmatrix.c ****     invalidate_button_area(obj, btn_id);
 205:lvgl/src/widgets/lv_btnmatrix.c **** }
 206:lvgl/src/widgets/lv_btnmatrix.c **** 
 207:lvgl/src/widgets/lv_btnmatrix.c **** void lv_btnmatrix_set_btn_ctrl(lv_obj_t * obj, uint16_t btn_id, lv_btnmatrix_ctrl_t ctrl)
 208:lvgl/src/widgets/lv_btnmatrix.c **** {
 209:lvgl/src/widgets/lv_btnmatrix.c ****     LV_ASSERT_OBJ(obj, MY_CLASS);
 210:lvgl/src/widgets/lv_btnmatrix.c **** 
 211:lvgl/src/widgets/lv_btnmatrix.c ****     lv_btnmatrix_t * btnm = (lv_btnmatrix_t *)obj;;
 212:lvgl/src/widgets/lv_btnmatrix.c **** 
 213:lvgl/src/widgets/lv_btnmatrix.c ****     if(btn_id >= btnm->btn_cnt) return;
 214:lvgl/src/widgets/lv_btnmatrix.c **** 
 215:lvgl/src/widgets/lv_btnmatrix.c ****     if(btnm->one_check && (ctrl & LV_BTNMATRIX_CTRL_CHECKED)) {
 216:lvgl/src/widgets/lv_btnmatrix.c ****         lv_btnmatrix_clear_btn_ctrl_all(obj, LV_BTNMATRIX_CTRL_CHECKED);
 217:lvgl/src/widgets/lv_btnmatrix.c ****     }
 218:lvgl/src/widgets/lv_btnmatrix.c **** 
 219:lvgl/src/widgets/lv_btnmatrix.c ****     btnm->ctrl_bits[btn_id] |= ctrl;
 220:lvgl/src/widgets/lv_btnmatrix.c ****     invalidate_button_area(obj, btn_id);
 221:lvgl/src/widgets/lv_btnmatrix.c **** 
 222:lvgl/src/widgets/lv_btnmatrix.c ****     if(ctrl & LV_BTNMATRIX_CTRL_POPOVER) {
 223:lvgl/src/widgets/lv_btnmatrix.c ****         lv_obj_refresh_ext_draw_size(obj);
 224:lvgl/src/widgets/lv_btnmatrix.c ****     }
 225:lvgl/src/widgets/lv_btnmatrix.c **** }
 226:lvgl/src/widgets/lv_btnmatrix.c **** 
 227:lvgl/src/widgets/lv_btnmatrix.c **** void lv_btnmatrix_clear_btn_ctrl(lv_obj_t * obj, uint16_t btn_id, lv_btnmatrix_ctrl_t ctrl)
 228:lvgl/src/widgets/lv_btnmatrix.c **** {
 229:lvgl/src/widgets/lv_btnmatrix.c ****     LV_ASSERT_OBJ(obj, MY_CLASS);
 230:lvgl/src/widgets/lv_btnmatrix.c **** 
 231:lvgl/src/widgets/lv_btnmatrix.c ****     lv_btnmatrix_t * btnm = (lv_btnmatrix_t *)obj;;
 232:lvgl/src/widgets/lv_btnmatrix.c **** 
 233:lvgl/src/widgets/lv_btnmatrix.c ****     if(btn_id >= btnm->btn_cnt) return;
 234:lvgl/src/widgets/lv_btnmatrix.c **** 
 235:lvgl/src/widgets/lv_btnmatrix.c ****     btnm->ctrl_bits[btn_id] &= (~ctrl);
 236:lvgl/src/widgets/lv_btnmatrix.c ****     invalidate_button_area(obj, btn_id);
 237:lvgl/src/widgets/lv_btnmatrix.c **** 
 238:lvgl/src/widgets/lv_btnmatrix.c ****     if(ctrl & LV_BTNMATRIX_CTRL_POPOVER) {
 239:lvgl/src/widgets/lv_btnmatrix.c ****         lv_obj_refresh_ext_draw_size(obj);
 240:lvgl/src/widgets/lv_btnmatrix.c ****     }
 241:lvgl/src/widgets/lv_btnmatrix.c **** }
 242:lvgl/src/widgets/lv_btnmatrix.c **** 
 243:lvgl/src/widgets/lv_btnmatrix.c **** void lv_btnmatrix_set_btn_ctrl_all(lv_obj_t * obj, lv_btnmatrix_ctrl_t ctrl)
 244:lvgl/src/widgets/lv_btnmatrix.c **** {
 245:lvgl/src/widgets/lv_btnmatrix.c ****     LV_ASSERT_OBJ(obj, MY_CLASS);
 246:lvgl/src/widgets/lv_btnmatrix.c **** 
 247:lvgl/src/widgets/lv_btnmatrix.c ****     lv_btnmatrix_t * btnm = (lv_btnmatrix_t *)obj;;
 248:lvgl/src/widgets/lv_btnmatrix.c ****     uint16_t i;
 249:lvgl/src/widgets/lv_btnmatrix.c ****     for(i = 0; i < btnm->btn_cnt; i++) {
 250:lvgl/src/widgets/lv_btnmatrix.c ****         lv_btnmatrix_set_btn_ctrl(obj, i, ctrl);
 251:lvgl/src/widgets/lv_btnmatrix.c ****     }
 252:lvgl/src/widgets/lv_btnmatrix.c **** }
 253:lvgl/src/widgets/lv_btnmatrix.c **** 
 254:lvgl/src/widgets/lv_btnmatrix.c **** void lv_btnmatrix_clear_btn_ctrl_all(lv_obj_t * obj, lv_btnmatrix_ctrl_t ctrl)
 255:lvgl/src/widgets/lv_btnmatrix.c **** {
 256:lvgl/src/widgets/lv_btnmatrix.c ****     LV_ASSERT_OBJ(obj, MY_CLASS);
 257:lvgl/src/widgets/lv_btnmatrix.c **** 
 258:lvgl/src/widgets/lv_btnmatrix.c ****     lv_btnmatrix_t * btnm = (lv_btnmatrix_t *)obj;;
 259:lvgl/src/widgets/lv_btnmatrix.c ****     uint16_t i;
ARM GAS  C:\usertemp\ccuzpgLf.s 			page 6


 260:lvgl/src/widgets/lv_btnmatrix.c ****     for(i = 0; i < btnm->btn_cnt; i++) {
 261:lvgl/src/widgets/lv_btnmatrix.c ****         lv_btnmatrix_clear_btn_ctrl(obj, i, ctrl);
 262:lvgl/src/widgets/lv_btnmatrix.c ****     }
 263:lvgl/src/widgets/lv_btnmatrix.c **** }
 264:lvgl/src/widgets/lv_btnmatrix.c **** 
 265:lvgl/src/widgets/lv_btnmatrix.c **** void lv_btnmatrix_set_btn_width(lv_obj_t * obj, uint16_t btn_id, uint8_t width)
 266:lvgl/src/widgets/lv_btnmatrix.c **** {
 267:lvgl/src/widgets/lv_btnmatrix.c ****     LV_ASSERT_OBJ(obj, MY_CLASS);
 268:lvgl/src/widgets/lv_btnmatrix.c **** 
 269:lvgl/src/widgets/lv_btnmatrix.c ****     lv_btnmatrix_t * btnm = (lv_btnmatrix_t *)obj;;
 270:lvgl/src/widgets/lv_btnmatrix.c ****     if(btn_id >= btnm->btn_cnt) return;
 271:lvgl/src/widgets/lv_btnmatrix.c ****     btnm->ctrl_bits[btn_id] &= (~LV_BTNMATRIX_WIDTH_MASK);
 272:lvgl/src/widgets/lv_btnmatrix.c ****     btnm->ctrl_bits[btn_id] |= (LV_BTNMATRIX_WIDTH_MASK & width);
 273:lvgl/src/widgets/lv_btnmatrix.c **** 
 274:lvgl/src/widgets/lv_btnmatrix.c ****     lv_btnmatrix_set_map(obj, btnm->map_p);
 275:lvgl/src/widgets/lv_btnmatrix.c **** }
 276:lvgl/src/widgets/lv_btnmatrix.c **** 
 277:lvgl/src/widgets/lv_btnmatrix.c **** void lv_btnmatrix_set_one_checked(lv_obj_t * obj, bool en)
 278:lvgl/src/widgets/lv_btnmatrix.c **** {
 279:lvgl/src/widgets/lv_btnmatrix.c ****     LV_ASSERT_OBJ(obj, MY_CLASS);
 280:lvgl/src/widgets/lv_btnmatrix.c **** 
 281:lvgl/src/widgets/lv_btnmatrix.c ****     lv_btnmatrix_t * btnm = (lv_btnmatrix_t *)obj;;
 282:lvgl/src/widgets/lv_btnmatrix.c ****     btnm->one_check     = en;
 283:lvgl/src/widgets/lv_btnmatrix.c **** 
 284:lvgl/src/widgets/lv_btnmatrix.c ****     /*If more than one button is toggled only the first one should be*/
 285:lvgl/src/widgets/lv_btnmatrix.c ****     make_one_button_checked(obj, 0);
 286:lvgl/src/widgets/lv_btnmatrix.c **** }
 287:lvgl/src/widgets/lv_btnmatrix.c **** 
 288:lvgl/src/widgets/lv_btnmatrix.c **** /*=====================
 289:lvgl/src/widgets/lv_btnmatrix.c ****  * Getter functions
 290:lvgl/src/widgets/lv_btnmatrix.c ****  *====================*/
 291:lvgl/src/widgets/lv_btnmatrix.c **** 
 292:lvgl/src/widgets/lv_btnmatrix.c **** const char ** lv_btnmatrix_get_map(const lv_obj_t * obj)
 293:lvgl/src/widgets/lv_btnmatrix.c **** {
 294:lvgl/src/widgets/lv_btnmatrix.c ****     LV_ASSERT_OBJ(obj, MY_CLASS);
 295:lvgl/src/widgets/lv_btnmatrix.c **** 
 296:lvgl/src/widgets/lv_btnmatrix.c ****     lv_btnmatrix_t * btnm = (lv_btnmatrix_t *)obj;;
 297:lvgl/src/widgets/lv_btnmatrix.c ****     return btnm->map_p;
 298:lvgl/src/widgets/lv_btnmatrix.c **** }
 299:lvgl/src/widgets/lv_btnmatrix.c **** 
 300:lvgl/src/widgets/lv_btnmatrix.c **** uint16_t lv_btnmatrix_get_selected_btn(const lv_obj_t * obj)
 301:lvgl/src/widgets/lv_btnmatrix.c **** {
 302:lvgl/src/widgets/lv_btnmatrix.c ****     LV_ASSERT_OBJ(obj, MY_CLASS);
 303:lvgl/src/widgets/lv_btnmatrix.c **** 
 304:lvgl/src/widgets/lv_btnmatrix.c ****     lv_btnmatrix_t * btnm = (lv_btnmatrix_t *)obj;;
 305:lvgl/src/widgets/lv_btnmatrix.c ****     return btnm->btn_id_sel;
 306:lvgl/src/widgets/lv_btnmatrix.c **** }
 307:lvgl/src/widgets/lv_btnmatrix.c **** 
 308:lvgl/src/widgets/lv_btnmatrix.c **** const char * lv_btnmatrix_get_btn_text(const lv_obj_t * obj, uint16_t btn_id)
 309:lvgl/src/widgets/lv_btnmatrix.c **** {
 310:lvgl/src/widgets/lv_btnmatrix.c ****     LV_ASSERT_OBJ(obj, MY_CLASS);
 311:lvgl/src/widgets/lv_btnmatrix.c **** 
 312:lvgl/src/widgets/lv_btnmatrix.c ****     if(btn_id == LV_BTNMATRIX_BTN_NONE) return NULL;
 313:lvgl/src/widgets/lv_btnmatrix.c **** 
 314:lvgl/src/widgets/lv_btnmatrix.c ****     lv_btnmatrix_t * btnm = (lv_btnmatrix_t *)obj;
 315:lvgl/src/widgets/lv_btnmatrix.c ****     if(btn_id > btnm->btn_cnt) return NULL;
 316:lvgl/src/widgets/lv_btnmatrix.c **** 
ARM GAS  C:\usertemp\ccuzpgLf.s 			page 7


 317:lvgl/src/widgets/lv_btnmatrix.c ****     uint16_t txt_i = 0;
 318:lvgl/src/widgets/lv_btnmatrix.c ****     uint16_t btn_i = 0;
 319:lvgl/src/widgets/lv_btnmatrix.c **** 
 320:lvgl/src/widgets/lv_btnmatrix.c ****     /*Search the text of btnm->btn_pr the buttons text in the map
 321:lvgl/src/widgets/lv_btnmatrix.c ****      *Skip "\n"-s*/
 322:lvgl/src/widgets/lv_btnmatrix.c ****     while(btn_i != btn_id) {
 323:lvgl/src/widgets/lv_btnmatrix.c ****         btn_i++;
 324:lvgl/src/widgets/lv_btnmatrix.c ****         txt_i++;
 325:lvgl/src/widgets/lv_btnmatrix.c ****         if(strcmp(btnm->map_p[txt_i], "\n") == 0) txt_i++;
 326:lvgl/src/widgets/lv_btnmatrix.c ****     }
 327:lvgl/src/widgets/lv_btnmatrix.c **** 
 328:lvgl/src/widgets/lv_btnmatrix.c ****     if(btn_i == btnm->btn_cnt) return NULL;
 329:lvgl/src/widgets/lv_btnmatrix.c **** 
 330:lvgl/src/widgets/lv_btnmatrix.c ****     return btnm->map_p[txt_i];
 331:lvgl/src/widgets/lv_btnmatrix.c **** }
 332:lvgl/src/widgets/lv_btnmatrix.c **** 
 333:lvgl/src/widgets/lv_btnmatrix.c **** bool lv_btnmatrix_has_btn_ctrl(lv_obj_t * obj, uint16_t btn_id, lv_btnmatrix_ctrl_t ctrl)
 334:lvgl/src/widgets/lv_btnmatrix.c **** {
 335:lvgl/src/widgets/lv_btnmatrix.c ****     LV_ASSERT_OBJ(obj, MY_CLASS);
 336:lvgl/src/widgets/lv_btnmatrix.c **** 
 337:lvgl/src/widgets/lv_btnmatrix.c ****     lv_btnmatrix_t * btnm = (lv_btnmatrix_t *)obj;;
 338:lvgl/src/widgets/lv_btnmatrix.c ****     if(btn_id >= btnm->btn_cnt) return false;
 339:lvgl/src/widgets/lv_btnmatrix.c **** 
 340:lvgl/src/widgets/lv_btnmatrix.c ****     return ((btnm->ctrl_bits[btn_id] & ctrl) == ctrl) ? true : false;
 341:lvgl/src/widgets/lv_btnmatrix.c **** }
 342:lvgl/src/widgets/lv_btnmatrix.c **** 
 343:lvgl/src/widgets/lv_btnmatrix.c **** bool lv_btnmatrix_get_one_checked(const lv_obj_t * obj)
 344:lvgl/src/widgets/lv_btnmatrix.c **** {
 345:lvgl/src/widgets/lv_btnmatrix.c ****     LV_ASSERT_OBJ(obj, MY_CLASS);
 346:lvgl/src/widgets/lv_btnmatrix.c **** 
 347:lvgl/src/widgets/lv_btnmatrix.c ****     lv_btnmatrix_t * btnm = (lv_btnmatrix_t *)obj;;
 348:lvgl/src/widgets/lv_btnmatrix.c **** 
 349:lvgl/src/widgets/lv_btnmatrix.c ****     return btnm->one_check;
 350:lvgl/src/widgets/lv_btnmatrix.c **** }
 351:lvgl/src/widgets/lv_btnmatrix.c **** 
 352:lvgl/src/widgets/lv_btnmatrix.c **** /**********************
 353:lvgl/src/widgets/lv_btnmatrix.c ****  *   STATIC FUNCTIONS
 354:lvgl/src/widgets/lv_btnmatrix.c ****  **********************/
 355:lvgl/src/widgets/lv_btnmatrix.c **** 
 356:lvgl/src/widgets/lv_btnmatrix.c **** static void lv_btnmatrix_constructor(const lv_obj_class_t * class_p, lv_obj_t * obj)
 357:lvgl/src/widgets/lv_btnmatrix.c **** {
 358:lvgl/src/widgets/lv_btnmatrix.c ****     LV_UNUSED(class_p);
 359:lvgl/src/widgets/lv_btnmatrix.c ****     LV_TRACE_OBJ_CREATE("begin");
 360:lvgl/src/widgets/lv_btnmatrix.c ****     lv_btnmatrix_t * btnm = (lv_btnmatrix_t *)obj;
 361:lvgl/src/widgets/lv_btnmatrix.c ****     btnm->btn_cnt        = 0;
 362:lvgl/src/widgets/lv_btnmatrix.c ****     btnm->row_cnt        = 0;
 363:lvgl/src/widgets/lv_btnmatrix.c ****     btnm->btn_id_sel     = LV_BTNMATRIX_BTN_NONE;
 364:lvgl/src/widgets/lv_btnmatrix.c ****     btnm->button_areas   = NULL;
 365:lvgl/src/widgets/lv_btnmatrix.c ****     btnm->ctrl_bits      = NULL;
 366:lvgl/src/widgets/lv_btnmatrix.c ****     btnm->map_p          = NULL;
 367:lvgl/src/widgets/lv_btnmatrix.c ****     btnm->one_check      = 0;
 368:lvgl/src/widgets/lv_btnmatrix.c **** 
 369:lvgl/src/widgets/lv_btnmatrix.c ****     lv_btnmatrix_set_map(obj, lv_btnmatrix_def_map);
 370:lvgl/src/widgets/lv_btnmatrix.c **** 
 371:lvgl/src/widgets/lv_btnmatrix.c ****     LV_TRACE_OBJ_CREATE("finished");
 372:lvgl/src/widgets/lv_btnmatrix.c **** }
 373:lvgl/src/widgets/lv_btnmatrix.c **** 
ARM GAS  C:\usertemp\ccuzpgLf.s 			page 8


 374:lvgl/src/widgets/lv_btnmatrix.c **** static void lv_btnmatrix_destructor(const lv_obj_class_t * class_p, lv_obj_t * obj)
 375:lvgl/src/widgets/lv_btnmatrix.c **** {
 376:lvgl/src/widgets/lv_btnmatrix.c ****     LV_TRACE_OBJ_CREATE("begin");
 377:lvgl/src/widgets/lv_btnmatrix.c ****     LV_UNUSED(class_p);
 378:lvgl/src/widgets/lv_btnmatrix.c ****     lv_btnmatrix_t * btnm = (lv_btnmatrix_t *)obj;
 379:lvgl/src/widgets/lv_btnmatrix.c ****     lv_mem_free(btnm->button_areas);
 380:lvgl/src/widgets/lv_btnmatrix.c ****     lv_mem_free(btnm->ctrl_bits);
 381:lvgl/src/widgets/lv_btnmatrix.c ****     btnm->button_areas = NULL;
 382:lvgl/src/widgets/lv_btnmatrix.c ****     btnm->ctrl_bits = NULL;
 383:lvgl/src/widgets/lv_btnmatrix.c ****     LV_TRACE_OBJ_CREATE("finished");
 384:lvgl/src/widgets/lv_btnmatrix.c **** }
 385:lvgl/src/widgets/lv_btnmatrix.c **** 
 386:lvgl/src/widgets/lv_btnmatrix.c **** static void lv_btnmatrix_event(const lv_obj_class_t * class_p, lv_event_t * e)
 387:lvgl/src/widgets/lv_btnmatrix.c **** {
 388:lvgl/src/widgets/lv_btnmatrix.c ****     LV_UNUSED(class_p);
 389:lvgl/src/widgets/lv_btnmatrix.c **** 
 390:lvgl/src/widgets/lv_btnmatrix.c ****     lv_res_t res;
 391:lvgl/src/widgets/lv_btnmatrix.c **** 
 392:lvgl/src/widgets/lv_btnmatrix.c ****     /*Call the ancestor's event handler*/
 393:lvgl/src/widgets/lv_btnmatrix.c ****     res = lv_obj_event_base(MY_CLASS, e);
 394:lvgl/src/widgets/lv_btnmatrix.c ****     if(res != LV_RES_OK) return;
 395:lvgl/src/widgets/lv_btnmatrix.c **** 
 396:lvgl/src/widgets/lv_btnmatrix.c ****     lv_event_code_t code = lv_event_get_code(e);
 397:lvgl/src/widgets/lv_btnmatrix.c ****     lv_obj_t * obj = lv_event_get_target(e);
 398:lvgl/src/widgets/lv_btnmatrix.c ****     lv_btnmatrix_t * btnm = (lv_btnmatrix_t *)obj;
 399:lvgl/src/widgets/lv_btnmatrix.c ****     lv_point_t p;
 400:lvgl/src/widgets/lv_btnmatrix.c **** 
 401:lvgl/src/widgets/lv_btnmatrix.c ****     if(code == LV_EVENT_REFR_EXT_DRAW_SIZE) {
 402:lvgl/src/widgets/lv_btnmatrix.c ****         lv_coord_t * s = lv_event_get_param(e);
 403:lvgl/src/widgets/lv_btnmatrix.c ****         if(has_popovers_in_top_row(obj)) {
 404:lvgl/src/widgets/lv_btnmatrix.c ****             /*reserve one row worth of extra space to account for popovers in the top row*/
 405:lvgl/src/widgets/lv_btnmatrix.c ****             *s = btnm->row_cnt > 0 ? lv_obj_get_content_height(obj) / btnm->row_cnt : 0;
 406:lvgl/src/widgets/lv_btnmatrix.c ****         }
 407:lvgl/src/widgets/lv_btnmatrix.c ****         else {
 408:lvgl/src/widgets/lv_btnmatrix.c ****             *s = 0;
 409:lvgl/src/widgets/lv_btnmatrix.c ****         }
 410:lvgl/src/widgets/lv_btnmatrix.c ****     }
 411:lvgl/src/widgets/lv_btnmatrix.c ****     if(code == LV_EVENT_STYLE_CHANGED) {
 412:lvgl/src/widgets/lv_btnmatrix.c ****         lv_btnmatrix_set_map(obj, btnm->map_p);
 413:lvgl/src/widgets/lv_btnmatrix.c ****     }
 414:lvgl/src/widgets/lv_btnmatrix.c ****     else if(code == LV_EVENT_SIZE_CHANGED) {
 415:lvgl/src/widgets/lv_btnmatrix.c ****         lv_btnmatrix_set_map(obj, btnm->map_p);
 416:lvgl/src/widgets/lv_btnmatrix.c ****     }
 417:lvgl/src/widgets/lv_btnmatrix.c ****     else if(code == LV_EVENT_PRESSED) {
 418:lvgl/src/widgets/lv_btnmatrix.c ****         void * param = lv_event_get_param(e);
 419:lvgl/src/widgets/lv_btnmatrix.c ****         invalidate_button_area(obj, btnm->btn_id_sel);
 420:lvgl/src/widgets/lv_btnmatrix.c **** 
 421:lvgl/src/widgets/lv_btnmatrix.c ****         lv_indev_type_t indev_type = lv_indev_get_type(lv_indev_get_act());
 422:lvgl/src/widgets/lv_btnmatrix.c ****         if(indev_type == LV_INDEV_TYPE_POINTER || indev_type == LV_INDEV_TYPE_BUTTON) {
 423:lvgl/src/widgets/lv_btnmatrix.c ****             uint16_t btn_pr;
 424:lvgl/src/widgets/lv_btnmatrix.c ****             /*Search the pressed area*/
 425:lvgl/src/widgets/lv_btnmatrix.c ****             lv_indev_get_point(param, &p);
 426:lvgl/src/widgets/lv_btnmatrix.c ****             btn_pr = get_button_from_point(obj, &p);
 427:lvgl/src/widgets/lv_btnmatrix.c ****             /*Handle the case where there is no button there*/
 428:lvgl/src/widgets/lv_btnmatrix.c ****             if(btn_pr != LV_BTNMATRIX_BTN_NONE) {
 429:lvgl/src/widgets/lv_btnmatrix.c ****                 if(button_is_inactive(btnm->ctrl_bits[btn_pr]) == false &&
 430:lvgl/src/widgets/lv_btnmatrix.c ****                    button_is_hidden(btnm->ctrl_bits[btn_pr]) == false) {
ARM GAS  C:\usertemp\ccuzpgLf.s 			page 9


 431:lvgl/src/widgets/lv_btnmatrix.c ****                     btnm->btn_id_sel = btn_pr;
 432:lvgl/src/widgets/lv_btnmatrix.c ****                     invalidate_button_area(obj, btnm->btn_id_sel); /*Invalidate the new area*/
 433:lvgl/src/widgets/lv_btnmatrix.c ****                 }
 434:lvgl/src/widgets/lv_btnmatrix.c ****             }
 435:lvgl/src/widgets/lv_btnmatrix.c ****         }
 436:lvgl/src/widgets/lv_btnmatrix.c **** 
 437:lvgl/src/widgets/lv_btnmatrix.c ****         if(btnm->btn_id_sel != LV_BTNMATRIX_BTN_NONE) {
 438:lvgl/src/widgets/lv_btnmatrix.c ****             if(button_is_click_trig(btnm->ctrl_bits[btnm->btn_id_sel]) == false &&
 439:lvgl/src/widgets/lv_btnmatrix.c ****                button_is_popover(btnm->ctrl_bits[btnm->btn_id_sel]) == false &&
 440:lvgl/src/widgets/lv_btnmatrix.c ****                button_is_inactive(btnm->ctrl_bits[btnm->btn_id_sel]) == false &&
 441:lvgl/src/widgets/lv_btnmatrix.c ****                button_is_hidden(btnm->ctrl_bits[btnm->btn_id_sel]) == false) {
 442:lvgl/src/widgets/lv_btnmatrix.c ****                 uint32_t b = btnm->btn_id_sel;
 443:lvgl/src/widgets/lv_btnmatrix.c ****                 res        = lv_event_send(obj, LV_EVENT_VALUE_CHANGED, &b);
 444:lvgl/src/widgets/lv_btnmatrix.c ****                 if(res != LV_RES_OK) return;
 445:lvgl/src/widgets/lv_btnmatrix.c ****             }
 446:lvgl/src/widgets/lv_btnmatrix.c ****         }
 447:lvgl/src/widgets/lv_btnmatrix.c ****     }
 448:lvgl/src/widgets/lv_btnmatrix.c ****     else if(code == LV_EVENT_PRESSING) {
 449:lvgl/src/widgets/lv_btnmatrix.c ****         void * param = lv_event_get_param(e);
 450:lvgl/src/widgets/lv_btnmatrix.c ****         uint16_t btn_pr = LV_BTNMATRIX_BTN_NONE;
 451:lvgl/src/widgets/lv_btnmatrix.c ****         /*Search the pressed area*/
 452:lvgl/src/widgets/lv_btnmatrix.c ****         lv_indev_t * indev = lv_indev_get_act();
 453:lvgl/src/widgets/lv_btnmatrix.c ****         lv_indev_type_t indev_type = lv_indev_get_type(indev);
 454:lvgl/src/widgets/lv_btnmatrix.c ****         if(indev_type == LV_INDEV_TYPE_ENCODER || indev_type == LV_INDEV_TYPE_KEYPAD) return;
 455:lvgl/src/widgets/lv_btnmatrix.c **** 
 456:lvgl/src/widgets/lv_btnmatrix.c ****         lv_indev_get_point(indev, &p);
 457:lvgl/src/widgets/lv_btnmatrix.c ****         btn_pr = get_button_from_point(obj, &p);
 458:lvgl/src/widgets/lv_btnmatrix.c ****         /*Invalidate to old and the new areas*/
 459:lvgl/src/widgets/lv_btnmatrix.c ****         if(btn_pr != btnm->btn_id_sel) {
 460:lvgl/src/widgets/lv_btnmatrix.c ****             if(btnm->btn_id_sel != LV_BTNMATRIX_BTN_NONE) {
 461:lvgl/src/widgets/lv_btnmatrix.c ****                 invalidate_button_area(obj, btnm->btn_id_sel);
 462:lvgl/src/widgets/lv_btnmatrix.c ****             }
 463:lvgl/src/widgets/lv_btnmatrix.c **** 
 464:lvgl/src/widgets/lv_btnmatrix.c ****             btnm->btn_id_sel = btn_pr;
 465:lvgl/src/widgets/lv_btnmatrix.c **** 
 466:lvgl/src/widgets/lv_btnmatrix.c ****             lv_indev_reset_long_press(param); /*Start the log press time again on the new button*/
 467:lvgl/src/widgets/lv_btnmatrix.c ****             if(btn_pr != LV_BTNMATRIX_BTN_NONE &&
 468:lvgl/src/widgets/lv_btnmatrix.c ****                button_is_inactive(btnm->ctrl_bits[btn_pr]) == false &&
 469:lvgl/src/widgets/lv_btnmatrix.c ****                button_is_hidden(btnm->ctrl_bits[btn_pr]) == false) {
 470:lvgl/src/widgets/lv_btnmatrix.c ****                 invalidate_button_area(obj, btn_pr);
 471:lvgl/src/widgets/lv_btnmatrix.c ****                 /*Send VALUE_CHANGED for the newly pressed button*/
 472:lvgl/src/widgets/lv_btnmatrix.c ****                 if(button_is_click_trig(btnm->ctrl_bits[btn_pr]) == false &&
 473:lvgl/src/widgets/lv_btnmatrix.c ****                    button_is_popover(btnm->ctrl_bits[btnm->btn_id_sel]) == false) {
 474:lvgl/src/widgets/lv_btnmatrix.c ****                     uint32_t b = btn_pr;
 475:lvgl/src/widgets/lv_btnmatrix.c ****                     res = lv_event_send(obj, LV_EVENT_VALUE_CHANGED, &b);
 476:lvgl/src/widgets/lv_btnmatrix.c ****                     if(res != LV_RES_OK) return;
 477:lvgl/src/widgets/lv_btnmatrix.c ****                 }
 478:lvgl/src/widgets/lv_btnmatrix.c ****             }
 479:lvgl/src/widgets/lv_btnmatrix.c ****         }
 480:lvgl/src/widgets/lv_btnmatrix.c ****     }
 481:lvgl/src/widgets/lv_btnmatrix.c ****     else if(code == LV_EVENT_RELEASED) {
 482:lvgl/src/widgets/lv_btnmatrix.c ****         if(btnm->btn_id_sel != LV_BTNMATRIX_BTN_NONE) {
 483:lvgl/src/widgets/lv_btnmatrix.c ****             /*Toggle the button if enabled*/
 484:lvgl/src/widgets/lv_btnmatrix.c ****             if(button_is_checkable(btnm->ctrl_bits[btnm->btn_id_sel]) &&
 485:lvgl/src/widgets/lv_btnmatrix.c ****                !button_is_inactive(btnm->ctrl_bits[btnm->btn_id_sel])) {
 486:lvgl/src/widgets/lv_btnmatrix.c ****                 if(button_get_checked(btnm->ctrl_bits[btnm->btn_id_sel]) && !btnm->one_check) {
 487:lvgl/src/widgets/lv_btnmatrix.c ****                     btnm->ctrl_bits[btnm->btn_id_sel] &= (~LV_BTNMATRIX_CTRL_CHECKED);
ARM GAS  C:\usertemp\ccuzpgLf.s 			page 10


 488:lvgl/src/widgets/lv_btnmatrix.c ****                 }
 489:lvgl/src/widgets/lv_btnmatrix.c ****                 else {
 490:lvgl/src/widgets/lv_btnmatrix.c ****                     btnm->ctrl_bits[btnm->btn_id_sel] |= LV_BTNMATRIX_CTRL_CHECKED;
 491:lvgl/src/widgets/lv_btnmatrix.c ****                 }
 492:lvgl/src/widgets/lv_btnmatrix.c ****                 if(btnm->one_check) make_one_button_checked(obj, btnm->btn_id_sel);
 493:lvgl/src/widgets/lv_btnmatrix.c ****             }
 494:lvgl/src/widgets/lv_btnmatrix.c **** 
 495:lvgl/src/widgets/lv_btnmatrix.c **** 
 496:lvgl/src/widgets/lv_btnmatrix.c ****             if((button_is_click_trig(btnm->ctrl_bits[btnm->btn_id_sel]) == true ||
 497:lvgl/src/widgets/lv_btnmatrix.c ****                 button_is_popover(btnm->ctrl_bits[btnm->btn_id_sel]) == true) &&
 498:lvgl/src/widgets/lv_btnmatrix.c ****                button_is_inactive(btnm->ctrl_bits[btnm->btn_id_sel]) == false &&
 499:lvgl/src/widgets/lv_btnmatrix.c ****                button_is_hidden(btnm->ctrl_bits[btnm->btn_id_sel]) == false) {
 500:lvgl/src/widgets/lv_btnmatrix.c ****                 uint32_t b = btnm->btn_id_sel;
 501:lvgl/src/widgets/lv_btnmatrix.c ****                 res        = lv_event_send(obj, LV_EVENT_VALUE_CHANGED, &b);
 502:lvgl/src/widgets/lv_btnmatrix.c ****                 if(res != LV_RES_OK) return;
 503:lvgl/src/widgets/lv_btnmatrix.c ****             }
 504:lvgl/src/widgets/lv_btnmatrix.c ****         }
 505:lvgl/src/widgets/lv_btnmatrix.c **** 
 506:lvgl/src/widgets/lv_btnmatrix.c ****         /*Invalidate to old pressed area*/;
 507:lvgl/src/widgets/lv_btnmatrix.c ****         invalidate_button_area(obj, btnm->btn_id_sel);
 508:lvgl/src/widgets/lv_btnmatrix.c **** 
 509:lvgl/src/widgets/lv_btnmatrix.c ****     }
 510:lvgl/src/widgets/lv_btnmatrix.c ****     else if(code == LV_EVENT_LONG_PRESSED_REPEAT) {
 511:lvgl/src/widgets/lv_btnmatrix.c ****         if(btnm->btn_id_sel != LV_BTNMATRIX_BTN_NONE) {
 512:lvgl/src/widgets/lv_btnmatrix.c ****             if(button_is_repeat_disabled(btnm->ctrl_bits[btnm->btn_id_sel]) == false &&
 513:lvgl/src/widgets/lv_btnmatrix.c ****                button_is_inactive(btnm->ctrl_bits[btnm->btn_id_sel]) == false &&
 514:lvgl/src/widgets/lv_btnmatrix.c ****                button_is_hidden(btnm->ctrl_bits[btnm->btn_id_sel]) == false) {
 515:lvgl/src/widgets/lv_btnmatrix.c ****                 uint32_t b = btnm->btn_id_sel;
 516:lvgl/src/widgets/lv_btnmatrix.c ****                 res        = lv_event_send(obj, LV_EVENT_VALUE_CHANGED, &b);
 517:lvgl/src/widgets/lv_btnmatrix.c ****                 if(res != LV_RES_OK) return;
 518:lvgl/src/widgets/lv_btnmatrix.c ****             }
 519:lvgl/src/widgets/lv_btnmatrix.c ****         }
 520:lvgl/src/widgets/lv_btnmatrix.c ****     }
 521:lvgl/src/widgets/lv_btnmatrix.c ****     else if(code == LV_EVENT_PRESS_LOST) {
 522:lvgl/src/widgets/lv_btnmatrix.c ****         invalidate_button_area(obj, btnm->btn_id_sel);
 523:lvgl/src/widgets/lv_btnmatrix.c ****         btnm->btn_id_sel = LV_BTNMATRIX_BTN_NONE;
 524:lvgl/src/widgets/lv_btnmatrix.c ****     }
 525:lvgl/src/widgets/lv_btnmatrix.c ****     else if(code == LV_EVENT_FOCUSED) {
 526:lvgl/src/widgets/lv_btnmatrix.c ****         lv_indev_t * indev = lv_event_get_param(e);
 527:lvgl/src/widgets/lv_btnmatrix.c ****         lv_indev_type_t indev_type = lv_indev_get_type(indev);
 528:lvgl/src/widgets/lv_btnmatrix.c **** 
 529:lvgl/src/widgets/lv_btnmatrix.c ****         /*If not focused by an input device assume the last input device*/
 530:lvgl/src/widgets/lv_btnmatrix.c ****         if(indev == NULL) {
 531:lvgl/src/widgets/lv_btnmatrix.c ****             indev = lv_indev_get_next(NULL);
 532:lvgl/src/widgets/lv_btnmatrix.c ****             indev_type = lv_indev_get_type(indev);
 533:lvgl/src/widgets/lv_btnmatrix.c ****         }
 534:lvgl/src/widgets/lv_btnmatrix.c **** 
 535:lvgl/src/widgets/lv_btnmatrix.c ****         bool editing = lv_group_get_editing(lv_obj_get_group(obj));
 536:lvgl/src/widgets/lv_btnmatrix.c ****         /*Focus the first button if there is not selected button*/
 537:lvgl/src/widgets/lv_btnmatrix.c ****         if(btnm->btn_id_sel == LV_BTNMATRIX_BTN_NONE) {
 538:lvgl/src/widgets/lv_btnmatrix.c ****             if(indev_type == LV_INDEV_TYPE_KEYPAD || (indev_type == LV_INDEV_TYPE_ENCODER && editin
 539:lvgl/src/widgets/lv_btnmatrix.c ****                 uint32_t b = 0;
 540:lvgl/src/widgets/lv_btnmatrix.c ****                 if(btnm->one_check) {
 541:lvgl/src/widgets/lv_btnmatrix.c ****                     while(button_is_hidden(btnm->ctrl_bits[b]) || button_is_inactive(btnm->ctrl_bit
 542:lvgl/src/widgets/lv_btnmatrix.c ****                           button_is_checked(btnm->ctrl_bits[b]) == false) b++;
 543:lvgl/src/widgets/lv_btnmatrix.c ****                 }
 544:lvgl/src/widgets/lv_btnmatrix.c ****                 else {
ARM GAS  C:\usertemp\ccuzpgLf.s 			page 11


 545:lvgl/src/widgets/lv_btnmatrix.c ****                     while(button_is_hidden(btnm->ctrl_bits[b]) || button_is_inactive(btnm->ctrl_bit
 546:lvgl/src/widgets/lv_btnmatrix.c ****                 }
 547:lvgl/src/widgets/lv_btnmatrix.c **** 
 548:lvgl/src/widgets/lv_btnmatrix.c ****                 btnm->btn_id_sel = b;
 549:lvgl/src/widgets/lv_btnmatrix.c ****             }
 550:lvgl/src/widgets/lv_btnmatrix.c ****             else {
 551:lvgl/src/widgets/lv_btnmatrix.c ****                 btnm->btn_id_sel = LV_BTNMATRIX_BTN_NONE;
 552:lvgl/src/widgets/lv_btnmatrix.c ****             }
 553:lvgl/src/widgets/lv_btnmatrix.c ****         }
 554:lvgl/src/widgets/lv_btnmatrix.c ****     }
 555:lvgl/src/widgets/lv_btnmatrix.c ****     else if(code == LV_EVENT_DEFOCUSED || code == LV_EVENT_LEAVE) {
 556:lvgl/src/widgets/lv_btnmatrix.c ****         if(btnm->btn_id_sel != LV_BTNMATRIX_BTN_NONE) invalidate_button_area(obj, btnm->btn_id_sel)
 557:lvgl/src/widgets/lv_btnmatrix.c ****         btnm->btn_id_sel = LV_BTNMATRIX_BTN_NONE;
 558:lvgl/src/widgets/lv_btnmatrix.c ****     }
 559:lvgl/src/widgets/lv_btnmatrix.c ****     else if(code == LV_EVENT_KEY) {
 560:lvgl/src/widgets/lv_btnmatrix.c **** 
 561:lvgl/src/widgets/lv_btnmatrix.c ****         invalidate_button_area(obj, btnm->btn_id_sel);
 562:lvgl/src/widgets/lv_btnmatrix.c **** 
 563:lvgl/src/widgets/lv_btnmatrix.c ****         char c = *((char *)lv_event_get_param(e));
 564:lvgl/src/widgets/lv_btnmatrix.c ****         if(c == LV_KEY_RIGHT) {
 565:lvgl/src/widgets/lv_btnmatrix.c ****             if(btnm->btn_id_sel == LV_BTNMATRIX_BTN_NONE)  btnm->btn_id_sel = 0;
 566:lvgl/src/widgets/lv_btnmatrix.c ****             else btnm->btn_id_sel++;
 567:lvgl/src/widgets/lv_btnmatrix.c ****             if(btnm->btn_id_sel >= btnm->btn_cnt) btnm->btn_id_sel = 0;
 568:lvgl/src/widgets/lv_btnmatrix.c **** 
 569:lvgl/src/widgets/lv_btnmatrix.c ****             while(button_is_hidden(btnm->ctrl_bits[btnm->btn_id_sel]) || button_is_inactive(btnm->c
 570:lvgl/src/widgets/lv_btnmatrix.c ****                 btnm->btn_id_sel++;
 571:lvgl/src/widgets/lv_btnmatrix.c ****                 if(btnm->btn_id_sel >= btnm->btn_cnt) btnm->btn_id_sel = 0;
 572:lvgl/src/widgets/lv_btnmatrix.c ****             }
 573:lvgl/src/widgets/lv_btnmatrix.c ****         }
 574:lvgl/src/widgets/lv_btnmatrix.c ****         else if(c == LV_KEY_LEFT) {
 575:lvgl/src/widgets/lv_btnmatrix.c ****             if(btnm->btn_id_sel == LV_BTNMATRIX_BTN_NONE) btnm->btn_id_sel = 0;
 576:lvgl/src/widgets/lv_btnmatrix.c **** 
 577:lvgl/src/widgets/lv_btnmatrix.c ****             if(btnm->btn_id_sel == 0) btnm->btn_id_sel = btnm->btn_cnt - 1;
 578:lvgl/src/widgets/lv_btnmatrix.c ****             else if(btnm->btn_id_sel > 0) btnm->btn_id_sel--;
 579:lvgl/src/widgets/lv_btnmatrix.c **** 
 580:lvgl/src/widgets/lv_btnmatrix.c ****             while(button_is_hidden(btnm->ctrl_bits[btnm->btn_id_sel]) || button_is_inactive(btnm->c
 581:lvgl/src/widgets/lv_btnmatrix.c ****                 if(btnm->btn_id_sel > 0) btnm->btn_id_sel--;
 582:lvgl/src/widgets/lv_btnmatrix.c ****                 else btnm->btn_id_sel = btnm->btn_cnt - 1;
 583:lvgl/src/widgets/lv_btnmatrix.c ****             }
 584:lvgl/src/widgets/lv_btnmatrix.c ****         }
 585:lvgl/src/widgets/lv_btnmatrix.c ****         else if(c == LV_KEY_DOWN) {
 586:lvgl/src/widgets/lv_btnmatrix.c ****             lv_coord_t col_gap = lv_obj_get_style_pad_column(obj, LV_PART_MAIN);
 587:lvgl/src/widgets/lv_btnmatrix.c ****             /*Find the area below the current*/
 588:lvgl/src/widgets/lv_btnmatrix.c ****             if(btnm->btn_id_sel == LV_BTNMATRIX_BTN_NONE) {
 589:lvgl/src/widgets/lv_btnmatrix.c ****                 btnm->btn_id_sel = 0;
 590:lvgl/src/widgets/lv_btnmatrix.c ****                 while(button_is_hidden(btnm->ctrl_bits[btnm->btn_id_sel]) || button_is_inactive(btn
 591:lvgl/src/widgets/lv_btnmatrix.c ****                     btnm->btn_id_sel++;
 592:lvgl/src/widgets/lv_btnmatrix.c ****                     if(btnm->btn_id_sel >= btnm->btn_cnt) btnm->btn_id_sel = 0;
 593:lvgl/src/widgets/lv_btnmatrix.c ****                 }
 594:lvgl/src/widgets/lv_btnmatrix.c ****             }
 595:lvgl/src/widgets/lv_btnmatrix.c ****             else {
 596:lvgl/src/widgets/lv_btnmatrix.c ****                 uint16_t area_below;
 597:lvgl/src/widgets/lv_btnmatrix.c ****                 lv_coord_t pr_center =
 598:lvgl/src/widgets/lv_btnmatrix.c ****                     btnm->button_areas[btnm->btn_id_sel].x1 + (lv_area_get_width(&btnm->button_area
 599:lvgl/src/widgets/lv_btnmatrix.c **** 
 600:lvgl/src/widgets/lv_btnmatrix.c ****                 for(area_below = btnm->btn_id_sel; area_below < btnm->btn_cnt; area_below++) {
 601:lvgl/src/widgets/lv_btnmatrix.c ****                     if(btnm->button_areas[area_below].y1 > btnm->button_areas[btnm->btn_id_sel].y1 
ARM GAS  C:\usertemp\ccuzpgLf.s 			page 12


 602:lvgl/src/widgets/lv_btnmatrix.c ****                        pr_center >= btnm->button_areas[area_below].x1 &&
 603:lvgl/src/widgets/lv_btnmatrix.c ****                        pr_center <= btnm->button_areas[area_below].x2 + col_gap &&
 604:lvgl/src/widgets/lv_btnmatrix.c ****                        button_is_inactive(btnm->ctrl_bits[area_below]) == false &&
 605:lvgl/src/widgets/lv_btnmatrix.c ****                        button_is_hidden(btnm->ctrl_bits[area_below]) == false) {
 606:lvgl/src/widgets/lv_btnmatrix.c ****                         break;
 607:lvgl/src/widgets/lv_btnmatrix.c ****                     }
 608:lvgl/src/widgets/lv_btnmatrix.c ****                 }
 609:lvgl/src/widgets/lv_btnmatrix.c **** 
 610:lvgl/src/widgets/lv_btnmatrix.c ****                 if(area_below < btnm->btn_cnt) btnm->btn_id_sel = area_below;
 611:lvgl/src/widgets/lv_btnmatrix.c ****             }
 612:lvgl/src/widgets/lv_btnmatrix.c ****         }
 613:lvgl/src/widgets/lv_btnmatrix.c ****         else if(c == LV_KEY_UP) {
 614:lvgl/src/widgets/lv_btnmatrix.c ****             lv_coord_t col_gap = lv_obj_get_style_pad_column(obj, LV_PART_MAIN);
 615:lvgl/src/widgets/lv_btnmatrix.c ****             /*Find the area below the current*/
 616:lvgl/src/widgets/lv_btnmatrix.c ****             if(btnm->btn_id_sel == LV_BTNMATRIX_BTN_NONE) {
 617:lvgl/src/widgets/lv_btnmatrix.c ****                 btnm->btn_id_sel = 0;
 618:lvgl/src/widgets/lv_btnmatrix.c ****                 while(button_is_hidden(btnm->ctrl_bits[btnm->btn_id_sel]) || button_is_inactive(btn
 619:lvgl/src/widgets/lv_btnmatrix.c ****                     btnm->btn_id_sel++;
 620:lvgl/src/widgets/lv_btnmatrix.c ****                     if(btnm->btn_id_sel >= btnm->btn_cnt) btnm->btn_id_sel = 0;
 621:lvgl/src/widgets/lv_btnmatrix.c ****                 }
 622:lvgl/src/widgets/lv_btnmatrix.c ****             }
 623:lvgl/src/widgets/lv_btnmatrix.c ****             else {
 624:lvgl/src/widgets/lv_btnmatrix.c ****                 int16_t area_above;
 625:lvgl/src/widgets/lv_btnmatrix.c ****                 lv_coord_t pr_center =
 626:lvgl/src/widgets/lv_btnmatrix.c ****                     btnm->button_areas[btnm->btn_id_sel].x1 + (lv_area_get_width(&btnm->button_area
 627:lvgl/src/widgets/lv_btnmatrix.c **** 
 628:lvgl/src/widgets/lv_btnmatrix.c ****                 for(area_above = btnm->btn_id_sel; area_above >= 0; area_above--) {
 629:lvgl/src/widgets/lv_btnmatrix.c ****                     if(btnm->button_areas[area_above].y1 < btnm->button_areas[btnm->btn_id_sel].y1 
 630:lvgl/src/widgets/lv_btnmatrix.c ****                        pr_center >= btnm->button_areas[area_above].x1 - col_gap &&
 631:lvgl/src/widgets/lv_btnmatrix.c ****                        pr_center <= btnm->button_areas[area_above].x2 &&
 632:lvgl/src/widgets/lv_btnmatrix.c ****                        button_is_inactive(btnm->ctrl_bits[area_above]) == false &&
 633:lvgl/src/widgets/lv_btnmatrix.c ****                        button_is_hidden(btnm->ctrl_bits[area_above]) == false) {
 634:lvgl/src/widgets/lv_btnmatrix.c ****                         break;
 635:lvgl/src/widgets/lv_btnmatrix.c ****                     }
 636:lvgl/src/widgets/lv_btnmatrix.c ****                 }
 637:lvgl/src/widgets/lv_btnmatrix.c ****                 if(area_above >= 0) btnm->btn_id_sel = area_above;
 638:lvgl/src/widgets/lv_btnmatrix.c ****             }
 639:lvgl/src/widgets/lv_btnmatrix.c ****         }
 640:lvgl/src/widgets/lv_btnmatrix.c **** 
 641:lvgl/src/widgets/lv_btnmatrix.c ****         invalidate_button_area(obj, btnm->btn_id_sel);
 642:lvgl/src/widgets/lv_btnmatrix.c ****     }
 643:lvgl/src/widgets/lv_btnmatrix.c ****     else if(code == LV_EVENT_DRAW_MAIN) {
 644:lvgl/src/widgets/lv_btnmatrix.c ****         draw_main(e);
 645:lvgl/src/widgets/lv_btnmatrix.c ****     }
 646:lvgl/src/widgets/lv_btnmatrix.c **** 
 647:lvgl/src/widgets/lv_btnmatrix.c **** }
 648:lvgl/src/widgets/lv_btnmatrix.c **** 
 649:lvgl/src/widgets/lv_btnmatrix.c **** static void draw_main(lv_event_t * e)
 650:lvgl/src/widgets/lv_btnmatrix.c **** {
 651:lvgl/src/widgets/lv_btnmatrix.c ****     lv_obj_t * obj = lv_event_get_target(e);
 652:lvgl/src/widgets/lv_btnmatrix.c ****     lv_btnmatrix_t * btnm = (lv_btnmatrix_t *)obj;
 653:lvgl/src/widgets/lv_btnmatrix.c ****     if(btnm->btn_cnt == 0) return;
 654:lvgl/src/widgets/lv_btnmatrix.c **** 
 655:lvgl/src/widgets/lv_btnmatrix.c ****     lv_draw_ctx_t * draw_ctx = lv_event_get_draw_ctx(e);
 656:lvgl/src/widgets/lv_btnmatrix.c ****     obj->skip_trans = 1;
 657:lvgl/src/widgets/lv_btnmatrix.c **** 
 658:lvgl/src/widgets/lv_btnmatrix.c ****     lv_area_t area_obj;
ARM GAS  C:\usertemp\ccuzpgLf.s 			page 13


 659:lvgl/src/widgets/lv_btnmatrix.c ****     lv_obj_get_coords(obj, &area_obj);
 660:lvgl/src/widgets/lv_btnmatrix.c **** 
 661:lvgl/src/widgets/lv_btnmatrix.c ****     lv_area_t btn_area;
 662:lvgl/src/widgets/lv_btnmatrix.c **** 
 663:lvgl/src/widgets/lv_btnmatrix.c ****     uint16_t btn_i = 0;
 664:lvgl/src/widgets/lv_btnmatrix.c ****     uint16_t txt_i = 0;
 665:lvgl/src/widgets/lv_btnmatrix.c **** 
 666:lvgl/src/widgets/lv_btnmatrix.c ****     lv_draw_rect_dsc_t draw_rect_dsc_act;
 667:lvgl/src/widgets/lv_btnmatrix.c ****     lv_draw_label_dsc_t draw_label_dsc_act;
 668:lvgl/src/widgets/lv_btnmatrix.c **** 
 669:lvgl/src/widgets/lv_btnmatrix.c ****     lv_draw_rect_dsc_t draw_rect_dsc_def;
 670:lvgl/src/widgets/lv_btnmatrix.c ****     lv_draw_label_dsc_t draw_label_dsc_def;
 671:lvgl/src/widgets/lv_btnmatrix.c **** 
 672:lvgl/src/widgets/lv_btnmatrix.c ****     lv_state_t state_ori = obj->state;
 673:lvgl/src/widgets/lv_btnmatrix.c ****     obj->state = LV_STATE_DEFAULT;
 674:lvgl/src/widgets/lv_btnmatrix.c ****     obj->skip_trans = 1;
 675:lvgl/src/widgets/lv_btnmatrix.c ****     lv_draw_rect_dsc_init(&draw_rect_dsc_def);
 676:lvgl/src/widgets/lv_btnmatrix.c ****     lv_draw_label_dsc_init(&draw_label_dsc_def);
 677:lvgl/src/widgets/lv_btnmatrix.c ****     lv_obj_init_draw_rect_dsc(obj, LV_PART_ITEMS, &draw_rect_dsc_def);
 678:lvgl/src/widgets/lv_btnmatrix.c ****     lv_obj_init_draw_label_dsc(obj, LV_PART_ITEMS, &draw_label_dsc_def);
 679:lvgl/src/widgets/lv_btnmatrix.c ****     obj->skip_trans = 0;
 680:lvgl/src/widgets/lv_btnmatrix.c ****     obj->state = state_ori;
 681:lvgl/src/widgets/lv_btnmatrix.c **** 
 682:lvgl/src/widgets/lv_btnmatrix.c ****     lv_coord_t ptop = lv_obj_get_style_pad_top(obj, LV_PART_MAIN);
 683:lvgl/src/widgets/lv_btnmatrix.c ****     lv_coord_t pbottom = lv_obj_get_style_pad_bottom(obj, LV_PART_MAIN);
 684:lvgl/src/widgets/lv_btnmatrix.c ****     lv_coord_t pleft = lv_obj_get_style_pad_left(obj, LV_PART_MAIN);
 685:lvgl/src/widgets/lv_btnmatrix.c ****     lv_coord_t pright = lv_obj_get_style_pad_right(obj, LV_PART_MAIN);
 686:lvgl/src/widgets/lv_btnmatrix.c **** 
 687:lvgl/src/widgets/lv_btnmatrix.c **** #if LV_USE_ARABIC_PERSIAN_CHARS
 688:lvgl/src/widgets/lv_btnmatrix.c ****     const size_t txt_ap_size = 256 ;
 689:lvgl/src/widgets/lv_btnmatrix.c ****     char * txt_ap = lv_mem_buf_get(txt_ap_size);
 690:lvgl/src/widgets/lv_btnmatrix.c **** #endif
 691:lvgl/src/widgets/lv_btnmatrix.c **** 
 692:lvgl/src/widgets/lv_btnmatrix.c ****     lv_obj_draw_part_dsc_t part_draw_dsc;
 693:lvgl/src/widgets/lv_btnmatrix.c ****     lv_obj_draw_dsc_init(&part_draw_dsc, draw_ctx);
 694:lvgl/src/widgets/lv_btnmatrix.c ****     part_draw_dsc.part = LV_PART_ITEMS;
 695:lvgl/src/widgets/lv_btnmatrix.c ****     part_draw_dsc.class_p = MY_CLASS;
 696:lvgl/src/widgets/lv_btnmatrix.c ****     part_draw_dsc.type = LV_BTNMATRIX_DRAW_PART_BTN;
 697:lvgl/src/widgets/lv_btnmatrix.c ****     part_draw_dsc.rect_dsc = &draw_rect_dsc_act;
 698:lvgl/src/widgets/lv_btnmatrix.c ****     part_draw_dsc.label_dsc = &draw_label_dsc_act;
 699:lvgl/src/widgets/lv_btnmatrix.c **** 
 700:lvgl/src/widgets/lv_btnmatrix.c ****     for(btn_i = 0; btn_i < btnm->btn_cnt; btn_i++, txt_i++) {
 701:lvgl/src/widgets/lv_btnmatrix.c ****         /*Search the next valid text in the map*/
 702:lvgl/src/widgets/lv_btnmatrix.c ****         while(strcmp(btnm->map_p[txt_i], "\n") == 0) {
 703:lvgl/src/widgets/lv_btnmatrix.c ****             txt_i++;
 704:lvgl/src/widgets/lv_btnmatrix.c ****         }
 705:lvgl/src/widgets/lv_btnmatrix.c **** 
 706:lvgl/src/widgets/lv_btnmatrix.c ****         /*Skip hidden buttons*/
 707:lvgl/src/widgets/lv_btnmatrix.c ****         if(button_is_hidden(btnm->ctrl_bits[btn_i])) continue;
 708:lvgl/src/widgets/lv_btnmatrix.c **** 
 709:lvgl/src/widgets/lv_btnmatrix.c ****         /*Get the state of the button*/
 710:lvgl/src/widgets/lv_btnmatrix.c ****         lv_state_t btn_state = LV_STATE_DEFAULT;
 711:lvgl/src/widgets/lv_btnmatrix.c ****         if(button_get_checked(btnm->ctrl_bits[btn_i])) btn_state |= LV_STATE_CHECKED;
 712:lvgl/src/widgets/lv_btnmatrix.c **** 
 713:lvgl/src/widgets/lv_btnmatrix.c ****         if(button_is_inactive(btnm->ctrl_bits[btn_i])) btn_state |= LV_STATE_DISABLED;
 714:lvgl/src/widgets/lv_btnmatrix.c ****         else if(btn_i == btnm->btn_id_sel) {
 715:lvgl/src/widgets/lv_btnmatrix.c ****             if(state_ori & LV_STATE_PRESSED) btn_state |= LV_STATE_PRESSED;
ARM GAS  C:\usertemp\ccuzpgLf.s 			page 14


 716:lvgl/src/widgets/lv_btnmatrix.c ****             if(state_ori & LV_STATE_FOCUSED) btn_state |= LV_STATE_FOCUSED;
 717:lvgl/src/widgets/lv_btnmatrix.c ****             if(state_ori & LV_STATE_FOCUS_KEY) btn_state |= LV_STATE_FOCUS_KEY;
 718:lvgl/src/widgets/lv_btnmatrix.c ****             if(state_ori & LV_STATE_EDITED) btn_state |= LV_STATE_EDITED;
 719:lvgl/src/widgets/lv_btnmatrix.c ****         }
 720:lvgl/src/widgets/lv_btnmatrix.c **** 
 721:lvgl/src/widgets/lv_btnmatrix.c ****         /*Get the button's area*/
 722:lvgl/src/widgets/lv_btnmatrix.c ****         lv_area_copy(&btn_area, &btnm->button_areas[btn_i]);
 723:lvgl/src/widgets/lv_btnmatrix.c ****         btn_area.x1 += area_obj.x1;
 724:lvgl/src/widgets/lv_btnmatrix.c ****         btn_area.y1 += area_obj.y1;
 725:lvgl/src/widgets/lv_btnmatrix.c ****         btn_area.x2 += area_obj.x1;
 726:lvgl/src/widgets/lv_btnmatrix.c ****         btn_area.y2 += area_obj.y1;
 727:lvgl/src/widgets/lv_btnmatrix.c **** 
 728:lvgl/src/widgets/lv_btnmatrix.c ****         /*Set up the draw descriptors*/
 729:lvgl/src/widgets/lv_btnmatrix.c ****         if(btn_state == LV_STATE_DEFAULT) {
 730:lvgl/src/widgets/lv_btnmatrix.c ****             lv_memcpy(&draw_rect_dsc_act, &draw_rect_dsc_def, sizeof(lv_draw_rect_dsc_t));
 731:lvgl/src/widgets/lv_btnmatrix.c ****             lv_memcpy(&draw_label_dsc_act, &draw_label_dsc_def, sizeof(lv_draw_label_dsc_t));
 732:lvgl/src/widgets/lv_btnmatrix.c ****         }
 733:lvgl/src/widgets/lv_btnmatrix.c ****         /*In other cases get the styles directly without caching them*/
 734:lvgl/src/widgets/lv_btnmatrix.c ****         else {
 735:lvgl/src/widgets/lv_btnmatrix.c ****             obj->state = btn_state;
 736:lvgl/src/widgets/lv_btnmatrix.c ****             obj->skip_trans = 1;
 737:lvgl/src/widgets/lv_btnmatrix.c ****             lv_draw_rect_dsc_init(&draw_rect_dsc_act);
 738:lvgl/src/widgets/lv_btnmatrix.c ****             lv_draw_label_dsc_init(&draw_label_dsc_act);
 739:lvgl/src/widgets/lv_btnmatrix.c ****             lv_obj_init_draw_rect_dsc(obj, LV_PART_ITEMS, &draw_rect_dsc_act);
 740:lvgl/src/widgets/lv_btnmatrix.c ****             lv_obj_init_draw_label_dsc(obj, LV_PART_ITEMS, &draw_label_dsc_act);
 741:lvgl/src/widgets/lv_btnmatrix.c ****             obj->state = state_ori;
 742:lvgl/src/widgets/lv_btnmatrix.c ****             obj->skip_trans = 0;
 743:lvgl/src/widgets/lv_btnmatrix.c ****         }
 744:lvgl/src/widgets/lv_btnmatrix.c **** 
 745:lvgl/src/widgets/lv_btnmatrix.c ****         bool recolor = button_is_recolor(btnm->ctrl_bits[btn_i]);
 746:lvgl/src/widgets/lv_btnmatrix.c ****         if(recolor) draw_label_dsc_act.flag |= LV_TEXT_FLAG_RECOLOR;
 747:lvgl/src/widgets/lv_btnmatrix.c ****         else draw_label_dsc_act.flag &= ~LV_TEXT_FLAG_RECOLOR;
 748:lvgl/src/widgets/lv_btnmatrix.c **** 
 749:lvgl/src/widgets/lv_btnmatrix.c **** 
 750:lvgl/src/widgets/lv_btnmatrix.c ****         part_draw_dsc.draw_area = &btn_area;
 751:lvgl/src/widgets/lv_btnmatrix.c ****         part_draw_dsc.id = btn_i;
 752:lvgl/src/widgets/lv_btnmatrix.c ****         lv_event_send(obj, LV_EVENT_DRAW_PART_BEGIN, &part_draw_dsc);
 753:lvgl/src/widgets/lv_btnmatrix.c **** 
 754:lvgl/src/widgets/lv_btnmatrix.c ****         /*Remove borders on the edges if `LV_BORDER_SIDE_INTERNAL`*/
 755:lvgl/src/widgets/lv_btnmatrix.c ****         if(draw_rect_dsc_act.border_side & LV_BORDER_SIDE_INTERNAL) {
 756:lvgl/src/widgets/lv_btnmatrix.c ****             draw_rect_dsc_act.border_side = LV_BORDER_SIDE_FULL;
 757:lvgl/src/widgets/lv_btnmatrix.c ****             if(btn_area.x1 == obj->coords.x1 + pleft) draw_rect_dsc_act.border_side &= ~LV_BORDER_S
 758:lvgl/src/widgets/lv_btnmatrix.c ****             if(btn_area.x2 == obj->coords.x2 - pright) draw_rect_dsc_act.border_side &= ~LV_BORDER_
 759:lvgl/src/widgets/lv_btnmatrix.c ****             if(btn_area.y1 == obj->coords.y1 + ptop) draw_rect_dsc_act.border_side &= ~LV_BORDER_SI
 760:lvgl/src/widgets/lv_btnmatrix.c ****             if(btn_area.y2 == obj->coords.y2 - pbottom) draw_rect_dsc_act.border_side &= ~LV_BORDER
 761:lvgl/src/widgets/lv_btnmatrix.c ****         }
 762:lvgl/src/widgets/lv_btnmatrix.c **** 
 763:lvgl/src/widgets/lv_btnmatrix.c ****         lv_coord_t btn_height = lv_area_get_height(&btn_area);
 764:lvgl/src/widgets/lv_btnmatrix.c **** 
 765:lvgl/src/widgets/lv_btnmatrix.c ****         if((btn_state & LV_STATE_PRESSED) && (btnm->ctrl_bits[btn_i] & LV_BTNMATRIX_CTRL_POPOVER)) 
 766:lvgl/src/widgets/lv_btnmatrix.c ****             /*Push up the upper boundary of the btn area to create the popover*/
 767:lvgl/src/widgets/lv_btnmatrix.c ****             btn_area.y1 -= btn_height;
 768:lvgl/src/widgets/lv_btnmatrix.c ****         }
 769:lvgl/src/widgets/lv_btnmatrix.c **** 
 770:lvgl/src/widgets/lv_btnmatrix.c ****         /*Draw the background*/
 771:lvgl/src/widgets/lv_btnmatrix.c ****         lv_draw_rect(draw_ctx, &draw_rect_dsc_act, &btn_area);
 772:lvgl/src/widgets/lv_btnmatrix.c **** 
ARM GAS  C:\usertemp\ccuzpgLf.s 			page 15


 773:lvgl/src/widgets/lv_btnmatrix.c ****         /*Calculate the size of the text*/
 774:lvgl/src/widgets/lv_btnmatrix.c ****         const lv_font_t * font = draw_label_dsc_act.font;
 775:lvgl/src/widgets/lv_btnmatrix.c ****         lv_coord_t letter_space = draw_label_dsc_act.letter_space;
 776:lvgl/src/widgets/lv_btnmatrix.c ****         lv_coord_t line_space = draw_label_dsc_act.line_space;
 777:lvgl/src/widgets/lv_btnmatrix.c ****         const char * txt = btnm->map_p[txt_i];
 778:lvgl/src/widgets/lv_btnmatrix.c **** 
 779:lvgl/src/widgets/lv_btnmatrix.c **** #if LV_USE_ARABIC_PERSIAN_CHARS
 780:lvgl/src/widgets/lv_btnmatrix.c ****         /*Get the size of the Arabic text and process it*/
 781:lvgl/src/widgets/lv_btnmatrix.c ****         size_t len_ap = _lv_txt_ap_calc_bytes_cnt(txt);
 782:lvgl/src/widgets/lv_btnmatrix.c ****         if(len_ap < txt_ap_size) {
 783:lvgl/src/widgets/lv_btnmatrix.c ****             _lv_txt_ap_proc(txt, txt_ap);
 784:lvgl/src/widgets/lv_btnmatrix.c ****             txt = txt_ap;
 785:lvgl/src/widgets/lv_btnmatrix.c ****         }
 786:lvgl/src/widgets/lv_btnmatrix.c **** #endif
 787:lvgl/src/widgets/lv_btnmatrix.c ****         lv_point_t txt_size;
 788:lvgl/src/widgets/lv_btnmatrix.c ****         lv_txt_get_size(&txt_size, txt, font, letter_space,
 789:lvgl/src/widgets/lv_btnmatrix.c ****                         line_space, lv_area_get_width(&area_obj), draw_label_dsc_act.flag);
 790:lvgl/src/widgets/lv_btnmatrix.c **** 
 791:lvgl/src/widgets/lv_btnmatrix.c ****         btn_area.x1 += (lv_area_get_width(&btn_area) - txt_size.x) / 2;
 792:lvgl/src/widgets/lv_btnmatrix.c ****         btn_area.y1 += (lv_area_get_height(&btn_area) - txt_size.y) / 2;
 793:lvgl/src/widgets/lv_btnmatrix.c ****         btn_area.x2 = btn_area.x1 + txt_size.x;
 794:lvgl/src/widgets/lv_btnmatrix.c ****         btn_area.y2 = btn_area.y1 + txt_size.y;
 795:lvgl/src/widgets/lv_btnmatrix.c **** 
 796:lvgl/src/widgets/lv_btnmatrix.c ****         if((btn_state & LV_STATE_PRESSED) && (btnm->ctrl_bits[btn_i] & LV_BTNMATRIX_CTRL_POPOVER)) 
 797:lvgl/src/widgets/lv_btnmatrix.c ****             /*Push up the button text into the popover*/
 798:lvgl/src/widgets/lv_btnmatrix.c ****             btn_area.y1 -= btn_height / 2;
 799:lvgl/src/widgets/lv_btnmatrix.c ****             btn_area.y2 -= btn_height / 2;
 800:lvgl/src/widgets/lv_btnmatrix.c ****         }
 801:lvgl/src/widgets/lv_btnmatrix.c **** 
 802:lvgl/src/widgets/lv_btnmatrix.c ****         /*Draw the text*/
 803:lvgl/src/widgets/lv_btnmatrix.c ****         lv_draw_label(draw_ctx, &draw_label_dsc_act, &btn_area, txt, NULL);
 804:lvgl/src/widgets/lv_btnmatrix.c **** 
 805:lvgl/src/widgets/lv_btnmatrix.c ****         lv_event_send(obj, LV_EVENT_DRAW_PART_END, &part_draw_dsc);
 806:lvgl/src/widgets/lv_btnmatrix.c ****     }
 807:lvgl/src/widgets/lv_btnmatrix.c **** 
 808:lvgl/src/widgets/lv_btnmatrix.c ****     obj->skip_trans = 0;
 809:lvgl/src/widgets/lv_btnmatrix.c **** #if LV_USE_ARABIC_PERSIAN_CHARS
 810:lvgl/src/widgets/lv_btnmatrix.c ****     lv_mem_buf_release(txt_ap);
 811:lvgl/src/widgets/lv_btnmatrix.c **** #endif
 812:lvgl/src/widgets/lv_btnmatrix.c **** }
 813:lvgl/src/widgets/lv_btnmatrix.c **** /**
 814:lvgl/src/widgets/lv_btnmatrix.c ****  * Create the required number of buttons and control bytes according to a map
 815:lvgl/src/widgets/lv_btnmatrix.c ****  * @param obj pointer to button matrix object
 816:lvgl/src/widgets/lv_btnmatrix.c ****  * @param map_p pointer to a string array
 817:lvgl/src/widgets/lv_btnmatrix.c ****  */
 818:lvgl/src/widgets/lv_btnmatrix.c **** static void allocate_btn_areas_and_controls(const lv_obj_t * obj, const char ** map)
 819:lvgl/src/widgets/lv_btnmatrix.c **** {
 820:lvgl/src/widgets/lv_btnmatrix.c ****     lv_btnmatrix_t * btnm = (lv_btnmatrix_t *)obj;
 821:lvgl/src/widgets/lv_btnmatrix.c ****     btnm->row_cnt = 1;
 822:lvgl/src/widgets/lv_btnmatrix.c ****     /*Count the buttons in the map*/
 823:lvgl/src/widgets/lv_btnmatrix.c ****     uint16_t btn_cnt = 0;
 824:lvgl/src/widgets/lv_btnmatrix.c ****     uint16_t i       = 0;
 825:lvgl/src/widgets/lv_btnmatrix.c ****     while(map[i] && map[i][0] != '\0') {
 826:lvgl/src/widgets/lv_btnmatrix.c ****         if(strcmp(map[i], "\n") != 0) { /*Do not count line breaks*/
 827:lvgl/src/widgets/lv_btnmatrix.c ****             btn_cnt++;
 828:lvgl/src/widgets/lv_btnmatrix.c ****         }
 829:lvgl/src/widgets/lv_btnmatrix.c ****         else {
ARM GAS  C:\usertemp\ccuzpgLf.s 			page 16


 830:lvgl/src/widgets/lv_btnmatrix.c ****             btnm->row_cnt++;
 831:lvgl/src/widgets/lv_btnmatrix.c ****         }
 832:lvgl/src/widgets/lv_btnmatrix.c ****         i++;
 833:lvgl/src/widgets/lv_btnmatrix.c ****     }
 834:lvgl/src/widgets/lv_btnmatrix.c **** 
 835:lvgl/src/widgets/lv_btnmatrix.c ****     /*Do not allocate memory for the same amount of buttons*/
 836:lvgl/src/widgets/lv_btnmatrix.c ****     if(btn_cnt == btnm->btn_cnt) return;
 837:lvgl/src/widgets/lv_btnmatrix.c **** 
 838:lvgl/src/widgets/lv_btnmatrix.c ****     if(btnm->button_areas != NULL) {
 839:lvgl/src/widgets/lv_btnmatrix.c ****         lv_mem_free(btnm->button_areas);
 840:lvgl/src/widgets/lv_btnmatrix.c ****         btnm->button_areas = NULL;
 841:lvgl/src/widgets/lv_btnmatrix.c ****     }
 842:lvgl/src/widgets/lv_btnmatrix.c ****     if(btnm->ctrl_bits != NULL) {
 843:lvgl/src/widgets/lv_btnmatrix.c ****         lv_mem_free(btnm->ctrl_bits);
 844:lvgl/src/widgets/lv_btnmatrix.c ****         btnm->ctrl_bits = NULL;
 845:lvgl/src/widgets/lv_btnmatrix.c ****     }
 846:lvgl/src/widgets/lv_btnmatrix.c **** 
 847:lvgl/src/widgets/lv_btnmatrix.c ****     btnm->button_areas = lv_mem_alloc(sizeof(lv_area_t) * btn_cnt);
 848:lvgl/src/widgets/lv_btnmatrix.c ****     LV_ASSERT_MALLOC(btnm->button_areas);
 849:lvgl/src/widgets/lv_btnmatrix.c ****     btnm->ctrl_bits = lv_mem_alloc(sizeof(lv_btnmatrix_ctrl_t) * btn_cnt);
 850:lvgl/src/widgets/lv_btnmatrix.c ****     LV_ASSERT_MALLOC(btnm->ctrl_bits);
 851:lvgl/src/widgets/lv_btnmatrix.c ****     if(btnm->button_areas == NULL || btnm->ctrl_bits == NULL) btn_cnt = 0;
 852:lvgl/src/widgets/lv_btnmatrix.c **** 
 853:lvgl/src/widgets/lv_btnmatrix.c ****     lv_memset_00(btnm->ctrl_bits, sizeof(lv_btnmatrix_ctrl_t) * btn_cnt);
 854:lvgl/src/widgets/lv_btnmatrix.c **** 
 855:lvgl/src/widgets/lv_btnmatrix.c ****     btnm->btn_cnt = btn_cnt;
 856:lvgl/src/widgets/lv_btnmatrix.c **** }
 857:lvgl/src/widgets/lv_btnmatrix.c **** 
 858:lvgl/src/widgets/lv_btnmatrix.c **** /**
 859:lvgl/src/widgets/lv_btnmatrix.c ****  * Get the width of a button in units (default is 1).
 860:lvgl/src/widgets/lv_btnmatrix.c ****  * @param ctrl_bits least significant 3 bits used (1..7 valid values)
 861:lvgl/src/widgets/lv_btnmatrix.c ****  * @return the width of the button in units
 862:lvgl/src/widgets/lv_btnmatrix.c ****  */
 863:lvgl/src/widgets/lv_btnmatrix.c **** static uint8_t get_button_width(lv_btnmatrix_ctrl_t ctrl_bits)
 864:lvgl/src/widgets/lv_btnmatrix.c **** {
  28              		.loc 1 864 1 view -0
  29              		.cfi_startproc
  30              		@ args = 0, pretend = 0, frame = 0
  31              		@ frame_needed = 0, uses_anonymous_args = 0
  32              		@ link register save eliminated.
 865:lvgl/src/widgets/lv_btnmatrix.c ****     uint8_t w = ctrl_bits & LV_BTNMATRIX_WIDTH_MASK;
  33              		.loc 1 865 5 view .LVU1
 866:lvgl/src/widgets/lv_btnmatrix.c ****     return w != 0 ? w : 1;
  34              		.loc 1 866 5 view .LVU2
  35              		.loc 1 866 23 is_stmt 0 view .LVU3
  36 0000 10F00700 		ands	r0, r0, #7
  37              	.LVL1:
  38              		.loc 1 866 23 view .LVU4
  39 0004 00D1     		bne	.L2
  40              		.loc 1 866 23 discriminator 2 view .LVU5
  41 0006 0120     		movs	r0, #1
  42              	.L2:
 867:lvgl/src/widgets/lv_btnmatrix.c **** }
  43              		.loc 1 867 1 view .LVU6
  44 0008 7047     		bx	lr
  45              		.cfi_endproc
  46              	.LFE176:
ARM GAS  C:\usertemp\ccuzpgLf.s 			page 17


  48              		.section	.text.button_is_hidden,"ax",%progbits
  49              		.align	1
  50              		.syntax unified
  51              		.thumb
  52              		.thumb_func
  54              	button_is_hidden:
  55              	.LVL2:
  56              	.LFB177:
 868:lvgl/src/widgets/lv_btnmatrix.c **** 
 869:lvgl/src/widgets/lv_btnmatrix.c **** static bool button_is_hidden(lv_btnmatrix_ctrl_t ctrl_bits)
 870:lvgl/src/widgets/lv_btnmatrix.c **** {
  57              		.loc 1 870 1 is_stmt 1 view -0
  58              		.cfi_startproc
  59              		@ args = 0, pretend = 0, frame = 0
  60              		@ frame_needed = 0, uses_anonymous_args = 0
  61              		@ link register save eliminated.
 871:lvgl/src/widgets/lv_btnmatrix.c ****     return (ctrl_bits & LV_BTNMATRIX_CTRL_HIDDEN) ? true : false;
  62              		.loc 1 871 5 view .LVU8
 872:lvgl/src/widgets/lv_btnmatrix.c **** }
  63              		.loc 1 872 1 is_stmt 0 view .LVU9
  64 0000 C0F3C000 		ubfx	r0, r0, #3, #1
  65              	.LVL3:
  66              		.loc 1 872 1 view .LVU10
  67 0004 7047     		bx	lr
  68              		.cfi_endproc
  69              	.LFE177:
  71              		.section	.text.button_is_checked,"ax",%progbits
  72              		.align	1
  73              		.syntax unified
  74              		.thumb
  75              		.thumb_func
  77              	button_is_checked:
  78              	.LVL4:
  79              	.LFB178:
 873:lvgl/src/widgets/lv_btnmatrix.c **** 
 874:lvgl/src/widgets/lv_btnmatrix.c **** static bool button_is_checked(lv_btnmatrix_ctrl_t ctrl_bits)
 875:lvgl/src/widgets/lv_btnmatrix.c **** {
  80              		.loc 1 875 1 is_stmt 1 view -0
  81              		.cfi_startproc
  82              		@ args = 0, pretend = 0, frame = 0
  83              		@ frame_needed = 0, uses_anonymous_args = 0
  84              		@ link register save eliminated.
 876:lvgl/src/widgets/lv_btnmatrix.c ****     return (ctrl_bits & LV_BTNMATRIX_CTRL_CHECKED) ? true : false;
  85              		.loc 1 876 5 view .LVU12
 877:lvgl/src/widgets/lv_btnmatrix.c **** }
  86              		.loc 1 877 1 is_stmt 0 view .LVU13
  87 0000 C0F3C010 		ubfx	r0, r0, #7, #1
  88              	.LVL5:
  89              		.loc 1 877 1 view .LVU14
  90 0004 7047     		bx	lr
  91              		.cfi_endproc
  92              	.LFE178:
  94              		.section	.text.button_is_repeat_disabled,"ax",%progbits
  95              		.align	1
  96              		.syntax unified
  97              		.thumb
  98              		.thumb_func
ARM GAS  C:\usertemp\ccuzpgLf.s 			page 18


 100              	button_is_repeat_disabled:
 101              	.LVL6:
 102              	.LFB179:
 878:lvgl/src/widgets/lv_btnmatrix.c **** 
 879:lvgl/src/widgets/lv_btnmatrix.c **** static bool button_is_repeat_disabled(lv_btnmatrix_ctrl_t ctrl_bits)
 880:lvgl/src/widgets/lv_btnmatrix.c **** {
 103              		.loc 1 880 1 is_stmt 1 view -0
 104              		.cfi_startproc
 105              		@ args = 0, pretend = 0, frame = 0
 106              		@ frame_needed = 0, uses_anonymous_args = 0
 107              		@ link register save eliminated.
 881:lvgl/src/widgets/lv_btnmatrix.c ****     return (ctrl_bits & LV_BTNMATRIX_CTRL_NO_REPEAT) ? true : false;
 108              		.loc 1 881 5 view .LVU16
 882:lvgl/src/widgets/lv_btnmatrix.c **** }
 109              		.loc 1 882 1 is_stmt 0 view .LVU17
 110 0000 C0F30010 		ubfx	r0, r0, #4, #1
 111              	.LVL7:
 112              		.loc 1 882 1 view .LVU18
 113 0004 7047     		bx	lr
 114              		.cfi_endproc
 115              	.LFE179:
 117              		.section	.text.button_is_inactive,"ax",%progbits
 118              		.align	1
 119              		.syntax unified
 120              		.thumb
 121              		.thumb_func
 123              	button_is_inactive:
 124              	.LVL8:
 125              	.LFB180:
 883:lvgl/src/widgets/lv_btnmatrix.c **** 
 884:lvgl/src/widgets/lv_btnmatrix.c **** static bool button_is_inactive(lv_btnmatrix_ctrl_t ctrl_bits)
 885:lvgl/src/widgets/lv_btnmatrix.c **** {
 126              		.loc 1 885 1 is_stmt 1 view -0
 127              		.cfi_startproc
 128              		@ args = 0, pretend = 0, frame = 0
 129              		@ frame_needed = 0, uses_anonymous_args = 0
 130              		@ link register save eliminated.
 886:lvgl/src/widgets/lv_btnmatrix.c ****     return (ctrl_bits & LV_BTNMATRIX_CTRL_DISABLED) ? true : false;
 131              		.loc 1 886 5 view .LVU20
 887:lvgl/src/widgets/lv_btnmatrix.c **** }
 132              		.loc 1 887 1 is_stmt 0 view .LVU21
 133 0000 C0F34010 		ubfx	r0, r0, #5, #1
 134              	.LVL9:
 135              		.loc 1 887 1 view .LVU22
 136 0004 7047     		bx	lr
 137              		.cfi_endproc
 138              	.LFE180:
 140              		.section	.text.button_is_click_trig,"ax",%progbits
 141              		.align	1
 142              		.syntax unified
 143              		.thumb
 144              		.thumb_func
 146              	button_is_click_trig:
 147              	.LVL10:
 148              	.LFB181:
 888:lvgl/src/widgets/lv_btnmatrix.c **** 
 889:lvgl/src/widgets/lv_btnmatrix.c **** static bool button_is_click_trig(lv_btnmatrix_ctrl_t ctrl_bits)
ARM GAS  C:\usertemp\ccuzpgLf.s 			page 19


 890:lvgl/src/widgets/lv_btnmatrix.c **** {
 149              		.loc 1 890 1 is_stmt 1 view -0
 150              		.cfi_startproc
 151              		@ args = 0, pretend = 0, frame = 0
 152              		@ frame_needed = 0, uses_anonymous_args = 0
 153              		@ link register save eliminated.
 891:lvgl/src/widgets/lv_btnmatrix.c ****     return (ctrl_bits & LV_BTNMATRIX_CTRL_CLICK_TRIG) ? true : false;
 154              		.loc 1 891 5 view .LVU24
 892:lvgl/src/widgets/lv_btnmatrix.c **** }
 155              		.loc 1 892 1 is_stmt 0 view .LVU25
 156 0000 C0F30020 		ubfx	r0, r0, #8, #1
 157              	.LVL11:
 158              		.loc 1 892 1 view .LVU26
 159 0004 7047     		bx	lr
 160              		.cfi_endproc
 161              	.LFE181:
 163              		.section	.text.button_is_popover,"ax",%progbits
 164              		.align	1
 165              		.syntax unified
 166              		.thumb
 167              		.thumb_func
 169              	button_is_popover:
 170              	.LVL12:
 171              	.LFB182:
 893:lvgl/src/widgets/lv_btnmatrix.c **** 
 894:lvgl/src/widgets/lv_btnmatrix.c **** static bool button_is_popover(lv_btnmatrix_ctrl_t ctrl_bits)
 895:lvgl/src/widgets/lv_btnmatrix.c **** {
 172              		.loc 1 895 1 is_stmt 1 view -0
 173              		.cfi_startproc
 174              		@ args = 0, pretend = 0, frame = 0
 175              		@ frame_needed = 0, uses_anonymous_args = 0
 176              		@ link register save eliminated.
 896:lvgl/src/widgets/lv_btnmatrix.c ****     return (ctrl_bits & LV_BTNMATRIX_CTRL_POPOVER) ? true : false;
 177              		.loc 1 896 5 view .LVU28
 897:lvgl/src/widgets/lv_btnmatrix.c **** }
 178              		.loc 1 897 1 is_stmt 0 view .LVU29
 179 0000 C0F34020 		ubfx	r0, r0, #9, #1
 180              	.LVL13:
 181              		.loc 1 897 1 view .LVU30
 182 0004 7047     		bx	lr
 183              		.cfi_endproc
 184              	.LFE182:
 186              		.section	.text.button_is_checkable,"ax",%progbits
 187              		.align	1
 188              		.syntax unified
 189              		.thumb
 190              		.thumb_func
 192              	button_is_checkable:
 193              	.LVL14:
 194              	.LFB183:
 898:lvgl/src/widgets/lv_btnmatrix.c **** 
 899:lvgl/src/widgets/lv_btnmatrix.c **** static bool button_is_checkable(lv_btnmatrix_ctrl_t ctrl_bits)
 900:lvgl/src/widgets/lv_btnmatrix.c **** {
 195              		.loc 1 900 1 is_stmt 1 view -0
 196              		.cfi_startproc
 197              		@ args = 0, pretend = 0, frame = 0
 198              		@ frame_needed = 0, uses_anonymous_args = 0
ARM GAS  C:\usertemp\ccuzpgLf.s 			page 20


 199              		@ link register save eliminated.
 901:lvgl/src/widgets/lv_btnmatrix.c ****     return (ctrl_bits & LV_BTNMATRIX_CTRL_CHECKABLE) ? true : false;
 200              		.loc 1 901 5 view .LVU32
 902:lvgl/src/widgets/lv_btnmatrix.c **** }
 201              		.loc 1 902 1 is_stmt 0 view .LVU33
 202 0000 C0F38010 		ubfx	r0, r0, #6, #1
 203              	.LVL15:
 204              		.loc 1 902 1 view .LVU34
 205 0004 7047     		bx	lr
 206              		.cfi_endproc
 207              	.LFE183:
 209              		.section	.text.button_get_checked,"ax",%progbits
 210              		.align	1
 211              		.syntax unified
 212              		.thumb
 213              		.thumb_func
 215              	button_get_checked:
 216              	.LVL16:
 217              	.LFB184:
 903:lvgl/src/widgets/lv_btnmatrix.c **** 
 904:lvgl/src/widgets/lv_btnmatrix.c **** static bool button_get_checked(lv_btnmatrix_ctrl_t ctrl_bits)
 905:lvgl/src/widgets/lv_btnmatrix.c **** {
 218              		.loc 1 905 1 is_stmt 1 view -0
 219              		.cfi_startproc
 220              		@ args = 0, pretend = 0, frame = 0
 221              		@ frame_needed = 0, uses_anonymous_args = 0
 222              		@ link register save eliminated.
 906:lvgl/src/widgets/lv_btnmatrix.c ****     return (ctrl_bits & LV_BTNMATRIX_CTRL_CHECKED) ? true : false;
 223              		.loc 1 906 5 view .LVU36
 907:lvgl/src/widgets/lv_btnmatrix.c **** }
 224              		.loc 1 907 1 is_stmt 0 view .LVU37
 225 0000 C0F3C010 		ubfx	r0, r0, #7, #1
 226              	.LVL17:
 227              		.loc 1 907 1 view .LVU38
 228 0004 7047     		bx	lr
 229              		.cfi_endproc
 230              	.LFE184:
 232              		.section	.text.button_is_recolor,"ax",%progbits
 233              		.align	1
 234              		.syntax unified
 235              		.thumb
 236              		.thumb_func
 238              	button_is_recolor:
 239              	.LVL18:
 240              	.LFB185:
 908:lvgl/src/widgets/lv_btnmatrix.c **** 
 909:lvgl/src/widgets/lv_btnmatrix.c **** static bool button_is_recolor(lv_btnmatrix_ctrl_t ctrl_bits)
 910:lvgl/src/widgets/lv_btnmatrix.c **** {
 241              		.loc 1 910 1 is_stmt 1 view -0
 242              		.cfi_startproc
 243              		@ args = 0, pretend = 0, frame = 0
 244              		@ frame_needed = 0, uses_anonymous_args = 0
 245              		@ link register save eliminated.
 911:lvgl/src/widgets/lv_btnmatrix.c ****     return (ctrl_bits & LV_BTNMATRIX_CTRL_RECOLOR) ? true : false;
 246              		.loc 1 911 5 view .LVU40
 912:lvgl/src/widgets/lv_btnmatrix.c **** }
 247              		.loc 1 912 1 is_stmt 0 view .LVU41
ARM GAS  C:\usertemp\ccuzpgLf.s 			page 21


 248 0000 C0F30030 		ubfx	r0, r0, #12, #1
 249              	.LVL19:
 250              		.loc 1 912 1 view .LVU42
 251 0004 7047     		bx	lr
 252              		.cfi_endproc
 253              	.LFE185:
 255              		.section	.rodata.has_popovers_in_top_row.str1.4,"aMS",%progbits,1
 256              		.align	2
 257              	.LC0:
 258 0000 0A00     		.ascii	"\012\000"
 259              		.section	.text.has_popovers_in_top_row,"ax",%progbits
 260              		.align	1
 261              		.syntax unified
 262              		.thumb
 263              		.thumb_func
 265              	has_popovers_in_top_row:
 266              	.LVL20:
 267              	.LFB189:
 913:lvgl/src/widgets/lv_btnmatrix.c **** /**
 914:lvgl/src/widgets/lv_btnmatrix.c ****  * Gives the button id of a button under a given point
 915:lvgl/src/widgets/lv_btnmatrix.c ****  * @param obj pointer to a button matrix object
 916:lvgl/src/widgets/lv_btnmatrix.c ****  * @param p a point with absolute coordinates
 917:lvgl/src/widgets/lv_btnmatrix.c ****  * @return the id of the button or LV_BTNMATRIX_BTN_NONE.
 918:lvgl/src/widgets/lv_btnmatrix.c ****  */
 919:lvgl/src/widgets/lv_btnmatrix.c **** static uint16_t get_button_from_point(lv_obj_t * obj, lv_point_t * p)
 920:lvgl/src/widgets/lv_btnmatrix.c **** {
 921:lvgl/src/widgets/lv_btnmatrix.c ****     lv_area_t obj_cords;
 922:lvgl/src/widgets/lv_btnmatrix.c ****     lv_area_t btn_area;
 923:lvgl/src/widgets/lv_btnmatrix.c ****     lv_btnmatrix_t * btnm = (lv_btnmatrix_t *)obj;;
 924:lvgl/src/widgets/lv_btnmatrix.c ****     uint16_t i;
 925:lvgl/src/widgets/lv_btnmatrix.c ****     lv_obj_get_coords(obj, &obj_cords);
 926:lvgl/src/widgets/lv_btnmatrix.c **** 
 927:lvgl/src/widgets/lv_btnmatrix.c ****     lv_coord_t w = lv_obj_get_width(obj);
 928:lvgl/src/widgets/lv_btnmatrix.c ****     lv_coord_t h = lv_obj_get_height(obj);
 929:lvgl/src/widgets/lv_btnmatrix.c ****     lv_coord_t pleft = lv_obj_get_style_pad_left(obj, LV_PART_MAIN);
 930:lvgl/src/widgets/lv_btnmatrix.c ****     lv_coord_t pright = lv_obj_get_style_pad_right(obj, LV_PART_MAIN);
 931:lvgl/src/widgets/lv_btnmatrix.c ****     lv_coord_t ptop = lv_obj_get_style_pad_top(obj, LV_PART_MAIN);
 932:lvgl/src/widgets/lv_btnmatrix.c ****     lv_coord_t pbottom = lv_obj_get_style_pad_bottom(obj, LV_PART_MAIN);
 933:lvgl/src/widgets/lv_btnmatrix.c ****     lv_coord_t prow = lv_obj_get_style_pad_row(obj, LV_PART_MAIN);
 934:lvgl/src/widgets/lv_btnmatrix.c ****     lv_coord_t pcol = lv_obj_get_style_pad_column(obj, LV_PART_MAIN);
 935:lvgl/src/widgets/lv_btnmatrix.c **** 
 936:lvgl/src/widgets/lv_btnmatrix.c ****     /*Get the half gap. Button look larger with this value. (+1 for rounding error)*/
 937:lvgl/src/widgets/lv_btnmatrix.c ****     prow = (prow / 2) + 1 + (prow & 1);
 938:lvgl/src/widgets/lv_btnmatrix.c ****     pcol = (pcol / 2) + 1 + (pcol & 1);
 939:lvgl/src/widgets/lv_btnmatrix.c **** 
 940:lvgl/src/widgets/lv_btnmatrix.c ****     prow = LV_MIN(prow, BTN_EXTRA_CLICK_AREA_MAX);
 941:lvgl/src/widgets/lv_btnmatrix.c ****     pcol = LV_MIN(pcol, BTN_EXTRA_CLICK_AREA_MAX);
 942:lvgl/src/widgets/lv_btnmatrix.c ****     pright = LV_MIN(pright, BTN_EXTRA_CLICK_AREA_MAX);
 943:lvgl/src/widgets/lv_btnmatrix.c ****     ptop = LV_MIN(ptop, BTN_EXTRA_CLICK_AREA_MAX);
 944:lvgl/src/widgets/lv_btnmatrix.c ****     pbottom = LV_MIN(pbottom, BTN_EXTRA_CLICK_AREA_MAX);
 945:lvgl/src/widgets/lv_btnmatrix.c **** 
 946:lvgl/src/widgets/lv_btnmatrix.c ****     for(i = 0; i < btnm->btn_cnt; i++) {
 947:lvgl/src/widgets/lv_btnmatrix.c ****         lv_area_copy(&btn_area, &btnm->button_areas[i]);
 948:lvgl/src/widgets/lv_btnmatrix.c ****         if(btn_area.x1 <= pleft) btn_area.x1 += obj_cords.x1 - LV_MIN(pleft, BTN_EXTRA_CLICK_AREA_M
 949:lvgl/src/widgets/lv_btnmatrix.c ****         else btn_area.x1 += obj_cords.x1 - pcol;
 950:lvgl/src/widgets/lv_btnmatrix.c **** 
 951:lvgl/src/widgets/lv_btnmatrix.c ****         if(btn_area.y1 <= ptop) btn_area.y1 += obj_cords.y1 - LV_MIN(ptop, BTN_EXTRA_CLICK_AREA_MAX
ARM GAS  C:\usertemp\ccuzpgLf.s 			page 22


 952:lvgl/src/widgets/lv_btnmatrix.c ****         else btn_area.y1 += obj_cords.y1 - prow;
 953:lvgl/src/widgets/lv_btnmatrix.c **** 
 954:lvgl/src/widgets/lv_btnmatrix.c ****         if(btn_area.x2 >= w - pright - 2) btn_area.x2 += obj_cords.x1 + LV_MIN(pright,
 955:lvgl/src/widgets/lv_btnmatrix.c ****                                                                                    BTN_EXTRA_CLICK_
 956:lvgl/src/widgets/lv_btnmatrix.c ****         else btn_area.x2 += obj_cords.x1 + pcol;
 957:lvgl/src/widgets/lv_btnmatrix.c **** 
 958:lvgl/src/widgets/lv_btnmatrix.c ****         if(btn_area.y2 >= h - pbottom - 2) btn_area.y2 += obj_cords.y1 + LV_MIN(pbottom,
 959:lvgl/src/widgets/lv_btnmatrix.c ****                                                                                     BTN_EXTRA_CLICK
 960:lvgl/src/widgets/lv_btnmatrix.c ****         else btn_area.y2 += obj_cords.y1 + prow;
 961:lvgl/src/widgets/lv_btnmatrix.c **** 
 962:lvgl/src/widgets/lv_btnmatrix.c ****         if(_lv_area_is_point_on(&btn_area, p, 0) != false) {
 963:lvgl/src/widgets/lv_btnmatrix.c ****             break;
 964:lvgl/src/widgets/lv_btnmatrix.c ****         }
 965:lvgl/src/widgets/lv_btnmatrix.c ****     }
 966:lvgl/src/widgets/lv_btnmatrix.c **** 
 967:lvgl/src/widgets/lv_btnmatrix.c ****     if(i == btnm->btn_cnt) i = LV_BTNMATRIX_BTN_NONE;
 968:lvgl/src/widgets/lv_btnmatrix.c **** 
 969:lvgl/src/widgets/lv_btnmatrix.c ****     return i;
 970:lvgl/src/widgets/lv_btnmatrix.c **** }
 971:lvgl/src/widgets/lv_btnmatrix.c **** 
 972:lvgl/src/widgets/lv_btnmatrix.c **** static void invalidate_button_area(const lv_obj_t * obj, uint16_t btn_idx)
 973:lvgl/src/widgets/lv_btnmatrix.c **** {
 974:lvgl/src/widgets/lv_btnmatrix.c ****     if(btn_idx == LV_BTNMATRIX_BTN_NONE) return;
 975:lvgl/src/widgets/lv_btnmatrix.c **** 
 976:lvgl/src/widgets/lv_btnmatrix.c ****     lv_area_t btn_area;
 977:lvgl/src/widgets/lv_btnmatrix.c ****     lv_area_t obj_area;
 978:lvgl/src/widgets/lv_btnmatrix.c **** 
 979:lvgl/src/widgets/lv_btnmatrix.c ****     lv_btnmatrix_t * btnm = (lv_btnmatrix_t *)obj;;
 980:lvgl/src/widgets/lv_btnmatrix.c ****     if(btn_idx >= btnm->btn_cnt) return;
 981:lvgl/src/widgets/lv_btnmatrix.c **** 
 982:lvgl/src/widgets/lv_btnmatrix.c ****     lv_area_copy(&btn_area, &btnm->button_areas[btn_idx]);
 983:lvgl/src/widgets/lv_btnmatrix.c ****     lv_obj_get_coords(obj, &obj_area);
 984:lvgl/src/widgets/lv_btnmatrix.c **** 
 985:lvgl/src/widgets/lv_btnmatrix.c ****     /*The buttons might have outline and shadow so make the invalidation larger with the gaps betwe
 986:lvgl/src/widgets/lv_btnmatrix.c ****      *It assumes that the outline or shadow is smaller than the gaps*/
 987:lvgl/src/widgets/lv_btnmatrix.c ****     lv_coord_t row_gap = lv_obj_get_style_pad_row(obj, LV_PART_MAIN);
 988:lvgl/src/widgets/lv_btnmatrix.c ****     lv_coord_t col_gap = lv_obj_get_style_pad_column(obj, LV_PART_MAIN);
 989:lvgl/src/widgets/lv_btnmatrix.c **** 
 990:lvgl/src/widgets/lv_btnmatrix.c ****     /*Be sure to have a minimal extra space if row/col_gap is small*/
 991:lvgl/src/widgets/lv_btnmatrix.c ****     lv_coord_t dpi = lv_disp_get_dpi(lv_obj_get_disp(obj));
 992:lvgl/src/widgets/lv_btnmatrix.c ****     row_gap = LV_MAX(row_gap, dpi / 10);
 993:lvgl/src/widgets/lv_btnmatrix.c ****     col_gap = LV_MAX(col_gap, dpi / 10);
 994:lvgl/src/widgets/lv_btnmatrix.c **** 
 995:lvgl/src/widgets/lv_btnmatrix.c ****     /*Convert relative coordinates to absolute*/
 996:lvgl/src/widgets/lv_btnmatrix.c ****     btn_area.x1 += obj_area.x1 - row_gap;
 997:lvgl/src/widgets/lv_btnmatrix.c ****     btn_area.y1 += obj_area.y1 - col_gap;
 998:lvgl/src/widgets/lv_btnmatrix.c ****     btn_area.x2 += obj_area.x1 + row_gap;
 999:lvgl/src/widgets/lv_btnmatrix.c ****     btn_area.y2 += obj_area.y1 + col_gap;
1000:lvgl/src/widgets/lv_btnmatrix.c **** 
1001:lvgl/src/widgets/lv_btnmatrix.c ****     if((btn_idx == btnm->btn_id_sel) && (btnm->ctrl_bits[btn_idx] & LV_BTNMATRIX_CTRL_POPOVER)) {
1002:lvgl/src/widgets/lv_btnmatrix.c ****         /*Push up the upper boundary of the btn area to also invalidate the popover*/
1003:lvgl/src/widgets/lv_btnmatrix.c ****         btn_area.y1 -= lv_area_get_height(&btn_area);
1004:lvgl/src/widgets/lv_btnmatrix.c ****     }
1005:lvgl/src/widgets/lv_btnmatrix.c **** 
1006:lvgl/src/widgets/lv_btnmatrix.c ****     lv_obj_invalidate_area(obj, &btn_area);
1007:lvgl/src/widgets/lv_btnmatrix.c **** }
1008:lvgl/src/widgets/lv_btnmatrix.c **** 
ARM GAS  C:\usertemp\ccuzpgLf.s 			page 23


1009:lvgl/src/widgets/lv_btnmatrix.c **** /**
1010:lvgl/src/widgets/lv_btnmatrix.c ****  * Enforces a single button being toggled on the button matrix.
1011:lvgl/src/widgets/lv_btnmatrix.c ****  * It simply clears the toggle flag on other buttons.
1012:lvgl/src/widgets/lv_btnmatrix.c ****  * @param obj Button matrix object
1013:lvgl/src/widgets/lv_btnmatrix.c ****  * @param btn_idx Button that should remain toggled
1014:lvgl/src/widgets/lv_btnmatrix.c ****  */
1015:lvgl/src/widgets/lv_btnmatrix.c **** static void make_one_button_checked(lv_obj_t * obj, uint16_t btn_idx)
1016:lvgl/src/widgets/lv_btnmatrix.c **** {
1017:lvgl/src/widgets/lv_btnmatrix.c ****     /*Save whether the button was toggled*/
1018:lvgl/src/widgets/lv_btnmatrix.c ****     bool was_toggled = lv_btnmatrix_has_btn_ctrl(obj, btn_idx, LV_BTNMATRIX_CTRL_CHECKED);
1019:lvgl/src/widgets/lv_btnmatrix.c **** 
1020:lvgl/src/widgets/lv_btnmatrix.c ****     lv_btnmatrix_clear_btn_ctrl_all(obj, LV_BTNMATRIX_CTRL_CHECKED);
1021:lvgl/src/widgets/lv_btnmatrix.c **** 
1022:lvgl/src/widgets/lv_btnmatrix.c ****     if(was_toggled) lv_btnmatrix_set_btn_ctrl(obj, btn_idx, LV_BTNMATRIX_CTRL_CHECKED);
1023:lvgl/src/widgets/lv_btnmatrix.c **** }
1024:lvgl/src/widgets/lv_btnmatrix.c **** 
1025:lvgl/src/widgets/lv_btnmatrix.c **** /**
1026:lvgl/src/widgets/lv_btnmatrix.c ****  * Check if any of the buttons in the first row has the LV_BTNMATRIX_CTRL_POPOVER control flag set.
1027:lvgl/src/widgets/lv_btnmatrix.c ****  * @param obj Button matrix object
1028:lvgl/src/widgets/lv_btnmatrix.c ****  * @return true if at least one button has the flag, false otherwise
1029:lvgl/src/widgets/lv_btnmatrix.c ****  */
1030:lvgl/src/widgets/lv_btnmatrix.c **** static bool has_popovers_in_top_row(lv_obj_t * obj)
1031:lvgl/src/widgets/lv_btnmatrix.c **** {
 268              		.loc 1 1031 1 is_stmt 1 view -0
 269              		.cfi_startproc
 270              		@ args = 0, pretend = 0, frame = 0
 271              		@ frame_needed = 0, uses_anonymous_args = 0
1032:lvgl/src/widgets/lv_btnmatrix.c ****     lv_btnmatrix_t * btnm = (lv_btnmatrix_t *)obj;
 272              		.loc 1 1032 5 view .LVU44
1033:lvgl/src/widgets/lv_btnmatrix.c **** 
1034:lvgl/src/widgets/lv_btnmatrix.c ****     if(btnm->row_cnt <= 0) {
 273              		.loc 1 1034 5 view .LVU45
 274              		.loc 1 1034 12 is_stmt 0 view .LVU46
 275 0000 438E     		ldrh	r3, [r0, #50]
 276              		.loc 1 1034 7 view .LVU47
 277 0002 D3B1     		cbz	r3, .L17
1031:lvgl/src/widgets/lv_btnmatrix.c ****     lv_btnmatrix_t * btnm = (lv_btnmatrix_t *)obj;
 278              		.loc 1 1031 1 view .LVU48
 279 0004 2DE9F041 		push	{r4, r5, r6, r7, r8, lr}
 280              	.LCFI0:
 281              		.cfi_def_cfa_offset 24
 282              		.cfi_offset 4, -24
 283              		.cfi_offset 5, -20
 284              		.cfi_offset 6, -16
 285              		.cfi_offset 7, -12
 286              		.cfi_offset 8, -8
 287              		.cfi_offset 14, -4
 288 0008 0746     		mov	r7, r0
1035:lvgl/src/widgets/lv_btnmatrix.c ****         return false;
1036:lvgl/src/widgets/lv_btnmatrix.c ****     }
1037:lvgl/src/widgets/lv_btnmatrix.c **** 
1038:lvgl/src/widgets/lv_btnmatrix.c ****     const char ** map_row = btnm->map_p;
 289              		.loc 1 1038 5 is_stmt 1 view .LVU49
 290              		.loc 1 1038 19 is_stmt 0 view .LVU50
 291 000a D0F82480 		ldr	r8, [r0, #36]
 292              	.LVL21:
1039:lvgl/src/widgets/lv_btnmatrix.c ****     uint16_t btn_cnt = 0;
ARM GAS  C:\usertemp\ccuzpgLf.s 			page 24


 293              		.loc 1 1039 5 is_stmt 1 view .LVU51
1040:lvgl/src/widgets/lv_btnmatrix.c **** 
1041:lvgl/src/widgets/lv_btnmatrix.c ****     while(map_row[btn_cnt] && strcmp(map_row[btn_cnt], "\n") != 0 && map_row[btn_cnt][0] != '\0') {
 294              		.loc 1 1041 5 view .LVU52
1039:lvgl/src/widgets/lv_btnmatrix.c ****     uint16_t btn_cnt = 0;
 295              		.loc 1 1039 14 is_stmt 0 view .LVU53
 296 000e 0024     		movs	r4, #0
 297              	.LVL22:
 298              	.L15:
 299              		.loc 1 1041 67 is_stmt 1 view .LVU54
 300              		.loc 1 1041 18 is_stmt 0 view .LVU55
 301 0010 2646     		mov	r6, r4
 302 0012 58F82450 		ldr	r5, [r8, r4, lsl #2]
 303              		.loc 1 1041 67 view .LVU56
 304 0016 9DB1     		cbz	r5, .L18
 305              		.loc 1 1041 31 discriminator 1 view .LVU57
 306 0018 0C49     		ldr	r1, .L24
 307 001a 2846     		mov	r0, r5
 308 001c FFF7FEFF 		bl	strcmp
 309              	.LVL23:
 310              		.loc 1 1041 28 discriminator 1 view .LVU58
 311 0020 90B1     		cbz	r0, .L19
 312              		.loc 1 1041 86 discriminator 2 view .LVU59
 313 0022 2B78     		ldrb	r3, [r5]	@ zero_extendqisi2
 314              		.loc 1 1041 67 discriminator 2 view .LVU60
 315 0024 6BB1     		cbz	r3, .L14
1042:lvgl/src/widgets/lv_btnmatrix.c ****         if(button_is_popover(btnm->ctrl_bits[btn_cnt])) {
 316              		.loc 1 1042 9 is_stmt 1 view .LVU61
 317              		.loc 1 1042 34 is_stmt 0 view .LVU62
 318 0026 FB6A     		ldr	r3, [r7, #44]
 319              		.loc 1 1042 12 view .LVU63
 320 0028 33F81600 		ldrh	r0, [r3, r6, lsl #1]
 321 002c FFF7FEFF 		bl	button_is_popover
 322              	.LVL24:
 323              		.loc 1 1042 11 discriminator 1 view .LVU64
 324 0030 0346     		mov	r3, r0
 325 0032 30B9     		cbnz	r0, .L14
1043:lvgl/src/widgets/lv_btnmatrix.c ****             return true;
1044:lvgl/src/widgets/lv_btnmatrix.c ****         }
1045:lvgl/src/widgets/lv_btnmatrix.c ****         btn_cnt++;
 326              		.loc 1 1045 9 is_stmt 1 view .LVU65
 327              		.loc 1 1045 16 is_stmt 0 view .LVU66
 328 0034 0134     		adds	r4, r4, #1
 329              	.LVL25:
 330              		.loc 1 1045 16 view .LVU67
 331 0036 A4B2     		uxth	r4, r4
 332              	.LVL26:
 333              		.loc 1 1045 16 view .LVU68
 334 0038 EAE7     		b	.L15
 335              	.LVL27:
 336              	.L17:
 337              	.LCFI1:
 338              		.cfi_def_cfa_offset 0
 339              		.cfi_restore 4
 340              		.cfi_restore 5
 341              		.cfi_restore 6
 342              		.cfi_restore 7
ARM GAS  C:\usertemp\ccuzpgLf.s 			page 25


 343              		.cfi_restore 8
 344              		.cfi_restore 14
1035:lvgl/src/widgets/lv_btnmatrix.c ****     }
 345              		.loc 1 1035 16 view .LVU69
 346 003a 0023     		movs	r3, #0
1046:lvgl/src/widgets/lv_btnmatrix.c ****     }
1047:lvgl/src/widgets/lv_btnmatrix.c **** 
1048:lvgl/src/widgets/lv_btnmatrix.c ****     return false;
1049:lvgl/src/widgets/lv_btnmatrix.c **** }
 347              		.loc 1 1049 1 view .LVU70
 348 003c 1846     		mov	r0, r3
 349              	.LVL28:
 350              		.loc 1 1049 1 view .LVU71
 351 003e 7047     		bx	lr
 352              	.LVL29:
 353              	.L18:
 354              	.LCFI2:
 355              		.cfi_def_cfa_offset 24
 356              		.cfi_offset 4, -24
 357              		.cfi_offset 5, -20
 358              		.cfi_offset 6, -16
 359              		.cfi_offset 7, -12
 360              		.cfi_offset 8, -8
 361              		.cfi_offset 14, -4
1048:lvgl/src/widgets/lv_btnmatrix.c **** }
 362              		.loc 1 1048 12 view .LVU72
 363 0040 0023     		movs	r3, #0
 364              	.L14:
 365              		.loc 1 1049 1 view .LVU73
 366 0042 1846     		mov	r0, r3
 367 0044 BDE8F081 		pop	{r4, r5, r6, r7, r8, pc}
 368              	.LVL30:
 369              	.L19:
1048:lvgl/src/widgets/lv_btnmatrix.c **** }
 370              		.loc 1 1048 12 view .LVU74
 371 0048 0023     		movs	r3, #0
 372 004a FAE7     		b	.L14
 373              	.L25:
 374              		.align	2
 375              	.L24:
 376 004c 00000000 		.word	.LC0
 377              		.cfi_endproc
 378              	.LFE189:
 380              		.section	.text.get_button_from_point,"ax",%progbits
 381              		.align	1
 382              		.syntax unified
 383              		.thumb
 384              		.thumb_func
 386              	get_button_from_point:
 387              	.LVL31:
 388              	.LFB186:
 920:lvgl/src/widgets/lv_btnmatrix.c ****     lv_area_t obj_cords;
 389              		.loc 1 920 1 is_stmt 1 view -0
 390              		.cfi_startproc
 391              		@ args = 0, pretend = 0, frame = 32
 392              		@ frame_needed = 0, uses_anonymous_args = 0
 920:lvgl/src/widgets/lv_btnmatrix.c ****     lv_area_t obj_cords;
ARM GAS  C:\usertemp\ccuzpgLf.s 			page 26


 393              		.loc 1 920 1 is_stmt 0 view .LVU76
 394 0000 2DE9F04F 		push	{r4, r5, r6, r7, r8, r9, r10, fp, lr}
 395              	.LCFI3:
 396              		.cfi_def_cfa_offset 36
 397              		.cfi_offset 4, -36
 398              		.cfi_offset 5, -32
 399              		.cfi_offset 6, -28
 400              		.cfi_offset 7, -24
 401              		.cfi_offset 8, -20
 402              		.cfi_offset 9, -16
 403              		.cfi_offset 10, -12
 404              		.cfi_offset 11, -8
 405              		.cfi_offset 14, -4
 406 0004 89B0     		sub	sp, sp, #36
 407              	.LCFI4:
 408              		.cfi_def_cfa_offset 72
 409 0006 0546     		mov	r5, r0
 410 0008 0391     		str	r1, [sp, #12]
 921:lvgl/src/widgets/lv_btnmatrix.c ****     lv_area_t btn_area;
 411              		.loc 1 921 5 is_stmt 1 view .LVU77
 922:lvgl/src/widgets/lv_btnmatrix.c ****     lv_btnmatrix_t * btnm = (lv_btnmatrix_t *)obj;;
 412              		.loc 1 922 5 view .LVU78
 923:lvgl/src/widgets/lv_btnmatrix.c ****     uint16_t i;
 413              		.loc 1 923 5 view .LVU79
 414              	.LVL32:
 923:lvgl/src/widgets/lv_btnmatrix.c ****     uint16_t i;
 415              		.loc 1 923 51 view .LVU80
 924:lvgl/src/widgets/lv_btnmatrix.c ****     lv_obj_get_coords(obj, &obj_cords);
 416              		.loc 1 924 5 view .LVU81
 925:lvgl/src/widgets/lv_btnmatrix.c **** 
 417              		.loc 1 925 5 view .LVU82
 418 000a 06A9     		add	r1, sp, #24
 419              	.LVL33:
 925:lvgl/src/widgets/lv_btnmatrix.c **** 
 420              		.loc 1 925 5 is_stmt 0 view .LVU83
 421 000c FFF7FEFF 		bl	lv_obj_get_coords
 422              	.LVL34:
 927:lvgl/src/widgets/lv_btnmatrix.c ****     lv_coord_t h = lv_obj_get_height(obj);
 423              		.loc 1 927 5 is_stmt 1 view .LVU84
 927:lvgl/src/widgets/lv_btnmatrix.c ****     lv_coord_t h = lv_obj_get_height(obj);
 424              		.loc 1 927 20 is_stmt 0 view .LVU85
 425 0010 2846     		mov	r0, r5
 426 0012 FFF7FEFF 		bl	lv_obj_get_width
 427              	.LVL35:
 428 0016 0190     		str	r0, [sp, #4]
 429              	.LVL36:
 928:lvgl/src/widgets/lv_btnmatrix.c ****     lv_coord_t pleft = lv_obj_get_style_pad_left(obj, LV_PART_MAIN);
 430              		.loc 1 928 5 is_stmt 1 view .LVU86
 928:lvgl/src/widgets/lv_btnmatrix.c ****     lv_coord_t pleft = lv_obj_get_style_pad_left(obj, LV_PART_MAIN);
 431              		.loc 1 928 20 is_stmt 0 view .LVU87
 432 0018 2846     		mov	r0, r5
 433 001a FFF7FEFF 		bl	lv_obj_get_height
 434              	.LVL37:
 435 001e 0290     		str	r0, [sp, #8]
 436              	.LVL38:
 929:lvgl/src/widgets/lv_btnmatrix.c ****     lv_coord_t pright = lv_obj_get_style_pad_right(obj, LV_PART_MAIN);
 437              		.loc 1 929 5 is_stmt 1 view .LVU88
ARM GAS  C:\usertemp\ccuzpgLf.s 			page 27


 438              	.LBB79:
 439              	.LBI79:
 440              		.file 2 "lvgl/src/widgets/../core/lv_obj_style_gen.h"
   1:lvgl/src/widgets/../core/lv_obj_style_gen.h **** static inline lv_coord_t lv_obj_get_style_width(const struct _lv_obj_t * obj, uint32_t part)
   2:lvgl/src/widgets/../core/lv_obj_style_gen.h **** {
   3:lvgl/src/widgets/../core/lv_obj_style_gen.h ****     lv_style_value_t v = lv_obj_get_style_prop(obj, part, LV_STYLE_WIDTH);
   4:lvgl/src/widgets/../core/lv_obj_style_gen.h ****     return (lv_coord_t)v.num;
   5:lvgl/src/widgets/../core/lv_obj_style_gen.h **** }
   6:lvgl/src/widgets/../core/lv_obj_style_gen.h **** 
   7:lvgl/src/widgets/../core/lv_obj_style_gen.h **** static inline lv_coord_t lv_obj_get_style_min_width(const struct _lv_obj_t * obj, uint32_t part)
   8:lvgl/src/widgets/../core/lv_obj_style_gen.h **** {
   9:lvgl/src/widgets/../core/lv_obj_style_gen.h ****     lv_style_value_t v = lv_obj_get_style_prop(obj, part, LV_STYLE_MIN_WIDTH);
  10:lvgl/src/widgets/../core/lv_obj_style_gen.h ****     return (lv_coord_t)v.num;
  11:lvgl/src/widgets/../core/lv_obj_style_gen.h **** }
  12:lvgl/src/widgets/../core/lv_obj_style_gen.h **** 
  13:lvgl/src/widgets/../core/lv_obj_style_gen.h **** static inline lv_coord_t lv_obj_get_style_max_width(const struct _lv_obj_t * obj, uint32_t part)
  14:lvgl/src/widgets/../core/lv_obj_style_gen.h **** {
  15:lvgl/src/widgets/../core/lv_obj_style_gen.h ****     lv_style_value_t v = lv_obj_get_style_prop(obj, part, LV_STYLE_MAX_WIDTH);
  16:lvgl/src/widgets/../core/lv_obj_style_gen.h ****     return (lv_coord_t)v.num;
  17:lvgl/src/widgets/../core/lv_obj_style_gen.h **** }
  18:lvgl/src/widgets/../core/lv_obj_style_gen.h **** 
  19:lvgl/src/widgets/../core/lv_obj_style_gen.h **** static inline lv_coord_t lv_obj_get_style_height(const struct _lv_obj_t * obj, uint32_t part)
  20:lvgl/src/widgets/../core/lv_obj_style_gen.h **** {
  21:lvgl/src/widgets/../core/lv_obj_style_gen.h ****     lv_style_value_t v = lv_obj_get_style_prop(obj, part, LV_STYLE_HEIGHT);
  22:lvgl/src/widgets/../core/lv_obj_style_gen.h ****     return (lv_coord_t)v.num;
  23:lvgl/src/widgets/../core/lv_obj_style_gen.h **** }
  24:lvgl/src/widgets/../core/lv_obj_style_gen.h **** 
  25:lvgl/src/widgets/../core/lv_obj_style_gen.h **** static inline lv_coord_t lv_obj_get_style_min_height(const struct _lv_obj_t * obj, uint32_t part)
  26:lvgl/src/widgets/../core/lv_obj_style_gen.h **** {
  27:lvgl/src/widgets/../core/lv_obj_style_gen.h ****     lv_style_value_t v = lv_obj_get_style_prop(obj, part, LV_STYLE_MIN_HEIGHT);
  28:lvgl/src/widgets/../core/lv_obj_style_gen.h ****     return (lv_coord_t)v.num;
  29:lvgl/src/widgets/../core/lv_obj_style_gen.h **** }
  30:lvgl/src/widgets/../core/lv_obj_style_gen.h **** 
  31:lvgl/src/widgets/../core/lv_obj_style_gen.h **** static inline lv_coord_t lv_obj_get_style_max_height(const struct _lv_obj_t * obj, uint32_t part)
  32:lvgl/src/widgets/../core/lv_obj_style_gen.h **** {
  33:lvgl/src/widgets/../core/lv_obj_style_gen.h ****     lv_style_value_t v = lv_obj_get_style_prop(obj, part, LV_STYLE_MAX_HEIGHT);
  34:lvgl/src/widgets/../core/lv_obj_style_gen.h ****     return (lv_coord_t)v.num;
  35:lvgl/src/widgets/../core/lv_obj_style_gen.h **** }
  36:lvgl/src/widgets/../core/lv_obj_style_gen.h **** 
  37:lvgl/src/widgets/../core/lv_obj_style_gen.h **** static inline lv_coord_t lv_obj_get_style_x(const struct _lv_obj_t * obj, uint32_t part)
  38:lvgl/src/widgets/../core/lv_obj_style_gen.h **** {
  39:lvgl/src/widgets/../core/lv_obj_style_gen.h ****     lv_style_value_t v = lv_obj_get_style_prop(obj, part, LV_STYLE_X);
  40:lvgl/src/widgets/../core/lv_obj_style_gen.h ****     return (lv_coord_t)v.num;
  41:lvgl/src/widgets/../core/lv_obj_style_gen.h **** }
  42:lvgl/src/widgets/../core/lv_obj_style_gen.h **** 
  43:lvgl/src/widgets/../core/lv_obj_style_gen.h **** static inline lv_coord_t lv_obj_get_style_y(const struct _lv_obj_t * obj, uint32_t part)
  44:lvgl/src/widgets/../core/lv_obj_style_gen.h **** {
  45:lvgl/src/widgets/../core/lv_obj_style_gen.h ****     lv_style_value_t v = lv_obj_get_style_prop(obj, part, LV_STYLE_Y);
  46:lvgl/src/widgets/../core/lv_obj_style_gen.h ****     return (lv_coord_t)v.num;
  47:lvgl/src/widgets/../core/lv_obj_style_gen.h **** }
  48:lvgl/src/widgets/../core/lv_obj_style_gen.h **** 
  49:lvgl/src/widgets/../core/lv_obj_style_gen.h **** static inline lv_align_t lv_obj_get_style_align(const struct _lv_obj_t * obj, uint32_t part)
  50:lvgl/src/widgets/../core/lv_obj_style_gen.h **** {
  51:lvgl/src/widgets/../core/lv_obj_style_gen.h ****     lv_style_value_t v = lv_obj_get_style_prop(obj, part, LV_STYLE_ALIGN);
  52:lvgl/src/widgets/../core/lv_obj_style_gen.h ****     return (lv_align_t)v.num;
  53:lvgl/src/widgets/../core/lv_obj_style_gen.h **** }
  54:lvgl/src/widgets/../core/lv_obj_style_gen.h **** 
ARM GAS  C:\usertemp\ccuzpgLf.s 			page 28


  55:lvgl/src/widgets/../core/lv_obj_style_gen.h **** static inline lv_coord_t lv_obj_get_style_transform_width(const struct _lv_obj_t * obj, uint32_t pa
  56:lvgl/src/widgets/../core/lv_obj_style_gen.h **** {
  57:lvgl/src/widgets/../core/lv_obj_style_gen.h ****     lv_style_value_t v = lv_obj_get_style_prop(obj, part, LV_STYLE_TRANSFORM_WIDTH);
  58:lvgl/src/widgets/../core/lv_obj_style_gen.h ****     return (lv_coord_t)v.num;
  59:lvgl/src/widgets/../core/lv_obj_style_gen.h **** }
  60:lvgl/src/widgets/../core/lv_obj_style_gen.h **** 
  61:lvgl/src/widgets/../core/lv_obj_style_gen.h **** static inline lv_coord_t lv_obj_get_style_transform_height(const struct _lv_obj_t * obj, uint32_t p
  62:lvgl/src/widgets/../core/lv_obj_style_gen.h **** {
  63:lvgl/src/widgets/../core/lv_obj_style_gen.h ****     lv_style_value_t v = lv_obj_get_style_prop(obj, part, LV_STYLE_TRANSFORM_HEIGHT);
  64:lvgl/src/widgets/../core/lv_obj_style_gen.h ****     return (lv_coord_t)v.num;
  65:lvgl/src/widgets/../core/lv_obj_style_gen.h **** }
  66:lvgl/src/widgets/../core/lv_obj_style_gen.h **** 
  67:lvgl/src/widgets/../core/lv_obj_style_gen.h **** static inline lv_coord_t lv_obj_get_style_translate_x(const struct _lv_obj_t * obj, uint32_t part)
  68:lvgl/src/widgets/../core/lv_obj_style_gen.h **** {
  69:lvgl/src/widgets/../core/lv_obj_style_gen.h ****     lv_style_value_t v = lv_obj_get_style_prop(obj, part, LV_STYLE_TRANSLATE_X);
  70:lvgl/src/widgets/../core/lv_obj_style_gen.h ****     return (lv_coord_t)v.num;
  71:lvgl/src/widgets/../core/lv_obj_style_gen.h **** }
  72:lvgl/src/widgets/../core/lv_obj_style_gen.h **** 
  73:lvgl/src/widgets/../core/lv_obj_style_gen.h **** static inline lv_coord_t lv_obj_get_style_translate_y(const struct _lv_obj_t * obj, uint32_t part)
  74:lvgl/src/widgets/../core/lv_obj_style_gen.h **** {
  75:lvgl/src/widgets/../core/lv_obj_style_gen.h ****     lv_style_value_t v = lv_obj_get_style_prop(obj, part, LV_STYLE_TRANSLATE_Y);
  76:lvgl/src/widgets/../core/lv_obj_style_gen.h ****     return (lv_coord_t)v.num;
  77:lvgl/src/widgets/../core/lv_obj_style_gen.h **** }
  78:lvgl/src/widgets/../core/lv_obj_style_gen.h **** 
  79:lvgl/src/widgets/../core/lv_obj_style_gen.h **** static inline lv_coord_t lv_obj_get_style_transform_zoom(const struct _lv_obj_t * obj, uint32_t par
  80:lvgl/src/widgets/../core/lv_obj_style_gen.h **** {
  81:lvgl/src/widgets/../core/lv_obj_style_gen.h ****     lv_style_value_t v = lv_obj_get_style_prop(obj, part, LV_STYLE_TRANSFORM_ZOOM);
  82:lvgl/src/widgets/../core/lv_obj_style_gen.h ****     return (lv_coord_t)v.num;
  83:lvgl/src/widgets/../core/lv_obj_style_gen.h **** }
  84:lvgl/src/widgets/../core/lv_obj_style_gen.h **** 
  85:lvgl/src/widgets/../core/lv_obj_style_gen.h **** static inline lv_coord_t lv_obj_get_style_transform_angle(const struct _lv_obj_t * obj, uint32_t pa
  86:lvgl/src/widgets/../core/lv_obj_style_gen.h **** {
  87:lvgl/src/widgets/../core/lv_obj_style_gen.h ****     lv_style_value_t v = lv_obj_get_style_prop(obj, part, LV_STYLE_TRANSFORM_ANGLE);
  88:lvgl/src/widgets/../core/lv_obj_style_gen.h ****     return (lv_coord_t)v.num;
  89:lvgl/src/widgets/../core/lv_obj_style_gen.h **** }
  90:lvgl/src/widgets/../core/lv_obj_style_gen.h **** 
  91:lvgl/src/widgets/../core/lv_obj_style_gen.h **** static inline lv_coord_t lv_obj_get_style_pad_top(const struct _lv_obj_t * obj, uint32_t part)
  92:lvgl/src/widgets/../core/lv_obj_style_gen.h **** {
  93:lvgl/src/widgets/../core/lv_obj_style_gen.h ****     lv_style_value_t v = lv_obj_get_style_prop(obj, part, LV_STYLE_PAD_TOP);
  94:lvgl/src/widgets/../core/lv_obj_style_gen.h ****     return (lv_coord_t)v.num;
  95:lvgl/src/widgets/../core/lv_obj_style_gen.h **** }
  96:lvgl/src/widgets/../core/lv_obj_style_gen.h **** 
  97:lvgl/src/widgets/../core/lv_obj_style_gen.h **** static inline lv_coord_t lv_obj_get_style_pad_bottom(const struct _lv_obj_t * obj, uint32_t part)
  98:lvgl/src/widgets/../core/lv_obj_style_gen.h **** {
  99:lvgl/src/widgets/../core/lv_obj_style_gen.h ****     lv_style_value_t v = lv_obj_get_style_prop(obj, part, LV_STYLE_PAD_BOTTOM);
 100:lvgl/src/widgets/../core/lv_obj_style_gen.h ****     return (lv_coord_t)v.num;
 101:lvgl/src/widgets/../core/lv_obj_style_gen.h **** }
 102:lvgl/src/widgets/../core/lv_obj_style_gen.h **** 
 103:lvgl/src/widgets/../core/lv_obj_style_gen.h **** static inline lv_coord_t lv_obj_get_style_pad_left(const struct _lv_obj_t * obj, uint32_t part)
 441              		.loc 2 103 26 view .LVU89
 442              	.LBB80:
 104:lvgl/src/widgets/../core/lv_obj_style_gen.h **** {
 105:lvgl/src/widgets/../core/lv_obj_style_gen.h ****     lv_style_value_t v = lv_obj_get_style_prop(obj, part, LV_STYLE_PAD_LEFT);
 443              		.loc 2 105 5 view .LVU90
 444              		.loc 2 105 26 is_stmt 0 view .LVU91
 445 0020 41F61202 		movw	r2, #6162
 446 0024 0021     		movs	r1, #0
ARM GAS  C:\usertemp\ccuzpgLf.s 			page 29


 447 0026 2846     		mov	r0, r5
 448 0028 FFF7FEFF 		bl	lv_obj_get_style_prop
 449              	.LVL39:
 106:lvgl/src/widgets/../core/lv_obj_style_gen.h ****     return (lv_coord_t)v.num;
 450              		.loc 2 106 5 is_stmt 1 view .LVU92
 451              		.loc 2 106 12 is_stmt 0 view .LVU93
 452 002c 0FFA80FB 		sxth	fp, r0
 453              	.LVL40:
 454              		.loc 2 106 12 view .LVU94
 455              	.LBE80:
 456              	.LBE79:
 930:lvgl/src/widgets/lv_btnmatrix.c ****     lv_coord_t ptop = lv_obj_get_style_pad_top(obj, LV_PART_MAIN);
 457              		.loc 1 930 5 is_stmt 1 view .LVU95
 458              	.LBB81:
 459              	.LBI81:
 107:lvgl/src/widgets/../core/lv_obj_style_gen.h **** }
 108:lvgl/src/widgets/../core/lv_obj_style_gen.h **** 
 109:lvgl/src/widgets/../core/lv_obj_style_gen.h **** static inline lv_coord_t lv_obj_get_style_pad_right(const struct _lv_obj_t * obj, uint32_t part)
 460              		.loc 2 109 26 view .LVU96
 461              	.LBB82:
 110:lvgl/src/widgets/../core/lv_obj_style_gen.h **** {
 111:lvgl/src/widgets/../core/lv_obj_style_gen.h ****     lv_style_value_t v = lv_obj_get_style_prop(obj, part, LV_STYLE_PAD_RIGHT);
 462              		.loc 2 111 5 view .LVU97
 463              		.loc 2 111 26 is_stmt 0 view .LVU98
 464 0030 41F61302 		movw	r2, #6163
 465 0034 0021     		movs	r1, #0
 466 0036 2846     		mov	r0, r5
 467 0038 FFF7FEFF 		bl	lv_obj_get_style_prop
 468              	.LVL41:
 112:lvgl/src/widgets/../core/lv_obj_style_gen.h ****     return (lv_coord_t)v.num;
 469              		.loc 2 112 5 is_stmt 1 view .LVU99
 470              		.loc 2 112 12 is_stmt 0 view .LVU100
 471 003c 0FFA80FA 		sxth	r10, r0
 472              	.LVL42:
 473              		.loc 2 112 12 view .LVU101
 474              	.LBE82:
 475              	.LBE81:
 931:lvgl/src/widgets/lv_btnmatrix.c ****     lv_coord_t pbottom = lv_obj_get_style_pad_bottom(obj, LV_PART_MAIN);
 476              		.loc 1 931 5 is_stmt 1 view .LVU102
 477              	.LBB83:
 478              	.LBI83:
  91:lvgl/src/widgets/../core/lv_obj_style_gen.h **** {
 479              		.loc 2 91 26 view .LVU103
 480              	.LBB84:
  93:lvgl/src/widgets/../core/lv_obj_style_gen.h ****     return (lv_coord_t)v.num;
 481              		.loc 2 93 5 view .LVU104
  93:lvgl/src/widgets/../core/lv_obj_style_gen.h ****     return (lv_coord_t)v.num;
 482              		.loc 2 93 26 is_stmt 0 view .LVU105
 483 0040 41F61002 		movw	r2, #6160
 484 0044 0021     		movs	r1, #0
 485 0046 2846     		mov	r0, r5
 486 0048 FFF7FEFF 		bl	lv_obj_get_style_prop
 487              	.LVL43:
  94:lvgl/src/widgets/../core/lv_obj_style_gen.h **** }
 488              		.loc 2 94 5 is_stmt 1 view .LVU106
  94:lvgl/src/widgets/../core/lv_obj_style_gen.h **** }
 489              		.loc 2 94 12 is_stmt 0 view .LVU107
ARM GAS  C:\usertemp\ccuzpgLf.s 			page 30


 490 004c 0FFA80F9 		sxth	r9, r0
 491              	.LVL44:
  94:lvgl/src/widgets/../core/lv_obj_style_gen.h **** }
 492              		.loc 2 94 12 view .LVU108
 493              	.LBE84:
 494              	.LBE83:
 932:lvgl/src/widgets/lv_btnmatrix.c ****     lv_coord_t prow = lv_obj_get_style_pad_row(obj, LV_PART_MAIN);
 495              		.loc 1 932 5 is_stmt 1 view .LVU109
 496              	.LBB85:
 497              	.LBI85:
  97:lvgl/src/widgets/../core/lv_obj_style_gen.h **** {
 498              		.loc 2 97 26 view .LVU110
 499              	.LBB86:
  99:lvgl/src/widgets/../core/lv_obj_style_gen.h ****     return (lv_coord_t)v.num;
 500              		.loc 2 99 5 view .LVU111
  99:lvgl/src/widgets/../core/lv_obj_style_gen.h ****     return (lv_coord_t)v.num;
 501              		.loc 2 99 26 is_stmt 0 view .LVU112
 502 0050 41F61102 		movw	r2, #6161
 503 0054 0021     		movs	r1, #0
 504 0056 2846     		mov	r0, r5
 505 0058 FFF7FEFF 		bl	lv_obj_get_style_prop
 506              	.LVL45:
 100:lvgl/src/widgets/../core/lv_obj_style_gen.h **** }
 507              		.loc 2 100 5 is_stmt 1 view .LVU113
 100:lvgl/src/widgets/../core/lv_obj_style_gen.h **** }
 508              		.loc 2 100 12 is_stmt 0 view .LVU114
 509 005c 0FFA80F8 		sxth	r8, r0
 510              	.LVL46:
 100:lvgl/src/widgets/../core/lv_obj_style_gen.h **** }
 511              		.loc 2 100 12 view .LVU115
 512              	.LBE86:
 513              	.LBE85:
 933:lvgl/src/widgets/lv_btnmatrix.c ****     lv_coord_t pcol = lv_obj_get_style_pad_column(obj, LV_PART_MAIN);
 514              		.loc 1 933 5 is_stmt 1 view .LVU116
 515              	.LBB87:
 516              	.LBI87:
 113:lvgl/src/widgets/../core/lv_obj_style_gen.h **** }
 114:lvgl/src/widgets/../core/lv_obj_style_gen.h **** 
 115:lvgl/src/widgets/../core/lv_obj_style_gen.h **** static inline lv_coord_t lv_obj_get_style_pad_row(const struct _lv_obj_t * obj, uint32_t part)
 517              		.loc 2 115 26 view .LVU117
 518              	.LBB88:
 116:lvgl/src/widgets/../core/lv_obj_style_gen.h **** {
 117:lvgl/src/widgets/../core/lv_obj_style_gen.h ****     lv_style_value_t v = lv_obj_get_style_prop(obj, part, LV_STYLE_PAD_ROW);
 519              		.loc 2 117 5 view .LVU118
 520              		.loc 2 117 26 is_stmt 0 view .LVU119
 521 0060 41F61402 		movw	r2, #6164
 522 0064 0021     		movs	r1, #0
 523 0066 2846     		mov	r0, r5
 524 0068 FFF7FEFF 		bl	lv_obj_get_style_prop
 525              	.LVL47:
 526 006c 0746     		mov	r7, r0
 527              	.LVL48:
 118:lvgl/src/widgets/../core/lv_obj_style_gen.h ****     return (lv_coord_t)v.num;
 528              		.loc 2 118 5 is_stmt 1 view .LVU120
 529              		.loc 2 118 12 is_stmt 0 view .LVU121
 530 006e 06B2     		sxth	r6, r0
 531              	.LVL49:
ARM GAS  C:\usertemp\ccuzpgLf.s 			page 31


 532              		.loc 2 118 12 view .LVU122
 533              	.LBE88:
 534              	.LBE87:
 934:lvgl/src/widgets/lv_btnmatrix.c **** 
 535              		.loc 1 934 5 is_stmt 1 view .LVU123
 536              	.LBB89:
 537              	.LBI89:
 119:lvgl/src/widgets/../core/lv_obj_style_gen.h **** }
 120:lvgl/src/widgets/../core/lv_obj_style_gen.h **** 
 121:lvgl/src/widgets/../core/lv_obj_style_gen.h **** static inline lv_coord_t lv_obj_get_style_pad_column(const struct _lv_obj_t * obj, uint32_t part)
 538              		.loc 2 121 26 view .LVU124
 539              	.LBB90:
 122:lvgl/src/widgets/../core/lv_obj_style_gen.h **** {
 123:lvgl/src/widgets/../core/lv_obj_style_gen.h ****     lv_style_value_t v = lv_obj_get_style_prop(obj, part, LV_STYLE_PAD_COLUMN);
 540              		.loc 2 123 5 view .LVU125
 541              		.loc 2 123 26 is_stmt 0 view .LVU126
 542 0070 41F61502 		movw	r2, #6165
 543 0074 0021     		movs	r1, #0
 544 0076 2846     		mov	r0, r5
 545              		.loc 2 123 26 view .LVU127
 546 0078 FFF7FEFF 		bl	lv_obj_get_style_prop
 547              	.LVL50:
 124:lvgl/src/widgets/../core/lv_obj_style_gen.h ****     return (lv_coord_t)v.num;
 548              		.loc 2 124 5 is_stmt 1 view .LVU128
 549              		.loc 2 124 12 is_stmt 0 view .LVU129
 550 007c 03B2     		sxth	r3, r0
 551              	.LVL51:
 552              		.loc 2 124 12 view .LVU130
 553              	.LBE90:
 554              	.LBE89:
 937:lvgl/src/widgets/lv_btnmatrix.c ****     pcol = (pcol / 2) + 1 + (pcol & 1);
 555              		.loc 1 937 5 is_stmt 1 view .LVU131
 937:lvgl/src/widgets/lv_btnmatrix.c ****     pcol = (pcol / 2) + 1 + (pcol & 1);
 556              		.loc 1 937 35 is_stmt 0 view .LVU132
 557 007e 07F00107 		and	r7, r7, #1
 558              	.LVL52:
 937:lvgl/src/widgets/lv_btnmatrix.c ****     pcol = (pcol / 2) + 1 + (pcol & 1);
 559              		.loc 1 937 27 view .LVU133
 560 0082 3246     		mov	r2, r6
 561 0084 002E     		cmp	r6, #0
 562 0086 23DB     		blt	.L43
 563              	.L27:
 564 0088 07EB6207 		add	r7, r7, r2, asr #1
 565 008c 0137     		adds	r7, r7, #1
 937:lvgl/src/widgets/lv_btnmatrix.c ****     pcol = (pcol / 2) + 1 + (pcol & 1);
 566              		.loc 1 937 10 view .LVU134
 567 008e 3FB2     		sxth	r7, r7
 568              	.LVL53:
 938:lvgl/src/widgets/lv_btnmatrix.c **** 
 569              		.loc 1 938 5 is_stmt 1 view .LVU135
 938:lvgl/src/widgets/lv_btnmatrix.c **** 
 570              		.loc 1 938 35 is_stmt 0 view .LVU136
 571 0090 00F00106 		and	r6, r0, #1
 938:lvgl/src/widgets/lv_btnmatrix.c **** 
 572              		.loc 1 938 27 view .LVU137
 573 0094 1A46     		mov	r2, r3
 574 0096 002B     		cmp	r3, #0
ARM GAS  C:\usertemp\ccuzpgLf.s 			page 32


 575 0098 1CDB     		blt	.L44
 576              	.L28:
 577 009a 06EB6206 		add	r6, r6, r2, asr #1
 578 009e 0136     		adds	r6, r6, #1
 938:lvgl/src/widgets/lv_btnmatrix.c **** 
 579              		.loc 1 938 10 view .LVU138
 580 00a0 36B2     		sxth	r6, r6
 581              	.LVL54:
 940:lvgl/src/widgets/lv_btnmatrix.c ****     pcol = LV_MIN(pcol, BTN_EXTRA_CLICK_AREA_MAX);
 582              		.loc 1 940 5 is_stmt 1 view .LVU139
 940:lvgl/src/widgets/lv_btnmatrix.c ****     pcol = LV_MIN(pcol, BTN_EXTRA_CLICK_AREA_MAX);
 583              		.loc 1 940 10 is_stmt 0 view .LVU140
 584 00a2 0D2F     		cmp	r7, #13
 585 00a4 A8BF     		it	ge
 586 00a6 0D27     		movge	r7, #13
 587              	.LVL55:
 941:lvgl/src/widgets/lv_btnmatrix.c ****     pright = LV_MIN(pright, BTN_EXTRA_CLICK_AREA_MAX);
 588              		.loc 1 941 5 is_stmt 1 view .LVU141
 941:lvgl/src/widgets/lv_btnmatrix.c ****     pright = LV_MIN(pright, BTN_EXTRA_CLICK_AREA_MAX);
 589              		.loc 1 941 10 is_stmt 0 view .LVU142
 590 00a8 0D2E     		cmp	r6, #13
 591 00aa A8BF     		it	ge
 592 00ac 0D26     		movge	r6, #13
 593              	.LVL56:
 942:lvgl/src/widgets/lv_btnmatrix.c ****     ptop = LV_MIN(ptop, BTN_EXTRA_CLICK_AREA_MAX);
 594              		.loc 1 942 5 is_stmt 1 view .LVU143
 942:lvgl/src/widgets/lv_btnmatrix.c ****     ptop = LV_MIN(ptop, BTN_EXTRA_CLICK_AREA_MAX);
 595              		.loc 1 942 12 is_stmt 0 view .LVU144
 596 00ae BAF10D0F 		cmp	r10, #13
 597 00b2 A8BF     		it	ge
 598 00b4 4FF00D0A 		movge	r10, #13
 599              	.LVL57:
 943:lvgl/src/widgets/lv_btnmatrix.c ****     pbottom = LV_MIN(pbottom, BTN_EXTRA_CLICK_AREA_MAX);
 600              		.loc 1 943 5 is_stmt 1 view .LVU145
 943:lvgl/src/widgets/lv_btnmatrix.c ****     pbottom = LV_MIN(pbottom, BTN_EXTRA_CLICK_AREA_MAX);
 601              		.loc 1 943 10 is_stmt 0 view .LVU146
 602 00b8 B9F10D0F 		cmp	r9, #13
 603 00bc A8BF     		it	ge
 604 00be 4FF00D09 		movge	r9, #13
 605              	.LVL58:
 944:lvgl/src/widgets/lv_btnmatrix.c **** 
 606              		.loc 1 944 5 is_stmt 1 view .LVU147
 944:lvgl/src/widgets/lv_btnmatrix.c **** 
 607              		.loc 1 944 13 is_stmt 0 view .LVU148
 608 00c2 B8F10D0F 		cmp	r8, #13
 609 00c6 A8BF     		it	ge
 610 00c8 4FF00D08 		movge	r8, #13
 611              	.LVL59:
 946:lvgl/src/widgets/lv_btnmatrix.c ****         lv_area_copy(&btn_area, &btnm->button_areas[i]);
 612              		.loc 1 946 5 is_stmt 1 view .LVU149
 946:lvgl/src/widgets/lv_btnmatrix.c ****         lv_area_copy(&btn_area, &btnm->button_areas[i]);
 613              		.loc 1 946 11 is_stmt 0 view .LVU150
 614 00cc 0024     		movs	r4, #0
 946:lvgl/src/widgets/lv_btnmatrix.c ****         lv_area_copy(&btn_area, &btnm->button_areas[i]);
 615              		.loc 1 946 5 view .LVU151
 616 00ce 31E0     		b	.L29
 617              	.LVL60:
ARM GAS  C:\usertemp\ccuzpgLf.s 			page 33


 618              	.L43:
 937:lvgl/src/widgets/lv_btnmatrix.c ****     pcol = (pcol / 2) + 1 + (pcol & 1);
 619              		.loc 1 937 27 view .LVU152
 620 00d0 721C     		adds	r2, r6, #1
 621 00d2 D9E7     		b	.L27
 622              	.LVL61:
 623              	.L44:
 938:lvgl/src/widgets/lv_btnmatrix.c **** 
 624              		.loc 1 938 27 view .LVU153
 625 00d4 5A1C     		adds	r2, r3, #1
 626 00d6 E0E7     		b	.L28
 627              	.LVL62:
 628              	.L30:
 949:lvgl/src/widgets/lv_btnmatrix.c **** 
 629              		.loc 1 949 14 is_stmt 1 view .LVU154
 949:lvgl/src/widgets/lv_btnmatrix.c **** 
 630              		.loc 1 949 38 is_stmt 0 view .LVU155
 631 00d8 BDF818C0 		ldrh	ip, [sp, #24]
 949:lvgl/src/widgets/lv_btnmatrix.c **** 
 632              		.loc 1 949 42 view .LVU156
 633 00dc ACEB060C 		sub	ip, ip, r6
 634 00e0 1FFA8CFC 		uxth	ip, ip
 949:lvgl/src/widgets/lv_btnmatrix.c **** 
 635              		.loc 1 949 26 view .LVU157
 636 00e4 1CFA80F0 		uxtah	r0, ip, r0
 637 00e8 ADF81000 		strh	r0, [sp, #16]	@ movhi
 638 00ec 4CE0     		b	.L31
 639              	.L32:
 952:lvgl/src/widgets/lv_btnmatrix.c **** 
 640              		.loc 1 952 14 is_stmt 1 view .LVU158
 952:lvgl/src/widgets/lv_btnmatrix.c **** 
 641              		.loc 1 952 38 is_stmt 0 view .LVU159
 642 00ee BDF81A00 		ldrh	r0, [sp, #26]
 952:lvgl/src/widgets/lv_btnmatrix.c **** 
 643              		.loc 1 952 42 view .LVU160
 644 00f2 C01B     		subs	r0, r0, r7
 645 00f4 80B2     		uxth	r0, r0
 952:lvgl/src/widgets/lv_btnmatrix.c **** 
 646              		.loc 1 952 26 view .LVU161
 647 00f6 10FA81F1 		uxtah	r1, r0, r1
 648 00fa ADF81210 		strh	r1, [sp, #18]	@ movhi
 649 00fe 56E0     		b	.L33
 650              	.L34:
 956:lvgl/src/widgets/lv_btnmatrix.c **** 
 651              		.loc 1 956 14 is_stmt 1 view .LVU162
 956:lvgl/src/widgets/lv_btnmatrix.c **** 
 652              		.loc 1 956 38 is_stmt 0 view .LVU163
 653 0100 BDF81810 		ldrh	r1, [sp, #24]
 956:lvgl/src/widgets/lv_btnmatrix.c **** 
 654              		.loc 1 956 42 view .LVU164
 655 0104 3144     		add	r1, r1, r6
 656 0106 89B2     		uxth	r1, r1
 956:lvgl/src/widgets/lv_btnmatrix.c **** 
 657              		.loc 1 956 26 view .LVU165
 658 0108 11FA82F2 		uxtah	r2, r1, r2
 659 010c ADF81420 		strh	r2, [sp, #20]	@ movhi
 660 0110 60E0     		b	.L35
ARM GAS  C:\usertemp\ccuzpgLf.s 			page 34


 661              	.L36:
 960:lvgl/src/widgets/lv_btnmatrix.c **** 
 662              		.loc 1 960 14 is_stmt 1 view .LVU166
 960:lvgl/src/widgets/lv_btnmatrix.c **** 
 663              		.loc 1 960 38 is_stmt 0 view .LVU167
 664 0112 BDF81A20 		ldrh	r2, [sp, #26]
 960:lvgl/src/widgets/lv_btnmatrix.c **** 
 665              		.loc 1 960 42 view .LVU168
 666 0116 3A44     		add	r2, r2, r7
 667 0118 92B2     		uxth	r2, r2
 960:lvgl/src/widgets/lv_btnmatrix.c **** 
 668              		.loc 1 960 26 view .LVU169
 669 011a 12FA83F3 		uxtah	r3, r2, r3
 670 011e ADF81630 		strh	r3, [sp, #22]	@ movhi
 671              	.L37:
 962:lvgl/src/widgets/lv_btnmatrix.c ****             break;
 672              		.loc 1 962 9 is_stmt 1 view .LVU170
 962:lvgl/src/widgets/lv_btnmatrix.c ****             break;
 673              		.loc 1 962 12 is_stmt 0 view .LVU171
 674 0122 0022     		movs	r2, #0
 675 0124 0399     		ldr	r1, [sp, #12]
 676 0126 04A8     		add	r0, sp, #16
 677 0128 FFF7FEFF 		bl	_lv_area_is_point_on
 678              	.LVL63:
 962:lvgl/src/widgets/lv_btnmatrix.c ****             break;
 679              		.loc 1 962 11 discriminator 1 view .LVU172
 680 012c 0028     		cmp	r0, #0
 681 012e 65D1     		bne	.L38
 946:lvgl/src/widgets/lv_btnmatrix.c ****         lv_area_copy(&btn_area, &btnm->button_areas[i]);
 682              		.loc 1 946 36 is_stmt 1 discriminator 2 view .LVU173
 683 0130 0134     		adds	r4, r4, #1
 684              	.LVL64:
 946:lvgl/src/widgets/lv_btnmatrix.c ****         lv_area_copy(&btn_area, &btnm->button_areas[i]);
 685              		.loc 1 946 36 is_stmt 0 discriminator 2 view .LVU174
 686 0132 A4B2     		uxth	r4, r4
 687              	.LVL65:
 688              	.L29:
 946:lvgl/src/widgets/lv_btnmatrix.c ****         lv_area_copy(&btn_area, &btnm->button_areas[i]);
 689              		.loc 1 946 18 is_stmt 1 discriminator 1 view .LVU175
 946:lvgl/src/widgets/lv_btnmatrix.c ****         lv_area_copy(&btn_area, &btnm->button_areas[i]);
 690              		.loc 1 946 24 is_stmt 0 discriminator 1 view .LVU176
 691 0134 2B8E     		ldrh	r3, [r5, #48]
 946:lvgl/src/widgets/lv_btnmatrix.c ****         lv_area_copy(&btn_area, &btnm->button_areas[i]);
 692              		.loc 1 946 18 discriminator 1 view .LVU177
 693 0136 A342     		cmp	r3, r4
 694 0138 60D9     		bls	.L38
 947:lvgl/src/widgets/lv_btnmatrix.c ****         if(btn_area.x1 <= pleft) btn_area.x1 += obj_cords.x1 - LV_MIN(pleft, BTN_EXTRA_CLICK_AREA_M
 695              		.loc 1 947 9 is_stmt 1 view .LVU178
 947:lvgl/src/widgets/lv_btnmatrix.c ****         if(btn_area.x1 <= pleft) btn_area.x1 += obj_cords.x1 - LV_MIN(pleft, BTN_EXTRA_CLICK_AREA_M
 696              		.loc 1 947 38 is_stmt 0 view .LVU179
 697 013a AA6A     		ldr	r2, [r5, #40]
 947:lvgl/src/widgets/lv_btnmatrix.c ****         if(btn_area.x1 <= pleft) btn_area.x1 += obj_cords.x1 - LV_MIN(pleft, BTN_EXTRA_CLICK_AREA_M
 698              		.loc 1 947 33 view .LVU180
 699 013c 02EBC403 		add	r3, r2, r4, lsl #3
 700              	.LVL66:
 701              	.LBB91:
 702              	.LBI91:
ARM GAS  C:\usertemp\ccuzpgLf.s 			page 35


 703              		.file 3 "lvgl/src/widgets/../core/../misc/../font/../misc/lv_area.h"
   1:lvgl/src/widgets/../core/../misc/../font/../misc/lv_area.h **** /**
   2:lvgl/src/widgets/../core/../misc/../font/../misc/lv_area.h ****  * @file lv_area.h
   3:lvgl/src/widgets/../core/../misc/../font/../misc/lv_area.h ****  *
   4:lvgl/src/widgets/../core/../misc/../font/../misc/lv_area.h ****  */
   5:lvgl/src/widgets/../core/../misc/../font/../misc/lv_area.h **** 
   6:lvgl/src/widgets/../core/../misc/../font/../misc/lv_area.h **** #ifndef LV_AREA_H
   7:lvgl/src/widgets/../core/../misc/../font/../misc/lv_area.h **** #define LV_AREA_H
   8:lvgl/src/widgets/../core/../misc/../font/../misc/lv_area.h **** 
   9:lvgl/src/widgets/../core/../misc/../font/../misc/lv_area.h **** #ifdef __cplusplus
  10:lvgl/src/widgets/../core/../misc/../font/../misc/lv_area.h **** extern "C" {
  11:lvgl/src/widgets/../core/../misc/../font/../misc/lv_area.h **** #endif
  12:lvgl/src/widgets/../core/../misc/../font/../misc/lv_area.h **** 
  13:lvgl/src/widgets/../core/../misc/../font/../misc/lv_area.h **** /*********************
  14:lvgl/src/widgets/../core/../misc/../font/../misc/lv_area.h ****  *      INCLUDES
  15:lvgl/src/widgets/../core/../misc/../font/../misc/lv_area.h ****  *********************/
  16:lvgl/src/widgets/../core/../misc/../font/../misc/lv_area.h **** #include "../lv_conf_internal.h"
  17:lvgl/src/widgets/../core/../misc/../font/../misc/lv_area.h **** #include <stdbool.h>
  18:lvgl/src/widgets/../core/../misc/../font/../misc/lv_area.h **** #include <stdint.h>
  19:lvgl/src/widgets/../core/../misc/../font/../misc/lv_area.h **** 
  20:lvgl/src/widgets/../core/../misc/../font/../misc/lv_area.h **** /*********************
  21:lvgl/src/widgets/../core/../misc/../font/../misc/lv_area.h ****  *      DEFINES
  22:lvgl/src/widgets/../core/../misc/../font/../misc/lv_area.h ****  *********************/
  23:lvgl/src/widgets/../core/../misc/../font/../misc/lv_area.h **** 
  24:lvgl/src/widgets/../core/../misc/../font/../misc/lv_area.h **** #if LV_USE_LARGE_COORD
  25:lvgl/src/widgets/../core/../misc/../font/../misc/lv_area.h **** typedef int32_t lv_coord_t;
  26:lvgl/src/widgets/../core/../misc/../font/../misc/lv_area.h **** #else
  27:lvgl/src/widgets/../core/../misc/../font/../misc/lv_area.h **** typedef int16_t lv_coord_t;
  28:lvgl/src/widgets/../core/../misc/../font/../misc/lv_area.h **** #endif
  29:lvgl/src/widgets/../core/../misc/../font/../misc/lv_area.h **** 
  30:lvgl/src/widgets/../core/../misc/../font/../misc/lv_area.h **** /**********************
  31:lvgl/src/widgets/../core/../misc/../font/../misc/lv_area.h ****  *      TYPEDEFS
  32:lvgl/src/widgets/../core/../misc/../font/../misc/lv_area.h ****  **********************/
  33:lvgl/src/widgets/../core/../misc/../font/../misc/lv_area.h **** 
  34:lvgl/src/widgets/../core/../misc/../font/../misc/lv_area.h **** /**
  35:lvgl/src/widgets/../core/../misc/../font/../misc/lv_area.h ****  * Represents a point on the screen.
  36:lvgl/src/widgets/../core/../misc/../font/../misc/lv_area.h ****  */
  37:lvgl/src/widgets/../core/../misc/../font/../misc/lv_area.h **** typedef struct {
  38:lvgl/src/widgets/../core/../misc/../font/../misc/lv_area.h ****     lv_coord_t x;
  39:lvgl/src/widgets/../core/../misc/../font/../misc/lv_area.h ****     lv_coord_t y;
  40:lvgl/src/widgets/../core/../misc/../font/../misc/lv_area.h **** } lv_point_t;
  41:lvgl/src/widgets/../core/../misc/../font/../misc/lv_area.h **** 
  42:lvgl/src/widgets/../core/../misc/../font/../misc/lv_area.h **** /** Represents an area of the screen.*/
  43:lvgl/src/widgets/../core/../misc/../font/../misc/lv_area.h **** typedef struct {
  44:lvgl/src/widgets/../core/../misc/../font/../misc/lv_area.h ****     lv_coord_t x1;
  45:lvgl/src/widgets/../core/../misc/../font/../misc/lv_area.h ****     lv_coord_t y1;
  46:lvgl/src/widgets/../core/../misc/../font/../misc/lv_area.h ****     lv_coord_t x2;
  47:lvgl/src/widgets/../core/../misc/../font/../misc/lv_area.h ****     lv_coord_t y2;
  48:lvgl/src/widgets/../core/../misc/../font/../misc/lv_area.h **** } lv_area_t;
  49:lvgl/src/widgets/../core/../misc/../font/../misc/lv_area.h **** 
  50:lvgl/src/widgets/../core/../misc/../font/../misc/lv_area.h **** /** Alignments*/
  51:lvgl/src/widgets/../core/../misc/../font/../misc/lv_area.h **** enum {
  52:lvgl/src/widgets/../core/../misc/../font/../misc/lv_area.h ****     LV_ALIGN_DEFAULT = 0,
  53:lvgl/src/widgets/../core/../misc/../font/../misc/lv_area.h ****     LV_ALIGN_TOP_LEFT,
  54:lvgl/src/widgets/../core/../misc/../font/../misc/lv_area.h ****     LV_ALIGN_TOP_MID,
  55:lvgl/src/widgets/../core/../misc/../font/../misc/lv_area.h ****     LV_ALIGN_TOP_RIGHT,
  56:lvgl/src/widgets/../core/../misc/../font/../misc/lv_area.h ****     LV_ALIGN_BOTTOM_LEFT,
ARM GAS  C:\usertemp\ccuzpgLf.s 			page 36


  57:lvgl/src/widgets/../core/../misc/../font/../misc/lv_area.h ****     LV_ALIGN_BOTTOM_MID,
  58:lvgl/src/widgets/../core/../misc/../font/../misc/lv_area.h ****     LV_ALIGN_BOTTOM_RIGHT,
  59:lvgl/src/widgets/../core/../misc/../font/../misc/lv_area.h ****     LV_ALIGN_LEFT_MID,
  60:lvgl/src/widgets/../core/../misc/../font/../misc/lv_area.h ****     LV_ALIGN_RIGHT_MID,
  61:lvgl/src/widgets/../core/../misc/../font/../misc/lv_area.h ****     LV_ALIGN_CENTER,
  62:lvgl/src/widgets/../core/../misc/../font/../misc/lv_area.h **** 
  63:lvgl/src/widgets/../core/../misc/../font/../misc/lv_area.h ****     LV_ALIGN_OUT_TOP_LEFT,
  64:lvgl/src/widgets/../core/../misc/../font/../misc/lv_area.h ****     LV_ALIGN_OUT_TOP_MID,
  65:lvgl/src/widgets/../core/../misc/../font/../misc/lv_area.h ****     LV_ALIGN_OUT_TOP_RIGHT,
  66:lvgl/src/widgets/../core/../misc/../font/../misc/lv_area.h ****     LV_ALIGN_OUT_BOTTOM_LEFT,
  67:lvgl/src/widgets/../core/../misc/../font/../misc/lv_area.h ****     LV_ALIGN_OUT_BOTTOM_MID,
  68:lvgl/src/widgets/../core/../misc/../font/../misc/lv_area.h ****     LV_ALIGN_OUT_BOTTOM_RIGHT,
  69:lvgl/src/widgets/../core/../misc/../font/../misc/lv_area.h ****     LV_ALIGN_OUT_LEFT_TOP,
  70:lvgl/src/widgets/../core/../misc/../font/../misc/lv_area.h ****     LV_ALIGN_OUT_LEFT_MID,
  71:lvgl/src/widgets/../core/../misc/../font/../misc/lv_area.h ****     LV_ALIGN_OUT_LEFT_BOTTOM,
  72:lvgl/src/widgets/../core/../misc/../font/../misc/lv_area.h ****     LV_ALIGN_OUT_RIGHT_TOP,
  73:lvgl/src/widgets/../core/../misc/../font/../misc/lv_area.h ****     LV_ALIGN_OUT_RIGHT_MID,
  74:lvgl/src/widgets/../core/../misc/../font/../misc/lv_area.h ****     LV_ALIGN_OUT_RIGHT_BOTTOM,
  75:lvgl/src/widgets/../core/../misc/../font/../misc/lv_area.h **** };
  76:lvgl/src/widgets/../core/../misc/../font/../misc/lv_area.h **** typedef uint8_t lv_align_t;
  77:lvgl/src/widgets/../core/../misc/../font/../misc/lv_area.h **** 
  78:lvgl/src/widgets/../core/../misc/../font/../misc/lv_area.h **** enum {
  79:lvgl/src/widgets/../core/../misc/../font/../misc/lv_area.h ****     LV_DIR_NONE     = 0x00,
  80:lvgl/src/widgets/../core/../misc/../font/../misc/lv_area.h ****     LV_DIR_LEFT     = (1 << 0),
  81:lvgl/src/widgets/../core/../misc/../font/../misc/lv_area.h ****     LV_DIR_RIGHT    = (1 << 1),
  82:lvgl/src/widgets/../core/../misc/../font/../misc/lv_area.h ****     LV_DIR_TOP      = (1 << 2),
  83:lvgl/src/widgets/../core/../misc/../font/../misc/lv_area.h ****     LV_DIR_BOTTOM   = (1 << 3),
  84:lvgl/src/widgets/../core/../misc/../font/../misc/lv_area.h ****     LV_DIR_HOR      = LV_DIR_LEFT | LV_DIR_RIGHT,
  85:lvgl/src/widgets/../core/../misc/../font/../misc/lv_area.h ****     LV_DIR_VER      = LV_DIR_TOP | LV_DIR_BOTTOM,
  86:lvgl/src/widgets/../core/../misc/../font/../misc/lv_area.h ****     LV_DIR_ALL      = LV_DIR_HOR | LV_DIR_VER,
  87:lvgl/src/widgets/../core/../misc/../font/../misc/lv_area.h **** };
  88:lvgl/src/widgets/../core/../misc/../font/../misc/lv_area.h **** 
  89:lvgl/src/widgets/../core/../misc/../font/../misc/lv_area.h **** typedef uint8_t lv_dir_t;
  90:lvgl/src/widgets/../core/../misc/../font/../misc/lv_area.h **** 
  91:lvgl/src/widgets/../core/../misc/../font/../misc/lv_area.h **** /**********************
  92:lvgl/src/widgets/../core/../misc/../font/../misc/lv_area.h ****  * GLOBAL PROTOTYPES
  93:lvgl/src/widgets/../core/../misc/../font/../misc/lv_area.h ****  **********************/
  94:lvgl/src/widgets/../core/../misc/../font/../misc/lv_area.h **** 
  95:lvgl/src/widgets/../core/../misc/../font/../misc/lv_area.h **** /**
  96:lvgl/src/widgets/../core/../misc/../font/../misc/lv_area.h ****  * Initialize an area
  97:lvgl/src/widgets/../core/../misc/../font/../misc/lv_area.h ****  * @param area_p pointer to an area
  98:lvgl/src/widgets/../core/../misc/../font/../misc/lv_area.h ****  * @param x1 left coordinate of the area
  99:lvgl/src/widgets/../core/../misc/../font/../misc/lv_area.h ****  * @param y1 top coordinate of the area
 100:lvgl/src/widgets/../core/../misc/../font/../misc/lv_area.h ****  * @param x2 right coordinate of the area
 101:lvgl/src/widgets/../core/../misc/../font/../misc/lv_area.h ****  * @param y2 bottom coordinate of the area
 102:lvgl/src/widgets/../core/../misc/../font/../misc/lv_area.h ****  */
 103:lvgl/src/widgets/../core/../misc/../font/../misc/lv_area.h **** void lv_area_set(lv_area_t * area_p, lv_coord_t x1, lv_coord_t y1, lv_coord_t x2, lv_coord_t y2);
 104:lvgl/src/widgets/../core/../misc/../font/../misc/lv_area.h **** 
 105:lvgl/src/widgets/../core/../misc/../font/../misc/lv_area.h **** /**
 106:lvgl/src/widgets/../core/../misc/../font/../misc/lv_area.h ****  * Copy an area
 107:lvgl/src/widgets/../core/../misc/../font/../misc/lv_area.h ****  * @param dest pointer to the destination area
 108:lvgl/src/widgets/../core/../misc/../font/../misc/lv_area.h ****  * @param src pointer to the source area
 109:lvgl/src/widgets/../core/../misc/../font/../misc/lv_area.h ****  */
 110:lvgl/src/widgets/../core/../misc/../font/../misc/lv_area.h **** inline static void lv_area_copy(lv_area_t * dest, const lv_area_t * src)
 704              		.loc 3 110 20 is_stmt 1 view .LVU181
 705              	.LBB92:
 111:lvgl/src/widgets/../core/../misc/../font/../misc/lv_area.h **** {
ARM GAS  C:\usertemp\ccuzpgLf.s 			page 37


 112:lvgl/src/widgets/../core/../misc/../font/../misc/lv_area.h ****     dest->x1 = src->x1;
 706              		.loc 3 112 5 view .LVU182
 707              		.loc 3 112 19 is_stmt 0 view .LVU183
 708 0140 32F93400 		ldrsh	r0, [r2, r4, lsl #3]
 709              		.loc 3 112 14 view .LVU184
 710 0144 ADF81000 		strh	r0, [sp, #16]	@ movhi
 113:lvgl/src/widgets/../core/../misc/../font/../misc/lv_area.h ****     dest->y1 = src->y1;
 711              		.loc 3 113 5 is_stmt 1 view .LVU185
 712              		.loc 3 113 19 is_stmt 0 view .LVU186
 713 0148 B3F90210 		ldrsh	r1, [r3, #2]
 714              		.loc 3 113 14 view .LVU187
 715 014c ADF81210 		strh	r1, [sp, #18]	@ movhi
 114:lvgl/src/widgets/../core/../misc/../font/../misc/lv_area.h ****     dest->x2 = src->x2;
 716              		.loc 3 114 5 is_stmt 1 view .LVU188
 717              		.loc 3 114 19 is_stmt 0 view .LVU189
 718 0150 B3F90420 		ldrsh	r2, [r3, #4]
 719              		.loc 3 114 14 view .LVU190
 720 0154 ADF81420 		strh	r2, [sp, #20]	@ movhi
 115:lvgl/src/widgets/../core/../misc/../font/../misc/lv_area.h ****     dest->y2 = src->y2;
 721              		.loc 3 115 5 is_stmt 1 view .LVU191
 722              		.loc 3 115 19 is_stmt 0 view .LVU192
 723 0158 B3F90630 		ldrsh	r3, [r3, #6]
 724              	.LVL67:
 725              		.loc 3 115 14 view .LVU193
 726 015c ADF81630 		strh	r3, [sp, #22]	@ movhi
 727              	.LVL68:
 728              		.loc 3 115 14 view .LVU194
 729              	.LBE92:
 730              	.LBE91:
 948:lvgl/src/widgets/lv_btnmatrix.c ****         else btn_area.x1 += obj_cords.x1 - pcol;
 731              		.loc 1 948 9 is_stmt 1 view .LVU195
 948:lvgl/src/widgets/lv_btnmatrix.c ****         else btn_area.x1 += obj_cords.x1 - pcol;
 732              		.loc 1 948 11 is_stmt 0 view .LVU196
 733 0160 8345     		cmp	fp, r0
 734 0162 B9DB     		blt	.L30
 948:lvgl/src/widgets/lv_btnmatrix.c ****         else btn_area.x1 += obj_cords.x1 - pcol;
 735              		.loc 1 948 34 is_stmt 1 discriminator 1 view .LVU197
 948:lvgl/src/widgets/lv_btnmatrix.c ****         else btn_area.x1 += obj_cords.x1 - pcol;
 736              		.loc 1 948 58 is_stmt 0 discriminator 1 view .LVU198
 737 0164 BDF818C0 		ldrh	ip, [sp, #24]
 948:lvgl/src/widgets/lv_btnmatrix.c ****         else btn_area.x1 += obj_cords.x1 - pcol;
 738              		.loc 1 948 64 discriminator 1 view .LVU199
 739 0168 DE46     		mov	lr, fp
 740 016a BBF10D0F 		cmp	fp, #13
 741 016e A8BF     		it	ge
 742 0170 4FF00D0E 		movge	lr, #13
 743 0174 1FFA8EFE 		uxth	lr, lr
 948:lvgl/src/widgets/lv_btnmatrix.c ****         else btn_area.x1 += obj_cords.x1 - pcol;
 744              		.loc 1 948 62 discriminator 1 view .LVU200
 745 0178 ACEB0E0C 		sub	ip, ip, lr
 746 017c 1FFA8CFC 		uxth	ip, ip
 948:lvgl/src/widgets/lv_btnmatrix.c ****         else btn_area.x1 += obj_cords.x1 - pcol;
 747              		.loc 1 948 46 discriminator 1 view .LVU201
 748 0180 1CFA80F0 		uxtah	r0, ip, r0
 749 0184 ADF81000 		strh	r0, [sp, #16]	@ movhi
 750              	.L31:
 951:lvgl/src/widgets/lv_btnmatrix.c ****         else btn_area.y1 += obj_cords.y1 - prow;
ARM GAS  C:\usertemp\ccuzpgLf.s 			page 38


 751              		.loc 1 951 9 is_stmt 1 view .LVU202
 951:lvgl/src/widgets/lv_btnmatrix.c ****         else btn_area.y1 += obj_cords.y1 - prow;
 752              		.loc 1 951 11 is_stmt 0 view .LVU203
 753 0188 8945     		cmp	r9, r1
 754 018a B0DB     		blt	.L32
 951:lvgl/src/widgets/lv_btnmatrix.c ****         else btn_area.y1 += obj_cords.y1 - prow;
 755              		.loc 1 951 33 is_stmt 1 discriminator 1 view .LVU204
 951:lvgl/src/widgets/lv_btnmatrix.c ****         else btn_area.y1 += obj_cords.y1 - prow;
 756              		.loc 1 951 57 is_stmt 0 discriminator 1 view .LVU205
 757 018c BDF81A00 		ldrh	r0, [sp, #26]
 951:lvgl/src/widgets/lv_btnmatrix.c ****         else btn_area.y1 += obj_cords.y1 - prow;
 758              		.loc 1 951 63 discriminator 1 view .LVU206
 759 0190 CC46     		mov	ip, r9
 760 0192 B9F10D0F 		cmp	r9, #13
 761 0196 A8BF     		it	ge
 762 0198 4FF00D0C 		movge	ip, #13
 763 019c 1FFA8CFC 		uxth	ip, ip
 951:lvgl/src/widgets/lv_btnmatrix.c ****         else btn_area.y1 += obj_cords.y1 - prow;
 764              		.loc 1 951 61 discriminator 1 view .LVU207
 765 01a0 A0EB0C00 		sub	r0, r0, ip
 766 01a4 80B2     		uxth	r0, r0
 951:lvgl/src/widgets/lv_btnmatrix.c ****         else btn_area.y1 += obj_cords.y1 - prow;
 767              		.loc 1 951 45 discriminator 1 view .LVU208
 768 01a6 10FA81F1 		uxtah	r1, r0, r1
 769 01aa ADF81210 		strh	r1, [sp, #18]	@ movhi
 770              	.L33:
 954:lvgl/src/widgets/lv_btnmatrix.c ****                                                                                    BTN_EXTRA_CLICK_
 771              		.loc 1 954 9 is_stmt 1 view .LVU209
 954:lvgl/src/widgets/lv_btnmatrix.c ****                                                                                    BTN_EXTRA_CLICK_
 772              		.loc 1 954 29 is_stmt 0 view .LVU210
 773 01ae 0199     		ldr	r1, [sp, #4]
 774 01b0 A1EB0A01 		sub	r1, r1, r10
 954:lvgl/src/widgets/lv_btnmatrix.c ****                                                                                    BTN_EXTRA_CLICK_
 775              		.loc 1 954 38 view .LVU211
 776 01b4 0239     		subs	r1, r1, #2
 954:lvgl/src/widgets/lv_btnmatrix.c ****                                                                                    BTN_EXTRA_CLICK_
 777              		.loc 1 954 11 view .LVU212
 778 01b6 8A42     		cmp	r2, r1
 779 01b8 A2DB     		blt	.L34
 954:lvgl/src/widgets/lv_btnmatrix.c ****                                                                                    BTN_EXTRA_CLICK_
 780              		.loc 1 954 43 is_stmt 1 discriminator 1 view .LVU213
 954:lvgl/src/widgets/lv_btnmatrix.c ****                                                                                    BTN_EXTRA_CLICK_
 781              		.loc 1 954 67 is_stmt 0 discriminator 1 view .LVU214
 782 01ba BDF81800 		ldrh	r0, [sp, #24]
 954:lvgl/src/widgets/lv_btnmatrix.c ****                                                                                    BTN_EXTRA_CLICK_
 783              		.loc 1 954 73 discriminator 1 view .LVU215
 784 01be 5146     		mov	r1, r10
 785 01c0 0D29     		cmp	r1, #13
 786 01c2 A8BF     		it	ge
 787 01c4 0D21     		movge	r1, #13
 954:lvgl/src/widgets/lv_btnmatrix.c ****                                                                                    BTN_EXTRA_CLICK_
 788              		.loc 1 954 71 discriminator 1 view .LVU216
 789 01c6 10FA81F1 		uxtah	r1, r0, r1
 790 01ca 89B2     		uxth	r1, r1
 954:lvgl/src/widgets/lv_btnmatrix.c ****                                                                                    BTN_EXTRA_CLICK_
 791              		.loc 1 954 55 discriminator 1 view .LVU217
 792 01cc 11FA82F2 		uxtah	r2, r1, r2
ARM GAS  C:\usertemp\ccuzpgLf.s 			page 39


 793 01d0 ADF81420 		strh	r2, [sp, #20]	@ movhi
 794              	.L35:
 958:lvgl/src/widgets/lv_btnmatrix.c ****                                                                                     BTN_EXTRA_CLICK
 795              		.loc 1 958 9 is_stmt 1 view .LVU218
 958:lvgl/src/widgets/lv_btnmatrix.c ****                                                                                     BTN_EXTRA_CLICK
 796              		.loc 1 958 29 is_stmt 0 view .LVU219
 797 01d4 029A     		ldr	r2, [sp, #8]
 798 01d6 A2EB0802 		sub	r2, r2, r8
 958:lvgl/src/widgets/lv_btnmatrix.c ****                                                                                     BTN_EXTRA_CLICK
 799              		.loc 1 958 39 view .LVU220
 800 01da 023A     		subs	r2, r2, #2
 958:lvgl/src/widgets/lv_btnmatrix.c ****                                                                                     BTN_EXTRA_CLICK
 801              		.loc 1 958 11 view .LVU221
 802 01dc 9342     		cmp	r3, r2
 803 01de 98DB     		blt	.L36
 958:lvgl/src/widgets/lv_btnmatrix.c ****                                                                                     BTN_EXTRA_CLICK
 804              		.loc 1 958 44 is_stmt 1 discriminator 1 view .LVU222
 958:lvgl/src/widgets/lv_btnmatrix.c ****                                                                                     BTN_EXTRA_CLICK
 805              		.loc 1 958 68 is_stmt 0 discriminator 1 view .LVU223
 806 01e0 BDF81A10 		ldrh	r1, [sp, #26]
 958:lvgl/src/widgets/lv_btnmatrix.c ****                                                                                     BTN_EXTRA_CLICK
 807              		.loc 1 958 74 discriminator 1 view .LVU224
 808 01e4 4246     		mov	r2, r8
 809 01e6 0D2A     		cmp	r2, #13
 810 01e8 A8BF     		it	ge
 811 01ea 0D22     		movge	r2, #13
 958:lvgl/src/widgets/lv_btnmatrix.c ****                                                                                     BTN_EXTRA_CLICK
 812              		.loc 1 958 72 discriminator 1 view .LVU225
 813 01ec 11FA82F2 		uxtah	r2, r1, r2
 814 01f0 92B2     		uxth	r2, r2
 958:lvgl/src/widgets/lv_btnmatrix.c ****                                                                                     BTN_EXTRA_CLICK
 815              		.loc 1 958 56 discriminator 1 view .LVU226
 816 01f2 12FA83F3 		uxtah	r3, r2, r3
 817 01f6 ADF81630 		strh	r3, [sp, #22]	@ movhi
 818 01fa 92E7     		b	.L37
 819              	.L38:
 967:lvgl/src/widgets/lv_btnmatrix.c **** 
 820              		.loc 1 967 5 is_stmt 1 view .LVU227
 967:lvgl/src/widgets/lv_btnmatrix.c **** 
 821              		.loc 1 967 17 is_stmt 0 view .LVU228
 822 01fc 2B8E     		ldrh	r3, [r5, #48]
 967:lvgl/src/widgets/lv_btnmatrix.c **** 
 823              		.loc 1 967 7 view .LVU229
 824 01fe A342     		cmp	r3, r4
 825 0200 03D0     		beq	.L45
 826              	.LVL69:
 827              	.L40:
 969:lvgl/src/widgets/lv_btnmatrix.c **** }
 828              		.loc 1 969 5 is_stmt 1 view .LVU230
 970:lvgl/src/widgets/lv_btnmatrix.c **** 
 829              		.loc 1 970 1 is_stmt 0 view .LVU231
 830 0202 2046     		mov	r0, r4
 831 0204 09B0     		add	sp, sp, #36
 832              	.LCFI5:
 833              		.cfi_remember_state
 834              		.cfi_def_cfa_offset 36
 835              		@ sp needed
ARM GAS  C:\usertemp\ccuzpgLf.s 			page 40


 836 0206 BDE8F08F 		pop	{r4, r5, r6, r7, r8, r9, r10, fp, pc}
 837              	.LVL70:
 838              	.L45:
 839              	.LCFI6:
 840              		.cfi_restore_state
 967:lvgl/src/widgets/lv_btnmatrix.c **** 
 841              		.loc 1 967 30 discriminator 1 view .LVU232
 842 020a 4FF6FF74 		movw	r4, #65535
 843              	.LVL71:
 967:lvgl/src/widgets/lv_btnmatrix.c **** 
 844              		.loc 1 967 30 discriminator 1 view .LVU233
 845 020e F8E7     		b	.L40
 846              		.cfi_endproc
 847              	.LFE186:
 849              		.section	.text.invalidate_button_area,"ax",%progbits
 850              		.align	1
 851              		.syntax unified
 852              		.thumb
 853              		.thumb_func
 855              	invalidate_button_area:
 856              	.LVL72:
 857              	.LFB187:
 973:lvgl/src/widgets/lv_btnmatrix.c ****     if(btn_idx == LV_BTNMATRIX_BTN_NONE) return;
 858              		.loc 1 973 1 is_stmt 1 view -0
 859              		.cfi_startproc
 860              		@ args = 0, pretend = 0, frame = 16
 861              		@ frame_needed = 0, uses_anonymous_args = 0
 974:lvgl/src/widgets/lv_btnmatrix.c **** 
 862              		.loc 1 974 5 view .LVU235
 974:lvgl/src/widgets/lv_btnmatrix.c **** 
 863              		.loc 1 974 7 is_stmt 0 view .LVU236
 864 0000 4FF6FF73 		movw	r3, #65535
 865 0004 9942     		cmp	r1, r3
 866 0006 78D0     		beq	.L51
 973:lvgl/src/widgets/lv_btnmatrix.c ****     if(btn_idx == LV_BTNMATRIX_BTN_NONE) return;
 867              		.loc 1 973 1 view .LVU237
 868 0008 F0B5     		push	{r4, r5, r6, r7, lr}
 869              	.LCFI7:
 870              		.cfi_def_cfa_offset 20
 871              		.cfi_offset 4, -20
 872              		.cfi_offset 5, -16
 873              		.cfi_offset 6, -12
 874              		.cfi_offset 7, -8
 875              		.cfi_offset 14, -4
 876 000a 85B0     		sub	sp, sp, #20
 877              	.LCFI8:
 878              		.cfi_def_cfa_offset 40
 879 000c 0446     		mov	r4, r0
 880 000e 0D46     		mov	r5, r1
 976:lvgl/src/widgets/lv_btnmatrix.c ****     lv_area_t obj_area;
 881              		.loc 1 976 5 is_stmt 1 view .LVU238
 977:lvgl/src/widgets/lv_btnmatrix.c **** 
 882              		.loc 1 977 5 view .LVU239
 979:lvgl/src/widgets/lv_btnmatrix.c ****     if(btn_idx >= btnm->btn_cnt) return;
 883              		.loc 1 979 5 view .LVU240
 884              	.LVL73:
 979:lvgl/src/widgets/lv_btnmatrix.c ****     if(btn_idx >= btnm->btn_cnt) return;
ARM GAS  C:\usertemp\ccuzpgLf.s 			page 41


 885              		.loc 1 979 51 view .LVU241
 980:lvgl/src/widgets/lv_btnmatrix.c **** 
 886              		.loc 1 980 5 view .LVU242
 980:lvgl/src/widgets/lv_btnmatrix.c **** 
 887              		.loc 1 980 23 is_stmt 0 view .LVU243
 888 0010 038E     		ldrh	r3, [r0, #48]
 980:lvgl/src/widgets/lv_btnmatrix.c **** 
 889              		.loc 1 980 7 view .LVU244
 890 0012 8B42     		cmp	r3, r1
 891 0014 01D8     		bhi	.L54
 892              	.LVL74:
 893              	.L46:
1007:lvgl/src/widgets/lv_btnmatrix.c **** 
 894              		.loc 1 1007 1 view .LVU245
 895 0016 05B0     		add	sp, sp, #20
 896              	.LCFI9:
 897              		.cfi_remember_state
 898              		.cfi_def_cfa_offset 20
 899              		@ sp needed
 900 0018 F0BD     		pop	{r4, r5, r6, r7, pc}
 901              	.LVL75:
 902              	.L54:
 903              	.LCFI10:
 904              		.cfi_restore_state
 982:lvgl/src/widgets/lv_btnmatrix.c ****     lv_obj_get_coords(obj, &obj_area);
 905              		.loc 1 982 5 is_stmt 1 view .LVU246
 982:lvgl/src/widgets/lv_btnmatrix.c ****     lv_obj_get_coords(obj, &obj_area);
 906              		.loc 1 982 34 is_stmt 0 view .LVU247
 907 001a 826A     		ldr	r2, [r0, #40]
 982:lvgl/src/widgets/lv_btnmatrix.c ****     lv_obj_get_coords(obj, &obj_area);
 908              		.loc 1 982 29 view .LVU248
 909 001c 02EBC103 		add	r3, r2, r1, lsl #3
 910              	.LVL76:
 911              	.LBB93:
 912              	.LBI93:
 110:lvgl/src/widgets/../core/../misc/../font/../misc/lv_area.h **** {
 913              		.loc 3 110 20 is_stmt 1 view .LVU249
 914              	.LBB94:
 112:lvgl/src/widgets/../core/../misc/../font/../misc/lv_area.h ****     dest->y1 = src->y1;
 915              		.loc 3 112 5 view .LVU250
 112:lvgl/src/widgets/../core/../misc/../font/../misc/lv_area.h ****     dest->y1 = src->y1;
 916              		.loc 3 112 19 is_stmt 0 view .LVU251
 917 0020 32F93120 		ldrsh	r2, [r2, r1, lsl #3]
 112:lvgl/src/widgets/../core/../misc/../font/../misc/lv_area.h ****     dest->y1 = src->y1;
 918              		.loc 3 112 14 view .LVU252
 919 0024 ADF80820 		strh	r2, [sp, #8]	@ movhi
 113:lvgl/src/widgets/../core/../misc/../font/../misc/lv_area.h ****     dest->x2 = src->x2;
 920              		.loc 3 113 5 is_stmt 1 view .LVU253
 113:lvgl/src/widgets/../core/../misc/../font/../misc/lv_area.h ****     dest->x2 = src->x2;
 921              		.loc 3 113 19 is_stmt 0 view .LVU254
 922 0028 B3F90220 		ldrsh	r2, [r3, #2]
 113:lvgl/src/widgets/../core/../misc/../font/../misc/lv_area.h ****     dest->x2 = src->x2;
 923              		.loc 3 113 14 view .LVU255
 924 002c ADF80A20 		strh	r2, [sp, #10]	@ movhi
 114:lvgl/src/widgets/../core/../misc/../font/../misc/lv_area.h ****     dest->y2 = src->y2;
 925              		.loc 3 114 5 is_stmt 1 view .LVU256
 114:lvgl/src/widgets/../core/../misc/../font/../misc/lv_area.h ****     dest->y2 = src->y2;
ARM GAS  C:\usertemp\ccuzpgLf.s 			page 42


 926              		.loc 3 114 19 is_stmt 0 view .LVU257
 927 0030 B3F90420 		ldrsh	r2, [r3, #4]
 114:lvgl/src/widgets/../core/../misc/../font/../misc/lv_area.h ****     dest->y2 = src->y2;
 928              		.loc 3 114 14 view .LVU258
 929 0034 ADF80C20 		strh	r2, [sp, #12]	@ movhi
 930              		.loc 3 115 5 is_stmt 1 view .LVU259
 931              		.loc 3 115 19 is_stmt 0 view .LVU260
 932 0038 B3F90630 		ldrsh	r3, [r3, #6]
 933              	.LVL77:
 934              		.loc 3 115 14 view .LVU261
 935 003c ADF80E30 		strh	r3, [sp, #14]	@ movhi
 936              	.LVL78:
 937              		.loc 3 115 14 view .LVU262
 938              	.LBE94:
 939              	.LBE93:
 983:lvgl/src/widgets/lv_btnmatrix.c **** 
 940              		.loc 1 983 5 is_stmt 1 view .LVU263
 941 0040 6946     		mov	r1, sp
 942              	.LVL79:
 983:lvgl/src/widgets/lv_btnmatrix.c **** 
 943              		.loc 1 983 5 is_stmt 0 view .LVU264
 944 0042 FFF7FEFF 		bl	lv_obj_get_coords
 945              	.LVL80:
 987:lvgl/src/widgets/lv_btnmatrix.c ****     lv_coord_t col_gap = lv_obj_get_style_pad_column(obj, LV_PART_MAIN);
 946              		.loc 1 987 5 is_stmt 1 view .LVU265
 947              	.LBB95:
 948              	.LBI95:
 115:lvgl/src/widgets/../core/lv_obj_style_gen.h **** {
 949              		.loc 2 115 26 view .LVU266
 950              	.LBB96:
 117:lvgl/src/widgets/../core/lv_obj_style_gen.h ****     return (lv_coord_t)v.num;
 951              		.loc 2 117 5 view .LVU267
 117:lvgl/src/widgets/../core/lv_obj_style_gen.h ****     return (lv_coord_t)v.num;
 952              		.loc 2 117 26 is_stmt 0 view .LVU268
 953 0046 41F61402 		movw	r2, #6164
 954 004a 0021     		movs	r1, #0
 955 004c 2046     		mov	r0, r4
 956 004e FFF7FEFF 		bl	lv_obj_get_style_prop
 957              	.LVL81:
 118:lvgl/src/widgets/../core/lv_obj_style_gen.h **** }
 958              		.loc 2 118 5 is_stmt 1 view .LVU269
 118:lvgl/src/widgets/../core/lv_obj_style_gen.h **** }
 959              		.loc 2 118 12 is_stmt 0 view .LVU270
 960 0052 06B2     		sxth	r6, r0
 961              	.LVL82:
 118:lvgl/src/widgets/../core/lv_obj_style_gen.h **** }
 962              		.loc 2 118 12 view .LVU271
 963              	.LBE96:
 964              	.LBE95:
 988:lvgl/src/widgets/lv_btnmatrix.c **** 
 965              		.loc 1 988 5 is_stmt 1 view .LVU272
 966              	.LBB97:
 967              	.LBI97:
 121:lvgl/src/widgets/../core/lv_obj_style_gen.h **** {
 968              		.loc 2 121 26 view .LVU273
 969              	.LBB98:
 123:lvgl/src/widgets/../core/lv_obj_style_gen.h ****     return (lv_coord_t)v.num;
ARM GAS  C:\usertemp\ccuzpgLf.s 			page 43


 970              		.loc 2 123 5 view .LVU274
 123:lvgl/src/widgets/../core/lv_obj_style_gen.h ****     return (lv_coord_t)v.num;
 971              		.loc 2 123 26 is_stmt 0 view .LVU275
 972 0054 41F61502 		movw	r2, #6165
 973 0058 0021     		movs	r1, #0
 974 005a 2046     		mov	r0, r4
 975 005c FFF7FEFF 		bl	lv_obj_get_style_prop
 976              	.LVL83:
 977              		.loc 2 124 5 is_stmt 1 view .LVU276
 978              		.loc 2 124 12 is_stmt 0 view .LVU277
 979 0060 07B2     		sxth	r7, r0
 980              	.LVL84:
 981              		.loc 2 124 12 view .LVU278
 982              	.LBE98:
 983              	.LBE97:
 991:lvgl/src/widgets/lv_btnmatrix.c ****     row_gap = LV_MAX(row_gap, dpi / 10);
 984              		.loc 1 991 5 is_stmt 1 view .LVU279
 991:lvgl/src/widgets/lv_btnmatrix.c ****     row_gap = LV_MAX(row_gap, dpi / 10);
 985              		.loc 1 991 38 is_stmt 0 view .LVU280
 986 0062 2046     		mov	r0, r4
 987 0064 FFF7FEFF 		bl	lv_obj_get_disp
 988              	.LVL85:
 991:lvgl/src/widgets/lv_btnmatrix.c ****     row_gap = LV_MAX(row_gap, dpi / 10);
 989              		.loc 1 991 22 discriminator 1 view .LVU281
 990 0068 FFF7FEFF 		bl	lv_disp_get_dpi
 991              	.LVL86:
 992:lvgl/src/widgets/lv_btnmatrix.c ****     col_gap = LV_MAX(col_gap, dpi / 10);
 992              		.loc 1 992 5 is_stmt 1 view .LVU282
 992:lvgl/src/widgets/lv_btnmatrix.c ****     col_gap = LV_MAX(col_gap, dpi / 10);
 993              		.loc 1 992 15 is_stmt 0 view .LVU283
 994 006c 234A     		ldr	r2, .L56
 995 006e 82FB0032 		smull	r3, r2, r2, r0
 996 0072 C317     		asrs	r3, r0, #31
 997 0074 C3EBA203 		rsb	r3, r3, r2, asr #2
 998 0078 1BB2     		sxth	r3, r3
 992:lvgl/src/widgets/lv_btnmatrix.c ****     col_gap = LV_MAX(col_gap, dpi / 10);
 999              		.loc 1 992 13 view .LVU284
 1000 007a 9E42     		cmp	r6, r3
 1001 007c B8BF     		it	lt
 1002 007e 1E46     		movlt	r6, r3
 1003              	.LVL87:
 993:lvgl/src/widgets/lv_btnmatrix.c **** 
 1004              		.loc 1 993 5 is_stmt 1 view .LVU285
 993:lvgl/src/widgets/lv_btnmatrix.c **** 
 1005              		.loc 1 993 13 is_stmt 0 view .LVU286
 1006 0080 BB42     		cmp	r3, r7
 1007 0082 B8BF     		it	lt
 1008 0084 3B46     		movlt	r3, r7
 1009              	.LVL88:
 996:lvgl/src/widgets/lv_btnmatrix.c ****     btn_area.y1 += obj_area.y1 - col_gap;
 1010              		.loc 1 996 5 is_stmt 1 view .LVU287
 996:lvgl/src/widgets/lv_btnmatrix.c ****     btn_area.y1 += obj_area.y1 - col_gap;
 1011              		.loc 1 996 13 is_stmt 0 view .LVU288
 1012 0086 BDF80800 		ldrh	r0, [sp, #8]
 1013              	.LVL89:
 996:lvgl/src/widgets/lv_btnmatrix.c ****     btn_area.y1 += obj_area.y1 - col_gap;
 1014              		.loc 1 996 28 view .LVU289
ARM GAS  C:\usertemp\ccuzpgLf.s 			page 44


 1015 008a BDF80010 		ldrh	r1, [sp]
 996:lvgl/src/widgets/lv_btnmatrix.c ****     btn_area.y1 += obj_area.y1 - col_gap;
 1016              		.loc 1 996 32 view .LVU290
 1017 008e B6B2     		uxth	r6, r6
 996:lvgl/src/widgets/lv_btnmatrix.c ****     btn_area.y1 += obj_area.y1 - col_gap;
 1018              		.loc 1 996 32 view .LVU291
 1019 0090 8A1B     		subs	r2, r1, r6
 996:lvgl/src/widgets/lv_btnmatrix.c ****     btn_area.y1 += obj_area.y1 - col_gap;
 1020              		.loc 1 996 17 view .LVU292
 1021 0092 10FA82F2 		uxtah	r2, r0, r2
 1022 0096 ADF80820 		strh	r2, [sp, #8]	@ movhi
 997:lvgl/src/widgets/lv_btnmatrix.c ****     btn_area.x2 += obj_area.x1 + row_gap;
 1023              		.loc 1 997 5 is_stmt 1 view .LVU293
 997:lvgl/src/widgets/lv_btnmatrix.c ****     btn_area.x2 += obj_area.x1 + row_gap;
 1024              		.loc 1 997 13 is_stmt 0 view .LVU294
 1025 009a BDF80A70 		ldrh	r7, [sp, #10]
 997:lvgl/src/widgets/lv_btnmatrix.c ****     btn_area.x2 += obj_area.x1 + row_gap;
 1026              		.loc 1 997 28 view .LVU295
 1027 009e BDF80220 		ldrh	r2, [sp, #2]
 997:lvgl/src/widgets/lv_btnmatrix.c ****     btn_area.x2 += obj_area.x1 + row_gap;
 1028              		.loc 1 997 32 view .LVU296
 1029 00a2 9BB2     		uxth	r3, r3
 997:lvgl/src/widgets/lv_btnmatrix.c ****     btn_area.x2 += obj_area.x1 + row_gap;
 1030              		.loc 1 997 32 view .LVU297
 1031 00a4 D01A     		subs	r0, r2, r3
 997:lvgl/src/widgets/lv_btnmatrix.c ****     btn_area.x2 += obj_area.x1 + row_gap;
 1032              		.loc 1 997 17 view .LVU298
 1033 00a6 17FA80F0 		uxtah	r0, r7, r0
 1034 00aa 80B2     		uxth	r0, r0
 1035 00ac ADF80A00 		strh	r0, [sp, #10]	@ movhi
 998:lvgl/src/widgets/lv_btnmatrix.c ****     btn_area.y2 += obj_area.y1 + col_gap;
 1036              		.loc 1 998 5 is_stmt 1 view .LVU299
 998:lvgl/src/widgets/lv_btnmatrix.c ****     btn_area.y2 += obj_area.y1 + col_gap;
 1037              		.loc 1 998 13 is_stmt 0 view .LVU300
 1038 00b0 BDF80C70 		ldrh	r7, [sp, #12]
 998:lvgl/src/widgets/lv_btnmatrix.c ****     btn_area.y2 += obj_area.y1 + col_gap;
 1039              		.loc 1 998 32 view .LVU301
 1040 00b4 3144     		add	r1, r1, r6
 998:lvgl/src/widgets/lv_btnmatrix.c ****     btn_area.y2 += obj_area.y1 + col_gap;
 1041              		.loc 1 998 17 view .LVU302
 1042 00b6 17FA81F1 		uxtah	r1, r7, r1
 1043 00ba ADF80C10 		strh	r1, [sp, #12]	@ movhi
 999:lvgl/src/widgets/lv_btnmatrix.c **** 
 1044              		.loc 1 999 5 is_stmt 1 view .LVU303
 999:lvgl/src/widgets/lv_btnmatrix.c **** 
 1045              		.loc 1 999 13 is_stmt 0 view .LVU304
 1046 00be BDF80E10 		ldrh	r1, [sp, #14]
 999:lvgl/src/widgets/lv_btnmatrix.c **** 
 1047              		.loc 1 999 32 view .LVU305
 1048 00c2 1A44     		add	r2, r2, r3
 999:lvgl/src/widgets/lv_btnmatrix.c **** 
 1049              		.loc 1 999 17 view .LVU306
 1050 00c4 11FA82F2 		uxtah	r2, r1, r2
 1051 00c8 92B2     		uxth	r2, r2
 1052 00ca ADF80E20 		strh	r2, [sp, #14]	@ movhi
1001:lvgl/src/widgets/lv_btnmatrix.c ****         /*Push up the upper boundary of the btn area to also invalidate the popover*/
 1053              		.loc 1 1001 5 is_stmt 1 view .LVU307
ARM GAS  C:\usertemp\ccuzpgLf.s 			page 45


1001:lvgl/src/widgets/lv_btnmatrix.c ****         /*Push up the upper boundary of the btn area to also invalidate the popover*/
 1054              		.loc 1 1001 24 is_stmt 0 view .LVU308
 1055 00ce A38E     		ldrh	r3, [r4, #52]
 1056              	.LVL90:
1001:lvgl/src/widgets/lv_btnmatrix.c ****         /*Push up the upper boundary of the btn area to also invalidate the popover*/
 1057              		.loc 1 1001 7 view .LVU309
 1058 00d0 AB42     		cmp	r3, r5
1001:lvgl/src/widgets/lv_btnmatrix.c ****         /*Push up the upper boundary of the btn area to also invalidate the popover*/
 1059              		.loc 1 1001 7 view .LVU310
 1060 00d2 04D0     		beq	.L55
 1061              	.L48:
1006:lvgl/src/widgets/lv_btnmatrix.c **** }
 1062              		.loc 1 1006 5 is_stmt 1 view .LVU311
 1063 00d4 02A9     		add	r1, sp, #8
 1064 00d6 2046     		mov	r0, r4
 1065 00d8 FFF7FEFF 		bl	lv_obj_invalidate_area
 1066              	.LVL91:
 1067 00dc 9BE7     		b	.L46
 1068              	.L55:
1001:lvgl/src/widgets/lv_btnmatrix.c ****         /*Push up the upper boundary of the btn area to also invalidate the popover*/
 1069              		.loc 1 1001 46 is_stmt 0 discriminator 1 view .LVU312
 1070 00de E36A     		ldr	r3, [r4, #44]
1001:lvgl/src/widgets/lv_btnmatrix.c ****         /*Push up the upper boundary of the btn area to also invalidate the popover*/
 1071              		.loc 1 1001 57 discriminator 1 view .LVU313
 1072 00e0 33F81530 		ldrh	r3, [r3, r5, lsl #1]
1001:lvgl/src/widgets/lv_btnmatrix.c ****         /*Push up the upper boundary of the btn area to also invalidate the popover*/
 1073              		.loc 1 1001 38 discriminator 1 view .LVU314
 1074 00e4 13F4007F 		tst	r3, #512
 1075 00e8 F4D0     		beq	.L48
1003:lvgl/src/widgets/lv_btnmatrix.c ****     }
 1076              		.loc 1 1003 9 is_stmt 1 view .LVU315
 1077              	.LVL92:
 1078              	.LBB99:
 1079              	.LBI99:
 116:lvgl/src/widgets/../core/../misc/../font/../misc/lv_area.h **** }
 117:lvgl/src/widgets/../core/../misc/../font/../misc/lv_area.h **** 
 118:lvgl/src/widgets/../core/../misc/../font/../misc/lv_area.h **** /**
 119:lvgl/src/widgets/../core/../misc/../font/../misc/lv_area.h ****  * Get the width of an area
 120:lvgl/src/widgets/../core/../misc/../font/../misc/lv_area.h ****  * @param area_p pointer to an area
 121:lvgl/src/widgets/../core/../misc/../font/../misc/lv_area.h ****  * @return the width of the area (if x1 == x2 -> width = 1)
 122:lvgl/src/widgets/../core/../misc/../font/../misc/lv_area.h ****  */
 123:lvgl/src/widgets/../core/../misc/../font/../misc/lv_area.h **** static inline lv_coord_t lv_area_get_width(const lv_area_t * area_p)
 124:lvgl/src/widgets/../core/../misc/../font/../misc/lv_area.h **** {
 125:lvgl/src/widgets/../core/../misc/../font/../misc/lv_area.h ****     return (lv_coord_t)(area_p->x2 - area_p->x1 + 1);
 126:lvgl/src/widgets/../core/../misc/../font/../misc/lv_area.h **** }
 127:lvgl/src/widgets/../core/../misc/../font/../misc/lv_area.h **** 
 128:lvgl/src/widgets/../core/../misc/../font/../misc/lv_area.h **** /**
 129:lvgl/src/widgets/../core/../misc/../font/../misc/lv_area.h ****  * Get the height of an area
 130:lvgl/src/widgets/../core/../misc/../font/../misc/lv_area.h ****  * @param area_p pointer to an area
 131:lvgl/src/widgets/../core/../misc/../font/../misc/lv_area.h ****  * @return the height of the area (if y1 == y2 -> height = 1)
 132:lvgl/src/widgets/../core/../misc/../font/../misc/lv_area.h ****  */
 133:lvgl/src/widgets/../core/../misc/../font/../misc/lv_area.h **** static inline lv_coord_t lv_area_get_height(const lv_area_t * area_p)
 1080              		.loc 3 133 26 view .LVU316
 1081              	.LBB100:
 134:lvgl/src/widgets/../core/../misc/../font/../misc/lv_area.h **** {
 135:lvgl/src/widgets/../core/../misc/../font/../misc/lv_area.h ****     return (lv_coord_t)(area_p->y2 - area_p->y1 + 1);
 1082              		.loc 3 135 5 view .LVU317
ARM GAS  C:\usertemp\ccuzpgLf.s 			page 46


 1083              		.loc 3 135 36 is_stmt 0 view .LVU318
 1084 00ea 131A     		subs	r3, r2, r0
 1085 00ec 9BB2     		uxth	r3, r3
 1086              		.loc 3 135 49 view .LVU319
 1087 00ee 0133     		adds	r3, r3, #1
 1088 00f0 9BB2     		uxth	r3, r3
 1089              	.LVL93:
 1090              		.loc 3 135 49 view .LVU320
 1091              	.LBE100:
 1092              	.LBE99:
1003:lvgl/src/widgets/lv_btnmatrix.c ****     }
 1093              		.loc 1 1003 21 discriminator 1 view .LVU321
 1094 00f2 C01A     		subs	r0, r0, r3
 1095 00f4 ADF80A00 		strh	r0, [sp, #10]	@ movhi
 1096 00f8 ECE7     		b	.L48
 1097              	.LVL94:
 1098              	.L51:
 1099              	.LCFI11:
 1100              		.cfi_def_cfa_offset 0
 1101              		.cfi_restore 4
 1102              		.cfi_restore 5
 1103              		.cfi_restore 6
 1104              		.cfi_restore 7
 1105              		.cfi_restore 14
1003:lvgl/src/widgets/lv_btnmatrix.c ****     }
 1106              		.loc 1 1003 21 discriminator 1 view .LVU322
 1107 00fa 7047     		bx	lr
 1108              	.L57:
 1109              		.align	2
 1110              	.L56:
 1111 00fc 67666666 		.word	1717986919
 1112              		.cfi_endproc
 1113              	.LFE187:
 1115              		.section	.text.draw_main,"ax",%progbits
 1116              		.align	1
 1117              		.syntax unified
 1118              		.thumb
 1119              		.thumb_func
 1121              	draw_main:
 1122              	.LVL95:
 1123              	.LFB174:
 650:lvgl/src/widgets/lv_btnmatrix.c ****     lv_obj_t * obj = lv_event_get_target(e);
 1124              		.loc 1 650 1 is_stmt 1 view -0
 1125              		.cfi_startproc
 1126              		@ args = 0, pretend = 0, frame = 296
 1127              		@ frame_needed = 0, uses_anonymous_args = 0
 650:lvgl/src/widgets/lv_btnmatrix.c ****     lv_obj_t * obj = lv_event_get_target(e);
 1128              		.loc 1 650 1 is_stmt 0 view .LVU324
 1129 0000 2DE9F04F 		push	{r4, r5, r6, r7, r8, r9, r10, fp, lr}
 1130              	.LCFI12:
 1131              		.cfi_def_cfa_offset 36
 1132              		.cfi_offset 4, -36
 1133              		.cfi_offset 5, -32
 1134              		.cfi_offset 6, -28
 1135              		.cfi_offset 7, -24
 1136              		.cfi_offset 8, -20
 1137              		.cfi_offset 9, -16
ARM GAS  C:\usertemp\ccuzpgLf.s 			page 47


 1138              		.cfi_offset 10, -12
 1139              		.cfi_offset 11, -8
 1140              		.cfi_offset 14, -4
 1141 0004 CFB0     		sub	sp, sp, #316
 1142              	.LCFI13:
 1143              		.cfi_def_cfa_offset 352
 1144 0006 0446     		mov	r4, r0
 651:lvgl/src/widgets/lv_btnmatrix.c ****     lv_btnmatrix_t * btnm = (lv_btnmatrix_t *)obj;
 1145              		.loc 1 651 5 is_stmt 1 view .LVU325
 651:lvgl/src/widgets/lv_btnmatrix.c ****     lv_btnmatrix_t * btnm = (lv_btnmatrix_t *)obj;
 1146              		.loc 1 651 22 is_stmt 0 view .LVU326
 1147 0008 FFF7FEFF 		bl	lv_event_get_target
 1148              	.LVL96:
 652:lvgl/src/widgets/lv_btnmatrix.c ****     if(btnm->btn_cnt == 0) return;
 1149              		.loc 1 652 5 is_stmt 1 view .LVU327
 653:lvgl/src/widgets/lv_btnmatrix.c **** 
 1150              		.loc 1 653 5 view .LVU328
 653:lvgl/src/widgets/lv_btnmatrix.c **** 
 1151              		.loc 1 653 12 is_stmt 0 view .LVU329
 1152 000c 038E     		ldrh	r3, [r0, #48]
 653:lvgl/src/widgets/lv_btnmatrix.c **** 
 1153              		.loc 1 653 7 view .LVU330
 1154 000e 13B9     		cbnz	r3, .L88
 1155              	.LVL97:
 1156              	.L58:
 812:lvgl/src/widgets/lv_btnmatrix.c **** /**
 1157              		.loc 1 812 1 view .LVU331
 1158 0010 4FB0     		add	sp, sp, #316
 1159              	.LCFI14:
 1160              		.cfi_remember_state
 1161              		.cfi_def_cfa_offset 36
 1162              		@ sp needed
 1163 0012 BDE8F08F 		pop	{r4, r5, r6, r7, r8, r9, r10, fp, pc}
 1164              	.LVL98:
 1165              	.L88:
 1166              	.LCFI15:
 1167              		.cfi_restore_state
 812:lvgl/src/widgets/lv_btnmatrix.c **** /**
 1168              		.loc 1 812 1 view .LVU332
 1169 0016 0546     		mov	r5, r0
 655:lvgl/src/widgets/lv_btnmatrix.c ****     obj->skip_trans = 1;
 1170              		.loc 1 655 5 is_stmt 1 view .LVU333
 655:lvgl/src/widgets/lv_btnmatrix.c ****     obj->skip_trans = 1;
 1171              		.loc 1 655 32 is_stmt 0 view .LVU334
 1172 0018 2046     		mov	r0, r4
 1173              	.LVL99:
 655:lvgl/src/widgets/lv_btnmatrix.c ****     obj->skip_trans = 1;
 1174              		.loc 1 655 32 view .LVU335
 1175 001a FFF7FEFF 		bl	lv_event_get_draw_ctx
 1176              	.LVL100:
 1177 001e 0646     		mov	r6, r0
 1178 0020 0490     		str	r0, [sp, #16]
 1179              	.LVL101:
 656:lvgl/src/widgets/lv_btnmatrix.c **** 
 1180              		.loc 1 656 5 is_stmt 1 view .LVU336
 656:lvgl/src/widgets/lv_btnmatrix.c **** 
 1181              		.loc 1 656 21 is_stmt 0 view .LVU337
ARM GAS  C:\usertemp\ccuzpgLf.s 			page 48


 1182 0022 95F82230 		ldrb	r3, [r5, #34]	@ zero_extendqisi2
 1183 0026 43F00403 		orr	r3, r3, #4
 1184 002a 85F82230 		strb	r3, [r5, #34]
 658:lvgl/src/widgets/lv_btnmatrix.c ****     lv_obj_get_coords(obj, &area_obj);
 1185              		.loc 1 658 5 is_stmt 1 view .LVU338
 659:lvgl/src/widgets/lv_btnmatrix.c **** 
 1186              		.loc 1 659 5 view .LVU339
 1187 002e 4CA9     		add	r1, sp, #304
 1188 0030 2846     		mov	r0, r5
 1189              	.LVL102:
 659:lvgl/src/widgets/lv_btnmatrix.c **** 
 1190              		.loc 1 659 5 is_stmt 0 view .LVU340
 1191 0032 FFF7FEFF 		bl	lv_obj_get_coords
 1192              	.LVL103:
 661:lvgl/src/widgets/lv_btnmatrix.c **** 
 1193              		.loc 1 661 5 is_stmt 1 view .LVU341
 663:lvgl/src/widgets/lv_btnmatrix.c ****     uint16_t txt_i = 0;
 1194              		.loc 1 663 5 view .LVU342
 664:lvgl/src/widgets/lv_btnmatrix.c **** 
 1195              		.loc 1 664 5 view .LVU343
 666:lvgl/src/widgets/lv_btnmatrix.c ****     lv_draw_label_dsc_t draw_label_dsc_act;
 1196              		.loc 1 666 5 view .LVU344
 667:lvgl/src/widgets/lv_btnmatrix.c **** 
 1197              		.loc 1 667 5 view .LVU345
 669:lvgl/src/widgets/lv_btnmatrix.c ****     lv_draw_label_dsc_t draw_label_dsc_def;
 1198              		.loc 1 669 5 view .LVU346
 670:lvgl/src/widgets/lv_btnmatrix.c **** 
 1199              		.loc 1 670 5 view .LVU347
 672:lvgl/src/widgets/lv_btnmatrix.c ****     obj->state = LV_STATE_DEFAULT;
 1200              		.loc 1 672 5 view .LVU348
 672:lvgl/src/widgets/lv_btnmatrix.c ****     obj->state = LV_STATE_DEFAULT;
 1201              		.loc 1 672 16 is_stmt 0 view .LVU349
 1202 0036 2C8C     		ldrh	r4, [r5, #32]
 1203              	.LVL104:
 672:lvgl/src/widgets/lv_btnmatrix.c ****     obj->state = LV_STATE_DEFAULT;
 1204              		.loc 1 672 16 view .LVU350
 1205 0038 0594     		str	r4, [sp, #20]
 1206              	.LVL105:
 673:lvgl/src/widgets/lv_btnmatrix.c ****     obj->skip_trans = 1;
 1207              		.loc 1 673 5 is_stmt 1 view .LVU351
 673:lvgl/src/widgets/lv_btnmatrix.c ****     obj->skip_trans = 1;
 1208              		.loc 1 673 16 is_stmt 0 view .LVU352
 1209 003a 0027     		movs	r7, #0
 1210 003c 2F84     		strh	r7, [r5, #32]	@ movhi
 674:lvgl/src/widgets/lv_btnmatrix.c ****     lv_draw_rect_dsc_init(&draw_rect_dsc_def);
 1211              		.loc 1 674 5 is_stmt 1 view .LVU353
 674:lvgl/src/widgets/lv_btnmatrix.c ****     lv_draw_rect_dsc_init(&draw_rect_dsc_def);
 1212              		.loc 1 674 21 is_stmt 0 view .LVU354
 1213 003e 95F82230 		ldrb	r3, [r5, #34]	@ zero_extendqisi2
 1214 0042 43F00403 		orr	r3, r3, #4
 1215 0046 85F82230 		strb	r3, [r5, #34]
 675:lvgl/src/widgets/lv_btnmatrix.c ****     lv_draw_label_dsc_init(&draw_label_dsc_def);
 1216              		.loc 1 675 5 is_stmt 1 view .LVU355
 1217 004a 26A8     		add	r0, sp, #152
 1218 004c FFF7FEFF 		bl	lv_draw_rect_dsc_init
 1219              	.LVL106:
 676:lvgl/src/widgets/lv_btnmatrix.c ****     lv_obj_init_draw_rect_dsc(obj, LV_PART_ITEMS, &draw_rect_dsc_def);
ARM GAS  C:\usertemp\ccuzpgLf.s 			page 49


 1220              		.loc 1 676 5 view .LVU356
 1221 0050 1EA8     		add	r0, sp, #120
 1222 0052 FFF7FEFF 		bl	lv_draw_label_dsc_init
 1223              	.LVL107:
 677:lvgl/src/widgets/lv_btnmatrix.c ****     lv_obj_init_draw_label_dsc(obj, LV_PART_ITEMS, &draw_label_dsc_def);
 1224              		.loc 1 677 5 view .LVU357
 1225 0056 26AA     		add	r2, sp, #152
 1226 0058 4FF4A021 		mov	r1, #327680
 1227 005c 2846     		mov	r0, r5
 1228 005e FFF7FEFF 		bl	lv_obj_init_draw_rect_dsc
 1229              	.LVL108:
 678:lvgl/src/widgets/lv_btnmatrix.c ****     obj->skip_trans = 0;
 1230              		.loc 1 678 5 view .LVU358
 1231 0062 1EAA     		add	r2, sp, #120
 1232 0064 4FF4A021 		mov	r1, #327680
 1233 0068 2846     		mov	r0, r5
 1234 006a FFF7FEFF 		bl	lv_obj_init_draw_label_dsc
 1235              	.LVL109:
 679:lvgl/src/widgets/lv_btnmatrix.c ****     obj->state = state_ori;
 1236              		.loc 1 679 5 view .LVU359
 679:lvgl/src/widgets/lv_btnmatrix.c ****     obj->state = state_ori;
 1237              		.loc 1 679 21 is_stmt 0 view .LVU360
 1238 006e 95F82230 		ldrb	r3, [r5, #34]	@ zero_extendqisi2
 1239 0072 67F38203 		bfi	r3, r7, #2, #1
 1240 0076 85F82230 		strb	r3, [r5, #34]
 680:lvgl/src/widgets/lv_btnmatrix.c **** 
 1241              		.loc 1 680 5 is_stmt 1 view .LVU361
 680:lvgl/src/widgets/lv_btnmatrix.c **** 
 1242              		.loc 1 680 16 is_stmt 0 view .LVU362
 1243 007a 2C84     		strh	r4, [r5, #32]	@ movhi
 682:lvgl/src/widgets/lv_btnmatrix.c ****     lv_coord_t pbottom = lv_obj_get_style_pad_bottom(obj, LV_PART_MAIN);
 1244              		.loc 1 682 5 is_stmt 1 view .LVU363
 1245              	.LVL110:
 1246              	.LBB101:
 1247              	.LBI101:
  91:lvgl/src/widgets/../core/lv_obj_style_gen.h **** {
 1248              		.loc 2 91 26 view .LVU364
 1249              	.LBB102:
  93:lvgl/src/widgets/../core/lv_obj_style_gen.h ****     return (lv_coord_t)v.num;
 1250              		.loc 2 93 5 view .LVU365
  93:lvgl/src/widgets/../core/lv_obj_style_gen.h ****     return (lv_coord_t)v.num;
 1251              		.loc 2 93 26 is_stmt 0 view .LVU366
 1252 007c 41F61002 		movw	r2, #6160
 1253 0080 3946     		mov	r1, r7
 1254 0082 2846     		mov	r0, r5
 1255 0084 FFF7FEFF 		bl	lv_obj_get_style_prop
 1256              	.LVL111:
  94:lvgl/src/widgets/../core/lv_obj_style_gen.h **** }
 1257              		.loc 2 94 5 is_stmt 1 view .LVU367
  94:lvgl/src/widgets/../core/lv_obj_style_gen.h **** }
 1258              		.loc 2 94 12 is_stmt 0 view .LVU368
 1259 0088 03B2     		sxth	r3, r0
 1260 008a 0693     		str	r3, [sp, #24]
 1261              	.LVL112:
  94:lvgl/src/widgets/../core/lv_obj_style_gen.h **** }
 1262              		.loc 2 94 12 view .LVU369
 1263              	.LBE102:
ARM GAS  C:\usertemp\ccuzpgLf.s 			page 50


 1264              	.LBE101:
 683:lvgl/src/widgets/lv_btnmatrix.c ****     lv_coord_t pleft = lv_obj_get_style_pad_left(obj, LV_PART_MAIN);
 1265              		.loc 1 683 5 is_stmt 1 view .LVU370
 1266              	.LBB103:
 1267              	.LBI103:
  97:lvgl/src/widgets/../core/lv_obj_style_gen.h **** {
 1268              		.loc 2 97 26 view .LVU371
 1269              	.LBB104:
  99:lvgl/src/widgets/../core/lv_obj_style_gen.h ****     return (lv_coord_t)v.num;
 1270              		.loc 2 99 5 view .LVU372
  99:lvgl/src/widgets/../core/lv_obj_style_gen.h ****     return (lv_coord_t)v.num;
 1271              		.loc 2 99 26 is_stmt 0 view .LVU373
 1272 008c 41F61102 		movw	r2, #6161
 1273 0090 3946     		mov	r1, r7
 1274 0092 2846     		mov	r0, r5
 1275 0094 FFF7FEFF 		bl	lv_obj_get_style_prop
 1276              	.LVL113:
 100:lvgl/src/widgets/../core/lv_obj_style_gen.h **** }
 1277              		.loc 2 100 5 is_stmt 1 view .LVU374
 100:lvgl/src/widgets/../core/lv_obj_style_gen.h **** }
 1278              		.loc 2 100 12 is_stmt 0 view .LVU375
 1279 0098 03B2     		sxth	r3, r0
 1280 009a 0793     		str	r3, [sp, #28]
 1281              	.LVL114:
 100:lvgl/src/widgets/../core/lv_obj_style_gen.h **** }
 1282              		.loc 2 100 12 view .LVU376
 1283              	.LBE104:
 1284              	.LBE103:
 684:lvgl/src/widgets/lv_btnmatrix.c ****     lv_coord_t pright = lv_obj_get_style_pad_right(obj, LV_PART_MAIN);
 1285              		.loc 1 684 5 is_stmt 1 view .LVU377
 1286              	.LBB105:
 1287              	.LBI105:
 103:lvgl/src/widgets/../core/lv_obj_style_gen.h **** {
 1288              		.loc 2 103 26 view .LVU378
 1289              	.LBB106:
 105:lvgl/src/widgets/../core/lv_obj_style_gen.h ****     return (lv_coord_t)v.num;
 1290              		.loc 2 105 5 view .LVU379
 105:lvgl/src/widgets/../core/lv_obj_style_gen.h ****     return (lv_coord_t)v.num;
 1291              		.loc 2 105 26 is_stmt 0 view .LVU380
 1292 009c 41F61202 		movw	r2, #6162
 1293 00a0 3946     		mov	r1, r7
 1294 00a2 2846     		mov	r0, r5
 1295 00a4 FFF7FEFF 		bl	lv_obj_get_style_prop
 1296              	.LVL115:
 106:lvgl/src/widgets/../core/lv_obj_style_gen.h **** }
 1297              		.loc 2 106 5 is_stmt 1 view .LVU381
 106:lvgl/src/widgets/../core/lv_obj_style_gen.h **** }
 1298              		.loc 2 106 12 is_stmt 0 view .LVU382
 1299 00a8 03B2     		sxth	r3, r0
 1300 00aa 0893     		str	r3, [sp, #32]
 1301              	.LVL116:
 106:lvgl/src/widgets/../core/lv_obj_style_gen.h **** }
 1302              		.loc 2 106 12 view .LVU383
 1303              	.LBE106:
 1304              	.LBE105:
 685:lvgl/src/widgets/lv_btnmatrix.c **** 
 1305              		.loc 1 685 5 is_stmt 1 view .LVU384
ARM GAS  C:\usertemp\ccuzpgLf.s 			page 51


 1306              	.LBB107:
 1307              	.LBI107:
 109:lvgl/src/widgets/../core/lv_obj_style_gen.h **** {
 1308              		.loc 2 109 26 view .LVU385
 1309              	.LBB108:
 111:lvgl/src/widgets/../core/lv_obj_style_gen.h ****     return (lv_coord_t)v.num;
 1310              		.loc 2 111 5 view .LVU386
 111:lvgl/src/widgets/../core/lv_obj_style_gen.h ****     return (lv_coord_t)v.num;
 1311              		.loc 2 111 26 is_stmt 0 view .LVU387
 1312 00ac 41F61302 		movw	r2, #6163
 1313 00b0 3946     		mov	r1, r7
 1314 00b2 2846     		mov	r0, r5
 1315 00b4 FFF7FEFF 		bl	lv_obj_get_style_prop
 1316              	.LVL117:
 112:lvgl/src/widgets/../core/lv_obj_style_gen.h **** }
 1317              		.loc 2 112 5 is_stmt 1 view .LVU388
 112:lvgl/src/widgets/../core/lv_obj_style_gen.h **** }
 1318              		.loc 2 112 12 is_stmt 0 view .LVU389
 1319 00b8 03B2     		sxth	r3, r0
 1320 00ba 0993     		str	r3, [sp, #36]
 1321              	.LVL118:
 112:lvgl/src/widgets/../core/lv_obj_style_gen.h **** }
 1322              		.loc 2 112 12 view .LVU390
 1323              	.LBE108:
 1324              	.LBE107:
 692:lvgl/src/widgets/lv_btnmatrix.c ****     lv_obj_draw_dsc_init(&part_draw_dsc, draw_ctx);
 1325              		.loc 1 692 5 is_stmt 1 view .LVU391
 693:lvgl/src/widgets/lv_btnmatrix.c ****     part_draw_dsc.part = LV_PART_ITEMS;
 1326              		.loc 1 693 5 view .LVU392
 1327 00bc 3146     		mov	r1, r6
 1328 00be 0CA8     		add	r0, sp, #48
 1329 00c0 FFF7FEFF 		bl	lv_obj_draw_dsc_init
 1330              	.LVL119:
 694:lvgl/src/widgets/lv_btnmatrix.c ****     part_draw_dsc.class_p = MY_CLASS;
 1331              		.loc 1 694 5 view .LVU393
 694:lvgl/src/widgets/lv_btnmatrix.c ****     part_draw_dsc.class_p = MY_CLASS;
 1332              		.loc 1 694 24 is_stmt 0 view .LVU394
 1333 00c4 4FF4A023 		mov	r3, #327680
 1334 00c8 1993     		str	r3, [sp, #100]
 695:lvgl/src/widgets/lv_btnmatrix.c ****     part_draw_dsc.type = LV_BTNMATRIX_DRAW_PART_BTN;
 1335              		.loc 1 695 5 is_stmt 1 view .LVU395
 695:lvgl/src/widgets/lv_btnmatrix.c ****     part_draw_dsc.type = LV_BTNMATRIX_DRAW_PART_BTN;
 1336              		.loc 1 695 27 is_stmt 0 view .LVU396
 1337 00ca C84B     		ldr	r3, .L96
 1338 00cc 0D93     		str	r3, [sp, #52]
 696:lvgl/src/widgets/lv_btnmatrix.c ****     part_draw_dsc.rect_dsc = &draw_rect_dsc_act;
 1339              		.loc 1 696 5 is_stmt 1 view .LVU397
 696:lvgl/src/widgets/lv_btnmatrix.c ****     part_draw_dsc.rect_dsc = &draw_rect_dsc_act;
 1340              		.loc 1 696 24 is_stmt 0 view .LVU398
 1341 00ce 0E97     		str	r7, [sp, #56]
 697:lvgl/src/widgets/lv_btnmatrix.c ****     part_draw_dsc.label_dsc = &draw_label_dsc_act;
 1342              		.loc 1 697 5 is_stmt 1 view .LVU399
 697:lvgl/src/widgets/lv_btnmatrix.c ****     part_draw_dsc.label_dsc = &draw_label_dsc_act;
 1343              		.loc 1 697 28 is_stmt 0 view .LVU400
 1344 00d0 3CAB     		add	r3, sp, #240
 1345 00d2 1093     		str	r3, [sp, #64]
 698:lvgl/src/widgets/lv_btnmatrix.c **** 
ARM GAS  C:\usertemp\ccuzpgLf.s 			page 52


 1346              		.loc 1 698 5 is_stmt 1 view .LVU401
 698:lvgl/src/widgets/lv_btnmatrix.c **** 
 1347              		.loc 1 698 29 is_stmt 0 view .LVU402
 1348 00d4 34AB     		add	r3, sp, #208
 1349 00d6 1193     		str	r3, [sp, #68]
 700:lvgl/src/widgets/lv_btnmatrix.c ****         /*Search the next valid text in the map*/
 1350              		.loc 1 700 5 is_stmt 1 view .LVU403
 664:lvgl/src/widgets/lv_btnmatrix.c **** 
 1351              		.loc 1 664 14 is_stmt 0 view .LVU404
 1352 00d8 3C46     		mov	r4, r7
 1353              	.LVL120:
 700:lvgl/src/widgets/lv_btnmatrix.c ****         /*Search the next valid text in the map*/
 1354              		.loc 1 700 5 view .LVU405
 1355 00da 30E1     		b	.L61
 1356              	.LVL121:
 1357              	.L62:
 1358              	.LBB109:
 703:lvgl/src/widgets/lv_btnmatrix.c ****         }
 1359              		.loc 1 703 13 is_stmt 1 view .LVU406
 703:lvgl/src/widgets/lv_btnmatrix.c ****         }
 1360              		.loc 1 703 18 is_stmt 0 view .LVU407
 1361 00dc 0134     		adds	r4, r4, #1
 1362              	.LVL122:
 703:lvgl/src/widgets/lv_btnmatrix.c ****         }
 1363              		.loc 1 703 18 view .LVU408
 1364 00de A4B2     		uxth	r4, r4
 1365              	.LVL123:
 1366              	.L84:
 702:lvgl/src/widgets/lv_btnmatrix.c ****             txt_i++;
 1367              		.loc 1 702 48 is_stmt 1 view .LVU409
 702:lvgl/src/widgets/lv_btnmatrix.c ****             txt_i++;
 1368              		.loc 1 702 26 is_stmt 0 view .LVU410
 1369 00e0 6B6A     		ldr	r3, [r5, #36]
 702:lvgl/src/widgets/lv_btnmatrix.c ****             txt_i++;
 1370              		.loc 1 702 33 view .LVU411
 1371 00e2 A600     		lsls	r6, r4, #2
 702:lvgl/src/widgets/lv_btnmatrix.c ****             txt_i++;
 1372              		.loc 1 702 15 view .LVU412
 1373 00e4 C249     		ldr	r1, .L96+4
 1374 00e6 53F82400 		ldr	r0, [r3, r4, lsl #2]
 1375 00ea FFF7FEFF 		bl	strcmp
 1376              	.LVL124:
 702:lvgl/src/widgets/lv_btnmatrix.c ****             txt_i++;
 1377              		.loc 1 702 48 discriminator 1 view .LVU413
 1378 00ee 0028     		cmp	r0, #0
 1379 00f0 F4D0     		beq	.L62
 707:lvgl/src/widgets/lv_btnmatrix.c **** 
 1380              		.loc 1 707 9 is_stmt 1 view .LVU414
 707:lvgl/src/widgets/lv_btnmatrix.c **** 
 1381              		.loc 1 707 33 is_stmt 0 view .LVU415
 1382 00f2 EB6A     		ldr	r3, [r5, #44]
 707:lvgl/src/widgets/lv_btnmatrix.c **** 
 1383              		.loc 1 707 44 view .LVU416
 1384 00f4 BA46     		mov	r10, r7
 1385 00f6 4FEA470B 		lsl	fp, r7, #1
 707:lvgl/src/widgets/lv_btnmatrix.c **** 
 1386              		.loc 1 707 12 view .LVU417
ARM GAS  C:\usertemp\ccuzpgLf.s 			page 53


 1387 00fa 33F81790 		ldrh	r9, [r3, r7, lsl #1]
 1388 00fe 4846     		mov	r0, r9
 1389 0100 FFF7FEFF 		bl	button_is_hidden
 1390              	.LVL125:
 707:lvgl/src/widgets/lv_btnmatrix.c **** 
 1391              		.loc 1 707 11 discriminator 1 view .LVU418
 1392 0104 0028     		cmp	r0, #0
 1393 0106 40F01681 		bne	.L64
 710:lvgl/src/widgets/lv_btnmatrix.c ****         if(button_get_checked(btnm->ctrl_bits[btn_i])) btn_state |= LV_STATE_CHECKED;
 1394              		.loc 1 710 9 is_stmt 1 view .LVU419
 1395              	.LVL126:
 711:lvgl/src/widgets/lv_btnmatrix.c **** 
 1396              		.loc 1 711 9 view .LVU420
 711:lvgl/src/widgets/lv_btnmatrix.c **** 
 1397              		.loc 1 711 12 is_stmt 0 view .LVU421
 1398 010a 4846     		mov	r0, r9
 1399 010c FFF7FEFF 		bl	button_get_checked
 1400              	.LVL127:
 711:lvgl/src/widgets/lv_btnmatrix.c **** 
 1401              		.loc 1 711 11 discriminator 1 view .LVU422
 1402 0110 0028     		cmp	r0, #0
 1403 0112 40F01F81 		bne	.L85
 710:lvgl/src/widgets/lv_btnmatrix.c ****         if(button_get_checked(btnm->ctrl_bits[btn_i])) btn_state |= LV_STATE_CHECKED;
 1404              		.loc 1 710 20 view .LVU423
 1405 0116 4FF00008 		mov	r8, #0
 1406              	.L65:
 1407              	.LVL128:
 713:lvgl/src/widgets/lv_btnmatrix.c ****         else if(btn_i == btnm->btn_id_sel) {
 1408              		.loc 1 713 9 is_stmt 1 view .LVU424
 713:lvgl/src/widgets/lv_btnmatrix.c ****         else if(btn_i == btnm->btn_id_sel) {
 1409              		.loc 1 713 12 is_stmt 0 view .LVU425
 1410 011a 4846     		mov	r0, r9
 1411 011c FFF7FEFF 		bl	button_is_inactive
 1412              	.LVL129:
 713:lvgl/src/widgets/lv_btnmatrix.c ****         else if(btn_i == btnm->btn_id_sel) {
 1413              		.loc 1 713 11 discriminator 1 view .LVU426
 1414 0120 0028     		cmp	r0, #0
 1415 0122 00F01A81 		beq	.L66
 713:lvgl/src/widgets/lv_btnmatrix.c ****         else if(btn_i == btnm->btn_id_sel) {
 1416              		.loc 1 713 56 is_stmt 1 discriminator 1 view .LVU427
 713:lvgl/src/widgets/lv_btnmatrix.c ****         else if(btn_i == btnm->btn_id_sel) {
 1417              		.loc 1 713 66 is_stmt 0 discriminator 1 view .LVU428
 1418 0126 48F08008 		orr	r8, r8, #128
 1419              	.LVL130:
 1420              	.L67:
 722:lvgl/src/widgets/lv_btnmatrix.c ****         btn_area.x1 += area_obj.x1;
 1421              		.loc 1 722 9 is_stmt 1 view .LVU429
 722:lvgl/src/widgets/lv_btnmatrix.c ****         btn_area.x1 += area_obj.x1;
 1422              		.loc 1 722 38 is_stmt 0 view .LVU430
 1423 012a AA6A     		ldr	r2, [r5, #40]
 722:lvgl/src/widgets/lv_btnmatrix.c ****         btn_area.x1 += area_obj.x1;
 1424              		.loc 1 722 33 view .LVU431
 1425 012c 02EBCA03 		add	r3, r2, r10, lsl #3
 1426              	.LVL131:
 1427              	.LBB110:
 1428              	.LBI110:
 110:lvgl/src/widgets/../core/../misc/../font/../misc/lv_area.h **** {
ARM GAS  C:\usertemp\ccuzpgLf.s 			page 54


 1429              		.loc 3 110 20 is_stmt 1 view .LVU432
 1430              	.LBB111:
 112:lvgl/src/widgets/../core/../misc/../font/../misc/lv_area.h ****     dest->y1 = src->y1;
 1431              		.loc 3 112 5 view .LVU433
 112:lvgl/src/widgets/../core/../misc/../font/../misc/lv_area.h ****     dest->y1 = src->y1;
 1432              		.loc 3 112 19 is_stmt 0 view .LVU434
 1433 0130 32F93A00 		ldrsh	r0, [r2, r10, lsl #3]
 112:lvgl/src/widgets/../core/../misc/../font/../misc/lv_area.h ****     dest->y1 = src->y1;
 1434              		.loc 3 112 14 view .LVU435
 1435 0134 ADF82801 		strh	r0, [sp, #296]	@ movhi
 113:lvgl/src/widgets/../core/../misc/../font/../misc/lv_area.h ****     dest->x2 = src->x2;
 1436              		.loc 3 113 5 is_stmt 1 view .LVU436
 113:lvgl/src/widgets/../core/../misc/../font/../misc/lv_area.h ****     dest->x2 = src->x2;
 1437              		.loc 3 113 19 is_stmt 0 view .LVU437
 1438 0138 B3F90210 		ldrsh	r1, [r3, #2]
 113:lvgl/src/widgets/../core/../misc/../font/../misc/lv_area.h ****     dest->x2 = src->x2;
 1439              		.loc 3 113 14 view .LVU438
 1440 013c ADF82A11 		strh	r1, [sp, #298]	@ movhi
 114:lvgl/src/widgets/../core/../misc/../font/../misc/lv_area.h ****     dest->y2 = src->y2;
 1441              		.loc 3 114 5 is_stmt 1 view .LVU439
 114:lvgl/src/widgets/../core/../misc/../font/../misc/lv_area.h ****     dest->y2 = src->y2;
 1442              		.loc 3 114 19 is_stmt 0 view .LVU440
 1443 0140 B3F90420 		ldrsh	r2, [r3, #4]
 114:lvgl/src/widgets/../core/../misc/../font/../misc/lv_area.h ****     dest->y2 = src->y2;
 1444              		.loc 3 114 14 view .LVU441
 1445 0144 ADF82C21 		strh	r2, [sp, #300]	@ movhi
 115:lvgl/src/widgets/../core/../misc/../font/../misc/lv_area.h **** }
 1446              		.loc 3 115 5 is_stmt 1 view .LVU442
 115:lvgl/src/widgets/../core/../misc/../font/../misc/lv_area.h **** }
 1447              		.loc 3 115 19 is_stmt 0 view .LVU443
 1448 0148 B3F90630 		ldrsh	r3, [r3, #6]
 1449              	.LVL132:
 115:lvgl/src/widgets/../core/../misc/../font/../misc/lv_area.h **** }
 1450              		.loc 3 115 14 view .LVU444
 1451 014c ADF82E31 		strh	r3, [sp, #302]	@ movhi
 1452              	.LVL133:
 115:lvgl/src/widgets/../core/../misc/../font/../misc/lv_area.h **** }
 1453              		.loc 3 115 14 view .LVU445
 1454              	.LBE111:
 1455              	.LBE110:
 723:lvgl/src/widgets/lv_btnmatrix.c ****         btn_area.y1 += area_obj.y1;
 1456              		.loc 1 723 9 is_stmt 1 view .LVU446
 723:lvgl/src/widgets/lv_btnmatrix.c ****         btn_area.y1 += area_obj.y1;
 1457              		.loc 1 723 32 is_stmt 0 view .LVU447
 1458 0150 BDF830C1 		ldrh	ip, [sp, #304]
 723:lvgl/src/widgets/lv_btnmatrix.c ****         btn_area.y1 += area_obj.y1;
 1459              		.loc 1 723 21 view .LVU448
 1460 0154 1CFA80F0 		uxtah	r0, ip, r0
 1461 0158 ADF82801 		strh	r0, [sp, #296]	@ movhi
 724:lvgl/src/widgets/lv_btnmatrix.c ****         btn_area.x2 += area_obj.x1;
 1462              		.loc 1 724 9 is_stmt 1 view .LVU449
 724:lvgl/src/widgets/lv_btnmatrix.c ****         btn_area.x2 += area_obj.x1;
 1463              		.loc 1 724 32 is_stmt 0 view .LVU450
 1464 015c BDF83201 		ldrh	r0, [sp, #306]
 724:lvgl/src/widgets/lv_btnmatrix.c ****         btn_area.x2 += area_obj.x1;
 1465              		.loc 1 724 21 view .LVU451
 1466 0160 10FA81F1 		uxtah	r1, r0, r1
ARM GAS  C:\usertemp\ccuzpgLf.s 			page 55


 1467 0164 ADF82A11 		strh	r1, [sp, #298]	@ movhi
 725:lvgl/src/widgets/lv_btnmatrix.c ****         btn_area.y2 += area_obj.y1;
 1468              		.loc 1 725 9 is_stmt 1 view .LVU452
 725:lvgl/src/widgets/lv_btnmatrix.c ****         btn_area.y2 += area_obj.y1;
 1469              		.loc 1 725 21 is_stmt 0 view .LVU453
 1470 0168 1CFA82F2 		uxtah	r2, ip, r2
 1471 016c ADF82C21 		strh	r2, [sp, #300]	@ movhi
 726:lvgl/src/widgets/lv_btnmatrix.c **** 
 1472              		.loc 1 726 9 is_stmt 1 view .LVU454
 726:lvgl/src/widgets/lv_btnmatrix.c **** 
 1473              		.loc 1 726 21 is_stmt 0 view .LVU455
 1474 0170 10FA83F3 		uxtah	r3, r0, r3
 1475 0174 ADF82E31 		strh	r3, [sp, #302]	@ movhi
 729:lvgl/src/widgets/lv_btnmatrix.c ****             lv_memcpy(&draw_rect_dsc_act, &draw_rect_dsc_def, sizeof(lv_draw_rect_dsc_t));
 1476              		.loc 1 729 9 is_stmt 1 view .LVU456
 729:lvgl/src/widgets/lv_btnmatrix.c ****             lv_memcpy(&draw_rect_dsc_act, &draw_rect_dsc_def, sizeof(lv_draw_rect_dsc_t));
 1477              		.loc 1 729 11 is_stmt 0 view .LVU457
 1478 0178 B8F1000F 		cmp	r8, #0
 1479 017c 40F00B81 		bne	.L71
 730:lvgl/src/widgets/lv_btnmatrix.c ****             lv_memcpy(&draw_label_dsc_act, &draw_label_dsc_def, sizeof(lv_draw_label_dsc_t));
 1480              		.loc 1 730 13 is_stmt 1 view .LVU458
 1481 0180 3822     		movs	r2, #56
 1482 0182 26A9     		add	r1, sp, #152
 1483 0184 3CA8     		add	r0, sp, #240
 1484 0186 FFF7FEFF 		bl	lv_memcpy
 1485              	.LVL134:
 731:lvgl/src/widgets/lv_btnmatrix.c ****         }
 1486              		.loc 1 731 13 view .LVU459
 1487 018a 2022     		movs	r2, #32
 1488 018c 1EA9     		add	r1, sp, #120
 1489 018e 34A8     		add	r0, sp, #208
 1490 0190 FFF7FEFF 		bl	lv_memcpy
 1491              	.LVL135:
 1492              	.L72:
 745:lvgl/src/widgets/lv_btnmatrix.c ****         if(recolor) draw_label_dsc_act.flag |= LV_TEXT_FLAG_RECOLOR;
 1493              		.loc 1 745 9 view .LVU460
 745:lvgl/src/widgets/lv_btnmatrix.c ****         if(recolor) draw_label_dsc_act.flag |= LV_TEXT_FLAG_RECOLOR;
 1494              		.loc 1 745 46 is_stmt 0 view .LVU461
 1495 0194 EB6A     		ldr	r3, [r5, #44]
 745:lvgl/src/widgets/lv_btnmatrix.c ****         if(recolor) draw_label_dsc_act.flag |= LV_TEXT_FLAG_RECOLOR;
 1496              		.loc 1 745 24 view .LVU462
 1497 0196 33F80B00 		ldrh	r0, [r3, fp]
 1498 019a FFF7FEFF 		bl	button_is_recolor
 1499              	.LVL136:
 746:lvgl/src/widgets/lv_btnmatrix.c ****         else draw_label_dsc_act.flag &= ~LV_TEXT_FLAG_RECOLOR;
 1500              		.loc 1 746 9 is_stmt 1 view .LVU463
 746:lvgl/src/widgets/lv_btnmatrix.c ****         else draw_label_dsc_act.flag &= ~LV_TEXT_FLAG_RECOLOR;
 1501              		.loc 1 746 11 is_stmt 0 view .LVU464
 1502 019e 0028     		cmp	r0, #0
 1503 01a0 00F01C81 		beq	.L73
 746:lvgl/src/widgets/lv_btnmatrix.c ****         else draw_label_dsc_act.flag &= ~LV_TEXT_FLAG_RECOLOR;
 1504              		.loc 1 746 21 is_stmt 1 discriminator 1 view .LVU465
 746:lvgl/src/widgets/lv_btnmatrix.c ****         else draw_label_dsc_act.flag &= ~LV_TEXT_FLAG_RECOLOR;
 1505              		.loc 1 746 39 is_stmt 0 discriminator 1 view .LVU466
 1506 01a4 9DF8ED30 		ldrb	r3, [sp, #237]	@ zero_extendqisi2
 746:lvgl/src/widgets/lv_btnmatrix.c ****         else draw_label_dsc_act.flag &= ~LV_TEXT_FLAG_RECOLOR;
 1507              		.loc 1 746 45 discriminator 1 view .LVU467
ARM GAS  C:\usertemp\ccuzpgLf.s 			page 56


 1508 01a8 43F00103 		orr	r3, r3, #1
 1509 01ac 8DF8ED30 		strb	r3, [sp, #237]
 1510              	.L74:
 750:lvgl/src/widgets/lv_btnmatrix.c ****         part_draw_dsc.id = btn_i;
 1511              		.loc 1 750 9 is_stmt 1 view .LVU468
 750:lvgl/src/widgets/lv_btnmatrix.c ****         part_draw_dsc.id = btn_i;
 1512              		.loc 1 750 33 is_stmt 0 view .LVU469
 1513 01b0 4AAB     		add	r3, sp, #296
 1514 01b2 0F93     		str	r3, [sp, #60]
 751:lvgl/src/widgets/lv_btnmatrix.c ****         lv_event_send(obj, LV_EVENT_DRAW_PART_BEGIN, &part_draw_dsc);
 1515              		.loc 1 751 9 is_stmt 1 view .LVU470
 751:lvgl/src/widgets/lv_btnmatrix.c ****         lv_event_send(obj, LV_EVENT_DRAW_PART_BEGIN, &part_draw_dsc);
 1516              		.loc 1 751 26 is_stmt 0 view .LVU471
 1517 01b4 CDF868A0 		str	r10, [sp, #104]
 752:lvgl/src/widgets/lv_btnmatrix.c **** 
 1518              		.loc 1 752 9 is_stmt 1 view .LVU472
 1519 01b8 0CAA     		add	r2, sp, #48
 1520 01ba 1A21     		movs	r1, #26
 1521 01bc 2846     		mov	r0, r5
 1522              	.LVL137:
 752:lvgl/src/widgets/lv_btnmatrix.c **** 
 1523              		.loc 1 752 9 is_stmt 0 view .LVU473
 1524 01be FFF7FEFF 		bl	lv_event_send
 1525              	.LVL138:
 755:lvgl/src/widgets/lv_btnmatrix.c ****             draw_rect_dsc_act.border_side = LV_BORDER_SIDE_FULL;
 1526              		.loc 1 755 9 is_stmt 1 view .LVU474
 755:lvgl/src/widgets/lv_btnmatrix.c ****             draw_rect_dsc_act.border_side = LV_BORDER_SIDE_FULL;
 1527              		.loc 1 755 29 is_stmt 0 view .LVU475
 1528 01c2 9DF81331 		ldrb	r3, [sp, #275]	@ zero_extendqisi2
 1529 01c6 C3F34403 		ubfx	r3, r3, #1, #5
 755:lvgl/src/widgets/lv_btnmatrix.c ****             draw_rect_dsc_act.border_side = LV_BORDER_SIDE_FULL;
 1530              		.loc 1 755 11 view .LVU476
 1531 01ca 0F2B     		cmp	r3, #15
 1532 01cc 2AD9     		bls	.L75
 756:lvgl/src/widgets/lv_btnmatrix.c ****             if(btn_area.x1 == obj->coords.x1 + pleft) draw_rect_dsc_act.border_side &= ~LV_BORDER_S
 1533              		.loc 1 756 13 is_stmt 1 view .LVU477
 756:lvgl/src/widgets/lv_btnmatrix.c ****             if(btn_area.x1 == obj->coords.x1 + pleft) draw_rect_dsc_act.border_side &= ~LV_BORDER_S
 1534              		.loc 1 756 43 is_stmt 0 view .LVU478
 1535 01ce 9DF81331 		ldrb	r3, [sp, #275]	@ zero_extendqisi2
 1536 01d2 0F22     		movs	r2, #15
 1537 01d4 62F34503 		bfi	r3, r2, #1, #5
 1538 01d8 8DF81331 		strb	r3, [sp, #275]
 757:lvgl/src/widgets/lv_btnmatrix.c ****             if(btn_area.x2 == obj->coords.x2 - pright) draw_rect_dsc_act.border_side &= ~LV_BORDER_
 1539              		.loc 1 757 13 is_stmt 1 view .LVU479
 757:lvgl/src/widgets/lv_btnmatrix.c ****             if(btn_area.x2 == obj->coords.x2 - pright) draw_rect_dsc_act.border_side &= ~LV_BORDER_
 1540              		.loc 1 757 24 is_stmt 0 view .LVU480
 1541 01dc BDF92821 		ldrsh	r2, [sp, #296]
 757:lvgl/src/widgets/lv_btnmatrix.c ****             if(btn_area.x2 == obj->coords.x2 - pright) draw_rect_dsc_act.border_side &= ~LV_BORDER_
 1542              		.loc 1 757 42 view .LVU481
 1543 01e0 B5F91430 		ldrsh	r3, [r5, #20]
 757:lvgl/src/widgets/lv_btnmatrix.c ****             if(btn_area.x2 == obj->coords.x2 - pright) draw_rect_dsc_act.border_side &= ~LV_BORDER_
 1544              		.loc 1 757 46 view .LVU482
 1545 01e4 0899     		ldr	r1, [sp, #32]
 1546 01e6 0B44     		add	r3, r3, r1
 757:lvgl/src/widgets/lv_btnmatrix.c ****             if(btn_area.x2 == obj->coords.x2 - pright) draw_rect_dsc_act.border_side &= ~LV_BORDER_
 1547              		.loc 1 757 15 view .LVU483
 1548 01e8 9A42     		cmp	r2, r3
ARM GAS  C:\usertemp\ccuzpgLf.s 			page 57


 1549 01ea 00F00381 		beq	.L89
 1550              	.L76:
 758:lvgl/src/widgets/lv_btnmatrix.c ****             if(btn_area.y1 == obj->coords.y1 + ptop) draw_rect_dsc_act.border_side &= ~LV_BORDER_SI
 1551              		.loc 1 758 13 is_stmt 1 view .LVU484
 758:lvgl/src/widgets/lv_btnmatrix.c ****             if(btn_area.y1 == obj->coords.y1 + ptop) draw_rect_dsc_act.border_side &= ~LV_BORDER_SI
 1552              		.loc 1 758 24 is_stmt 0 view .LVU485
 1553 01ee BDF92C21 		ldrsh	r2, [sp, #300]
 758:lvgl/src/widgets/lv_btnmatrix.c ****             if(btn_area.y1 == obj->coords.y1 + ptop) draw_rect_dsc_act.border_side &= ~LV_BORDER_SI
 1554              		.loc 1 758 42 view .LVU486
 1555 01f2 B5F91830 		ldrsh	r3, [r5, #24]
 758:lvgl/src/widgets/lv_btnmatrix.c ****             if(btn_area.y1 == obj->coords.y1 + ptop) draw_rect_dsc_act.border_side &= ~LV_BORDER_SI
 1556              		.loc 1 758 46 view .LVU487
 1557 01f6 0999     		ldr	r1, [sp, #36]
 1558 01f8 5B1A     		subs	r3, r3, r1
 758:lvgl/src/widgets/lv_btnmatrix.c ****             if(btn_area.y1 == obj->coords.y1 + ptop) draw_rect_dsc_act.border_side &= ~LV_BORDER_SI
 1559              		.loc 1 758 15 view .LVU488
 1560 01fa 9A42     		cmp	r2, r3
 1561 01fc 00F00281 		beq	.L90
 1562              	.L77:
 759:lvgl/src/widgets/lv_btnmatrix.c ****             if(btn_area.y2 == obj->coords.y2 - pbottom) draw_rect_dsc_act.border_side &= ~LV_BORDER
 1563              		.loc 1 759 13 is_stmt 1 view .LVU489
 759:lvgl/src/widgets/lv_btnmatrix.c ****             if(btn_area.y2 == obj->coords.y2 - pbottom) draw_rect_dsc_act.border_side &= ~LV_BORDER
 1564              		.loc 1 759 24 is_stmt 0 view .LVU490
 1565 0200 BDF92A21 		ldrsh	r2, [sp, #298]
 759:lvgl/src/widgets/lv_btnmatrix.c ****             if(btn_area.y2 == obj->coords.y2 - pbottom) draw_rect_dsc_act.border_side &= ~LV_BORDER
 1566              		.loc 1 759 42 view .LVU491
 1567 0204 B5F91630 		ldrsh	r3, [r5, #22]
 759:lvgl/src/widgets/lv_btnmatrix.c ****             if(btn_area.y2 == obj->coords.y2 - pbottom) draw_rect_dsc_act.border_side &= ~LV_BORDER
 1568              		.loc 1 759 46 view .LVU492
 1569 0208 0699     		ldr	r1, [sp, #24]
 1570 020a 0B44     		add	r3, r3, r1
 759:lvgl/src/widgets/lv_btnmatrix.c ****             if(btn_area.y2 == obj->coords.y2 - pbottom) draw_rect_dsc_act.border_side &= ~LV_BORDER
 1571              		.loc 1 759 15 view .LVU493
 1572 020c 9A42     		cmp	r2, r3
 1573 020e 00F00481 		beq	.L91
 1574              	.L78:
 760:lvgl/src/widgets/lv_btnmatrix.c ****         }
 1575              		.loc 1 760 13 is_stmt 1 view .LVU494
 760:lvgl/src/widgets/lv_btnmatrix.c ****         }
 1576              		.loc 1 760 24 is_stmt 0 view .LVU495
 1577 0212 BDF92E21 		ldrsh	r2, [sp, #302]
 760:lvgl/src/widgets/lv_btnmatrix.c ****         }
 1578              		.loc 1 760 42 view .LVU496
 1579 0216 B5F91A30 		ldrsh	r3, [r5, #26]
 760:lvgl/src/widgets/lv_btnmatrix.c ****         }
 1580              		.loc 1 760 46 view .LVU497
 1581 021a 0799     		ldr	r1, [sp, #28]
 1582 021c 5B1A     		subs	r3, r3, r1
 760:lvgl/src/widgets/lv_btnmatrix.c ****         }
 1583              		.loc 1 760 15 view .LVU498
 1584 021e 9A42     		cmp	r2, r3
 1585 0220 00F00681 		beq	.L92
 1586              	.L75:
 763:lvgl/src/widgets/lv_btnmatrix.c **** 
 1587              		.loc 1 763 9 is_stmt 1 view .LVU499
 1588              	.LVL139:
 1589              	.LBB112:
ARM GAS  C:\usertemp\ccuzpgLf.s 			page 58


 1590              	.LBI112:
 133:lvgl/src/widgets/../core/../misc/../font/../misc/lv_area.h **** {
 1591              		.loc 3 133 26 view .LVU500
 1592              	.LBB113:
 1593              		.loc 3 135 5 view .LVU501
 1594              		.loc 3 135 31 is_stmt 0 view .LVU502
 1595 0224 BDF82E91 		ldrh	r9, [sp, #302]
 1596              		.loc 3 135 44 view .LVU503
 1597 0228 BDF82A31 		ldrh	r3, [sp, #298]
 1598              		.loc 3 135 36 view .LVU504
 1599 022c A9EB0309 		sub	r9, r9, r3
 1600 0230 1FFA89F9 		uxth	r9, r9
 1601              		.loc 3 135 49 view .LVU505
 1602 0234 09F10109 		add	r9, r9, #1
 1603 0238 1FFA89F2 		uxth	r2, r9
 1604              		.loc 3 135 12 view .LVU506
 1605 023c 0FFA89F9 		sxth	r9, r9
 1606              	.LVL140:
 1607              		.loc 3 135 12 view .LVU507
 1608              	.LBE113:
 1609              	.LBE112:
 765:lvgl/src/widgets/lv_btnmatrix.c ****             /*Push up the upper boundary of the btn area to create the popover*/
 1610              		.loc 1 765 9 is_stmt 1 view .LVU508
 765:lvgl/src/widgets/lv_btnmatrix.c ****             /*Push up the upper boundary of the btn area to create the popover*/
 1611              		.loc 1 765 11 is_stmt 0 view .LVU509
 1612 0240 18F02008 		ands	r8, r8, #32
 1613              	.LVL141:
 765:lvgl/src/widgets/lv_btnmatrix.c ****             /*Push up the upper boundary of the btn area to create the popover*/
 1614              		.loc 1 765 11 view .LVU510
 1615 0244 08D0     		beq	.L79
 765:lvgl/src/widgets/lv_btnmatrix.c ****             /*Push up the upper boundary of the btn area to create the popover*/
 1616              		.loc 1 765 51 discriminator 1 view .LVU511
 1617 0246 E96A     		ldr	r1, [r5, #44]
 765:lvgl/src/widgets/lv_btnmatrix.c ****             /*Push up the upper boundary of the btn area to create the popover*/
 1618              		.loc 1 765 62 discriminator 1 view .LVU512
 1619 0248 31F80B10 		ldrh	r1, [r1, fp]
 765:lvgl/src/widgets/lv_btnmatrix.c ****             /*Push up the upper boundary of the btn area to create the popover*/
 1620              		.loc 1 765 43 discriminator 1 view .LVU513
 1621 024c 11F4007F 		tst	r1, #512
 1622 0250 02D0     		beq	.L79
 767:lvgl/src/widgets/lv_btnmatrix.c ****         }
 1623              		.loc 1 767 13 is_stmt 1 view .LVU514
 767:lvgl/src/widgets/lv_btnmatrix.c ****         }
 1624              		.loc 1 767 25 is_stmt 0 view .LVU515
 1625 0252 9B1A     		subs	r3, r3, r2
 1626 0254 ADF82A31 		strh	r3, [sp, #298]	@ movhi
 1627              	.L79:
 771:lvgl/src/widgets/lv_btnmatrix.c **** 
 1628              		.loc 1 771 9 is_stmt 1 view .LVU516
 1629 0258 4AAA     		add	r2, sp, #296
 1630 025a 3CA9     		add	r1, sp, #240
 1631 025c 0498     		ldr	r0, [sp, #16]
 1632 025e FFF7FEFF 		bl	lv_draw_rect
 1633              	.LVL142:
 774:lvgl/src/widgets/lv_btnmatrix.c ****         lv_coord_t letter_space = draw_label_dsc_act.letter_space;
 1634              		.loc 1 774 9 view .LVU517
 775:lvgl/src/widgets/lv_btnmatrix.c ****         lv_coord_t line_space = draw_label_dsc_act.line_space;
ARM GAS  C:\usertemp\ccuzpgLf.s 			page 59


 1635              		.loc 1 775 9 view .LVU518
 776:lvgl/src/widgets/lv_btnmatrix.c ****         const char * txt = btnm->map_p[txt_i];
 1636              		.loc 1 776 9 view .LVU519
 776:lvgl/src/widgets/lv_btnmatrix.c ****         const char * txt = btnm->map_p[txt_i];
 1637              		.loc 1 776 20 is_stmt 0 view .LVU520
 1638 0262 BDF9E220 		ldrsh	r2, [sp, #226]
 1639              	.LVL143:
 777:lvgl/src/widgets/lv_btnmatrix.c **** 
 1640              		.loc 1 777 9 is_stmt 1 view .LVU521
 777:lvgl/src/widgets/lv_btnmatrix.c **** 
 1641              		.loc 1 777 32 is_stmt 0 view .LVU522
 1642 0266 6B6A     		ldr	r3, [r5, #36]
 777:lvgl/src/widgets/lv_btnmatrix.c **** 
 1643              		.loc 1 777 22 view .LVU523
 1644 0268 9E59     		ldr	r6, [r3, r6]
 1645              	.LVL144:
 787:lvgl/src/widgets/lv_btnmatrix.c ****         lv_txt_get_size(&txt_size, txt, font, letter_space,
 1646              		.loc 1 787 9 is_stmt 1 view .LVU524
 788:lvgl/src/widgets/lv_btnmatrix.c ****                         line_space, lv_area_get_width(&area_obj), draw_label_dsc_act.flag);
 1647              		.loc 1 788 9 view .LVU525
 1648              	.LBB114:
 1649              	.LBI114:
 123:lvgl/src/widgets/../core/../misc/../font/../misc/lv_area.h **** {
 1650              		.loc 3 123 26 view .LVU526
 1651              	.LBB115:
 125:lvgl/src/widgets/../core/../misc/../font/../misc/lv_area.h **** }
 1652              		.loc 3 125 5 view .LVU527
 125:lvgl/src/widgets/../core/../misc/../font/../misc/lv_area.h **** }
 1653              		.loc 3 125 31 is_stmt 0 view .LVU528
 1654 026a BDF83431 		ldrh	r3, [sp, #308]
 125:lvgl/src/widgets/../core/../misc/../font/../misc/lv_area.h **** }
 1655              		.loc 3 125 44 view .LVU529
 1656 026e BDF83011 		ldrh	r1, [sp, #304]
 125:lvgl/src/widgets/../core/../misc/../font/../misc/lv_area.h **** }
 1657              		.loc 3 125 36 view .LVU530
 1658 0272 5B1A     		subs	r3, r3, r1
 1659 0274 9BB2     		uxth	r3, r3
 125:lvgl/src/widgets/../core/../misc/../font/../misc/lv_area.h **** }
 1660              		.loc 3 125 49 view .LVU531
 1661 0276 0133     		adds	r3, r3, #1
 125:lvgl/src/widgets/../core/../misc/../font/../misc/lv_area.h **** }
 1662              		.loc 3 125 12 view .LVU532
 1663 0278 1BB2     		sxth	r3, r3
 1664              	.LVL145:
 125:lvgl/src/widgets/../core/../misc/../font/../misc/lv_area.h **** }
 1665              		.loc 3 125 12 view .LVU533
 1666              	.LBE115:
 1667              	.LBE114:
 788:lvgl/src/widgets/lv_btnmatrix.c ****                         line_space, lv_area_get_width(&area_obj), draw_label_dsc_act.flag);
 1668              		.loc 1 788 9 discriminator 1 view .LVU534
 1669 027a 9DF8ED10 		ldrb	r1, [sp, #237]	@ zero_extendqisi2
 1670 027e 0291     		str	r1, [sp, #8]
 1671 0280 0193     		str	r3, [sp, #4]
 1672 0282 0092     		str	r2, [sp]
 1673 0284 BDF9E430 		ldrsh	r3, [sp, #228]
 1674 0288 349A     		ldr	r2, [sp, #208]
 1675 028a 3146     		mov	r1, r6
ARM GAS  C:\usertemp\ccuzpgLf.s 			page 60


 1676 028c 0BA8     		add	r0, sp, #44
 1677 028e FFF7FEFF 		bl	lv_txt_get_size
 1678              	.LVL146:
 791:lvgl/src/widgets/lv_btnmatrix.c ****         btn_area.y1 += (lv_area_get_height(&btn_area) - txt_size.y) / 2;
 1679              		.loc 1 791 9 is_stmt 1 view .LVU535
 1680              	.LBB116:
 1681              	.LBI116:
 123:lvgl/src/widgets/../core/../misc/../font/../misc/lv_area.h **** {
 1682              		.loc 3 123 26 view .LVU536
 1683              	.LBB117:
 125:lvgl/src/widgets/../core/../misc/../font/../misc/lv_area.h **** }
 1684              		.loc 3 125 5 view .LVU537
 125:lvgl/src/widgets/../core/../misc/../font/../misc/lv_area.h **** }
 1685              		.loc 3 125 31 is_stmt 0 view .LVU538
 1686 0292 BDF82C31 		ldrh	r3, [sp, #300]
 125:lvgl/src/widgets/../core/../misc/../font/../misc/lv_area.h **** }
 1687              		.loc 3 125 44 view .LVU539
 1688 0296 BDF82811 		ldrh	r1, [sp, #296]
 125:lvgl/src/widgets/../core/../misc/../font/../misc/lv_area.h **** }
 1689              		.loc 3 125 36 view .LVU540
 1690 029a 5B1A     		subs	r3, r3, r1
 1691 029c 9BB2     		uxth	r3, r3
 125:lvgl/src/widgets/../core/../misc/../font/../misc/lv_area.h **** }
 1692              		.loc 3 125 49 view .LVU541
 1693 029e 0133     		adds	r3, r3, #1
 125:lvgl/src/widgets/../core/../misc/../font/../misc/lv_area.h **** }
 1694              		.loc 3 125 12 view .LVU542
 1695 02a0 1BB2     		sxth	r3, r3
 1696              	.LVL147:
 125:lvgl/src/widgets/../core/../misc/../font/../misc/lv_area.h **** }
 1697              		.loc 3 125 12 view .LVU543
 1698              	.LBE117:
 1699              	.LBE116:
 791:lvgl/src/widgets/lv_btnmatrix.c ****         btn_area.y1 += (lv_area_get_height(&btn_area) - txt_size.y) / 2;
 1700              		.loc 1 791 64 discriminator 1 view .LVU544
 1701 02a2 BDF92C00 		ldrsh	r0, [sp, #44]
 791:lvgl/src/widgets/lv_btnmatrix.c ****         btn_area.y1 += (lv_area_get_height(&btn_area) - txt_size.y) / 2;
 1702              		.loc 1 791 68 discriminator 1 view .LVU545
 1703 02a6 1B1A     		subs	r3, r3, r0
 1704 02a8 00F1CD80 		bmi	.L93
 1705              	.L80:
 791:lvgl/src/widgets/lv_btnmatrix.c ****         btn_area.y1 += (lv_area_get_height(&btn_area) - txt_size.y) / 2;
 1706              		.loc 1 791 21 discriminator 1 view .LVU546
 1707 02ac 01EB6301 		add	r1, r1, r3, asr #1
 1708 02b0 89B2     		uxth	r1, r1
 1709 02b2 ADF82811 		strh	r1, [sp, #296]	@ movhi
 792:lvgl/src/widgets/lv_btnmatrix.c ****         btn_area.x2 = btn_area.x1 + txt_size.x;
 1710              		.loc 1 792 9 is_stmt 1 view .LVU547
 1711              	.LVL148:
 1712              	.LBB118:
 1713              	.LBI118:
 133:lvgl/src/widgets/../core/../misc/../font/../misc/lv_area.h **** {
 1714              		.loc 3 133 26 view .LVU548
 1715              	.LBB119:
 1716              		.loc 3 135 5 view .LVU549
 1717              		.loc 3 135 31 is_stmt 0 view .LVU550
 1718 02b6 BDF82E31 		ldrh	r3, [sp, #302]
ARM GAS  C:\usertemp\ccuzpgLf.s 			page 61


 1719              		.loc 3 135 44 view .LVU551
 1720 02ba BDF82A21 		ldrh	r2, [sp, #298]
 1721              		.loc 3 135 36 view .LVU552
 1722 02be 9B1A     		subs	r3, r3, r2
 1723 02c0 9BB2     		uxth	r3, r3
 1724              		.loc 3 135 49 view .LVU553
 1725 02c2 0133     		adds	r3, r3, #1
 1726              		.loc 3 135 12 view .LVU554
 1727 02c4 1BB2     		sxth	r3, r3
 1728              	.LVL149:
 1729              		.loc 3 135 12 view .LVU555
 1730              	.LBE119:
 1731              	.LBE118:
 792:lvgl/src/widgets/lv_btnmatrix.c ****         btn_area.x2 = btn_area.x1 + txt_size.x;
 1732              		.loc 1 792 65 discriminator 1 view .LVU556
 1733 02c6 BDF92EC0 		ldrsh	ip, [sp, #46]
 792:lvgl/src/widgets/lv_btnmatrix.c ****         btn_area.x2 = btn_area.x1 + txt_size.x;
 1734              		.loc 1 792 69 discriminator 1 view .LVU557
 1735 02ca B3EB0C03 		subs	r3, r3, ip
 1736 02ce 00F1BC80 		bmi	.L94
 1737              	.L81:
 792:lvgl/src/widgets/lv_btnmatrix.c ****         btn_area.x2 = btn_area.x1 + txt_size.x;
 1738              		.loc 1 792 21 discriminator 1 view .LVU558
 1739 02d2 02EB6302 		add	r2, r2, r3, asr #1
 1740 02d6 92B2     		uxth	r2, r2
 1741 02d8 ADF82A21 		strh	r2, [sp, #298]	@ movhi
 793:lvgl/src/widgets/lv_btnmatrix.c ****         btn_area.y2 = btn_area.y1 + txt_size.y;
 1742              		.loc 1 793 9 is_stmt 1 view .LVU559
 793:lvgl/src/widgets/lv_btnmatrix.c ****         btn_area.y2 = btn_area.y1 + txt_size.y;
 1743              		.loc 1 793 35 is_stmt 0 view .LVU560
 1744 02dc 11FA80F0 		uxtah	r0, r1, r0
 793:lvgl/src/widgets/lv_btnmatrix.c ****         btn_area.y2 = btn_area.y1 + txt_size.y;
 1745              		.loc 1 793 21 view .LVU561
 1746 02e0 ADF82C01 		strh	r0, [sp, #300]	@ movhi
 794:lvgl/src/widgets/lv_btnmatrix.c **** 
 1747              		.loc 1 794 9 is_stmt 1 view .LVU562
 794:lvgl/src/widgets/lv_btnmatrix.c **** 
 1748              		.loc 1 794 35 is_stmt 0 view .LVU563
 1749 02e4 12FA8CFC 		uxtah	ip, r2, ip
 1750 02e8 1FFA8CF3 		uxth	r3, ip
 794:lvgl/src/widgets/lv_btnmatrix.c **** 
 1751              		.loc 1 794 21 view .LVU564
 1752 02ec ADF82EC1 		strh	ip, [sp, #302]	@ movhi
 796:lvgl/src/widgets/lv_btnmatrix.c ****             /*Push up the button text into the popover*/
 1753              		.loc 1 796 9 is_stmt 1 view .LVU565
 796:lvgl/src/widgets/lv_btnmatrix.c ****             /*Push up the button text into the popover*/
 1754              		.loc 1 796 11 is_stmt 0 view .LVU566
 1755 02f0 B8F1000F 		cmp	r8, #0
 1756 02f4 12D0     		beq	.L82
 796:lvgl/src/widgets/lv_btnmatrix.c ****             /*Push up the button text into the popover*/
 1757              		.loc 1 796 51 discriminator 1 view .LVU567
 1758 02f6 E96A     		ldr	r1, [r5, #44]
 796:lvgl/src/widgets/lv_btnmatrix.c ****             /*Push up the button text into the popover*/
 1759              		.loc 1 796 62 discriminator 1 view .LVU568
 1760 02f8 31F80B10 		ldrh	r1, [r1, fp]
 796:lvgl/src/widgets/lv_btnmatrix.c ****             /*Push up the button text into the popover*/
 1761              		.loc 1 796 43 discriminator 1 view .LVU569
ARM GAS  C:\usertemp\ccuzpgLf.s 			page 62


 1762 02fc 11F4007F 		tst	r1, #512
 1763 0300 0CD0     		beq	.L82
 798:lvgl/src/widgets/lv_btnmatrix.c ****             btn_area.y2 -= btn_height / 2;
 1764              		.loc 1 798 13 is_stmt 1 view .LVU570
 798:lvgl/src/widgets/lv_btnmatrix.c ****             btn_area.y2 -= btn_height / 2;
 1765              		.loc 1 798 25 is_stmt 0 view .LVU571
 1766 0302 4946     		mov	r1, r9
 1767 0304 B9F1000F 		cmp	r9, #0
 1768 0308 C0F2A180 		blt	.L95
 1769              	.L83:
 1770 030c C1F34F01 		ubfx	r1, r1, #1, #16
 1771 0310 521A     		subs	r2, r2, r1
 1772 0312 ADF82A21 		strh	r2, [sp, #298]	@ movhi
 799:lvgl/src/widgets/lv_btnmatrix.c ****         }
 1773              		.loc 1 799 13 is_stmt 1 view .LVU572
 799:lvgl/src/widgets/lv_btnmatrix.c ****         }
 1774              		.loc 1 799 25 is_stmt 0 view .LVU573
 1775 0316 5B1A     		subs	r3, r3, r1
 1776 0318 ADF82E31 		strh	r3, [sp, #302]	@ movhi
 1777              	.L82:
 803:lvgl/src/widgets/lv_btnmatrix.c **** 
 1778              		.loc 1 803 9 is_stmt 1 view .LVU574
 1779 031c 0023     		movs	r3, #0
 1780 031e 0093     		str	r3, [sp]
 1781 0320 3346     		mov	r3, r6
 1782 0322 4AAA     		add	r2, sp, #296
 1783 0324 34A9     		add	r1, sp, #208
 1784 0326 0498     		ldr	r0, [sp, #16]
 1785 0328 FFF7FEFF 		bl	lv_draw_label
 1786              	.LVL150:
 805:lvgl/src/widgets/lv_btnmatrix.c ****     }
 1787              		.loc 1 805 9 view .LVU575
 1788 032c 0CAA     		add	r2, sp, #48
 1789 032e 1B21     		movs	r1, #27
 1790 0330 2846     		mov	r0, r5
 1791 0332 FFF7FEFF 		bl	lv_event_send
 1792              	.LVL151:
 1793              	.L64:
 805:lvgl/src/widgets/lv_btnmatrix.c ****     }
 1794              		.loc 1 805 9 is_stmt 0 view .LVU576
 1795              	.LBE109:
 700:lvgl/src/widgets/lv_btnmatrix.c ****         /*Search the next valid text in the map*/
 1796              		.loc 1 700 50 is_stmt 1 discriminator 2 view .LVU577
 700:lvgl/src/widgets/lv_btnmatrix.c ****         /*Search the next valid text in the map*/
 1797              		.loc 1 700 48 is_stmt 0 discriminator 2 view .LVU578
 1798 0336 0137     		adds	r7, r7, #1
 1799              	.LVL152:
 700:lvgl/src/widgets/lv_btnmatrix.c ****         /*Search the next valid text in the map*/
 1800              		.loc 1 700 48 discriminator 2 view .LVU579
 1801 0338 BFB2     		uxth	r7, r7
 1802              	.LVL153:
 700:lvgl/src/widgets/lv_btnmatrix.c ****         /*Search the next valid text in the map*/
 1803              		.loc 1 700 57 discriminator 2 view .LVU580
 1804 033a 0134     		adds	r4, r4, #1
 1805              	.LVL154:
 700:lvgl/src/widgets/lv_btnmatrix.c ****         /*Search the next valid text in the map*/
 1806              		.loc 1 700 57 discriminator 2 view .LVU581
ARM GAS  C:\usertemp\ccuzpgLf.s 			page 63


 1807 033c A4B2     		uxth	r4, r4
 1808              	.LVL155:
 1809              	.L61:
 700:lvgl/src/widgets/lv_btnmatrix.c ****         /*Search the next valid text in the map*/
 1810              		.loc 1 700 26 is_stmt 1 discriminator 1 view .LVU582
 700:lvgl/src/widgets/lv_btnmatrix.c ****         /*Search the next valid text in the map*/
 1811              		.loc 1 700 32 is_stmt 0 discriminator 1 view .LVU583
 1812 033e 2B8E     		ldrh	r3, [r5, #48]
 700:lvgl/src/widgets/lv_btnmatrix.c ****         /*Search the next valid text in the map*/
 1813              		.loc 1 700 26 discriminator 1 view .LVU584
 1814 0340 BB42     		cmp	r3, r7
 1815 0342 3FF6CDAE 		bhi	.L84
 808:lvgl/src/widgets/lv_btnmatrix.c **** #if LV_USE_ARABIC_PERSIAN_CHARS
 1816              		.loc 1 808 5 is_stmt 1 view .LVU585
 808:lvgl/src/widgets/lv_btnmatrix.c **** #if LV_USE_ARABIC_PERSIAN_CHARS
 1817              		.loc 1 808 21 is_stmt 0 view .LVU586
 1818 0346 95F82230 		ldrb	r3, [r5, #34]	@ zero_extendqisi2
 1819 034a 23F00403 		bic	r3, r3, #4
 1820 034e 85F82230 		strb	r3, [r5, #34]
 1821 0352 5DE6     		b	.L58
 1822              	.LVL156:
 1823              	.L85:
 1824              	.LBB120:
 711:lvgl/src/widgets/lv_btnmatrix.c **** 
 1825              		.loc 1 711 66 discriminator 1 view .LVU587
 1826 0354 4FF00108 		mov	r8, #1
 1827 0358 DFE6     		b	.L65
 1828              	.LVL157:
 1829              	.L66:
 714:lvgl/src/widgets/lv_btnmatrix.c ****             if(state_ori & LV_STATE_PRESSED) btn_state |= LV_STATE_PRESSED;
 1830              		.loc 1 714 14 is_stmt 1 view .LVU588
 714:lvgl/src/widgets/lv_btnmatrix.c ****             if(state_ori & LV_STATE_PRESSED) btn_state |= LV_STATE_PRESSED;
 1831              		.loc 1 714 30 is_stmt 0 view .LVU589
 1832 035a AB8E     		ldrh	r3, [r5, #52]
 714:lvgl/src/widgets/lv_btnmatrix.c ****             if(state_ori & LV_STATE_PRESSED) btn_state |= LV_STATE_PRESSED;
 1833              		.loc 1 714 16 view .LVU590
 1834 035c BB42     		cmp	r3, r7
 1835 035e 7FF4E4AE 		bne	.L67
 715:lvgl/src/widgets/lv_btnmatrix.c ****             if(state_ori & LV_STATE_FOCUSED) btn_state |= LV_STATE_FOCUSED;
 1836              		.loc 1 715 13 is_stmt 1 view .LVU591
 715:lvgl/src/widgets/lv_btnmatrix.c ****             if(state_ori & LV_STATE_FOCUSED) btn_state |= LV_STATE_FOCUSED;
 1837              		.loc 1 715 15 is_stmt 0 view .LVU592
 1838 0362 059B     		ldr	r3, [sp, #20]
 1839 0364 13F0200F 		tst	r3, #32
 1840 0368 01D0     		beq	.L68
 715:lvgl/src/widgets/lv_btnmatrix.c ****             if(state_ori & LV_STATE_FOCUSED) btn_state |= LV_STATE_FOCUSED;
 1841              		.loc 1 715 46 is_stmt 1 discriminator 1 view .LVU593
 715:lvgl/src/widgets/lv_btnmatrix.c ****             if(state_ori & LV_STATE_FOCUSED) btn_state |= LV_STATE_FOCUSED;
 1842              		.loc 1 715 56 is_stmt 0 discriminator 1 view .LVU594
 1843 036a 48F02008 		orr	r8, r8, #32
 1844              	.LVL158:
 1845              	.L68:
 716:lvgl/src/widgets/lv_btnmatrix.c ****             if(state_ori & LV_STATE_FOCUS_KEY) btn_state |= LV_STATE_FOCUS_KEY;
 1846              		.loc 1 716 13 is_stmt 1 view .LVU595
 716:lvgl/src/widgets/lv_btnmatrix.c ****             if(state_ori & LV_STATE_FOCUS_KEY) btn_state |= LV_STATE_FOCUS_KEY;
 1847              		.loc 1 716 15 is_stmt 0 view .LVU596
 1848 036e 059B     		ldr	r3, [sp, #20]
ARM GAS  C:\usertemp\ccuzpgLf.s 			page 64


 1849 0370 13F0020F 		tst	r3, #2
 1850 0374 01D0     		beq	.L69
 716:lvgl/src/widgets/lv_btnmatrix.c ****             if(state_ori & LV_STATE_FOCUS_KEY) btn_state |= LV_STATE_FOCUS_KEY;
 1851              		.loc 1 716 46 is_stmt 1 discriminator 1 view .LVU597
 716:lvgl/src/widgets/lv_btnmatrix.c ****             if(state_ori & LV_STATE_FOCUS_KEY) btn_state |= LV_STATE_FOCUS_KEY;
 1852              		.loc 1 716 56 is_stmt 0 discriminator 1 view .LVU598
 1853 0376 48F00208 		orr	r8, r8, #2
 1854              	.LVL159:
 1855              	.L69:
 717:lvgl/src/widgets/lv_btnmatrix.c ****             if(state_ori & LV_STATE_EDITED) btn_state |= LV_STATE_EDITED;
 1856              		.loc 1 717 13 is_stmt 1 view .LVU599
 717:lvgl/src/widgets/lv_btnmatrix.c ****             if(state_ori & LV_STATE_EDITED) btn_state |= LV_STATE_EDITED;
 1857              		.loc 1 717 15 is_stmt 0 view .LVU600
 1858 037a 059B     		ldr	r3, [sp, #20]
 1859 037c 13F0040F 		tst	r3, #4
 1860 0380 01D0     		beq	.L70
 717:lvgl/src/widgets/lv_btnmatrix.c ****             if(state_ori & LV_STATE_EDITED) btn_state |= LV_STATE_EDITED;
 1861              		.loc 1 717 48 is_stmt 1 discriminator 1 view .LVU601
 717:lvgl/src/widgets/lv_btnmatrix.c ****             if(state_ori & LV_STATE_EDITED) btn_state |= LV_STATE_EDITED;
 1862              		.loc 1 717 58 is_stmt 0 discriminator 1 view .LVU602
 1863 0382 48F00408 		orr	r8, r8, #4
 1864              	.LVL160:
 1865              	.L70:
 718:lvgl/src/widgets/lv_btnmatrix.c ****         }
 1866              		.loc 1 718 13 is_stmt 1 view .LVU603
 718:lvgl/src/widgets/lv_btnmatrix.c ****         }
 1867              		.loc 1 718 15 is_stmt 0 view .LVU604
 1868 0386 059B     		ldr	r3, [sp, #20]
 1869 0388 13F0080F 		tst	r3, #8
 1870 038c 3FF4CDAE 		beq	.L67
 718:lvgl/src/widgets/lv_btnmatrix.c ****         }
 1871              		.loc 1 718 45 is_stmt 1 discriminator 1 view .LVU605
 718:lvgl/src/widgets/lv_btnmatrix.c ****         }
 1872              		.loc 1 718 55 is_stmt 0 discriminator 1 view .LVU606
 1873 0390 48F00808 		orr	r8, r8, #8
 1874              	.LVL161:
 718:lvgl/src/widgets/lv_btnmatrix.c ****         }
 1875              		.loc 1 718 55 discriminator 1 view .LVU607
 1876 0394 C9E6     		b	.L67
 1877              	.L71:
 735:lvgl/src/widgets/lv_btnmatrix.c ****             obj->skip_trans = 1;
 1878              		.loc 1 735 13 is_stmt 1 view .LVU608
 735:lvgl/src/widgets/lv_btnmatrix.c ****             obj->skip_trans = 1;
 1879              		.loc 1 735 24 is_stmt 0 view .LVU609
 1880 0396 A5F82080 		strh	r8, [r5, #32]	@ movhi
 736:lvgl/src/widgets/lv_btnmatrix.c ****             lv_draw_rect_dsc_init(&draw_rect_dsc_act);
 1881              		.loc 1 736 13 is_stmt 1 view .LVU610
 736:lvgl/src/widgets/lv_btnmatrix.c ****             lv_draw_rect_dsc_init(&draw_rect_dsc_act);
 1882              		.loc 1 736 29 is_stmt 0 view .LVU611
 1883 039a 95F82230 		ldrb	r3, [r5, #34]	@ zero_extendqisi2
 1884 039e 43F00403 		orr	r3, r3, #4
 1885 03a2 85F82230 		strb	r3, [r5, #34]
 737:lvgl/src/widgets/lv_btnmatrix.c ****             lv_draw_label_dsc_init(&draw_label_dsc_act);
 1886              		.loc 1 737 13 is_stmt 1 view .LVU612
 1887 03a6 3CA8     		add	r0, sp, #240
 1888 03a8 FFF7FEFF 		bl	lv_draw_rect_dsc_init
 1889              	.LVL162:
ARM GAS  C:\usertemp\ccuzpgLf.s 			page 65


 738:lvgl/src/widgets/lv_btnmatrix.c ****             lv_obj_init_draw_rect_dsc(obj, LV_PART_ITEMS, &draw_rect_dsc_act);
 1890              		.loc 1 738 13 view .LVU613
 1891 03ac 34A8     		add	r0, sp, #208
 1892 03ae FFF7FEFF 		bl	lv_draw_label_dsc_init
 1893              	.LVL163:
 739:lvgl/src/widgets/lv_btnmatrix.c ****             lv_obj_init_draw_label_dsc(obj, LV_PART_ITEMS, &draw_label_dsc_act);
 1894              		.loc 1 739 13 view .LVU614
 1895 03b2 3CAA     		add	r2, sp, #240
 1896 03b4 4FF4A021 		mov	r1, #327680
 1897 03b8 2846     		mov	r0, r5
 1898 03ba FFF7FEFF 		bl	lv_obj_init_draw_rect_dsc
 1899              	.LVL164:
 740:lvgl/src/widgets/lv_btnmatrix.c ****             obj->state = state_ori;
 1900              		.loc 1 740 13 view .LVU615
 1901 03be 34AA     		add	r2, sp, #208
 1902 03c0 4FF4A021 		mov	r1, #327680
 1903 03c4 2846     		mov	r0, r5
 1904 03c6 FFF7FEFF 		bl	lv_obj_init_draw_label_dsc
 1905              	.LVL165:
 741:lvgl/src/widgets/lv_btnmatrix.c ****             obj->skip_trans = 0;
 1906              		.loc 1 741 13 view .LVU616
 741:lvgl/src/widgets/lv_btnmatrix.c ****             obj->skip_trans = 0;
 1907              		.loc 1 741 24 is_stmt 0 view .LVU617
 1908 03ca 059B     		ldr	r3, [sp, #20]
 1909 03cc 2B84     		strh	r3, [r5, #32]	@ movhi
 742:lvgl/src/widgets/lv_btnmatrix.c ****         }
 1910              		.loc 1 742 13 is_stmt 1 view .LVU618
 742:lvgl/src/widgets/lv_btnmatrix.c ****         }
 1911              		.loc 1 742 29 is_stmt 0 view .LVU619
 1912 03ce 95F82230 		ldrb	r3, [r5, #34]	@ zero_extendqisi2
 1913 03d2 23F00403 		bic	r3, r3, #4
 1914 03d6 85F82230 		strb	r3, [r5, #34]
 1915 03da DBE6     		b	.L72
 1916              	.LVL166:
 1917              	.L73:
 747:lvgl/src/widgets/lv_btnmatrix.c **** 
 1918              		.loc 1 747 14 is_stmt 1 view .LVU620
 747:lvgl/src/widgets/lv_btnmatrix.c **** 
 1919              		.loc 1 747 32 is_stmt 0 view .LVU621
 1920 03dc 9DF8ED30 		ldrb	r3, [sp, #237]	@ zero_extendqisi2
 747:lvgl/src/widgets/lv_btnmatrix.c **** 
 1921              		.loc 1 747 38 view .LVU622
 1922 03e0 23F00103 		bic	r3, r3, #1
 1923 03e4 8DF8ED30 		strb	r3, [sp, #237]
 1924 03e8 E2E6     		b	.L74
 1925              	.L97:
 1926 03ea 00BF     		.align	2
 1927              	.L96:
 1928 03ec 00000000 		.word	lv_btnmatrix_class
 1929 03f0 00000000 		.word	.LC0
 1930              	.LVL167:
 1931              	.L89:
 757:lvgl/src/widgets/lv_btnmatrix.c ****             if(btn_area.x2 == obj->coords.x2 - pright) draw_rect_dsc_act.border_side &= ~LV_BORDER_
 1932              		.loc 1 757 55 is_stmt 1 discriminator 1 view .LVU623
 757:lvgl/src/widgets/lv_btnmatrix.c ****             if(btn_area.x2 == obj->coords.x2 - pright) draw_rect_dsc_act.border_side &= ~LV_BORDER_
 1933              		.loc 1 757 85 is_stmt 0 discriminator 1 view .LVU624
 1934 03f4 9DF81331 		ldrb	r3, [sp, #275]	@ zero_extendqisi2
ARM GAS  C:\usertemp\ccuzpgLf.s 			page 66


 1935 03f8 0B22     		movs	r2, #11
 1936 03fa 62F34503 		bfi	r3, r2, #1, #5
 1937 03fe 8DF81331 		strb	r3, [sp, #275]
 1938 0402 F4E6     		b	.L76
 1939              	.L90:
 758:lvgl/src/widgets/lv_btnmatrix.c ****             if(btn_area.y1 == obj->coords.y1 + ptop) draw_rect_dsc_act.border_side &= ~LV_BORDER_SI
 1940              		.loc 1 758 56 is_stmt 1 discriminator 1 view .LVU625
 758:lvgl/src/widgets/lv_btnmatrix.c ****             if(btn_area.y1 == obj->coords.y1 + ptop) draw_rect_dsc_act.border_side &= ~LV_BORDER_SI
 1941              		.loc 1 758 73 is_stmt 0 discriminator 1 view .LVU626
 1942 0404 9DF81331 		ldrb	r3, [sp, #275]	@ zero_extendqisi2
 1943 0408 C3F34402 		ubfx	r2, r3, #1, #5
 758:lvgl/src/widgets/lv_btnmatrix.c ****             if(btn_area.y1 == obj->coords.y1 + ptop) draw_rect_dsc_act.border_side &= ~LV_BORDER_SI
 1944              		.loc 1 758 86 discriminator 1 view .LVU627
 1945 040c 02F01702 		and	r2, r2, #23
 1946 0410 62F34503 		bfi	r3, r2, #1, #5
 1947 0414 8DF81331 		strb	r3, [sp, #275]
 1948 0418 F2E6     		b	.L77
 1949              	.L91:
 759:lvgl/src/widgets/lv_btnmatrix.c ****             if(btn_area.y2 == obj->coords.y2 - pbottom) draw_rect_dsc_act.border_side &= ~LV_BORDER
 1950              		.loc 1 759 54 is_stmt 1 discriminator 1 view .LVU628
 759:lvgl/src/widgets/lv_btnmatrix.c ****             if(btn_area.y2 == obj->coords.y2 - pbottom) draw_rect_dsc_act.border_side &= ~LV_BORDER
 1951              		.loc 1 759 71 is_stmt 0 discriminator 1 view .LVU629
 1952 041a 9DF81331 		ldrb	r3, [sp, #275]	@ zero_extendqisi2
 1953 041e C3F34402 		ubfx	r2, r3, #1, #5
 759:lvgl/src/widgets/lv_btnmatrix.c ****             if(btn_area.y2 == obj->coords.y2 - pbottom) draw_rect_dsc_act.border_side &= ~LV_BORDER
 1954              		.loc 1 759 84 discriminator 1 view .LVU630
 1955 0422 02F01D02 		and	r2, r2, #29
 1956 0426 62F34503 		bfi	r3, r2, #1, #5
 1957 042a 8DF81331 		strb	r3, [sp, #275]
 1958 042e F0E6     		b	.L78
 1959              	.L92:
 760:lvgl/src/widgets/lv_btnmatrix.c ****         }
 1960              		.loc 1 760 57 is_stmt 1 discriminator 1 view .LVU631
 760:lvgl/src/widgets/lv_btnmatrix.c ****         }
 1961              		.loc 1 760 74 is_stmt 0 discriminator 1 view .LVU632
 1962 0430 9DF81331 		ldrb	r3, [sp, #275]	@ zero_extendqisi2
 1963 0434 C3F34402 		ubfx	r2, r3, #1, #5
 760:lvgl/src/widgets/lv_btnmatrix.c ****         }
 1964              		.loc 1 760 87 discriminator 1 view .LVU633
 1965 0438 02F01E02 		and	r2, r2, #30
 1966 043c 62F34503 		bfi	r3, r2, #1, #5
 1967 0440 8DF81331 		strb	r3, [sp, #275]
 1968 0444 EEE6     		b	.L75
 1969              	.LVL168:
 1970              	.L93:
 791:lvgl/src/widgets/lv_btnmatrix.c ****         btn_area.y1 += (lv_area_get_height(&btn_area) - txt_size.y) / 2;
 1971              		.loc 1 791 68 discriminator 1 view .LVU634
 1972 0446 0133     		adds	r3, r3, #1
 1973 0448 30E7     		b	.L80
 1974              	.L94:
 792:lvgl/src/widgets/lv_btnmatrix.c ****         btn_area.x2 = btn_area.x1 + txt_size.x;
 1975              		.loc 1 792 69 discriminator 1 view .LVU635
 1976 044a 0133     		adds	r3, r3, #1
 1977 044c 41E7     		b	.L81
 1978              	.L95:
 798:lvgl/src/widgets/lv_btnmatrix.c ****             btn_area.y2 -= btn_height / 2;
 1979              		.loc 1 798 25 view .LVU636
ARM GAS  C:\usertemp\ccuzpgLf.s 			page 67


 1980 044e 09F10101 		add	r1, r9, #1
 1981 0452 5BE7     		b	.L83
 1982              	.LBE120:
 1983              		.cfi_endproc
 1984              	.LFE174:
 1986              		.section	.text.lv_btnmatrix_destructor,"ax",%progbits
 1987              		.align	1
 1988              		.syntax unified
 1989              		.thumb
 1990              		.thumb_func
 1992              	lv_btnmatrix_destructor:
 1993              	.LVL169:
 1994              	.LFB172:
 375:lvgl/src/widgets/lv_btnmatrix.c ****     LV_TRACE_OBJ_CREATE("begin");
 1995              		.loc 1 375 1 is_stmt 1 view -0
 1996              		.cfi_startproc
 1997              		@ args = 0, pretend = 0, frame = 0
 1998              		@ frame_needed = 0, uses_anonymous_args = 0
 375:lvgl/src/widgets/lv_btnmatrix.c ****     LV_TRACE_OBJ_CREATE("begin");
 1999              		.loc 1 375 1 is_stmt 0 view .LVU638
 2000 0000 10B5     		push	{r4, lr}
 2001              	.LCFI16:
 2002              		.cfi_def_cfa_offset 8
 2003              		.cfi_offset 4, -8
 2004              		.cfi_offset 14, -4
 2005 0002 0C46     		mov	r4, r1
 376:lvgl/src/widgets/lv_btnmatrix.c ****     LV_UNUSED(class_p);
 2006              		.loc 1 376 5 is_stmt 1 view .LVU639
 376:lvgl/src/widgets/lv_btnmatrix.c ****     LV_UNUSED(class_p);
 2007              		.loc 1 376 5 view .LVU640
 376:lvgl/src/widgets/lv_btnmatrix.c ****     LV_UNUSED(class_p);
 2008              		.loc 1 376 5 view .LVU641
 377:lvgl/src/widgets/lv_btnmatrix.c ****     lv_btnmatrix_t * btnm = (lv_btnmatrix_t *)obj;
 2009              		.loc 1 377 5 view .LVU642
 378:lvgl/src/widgets/lv_btnmatrix.c ****     lv_mem_free(btnm->button_areas);
 2010              		.loc 1 378 5 view .LVU643
 2011              	.LVL170:
 379:lvgl/src/widgets/lv_btnmatrix.c ****     lv_mem_free(btnm->ctrl_bits);
 2012              		.loc 1 379 5 view .LVU644
 2013 0004 886A     		ldr	r0, [r1, #40]
 2014              	.LVL171:
 379:lvgl/src/widgets/lv_btnmatrix.c ****     lv_mem_free(btnm->ctrl_bits);
 2015              		.loc 1 379 5 is_stmt 0 view .LVU645
 2016 0006 FFF7FEFF 		bl	lv_mem_free
 2017              	.LVL172:
 380:lvgl/src/widgets/lv_btnmatrix.c ****     btnm->button_areas = NULL;
 2018              		.loc 1 380 5 is_stmt 1 view .LVU646
 2019 000a E06A     		ldr	r0, [r4, #44]
 2020 000c FFF7FEFF 		bl	lv_mem_free
 2021              	.LVL173:
 381:lvgl/src/widgets/lv_btnmatrix.c ****     btnm->ctrl_bits = NULL;
 2022              		.loc 1 381 5 view .LVU647
 381:lvgl/src/widgets/lv_btnmatrix.c ****     btnm->ctrl_bits = NULL;
 2023              		.loc 1 381 24 is_stmt 0 view .LVU648
 2024 0010 0023     		movs	r3, #0
 2025 0012 A362     		str	r3, [r4, #40]
 382:lvgl/src/widgets/lv_btnmatrix.c ****     LV_TRACE_OBJ_CREATE("finished");
ARM GAS  C:\usertemp\ccuzpgLf.s 			page 68


 2026              		.loc 1 382 5 is_stmt 1 view .LVU649
 382:lvgl/src/widgets/lv_btnmatrix.c ****     LV_TRACE_OBJ_CREATE("finished");
 2027              		.loc 1 382 21 is_stmt 0 view .LVU650
 2028 0014 E362     		str	r3, [r4, #44]
 383:lvgl/src/widgets/lv_btnmatrix.c **** }
 2029              		.loc 1 383 5 is_stmt 1 view .LVU651
 383:lvgl/src/widgets/lv_btnmatrix.c **** }
 2030              		.loc 1 383 5 view .LVU652
 383:lvgl/src/widgets/lv_btnmatrix.c **** }
 2031              		.loc 1 383 5 view .LVU653
 384:lvgl/src/widgets/lv_btnmatrix.c **** 
 2032              		.loc 1 384 1 is_stmt 0 view .LVU654
 2033 0016 10BD     		pop	{r4, pc}
 384:lvgl/src/widgets/lv_btnmatrix.c **** 
 2034              		.loc 1 384 1 view .LVU655
 2035              		.cfi_endproc
 2036              	.LFE172:
 2038              		.section	.text.allocate_btn_areas_and_controls,"ax",%progbits
 2039              		.align	1
 2040              		.syntax unified
 2041              		.thumb
 2042              		.thumb_func
 2044              	allocate_btn_areas_and_controls:
 2045              	.LVL174:
 2046              	.LFB175:
 819:lvgl/src/widgets/lv_btnmatrix.c ****     lv_btnmatrix_t * btnm = (lv_btnmatrix_t *)obj;
 2047              		.loc 1 819 1 is_stmt 1 view -0
 2048              		.cfi_startproc
 2049              		@ args = 0, pretend = 0, frame = 0
 2050              		@ frame_needed = 0, uses_anonymous_args = 0
 819:lvgl/src/widgets/lv_btnmatrix.c ****     lv_btnmatrix_t * btnm = (lv_btnmatrix_t *)obj;
 2051              		.loc 1 819 1 is_stmt 0 view .LVU657
 2052 0000 F8B5     		push	{r3, r4, r5, r6, r7, lr}
 2053              	.LCFI17:
 2054              		.cfi_def_cfa_offset 24
 2055              		.cfi_offset 3, -24
 2056              		.cfi_offset 4, -20
 2057              		.cfi_offset 5, -16
 2058              		.cfi_offset 6, -12
 2059              		.cfi_offset 7, -8
 2060              		.cfi_offset 14, -4
 2061 0002 0646     		mov	r6, r0
 2062 0004 0F46     		mov	r7, r1
 820:lvgl/src/widgets/lv_btnmatrix.c ****     btnm->row_cnt = 1;
 2063              		.loc 1 820 5 is_stmt 1 view .LVU658
 2064              	.LVL175:
 821:lvgl/src/widgets/lv_btnmatrix.c ****     /*Count the buttons in the map*/
 2065              		.loc 1 821 5 view .LVU659
 821:lvgl/src/widgets/lv_btnmatrix.c ****     /*Count the buttons in the map*/
 2066              		.loc 1 821 19 is_stmt 0 view .LVU660
 2067 0006 0123     		movs	r3, #1
 2068 0008 4386     		strh	r3, [r0, #50]	@ movhi
 823:lvgl/src/widgets/lv_btnmatrix.c ****     uint16_t i       = 0;
 2069              		.loc 1 823 5 is_stmt 1 view .LVU661
 2070              	.LVL176:
 824:lvgl/src/widgets/lv_btnmatrix.c ****     while(map[i] && map[i][0] != '\0') {
 2071              		.loc 1 824 5 view .LVU662
ARM GAS  C:\usertemp\ccuzpgLf.s 			page 69


 825:lvgl/src/widgets/lv_btnmatrix.c ****         if(strcmp(map[i], "\n") != 0) { /*Do not count line breaks*/
 2072              		.loc 1 825 5 view .LVU663
 824:lvgl/src/widgets/lv_btnmatrix.c ****     while(map[i] && map[i][0] != '\0') {
 2073              		.loc 1 824 14 is_stmt 0 view .LVU664
 2074 000a 0024     		movs	r4, #0
 823:lvgl/src/widgets/lv_btnmatrix.c ****     uint16_t i       = 0;
 2075              		.loc 1 823 14 view .LVU665
 2076 000c 2546     		mov	r5, r4
 825:lvgl/src/widgets/lv_btnmatrix.c ****         if(strcmp(map[i], "\n") != 0) { /*Do not count line breaks*/
 2077              		.loc 1 825 10 view .LVU666
 2078 000e 04E0     		b	.L101
 2079              	.LVL177:
 2080              	.L102:
 830:lvgl/src/widgets/lv_btnmatrix.c ****         }
 2081              		.loc 1 830 13 is_stmt 1 view .LVU667
 830:lvgl/src/widgets/lv_btnmatrix.c ****         }
 2082              		.loc 1 830 17 is_stmt 0 view .LVU668
 2083 0010 738E     		ldrh	r3, [r6, #50]
 830:lvgl/src/widgets/lv_btnmatrix.c ****         }
 2084              		.loc 1 830 26 view .LVU669
 2085 0012 0133     		adds	r3, r3, #1
 2086 0014 7386     		strh	r3, [r6, #50]	@ movhi
 2087              	.L103:
 832:lvgl/src/widgets/lv_btnmatrix.c ****     }
 2088              		.loc 1 832 9 is_stmt 1 view .LVU670
 832:lvgl/src/widgets/lv_btnmatrix.c ****     }
 2089              		.loc 1 832 10 is_stmt 0 view .LVU671
 2090 0016 0134     		adds	r4, r4, #1
 2091              	.LVL178:
 832:lvgl/src/widgets/lv_btnmatrix.c ****     }
 2092              		.loc 1 832 10 view .LVU672
 2093 0018 A4B2     		uxth	r4, r4
 2094              	.LVL179:
 2095              	.L101:
 825:lvgl/src/widgets/lv_btnmatrix.c ****         if(strcmp(map[i], "\n") != 0) { /*Do not count line breaks*/
 2096              		.loc 1 825 18 is_stmt 1 view .LVU673
 825:lvgl/src/widgets/lv_btnmatrix.c ****         if(strcmp(map[i], "\n") != 0) { /*Do not count line breaks*/
 2097              		.loc 1 825 14 is_stmt 0 view .LVU674
 2098 001a 57F82400 		ldr	r0, [r7, r4, lsl #2]
 825:lvgl/src/widgets/lv_btnmatrix.c ****         if(strcmp(map[i], "\n") != 0) { /*Do not count line breaks*/
 2099              		.loc 1 825 18 view .LVU675
 2100 001e 48B1     		cbz	r0, .L104
 825:lvgl/src/widgets/lv_btnmatrix.c ****         if(strcmp(map[i], "\n") != 0) { /*Do not count line breaks*/
 2101              		.loc 1 825 27 discriminator 1 view .LVU676
 2102 0020 0378     		ldrb	r3, [r0]	@ zero_extendqisi2
 825:lvgl/src/widgets/lv_btnmatrix.c ****         if(strcmp(map[i], "\n") != 0) { /*Do not count line breaks*/
 2103              		.loc 1 825 18 discriminator 1 view .LVU677
 2104 0022 3BB1     		cbz	r3, .L104
 826:lvgl/src/widgets/lv_btnmatrix.c ****             btn_cnt++;
 2105              		.loc 1 826 9 is_stmt 1 view .LVU678
 826:lvgl/src/widgets/lv_btnmatrix.c ****             btn_cnt++;
 2106              		.loc 1 826 12 is_stmt 0 view .LVU679
 2107 0024 1549     		ldr	r1, .L117
 2108 0026 FFF7FEFF 		bl	strcmp
 2109              	.LVL180:
 826:lvgl/src/widgets/lv_btnmatrix.c ****             btn_cnt++;
 2110              		.loc 1 826 11 discriminator 1 view .LVU680
ARM GAS  C:\usertemp\ccuzpgLf.s 			page 70


 2111 002a 0028     		cmp	r0, #0
 2112 002c F0D0     		beq	.L102
 827:lvgl/src/widgets/lv_btnmatrix.c ****         }
 2113              		.loc 1 827 13 is_stmt 1 view .LVU681
 827:lvgl/src/widgets/lv_btnmatrix.c ****         }
 2114              		.loc 1 827 20 is_stmt 0 view .LVU682
 2115 002e 0135     		adds	r5, r5, #1
 2116              	.LVL181:
 827:lvgl/src/widgets/lv_btnmatrix.c ****         }
 2117              		.loc 1 827 20 view .LVU683
 2118 0030 ADB2     		uxth	r5, r5
 2119              	.LVL182:
 827:lvgl/src/widgets/lv_btnmatrix.c ****         }
 2120              		.loc 1 827 20 view .LVU684
 2121 0032 F0E7     		b	.L103
 2122              	.L104:
 836:lvgl/src/widgets/lv_btnmatrix.c **** 
 2123              		.loc 1 836 5 is_stmt 1 view .LVU685
 836:lvgl/src/widgets/lv_btnmatrix.c **** 
 2124              		.loc 1 836 23 is_stmt 0 view .LVU686
 2125 0034 338E     		ldrh	r3, [r6, #48]
 836:lvgl/src/widgets/lv_btnmatrix.c **** 
 2126              		.loc 1 836 7 view .LVU687
 2127 0036 AB42     		cmp	r3, r5
 2128 0038 1BD0     		beq	.L100
 838:lvgl/src/widgets/lv_btnmatrix.c ****         lv_mem_free(btnm->button_areas);
 2129              		.loc 1 838 5 is_stmt 1 view .LVU688
 838:lvgl/src/widgets/lv_btnmatrix.c ****         lv_mem_free(btnm->button_areas);
 2130              		.loc 1 838 12 is_stmt 0 view .LVU689
 2131 003a B06A     		ldr	r0, [r6, #40]
 838:lvgl/src/widgets/lv_btnmatrix.c ****         lv_mem_free(btnm->button_areas);
 2132              		.loc 1 838 7 view .LVU690
 2133 003c 18B1     		cbz	r0, .L107
 839:lvgl/src/widgets/lv_btnmatrix.c ****         btnm->button_areas = NULL;
 2134              		.loc 1 839 9 is_stmt 1 view .LVU691
 2135 003e FFF7FEFF 		bl	lv_mem_free
 2136              	.LVL183:
 840:lvgl/src/widgets/lv_btnmatrix.c ****     }
 2137              		.loc 1 840 9 view .LVU692
 840:lvgl/src/widgets/lv_btnmatrix.c ****     }
 2138              		.loc 1 840 28 is_stmt 0 view .LVU693
 2139 0042 0023     		movs	r3, #0
 2140 0044 B362     		str	r3, [r6, #40]
 2141              	.L107:
 842:lvgl/src/widgets/lv_btnmatrix.c ****         lv_mem_free(btnm->ctrl_bits);
 2142              		.loc 1 842 5 is_stmt 1 view .LVU694
 842:lvgl/src/widgets/lv_btnmatrix.c ****         lv_mem_free(btnm->ctrl_bits);
 2143              		.loc 1 842 12 is_stmt 0 view .LVU695
 2144 0046 F06A     		ldr	r0, [r6, #44]
 842:lvgl/src/widgets/lv_btnmatrix.c ****         lv_mem_free(btnm->ctrl_bits);
 2145              		.loc 1 842 7 view .LVU696
 2146 0048 18B1     		cbz	r0, .L108
 843:lvgl/src/widgets/lv_btnmatrix.c ****         btnm->ctrl_bits = NULL;
 2147              		.loc 1 843 9 is_stmt 1 view .LVU697
 2148 004a FFF7FEFF 		bl	lv_mem_free
 2149              	.LVL184:
 844:lvgl/src/widgets/lv_btnmatrix.c ****     }
ARM GAS  C:\usertemp\ccuzpgLf.s 			page 71


 2150              		.loc 1 844 9 view .LVU698
 844:lvgl/src/widgets/lv_btnmatrix.c ****     }
 2151              		.loc 1 844 25 is_stmt 0 view .LVU699
 2152 004e 0023     		movs	r3, #0
 2153 0050 F362     		str	r3, [r6, #44]
 2154              	.L108:
 847:lvgl/src/widgets/lv_btnmatrix.c ****     LV_ASSERT_MALLOC(btnm->button_areas);
 2155              		.loc 1 847 5 is_stmt 1 view .LVU700
 847:lvgl/src/widgets/lv_btnmatrix.c ****     LV_ASSERT_MALLOC(btnm->button_areas);
 2156              		.loc 1 847 26 is_stmt 0 view .LVU701
 2157 0052 E800     		lsls	r0, r5, #3
 2158 0054 FFF7FEFF 		bl	lv_mem_alloc
 2159              	.LVL185:
 847:lvgl/src/widgets/lv_btnmatrix.c ****     LV_ASSERT_MALLOC(btnm->button_areas);
 2160              		.loc 1 847 24 discriminator 1 view .LVU702
 2161 0058 B062     		str	r0, [r6, #40]
 848:lvgl/src/widgets/lv_btnmatrix.c ****     btnm->ctrl_bits = lv_mem_alloc(sizeof(lv_btnmatrix_ctrl_t) * btn_cnt);
 2162              		.loc 1 848 5 is_stmt 1 view .LVU703
 848:lvgl/src/widgets/lv_btnmatrix.c ****     btnm->ctrl_bits = lv_mem_alloc(sizeof(lv_btnmatrix_ctrl_t) * btn_cnt);
 2163              		.loc 1 848 5 view .LVU704
 2164 005a 58B1     		cbz	r0, .L110
 848:lvgl/src/widgets/lv_btnmatrix.c ****     btnm->ctrl_bits = lv_mem_alloc(sizeof(lv_btnmatrix_ctrl_t) * btn_cnt);
 2165              		.loc 1 848 5 discriminator 2 view .LVU705
 848:lvgl/src/widgets/lv_btnmatrix.c ****     btnm->ctrl_bits = lv_mem_alloc(sizeof(lv_btnmatrix_ctrl_t) * btn_cnt);
 2166              		.loc 1 848 41 discriminator 2 view .LVU706
 849:lvgl/src/widgets/lv_btnmatrix.c ****     LV_ASSERT_MALLOC(btnm->ctrl_bits);
 2167              		.loc 1 849 5 view .LVU707
 849:lvgl/src/widgets/lv_btnmatrix.c ****     LV_ASSERT_MALLOC(btnm->ctrl_bits);
 2168              		.loc 1 849 23 is_stmt 0 view .LVU708
 2169 005c 6800     		lsls	r0, r5, #1
 2170 005e FFF7FEFF 		bl	lv_mem_alloc
 2171              	.LVL186:
 849:lvgl/src/widgets/lv_btnmatrix.c ****     LV_ASSERT_MALLOC(btnm->ctrl_bits);
 2172              		.loc 1 849 21 discriminator 1 view .LVU709
 2173 0062 F062     		str	r0, [r6, #44]
 850:lvgl/src/widgets/lv_btnmatrix.c ****     if(btnm->button_areas == NULL || btnm->ctrl_bits == NULL) btn_cnt = 0;
 2174              		.loc 1 850 5 is_stmt 1 view .LVU710
 850:lvgl/src/widgets/lv_btnmatrix.c ****     if(btnm->button_areas == NULL || btnm->ctrl_bits == NULL) btn_cnt = 0;
 2175              		.loc 1 850 5 view .LVU711
 2176 0064 38B1     		cbz	r0, .L112
 850:lvgl/src/widgets/lv_btnmatrix.c ****     if(btnm->button_areas == NULL || btnm->ctrl_bits == NULL) btn_cnt = 0;
 2177              		.loc 1 850 5 discriminator 2 view .LVU712
 850:lvgl/src/widgets/lv_btnmatrix.c ****     if(btnm->button_areas == NULL || btnm->ctrl_bits == NULL) btn_cnt = 0;
 2178              		.loc 1 850 38 discriminator 2 view .LVU713
 851:lvgl/src/widgets/lv_btnmatrix.c **** 
 2179              		.loc 1 851 5 view .LVU714
 851:lvgl/src/widgets/lv_btnmatrix.c **** 
 2180              		.loc 1 851 12 is_stmt 0 view .LVU715
 2181 0066 B36A     		ldr	r3, [r6, #40]
 851:lvgl/src/widgets/lv_btnmatrix.c **** 
 2182              		.loc 1 851 7 view .LVU716
 2183 0068 33B1     		cbz	r3, .L116
 2184              	.LVL187:
 2185              	.L113:
 853:lvgl/src/widgets/lv_btnmatrix.c **** 
 2186              		.loc 1 853 5 is_stmt 1 view .LVU717
 2187 006a 6900     		lsls	r1, r5, #1
ARM GAS  C:\usertemp\ccuzpgLf.s 			page 72


 2188 006c FFF7FEFF 		bl	lv_memset_00
 2189              	.LVL188:
 855:lvgl/src/widgets/lv_btnmatrix.c **** }
 2190              		.loc 1 855 5 view .LVU718
 855:lvgl/src/widgets/lv_btnmatrix.c **** }
 2191              		.loc 1 855 19 is_stmt 0 view .LVU719
 2192 0070 3586     		strh	r5, [r6, #48]	@ movhi
 2193              	.L100:
 856:lvgl/src/widgets/lv_btnmatrix.c **** 
 2194              		.loc 1 856 1 view .LVU720
 2195 0072 F8BD     		pop	{r3, r4, r5, r6, r7, pc}
 2196              	.LVL189:
 2197              	.L110:
 848:lvgl/src/widgets/lv_btnmatrix.c ****     btnm->ctrl_bits = lv_mem_alloc(sizeof(lv_btnmatrix_ctrl_t) * btn_cnt);
 2198              		.loc 1 848 5 is_stmt 1 discriminator 1 view .LVU721
 848:lvgl/src/widgets/lv_btnmatrix.c ****     btnm->ctrl_bits = lv_mem_alloc(sizeof(lv_btnmatrix_ctrl_t) * btn_cnt);
 2199              		.loc 1 848 5 discriminator 1 view .LVU722
 848:lvgl/src/widgets/lv_btnmatrix.c ****     btnm->ctrl_bits = lv_mem_alloc(sizeof(lv_btnmatrix_ctrl_t) * btn_cnt);
 2200              		.loc 1 848 5 discriminator 1 view .LVU723
 848:lvgl/src/widgets/lv_btnmatrix.c ****     btnm->ctrl_bits = lv_mem_alloc(sizeof(lv_btnmatrix_ctrl_t) * btn_cnt);
 2201              		.loc 1 848 5 discriminator 1 view .LVU724
 848:lvgl/src/widgets/lv_btnmatrix.c ****     btnm->ctrl_bits = lv_mem_alloc(sizeof(lv_btnmatrix_ctrl_t) * btn_cnt);
 2202              		.loc 1 848 5 discriminator 1 view .LVU725
 2203 0074 FEE7     		b	.L110
 2204              	.L112:
 850:lvgl/src/widgets/lv_btnmatrix.c ****     if(btnm->button_areas == NULL || btnm->ctrl_bits == NULL) btn_cnt = 0;
 2205              		.loc 1 850 5 discriminator 1 view .LVU726
 850:lvgl/src/widgets/lv_btnmatrix.c ****     if(btnm->button_areas == NULL || btnm->ctrl_bits == NULL) btn_cnt = 0;
 2206              		.loc 1 850 5 discriminator 1 view .LVU727
 850:lvgl/src/widgets/lv_btnmatrix.c ****     if(btnm->button_areas == NULL || btnm->ctrl_bits == NULL) btn_cnt = 0;
 2207              		.loc 1 850 5 discriminator 1 view .LVU728
 850:lvgl/src/widgets/lv_btnmatrix.c ****     if(btnm->button_areas == NULL || btnm->ctrl_bits == NULL) btn_cnt = 0;
 2208              		.loc 1 850 5 discriminator 1 view .LVU729
 850:lvgl/src/widgets/lv_btnmatrix.c ****     if(btnm->button_areas == NULL || btnm->ctrl_bits == NULL) btn_cnt = 0;
 2209              		.loc 1 850 5 discriminator 1 view .LVU730
 2210 0076 FEE7     		b	.L112
 2211              	.L116:
 851:lvgl/src/widgets/lv_btnmatrix.c **** 
 2212              		.loc 1 851 71 is_stmt 0 discriminator 3 view .LVU731
 2213 0078 0025     		movs	r5, #0
 2214              	.LVL190:
 851:lvgl/src/widgets/lv_btnmatrix.c **** 
 2215              		.loc 1 851 71 discriminator 3 view .LVU732
 2216 007a F6E7     		b	.L113
 2217              	.L118:
 2218              		.align	2
 2219              	.L117:
 2220 007c 00000000 		.word	.LC0
 2221              		.cfi_endproc
 2222              	.LFE175:
 2224              		.section	.text.lv_btnmatrix_create,"ax",%progbits
 2225              		.align	1
 2226              		.global	lv_btnmatrix_create
 2227              		.syntax unified
 2228              		.thumb
 2229              		.thumb_func
 2231              	lv_btnmatrix_create:
ARM GAS  C:\usertemp\ccuzpgLf.s 			page 73


 2232              	.LVL191:
 2233              	.LFB156:
  82:lvgl/src/widgets/lv_btnmatrix.c ****     LV_LOG_INFO("begin");
 2234              		.loc 1 82 1 is_stmt 1 view -0
 2235              		.cfi_startproc
 2236              		@ args = 0, pretend = 0, frame = 0
 2237              		@ frame_needed = 0, uses_anonymous_args = 0
  82:lvgl/src/widgets/lv_btnmatrix.c ****     LV_LOG_INFO("begin");
 2238              		.loc 1 82 1 is_stmt 0 view .LVU734
 2239 0000 10B5     		push	{r4, lr}
 2240              	.LCFI18:
 2241              		.cfi_def_cfa_offset 8
 2242              		.cfi_offset 4, -8
 2243              		.cfi_offset 14, -4
 2244 0002 0146     		mov	r1, r0
  83:lvgl/src/widgets/lv_btnmatrix.c ****     lv_obj_t * obj = lv_obj_class_create_obj(MY_CLASS, parent);
 2245              		.loc 1 83 5 is_stmt 1 view .LVU735
  83:lvgl/src/widgets/lv_btnmatrix.c ****     lv_obj_t * obj = lv_obj_class_create_obj(MY_CLASS, parent);
 2246              		.loc 1 83 5 view .LVU736
  83:lvgl/src/widgets/lv_btnmatrix.c ****     lv_obj_t * obj = lv_obj_class_create_obj(MY_CLASS, parent);
 2247              		.loc 1 83 5 view .LVU737
  84:lvgl/src/widgets/lv_btnmatrix.c ****     lv_obj_class_init_obj(obj);
 2248              		.loc 1 84 5 view .LVU738
  84:lvgl/src/widgets/lv_btnmatrix.c ****     lv_obj_class_init_obj(obj);
 2249              		.loc 1 84 22 is_stmt 0 view .LVU739
 2250 0004 0348     		ldr	r0, .L121
 2251              	.LVL192:
  84:lvgl/src/widgets/lv_btnmatrix.c ****     lv_obj_class_init_obj(obj);
 2252              		.loc 1 84 22 view .LVU740
 2253 0006 FFF7FEFF 		bl	lv_obj_class_create_obj
 2254              	.LVL193:
  84:lvgl/src/widgets/lv_btnmatrix.c ****     lv_obj_class_init_obj(obj);
 2255              		.loc 1 84 22 view .LVU741
 2256 000a 0446     		mov	r4, r0
 2257              	.LVL194:
  85:lvgl/src/widgets/lv_btnmatrix.c ****     return obj;
 2258              		.loc 1 85 5 is_stmt 1 view .LVU742
 2259 000c FFF7FEFF 		bl	lv_obj_class_init_obj
 2260              	.LVL195:
  86:lvgl/src/widgets/lv_btnmatrix.c **** }
 2261              		.loc 1 86 5 view .LVU743
  87:lvgl/src/widgets/lv_btnmatrix.c **** 
 2262              		.loc 1 87 1 is_stmt 0 view .LVU744
 2263 0010 2046     		mov	r0, r4
 2264 0012 10BD     		pop	{r4, pc}
 2265              	.LVL196:
 2266              	.L122:
  87:lvgl/src/widgets/lv_btnmatrix.c **** 
 2267              		.loc 1 87 1 view .LVU745
 2268              		.align	2
 2269              	.L121:
 2270 0014 00000000 		.word	lv_btnmatrix_class
 2271              		.cfi_endproc
 2272              	.LFE156:
 2274              		.section	.text.lv_btnmatrix_set_map,"ax",%progbits
 2275              		.align	1
 2276              		.global	lv_btnmatrix_set_map
ARM GAS  C:\usertemp\ccuzpgLf.s 			page 74


 2277              		.syntax unified
 2278              		.thumb
 2279              		.thumb_func
 2281              	lv_btnmatrix_set_map:
 2282              	.LVL197:
 2283              	.LFB157:
  94:lvgl/src/widgets/lv_btnmatrix.c ****     LV_ASSERT_OBJ(obj, MY_CLASS);
 2284              		.loc 1 94 1 is_stmt 1 view -0
 2285              		.cfi_startproc
 2286              		@ args = 0, pretend = 0, frame = 48
 2287              		@ frame_needed = 0, uses_anonymous_args = 0
  95:lvgl/src/widgets/lv_btnmatrix.c ****     if(map == NULL) return;
 2288              		.loc 1 95 5 view .LVU747
  95:lvgl/src/widgets/lv_btnmatrix.c ****     if(map == NULL) return;
 2289              		.loc 1 95 5 view .LVU748
  95:lvgl/src/widgets/lv_btnmatrix.c ****     if(map == NULL) return;
 2290              		.loc 1 95 5 view .LVU749
  96:lvgl/src/widgets/lv_btnmatrix.c **** 
 2291              		.loc 1 96 5 view .LVU750
  96:lvgl/src/widgets/lv_btnmatrix.c **** 
 2292              		.loc 1 96 7 is_stmt 0 view .LVU751
 2293 0000 0029     		cmp	r1, #0
 2294 0002 00F0F480 		beq	.L138
  94:lvgl/src/widgets/lv_btnmatrix.c ****     LV_ASSERT_OBJ(obj, MY_CLASS);
 2295              		.loc 1 94 1 view .LVU752
 2296 0006 2DE9F04F 		push	{r4, r5, r6, r7, r8, r9, r10, fp, lr}
 2297              	.LCFI19:
 2298              		.cfi_def_cfa_offset 36
 2299              		.cfi_offset 4, -36
 2300              		.cfi_offset 5, -32
 2301              		.cfi_offset 6, -28
 2302              		.cfi_offset 7, -24
 2303              		.cfi_offset 8, -20
 2304              		.cfi_offset 9, -16
 2305              		.cfi_offset 10, -12
 2306              		.cfi_offset 11, -8
 2307              		.cfi_offset 14, -4
 2308 000a 8FB0     		sub	sp, sp, #60
 2309              	.LCFI20:
 2310              		.cfi_def_cfa_offset 96
 2311 000c 0746     		mov	r7, r0
 2312 000e 8A46     		mov	r10, r1
  98:lvgl/src/widgets/lv_btnmatrix.c **** 
 2313              		.loc 1 98 5 is_stmt 1 view .LVU753
 2314              	.LVL198:
 101:lvgl/src/widgets/lv_btnmatrix.c ****     btnm->map_p = map;
 2315              		.loc 1 101 5 view .LVU754
 2316 0010 FFF7FEFF 		bl	allocate_btn_areas_and_controls
 2317              	.LVL199:
 102:lvgl/src/widgets/lv_btnmatrix.c **** 
 2318              		.loc 1 102 5 view .LVU755
 102:lvgl/src/widgets/lv_btnmatrix.c **** 
 2319              		.loc 1 102 17 is_stmt 0 view .LVU756
 2320 0014 C7F824A0 		str	r10, [r7, #36]
 104:lvgl/src/widgets/lv_btnmatrix.c **** 
 2321              		.loc 1 104 5 is_stmt 1 view .LVU757
 2322              	.LVL200:
ARM GAS  C:\usertemp\ccuzpgLf.s 			page 75


 2323              	.LBB121:
 2324              	.LBI121:
 125:lvgl/src/widgets/../core/lv_obj_style_gen.h **** }
 126:lvgl/src/widgets/../core/lv_obj_style_gen.h **** 
 127:lvgl/src/widgets/../core/lv_obj_style_gen.h **** static inline lv_color_t lv_obj_get_style_bg_color(const struct _lv_obj_t * obj, uint32_t part)
 128:lvgl/src/widgets/../core/lv_obj_style_gen.h **** {
 129:lvgl/src/widgets/../core/lv_obj_style_gen.h ****     lv_style_value_t v = lv_obj_get_style_prop(obj, part, LV_STYLE_BG_COLOR);
 130:lvgl/src/widgets/../core/lv_obj_style_gen.h ****     return v.color;
 131:lvgl/src/widgets/../core/lv_obj_style_gen.h **** }
 132:lvgl/src/widgets/../core/lv_obj_style_gen.h **** 
 133:lvgl/src/widgets/../core/lv_obj_style_gen.h **** static inline lv_color_t lv_obj_get_style_bg_color_filtered(const struct _lv_obj_t * obj, uint32_t 
 134:lvgl/src/widgets/../core/lv_obj_style_gen.h **** {
 135:lvgl/src/widgets/../core/lv_obj_style_gen.h ****     lv_style_value_t v = lv_obj_get_style_prop(obj, part, LV_STYLE_BG_COLOR_FILTERED);
 136:lvgl/src/widgets/../core/lv_obj_style_gen.h ****     return v.color;
 137:lvgl/src/widgets/../core/lv_obj_style_gen.h **** }
 138:lvgl/src/widgets/../core/lv_obj_style_gen.h **** 
 139:lvgl/src/widgets/../core/lv_obj_style_gen.h **** static inline lv_opa_t lv_obj_get_style_bg_opa(const struct _lv_obj_t * obj, uint32_t part)
 140:lvgl/src/widgets/../core/lv_obj_style_gen.h **** {
 141:lvgl/src/widgets/../core/lv_obj_style_gen.h ****     lv_style_value_t v = lv_obj_get_style_prop(obj, part, LV_STYLE_BG_OPA);
 142:lvgl/src/widgets/../core/lv_obj_style_gen.h ****     return (lv_opa_t)v.num;
 143:lvgl/src/widgets/../core/lv_obj_style_gen.h **** }
 144:lvgl/src/widgets/../core/lv_obj_style_gen.h **** 
 145:lvgl/src/widgets/../core/lv_obj_style_gen.h **** static inline lv_color_t lv_obj_get_style_bg_grad_color(const struct _lv_obj_t * obj, uint32_t part
 146:lvgl/src/widgets/../core/lv_obj_style_gen.h **** {
 147:lvgl/src/widgets/../core/lv_obj_style_gen.h ****     lv_style_value_t v = lv_obj_get_style_prop(obj, part, LV_STYLE_BG_GRAD_COLOR);
 148:lvgl/src/widgets/../core/lv_obj_style_gen.h ****     return v.color;
 149:lvgl/src/widgets/../core/lv_obj_style_gen.h **** }
 150:lvgl/src/widgets/../core/lv_obj_style_gen.h **** 
 151:lvgl/src/widgets/../core/lv_obj_style_gen.h **** static inline lv_color_t lv_obj_get_style_bg_grad_color_filtered(const struct _lv_obj_t * obj, uint
 152:lvgl/src/widgets/../core/lv_obj_style_gen.h **** {
 153:lvgl/src/widgets/../core/lv_obj_style_gen.h ****     lv_style_value_t v = lv_obj_get_style_prop(obj, part, LV_STYLE_BG_GRAD_COLOR_FILTERED);
 154:lvgl/src/widgets/../core/lv_obj_style_gen.h ****     return v.color;
 155:lvgl/src/widgets/../core/lv_obj_style_gen.h **** }
 156:lvgl/src/widgets/../core/lv_obj_style_gen.h **** 
 157:lvgl/src/widgets/../core/lv_obj_style_gen.h **** static inline lv_grad_dir_t lv_obj_get_style_bg_grad_dir(const struct _lv_obj_t * obj, uint32_t par
 158:lvgl/src/widgets/../core/lv_obj_style_gen.h **** {
 159:lvgl/src/widgets/../core/lv_obj_style_gen.h ****     lv_style_value_t v = lv_obj_get_style_prop(obj, part, LV_STYLE_BG_GRAD_DIR);
 160:lvgl/src/widgets/../core/lv_obj_style_gen.h ****     return (lv_grad_dir_t)v.num;
 161:lvgl/src/widgets/../core/lv_obj_style_gen.h **** }
 162:lvgl/src/widgets/../core/lv_obj_style_gen.h **** 
 163:lvgl/src/widgets/../core/lv_obj_style_gen.h **** static inline lv_coord_t lv_obj_get_style_bg_main_stop(const struct _lv_obj_t * obj, uint32_t part)
 164:lvgl/src/widgets/../core/lv_obj_style_gen.h **** {
 165:lvgl/src/widgets/../core/lv_obj_style_gen.h ****     lv_style_value_t v = lv_obj_get_style_prop(obj, part, LV_STYLE_BG_MAIN_STOP);
 166:lvgl/src/widgets/../core/lv_obj_style_gen.h ****     return (lv_coord_t)v.num;
 167:lvgl/src/widgets/../core/lv_obj_style_gen.h **** }
 168:lvgl/src/widgets/../core/lv_obj_style_gen.h **** 
 169:lvgl/src/widgets/../core/lv_obj_style_gen.h **** static inline lv_coord_t lv_obj_get_style_bg_grad_stop(const struct _lv_obj_t * obj, uint32_t part)
 170:lvgl/src/widgets/../core/lv_obj_style_gen.h **** {
 171:lvgl/src/widgets/../core/lv_obj_style_gen.h ****     lv_style_value_t v = lv_obj_get_style_prop(obj, part, LV_STYLE_BG_GRAD_STOP);
 172:lvgl/src/widgets/../core/lv_obj_style_gen.h ****     return (lv_coord_t)v.num;
 173:lvgl/src/widgets/../core/lv_obj_style_gen.h **** }
 174:lvgl/src/widgets/../core/lv_obj_style_gen.h **** 
 175:lvgl/src/widgets/../core/lv_obj_style_gen.h **** static inline const lv_grad_dsc_t * lv_obj_get_style_bg_grad(const struct _lv_obj_t * obj, uint32_t
 176:lvgl/src/widgets/../core/lv_obj_style_gen.h **** {
 177:lvgl/src/widgets/../core/lv_obj_style_gen.h ****     lv_style_value_t v = lv_obj_get_style_prop(obj, part, LV_STYLE_BG_GRAD);
 178:lvgl/src/widgets/../core/lv_obj_style_gen.h ****     return (const lv_grad_dsc_t *)v.ptr;
 179:lvgl/src/widgets/../core/lv_obj_style_gen.h **** }
ARM GAS  C:\usertemp\ccuzpgLf.s 			page 76


 180:lvgl/src/widgets/../core/lv_obj_style_gen.h **** 
 181:lvgl/src/widgets/../core/lv_obj_style_gen.h **** static inline lv_dither_mode_t lv_obj_get_style_bg_dither_mode(const struct _lv_obj_t * obj, uint32
 182:lvgl/src/widgets/../core/lv_obj_style_gen.h **** {
 183:lvgl/src/widgets/../core/lv_obj_style_gen.h ****     lv_style_value_t v = lv_obj_get_style_prop(obj, part, LV_STYLE_BG_DITHER_MODE);
 184:lvgl/src/widgets/../core/lv_obj_style_gen.h ****     return (lv_dither_mode_t)v.num;
 185:lvgl/src/widgets/../core/lv_obj_style_gen.h **** }
 186:lvgl/src/widgets/../core/lv_obj_style_gen.h **** 
 187:lvgl/src/widgets/../core/lv_obj_style_gen.h **** static inline const void * lv_obj_get_style_bg_img_src(const struct _lv_obj_t * obj, uint32_t part)
 188:lvgl/src/widgets/../core/lv_obj_style_gen.h **** {
 189:lvgl/src/widgets/../core/lv_obj_style_gen.h ****     lv_style_value_t v = lv_obj_get_style_prop(obj, part, LV_STYLE_BG_IMG_SRC);
 190:lvgl/src/widgets/../core/lv_obj_style_gen.h ****     return (const void *)v.ptr;
 191:lvgl/src/widgets/../core/lv_obj_style_gen.h **** }
 192:lvgl/src/widgets/../core/lv_obj_style_gen.h **** 
 193:lvgl/src/widgets/../core/lv_obj_style_gen.h **** static inline lv_opa_t lv_obj_get_style_bg_img_opa(const struct _lv_obj_t * obj, uint32_t part)
 194:lvgl/src/widgets/../core/lv_obj_style_gen.h **** {
 195:lvgl/src/widgets/../core/lv_obj_style_gen.h ****     lv_style_value_t v = lv_obj_get_style_prop(obj, part, LV_STYLE_BG_IMG_OPA);
 196:lvgl/src/widgets/../core/lv_obj_style_gen.h ****     return (lv_opa_t)v.num;
 197:lvgl/src/widgets/../core/lv_obj_style_gen.h **** }
 198:lvgl/src/widgets/../core/lv_obj_style_gen.h **** 
 199:lvgl/src/widgets/../core/lv_obj_style_gen.h **** static inline lv_color_t lv_obj_get_style_bg_img_recolor(const struct _lv_obj_t * obj, uint32_t par
 200:lvgl/src/widgets/../core/lv_obj_style_gen.h **** {
 201:lvgl/src/widgets/../core/lv_obj_style_gen.h ****     lv_style_value_t v = lv_obj_get_style_prop(obj, part, LV_STYLE_BG_IMG_RECOLOR);
 202:lvgl/src/widgets/../core/lv_obj_style_gen.h ****     return v.color;
 203:lvgl/src/widgets/../core/lv_obj_style_gen.h **** }
 204:lvgl/src/widgets/../core/lv_obj_style_gen.h **** 
 205:lvgl/src/widgets/../core/lv_obj_style_gen.h **** static inline lv_color_t lv_obj_get_style_bg_img_recolor_filtered(const struct _lv_obj_t * obj, uin
 206:lvgl/src/widgets/../core/lv_obj_style_gen.h **** {
 207:lvgl/src/widgets/../core/lv_obj_style_gen.h ****     lv_style_value_t v = lv_obj_get_style_prop(obj, part, LV_STYLE_BG_IMG_RECOLOR_FILTERED);
 208:lvgl/src/widgets/../core/lv_obj_style_gen.h ****     return v.color;
 209:lvgl/src/widgets/../core/lv_obj_style_gen.h **** }
 210:lvgl/src/widgets/../core/lv_obj_style_gen.h **** 
 211:lvgl/src/widgets/../core/lv_obj_style_gen.h **** static inline lv_opa_t lv_obj_get_style_bg_img_recolor_opa(const struct _lv_obj_t * obj, uint32_t p
 212:lvgl/src/widgets/../core/lv_obj_style_gen.h **** {
 213:lvgl/src/widgets/../core/lv_obj_style_gen.h ****     lv_style_value_t v = lv_obj_get_style_prop(obj, part, LV_STYLE_BG_IMG_RECOLOR_OPA);
 214:lvgl/src/widgets/../core/lv_obj_style_gen.h ****     return (lv_opa_t)v.num;
 215:lvgl/src/widgets/../core/lv_obj_style_gen.h **** }
 216:lvgl/src/widgets/../core/lv_obj_style_gen.h **** 
 217:lvgl/src/widgets/../core/lv_obj_style_gen.h **** static inline bool lv_obj_get_style_bg_img_tiled(const struct _lv_obj_t * obj, uint32_t part)
 218:lvgl/src/widgets/../core/lv_obj_style_gen.h **** {
 219:lvgl/src/widgets/../core/lv_obj_style_gen.h ****     lv_style_value_t v = lv_obj_get_style_prop(obj, part, LV_STYLE_BG_IMG_TILED);
 220:lvgl/src/widgets/../core/lv_obj_style_gen.h ****     return (bool)v.num;
 221:lvgl/src/widgets/../core/lv_obj_style_gen.h **** }
 222:lvgl/src/widgets/../core/lv_obj_style_gen.h **** 
 223:lvgl/src/widgets/../core/lv_obj_style_gen.h **** static inline lv_color_t lv_obj_get_style_border_color(const struct _lv_obj_t * obj, uint32_t part)
 224:lvgl/src/widgets/../core/lv_obj_style_gen.h **** {
 225:lvgl/src/widgets/../core/lv_obj_style_gen.h ****     lv_style_value_t v = lv_obj_get_style_prop(obj, part, LV_STYLE_BORDER_COLOR);
 226:lvgl/src/widgets/../core/lv_obj_style_gen.h ****     return v.color;
 227:lvgl/src/widgets/../core/lv_obj_style_gen.h **** }
 228:lvgl/src/widgets/../core/lv_obj_style_gen.h **** 
 229:lvgl/src/widgets/../core/lv_obj_style_gen.h **** static inline lv_color_t lv_obj_get_style_border_color_filtered(const struct _lv_obj_t * obj, uint3
 230:lvgl/src/widgets/../core/lv_obj_style_gen.h **** {
 231:lvgl/src/widgets/../core/lv_obj_style_gen.h ****     lv_style_value_t v = lv_obj_get_style_prop(obj, part, LV_STYLE_BORDER_COLOR_FILTERED);
 232:lvgl/src/widgets/../core/lv_obj_style_gen.h ****     return v.color;
 233:lvgl/src/widgets/../core/lv_obj_style_gen.h **** }
 234:lvgl/src/widgets/../core/lv_obj_style_gen.h **** 
 235:lvgl/src/widgets/../core/lv_obj_style_gen.h **** static inline lv_opa_t lv_obj_get_style_border_opa(const struct _lv_obj_t * obj, uint32_t part)
 236:lvgl/src/widgets/../core/lv_obj_style_gen.h **** {
ARM GAS  C:\usertemp\ccuzpgLf.s 			page 77


 237:lvgl/src/widgets/../core/lv_obj_style_gen.h ****     lv_style_value_t v = lv_obj_get_style_prop(obj, part, LV_STYLE_BORDER_OPA);
 238:lvgl/src/widgets/../core/lv_obj_style_gen.h ****     return (lv_opa_t)v.num;
 239:lvgl/src/widgets/../core/lv_obj_style_gen.h **** }
 240:lvgl/src/widgets/../core/lv_obj_style_gen.h **** 
 241:lvgl/src/widgets/../core/lv_obj_style_gen.h **** static inline lv_coord_t lv_obj_get_style_border_width(const struct _lv_obj_t * obj, uint32_t part)
 242:lvgl/src/widgets/../core/lv_obj_style_gen.h **** {
 243:lvgl/src/widgets/../core/lv_obj_style_gen.h ****     lv_style_value_t v = lv_obj_get_style_prop(obj, part, LV_STYLE_BORDER_WIDTH);
 244:lvgl/src/widgets/../core/lv_obj_style_gen.h ****     return (lv_coord_t)v.num;
 245:lvgl/src/widgets/../core/lv_obj_style_gen.h **** }
 246:lvgl/src/widgets/../core/lv_obj_style_gen.h **** 
 247:lvgl/src/widgets/../core/lv_obj_style_gen.h **** static inline lv_border_side_t lv_obj_get_style_border_side(const struct _lv_obj_t * obj, uint32_t 
 248:lvgl/src/widgets/../core/lv_obj_style_gen.h **** {
 249:lvgl/src/widgets/../core/lv_obj_style_gen.h ****     lv_style_value_t v = lv_obj_get_style_prop(obj, part, LV_STYLE_BORDER_SIDE);
 250:lvgl/src/widgets/../core/lv_obj_style_gen.h ****     return (lv_border_side_t)v.num;
 251:lvgl/src/widgets/../core/lv_obj_style_gen.h **** }
 252:lvgl/src/widgets/../core/lv_obj_style_gen.h **** 
 253:lvgl/src/widgets/../core/lv_obj_style_gen.h **** static inline bool lv_obj_get_style_border_post(const struct _lv_obj_t * obj, uint32_t part)
 254:lvgl/src/widgets/../core/lv_obj_style_gen.h **** {
 255:lvgl/src/widgets/../core/lv_obj_style_gen.h ****     lv_style_value_t v = lv_obj_get_style_prop(obj, part, LV_STYLE_BORDER_POST);
 256:lvgl/src/widgets/../core/lv_obj_style_gen.h ****     return (bool)v.num;
 257:lvgl/src/widgets/../core/lv_obj_style_gen.h **** }
 258:lvgl/src/widgets/../core/lv_obj_style_gen.h **** 
 259:lvgl/src/widgets/../core/lv_obj_style_gen.h **** static inline lv_coord_t lv_obj_get_style_outline_width(const struct _lv_obj_t * obj, uint32_t part
 260:lvgl/src/widgets/../core/lv_obj_style_gen.h **** {
 261:lvgl/src/widgets/../core/lv_obj_style_gen.h ****     lv_style_value_t v = lv_obj_get_style_prop(obj, part, LV_STYLE_OUTLINE_WIDTH);
 262:lvgl/src/widgets/../core/lv_obj_style_gen.h ****     return (lv_coord_t)v.num;
 263:lvgl/src/widgets/../core/lv_obj_style_gen.h **** }
 264:lvgl/src/widgets/../core/lv_obj_style_gen.h **** 
 265:lvgl/src/widgets/../core/lv_obj_style_gen.h **** static inline lv_color_t lv_obj_get_style_outline_color(const struct _lv_obj_t * obj, uint32_t part
 266:lvgl/src/widgets/../core/lv_obj_style_gen.h **** {
 267:lvgl/src/widgets/../core/lv_obj_style_gen.h ****     lv_style_value_t v = lv_obj_get_style_prop(obj, part, LV_STYLE_OUTLINE_COLOR);
 268:lvgl/src/widgets/../core/lv_obj_style_gen.h ****     return v.color;
 269:lvgl/src/widgets/../core/lv_obj_style_gen.h **** }
 270:lvgl/src/widgets/../core/lv_obj_style_gen.h **** 
 271:lvgl/src/widgets/../core/lv_obj_style_gen.h **** static inline lv_color_t lv_obj_get_style_outline_color_filtered(const struct _lv_obj_t * obj, uint
 272:lvgl/src/widgets/../core/lv_obj_style_gen.h **** {
 273:lvgl/src/widgets/../core/lv_obj_style_gen.h ****     lv_style_value_t v = lv_obj_get_style_prop(obj, part, LV_STYLE_OUTLINE_COLOR_FILTERED);
 274:lvgl/src/widgets/../core/lv_obj_style_gen.h ****     return v.color;
 275:lvgl/src/widgets/../core/lv_obj_style_gen.h **** }
 276:lvgl/src/widgets/../core/lv_obj_style_gen.h **** 
 277:lvgl/src/widgets/../core/lv_obj_style_gen.h **** static inline lv_opa_t lv_obj_get_style_outline_opa(const struct _lv_obj_t * obj, uint32_t part)
 278:lvgl/src/widgets/../core/lv_obj_style_gen.h **** {
 279:lvgl/src/widgets/../core/lv_obj_style_gen.h ****     lv_style_value_t v = lv_obj_get_style_prop(obj, part, LV_STYLE_OUTLINE_OPA);
 280:lvgl/src/widgets/../core/lv_obj_style_gen.h ****     return (lv_opa_t)v.num;
 281:lvgl/src/widgets/../core/lv_obj_style_gen.h **** }
 282:lvgl/src/widgets/../core/lv_obj_style_gen.h **** 
 283:lvgl/src/widgets/../core/lv_obj_style_gen.h **** static inline lv_coord_t lv_obj_get_style_outline_pad(const struct _lv_obj_t * obj, uint32_t part)
 284:lvgl/src/widgets/../core/lv_obj_style_gen.h **** {
 285:lvgl/src/widgets/../core/lv_obj_style_gen.h ****     lv_style_value_t v = lv_obj_get_style_prop(obj, part, LV_STYLE_OUTLINE_PAD);
 286:lvgl/src/widgets/../core/lv_obj_style_gen.h ****     return (lv_coord_t)v.num;
 287:lvgl/src/widgets/../core/lv_obj_style_gen.h **** }
 288:lvgl/src/widgets/../core/lv_obj_style_gen.h **** 
 289:lvgl/src/widgets/../core/lv_obj_style_gen.h **** static inline lv_coord_t lv_obj_get_style_shadow_width(const struct _lv_obj_t * obj, uint32_t part)
 290:lvgl/src/widgets/../core/lv_obj_style_gen.h **** {
 291:lvgl/src/widgets/../core/lv_obj_style_gen.h ****     lv_style_value_t v = lv_obj_get_style_prop(obj, part, LV_STYLE_SHADOW_WIDTH);
 292:lvgl/src/widgets/../core/lv_obj_style_gen.h ****     return (lv_coord_t)v.num;
 293:lvgl/src/widgets/../core/lv_obj_style_gen.h **** }
ARM GAS  C:\usertemp\ccuzpgLf.s 			page 78


 294:lvgl/src/widgets/../core/lv_obj_style_gen.h **** 
 295:lvgl/src/widgets/../core/lv_obj_style_gen.h **** static inline lv_coord_t lv_obj_get_style_shadow_ofs_x(const struct _lv_obj_t * obj, uint32_t part)
 296:lvgl/src/widgets/../core/lv_obj_style_gen.h **** {
 297:lvgl/src/widgets/../core/lv_obj_style_gen.h ****     lv_style_value_t v = lv_obj_get_style_prop(obj, part, LV_STYLE_SHADOW_OFS_X);
 298:lvgl/src/widgets/../core/lv_obj_style_gen.h ****     return (lv_coord_t)v.num;
 299:lvgl/src/widgets/../core/lv_obj_style_gen.h **** }
 300:lvgl/src/widgets/../core/lv_obj_style_gen.h **** 
 301:lvgl/src/widgets/../core/lv_obj_style_gen.h **** static inline lv_coord_t lv_obj_get_style_shadow_ofs_y(const struct _lv_obj_t * obj, uint32_t part)
 302:lvgl/src/widgets/../core/lv_obj_style_gen.h **** {
 303:lvgl/src/widgets/../core/lv_obj_style_gen.h ****     lv_style_value_t v = lv_obj_get_style_prop(obj, part, LV_STYLE_SHADOW_OFS_Y);
 304:lvgl/src/widgets/../core/lv_obj_style_gen.h ****     return (lv_coord_t)v.num;
 305:lvgl/src/widgets/../core/lv_obj_style_gen.h **** }
 306:lvgl/src/widgets/../core/lv_obj_style_gen.h **** 
 307:lvgl/src/widgets/../core/lv_obj_style_gen.h **** static inline lv_coord_t lv_obj_get_style_shadow_spread(const struct _lv_obj_t * obj, uint32_t part
 308:lvgl/src/widgets/../core/lv_obj_style_gen.h **** {
 309:lvgl/src/widgets/../core/lv_obj_style_gen.h ****     lv_style_value_t v = lv_obj_get_style_prop(obj, part, LV_STYLE_SHADOW_SPREAD);
 310:lvgl/src/widgets/../core/lv_obj_style_gen.h ****     return (lv_coord_t)v.num;
 311:lvgl/src/widgets/../core/lv_obj_style_gen.h **** }
 312:lvgl/src/widgets/../core/lv_obj_style_gen.h **** 
 313:lvgl/src/widgets/../core/lv_obj_style_gen.h **** static inline lv_color_t lv_obj_get_style_shadow_color(const struct _lv_obj_t * obj, uint32_t part)
 314:lvgl/src/widgets/../core/lv_obj_style_gen.h **** {
 315:lvgl/src/widgets/../core/lv_obj_style_gen.h ****     lv_style_value_t v = lv_obj_get_style_prop(obj, part, LV_STYLE_SHADOW_COLOR);
 316:lvgl/src/widgets/../core/lv_obj_style_gen.h ****     return v.color;
 317:lvgl/src/widgets/../core/lv_obj_style_gen.h **** }
 318:lvgl/src/widgets/../core/lv_obj_style_gen.h **** 
 319:lvgl/src/widgets/../core/lv_obj_style_gen.h **** static inline lv_color_t lv_obj_get_style_shadow_color_filtered(const struct _lv_obj_t * obj, uint3
 320:lvgl/src/widgets/../core/lv_obj_style_gen.h **** {
 321:lvgl/src/widgets/../core/lv_obj_style_gen.h ****     lv_style_value_t v = lv_obj_get_style_prop(obj, part, LV_STYLE_SHADOW_COLOR_FILTERED);
 322:lvgl/src/widgets/../core/lv_obj_style_gen.h ****     return v.color;
 323:lvgl/src/widgets/../core/lv_obj_style_gen.h **** }
 324:lvgl/src/widgets/../core/lv_obj_style_gen.h **** 
 325:lvgl/src/widgets/../core/lv_obj_style_gen.h **** static inline lv_opa_t lv_obj_get_style_shadow_opa(const struct _lv_obj_t * obj, uint32_t part)
 326:lvgl/src/widgets/../core/lv_obj_style_gen.h **** {
 327:lvgl/src/widgets/../core/lv_obj_style_gen.h ****     lv_style_value_t v = lv_obj_get_style_prop(obj, part, LV_STYLE_SHADOW_OPA);
 328:lvgl/src/widgets/../core/lv_obj_style_gen.h ****     return (lv_opa_t)v.num;
 329:lvgl/src/widgets/../core/lv_obj_style_gen.h **** }
 330:lvgl/src/widgets/../core/lv_obj_style_gen.h **** 
 331:lvgl/src/widgets/../core/lv_obj_style_gen.h **** static inline lv_opa_t lv_obj_get_style_img_opa(const struct _lv_obj_t * obj, uint32_t part)
 332:lvgl/src/widgets/../core/lv_obj_style_gen.h **** {
 333:lvgl/src/widgets/../core/lv_obj_style_gen.h ****     lv_style_value_t v = lv_obj_get_style_prop(obj, part, LV_STYLE_IMG_OPA);
 334:lvgl/src/widgets/../core/lv_obj_style_gen.h ****     return (lv_opa_t)v.num;
 335:lvgl/src/widgets/../core/lv_obj_style_gen.h **** }
 336:lvgl/src/widgets/../core/lv_obj_style_gen.h **** 
 337:lvgl/src/widgets/../core/lv_obj_style_gen.h **** static inline lv_color_t lv_obj_get_style_img_recolor(const struct _lv_obj_t * obj, uint32_t part)
 338:lvgl/src/widgets/../core/lv_obj_style_gen.h **** {
 339:lvgl/src/widgets/../core/lv_obj_style_gen.h ****     lv_style_value_t v = lv_obj_get_style_prop(obj, part, LV_STYLE_IMG_RECOLOR);
 340:lvgl/src/widgets/../core/lv_obj_style_gen.h ****     return v.color;
 341:lvgl/src/widgets/../core/lv_obj_style_gen.h **** }
 342:lvgl/src/widgets/../core/lv_obj_style_gen.h **** 
 343:lvgl/src/widgets/../core/lv_obj_style_gen.h **** static inline lv_color_t lv_obj_get_style_img_recolor_filtered(const struct _lv_obj_t * obj, uint32
 344:lvgl/src/widgets/../core/lv_obj_style_gen.h **** {
 345:lvgl/src/widgets/../core/lv_obj_style_gen.h ****     lv_style_value_t v = lv_obj_get_style_prop(obj, part, LV_STYLE_IMG_RECOLOR_FILTERED);
 346:lvgl/src/widgets/../core/lv_obj_style_gen.h ****     return v.color;
 347:lvgl/src/widgets/../core/lv_obj_style_gen.h **** }
 348:lvgl/src/widgets/../core/lv_obj_style_gen.h **** 
 349:lvgl/src/widgets/../core/lv_obj_style_gen.h **** static inline lv_opa_t lv_obj_get_style_img_recolor_opa(const struct _lv_obj_t * obj, uint32_t part
 350:lvgl/src/widgets/../core/lv_obj_style_gen.h **** {
ARM GAS  C:\usertemp\ccuzpgLf.s 			page 79


 351:lvgl/src/widgets/../core/lv_obj_style_gen.h ****     lv_style_value_t v = lv_obj_get_style_prop(obj, part, LV_STYLE_IMG_RECOLOR_OPA);
 352:lvgl/src/widgets/../core/lv_obj_style_gen.h ****     return (lv_opa_t)v.num;
 353:lvgl/src/widgets/../core/lv_obj_style_gen.h **** }
 354:lvgl/src/widgets/../core/lv_obj_style_gen.h **** 
 355:lvgl/src/widgets/../core/lv_obj_style_gen.h **** static inline lv_coord_t lv_obj_get_style_line_width(const struct _lv_obj_t * obj, uint32_t part)
 356:lvgl/src/widgets/../core/lv_obj_style_gen.h **** {
 357:lvgl/src/widgets/../core/lv_obj_style_gen.h ****     lv_style_value_t v = lv_obj_get_style_prop(obj, part, LV_STYLE_LINE_WIDTH);
 358:lvgl/src/widgets/../core/lv_obj_style_gen.h ****     return (lv_coord_t)v.num;
 359:lvgl/src/widgets/../core/lv_obj_style_gen.h **** }
 360:lvgl/src/widgets/../core/lv_obj_style_gen.h **** 
 361:lvgl/src/widgets/../core/lv_obj_style_gen.h **** static inline lv_coord_t lv_obj_get_style_line_dash_width(const struct _lv_obj_t * obj, uint32_t pa
 362:lvgl/src/widgets/../core/lv_obj_style_gen.h **** {
 363:lvgl/src/widgets/../core/lv_obj_style_gen.h ****     lv_style_value_t v = lv_obj_get_style_prop(obj, part, LV_STYLE_LINE_DASH_WIDTH);
 364:lvgl/src/widgets/../core/lv_obj_style_gen.h ****     return (lv_coord_t)v.num;
 365:lvgl/src/widgets/../core/lv_obj_style_gen.h **** }
 366:lvgl/src/widgets/../core/lv_obj_style_gen.h **** 
 367:lvgl/src/widgets/../core/lv_obj_style_gen.h **** static inline lv_coord_t lv_obj_get_style_line_dash_gap(const struct _lv_obj_t * obj, uint32_t part
 368:lvgl/src/widgets/../core/lv_obj_style_gen.h **** {
 369:lvgl/src/widgets/../core/lv_obj_style_gen.h ****     lv_style_value_t v = lv_obj_get_style_prop(obj, part, LV_STYLE_LINE_DASH_GAP);
 370:lvgl/src/widgets/../core/lv_obj_style_gen.h ****     return (lv_coord_t)v.num;
 371:lvgl/src/widgets/../core/lv_obj_style_gen.h **** }
 372:lvgl/src/widgets/../core/lv_obj_style_gen.h **** 
 373:lvgl/src/widgets/../core/lv_obj_style_gen.h **** static inline bool lv_obj_get_style_line_rounded(const struct _lv_obj_t * obj, uint32_t part)
 374:lvgl/src/widgets/../core/lv_obj_style_gen.h **** {
 375:lvgl/src/widgets/../core/lv_obj_style_gen.h ****     lv_style_value_t v = lv_obj_get_style_prop(obj, part, LV_STYLE_LINE_ROUNDED);
 376:lvgl/src/widgets/../core/lv_obj_style_gen.h ****     return (bool)v.num;
 377:lvgl/src/widgets/../core/lv_obj_style_gen.h **** }
 378:lvgl/src/widgets/../core/lv_obj_style_gen.h **** 
 379:lvgl/src/widgets/../core/lv_obj_style_gen.h **** static inline lv_color_t lv_obj_get_style_line_color(const struct _lv_obj_t * obj, uint32_t part)
 380:lvgl/src/widgets/../core/lv_obj_style_gen.h **** {
 381:lvgl/src/widgets/../core/lv_obj_style_gen.h ****     lv_style_value_t v = lv_obj_get_style_prop(obj, part, LV_STYLE_LINE_COLOR);
 382:lvgl/src/widgets/../core/lv_obj_style_gen.h ****     return v.color;
 383:lvgl/src/widgets/../core/lv_obj_style_gen.h **** }
 384:lvgl/src/widgets/../core/lv_obj_style_gen.h **** 
 385:lvgl/src/widgets/../core/lv_obj_style_gen.h **** static inline lv_color_t lv_obj_get_style_line_color_filtered(const struct _lv_obj_t * obj, uint32_
 386:lvgl/src/widgets/../core/lv_obj_style_gen.h **** {
 387:lvgl/src/widgets/../core/lv_obj_style_gen.h ****     lv_style_value_t v = lv_obj_get_style_prop(obj, part, LV_STYLE_LINE_COLOR_FILTERED);
 388:lvgl/src/widgets/../core/lv_obj_style_gen.h ****     return v.color;
 389:lvgl/src/widgets/../core/lv_obj_style_gen.h **** }
 390:lvgl/src/widgets/../core/lv_obj_style_gen.h **** 
 391:lvgl/src/widgets/../core/lv_obj_style_gen.h **** static inline lv_opa_t lv_obj_get_style_line_opa(const struct _lv_obj_t * obj, uint32_t part)
 392:lvgl/src/widgets/../core/lv_obj_style_gen.h **** {
 393:lvgl/src/widgets/../core/lv_obj_style_gen.h ****     lv_style_value_t v = lv_obj_get_style_prop(obj, part, LV_STYLE_LINE_OPA);
 394:lvgl/src/widgets/../core/lv_obj_style_gen.h ****     return (lv_opa_t)v.num;
 395:lvgl/src/widgets/../core/lv_obj_style_gen.h **** }
 396:lvgl/src/widgets/../core/lv_obj_style_gen.h **** 
 397:lvgl/src/widgets/../core/lv_obj_style_gen.h **** static inline lv_coord_t lv_obj_get_style_arc_width(const struct _lv_obj_t * obj, uint32_t part)
 398:lvgl/src/widgets/../core/lv_obj_style_gen.h **** {
 399:lvgl/src/widgets/../core/lv_obj_style_gen.h ****     lv_style_value_t v = lv_obj_get_style_prop(obj, part, LV_STYLE_ARC_WIDTH);
 400:lvgl/src/widgets/../core/lv_obj_style_gen.h ****     return (lv_coord_t)v.num;
 401:lvgl/src/widgets/../core/lv_obj_style_gen.h **** }
 402:lvgl/src/widgets/../core/lv_obj_style_gen.h **** 
 403:lvgl/src/widgets/../core/lv_obj_style_gen.h **** static inline bool lv_obj_get_style_arc_rounded(const struct _lv_obj_t * obj, uint32_t part)
 404:lvgl/src/widgets/../core/lv_obj_style_gen.h **** {
 405:lvgl/src/widgets/../core/lv_obj_style_gen.h ****     lv_style_value_t v = lv_obj_get_style_prop(obj, part, LV_STYLE_ARC_ROUNDED);
 406:lvgl/src/widgets/../core/lv_obj_style_gen.h ****     return (bool)v.num;
 407:lvgl/src/widgets/../core/lv_obj_style_gen.h **** }
ARM GAS  C:\usertemp\ccuzpgLf.s 			page 80


 408:lvgl/src/widgets/../core/lv_obj_style_gen.h **** 
 409:lvgl/src/widgets/../core/lv_obj_style_gen.h **** static inline lv_color_t lv_obj_get_style_arc_color(const struct _lv_obj_t * obj, uint32_t part)
 410:lvgl/src/widgets/../core/lv_obj_style_gen.h **** {
 411:lvgl/src/widgets/../core/lv_obj_style_gen.h ****     lv_style_value_t v = lv_obj_get_style_prop(obj, part, LV_STYLE_ARC_COLOR);
 412:lvgl/src/widgets/../core/lv_obj_style_gen.h ****     return v.color;
 413:lvgl/src/widgets/../core/lv_obj_style_gen.h **** }
 414:lvgl/src/widgets/../core/lv_obj_style_gen.h **** 
 415:lvgl/src/widgets/../core/lv_obj_style_gen.h **** static inline lv_color_t lv_obj_get_style_arc_color_filtered(const struct _lv_obj_t * obj, uint32_t
 416:lvgl/src/widgets/../core/lv_obj_style_gen.h **** {
 417:lvgl/src/widgets/../core/lv_obj_style_gen.h ****     lv_style_value_t v = lv_obj_get_style_prop(obj, part, LV_STYLE_ARC_COLOR_FILTERED);
 418:lvgl/src/widgets/../core/lv_obj_style_gen.h ****     return v.color;
 419:lvgl/src/widgets/../core/lv_obj_style_gen.h **** }
 420:lvgl/src/widgets/../core/lv_obj_style_gen.h **** 
 421:lvgl/src/widgets/../core/lv_obj_style_gen.h **** static inline lv_opa_t lv_obj_get_style_arc_opa(const struct _lv_obj_t * obj, uint32_t part)
 422:lvgl/src/widgets/../core/lv_obj_style_gen.h **** {
 423:lvgl/src/widgets/../core/lv_obj_style_gen.h ****     lv_style_value_t v = lv_obj_get_style_prop(obj, part, LV_STYLE_ARC_OPA);
 424:lvgl/src/widgets/../core/lv_obj_style_gen.h ****     return (lv_opa_t)v.num;
 425:lvgl/src/widgets/../core/lv_obj_style_gen.h **** }
 426:lvgl/src/widgets/../core/lv_obj_style_gen.h **** 
 427:lvgl/src/widgets/../core/lv_obj_style_gen.h **** static inline const void * lv_obj_get_style_arc_img_src(const struct _lv_obj_t * obj, uint32_t part
 428:lvgl/src/widgets/../core/lv_obj_style_gen.h **** {
 429:lvgl/src/widgets/../core/lv_obj_style_gen.h ****     lv_style_value_t v = lv_obj_get_style_prop(obj, part, LV_STYLE_ARC_IMG_SRC);
 430:lvgl/src/widgets/../core/lv_obj_style_gen.h ****     return (const void *)v.ptr;
 431:lvgl/src/widgets/../core/lv_obj_style_gen.h **** }
 432:lvgl/src/widgets/../core/lv_obj_style_gen.h **** 
 433:lvgl/src/widgets/../core/lv_obj_style_gen.h **** static inline lv_color_t lv_obj_get_style_text_color(const struct _lv_obj_t * obj, uint32_t part)
 434:lvgl/src/widgets/../core/lv_obj_style_gen.h **** {
 435:lvgl/src/widgets/../core/lv_obj_style_gen.h ****     lv_style_value_t v = lv_obj_get_style_prop(obj, part, LV_STYLE_TEXT_COLOR);
 436:lvgl/src/widgets/../core/lv_obj_style_gen.h ****     return v.color;
 437:lvgl/src/widgets/../core/lv_obj_style_gen.h **** }
 438:lvgl/src/widgets/../core/lv_obj_style_gen.h **** 
 439:lvgl/src/widgets/../core/lv_obj_style_gen.h **** static inline lv_color_t lv_obj_get_style_text_color_filtered(const struct _lv_obj_t * obj, uint32_
 440:lvgl/src/widgets/../core/lv_obj_style_gen.h **** {
 441:lvgl/src/widgets/../core/lv_obj_style_gen.h ****     lv_style_value_t v = lv_obj_get_style_prop(obj, part, LV_STYLE_TEXT_COLOR_FILTERED);
 442:lvgl/src/widgets/../core/lv_obj_style_gen.h ****     return v.color;
 443:lvgl/src/widgets/../core/lv_obj_style_gen.h **** }
 444:lvgl/src/widgets/../core/lv_obj_style_gen.h **** 
 445:lvgl/src/widgets/../core/lv_obj_style_gen.h **** static inline lv_opa_t lv_obj_get_style_text_opa(const struct _lv_obj_t * obj, uint32_t part)
 446:lvgl/src/widgets/../core/lv_obj_style_gen.h **** {
 447:lvgl/src/widgets/../core/lv_obj_style_gen.h ****     lv_style_value_t v = lv_obj_get_style_prop(obj, part, LV_STYLE_TEXT_OPA);
 448:lvgl/src/widgets/../core/lv_obj_style_gen.h ****     return (lv_opa_t)v.num;
 449:lvgl/src/widgets/../core/lv_obj_style_gen.h **** }
 450:lvgl/src/widgets/../core/lv_obj_style_gen.h **** 
 451:lvgl/src/widgets/../core/lv_obj_style_gen.h **** static inline const lv_font_t * lv_obj_get_style_text_font(const struct _lv_obj_t * obj, uint32_t p
 452:lvgl/src/widgets/../core/lv_obj_style_gen.h **** {
 453:lvgl/src/widgets/../core/lv_obj_style_gen.h ****     lv_style_value_t v = lv_obj_get_style_prop(obj, part, LV_STYLE_TEXT_FONT);
 454:lvgl/src/widgets/../core/lv_obj_style_gen.h ****     return (const lv_font_t *)v.ptr;
 455:lvgl/src/widgets/../core/lv_obj_style_gen.h **** }
 456:lvgl/src/widgets/../core/lv_obj_style_gen.h **** 
 457:lvgl/src/widgets/../core/lv_obj_style_gen.h **** static inline lv_coord_t lv_obj_get_style_text_letter_space(const struct _lv_obj_t * obj, uint32_t 
 458:lvgl/src/widgets/../core/lv_obj_style_gen.h **** {
 459:lvgl/src/widgets/../core/lv_obj_style_gen.h ****     lv_style_value_t v = lv_obj_get_style_prop(obj, part, LV_STYLE_TEXT_LETTER_SPACE);
 460:lvgl/src/widgets/../core/lv_obj_style_gen.h ****     return (lv_coord_t)v.num;
 461:lvgl/src/widgets/../core/lv_obj_style_gen.h **** }
 462:lvgl/src/widgets/../core/lv_obj_style_gen.h **** 
 463:lvgl/src/widgets/../core/lv_obj_style_gen.h **** static inline lv_coord_t lv_obj_get_style_text_line_space(const struct _lv_obj_t * obj, uint32_t pa
 464:lvgl/src/widgets/../core/lv_obj_style_gen.h **** {
ARM GAS  C:\usertemp\ccuzpgLf.s 			page 81


 465:lvgl/src/widgets/../core/lv_obj_style_gen.h ****     lv_style_value_t v = lv_obj_get_style_prop(obj, part, LV_STYLE_TEXT_LINE_SPACE);
 466:lvgl/src/widgets/../core/lv_obj_style_gen.h ****     return (lv_coord_t)v.num;
 467:lvgl/src/widgets/../core/lv_obj_style_gen.h **** }
 468:lvgl/src/widgets/../core/lv_obj_style_gen.h **** 
 469:lvgl/src/widgets/../core/lv_obj_style_gen.h **** static inline lv_text_decor_t lv_obj_get_style_text_decor(const struct _lv_obj_t * obj, uint32_t pa
 470:lvgl/src/widgets/../core/lv_obj_style_gen.h **** {
 471:lvgl/src/widgets/../core/lv_obj_style_gen.h ****     lv_style_value_t v = lv_obj_get_style_prop(obj, part, LV_STYLE_TEXT_DECOR);
 472:lvgl/src/widgets/../core/lv_obj_style_gen.h ****     return (lv_text_decor_t)v.num;
 473:lvgl/src/widgets/../core/lv_obj_style_gen.h **** }
 474:lvgl/src/widgets/../core/lv_obj_style_gen.h **** 
 475:lvgl/src/widgets/../core/lv_obj_style_gen.h **** static inline lv_text_align_t lv_obj_get_style_text_align(const struct _lv_obj_t * obj, uint32_t pa
 476:lvgl/src/widgets/../core/lv_obj_style_gen.h **** {
 477:lvgl/src/widgets/../core/lv_obj_style_gen.h ****     lv_style_value_t v = lv_obj_get_style_prop(obj, part, LV_STYLE_TEXT_ALIGN);
 478:lvgl/src/widgets/../core/lv_obj_style_gen.h ****     return (lv_text_align_t)v.num;
 479:lvgl/src/widgets/../core/lv_obj_style_gen.h **** }
 480:lvgl/src/widgets/../core/lv_obj_style_gen.h **** 
 481:lvgl/src/widgets/../core/lv_obj_style_gen.h **** static inline lv_coord_t lv_obj_get_style_radius(const struct _lv_obj_t * obj, uint32_t part)
 482:lvgl/src/widgets/../core/lv_obj_style_gen.h **** {
 483:lvgl/src/widgets/../core/lv_obj_style_gen.h ****     lv_style_value_t v = lv_obj_get_style_prop(obj, part, LV_STYLE_RADIUS);
 484:lvgl/src/widgets/../core/lv_obj_style_gen.h ****     return (lv_coord_t)v.num;
 485:lvgl/src/widgets/../core/lv_obj_style_gen.h **** }
 486:lvgl/src/widgets/../core/lv_obj_style_gen.h **** 
 487:lvgl/src/widgets/../core/lv_obj_style_gen.h **** static inline bool lv_obj_get_style_clip_corner(const struct _lv_obj_t * obj, uint32_t part)
 488:lvgl/src/widgets/../core/lv_obj_style_gen.h **** {
 489:lvgl/src/widgets/../core/lv_obj_style_gen.h ****     lv_style_value_t v = lv_obj_get_style_prop(obj, part, LV_STYLE_CLIP_CORNER);
 490:lvgl/src/widgets/../core/lv_obj_style_gen.h ****     return (bool)v.num;
 491:lvgl/src/widgets/../core/lv_obj_style_gen.h **** }
 492:lvgl/src/widgets/../core/lv_obj_style_gen.h **** 
 493:lvgl/src/widgets/../core/lv_obj_style_gen.h **** static inline lv_opa_t lv_obj_get_style_opa(const struct _lv_obj_t * obj, uint32_t part)
 494:lvgl/src/widgets/../core/lv_obj_style_gen.h **** {
 495:lvgl/src/widgets/../core/lv_obj_style_gen.h ****     lv_style_value_t v = lv_obj_get_style_prop(obj, part, LV_STYLE_OPA);
 496:lvgl/src/widgets/../core/lv_obj_style_gen.h ****     return (lv_opa_t)v.num;
 497:lvgl/src/widgets/../core/lv_obj_style_gen.h **** }
 498:lvgl/src/widgets/../core/lv_obj_style_gen.h **** 
 499:lvgl/src/widgets/../core/lv_obj_style_gen.h **** static inline const lv_color_filter_dsc_t * lv_obj_get_style_color_filter_dsc(const struct _lv_obj_
 500:lvgl/src/widgets/../core/lv_obj_style_gen.h ****                                                                               uint32_t part)
 501:lvgl/src/widgets/../core/lv_obj_style_gen.h **** {
 502:lvgl/src/widgets/../core/lv_obj_style_gen.h ****     lv_style_value_t v = lv_obj_get_style_prop(obj, part, LV_STYLE_COLOR_FILTER_DSC);
 503:lvgl/src/widgets/../core/lv_obj_style_gen.h ****     return (const lv_color_filter_dsc_t *)v.ptr;
 504:lvgl/src/widgets/../core/lv_obj_style_gen.h **** }
 505:lvgl/src/widgets/../core/lv_obj_style_gen.h **** 
 506:lvgl/src/widgets/../core/lv_obj_style_gen.h **** static inline lv_opa_t lv_obj_get_style_color_filter_opa(const struct _lv_obj_t * obj, uint32_t par
 507:lvgl/src/widgets/../core/lv_obj_style_gen.h **** {
 508:lvgl/src/widgets/../core/lv_obj_style_gen.h ****     lv_style_value_t v = lv_obj_get_style_prop(obj, part, LV_STYLE_COLOR_FILTER_OPA);
 509:lvgl/src/widgets/../core/lv_obj_style_gen.h ****     return (lv_opa_t)v.num;
 510:lvgl/src/widgets/../core/lv_obj_style_gen.h **** }
 511:lvgl/src/widgets/../core/lv_obj_style_gen.h **** 
 512:lvgl/src/widgets/../core/lv_obj_style_gen.h **** static inline uint32_t lv_obj_get_style_anim_time(const struct _lv_obj_t * obj, uint32_t part)
 513:lvgl/src/widgets/../core/lv_obj_style_gen.h **** {
 514:lvgl/src/widgets/../core/lv_obj_style_gen.h ****     lv_style_value_t v = lv_obj_get_style_prop(obj, part, LV_STYLE_ANIM_TIME);
 515:lvgl/src/widgets/../core/lv_obj_style_gen.h ****     return (uint32_t)v.num;
 516:lvgl/src/widgets/../core/lv_obj_style_gen.h **** }
 517:lvgl/src/widgets/../core/lv_obj_style_gen.h **** 
 518:lvgl/src/widgets/../core/lv_obj_style_gen.h **** static inline uint32_t lv_obj_get_style_anim_speed(const struct _lv_obj_t * obj, uint32_t part)
 519:lvgl/src/widgets/../core/lv_obj_style_gen.h **** {
 520:lvgl/src/widgets/../core/lv_obj_style_gen.h ****     lv_style_value_t v = lv_obj_get_style_prop(obj, part, LV_STYLE_ANIM_SPEED);
 521:lvgl/src/widgets/../core/lv_obj_style_gen.h ****     return (uint32_t)v.num;
ARM GAS  C:\usertemp\ccuzpgLf.s 			page 82


 522:lvgl/src/widgets/../core/lv_obj_style_gen.h **** }
 523:lvgl/src/widgets/../core/lv_obj_style_gen.h **** 
 524:lvgl/src/widgets/../core/lv_obj_style_gen.h **** static inline const lv_style_transition_dsc_t * lv_obj_get_style_transition(const struct _lv_obj_t 
 525:lvgl/src/widgets/../core/lv_obj_style_gen.h **** {
 526:lvgl/src/widgets/../core/lv_obj_style_gen.h ****     lv_style_value_t v = lv_obj_get_style_prop(obj, part, LV_STYLE_TRANSITION);
 527:lvgl/src/widgets/../core/lv_obj_style_gen.h ****     return (const lv_style_transition_dsc_t *)v.ptr;
 528:lvgl/src/widgets/../core/lv_obj_style_gen.h **** }
 529:lvgl/src/widgets/../core/lv_obj_style_gen.h **** 
 530:lvgl/src/widgets/../core/lv_obj_style_gen.h **** static inline lv_blend_mode_t lv_obj_get_style_blend_mode(const struct _lv_obj_t * obj, uint32_t pa
 531:lvgl/src/widgets/../core/lv_obj_style_gen.h **** {
 532:lvgl/src/widgets/../core/lv_obj_style_gen.h ****     lv_style_value_t v = lv_obj_get_style_prop(obj, part, LV_STYLE_BLEND_MODE);
 533:lvgl/src/widgets/../core/lv_obj_style_gen.h ****     return (lv_blend_mode_t)v.num;
 534:lvgl/src/widgets/../core/lv_obj_style_gen.h **** }
 535:lvgl/src/widgets/../core/lv_obj_style_gen.h **** 
 536:lvgl/src/widgets/../core/lv_obj_style_gen.h **** static inline uint16_t lv_obj_get_style_layout(const struct _lv_obj_t * obj, uint32_t part)
 537:lvgl/src/widgets/../core/lv_obj_style_gen.h **** {
 538:lvgl/src/widgets/../core/lv_obj_style_gen.h ****     lv_style_value_t v = lv_obj_get_style_prop(obj, part, LV_STYLE_LAYOUT);
 539:lvgl/src/widgets/../core/lv_obj_style_gen.h ****     return (uint16_t)v.num;
 540:lvgl/src/widgets/../core/lv_obj_style_gen.h **** }
 541:lvgl/src/widgets/../core/lv_obj_style_gen.h **** 
 542:lvgl/src/widgets/../core/lv_obj_style_gen.h **** static inline lv_base_dir_t lv_obj_get_style_base_dir(const struct _lv_obj_t * obj, uint32_t part)
 2325              		.loc 2 542 29 view .LVU758
 2326              	.LBB122:
 543:lvgl/src/widgets/../core/lv_obj_style_gen.h **** {
 544:lvgl/src/widgets/../core/lv_obj_style_gen.h ****     lv_style_value_t v = lv_obj_get_style_prop(obj, part, LV_STYLE_BASE_DIR);
 2327              		.loc 2 544 5 view .LVU759
 2328              		.loc 2 544 26 is_stmt 0 view .LVU760
 2329 0018 41F26A42 		movw	r2, #5226
 2330 001c 0021     		movs	r1, #0
 2331 001e 3846     		mov	r0, r7
 2332 0020 FFF7FEFF 		bl	lv_obj_get_style_prop
 2333              	.LVL201:
 545:lvgl/src/widgets/../core/lv_obj_style_gen.h ****     return (lv_base_dir_t)v.num;
 2334              		.loc 2 545 5 is_stmt 1 view .LVU761
 2335              		.loc 2 545 12 is_stmt 0 view .LVU762
 2336 0024 C3B2     		uxtb	r3, r0
 2337 0026 0693     		str	r3, [sp, #24]
 2338              	.LVL202:
 2339              		.loc 2 545 12 view .LVU763
 2340              	.LBE122:
 2341              	.LBE121:
 107:lvgl/src/widgets/lv_btnmatrix.c ****     lv_coord_t ptop = lv_obj_get_style_pad_top(obj, LV_PART_MAIN);
 2342              		.loc 1 107 5 is_stmt 1 view .LVU764
 2343              	.LBB123:
 2344              	.LBI123:
 103:lvgl/src/widgets/../core/lv_obj_style_gen.h **** {
 2345              		.loc 2 103 26 view .LVU765
 2346              	.LBB124:
 105:lvgl/src/widgets/../core/lv_obj_style_gen.h ****     return (lv_coord_t)v.num;
 2347              		.loc 2 105 5 view .LVU766
 105:lvgl/src/widgets/../core/lv_obj_style_gen.h ****     return (lv_coord_t)v.num;
 2348              		.loc 2 105 26 is_stmt 0 view .LVU767
 2349 0028 41F61202 		movw	r2, #6162
 2350 002c 0021     		movs	r1, #0
 2351 002e 3846     		mov	r0, r7
 2352 0030 FFF7FEFF 		bl	lv_obj_get_style_prop
 2353              	.LVL203:
ARM GAS  C:\usertemp\ccuzpgLf.s 			page 83


 2354 0034 0590     		str	r0, [sp, #20]
 106:lvgl/src/widgets/../core/lv_obj_style_gen.h **** }
 2355              		.loc 2 106 5 is_stmt 1 view .LVU768
 2356              	.LVL204:
 106:lvgl/src/widgets/../core/lv_obj_style_gen.h **** }
 2357              		.loc 2 106 5 is_stmt 0 view .LVU769
 2358              	.LBE124:
 2359              	.LBE123:
 108:lvgl/src/widgets/lv_btnmatrix.c ****     lv_coord_t prow = lv_obj_get_style_pad_row(obj, LV_PART_MAIN);
 2360              		.loc 1 108 5 is_stmt 1 view .LVU770
 2361              	.LBB125:
 2362              	.LBI125:
  91:lvgl/src/widgets/../core/lv_obj_style_gen.h **** {
 2363              		.loc 2 91 26 view .LVU771
 2364              	.LBB126:
  93:lvgl/src/widgets/../core/lv_obj_style_gen.h ****     return (lv_coord_t)v.num;
 2365              		.loc 2 93 5 view .LVU772
  93:lvgl/src/widgets/../core/lv_obj_style_gen.h ****     return (lv_coord_t)v.num;
 2366              		.loc 2 93 26 is_stmt 0 view .LVU773
 2367 0036 41F61002 		movw	r2, #6160
 2368 003a 0021     		movs	r1, #0
 2369 003c 3846     		mov	r0, r7
 2370 003e FFF7FEFF 		bl	lv_obj_get_style_prop
 2371              	.LVL205:
 2372 0042 0D90     		str	r0, [sp, #52]
  94:lvgl/src/widgets/../core/lv_obj_style_gen.h **** }
 2373              		.loc 2 94 5 is_stmt 1 view .LVU774
 2374              	.LVL206:
  94:lvgl/src/widgets/../core/lv_obj_style_gen.h **** }
 2375              		.loc 2 94 5 is_stmt 0 view .LVU775
 2376              	.LBE126:
 2377              	.LBE125:
 109:lvgl/src/widgets/lv_btnmatrix.c ****     lv_coord_t pcol = lv_obj_get_style_pad_column(obj, LV_PART_MAIN);
 2378              		.loc 1 109 5 is_stmt 1 view .LVU776
 2379              	.LBB127:
 2380              	.LBI127:
 115:lvgl/src/widgets/../core/lv_obj_style_gen.h **** {
 2381              		.loc 2 115 26 view .LVU777
 2382              	.LBB128:
 117:lvgl/src/widgets/../core/lv_obj_style_gen.h ****     return (lv_coord_t)v.num;
 2383              		.loc 2 117 5 view .LVU778
 117:lvgl/src/widgets/../core/lv_obj_style_gen.h ****     return (lv_coord_t)v.num;
 2384              		.loc 2 117 26 is_stmt 0 view .LVU779
 2385 0044 41F61402 		movw	r2, #6164
 2386 0048 0021     		movs	r1, #0
 2387 004a 3846     		mov	r0, r7
 2388 004c FFF7FEFF 		bl	lv_obj_get_style_prop
 2389              	.LVL207:
 2390 0050 0446     		mov	r4, r0
 2391              	.LVL208:
 118:lvgl/src/widgets/../core/lv_obj_style_gen.h **** }
 2392              		.loc 2 118 5 is_stmt 1 view .LVU780
 118:lvgl/src/widgets/../core/lv_obj_style_gen.h **** }
 2393              		.loc 2 118 12 is_stmt 0 view .LVU781
 2394 0052 03B2     		sxth	r3, r0
 2395 0054 0C93     		str	r3, [sp, #48]
 2396              	.LVL209:
ARM GAS  C:\usertemp\ccuzpgLf.s 			page 84


 118:lvgl/src/widgets/../core/lv_obj_style_gen.h **** }
 2397              		.loc 2 118 12 view .LVU782
 2398              	.LBE128:
 2399              	.LBE127:
 110:lvgl/src/widgets/lv_btnmatrix.c **** 
 2400              		.loc 1 110 5 is_stmt 1 view .LVU783
 2401              	.LBB129:
 2402              	.LBI129:
 121:lvgl/src/widgets/../core/lv_obj_style_gen.h **** {
 2403              		.loc 2 121 26 view .LVU784
 2404              	.LBB130:
 123:lvgl/src/widgets/../core/lv_obj_style_gen.h ****     return (lv_coord_t)v.num;
 2405              		.loc 2 123 5 view .LVU785
 123:lvgl/src/widgets/../core/lv_obj_style_gen.h ****     return (lv_coord_t)v.num;
 2406              		.loc 2 123 26 is_stmt 0 view .LVU786
 2407 0056 41F61502 		movw	r2, #6165
 2408 005a 0021     		movs	r1, #0
 2409 005c 3846     		mov	r0, r7
 123:lvgl/src/widgets/../core/lv_obj_style_gen.h ****     return (lv_coord_t)v.num;
 2410              		.loc 2 123 26 view .LVU787
 2411 005e FFF7FEFF 		bl	lv_obj_get_style_prop
 2412              	.LVL210:
 2413 0062 0B90     		str	r0, [sp, #44]
 124:lvgl/src/widgets/../core/lv_obj_style_gen.h **** }
 2414              		.loc 2 124 5 is_stmt 1 view .LVU788
 124:lvgl/src/widgets/../core/lv_obj_style_gen.h **** }
 2415              		.loc 2 124 12 is_stmt 0 view .LVU789
 2416 0064 03B2     		sxth	r3, r0
 2417 0066 0493     		str	r3, [sp, #16]
 2418              	.LVL211:
 124:lvgl/src/widgets/../core/lv_obj_style_gen.h **** }
 2419              		.loc 2 124 12 view .LVU790
 2420              	.LBE130:
 2421              	.LBE129:
 112:lvgl/src/widgets/lv_btnmatrix.c ****     lv_coord_t max_h            = lv_obj_get_content_height(obj);
 2422              		.loc 1 112 5 is_stmt 1 view .LVU791
 112:lvgl/src/widgets/lv_btnmatrix.c ****     lv_coord_t max_h            = lv_obj_get_content_height(obj);
 2423              		.loc 1 112 35 is_stmt 0 view .LVU792
 2424 0068 3846     		mov	r0, r7
 2425 006a FFF7FEFF 		bl	lv_obj_get_content_width
 2426              	.LVL212:
 2427 006e 0990     		str	r0, [sp, #36]
 2428              	.LVL213:
 113:lvgl/src/widgets/lv_btnmatrix.c **** 
 2429              		.loc 1 113 5 is_stmt 1 view .LVU793
 113:lvgl/src/widgets/lv_btnmatrix.c **** 
 2430              		.loc 1 113 35 is_stmt 0 view .LVU794
 2431 0070 3846     		mov	r0, r7
 2432 0072 FFF7FEFF 		bl	lv_obj_get_content_height
 2433              	.LVL214:
 116:lvgl/src/widgets/lv_btnmatrix.c **** 
 2434              		.loc 1 116 5 is_stmt 1 view .LVU795
 116:lvgl/src/widgets/lv_btnmatrix.c **** 
 2435              		.loc 1 116 52 is_stmt 0 view .LVU796
 2436 0076 7B8E     		ldrh	r3, [r7, #50]
 116:lvgl/src/widgets/lv_btnmatrix.c **** 
 2437              		.loc 1 116 37 view .LVU797
ARM GAS  C:\usertemp\ccuzpgLf.s 			page 85


 2438 0078 013B     		subs	r3, r3, #1
 116:lvgl/src/widgets/lv_btnmatrix.c **** 
 2439              		.loc 1 116 37 view .LVU798
 2440 007a 13FB04F3 		smulbb	r3, r3, r4
 2441 007e C31A     		subs	r3, r0, r3
 116:lvgl/src/widgets/lv_btnmatrix.c **** 
 2442              		.loc 1 116 16 view .LVU799
 2443 0080 1BB2     		sxth	r3, r3
 2444 0082 0A93     		str	r3, [sp, #40]
 2445              	.LVL215:
 120:lvgl/src/widgets/lv_btnmatrix.c ****     uint32_t btn_tot_i = 0; /*Act. index of button areas*/
 2446              		.loc 1 120 5 is_stmt 1 view .LVU800
 121:lvgl/src/widgets/lv_btnmatrix.c ****     const char ** map_row = map;
 2447              		.loc 1 121 5 view .LVU801
 122:lvgl/src/widgets/lv_btnmatrix.c **** 
 2448              		.loc 1 122 5 view .LVU802
 125:lvgl/src/widgets/lv_btnmatrix.c ****     for(row = 0; row < btnm->row_cnt; row++) {
 2449              		.loc 1 125 5 view .LVU803
 126:lvgl/src/widgets/lv_btnmatrix.c ****         uint16_t unit_cnt = 0;           /*Number of units in a row*/
 2450              		.loc 1 126 5 view .LVU804
 126:lvgl/src/widgets/lv_btnmatrix.c ****         uint16_t unit_cnt = 0;           /*Number of units in a row*/
 2451              		.loc 1 126 13 is_stmt 0 view .LVU805
 2452 0084 4FF0000E 		mov	lr, #0
 121:lvgl/src/widgets/lv_btnmatrix.c ****     const char ** map_row = map;
 2453              		.loc 1 121 14 view .LVU806
 2454 0088 7646     		mov	r6, lr
 126:lvgl/src/widgets/lv_btnmatrix.c ****         uint16_t unit_cnt = 0;           /*Number of units in a row*/
 2455              		.loc 1 126 5 view .LVU807
 2456 008a 23E0     		b	.L125
 2457              	.LVL216:
 2458              	.L127:
 2459              	.LBB131:
 131:lvgl/src/widgets/lv_btnmatrix.c ****             btn_cnt++;
 2460              		.loc 1 131 13 is_stmt 1 view .LVU808
 131:lvgl/src/widgets/lv_btnmatrix.c ****             btn_cnt++;
 2461              		.loc 1 131 46 is_stmt 0 view .LVU809
 2462 008c FB6A     		ldr	r3, [r7, #44]
 131:lvgl/src/widgets/lv_btnmatrix.c ****             btn_cnt++;
 2463              		.loc 1 131 68 view .LVU810
 2464 008e B044     		add	r8, r8, r6
 131:lvgl/src/widgets/lv_btnmatrix.c ****             btn_cnt++;
 2465              		.loc 1 131 25 view .LVU811
 2466 0090 33F81800 		ldrh	r0, [r3, r8, lsl #1]
 2467 0094 FFF7FEFF 		bl	get_button_width
 2468              	.LVL217:
 131:lvgl/src/widgets/lv_btnmatrix.c ****             btn_cnt++;
 2469              		.loc 1 131 22 discriminator 1 view .LVU812
 2470 0098 2044     		add	r0, r0, r4
 2471 009a 84B2     		uxth	r4, r0
 2472              	.LVL218:
 132:lvgl/src/widgets/lv_btnmatrix.c ****         }
 2473              		.loc 1 132 13 is_stmt 1 view .LVU813
 132:lvgl/src/widgets/lv_btnmatrix.c ****         }
 2474              		.loc 1 132 20 is_stmt 0 view .LVU814
 2475 009c 09F10109 		add	r9, r9, #1
 2476              	.LVL219:
 132:lvgl/src/widgets/lv_btnmatrix.c ****         }
ARM GAS  C:\usertemp\ccuzpgLf.s 			page 86


 2477              		.loc 1 132 20 view .LVU815
 2478 00a0 1FFA89F9 		uxth	r9, r9
 2479              	.LVL220:
 2480              	.L134:
 130:lvgl/src/widgets/lv_btnmatrix.c ****             unit_cnt += get_button_width(btnm->ctrl_bits[btn_tot_i + btn_cnt]);
 2481              		.loc 1 130 71 is_stmt 1 view .LVU816
 130:lvgl/src/widgets/lv_btnmatrix.c ****             unit_cnt += get_button_width(btnm->ctrl_bits[btn_tot_i + btn_cnt]);
 2482              		.loc 1 130 22 is_stmt 0 view .LVU817
 2483 00a4 C846     		mov	r8, r9
 2484 00a6 5AF82950 		ldr	r5, [r10, r9, lsl #2]
 130:lvgl/src/widgets/lv_btnmatrix.c ****             unit_cnt += get_button_width(btnm->ctrl_bits[btn_tot_i + btn_cnt]);
 2485              		.loc 1 130 71 view .LVU818
 2486 00aa 3DB1     		cbz	r5, .L126
 130:lvgl/src/widgets/lv_btnmatrix.c ****             unit_cnt += get_button_width(btnm->ctrl_bits[btn_tot_i + btn_cnt]);
 2487              		.loc 1 130 35 discriminator 1 view .LVU819
 2488 00ac 5049     		ldr	r1, .L144
 2489 00ae 2846     		mov	r0, r5
 2490 00b0 FFF7FEFF 		bl	strcmp
 2491              	.LVL221:
 130:lvgl/src/widgets/lv_btnmatrix.c ****             unit_cnt += get_button_width(btnm->ctrl_bits[btn_tot_i + btn_cnt]);
 2492              		.loc 1 130 32 discriminator 1 view .LVU820
 2493 00b4 10B1     		cbz	r0, .L126
 130:lvgl/src/widgets/lv_btnmatrix.c ****             unit_cnt += get_button_width(btnm->ctrl_bits[btn_tot_i + btn_cnt]);
 2494              		.loc 1 130 90 discriminator 2 view .LVU821
 2495 00b6 2B78     		ldrb	r3, [r5]	@ zero_extendqisi2
 130:lvgl/src/widgets/lv_btnmatrix.c ****             unit_cnt += get_button_width(btnm->ctrl_bits[btn_tot_i + btn_cnt]);
 2496              		.loc 1 130 71 discriminator 2 view .LVU822
 2497 00b8 002B     		cmp	r3, #0
 2498 00ba E7D1     		bne	.L127
 2499              	.L126:
 136:lvgl/src/widgets/lv_btnmatrix.c ****             map_row = &map_row[btn_cnt + 1];       /*Set the map to the next row*/
 2500              		.loc 1 136 11 view .LVU823
 2501 00bc 4546     		mov	r5, r8
 2502 00be DDF80880 		ldr	r8, [sp, #8]
 2503 00c2 DE46     		mov	lr, fp
 136:lvgl/src/widgets/lv_btnmatrix.c ****             map_row = &map_row[btn_cnt + 1];       /*Set the map to the next row*/
 2504              		.loc 1 136 9 is_stmt 1 view .LVU824
 136:lvgl/src/widgets/lv_btnmatrix.c ****             map_row = &map_row[btn_cnt + 1];       /*Set the map to the next row*/
 2505              		.loc 1 136 11 is_stmt 0 view .LVU825
 2506 00c4 B9F1000F 		cmp	r9, #0
 2507 00c8 0FD1     		bne	.L128
 137:lvgl/src/widgets/lv_btnmatrix.c ****             continue;
 2508              		.loc 1 137 13 is_stmt 1 view .LVU826
 137:lvgl/src/widgets/lv_btnmatrix.c ****             continue;
 2509              		.loc 1 137 31 is_stmt 0 view .LVU827
 2510 00ca 0135     		adds	r5, r5, #1
 137:lvgl/src/widgets/lv_btnmatrix.c ****             continue;
 2511              		.loc 1 137 21 view .LVU828
 2512 00cc 0AEB850A 		add	r10, r10, r5, lsl #2
 2513              	.LVL222:
 138:lvgl/src/widgets/lv_btnmatrix.c ****         }
 2514              		.loc 1 138 13 is_stmt 1 view .LVU829
 2515              	.L129:
 138:lvgl/src/widgets/lv_btnmatrix.c ****         }
 2516              		.loc 1 138 13 is_stmt 0 view .LVU830
 2517              	.LBE131:
 126:lvgl/src/widgets/lv_btnmatrix.c ****         uint16_t unit_cnt = 0;           /*Number of units in a row*/
ARM GAS  C:\usertemp\ccuzpgLf.s 			page 87


 2518              		.loc 1 126 42 is_stmt 1 discriminator 2 view .LVU831
 2519 00d0 0EF1010E 		add	lr, lr, #1
 2520              	.LVL223:
 2521              	.L125:
 126:lvgl/src/widgets/lv_btnmatrix.c ****         uint16_t unit_cnt = 0;           /*Number of units in a row*/
 2522              		.loc 1 126 22 discriminator 1 view .LVU832
 126:lvgl/src/widgets/lv_btnmatrix.c ****         uint16_t unit_cnt = 0;           /*Number of units in a row*/
 2523              		.loc 1 126 28 is_stmt 0 discriminator 1 view .LVU833
 2524 00d4 B7F83280 		ldrh	r8, [r7, #50]
 126:lvgl/src/widgets/lv_btnmatrix.c ****         uint16_t unit_cnt = 0;           /*Number of units in a row*/
 2525              		.loc 1 126 22 discriminator 1 view .LVU834
 2526 00d8 F045     		cmp	r8, lr
 2527 00da 7FD9     		bls	.L141
 2528              	.LBB135:
 128:lvgl/src/widgets/lv_btnmatrix.c ****         /*Count the buttons and units in this row*/
 2529              		.loc 1 128 18 view .LVU835
 2530 00dc 4FF00009 		mov	r9, #0
 127:lvgl/src/widgets/lv_btnmatrix.c ****         uint16_t btn_cnt = 0;            /*Number of buttons in a row*/
 2531              		.loc 1 127 18 view .LVU836
 2532 00e0 4C46     		mov	r4, r9
 127:lvgl/src/widgets/lv_btnmatrix.c ****         uint16_t btn_cnt = 0;            /*Number of buttons in a row*/
 2533              		.loc 1 127 18 view .LVU837
 2534 00e2 CDF80880 		str	r8, [sp, #8]
 2535 00e6 F346     		mov	fp, lr
 2536 00e8 DCE7     		b	.L134
 2537              	.LVL224:
 2538              	.L128:
 141:lvgl/src/widgets/lv_btnmatrix.c ****         lv_coord_t row_y2 = ptop + (max_h_no_gap * (row + 1)) / btnm->row_cnt + row * prow - 1;
 2539              		.loc 1 141 9 is_stmt 1 view .LVU838
 141:lvgl/src/widgets/lv_btnmatrix.c ****         lv_coord_t row_y2 = ptop + (max_h_no_gap * (row + 1)) / btnm->row_cnt + row * prow - 1;
 2540              		.loc 1 141 50 is_stmt 0 view .LVU839
 2541 00ea 0A98     		ldr	r0, [sp, #40]
 2542 00ec 0BFB00F1 		mul	r1, fp, r0
 141:lvgl/src/widgets/lv_btnmatrix.c ****         lv_coord_t row_y2 = ptop + (max_h_no_gap * (row + 1)) / btnm->row_cnt + row * prow - 1;
 2543              		.loc 1 141 57 view .LVU840
 2544 00f0 B1FBF8F1 		udiv	r1, r1, r8
 141:lvgl/src/widgets/lv_btnmatrix.c ****         lv_coord_t row_y2 = ptop + (max_h_no_gap * (row + 1)) / btnm->row_cnt + row * prow - 1;
 2545              		.loc 1 141 34 view .LVU841
 2546 00f4 BDF83430 		ldrh	r3, [sp, #52]
 2547 00f8 1944     		add	r1, r1, r3
 141:lvgl/src/widgets/lv_btnmatrix.c ****         lv_coord_t row_y2 = ptop + (max_h_no_gap * (row + 1)) / btnm->row_cnt + row * prow - 1;
 2548              		.loc 1 141 73 view .LVU842
 2549 00fa 0C9A     		ldr	r2, [sp, #48]
 2550 00fc 12FB0BF2 		smulbb	r2, r2, fp
 2551 0100 92B2     		uxth	r2, r2
 2552 0102 12FA81F1 		uxtah	r1, r2, r1
 141:lvgl/src/widgets/lv_btnmatrix.c ****         lv_coord_t row_y2 = ptop + (max_h_no_gap * (row + 1)) / btnm->row_cnt + row * prow - 1;
 2553              		.loc 1 141 20 view .LVU843
 2554 0106 09B2     		sxth	r1, r1
 2555 0108 0291     		str	r1, [sp, #8]
 2556              	.LVL225:
 142:lvgl/src/widgets/lv_btnmatrix.c **** 
 2557              		.loc 1 142 9 is_stmt 1 view .LVU844
 142:lvgl/src/widgets/lv_btnmatrix.c **** 
 2558              		.loc 1 142 50 is_stmt 0 view .LVU845
 2559 010a 0BFB0001 		mla	r1, fp, r0, r0
 142:lvgl/src/widgets/lv_btnmatrix.c **** 
ARM GAS  C:\usertemp\ccuzpgLf.s 			page 88


 2560              		.loc 1 142 63 view .LVU846
 2561 010e B1FBF8F1 		udiv	r1, r1, r8
 142:lvgl/src/widgets/lv_btnmatrix.c **** 
 2562              		.loc 1 142 34 view .LVU847
 2563 0112 03EB010B 		add	fp, r3, r1
 2564              	.LVL226:
 142:lvgl/src/widgets/lv_btnmatrix.c **** 
 2565              		.loc 1 142 79 view .LVU848
 2566 0116 12FA8BFB 		uxtah	fp, r2, fp
 2567 011a 1FFA8BFB 		uxth	fp, fp
 142:lvgl/src/widgets/lv_btnmatrix.c **** 
 2568              		.loc 1 142 92 view .LVU849
 2569 011e 0BF1FF3B 		add	fp, fp, #-1
 142:lvgl/src/widgets/lv_btnmatrix.c **** 
 2570              		.loc 1 142 20 view .LVU850
 2571 0122 0FFA8BF3 		sxth	r3, fp
 2572 0126 0393     		str	r3, [sp, #12]
 2573              	.LVL227:
 145:lvgl/src/widgets/lv_btnmatrix.c ****         if(max_w_no_gap < 0) max_w_no_gap = 0;
 2574              		.loc 1 145 9 is_stmt 1 view .LVU851
 145:lvgl/src/widgets/lv_btnmatrix.c ****         if(max_w_no_gap < 0) max_w_no_gap = 0;
 2575              		.loc 1 145 41 is_stmt 0 view .LVU852
 2576 0128 BDF824C0 		ldrh	ip, [sp, #36]
 2577 012c 09F1FF32 		add	r2, r9, #-1
 2578 0130 0B9B     		ldr	r3, [sp, #44]
 2579 0132 12FB03F2 		smulbb	r2, r2, r3
 2580 0136 ACEB0202 		sub	r2, ip, r2
 145:lvgl/src/widgets/lv_btnmatrix.c ****         if(max_w_no_gap < 0) max_w_no_gap = 0;
 2581              		.loc 1 145 20 view .LVU853
 2582 013a 0FFA82FB 		sxth	fp, r2
 2583              	.LVL228:
 146:lvgl/src/widgets/lv_btnmatrix.c **** 
 2584              		.loc 1 146 9 is_stmt 1 view .LVU854
 146:lvgl/src/widgets/lv_btnmatrix.c **** 
 2585              		.loc 1 146 11 is_stmt 0 view .LVU855
 2586 013e BBF1000F 		cmp	fp, #0
 2587 0142 08DB     		blt	.L142
 2588              	.LVL229:
 2589              	.L130:
 148:lvgl/src/widgets/lv_btnmatrix.c ****         uint32_t btn;
 2590              		.loc 1 148 9 is_stmt 1 view .LVU856
 149:lvgl/src/widgets/lv_btnmatrix.c ****         for(btn = 0; btn < btn_cnt; btn++, btn_tot_i++, txt_tot_i++) {
 2591              		.loc 1 149 9 view .LVU857
 150:lvgl/src/widgets/lv_btnmatrix.c ****             uint32_t btn_u = get_button_width(btnm->ctrl_bits[btn_tot_i]);
 2592              		.loc 1 150 9 view .LVU858
 150:lvgl/src/widgets/lv_btnmatrix.c ****             uint32_t btn_u = get_button_width(btnm->ctrl_bits[btn_tot_i]);
 2593              		.loc 1 150 17 is_stmt 0 view .LVU859
 2594 0144 4FF00008 		mov	r8, #0
 148:lvgl/src/widgets/lv_btnmatrix.c ****         uint32_t btn;
 2595              		.loc 1 148 18 view .LVU860
 2596 0148 C146     		mov	r9, r8
 2597              	.LVL230:
 148:lvgl/src/widgets/lv_btnmatrix.c ****         uint32_t btn;
 2598              		.loc 1 148 18 view .LVU861
 2599 014a CDF81CE0 		str	lr, [sp, #28]
 2600 014e CDF820A0 		str	r10, [sp, #32]
 2601 0152 E246     		mov	r10, ip
ARM GAS  C:\usertemp\ccuzpgLf.s 			page 89


 2602              	.LVL231:
 150:lvgl/src/widgets/lv_btnmatrix.c ****             uint32_t btn_u = get_button_width(btnm->ctrl_bits[btn_tot_i]);
 2603              		.loc 1 150 9 view .LVU862
 2604 0154 13E0     		b	.L131
 2605              	.LVL232:
 2606              	.L142:
 146:lvgl/src/widgets/lv_btnmatrix.c **** 
 2607              		.loc 1 146 43 discriminator 1 view .LVU863
 2608 0156 4FF0000B 		mov	fp, #0
 2609              	.LVL233:
 146:lvgl/src/widgets/lv_btnmatrix.c **** 
 2610              		.loc 1 146 43 discriminator 1 view .LVU864
 2611 015a F3E7     		b	.L130
 2612              	.LVL234:
 2613              	.L132:
 2614              	.LBB132:
 166:lvgl/src/widgets/lv_btnmatrix.c ****             btn_x2 += pleft;
 2615              		.loc 1 166 13 is_stmt 1 view .LVU865
 166:lvgl/src/widgets/lv_btnmatrix.c ****             btn_x2 += pleft;
 2616              		.loc 1 166 20 is_stmt 0 view .LVU866
 2617 015c BDF81420 		ldrh	r2, [sp, #20]
 2618 0160 1144     		add	r1, r1, r2
 2619              	.LVL235:
 167:lvgl/src/widgets/lv_btnmatrix.c **** 
 2620              		.loc 1 167 13 is_stmt 1 view .LVU867
 167:lvgl/src/widgets/lv_btnmatrix.c **** 
 2621              		.loc 1 167 20 is_stmt 0 view .LVU868
 2622 0162 1344     		add	r3, r3, r2
 2623              	.LVL236:
 169:lvgl/src/widgets/lv_btnmatrix.c **** 
 2624              		.loc 1 169 13 is_stmt 1 view .LVU869
 169:lvgl/src/widgets/lv_btnmatrix.c **** 
 2625              		.loc 1 169 30 is_stmt 0 view .LVU870
 2626 0164 B86A     		ldr	r0, [r7, #40]
 169:lvgl/src/widgets/lv_btnmatrix.c **** 
 2627              		.loc 1 169 13 view .LVU871
 2628 0166 039A     		ldr	r2, [sp, #12]
 2629 0168 0092     		str	r2, [sp]
 2630 016a 1BB2     		sxth	r3, r3
 169:lvgl/src/widgets/lv_btnmatrix.c **** 
 2631              		.loc 1 169 13 view .LVU872
 2632 016c 029A     		ldr	r2, [sp, #8]
 2633 016e 09B2     		sxth	r1, r1
 169:lvgl/src/widgets/lv_btnmatrix.c **** 
 2634              		.loc 1 169 13 view .LVU873
 2635 0170 00EBC600 		add	r0, r0, r6, lsl #3
 2636 0174 FFF7FEFF 		bl	lv_area_set
 2637              	.LVL237:
 171:lvgl/src/widgets/lv_btnmatrix.c ****         }
 2638              		.loc 1 171 13 is_stmt 1 view .LVU874
 171:lvgl/src/widgets/lv_btnmatrix.c ****         }
 2639              		.loc 1 171 13 is_stmt 0 view .LVU875
 2640              	.LBE132:
 150:lvgl/src/widgets/lv_btnmatrix.c ****             uint32_t btn_u = get_button_width(btnm->ctrl_bits[btn_tot_i]);
 2641              		.loc 1 150 55 is_stmt 1 discriminator 2 view .LVU876
 150:lvgl/src/widgets/lv_btnmatrix.c ****             uint32_t btn_u = get_button_width(btnm->ctrl_bits[btn_tot_i]);
 2642              		.loc 1 150 40 is_stmt 0 discriminator 2 view .LVU877
ARM GAS  C:\usertemp\ccuzpgLf.s 			page 90


 2643 0178 08F10108 		add	r8, r8, #1
 2644              	.LVL238:
 150:lvgl/src/widgets/lv_btnmatrix.c ****             uint32_t btn_u = get_button_width(btnm->ctrl_bits[btn_tot_i]);
 2645              		.loc 1 150 53 discriminator 2 view .LVU878
 2646 017c 0136     		adds	r6, r6, #1
 2647              	.LVL239:
 2648              	.L131:
 150:lvgl/src/widgets/lv_btnmatrix.c ****             uint32_t btn_u = get_button_width(btnm->ctrl_bits[btn_tot_i]);
 2649              		.loc 1 150 26 is_stmt 1 discriminator 1 view .LVU879
 2650 017e 4545     		cmp	r5, r8
 2651 0180 24D9     		bls	.L143
 2652              	.LBB134:
 151:lvgl/src/widgets/lv_btnmatrix.c **** 
 2653              		.loc 1 151 13 view .LVU880
 151:lvgl/src/widgets/lv_btnmatrix.c **** 
 2654              		.loc 1 151 51 is_stmt 0 view .LVU881
 2655 0182 FB6A     		ldr	r3, [r7, #44]
 151:lvgl/src/widgets/lv_btnmatrix.c **** 
 2656              		.loc 1 151 30 view .LVU882
 2657 0184 33F81600 		ldrh	r0, [r3, r6, lsl #1]
 2658 0188 FFF7FEFF 		bl	get_button_width
 2659              	.LVL240:
 153:lvgl/src/widgets/lv_btnmatrix.c ****             lv_coord_t btn_x2 = (max_w_no_gap * (row_unit_cnt + btn_u)) / unit_cnt + btn * pcol - 1
 2660              		.loc 1 153 13 is_stmt 1 view .LVU883
 153:lvgl/src/widgets/lv_btnmatrix.c ****             lv_coord_t btn_x2 = (max_w_no_gap * (row_unit_cnt + btn_u)) / unit_cnt + btn * pcol - 1
 2661              		.loc 1 153 47 is_stmt 0 view .LVU884
 2662 018c 09FB0BF1 		mul	r1, r9, fp
 153:lvgl/src/widgets/lv_btnmatrix.c ****             lv_coord_t btn_x2 = (max_w_no_gap * (row_unit_cnt + btn_u)) / unit_cnt + btn * pcol - 1
 2663              		.loc 1 153 63 view .LVU885
 2664 0190 B1FBF4F1 		udiv	r1, r1, r4
 153:lvgl/src/widgets/lv_btnmatrix.c ****             lv_coord_t btn_x2 = (max_w_no_gap * (row_unit_cnt + btn_u)) / unit_cnt + btn * pcol - 1
 2665              		.loc 1 153 74 view .LVU886
 2666 0194 049B     		ldr	r3, [sp, #16]
 2667 0196 13FB08F3 		smulbb	r3, r3, r8
 2668 019a 9BB2     		uxth	r3, r3
 2669 019c 1944     		add	r1, r1, r3
 2670 019e 1FFA81FC 		uxth	ip, r1
 153:lvgl/src/widgets/lv_btnmatrix.c ****             lv_coord_t btn_x2 = (max_w_no_gap * (row_unit_cnt + btn_u)) / unit_cnt + btn * pcol - 1
 2671              		.loc 1 153 24 view .LVU887
 2672 01a2 09B2     		sxth	r1, r1
 2673              	.LVL241:
 154:lvgl/src/widgets/lv_btnmatrix.c **** 
 2674              		.loc 1 154 13 is_stmt 1 view .LVU888
 154:lvgl/src/widgets/lv_btnmatrix.c **** 
 2675              		.loc 1 154 63 is_stmt 0 view .LVU889
 2676 01a4 8144     		add	r9, r9, r0
 2677              	.LVL242:
 154:lvgl/src/widgets/lv_btnmatrix.c **** 
 2678              		.loc 1 154 47 view .LVU890
 2679 01a6 09FB0BF0 		mul	r0, r9, fp
 2680              	.LVL243:
 154:lvgl/src/widgets/lv_btnmatrix.c **** 
 2681              		.loc 1 154 73 view .LVU891
 2682 01aa B0FBF4F0 		udiv	r0, r0, r4
 154:lvgl/src/widgets/lv_btnmatrix.c **** 
 2683              		.loc 1 154 84 view .LVU892
 2684 01ae 0344     		add	r3, r3, r0
ARM GAS  C:\usertemp\ccuzpgLf.s 			page 91


 2685 01b0 9BB2     		uxth	r3, r3
 154:lvgl/src/widgets/lv_btnmatrix.c **** 
 2686              		.loc 1 154 97 view .LVU893
 2687 01b2 013B     		subs	r3, r3, #1
 2688 01b4 98B2     		uxth	r0, r3
 154:lvgl/src/widgets/lv_btnmatrix.c **** 
 2689              		.loc 1 154 24 view .LVU894
 2690 01b6 1BB2     		sxth	r3, r3
 2691              	.LVL244:
 157:lvgl/src/widgets/lv_btnmatrix.c ****                 lv_coord_t tmp = btn_x1;
 2692              		.loc 1 157 13 is_stmt 1 view .LVU895
 157:lvgl/src/widgets/lv_btnmatrix.c ****                 lv_coord_t tmp = btn_x1;
 2693              		.loc 1 157 15 is_stmt 0 view .LVU896
 2694 01b8 069A     		ldr	r2, [sp, #24]
 2695 01ba 012A     		cmp	r2, #1
 2696 01bc CED1     		bne	.L132
 2697              	.LBB133:
 158:lvgl/src/widgets/lv_btnmatrix.c ****                 btn_x1 = btn_x2;
 2698              		.loc 1 158 17 is_stmt 1 view .LVU897
 2699              	.LVL245:
 159:lvgl/src/widgets/lv_btnmatrix.c ****                 btn_x2 = tmp;
 2700              		.loc 1 159 17 view .LVU898
 160:lvgl/src/widgets/lv_btnmatrix.c **** 
 2701              		.loc 1 160 17 view .LVU899
 162:lvgl/src/widgets/lv_btnmatrix.c ****                 btn_x2 = max_w - btn_x2;
 2702              		.loc 1 162 17 view .LVU900
 162:lvgl/src/widgets/lv_btnmatrix.c ****                 btn_x2 = max_w - btn_x2;
 2703              		.loc 1 162 32 is_stmt 0 view .LVU901
 2704 01be AAEB0000 		sub	r0, r10, r0
 2705              	.LVL246:
 162:lvgl/src/widgets/lv_btnmatrix.c ****                 btn_x2 = max_w - btn_x2;
 2706              		.loc 1 162 24 view .LVU902
 2707 01c2 01B2     		sxth	r1, r0
 2708              	.LVL247:
 163:lvgl/src/widgets/lv_btnmatrix.c ****             }
 2709              		.loc 1 163 17 is_stmt 1 view .LVU903
 163:lvgl/src/widgets/lv_btnmatrix.c ****             }
 2710              		.loc 1 163 32 is_stmt 0 view .LVU904
 2711 01c4 AAEB0C02 		sub	r2, r10, ip
 163:lvgl/src/widgets/lv_btnmatrix.c ****             }
 2712              		.loc 1 163 24 view .LVU905
 2713 01c8 13B2     		sxth	r3, r2
 2714              	.LVL248:
 163:lvgl/src/widgets/lv_btnmatrix.c ****             }
 2715              		.loc 1 163 24 view .LVU906
 2716 01ca C7E7     		b	.L132
 2717              	.LVL249:
 2718              	.L143:
 163:lvgl/src/widgets/lv_btnmatrix.c ****             }
 2719              		.loc 1 163 24 view .LVU907
 2720              	.LBE133:
 2721              	.LBE134:
 174:lvgl/src/widgets/lv_btnmatrix.c ****     }
 2722              		.loc 1 174 27 view .LVU908
 2723 01cc DDF81CE0 		ldr	lr, [sp, #28]
 2724 01d0 DDF820A0 		ldr	r10, [sp, #32]
 174:lvgl/src/widgets/lv_btnmatrix.c ****     }
ARM GAS  C:\usertemp\ccuzpgLf.s 			page 92


 2725              		.loc 1 174 9 is_stmt 1 view .LVU909
 174:lvgl/src/widgets/lv_btnmatrix.c ****     }
 2726              		.loc 1 174 27 is_stmt 0 view .LVU910
 2727 01d4 0135     		adds	r5, r5, #1
 2728              	.LVL250:
 174:lvgl/src/widgets/lv_btnmatrix.c ****     }
 2729              		.loc 1 174 17 view .LVU911
 2730 01d6 0AEB850A 		add	r10, r10, r5, lsl #2
 2731              	.LVL251:
 174:lvgl/src/widgets/lv_btnmatrix.c ****     }
 2732              		.loc 1 174 17 view .LVU912
 2733 01da 79E7     		b	.L129
 2734              	.LVL252:
 2735              	.L141:
 174:lvgl/src/widgets/lv_btnmatrix.c ****     }
 2736              		.loc 1 174 17 view .LVU913
 2737              	.LBE135:
 179:lvgl/src/widgets/lv_btnmatrix.c **** 
 2738              		.loc 1 179 5 is_stmt 1 view .LVU914
 2739 01dc 3846     		mov	r0, r7
 2740 01de FFF7FEFF 		bl	lv_obj_refresh_ext_draw_size
 2741              	.LVL253:
 181:lvgl/src/widgets/lv_btnmatrix.c **** }
 2742              		.loc 1 181 5 view .LVU915
 2743 01e2 3846     		mov	r0, r7
 2744 01e4 FFF7FEFF 		bl	lv_obj_invalidate
 2745              	.LVL254:
 182:lvgl/src/widgets/lv_btnmatrix.c **** 
 2746              		.loc 1 182 1 is_stmt 0 view .LVU916
 2747 01e8 0FB0     		add	sp, sp, #60
 2748              	.LCFI21:
 2749              		.cfi_def_cfa_offset 36
 2750              		@ sp needed
 2751 01ea BDE8F08F 		pop	{r4, r5, r6, r7, r8, r9, r10, fp, pc}
 2752              	.LVL255:
 2753              	.L138:
 2754              	.LCFI22:
 2755              		.cfi_def_cfa_offset 0
 2756              		.cfi_restore 4
 2757              		.cfi_restore 5
 2758              		.cfi_restore 6
 2759              		.cfi_restore 7
 2760              		.cfi_restore 8
 2761              		.cfi_restore 9
 2762              		.cfi_restore 10
 2763              		.cfi_restore 11
 2764              		.cfi_restore 14
 182:lvgl/src/widgets/lv_btnmatrix.c **** 
 2765              		.loc 1 182 1 view .LVU917
 2766 01ee 7047     		bx	lr
 2767              	.L145:
 2768              		.align	2
 2769              	.L144:
 2770 01f0 00000000 		.word	.LC0
 2771              		.cfi_endproc
 2772              	.LFE157:
 2774              		.section	.text.lv_btnmatrix_constructor,"ax",%progbits
ARM GAS  C:\usertemp\ccuzpgLf.s 			page 93


 2775              		.align	1
 2776              		.syntax unified
 2777              		.thumb
 2778              		.thumb_func
 2780              	lv_btnmatrix_constructor:
 2781              	.LVL256:
 2782              	.LFB171:
 357:lvgl/src/widgets/lv_btnmatrix.c ****     LV_UNUSED(class_p);
 2783              		.loc 1 357 1 is_stmt 1 view -0
 2784              		.cfi_startproc
 2785              		@ args = 0, pretend = 0, frame = 0
 2786              		@ frame_needed = 0, uses_anonymous_args = 0
 357:lvgl/src/widgets/lv_btnmatrix.c ****     LV_UNUSED(class_p);
 2787              		.loc 1 357 1 is_stmt 0 view .LVU919
 2788 0000 08B5     		push	{r3, lr}
 2789              	.LCFI23:
 2790              		.cfi_def_cfa_offset 8
 2791              		.cfi_offset 3, -8
 2792              		.cfi_offset 14, -4
 2793 0002 0846     		mov	r0, r1
 2794              	.LVL257:
 358:lvgl/src/widgets/lv_btnmatrix.c ****     LV_TRACE_OBJ_CREATE("begin");
 2795              		.loc 1 358 5 is_stmt 1 view .LVU920
 359:lvgl/src/widgets/lv_btnmatrix.c ****     lv_btnmatrix_t * btnm = (lv_btnmatrix_t *)obj;
 2796              		.loc 1 359 5 view .LVU921
 359:lvgl/src/widgets/lv_btnmatrix.c ****     lv_btnmatrix_t * btnm = (lv_btnmatrix_t *)obj;
 2797              		.loc 1 359 5 view .LVU922
 359:lvgl/src/widgets/lv_btnmatrix.c ****     lv_btnmatrix_t * btnm = (lv_btnmatrix_t *)obj;
 2798              		.loc 1 359 5 view .LVU923
 360:lvgl/src/widgets/lv_btnmatrix.c ****     btnm->btn_cnt        = 0;
 2799              		.loc 1 360 5 view .LVU924
 361:lvgl/src/widgets/lv_btnmatrix.c ****     btnm->row_cnt        = 0;
 2800              		.loc 1 361 5 view .LVU925
 361:lvgl/src/widgets/lv_btnmatrix.c ****     btnm->row_cnt        = 0;
 2801              		.loc 1 361 26 is_stmt 0 view .LVU926
 2802 0004 0023     		movs	r3, #0
 2803 0006 0B86     		strh	r3, [r1, #48]	@ movhi
 362:lvgl/src/widgets/lv_btnmatrix.c ****     btnm->btn_id_sel     = LV_BTNMATRIX_BTN_NONE;
 2804              		.loc 1 362 5 is_stmt 1 view .LVU927
 362:lvgl/src/widgets/lv_btnmatrix.c ****     btnm->btn_id_sel     = LV_BTNMATRIX_BTN_NONE;
 2805              		.loc 1 362 26 is_stmt 0 view .LVU928
 2806 0008 4B86     		strh	r3, [r1, #50]	@ movhi
 363:lvgl/src/widgets/lv_btnmatrix.c ****     btnm->button_areas   = NULL;
 2807              		.loc 1 363 5 is_stmt 1 view .LVU929
 363:lvgl/src/widgets/lv_btnmatrix.c ****     btnm->button_areas   = NULL;
 2808              		.loc 1 363 26 is_stmt 0 view .LVU930
 2809 000a 4FF6FF72 		movw	r2, #65535
 2810 000e 8A86     		strh	r2, [r1, #52]	@ movhi
 364:lvgl/src/widgets/lv_btnmatrix.c ****     btnm->ctrl_bits      = NULL;
 2811              		.loc 1 364 5 is_stmt 1 view .LVU931
 364:lvgl/src/widgets/lv_btnmatrix.c ****     btnm->ctrl_bits      = NULL;
 2812              		.loc 1 364 26 is_stmt 0 view .LVU932
 2813 0010 8B62     		str	r3, [r1, #40]
 365:lvgl/src/widgets/lv_btnmatrix.c ****     btnm->map_p          = NULL;
 2814              		.loc 1 365 5 is_stmt 1 view .LVU933
 365:lvgl/src/widgets/lv_btnmatrix.c ****     btnm->map_p          = NULL;
 2815              		.loc 1 365 26 is_stmt 0 view .LVU934
ARM GAS  C:\usertemp\ccuzpgLf.s 			page 94


 2816 0012 CB62     		str	r3, [r1, #44]
 366:lvgl/src/widgets/lv_btnmatrix.c ****     btnm->one_check      = 0;
 2817              		.loc 1 366 5 is_stmt 1 view .LVU935
 366:lvgl/src/widgets/lv_btnmatrix.c ****     btnm->one_check      = 0;
 2818              		.loc 1 366 26 is_stmt 0 view .LVU936
 2819 0014 4B62     		str	r3, [r1, #36]
 367:lvgl/src/widgets/lv_btnmatrix.c **** 
 2820              		.loc 1 367 5 is_stmt 1 view .LVU937
 367:lvgl/src/widgets/lv_btnmatrix.c **** 
 2821              		.loc 1 367 26 is_stmt 0 view .LVU938
 2822 0016 91F83620 		ldrb	r2, [r1, #54]	@ zero_extendqisi2
 2823 001a 63F30002 		bfi	r2, r3, #0, #1
 2824 001e 81F83620 		strb	r2, [r1, #54]
 369:lvgl/src/widgets/lv_btnmatrix.c **** 
 2825              		.loc 1 369 5 is_stmt 1 view .LVU939
 2826 0022 0249     		ldr	r1, .L148
 2827              	.LVL258:
 369:lvgl/src/widgets/lv_btnmatrix.c **** 
 2828              		.loc 1 369 5 is_stmt 0 view .LVU940
 2829 0024 FFF7FEFF 		bl	lv_btnmatrix_set_map
 2830              	.LVL259:
 371:lvgl/src/widgets/lv_btnmatrix.c **** }
 2831              		.loc 1 371 5 is_stmt 1 view .LVU941
 371:lvgl/src/widgets/lv_btnmatrix.c **** }
 2832              		.loc 1 371 5 view .LVU942
 371:lvgl/src/widgets/lv_btnmatrix.c **** }
 2833              		.loc 1 371 5 view .LVU943
 372:lvgl/src/widgets/lv_btnmatrix.c **** 
 2834              		.loc 1 372 1 is_stmt 0 view .LVU944
 2835 0028 08BD     		pop	{r3, pc}
 2836              	.L149:
 2837 002a 00BF     		.align	2
 2838              	.L148:
 2839 002c 00000000 		.word	lv_btnmatrix_def_map
 2840              		.cfi_endproc
 2841              	.LFE171:
 2843              		.section	.text.lv_btnmatrix_set_ctrl_map,"ax",%progbits
 2844              		.align	1
 2845              		.global	lv_btnmatrix_set_ctrl_map
 2846              		.syntax unified
 2847              		.thumb
 2848              		.thumb_func
 2850              	lv_btnmatrix_set_ctrl_map:
 2851              	.LVL260:
 2852              	.LFB158:
 185:lvgl/src/widgets/lv_btnmatrix.c ****     LV_ASSERT_OBJ(obj, MY_CLASS);
 2853              		.loc 1 185 1 is_stmt 1 view -0
 2854              		.cfi_startproc
 2855              		@ args = 0, pretend = 0, frame = 0
 2856              		@ frame_needed = 0, uses_anonymous_args = 0
 185:lvgl/src/widgets/lv_btnmatrix.c ****     LV_ASSERT_OBJ(obj, MY_CLASS);
 2857              		.loc 1 185 1 is_stmt 0 view .LVU946
 2858 0000 10B5     		push	{r4, lr}
 2859              	.LCFI24:
 2860              		.cfi_def_cfa_offset 8
 2861              		.cfi_offset 4, -8
 2862              		.cfi_offset 14, -4
ARM GAS  C:\usertemp\ccuzpgLf.s 			page 95


 2863 0002 0446     		mov	r4, r0
 186:lvgl/src/widgets/lv_btnmatrix.c **** 
 2864              		.loc 1 186 5 is_stmt 1 view .LVU947
 186:lvgl/src/widgets/lv_btnmatrix.c **** 
 2865              		.loc 1 186 5 view .LVU948
 186:lvgl/src/widgets/lv_btnmatrix.c **** 
 2866              		.loc 1 186 5 view .LVU949
 188:lvgl/src/widgets/lv_btnmatrix.c ****     lv_memcpy(btnm->ctrl_bits, ctrl_map, sizeof(lv_btnmatrix_ctrl_t) * btnm->btn_cnt);
 2867              		.loc 1 188 5 view .LVU950
 2868              	.LVL261:
 189:lvgl/src/widgets/lv_btnmatrix.c **** 
 2869              		.loc 1 189 5 view .LVU951
 189:lvgl/src/widgets/lv_btnmatrix.c **** 
 2870              		.loc 1 189 76 is_stmt 0 view .LVU952
 2871 0004 028E     		ldrh	r2, [r0, #48]
 189:lvgl/src/widgets/lv_btnmatrix.c **** 
 2872              		.loc 1 189 5 view .LVU953
 2873 0006 5200     		lsls	r2, r2, #1
 2874 0008 C06A     		ldr	r0, [r0, #44]
 2875              	.LVL262:
 189:lvgl/src/widgets/lv_btnmatrix.c **** 
 2876              		.loc 1 189 5 view .LVU954
 2877 000a FFF7FEFF 		bl	lv_memcpy
 2878              	.LVL263:
 191:lvgl/src/widgets/lv_btnmatrix.c **** }
 2879              		.loc 1 191 5 is_stmt 1 view .LVU955
 2880 000e 616A     		ldr	r1, [r4, #36]
 2881 0010 2046     		mov	r0, r4
 2882 0012 FFF7FEFF 		bl	lv_btnmatrix_set_map
 2883              	.LVL264:
 192:lvgl/src/widgets/lv_btnmatrix.c **** 
 2884              		.loc 1 192 1 is_stmt 0 view .LVU956
 2885 0016 10BD     		pop	{r4, pc}
 192:lvgl/src/widgets/lv_btnmatrix.c **** 
 2886              		.loc 1 192 1 view .LVU957
 2887              		.cfi_endproc
 2888              	.LFE158:
 2890              		.section	.text.lv_btnmatrix_set_selected_btn,"ax",%progbits
 2891              		.align	1
 2892              		.global	lv_btnmatrix_set_selected_btn
 2893              		.syntax unified
 2894              		.thumb
 2895              		.thumb_func
 2897              	lv_btnmatrix_set_selected_btn:
 2898              	.LVL265:
 2899              	.LFB159:
 195:lvgl/src/widgets/lv_btnmatrix.c ****     LV_ASSERT_OBJ(obj, MY_CLASS);
 2900              		.loc 1 195 1 is_stmt 1 view -0
 2901              		.cfi_startproc
 2902              		@ args = 0, pretend = 0, frame = 0
 2903              		@ frame_needed = 0, uses_anonymous_args = 0
 195:lvgl/src/widgets/lv_btnmatrix.c ****     LV_ASSERT_OBJ(obj, MY_CLASS);
 2904              		.loc 1 195 1 is_stmt 0 view .LVU959
 2905 0000 38B5     		push	{r3, r4, r5, lr}
 2906              	.LCFI25:
 2907              		.cfi_def_cfa_offset 16
 2908              		.cfi_offset 3, -16
ARM GAS  C:\usertemp\ccuzpgLf.s 			page 96


 2909              		.cfi_offset 4, -12
 2910              		.cfi_offset 5, -8
 2911              		.cfi_offset 14, -4
 2912 0002 0446     		mov	r4, r0
 2913 0004 0D46     		mov	r5, r1
 196:lvgl/src/widgets/lv_btnmatrix.c **** 
 2914              		.loc 1 196 5 is_stmt 1 view .LVU960
 196:lvgl/src/widgets/lv_btnmatrix.c **** 
 2915              		.loc 1 196 5 view .LVU961
 196:lvgl/src/widgets/lv_btnmatrix.c **** 
 2916              		.loc 1 196 5 view .LVU962
 198:lvgl/src/widgets/lv_btnmatrix.c **** 
 2917              		.loc 1 198 5 view .LVU963
 2918              	.LVL266:
 200:lvgl/src/widgets/lv_btnmatrix.c **** 
 2919              		.loc 1 200 5 view .LVU964
 200:lvgl/src/widgets/lv_btnmatrix.c **** 
 2920              		.loc 1 200 22 is_stmt 0 view .LVU965
 2921 0006 038E     		ldrh	r3, [r0, #48]
 200:lvgl/src/widgets/lv_btnmatrix.c **** 
 2922              		.loc 1 200 7 view .LVU966
 2923 0008 8B42     		cmp	r3, r1
 2924 000a 03D8     		bhi	.L153
 200:lvgl/src/widgets/lv_btnmatrix.c **** 
 2925              		.loc 1 200 32 discriminator 1 view .LVU967
 2926 000c 4FF6FF73 		movw	r3, #65535
 2927 0010 9942     		cmp	r1, r3
 2928 0012 08D1     		bne	.L152
 2929              	.L153:
 202:lvgl/src/widgets/lv_btnmatrix.c ****     btnm->btn_id_sel = btn_id;
 2930              		.loc 1 202 5 is_stmt 1 view .LVU968
 2931 0014 A18E     		ldrh	r1, [r4, #52]
 2932              	.LVL267:
 202:lvgl/src/widgets/lv_btnmatrix.c ****     btnm->btn_id_sel = btn_id;
 2933              		.loc 1 202 5 is_stmt 0 view .LVU969
 2934 0016 2046     		mov	r0, r4
 2935              	.LVL268:
 202:lvgl/src/widgets/lv_btnmatrix.c ****     btnm->btn_id_sel = btn_id;
 2936              		.loc 1 202 5 view .LVU970
 2937 0018 FFF7FEFF 		bl	invalidate_button_area
 2938              	.LVL269:
 203:lvgl/src/widgets/lv_btnmatrix.c ****     invalidate_button_area(obj, btn_id);
 2939              		.loc 1 203 5 is_stmt 1 view .LVU971
 203:lvgl/src/widgets/lv_btnmatrix.c ****     invalidate_button_area(obj, btn_id);
 2940              		.loc 1 203 22 is_stmt 0 view .LVU972
 2941 001c A586     		strh	r5, [r4, #52]	@ movhi
 204:lvgl/src/widgets/lv_btnmatrix.c **** }
 2942              		.loc 1 204 5 is_stmt 1 view .LVU973
 2943 001e 2946     		mov	r1, r5
 2944 0020 2046     		mov	r0, r4
 2945 0022 FFF7FEFF 		bl	invalidate_button_area
 2946              	.LVL270:
 2947              	.L152:
 205:lvgl/src/widgets/lv_btnmatrix.c **** 
 2948              		.loc 1 205 1 is_stmt 0 view .LVU974
 2949 0026 38BD     		pop	{r3, r4, r5, pc}
 205:lvgl/src/widgets/lv_btnmatrix.c **** 
ARM GAS  C:\usertemp\ccuzpgLf.s 			page 97


 2950              		.loc 1 205 1 view .LVU975
 2951              		.cfi_endproc
 2952              	.LFE159:
 2954              		.section	.text.lv_btnmatrix_clear_btn_ctrl,"ax",%progbits
 2955              		.align	1
 2956              		.global	lv_btnmatrix_clear_btn_ctrl
 2957              		.syntax unified
 2958              		.thumb
 2959              		.thumb_func
 2961              	lv_btnmatrix_clear_btn_ctrl:
 2962              	.LVL271:
 2963              	.LFB161:
 228:lvgl/src/widgets/lv_btnmatrix.c ****     LV_ASSERT_OBJ(obj, MY_CLASS);
 2964              		.loc 1 228 1 is_stmt 1 view -0
 2965              		.cfi_startproc
 2966              		@ args = 0, pretend = 0, frame = 0
 2967              		@ frame_needed = 0, uses_anonymous_args = 0
 228:lvgl/src/widgets/lv_btnmatrix.c ****     LV_ASSERT_OBJ(obj, MY_CLASS);
 2968              		.loc 1 228 1 is_stmt 0 view .LVU977
 2969 0000 38B5     		push	{r3, r4, r5, lr}
 2970              	.LCFI26:
 2971              		.cfi_def_cfa_offset 16
 2972              		.cfi_offset 3, -16
 2973              		.cfi_offset 4, -12
 2974              		.cfi_offset 5, -8
 2975              		.cfi_offset 14, -4
 229:lvgl/src/widgets/lv_btnmatrix.c **** 
 2976              		.loc 1 229 5 is_stmt 1 view .LVU978
 229:lvgl/src/widgets/lv_btnmatrix.c **** 
 2977              		.loc 1 229 5 view .LVU979
 229:lvgl/src/widgets/lv_btnmatrix.c **** 
 2978              		.loc 1 229 5 view .LVU980
 231:lvgl/src/widgets/lv_btnmatrix.c **** 
 2979              		.loc 1 231 5 view .LVU981
 2980              	.LVL272:
 231:lvgl/src/widgets/lv_btnmatrix.c **** 
 2981              		.loc 1 231 51 view .LVU982
 233:lvgl/src/widgets/lv_btnmatrix.c **** 
 2982              		.loc 1 233 5 view .LVU983
 233:lvgl/src/widgets/lv_btnmatrix.c **** 
 2983              		.loc 1 233 22 is_stmt 0 view .LVU984
 2984 0002 038E     		ldrh	r3, [r0, #48]
 233:lvgl/src/widgets/lv_btnmatrix.c **** 
 2985              		.loc 1 233 7 view .LVU985
 2986 0004 8B42     		cmp	r3, r1
 2987 0006 00D8     		bhi	.L159
 2988              	.LVL273:
 2989              	.L156:
 241:lvgl/src/widgets/lv_btnmatrix.c **** 
 2990              		.loc 1 241 1 view .LVU986
 2991 0008 38BD     		pop	{r3, r4, r5, pc}
 2992              	.LVL274:
 2993              	.L159:
 241:lvgl/src/widgets/lv_btnmatrix.c **** 
 2994              		.loc 1 241 1 view .LVU987
 2995 000a 0446     		mov	r4, r0
 2996 000c 1546     		mov	r5, r2
ARM GAS  C:\usertemp\ccuzpgLf.s 			page 98


 235:lvgl/src/widgets/lv_btnmatrix.c ****     invalidate_button_area(obj, btn_id);
 2997              		.loc 1 235 5 is_stmt 1 view .LVU988
 235:lvgl/src/widgets/lv_btnmatrix.c ****     invalidate_button_area(obj, btn_id);
 2998              		.loc 1 235 9 is_stmt 0 view .LVU989
 2999 000e C06A     		ldr	r0, [r0, #44]
 3000              	.LVL275:
 235:lvgl/src/widgets/lv_btnmatrix.c ****     invalidate_button_area(obj, btn_id);
 3001              		.loc 1 235 20 view .LVU990
 3002 0010 30F81130 		ldrh	r3, [r0, r1, lsl #1]
 235:lvgl/src/widgets/lv_btnmatrix.c ****     invalidate_button_area(obj, btn_id);
 3003              		.loc 1 235 29 view .LVU991
 3004 0014 D243     		mvns	r2, r2
 3005              	.LVL276:
 235:lvgl/src/widgets/lv_btnmatrix.c ****     invalidate_button_area(obj, btn_id);
 3006              		.loc 1 235 29 view .LVU992
 3007 0016 12B2     		sxth	r2, r2
 3008 0018 1340     		ands	r3, r3, r2
 3009 001a 20F81130 		strh	r3, [r0, r1, lsl #1]	@ movhi
 236:lvgl/src/widgets/lv_btnmatrix.c **** 
 3010              		.loc 1 236 5 is_stmt 1 view .LVU993
 3011 001e 2046     		mov	r0, r4
 3012 0020 FFF7FEFF 		bl	invalidate_button_area
 3013              	.LVL277:
 238:lvgl/src/widgets/lv_btnmatrix.c ****         lv_obj_refresh_ext_draw_size(obj);
 3014              		.loc 1 238 5 view .LVU994
 238:lvgl/src/widgets/lv_btnmatrix.c ****         lv_obj_refresh_ext_draw_size(obj);
 3015              		.loc 1 238 7 is_stmt 0 view .LVU995
 3016 0024 15F4007F 		tst	r5, #512
 3017 0028 EED0     		beq	.L156
 239:lvgl/src/widgets/lv_btnmatrix.c ****     }
 3018              		.loc 1 239 9 is_stmt 1 view .LVU996
 3019 002a 2046     		mov	r0, r4
 3020 002c FFF7FEFF 		bl	lv_obj_refresh_ext_draw_size
 3021              	.LVL278:
 3022 0030 EAE7     		b	.L156
 3023              		.cfi_endproc
 3024              	.LFE161:
 3026              		.section	.text.lv_btnmatrix_clear_btn_ctrl_all,"ax",%progbits
 3027              		.align	1
 3028              		.global	lv_btnmatrix_clear_btn_ctrl_all
 3029              		.syntax unified
 3030              		.thumb
 3031              		.thumb_func
 3033              	lv_btnmatrix_clear_btn_ctrl_all:
 3034              	.LVL279:
 3035              	.LFB163:
 255:lvgl/src/widgets/lv_btnmatrix.c ****     LV_ASSERT_OBJ(obj, MY_CLASS);
 3036              		.loc 1 255 1 view -0
 3037              		.cfi_startproc
 3038              		@ args = 0, pretend = 0, frame = 0
 3039              		@ frame_needed = 0, uses_anonymous_args = 0
 255:lvgl/src/widgets/lv_btnmatrix.c ****     LV_ASSERT_OBJ(obj, MY_CLASS);
 3040              		.loc 1 255 1 is_stmt 0 view .LVU998
 3041 0000 70B5     		push	{r4, r5, r6, lr}
 3042              	.LCFI27:
 3043              		.cfi_def_cfa_offset 16
 3044              		.cfi_offset 4, -16
ARM GAS  C:\usertemp\ccuzpgLf.s 			page 99


 3045              		.cfi_offset 5, -12
 3046              		.cfi_offset 6, -8
 3047              		.cfi_offset 14, -4
 3048 0002 0546     		mov	r5, r0
 3049 0004 0E46     		mov	r6, r1
 256:lvgl/src/widgets/lv_btnmatrix.c **** 
 3050              		.loc 1 256 5 is_stmt 1 view .LVU999
 256:lvgl/src/widgets/lv_btnmatrix.c **** 
 3051              		.loc 1 256 5 view .LVU1000
 256:lvgl/src/widgets/lv_btnmatrix.c **** 
 3052              		.loc 1 256 5 view .LVU1001
 258:lvgl/src/widgets/lv_btnmatrix.c ****     uint16_t i;
 3053              		.loc 1 258 5 view .LVU1002
 3054              	.LVL280:
 258:lvgl/src/widgets/lv_btnmatrix.c ****     uint16_t i;
 3055              		.loc 1 258 51 view .LVU1003
 259:lvgl/src/widgets/lv_btnmatrix.c ****     for(i = 0; i < btnm->btn_cnt; i++) {
 3056              		.loc 1 259 5 view .LVU1004
 260:lvgl/src/widgets/lv_btnmatrix.c ****         lv_btnmatrix_clear_btn_ctrl(obj, i, ctrl);
 3057              		.loc 1 260 5 view .LVU1005
 260:lvgl/src/widgets/lv_btnmatrix.c ****         lv_btnmatrix_clear_btn_ctrl(obj, i, ctrl);
 3058              		.loc 1 260 11 is_stmt 0 view .LVU1006
 3059 0006 0024     		movs	r4, #0
 260:lvgl/src/widgets/lv_btnmatrix.c ****         lv_btnmatrix_clear_btn_ctrl(obj, i, ctrl);
 3060              		.loc 1 260 5 view .LVU1007
 3061 0008 06E0     		b	.L161
 3062              	.LVL281:
 3063              	.L162:
 261:lvgl/src/widgets/lv_btnmatrix.c ****     }
 3064              		.loc 1 261 9 is_stmt 1 view .LVU1008
 3065 000a 3246     		mov	r2, r6
 3066 000c 2146     		mov	r1, r4
 3067 000e 2846     		mov	r0, r5
 3068 0010 FFF7FEFF 		bl	lv_btnmatrix_clear_btn_ctrl
 3069              	.LVL282:
 260:lvgl/src/widgets/lv_btnmatrix.c ****         lv_btnmatrix_clear_btn_ctrl(obj, i, ctrl);
 3070              		.loc 1 260 36 discriminator 3 view .LVU1009
 3071 0014 0134     		adds	r4, r4, #1
 3072              	.LVL283:
 260:lvgl/src/widgets/lv_btnmatrix.c ****         lv_btnmatrix_clear_btn_ctrl(obj, i, ctrl);
 3073              		.loc 1 260 36 is_stmt 0 discriminator 3 view .LVU1010
 3074 0016 A4B2     		uxth	r4, r4
 3075              	.LVL284:
 3076              	.L161:
 260:lvgl/src/widgets/lv_btnmatrix.c ****         lv_btnmatrix_clear_btn_ctrl(obj, i, ctrl);
 3077              		.loc 1 260 18 is_stmt 1 discriminator 1 view .LVU1011
 260:lvgl/src/widgets/lv_btnmatrix.c ****         lv_btnmatrix_clear_btn_ctrl(obj, i, ctrl);
 3078              		.loc 1 260 24 is_stmt 0 discriminator 1 view .LVU1012
 3079 0018 2B8E     		ldrh	r3, [r5, #48]
 260:lvgl/src/widgets/lv_btnmatrix.c ****         lv_btnmatrix_clear_btn_ctrl(obj, i, ctrl);
 3080              		.loc 1 260 18 discriminator 1 view .LVU1013
 3081 001a A342     		cmp	r3, r4
 3082 001c F5D8     		bhi	.L162
 263:lvgl/src/widgets/lv_btnmatrix.c **** 
 3083              		.loc 1 263 1 view .LVU1014
 3084 001e 70BD     		pop	{r4, r5, r6, pc}
 263:lvgl/src/widgets/lv_btnmatrix.c **** 
ARM GAS  C:\usertemp\ccuzpgLf.s 			page 100


 3085              		.loc 1 263 1 view .LVU1015
 3086              		.cfi_endproc
 3087              	.LFE163:
 3089              		.section	.text.lv_btnmatrix_set_btn_ctrl,"ax",%progbits
 3090              		.align	1
 3091              		.global	lv_btnmatrix_set_btn_ctrl
 3092              		.syntax unified
 3093              		.thumb
 3094              		.thumb_func
 3096              	lv_btnmatrix_set_btn_ctrl:
 3097              	.LVL285:
 3098              	.LFB160:
 208:lvgl/src/widgets/lv_btnmatrix.c ****     LV_ASSERT_OBJ(obj, MY_CLASS);
 3099              		.loc 1 208 1 is_stmt 1 view -0
 3100              		.cfi_startproc
 3101              		@ args = 0, pretend = 0, frame = 0
 3102              		@ frame_needed = 0, uses_anonymous_args = 0
 209:lvgl/src/widgets/lv_btnmatrix.c **** 
 3103              		.loc 1 209 5 view .LVU1017
 209:lvgl/src/widgets/lv_btnmatrix.c **** 
 3104              		.loc 1 209 5 view .LVU1018
 209:lvgl/src/widgets/lv_btnmatrix.c **** 
 3105              		.loc 1 209 5 view .LVU1019
 211:lvgl/src/widgets/lv_btnmatrix.c **** 
 3106              		.loc 1 211 5 view .LVU1020
 211:lvgl/src/widgets/lv_btnmatrix.c **** 
 3107              		.loc 1 211 51 view .LVU1021
 213:lvgl/src/widgets/lv_btnmatrix.c **** 
 3108              		.loc 1 213 5 view .LVU1022
 213:lvgl/src/widgets/lv_btnmatrix.c **** 
 3109              		.loc 1 213 22 is_stmt 0 view .LVU1023
 3110 0000 038E     		ldrh	r3, [r0, #48]
 213:lvgl/src/widgets/lv_btnmatrix.c **** 
 3111              		.loc 1 213 7 view .LVU1024
 3112 0002 8B42     		cmp	r3, r1
 3113 0004 21D9     		bls	.L168
 208:lvgl/src/widgets/lv_btnmatrix.c ****     LV_ASSERT_OBJ(obj, MY_CLASS);
 3114              		.loc 1 208 1 view .LVU1025
 3115 0006 70B5     		push	{r4, r5, r6, lr}
 3116              	.LCFI28:
 3117              		.cfi_def_cfa_offset 16
 3118              		.cfi_offset 4, -16
 3119              		.cfi_offset 5, -12
 3120              		.cfi_offset 6, -8
 3121              		.cfi_offset 14, -4
 3122 0008 0446     		mov	r4, r0
 3123 000a 0D46     		mov	r5, r1
 3124 000c 1646     		mov	r6, r2
 215:lvgl/src/widgets/lv_btnmatrix.c ****         lv_btnmatrix_clear_btn_ctrl_all(obj, LV_BTNMATRIX_CTRL_CHECKED);
 3125              		.loc 1 215 5 is_stmt 1 view .LVU1026
 215:lvgl/src/widgets/lv_btnmatrix.c ****         lv_btnmatrix_clear_btn_ctrl_all(obj, LV_BTNMATRIX_CTRL_CHECKED);
 3126              		.loc 1 215 8 is_stmt 0 view .LVU1027
 3127 000e 90F83630 		ldrb	r3, [r0, #54]	@ zero_extendqisi2
 215:lvgl/src/widgets/lv_btnmatrix.c ****         lv_btnmatrix_clear_btn_ctrl_all(obj, LV_BTNMATRIX_CTRL_CHECKED);
 3128              		.loc 1 215 7 view .LVU1028
 3129 0012 13F0010F 		tst	r3, #1
 3130 0016 02D0     		beq	.L166
ARM GAS  C:\usertemp\ccuzpgLf.s 			page 101


 215:lvgl/src/widgets/lv_btnmatrix.c ****         lv_btnmatrix_clear_btn_ctrl_all(obj, LV_BTNMATRIX_CTRL_CHECKED);
 3131              		.loc 1 215 24 discriminator 1 view .LVU1029
 3132 0018 12F0800F 		tst	r2, #128
 3133 001c 0DD1     		bne	.L171
 3134              	.LVL286:
 3135              	.L166:
 219:lvgl/src/widgets/lv_btnmatrix.c ****     invalidate_button_area(obj, btn_id);
 3136              		.loc 1 219 5 is_stmt 1 view .LVU1030
 219:lvgl/src/widgets/lv_btnmatrix.c ****     invalidate_button_area(obj, btn_id);
 3137              		.loc 1 219 9 is_stmt 0 view .LVU1031
 3138 001e E26A     		ldr	r2, [r4, #44]
 219:lvgl/src/widgets/lv_btnmatrix.c ****     invalidate_button_area(obj, btn_id);
 3139              		.loc 1 219 20 view .LVU1032
 3140 0020 32F81530 		ldrh	r3, [r2, r5, lsl #1]
 219:lvgl/src/widgets/lv_btnmatrix.c ****     invalidate_button_area(obj, btn_id);
 3141              		.loc 1 219 29 view .LVU1033
 3142 0024 3343     		orrs	r3, r3, r6
 3143 0026 22F81530 		strh	r3, [r2, r5, lsl #1]	@ movhi
 220:lvgl/src/widgets/lv_btnmatrix.c **** 
 3144              		.loc 1 220 5 is_stmt 1 view .LVU1034
 3145 002a 2946     		mov	r1, r5
 3146 002c 2046     		mov	r0, r4
 3147 002e FFF7FEFF 		bl	invalidate_button_area
 3148              	.LVL287:
 222:lvgl/src/widgets/lv_btnmatrix.c ****         lv_obj_refresh_ext_draw_size(obj);
 3149              		.loc 1 222 5 view .LVU1035
 222:lvgl/src/widgets/lv_btnmatrix.c ****         lv_obj_refresh_ext_draw_size(obj);
 3150              		.loc 1 222 7 is_stmt 0 view .LVU1036
 3151 0032 16F4007F 		tst	r6, #512
 3152 0036 04D1     		bne	.L172
 3153              	.L164:
 225:lvgl/src/widgets/lv_btnmatrix.c **** 
 3154              		.loc 1 225 1 view .LVU1037
 3155 0038 70BD     		pop	{r4, r5, r6, pc}
 3156              	.LVL288:
 3157              	.L171:
 216:lvgl/src/widgets/lv_btnmatrix.c ****     }
 3158              		.loc 1 216 9 is_stmt 1 view .LVU1038
 3159 003a 8021     		movs	r1, #128
 3160              	.LVL289:
 216:lvgl/src/widgets/lv_btnmatrix.c ****     }
 3161              		.loc 1 216 9 is_stmt 0 view .LVU1039
 3162 003c FFF7FEFF 		bl	lv_btnmatrix_clear_btn_ctrl_all
 3163              	.LVL290:
 216:lvgl/src/widgets/lv_btnmatrix.c ****     }
 3164              		.loc 1 216 9 view .LVU1040
 3165 0040 EDE7     		b	.L166
 3166              	.L172:
 223:lvgl/src/widgets/lv_btnmatrix.c ****     }
 3167              		.loc 1 223 9 is_stmt 1 view .LVU1041
 3168 0042 2046     		mov	r0, r4
 3169 0044 FFF7FEFF 		bl	lv_obj_refresh_ext_draw_size
 3170              	.LVL291:
 3171 0048 F6E7     		b	.L164
 3172              	.LVL292:
 3173              	.L168:
 3174              	.LCFI29:
ARM GAS  C:\usertemp\ccuzpgLf.s 			page 102


 3175              		.cfi_def_cfa_offset 0
 3176              		.cfi_restore 4
 3177              		.cfi_restore 5
 3178              		.cfi_restore 6
 3179              		.cfi_restore 14
 223:lvgl/src/widgets/lv_btnmatrix.c ****     }
 3180              		.loc 1 223 9 is_stmt 0 view .LVU1042
 3181 004a 7047     		bx	lr
 3182              		.cfi_endproc
 3183              	.LFE160:
 3185              		.section	.text.lv_btnmatrix_set_btn_ctrl_all,"ax",%progbits
 3186              		.align	1
 3187              		.global	lv_btnmatrix_set_btn_ctrl_all
 3188              		.syntax unified
 3189              		.thumb
 3190              		.thumb_func
 3192              	lv_btnmatrix_set_btn_ctrl_all:
 3193              	.LVL293:
 3194              	.LFB162:
 244:lvgl/src/widgets/lv_btnmatrix.c ****     LV_ASSERT_OBJ(obj, MY_CLASS);
 3195              		.loc 1 244 1 is_stmt 1 view -0
 3196              		.cfi_startproc
 3197              		@ args = 0, pretend = 0, frame = 0
 3198              		@ frame_needed = 0, uses_anonymous_args = 0
 244:lvgl/src/widgets/lv_btnmatrix.c ****     LV_ASSERT_OBJ(obj, MY_CLASS);
 3199              		.loc 1 244 1 is_stmt 0 view .LVU1044
 3200 0000 70B5     		push	{r4, r5, r6, lr}
 3201              	.LCFI30:
 3202              		.cfi_def_cfa_offset 16
 3203              		.cfi_offset 4, -16
 3204              		.cfi_offset 5, -12
 3205              		.cfi_offset 6, -8
 3206              		.cfi_offset 14, -4
 3207 0002 0546     		mov	r5, r0
 3208 0004 0E46     		mov	r6, r1
 245:lvgl/src/widgets/lv_btnmatrix.c **** 
 3209              		.loc 1 245 5 is_stmt 1 view .LVU1045
 245:lvgl/src/widgets/lv_btnmatrix.c **** 
 3210              		.loc 1 245 5 view .LVU1046
 245:lvgl/src/widgets/lv_btnmatrix.c **** 
 3211              		.loc 1 245 5 view .LVU1047
 247:lvgl/src/widgets/lv_btnmatrix.c ****     uint16_t i;
 3212              		.loc 1 247 5 view .LVU1048
 3213              	.LVL294:
 247:lvgl/src/widgets/lv_btnmatrix.c ****     uint16_t i;
 3214              		.loc 1 247 51 view .LVU1049
 248:lvgl/src/widgets/lv_btnmatrix.c ****     for(i = 0; i < btnm->btn_cnt; i++) {
 3215              		.loc 1 248 5 view .LVU1050
 249:lvgl/src/widgets/lv_btnmatrix.c ****         lv_btnmatrix_set_btn_ctrl(obj, i, ctrl);
 3216              		.loc 1 249 5 view .LVU1051
 249:lvgl/src/widgets/lv_btnmatrix.c ****         lv_btnmatrix_set_btn_ctrl(obj, i, ctrl);
 3217              		.loc 1 249 11 is_stmt 0 view .LVU1052
 3218 0006 0024     		movs	r4, #0
 249:lvgl/src/widgets/lv_btnmatrix.c ****         lv_btnmatrix_set_btn_ctrl(obj, i, ctrl);
 3219              		.loc 1 249 5 view .LVU1053
 3220 0008 06E0     		b	.L174
 3221              	.LVL295:
ARM GAS  C:\usertemp\ccuzpgLf.s 			page 103


 3222              	.L175:
 250:lvgl/src/widgets/lv_btnmatrix.c ****     }
 3223              		.loc 1 250 9 is_stmt 1 view .LVU1054
 3224 000a 3246     		mov	r2, r6
 3225 000c 2146     		mov	r1, r4
 3226 000e 2846     		mov	r0, r5
 3227 0010 FFF7FEFF 		bl	lv_btnmatrix_set_btn_ctrl
 3228              	.LVL296:
 249:lvgl/src/widgets/lv_btnmatrix.c ****         lv_btnmatrix_set_btn_ctrl(obj, i, ctrl);
 3229              		.loc 1 249 36 discriminator 3 view .LVU1055
 3230 0014 0134     		adds	r4, r4, #1
 3231              	.LVL297:
 249:lvgl/src/widgets/lv_btnmatrix.c ****         lv_btnmatrix_set_btn_ctrl(obj, i, ctrl);
 3232              		.loc 1 249 36 is_stmt 0 discriminator 3 view .LVU1056
 3233 0016 A4B2     		uxth	r4, r4
 3234              	.LVL298:
 3235              	.L174:
 249:lvgl/src/widgets/lv_btnmatrix.c ****         lv_btnmatrix_set_btn_ctrl(obj, i, ctrl);
 3236              		.loc 1 249 18 is_stmt 1 discriminator 1 view .LVU1057
 249:lvgl/src/widgets/lv_btnmatrix.c ****         lv_btnmatrix_set_btn_ctrl(obj, i, ctrl);
 3237              		.loc 1 249 24 is_stmt 0 discriminator 1 view .LVU1058
 3238 0018 2B8E     		ldrh	r3, [r5, #48]
 249:lvgl/src/widgets/lv_btnmatrix.c ****         lv_btnmatrix_set_btn_ctrl(obj, i, ctrl);
 3239              		.loc 1 249 18 discriminator 1 view .LVU1059
 3240 001a A342     		cmp	r3, r4
 3241 001c F5D8     		bhi	.L175
 252:lvgl/src/widgets/lv_btnmatrix.c **** 
 3242              		.loc 1 252 1 view .LVU1060
 3243 001e 70BD     		pop	{r4, r5, r6, pc}
 252:lvgl/src/widgets/lv_btnmatrix.c **** 
 3244              		.loc 1 252 1 view .LVU1061
 3245              		.cfi_endproc
 3246              	.LFE162:
 3248              		.section	.text.lv_btnmatrix_set_btn_width,"ax",%progbits
 3249              		.align	1
 3250              		.global	lv_btnmatrix_set_btn_width
 3251              		.syntax unified
 3252              		.thumb
 3253              		.thumb_func
 3255              	lv_btnmatrix_set_btn_width:
 3256              	.LVL299:
 3257              	.LFB164:
 266:lvgl/src/widgets/lv_btnmatrix.c ****     LV_ASSERT_OBJ(obj, MY_CLASS);
 3258              		.loc 1 266 1 is_stmt 1 view -0
 3259              		.cfi_startproc
 3260              		@ args = 0, pretend = 0, frame = 0
 3261              		@ frame_needed = 0, uses_anonymous_args = 0
 267:lvgl/src/widgets/lv_btnmatrix.c **** 
 3262              		.loc 1 267 5 view .LVU1063
 267:lvgl/src/widgets/lv_btnmatrix.c **** 
 3263              		.loc 1 267 5 view .LVU1064
 267:lvgl/src/widgets/lv_btnmatrix.c **** 
 3264              		.loc 1 267 5 view .LVU1065
 269:lvgl/src/widgets/lv_btnmatrix.c ****     if(btn_id >= btnm->btn_cnt) return;
 3265              		.loc 1 269 5 view .LVU1066
 269:lvgl/src/widgets/lv_btnmatrix.c ****     if(btn_id >= btnm->btn_cnt) return;
 3266              		.loc 1 269 51 view .LVU1067
ARM GAS  C:\usertemp\ccuzpgLf.s 			page 104


 270:lvgl/src/widgets/lv_btnmatrix.c ****     btnm->ctrl_bits[btn_id] &= (~LV_BTNMATRIX_WIDTH_MASK);
 3267              		.loc 1 270 5 view .LVU1068
 270:lvgl/src/widgets/lv_btnmatrix.c ****     btnm->ctrl_bits[btn_id] &= (~LV_BTNMATRIX_WIDTH_MASK);
 3268              		.loc 1 270 22 is_stmt 0 view .LVU1069
 3269 0000 038E     		ldrh	r3, [r0, #48]
 270:lvgl/src/widgets/lv_btnmatrix.c ****     btnm->ctrl_bits[btn_id] &= (~LV_BTNMATRIX_WIDTH_MASK);
 3270              		.loc 1 270 7 view .LVU1070
 3271 0002 8B42     		cmp	r3, r1
 3272 0004 00D8     		bhi	.L183
 3273 0006 7047     		bx	lr
 3274              	.L183:
 266:lvgl/src/widgets/lv_btnmatrix.c ****     LV_ASSERT_OBJ(obj, MY_CLASS);
 3275              		.loc 1 266 1 view .LVU1071
 3276 0008 10B5     		push	{r4, lr}
 3277              	.LCFI31:
 3278              		.cfi_def_cfa_offset 8
 3279              		.cfi_offset 4, -8
 3280              		.cfi_offset 14, -4
 271:lvgl/src/widgets/lv_btnmatrix.c ****     btnm->ctrl_bits[btn_id] |= (LV_BTNMATRIX_WIDTH_MASK & width);
 3281              		.loc 1 271 5 is_stmt 1 view .LVU1072
 271:lvgl/src/widgets/lv_btnmatrix.c ****     btnm->ctrl_bits[btn_id] |= (LV_BTNMATRIX_WIDTH_MASK & width);
 3282              		.loc 1 271 9 is_stmt 0 view .LVU1073
 3283 000a C46A     		ldr	r4, [r0, #44]
 271:lvgl/src/widgets/lv_btnmatrix.c ****     btnm->ctrl_bits[btn_id] |= (LV_BTNMATRIX_WIDTH_MASK & width);
 3284              		.loc 1 271 20 view .LVU1074
 3285 000c 34F81130 		ldrh	r3, [r4, r1, lsl #1]
 271:lvgl/src/widgets/lv_btnmatrix.c ****     btnm->ctrl_bits[btn_id] |= (LV_BTNMATRIX_WIDTH_MASK & width);
 3286              		.loc 1 271 29 view .LVU1075
 3287 0010 23F00703 		bic	r3, r3, #7
 3288 0014 24F81130 		strh	r3, [r4, r1, lsl #1]	@ movhi
 272:lvgl/src/widgets/lv_btnmatrix.c **** 
 3289              		.loc 1 272 5 is_stmt 1 view .LVU1076
 272:lvgl/src/widgets/lv_btnmatrix.c **** 
 3290              		.loc 1 272 9 is_stmt 0 view .LVU1077
 3291 0018 C46A     		ldr	r4, [r0, #44]
 272:lvgl/src/widgets/lv_btnmatrix.c **** 
 3292              		.loc 1 272 20 view .LVU1078
 3293 001a 34F81130 		ldrh	r3, [r4, r1, lsl #1]
 272:lvgl/src/widgets/lv_btnmatrix.c **** 
 3294              		.loc 1 272 29 view .LVU1079
 3295 001e 02F00702 		and	r2, r2, #7
 3296              	.LVL300:
 272:lvgl/src/widgets/lv_btnmatrix.c **** 
 3297              		.loc 1 272 29 view .LVU1080
 3298 0022 1343     		orrs	r3, r3, r2
 3299 0024 24F81130 		strh	r3, [r4, r1, lsl #1]	@ movhi
 274:lvgl/src/widgets/lv_btnmatrix.c **** }
 3300              		.loc 1 274 5 is_stmt 1 view .LVU1081
 3301 0028 416A     		ldr	r1, [r0, #36]
 3302              	.LVL301:
 274:lvgl/src/widgets/lv_btnmatrix.c **** }
 3303              		.loc 1 274 5 is_stmt 0 view .LVU1082
 3304 002a FFF7FEFF 		bl	lv_btnmatrix_set_map
 3305              	.LVL302:
 275:lvgl/src/widgets/lv_btnmatrix.c **** 
 3306              		.loc 1 275 1 view .LVU1083
 3307 002e 10BD     		pop	{r4, pc}
ARM GAS  C:\usertemp\ccuzpgLf.s 			page 105


 3308              		.cfi_endproc
 3309              	.LFE164:
 3311              		.section	.text.lv_btnmatrix_get_map,"ax",%progbits
 3312              		.align	1
 3313              		.global	lv_btnmatrix_get_map
 3314              		.syntax unified
 3315              		.thumb
 3316              		.thumb_func
 3318              	lv_btnmatrix_get_map:
 3319              	.LVL303:
 3320              	.LFB166:
 293:lvgl/src/widgets/lv_btnmatrix.c ****     LV_ASSERT_OBJ(obj, MY_CLASS);
 3321              		.loc 1 293 1 is_stmt 1 view -0
 3322              		.cfi_startproc
 3323              		@ args = 0, pretend = 0, frame = 0
 3324              		@ frame_needed = 0, uses_anonymous_args = 0
 3325              		@ link register save eliminated.
 294:lvgl/src/widgets/lv_btnmatrix.c **** 
 3326              		.loc 1 294 5 view .LVU1085
 294:lvgl/src/widgets/lv_btnmatrix.c **** 
 3327              		.loc 1 294 5 view .LVU1086
 294:lvgl/src/widgets/lv_btnmatrix.c **** 
 3328              		.loc 1 294 5 view .LVU1087
 296:lvgl/src/widgets/lv_btnmatrix.c ****     return btnm->map_p;
 3329              		.loc 1 296 5 view .LVU1088
 296:lvgl/src/widgets/lv_btnmatrix.c ****     return btnm->map_p;
 3330              		.loc 1 296 51 view .LVU1089
 297:lvgl/src/widgets/lv_btnmatrix.c **** }
 3331              		.loc 1 297 5 view .LVU1090
 298:lvgl/src/widgets/lv_btnmatrix.c **** 
 3332              		.loc 1 298 1 is_stmt 0 view .LVU1091
 3333 0000 406A     		ldr	r0, [r0, #36]
 3334              	.LVL304:
 298:lvgl/src/widgets/lv_btnmatrix.c **** 
 3335              		.loc 1 298 1 view .LVU1092
 3336 0002 7047     		bx	lr
 3337              		.cfi_endproc
 3338              	.LFE166:
 3340              		.section	.text.lv_btnmatrix_get_selected_btn,"ax",%progbits
 3341              		.align	1
 3342              		.global	lv_btnmatrix_get_selected_btn
 3343              		.syntax unified
 3344              		.thumb
 3345              		.thumb_func
 3347              	lv_btnmatrix_get_selected_btn:
 3348              	.LVL305:
 3349              	.LFB167:
 301:lvgl/src/widgets/lv_btnmatrix.c ****     LV_ASSERT_OBJ(obj, MY_CLASS);
 3350              		.loc 1 301 1 is_stmt 1 view -0
 3351              		.cfi_startproc
 3352              		@ args = 0, pretend = 0, frame = 0
 3353              		@ frame_needed = 0, uses_anonymous_args = 0
 3354              		@ link register save eliminated.
 302:lvgl/src/widgets/lv_btnmatrix.c **** 
 3355              		.loc 1 302 5 view .LVU1094
 302:lvgl/src/widgets/lv_btnmatrix.c **** 
 3356              		.loc 1 302 5 view .LVU1095
ARM GAS  C:\usertemp\ccuzpgLf.s 			page 106


 302:lvgl/src/widgets/lv_btnmatrix.c **** 
 3357              		.loc 1 302 5 view .LVU1096
 304:lvgl/src/widgets/lv_btnmatrix.c ****     return btnm->btn_id_sel;
 3358              		.loc 1 304 5 view .LVU1097
 304:lvgl/src/widgets/lv_btnmatrix.c ****     return btnm->btn_id_sel;
 3359              		.loc 1 304 51 view .LVU1098
 305:lvgl/src/widgets/lv_btnmatrix.c **** }
 3360              		.loc 1 305 5 view .LVU1099
 306:lvgl/src/widgets/lv_btnmatrix.c **** 
 3361              		.loc 1 306 1 is_stmt 0 view .LVU1100
 3362 0000 808E     		ldrh	r0, [r0, #52]
 3363              	.LVL306:
 306:lvgl/src/widgets/lv_btnmatrix.c **** 
 3364              		.loc 1 306 1 view .LVU1101
 3365 0002 7047     		bx	lr
 3366              		.cfi_endproc
 3367              	.LFE167:
 3369              		.section	.text.lv_btnmatrix_get_btn_text,"ax",%progbits
 3370              		.align	1
 3371              		.global	lv_btnmatrix_get_btn_text
 3372              		.syntax unified
 3373              		.thumb
 3374              		.thumb_func
 3376              	lv_btnmatrix_get_btn_text:
 3377              	.LVL307:
 3378              	.LFB168:
 309:lvgl/src/widgets/lv_btnmatrix.c ****     LV_ASSERT_OBJ(obj, MY_CLASS);
 3379              		.loc 1 309 1 is_stmt 1 view -0
 3380              		.cfi_startproc
 3381              		@ args = 0, pretend = 0, frame = 0
 3382              		@ frame_needed = 0, uses_anonymous_args = 0
 309:lvgl/src/widgets/lv_btnmatrix.c ****     LV_ASSERT_OBJ(obj, MY_CLASS);
 3383              		.loc 1 309 1 is_stmt 0 view .LVU1103
 3384 0000 2DE9F843 		push	{r3, r4, r5, r6, r7, r8, r9, lr}
 3385              	.LCFI32:
 3386              		.cfi_def_cfa_offset 32
 3387              		.cfi_offset 3, -32
 3388              		.cfi_offset 4, -28
 3389              		.cfi_offset 5, -24
 3390              		.cfi_offset 6, -20
 3391              		.cfi_offset 7, -16
 3392              		.cfi_offset 8, -12
 3393              		.cfi_offset 9, -8
 3394              		.cfi_offset 14, -4
 310:lvgl/src/widgets/lv_btnmatrix.c **** 
 3395              		.loc 1 310 5 is_stmt 1 view .LVU1104
 310:lvgl/src/widgets/lv_btnmatrix.c **** 
 3396              		.loc 1 310 5 view .LVU1105
 310:lvgl/src/widgets/lv_btnmatrix.c **** 
 3397              		.loc 1 310 5 view .LVU1106
 312:lvgl/src/widgets/lv_btnmatrix.c **** 
 3398              		.loc 1 312 5 view .LVU1107
 312:lvgl/src/widgets/lv_btnmatrix.c **** 
 3399              		.loc 1 312 7 is_stmt 0 view .LVU1108
 3400 0004 4FF6FF73 		movw	r3, #65535
 3401 0008 9942     		cmp	r1, r3
 3402 000a 23D0     		beq	.L191
ARM GAS  C:\usertemp\ccuzpgLf.s 			page 107


 3403 000c 8046     		mov	r8, r0
 3404 000e 0F46     		mov	r7, r1
 314:lvgl/src/widgets/lv_btnmatrix.c ****     if(btn_id > btnm->btn_cnt) return NULL;
 3405              		.loc 1 314 5 is_stmt 1 view .LVU1109
 3406              	.LVL308:
 315:lvgl/src/widgets/lv_btnmatrix.c **** 
 3407              		.loc 1 315 5 view .LVU1110
 315:lvgl/src/widgets/lv_btnmatrix.c **** 
 3408              		.loc 1 315 21 is_stmt 0 view .LVU1111
 3409 0010 B0F83090 		ldrh	r9, [r0, #48]
 315:lvgl/src/widgets/lv_btnmatrix.c **** 
 3410              		.loc 1 315 7 view .LVU1112
 3411 0014 8945     		cmp	r9, r1
 3412 0016 1FD3     		bcc	.L192
 318:lvgl/src/widgets/lv_btnmatrix.c **** 
 3413              		.loc 1 318 14 view .LVU1113
 3414 0018 0025     		movs	r5, #0
 317:lvgl/src/widgets/lv_btnmatrix.c ****     uint16_t btn_i = 0;
 3415              		.loc 1 317 14 view .LVU1114
 3416 001a 2E46     		mov	r6, r5
 3417 001c 00E0     		b	.L188
 3418              	.LVL309:
 3419              	.L189:
 309:lvgl/src/widgets/lv_btnmatrix.c ****     LV_ASSERT_OBJ(obj, MY_CLASS);
 3420              		.loc 1 309 1 view .LVU1115
 3421 001e 2646     		mov	r6, r4
 3422              	.LVL310:
 3423              	.L188:
 322:lvgl/src/widgets/lv_btnmatrix.c ****         btn_i++;
 3424              		.loc 1 322 17 is_stmt 1 view .LVU1116
 3425 0020 BD42     		cmp	r5, r7
 3426 0022 0FD0     		beq	.L195
 323:lvgl/src/widgets/lv_btnmatrix.c ****         txt_i++;
 3427              		.loc 1 323 9 view .LVU1117
 323:lvgl/src/widgets/lv_btnmatrix.c ****         txt_i++;
 3428              		.loc 1 323 14 is_stmt 0 view .LVU1118
 3429 0024 0135     		adds	r5, r5, #1
 3430              	.LVL311:
 323:lvgl/src/widgets/lv_btnmatrix.c ****         txt_i++;
 3431              		.loc 1 323 14 view .LVU1119
 3432 0026 ADB2     		uxth	r5, r5
 3433              	.LVL312:
 324:lvgl/src/widgets/lv_btnmatrix.c ****         if(strcmp(btnm->map_p[txt_i], "\n") == 0) txt_i++;
 3434              		.loc 1 324 9 is_stmt 1 view .LVU1120
 324:lvgl/src/widgets/lv_btnmatrix.c ****         if(strcmp(btnm->map_p[txt_i], "\n") == 0) txt_i++;
 3435              		.loc 1 324 14 is_stmt 0 view .LVU1121
 3436 0028 741C     		adds	r4, r6, #1
 3437 002a A4B2     		uxth	r4, r4
 3438              	.LVL313:
 325:lvgl/src/widgets/lv_btnmatrix.c ****     }
 3439              		.loc 1 325 9 is_stmt 1 view .LVU1122
 325:lvgl/src/widgets/lv_btnmatrix.c ****     }
 3440              		.loc 1 325 23 is_stmt 0 view .LVU1123
 3441 002c D8F82430 		ldr	r3, [r8, #36]
 325:lvgl/src/widgets/lv_btnmatrix.c ****     }
 3442              		.loc 1 325 12 view .LVU1124
 3443 0030 0B49     		ldr	r1, .L196
ARM GAS  C:\usertemp\ccuzpgLf.s 			page 108


 3444 0032 53F82400 		ldr	r0, [r3, r4, lsl #2]
 3445 0036 FFF7FEFF 		bl	strcmp
 3446              	.LVL314:
 325:lvgl/src/widgets/lv_btnmatrix.c ****     }
 3447              		.loc 1 325 11 discriminator 1 view .LVU1125
 3448 003a 0028     		cmp	r0, #0
 3449 003c EFD1     		bne	.L189
 325:lvgl/src/widgets/lv_btnmatrix.c ****     }
 3450              		.loc 1 325 51 is_stmt 1 discriminator 1 view .LVU1126
 325:lvgl/src/widgets/lv_btnmatrix.c ****     }
 3451              		.loc 1 325 56 is_stmt 0 discriminator 1 view .LVU1127
 3452 003e B41C     		adds	r4, r6, #2
 3453              	.LVL315:
 325:lvgl/src/widgets/lv_btnmatrix.c ****     }
 3454              		.loc 1 325 56 discriminator 1 view .LVU1128
 3455 0040 A4B2     		uxth	r4, r4
 3456              	.LVL316:
 325:lvgl/src/widgets/lv_btnmatrix.c ****     }
 3457              		.loc 1 325 56 discriminator 1 view .LVU1129
 3458 0042 ECE7     		b	.L189
 3459              	.LVL317:
 3460              	.L195:
 328:lvgl/src/widgets/lv_btnmatrix.c **** 
 3461              		.loc 1 328 5 is_stmt 1 view .LVU1130
 328:lvgl/src/widgets/lv_btnmatrix.c **** 
 3462              		.loc 1 328 7 is_stmt 0 view .LVU1131
 3463 0044 A945     		cmp	r9, r5
 3464 0046 09D0     		beq	.L193
 330:lvgl/src/widgets/lv_btnmatrix.c **** }
 3465              		.loc 1 330 5 is_stmt 1 view .LVU1132
 330:lvgl/src/widgets/lv_btnmatrix.c **** }
 3466              		.loc 1 330 16 is_stmt 0 view .LVU1133
 3467 0048 D8F82430 		ldr	r3, [r8, #36]
 330:lvgl/src/widgets/lv_btnmatrix.c **** }
 3468              		.loc 1 330 23 view .LVU1134
 3469 004c 53F82600 		ldr	r0, [r3, r6, lsl #2]
 3470              	.LVL318:
 3471              	.L186:
 331:lvgl/src/widgets/lv_btnmatrix.c **** 
 3472              		.loc 1 331 1 view .LVU1135
 3473 0050 BDE8F883 		pop	{r3, r4, r5, r6, r7, r8, r9, pc}
 3474              	.LVL319:
 3475              	.L191:
 312:lvgl/src/widgets/lv_btnmatrix.c **** 
 3476              		.loc 1 312 48 discriminator 1 view .LVU1136
 3477 0054 0020     		movs	r0, #0
 3478              	.LVL320:
 312:lvgl/src/widgets/lv_btnmatrix.c **** 
 3479              		.loc 1 312 48 discriminator 1 view .LVU1137
 3480 0056 FBE7     		b	.L186
 3481              	.LVL321:
 3482              	.L192:
 315:lvgl/src/widgets/lv_btnmatrix.c **** 
 3483              		.loc 1 315 39 discriminator 1 view .LVU1138
 3484 0058 0020     		movs	r0, #0
 3485              	.LVL322:
 315:lvgl/src/widgets/lv_btnmatrix.c **** 
ARM GAS  C:\usertemp\ccuzpgLf.s 			page 109


 3486              		.loc 1 315 39 discriminator 1 view .LVU1139
 3487 005a F9E7     		b	.L186
 3488              	.LVL323:
 3489              	.L193:
 328:lvgl/src/widgets/lv_btnmatrix.c **** 
 3490              		.loc 1 328 39 discriminator 1 view .LVU1140
 3491 005c 0020     		movs	r0, #0
 3492 005e F7E7     		b	.L186
 3493              	.L197:
 3494              		.align	2
 3495              	.L196:
 3496 0060 00000000 		.word	.LC0
 3497              		.cfi_endproc
 3498              	.LFE168:
 3500              		.section	.text.lv_btnmatrix_has_btn_ctrl,"ax",%progbits
 3501              		.align	1
 3502              		.global	lv_btnmatrix_has_btn_ctrl
 3503              		.syntax unified
 3504              		.thumb
 3505              		.thumb_func
 3507              	lv_btnmatrix_has_btn_ctrl:
 3508              	.LVL324:
 3509              	.LFB169:
 334:lvgl/src/widgets/lv_btnmatrix.c ****     LV_ASSERT_OBJ(obj, MY_CLASS);
 3510              		.loc 1 334 1 is_stmt 1 view -0
 3511              		.cfi_startproc
 3512              		@ args = 0, pretend = 0, frame = 0
 3513              		@ frame_needed = 0, uses_anonymous_args = 0
 3514              		@ link register save eliminated.
 335:lvgl/src/widgets/lv_btnmatrix.c **** 
 3515              		.loc 1 335 5 view .LVU1142
 335:lvgl/src/widgets/lv_btnmatrix.c **** 
 3516              		.loc 1 335 5 view .LVU1143
 335:lvgl/src/widgets/lv_btnmatrix.c **** 
 3517              		.loc 1 335 5 view .LVU1144
 337:lvgl/src/widgets/lv_btnmatrix.c ****     if(btn_id >= btnm->btn_cnt) return false;
 3518              		.loc 1 337 5 view .LVU1145
 337:lvgl/src/widgets/lv_btnmatrix.c ****     if(btn_id >= btnm->btn_cnt) return false;
 3519              		.loc 1 337 51 view .LVU1146
 338:lvgl/src/widgets/lv_btnmatrix.c **** 
 3520              		.loc 1 338 5 view .LVU1147
 338:lvgl/src/widgets/lv_btnmatrix.c **** 
 3521              		.loc 1 338 22 is_stmt 0 view .LVU1148
 3522 0000 038E     		ldrh	r3, [r0, #48]
 338:lvgl/src/widgets/lv_btnmatrix.c **** 
 3523              		.loc 1 338 7 view .LVU1149
 3524 0002 8B42     		cmp	r3, r1
 3525 0004 07D9     		bls	.L200
 340:lvgl/src/widgets/lv_btnmatrix.c **** }
 3526              		.loc 1 340 5 is_stmt 1 view .LVU1150
 340:lvgl/src/widgets/lv_btnmatrix.c **** }
 3527              		.loc 1 340 18 is_stmt 0 view .LVU1151
 3528 0006 C36A     		ldr	r3, [r0, #44]
 340:lvgl/src/widgets/lv_btnmatrix.c **** }
 3529              		.loc 1 340 29 view .LVU1152
 3530 0008 33F81130 		ldrh	r3, [r3, r1, lsl #1]
 340:lvgl/src/widgets/lv_btnmatrix.c **** }
ARM GAS  C:\usertemp\ccuzpgLf.s 			page 110


 3531              		.loc 1 340 62 view .LVU1153
 3532 000c 9A43     		bics	r2, r2, r3
 3533              	.LVL325:
 340:lvgl/src/widgets/lv_btnmatrix.c **** }
 3534              		.loc 1 340 62 view .LVU1154
 3535 000e 0CBF     		ite	eq
 3536 0010 0120     		moveq	r0, #1
 3537              	.LVL326:
 340:lvgl/src/widgets/lv_btnmatrix.c **** }
 3538              		.loc 1 340 62 view .LVU1155
 3539 0012 0020     		movne	r0, #0
 3540 0014 7047     		bx	lr
 3541              	.LVL327:
 3542              	.L200:
 338:lvgl/src/widgets/lv_btnmatrix.c **** 
 3543              		.loc 1 338 40 discriminator 1 view .LVU1156
 3544 0016 0020     		movs	r0, #0
 3545              	.LVL328:
 341:lvgl/src/widgets/lv_btnmatrix.c **** 
 3546              		.loc 1 341 1 view .LVU1157
 3547 0018 7047     		bx	lr
 3548              		.cfi_endproc
 3549              	.LFE169:
 3551              		.section	.text.make_one_button_checked,"ax",%progbits
 3552              		.align	1
 3553              		.syntax unified
 3554              		.thumb
 3555              		.thumb_func
 3557              	make_one_button_checked:
 3558              	.LVL329:
 3559              	.LFB188:
1016:lvgl/src/widgets/lv_btnmatrix.c ****     /*Save whether the button was toggled*/
 3560              		.loc 1 1016 1 is_stmt 1 view -0
 3561              		.cfi_startproc
 3562              		@ args = 0, pretend = 0, frame = 0
 3563              		@ frame_needed = 0, uses_anonymous_args = 0
1016:lvgl/src/widgets/lv_btnmatrix.c ****     /*Save whether the button was toggled*/
 3564              		.loc 1 1016 1 is_stmt 0 view .LVU1159
 3565 0000 70B5     		push	{r4, r5, r6, lr}
 3566              	.LCFI33:
 3567              		.cfi_def_cfa_offset 16
 3568              		.cfi_offset 4, -16
 3569              		.cfi_offset 5, -12
 3570              		.cfi_offset 6, -8
 3571              		.cfi_offset 14, -4
 3572 0002 0446     		mov	r4, r0
 3573 0004 0E46     		mov	r6, r1
1018:lvgl/src/widgets/lv_btnmatrix.c **** 
 3574              		.loc 1 1018 5 is_stmt 1 view .LVU1160
1018:lvgl/src/widgets/lv_btnmatrix.c **** 
 3575              		.loc 1 1018 24 is_stmt 0 view .LVU1161
 3576 0006 8022     		movs	r2, #128
 3577 0008 FFF7FEFF 		bl	lv_btnmatrix_has_btn_ctrl
 3578              	.LVL330:
1018:lvgl/src/widgets/lv_btnmatrix.c **** 
 3579              		.loc 1 1018 24 view .LVU1162
 3580 000c 0546     		mov	r5, r0
ARM GAS  C:\usertemp\ccuzpgLf.s 			page 111


 3581              	.LVL331:
1020:lvgl/src/widgets/lv_btnmatrix.c **** 
 3582              		.loc 1 1020 5 is_stmt 1 view .LVU1163
 3583 000e 8021     		movs	r1, #128
 3584 0010 2046     		mov	r0, r4
 3585 0012 FFF7FEFF 		bl	lv_btnmatrix_clear_btn_ctrl_all
 3586              	.LVL332:
1022:lvgl/src/widgets/lv_btnmatrix.c **** }
 3587              		.loc 1 1022 5 view .LVU1164
1022:lvgl/src/widgets/lv_btnmatrix.c **** }
 3588              		.loc 1 1022 7 is_stmt 0 view .LVU1165
 3589 0016 05B9     		cbnz	r5, .L204
 3590              	.L201:
1023:lvgl/src/widgets/lv_btnmatrix.c **** 
 3591              		.loc 1 1023 1 view .LVU1166
 3592 0018 70BD     		pop	{r4, r5, r6, pc}
 3593              	.LVL333:
 3594              	.L204:
1022:lvgl/src/widgets/lv_btnmatrix.c **** }
 3595              		.loc 1 1022 21 is_stmt 1 discriminator 1 view .LVU1167
 3596 001a 8022     		movs	r2, #128
 3597 001c 3146     		mov	r1, r6
 3598 001e 2046     		mov	r0, r4
 3599 0020 FFF7FEFF 		bl	lv_btnmatrix_set_btn_ctrl
 3600              	.LVL334:
1023:lvgl/src/widgets/lv_btnmatrix.c **** 
 3601              		.loc 1 1023 1 is_stmt 0 view .LVU1168
 3602 0024 F8E7     		b	.L201
 3603              		.cfi_endproc
 3604              	.LFE188:
 3606              		.section	.text.lv_btnmatrix_event,"ax",%progbits
 3607              		.align	1
 3608              		.syntax unified
 3609              		.thumb
 3610              		.thumb_func
 3612              	lv_btnmatrix_event:
 3613              	.LVL335:
 3614              	.LFB173:
 387:lvgl/src/widgets/lv_btnmatrix.c ****     LV_UNUSED(class_p);
 3615              		.loc 1 387 1 is_stmt 1 view -0
 3616              		.cfi_startproc
 3617              		@ args = 0, pretend = 0, frame = 8
 3618              		@ frame_needed = 0, uses_anonymous_args = 0
 387:lvgl/src/widgets/lv_btnmatrix.c ****     LV_UNUSED(class_p);
 3619              		.loc 1 387 1 is_stmt 0 view .LVU1170
 3620 0000 2DE9F04F 		push	{r4, r5, r6, r7, r8, r9, r10, fp, lr}
 3621              	.LCFI34:
 3622              		.cfi_def_cfa_offset 36
 3623              		.cfi_offset 4, -36
 3624              		.cfi_offset 5, -32
 3625              		.cfi_offset 6, -28
 3626              		.cfi_offset 7, -24
 3627              		.cfi_offset 8, -20
 3628              		.cfi_offset 9, -16
 3629              		.cfi_offset 10, -12
 3630              		.cfi_offset 11, -8
 3631              		.cfi_offset 14, -4
ARM GAS  C:\usertemp\ccuzpgLf.s 			page 112


 3632 0004 83B0     		sub	sp, sp, #12
 3633              	.LCFI35:
 3634              		.cfi_def_cfa_offset 48
 3635 0006 0D46     		mov	r5, r1
 388:lvgl/src/widgets/lv_btnmatrix.c **** 
 3636              		.loc 1 388 5 is_stmt 1 view .LVU1171
 390:lvgl/src/widgets/lv_btnmatrix.c **** 
 3637              		.loc 1 390 5 view .LVU1172
 393:lvgl/src/widgets/lv_btnmatrix.c ****     if(res != LV_RES_OK) return;
 3638              		.loc 1 393 5 view .LVU1173
 393:lvgl/src/widgets/lv_btnmatrix.c ****     if(res != LV_RES_OK) return;
 3639              		.loc 1 393 11 is_stmt 0 view .LVU1174
 3640 0008 C548     		ldr	r0, .L300
 3641              	.LVL336:
 393:lvgl/src/widgets/lv_btnmatrix.c ****     if(res != LV_RES_OK) return;
 3642              		.loc 1 393 11 view .LVU1175
 3643 000a FFF7FEFF 		bl	lv_obj_event_base
 3644              	.LVL337:
 394:lvgl/src/widgets/lv_btnmatrix.c **** 
 3645              		.loc 1 394 5 is_stmt 1 view .LVU1176
 394:lvgl/src/widgets/lv_btnmatrix.c **** 
 3646              		.loc 1 394 7 is_stmt 0 view .LVU1177
 3647 000e 0128     		cmp	r0, #1
 3648 0010 02D0     		beq	.L284
 3649              	.LVL338:
 3650              	.L205:
 647:lvgl/src/widgets/lv_btnmatrix.c **** 
 3651              		.loc 1 647 1 view .LVU1178
 3652 0012 03B0     		add	sp, sp, #12
 3653              	.LCFI36:
 3654              		.cfi_remember_state
 3655              		.cfi_def_cfa_offset 36
 3656              		@ sp needed
 3657 0014 BDE8F08F 		pop	{r4, r5, r6, r7, r8, r9, r10, fp, pc}
 3658              	.LVL339:
 3659              	.L284:
 3660              	.LCFI37:
 3661              		.cfi_restore_state
 396:lvgl/src/widgets/lv_btnmatrix.c ****     lv_obj_t * obj = lv_event_get_target(e);
 3662              		.loc 1 396 5 is_stmt 1 view .LVU1179
 396:lvgl/src/widgets/lv_btnmatrix.c ****     lv_obj_t * obj = lv_event_get_target(e);
 3663              		.loc 1 396 28 is_stmt 0 view .LVU1180
 3664 0018 2846     		mov	r0, r5
 3665              	.LVL340:
 396:lvgl/src/widgets/lv_btnmatrix.c ****     lv_obj_t * obj = lv_event_get_target(e);
 3666              		.loc 1 396 28 view .LVU1181
 3667 001a FFF7FEFF 		bl	lv_event_get_code
 3668              	.LVL341:
 3669 001e 0446     		mov	r4, r0
 3670              	.LVL342:
 397:lvgl/src/widgets/lv_btnmatrix.c ****     lv_btnmatrix_t * btnm = (lv_btnmatrix_t *)obj;
 3671              		.loc 1 397 5 is_stmt 1 view .LVU1182
 397:lvgl/src/widgets/lv_btnmatrix.c ****     lv_btnmatrix_t * btnm = (lv_btnmatrix_t *)obj;
 3672              		.loc 1 397 22 is_stmt 0 view .LVU1183
 3673 0020 2846     		mov	r0, r5
 3674 0022 FFF7FEFF 		bl	lv_event_get_target
 3675              	.LVL343:
ARM GAS  C:\usertemp\ccuzpgLf.s 			page 113


 3676 0026 0646     		mov	r6, r0
 3677              	.LVL344:
 398:lvgl/src/widgets/lv_btnmatrix.c ****     lv_point_t p;
 3678              		.loc 1 398 5 is_stmt 1 view .LVU1184
 399:lvgl/src/widgets/lv_btnmatrix.c **** 
 3679              		.loc 1 399 5 view .LVU1185
 401:lvgl/src/widgets/lv_btnmatrix.c ****         lv_coord_t * s = lv_event_get_param(e);
 3680              		.loc 1 401 5 view .LVU1186
 401:lvgl/src/widgets/lv_btnmatrix.c ****         lv_coord_t * s = lv_event_get_param(e);
 3681              		.loc 1 401 7 is_stmt 0 view .LVU1187
 3682 0028 132C     		cmp	r4, #19
 3683 002a 59D0     		beq	.L285
 3684              	.LVL345:
 3685              	.L207:
 411:lvgl/src/widgets/lv_btnmatrix.c ****         lv_btnmatrix_set_map(obj, btnm->map_p);
 3686              		.loc 1 411 5 is_stmt 1 view .LVU1188
 3687 002c 013C     		subs	r4, r4, #1
 3688              	.LVL346:
 411:lvgl/src/widgets/lv_btnmatrix.c ****         lv_btnmatrix_set_map(obj, btnm->map_p);
 3689              		.loc 1 411 5 is_stmt 0 view .LVU1189
 3690 002e 292C     		cmp	r4, #41
 3691 0030 EFD8     		bhi	.L205
 3692 0032 01A3     		adr	r3, .L212
 3693 0034 53F824F0 		ldr	pc, [r3, r4, lsl #2]
 3694              		.p2align 2
 3695              	.L212:
 3696 0038 25010000 		.word	.L222+1
 3697 003c D5010000 		.word	.L221+1
 3698 0040 69030000 		.word	.L220+1
 3699 0044 13000000 		.word	.L205+1
 3700 0048 13000000 		.word	.L205+1
 3701 004c 25030000 		.word	.L219+1
 3702 0050 13000000 		.word	.L205+1
 3703 0054 81020000 		.word	.L218+1
 3704 0058 13000000 		.word	.L205+1
 3705 005c 13000000 		.word	.L205+1
 3706 0060 13000000 		.word	.L205+1
 3707 0064 13000000 		.word	.L205+1
 3708 0068 3B040000 		.word	.L217+1
 3709 006c 79030000 		.word	.L216+1
 3710 0070 21040000 		.word	.L215+1
 3711 0074 21040000 		.word	.L215+1
 3712 0078 13000000 		.word	.L205+1
 3713 007c 13000000 		.word	.L205+1
 3714 0080 13000000 		.word	.L205+1
 3715 0084 13000000 		.word	.L205+1
 3716 0088 7F060000 		.word	.L214+1
 3717 008c 13000000 		.word	.L205+1
 3718 0090 13000000 		.word	.L205+1
 3719 0094 13000000 		.word	.L205+1
 3720 0098 13000000 		.word	.L205+1
 3721 009c 13000000 		.word	.L205+1
 3722 00a0 13000000 		.word	.L205+1
 3723 00a4 13000000 		.word	.L205+1
 3724 00a8 13000000 		.word	.L205+1
 3725 00ac 13000000 		.word	.L205+1
 3726 00b0 13000000 		.word	.L205+1
ARM GAS  C:\usertemp\ccuzpgLf.s 			page 114


 3727 00b4 13000000 		.word	.L205+1
 3728 00b8 13000000 		.word	.L205+1
 3729 00bc 13000000 		.word	.L205+1
 3730 00c0 13000000 		.word	.L205+1
 3731 00c4 13000000 		.word	.L205+1
 3732 00c8 13000000 		.word	.L205+1
 3733 00cc 13000000 		.word	.L205+1
 3734 00d0 13000000 		.word	.L205+1
 3735 00d4 13000000 		.word	.L205+1
 3736 00d8 1B010000 		.word	.L213+1
 3737 00dc 11010000 		.word	.L211+1
 3738              	.LVL347:
 3739              		.p2align 1
 3740              	.L285:
 3741              	.LBB136:
 402:lvgl/src/widgets/lv_btnmatrix.c ****         if(has_popovers_in_top_row(obj)) {
 3742              		.loc 1 402 9 is_stmt 1 view .LVU1190
 402:lvgl/src/widgets/lv_btnmatrix.c ****         if(has_popovers_in_top_row(obj)) {
 3743              		.loc 1 402 26 is_stmt 0 view .LVU1191
 3744 00e0 2846     		mov	r0, r5
 3745              	.LVL348:
 402:lvgl/src/widgets/lv_btnmatrix.c ****         if(has_popovers_in_top_row(obj)) {
 3746              		.loc 1 402 26 view .LVU1192
 3747 00e2 FFF7FEFF 		bl	lv_event_get_param
 3748              	.LVL349:
 3749 00e6 0746     		mov	r7, r0
 3750              	.LVL350:
 403:lvgl/src/widgets/lv_btnmatrix.c ****             /*reserve one row worth of extra space to account for popovers in the top row*/
 3751              		.loc 1 403 9 is_stmt 1 view .LVU1193
 403:lvgl/src/widgets/lv_btnmatrix.c ****             /*reserve one row worth of extra space to account for popovers in the top row*/
 3752              		.loc 1 403 12 is_stmt 0 view .LVU1194
 3753 00e8 3046     		mov	r0, r6
 3754              	.LVL351:
 403:lvgl/src/widgets/lv_btnmatrix.c ****             /*reserve one row worth of extra space to account for popovers in the top row*/
 3755              		.loc 1 403 12 view .LVU1195
 3756 00ea FFF7FEFF 		bl	has_popovers_in_top_row
 3757              	.LVL352:
 403:lvgl/src/widgets/lv_btnmatrix.c ****             /*reserve one row worth of extra space to account for popovers in the top row*/
 3758              		.loc 1 403 11 discriminator 1 view .LVU1196
 3759 00ee 60B1     		cbz	r0, .L208
 405:lvgl/src/widgets/lv_btnmatrix.c ****         }
 3760              		.loc 1 405 13 is_stmt 1 view .LVU1197
 405:lvgl/src/widgets/lv_btnmatrix.c ****         }
 3761              		.loc 1 405 22 is_stmt 0 view .LVU1198
 3762 00f0 738E     		ldrh	r3, [r6, #50]
 405:lvgl/src/widgets/lv_btnmatrix.c ****         }
 3763              		.loc 1 405 16 view .LVU1199
 3764 00f2 13B9     		cbnz	r3, .L286
 405:lvgl/src/widgets/lv_btnmatrix.c ****         }
 3765              		.loc 1 405 16 discriminator 2 view .LVU1200
 3766 00f4 0023     		movs	r3, #0
 3767              	.L209:
 405:lvgl/src/widgets/lv_btnmatrix.c ****         }
 3768              		.loc 1 405 16 discriminator 4 view .LVU1201
 3769 00f6 3B80     		strh	r3, [r7]	@ movhi
 3770 00f8 98E7     		b	.L207
 3771              	.L286:
ARM GAS  C:\usertemp\ccuzpgLf.s 			page 115


 405:lvgl/src/widgets/lv_btnmatrix.c ****         }
 3772              		.loc 1 405 38 discriminator 1 view .LVU1202
 3773 00fa 3046     		mov	r0, r6
 3774 00fc FFF7FEFF 		bl	lv_obj_get_content_height
 3775              	.LVL353:
 405:lvgl/src/widgets/lv_btnmatrix.c ****         }
 3776              		.loc 1 405 75 discriminator 1 view .LVU1203
 3777 0100 738E     		ldrh	r3, [r6, #50]
 405:lvgl/src/widgets/lv_btnmatrix.c ****         }
 3778              		.loc 1 405 69 discriminator 1 view .LVU1204
 3779 0102 90FBF3F3 		sdiv	r3, r0, r3
 405:lvgl/src/widgets/lv_btnmatrix.c ****         }
 3780              		.loc 1 405 16 discriminator 1 view .LVU1205
 3781 0106 1BB2     		sxth	r3, r3
 3782 0108 F5E7     		b	.L209
 3783              	.L208:
 408:lvgl/src/widgets/lv_btnmatrix.c ****         }
 3784              		.loc 1 408 13 is_stmt 1 view .LVU1206
 408:lvgl/src/widgets/lv_btnmatrix.c ****         }
 3785              		.loc 1 408 16 is_stmt 0 view .LVU1207
 3786 010a 0023     		movs	r3, #0
 3787 010c 3B80     		strh	r3, [r7]	@ movhi
 3788 010e 8DE7     		b	.L207
 3789              	.LVL354:
 3790              	.L211:
 408:lvgl/src/widgets/lv_btnmatrix.c ****         }
 3791              		.loc 1 408 16 view .LVU1208
 3792              	.LBE136:
 412:lvgl/src/widgets/lv_btnmatrix.c ****     }
 3793              		.loc 1 412 9 is_stmt 1 view .LVU1209
 3794 0110 716A     		ldr	r1, [r6, #36]
 3795 0112 3046     		mov	r0, r6
 3796 0114 FFF7FEFF 		bl	lv_btnmatrix_set_map
 3797              	.LVL355:
 3798 0118 7BE7     		b	.L205
 3799              	.L213:
 415:lvgl/src/widgets/lv_btnmatrix.c ****     }
 3800              		.loc 1 415 9 view .LVU1210
 3801 011a 716A     		ldr	r1, [r6, #36]
 3802 011c 3046     		mov	r0, r6
 3803 011e FFF7FEFF 		bl	lv_btnmatrix_set_map
 3804              	.LVL356:
 3805 0122 76E7     		b	.L205
 3806              	.L222:
 3807              	.LBB137:
 418:lvgl/src/widgets/lv_btnmatrix.c ****         invalidate_button_area(obj, btnm->btn_id_sel);
 3808              		.loc 1 418 9 view .LVU1211
 418:lvgl/src/widgets/lv_btnmatrix.c ****         invalidate_button_area(obj, btnm->btn_id_sel);
 3809              		.loc 1 418 24 is_stmt 0 view .LVU1212
 3810 0124 2846     		mov	r0, r5
 3811 0126 FFF7FEFF 		bl	lv_event_get_param
 3812              	.LVL357:
 3813 012a 0446     		mov	r4, r0
 3814              	.LVL358:
 419:lvgl/src/widgets/lv_btnmatrix.c **** 
 3815              		.loc 1 419 9 is_stmt 1 view .LVU1213
 3816 012c B18E     		ldrh	r1, [r6, #52]
ARM GAS  C:\usertemp\ccuzpgLf.s 			page 116


 3817 012e 3046     		mov	r0, r6
 3818              	.LVL359:
 419:lvgl/src/widgets/lv_btnmatrix.c **** 
 3819              		.loc 1 419 9 is_stmt 0 view .LVU1214
 3820 0130 FFF7FEFF 		bl	invalidate_button_area
 3821              	.LVL360:
 421:lvgl/src/widgets/lv_btnmatrix.c ****         if(indev_type == LV_INDEV_TYPE_POINTER || indev_type == LV_INDEV_TYPE_BUTTON) {
 3822              		.loc 1 421 9 is_stmt 1 view .LVU1215
 421:lvgl/src/widgets/lv_btnmatrix.c ****         if(indev_type == LV_INDEV_TYPE_POINTER || indev_type == LV_INDEV_TYPE_BUTTON) {
 3823              		.loc 1 421 56 is_stmt 0 view .LVU1216
 3824 0134 FFF7FEFF 		bl	lv_indev_get_act
 3825              	.LVL361:
 421:lvgl/src/widgets/lv_btnmatrix.c ****         if(indev_type == LV_INDEV_TYPE_POINTER || indev_type == LV_INDEV_TYPE_BUTTON) {
 3826              		.loc 1 421 38 discriminator 1 view .LVU1217
 3827 0138 FFF7FEFF 		bl	lv_indev_get_type
 3828              	.LVL362:
 422:lvgl/src/widgets/lv_btnmatrix.c ****             uint16_t btn_pr;
 3829              		.loc 1 422 9 is_stmt 1 view .LVU1218
 422:lvgl/src/widgets/lv_btnmatrix.c ****             uint16_t btn_pr;
 3830              		.loc 1 422 11 is_stmt 0 view .LVU1219
 3831 013c 0328     		cmp	r0, #3
 3832 013e 18BF     		it	ne
 3833 0140 0128     		cmpne	r0, #1
 3834 0142 27D0     		beq	.L287
 3835              	.LVL363:
 3836              	.L223:
 437:lvgl/src/widgets/lv_btnmatrix.c ****             if(button_is_click_trig(btnm->ctrl_bits[btnm->btn_id_sel]) == false &&
 3837              		.loc 1 437 9 is_stmt 1 view .LVU1220
 437:lvgl/src/widgets/lv_btnmatrix.c ****             if(button_is_click_trig(btnm->ctrl_bits[btnm->btn_id_sel]) == false &&
 3838              		.loc 1 437 16 is_stmt 0 view .LVU1221
 3839 0144 B48E     		ldrh	r4, [r6, #52]
 437:lvgl/src/widgets/lv_btnmatrix.c ****             if(button_is_click_trig(btnm->ctrl_bits[btnm->btn_id_sel]) == false &&
 3840              		.loc 1 437 11 view .LVU1222
 3841 0146 4FF6FF73 		movw	r3, #65535
 3842 014a 9C42     		cmp	r4, r3
 3843 014c 3FF461AF 		beq	.L205
 438:lvgl/src/widgets/lv_btnmatrix.c ****                button_is_popover(btnm->ctrl_bits[btnm->btn_id_sel]) == false &&
 3844              		.loc 1 438 13 is_stmt 1 view .LVU1223
 438:lvgl/src/widgets/lv_btnmatrix.c ****                button_is_popover(btnm->ctrl_bits[btnm->btn_id_sel]) == false &&
 3845              		.loc 1 438 41 is_stmt 0 view .LVU1224
 3846 0150 F36A     		ldr	r3, [r6, #44]
 438:lvgl/src/widgets/lv_btnmatrix.c ****                button_is_popover(btnm->ctrl_bits[btnm->btn_id_sel]) == false &&
 3847              		.loc 1 438 16 view .LVU1225
 3848 0152 33F81450 		ldrh	r5, [r3, r4, lsl #1]
 3849 0156 2846     		mov	r0, r5
 3850 0158 FFF7FEFF 		bl	button_is_click_trig
 3851              	.LVL364:
 438:lvgl/src/widgets/lv_btnmatrix.c ****                button_is_popover(btnm->ctrl_bits[btnm->btn_id_sel]) == false &&
 3852              		.loc 1 438 15 discriminator 1 view .LVU1226
 3853 015c 0028     		cmp	r0, #0
 3854 015e 7FF458AF 		bne	.L205
 439:lvgl/src/widgets/lv_btnmatrix.c ****                button_is_inactive(btnm->ctrl_bits[btnm->btn_id_sel]) == false &&
 3855              		.loc 1 439 16 view .LVU1227
 3856 0162 2846     		mov	r0, r5
 3857 0164 FFF7FEFF 		bl	button_is_popover
 3858              	.LVL365:
 438:lvgl/src/widgets/lv_btnmatrix.c ****                button_is_popover(btnm->ctrl_bits[btnm->btn_id_sel]) == false &&
ARM GAS  C:\usertemp\ccuzpgLf.s 			page 117


 3859              		.loc 1 438 81 discriminator 1 view .LVU1228
 3860 0168 0028     		cmp	r0, #0
 3861 016a 7FF452AF 		bne	.L205
 440:lvgl/src/widgets/lv_btnmatrix.c ****                button_is_hidden(btnm->ctrl_bits[btnm->btn_id_sel]) == false) {
 3862              		.loc 1 440 16 view .LVU1229
 3863 016e 2846     		mov	r0, r5
 3864 0170 FFF7FEFF 		bl	button_is_inactive
 3865              	.LVL366:
 439:lvgl/src/widgets/lv_btnmatrix.c ****                button_is_inactive(btnm->ctrl_bits[btnm->btn_id_sel]) == false &&
 3866              		.loc 1 439 78 view .LVU1230
 3867 0174 0028     		cmp	r0, #0
 3868 0176 7FF44CAF 		bne	.L205
 441:lvgl/src/widgets/lv_btnmatrix.c ****                 uint32_t b = btnm->btn_id_sel;
 3869              		.loc 1 441 16 view .LVU1231
 3870 017a 2846     		mov	r0, r5
 3871 017c FFF7FEFF 		bl	button_is_hidden
 3872              	.LVL367:
 440:lvgl/src/widgets/lv_btnmatrix.c ****                button_is_hidden(btnm->ctrl_bits[btnm->btn_id_sel]) == false) {
 3873              		.loc 1 440 79 view .LVU1232
 3874 0180 0028     		cmp	r0, #0
 3875 0182 7FF446AF 		bne	.L205
 3876              	.LBB138:
 442:lvgl/src/widgets/lv_btnmatrix.c ****                 res        = lv_event_send(obj, LV_EVENT_VALUE_CHANGED, &b);
 3877              		.loc 1 442 17 is_stmt 1 view .LVU1233
 442:lvgl/src/widgets/lv_btnmatrix.c ****                 res        = lv_event_send(obj, LV_EVENT_VALUE_CHANGED, &b);
 3878              		.loc 1 442 26 is_stmt 0 view .LVU1234
 3879 0186 0094     		str	r4, [sp]
 443:lvgl/src/widgets/lv_btnmatrix.c ****                 if(res != LV_RES_OK) return;
 3880              		.loc 1 443 17 is_stmt 1 view .LVU1235
 443:lvgl/src/widgets/lv_btnmatrix.c ****                 if(res != LV_RES_OK) return;
 3881              		.loc 1 443 30 is_stmt 0 view .LVU1236
 3882 0188 6A46     		mov	r2, sp
 3883 018a 1C21     		movs	r1, #28
 3884 018c 3046     		mov	r0, r6
 3885 018e FFF7FEFF 		bl	lv_event_send
 3886              	.LVL368:
 444:lvgl/src/widgets/lv_btnmatrix.c ****             }
 3887              		.loc 1 444 17 is_stmt 1 view .LVU1237
 3888 0192 3EE7     		b	.L205
 3889              	.LVL369:
 3890              	.L287:
 444:lvgl/src/widgets/lv_btnmatrix.c ****             }
 3891              		.loc 1 444 17 is_stmt 0 view .LVU1238
 3892              	.LBE138:
 3893              	.LBB139:
 423:lvgl/src/widgets/lv_btnmatrix.c ****             /*Search the pressed area*/
 3894              		.loc 1 423 13 is_stmt 1 view .LVU1239
 425:lvgl/src/widgets/lv_btnmatrix.c ****             btn_pr = get_button_from_point(obj, &p);
 3895              		.loc 1 425 13 view .LVU1240
 3896 0194 01A9     		add	r1, sp, #4
 3897 0196 2046     		mov	r0, r4
 3898              	.LVL370:
 425:lvgl/src/widgets/lv_btnmatrix.c ****             btn_pr = get_button_from_point(obj, &p);
 3899              		.loc 1 425 13 is_stmt 0 view .LVU1241
 3900 0198 FFF7FEFF 		bl	lv_indev_get_point
 3901              	.LVL371:
 426:lvgl/src/widgets/lv_btnmatrix.c ****             /*Handle the case where there is no button there*/
ARM GAS  C:\usertemp\ccuzpgLf.s 			page 118


 3902              		.loc 1 426 13 is_stmt 1 view .LVU1242
 426:lvgl/src/widgets/lv_btnmatrix.c ****             /*Handle the case where there is no button there*/
 3903              		.loc 1 426 22 is_stmt 0 view .LVU1243
 3904 019c 01A9     		add	r1, sp, #4
 3905 019e 3046     		mov	r0, r6
 3906 01a0 FFF7FEFF 		bl	get_button_from_point
 3907              	.LVL372:
 3908 01a4 0446     		mov	r4, r0
 3909              	.LVL373:
 428:lvgl/src/widgets/lv_btnmatrix.c ****                 if(button_is_inactive(btnm->ctrl_bits[btn_pr]) == false &&
 3910              		.loc 1 428 13 is_stmt 1 view .LVU1244
 428:lvgl/src/widgets/lv_btnmatrix.c ****                 if(button_is_inactive(btnm->ctrl_bits[btn_pr]) == false &&
 3911              		.loc 1 428 15 is_stmt 0 view .LVU1245
 3912 01a6 4FF6FF73 		movw	r3, #65535
 3913 01aa 9842     		cmp	r0, r3
 3914 01ac CAD0     		beq	.L223
 429:lvgl/src/widgets/lv_btnmatrix.c ****                    button_is_hidden(btnm->ctrl_bits[btn_pr]) == false) {
 3915              		.loc 1 429 17 is_stmt 1 view .LVU1246
 429:lvgl/src/widgets/lv_btnmatrix.c ****                    button_is_hidden(btnm->ctrl_bits[btn_pr]) == false) {
 3916              		.loc 1 429 43 is_stmt 0 view .LVU1247
 3917 01ae F36A     		ldr	r3, [r6, #44]
 429:lvgl/src/widgets/lv_btnmatrix.c ****                    button_is_hidden(btnm->ctrl_bits[btn_pr]) == false) {
 3918              		.loc 1 429 20 view .LVU1248
 3919 01b0 33F81050 		ldrh	r5, [r3, r0, lsl #1]
 3920              	.LVL374:
 429:lvgl/src/widgets/lv_btnmatrix.c ****                    button_is_hidden(btnm->ctrl_bits[btn_pr]) == false) {
 3921              		.loc 1 429 20 view .LVU1249
 3922 01b4 2846     		mov	r0, r5
 3923              	.LVL375:
 429:lvgl/src/widgets/lv_btnmatrix.c ****                    button_is_hidden(btnm->ctrl_bits[btn_pr]) == false) {
 3924              		.loc 1 429 20 view .LVU1250
 3925 01b6 FFF7FEFF 		bl	button_is_inactive
 3926              	.LVL376:
 429:lvgl/src/widgets/lv_btnmatrix.c ****                    button_is_hidden(btnm->ctrl_bits[btn_pr]) == false) {
 3927              		.loc 1 429 19 discriminator 1 view .LVU1251
 3928 01ba 0028     		cmp	r0, #0
 3929 01bc C2D1     		bne	.L223
 430:lvgl/src/widgets/lv_btnmatrix.c ****                     btnm->btn_id_sel = btn_pr;
 3930              		.loc 1 430 20 view .LVU1252
 3931 01be 2846     		mov	r0, r5
 3932 01c0 FFF7FEFF 		bl	button_is_hidden
 3933              	.LVL377:
 429:lvgl/src/widgets/lv_btnmatrix.c ****                    button_is_hidden(btnm->ctrl_bits[btn_pr]) == false) {
 3934              		.loc 1 429 73 discriminator 1 view .LVU1253
 3935 01c4 0028     		cmp	r0, #0
 3936 01c6 BDD1     		bne	.L223
 431:lvgl/src/widgets/lv_btnmatrix.c ****                     invalidate_button_area(obj, btnm->btn_id_sel); /*Invalidate the new area*/
 3937              		.loc 1 431 21 is_stmt 1 view .LVU1254
 431:lvgl/src/widgets/lv_btnmatrix.c ****                     invalidate_button_area(obj, btnm->btn_id_sel); /*Invalidate the new area*/
 3938              		.loc 1 431 38 is_stmt 0 view .LVU1255
 3939 01c8 B486     		strh	r4, [r6, #52]	@ movhi
 432:lvgl/src/widgets/lv_btnmatrix.c ****                 }
 3940              		.loc 1 432 21 is_stmt 1 view .LVU1256
 3941 01ca 2146     		mov	r1, r4
 3942 01cc 3046     		mov	r0, r6
 3943 01ce FFF7FEFF 		bl	invalidate_button_area
 3944              	.LVL378:
ARM GAS  C:\usertemp\ccuzpgLf.s 			page 119


 3945 01d2 B7E7     		b	.L223
 3946              	.LVL379:
 3947              	.L221:
 432:lvgl/src/widgets/lv_btnmatrix.c ****                 }
 3948              		.loc 1 432 21 is_stmt 0 view .LVU1257
 3949              	.LBE139:
 3950              	.LBE137:
 3951              	.LBB140:
 449:lvgl/src/widgets/lv_btnmatrix.c ****         uint16_t btn_pr = LV_BTNMATRIX_BTN_NONE;
 3952              		.loc 1 449 9 is_stmt 1 view .LVU1258
 449:lvgl/src/widgets/lv_btnmatrix.c ****         uint16_t btn_pr = LV_BTNMATRIX_BTN_NONE;
 3953              		.loc 1 449 24 is_stmt 0 view .LVU1259
 3954 01d4 2846     		mov	r0, r5
 3955 01d6 FFF7FEFF 		bl	lv_event_get_param
 3956              	.LVL380:
 3957 01da 0546     		mov	r5, r0
 3958              	.LVL381:
 450:lvgl/src/widgets/lv_btnmatrix.c ****         /*Search the pressed area*/
 3959              		.loc 1 450 9 is_stmt 1 view .LVU1260
 452:lvgl/src/widgets/lv_btnmatrix.c ****         lv_indev_type_t indev_type = lv_indev_get_type(indev);
 3960              		.loc 1 452 9 view .LVU1261
 452:lvgl/src/widgets/lv_btnmatrix.c ****         lv_indev_type_t indev_type = lv_indev_get_type(indev);
 3961              		.loc 1 452 30 is_stmt 0 view .LVU1262
 3962 01dc FFF7FEFF 		bl	lv_indev_get_act
 3963              	.LVL382:
 452:lvgl/src/widgets/lv_btnmatrix.c ****         lv_indev_type_t indev_type = lv_indev_get_type(indev);
 3964              		.loc 1 452 30 view .LVU1263
 3965 01e0 0446     		mov	r4, r0
 3966              	.LVL383:
 453:lvgl/src/widgets/lv_btnmatrix.c ****         if(indev_type == LV_INDEV_TYPE_ENCODER || indev_type == LV_INDEV_TYPE_KEYPAD) return;
 3967              		.loc 1 453 9 is_stmt 1 view .LVU1264
 453:lvgl/src/widgets/lv_btnmatrix.c ****         if(indev_type == LV_INDEV_TYPE_ENCODER || indev_type == LV_INDEV_TYPE_KEYPAD) return;
 3968              		.loc 1 453 38 is_stmt 0 view .LVU1265
 3969 01e2 FFF7FEFF 		bl	lv_indev_get_type
 3970              	.LVL384:
 454:lvgl/src/widgets/lv_btnmatrix.c **** 
 3971              		.loc 1 454 9 is_stmt 1 view .LVU1266
 454:lvgl/src/widgets/lv_btnmatrix.c **** 
 3972              		.loc 1 454 11 is_stmt 0 view .LVU1267
 3973 01e6 0228     		cmp	r0, #2
 3974 01e8 18BF     		it	ne
 3975 01ea 0428     		cmpne	r0, #4
 3976 01ec 3FF411AF 		beq	.L205
 456:lvgl/src/widgets/lv_btnmatrix.c ****         btn_pr = get_button_from_point(obj, &p);
 3977              		.loc 1 456 9 is_stmt 1 view .LVU1268
 3978 01f0 01A9     		add	r1, sp, #4
 3979 01f2 2046     		mov	r0, r4
 3980              	.LVL385:
 456:lvgl/src/widgets/lv_btnmatrix.c ****         btn_pr = get_button_from_point(obj, &p);
 3981              		.loc 1 456 9 is_stmt 0 view .LVU1269
 3982 01f4 FFF7FEFF 		bl	lv_indev_get_point
 3983              	.LVL386:
 457:lvgl/src/widgets/lv_btnmatrix.c ****         /*Invalidate to old and the new areas*/
 3984              		.loc 1 457 9 is_stmt 1 view .LVU1270
 457:lvgl/src/widgets/lv_btnmatrix.c ****         /*Invalidate to old and the new areas*/
 3985              		.loc 1 457 18 is_stmt 0 view .LVU1271
 3986 01f8 01A9     		add	r1, sp, #4
ARM GAS  C:\usertemp\ccuzpgLf.s 			page 120


 3987 01fa 3046     		mov	r0, r6
 3988 01fc FFF7FEFF 		bl	get_button_from_point
 3989              	.LVL387:
 3990 0200 0446     		mov	r4, r0
 3991              	.LVL388:
 459:lvgl/src/widgets/lv_btnmatrix.c ****             if(btnm->btn_id_sel != LV_BTNMATRIX_BTN_NONE) {
 3992              		.loc 1 459 9 is_stmt 1 view .LVU1272
 459:lvgl/src/widgets/lv_btnmatrix.c ****             if(btnm->btn_id_sel != LV_BTNMATRIX_BTN_NONE) {
 3993              		.loc 1 459 26 is_stmt 0 view .LVU1273
 3994 0202 B18E     		ldrh	r1, [r6, #52]
 459:lvgl/src/widgets/lv_btnmatrix.c ****             if(btnm->btn_id_sel != LV_BTNMATRIX_BTN_NONE) {
 3995              		.loc 1 459 11 view .LVU1274
 3996 0204 8142     		cmp	r1, r0
 3997 0206 3FF404AF 		beq	.L205
 460:lvgl/src/widgets/lv_btnmatrix.c ****                 invalidate_button_area(obj, btnm->btn_id_sel);
 3998              		.loc 1 460 13 is_stmt 1 view .LVU1275
 460:lvgl/src/widgets/lv_btnmatrix.c ****                 invalidate_button_area(obj, btnm->btn_id_sel);
 3999              		.loc 1 460 15 is_stmt 0 view .LVU1276
 4000 020a 4FF6FF73 		movw	r3, #65535
 4001 020e 9942     		cmp	r1, r3
 4002 0210 32D1     		bne	.L288
 4003              	.LVL389:
 4004              	.L225:
 464:lvgl/src/widgets/lv_btnmatrix.c **** 
 4005              		.loc 1 464 13 is_stmt 1 view .LVU1277
 464:lvgl/src/widgets/lv_btnmatrix.c **** 
 4006              		.loc 1 464 30 is_stmt 0 view .LVU1278
 4007 0212 B486     		strh	r4, [r6, #52]	@ movhi
 466:lvgl/src/widgets/lv_btnmatrix.c ****             if(btn_pr != LV_BTNMATRIX_BTN_NONE &&
 4008              		.loc 1 466 13 is_stmt 1 view .LVU1279
 4009 0214 2846     		mov	r0, r5
 4010 0216 FFF7FEFF 		bl	lv_indev_reset_long_press
 4011              	.LVL390:
 467:lvgl/src/widgets/lv_btnmatrix.c ****                button_is_inactive(btnm->ctrl_bits[btn_pr]) == false &&
 4012              		.loc 1 467 13 view .LVU1280
 467:lvgl/src/widgets/lv_btnmatrix.c ****                button_is_inactive(btnm->ctrl_bits[btn_pr]) == false &&
 4013              		.loc 1 467 15 is_stmt 0 view .LVU1281
 4014 021a 4FF6FF73 		movw	r3, #65535
 4015 021e 9C42     		cmp	r4, r3
 4016 0220 3FF4F7AE 		beq	.L205
 468:lvgl/src/widgets/lv_btnmatrix.c ****                button_is_hidden(btnm->ctrl_bits[btn_pr]) == false) {
 4017              		.loc 1 468 39 view .LVU1282
 4018 0224 F36A     		ldr	r3, [r6, #44]
 468:lvgl/src/widgets/lv_btnmatrix.c ****                button_is_hidden(btnm->ctrl_bits[btn_pr]) == false) {
 4019              		.loc 1 468 16 view .LVU1283
 4020 0226 33F81450 		ldrh	r5, [r3, r4, lsl #1]
 4021              	.LVL391:
 468:lvgl/src/widgets/lv_btnmatrix.c ****                button_is_hidden(btnm->ctrl_bits[btn_pr]) == false) {
 4022              		.loc 1 468 16 view .LVU1284
 4023 022a 2846     		mov	r0, r5
 4024 022c FFF7FEFF 		bl	button_is_inactive
 4025              	.LVL392:
 467:lvgl/src/widgets/lv_btnmatrix.c ****                button_is_inactive(btnm->ctrl_bits[btn_pr]) == false &&
 4026              		.loc 1 467 48 discriminator 1 view .LVU1285
 4027 0230 0028     		cmp	r0, #0
 4028 0232 7FF4EEAE 		bne	.L205
 469:lvgl/src/widgets/lv_btnmatrix.c ****                 invalidate_button_area(obj, btn_pr);
ARM GAS  C:\usertemp\ccuzpgLf.s 			page 121


 4029              		.loc 1 469 16 view .LVU1286
 4030 0236 2846     		mov	r0, r5
 4031 0238 FFF7FEFF 		bl	button_is_hidden
 4032              	.LVL393:
 468:lvgl/src/widgets/lv_btnmatrix.c ****                button_is_hidden(btnm->ctrl_bits[btn_pr]) == false) {
 4033              		.loc 1 468 69 view .LVU1287
 4034 023c 0028     		cmp	r0, #0
 4035 023e 7FF4E8AE 		bne	.L205
 470:lvgl/src/widgets/lv_btnmatrix.c ****                 /*Send VALUE_CHANGED for the newly pressed button*/
 4036              		.loc 1 470 17 is_stmt 1 view .LVU1288
 4037 0242 2146     		mov	r1, r4
 4038 0244 3046     		mov	r0, r6
 4039 0246 FFF7FEFF 		bl	invalidate_button_area
 4040              	.LVL394:
 472:lvgl/src/widgets/lv_btnmatrix.c ****                    button_is_popover(btnm->ctrl_bits[btnm->btn_id_sel]) == false) {
 4041              		.loc 1 472 17 view .LVU1289
 472:lvgl/src/widgets/lv_btnmatrix.c ****                    button_is_popover(btnm->ctrl_bits[btnm->btn_id_sel]) == false) {
 4042              		.loc 1 472 45 is_stmt 0 view .LVU1290
 4043 024a F56A     		ldr	r5, [r6, #44]
 472:lvgl/src/widgets/lv_btnmatrix.c ****                    button_is_popover(btnm->ctrl_bits[btnm->btn_id_sel]) == false) {
 4044              		.loc 1 472 20 view .LVU1291
 4045 024c 35F81400 		ldrh	r0, [r5, r4, lsl #1]
 4046 0250 FFF7FEFF 		bl	button_is_click_trig
 4047              	.LVL395:
 472:lvgl/src/widgets/lv_btnmatrix.c ****                    button_is_popover(btnm->ctrl_bits[btnm->btn_id_sel]) == false) {
 4048              		.loc 1 472 19 discriminator 1 view .LVU1292
 4049 0254 0028     		cmp	r0, #0
 4050 0256 7FF4DCAE 		bne	.L205
 473:lvgl/src/widgets/lv_btnmatrix.c ****                     uint32_t b = btn_pr;
 4051              		.loc 1 473 58 view .LVU1293
 4052 025a B38E     		ldrh	r3, [r6, #52]
 473:lvgl/src/widgets/lv_btnmatrix.c ****                     uint32_t b = btn_pr;
 4053              		.loc 1 473 20 view .LVU1294
 4054 025c 35F81300 		ldrh	r0, [r5, r3, lsl #1]
 4055 0260 FFF7FEFF 		bl	button_is_popover
 4056              	.LVL396:
 472:lvgl/src/widgets/lv_btnmatrix.c ****                    button_is_popover(btnm->ctrl_bits[btnm->btn_id_sel]) == false) {
 4057              		.loc 1 472 75 discriminator 1 view .LVU1295
 4058 0264 0028     		cmp	r0, #0
 4059 0266 7FF4D4AE 		bne	.L205
 4060              	.LBB141:
 474:lvgl/src/widgets/lv_btnmatrix.c ****                     res = lv_event_send(obj, LV_EVENT_VALUE_CHANGED, &b);
 4061              		.loc 1 474 21 is_stmt 1 view .LVU1296
 474:lvgl/src/widgets/lv_btnmatrix.c ****                     res = lv_event_send(obj, LV_EVENT_VALUE_CHANGED, &b);
 4062              		.loc 1 474 30 is_stmt 0 view .LVU1297
 4063 026a 0094     		str	r4, [sp]
 475:lvgl/src/widgets/lv_btnmatrix.c ****                     if(res != LV_RES_OK) return;
 4064              		.loc 1 475 21 is_stmt 1 view .LVU1298
 475:lvgl/src/widgets/lv_btnmatrix.c ****                     if(res != LV_RES_OK) return;
 4065              		.loc 1 475 27 is_stmt 0 view .LVU1299
 4066 026c 6A46     		mov	r2, sp
 4067 026e 1C21     		movs	r1, #28
 4068 0270 3046     		mov	r0, r6
 4069 0272 FFF7FEFF 		bl	lv_event_send
 4070              	.LVL397:
 476:lvgl/src/widgets/lv_btnmatrix.c ****                 }
 4071              		.loc 1 476 21 is_stmt 1 view .LVU1300
ARM GAS  C:\usertemp\ccuzpgLf.s 			page 122


 4072 0276 CCE6     		b	.L205
 4073              	.LVL398:
 4074              	.L288:
 476:lvgl/src/widgets/lv_btnmatrix.c ****                 }
 4075              		.loc 1 476 21 is_stmt 0 view .LVU1301
 4076              	.LBE141:
 461:lvgl/src/widgets/lv_btnmatrix.c ****             }
 4077              		.loc 1 461 17 is_stmt 1 view .LVU1302
 4078 0278 3046     		mov	r0, r6
 4079              	.LVL399:
 461:lvgl/src/widgets/lv_btnmatrix.c ****             }
 4080              		.loc 1 461 17 is_stmt 0 view .LVU1303
 4081 027a FFF7FEFF 		bl	invalidate_button_area
 4082              	.LVL400:
 4083 027e C8E7     		b	.L225
 4084              	.LVL401:
 4085              	.L218:
 461:lvgl/src/widgets/lv_btnmatrix.c ****             }
 4086              		.loc 1 461 17 view .LVU1304
 4087              	.LBE140:
 482:lvgl/src/widgets/lv_btnmatrix.c ****             /*Toggle the button if enabled*/
 4088              		.loc 1 482 9 is_stmt 1 view .LVU1305
 482:lvgl/src/widgets/lv_btnmatrix.c ****             /*Toggle the button if enabled*/
 4089              		.loc 1 482 16 is_stmt 0 view .LVU1306
 4090 0280 B58E     		ldrh	r5, [r6, #52]
 4091              	.LVL402:
 482:lvgl/src/widgets/lv_btnmatrix.c ****             /*Toggle the button if enabled*/
 4092              		.loc 1 482 11 view .LVU1307
 4093 0282 4FF6FF73 		movw	r3, #65535
 4094 0286 9D42     		cmp	r5, r3
 4095 0288 35D0     		beq	.L227
 484:lvgl/src/widgets/lv_btnmatrix.c ****                !button_is_inactive(btnm->ctrl_bits[btnm->btn_id_sel])) {
 4096              		.loc 1 484 13 is_stmt 1 view .LVU1308
 484:lvgl/src/widgets/lv_btnmatrix.c ****                !button_is_inactive(btnm->ctrl_bits[btnm->btn_id_sel])) {
 4097              		.loc 1 484 40 is_stmt 0 view .LVU1309
 4098 028a F76A     		ldr	r7, [r6, #44]
 484:lvgl/src/widgets/lv_btnmatrix.c ****                !button_is_inactive(btnm->ctrl_bits[btnm->btn_id_sel])) {
 4099              		.loc 1 484 16 view .LVU1310
 4100 028c 37F81540 		ldrh	r4, [r7, r5, lsl #1]
 4101 0290 2046     		mov	r0, r4
 4102 0292 FFF7FEFF 		bl	button_is_checkable
 4103              	.LVL403:
 484:lvgl/src/widgets/lv_btnmatrix.c ****                !button_is_inactive(btnm->ctrl_bits[btnm->btn_id_sel])) {
 4104              		.loc 1 484 15 discriminator 1 view .LVU1311
 4105 0296 D0B1     		cbz	r0, .L228
 485:lvgl/src/widgets/lv_btnmatrix.c ****                 if(button_get_checked(btnm->ctrl_bits[btnm->btn_id_sel]) && !btnm->one_check) {
 4106              		.loc 1 485 17 view .LVU1312
 4107 0298 2046     		mov	r0, r4
 4108 029a FFF7FEFF 		bl	button_is_inactive
 4109              	.LVL404:
 484:lvgl/src/widgets/lv_btnmatrix.c ****                !button_is_inactive(btnm->ctrl_bits[btnm->btn_id_sel])) {
 4110              		.loc 1 484 71 discriminator 1 view .LVU1313
 4111 029e B0B9     		cbnz	r0, .L228
 486:lvgl/src/widgets/lv_btnmatrix.c ****                     btnm->ctrl_bits[btnm->btn_id_sel] &= (~LV_BTNMATRIX_CTRL_CHECKED);
 4112              		.loc 1 486 17 is_stmt 1 view .LVU1314
 486:lvgl/src/widgets/lv_btnmatrix.c ****                     btnm->ctrl_bits[btnm->btn_id_sel] &= (~LV_BTNMATRIX_CTRL_CHECKED);
 4113              		.loc 1 486 20 is_stmt 0 view .LVU1315
ARM GAS  C:\usertemp\ccuzpgLf.s 			page 123


 4114 02a0 2046     		mov	r0, r4
 4115 02a2 FFF7FEFF 		bl	button_get_checked
 4116              	.LVL405:
 486:lvgl/src/widgets/lv_btnmatrix.c ****                     btnm->ctrl_bits[btnm->btn_id_sel] &= (~LV_BTNMATRIX_CTRL_CHECKED);
 4117              		.loc 1 486 19 discriminator 1 view .LVU1316
 4118 02a6 48B1     		cbz	r0, .L229
 486:lvgl/src/widgets/lv_btnmatrix.c ****                     btnm->ctrl_bits[btnm->btn_id_sel] &= (~LV_BTNMATRIX_CTRL_CHECKED);
 4119              		.loc 1 486 77 discriminator 1 view .LVU1317
 4120 02a8 96F83630 		ldrb	r3, [r6, #54]	@ zero_extendqisi2
 486:lvgl/src/widgets/lv_btnmatrix.c ****                     btnm->ctrl_bits[btnm->btn_id_sel] &= (~LV_BTNMATRIX_CTRL_CHECKED);
 4121              		.loc 1 486 74 discriminator 1 view .LVU1318
 4122 02ac 13F0010F 		tst	r3, #1
 4123 02b0 04D1     		bne	.L229
 487:lvgl/src/widgets/lv_btnmatrix.c ****                 }
 4124              		.loc 1 487 21 is_stmt 1 view .LVU1319
 487:lvgl/src/widgets/lv_btnmatrix.c ****                 }
 4125              		.loc 1 487 55 is_stmt 0 view .LVU1320
 4126 02b2 24F08004 		bic	r4, r4, #128
 4127 02b6 27F81540 		strh	r4, [r7, r5, lsl #1]	@ movhi
 4128 02ba 03E0     		b	.L230
 4129              	.L229:
 490:lvgl/src/widgets/lv_btnmatrix.c ****                 }
 4130              		.loc 1 490 21 is_stmt 1 view .LVU1321
 490:lvgl/src/widgets/lv_btnmatrix.c ****                 }
 4131              		.loc 1 490 55 is_stmt 0 view .LVU1322
 4132 02bc 44F08004 		orr	r4, r4, #128
 4133 02c0 27F81540 		strh	r4, [r7, r5, lsl #1]	@ movhi
 4134              	.L230:
 492:lvgl/src/widgets/lv_btnmatrix.c ****             }
 4135              		.loc 1 492 17 is_stmt 1 view .LVU1323
 492:lvgl/src/widgets/lv_btnmatrix.c ****             }
 4136              		.loc 1 492 20 is_stmt 0 view .LVU1324
 4137 02c4 96F83630 		ldrb	r3, [r6, #54]	@ zero_extendqisi2
 492:lvgl/src/widgets/lv_btnmatrix.c ****             }
 4138              		.loc 1 492 19 view .LVU1325
 4139 02c8 13F0010F 		tst	r3, #1
 4140 02cc 18D1     		bne	.L289
 4141              	.L228:
 496:lvgl/src/widgets/lv_btnmatrix.c ****                 button_is_popover(btnm->ctrl_bits[btnm->btn_id_sel]) == true) &&
 4142              		.loc 1 496 13 is_stmt 1 view .LVU1326
 496:lvgl/src/widgets/lv_btnmatrix.c ****                 button_is_popover(btnm->ctrl_bits[btnm->btn_id_sel]) == true) &&
 4143              		.loc 1 496 42 is_stmt 0 view .LVU1327
 4144 02ce F36A     		ldr	r3, [r6, #44]
 496:lvgl/src/widgets/lv_btnmatrix.c ****                 button_is_popover(btnm->ctrl_bits[btnm->btn_id_sel]) == true) &&
 4145              		.loc 1 496 58 view .LVU1328
 4146 02d0 B58E     		ldrh	r5, [r6, #52]
 496:lvgl/src/widgets/lv_btnmatrix.c ****                 button_is_popover(btnm->ctrl_bits[btnm->btn_id_sel]) == true) &&
 4147              		.loc 1 496 17 view .LVU1329
 4148 02d2 33F81540 		ldrh	r4, [r3, r5, lsl #1]
 4149 02d6 2046     		mov	r0, r4
 4150 02d8 FFF7FEFF 		bl	button_is_click_trig
 4151              	.LVL406:
 496:lvgl/src/widgets/lv_btnmatrix.c ****                 button_is_popover(btnm->ctrl_bits[btnm->btn_id_sel]) == true) &&
 4152              		.loc 1 496 15 discriminator 1 view .LVU1330
 4153 02dc 18B9     		cbnz	r0, .L231
 497:lvgl/src/widgets/lv_btnmatrix.c ****                button_is_inactive(btnm->ctrl_bits[btnm->btn_id_sel]) == false &&
 4154              		.loc 1 497 17 view .LVU1331
ARM GAS  C:\usertemp\ccuzpgLf.s 			page 124


 4155 02de 2046     		mov	r0, r4
 4156 02e0 FFF7FEFF 		bl	button_is_popover
 4157              	.LVL407:
 496:lvgl/src/widgets/lv_btnmatrix.c ****                 button_is_popover(btnm->ctrl_bits[btnm->btn_id_sel]) == true) &&
 4158              		.loc 1 496 81 discriminator 1 view .LVU1332
 4159 02e4 38B1     		cbz	r0, .L227
 4160              	.L231:
 498:lvgl/src/widgets/lv_btnmatrix.c ****                button_is_hidden(btnm->ctrl_bits[btnm->btn_id_sel]) == false) {
 4161              		.loc 1 498 16 view .LVU1333
 4162 02e6 2046     		mov	r0, r4
 4163 02e8 FFF7FEFF 		bl	button_is_inactive
 4164              	.LVL408:
 497:lvgl/src/widgets/lv_btnmatrix.c ****                button_is_inactive(btnm->ctrl_bits[btnm->btn_id_sel]) == false &&
 4165              		.loc 1 497 79 view .LVU1334
 4166 02ec 18B9     		cbnz	r0, .L227
 499:lvgl/src/widgets/lv_btnmatrix.c ****                 uint32_t b = btnm->btn_id_sel;
 4167              		.loc 1 499 16 view .LVU1335
 4168 02ee 2046     		mov	r0, r4
 4169 02f0 FFF7FEFF 		bl	button_is_hidden
 4170              	.LVL409:
 498:lvgl/src/widgets/lv_btnmatrix.c ****                button_is_hidden(btnm->ctrl_bits[btnm->btn_id_sel]) == false) {
 4171              		.loc 1 498 79 view .LVU1336
 4172 02f4 48B1     		cbz	r0, .L290
 4173              	.LVL410:
 4174              	.L227:
 506:lvgl/src/widgets/lv_btnmatrix.c ****         invalidate_button_area(obj, btnm->btn_id_sel);
 4175              		.loc 1 506 43 is_stmt 1 view .LVU1337
 507:lvgl/src/widgets/lv_btnmatrix.c **** 
 4176              		.loc 1 507 9 view .LVU1338
 4177 02f6 B18E     		ldrh	r1, [r6, #52]
 4178 02f8 3046     		mov	r0, r6
 4179 02fa FFF7FEFF 		bl	invalidate_button_area
 4180              	.LVL411:
 4181 02fe 88E6     		b	.L205
 4182              	.LVL412:
 4183              	.L289:
 492:lvgl/src/widgets/lv_btnmatrix.c ****             }
 4184              		.loc 1 492 37 discriminator 1 view .LVU1339
 4185 0300 B18E     		ldrh	r1, [r6, #52]
 4186 0302 3046     		mov	r0, r6
 4187 0304 FFF7FEFF 		bl	make_one_button_checked
 4188              	.LVL413:
 4189 0308 E1E7     		b	.L228
 4190              	.L290:
 4191              	.LBB142:
 500:lvgl/src/widgets/lv_btnmatrix.c ****                 res        = lv_event_send(obj, LV_EVENT_VALUE_CHANGED, &b);
 4192              		.loc 1 500 17 view .LVU1340
 500:lvgl/src/widgets/lv_btnmatrix.c ****                 res        = lv_event_send(obj, LV_EVENT_VALUE_CHANGED, &b);
 4193              		.loc 1 500 26 is_stmt 0 view .LVU1341
 4194 030a 0095     		str	r5, [sp]
 501:lvgl/src/widgets/lv_btnmatrix.c ****                 if(res != LV_RES_OK) return;
 4195              		.loc 1 501 17 is_stmt 1 view .LVU1342
 501:lvgl/src/widgets/lv_btnmatrix.c ****                 if(res != LV_RES_OK) return;
 4196              		.loc 1 501 30 is_stmt 0 view .LVU1343
 4197 030c 6A46     		mov	r2, sp
 4198 030e 1C21     		movs	r1, #28
 4199 0310 3046     		mov	r0, r6
ARM GAS  C:\usertemp\ccuzpgLf.s 			page 125


 4200 0312 FFF7FEFF 		bl	lv_event_send
 4201              	.LVL414:
 502:lvgl/src/widgets/lv_btnmatrix.c ****             }
 4202              		.loc 1 502 17 is_stmt 1 view .LVU1344
 502:lvgl/src/widgets/lv_btnmatrix.c ****             }
 4203              		.loc 1 502 19 is_stmt 0 view .LVU1345
 4204 0316 0128     		cmp	r0, #1
 4205 0318 7FF47BAE 		bne	.L205
 4206 031c EBE7     		b	.L227
 4207              	.L301:
 4208 031e 00BF     		.align	2
 4209              	.L300:
 4210 0320 00000000 		.word	lv_btnmatrix_class
 4211              	.LVL415:
 4212              	.L219:
 502:lvgl/src/widgets/lv_btnmatrix.c ****             }
 4213              		.loc 1 502 19 view .LVU1346
 4214              	.LBE142:
 511:lvgl/src/widgets/lv_btnmatrix.c ****             if(button_is_repeat_disabled(btnm->ctrl_bits[btnm->btn_id_sel]) == false &&
 4215              		.loc 1 511 9 is_stmt 1 view .LVU1347
 511:lvgl/src/widgets/lv_btnmatrix.c ****             if(button_is_repeat_disabled(btnm->ctrl_bits[btnm->btn_id_sel]) == false &&
 4216              		.loc 1 511 16 is_stmt 0 view .LVU1348
 4217 0324 B48E     		ldrh	r4, [r6, #52]
 511:lvgl/src/widgets/lv_btnmatrix.c ****             if(button_is_repeat_disabled(btnm->ctrl_bits[btnm->btn_id_sel]) == false &&
 4218              		.loc 1 511 11 view .LVU1349
 4219 0326 4FF6FF73 		movw	r3, #65535
 4220 032a 9C42     		cmp	r4, r3
 4221 032c 3FF471AE 		beq	.L205
 512:lvgl/src/widgets/lv_btnmatrix.c ****                button_is_inactive(btnm->ctrl_bits[btnm->btn_id_sel]) == false &&
 4222              		.loc 1 512 13 is_stmt 1 view .LVU1350
 512:lvgl/src/widgets/lv_btnmatrix.c ****                button_is_inactive(btnm->ctrl_bits[btnm->btn_id_sel]) == false &&
 4223              		.loc 1 512 46 is_stmt 0 view .LVU1351
 4224 0330 F36A     		ldr	r3, [r6, #44]
 512:lvgl/src/widgets/lv_btnmatrix.c ****                button_is_inactive(btnm->ctrl_bits[btnm->btn_id_sel]) == false &&
 4225              		.loc 1 512 16 view .LVU1352
 4226 0332 33F81450 		ldrh	r5, [r3, r4, lsl #1]
 4227              	.LVL416:
 512:lvgl/src/widgets/lv_btnmatrix.c ****                button_is_inactive(btnm->ctrl_bits[btnm->btn_id_sel]) == false &&
 4228              		.loc 1 512 16 view .LVU1353
 4229 0336 2846     		mov	r0, r5
 4230 0338 FFF7FEFF 		bl	button_is_repeat_disabled
 4231              	.LVL417:
 512:lvgl/src/widgets/lv_btnmatrix.c ****                button_is_inactive(btnm->ctrl_bits[btnm->btn_id_sel]) == false &&
 4232              		.loc 1 512 15 discriminator 1 view .LVU1354
 4233 033c 0028     		cmp	r0, #0
 4234 033e 7FF468AE 		bne	.L205
 513:lvgl/src/widgets/lv_btnmatrix.c ****                button_is_hidden(btnm->ctrl_bits[btnm->btn_id_sel]) == false) {
 4235              		.loc 1 513 16 view .LVU1355
 4236 0342 2846     		mov	r0, r5
 4237 0344 FFF7FEFF 		bl	button_is_inactive
 4238              	.LVL418:
 512:lvgl/src/widgets/lv_btnmatrix.c ****                button_is_inactive(btnm->ctrl_bits[btnm->btn_id_sel]) == false &&
 4239              		.loc 1 512 86 discriminator 1 view .LVU1356
 4240 0348 0028     		cmp	r0, #0
 4241 034a 7FF462AE 		bne	.L205
 514:lvgl/src/widgets/lv_btnmatrix.c ****                 uint32_t b = btnm->btn_id_sel;
 4242              		.loc 1 514 16 view .LVU1357
ARM GAS  C:\usertemp\ccuzpgLf.s 			page 126


 4243 034e 2846     		mov	r0, r5
 4244 0350 FFF7FEFF 		bl	button_is_hidden
 4245              	.LVL419:
 513:lvgl/src/widgets/lv_btnmatrix.c ****                button_is_hidden(btnm->ctrl_bits[btnm->btn_id_sel]) == false) {
 4246              		.loc 1 513 79 view .LVU1358
 4247 0354 0028     		cmp	r0, #0
 4248 0356 7FF45CAE 		bne	.L205
 4249              	.LBB143:
 515:lvgl/src/widgets/lv_btnmatrix.c ****                 res        = lv_event_send(obj, LV_EVENT_VALUE_CHANGED, &b);
 4250              		.loc 1 515 17 is_stmt 1 view .LVU1359
 515:lvgl/src/widgets/lv_btnmatrix.c ****                 res        = lv_event_send(obj, LV_EVENT_VALUE_CHANGED, &b);
 4251              		.loc 1 515 26 is_stmt 0 view .LVU1360
 4252 035a 0094     		str	r4, [sp]
 516:lvgl/src/widgets/lv_btnmatrix.c ****                 if(res != LV_RES_OK) return;
 4253              		.loc 1 516 17 is_stmt 1 view .LVU1361
 516:lvgl/src/widgets/lv_btnmatrix.c ****                 if(res != LV_RES_OK) return;
 4254              		.loc 1 516 30 is_stmt 0 view .LVU1362
 4255 035c 6A46     		mov	r2, sp
 4256 035e 1C21     		movs	r1, #28
 4257 0360 3046     		mov	r0, r6
 4258 0362 FFF7FEFF 		bl	lv_event_send
 4259              	.LVL420:
 517:lvgl/src/widgets/lv_btnmatrix.c ****             }
 4260              		.loc 1 517 17 is_stmt 1 view .LVU1363
 4261 0366 54E6     		b	.L205
 4262              	.LVL421:
 4263              	.L220:
 517:lvgl/src/widgets/lv_btnmatrix.c ****             }
 4264              		.loc 1 517 17 is_stmt 0 view .LVU1364
 4265              	.LBE143:
 522:lvgl/src/widgets/lv_btnmatrix.c ****         btnm->btn_id_sel = LV_BTNMATRIX_BTN_NONE;
 4266              		.loc 1 522 9 is_stmt 1 view .LVU1365
 4267 0368 B18E     		ldrh	r1, [r6, #52]
 4268 036a 3046     		mov	r0, r6
 4269 036c FFF7FEFF 		bl	invalidate_button_area
 4270              	.LVL422:
 523:lvgl/src/widgets/lv_btnmatrix.c ****     }
 4271              		.loc 1 523 9 view .LVU1366
 523:lvgl/src/widgets/lv_btnmatrix.c ****     }
 4272              		.loc 1 523 26 is_stmt 0 view .LVU1367
 4273 0370 4FF6FF73 		movw	r3, #65535
 4274 0374 B386     		strh	r3, [r6, #52]	@ movhi
 4275 0376 4CE6     		b	.L205
 4276              	.L216:
 4277              	.LBB144:
 526:lvgl/src/widgets/lv_btnmatrix.c ****         lv_indev_type_t indev_type = lv_indev_get_type(indev);
 4278              		.loc 1 526 9 is_stmt 1 view .LVU1368
 526:lvgl/src/widgets/lv_btnmatrix.c ****         lv_indev_type_t indev_type = lv_indev_get_type(indev);
 4279              		.loc 1 526 30 is_stmt 0 view .LVU1369
 4280 0378 2846     		mov	r0, r5
 4281 037a FFF7FEFF 		bl	lv_event_get_param
 4282              	.LVL423:
 4283 037e 0546     		mov	r5, r0
 4284              	.LVL424:
 527:lvgl/src/widgets/lv_btnmatrix.c **** 
 4285              		.loc 1 527 9 is_stmt 1 view .LVU1370
 527:lvgl/src/widgets/lv_btnmatrix.c **** 
ARM GAS  C:\usertemp\ccuzpgLf.s 			page 127


 4286              		.loc 1 527 38 is_stmt 0 view .LVU1371
 4287 0380 FFF7FEFF 		bl	lv_indev_get_type
 4288              	.LVL425:
 527:lvgl/src/widgets/lv_btnmatrix.c **** 
 4289              		.loc 1 527 38 view .LVU1372
 4290 0384 0446     		mov	r4, r0
 4291              	.LVL426:
 530:lvgl/src/widgets/lv_btnmatrix.c ****             indev = lv_indev_get_next(NULL);
 4292              		.loc 1 530 9 is_stmt 1 view .LVU1373
 530:lvgl/src/widgets/lv_btnmatrix.c ****             indev = lv_indev_get_next(NULL);
 4293              		.loc 1 530 11 is_stmt 0 view .LVU1374
 4294 0386 D5B1     		cbz	r5, .L291
 4295              	.LVL427:
 4296              	.L234:
 535:lvgl/src/widgets/lv_btnmatrix.c ****         /*Focus the first button if there is not selected button*/
 4297              		.loc 1 535 9 is_stmt 1 view .LVU1375
 535:lvgl/src/widgets/lv_btnmatrix.c ****         /*Focus the first button if there is not selected button*/
 4298              		.loc 1 535 45 is_stmt 0 view .LVU1376
 4299 0388 3046     		mov	r0, r6
 4300 038a FFF7FEFF 		bl	lv_obj_get_group
 4301              	.LVL428:
 535:lvgl/src/widgets/lv_btnmatrix.c ****         /*Focus the first button if there is not selected button*/
 4302              		.loc 1 535 24 discriminator 1 view .LVU1377
 4303 038e FFF7FEFF 		bl	lv_group_get_editing
 4304              	.LVL429:
 537:lvgl/src/widgets/lv_btnmatrix.c ****             if(indev_type == LV_INDEV_TYPE_KEYPAD || (indev_type == LV_INDEV_TYPE_ENCODER && editin
 4305              		.loc 1 537 9 is_stmt 1 view .LVU1378
 537:lvgl/src/widgets/lv_btnmatrix.c ****             if(indev_type == LV_INDEV_TYPE_KEYPAD || (indev_type == LV_INDEV_TYPE_ENCODER && editin
 4306              		.loc 1 537 16 is_stmt 0 view .LVU1379
 4307 0392 B28E     		ldrh	r2, [r6, #52]
 537:lvgl/src/widgets/lv_btnmatrix.c ****             if(indev_type == LV_INDEV_TYPE_KEYPAD || (indev_type == LV_INDEV_TYPE_ENCODER && editin
 4308              		.loc 1 537 11 view .LVU1380
 4309 0394 4FF6FF73 		movw	r3, #65535
 4310 0398 9A42     		cmp	r2, r3
 4311 039a 7FF43AAE 		bne	.L205
 538:lvgl/src/widgets/lv_btnmatrix.c ****                 uint32_t b = 0;
 4312              		.loc 1 538 13 is_stmt 1 view .LVU1381
 538:lvgl/src/widgets/lv_btnmatrix.c ****                 uint32_t b = 0;
 4313              		.loc 1 538 15 is_stmt 0 view .LVU1382
 4314 039e 022C     		cmp	r4, #2
 4315 03a0 06D0     		beq	.L235
 538:lvgl/src/widgets/lv_btnmatrix.c ****                 uint32_t b = 0;
 4316              		.loc 1 538 91 discriminator 1 view .LVU1383
 4317 03a2 042C     		cmp	r4, #4
 4318 03a4 14BF     		ite	ne
 4319 03a6 0020     		movne	r0, #0
 4320 03a8 00F00100 		andeq	r0, r0, #1
 4321              	.LVL430:
 538:lvgl/src/widgets/lv_btnmatrix.c ****                 uint32_t b = 0;
 4322              		.loc 1 538 51 discriminator 1 view .LVU1384
 4323 03ac 0028     		cmp	r0, #0
 4324 03ae 33D0     		beq	.L236
 4325              	.L235:
 4326              	.LBB145:
 539:lvgl/src/widgets/lv_btnmatrix.c ****                 if(btnm->one_check) {
 4327              		.loc 1 539 17 is_stmt 1 view .LVU1385
 4328              	.LVL431:
ARM GAS  C:\usertemp\ccuzpgLf.s 			page 128


 540:lvgl/src/widgets/lv_btnmatrix.c ****                     while(button_is_hidden(btnm->ctrl_bits[b]) || button_is_inactive(btnm->ctrl_bit
 4329              		.loc 1 540 17 view .LVU1386
 540:lvgl/src/widgets/lv_btnmatrix.c ****                     while(button_is_hidden(btnm->ctrl_bits[b]) || button_is_inactive(btnm->ctrl_bit
 4330              		.loc 1 540 20 is_stmt 0 view .LVU1387
 4331 03b0 96F83630 		ldrb	r3, [r6, #54]	@ zero_extendqisi2
 540:lvgl/src/widgets/lv_btnmatrix.c ****                     while(button_is_hidden(btnm->ctrl_bits[b]) || button_is_inactive(btnm->ctrl_bit
 4332              		.loc 1 540 19 view .LVU1388
 4333 03b4 13F0010F 		tst	r3, #1
 4334 03b8 1DD1     		bne	.L280
 539:lvgl/src/widgets/lv_btnmatrix.c ****                 if(btnm->one_check) {
 4335              		.loc 1 539 26 view .LVU1389
 4336 03ba 0024     		movs	r4, #0
 4337              	.LVL432:
 539:lvgl/src/widgets/lv_btnmatrix.c ****                 if(btnm->one_check) {
 4338              		.loc 1 539 26 view .LVU1390
 4339 03bc 1EE0     		b	.L238
 4340              	.LVL433:
 4341              	.L291:
 539:lvgl/src/widgets/lv_btnmatrix.c ****                 if(btnm->one_check) {
 4342              		.loc 1 539 26 view .LVU1391
 4343              	.LBE145:
 531:lvgl/src/widgets/lv_btnmatrix.c ****             indev_type = lv_indev_get_type(indev);
 4344              		.loc 1 531 13 is_stmt 1 view .LVU1392
 531:lvgl/src/widgets/lv_btnmatrix.c ****             indev_type = lv_indev_get_type(indev);
 4345              		.loc 1 531 21 is_stmt 0 view .LVU1393
 4346 03be 0020     		movs	r0, #0
 4347 03c0 FFF7FEFF 		bl	lv_indev_get_next
 4348              	.LVL434:
 532:lvgl/src/widgets/lv_btnmatrix.c ****         }
 4349              		.loc 1 532 13 is_stmt 1 view .LVU1394
 532:lvgl/src/widgets/lv_btnmatrix.c ****         }
 4350              		.loc 1 532 26 is_stmt 0 view .LVU1395
 4351 03c4 FFF7FEFF 		bl	lv_indev_get_type
 4352              	.LVL435:
 532:lvgl/src/widgets/lv_btnmatrix.c ****         }
 4353              		.loc 1 532 26 view .LVU1396
 4354 03c8 0446     		mov	r4, r0
 4355              	.LVL436:
 532:lvgl/src/widgets/lv_btnmatrix.c ****         }
 4356              		.loc 1 532 26 view .LVU1397
 4357 03ca DDE7     		b	.L234
 4358              	.LVL437:
 4359              	.L239:
 4360              	.LBB146:
 542:lvgl/src/widgets/lv_btnmatrix.c ****                 }
 4361              		.loc 1 542 75 is_stmt 1 view .LVU1398
 542:lvgl/src/widgets/lv_btnmatrix.c ****                 }
 4362              		.loc 1 542 76 is_stmt 0 view .LVU1399
 4363 03cc 0134     		adds	r4, r4, #1
 4364              	.LVL438:
 4365              	.L237:
 541:lvgl/src/widgets/lv_btnmatrix.c ****                           button_is_checked(btnm->ctrl_bits[b]) == false) b++;
 4366              		.loc 1 541 106 is_stmt 1 view .LVU1400
 541:lvgl/src/widgets/lv_btnmatrix.c ****                           button_is_checked(btnm->ctrl_bits[b]) == false) b++;
 4367              		.loc 1 541 48 is_stmt 0 view .LVU1401
 4368 03ce F36A     		ldr	r3, [r6, #44]
 541:lvgl/src/widgets/lv_btnmatrix.c ****                           button_is_checked(btnm->ctrl_bits[b]) == false) b++;
ARM GAS  C:\usertemp\ccuzpgLf.s 			page 129


 4369              		.loc 1 541 27 view .LVU1402
 4370 03d0 33F81450 		ldrh	r5, [r3, r4, lsl #1]
 4371 03d4 2846     		mov	r0, r5
 4372 03d6 FFF7FEFF 		bl	button_is_hidden
 4373              	.LVL439:
 541:lvgl/src/widgets/lv_btnmatrix.c ****                           button_is_checked(btnm->ctrl_bits[b]) == false) b++;
 4374              		.loc 1 541 106 discriminator 1 view .LVU1403
 4375 03da 0028     		cmp	r0, #0
 4376 03dc F6D1     		bne	.L239
 541:lvgl/src/widgets/lv_btnmatrix.c ****                           button_is_checked(btnm->ctrl_bits[b]) == false) b++;
 4377              		.loc 1 541 67 discriminator 1 view .LVU1404
 4378 03de 2846     		mov	r0, r5
 4379 03e0 FFF7FEFF 		bl	button_is_inactive
 4380              	.LVL440:
 541:lvgl/src/widgets/lv_btnmatrix.c ****                           button_is_checked(btnm->ctrl_bits[b]) == false) b++;
 4381              		.loc 1 541 64 discriminator 1 view .LVU1405
 4382 03e4 0028     		cmp	r0, #0
 4383 03e6 F1D1     		bne	.L239
 542:lvgl/src/widgets/lv_btnmatrix.c ****                 }
 4384              		.loc 1 542 27 view .LVU1406
 4385 03e8 2846     		mov	r0, r5
 4386 03ea FFF7FEFF 		bl	button_is_checked
 4387              	.LVL441:
 541:lvgl/src/widgets/lv_btnmatrix.c ****                           button_is_checked(btnm->ctrl_bits[b]) == false) b++;
 4388              		.loc 1 541 106 discriminator 2 view .LVU1407
 4389 03ee 0028     		cmp	r0, #0
 4390 03f0 ECD0     		beq	.L239
 4391              	.L240:
 548:lvgl/src/widgets/lv_btnmatrix.c ****             }
 4392              		.loc 1 548 17 is_stmt 1 view .LVU1408
 548:lvgl/src/widgets/lv_btnmatrix.c ****             }
 4393              		.loc 1 548 34 is_stmt 0 view .LVU1409
 4394 03f2 B486     		strh	r4, [r6, #52]	@ movhi
 4395              	.LBE146:
 538:lvgl/src/widgets/lv_btnmatrix.c ****                 uint32_t b = 0;
 4396              		.loc 1 538 104 view .LVU1410
 4397 03f4 0DE6     		b	.L205
 4398              	.LVL442:
 4399              	.L280:
 4400              	.LBB147:
 539:lvgl/src/widgets/lv_btnmatrix.c ****                 if(btnm->one_check) {
 4401              		.loc 1 539 26 view .LVU1411
 4402 03f6 0024     		movs	r4, #0
 4403              	.LVL443:
 539:lvgl/src/widgets/lv_btnmatrix.c ****                 if(btnm->one_check) {
 4404              		.loc 1 539 26 view .LVU1412
 4405 03f8 E9E7     		b	.L237
 4406              	.LVL444:
 4407              	.L241:
 545:lvgl/src/widgets/lv_btnmatrix.c ****                 }
 4408              		.loc 1 545 107 is_stmt 1 discriminator 4 view .LVU1413
 545:lvgl/src/widgets/lv_btnmatrix.c ****                 }
 4409              		.loc 1 545 108 is_stmt 0 discriminator 4 view .LVU1414
 4410 03fa 0134     		adds	r4, r4, #1
 4411              	.LVL445:
 4412              	.L238:
 545:lvgl/src/widgets/lv_btnmatrix.c ****                 }
ARM GAS  C:\usertemp\ccuzpgLf.s 			page 130


 4413              		.loc 1 545 64 is_stmt 1 discriminator 1 view .LVU1415
 545:lvgl/src/widgets/lv_btnmatrix.c ****                 }
 4414              		.loc 1 545 48 is_stmt 0 discriminator 1 view .LVU1416
 4415 03fc F36A     		ldr	r3, [r6, #44]
 545:lvgl/src/widgets/lv_btnmatrix.c ****                 }
 4416              		.loc 1 545 27 discriminator 1 view .LVU1417
 4417 03fe 33F81450 		ldrh	r5, [r3, r4, lsl #1]
 4418 0402 2846     		mov	r0, r5
 4419 0404 FFF7FEFF 		bl	button_is_hidden
 4420              	.LVL446:
 545:lvgl/src/widgets/lv_btnmatrix.c ****                 }
 4421              		.loc 1 545 64 discriminator 1 view .LVU1418
 4422 0408 0028     		cmp	r0, #0
 4423 040a F6D1     		bne	.L241
 545:lvgl/src/widgets/lv_btnmatrix.c ****                 }
 4424              		.loc 1 545 67 discriminator 3 view .LVU1419
 4425 040c 2846     		mov	r0, r5
 4426 040e FFF7FEFF 		bl	button_is_inactive
 4427              	.LVL447:
 545:lvgl/src/widgets/lv_btnmatrix.c ****                 }
 4428              		.loc 1 545 64 discriminator 1 view .LVU1420
 4429 0412 0028     		cmp	r0, #0
 4430 0414 F1D1     		bne	.L241
 4431 0416 ECE7     		b	.L240
 4432              	.LVL448:
 4433              	.L236:
 545:lvgl/src/widgets/lv_btnmatrix.c ****                 }
 4434              		.loc 1 545 64 discriminator 1 view .LVU1421
 4435              	.LBE147:
 551:lvgl/src/widgets/lv_btnmatrix.c ****             }
 4436              		.loc 1 551 17 is_stmt 1 view .LVU1422
 551:lvgl/src/widgets/lv_btnmatrix.c ****             }
 4437              		.loc 1 551 34 is_stmt 0 view .LVU1423
 4438 0418 4FF6FF73 		movw	r3, #65535
 4439 041c B386     		strh	r3, [r6, #52]	@ movhi
 4440 041e F8E5     		b	.L205
 4441              	.LVL449:
 4442              	.L215:
 551:lvgl/src/widgets/lv_btnmatrix.c ****             }
 4443              		.loc 1 551 34 view .LVU1424
 4444              	.LBE144:
 556:lvgl/src/widgets/lv_btnmatrix.c ****         btnm->btn_id_sel = LV_BTNMATRIX_BTN_NONE;
 4445              		.loc 1 556 9 is_stmt 1 view .LVU1425
 556:lvgl/src/widgets/lv_btnmatrix.c ****         btnm->btn_id_sel = LV_BTNMATRIX_BTN_NONE;
 4446              		.loc 1 556 16 is_stmt 0 view .LVU1426
 4447 0420 B18E     		ldrh	r1, [r6, #52]
 556:lvgl/src/widgets/lv_btnmatrix.c ****         btnm->btn_id_sel = LV_BTNMATRIX_BTN_NONE;
 4448              		.loc 1 556 11 view .LVU1427
 4449 0422 4FF6FF73 		movw	r3, #65535
 4450 0426 9942     		cmp	r1, r3
 4451 0428 03D1     		bne	.L292
 4452              	.L242:
 557:lvgl/src/widgets/lv_btnmatrix.c ****     }
 4453              		.loc 1 557 9 is_stmt 1 view .LVU1428
 557:lvgl/src/widgets/lv_btnmatrix.c ****     }
 4454              		.loc 1 557 26 is_stmt 0 view .LVU1429
 4455 042a 4FF6FF73 		movw	r3, #65535
ARM GAS  C:\usertemp\ccuzpgLf.s 			page 131


 4456 042e B386     		strh	r3, [r6, #52]	@ movhi
 4457 0430 EFE5     		b	.L205
 4458              	.L292:
 556:lvgl/src/widgets/lv_btnmatrix.c ****         btnm->btn_id_sel = LV_BTNMATRIX_BTN_NONE;
 4459              		.loc 1 556 55 is_stmt 1 discriminator 1 view .LVU1430
 4460 0432 3046     		mov	r0, r6
 4461 0434 FFF7FEFF 		bl	invalidate_button_area
 4462              	.LVL450:
 4463 0438 F7E7     		b	.L242
 4464              	.L217:
 4465              	.LBB148:
 561:lvgl/src/widgets/lv_btnmatrix.c **** 
 4466              		.loc 1 561 9 view .LVU1431
 4467 043a B18E     		ldrh	r1, [r6, #52]
 4468 043c 3046     		mov	r0, r6
 4469 043e FFF7FEFF 		bl	invalidate_button_area
 4470              	.LVL451:
 563:lvgl/src/widgets/lv_btnmatrix.c ****         if(c == LV_KEY_RIGHT) {
 4471              		.loc 1 563 9 view .LVU1432
 563:lvgl/src/widgets/lv_btnmatrix.c ****         if(c == LV_KEY_RIGHT) {
 4472              		.loc 1 563 28 is_stmt 0 view .LVU1433
 4473 0442 2846     		mov	r0, r5
 4474 0444 FFF7FEFF 		bl	lv_event_get_param
 4475              	.LVL452:
 563:lvgl/src/widgets/lv_btnmatrix.c ****         if(c == LV_KEY_RIGHT) {
 4476              		.loc 1 563 14 discriminator 1 view .LVU1434
 4477 0448 0378     		ldrb	r3, [r0]	@ zero_extendqisi2
 4478              	.LVL453:
 564:lvgl/src/widgets/lv_btnmatrix.c ****             if(btnm->btn_id_sel == LV_BTNMATRIX_BTN_NONE)  btnm->btn_id_sel = 0;
 4479              		.loc 1 564 9 is_stmt 1 view .LVU1435
 4480 044a 113B     		subs	r3, r3, #17
 4481 044c 032B     		cmp	r3, #3
 4482 044e 27D8     		bhi	.L243
 4483 0450 DFE803F0 		tbb	[pc, r3]
 4484              	.L245:
 4485 0454 B5       		.byte	(.L248-.L245)/2
 4486 0455 55       		.byte	(.L247-.L245)/2
 4487 0456 02       		.byte	(.L246-.L245)/2
 4488 0457 2E       		.byte	(.L244-.L245)/2
 4489              		.p2align 1
 4490              	.L246:
 565:lvgl/src/widgets/lv_btnmatrix.c ****             else btnm->btn_id_sel++;
 4491              		.loc 1 565 13 view .LVU1436
 565:lvgl/src/widgets/lv_btnmatrix.c ****             else btnm->btn_id_sel++;
 4492              		.loc 1 565 20 is_stmt 0 view .LVU1437
 4493 0458 B38E     		ldrh	r3, [r6, #52]
 565:lvgl/src/widgets/lv_btnmatrix.c ****             else btnm->btn_id_sel++;
 4494              		.loc 1 565 15 view .LVU1438
 4495 045a 4FF6FF72 		movw	r2, #65535
 4496 045e 9342     		cmp	r3, r2
 4497 0460 08D0     		beq	.L293
 566:lvgl/src/widgets/lv_btnmatrix.c ****             if(btnm->btn_id_sel >= btnm->btn_cnt) btnm->btn_id_sel = 0;
 4498              		.loc 1 566 18 is_stmt 1 view .LVU1439
 566:lvgl/src/widgets/lv_btnmatrix.c ****             if(btnm->btn_id_sel >= btnm->btn_cnt) btnm->btn_id_sel = 0;
 4499              		.loc 1 566 34 is_stmt 0 view .LVU1440
 4500 0462 0133     		adds	r3, r3, #1
 4501 0464 B386     		strh	r3, [r6, #52]	@ movhi
ARM GAS  C:\usertemp\ccuzpgLf.s 			page 132


 4502              	.LVL454:
 4503              	.L250:
 567:lvgl/src/widgets/lv_btnmatrix.c **** 
 4504              		.loc 1 567 13 is_stmt 1 view .LVU1441
 567:lvgl/src/widgets/lv_btnmatrix.c **** 
 4505              		.loc 1 567 20 is_stmt 0 view .LVU1442
 4506 0466 B38E     		ldrh	r3, [r6, #52]
 567:lvgl/src/widgets/lv_btnmatrix.c **** 
 4507              		.loc 1 567 40 view .LVU1443
 4508 0468 378E     		ldrh	r7, [r6, #48]
 567:lvgl/src/widgets/lv_btnmatrix.c **** 
 4509              		.loc 1 567 15 view .LVU1444
 4510 046a BB42     		cmp	r3, r7
 4511 046c 0AD3     		bcc	.L252
 567:lvgl/src/widgets/lv_btnmatrix.c **** 
 4512              		.loc 1 567 51 is_stmt 1 discriminator 1 view .LVU1445
 567:lvgl/src/widgets/lv_btnmatrix.c **** 
 4513              		.loc 1 567 68 is_stmt 0 discriminator 1 view .LVU1446
 4514 046e 0023     		movs	r3, #0
 4515 0470 B386     		strh	r3, [r6, #52]	@ movhi
 4516 0472 07E0     		b	.L252
 4517              	.LVL455:
 4518              	.L293:
 565:lvgl/src/widgets/lv_btnmatrix.c ****             else btnm->btn_id_sel++;
 4519              		.loc 1 565 60 is_stmt 1 discriminator 1 view .LVU1447
 565:lvgl/src/widgets/lv_btnmatrix.c ****             else btnm->btn_id_sel++;
 4520              		.loc 1 565 77 is_stmt 0 discriminator 1 view .LVU1448
 4521 0474 0023     		movs	r3, #0
 4522 0476 B386     		strh	r3, [r6, #52]	@ movhi
 4523              	.LVL456:
 565:lvgl/src/widgets/lv_btnmatrix.c ****             else btnm->btn_id_sel++;
 4524              		.loc 1 565 77 discriminator 1 view .LVU1449
 4525 0478 F5E7     		b	.L250
 4526              	.LVL457:
 4527              	.L254:
 570:lvgl/src/widgets/lv_btnmatrix.c ****                 if(btnm->btn_id_sel >= btnm->btn_cnt) btnm->btn_id_sel = 0;
 4528              		.loc 1 570 17 is_stmt 1 view .LVU1450
 570:lvgl/src/widgets/lv_btnmatrix.c ****                 if(btnm->btn_id_sel >= btnm->btn_cnt) btnm->btn_id_sel = 0;
 4529              		.loc 1 570 33 is_stmt 0 view .LVU1451
 4530 047a 0134     		adds	r4, r4, #1
 4531 047c A4B2     		uxth	r4, r4
 4532 047e B486     		strh	r4, [r6, #52]	@ movhi
 571:lvgl/src/widgets/lv_btnmatrix.c ****             }
 4533              		.loc 1 571 17 is_stmt 1 view .LVU1452
 571:lvgl/src/widgets/lv_btnmatrix.c ****             }
 4534              		.loc 1 571 19 is_stmt 0 view .LVU1453
 4535 0480 A742     		cmp	r7, r4
 4536 0482 12D9     		bls	.L294
 4537              	.L252:
 569:lvgl/src/widgets/lv_btnmatrix.c ****                 btnm->btn_id_sel++;
 4538              		.loc 1 569 71 is_stmt 1 view .LVU1454
 569:lvgl/src/widgets/lv_btnmatrix.c ****                 btnm->btn_id_sel++;
 4539              		.loc 1 569 40 is_stmt 0 view .LVU1455
 4540 0484 F36A     		ldr	r3, [r6, #44]
 569:lvgl/src/widgets/lv_btnmatrix.c ****                 btnm->btn_id_sel++;
 4541              		.loc 1 569 56 view .LVU1456
 4542 0486 B48E     		ldrh	r4, [r6, #52]
ARM GAS  C:\usertemp\ccuzpgLf.s 			page 133


 569:lvgl/src/widgets/lv_btnmatrix.c ****                 btnm->btn_id_sel++;
 4543              		.loc 1 569 19 view .LVU1457
 4544 0488 33F81450 		ldrh	r5, [r3, r4, lsl #1]
 4545 048c 2846     		mov	r0, r5
 4546 048e FFF7FEFF 		bl	button_is_hidden
 4547              	.LVL458:
 569:lvgl/src/widgets/lv_btnmatrix.c ****                 btnm->btn_id_sel++;
 4548              		.loc 1 569 71 discriminator 1 view .LVU1458
 4549 0492 0028     		cmp	r0, #0
 4550 0494 F1D1     		bne	.L254
 569:lvgl/src/widgets/lv_btnmatrix.c ****                 btnm->btn_id_sel++;
 4551              		.loc 1 569 74 discriminator 1 view .LVU1459
 4552 0496 2846     		mov	r0, r5
 4553 0498 FFF7FEFF 		bl	button_is_inactive
 4554              	.LVL459:
 569:lvgl/src/widgets/lv_btnmatrix.c ****                 btnm->btn_id_sel++;
 4555              		.loc 1 569 71 discriminator 1 view .LVU1460
 4556 049c 0028     		cmp	r0, #0
 4557 049e ECD1     		bne	.L254
 4558              	.L243:
 641:lvgl/src/widgets/lv_btnmatrix.c ****     }
 4559              		.loc 1 641 9 is_stmt 1 view .LVU1461
 4560 04a0 B18E     		ldrh	r1, [r6, #52]
 4561 04a2 3046     		mov	r0, r6
 4562 04a4 FFF7FEFF 		bl	invalidate_button_area
 4563              	.LVL460:
 4564              	.LBE148:
 4565 04a8 B3E5     		b	.L205
 4566              	.L294:
 4567              	.LBB163:
 571:lvgl/src/widgets/lv_btnmatrix.c ****             }
 4568              		.loc 1 571 55 discriminator 1 view .LVU1462
 571:lvgl/src/widgets/lv_btnmatrix.c ****             }
 4569              		.loc 1 571 72 is_stmt 0 discriminator 1 view .LVU1463
 4570 04aa 0023     		movs	r3, #0
 4571 04ac B386     		strh	r3, [r6, #52]	@ movhi
 4572 04ae E9E7     		b	.L252
 4573              	.LVL461:
 4574              	.L244:
 575:lvgl/src/widgets/lv_btnmatrix.c **** 
 4575              		.loc 1 575 13 is_stmt 1 view .LVU1464
 575:lvgl/src/widgets/lv_btnmatrix.c **** 
 4576              		.loc 1 575 20 is_stmt 0 view .LVU1465
 4577 04b0 B28E     		ldrh	r2, [r6, #52]
 575:lvgl/src/widgets/lv_btnmatrix.c **** 
 4578              		.loc 1 575 15 view .LVU1466
 4579 04b2 4FF6FF73 		movw	r3, #65535
 4580 04b6 9A42     		cmp	r2, r3
 4581 04b8 05D0     		beq	.L295
 4582              	.LVL462:
 4583              	.L255:
 577:lvgl/src/widgets/lv_btnmatrix.c ****             else if(btnm->btn_id_sel > 0) btnm->btn_id_sel--;
 4584              		.loc 1 577 13 is_stmt 1 view .LVU1467
 577:lvgl/src/widgets/lv_btnmatrix.c ****             else if(btnm->btn_id_sel > 0) btnm->btn_id_sel--;
 4585              		.loc 1 577 20 is_stmt 0 view .LVU1468
 4586 04ba B38E     		ldrh	r3, [r6, #52]
 577:lvgl/src/widgets/lv_btnmatrix.c ****             else if(btnm->btn_id_sel > 0) btnm->btn_id_sel--;
ARM GAS  C:\usertemp\ccuzpgLf.s 			page 134


 4587              		.loc 1 577 15 view .LVU1469
 4588 04bc 33B9     		cbnz	r3, .L256
 577:lvgl/src/widgets/lv_btnmatrix.c ****             else if(btnm->btn_id_sel > 0) btnm->btn_id_sel--;
 4589              		.loc 1 577 39 is_stmt 1 discriminator 1 view .LVU1470
 577:lvgl/src/widgets/lv_btnmatrix.c ****             else if(btnm->btn_id_sel > 0) btnm->btn_id_sel--;
 4590              		.loc 1 577 62 is_stmt 0 discriminator 1 view .LVU1471
 4591 04be 338E     		ldrh	r3, [r6, #48]
 577:lvgl/src/widgets/lv_btnmatrix.c ****             else if(btnm->btn_id_sel > 0) btnm->btn_id_sel--;
 4592              		.loc 1 577 72 discriminator 1 view .LVU1472
 4593 04c0 013B     		subs	r3, r3, #1
 577:lvgl/src/widgets/lv_btnmatrix.c ****             else if(btnm->btn_id_sel > 0) btnm->btn_id_sel--;
 4594              		.loc 1 577 56 discriminator 1 view .LVU1473
 4595 04c2 B386     		strh	r3, [r6, #52]	@ movhi
 4596 04c4 08E0     		b	.L260
 4597              	.LVL463:
 4598              	.L295:
 575:lvgl/src/widgets/lv_btnmatrix.c **** 
 4599              		.loc 1 575 59 is_stmt 1 discriminator 1 view .LVU1474
 575:lvgl/src/widgets/lv_btnmatrix.c **** 
 4600              		.loc 1 575 76 is_stmt 0 discriminator 1 view .LVU1475
 4601 04c6 0023     		movs	r3, #0
 4602 04c8 B386     		strh	r3, [r6, #52]	@ movhi
 4603              	.LVL464:
 575:lvgl/src/widgets/lv_btnmatrix.c **** 
 4604              		.loc 1 575 76 discriminator 1 view .LVU1476
 4605 04ca F6E7     		b	.L255
 4606              	.L256:
 578:lvgl/src/widgets/lv_btnmatrix.c **** 
 4607              		.loc 1 578 18 is_stmt 1 view .LVU1477
 578:lvgl/src/widgets/lv_btnmatrix.c **** 
 4608              		.loc 1 578 43 discriminator 1 view .LVU1478
 578:lvgl/src/widgets/lv_btnmatrix.c **** 
 4609              		.loc 1 578 59 is_stmt 0 discriminator 1 view .LVU1479
 4610 04cc 013B     		subs	r3, r3, #1
 4611 04ce B386     		strh	r3, [r6, #52]	@ movhi
 4612 04d0 02E0     		b	.L260
 4613              	.LVL465:
 4614              	.L261:
 581:lvgl/src/widgets/lv_btnmatrix.c ****                 else btnm->btn_id_sel = btnm->btn_cnt - 1;
 4615              		.loc 1 581 17 is_stmt 1 view .LVU1480
 581:lvgl/src/widgets/lv_btnmatrix.c ****                 else btnm->btn_id_sel = btnm->btn_cnt - 1;
 4616              		.loc 1 581 19 is_stmt 0 view .LVU1481
 4617 04d2 84B1     		cbz	r4, .L258
 581:lvgl/src/widgets/lv_btnmatrix.c ****                 else btnm->btn_id_sel = btnm->btn_cnt - 1;
 4618              		.loc 1 581 42 is_stmt 1 discriminator 1 view .LVU1482
 581:lvgl/src/widgets/lv_btnmatrix.c ****                 else btnm->btn_id_sel = btnm->btn_cnt - 1;
 4619              		.loc 1 581 58 is_stmt 0 discriminator 1 view .LVU1483
 4620 04d4 013C     		subs	r4, r4, #1
 4621 04d6 B486     		strh	r4, [r6, #52]	@ movhi
 4622              	.L260:
 580:lvgl/src/widgets/lv_btnmatrix.c ****                 if(btnm->btn_id_sel > 0) btnm->btn_id_sel--;
 4623              		.loc 1 580 71 is_stmt 1 view .LVU1484
 580:lvgl/src/widgets/lv_btnmatrix.c ****                 if(btnm->btn_id_sel > 0) btnm->btn_id_sel--;
 4624              		.loc 1 580 40 is_stmt 0 view .LVU1485
 4625 04d8 F36A     		ldr	r3, [r6, #44]
 580:lvgl/src/widgets/lv_btnmatrix.c ****                 if(btnm->btn_id_sel > 0) btnm->btn_id_sel--;
 4626              		.loc 1 580 56 view .LVU1486
ARM GAS  C:\usertemp\ccuzpgLf.s 			page 135


 4627 04da B48E     		ldrh	r4, [r6, #52]
 580:lvgl/src/widgets/lv_btnmatrix.c ****                 if(btnm->btn_id_sel > 0) btnm->btn_id_sel--;
 4628              		.loc 1 580 19 view .LVU1487
 4629 04dc 33F81450 		ldrh	r5, [r3, r4, lsl #1]
 4630 04e0 2846     		mov	r0, r5
 4631 04e2 FFF7FEFF 		bl	button_is_hidden
 4632              	.LVL466:
 580:lvgl/src/widgets/lv_btnmatrix.c ****                 if(btnm->btn_id_sel > 0) btnm->btn_id_sel--;
 4633              		.loc 1 580 71 discriminator 1 view .LVU1488
 4634 04e6 0028     		cmp	r0, #0
 4635 04e8 F3D1     		bne	.L261
 580:lvgl/src/widgets/lv_btnmatrix.c ****                 if(btnm->btn_id_sel > 0) btnm->btn_id_sel--;
 4636              		.loc 1 580 74 discriminator 1 view .LVU1489
 4637 04ea 2846     		mov	r0, r5
 4638 04ec FFF7FEFF 		bl	button_is_inactive
 4639              	.LVL467:
 580:lvgl/src/widgets/lv_btnmatrix.c ****                 if(btnm->btn_id_sel > 0) btnm->btn_id_sel--;
 4640              		.loc 1 580 71 discriminator 1 view .LVU1490
 4641 04f0 0028     		cmp	r0, #0
 4642 04f2 EED1     		bne	.L261
 4643 04f4 D4E7     		b	.L243
 4644              	.L258:
 582:lvgl/src/widgets/lv_btnmatrix.c ****             }
 4645              		.loc 1 582 22 is_stmt 1 view .LVU1491
 582:lvgl/src/widgets/lv_btnmatrix.c ****             }
 4646              		.loc 1 582 45 is_stmt 0 view .LVU1492
 4647 04f6 338E     		ldrh	r3, [r6, #48]
 582:lvgl/src/widgets/lv_btnmatrix.c ****             }
 4648              		.loc 1 582 55 view .LVU1493
 4649 04f8 013B     		subs	r3, r3, #1
 582:lvgl/src/widgets/lv_btnmatrix.c ****             }
 4650              		.loc 1 582 39 view .LVU1494
 4651 04fa B386     		strh	r3, [r6, #52]	@ movhi
 4652 04fc ECE7     		b	.L260
 4653              	.LVL468:
 4654              	.L247:
 4655              	.LBB149:
 586:lvgl/src/widgets/lv_btnmatrix.c ****             /*Find the area below the current*/
 4656              		.loc 1 586 13 is_stmt 1 view .LVU1495
 4657              	.LBB150:
 4658              	.LBI150:
 121:lvgl/src/widgets/../core/lv_obj_style_gen.h **** {
 4659              		.loc 2 121 26 view .LVU1496
 4660              	.LBB151:
 123:lvgl/src/widgets/../core/lv_obj_style_gen.h ****     return (lv_coord_t)v.num;
 4661              		.loc 2 123 5 view .LVU1497
 123:lvgl/src/widgets/../core/lv_obj_style_gen.h ****     return (lv_coord_t)v.num;
 4662              		.loc 2 123 26 is_stmt 0 view .LVU1498
 4663 04fe 41F61502 		movw	r2, #6165
 4664 0502 0021     		movs	r1, #0
 4665 0504 3046     		mov	r0, r6
 4666              	.LVL469:
 123:lvgl/src/widgets/../core/lv_obj_style_gen.h ****     return (lv_coord_t)v.num;
 4667              		.loc 2 123 26 view .LVU1499
 4668 0506 FFF7FEFF 		bl	lv_obj_get_style_prop
 4669              	.LVL470:
 124:lvgl/src/widgets/../core/lv_obj_style_gen.h **** }
ARM GAS  C:\usertemp\ccuzpgLf.s 			page 136


 4670              		.loc 2 124 5 is_stmt 1 view .LVU1500
 124:lvgl/src/widgets/../core/lv_obj_style_gen.h **** }
 4671              		.loc 2 124 12 is_stmt 0 view .LVU1501
 4672 050a 0FFA80F9 		sxth	r9, r0
 4673              	.LVL471:
 124:lvgl/src/widgets/../core/lv_obj_style_gen.h **** }
 4674              		.loc 2 124 12 view .LVU1502
 4675              	.LBE151:
 4676              	.LBE150:
 588:lvgl/src/widgets/lv_btnmatrix.c ****                 btnm->btn_id_sel = 0;
 4677              		.loc 1 588 13 is_stmt 1 view .LVU1503
 588:lvgl/src/widgets/lv_btnmatrix.c ****                 btnm->btn_id_sel = 0;
 4678              		.loc 1 588 20 is_stmt 0 view .LVU1504
 4679 050e B48E     		ldrh	r4, [r6, #52]
 588:lvgl/src/widgets/lv_btnmatrix.c ****                 btnm->btn_id_sel = 0;
 4680              		.loc 1 588 15 view .LVU1505
 4681 0510 4FF6FF73 		movw	r3, #65535
 4682 0514 9C42     		cmp	r4, r3
 4683 0516 0ED0     		beq	.L296
 4684              	.LBB152:
 596:lvgl/src/widgets/lv_btnmatrix.c ****                 lv_coord_t pr_center =
 4685              		.loc 1 596 17 is_stmt 1 view .LVU1506
 597:lvgl/src/widgets/lv_btnmatrix.c ****                     btnm->button_areas[btnm->btn_id_sel].x1 + (lv_area_get_width(&btnm->button_area
 4686              		.loc 1 597 17 view .LVU1507
 598:lvgl/src/widgets/lv_btnmatrix.c **** 
 4687              		.loc 1 598 25 is_stmt 0 view .LVU1508
 4688 0518 B56A     		ldr	r5, [r6, #40]
 4689              	.LVL472:
 598:lvgl/src/widgets/lv_btnmatrix.c **** 
 4690              		.loc 1 598 39 view .LVU1509
 4691 051a 05EBC407 		add	r7, r5, r4, lsl #3
 598:lvgl/src/widgets/lv_btnmatrix.c **** 
 4692              		.loc 1 598 57 view .LVU1510
 4693 051e 35F83420 		ldrh	r2, [r5, r4, lsl #3]
 4694              	.LVL473:
 4695              	.LBB153:
 4696              	.LBI153:
 123:lvgl/src/widgets/../core/../misc/../font/../misc/lv_area.h **** {
 4697              		.loc 3 123 26 is_stmt 1 view .LVU1511
 4698              	.LBB154:
 125:lvgl/src/widgets/../core/../misc/../font/../misc/lv_area.h **** }
 4699              		.loc 3 125 5 view .LVU1512
 125:lvgl/src/widgets/../core/../misc/../font/../misc/lv_area.h **** }
 4700              		.loc 3 125 31 is_stmt 0 view .LVU1513
 4701 0522 BB88     		ldrh	r3, [r7, #4]
 125:lvgl/src/widgets/../core/../misc/../font/../misc/lv_area.h **** }
 4702              		.loc 3 125 36 view .LVU1514
 4703 0524 9B1A     		subs	r3, r3, r2
 4704 0526 9BB2     		uxth	r3, r3
 125:lvgl/src/widgets/../core/../misc/../font/../misc/lv_area.h **** }
 4705              		.loc 3 125 49 view .LVU1515
 4706 0528 0133     		adds	r3, r3, #1
 4707              	.LVL474:
 125:lvgl/src/widgets/../core/../misc/../font/../misc/lv_area.h **** }
 4708              		.loc 3 125 49 view .LVU1516
 4709              	.LBE154:
 4710              	.LBE153:
ARM GAS  C:\usertemp\ccuzpgLf.s 			page 137


 598:lvgl/src/widgets/lv_btnmatrix.c **** 
 4711              		.loc 1 598 61 discriminator 1 view .LVU1517
 4712 052a 43F34E03 		sbfx	r3, r3, #1, #15
 4713 052e 1A44     		add	r2, r2, r3
 597:lvgl/src/widgets/lv_btnmatrix.c ****                     btnm->button_areas[btnm->btn_id_sel].x1 + (lv_area_get_width(&btnm->button_area
 4714              		.loc 1 597 28 view .LVU1518
 4715 0530 0FFA82F8 		sxth	r8, r2
 4716              	.LVL475:
 600:lvgl/src/widgets/lv_btnmatrix.c ****                     if(btnm->button_areas[area_below].y1 > btnm->button_areas[btnm->btn_id_sel].y1 
 4717              		.loc 1 600 17 is_stmt 1 view .LVU1519
 600:lvgl/src/widgets/lv_btnmatrix.c ****                     if(btnm->button_areas[area_below].y1 > btnm->button_areas[btnm->btn_id_sel].y1 
 4718              		.loc 1 600 17 is_stmt 0 view .LVU1520
 4719 0534 1CE0     		b	.L266
 4720              	.LVL476:
 4721              	.L296:
 600:lvgl/src/widgets/lv_btnmatrix.c ****                     if(btnm->button_areas[area_below].y1 > btnm->button_areas[btnm->btn_id_sel].y1 
 4722              		.loc 1 600 17 view .LVU1521
 4723              	.LBE152:
 589:lvgl/src/widgets/lv_btnmatrix.c ****                 while(button_is_hidden(btnm->ctrl_bits[btnm->btn_id_sel]) || button_is_inactive(btn
 4724              		.loc 1 589 17 is_stmt 1 view .LVU1522
 589:lvgl/src/widgets/lv_btnmatrix.c ****                 while(button_is_hidden(btnm->ctrl_bits[btnm->btn_id_sel]) || button_is_inactive(btn
 4725              		.loc 1 589 34 is_stmt 0 view .LVU1523
 4726 0536 0023     		movs	r3, #0
 4727 0538 B386     		strh	r3, [r6, #52]	@ movhi
 590:lvgl/src/widgets/lv_btnmatrix.c ****                     btnm->btn_id_sel++;
 4728              		.loc 1 590 17 is_stmt 1 view .LVU1524
 590:lvgl/src/widgets/lv_btnmatrix.c ****                     btnm->btn_id_sel++;
 4729              		.loc 1 590 22 is_stmt 0 view .LVU1525
 4730 053a 05E0     		b	.L264
 4731              	.LVL477:
 4732              	.L265:
 591:lvgl/src/widgets/lv_btnmatrix.c ****                     if(btnm->btn_id_sel >= btnm->btn_cnt) btnm->btn_id_sel = 0;
 4733              		.loc 1 591 21 is_stmt 1 view .LVU1526
 591:lvgl/src/widgets/lv_btnmatrix.c ****                     if(btnm->btn_id_sel >= btnm->btn_cnt) btnm->btn_id_sel = 0;
 4734              		.loc 1 591 37 is_stmt 0 view .LVU1527
 4735 053c 0134     		adds	r4, r4, #1
 4736 053e A4B2     		uxth	r4, r4
 4737 0540 B486     		strh	r4, [r6, #52]	@ movhi
 592:lvgl/src/widgets/lv_btnmatrix.c ****                 }
 4738              		.loc 1 592 21 is_stmt 1 view .LVU1528
 592:lvgl/src/widgets/lv_btnmatrix.c ****                 }
 4739              		.loc 1 592 48 is_stmt 0 view .LVU1529
 4740 0542 338E     		ldrh	r3, [r6, #48]
 592:lvgl/src/widgets/lv_btnmatrix.c ****                 }
 4741              		.loc 1 592 23 view .LVU1530
 4742 0544 9C42     		cmp	r4, r3
 4743 0546 0ED2     		bcs	.L297
 4744              	.L264:
 590:lvgl/src/widgets/lv_btnmatrix.c ****                     btnm->btn_id_sel++;
 4745              		.loc 1 590 75 is_stmt 1 view .LVU1531
 590:lvgl/src/widgets/lv_btnmatrix.c ****                     btnm->btn_id_sel++;
 4746              		.loc 1 590 44 is_stmt 0 view .LVU1532
 4747 0548 F36A     		ldr	r3, [r6, #44]
 590:lvgl/src/widgets/lv_btnmatrix.c ****                     btnm->btn_id_sel++;
 4748              		.loc 1 590 60 view .LVU1533
 4749 054a B48E     		ldrh	r4, [r6, #52]
 590:lvgl/src/widgets/lv_btnmatrix.c ****                     btnm->btn_id_sel++;
ARM GAS  C:\usertemp\ccuzpgLf.s 			page 138


 4750              		.loc 1 590 23 view .LVU1534
 4751 054c 33F81450 		ldrh	r5, [r3, r4, lsl #1]
 4752 0550 2846     		mov	r0, r5
 4753 0552 FFF7FEFF 		bl	button_is_hidden
 4754              	.LVL478:
 590:lvgl/src/widgets/lv_btnmatrix.c ****                     btnm->btn_id_sel++;
 4755              		.loc 1 590 75 discriminator 1 view .LVU1535
 4756 0556 0028     		cmp	r0, #0
 4757 0558 F0D1     		bne	.L265
 590:lvgl/src/widgets/lv_btnmatrix.c ****                     btnm->btn_id_sel++;
 4758              		.loc 1 590 78 discriminator 1 view .LVU1536
 4759 055a 2846     		mov	r0, r5
 4760 055c FFF7FEFF 		bl	button_is_inactive
 4761              	.LVL479:
 590:lvgl/src/widgets/lv_btnmatrix.c ****                     btnm->btn_id_sel++;
 4762              		.loc 1 590 75 discriminator 1 view .LVU1537
 4763 0560 0028     		cmp	r0, #0
 4764 0562 EBD1     		bne	.L265
 4765 0564 9CE7     		b	.L243
 4766              	.L297:
 592:lvgl/src/widgets/lv_btnmatrix.c ****                 }
 4767              		.loc 1 592 59 is_stmt 1 discriminator 1 view .LVU1538
 592:lvgl/src/widgets/lv_btnmatrix.c ****                 }
 4768              		.loc 1 592 76 is_stmt 0 discriminator 1 view .LVU1539
 4769 0566 0023     		movs	r3, #0
 4770 0568 B386     		strh	r3, [r6, #52]	@ movhi
 4771 056a EDE7     		b	.L264
 4772              	.LVL480:
 4773              	.L267:
 4774              	.LBB155:
 600:lvgl/src/widgets/lv_btnmatrix.c ****                     if(btnm->button_areas[area_below].y1 > btnm->button_areas[btnm->btn_id_sel].y1 
 4775              		.loc 1 600 90 is_stmt 1 discriminator 2 view .LVU1540
 4776 056c 0134     		adds	r4, r4, #1
 4777              	.LVL481:
 600:lvgl/src/widgets/lv_btnmatrix.c ****                     if(btnm->button_areas[area_below].y1 > btnm->button_areas[btnm->btn_id_sel].y1 
 4778              		.loc 1 600 90 is_stmt 0 discriminator 2 view .LVU1541
 4779 056e A4B2     		uxth	r4, r4
 4780              	.LVL482:
 4781              	.L266:
 600:lvgl/src/widgets/lv_btnmatrix.c ****                     if(btnm->button_areas[area_below].y1 > btnm->button_areas[btnm->btn_id_sel].y1 
 4782              		.loc 1 600 63 is_stmt 1 discriminator 1 view .LVU1542
 600:lvgl/src/widgets/lv_btnmatrix.c ****                     if(btnm->button_areas[area_below].y1 > btnm->button_areas[btnm->btn_id_sel].y1 
 4783              		.loc 1 600 69 is_stmt 0 discriminator 1 view .LVU1543
 4784 0570 B6F830A0 		ldrh	r10, [r6, #48]
 600:lvgl/src/widgets/lv_btnmatrix.c ****                     if(btnm->button_areas[area_below].y1 > btnm->button_areas[btnm->btn_id_sel].y1 
 4785              		.loc 1 600 63 discriminator 1 view .LVU1544
 4786 0574 A245     		cmp	r10, r4
 4787 0576 1DD9     		bls	.L268
 601:lvgl/src/widgets/lv_btnmatrix.c ****                        pr_center >= btnm->button_areas[area_below].x1 &&
 4788              		.loc 1 601 21 is_stmt 1 view .LVU1545
 601:lvgl/src/widgets/lv_btnmatrix.c ****                        pr_center >= btnm->button_areas[area_below].x1 &&
 4789              		.loc 1 601 42 is_stmt 0 view .LVU1546
 4790 0578 05EBC403 		add	r3, r5, r4, lsl #3
 601:lvgl/src/widgets/lv_btnmatrix.c ****                        pr_center >= btnm->button_areas[area_below].x1 &&
 4791              		.loc 1 601 54 view .LVU1547
 4792 057c B3F90210 		ldrsh	r1, [r3, #2]
 601:lvgl/src/widgets/lv_btnmatrix.c ****                        pr_center >= btnm->button_areas[area_below].x1 &&
ARM GAS  C:\usertemp\ccuzpgLf.s 			page 139


 4793              		.loc 1 601 96 view .LVU1548
 4794 0580 B7F90220 		ldrsh	r2, [r7, #2]
 601:lvgl/src/widgets/lv_btnmatrix.c ****                        pr_center >= btnm->button_areas[area_below].x1 &&
 4795              		.loc 1 601 23 view .LVU1549
 4796 0584 9142     		cmp	r1, r2
 4797 0586 F1DD     		ble	.L267
 602:lvgl/src/widgets/lv_btnmatrix.c ****                        pr_center <= btnm->button_areas[area_below].x2 + col_gap &&
 4798              		.loc 1 602 67 view .LVU1550
 4799 0588 35F93420 		ldrsh	r2, [r5, r4, lsl #3]
 601:lvgl/src/widgets/lv_btnmatrix.c ****                        pr_center >= btnm->button_areas[area_below].x1 &&
 4800              		.loc 1 601 100 discriminator 1 view .LVU1551
 4801 058c 4245     		cmp	r2, r8
 4802 058e EDDC     		bgt	.L267
 603:lvgl/src/widgets/lv_btnmatrix.c ****                        button_is_inactive(btnm->ctrl_bits[area_below]) == false &&
 4803              		.loc 1 603 67 view .LVU1552
 4804 0590 B3F90430 		ldrsh	r3, [r3, #4]
 603:lvgl/src/widgets/lv_btnmatrix.c ****                        button_is_inactive(btnm->ctrl_bits[area_below]) == false &&
 4805              		.loc 1 603 71 view .LVU1553
 4806 0594 4B44     		add	r3, r3, r9
 602:lvgl/src/widgets/lv_btnmatrix.c ****                        pr_center <= btnm->button_areas[area_below].x2 + col_gap &&
 4807              		.loc 1 602 71 view .LVU1554
 4808 0596 9845     		cmp	r8, r3
 4809 0598 E8DC     		bgt	.L267
 604:lvgl/src/widgets/lv_btnmatrix.c ****                        button_is_hidden(btnm->ctrl_bits[area_below]) == false) {
 4810              		.loc 1 604 47 view .LVU1555
 4811 059a F36A     		ldr	r3, [r6, #44]
 604:lvgl/src/widgets/lv_btnmatrix.c ****                        button_is_hidden(btnm->ctrl_bits[area_below]) == false) {
 4812              		.loc 1 604 24 view .LVU1556
 4813 059c 33F814B0 		ldrh	fp, [r3, r4, lsl #1]
 4814 05a0 5846     		mov	r0, fp
 4815 05a2 FFF7FEFF 		bl	button_is_inactive
 4816              	.LVL483:
 603:lvgl/src/widgets/lv_btnmatrix.c ****                        button_is_inactive(btnm->ctrl_bits[area_below]) == false &&
 4817              		.loc 1 603 81 view .LVU1557
 4818 05a6 0028     		cmp	r0, #0
 4819 05a8 E0D1     		bne	.L267
 605:lvgl/src/widgets/lv_btnmatrix.c ****                         break;
 4820              		.loc 1 605 24 view .LVU1558
 4821 05aa 5846     		mov	r0, fp
 4822 05ac FFF7FEFF 		bl	button_is_hidden
 4823              	.LVL484:
 604:lvgl/src/widgets/lv_btnmatrix.c ****                        button_is_hidden(btnm->ctrl_bits[area_below]) == false) {
 4824              		.loc 1 604 81 view .LVU1559
 4825 05b0 0028     		cmp	r0, #0
 4826 05b2 DBD1     		bne	.L267
 4827              	.L268:
 610:lvgl/src/widgets/lv_btnmatrix.c ****             }
 4828              		.loc 1 610 17 is_stmt 1 view .LVU1560
 610:lvgl/src/widgets/lv_btnmatrix.c ****             }
 4829              		.loc 1 610 19 is_stmt 0 view .LVU1561
 4830 05b4 A245     		cmp	r10, r4
 4831 05b6 7FF673AF 		bls	.L243
 610:lvgl/src/widgets/lv_btnmatrix.c ****             }
 4832              		.loc 1 610 48 is_stmt 1 discriminator 1 view .LVU1562
 610:lvgl/src/widgets/lv_btnmatrix.c ****             }
 4833              		.loc 1 610 65 is_stmt 0 discriminator 1 view .LVU1563
 4834 05ba B486     		strh	r4, [r6, #52]	@ movhi
ARM GAS  C:\usertemp\ccuzpgLf.s 			page 140


 4835 05bc 70E7     		b	.L243
 4836              	.LVL485:
 4837              	.L248:
 610:lvgl/src/widgets/lv_btnmatrix.c ****             }
 4838              		.loc 1 610 65 discriminator 1 view .LVU1564
 4839              	.LBE155:
 4840              	.LBE149:
 4841              	.LBB156:
 614:lvgl/src/widgets/lv_btnmatrix.c ****             /*Find the area below the current*/
 4842              		.loc 1 614 13 is_stmt 1 view .LVU1565
 4843              	.LBB157:
 4844              	.LBI157:
 121:lvgl/src/widgets/../core/lv_obj_style_gen.h **** {
 4845              		.loc 2 121 26 view .LVU1566
 4846              	.LBB158:
 123:lvgl/src/widgets/../core/lv_obj_style_gen.h ****     return (lv_coord_t)v.num;
 4847              		.loc 2 123 5 view .LVU1567
 123:lvgl/src/widgets/../core/lv_obj_style_gen.h ****     return (lv_coord_t)v.num;
 4848              		.loc 2 123 26 is_stmt 0 view .LVU1568
 4849 05be 41F61502 		movw	r2, #6165
 4850 05c2 0021     		movs	r1, #0
 4851 05c4 3046     		mov	r0, r6
 4852              	.LVL486:
 123:lvgl/src/widgets/../core/lv_obj_style_gen.h ****     return (lv_coord_t)v.num;
 4853              		.loc 2 123 26 view .LVU1569
 4854 05c6 FFF7FEFF 		bl	lv_obj_get_style_prop
 4855              	.LVL487:
 124:lvgl/src/widgets/../core/lv_obj_style_gen.h **** }
 4856              		.loc 2 124 5 is_stmt 1 view .LVU1570
 124:lvgl/src/widgets/../core/lv_obj_style_gen.h **** }
 4857              		.loc 2 124 12 is_stmt 0 view .LVU1571
 4858 05ca 0FFA80F9 		sxth	r9, r0
 4859              	.LVL488:
 124:lvgl/src/widgets/../core/lv_obj_style_gen.h **** }
 4860              		.loc 2 124 12 view .LVU1572
 4861              	.LBE158:
 4862              	.LBE157:
 616:lvgl/src/widgets/lv_btnmatrix.c ****                 btnm->btn_id_sel = 0;
 4863              		.loc 1 616 13 is_stmt 1 view .LVU1573
 616:lvgl/src/widgets/lv_btnmatrix.c ****                 btnm->btn_id_sel = 0;
 4864              		.loc 1 616 20 is_stmt 0 view .LVU1574
 4865 05ce B48E     		ldrh	r4, [r6, #52]
 616:lvgl/src/widgets/lv_btnmatrix.c ****                 btnm->btn_id_sel = 0;
 4866              		.loc 1 616 15 view .LVU1575
 4867 05d0 4FF6FF73 		movw	r3, #65535
 4868 05d4 9C42     		cmp	r4, r3
 4869 05d6 0FD0     		beq	.L298
 4870              	.LBB159:
 624:lvgl/src/widgets/lv_btnmatrix.c ****                 lv_coord_t pr_center =
 4871              		.loc 1 624 17 is_stmt 1 view .LVU1576
 625:lvgl/src/widgets/lv_btnmatrix.c ****                     btnm->button_areas[btnm->btn_id_sel].x1 + (lv_area_get_width(&btnm->button_area
 4872              		.loc 1 625 17 view .LVU1577
 626:lvgl/src/widgets/lv_btnmatrix.c **** 
 4873              		.loc 1 626 25 is_stmt 0 view .LVU1578
 4874 05d8 B56A     		ldr	r5, [r6, #40]
 4875              	.LVL489:
 626:lvgl/src/widgets/lv_btnmatrix.c **** 
ARM GAS  C:\usertemp\ccuzpgLf.s 			page 141


 4876              		.loc 1 626 39 view .LVU1579
 4877 05da 05EBC407 		add	r7, r5, r4, lsl #3
 626:lvgl/src/widgets/lv_btnmatrix.c **** 
 4878              		.loc 1 626 57 view .LVU1580
 4879 05de 35F83420 		ldrh	r2, [r5, r4, lsl #3]
 4880              	.LVL490:
 4881              	.LBB160:
 4882              	.LBI160:
 123:lvgl/src/widgets/../core/../misc/../font/../misc/lv_area.h **** {
 4883              		.loc 3 123 26 is_stmt 1 view .LVU1581
 4884              	.LBB161:
 125:lvgl/src/widgets/../core/../misc/../font/../misc/lv_area.h **** }
 4885              		.loc 3 125 5 view .LVU1582
 125:lvgl/src/widgets/../core/../misc/../font/../misc/lv_area.h **** }
 4886              		.loc 3 125 31 is_stmt 0 view .LVU1583
 4887 05e2 BB88     		ldrh	r3, [r7, #4]
 125:lvgl/src/widgets/../core/../misc/../font/../misc/lv_area.h **** }
 4888              		.loc 3 125 36 view .LVU1584
 4889 05e4 9B1A     		subs	r3, r3, r2
 4890 05e6 9BB2     		uxth	r3, r3
 125:lvgl/src/widgets/../core/../misc/../font/../misc/lv_area.h **** }
 4891              		.loc 3 125 49 view .LVU1585
 4892 05e8 0133     		adds	r3, r3, #1
 4893              	.LVL491:
 125:lvgl/src/widgets/../core/../misc/../font/../misc/lv_area.h **** }
 4894              		.loc 3 125 49 view .LVU1586
 4895              	.LBE161:
 4896              	.LBE160:
 626:lvgl/src/widgets/lv_btnmatrix.c **** 
 4897              		.loc 1 626 61 discriminator 1 view .LVU1587
 4898 05ea 43F34E03 		sbfx	r3, r3, #1, #15
 4899 05ee 1A44     		add	r2, r2, r3
 625:lvgl/src/widgets/lv_btnmatrix.c ****                     btnm->button_areas[btnm->btn_id_sel].x1 + (lv_area_get_width(&btnm->button_area
 4900              		.loc 1 625 28 view .LVU1588
 4901 05f0 0FFA82F8 		sxth	r8, r2
 4902              	.LVL492:
 628:lvgl/src/widgets/lv_btnmatrix.c ****                     if(btnm->button_areas[area_above].y1 < btnm->button_areas[btnm->btn_id_sel].y1 
 4903              		.loc 1 628 17 is_stmt 1 view .LVU1589
 628:lvgl/src/widgets/lv_btnmatrix.c ****                     if(btnm->button_areas[area_above].y1 < btnm->button_areas[btnm->btn_id_sel].y1 
 4904              		.loc 1 628 32 is_stmt 0 view .LVU1590
 4905 05f4 24B2     		sxth	r4, r4
 4906              	.LVL493:
 628:lvgl/src/widgets/lv_btnmatrix.c ****                     if(btnm->button_areas[area_above].y1 < btnm->button_areas[btnm->btn_id_sel].y1 
 4907              		.loc 1 628 17 view .LVU1591
 4908 05f6 1CE0     		b	.L274
 4909              	.LVL494:
 4910              	.L298:
 628:lvgl/src/widgets/lv_btnmatrix.c ****                     if(btnm->button_areas[area_above].y1 < btnm->button_areas[btnm->btn_id_sel].y1 
 4911              		.loc 1 628 17 view .LVU1592
 4912              	.LBE159:
 617:lvgl/src/widgets/lv_btnmatrix.c ****                 while(button_is_hidden(btnm->ctrl_bits[btnm->btn_id_sel]) || button_is_inactive(btn
 4913              		.loc 1 617 17 is_stmt 1 view .LVU1593
 617:lvgl/src/widgets/lv_btnmatrix.c ****                 while(button_is_hidden(btnm->ctrl_bits[btnm->btn_id_sel]) || button_is_inactive(btn
 4914              		.loc 1 617 34 is_stmt 0 view .LVU1594
 4915 05f8 0023     		movs	r3, #0
 4916 05fa B386     		strh	r3, [r6, #52]	@ movhi
 618:lvgl/src/widgets/lv_btnmatrix.c ****                     btnm->btn_id_sel++;
ARM GAS  C:\usertemp\ccuzpgLf.s 			page 142


 4917              		.loc 1 618 17 is_stmt 1 view .LVU1595
 618:lvgl/src/widgets/lv_btnmatrix.c ****                     btnm->btn_id_sel++;
 4918              		.loc 1 618 22 is_stmt 0 view .LVU1596
 4919 05fc 05E0     		b	.L272
 4920              	.LVL495:
 4921              	.L273:
 619:lvgl/src/widgets/lv_btnmatrix.c ****                     if(btnm->btn_id_sel >= btnm->btn_cnt) btnm->btn_id_sel = 0;
 4922              		.loc 1 619 21 is_stmt 1 view .LVU1597
 619:lvgl/src/widgets/lv_btnmatrix.c ****                     if(btnm->btn_id_sel >= btnm->btn_cnt) btnm->btn_id_sel = 0;
 4923              		.loc 1 619 37 is_stmt 0 view .LVU1598
 4924 05fe 0134     		adds	r4, r4, #1
 4925 0600 A4B2     		uxth	r4, r4
 4926 0602 B486     		strh	r4, [r6, #52]	@ movhi
 620:lvgl/src/widgets/lv_btnmatrix.c ****                 }
 4927              		.loc 1 620 21 is_stmt 1 view .LVU1599
 620:lvgl/src/widgets/lv_btnmatrix.c ****                 }
 4928              		.loc 1 620 48 is_stmt 0 view .LVU1600
 4929 0604 338E     		ldrh	r3, [r6, #48]
 620:lvgl/src/widgets/lv_btnmatrix.c ****                 }
 4930              		.loc 1 620 23 view .LVU1601
 4931 0606 9C42     		cmp	r4, r3
 4932 0608 0ED2     		bcs	.L299
 4933              	.L272:
 618:lvgl/src/widgets/lv_btnmatrix.c ****                     btnm->btn_id_sel++;
 4934              		.loc 1 618 75 is_stmt 1 view .LVU1602
 618:lvgl/src/widgets/lv_btnmatrix.c ****                     btnm->btn_id_sel++;
 4935              		.loc 1 618 44 is_stmt 0 view .LVU1603
 4936 060a F36A     		ldr	r3, [r6, #44]
 618:lvgl/src/widgets/lv_btnmatrix.c ****                     btnm->btn_id_sel++;
 4937              		.loc 1 618 60 view .LVU1604
 4938 060c B48E     		ldrh	r4, [r6, #52]
 618:lvgl/src/widgets/lv_btnmatrix.c ****                     btnm->btn_id_sel++;
 4939              		.loc 1 618 23 view .LVU1605
 4940 060e 33F81450 		ldrh	r5, [r3, r4, lsl #1]
 4941 0612 2846     		mov	r0, r5
 4942 0614 FFF7FEFF 		bl	button_is_hidden
 4943              	.LVL496:
 618:lvgl/src/widgets/lv_btnmatrix.c ****                     btnm->btn_id_sel++;
 4944              		.loc 1 618 75 discriminator 1 view .LVU1606
 4945 0618 0028     		cmp	r0, #0
 4946 061a F0D1     		bne	.L273
 618:lvgl/src/widgets/lv_btnmatrix.c ****                     btnm->btn_id_sel++;
 4947              		.loc 1 618 78 discriminator 1 view .LVU1607
 4948 061c 2846     		mov	r0, r5
 4949 061e FFF7FEFF 		bl	button_is_inactive
 4950              	.LVL497:
 618:lvgl/src/widgets/lv_btnmatrix.c ****                     btnm->btn_id_sel++;
 4951              		.loc 1 618 75 discriminator 1 view .LVU1608
 4952 0622 0028     		cmp	r0, #0
 4953 0624 EBD1     		bne	.L273
 4954 0626 3BE7     		b	.L243
 4955              	.L299:
 620:lvgl/src/widgets/lv_btnmatrix.c ****                 }
 4956              		.loc 1 620 59 is_stmt 1 discriminator 1 view .LVU1609
 620:lvgl/src/widgets/lv_btnmatrix.c ****                 }
 4957              		.loc 1 620 76 is_stmt 0 discriminator 1 view .LVU1610
 4958 0628 0023     		movs	r3, #0
ARM GAS  C:\usertemp\ccuzpgLf.s 			page 143


 4959 062a B386     		strh	r3, [r6, #52]	@ movhi
 4960 062c EDE7     		b	.L272
 4961              	.LVL498:
 4962              	.L275:
 4963              	.LBB162:
 628:lvgl/src/widgets/lv_btnmatrix.c ****                     if(btnm->button_areas[area_above].y1 < btnm->button_areas[btnm->btn_id_sel].y1 
 4964              		.loc 1 628 79 is_stmt 1 discriminator 2 view .LVU1611
 4965 062e 013C     		subs	r4, r4, #1
 4966              	.LVL499:
 628:lvgl/src/widgets/lv_btnmatrix.c ****                     if(btnm->button_areas[area_above].y1 < btnm->button_areas[btnm->btn_id_sel].y1 
 4967              		.loc 1 628 79 is_stmt 0 discriminator 2 view .LVU1612
 4968 0630 24B2     		sxth	r4, r4
 4969              	.LVL500:
 4970              	.L274:
 628:lvgl/src/widgets/lv_btnmatrix.c ****                     if(btnm->button_areas[area_above].y1 < btnm->button_areas[btnm->btn_id_sel].y1 
 4971              		.loc 1 628 63 is_stmt 1 discriminator 1 view .LVU1613
 4972 0632 002C     		cmp	r4, #0
 4973 0634 1EDB     		blt	.L276
 629:lvgl/src/widgets/lv_btnmatrix.c ****                        pr_center >= btnm->button_areas[area_above].x1 - col_gap &&
 4974              		.loc 1 629 21 view .LVU1614
 629:lvgl/src/widgets/lv_btnmatrix.c ****                        pr_center >= btnm->button_areas[area_above].x1 - col_gap &&
 4975              		.loc 1 629 42 is_stmt 0 view .LVU1615
 4976 0636 05EBC403 		add	r3, r5, r4, lsl #3
 629:lvgl/src/widgets/lv_btnmatrix.c ****                        pr_center >= btnm->button_areas[area_above].x1 - col_gap &&
 4977              		.loc 1 629 54 view .LVU1616
 4978 063a B3F90210 		ldrsh	r1, [r3, #2]
 629:lvgl/src/widgets/lv_btnmatrix.c ****                        pr_center >= btnm->button_areas[area_above].x1 - col_gap &&
 4979              		.loc 1 629 96 view .LVU1617
 4980 063e B7F90220 		ldrsh	r2, [r7, #2]
 629:lvgl/src/widgets/lv_btnmatrix.c ****                        pr_center >= btnm->button_areas[area_above].x1 - col_gap &&
 4981              		.loc 1 629 23 view .LVU1618
 4982 0642 9142     		cmp	r1, r2
 4983 0644 F3DA     		bge	.L275
 630:lvgl/src/widgets/lv_btnmatrix.c ****                        pr_center <= btnm->button_areas[area_above].x2 &&
 4984              		.loc 1 630 67 view .LVU1619
 4985 0646 35F93420 		ldrsh	r2, [r5, r4, lsl #3]
 630:lvgl/src/widgets/lv_btnmatrix.c ****                        pr_center <= btnm->button_areas[area_above].x2 &&
 4986              		.loc 1 630 71 view .LVU1620
 4987 064a A2EB0902 		sub	r2, r2, r9
 629:lvgl/src/widgets/lv_btnmatrix.c ****                        pr_center >= btnm->button_areas[area_above].x1 - col_gap &&
 4988              		.loc 1 629 100 discriminator 1 view .LVU1621
 4989 064e 9045     		cmp	r8, r2
 4990 0650 EDDB     		blt	.L275
 631:lvgl/src/widgets/lv_btnmatrix.c ****                        button_is_inactive(btnm->ctrl_bits[area_above]) == false &&
 4991              		.loc 1 631 67 view .LVU1622
 4992 0652 B3F90430 		ldrsh	r3, [r3, #4]
 630:lvgl/src/widgets/lv_btnmatrix.c ****                        pr_center <= btnm->button_areas[area_above].x2 &&
 4993              		.loc 1 630 81 view .LVU1623
 4994 0656 4345     		cmp	r3, r8
 4995 0658 E9DB     		blt	.L275
 632:lvgl/src/widgets/lv_btnmatrix.c ****                        button_is_hidden(btnm->ctrl_bits[area_above]) == false) {
 4996              		.loc 1 632 47 view .LVU1624
 4997 065a F36A     		ldr	r3, [r6, #44]
 632:lvgl/src/widgets/lv_btnmatrix.c ****                        button_is_hidden(btnm->ctrl_bits[area_above]) == false) {
 4998              		.loc 1 632 24 view .LVU1625
 4999 065c 33F814A0 		ldrh	r10, [r3, r4, lsl #1]
 5000 0660 5046     		mov	r0, r10
ARM GAS  C:\usertemp\ccuzpgLf.s 			page 144


 5001 0662 FFF7FEFF 		bl	button_is_inactive
 5002              	.LVL501:
 631:lvgl/src/widgets/lv_btnmatrix.c ****                        button_is_inactive(btnm->ctrl_bits[area_above]) == false &&
 5003              		.loc 1 631 71 view .LVU1626
 5004 0666 0028     		cmp	r0, #0
 5005 0668 E1D1     		bne	.L275
 633:lvgl/src/widgets/lv_btnmatrix.c ****                         break;
 5006              		.loc 1 633 24 view .LVU1627
 5007 066a 5046     		mov	r0, r10
 5008 066c FFF7FEFF 		bl	button_is_hidden
 5009              	.LVL502:
 632:lvgl/src/widgets/lv_btnmatrix.c ****                        button_is_hidden(btnm->ctrl_bits[area_above]) == false) {
 5010              		.loc 1 632 81 view .LVU1628
 5011 0670 0028     		cmp	r0, #0
 5012 0672 DCD1     		bne	.L275
 5013              	.L276:
 637:lvgl/src/widgets/lv_btnmatrix.c ****             }
 5014              		.loc 1 637 17 is_stmt 1 view .LVU1629
 637:lvgl/src/widgets/lv_btnmatrix.c ****             }
 5015              		.loc 1 637 19 is_stmt 0 view .LVU1630
 5016 0674 002C     		cmp	r4, #0
 5017 0676 FFF613AF 		blt	.L243
 637:lvgl/src/widgets/lv_btnmatrix.c ****             }
 5018              		.loc 1 637 37 is_stmt 1 discriminator 1 view .LVU1631
 637:lvgl/src/widgets/lv_btnmatrix.c ****             }
 5019              		.loc 1 637 54 is_stmt 0 discriminator 1 view .LVU1632
 5020 067a B486     		strh	r4, [r6, #52]	@ movhi
 5021 067c 10E7     		b	.L243
 5022              	.LVL503:
 5023              	.L214:
 637:lvgl/src/widgets/lv_btnmatrix.c ****             }
 5024              		.loc 1 637 54 discriminator 1 view .LVU1633
 5025              	.LBE162:
 5026              	.LBE156:
 5027              	.LBE163:
 644:lvgl/src/widgets/lv_btnmatrix.c ****     }
 5028              		.loc 1 644 9 is_stmt 1 view .LVU1634
 5029 067e 2846     		mov	r0, r5
 5030 0680 FFF7FEFF 		bl	draw_main
 5031              	.LVL504:
 5032 0684 C5E4     		b	.L205
 5033              		.cfi_endproc
 5034              	.LFE173:
 5036 0686 00BF     		.section	.text.lv_btnmatrix_set_one_checked,"ax",%progbits
 5037              		.align	1
 5038              		.global	lv_btnmatrix_set_one_checked
 5039              		.syntax unified
 5040              		.thumb
 5041              		.thumb_func
 5043              	lv_btnmatrix_set_one_checked:
 5044              	.LVL505:
 5045              	.LFB165:
 278:lvgl/src/widgets/lv_btnmatrix.c ****     LV_ASSERT_OBJ(obj, MY_CLASS);
 5046              		.loc 1 278 1 view -0
 5047              		.cfi_startproc
 5048              		@ args = 0, pretend = 0, frame = 0
 5049              		@ frame_needed = 0, uses_anonymous_args = 0
ARM GAS  C:\usertemp\ccuzpgLf.s 			page 145


 278:lvgl/src/widgets/lv_btnmatrix.c ****     LV_ASSERT_OBJ(obj, MY_CLASS);
 5050              		.loc 1 278 1 is_stmt 0 view .LVU1636
 5051 0000 08B5     		push	{r3, lr}
 5052              	.LCFI38:
 5053              		.cfi_def_cfa_offset 8
 5054              		.cfi_offset 3, -8
 5055              		.cfi_offset 14, -4
 279:lvgl/src/widgets/lv_btnmatrix.c **** 
 5056              		.loc 1 279 5 is_stmt 1 view .LVU1637
 279:lvgl/src/widgets/lv_btnmatrix.c **** 
 5057              		.loc 1 279 5 view .LVU1638
 279:lvgl/src/widgets/lv_btnmatrix.c **** 
 5058              		.loc 1 279 5 view .LVU1639
 281:lvgl/src/widgets/lv_btnmatrix.c ****     btnm->one_check     = en;
 5059              		.loc 1 281 5 view .LVU1640
 5060              	.LVL506:
 281:lvgl/src/widgets/lv_btnmatrix.c ****     btnm->one_check     = en;
 5061              		.loc 1 281 51 view .LVU1641
 282:lvgl/src/widgets/lv_btnmatrix.c **** 
 5062              		.loc 1 282 5 view .LVU1642
 282:lvgl/src/widgets/lv_btnmatrix.c **** 
 5063              		.loc 1 282 25 is_stmt 0 view .LVU1643
 5064 0002 90F83620 		ldrb	r2, [r0, #54]	@ zero_extendqisi2
 5065 0006 61F30002 		bfi	r2, r1, #0, #1
 5066 000a 80F83620 		strb	r2, [r0, #54]
 285:lvgl/src/widgets/lv_btnmatrix.c **** }
 5067              		.loc 1 285 5 is_stmt 1 view .LVU1644
 5068 000e 0021     		movs	r1, #0
 5069              	.LVL507:
 285:lvgl/src/widgets/lv_btnmatrix.c **** }
 5070              		.loc 1 285 5 is_stmt 0 view .LVU1645
 5071 0010 FFF7FEFF 		bl	make_one_button_checked
 5072              	.LVL508:
 286:lvgl/src/widgets/lv_btnmatrix.c **** 
 5073              		.loc 1 286 1 view .LVU1646
 5074 0014 08BD     		pop	{r3, pc}
 5075              		.cfi_endproc
 5076              	.LFE165:
 5078              		.section	.text.lv_btnmatrix_get_one_checked,"ax",%progbits
 5079              		.align	1
 5080              		.global	lv_btnmatrix_get_one_checked
 5081              		.syntax unified
 5082              		.thumb
 5083              		.thumb_func
 5085              	lv_btnmatrix_get_one_checked:
 5086              	.LVL509:
 5087              	.LFB170:
 344:lvgl/src/widgets/lv_btnmatrix.c ****     LV_ASSERT_OBJ(obj, MY_CLASS);
 5088              		.loc 1 344 1 is_stmt 1 view -0
 5089              		.cfi_startproc
 5090              		@ args = 0, pretend = 0, frame = 0
 5091              		@ frame_needed = 0, uses_anonymous_args = 0
 5092              		@ link register save eliminated.
 345:lvgl/src/widgets/lv_btnmatrix.c **** 
 5093              		.loc 1 345 5 view .LVU1648
 345:lvgl/src/widgets/lv_btnmatrix.c **** 
 5094              		.loc 1 345 5 view .LVU1649
ARM GAS  C:\usertemp\ccuzpgLf.s 			page 146


 345:lvgl/src/widgets/lv_btnmatrix.c **** 
 5095              		.loc 1 345 5 view .LVU1650
 347:lvgl/src/widgets/lv_btnmatrix.c **** 
 5096              		.loc 1 347 5 view .LVU1651
 347:lvgl/src/widgets/lv_btnmatrix.c **** 
 5097              		.loc 1 347 51 view .LVU1652
 349:lvgl/src/widgets/lv_btnmatrix.c **** }
 5098              		.loc 1 349 5 view .LVU1653
 349:lvgl/src/widgets/lv_btnmatrix.c **** }
 5099              		.loc 1 349 16 is_stmt 0 view .LVU1654
 5100 0000 90F83600 		ldrb	r0, [r0, #54]	@ zero_extendqisi2
 5101              	.LVL510:
 350:lvgl/src/widgets/lv_btnmatrix.c **** 
 5102              		.loc 1 350 1 view .LVU1655
 5103 0004 00F00100 		and	r0, r0, #1
 5104 0008 7047     		bx	lr
 5105              		.cfi_endproc
 5106              	.LFE170:
 5108              		.global	lv_btnmatrix_class
 5109              		.section	.rodata.lv_btnmatrix_class,"a"
 5110              		.align	2
 5113              	lv_btnmatrix_class:
 5114 0000 00000000 		.word	lv_obj_class
 5115 0004 00000000 		.word	lv_btnmatrix_constructor
 5116 0008 00000000 		.word	lv_btnmatrix_destructor
 5117 000c 00000000 		.space	4
 5118 0010 00000000 		.word	lv_btnmatrix_event
 5119 0014 0401     		.short	260
 5120 0016 8200     		.short	130
 5121 0018 85       		.byte	133
 5122 0019 03       		.byte	3
 5123 001a 00       		.byte	0
 5124 001b 00       		.space	1
 5125              		.section	.rodata.str1.4,"aMS",%progbits,1
 5126              		.align	2
 5127              	.LC1:
 5128 0000 42746E31 		.ascii	"Btn1\000"
 5128      00
 5129 0005 000000   		.align	2
 5130              	.LC2:
 5131 0008 42746E32 		.ascii	"Btn2\000"
 5131      00
 5132 000d 000000   		.align	2
 5133              	.LC3:
 5134 0010 42746E33 		.ascii	"Btn3\000"
 5134      00
 5135 0015 000000   		.align	2
 5136              	.LC4:
 5137 0018 42746E34 		.ascii	"Btn4\000"
 5137      00
 5138 001d 000000   		.align	2
 5139              	.LC5:
 5140 0020 42746E35 		.ascii	"Btn5\000"
 5140      00
 5141 0025 000000   		.align	2
 5142              	.LC6:
 5143 0028 00       		.ascii	"\000"
ARM GAS  C:\usertemp\ccuzpgLf.s 			page 147


 5144              		.section	.data.lv_btnmatrix_def_map,"aw"
 5145              		.align	2
 5148              	lv_btnmatrix_def_map:
 5149 0000 00000000 		.word	.LC1
 5150 0004 08000000 		.word	.LC2
 5151 0008 10000000 		.word	.LC3
 5152 000c 00000000 		.word	.LC0
 5153 0010 18000000 		.word	.LC4
 5154 0014 20000000 		.word	.LC5
 5155 0018 28000000 		.word	.LC6
 5156              		.text
 5157              	.Letext0:
 5158              		.file 4 "D:/armtoolchain/arm-gnu-toolchain-13.3.rel1-mingw-w64-i686-arm-none-eabi/arm-none-eabi/in
 5159              		.file 5 "D:/armtoolchain/arm-gnu-toolchain-13.3.rel1-mingw-w64-i686-arm-none-eabi/arm-none-eabi/in
 5160              		.file 6 "D:/armtoolchain/arm-gnu-toolchain-13.3.rel1-mingw-w64-i686-arm-none-eabi/lib/gcc/arm-none
 5161              		.file 7 "lvgl/src/widgets/../core/../misc/../font/lv_font.h"
 5162              		.file 8 "lvgl/src/widgets/../core/../misc/lv_types.h"
 5163              		.file 9 "lvgl/src/widgets/../core/../misc/lv_color.h"
 5164              		.file 10 "lvgl/src/widgets/../core/../misc/lv_txt.h"
 5165              		.file 11 "lvgl/src/widgets/../core/../misc/lv_bidi.h"
 5166              		.file 12 "lvgl/src/widgets/../core/../misc/lv_style.h"
 5167              		.file 13 "lvgl/src/widgets/../core/../hal/../draw/lv_img_buf.h"
 5168              		.file 14 "lvgl/src/widgets/../core/lv_obj.h"
 5169              		.file 15 "lvgl/src/widgets/../core/../hal/../draw/lv_draw_rect.h"
 5170              		.file 16 "lvgl/src/widgets/../core/../hal/../draw/lv_draw_label.h"
 5171              		.file 17 "lvgl/src/widgets/../core/../hal/../draw/lv_draw_img.h"
 5172              		.file 18 "lvgl/src/widgets/../core/../hal/../draw/lv_draw_line.h"
 5173              		.file 19 "lvgl/src/widgets/../core/../hal/../draw/lv_draw_arc.h"
 5174              		.file 20 "lvgl/src/widgets/../core/../hal/../draw/lv_draw.h"
 5175              		.file 21 "lvgl/src/widgets/../core/../hal/../misc/lv_ll.h"
 5176              		.file 22 "lvgl/src/widgets/../core/../hal/../misc/lv_timer.h"
 5177              		.file 23 "lvgl/src/widgets/../core/../hal/lv_hal_disp.h"
 5178              		.file 24 "lvgl/src/widgets/../core/../hal/lv_hal_indev.h"
 5179              		.file 25 "lvgl/src/widgets/../core/lv_group.h"
 5180              		.file 26 "lvgl/src/widgets/../core/lv_obj_scroll.h"
 5181              		.file 27 "lvgl/src/widgets/../core/lv_obj_style.h"
 5182              		.file 28 "lvgl/src/widgets/../core/lv_obj_draw.h"
 5183              		.file 29 "lvgl/src/widgets/../core/lv_obj_class.h"
 5184              		.file 30 "lvgl/src/widgets/../core/lv_event.h"
 5185              		.file 31 "lvgl/src/widgets/lv_btnmatrix.h"
 5186              		.file 32 "lvgl/src/widgets/../core/../misc/lv_mem.h"
 5187              		.file 33 "D:/update_2024EL/changeform/743zit6/lvgl/src/core/lv_obj_pos.h"
 5188              		.file 34 "lvgl/src/widgets/../core/lv_obj_tree.h"
 5189              		.file 35 "D:/armtoolchain/arm-gnu-toolchain-13.3.rel1-mingw-w64-i686-arm-none-eabi/arm-none-eabi/i
 5190              		.file 36 "lvgl/src/widgets/../core/lv_indev.h"
ARM GAS  C:\usertemp\ccuzpgLf.s 			page 148


DEFINED SYMBOLS
                            *ABS*:00000000 lv_btnmatrix.c
C:\usertemp\ccuzpgLf.s:20     .text.get_button_width:00000000 $t
C:\usertemp\ccuzpgLf.s:25     .text.get_button_width:00000000 get_button_width
C:\usertemp\ccuzpgLf.s:49     .text.button_is_hidden:00000000 $t
C:\usertemp\ccuzpgLf.s:54     .text.button_is_hidden:00000000 button_is_hidden
C:\usertemp\ccuzpgLf.s:72     .text.button_is_checked:00000000 $t
C:\usertemp\ccuzpgLf.s:77     .text.button_is_checked:00000000 button_is_checked
C:\usertemp\ccuzpgLf.s:95     .text.button_is_repeat_disabled:00000000 $t
C:\usertemp\ccuzpgLf.s:100    .text.button_is_repeat_disabled:00000000 button_is_repeat_disabled
C:\usertemp\ccuzpgLf.s:118    .text.button_is_inactive:00000000 $t
C:\usertemp\ccuzpgLf.s:123    .text.button_is_inactive:00000000 button_is_inactive
C:\usertemp\ccuzpgLf.s:141    .text.button_is_click_trig:00000000 $t
C:\usertemp\ccuzpgLf.s:146    .text.button_is_click_trig:00000000 button_is_click_trig
C:\usertemp\ccuzpgLf.s:164    .text.button_is_popover:00000000 $t
C:\usertemp\ccuzpgLf.s:169    .text.button_is_popover:00000000 button_is_popover
C:\usertemp\ccuzpgLf.s:187    .text.button_is_checkable:00000000 $t
C:\usertemp\ccuzpgLf.s:192    .text.button_is_checkable:00000000 button_is_checkable
C:\usertemp\ccuzpgLf.s:210    .text.button_get_checked:00000000 $t
C:\usertemp\ccuzpgLf.s:215    .text.button_get_checked:00000000 button_get_checked
C:\usertemp\ccuzpgLf.s:233    .text.button_is_recolor:00000000 $t
C:\usertemp\ccuzpgLf.s:238    .text.button_is_recolor:00000000 button_is_recolor
C:\usertemp\ccuzpgLf.s:256    .rodata.has_popovers_in_top_row.str1.4:00000000 $d
C:\usertemp\ccuzpgLf.s:260    .text.has_popovers_in_top_row:00000000 $t
C:\usertemp\ccuzpgLf.s:265    .text.has_popovers_in_top_row:00000000 has_popovers_in_top_row
C:\usertemp\ccuzpgLf.s:376    .text.has_popovers_in_top_row:0000004c $d
C:\usertemp\ccuzpgLf.s:381    .text.get_button_from_point:00000000 $t
C:\usertemp\ccuzpgLf.s:386    .text.get_button_from_point:00000000 get_button_from_point
C:\usertemp\ccuzpgLf.s:850    .text.invalidate_button_area:00000000 $t
C:\usertemp\ccuzpgLf.s:855    .text.invalidate_button_area:00000000 invalidate_button_area
C:\usertemp\ccuzpgLf.s:1111   .text.invalidate_button_area:000000fc $d
C:\usertemp\ccuzpgLf.s:1116   .text.draw_main:00000000 $t
C:\usertemp\ccuzpgLf.s:1121   .text.draw_main:00000000 draw_main
C:\usertemp\ccuzpgLf.s:1928   .text.draw_main:000003ec $d
C:\usertemp\ccuzpgLf.s:5113   .rodata.lv_btnmatrix_class:00000000 lv_btnmatrix_class
C:\usertemp\ccuzpgLf.s:1934   .text.draw_main:000003f4 $t
C:\usertemp\ccuzpgLf.s:1987   .text.lv_btnmatrix_destructor:00000000 $t
C:\usertemp\ccuzpgLf.s:1992   .text.lv_btnmatrix_destructor:00000000 lv_btnmatrix_destructor
C:\usertemp\ccuzpgLf.s:2039   .text.allocate_btn_areas_and_controls:00000000 $t
C:\usertemp\ccuzpgLf.s:2044   .text.allocate_btn_areas_and_controls:00000000 allocate_btn_areas_and_controls
C:\usertemp\ccuzpgLf.s:2220   .text.allocate_btn_areas_and_controls:0000007c $d
C:\usertemp\ccuzpgLf.s:2225   .text.lv_btnmatrix_create:00000000 $t
C:\usertemp\ccuzpgLf.s:2231   .text.lv_btnmatrix_create:00000000 lv_btnmatrix_create
C:\usertemp\ccuzpgLf.s:2270   .text.lv_btnmatrix_create:00000014 $d
C:\usertemp\ccuzpgLf.s:2275   .text.lv_btnmatrix_set_map:00000000 $t
C:\usertemp\ccuzpgLf.s:2281   .text.lv_btnmatrix_set_map:00000000 lv_btnmatrix_set_map
C:\usertemp\ccuzpgLf.s:2770   .text.lv_btnmatrix_set_map:000001f0 $d
C:\usertemp\ccuzpgLf.s:2775   .text.lv_btnmatrix_constructor:00000000 $t
C:\usertemp\ccuzpgLf.s:2780   .text.lv_btnmatrix_constructor:00000000 lv_btnmatrix_constructor
C:\usertemp\ccuzpgLf.s:2839   .text.lv_btnmatrix_constructor:0000002c $d
C:\usertemp\ccuzpgLf.s:5148   .data.lv_btnmatrix_def_map:00000000 lv_btnmatrix_def_map
C:\usertemp\ccuzpgLf.s:2844   .text.lv_btnmatrix_set_ctrl_map:00000000 $t
C:\usertemp\ccuzpgLf.s:2850   .text.lv_btnmatrix_set_ctrl_map:00000000 lv_btnmatrix_set_ctrl_map
C:\usertemp\ccuzpgLf.s:2891   .text.lv_btnmatrix_set_selected_btn:00000000 $t
C:\usertemp\ccuzpgLf.s:2897   .text.lv_btnmatrix_set_selected_btn:00000000 lv_btnmatrix_set_selected_btn
C:\usertemp\ccuzpgLf.s:2955   .text.lv_btnmatrix_clear_btn_ctrl:00000000 $t
C:\usertemp\ccuzpgLf.s:2961   .text.lv_btnmatrix_clear_btn_ctrl:00000000 lv_btnmatrix_clear_btn_ctrl
ARM GAS  C:\usertemp\ccuzpgLf.s 			page 149


C:\usertemp\ccuzpgLf.s:3027   .text.lv_btnmatrix_clear_btn_ctrl_all:00000000 $t
C:\usertemp\ccuzpgLf.s:3033   .text.lv_btnmatrix_clear_btn_ctrl_all:00000000 lv_btnmatrix_clear_btn_ctrl_all
C:\usertemp\ccuzpgLf.s:3090   .text.lv_btnmatrix_set_btn_ctrl:00000000 $t
C:\usertemp\ccuzpgLf.s:3096   .text.lv_btnmatrix_set_btn_ctrl:00000000 lv_btnmatrix_set_btn_ctrl
C:\usertemp\ccuzpgLf.s:3186   .text.lv_btnmatrix_set_btn_ctrl_all:00000000 $t
C:\usertemp\ccuzpgLf.s:3192   .text.lv_btnmatrix_set_btn_ctrl_all:00000000 lv_btnmatrix_set_btn_ctrl_all
C:\usertemp\ccuzpgLf.s:3249   .text.lv_btnmatrix_set_btn_width:00000000 $t
C:\usertemp\ccuzpgLf.s:3255   .text.lv_btnmatrix_set_btn_width:00000000 lv_btnmatrix_set_btn_width
C:\usertemp\ccuzpgLf.s:3312   .text.lv_btnmatrix_get_map:00000000 $t
C:\usertemp\ccuzpgLf.s:3318   .text.lv_btnmatrix_get_map:00000000 lv_btnmatrix_get_map
C:\usertemp\ccuzpgLf.s:3341   .text.lv_btnmatrix_get_selected_btn:00000000 $t
C:\usertemp\ccuzpgLf.s:3347   .text.lv_btnmatrix_get_selected_btn:00000000 lv_btnmatrix_get_selected_btn
C:\usertemp\ccuzpgLf.s:3370   .text.lv_btnmatrix_get_btn_text:00000000 $t
C:\usertemp\ccuzpgLf.s:3376   .text.lv_btnmatrix_get_btn_text:00000000 lv_btnmatrix_get_btn_text
C:\usertemp\ccuzpgLf.s:3496   .text.lv_btnmatrix_get_btn_text:00000060 $d
C:\usertemp\ccuzpgLf.s:3501   .text.lv_btnmatrix_has_btn_ctrl:00000000 $t
C:\usertemp\ccuzpgLf.s:3507   .text.lv_btnmatrix_has_btn_ctrl:00000000 lv_btnmatrix_has_btn_ctrl
C:\usertemp\ccuzpgLf.s:3552   .text.make_one_button_checked:00000000 $t
C:\usertemp\ccuzpgLf.s:3557   .text.make_one_button_checked:00000000 make_one_button_checked
C:\usertemp\ccuzpgLf.s:3607   .text.lv_btnmatrix_event:00000000 $t
C:\usertemp\ccuzpgLf.s:3612   .text.lv_btnmatrix_event:00000000 lv_btnmatrix_event
C:\usertemp\ccuzpgLf.s:3696   .text.lv_btnmatrix_event:00000038 $d
C:\usertemp\ccuzpgLf.s:3739   .text.lv_btnmatrix_event:000000e0 $t
C:\usertemp\ccuzpgLf.s:4210   .text.lv_btnmatrix_event:00000320 $d
C:\usertemp\ccuzpgLf.s:4217   .text.lv_btnmatrix_event:00000324 $t
C:\usertemp\ccuzpgLf.s:4485   .text.lv_btnmatrix_event:00000454 $d
C:\usertemp\ccuzpgLf.s:4489   .text.lv_btnmatrix_event:00000458 $t
C:\usertemp\ccuzpgLf.s:5037   .text.lv_btnmatrix_set_one_checked:00000000 $t
C:\usertemp\ccuzpgLf.s:5043   .text.lv_btnmatrix_set_one_checked:00000000 lv_btnmatrix_set_one_checked
C:\usertemp\ccuzpgLf.s:5079   .text.lv_btnmatrix_get_one_checked:00000000 $t
C:\usertemp\ccuzpgLf.s:5085   .text.lv_btnmatrix_get_one_checked:00000000 lv_btnmatrix_get_one_checked
C:\usertemp\ccuzpgLf.s:5110   .rodata.lv_btnmatrix_class:00000000 $d
C:\usertemp\ccuzpgLf.s:5126   .rodata.str1.4:00000000 $d
C:\usertemp\ccuzpgLf.s:5145   .data.lv_btnmatrix_def_map:00000000 $d

UNDEFINED SYMBOLS
strcmp
lv_obj_get_coords
lv_obj_get_width
lv_obj_get_height
lv_obj_get_style_prop
_lv_area_is_point_on
lv_obj_get_disp
lv_disp_get_dpi
lv_obj_invalidate_area
lv_event_get_target
lv_event_get_draw_ctx
lv_draw_rect_dsc_init
lv_draw_label_dsc_init
lv_obj_init_draw_rect_dsc
lv_obj_init_draw_label_dsc
lv_obj_draw_dsc_init
lv_memcpy
lv_event_send
lv_draw_rect
lv_txt_get_size
lv_draw_label
ARM GAS  C:\usertemp\ccuzpgLf.s 			page 150


lv_mem_free
lv_mem_alloc
lv_memset_00
lv_obj_class_create_obj
lv_obj_class_init_obj
lv_obj_get_content_width
lv_obj_get_content_height
lv_area_set
lv_obj_refresh_ext_draw_size
lv_obj_invalidate
lv_obj_event_base
lv_event_get_code
lv_event_get_param
lv_indev_get_act
lv_indev_get_type
lv_indev_get_point
lv_indev_reset_long_press
lv_obj_get_group
lv_group_get_editing
lv_indev_get_next
lv_obj_class
