ARM GAS  C:\usertemp\cc3t82Zj.s 			page 1


   1              		.cpu cortex-m7
   2              		.arch armv7e-m
   3              		.fpu fpv5-d16
   4              		.eabi_attribute 28, 1
   5              		.eabi_attribute 20, 1
   6              		.eabi_attribute 21, 1
   7              		.eabi_attribute 23, 3
   8              		.eabi_attribute 24, 1
   9              		.eabi_attribute 25, 1
  10              		.eabi_attribute 26, 1
  11              		.eabi_attribute 30, 1
  12              		.eabi_attribute 34, 1
  13              		.eabi_attribute 18, 4
  14              		.file	"lv_btn.c"
  15              		.text
  16              	.Ltext0:
  17              		.cfi_sections	.debug_frame
  18              		.file 1 "lvgl/src/widgets/lv_btn.c"
  19              		.section	.text.lv_btn_constructor,"ax",%progbits
  20              		.align	1
  21              		.syntax unified
  22              		.thumb
  23              		.thumb_func
  25              	lv_btn_constructor:
  26              	.LVL0:
  27              	.LFB162:
   1:lvgl/src/widgets/lv_btn.c **** /**
   2:lvgl/src/widgets/lv_btn.c ****  * @file lv_btn.c
   3:lvgl/src/widgets/lv_btn.c ****  *
   4:lvgl/src/widgets/lv_btn.c ****  */
   5:lvgl/src/widgets/lv_btn.c **** 
   6:lvgl/src/widgets/lv_btn.c **** /*********************
   7:lvgl/src/widgets/lv_btn.c ****  *      INCLUDES
   8:lvgl/src/widgets/lv_btn.c ****  *********************/
   9:lvgl/src/widgets/lv_btn.c **** 
  10:lvgl/src/widgets/lv_btn.c **** #include "lv_btn.h"
  11:lvgl/src/widgets/lv_btn.c **** #if LV_USE_BTN != 0
  12:lvgl/src/widgets/lv_btn.c **** 
  13:lvgl/src/widgets/lv_btn.c **** #include "../extra/layouts/flex/lv_flex.h"
  14:lvgl/src/widgets/lv_btn.c **** 
  15:lvgl/src/widgets/lv_btn.c **** /*********************
  16:lvgl/src/widgets/lv_btn.c ****  *      DEFINES
  17:lvgl/src/widgets/lv_btn.c ****  *********************/
  18:lvgl/src/widgets/lv_btn.c **** #define MY_CLASS &lv_btn_class
  19:lvgl/src/widgets/lv_btn.c **** 
  20:lvgl/src/widgets/lv_btn.c **** /**********************
  21:lvgl/src/widgets/lv_btn.c ****  *      TYPEDEFS
  22:lvgl/src/widgets/lv_btn.c ****  **********************/
  23:lvgl/src/widgets/lv_btn.c **** 
  24:lvgl/src/widgets/lv_btn.c **** /**********************
  25:lvgl/src/widgets/lv_btn.c ****  *  STATIC PROTOTYPES
  26:lvgl/src/widgets/lv_btn.c ****  **********************/
  27:lvgl/src/widgets/lv_btn.c **** static void lv_btn_constructor(const lv_obj_class_t * class_p, lv_obj_t * obj);
  28:lvgl/src/widgets/lv_btn.c **** 
  29:lvgl/src/widgets/lv_btn.c **** /**********************
  30:lvgl/src/widgets/lv_btn.c ****  *  STATIC VARIABLES
  31:lvgl/src/widgets/lv_btn.c ****  **********************/
ARM GAS  C:\usertemp\cc3t82Zj.s 			page 2


  32:lvgl/src/widgets/lv_btn.c **** const lv_obj_class_t lv_btn_class  = {
  33:lvgl/src/widgets/lv_btn.c ****     .constructor_cb = lv_btn_constructor,
  34:lvgl/src/widgets/lv_btn.c ****     .width_def = LV_SIZE_CONTENT,
  35:lvgl/src/widgets/lv_btn.c ****     .height_def = LV_SIZE_CONTENT,
  36:lvgl/src/widgets/lv_btn.c ****     .group_def = LV_OBJ_CLASS_GROUP_DEF_TRUE,
  37:lvgl/src/widgets/lv_btn.c ****     .instance_size = sizeof(lv_btn_t),
  38:lvgl/src/widgets/lv_btn.c ****     .base_class = &lv_obj_class
  39:lvgl/src/widgets/lv_btn.c **** };
  40:lvgl/src/widgets/lv_btn.c **** 
  41:lvgl/src/widgets/lv_btn.c **** /**********************
  42:lvgl/src/widgets/lv_btn.c ****  *      MACROS
  43:lvgl/src/widgets/lv_btn.c ****  **********************/
  44:lvgl/src/widgets/lv_btn.c **** 
  45:lvgl/src/widgets/lv_btn.c **** /**********************
  46:lvgl/src/widgets/lv_btn.c ****  *   GLOBAL FUNCTIONS
  47:lvgl/src/widgets/lv_btn.c ****  **********************/
  48:lvgl/src/widgets/lv_btn.c **** 
  49:lvgl/src/widgets/lv_btn.c **** lv_obj_t * lv_btn_create(lv_obj_t * parent)
  50:lvgl/src/widgets/lv_btn.c **** {
  51:lvgl/src/widgets/lv_btn.c ****     LV_LOG_INFO("begin");
  52:lvgl/src/widgets/lv_btn.c ****     lv_obj_t * obj = lv_obj_class_create_obj(MY_CLASS, parent);
  53:lvgl/src/widgets/lv_btn.c ****     lv_obj_class_init_obj(obj);
  54:lvgl/src/widgets/lv_btn.c ****     return obj;
  55:lvgl/src/widgets/lv_btn.c **** }
  56:lvgl/src/widgets/lv_btn.c **** 
  57:lvgl/src/widgets/lv_btn.c **** /**********************
  58:lvgl/src/widgets/lv_btn.c ****  *   STATIC FUNCTIONS
  59:lvgl/src/widgets/lv_btn.c ****  **********************/
  60:lvgl/src/widgets/lv_btn.c **** 
  61:lvgl/src/widgets/lv_btn.c **** static void lv_btn_constructor(const lv_obj_class_t * class_p, lv_obj_t * obj)
  62:lvgl/src/widgets/lv_btn.c **** {
  28              		.loc 1 62 1 view -0
  29              		.cfi_startproc
  30              		@ args = 0, pretend = 0, frame = 0
  31              		@ frame_needed = 0, uses_anonymous_args = 0
  32              		.loc 1 62 1 is_stmt 0 view .LVU1
  33 0000 10B5     		push	{r4, lr}
  34              	.LCFI0:
  35              		.cfi_def_cfa_offset 8
  36              		.cfi_offset 4, -8
  37              		.cfi_offset 14, -4
  38 0002 0C46     		mov	r4, r1
  63:lvgl/src/widgets/lv_btn.c ****     LV_UNUSED(class_p);
  39              		.loc 1 63 5 is_stmt 1 view .LVU2
  64:lvgl/src/widgets/lv_btn.c ****     LV_TRACE_OBJ_CREATE("begin");
  40              		.loc 1 64 5 view .LVU3
  41              		.loc 1 64 5 view .LVU4
  42              		.loc 1 64 5 view .LVU5
  65:lvgl/src/widgets/lv_btn.c **** 
  66:lvgl/src/widgets/lv_btn.c ****     lv_obj_clear_flag(obj, LV_OBJ_FLAG_SCROLLABLE);
  43              		.loc 1 66 5 view .LVU6
  44 0004 1021     		movs	r1, #16
  45              	.LVL1:
  46              		.loc 1 66 5 is_stmt 0 view .LVU7
  47 0006 2046     		mov	r0, r4
  48              	.LVL2:
  49              		.loc 1 66 5 view .LVU8
ARM GAS  C:\usertemp\cc3t82Zj.s 			page 3


  50 0008 FFF7FEFF 		bl	lv_obj_clear_flag
  51              	.LVL3:
  67:lvgl/src/widgets/lv_btn.c ****     lv_obj_add_flag(obj, LV_OBJ_FLAG_SCROLL_ON_FOCUS);
  52              		.loc 1 67 5 is_stmt 1 view .LVU9
  53 000c 4FF48061 		mov	r1, #1024
  54 0010 2046     		mov	r0, r4
  55 0012 FFF7FEFF 		bl	lv_obj_add_flag
  56              	.LVL4:
  68:lvgl/src/widgets/lv_btn.c **** 
  69:lvgl/src/widgets/lv_btn.c ****     LV_TRACE_OBJ_CREATE("finished");
  57              		.loc 1 69 5 view .LVU10
  58              		.loc 1 69 5 view .LVU11
  59              		.loc 1 69 5 view .LVU12
  70:lvgl/src/widgets/lv_btn.c **** }
  60              		.loc 1 70 1 is_stmt 0 view .LVU13
  61 0016 10BD     		pop	{r4, pc}
  62              		.loc 1 70 1 view .LVU14
  63              		.cfi_endproc
  64              	.LFE162:
  66              		.section	.text.lv_btn_create,"ax",%progbits
  67              		.align	1
  68              		.global	lv_btn_create
  69              		.syntax unified
  70              		.thumb
  71              		.thumb_func
  73              	lv_btn_create:
  74              	.LVL5:
  75              	.LFB161:
  50:lvgl/src/widgets/lv_btn.c ****     LV_LOG_INFO("begin");
  76              		.loc 1 50 1 is_stmt 1 view -0
  77              		.cfi_startproc
  78              		@ args = 0, pretend = 0, frame = 0
  79              		@ frame_needed = 0, uses_anonymous_args = 0
  50:lvgl/src/widgets/lv_btn.c ****     LV_LOG_INFO("begin");
  80              		.loc 1 50 1 is_stmt 0 view .LVU16
  81 0000 10B5     		push	{r4, lr}
  82              	.LCFI1:
  83              		.cfi_def_cfa_offset 8
  84              		.cfi_offset 4, -8
  85              		.cfi_offset 14, -4
  86 0002 0146     		mov	r1, r0
  51:lvgl/src/widgets/lv_btn.c ****     lv_obj_t * obj = lv_obj_class_create_obj(MY_CLASS, parent);
  87              		.loc 1 51 5 is_stmt 1 view .LVU17
  51:lvgl/src/widgets/lv_btn.c ****     lv_obj_t * obj = lv_obj_class_create_obj(MY_CLASS, parent);
  88              		.loc 1 51 5 view .LVU18
  51:lvgl/src/widgets/lv_btn.c ****     lv_obj_t * obj = lv_obj_class_create_obj(MY_CLASS, parent);
  89              		.loc 1 51 5 view .LVU19
  52:lvgl/src/widgets/lv_btn.c ****     lv_obj_class_init_obj(obj);
  90              		.loc 1 52 5 view .LVU20
  52:lvgl/src/widgets/lv_btn.c ****     lv_obj_class_init_obj(obj);
  91              		.loc 1 52 22 is_stmt 0 view .LVU21
  92 0004 0348     		ldr	r0, .L5
  93              	.LVL6:
  52:lvgl/src/widgets/lv_btn.c ****     lv_obj_class_init_obj(obj);
  94              		.loc 1 52 22 view .LVU22
  95 0006 FFF7FEFF 		bl	lv_obj_class_create_obj
  96              	.LVL7:
ARM GAS  C:\usertemp\cc3t82Zj.s 			page 4


  52:lvgl/src/widgets/lv_btn.c ****     lv_obj_class_init_obj(obj);
  97              		.loc 1 52 22 view .LVU23
  98 000a 0446     		mov	r4, r0
  99              	.LVL8:
  53:lvgl/src/widgets/lv_btn.c ****     return obj;
 100              		.loc 1 53 5 is_stmt 1 view .LVU24
 101 000c FFF7FEFF 		bl	lv_obj_class_init_obj
 102              	.LVL9:
  54:lvgl/src/widgets/lv_btn.c **** }
 103              		.loc 1 54 5 view .LVU25
  55:lvgl/src/widgets/lv_btn.c **** 
 104              		.loc 1 55 1 is_stmt 0 view .LVU26
 105 0010 2046     		mov	r0, r4
 106 0012 10BD     		pop	{r4, pc}
 107              	.LVL10:
 108              	.L6:
  55:lvgl/src/widgets/lv_btn.c **** 
 109              		.loc 1 55 1 view .LVU27
 110              		.align	2
 111              	.L5:
 112 0014 00000000 		.word	lv_btn_class
 113              		.cfi_endproc
 114              	.LFE161:
 116              		.global	lv_btn_class
 117              		.section	.rodata.lv_btn_class,"a"
 118              		.align	2
 121              	lv_btn_class:
 122 0000 00000000 		.word	lv_obj_class
 123 0004 00000000 		.word	lv_btn_constructor
 124 0008 00000000 		.space	12
 124      00000000 
 124      00000000 
 125 0014 D127     		.short	10193
 126 0016 D127     		.short	10193
 127 0018 44       		.byte	68
 128 0019 02       		.byte	2
 129 001a 00       		.byte	0
 130 001b 00       		.space	1
 131              		.text
 132              	.Letext0:
 133              		.file 2 "D:/armtoolchain/arm-gnu-toolchain-13.3.rel1-mingw-w64-i686-arm-none-eabi/arm-none-eabi/in
 134              		.file 3 "D:/armtoolchain/arm-gnu-toolchain-13.3.rel1-mingw-w64-i686-arm-none-eabi/arm-none-eabi/in
 135              		.file 4 "lvgl/src/widgets/../core/../misc/../font/../misc/lv_area.h"
 136              		.file 5 "lvgl/src/widgets/../core/../misc/lv_color.h"
 137              		.file 6 "lvgl/src/widgets/../core/../misc/lv_style.h"
 138              		.file 7 "lvgl/src/widgets/../core/lv_obj.h"
 139              		.file 8 "lvgl/src/widgets/../core/../hal/../misc/lv_ll.h"
 140              		.file 9 "lvgl/src/widgets/../core/lv_group.h"
 141              		.file 10 "lvgl/src/widgets/../core/lv_obj_scroll.h"
 142              		.file 11 "lvgl/src/widgets/../core/lv_obj_style.h"
 143              		.file 12 "lvgl/src/widgets/../core/lv_obj_class.h"
 144              		.file 13 "lvgl/src/widgets/../core/lv_event.h"
 145              		.file 14 "lvgl/src/widgets/lv_btn.h"
ARM GAS  C:\usertemp\cc3t82Zj.s 			page 5

