ARM GAS  C:\usertemp\ccVUAGiG.s 			page 1


   1              		.cpu cortex-m7
   2              		.arch armv7e-m
   3              		.fpu fpv5-d16
   4              		.eabi_attribute 28, 1
   5              		.eabi_attribute 20, 1
   6              		.eabi_attribute 21, 1
   7              		.eabi_attribute 23, 3
   8              		.eabi_attribute 24, 1
   9              		.eabi_attribute 25, 1
  10              		.eabi_attribute 26, 1
  11              		.eabi_attribute 30, 1
  12              		.eabi_attribute 34, 1
  13              		.eabi_attribute 18, 4
  14              		.file	"lv_bmp.c"
  15              		.text
  16              	.Ltext0:
  17              		.cfi_sections	.debug_frame
  18              		.file 1 "lvgl/src/extra/libs/bmp/lv_bmp.c"
  19              		.section	.text.decoder_close,"ax",%progbits
  20              		.align	1
  21              		.syntax unified
  22              		.thumb
  23              		.thumb_func
  25              	decoder_close:
  26              	.LVL0:
  27              	.LFB200:
   1:lvgl/src/extra/libs/bmp/lv_bmp.c **** /**
   2:lvgl/src/extra/libs/bmp/lv_bmp.c ****  * @file lv_bmp.c
   3:lvgl/src/extra/libs/bmp/lv_bmp.c ****  *
   4:lvgl/src/extra/libs/bmp/lv_bmp.c ****  */
   5:lvgl/src/extra/libs/bmp/lv_bmp.c **** 
   6:lvgl/src/extra/libs/bmp/lv_bmp.c **** /*********************
   7:lvgl/src/extra/libs/bmp/lv_bmp.c ****  *      INCLUDES
   8:lvgl/src/extra/libs/bmp/lv_bmp.c ****  *********************/
   9:lvgl/src/extra/libs/bmp/lv_bmp.c **** #include "../../../lvgl.h"
  10:lvgl/src/extra/libs/bmp/lv_bmp.c **** #if LV_USE_BMP
  11:lvgl/src/extra/libs/bmp/lv_bmp.c **** 
  12:lvgl/src/extra/libs/bmp/lv_bmp.c **** #include <string.h>
  13:lvgl/src/extra/libs/bmp/lv_bmp.c **** 
  14:lvgl/src/extra/libs/bmp/lv_bmp.c **** /*********************
  15:lvgl/src/extra/libs/bmp/lv_bmp.c ****  *      DEFINES
  16:lvgl/src/extra/libs/bmp/lv_bmp.c ****  *********************/
  17:lvgl/src/extra/libs/bmp/lv_bmp.c **** 
  18:lvgl/src/extra/libs/bmp/lv_bmp.c **** /**********************
  19:lvgl/src/extra/libs/bmp/lv_bmp.c ****  *      TYPEDEFS
  20:lvgl/src/extra/libs/bmp/lv_bmp.c ****  **********************/
  21:lvgl/src/extra/libs/bmp/lv_bmp.c **** 
  22:lvgl/src/extra/libs/bmp/lv_bmp.c **** typedef struct {
  23:lvgl/src/extra/libs/bmp/lv_bmp.c ****     lv_fs_file_t f;
  24:lvgl/src/extra/libs/bmp/lv_bmp.c ****     unsigned int px_offset;
  25:lvgl/src/extra/libs/bmp/lv_bmp.c ****     int px_width;
  26:lvgl/src/extra/libs/bmp/lv_bmp.c ****     int px_height;
  27:lvgl/src/extra/libs/bmp/lv_bmp.c ****     unsigned int bpp;
  28:lvgl/src/extra/libs/bmp/lv_bmp.c ****     int row_size_bytes;
  29:lvgl/src/extra/libs/bmp/lv_bmp.c **** } bmp_dsc_t;
  30:lvgl/src/extra/libs/bmp/lv_bmp.c **** 
  31:lvgl/src/extra/libs/bmp/lv_bmp.c **** /**********************
ARM GAS  C:\usertemp\ccVUAGiG.s 			page 2


  32:lvgl/src/extra/libs/bmp/lv_bmp.c ****  *  STATIC PROTOTYPES
  33:lvgl/src/extra/libs/bmp/lv_bmp.c ****  **********************/
  34:lvgl/src/extra/libs/bmp/lv_bmp.c **** static lv_res_t decoder_info(lv_img_decoder_t * decoder, const void * src, lv_img_header_t * header
  35:lvgl/src/extra/libs/bmp/lv_bmp.c **** static lv_res_t decoder_open(lv_img_decoder_t * dec, lv_img_decoder_dsc_t * dsc);
  36:lvgl/src/extra/libs/bmp/lv_bmp.c **** 
  37:lvgl/src/extra/libs/bmp/lv_bmp.c **** 
  38:lvgl/src/extra/libs/bmp/lv_bmp.c **** static lv_res_t decoder_read_line(lv_img_decoder_t * decoder, lv_img_decoder_dsc_t * dsc,
  39:lvgl/src/extra/libs/bmp/lv_bmp.c ****                                   lv_coord_t x, lv_coord_t y, lv_coord_t len, uint8_t * buf);
  40:lvgl/src/extra/libs/bmp/lv_bmp.c **** 
  41:lvgl/src/extra/libs/bmp/lv_bmp.c **** static void decoder_close(lv_img_decoder_t * dec, lv_img_decoder_dsc_t * dsc);
  42:lvgl/src/extra/libs/bmp/lv_bmp.c **** 
  43:lvgl/src/extra/libs/bmp/lv_bmp.c **** /**********************
  44:lvgl/src/extra/libs/bmp/lv_bmp.c ****  *  STATIC VARIABLES
  45:lvgl/src/extra/libs/bmp/lv_bmp.c ****  **********************/
  46:lvgl/src/extra/libs/bmp/lv_bmp.c **** 
  47:lvgl/src/extra/libs/bmp/lv_bmp.c **** /**********************
  48:lvgl/src/extra/libs/bmp/lv_bmp.c ****  *      MACROS
  49:lvgl/src/extra/libs/bmp/lv_bmp.c ****  **********************/
  50:lvgl/src/extra/libs/bmp/lv_bmp.c **** 
  51:lvgl/src/extra/libs/bmp/lv_bmp.c **** /**********************
  52:lvgl/src/extra/libs/bmp/lv_bmp.c ****  *   GLOBAL FUNCTIONS
  53:lvgl/src/extra/libs/bmp/lv_bmp.c ****  **********************/
  54:lvgl/src/extra/libs/bmp/lv_bmp.c **** void lv_bmp_init(void)
  55:lvgl/src/extra/libs/bmp/lv_bmp.c **** {
  56:lvgl/src/extra/libs/bmp/lv_bmp.c ****     lv_img_decoder_t * dec = lv_img_decoder_create();
  57:lvgl/src/extra/libs/bmp/lv_bmp.c ****     lv_img_decoder_set_info_cb(dec, decoder_info);
  58:lvgl/src/extra/libs/bmp/lv_bmp.c ****     lv_img_decoder_set_open_cb(dec, decoder_open);
  59:lvgl/src/extra/libs/bmp/lv_bmp.c ****     lv_img_decoder_set_read_line_cb(dec, decoder_read_line);
  60:lvgl/src/extra/libs/bmp/lv_bmp.c ****     lv_img_decoder_set_close_cb(dec, decoder_close);
  61:lvgl/src/extra/libs/bmp/lv_bmp.c **** }
  62:lvgl/src/extra/libs/bmp/lv_bmp.c **** 
  63:lvgl/src/extra/libs/bmp/lv_bmp.c **** /**********************
  64:lvgl/src/extra/libs/bmp/lv_bmp.c ****  *   STATIC FUNCTIONS
  65:lvgl/src/extra/libs/bmp/lv_bmp.c ****  **********************/
  66:lvgl/src/extra/libs/bmp/lv_bmp.c **** 
  67:lvgl/src/extra/libs/bmp/lv_bmp.c **** /**
  68:lvgl/src/extra/libs/bmp/lv_bmp.c ****  * Get info about a PNG image
  69:lvgl/src/extra/libs/bmp/lv_bmp.c ****  * @param src can be file name or pointer to a C array
  70:lvgl/src/extra/libs/bmp/lv_bmp.c ****  * @param header store the info here
  71:lvgl/src/extra/libs/bmp/lv_bmp.c ****  * @return LV_RES_OK: no error; LV_RES_INV: can't get the info
  72:lvgl/src/extra/libs/bmp/lv_bmp.c ****  */
  73:lvgl/src/extra/libs/bmp/lv_bmp.c **** static lv_res_t decoder_info(lv_img_decoder_t * decoder, const void * src, lv_img_header_t * header
  74:lvgl/src/extra/libs/bmp/lv_bmp.c **** {
  75:lvgl/src/extra/libs/bmp/lv_bmp.c ****     LV_UNUSED(decoder);
  76:lvgl/src/extra/libs/bmp/lv_bmp.c **** 
  77:lvgl/src/extra/libs/bmp/lv_bmp.c ****     lv_img_src_t src_type = lv_img_src_get_type(src);          /*Get the source type*/
  78:lvgl/src/extra/libs/bmp/lv_bmp.c **** 
  79:lvgl/src/extra/libs/bmp/lv_bmp.c ****     /*If it's a BMP file...*/
  80:lvgl/src/extra/libs/bmp/lv_bmp.c ****     if(src_type == LV_IMG_SRC_FILE) {
  81:lvgl/src/extra/libs/bmp/lv_bmp.c ****         const char * fn = src;
  82:lvgl/src/extra/libs/bmp/lv_bmp.c ****         if(!strcmp(&fn[strlen(fn) - 3], "bmp")) {              /*Check the extension*/
  83:lvgl/src/extra/libs/bmp/lv_bmp.c ****             /*Save the data in the header*/
  84:lvgl/src/extra/libs/bmp/lv_bmp.c ****             lv_fs_file_t f;
  85:lvgl/src/extra/libs/bmp/lv_bmp.c ****             lv_fs_res_t res = lv_fs_open(&f, src, LV_FS_MODE_RD);
  86:lvgl/src/extra/libs/bmp/lv_bmp.c ****             if(res != LV_FS_RES_OK) return LV_RES_INV;
  87:lvgl/src/extra/libs/bmp/lv_bmp.c ****             uint8_t headers[54];
  88:lvgl/src/extra/libs/bmp/lv_bmp.c **** 
ARM GAS  C:\usertemp\ccVUAGiG.s 			page 3


  89:lvgl/src/extra/libs/bmp/lv_bmp.c ****             lv_fs_read(&f, headers, 54, NULL);
  90:lvgl/src/extra/libs/bmp/lv_bmp.c ****             uint32_t w;
  91:lvgl/src/extra/libs/bmp/lv_bmp.c ****             uint32_t h;
  92:lvgl/src/extra/libs/bmp/lv_bmp.c ****             memcpy(&w, headers + 18, 4);
  93:lvgl/src/extra/libs/bmp/lv_bmp.c ****             memcpy(&h, headers + 22, 4);
  94:lvgl/src/extra/libs/bmp/lv_bmp.c ****             header->w = w;
  95:lvgl/src/extra/libs/bmp/lv_bmp.c ****             header->h = h;
  96:lvgl/src/extra/libs/bmp/lv_bmp.c ****             header->always_zero = 0;
  97:lvgl/src/extra/libs/bmp/lv_bmp.c ****             lv_fs_close(&f);
  98:lvgl/src/extra/libs/bmp/lv_bmp.c **** #if LV_COLOR_DEPTH == 32
  99:lvgl/src/extra/libs/bmp/lv_bmp.c ****             uint16_t bpp;
 100:lvgl/src/extra/libs/bmp/lv_bmp.c ****             memcpy(&bpp, headers + 28, 2);
 101:lvgl/src/extra/libs/bmp/lv_bmp.c ****             header->cf = bpp == 32 ? LV_IMG_CF_TRUE_COLOR_ALPHA : LV_IMG_CF_TRUE_COLOR;
 102:lvgl/src/extra/libs/bmp/lv_bmp.c **** #else
 103:lvgl/src/extra/libs/bmp/lv_bmp.c ****             header->cf = LV_IMG_CF_TRUE_COLOR;
 104:lvgl/src/extra/libs/bmp/lv_bmp.c **** #endif
 105:lvgl/src/extra/libs/bmp/lv_bmp.c ****             return LV_RES_OK;
 106:lvgl/src/extra/libs/bmp/lv_bmp.c ****         }
 107:lvgl/src/extra/libs/bmp/lv_bmp.c ****     }
 108:lvgl/src/extra/libs/bmp/lv_bmp.c ****     /* BMP file as data not supported for simplicity.
 109:lvgl/src/extra/libs/bmp/lv_bmp.c ****      * Convert them to LVGL compatible C arrays directly. */
 110:lvgl/src/extra/libs/bmp/lv_bmp.c ****     else if(src_type == LV_IMG_SRC_VARIABLE) {
 111:lvgl/src/extra/libs/bmp/lv_bmp.c ****         return LV_RES_INV;
 112:lvgl/src/extra/libs/bmp/lv_bmp.c ****     }
 113:lvgl/src/extra/libs/bmp/lv_bmp.c **** 
 114:lvgl/src/extra/libs/bmp/lv_bmp.c ****     return LV_RES_INV;         /*If didn't succeeded earlier then it's an error*/
 115:lvgl/src/extra/libs/bmp/lv_bmp.c **** }
 116:lvgl/src/extra/libs/bmp/lv_bmp.c **** 
 117:lvgl/src/extra/libs/bmp/lv_bmp.c **** 
 118:lvgl/src/extra/libs/bmp/lv_bmp.c **** /**
 119:lvgl/src/extra/libs/bmp/lv_bmp.c ****  * Open a PNG image and return the decided image
 120:lvgl/src/extra/libs/bmp/lv_bmp.c ****  * @param src can be file name or pointer to a C array
 121:lvgl/src/extra/libs/bmp/lv_bmp.c ****  * @param style style of the image object (unused now but certain formats might use it)
 122:lvgl/src/extra/libs/bmp/lv_bmp.c ****  * @return pointer to the decoded image or  `LV_IMG_DECODER_OPEN_FAIL` if failed
 123:lvgl/src/extra/libs/bmp/lv_bmp.c ****  */
 124:lvgl/src/extra/libs/bmp/lv_bmp.c **** static lv_res_t decoder_open(lv_img_decoder_t * decoder, lv_img_decoder_dsc_t * dsc)
 125:lvgl/src/extra/libs/bmp/lv_bmp.c **** {
 126:lvgl/src/extra/libs/bmp/lv_bmp.c ****     LV_UNUSED(decoder);
 127:lvgl/src/extra/libs/bmp/lv_bmp.c **** 
 128:lvgl/src/extra/libs/bmp/lv_bmp.c ****     /*If it's a PNG file...*/
 129:lvgl/src/extra/libs/bmp/lv_bmp.c ****     if(dsc->src_type == LV_IMG_SRC_FILE) {
 130:lvgl/src/extra/libs/bmp/lv_bmp.c ****         const char * fn = dsc->src;
 131:lvgl/src/extra/libs/bmp/lv_bmp.c **** 
 132:lvgl/src/extra/libs/bmp/lv_bmp.c ****         if(strcmp(&fn[strlen(fn) - 3], "bmp")) return LV_RES_INV;       /*Check the extension*/
 133:lvgl/src/extra/libs/bmp/lv_bmp.c **** 
 134:lvgl/src/extra/libs/bmp/lv_bmp.c ****         bmp_dsc_t b;
 135:lvgl/src/extra/libs/bmp/lv_bmp.c ****         memset(&b, 0x00, sizeof(b));
 136:lvgl/src/extra/libs/bmp/lv_bmp.c **** 
 137:lvgl/src/extra/libs/bmp/lv_bmp.c ****         lv_fs_res_t res = lv_fs_open(&b.f, dsc->src, LV_FS_MODE_RD);
 138:lvgl/src/extra/libs/bmp/lv_bmp.c ****         if(res == LV_RES_OK) return LV_RES_INV;
 139:lvgl/src/extra/libs/bmp/lv_bmp.c **** 
 140:lvgl/src/extra/libs/bmp/lv_bmp.c ****         uint8_t header[54];
 141:lvgl/src/extra/libs/bmp/lv_bmp.c ****         lv_fs_read(&b.f, header, 54, NULL);
 142:lvgl/src/extra/libs/bmp/lv_bmp.c **** 
 143:lvgl/src/extra/libs/bmp/lv_bmp.c ****         if(0x42 != header[0] || 0x4d != header[1]) {
 144:lvgl/src/extra/libs/bmp/lv_bmp.c ****             lv_fs_close(&b.f);
 145:lvgl/src/extra/libs/bmp/lv_bmp.c ****             return LV_RES_INV;
ARM GAS  C:\usertemp\ccVUAGiG.s 			page 4


 146:lvgl/src/extra/libs/bmp/lv_bmp.c ****         }
 147:lvgl/src/extra/libs/bmp/lv_bmp.c **** 
 148:lvgl/src/extra/libs/bmp/lv_bmp.c ****         memcpy(&b.px_offset, header + 10, 4);
 149:lvgl/src/extra/libs/bmp/lv_bmp.c ****         memcpy(&b.px_width, header + 18, 4);
 150:lvgl/src/extra/libs/bmp/lv_bmp.c ****         memcpy(&b.px_height, header + 22, 4);
 151:lvgl/src/extra/libs/bmp/lv_bmp.c ****         memcpy(&b.bpp, header + 28, 2);
 152:lvgl/src/extra/libs/bmp/lv_bmp.c ****         b.row_size_bytes = ((b.bpp * b.px_width + 31) / 32) * 4;
 153:lvgl/src/extra/libs/bmp/lv_bmp.c **** 
 154:lvgl/src/extra/libs/bmp/lv_bmp.c ****         bool color_depth_error = false;
 155:lvgl/src/extra/libs/bmp/lv_bmp.c ****         if(LV_COLOR_DEPTH == 32 && (b.bpp != 32 || b.bpp != 24)) {
 156:lvgl/src/extra/libs/bmp/lv_bmp.c ****             LV_LOG_WARN("LV_COLOR_DEPTH == 32 but bpp is %d (should be 32 or 24)", b.bpp);
 157:lvgl/src/extra/libs/bmp/lv_bmp.c ****             color_depth_error = true;
 158:lvgl/src/extra/libs/bmp/lv_bmp.c ****         }
 159:lvgl/src/extra/libs/bmp/lv_bmp.c ****         else if(LV_COLOR_DEPTH == 16 && b.bpp != 16) {
 160:lvgl/src/extra/libs/bmp/lv_bmp.c ****             LV_LOG_WARN("LV_COLOR_DEPTH == 16 but bpp is %d (should be 16)", b.bpp);
 161:lvgl/src/extra/libs/bmp/lv_bmp.c ****             color_depth_error = true;
 162:lvgl/src/extra/libs/bmp/lv_bmp.c ****         }
 163:lvgl/src/extra/libs/bmp/lv_bmp.c ****         else if(LV_COLOR_DEPTH == 8 && b.bpp != 8) {
 164:lvgl/src/extra/libs/bmp/lv_bmp.c ****             LV_LOG_WARN("LV_COLOR_DEPTH == 8 but bpp is %d (should be 8)", b.bpp);
 165:lvgl/src/extra/libs/bmp/lv_bmp.c ****             color_depth_error = true;
 166:lvgl/src/extra/libs/bmp/lv_bmp.c ****         }
 167:lvgl/src/extra/libs/bmp/lv_bmp.c **** 
 168:lvgl/src/extra/libs/bmp/lv_bmp.c ****         if(color_depth_error) {
 169:lvgl/src/extra/libs/bmp/lv_bmp.c ****             dsc->error_msg = "Color depth mismatch";
 170:lvgl/src/extra/libs/bmp/lv_bmp.c ****             lv_fs_close(&b.f);
 171:lvgl/src/extra/libs/bmp/lv_bmp.c ****             return LV_RES_INV;
 172:lvgl/src/extra/libs/bmp/lv_bmp.c ****         }
 173:lvgl/src/extra/libs/bmp/lv_bmp.c **** 
 174:lvgl/src/extra/libs/bmp/lv_bmp.c ****         dsc->user_data = lv_mem_alloc(sizeof(bmp_dsc_t));
 175:lvgl/src/extra/libs/bmp/lv_bmp.c ****         LV_ASSERT_MALLOC(dsc->user_data);
 176:lvgl/src/extra/libs/bmp/lv_bmp.c ****         if(dsc->user_data == NULL) return LV_RES_INV;
 177:lvgl/src/extra/libs/bmp/lv_bmp.c ****         memcpy(dsc->user_data, &b, sizeof(b));
 178:lvgl/src/extra/libs/bmp/lv_bmp.c **** 
 179:lvgl/src/extra/libs/bmp/lv_bmp.c ****         dsc->img_data = NULL;
 180:lvgl/src/extra/libs/bmp/lv_bmp.c ****         return LV_RES_OK;
 181:lvgl/src/extra/libs/bmp/lv_bmp.c ****     }
 182:lvgl/src/extra/libs/bmp/lv_bmp.c ****     /* BMP file as data not supported for simplicity.
 183:lvgl/src/extra/libs/bmp/lv_bmp.c ****      * Convert them to LVGL compatible C arrays directly. */
 184:lvgl/src/extra/libs/bmp/lv_bmp.c ****     else if(dsc->src_type == LV_IMG_SRC_VARIABLE) {
 185:lvgl/src/extra/libs/bmp/lv_bmp.c ****         return LV_RES_INV;
 186:lvgl/src/extra/libs/bmp/lv_bmp.c ****     }
 187:lvgl/src/extra/libs/bmp/lv_bmp.c **** 
 188:lvgl/src/extra/libs/bmp/lv_bmp.c ****     return LV_RES_INV;    /*If not returned earlier then it failed*/
 189:lvgl/src/extra/libs/bmp/lv_bmp.c **** }
 190:lvgl/src/extra/libs/bmp/lv_bmp.c **** 
 191:lvgl/src/extra/libs/bmp/lv_bmp.c **** 
 192:lvgl/src/extra/libs/bmp/lv_bmp.c **** static lv_res_t decoder_read_line(lv_img_decoder_t * decoder, lv_img_decoder_dsc_t * dsc,
 193:lvgl/src/extra/libs/bmp/lv_bmp.c ****                                   lv_coord_t x, lv_coord_t y, lv_coord_t len, uint8_t * buf)
 194:lvgl/src/extra/libs/bmp/lv_bmp.c **** {
 195:lvgl/src/extra/libs/bmp/lv_bmp.c ****     LV_UNUSED(decoder);
 196:lvgl/src/extra/libs/bmp/lv_bmp.c **** 
 197:lvgl/src/extra/libs/bmp/lv_bmp.c ****     bmp_dsc_t * b = dsc->user_data;
 198:lvgl/src/extra/libs/bmp/lv_bmp.c ****     y = (b->px_height - 1) - y; /*BMP images are stored upside down*/
 199:lvgl/src/extra/libs/bmp/lv_bmp.c ****     uint32_t p = b->px_offset + b->row_size_bytes * y;
 200:lvgl/src/extra/libs/bmp/lv_bmp.c ****     p += x * (b->bpp / 8);
 201:lvgl/src/extra/libs/bmp/lv_bmp.c ****     lv_fs_seek(&b->f, p, LV_FS_SEEK_SET);
 202:lvgl/src/extra/libs/bmp/lv_bmp.c ****     lv_fs_read(&b->f, buf, len * (b->bpp / 8), NULL);
ARM GAS  C:\usertemp\ccVUAGiG.s 			page 5


 203:lvgl/src/extra/libs/bmp/lv_bmp.c **** 
 204:lvgl/src/extra/libs/bmp/lv_bmp.c **** #if LV_COLOR_DEPTH == 32
 205:lvgl/src/extra/libs/bmp/lv_bmp.c ****     if(b->bpp == 32) {
 206:lvgl/src/extra/libs/bmp/lv_bmp.c ****         lv_coord_t i;
 207:lvgl/src/extra/libs/bmp/lv_bmp.c ****         for(i = 0; i < len; i++) {
 208:lvgl/src/extra/libs/bmp/lv_bmp.c ****             uint8_t b0 = buf[i * 4];
 209:lvgl/src/extra/libs/bmp/lv_bmp.c ****             uint8_t b1 = buf[i * 4 + 1];
 210:lvgl/src/extra/libs/bmp/lv_bmp.c ****             uint8_t b2 = buf[i * 4 + 2];
 211:lvgl/src/extra/libs/bmp/lv_bmp.c ****             uint8_t b3 = buf[i * 4 + 3];
 212:lvgl/src/extra/libs/bmp/lv_bmp.c ****             lv_color32_t * c = (lv_color32_t *)&buf[i * 4];
 213:lvgl/src/extra/libs/bmp/lv_bmp.c ****             c->ch.red = b2;
 214:lvgl/src/extra/libs/bmp/lv_bmp.c ****             c->ch.green = b1;
 215:lvgl/src/extra/libs/bmp/lv_bmp.c ****             c->ch.blue = b0;
 216:lvgl/src/extra/libs/bmp/lv_bmp.c ****             c->ch.alpha = b3;
 217:lvgl/src/extra/libs/bmp/lv_bmp.c ****         }
 218:lvgl/src/extra/libs/bmp/lv_bmp.c ****     }
 219:lvgl/src/extra/libs/bmp/lv_bmp.c ****     if(b->bpp == 24) {
 220:lvgl/src/extra/libs/bmp/lv_bmp.c ****         lv_coord_t i;
 221:lvgl/src/extra/libs/bmp/lv_bmp.c **** 
 222:lvgl/src/extra/libs/bmp/lv_bmp.c ****         for(i = len - 1; i >= 0; i--) {
 223:lvgl/src/extra/libs/bmp/lv_bmp.c ****             uint8_t * t = &buf[i * 3];
 224:lvgl/src/extra/libs/bmp/lv_bmp.c ****             lv_color32_t * c = (lv_color32_t *)&buf[i * 4];
 225:lvgl/src/extra/libs/bmp/lv_bmp.c ****             c->ch.red = t[2];
 226:lvgl/src/extra/libs/bmp/lv_bmp.c ****             c->ch.green = t[1];
 227:lvgl/src/extra/libs/bmp/lv_bmp.c ****             c->ch.blue = t[0];
 228:lvgl/src/extra/libs/bmp/lv_bmp.c ****             c->ch.alpha = 0xff;
 229:lvgl/src/extra/libs/bmp/lv_bmp.c ****         }
 230:lvgl/src/extra/libs/bmp/lv_bmp.c ****     }
 231:lvgl/src/extra/libs/bmp/lv_bmp.c **** #endif
 232:lvgl/src/extra/libs/bmp/lv_bmp.c **** 
 233:lvgl/src/extra/libs/bmp/lv_bmp.c ****     return LV_RES_OK;
 234:lvgl/src/extra/libs/bmp/lv_bmp.c **** }
 235:lvgl/src/extra/libs/bmp/lv_bmp.c **** 
 236:lvgl/src/extra/libs/bmp/lv_bmp.c **** 
 237:lvgl/src/extra/libs/bmp/lv_bmp.c **** /**
 238:lvgl/src/extra/libs/bmp/lv_bmp.c ****  * Free the allocated resources
 239:lvgl/src/extra/libs/bmp/lv_bmp.c ****  */
 240:lvgl/src/extra/libs/bmp/lv_bmp.c **** static void decoder_close(lv_img_decoder_t * decoder, lv_img_decoder_dsc_t * dsc)
 241:lvgl/src/extra/libs/bmp/lv_bmp.c **** {
  28              		.loc 1 241 1 view -0
  29              		.cfi_startproc
  30              		@ args = 0, pretend = 0, frame = 0
  31              		@ frame_needed = 0, uses_anonymous_args = 0
  32              		.loc 1 241 1 is_stmt 0 view .LVU1
  33 0000 10B5     		push	{r4, lr}
  34              	.LCFI0:
  35              		.cfi_def_cfa_offset 8
  36              		.cfi_offset 4, -8
  37              		.cfi_offset 14, -4
  38 0002 0C46     		mov	r4, r1
 242:lvgl/src/extra/libs/bmp/lv_bmp.c ****     LV_UNUSED(decoder);
  39              		.loc 1 242 5 is_stmt 1 view .LVU2
 243:lvgl/src/extra/libs/bmp/lv_bmp.c ****     bmp_dsc_t * b = dsc->user_data;
  40              		.loc 1 243 5 view .LVU3
  41              	.LVL1:
 244:lvgl/src/extra/libs/bmp/lv_bmp.c ****     lv_fs_close(&b->f);
  42              		.loc 1 244 5 view .LVU4
ARM GAS  C:\usertemp\ccVUAGiG.s 			page 6


  43 0004 486A     		ldr	r0, [r1, #36]
  44              	.LVL2:
  45              		.loc 1 244 5 is_stmt 0 view .LVU5
  46 0006 FFF7FEFF 		bl	lv_fs_close
  47              	.LVL3:
 245:lvgl/src/extra/libs/bmp/lv_bmp.c ****     lv_mem_free(dsc->user_data);
  48              		.loc 1 245 5 is_stmt 1 view .LVU6
  49 000a 606A     		ldr	r0, [r4, #36]
  50 000c FFF7FEFF 		bl	lv_mem_free
  51              	.LVL4:
 246:lvgl/src/extra/libs/bmp/lv_bmp.c **** 
 247:lvgl/src/extra/libs/bmp/lv_bmp.c **** }
  52              		.loc 1 247 1 is_stmt 0 view .LVU7
  53 0010 10BD     		pop	{r4, pc}
  54              		.loc 1 247 1 view .LVU8
  55              		.cfi_endproc
  56              	.LFE200:
  58              		.section	.text.decoder_read_line,"ax",%progbits
  59              		.align	1
  60              		.syntax unified
  61              		.thumb
  62              		.thumb_func
  64              	decoder_read_line:
  65              	.LVL5:
  66              	.LFB199:
 194:lvgl/src/extra/libs/bmp/lv_bmp.c ****     LV_UNUSED(decoder);
  67              		.loc 1 194 1 is_stmt 1 view -0
  68              		.cfi_startproc
  69              		@ args = 8, pretend = 0, frame = 0
  70              		@ frame_needed = 0, uses_anonymous_args = 0
 194:lvgl/src/extra/libs/bmp/lv_bmp.c ****     LV_UNUSED(decoder);
  71              		.loc 1 194 1 is_stmt 0 view .LVU10
  72 0000 10B5     		push	{r4, lr}
  73              	.LCFI1:
  74              		.cfi_def_cfa_offset 8
  75              		.cfi_offset 4, -8
  76              		.cfi_offset 14, -4
  77 0002 1046     		mov	r0, r2
  78              	.LVL6:
 195:lvgl/src/extra/libs/bmp/lv_bmp.c **** 
  79              		.loc 1 195 5 is_stmt 1 view .LVU11
 197:lvgl/src/extra/libs/bmp/lv_bmp.c ****     y = (b->px_height - 1) - y; /*BMP images are stored upside down*/
  80              		.loc 1 197 5 view .LVU12
 197:lvgl/src/extra/libs/bmp/lv_bmp.c ****     y = (b->px_height - 1) - y; /*BMP images are stored upside down*/
  81              		.loc 1 197 17 is_stmt 0 view .LVU13
  82 0004 4C6A     		ldr	r4, [r1, #36]
  83              	.LVL7:
 198:lvgl/src/extra/libs/bmp/lv_bmp.c ****     uint32_t p = b->px_offset + b->row_size_bytes * y;
  84              		.loc 1 198 5 is_stmt 1 view .LVU14
 198:lvgl/src/extra/libs/bmp/lv_bmp.c ****     uint32_t p = b->px_offset + b->row_size_bytes * y;
  85              		.loc 1 198 11 is_stmt 0 view .LVU15
  86 0006 6269     		ldr	r2, [r4, #20]
  87              	.LVL8:
 198:lvgl/src/extra/libs/bmp/lv_bmp.c ****     uint32_t p = b->px_offset + b->row_size_bytes * y;
  88              		.loc 1 198 28 view .LVU16
  89 0008 D21A     		subs	r2, r2, r3
  90 000a 013A     		subs	r2, r2, #1
ARM GAS  C:\usertemp\ccVUAGiG.s 			page 7


 198:lvgl/src/extra/libs/bmp/lv_bmp.c ****     uint32_t p = b->px_offset + b->row_size_bytes * y;
  91              		.loc 1 198 7 view .LVU17
  92 000c 12B2     		sxth	r2, r2
  93              	.LVL9:
 199:lvgl/src/extra/libs/bmp/lv_bmp.c ****     p += x * (b->bpp / 8);
  94              		.loc 1 199 5 is_stmt 1 view .LVU18
 199:lvgl/src/extra/libs/bmp/lv_bmp.c ****     p += x * (b->bpp / 8);
  95              		.loc 1 199 19 is_stmt 0 view .LVU19
  96 000e E368     		ldr	r3, [r4, #12]
 199:lvgl/src/extra/libs/bmp/lv_bmp.c ****     p += x * (b->bpp / 8);
  97              		.loc 1 199 34 view .LVU20
  98 0010 E169     		ldr	r1, [r4, #28]
  99              	.LVL10:
 199:lvgl/src/extra/libs/bmp/lv_bmp.c ****     p += x * (b->bpp / 8);
 100              		.loc 1 199 14 view .LVU21
 101 0012 01FB0233 		mla	r3, r1, r2, r3
 102              	.LVL11:
 200:lvgl/src/extra/libs/bmp/lv_bmp.c ****     lv_fs_seek(&b->f, p, LV_FS_SEEK_SET);
 103              		.loc 1 200 5 is_stmt 1 view .LVU22
 200:lvgl/src/extra/libs/bmp/lv_bmp.c ****     lv_fs_seek(&b->f, p, LV_FS_SEEK_SET);
 104              		.loc 1 200 16 is_stmt 0 view .LVU23
 105 0016 A269     		ldr	r2, [r4, #24]
 106              	.LVL12:
 200:lvgl/src/extra/libs/bmp/lv_bmp.c ****     lv_fs_seek(&b->f, p, LV_FS_SEEK_SET);
 107              		.loc 1 200 22 view .LVU24
 108 0018 D108     		lsrs	r1, r2, #3
 109              	.LVL13:
 201:lvgl/src/extra/libs/bmp/lv_bmp.c ****     lv_fs_read(&b->f, buf, len * (b->bpp / 8), NULL);
 110              		.loc 1 201 5 is_stmt 1 view .LVU25
 111 001a 0022     		movs	r2, #0
 112 001c 01FB0031 		mla	r1, r1, r0, r3
 113              	.LVL14:
 201:lvgl/src/extra/libs/bmp/lv_bmp.c ****     lv_fs_read(&b->f, buf, len * (b->bpp / 8), NULL);
 114              		.loc 1 201 5 is_stmt 0 view .LVU26
 115 0020 2046     		mov	r0, r4
 116              	.LVL15:
 201:lvgl/src/extra/libs/bmp/lv_bmp.c ****     lv_fs_read(&b->f, buf, len * (b->bpp / 8), NULL);
 117              		.loc 1 201 5 view .LVU27
 118 0022 FFF7FEFF 		bl	lv_fs_seek
 119              	.LVL16:
 202:lvgl/src/extra/libs/bmp/lv_bmp.c **** 
 120              		.loc 1 202 5 is_stmt 1 view .LVU28
 202:lvgl/src/extra/libs/bmp/lv_bmp.c **** 
 121              		.loc 1 202 36 is_stmt 0 view .LVU29
 122 0026 A269     		ldr	r2, [r4, #24]
 202:lvgl/src/extra/libs/bmp/lv_bmp.c **** 
 123              		.loc 1 202 42 view .LVU30
 124 0028 D208     		lsrs	r2, r2, #3
 202:lvgl/src/extra/libs/bmp/lv_bmp.c **** 
 125              		.loc 1 202 5 view .LVU31
 126 002a 0023     		movs	r3, #0
 127 002c BDF90810 		ldrsh	r1, [sp, #8]
 128 0030 01FB02F2 		mul	r2, r1, r2
 129 0034 0399     		ldr	r1, [sp, #12]
 130 0036 2046     		mov	r0, r4
 131 0038 FFF7FEFF 		bl	lv_fs_read
 132              	.LVL17:
ARM GAS  C:\usertemp\ccVUAGiG.s 			page 8


 233:lvgl/src/extra/libs/bmp/lv_bmp.c **** }
 133              		.loc 1 233 5 is_stmt 1 view .LVU32
 234:lvgl/src/extra/libs/bmp/lv_bmp.c **** 
 134              		.loc 1 234 1 is_stmt 0 view .LVU33
 135 003c 0120     		movs	r0, #1
 136 003e 10BD     		pop	{r4, pc}
 234:lvgl/src/extra/libs/bmp/lv_bmp.c **** 
 137              		.loc 1 234 1 view .LVU34
 138              		.cfi_endproc
 139              	.LFE199:
 141              		.section	.rodata.decoder_open.str1.4,"aMS",%progbits,1
 142              		.align	2
 143              	.LC0:
 144 0000 626D7000 		.ascii	"bmp\000"
 145              		.align	2
 146              	.LC1:
 147 0004 436F6C6F 		.ascii	"Color depth mismatch\000"
 147      72206465 
 147      70746820 
 147      6D69736D 
 147      61746368 
 148              		.section	.text.decoder_open,"ax",%progbits
 149              		.align	1
 150              		.syntax unified
 151              		.thumb
 152              		.thumb_func
 154              	decoder_open:
 155              	.LVL18:
 156              	.LFB198:
 125:lvgl/src/extra/libs/bmp/lv_bmp.c ****     LV_UNUSED(decoder);
 157              		.loc 1 125 1 is_stmt 1 view -0
 158              		.cfi_startproc
 159              		@ args = 0, pretend = 0, frame = 88
 160              		@ frame_needed = 0, uses_anonymous_args = 0
 125:lvgl/src/extra/libs/bmp/lv_bmp.c ****     LV_UNUSED(decoder);
 161              		.loc 1 125 1 is_stmt 0 view .LVU36
 162 0000 70B5     		push	{r4, r5, r6, lr}
 163              	.LCFI2:
 164              		.cfi_def_cfa_offset 16
 165              		.cfi_offset 4, -16
 166              		.cfi_offset 5, -12
 167              		.cfi_offset 6, -8
 168              		.cfi_offset 14, -4
 169 0002 96B0     		sub	sp, sp, #88
 170              	.LCFI3:
 171              		.cfi_def_cfa_offset 104
 126:lvgl/src/extra/libs/bmp/lv_bmp.c **** 
 172              		.loc 1 126 5 is_stmt 1 view .LVU37
 129:lvgl/src/extra/libs/bmp/lv_bmp.c ****         const char * fn = dsc->src;
 173              		.loc 1 129 5 view .LVU38
 129:lvgl/src/extra/libs/bmp/lv_bmp.c ****         const char * fn = dsc->src;
 174              		.loc 1 129 11 is_stmt 0 view .LVU39
 175 0004 0D7C     		ldrb	r5, [r1, #16]	@ zero_extendqisi2
 129:lvgl/src/extra/libs/bmp/lv_bmp.c ****         const char * fn = dsc->src;
 176              		.loc 1 129 7 view .LVU40
 177 0006 012D     		cmp	r5, #1
 178 0008 03D0     		beq	.L18
ARM GAS  C:\usertemp\ccVUAGiG.s 			page 9


 188:lvgl/src/extra/libs/bmp/lv_bmp.c **** }
 179              		.loc 1 188 12 view .LVU41
 180 000a 0025     		movs	r5, #0
 181              	.LVL19:
 182              	.L6:
 189:lvgl/src/extra/libs/bmp/lv_bmp.c **** 
 183              		.loc 1 189 1 view .LVU42
 184 000c 2846     		mov	r0, r5
 185 000e 16B0     		add	sp, sp, #88
 186              	.LCFI4:
 187              		.cfi_remember_state
 188              		.cfi_def_cfa_offset 16
 189              		@ sp needed
 190 0010 70BD     		pop	{r4, r5, r6, pc}
 191              	.LVL20:
 192              	.L18:
 193              	.LCFI5:
 194              		.cfi_restore_state
 189:lvgl/src/extra/libs/bmp/lv_bmp.c **** 
 195              		.loc 1 189 1 view .LVU43
 196 0012 0C46     		mov	r4, r1
 197              	.LBB2:
 130:lvgl/src/extra/libs/bmp/lv_bmp.c **** 
 198              		.loc 1 130 9 is_stmt 1 view .LVU44
 130:lvgl/src/extra/libs/bmp/lv_bmp.c **** 
 199              		.loc 1 130 22 is_stmt 0 view .LVU45
 200 0014 4E68     		ldr	r6, [r1, #4]
 201              	.LVL21:
 132:lvgl/src/extra/libs/bmp/lv_bmp.c **** 
 202              		.loc 1 132 9 is_stmt 1 view .LVU46
 132:lvgl/src/extra/libs/bmp/lv_bmp.c **** 
 203              		.loc 1 132 23 is_stmt 0 view .LVU47
 204 0016 3046     		mov	r0, r6
 205              	.LVL22:
 132:lvgl/src/extra/libs/bmp/lv_bmp.c **** 
 206              		.loc 1 132 23 view .LVU48
 207 0018 FFF7FEFF 		bl	strlen
 208              	.LVL23:
 132:lvgl/src/extra/libs/bmp/lv_bmp.c **** 
 209              		.loc 1 132 22 discriminator 1 view .LVU49
 210 001c 0338     		subs	r0, r0, #3
 132:lvgl/src/extra/libs/bmp/lv_bmp.c **** 
 211              		.loc 1 132 12 discriminator 1 view .LVU50
 212 001e 2E49     		ldr	r1, .L21
 213 0020 3044     		add	r0, r0, r6
 214 0022 FFF7FEFF 		bl	strcmp
 215              	.LVL24:
 132:lvgl/src/extra/libs/bmp/lv_bmp.c **** 
 216              		.loc 1 132 11 discriminator 2 view .LVU51
 217 0026 08B1     		cbz	r0, .L19
 132:lvgl/src/extra/libs/bmp/lv_bmp.c **** 
 218              		.loc 1 132 55 discriminator 1 view .LVU52
 219 0028 0025     		movs	r5, #0
 220 002a EFE7     		b	.L6
 221              	.L19:
 134:lvgl/src/extra/libs/bmp/lv_bmp.c ****         memset(&b, 0x00, sizeof(b));
 222              		.loc 1 134 9 is_stmt 1 view .LVU53
ARM GAS  C:\usertemp\ccVUAGiG.s 			page 10


 135:lvgl/src/extra/libs/bmp/lv_bmp.c **** 
 223              		.loc 1 135 9 view .LVU54
 224 002c 2022     		movs	r2, #32
 225 002e 0021     		movs	r1, #0
 226 0030 6846     		mov	r0, sp
 227 0032 FFF7FEFF 		bl	memset
 228              	.LVL25:
 137:lvgl/src/extra/libs/bmp/lv_bmp.c ****         if(res == LV_RES_OK) return LV_RES_INV;
 229              		.loc 1 137 9 view .LVU55
 137:lvgl/src/extra/libs/bmp/lv_bmp.c ****         if(res == LV_RES_OK) return LV_RES_INV;
 230              		.loc 1 137 27 is_stmt 0 view .LVU56
 231 0036 0222     		movs	r2, #2
 232 0038 6168     		ldr	r1, [r4, #4]
 233 003a 6846     		mov	r0, sp
 234 003c FFF7FEFF 		bl	lv_fs_open
 235              	.LVL26:
 138:lvgl/src/extra/libs/bmp/lv_bmp.c **** 
 236              		.loc 1 138 9 is_stmt 1 view .LVU57
 138:lvgl/src/extra/libs/bmp/lv_bmp.c **** 
 237              		.loc 1 138 11 is_stmt 0 view .LVU58
 238 0040 0128     		cmp	r0, #1
 239 0042 46D0     		beq	.L15
 140:lvgl/src/extra/libs/bmp/lv_bmp.c ****         lv_fs_read(&b.f, header, 54, NULL);
 240              		.loc 1 140 9 is_stmt 1 view .LVU59
 141:lvgl/src/extra/libs/bmp/lv_bmp.c **** 
 241              		.loc 1 141 9 view .LVU60
 242 0044 0023     		movs	r3, #0
 243 0046 3622     		movs	r2, #54
 244 0048 08A9     		add	r1, sp, #32
 245 004a 6846     		mov	r0, sp
 246              	.LVL27:
 141:lvgl/src/extra/libs/bmp/lv_bmp.c **** 
 247              		.loc 1 141 9 is_stmt 0 view .LVU61
 248 004c FFF7FEFF 		bl	lv_fs_read
 249              	.LVL28:
 143:lvgl/src/extra/libs/bmp/lv_bmp.c ****             lv_fs_close(&b.f);
 250              		.loc 1 143 9 is_stmt 1 view .LVU62
 143:lvgl/src/extra/libs/bmp/lv_bmp.c ****             lv_fs_close(&b.f);
 251              		.loc 1 143 26 is_stmt 0 view .LVU63
 252 0050 9DF82030 		ldrb	r3, [sp, #32]	@ zero_extendqisi2
 143:lvgl/src/extra/libs/bmp/lv_bmp.c ****             lv_fs_close(&b.f);
 253              		.loc 1 143 11 view .LVU64
 254 0054 422B     		cmp	r3, #66
 255 0056 03D1     		bne	.L8
 143:lvgl/src/extra/libs/bmp/lv_bmp.c ****             lv_fs_close(&b.f);
 256              		.loc 1 143 47 discriminator 1 view .LVU65
 257 0058 9DF82130 		ldrb	r3, [sp, #33]	@ zero_extendqisi2
 143:lvgl/src/extra/libs/bmp/lv_bmp.c ****             lv_fs_close(&b.f);
 258              		.loc 1 143 30 discriminator 1 view .LVU66
 259 005c 4D2B     		cmp	r3, #77
 260 005e 04D0     		beq	.L9
 261              	.L8:
 144:lvgl/src/extra/libs/bmp/lv_bmp.c ****             return LV_RES_INV;
 262              		.loc 1 144 13 is_stmt 1 view .LVU67
 263 0060 6846     		mov	r0, sp
 264 0062 FFF7FEFF 		bl	lv_fs_close
 265              	.LVL29:
ARM GAS  C:\usertemp\ccVUAGiG.s 			page 11


 145:lvgl/src/extra/libs/bmp/lv_bmp.c ****         }
 266              		.loc 1 145 13 view .LVU68
 145:lvgl/src/extra/libs/bmp/lv_bmp.c ****         }
 267              		.loc 1 145 20 is_stmt 0 view .LVU69
 268 0066 0025     		movs	r5, #0
 269 0068 D0E7     		b	.L6
 270              	.L9:
 148:lvgl/src/extra/libs/bmp/lv_bmp.c ****         memcpy(&b.px_width, header + 18, 4);
 271              		.loc 1 148 9 is_stmt 1 view .LVU70
 272 006a DDF82A30 		ldr	r3, [sp, #42]	@ unaligned
 273 006e 0393     		str	r3, [sp, #12]
 149:lvgl/src/extra/libs/bmp/lv_bmp.c ****         memcpy(&b.px_height, header + 22, 4);
 274              		.loc 1 149 9 view .LVU71
 275 0070 DDF83230 		ldr	r3, [sp, #50]	@ unaligned
 276 0074 0493     		str	r3, [sp, #16]
 150:lvgl/src/extra/libs/bmp/lv_bmp.c ****         memcpy(&b.bpp, header + 28, 2);
 277              		.loc 1 150 9 view .LVU72
 278 0076 DDF83620 		ldr	r2, [sp, #54]	@ unaligned
 279 007a 0592     		str	r2, [sp, #20]
 151:lvgl/src/extra/libs/bmp/lv_bmp.c ****         b.row_size_bytes = ((b.bpp * b.px_width + 31) / 32) * 4;
 280              		.loc 1 151 9 view .LVU73
 281 007c BDF83C20 		ldrh	r2, [sp, #60]
 282 0080 ADF81820 		strh	r2, [sp, #24]	@ movhi
 152:lvgl/src/extra/libs/bmp/lv_bmp.c **** 
 283              		.loc 1 152 9 view .LVU74
 152:lvgl/src/extra/libs/bmp/lv_bmp.c **** 
 284              		.loc 1 152 31 is_stmt 0 view .LVU75
 285 0084 069A     		ldr	r2, [sp, #24]
 152:lvgl/src/extra/libs/bmp/lv_bmp.c **** 
 286              		.loc 1 152 36 view .LVU76
 287 0086 02FB03F3 		mul	r3, r2, r3
 152:lvgl/src/extra/libs/bmp/lv_bmp.c **** 
 288              		.loc 1 152 49 view .LVU77
 289 008a 1F33     		adds	r3, r3, #31
 152:lvgl/src/extra/libs/bmp/lv_bmp.c **** 
 290              		.loc 1 152 55 view .LVU78
 291 008c 5B09     		lsrs	r3, r3, #5
 152:lvgl/src/extra/libs/bmp/lv_bmp.c **** 
 292              		.loc 1 152 61 view .LVU79
 293 008e 9B00     		lsls	r3, r3, #2
 152:lvgl/src/extra/libs/bmp/lv_bmp.c **** 
 294              		.loc 1 152 26 view .LVU80
 295 0090 0793     		str	r3, [sp, #28]
 154:lvgl/src/extra/libs/bmp/lv_bmp.c ****         if(LV_COLOR_DEPTH == 32 && (b.bpp != 32 || b.bpp != 24)) {
 296              		.loc 1 154 9 is_stmt 1 view .LVU81
 297              	.LVL30:
 155:lvgl/src/extra/libs/bmp/lv_bmp.c ****             LV_LOG_WARN("LV_COLOR_DEPTH == 32 but bpp is %d (should be 32 or 24)", b.bpp);
 298              		.loc 1 155 9 view .LVU82
 159:lvgl/src/extra/libs/bmp/lv_bmp.c ****             LV_LOG_WARN("LV_COLOR_DEPTH == 16 but bpp is %d (should be 16)", b.bpp);
 299              		.loc 1 159 14 view .LVU83
 159:lvgl/src/extra/libs/bmp/lv_bmp.c ****             LV_LOG_WARN("LV_COLOR_DEPTH == 16 but bpp is %d (should be 16)", b.bpp);
 300              		.loc 1 159 16 is_stmt 0 view .LVU84
 301 0092 102A     		cmp	r2, #16
 302 0094 06D1     		bne	.L10
 168:lvgl/src/extra/libs/bmp/lv_bmp.c ****             dsc->error_msg = "Color depth mismatch";
 303              		.loc 1 168 9 is_stmt 1 view .LVU85
 174:lvgl/src/extra/libs/bmp/lv_bmp.c ****         LV_ASSERT_MALLOC(dsc->user_data);
ARM GAS  C:\usertemp\ccVUAGiG.s 			page 12


 304              		.loc 1 174 9 view .LVU86
 174:lvgl/src/extra/libs/bmp/lv_bmp.c ****         LV_ASSERT_MALLOC(dsc->user_data);
 305              		.loc 1 174 26 is_stmt 0 view .LVU87
 306 0096 2020     		movs	r0, #32
 307 0098 FFF7FEFF 		bl	lv_mem_alloc
 308              	.LVL31:
 309 009c 0646     		mov	r6, r0
 310              	.LVL32:
 174:lvgl/src/extra/libs/bmp/lv_bmp.c ****         LV_ASSERT_MALLOC(dsc->user_data);
 311              		.loc 1 174 24 discriminator 1 view .LVU88
 312 009e 6062     		str	r0, [r4, #36]
 175:lvgl/src/extra/libs/bmp/lv_bmp.c ****         if(dsc->user_data == NULL) return LV_RES_INV;
 313              		.loc 1 175 9 is_stmt 1 view .LVU89
 175:lvgl/src/extra/libs/bmp/lv_bmp.c ****         if(dsc->user_data == NULL) return LV_RES_INV;
 314              		.loc 1 175 9 view .LVU90
 315 00a0 38B9     		cbnz	r0, .L20
 316              	.L11:
 175:lvgl/src/extra/libs/bmp/lv_bmp.c ****         if(dsc->user_data == NULL) return LV_RES_INV;
 317              		.loc 1 175 9 discriminator 1 view .LVU91
 175:lvgl/src/extra/libs/bmp/lv_bmp.c ****         if(dsc->user_data == NULL) return LV_RES_INV;
 318              		.loc 1 175 9 discriminator 1 view .LVU92
 175:lvgl/src/extra/libs/bmp/lv_bmp.c ****         if(dsc->user_data == NULL) return LV_RES_INV;
 319              		.loc 1 175 9 discriminator 1 view .LVU93
 175:lvgl/src/extra/libs/bmp/lv_bmp.c ****         if(dsc->user_data == NULL) return LV_RES_INV;
 320              		.loc 1 175 9 discriminator 1 view .LVU94
 175:lvgl/src/extra/libs/bmp/lv_bmp.c ****         if(dsc->user_data == NULL) return LV_RES_INV;
 321              		.loc 1 175 9 discriminator 1 view .LVU95
 322 00a2 FEE7     		b	.L11
 323              	.LVL33:
 324              	.L10:
 160:lvgl/src/extra/libs/bmp/lv_bmp.c ****             color_depth_error = true;
 325              		.loc 1 160 13 view .LVU96
 160:lvgl/src/extra/libs/bmp/lv_bmp.c ****             color_depth_error = true;
 326              		.loc 1 160 13 view .LVU97
 160:lvgl/src/extra/libs/bmp/lv_bmp.c ****             color_depth_error = true;
 327              		.loc 1 160 13 view .LVU98
 161:lvgl/src/extra/libs/bmp/lv_bmp.c ****         }
 328              		.loc 1 161 13 view .LVU99
 168:lvgl/src/extra/libs/bmp/lv_bmp.c ****             dsc->error_msg = "Color depth mismatch";
 329              		.loc 1 168 9 view .LVU100
 169:lvgl/src/extra/libs/bmp/lv_bmp.c ****             lv_fs_close(&b.f);
 330              		.loc 1 169 13 view .LVU101
 169:lvgl/src/extra/libs/bmp/lv_bmp.c ****             lv_fs_close(&b.f);
 331              		.loc 1 169 28 is_stmt 0 view .LVU102
 332 00a4 0D4B     		ldr	r3, .L21+4
 333 00a6 2362     		str	r3, [r4, #32]
 170:lvgl/src/extra/libs/bmp/lv_bmp.c ****             return LV_RES_INV;
 334              		.loc 1 170 13 is_stmt 1 view .LVU103
 335 00a8 6846     		mov	r0, sp
 336 00aa FFF7FEFF 		bl	lv_fs_close
 337              	.LVL34:
 171:lvgl/src/extra/libs/bmp/lv_bmp.c ****         }
 338              		.loc 1 171 13 view .LVU104
 171:lvgl/src/extra/libs/bmp/lv_bmp.c ****         }
 339              		.loc 1 171 20 is_stmt 0 view .LVU105
 340 00ae 0025     		movs	r5, #0
 341 00b0 ACE7     		b	.L6
ARM GAS  C:\usertemp\ccVUAGiG.s 			page 13


 342              	.LVL35:
 343              	.L20:
 175:lvgl/src/extra/libs/bmp/lv_bmp.c ****         if(dsc->user_data == NULL) return LV_RES_INV;
 344              		.loc 1 175 9 is_stmt 1 discriminator 2 view .LVU106
 175:lvgl/src/extra/libs/bmp/lv_bmp.c ****         if(dsc->user_data == NULL) return LV_RES_INV;
 345              		.loc 1 175 41 discriminator 2 view .LVU107
 176:lvgl/src/extra/libs/bmp/lv_bmp.c ****         memcpy(dsc->user_data, &b, sizeof(b));
 346              		.loc 1 176 9 view .LVU108
 177:lvgl/src/extra/libs/bmp/lv_bmp.c **** 
 347              		.loc 1 177 9 view .LVU109
 348 00b2 EC46     		mov	ip, sp
 349 00b4 BCE80F00 		ldmia	ip!, {r0, r1, r2, r3}
 350 00b8 3060     		str	r0, [r6]	@ unaligned
 351 00ba 7160     		str	r1, [r6, #4]	@ unaligned
 352 00bc B260     		str	r2, [r6, #8]	@ unaligned
 353 00be F360     		str	r3, [r6, #12]	@ unaligned
 354 00c0 BCE80F00 		ldmia	ip!, {r0, r1, r2, r3}
 355 00c4 3061     		str	r0, [r6, #16]	@ unaligned
 356 00c6 7161     		str	r1, [r6, #20]	@ unaligned
 357 00c8 B261     		str	r2, [r6, #24]	@ unaligned
 358 00ca F361     		str	r3, [r6, #28]	@ unaligned
 179:lvgl/src/extra/libs/bmp/lv_bmp.c ****         return LV_RES_OK;
 359              		.loc 1 179 9 view .LVU110
 179:lvgl/src/extra/libs/bmp/lv_bmp.c ****         return LV_RES_OK;
 360              		.loc 1 179 23 is_stmt 0 view .LVU111
 361 00cc 0023     		movs	r3, #0
 362 00ce A361     		str	r3, [r4, #24]
 180:lvgl/src/extra/libs/bmp/lv_bmp.c ****     }
 363              		.loc 1 180 9 is_stmt 1 view .LVU112
 180:lvgl/src/extra/libs/bmp/lv_bmp.c ****     }
 364              		.loc 1 180 16 is_stmt 0 view .LVU113
 365 00d0 9CE7     		b	.L6
 366              	.LVL36:
 367              	.L15:
 138:lvgl/src/extra/libs/bmp/lv_bmp.c **** 
 368              		.loc 1 138 37 discriminator 1 view .LVU114
 369 00d2 0025     		movs	r5, #0
 370 00d4 9AE7     		b	.L6
 371              	.L22:
 372 00d6 00BF     		.align	2
 373              	.L21:
 374 00d8 00000000 		.word	.LC0
 375 00dc 04000000 		.word	.LC1
 376              	.LBE2:
 377              		.cfi_endproc
 378              	.LFE198:
 380              		.section	.text.decoder_info,"ax",%progbits
 381              		.align	1
 382              		.syntax unified
 383              		.thumb
 384              		.thumb_func
 386              	decoder_info:
 387              	.LVL37:
 388              	.LFB197:
  74:lvgl/src/extra/libs/bmp/lv_bmp.c ****     LV_UNUSED(decoder);
 389              		.loc 1 74 1 is_stmt 1 view -0
 390              		.cfi_startproc
ARM GAS  C:\usertemp\ccVUAGiG.s 			page 14


 391              		@ args = 0, pretend = 0, frame = 72
 392              		@ frame_needed = 0, uses_anonymous_args = 0
  74:lvgl/src/extra/libs/bmp/lv_bmp.c ****     LV_UNUSED(decoder);
 393              		.loc 1 74 1 is_stmt 0 view .LVU116
 394 0000 70B5     		push	{r4, r5, r6, lr}
 395              	.LCFI6:
 396              		.cfi_def_cfa_offset 16
 397              		.cfi_offset 4, -16
 398              		.cfi_offset 5, -12
 399              		.cfi_offset 6, -8
 400              		.cfi_offset 14, -4
 401 0002 92B0     		sub	sp, sp, #72
 402              	.LCFI7:
 403              		.cfi_def_cfa_offset 88
 404 0004 0D46     		mov	r5, r1
 405 0006 1646     		mov	r6, r2
  75:lvgl/src/extra/libs/bmp/lv_bmp.c **** 
 406              		.loc 1 75 5 is_stmt 1 view .LVU117
  77:lvgl/src/extra/libs/bmp/lv_bmp.c **** 
 407              		.loc 1 77 5 view .LVU118
  77:lvgl/src/extra/libs/bmp/lv_bmp.c **** 
 408              		.loc 1 77 29 is_stmt 0 view .LVU119
 409 0008 0846     		mov	r0, r1
 410              	.LVL38:
  77:lvgl/src/extra/libs/bmp/lv_bmp.c **** 
 411              		.loc 1 77 29 view .LVU120
 412 000a FFF7FEFF 		bl	lv_img_src_get_type
 413              	.LVL39:
  80:lvgl/src/extra/libs/bmp/lv_bmp.c ****         const char * fn = src;
 414              		.loc 1 80 5 is_stmt 1 view .LVU121
  80:lvgl/src/extra/libs/bmp/lv_bmp.c ****         const char * fn = src;
 415              		.loc 1 80 7 is_stmt 0 view .LVU122
 416 000e 0128     		cmp	r0, #1
 417 0010 03D0     		beq	.L30
 114:lvgl/src/extra/libs/bmp/lv_bmp.c **** }
 418              		.loc 1 114 12 view .LVU123
 419 0012 0024     		movs	r4, #0
 420              	.LVL40:
 421              	.L24:
 115:lvgl/src/extra/libs/bmp/lv_bmp.c **** 
 422              		.loc 1 115 1 view .LVU124
 423 0014 2046     		mov	r0, r4
 424 0016 12B0     		add	sp, sp, #72
 425              	.LCFI8:
 426              		.cfi_remember_state
 427              		.cfi_def_cfa_offset 16
 428              		@ sp needed
 429 0018 70BD     		pop	{r4, r5, r6, pc}
 430              	.LVL41:
 431              	.L30:
 432              	.LCFI9:
 433              		.cfi_restore_state
 115:lvgl/src/extra/libs/bmp/lv_bmp.c **** 
 434              		.loc 1 115 1 view .LVU125
 435 001a 0446     		mov	r4, r0
 436              	.LBB3:
  81:lvgl/src/extra/libs/bmp/lv_bmp.c ****         if(!strcmp(&fn[strlen(fn) - 3], "bmp")) {              /*Check the extension*/
ARM GAS  C:\usertemp\ccVUAGiG.s 			page 15


 437              		.loc 1 81 9 is_stmt 1 view .LVU126
 438              	.LVL42:
  82:lvgl/src/extra/libs/bmp/lv_bmp.c ****             /*Save the data in the header*/
 439              		.loc 1 82 9 view .LVU127
  82:lvgl/src/extra/libs/bmp/lv_bmp.c ****             /*Save the data in the header*/
 440              		.loc 1 82 24 is_stmt 0 view .LVU128
 441 001c 2846     		mov	r0, r5
 442              	.LVL43:
  82:lvgl/src/extra/libs/bmp/lv_bmp.c ****             /*Save the data in the header*/
 443              		.loc 1 82 24 view .LVU129
 444 001e FFF7FEFF 		bl	strlen
 445              	.LVL44:
  82:lvgl/src/extra/libs/bmp/lv_bmp.c ****             /*Save the data in the header*/
 446              		.loc 1 82 23 discriminator 1 view .LVU130
 447 0022 0338     		subs	r0, r0, #3
  82:lvgl/src/extra/libs/bmp/lv_bmp.c ****             /*Save the data in the header*/
 448              		.loc 1 82 13 discriminator 1 view .LVU131
 449 0024 1649     		ldr	r1, .L33
 450 0026 2844     		add	r0, r0, r5
 451 0028 FFF7FEFF 		bl	strcmp
 452              	.LVL45:
  82:lvgl/src/extra/libs/bmp/lv_bmp.c ****             /*Save the data in the header*/
 453              		.loc 1 82 11 discriminator 2 view .LVU132
 454 002c 08B1     		cbz	r0, .L31
  82:lvgl/src/extra/libs/bmp/lv_bmp.c ****             /*Save the data in the header*/
 455              		.loc 1 82 11 discriminator 2 view .LVU133
 456              	.LBE3:
 114:lvgl/src/extra/libs/bmp/lv_bmp.c **** }
 457              		.loc 1 114 12 view .LVU134
 458 002e 0024     		movs	r4, #0
 459              	.LVL46:
 114:lvgl/src/extra/libs/bmp/lv_bmp.c **** }
 460              		.loc 1 114 12 view .LVU135
 461 0030 F0E7     		b	.L24
 462              	.LVL47:
 463              	.L31:
 464              	.LBB5:
 465              	.LBB4:
  84:lvgl/src/extra/libs/bmp/lv_bmp.c ****             lv_fs_res_t res = lv_fs_open(&f, src, LV_FS_MODE_RD);
 466              		.loc 1 84 13 is_stmt 1 view .LVU136
  85:lvgl/src/extra/libs/bmp/lv_bmp.c ****             if(res != LV_FS_RES_OK) return LV_RES_INV;
 467              		.loc 1 85 13 view .LVU137
  85:lvgl/src/extra/libs/bmp/lv_bmp.c ****             if(res != LV_FS_RES_OK) return LV_RES_INV;
 468              		.loc 1 85 31 is_stmt 0 view .LVU138
 469 0032 0222     		movs	r2, #2
 470 0034 2946     		mov	r1, r5
 471 0036 01A8     		add	r0, sp, #4
 472 0038 FFF7FEFF 		bl	lv_fs_open
 473              	.LVL48:
  86:lvgl/src/extra/libs/bmp/lv_bmp.c ****             uint8_t headers[54];
 474              		.loc 1 86 13 is_stmt 1 view .LVU139
  86:lvgl/src/extra/libs/bmp/lv_bmp.c ****             uint8_t headers[54];
 475              		.loc 1 86 15 is_stmt 0 view .LVU140
 476 003c 08B1     		cbz	r0, .L32
  86:lvgl/src/extra/libs/bmp/lv_bmp.c ****             uint8_t headers[54];
 477              		.loc 1 86 44 discriminator 1 view .LVU141
 478 003e 0024     		movs	r4, #0
ARM GAS  C:\usertemp\ccVUAGiG.s 			page 16


 479              	.LVL49:
  86:lvgl/src/extra/libs/bmp/lv_bmp.c ****             uint8_t headers[54];
 480              		.loc 1 86 44 discriminator 1 view .LVU142
 481 0040 E8E7     		b	.L24
 482              	.LVL50:
 483              	.L32:
  87:lvgl/src/extra/libs/bmp/lv_bmp.c **** 
 484              		.loc 1 87 13 is_stmt 1 view .LVU143
  89:lvgl/src/extra/libs/bmp/lv_bmp.c ****             uint32_t w;
 485              		.loc 1 89 13 view .LVU144
 486 0042 0023     		movs	r3, #0
 487 0044 3622     		movs	r2, #54
 488 0046 04A9     		add	r1, sp, #16
 489 0048 01A8     		add	r0, sp, #4
 490              	.LVL51:
  89:lvgl/src/extra/libs/bmp/lv_bmp.c ****             uint32_t w;
 491              		.loc 1 89 13 is_stmt 0 view .LVU145
 492 004a FFF7FEFF 		bl	lv_fs_read
 493              	.LVL52:
  90:lvgl/src/extra/libs/bmp/lv_bmp.c ****             uint32_t h;
 494              		.loc 1 90 13 is_stmt 1 view .LVU146
  91:lvgl/src/extra/libs/bmp/lv_bmp.c ****             memcpy(&w, headers + 18, 4);
 495              		.loc 1 91 13 view .LVU147
  92:lvgl/src/extra/libs/bmp/lv_bmp.c ****             memcpy(&h, headers + 22, 4);
 496              		.loc 1 92 13 view .LVU148
 497 004e DDF82210 		ldr	r1, [sp, #34]	@ unaligned
 498              	.LVL53:
  93:lvgl/src/extra/libs/bmp/lv_bmp.c ****             header->w = w;
 499              		.loc 1 93 13 view .LVU149
 500 0052 DDF82620 		ldr	r2, [sp, #38]	@ unaligned
 501              	.LVL54:
  94:lvgl/src/extra/libs/bmp/lv_bmp.c ****             header->h = h;
 502              		.loc 1 94 13 view .LVU150
  94:lvgl/src/extra/libs/bmp/lv_bmp.c ****             header->h = h;
 503              		.loc 1 94 23 is_stmt 0 view .LVU151
 504 0056 3368     		ldr	r3, [r6]
 505 0058 61F39423 		bfi	r3, r1, #10, #11
 506 005c 3360     		str	r3, [r6]
  95:lvgl/src/extra/libs/bmp/lv_bmp.c ****             header->always_zero = 0;
 507              		.loc 1 95 13 is_stmt 1 view .LVU152
  95:lvgl/src/extra/libs/bmp/lv_bmp.c ****             header->always_zero = 0;
 508              		.loc 1 95 23 is_stmt 0 view .LVU153
 509 005e 7388     		ldrh	r3, [r6, #2]
 510 0060 62F34F13 		bfi	r3, r2, #5, #11
 511 0064 7380     		strh	r3, [r6, #2]	@ movhi
  96:lvgl/src/extra/libs/bmp/lv_bmp.c ****             lv_fs_close(&f);
 512              		.loc 1 96 13 is_stmt 1 view .LVU154
  96:lvgl/src/extra/libs/bmp/lv_bmp.c ****             lv_fs_close(&f);
 513              		.loc 1 96 33 is_stmt 0 view .LVU155
 514 0066 3378     		ldrb	r3, [r6]	@ zero_extendqisi2
 515 0068 23F0E003 		bic	r3, r3, #224
 516 006c 3370     		strb	r3, [r6]
  97:lvgl/src/extra/libs/bmp/lv_bmp.c **** #if LV_COLOR_DEPTH == 32
 517              		.loc 1 97 13 is_stmt 1 view .LVU156
 518 006e 01A8     		add	r0, sp, #4
 519 0070 FFF7FEFF 		bl	lv_fs_close
 520              	.LVL55:
ARM GAS  C:\usertemp\ccVUAGiG.s 			page 17


 103:lvgl/src/extra/libs/bmp/lv_bmp.c **** #endif
 521              		.loc 1 103 13 view .LVU157
 103:lvgl/src/extra/libs/bmp/lv_bmp.c **** #endif
 522              		.loc 1 103 24 is_stmt 0 view .LVU158
 523 0074 3378     		ldrb	r3, [r6]	@ zero_extendqisi2
 524 0076 0422     		movs	r2, #4
 525 0078 62F30403 		bfi	r3, r2, #0, #5
 526 007c 3370     		strb	r3, [r6]
 105:lvgl/src/extra/libs/bmp/lv_bmp.c ****         }
 527              		.loc 1 105 13 is_stmt 1 view .LVU159
 105:lvgl/src/extra/libs/bmp/lv_bmp.c ****         }
 528              		.loc 1 105 20 is_stmt 0 view .LVU160
 529 007e C9E7     		b	.L24
 530              	.L34:
 531              		.align	2
 532              	.L33:
 533 0080 00000000 		.word	.LC0
 534              	.LBE4:
 535              	.LBE5:
 536              		.cfi_endproc
 537              	.LFE197:
 539              		.section	.text.lv_bmp_init,"ax",%progbits
 540              		.align	1
 541              		.global	lv_bmp_init
 542              		.syntax unified
 543              		.thumb
 544              		.thumb_func
 546              	lv_bmp_init:
 547              	.LFB196:
  55:lvgl/src/extra/libs/bmp/lv_bmp.c ****     lv_img_decoder_t * dec = lv_img_decoder_create();
 548              		.loc 1 55 1 is_stmt 1 view -0
 549              		.cfi_startproc
 550              		@ args = 0, pretend = 0, frame = 0
 551              		@ frame_needed = 0, uses_anonymous_args = 0
 552 0000 10B5     		push	{r4, lr}
 553              	.LCFI10:
 554              		.cfi_def_cfa_offset 8
 555              		.cfi_offset 4, -8
 556              		.cfi_offset 14, -4
  56:lvgl/src/extra/libs/bmp/lv_bmp.c ****     lv_img_decoder_set_info_cb(dec, decoder_info);
 557              		.loc 1 56 5 view .LVU162
  56:lvgl/src/extra/libs/bmp/lv_bmp.c ****     lv_img_decoder_set_info_cb(dec, decoder_info);
 558              		.loc 1 56 30 is_stmt 0 view .LVU163
 559 0002 FFF7FEFF 		bl	lv_img_decoder_create
 560              	.LVL56:
 561 0006 0446     		mov	r4, r0
 562              	.LVL57:
  57:lvgl/src/extra/libs/bmp/lv_bmp.c ****     lv_img_decoder_set_open_cb(dec, decoder_open);
 563              		.loc 1 57 5 is_stmt 1 view .LVU164
 564 0008 0749     		ldr	r1, .L37
 565 000a FFF7FEFF 		bl	lv_img_decoder_set_info_cb
 566              	.LVL58:
  58:lvgl/src/extra/libs/bmp/lv_bmp.c ****     lv_img_decoder_set_read_line_cb(dec, decoder_read_line);
 567              		.loc 1 58 5 view .LVU165
 568 000e 0749     		ldr	r1, .L37+4
 569 0010 2046     		mov	r0, r4
 570 0012 FFF7FEFF 		bl	lv_img_decoder_set_open_cb
ARM GAS  C:\usertemp\ccVUAGiG.s 			page 18


 571              	.LVL59:
  59:lvgl/src/extra/libs/bmp/lv_bmp.c ****     lv_img_decoder_set_close_cb(dec, decoder_close);
 572              		.loc 1 59 5 view .LVU166
 573 0016 0649     		ldr	r1, .L37+8
 574 0018 2046     		mov	r0, r4
 575 001a FFF7FEFF 		bl	lv_img_decoder_set_read_line_cb
 576              	.LVL60:
  60:lvgl/src/extra/libs/bmp/lv_bmp.c **** }
 577              		.loc 1 60 5 view .LVU167
 578 001e 0549     		ldr	r1, .L37+12
 579 0020 2046     		mov	r0, r4
 580 0022 FFF7FEFF 		bl	lv_img_decoder_set_close_cb
 581              	.LVL61:
  61:lvgl/src/extra/libs/bmp/lv_bmp.c **** 
 582              		.loc 1 61 1 is_stmt 0 view .LVU168
 583 0026 10BD     		pop	{r4, pc}
 584              	.LVL62:
 585              	.L38:
  61:lvgl/src/extra/libs/bmp/lv_bmp.c **** 
 586              		.loc 1 61 1 view .LVU169
 587              		.align	2
 588              	.L37:
 589 0028 00000000 		.word	decoder_info
 590 002c 00000000 		.word	decoder_open
 591 0030 00000000 		.word	decoder_read_line
 592 0034 00000000 		.word	decoder_close
 593              		.cfi_endproc
 594              	.LFE196:
 596              		.text
 597              	.Letext0:
 598              		.file 2 "D:/armtoolchain/arm-gnu-toolchain-13.3.rel1-mingw-w64-i686-arm-none-eabi/arm-none-eabi/in
 599              		.file 3 "D:/armtoolchain/arm-gnu-toolchain-13.3.rel1-mingw-w64-i686-arm-none-eabi/arm-none-eabi/in
 600              		.file 4 "lvgl/src/extra/libs/bmp/../../../../src/misc/lv_types.h"
 601              		.file 5 "D:/armtoolchain/arm-gnu-toolchain-13.3.rel1-mingw-w64-i686-arm-none-eabi/lib/gcc/arm-none
 602              		.file 6 "D:/update_2024EL/changeform/743zit6/lvgl/src/misc/lv_area.h"
 603              		.file 7 "D:/update_2024EL/changeform/743zit6/lvgl/src/misc/lv_color.h"
 604              		.file 8 "D:/update_2024EL/changeform/743zit6/lvgl/src/draw/lv_img_buf.h"
 605              		.file 9 "D:/update_2024EL/changeform/743zit6/lvgl/src/misc/lv_fs.h"
 606              		.file 10 "D:/update_2024EL/changeform/743zit6/lvgl/src/draw/lv_img_decoder.h"
 607              		.file 11 "D:/update_2024EL/changeform/743zit6/lvgl/src/draw/lv_draw_img.h"
 608              		.file 12 "D:/armtoolchain/arm-gnu-toolchain-13.3.rel1-mingw-w64-i686-arm-none-eabi/arm-none-eabi/i
 609              		.file 13 "D:/update_2024EL/changeform/743zit6/lvgl/src/misc/lv_mem.h"
 610              		.file 14 "<built-in>"
ARM GAS  C:\usertemp\ccVUAGiG.s 			page 19

