ARM GAS  C:\usertemp\cc9FftXf.s 			page 1


   1              		.cpu cortex-m7
   2              		.arch armv7e-m
   3              		.fpu fpv5-d16
   4              		.eabi_attribute 28, 1
   5              		.eabi_attribute 20, 1
   6              		.eabi_attribute 21, 1
   7              		.eabi_attribute 23, 3
   8              		.eabi_attribute 24, 1
   9              		.eabi_attribute 25, 1
  10              		.eabi_attribute 26, 1
  11              		.eabi_attribute 30, 1
  12              		.eabi_attribute 34, 1
  13              		.eabi_attribute 18, 4
  14              		.file	"lv_calendar.c"
  15              		.text
  16              	.Ltext0:
  17              		.cfi_sections	.debug_frame
  18              		.file 1 "lvgl/src/extra/widgets/calendar/lv_calendar.c"
  19              		.section	.text.is_leap_year,"ax",%progbits
  20              		.align	1
  21              		.syntax unified
  22              		.thumb
  23              		.thumb_func
  25              	is_leap_year:
  26              	.LVL0:
  27              	.LFB210:
   1:lvgl/src/extra/widgets/calendar/lv_calendar.c **** /**
   2:lvgl/src/extra/widgets/calendar/lv_calendar.c ****  * @file lv_calendar.c
   3:lvgl/src/extra/widgets/calendar/lv_calendar.c ****  *
   4:lvgl/src/extra/widgets/calendar/lv_calendar.c ****  */
   5:lvgl/src/extra/widgets/calendar/lv_calendar.c **** 
   6:lvgl/src/extra/widgets/calendar/lv_calendar.c **** /*********************
   7:lvgl/src/extra/widgets/calendar/lv_calendar.c ****  *      INCLUDES
   8:lvgl/src/extra/widgets/calendar/lv_calendar.c ****  *********************/
   9:lvgl/src/extra/widgets/calendar/lv_calendar.c **** #include "lv_calendar.h"
  10:lvgl/src/extra/widgets/calendar/lv_calendar.c **** #include "../../../lvgl.h"
  11:lvgl/src/extra/widgets/calendar/lv_calendar.c **** #if LV_USE_CALENDAR
  12:lvgl/src/extra/widgets/calendar/lv_calendar.c **** 
  13:lvgl/src/extra/widgets/calendar/lv_calendar.c **** #include "../../../misc/lv_assert.h"
  14:lvgl/src/extra/widgets/calendar/lv_calendar.c **** 
  15:lvgl/src/extra/widgets/calendar/lv_calendar.c **** /*********************
  16:lvgl/src/extra/widgets/calendar/lv_calendar.c ****  *      DEFINES
  17:lvgl/src/extra/widgets/calendar/lv_calendar.c ****  *********************/
  18:lvgl/src/extra/widgets/calendar/lv_calendar.c **** #define LV_CALENDAR_CTRL_TODAY      LV_BTNMATRIX_CTRL_CUSTOM_1
  19:lvgl/src/extra/widgets/calendar/lv_calendar.c **** #define LV_CALENDAR_CTRL_HIGHLIGHT  LV_BTNMATRIX_CTRL_CUSTOM_2
  20:lvgl/src/extra/widgets/calendar/lv_calendar.c **** 
  21:lvgl/src/extra/widgets/calendar/lv_calendar.c **** #define MY_CLASS &lv_calendar_class
  22:lvgl/src/extra/widgets/calendar/lv_calendar.c **** 
  23:lvgl/src/extra/widgets/calendar/lv_calendar.c **** /**********************
  24:lvgl/src/extra/widgets/calendar/lv_calendar.c ****  *      TYPEDEFS
  25:lvgl/src/extra/widgets/calendar/lv_calendar.c ****  **********************/
  26:lvgl/src/extra/widgets/calendar/lv_calendar.c **** 
  27:lvgl/src/extra/widgets/calendar/lv_calendar.c **** /**********************
  28:lvgl/src/extra/widgets/calendar/lv_calendar.c ****  *  STATIC PROTOTYPES
  29:lvgl/src/extra/widgets/calendar/lv_calendar.c ****  **********************/
  30:lvgl/src/extra/widgets/calendar/lv_calendar.c **** static void lv_calendar_constructor(const lv_obj_class_t * class_p, lv_obj_t * obj);
  31:lvgl/src/extra/widgets/calendar/lv_calendar.c **** static void draw_part_begin_event_cb(lv_event_t * e);
ARM GAS  C:\usertemp\cc9FftXf.s 			page 2


  32:lvgl/src/extra/widgets/calendar/lv_calendar.c **** 
  33:lvgl/src/extra/widgets/calendar/lv_calendar.c **** static uint8_t get_day_of_week(uint32_t year, uint32_t month, uint32_t day);
  34:lvgl/src/extra/widgets/calendar/lv_calendar.c **** static uint8_t get_month_length(int32_t year, int32_t month);
  35:lvgl/src/extra/widgets/calendar/lv_calendar.c **** static uint8_t is_leap_year(uint32_t year);
  36:lvgl/src/extra/widgets/calendar/lv_calendar.c **** static void highlight_update(lv_obj_t * calendar);
  37:lvgl/src/extra/widgets/calendar/lv_calendar.c **** 
  38:lvgl/src/extra/widgets/calendar/lv_calendar.c **** /**********************
  39:lvgl/src/extra/widgets/calendar/lv_calendar.c ****  *  STATIC VARIABLES
  40:lvgl/src/extra/widgets/calendar/lv_calendar.c ****  **********************/
  41:lvgl/src/extra/widgets/calendar/lv_calendar.c **** const lv_obj_class_t lv_calendar_class = {
  42:lvgl/src/extra/widgets/calendar/lv_calendar.c ****     .constructor_cb = lv_calendar_constructor,
  43:lvgl/src/extra/widgets/calendar/lv_calendar.c ****     .width_def = (LV_DPI_DEF * 3) / 2,
  44:lvgl/src/extra/widgets/calendar/lv_calendar.c ****     .height_def = (LV_DPI_DEF * 3) / 2,
  45:lvgl/src/extra/widgets/calendar/lv_calendar.c ****     .group_def = LV_OBJ_CLASS_GROUP_DEF_TRUE,
  46:lvgl/src/extra/widgets/calendar/lv_calendar.c ****     .instance_size = sizeof(lv_calendar_t),
  47:lvgl/src/extra/widgets/calendar/lv_calendar.c ****     .base_class = &lv_obj_class
  48:lvgl/src/extra/widgets/calendar/lv_calendar.c **** };
  49:lvgl/src/extra/widgets/calendar/lv_calendar.c **** 
  50:lvgl/src/extra/widgets/calendar/lv_calendar.c **** static const char * day_names_def[7] = LV_CALENDAR_DEFAULT_DAY_NAMES;
  51:lvgl/src/extra/widgets/calendar/lv_calendar.c **** 
  52:lvgl/src/extra/widgets/calendar/lv_calendar.c **** /**********************
  53:lvgl/src/extra/widgets/calendar/lv_calendar.c ****  *      MACROS
  54:lvgl/src/extra/widgets/calendar/lv_calendar.c ****  **********************/
  55:lvgl/src/extra/widgets/calendar/lv_calendar.c **** 
  56:lvgl/src/extra/widgets/calendar/lv_calendar.c **** /**********************
  57:lvgl/src/extra/widgets/calendar/lv_calendar.c ****  *   GLOBAL FUNCTIONS
  58:lvgl/src/extra/widgets/calendar/lv_calendar.c ****  **********************/
  59:lvgl/src/extra/widgets/calendar/lv_calendar.c **** 
  60:lvgl/src/extra/widgets/calendar/lv_calendar.c **** lv_obj_t * lv_calendar_create(lv_obj_t * parent)
  61:lvgl/src/extra/widgets/calendar/lv_calendar.c **** {
  62:lvgl/src/extra/widgets/calendar/lv_calendar.c ****     LV_LOG_INFO("begin");
  63:lvgl/src/extra/widgets/calendar/lv_calendar.c ****     lv_obj_t * obj = lv_obj_class_create_obj(&lv_calendar_class, parent);
  64:lvgl/src/extra/widgets/calendar/lv_calendar.c ****     lv_obj_class_init_obj(obj);
  65:lvgl/src/extra/widgets/calendar/lv_calendar.c ****     return obj;
  66:lvgl/src/extra/widgets/calendar/lv_calendar.c **** }
  67:lvgl/src/extra/widgets/calendar/lv_calendar.c **** 
  68:lvgl/src/extra/widgets/calendar/lv_calendar.c **** /*=====================
  69:lvgl/src/extra/widgets/calendar/lv_calendar.c ****  * Setter functions
  70:lvgl/src/extra/widgets/calendar/lv_calendar.c ****  *====================*/
  71:lvgl/src/extra/widgets/calendar/lv_calendar.c **** 
  72:lvgl/src/extra/widgets/calendar/lv_calendar.c **** void lv_calendar_set_day_names(lv_obj_t * obj, const char * day_names[])
  73:lvgl/src/extra/widgets/calendar/lv_calendar.c **** {
  74:lvgl/src/extra/widgets/calendar/lv_calendar.c ****     LV_ASSERT_OBJ(obj, MY_CLASS);
  75:lvgl/src/extra/widgets/calendar/lv_calendar.c ****     lv_calendar_t * calendar = (lv_calendar_t *)obj;
  76:lvgl/src/extra/widgets/calendar/lv_calendar.c **** 
  77:lvgl/src/extra/widgets/calendar/lv_calendar.c ****     uint32_t i;
  78:lvgl/src/extra/widgets/calendar/lv_calendar.c ****     for(i = 0; i < 7; i++) {
  79:lvgl/src/extra/widgets/calendar/lv_calendar.c ****         calendar->map[i] = day_names[i];
  80:lvgl/src/extra/widgets/calendar/lv_calendar.c ****     }
  81:lvgl/src/extra/widgets/calendar/lv_calendar.c ****     lv_obj_invalidate(obj);
  82:lvgl/src/extra/widgets/calendar/lv_calendar.c **** }
  83:lvgl/src/extra/widgets/calendar/lv_calendar.c **** 
  84:lvgl/src/extra/widgets/calendar/lv_calendar.c **** void lv_calendar_set_today_date(lv_obj_t * obj, uint32_t year, uint32_t month, uint32_t day)
  85:lvgl/src/extra/widgets/calendar/lv_calendar.c **** {
  86:lvgl/src/extra/widgets/calendar/lv_calendar.c ****     LV_ASSERT_OBJ(obj, MY_CLASS);
  87:lvgl/src/extra/widgets/calendar/lv_calendar.c ****     lv_calendar_t * calendar = (lv_calendar_t *)obj;
  88:lvgl/src/extra/widgets/calendar/lv_calendar.c **** 
ARM GAS  C:\usertemp\cc9FftXf.s 			page 3


  89:lvgl/src/extra/widgets/calendar/lv_calendar.c ****     calendar->today.year         = year;
  90:lvgl/src/extra/widgets/calendar/lv_calendar.c ****     calendar->today.month        = month;
  91:lvgl/src/extra/widgets/calendar/lv_calendar.c ****     calendar->today.day          = day;
  92:lvgl/src/extra/widgets/calendar/lv_calendar.c **** 
  93:lvgl/src/extra/widgets/calendar/lv_calendar.c ****     highlight_update(obj);
  94:lvgl/src/extra/widgets/calendar/lv_calendar.c **** }
  95:lvgl/src/extra/widgets/calendar/lv_calendar.c **** 
  96:lvgl/src/extra/widgets/calendar/lv_calendar.c **** void lv_calendar_set_highlighted_dates(lv_obj_t * obj, lv_calendar_date_t highlighted[], uint16_t d
  97:lvgl/src/extra/widgets/calendar/lv_calendar.c **** {
  98:lvgl/src/extra/widgets/calendar/lv_calendar.c ****     LV_ASSERT_NULL(highlighted);
  99:lvgl/src/extra/widgets/calendar/lv_calendar.c **** 
 100:lvgl/src/extra/widgets/calendar/lv_calendar.c ****     LV_ASSERT_OBJ(obj, MY_CLASS);
 101:lvgl/src/extra/widgets/calendar/lv_calendar.c ****     lv_calendar_t * calendar = (lv_calendar_t *)obj;
 102:lvgl/src/extra/widgets/calendar/lv_calendar.c **** 
 103:lvgl/src/extra/widgets/calendar/lv_calendar.c ****     calendar->highlighted_dates     = highlighted;
 104:lvgl/src/extra/widgets/calendar/lv_calendar.c ****     calendar->highlighted_dates_num = date_num;
 105:lvgl/src/extra/widgets/calendar/lv_calendar.c **** 
 106:lvgl/src/extra/widgets/calendar/lv_calendar.c ****     highlight_update(obj);
 107:lvgl/src/extra/widgets/calendar/lv_calendar.c **** }
 108:lvgl/src/extra/widgets/calendar/lv_calendar.c **** 
 109:lvgl/src/extra/widgets/calendar/lv_calendar.c **** void lv_calendar_set_showed_date(lv_obj_t * obj, uint32_t year, uint32_t month)
 110:lvgl/src/extra/widgets/calendar/lv_calendar.c **** {
 111:lvgl/src/extra/widgets/calendar/lv_calendar.c ****     LV_ASSERT_OBJ(obj, MY_CLASS);
 112:lvgl/src/extra/widgets/calendar/lv_calendar.c ****     lv_calendar_t * calendar = (lv_calendar_t *)obj;
 113:lvgl/src/extra/widgets/calendar/lv_calendar.c **** 
 114:lvgl/src/extra/widgets/calendar/lv_calendar.c ****     calendar->showed_date.year   = year;
 115:lvgl/src/extra/widgets/calendar/lv_calendar.c ****     calendar->showed_date.month  = month;
 116:lvgl/src/extra/widgets/calendar/lv_calendar.c ****     calendar->showed_date.day    = 1;
 117:lvgl/src/extra/widgets/calendar/lv_calendar.c **** 
 118:lvgl/src/extra/widgets/calendar/lv_calendar.c ****     lv_calendar_date_t d;
 119:lvgl/src/extra/widgets/calendar/lv_calendar.c ****     d.year = calendar->showed_date.year;
 120:lvgl/src/extra/widgets/calendar/lv_calendar.c ****     d.month = calendar->showed_date.month;
 121:lvgl/src/extra/widgets/calendar/lv_calendar.c ****     d.day = calendar->showed_date.day;
 122:lvgl/src/extra/widgets/calendar/lv_calendar.c **** 
 123:lvgl/src/extra/widgets/calendar/lv_calendar.c ****     uint8_t i;
 124:lvgl/src/extra/widgets/calendar/lv_calendar.c **** 
 125:lvgl/src/extra/widgets/calendar/lv_calendar.c ****     /*Remove the disabled state but revert it for day names*/
 126:lvgl/src/extra/widgets/calendar/lv_calendar.c ****     lv_btnmatrix_clear_btn_ctrl_all(calendar->btnm, LV_BTNMATRIX_CTRL_DISABLED);
 127:lvgl/src/extra/widgets/calendar/lv_calendar.c ****     for(i = 0; i < 7; i++) {
 128:lvgl/src/extra/widgets/calendar/lv_calendar.c ****         lv_btnmatrix_set_btn_ctrl(calendar->btnm, i, LV_BTNMATRIX_CTRL_DISABLED);
 129:lvgl/src/extra/widgets/calendar/lv_calendar.c ****     }
 130:lvgl/src/extra/widgets/calendar/lv_calendar.c **** 
 131:lvgl/src/extra/widgets/calendar/lv_calendar.c ****     uint8_t act_mo_len = get_month_length(d.year, d.month);
 132:lvgl/src/extra/widgets/calendar/lv_calendar.c ****     uint8_t day_first = get_day_of_week(d.year, d.month, 1);
 133:lvgl/src/extra/widgets/calendar/lv_calendar.c ****     uint8_t c;
 134:lvgl/src/extra/widgets/calendar/lv_calendar.c ****     for(i = day_first, c = 1; i < act_mo_len + day_first; i++, c++) {
 135:lvgl/src/extra/widgets/calendar/lv_calendar.c ****         lv_snprintf(calendar->nums[i], sizeof(calendar->nums[0]), "%d", c);
 136:lvgl/src/extra/widgets/calendar/lv_calendar.c ****     }
 137:lvgl/src/extra/widgets/calendar/lv_calendar.c **** 
 138:lvgl/src/extra/widgets/calendar/lv_calendar.c ****     uint8_t prev_mo_len = get_month_length(d.year, d.month - 1);
 139:lvgl/src/extra/widgets/calendar/lv_calendar.c ****     for(i = 0, c = prev_mo_len - day_first + 1; i < day_first; i++, c++) {
 140:lvgl/src/extra/widgets/calendar/lv_calendar.c ****         lv_snprintf(calendar->nums[i], sizeof(calendar->nums[0]), "%d", c);
 141:lvgl/src/extra/widgets/calendar/lv_calendar.c ****         lv_btnmatrix_set_btn_ctrl(calendar->btnm, i + 7, LV_BTNMATRIX_CTRL_DISABLED);
 142:lvgl/src/extra/widgets/calendar/lv_calendar.c ****     }
 143:lvgl/src/extra/widgets/calendar/lv_calendar.c **** 
 144:lvgl/src/extra/widgets/calendar/lv_calendar.c ****     for(i = day_first + act_mo_len, c = 1; i < 6 * 7; i++, c++) {
 145:lvgl/src/extra/widgets/calendar/lv_calendar.c ****         lv_snprintf(calendar->nums[i], sizeof(calendar->nums[0]), "%d", c);
ARM GAS  C:\usertemp\cc9FftXf.s 			page 4


 146:lvgl/src/extra/widgets/calendar/lv_calendar.c ****         lv_btnmatrix_set_btn_ctrl(calendar->btnm, i + 7, LV_BTNMATRIX_CTRL_DISABLED);
 147:lvgl/src/extra/widgets/calendar/lv_calendar.c ****     }
 148:lvgl/src/extra/widgets/calendar/lv_calendar.c **** 
 149:lvgl/src/extra/widgets/calendar/lv_calendar.c ****     highlight_update(obj);
 150:lvgl/src/extra/widgets/calendar/lv_calendar.c **** 
 151:lvgl/src/extra/widgets/calendar/lv_calendar.c ****     /*Reset the focused button if the days changes*/
 152:lvgl/src/extra/widgets/calendar/lv_calendar.c ****     if(lv_btnmatrix_get_selected_btn(calendar->btnm) != LV_BTNMATRIX_BTN_NONE) {
 153:lvgl/src/extra/widgets/calendar/lv_calendar.c ****         lv_btnmatrix_set_selected_btn(calendar->btnm, day_first + 7);
 154:lvgl/src/extra/widgets/calendar/lv_calendar.c ****     }
 155:lvgl/src/extra/widgets/calendar/lv_calendar.c **** 
 156:lvgl/src/extra/widgets/calendar/lv_calendar.c ****     lv_obj_invalidate(obj);
 157:lvgl/src/extra/widgets/calendar/lv_calendar.c **** 
 158:lvgl/src/extra/widgets/calendar/lv_calendar.c ****     /* The children of the calendar are probably headers.
 159:lvgl/src/extra/widgets/calendar/lv_calendar.c ****      * Notify them to let the headers updated to the new date*/
 160:lvgl/src/extra/widgets/calendar/lv_calendar.c ****     uint32_t child_cnt = lv_obj_get_child_cnt(obj);
 161:lvgl/src/extra/widgets/calendar/lv_calendar.c ****     for(i = 0; i < child_cnt; i++) {
 162:lvgl/src/extra/widgets/calendar/lv_calendar.c ****         lv_obj_t * child = lv_obj_get_child(obj, i);
 163:lvgl/src/extra/widgets/calendar/lv_calendar.c ****         if(child == calendar->btnm) continue;
 164:lvgl/src/extra/widgets/calendar/lv_calendar.c ****         lv_event_send(child, LV_EVENT_VALUE_CHANGED, obj);
 165:lvgl/src/extra/widgets/calendar/lv_calendar.c ****     }
 166:lvgl/src/extra/widgets/calendar/lv_calendar.c **** }
 167:lvgl/src/extra/widgets/calendar/lv_calendar.c **** 
 168:lvgl/src/extra/widgets/calendar/lv_calendar.c **** /*=====================
 169:lvgl/src/extra/widgets/calendar/lv_calendar.c ****  * Getter functions
 170:lvgl/src/extra/widgets/calendar/lv_calendar.c ****  *====================*/
 171:lvgl/src/extra/widgets/calendar/lv_calendar.c **** 
 172:lvgl/src/extra/widgets/calendar/lv_calendar.c **** lv_obj_t * lv_calendar_get_btnmatrix(const lv_obj_t * obj)
 173:lvgl/src/extra/widgets/calendar/lv_calendar.c **** {
 174:lvgl/src/extra/widgets/calendar/lv_calendar.c ****     LV_ASSERT_OBJ(obj, MY_CLASS);
 175:lvgl/src/extra/widgets/calendar/lv_calendar.c ****     const lv_calendar_t * calendar = (lv_calendar_t *)obj;
 176:lvgl/src/extra/widgets/calendar/lv_calendar.c ****     return calendar->btnm;
 177:lvgl/src/extra/widgets/calendar/lv_calendar.c **** }
 178:lvgl/src/extra/widgets/calendar/lv_calendar.c **** 
 179:lvgl/src/extra/widgets/calendar/lv_calendar.c **** const lv_calendar_date_t * lv_calendar_get_today_date(const lv_obj_t * obj)
 180:lvgl/src/extra/widgets/calendar/lv_calendar.c **** {
 181:lvgl/src/extra/widgets/calendar/lv_calendar.c ****     LV_ASSERT_OBJ(obj, MY_CLASS);
 182:lvgl/src/extra/widgets/calendar/lv_calendar.c ****     const lv_calendar_t * calendar = (lv_calendar_t *)obj;
 183:lvgl/src/extra/widgets/calendar/lv_calendar.c **** 
 184:lvgl/src/extra/widgets/calendar/lv_calendar.c ****     return &calendar->today;
 185:lvgl/src/extra/widgets/calendar/lv_calendar.c **** }
 186:lvgl/src/extra/widgets/calendar/lv_calendar.c **** 
 187:lvgl/src/extra/widgets/calendar/lv_calendar.c **** const lv_calendar_date_t * lv_calendar_get_showed_date(const lv_obj_t * obj)
 188:lvgl/src/extra/widgets/calendar/lv_calendar.c **** {
 189:lvgl/src/extra/widgets/calendar/lv_calendar.c ****     LV_ASSERT_OBJ(obj, MY_CLASS);
 190:lvgl/src/extra/widgets/calendar/lv_calendar.c ****     const lv_calendar_t * calendar = (lv_calendar_t *)obj;
 191:lvgl/src/extra/widgets/calendar/lv_calendar.c **** 
 192:lvgl/src/extra/widgets/calendar/lv_calendar.c ****     return &calendar->showed_date;
 193:lvgl/src/extra/widgets/calendar/lv_calendar.c **** }
 194:lvgl/src/extra/widgets/calendar/lv_calendar.c **** 
 195:lvgl/src/extra/widgets/calendar/lv_calendar.c **** lv_calendar_date_t * lv_calendar_get_highlighted_dates(const lv_obj_t * obj)
 196:lvgl/src/extra/widgets/calendar/lv_calendar.c **** {
 197:lvgl/src/extra/widgets/calendar/lv_calendar.c ****     LV_ASSERT_OBJ(obj, MY_CLASS);
 198:lvgl/src/extra/widgets/calendar/lv_calendar.c ****     lv_calendar_t * calendar = (lv_calendar_t *)obj;
 199:lvgl/src/extra/widgets/calendar/lv_calendar.c **** 
 200:lvgl/src/extra/widgets/calendar/lv_calendar.c ****     return calendar->highlighted_dates;
 201:lvgl/src/extra/widgets/calendar/lv_calendar.c **** }
 202:lvgl/src/extra/widgets/calendar/lv_calendar.c **** 
ARM GAS  C:\usertemp\cc9FftXf.s 			page 5


 203:lvgl/src/extra/widgets/calendar/lv_calendar.c **** uint16_t lv_calendar_get_highlighted_dates_num(const lv_obj_t * obj)
 204:lvgl/src/extra/widgets/calendar/lv_calendar.c **** {
 205:lvgl/src/extra/widgets/calendar/lv_calendar.c ****     LV_ASSERT_OBJ(obj, MY_CLASS);
 206:lvgl/src/extra/widgets/calendar/lv_calendar.c ****     lv_calendar_t * calendar = (lv_calendar_t *)obj;
 207:lvgl/src/extra/widgets/calendar/lv_calendar.c **** 
 208:lvgl/src/extra/widgets/calendar/lv_calendar.c ****     return calendar->highlighted_dates_num;
 209:lvgl/src/extra/widgets/calendar/lv_calendar.c **** }
 210:lvgl/src/extra/widgets/calendar/lv_calendar.c **** 
 211:lvgl/src/extra/widgets/calendar/lv_calendar.c **** lv_res_t lv_calendar_get_pressed_date(const lv_obj_t * obj, lv_calendar_date_t * date)
 212:lvgl/src/extra/widgets/calendar/lv_calendar.c **** {
 213:lvgl/src/extra/widgets/calendar/lv_calendar.c ****     LV_ASSERT_OBJ(obj, MY_CLASS);
 214:lvgl/src/extra/widgets/calendar/lv_calendar.c ****     lv_calendar_t * calendar = (lv_calendar_t *)obj;
 215:lvgl/src/extra/widgets/calendar/lv_calendar.c **** 
 216:lvgl/src/extra/widgets/calendar/lv_calendar.c ****     uint16_t d = lv_btnmatrix_get_selected_btn(calendar->btnm);
 217:lvgl/src/extra/widgets/calendar/lv_calendar.c ****     if(d == LV_BTNMATRIX_BTN_NONE) {
 218:lvgl/src/extra/widgets/calendar/lv_calendar.c ****         date->year = 0;
 219:lvgl/src/extra/widgets/calendar/lv_calendar.c ****         date->month = 0;
 220:lvgl/src/extra/widgets/calendar/lv_calendar.c ****         date->day = 0;
 221:lvgl/src/extra/widgets/calendar/lv_calendar.c ****         return LV_RES_INV;
 222:lvgl/src/extra/widgets/calendar/lv_calendar.c ****     }
 223:lvgl/src/extra/widgets/calendar/lv_calendar.c **** 
 224:lvgl/src/extra/widgets/calendar/lv_calendar.c ****     const char * txt = lv_btnmatrix_get_btn_text(calendar->btnm, lv_btnmatrix_get_selected_btn(cale
 225:lvgl/src/extra/widgets/calendar/lv_calendar.c **** 
 226:lvgl/src/extra/widgets/calendar/lv_calendar.c ****     if(txt[1] == 0) date->day = txt[0] - '0';
 227:lvgl/src/extra/widgets/calendar/lv_calendar.c ****     else date->day = (txt[0] - '0') * 10 + (txt[1] - '0');
 228:lvgl/src/extra/widgets/calendar/lv_calendar.c **** 
 229:lvgl/src/extra/widgets/calendar/lv_calendar.c ****     date->year = calendar->showed_date.year;
 230:lvgl/src/extra/widgets/calendar/lv_calendar.c ****     date->month = calendar->showed_date.month;
 231:lvgl/src/extra/widgets/calendar/lv_calendar.c **** 
 232:lvgl/src/extra/widgets/calendar/lv_calendar.c ****     return LV_RES_OK;
 233:lvgl/src/extra/widgets/calendar/lv_calendar.c **** }
 234:lvgl/src/extra/widgets/calendar/lv_calendar.c **** 
 235:lvgl/src/extra/widgets/calendar/lv_calendar.c **** 
 236:lvgl/src/extra/widgets/calendar/lv_calendar.c **** /**********************
 237:lvgl/src/extra/widgets/calendar/lv_calendar.c ****  *  STATIC FUNCTIONS
 238:lvgl/src/extra/widgets/calendar/lv_calendar.c ****  **********************/
 239:lvgl/src/extra/widgets/calendar/lv_calendar.c **** 
 240:lvgl/src/extra/widgets/calendar/lv_calendar.c **** static void lv_calendar_constructor(const lv_obj_class_t * class_p, lv_obj_t * obj)
 241:lvgl/src/extra/widgets/calendar/lv_calendar.c **** {
 242:lvgl/src/extra/widgets/calendar/lv_calendar.c ****     LV_UNUSED(class_p);
 243:lvgl/src/extra/widgets/calendar/lv_calendar.c ****     lv_calendar_t * calendar = (lv_calendar_t *)obj;
 244:lvgl/src/extra/widgets/calendar/lv_calendar.c **** 
 245:lvgl/src/extra/widgets/calendar/lv_calendar.c ****     /*Initialize the allocated 'ext'*/
 246:lvgl/src/extra/widgets/calendar/lv_calendar.c ****     calendar->today.year  = 2020;
 247:lvgl/src/extra/widgets/calendar/lv_calendar.c ****     calendar->today.month = 1;
 248:lvgl/src/extra/widgets/calendar/lv_calendar.c ****     calendar->today.day   = 1;
 249:lvgl/src/extra/widgets/calendar/lv_calendar.c **** 
 250:lvgl/src/extra/widgets/calendar/lv_calendar.c ****     calendar->showed_date.year  = 2020;
 251:lvgl/src/extra/widgets/calendar/lv_calendar.c ****     calendar->showed_date.month = 1;
 252:lvgl/src/extra/widgets/calendar/lv_calendar.c ****     calendar->showed_date.day   = 1;
 253:lvgl/src/extra/widgets/calendar/lv_calendar.c **** 
 254:lvgl/src/extra/widgets/calendar/lv_calendar.c ****     calendar->highlighted_dates      = NULL;
 255:lvgl/src/extra/widgets/calendar/lv_calendar.c ****     calendar->highlighted_dates_num  = 0;
 256:lvgl/src/extra/widgets/calendar/lv_calendar.c **** 
 257:lvgl/src/extra/widgets/calendar/lv_calendar.c ****     lv_memset_00(calendar->nums, sizeof(calendar->nums));
 258:lvgl/src/extra/widgets/calendar/lv_calendar.c ****     uint8_t i;
 259:lvgl/src/extra/widgets/calendar/lv_calendar.c ****     uint8_t j = 0;
ARM GAS  C:\usertemp\cc9FftXf.s 			page 6


 260:lvgl/src/extra/widgets/calendar/lv_calendar.c ****     for(i = 0; i < 8 * 7; i++) {
 261:lvgl/src/extra/widgets/calendar/lv_calendar.c ****         /*Every 8th string is "\n"*/
 262:lvgl/src/extra/widgets/calendar/lv_calendar.c ****         if(i != 0 && (i + 1) % 8 == 0) {
 263:lvgl/src/extra/widgets/calendar/lv_calendar.c ****             calendar->map[i] = "\n";
 264:lvgl/src/extra/widgets/calendar/lv_calendar.c ****         }
 265:lvgl/src/extra/widgets/calendar/lv_calendar.c ****         else if(i < 8) {
 266:lvgl/src/extra/widgets/calendar/lv_calendar.c ****             calendar->map[i] = day_names_def[i];
 267:lvgl/src/extra/widgets/calendar/lv_calendar.c ****         }
 268:lvgl/src/extra/widgets/calendar/lv_calendar.c ****         else {
 269:lvgl/src/extra/widgets/calendar/lv_calendar.c ****             calendar->nums[j][0] = 'x';
 270:lvgl/src/extra/widgets/calendar/lv_calendar.c ****             calendar->map[i] = calendar->nums[j];
 271:lvgl/src/extra/widgets/calendar/lv_calendar.c ****             j++;
 272:lvgl/src/extra/widgets/calendar/lv_calendar.c ****         }
 273:lvgl/src/extra/widgets/calendar/lv_calendar.c ****     }
 274:lvgl/src/extra/widgets/calendar/lv_calendar.c ****     calendar->map[8 * 7 - 1] = "";
 275:lvgl/src/extra/widgets/calendar/lv_calendar.c **** 
 276:lvgl/src/extra/widgets/calendar/lv_calendar.c ****     calendar->btnm = lv_btnmatrix_create(obj);
 277:lvgl/src/extra/widgets/calendar/lv_calendar.c ****     lv_btnmatrix_set_map(calendar->btnm, calendar->map);
 278:lvgl/src/extra/widgets/calendar/lv_calendar.c ****     lv_btnmatrix_set_btn_ctrl_all(calendar->btnm, LV_BTNMATRIX_CTRL_CLICK_TRIG | LV_BTNMATRIX_CTRL_
 279:lvgl/src/extra/widgets/calendar/lv_calendar.c ****     lv_obj_add_event_cb(calendar->btnm, draw_part_begin_event_cb, LV_EVENT_DRAW_PART_BEGIN, NULL);
 280:lvgl/src/extra/widgets/calendar/lv_calendar.c ****     lv_obj_set_width(calendar->btnm, lv_pct(100));
 281:lvgl/src/extra/widgets/calendar/lv_calendar.c **** 
 282:lvgl/src/extra/widgets/calendar/lv_calendar.c ****     lv_obj_set_flex_flow(obj, LV_FLEX_FLOW_COLUMN);
 283:lvgl/src/extra/widgets/calendar/lv_calendar.c ****     lv_obj_set_flex_grow(calendar->btnm, 1);
 284:lvgl/src/extra/widgets/calendar/lv_calendar.c **** 
 285:lvgl/src/extra/widgets/calendar/lv_calendar.c ****     lv_calendar_set_showed_date(obj, calendar->showed_date.year, calendar->showed_date.month);
 286:lvgl/src/extra/widgets/calendar/lv_calendar.c ****     lv_calendar_set_today_date(obj, calendar->today.year, calendar->today.month, calendar->today.da
 287:lvgl/src/extra/widgets/calendar/lv_calendar.c **** 
 288:lvgl/src/extra/widgets/calendar/lv_calendar.c ****     lv_obj_add_flag(calendar->btnm, LV_OBJ_FLAG_EVENT_BUBBLE);
 289:lvgl/src/extra/widgets/calendar/lv_calendar.c **** }
 290:lvgl/src/extra/widgets/calendar/lv_calendar.c **** 
 291:lvgl/src/extra/widgets/calendar/lv_calendar.c **** static void draw_part_begin_event_cb(lv_event_t * e)
 292:lvgl/src/extra/widgets/calendar/lv_calendar.c **** {
 293:lvgl/src/extra/widgets/calendar/lv_calendar.c ****     lv_obj_t * obj = lv_event_get_target(e);
 294:lvgl/src/extra/widgets/calendar/lv_calendar.c ****     lv_obj_draw_part_dsc_t * dsc = lv_event_get_param(e);
 295:lvgl/src/extra/widgets/calendar/lv_calendar.c ****     if(dsc->part == LV_PART_ITEMS) {
 296:lvgl/src/extra/widgets/calendar/lv_calendar.c ****         /*Day name styles*/
 297:lvgl/src/extra/widgets/calendar/lv_calendar.c ****         if(dsc->id < 7) {
 298:lvgl/src/extra/widgets/calendar/lv_calendar.c ****             dsc->rect_dsc->bg_opa = LV_OPA_TRANSP;
 299:lvgl/src/extra/widgets/calendar/lv_calendar.c ****             dsc->rect_dsc->border_opa = LV_OPA_TRANSP;
 300:lvgl/src/extra/widgets/calendar/lv_calendar.c ****         }
 301:lvgl/src/extra/widgets/calendar/lv_calendar.c ****         else if(lv_btnmatrix_has_btn_ctrl(obj, dsc->id, LV_BTNMATRIX_CTRL_DISABLED)) {
 302:lvgl/src/extra/widgets/calendar/lv_calendar.c ****             dsc->rect_dsc->bg_opa = LV_OPA_TRANSP;
 303:lvgl/src/extra/widgets/calendar/lv_calendar.c ****             dsc->rect_dsc->border_opa = LV_OPA_TRANSP;
 304:lvgl/src/extra/widgets/calendar/lv_calendar.c ****             dsc->label_dsc->color = lv_palette_main(LV_PALETTE_GREY);
 305:lvgl/src/extra/widgets/calendar/lv_calendar.c ****         }
 306:lvgl/src/extra/widgets/calendar/lv_calendar.c **** 
 307:lvgl/src/extra/widgets/calendar/lv_calendar.c ****         if(lv_btnmatrix_has_btn_ctrl(obj, dsc->id, LV_CALENDAR_CTRL_HIGHLIGHT)) {
 308:lvgl/src/extra/widgets/calendar/lv_calendar.c ****             dsc->rect_dsc->bg_opa = LV_OPA_40;
 309:lvgl/src/extra/widgets/calendar/lv_calendar.c ****             dsc->rect_dsc->bg_color = lv_theme_get_color_primary(obj);
 310:lvgl/src/extra/widgets/calendar/lv_calendar.c ****             if(lv_btnmatrix_get_selected_btn(obj) == dsc->id) {
 311:lvgl/src/extra/widgets/calendar/lv_calendar.c ****                 dsc->rect_dsc->bg_opa = LV_OPA_70;
 312:lvgl/src/extra/widgets/calendar/lv_calendar.c ****             }
 313:lvgl/src/extra/widgets/calendar/lv_calendar.c ****         }
 314:lvgl/src/extra/widgets/calendar/lv_calendar.c **** 
 315:lvgl/src/extra/widgets/calendar/lv_calendar.c ****         if(lv_btnmatrix_has_btn_ctrl(obj, dsc->id, LV_CALENDAR_CTRL_TODAY)) {
 316:lvgl/src/extra/widgets/calendar/lv_calendar.c ****             dsc->rect_dsc->border_opa = LV_OPA_COVER;
ARM GAS  C:\usertemp\cc9FftXf.s 			page 7


 317:lvgl/src/extra/widgets/calendar/lv_calendar.c ****             dsc->rect_dsc->border_color = lv_theme_get_color_primary(obj);
 318:lvgl/src/extra/widgets/calendar/lv_calendar.c ****             dsc->rect_dsc->border_width += 1;
 319:lvgl/src/extra/widgets/calendar/lv_calendar.c ****         }
 320:lvgl/src/extra/widgets/calendar/lv_calendar.c **** 
 321:lvgl/src/extra/widgets/calendar/lv_calendar.c ****     }
 322:lvgl/src/extra/widgets/calendar/lv_calendar.c **** }
 323:lvgl/src/extra/widgets/calendar/lv_calendar.c **** 
 324:lvgl/src/extra/widgets/calendar/lv_calendar.c **** /**
 325:lvgl/src/extra/widgets/calendar/lv_calendar.c ****  * Get the number of days in a month
 326:lvgl/src/extra/widgets/calendar/lv_calendar.c ****  * @param year a year
 327:lvgl/src/extra/widgets/calendar/lv_calendar.c ****  * @param month a month. The range is basically [1..12] but [-11..0] or [13..24] is also
 328:lvgl/src/extra/widgets/calendar/lv_calendar.c ****  *              supported to handle next/prev. year
 329:lvgl/src/extra/widgets/calendar/lv_calendar.c ****  * @return [28..31]
 330:lvgl/src/extra/widgets/calendar/lv_calendar.c ****  */
 331:lvgl/src/extra/widgets/calendar/lv_calendar.c **** static uint8_t get_month_length(int32_t year, int32_t month)
 332:lvgl/src/extra/widgets/calendar/lv_calendar.c **** {
 333:lvgl/src/extra/widgets/calendar/lv_calendar.c ****     month--;
 334:lvgl/src/extra/widgets/calendar/lv_calendar.c ****     if(month < 0) {
 335:lvgl/src/extra/widgets/calendar/lv_calendar.c ****         year--;             /*Already in the previous year (won't be less then -12 to skip a whole 
 336:lvgl/src/extra/widgets/calendar/lv_calendar.c ****         month = 12 + month; /*`month` is negative, the result will be < 12*/
 337:lvgl/src/extra/widgets/calendar/lv_calendar.c ****     }
 338:lvgl/src/extra/widgets/calendar/lv_calendar.c ****     if(month >= 12) {
 339:lvgl/src/extra/widgets/calendar/lv_calendar.c ****         year++;
 340:lvgl/src/extra/widgets/calendar/lv_calendar.c ****         month -= 12;
 341:lvgl/src/extra/widgets/calendar/lv_calendar.c ****     }
 342:lvgl/src/extra/widgets/calendar/lv_calendar.c **** 
 343:lvgl/src/extra/widgets/calendar/lv_calendar.c ****     /*month == 1 is february*/
 344:lvgl/src/extra/widgets/calendar/lv_calendar.c ****     return (month == 1) ? (28 + is_leap_year(year)) : 31 - month % 7 % 2;
 345:lvgl/src/extra/widgets/calendar/lv_calendar.c **** }
 346:lvgl/src/extra/widgets/calendar/lv_calendar.c **** 
 347:lvgl/src/extra/widgets/calendar/lv_calendar.c **** /**
 348:lvgl/src/extra/widgets/calendar/lv_calendar.c ****  * Tells whether a year is leap year or not
 349:lvgl/src/extra/widgets/calendar/lv_calendar.c ****  * @param year a year
 350:lvgl/src/extra/widgets/calendar/lv_calendar.c ****  * @return 0: not leap year; 1: leap year
 351:lvgl/src/extra/widgets/calendar/lv_calendar.c ****  */
 352:lvgl/src/extra/widgets/calendar/lv_calendar.c **** static uint8_t is_leap_year(uint32_t year)
 353:lvgl/src/extra/widgets/calendar/lv_calendar.c **** {
  28              		.loc 1 353 1 view -0
  29              		.cfi_startproc
  30              		@ args = 0, pretend = 0, frame = 0
  31              		@ frame_needed = 0, uses_anonymous_args = 0
  32              		@ link register save eliminated.
 354:lvgl/src/extra/widgets/calendar/lv_calendar.c ****     return (year % 4) || ((year % 100 == 0) && (year % 400)) ? 0 : 1;
  33              		.loc 1 354 5 view .LVU1
  34              		.loc 1 354 66 is_stmt 0 view .LVU2
  35 0000 10F0030F 		tst	r0, #3
  36 0004 12D1     		bne	.L3
  37              		.loc 1 354 33 discriminator 1 view .LVU3
  38 0006 0C4B     		ldr	r3, .L6
  39 0008 A3FB0023 		umull	r2, r3, r3, r0
  40 000c 5B09     		lsrs	r3, r3, #5
  41 000e 6422     		movs	r2, #100
  42 0010 02FB1303 		mls	r3, r2, r3, r0
  43              		.loc 1 354 66 discriminator 1 view .LVU4
  44 0014 63B9     		cbnz	r3, .L4
  45              		.loc 1 354 54 discriminator 4 view .LVU5
  46 0016 084B     		ldr	r3, .L6
ARM GAS  C:\usertemp\cc9FftXf.s 			page 8


  47 0018 A3FB0023 		umull	r2, r3, r3, r0
  48 001c DB09     		lsrs	r3, r3, #7
  49 001e 4FF4C872 		mov	r2, #400
  50 0022 02FB1303 		mls	r3, r2, r3, r0
  51              		.loc 1 354 45 discriminator 4 view .LVU6
  52 0026 2BB1     		cbz	r3, .L5
  53              		.loc 1 354 66 discriminator 6 view .LVU7
  54 0028 0020     		movs	r0, #0
  55              	.LVL1:
  56              		.loc 1 354 66 discriminator 6 view .LVU8
  57 002a 7047     		bx	lr
  58              	.LVL2:
  59              	.L3:
  60              		.loc 1 354 66 discriminator 6 view .LVU9
  61 002c 0020     		movs	r0, #0
  62              	.LVL3:
  63              		.loc 1 354 66 discriminator 6 view .LVU10
  64 002e 7047     		bx	lr
  65              	.LVL4:
  66              	.L4:
  67              		.loc 1 354 66 discriminator 5 view .LVU11
  68 0030 0120     		movs	r0, #1
  69              	.LVL5:
  70              		.loc 1 354 66 discriminator 5 view .LVU12
  71 0032 7047     		bx	lr
  72              	.LVL6:
  73              	.L5:
  74              		.loc 1 354 66 discriminator 5 view .LVU13
  75 0034 0120     		movs	r0, #1
  76              	.LVL7:
 355:lvgl/src/extra/widgets/calendar/lv_calendar.c **** }
  77              		.loc 1 355 1 view .LVU14
  78 0036 7047     		bx	lr
  79              	.L7:
  80              		.align	2
  81              	.L6:
  82 0038 1F85EB51 		.word	1374389535
  83              		.cfi_endproc
  84              	.LFE210:
  86              		.section	.text.get_month_length,"ax",%progbits
  87              		.align	1
  88              		.syntax unified
  89              		.thumb
  90              		.thumb_func
  92              	get_month_length:
  93              	.LVL8:
  94              	.LFB209:
 332:lvgl/src/extra/widgets/calendar/lv_calendar.c ****     month--;
  95              		.loc 1 332 1 is_stmt 1 view -0
  96              		.cfi_startproc
  97              		@ args = 0, pretend = 0, frame = 0
  98              		@ frame_needed = 0, uses_anonymous_args = 0
 332:lvgl/src/extra/widgets/calendar/lv_calendar.c ****     month--;
  99              		.loc 1 332 1 is_stmt 0 view .LVU16
 100 0000 08B5     		push	{r3, lr}
 101              	.LCFI0:
 102              		.cfi_def_cfa_offset 8
ARM GAS  C:\usertemp\cc9FftXf.s 			page 9


 103              		.cfi_offset 3, -8
 104              		.cfi_offset 14, -4
 333:lvgl/src/extra/widgets/calendar/lv_calendar.c ****     if(month < 0) {
 105              		.loc 1 333 5 is_stmt 1 view .LVU17
 106              	.LVL9:
 334:lvgl/src/extra/widgets/calendar/lv_calendar.c ****         year--;             /*Already in the previous year (won't be less then -12 to skip a whole 
 107              		.loc 1 334 5 view .LVU18
 334:lvgl/src/extra/widgets/calendar/lv_calendar.c ****         year--;             /*Already in the previous year (won't be less then -12 to skip a whole 
 108              		.loc 1 334 7 is_stmt 0 view .LVU19
 109 0002 4A1E     		subs	r2, r1, #1
 110              	.LVL10:
 334:lvgl/src/extra/widgets/calendar/lv_calendar.c ****         year--;             /*Already in the previous year (won't be less then -12 to skip a whole 
 111              		.loc 1 334 7 view .LVU20
 112 0004 18D4     		bmi	.L14
 113              	.L9:
 338:lvgl/src/extra/widgets/calendar/lv_calendar.c ****         year++;
 114              		.loc 1 338 5 is_stmt 1 view .LVU21
 338:lvgl/src/extra/widgets/calendar/lv_calendar.c ****         year++;
 115              		.loc 1 338 7 is_stmt 0 view .LVU22
 116 0006 0B2A     		cmp	r2, #11
 117 0008 01DD     		ble	.L10
 339:lvgl/src/extra/widgets/calendar/lv_calendar.c ****         month -= 12;
 118              		.loc 1 339 9 is_stmt 1 view .LVU23
 339:lvgl/src/extra/widgets/calendar/lv_calendar.c ****         month -= 12;
 119              		.loc 1 339 13 is_stmt 0 view .LVU24
 120 000a 0130     		adds	r0, r0, #1
 121              	.LVL11:
 340:lvgl/src/extra/widgets/calendar/lv_calendar.c ****     }
 122              		.loc 1 340 9 is_stmt 1 view .LVU25
 340:lvgl/src/extra/widgets/calendar/lv_calendar.c ****     }
 123              		.loc 1 340 15 is_stmt 0 view .LVU26
 124 000c 0C3A     		subs	r2, r2, #12
 125              	.LVL12:
 126              	.L10:
 344:lvgl/src/extra/widgets/calendar/lv_calendar.c **** }
 127              		.loc 1 344 5 is_stmt 1 view .LVU27
 344:lvgl/src/extra/widgets/calendar/lv_calendar.c **** }
 128              		.loc 1 344 53 is_stmt 0 view .LVU28
 129 000e 012A     		cmp	r2, #1
 130 0010 16D0     		beq	.L15
 344:lvgl/src/extra/widgets/calendar/lv_calendar.c **** }
 131              		.loc 1 344 66 discriminator 2 view .LVU29
 132 0012 0E49     		ldr	r1, .L16
 133 0014 81FB0231 		smull	r3, r1, r1, r2
 134 0018 1144     		add	r1, r1, r2
 135 001a D317     		asrs	r3, r2, #31
 136 001c C3EBA103 		rsb	r3, r3, r1, asr #2
 137 0020 C3EBC303 		rsb	r3, r3, r3, lsl #3
 344:lvgl/src/extra/widgets/calendar/lv_calendar.c **** }
 138              		.loc 1 344 70 discriminator 2 view .LVU30
 139 0024 D31A     		subs	r3, r2, r3
 140 0026 03F00103 		and	r3, r3, #1
 141 002a 48BF     		it	mi
 142 002c 5B42     		rsbmi	r3, r3, #0
 344:lvgl/src/extra/widgets/calendar/lv_calendar.c **** }
 143              		.loc 1 344 58 discriminator 2 view .LVU31
 144 002e D8B2     		uxtb	r0, r3
ARM GAS  C:\usertemp\cc9FftXf.s 			page 10


 145              	.LVL13:
 344:lvgl/src/extra/widgets/calendar/lv_calendar.c **** }
 146              		.loc 1 344 53 discriminator 2 view .LVU32
 147 0030 C0F11F00 		rsb	r0, r0, #31
 148 0034 C0B2     		uxtb	r0, r0
 149              	.LVL14:
 150              	.L12:
 345:lvgl/src/extra/widgets/calendar/lv_calendar.c **** 
 151              		.loc 1 345 1 view .LVU33
 152 0036 08BD     		pop	{r3, pc}
 153              	.LVL15:
 154              	.L14:
 335:lvgl/src/extra/widgets/calendar/lv_calendar.c ****         month = 12 + month; /*`month` is negative, the result will be < 12*/
 155              		.loc 1 335 9 is_stmt 1 view .LVU34
 335:lvgl/src/extra/widgets/calendar/lv_calendar.c ****         month = 12 + month; /*`month` is negative, the result will be < 12*/
 156              		.loc 1 335 13 is_stmt 0 view .LVU35
 157 0038 0138     		subs	r0, r0, #1
 158              	.LVL16:
 336:lvgl/src/extra/widgets/calendar/lv_calendar.c ****     }
 159              		.loc 1 336 9 is_stmt 1 view .LVU36
 336:lvgl/src/extra/widgets/calendar/lv_calendar.c ****     }
 160              		.loc 1 336 15 is_stmt 0 view .LVU37
 161 003a 01F10B02 		add	r2, r1, #11
 162              	.LVL17:
 336:lvgl/src/extra/widgets/calendar/lv_calendar.c ****     }
 163              		.loc 1 336 15 view .LVU38
 164 003e E2E7     		b	.L9
 165              	.L15:
 344:lvgl/src/extra/widgets/calendar/lv_calendar.c **** }
 166              		.loc 1 344 33 discriminator 1 view .LVU39
 167 0040 FFF7FEFF 		bl	is_leap_year
 168              	.LVL18:
 344:lvgl/src/extra/widgets/calendar/lv_calendar.c **** }
 169              		.loc 1 344 53 discriminator 1 view .LVU40
 170 0044 1C30     		adds	r0, r0, #28
 171 0046 C0B2     		uxtb	r0, r0
 172 0048 F5E7     		b	.L12
 173              	.L17:
 174 004a 00BF     		.align	2
 175              	.L16:
 176 004c 93244992 		.word	-1840700269
 177              		.cfi_endproc
 178              	.LFE209:
 180              		.section	.text.get_day_of_week,"ax",%progbits
 181              		.align	1
 182              		.syntax unified
 183              		.thumb
 184              		.thumb_func
 186              	get_day_of_week:
 187              	.LVL19:
 188              	.LFB211:
 356:lvgl/src/extra/widgets/calendar/lv_calendar.c **** 
 357:lvgl/src/extra/widgets/calendar/lv_calendar.c **** /**
 358:lvgl/src/extra/widgets/calendar/lv_calendar.c ****  * Get the day of the week
 359:lvgl/src/extra/widgets/calendar/lv_calendar.c ****  * @param year a year
 360:lvgl/src/extra/widgets/calendar/lv_calendar.c ****  * @param month a  month [1..12]
 361:lvgl/src/extra/widgets/calendar/lv_calendar.c ****  * @param day a day [1..32]
ARM GAS  C:\usertemp\cc9FftXf.s 			page 11


 362:lvgl/src/extra/widgets/calendar/lv_calendar.c ****  * @return [0..6] which means [Sun..Sat] or [Mon..Sun] depending on LV_CALENDAR_WEEK_STARTS_MONDAY
 363:lvgl/src/extra/widgets/calendar/lv_calendar.c ****  */
 364:lvgl/src/extra/widgets/calendar/lv_calendar.c **** static uint8_t get_day_of_week(uint32_t year, uint32_t month, uint32_t day)
 365:lvgl/src/extra/widgets/calendar/lv_calendar.c **** {
 189              		.loc 1 365 1 is_stmt 1 view -0
 190              		.cfi_startproc
 191              		@ args = 0, pretend = 0, frame = 0
 192              		@ frame_needed = 0, uses_anonymous_args = 0
 193              		@ link register save eliminated.
 366:lvgl/src/extra/widgets/calendar/lv_calendar.c ****     uint32_t a = month < 3 ? 1 : 0;
 194              		.loc 1 366 5 view .LVU42
 195              		.loc 1 366 32 is_stmt 0 view .LVU43
 196 0000 0229     		cmp	r1, #2
 197 0002 8CBF     		ite	hi
 198 0004 0023     		movhi	r3, #0
 199 0006 0123     		movls	r3, #1
 200              	.LVL20:
 367:lvgl/src/extra/widgets/calendar/lv_calendar.c ****     uint32_t b = year - a;
 201              		.loc 1 367 5 is_stmt 1 view .LVU44
 202              		.loc 1 367 14 is_stmt 0 view .LVU45
 203 0008 C01A     		subs	r0, r0, r3
 204              	.LVL21:
 368:lvgl/src/extra/widgets/calendar/lv_calendar.c **** 
 369:lvgl/src/extra/widgets/calendar/lv_calendar.c **** #if LV_CALENDAR_WEEK_STARTS_MONDAY
 370:lvgl/src/extra/widgets/calendar/lv_calendar.c ****     uint32_t day_of_week = (day + (31 * (month - 2 + 12 * a) / 12) + b + (b / 4) - (b / 100) + (b /
 371:lvgl/src/extra/widgets/calendar/lv_calendar.c **** #else
 372:lvgl/src/extra/widgets/calendar/lv_calendar.c ****     uint32_t day_of_week = (day + (31 * (month - 2 + 12 * a) / 12) + b + (b / 4) - (b / 100) + (b /
 205              		.loc 1 372 5 is_stmt 1 view .LVU46
 206              		.loc 1 372 57 is_stmt 0 view .LVU47
 207 000a 03EB4303 		add	r3, r3, r3, lsl #1
 208              	.LVL22:
 209              		.loc 1 372 52 view .LVU48
 210 000e 01EB8301 		add	r1, r1, r3, lsl #2
 211              	.LVL23:
 212              		.loc 1 372 39 view .LVU49
 213 0012 C1EB4111 		rsb	r1, r1, r1, lsl #5
 214 0016 3E39     		subs	r1, r1, #62
 215              		.loc 1 372 62 view .LVU50
 216 0018 0D4B     		ldr	r3, .L19
 217 001a A3FB0131 		umull	r3, r1, r3, r1
 218              		.loc 1 372 33 view .LVU51
 219 001e 02EBD103 		add	r3, r2, r1, lsr #3
 220              		.loc 1 372 68 view .LVU52
 221 0022 0344     		add	r3, r3, r0
 222              		.loc 1 372 72 view .LVU53
 223 0024 03EB9003 		add	r3, r3, r0, lsr #2
 224              		.loc 1 372 87 view .LVU54
 225 0028 0A4A     		ldr	r2, .L19+4
 226              	.LVL24:
 227              		.loc 1 372 87 view .LVU55
 228 002a A2FB0020 		umull	r2, r0, r2, r0
 229              	.LVL25:
 230              		.loc 1 372 82 view .LVU56
 231 002e A3EB5013 		sub	r3, r3, r0, lsr #5
 232              		.loc 1 372 94 view .LVU57
 233 0032 03EBD013 		add	r3, r3, r0, lsr #7
 234              		.loc 1 372 14 view .LVU58
ARM GAS  C:\usertemp\cc9FftXf.s 			page 12


 235 0036 0848     		ldr	r0, .L19+8
 236 0038 A0FB0320 		umull	r2, r0, r0, r3
 237 003c 1A1A     		subs	r2, r3, r0
 238 003e 00EB5200 		add	r0, r0, r2, lsr #1
 239 0042 8008     		lsrs	r0, r0, #2
 240 0044 C0EBC000 		rsb	r0, r0, r0, lsl #3
 241 0048 181A     		subs	r0, r3, r0
 242              	.LVL26:
 373:lvgl/src/extra/widgets/calendar/lv_calendar.c **** #endif
 374:lvgl/src/extra/widgets/calendar/lv_calendar.c **** 
 375:lvgl/src/extra/widgets/calendar/lv_calendar.c ****     return day_of_week  ;
 243              		.loc 1 375 5 is_stmt 1 view .LVU59
 376:lvgl/src/extra/widgets/calendar/lv_calendar.c **** }
 244              		.loc 1 376 1 is_stmt 0 view .LVU60
 245 004a C0B2     		uxtb	r0, r0
 246              	.LVL27:
 247              		.loc 1 376 1 view .LVU61
 248 004c 7047     		bx	lr
 249              	.L20:
 250 004e 00BF     		.align	2
 251              	.L19:
 252 0050 ABAAAAAA 		.word	-1431655765
 253 0054 1F85EB51 		.word	1374389535
 254 0058 25499224 		.word	613566757
 255              		.cfi_endproc
 256              	.LFE211:
 258              		.section	.text.draw_part_begin_event_cb,"ax",%progbits
 259              		.align	1
 260              		.syntax unified
 261              		.thumb
 262              		.thumb_func
 264              	draw_part_begin_event_cb:
 265              	.LVL28:
 266              	.LFB208:
 292:lvgl/src/extra/widgets/calendar/lv_calendar.c ****     lv_obj_t * obj = lv_event_get_target(e);
 267              		.loc 1 292 1 is_stmt 1 view -0
 268              		.cfi_startproc
 269              		@ args = 0, pretend = 0, frame = 0
 270              		@ frame_needed = 0, uses_anonymous_args = 0
 292:lvgl/src/extra/widgets/calendar/lv_calendar.c ****     lv_obj_t * obj = lv_event_get_target(e);
 271              		.loc 1 292 1 is_stmt 0 view .LVU63
 272 0000 70B5     		push	{r4, r5, r6, lr}
 273              	.LCFI1:
 274              		.cfi_def_cfa_offset 16
 275              		.cfi_offset 4, -16
 276              		.cfi_offset 5, -12
 277              		.cfi_offset 6, -8
 278              		.cfi_offset 14, -4
 279 0002 0446     		mov	r4, r0
 293:lvgl/src/extra/widgets/calendar/lv_calendar.c ****     lv_obj_draw_part_dsc_t * dsc = lv_event_get_param(e);
 280              		.loc 1 293 5 is_stmt 1 view .LVU64
 293:lvgl/src/extra/widgets/calendar/lv_calendar.c ****     lv_obj_draw_part_dsc_t * dsc = lv_event_get_param(e);
 281              		.loc 1 293 22 is_stmt 0 view .LVU65
 282 0004 FFF7FEFF 		bl	lv_event_get_target
 283              	.LVL29:
 293:lvgl/src/extra/widgets/calendar/lv_calendar.c ****     lv_obj_draw_part_dsc_t * dsc = lv_event_get_param(e);
 284              		.loc 1 293 22 view .LVU66
ARM GAS  C:\usertemp\cc9FftXf.s 			page 13


 285 0008 0546     		mov	r5, r0
 286              	.LVL30:
 294:lvgl/src/extra/widgets/calendar/lv_calendar.c ****     if(dsc->part == LV_PART_ITEMS) {
 287              		.loc 1 294 5 is_stmt 1 view .LVU67
 294:lvgl/src/extra/widgets/calendar/lv_calendar.c ****     if(dsc->part == LV_PART_ITEMS) {
 288              		.loc 1 294 36 is_stmt 0 view .LVU68
 289 000a 2046     		mov	r0, r4
 290              	.LVL31:
 294:lvgl/src/extra/widgets/calendar/lv_calendar.c ****     if(dsc->part == LV_PART_ITEMS) {
 291              		.loc 1 294 36 view .LVU69
 292 000c FFF7FEFF 		bl	lv_event_get_param
 293              	.LVL32:
 295:lvgl/src/extra/widgets/calendar/lv_calendar.c ****         /*Day name styles*/
 294              		.loc 1 295 5 is_stmt 1 view .LVU70
 295:lvgl/src/extra/widgets/calendar/lv_calendar.c ****         /*Day name styles*/
 295              		.loc 1 295 11 is_stmt 0 view .LVU71
 296 0010 436B     		ldr	r3, [r0, #52]
 295:lvgl/src/extra/widgets/calendar/lv_calendar.c ****         /*Day name styles*/
 297              		.loc 1 295 7 view .LVU72
 298 0012 B3F5A02F 		cmp	r3, #327680
 299 0016 00D0     		beq	.L27
 300              	.LVL33:
 301              	.L21:
 322:lvgl/src/extra/widgets/calendar/lv_calendar.c **** 
 302              		.loc 1 322 1 view .LVU73
 303 0018 70BD     		pop	{r4, r5, r6, pc}
 304              	.LVL34:
 305              	.L27:
 322:lvgl/src/extra/widgets/calendar/lv_calendar.c **** 
 306              		.loc 1 322 1 view .LVU74
 307 001a 0446     		mov	r4, r0
 308              	.LVL35:
 297:lvgl/src/extra/widgets/calendar/lv_calendar.c ****             dsc->rect_dsc->bg_opa = LV_OPA_TRANSP;
 309              		.loc 1 297 9 is_stmt 1 view .LVU75
 297:lvgl/src/extra/widgets/calendar/lv_calendar.c ****             dsc->rect_dsc->bg_opa = LV_OPA_TRANSP;
 310              		.loc 1 297 15 is_stmt 0 view .LVU76
 311 001c 816B     		ldr	r1, [r0, #56]
 297:lvgl/src/extra/widgets/calendar/lv_calendar.c ****             dsc->rect_dsc->bg_opa = LV_OPA_TRANSP;
 312              		.loc 1 297 11 view .LVU77
 313 001e 0629     		cmp	r1, #6
 314 0020 22D8     		bhi	.L23
 298:lvgl/src/extra/widgets/calendar/lv_calendar.c ****             dsc->rect_dsc->border_opa = LV_OPA_TRANSP;
 315              		.loc 1 298 13 is_stmt 1 view .LVU78
 298:lvgl/src/extra/widgets/calendar/lv_calendar.c ****             dsc->rect_dsc->border_opa = LV_OPA_TRANSP;
 316              		.loc 1 298 16 is_stmt 0 view .LVU79
 317 0022 0269     		ldr	r2, [r0, #16]
 298:lvgl/src/extra/widgets/calendar/lv_calendar.c ****             dsc->rect_dsc->border_opa = LV_OPA_TRANSP;
 318              		.loc 1 298 35 view .LVU80
 319 0024 0023     		movs	r3, #0
 320 0026 D370     		strb	r3, [r2, #3]
 299:lvgl/src/extra/widgets/calendar/lv_calendar.c ****         }
 321              		.loc 1 299 13 is_stmt 1 view .LVU81
 299:lvgl/src/extra/widgets/calendar/lv_calendar.c ****         }
 322              		.loc 1 299 16 is_stmt 0 view .LVU82
 323 0028 0269     		ldr	r2, [r0, #16]
 299:lvgl/src/extra/widgets/calendar/lv_calendar.c ****         }
 324              		.loc 1 299 39 view .LVU83
ARM GAS  C:\usertemp\cc9FftXf.s 			page 14


 325 002a 82F82230 		strb	r3, [r2, #34]
 326              	.LVL36:
 327              	.L24:
 307:lvgl/src/extra/widgets/calendar/lv_calendar.c ****             dsc->rect_dsc->bg_opa = LV_OPA_40;
 328              		.loc 1 307 9 is_stmt 1 view .LVU84
 307:lvgl/src/extra/widgets/calendar/lv_calendar.c ****             dsc->rect_dsc->bg_opa = LV_OPA_40;
 329              		.loc 1 307 12 is_stmt 0 view .LVU85
 330 002e 4FF40042 		mov	r2, #32768
 331 0032 218F     		ldrh	r1, [r4, #56]
 332 0034 2846     		mov	r0, r5
 333 0036 FFF7FEFF 		bl	lv_btnmatrix_has_btn_ctrl
 334              	.LVL37:
 307:lvgl/src/extra/widgets/calendar/lv_calendar.c ****             dsc->rect_dsc->bg_opa = LV_OPA_40;
 335              		.loc 1 307 11 discriminator 1 view .LVU86
 336 003a 40BB     		cbnz	r0, .L28
 337              	.L25:
 315:lvgl/src/extra/widgets/calendar/lv_calendar.c ****             dsc->rect_dsc->border_opa = LV_OPA_COVER;
 338              		.loc 1 315 9 is_stmt 1 view .LVU87
 315:lvgl/src/extra/widgets/calendar/lv_calendar.c ****             dsc->rect_dsc->border_opa = LV_OPA_COVER;
 339              		.loc 1 315 12 is_stmt 0 view .LVU88
 340 003c 4FF48042 		mov	r2, #16384
 341 0040 218F     		ldrh	r1, [r4, #56]
 342 0042 2846     		mov	r0, r5
 343 0044 FFF7FEFF 		bl	lv_btnmatrix_has_btn_ctrl
 344              	.LVL38:
 315:lvgl/src/extra/widgets/calendar/lv_calendar.c ****             dsc->rect_dsc->border_opa = LV_OPA_COVER;
 345              		.loc 1 315 11 discriminator 1 view .LVU89
 346 0048 0028     		cmp	r0, #0
 347 004a E5D0     		beq	.L21
 316:lvgl/src/extra/widgets/calendar/lv_calendar.c ****             dsc->rect_dsc->border_color = lv_theme_get_color_primary(obj);
 348              		.loc 1 316 13 is_stmt 1 view .LVU90
 316:lvgl/src/extra/widgets/calendar/lv_calendar.c ****             dsc->rect_dsc->border_color = lv_theme_get_color_primary(obj);
 349              		.loc 1 316 16 is_stmt 0 view .LVU91
 350 004c 2369     		ldr	r3, [r4, #16]
 316:lvgl/src/extra/widgets/calendar/lv_calendar.c ****             dsc->rect_dsc->border_color = lv_theme_get_color_primary(obj);
 351              		.loc 1 316 39 view .LVU92
 352 004e FF22     		movs	r2, #255
 353 0050 83F82220 		strb	r2, [r3, #34]
 317:lvgl/src/extra/widgets/calendar/lv_calendar.c ****             dsc->rect_dsc->border_width += 1;
 354              		.loc 1 317 13 is_stmt 1 view .LVU93
 317:lvgl/src/extra/widgets/calendar/lv_calendar.c ****             dsc->rect_dsc->border_width += 1;
 355              		.loc 1 317 16 is_stmt 0 view .LVU94
 356 0054 2669     		ldr	r6, [r4, #16]
 317:lvgl/src/extra/widgets/calendar/lv_calendar.c ****             dsc->rect_dsc->border_width += 1;
 357              		.loc 1 317 43 view .LVU95
 358 0056 2846     		mov	r0, r5
 359 0058 FFF7FEFF 		bl	lv_theme_get_color_primary
 360              	.LVL39:
 361 005c F083     		strh	r0, [r6, #30]	@ movhi
 318:lvgl/src/extra/widgets/calendar/lv_calendar.c ****         }
 362              		.loc 1 318 13 is_stmt 1 view .LVU96
 318:lvgl/src/extra/widgets/calendar/lv_calendar.c ****         }
 363              		.loc 1 318 16 is_stmt 0 view .LVU97
 364 005e 2269     		ldr	r2, [r4, #16]
 318:lvgl/src/extra/widgets/calendar/lv_calendar.c ****         }
 365              		.loc 1 318 26 view .LVU98
 366 0060 138C     		ldrh	r3, [r2, #32]
ARM GAS  C:\usertemp\cc9FftXf.s 			page 15


 318:lvgl/src/extra/widgets/calendar/lv_calendar.c ****         }
 367              		.loc 1 318 41 view .LVU99
 368 0062 0133     		adds	r3, r3, #1
 369 0064 1384     		strh	r3, [r2, #32]	@ movhi
 322:lvgl/src/extra/widgets/calendar/lv_calendar.c **** 
 370              		.loc 1 322 1 view .LVU100
 371 0066 D7E7     		b	.L21
 372              	.LVL40:
 373              	.L23:
 301:lvgl/src/extra/widgets/calendar/lv_calendar.c ****             dsc->rect_dsc->bg_opa = LV_OPA_TRANSP;
 374              		.loc 1 301 14 is_stmt 1 view .LVU101
 301:lvgl/src/extra/widgets/calendar/lv_calendar.c ****             dsc->rect_dsc->bg_opa = LV_OPA_TRANSP;
 375              		.loc 1 301 17 is_stmt 0 view .LVU102
 376 0068 2022     		movs	r2, #32
 377 006a 89B2     		uxth	r1, r1
 378 006c 2846     		mov	r0, r5
 379              	.LVL41:
 301:lvgl/src/extra/widgets/calendar/lv_calendar.c ****             dsc->rect_dsc->bg_opa = LV_OPA_TRANSP;
 380              		.loc 1 301 17 view .LVU103
 381 006e FFF7FEFF 		bl	lv_btnmatrix_has_btn_ctrl
 382              	.LVL42:
 301:lvgl/src/extra/widgets/calendar/lv_calendar.c ****             dsc->rect_dsc->bg_opa = LV_OPA_TRANSP;
 383              		.loc 1 301 16 discriminator 1 view .LVU104
 384 0072 0028     		cmp	r0, #0
 385 0074 DBD0     		beq	.L24
 302:lvgl/src/extra/widgets/calendar/lv_calendar.c ****             dsc->rect_dsc->border_opa = LV_OPA_TRANSP;
 386              		.loc 1 302 13 is_stmt 1 view .LVU105
 302:lvgl/src/extra/widgets/calendar/lv_calendar.c ****             dsc->rect_dsc->border_opa = LV_OPA_TRANSP;
 387              		.loc 1 302 16 is_stmt 0 view .LVU106
 388 0076 2269     		ldr	r2, [r4, #16]
 302:lvgl/src/extra/widgets/calendar/lv_calendar.c ****             dsc->rect_dsc->border_opa = LV_OPA_TRANSP;
 389              		.loc 1 302 35 view .LVU107
 390 0078 0023     		movs	r3, #0
 391 007a D370     		strb	r3, [r2, #3]
 303:lvgl/src/extra/widgets/calendar/lv_calendar.c ****             dsc->label_dsc->color = lv_palette_main(LV_PALETTE_GREY);
 392              		.loc 1 303 13 is_stmt 1 view .LVU108
 303:lvgl/src/extra/widgets/calendar/lv_calendar.c ****             dsc->label_dsc->color = lv_palette_main(LV_PALETTE_GREY);
 393              		.loc 1 303 16 is_stmt 0 view .LVU109
 394 007c 2269     		ldr	r2, [r4, #16]
 303:lvgl/src/extra/widgets/calendar/lv_calendar.c ****             dsc->label_dsc->color = lv_palette_main(LV_PALETTE_GREY);
 395              		.loc 1 303 39 view .LVU110
 396 007e 82F82230 		strb	r3, [r2, #34]
 304:lvgl/src/extra/widgets/calendar/lv_calendar.c ****         }
 397              		.loc 1 304 13 is_stmt 1 view .LVU111
 304:lvgl/src/extra/widgets/calendar/lv_calendar.c ****         }
 398              		.loc 1 304 16 is_stmt 0 view .LVU112
 399 0082 6669     		ldr	r6, [r4, #20]
 304:lvgl/src/extra/widgets/calendar/lv_calendar.c ****         }
 400              		.loc 1 304 37 view .LVU113
 401 0084 1220     		movs	r0, #18
 402 0086 FFF7FEFF 		bl	lv_palette_main
 403              	.LVL43:
 404 008a B081     		strh	r0, [r6, #12]	@ movhi
 405 008c CFE7     		b	.L24
 406              	.L28:
 308:lvgl/src/extra/widgets/calendar/lv_calendar.c ****             dsc->rect_dsc->bg_color = lv_theme_get_color_primary(obj);
 407              		.loc 1 308 13 is_stmt 1 view .LVU114
ARM GAS  C:\usertemp\cc9FftXf.s 			page 16


 308:lvgl/src/extra/widgets/calendar/lv_calendar.c ****             dsc->rect_dsc->bg_color = lv_theme_get_color_primary(obj);
 408              		.loc 1 308 16 is_stmt 0 view .LVU115
 409 008e 2369     		ldr	r3, [r4, #16]
 308:lvgl/src/extra/widgets/calendar/lv_calendar.c ****             dsc->rect_dsc->bg_color = lv_theme_get_color_primary(obj);
 410              		.loc 1 308 35 view .LVU116
 411 0090 6622     		movs	r2, #102
 412 0092 DA70     		strb	r2, [r3, #3]
 309:lvgl/src/extra/widgets/calendar/lv_calendar.c ****             if(lv_btnmatrix_get_selected_btn(obj) == dsc->id) {
 413              		.loc 1 309 13 is_stmt 1 view .LVU117
 309:lvgl/src/extra/widgets/calendar/lv_calendar.c ****             if(lv_btnmatrix_get_selected_btn(obj) == dsc->id) {
 414              		.loc 1 309 16 is_stmt 0 view .LVU118
 415 0094 2669     		ldr	r6, [r4, #16]
 309:lvgl/src/extra/widgets/calendar/lv_calendar.c ****             if(lv_btnmatrix_get_selected_btn(obj) == dsc->id) {
 416              		.loc 1 309 39 view .LVU119
 417 0096 2846     		mov	r0, r5
 418 0098 FFF7FEFF 		bl	lv_theme_get_color_primary
 419              	.LVL44:
 420 009c B080     		strh	r0, [r6, #4]	@ movhi
 310:lvgl/src/extra/widgets/calendar/lv_calendar.c ****                 dsc->rect_dsc->bg_opa = LV_OPA_70;
 421              		.loc 1 310 13 is_stmt 1 view .LVU120
 310:lvgl/src/extra/widgets/calendar/lv_calendar.c ****                 dsc->rect_dsc->bg_opa = LV_OPA_70;
 422              		.loc 1 310 16 is_stmt 0 view .LVU121
 423 009e 2846     		mov	r0, r5
 424 00a0 FFF7FEFF 		bl	lv_btnmatrix_get_selected_btn
 425              	.LVL45:
 310:lvgl/src/extra/widgets/calendar/lv_calendar.c ****                 dsc->rect_dsc->bg_opa = LV_OPA_70;
 426              		.loc 1 310 57 discriminator 1 view .LVU122
 427 00a4 A36B     		ldr	r3, [r4, #56]
 310:lvgl/src/extra/widgets/calendar/lv_calendar.c ****                 dsc->rect_dsc->bg_opa = LV_OPA_70;
 428              		.loc 1 310 15 discriminator 1 view .LVU123
 429 00a6 9842     		cmp	r0, r3
 430 00a8 C8D1     		bne	.L25
 311:lvgl/src/extra/widgets/calendar/lv_calendar.c ****             }
 431              		.loc 1 311 17 is_stmt 1 view .LVU124
 311:lvgl/src/extra/widgets/calendar/lv_calendar.c ****             }
 432              		.loc 1 311 20 is_stmt 0 view .LVU125
 433 00aa 2369     		ldr	r3, [r4, #16]
 311:lvgl/src/extra/widgets/calendar/lv_calendar.c ****             }
 434              		.loc 1 311 39 view .LVU126
 435 00ac B222     		movs	r2, #178
 436 00ae DA70     		strb	r2, [r3, #3]
 437 00b0 C4E7     		b	.L25
 438              		.cfi_endproc
 439              	.LFE208:
 441              		.section	.text.highlight_update,"ax",%progbits
 442              		.align	1
 443              		.syntax unified
 444              		.thumb
 445              		.thumb_func
 447              	highlight_update:
 448              	.LVL46:
 449              	.LFB212:
 377:lvgl/src/extra/widgets/calendar/lv_calendar.c **** 
 378:lvgl/src/extra/widgets/calendar/lv_calendar.c **** static void highlight_update(lv_obj_t * obj)
 379:lvgl/src/extra/widgets/calendar/lv_calendar.c **** {
 450              		.loc 1 379 1 is_stmt 1 view -0
 451              		.cfi_startproc
ARM GAS  C:\usertemp\cc9FftXf.s 			page 17


 452              		@ args = 0, pretend = 0, frame = 0
 453              		@ frame_needed = 0, uses_anonymous_args = 0
 454              		.loc 1 379 1 is_stmt 0 view .LVU128
 455 0000 70B5     		push	{r4, r5, r6, lr}
 456              	.LCFI2:
 457              		.cfi_def_cfa_offset 16
 458              		.cfi_offset 4, -16
 459              		.cfi_offset 5, -12
 460              		.cfi_offset 6, -8
 461              		.cfi_offset 14, -4
 462 0002 0546     		mov	r5, r0
 380:lvgl/src/extra/widgets/calendar/lv_calendar.c ****     lv_calendar_t * calendar = (lv_calendar_t *)obj;
 463              		.loc 1 380 5 is_stmt 1 view .LVU129
 464              	.LVL47:
 381:lvgl/src/extra/widgets/calendar/lv_calendar.c ****     uint16_t i;
 465              		.loc 1 381 5 view .LVU130
 382:lvgl/src/extra/widgets/calendar/lv_calendar.c **** 
 383:lvgl/src/extra/widgets/calendar/lv_calendar.c ****     /*Clear all kind of selection*/
 384:lvgl/src/extra/widgets/calendar/lv_calendar.c ****     lv_btnmatrix_clear_btn_ctrl_all(calendar->btnm, LV_CALENDAR_CTRL_TODAY | LV_CALENDAR_CTRL_HIGHL
 466              		.loc 1 384 5 view .LVU131
 467 0004 4FF44041 		mov	r1, #49152
 468 0008 406A     		ldr	r0, [r0, #36]
 469              	.LVL48:
 470              		.loc 1 384 5 is_stmt 0 view .LVU132
 471 000a FFF7FEFF 		bl	lv_btnmatrix_clear_btn_ctrl_all
 472              	.LVL49:
 385:lvgl/src/extra/widgets/calendar/lv_calendar.c **** 
 386:lvgl/src/extra/widgets/calendar/lv_calendar.c ****     uint8_t day_first = get_day_of_week(calendar->showed_date.year, calendar->showed_date.month, 1)
 473              		.loc 1 386 5 is_stmt 1 view .LVU133
 474              		.loc 1 386 25 is_stmt 0 view .LVU134
 475 000e 0122     		movs	r2, #1
 476 0010 95F92E10 		ldrsb	r1, [r5, #46]
 477 0014 A88D     		ldrh	r0, [r5, #44]
 478 0016 FFF7FEFF 		bl	get_day_of_week
 479              	.LVL50:
 480 001a 0646     		mov	r6, r0
 481              	.LVL51:
 387:lvgl/src/extra/widgets/calendar/lv_calendar.c ****     if(calendar->highlighted_dates) {
 482              		.loc 1 387 5 is_stmt 1 view .LVU135
 483              		.loc 1 387 16 is_stmt 0 view .LVU136
 484 001c 2B6B     		ldr	r3, [r5, #48]
 485              		.loc 1 387 7 view .LVU137
 486 001e 0BB3     		cbz	r3, .L31
 388:lvgl/src/extra/widgets/calendar/lv_calendar.c ****         for(i = 0; i < calendar->highlighted_dates_num; i++) {
 487              		.loc 1 388 15 view .LVU138
 488 0020 0024     		movs	r4, #0
 489 0022 01E0     		b	.L30
 490              	.LVL52:
 491              	.L32:
 492              		.loc 1 388 58 is_stmt 1 discriminator 2 view .LVU139
 493 0024 0134     		adds	r4, r4, #1
 494              	.LVL53:
 495              		.loc 1 388 58 is_stmt 0 discriminator 2 view .LVU140
 496 0026 A4B2     		uxth	r4, r4
 497              	.LVL54:
 498              	.L30:
 499              		.loc 1 388 22 is_stmt 1 discriminator 1 view .LVU141
ARM GAS  C:\usertemp\cc9FftXf.s 			page 18


 500              		.loc 1 388 32 is_stmt 0 discriminator 1 view .LVU142
 501 0028 AB8E     		ldrh	r3, [r5, #52]
 502              		.loc 1 388 22 discriminator 1 view .LVU143
 503 002a A342     		cmp	r3, r4
 504 002c 1AD9     		bls	.L31
 389:lvgl/src/extra/widgets/calendar/lv_calendar.c ****             if(calendar->highlighted_dates[i].year == calendar->showed_date.year &&
 505              		.loc 1 389 13 is_stmt 1 view .LVU144
 506              		.loc 1 389 24 is_stmt 0 view .LVU145
 507 002e 2B6B     		ldr	r3, [r5, #48]
 508              		.loc 1 389 43 view .LVU146
 509 0030 03EB8401 		add	r1, r3, r4, lsl #2
 510              		.loc 1 389 46 view .LVU147
 511 0034 33F82420 		ldrh	r2, [r3, r4, lsl #2]
 512              		.loc 1 389 76 view .LVU148
 513 0038 AB8D     		ldrh	r3, [r5, #44]
 514              		.loc 1 389 15 view .LVU149
 515 003a 9A42     		cmp	r2, r3
 516 003c F2D1     		bne	.L32
 390:lvgl/src/extra/widgets/calendar/lv_calendar.c ****                calendar->highlighted_dates[i].month == calendar->showed_date.month) {
 517              		.loc 1 390 46 view .LVU150
 518 003e 91F90220 		ldrsb	r2, [r1, #2]
 519              		.loc 1 390 77 view .LVU151
 520 0042 95F92E30 		ldrsb	r3, [r5, #46]
 389:lvgl/src/extra/widgets/calendar/lv_calendar.c ****             if(calendar->highlighted_dates[i].year == calendar->showed_date.year &&
 521              		.loc 1 389 82 discriminator 1 view .LVU152
 522 0046 9A42     		cmp	r2, r3
 523 0048 ECD1     		bne	.L32
 391:lvgl/src/extra/widgets/calendar/lv_calendar.c ****                 lv_btnmatrix_set_btn_ctrl(calendar->btnm, calendar->highlighted_dates[i].day - 1 + 
 524              		.loc 1 391 17 is_stmt 1 view .LVU153
 525              		.loc 1 391 89 is_stmt 0 view .LVU154
 526 004a 91F90310 		ldrsb	r1, [r1, #3]
 527              		.loc 1 391 98 view .LVU155
 528 004e 16FA81F1 		uxtah	r1, r6, r1
 529 0052 89B2     		uxth	r1, r1
 530              		.loc 1 391 17 view .LVU156
 531 0054 0631     		adds	r1, r1, #6
 532 0056 4FF40042 		mov	r2, #32768
 533 005a 89B2     		uxth	r1, r1
 534 005c 686A     		ldr	r0, [r5, #36]
 535 005e FFF7FEFF 		bl	lv_btnmatrix_set_btn_ctrl
 536              	.LVL55:
 537 0062 DFE7     		b	.L32
 538              	.LVL56:
 539              	.L31:
 392:lvgl/src/extra/widgets/calendar/lv_calendar.c ****                                           LV_CALENDAR_CTRL_HIGHLIGHT);
 393:lvgl/src/extra/widgets/calendar/lv_calendar.c ****             }
 394:lvgl/src/extra/widgets/calendar/lv_calendar.c ****         }
 395:lvgl/src/extra/widgets/calendar/lv_calendar.c ****     }
 396:lvgl/src/extra/widgets/calendar/lv_calendar.c **** 
 397:lvgl/src/extra/widgets/calendar/lv_calendar.c ****     if(calendar->showed_date.year == calendar->today.year && calendar->showed_date.month == calenda
 540              		.loc 1 397 5 is_stmt 1 view .LVU157
 541              		.loc 1 397 59 is_stmt 0 view .LVU158
 542 0064 EB6A     		ldr	r3, [r5, #44]
 543 0066 AA6A     		ldr	r2, [r5, #40]
 544              		.loc 1 397 7 view .LVU159
 545 0068 5340     		eors	r3, r3, r2
 546 006a 33F07F43 		bics	r3, r3, #-16777216
ARM GAS  C:\usertemp\cc9FftXf.s 			page 19


 547 006e 00D0     		beq	.L37
 548              	.L29:
 398:lvgl/src/extra/widgets/calendar/lv_calendar.c ****         lv_btnmatrix_set_btn_ctrl(calendar->btnm, calendar->today.day - 1 + day_first + 7, LV_CALEN
 399:lvgl/src/extra/widgets/calendar/lv_calendar.c ****     }
 400:lvgl/src/extra/widgets/calendar/lv_calendar.c **** }
 549              		.loc 1 400 1 view .LVU160
 550 0070 70BD     		pop	{r4, r5, r6, pc}
 551              	.LVL57:
 552              	.L37:
 398:lvgl/src/extra/widgets/calendar/lv_calendar.c ****         lv_btnmatrix_set_btn_ctrl(calendar->btnm, calendar->today.day - 1 + day_first + 7, LV_CALEN
 553              		.loc 1 398 9 is_stmt 1 view .LVU161
 398:lvgl/src/extra/widgets/calendar/lv_calendar.c ****         lv_btnmatrix_set_btn_ctrl(calendar->btnm, calendar->today.day - 1 + day_first + 7, LV_CALEN
 554              		.loc 1 398 66 is_stmt 0 view .LVU162
 555 0072 95F92B10 		ldrsb	r1, [r5, #43]
 398:lvgl/src/extra/widgets/calendar/lv_calendar.c ****         lv_btnmatrix_set_btn_ctrl(calendar->btnm, calendar->today.day - 1 + day_first + 7, LV_CALEN
 556              		.loc 1 398 75 view .LVU163
 557 0076 16FA81F1 		uxtah	r1, r6, r1
 558 007a 89B2     		uxth	r1, r1
 398:lvgl/src/extra/widgets/calendar/lv_calendar.c ****         lv_btnmatrix_set_btn_ctrl(calendar->btnm, calendar->today.day - 1 + day_first + 7, LV_CALEN
 559              		.loc 1 398 9 view .LVU164
 560 007c 0631     		adds	r1, r1, #6
 561 007e 4FF48042 		mov	r2, #16384
 562 0082 89B2     		uxth	r1, r1
 563 0084 686A     		ldr	r0, [r5, #36]
 564 0086 FFF7FEFF 		bl	lv_btnmatrix_set_btn_ctrl
 565              	.LVL58:
 566              		.loc 1 400 1 view .LVU165
 567 008a F1E7     		b	.L29
 568              		.cfi_endproc
 569              	.LFE212:
 571              		.section	.text.lv_calendar_create,"ax",%progbits
 572              		.align	1
 573              		.global	lv_calendar_create
 574              		.syntax unified
 575              		.thumb
 576              		.thumb_func
 578              	lv_calendar_create:
 579              	.LVL59:
 580              	.LFB196:
  61:lvgl/src/extra/widgets/calendar/lv_calendar.c ****     LV_LOG_INFO("begin");
 581              		.loc 1 61 1 is_stmt 1 view -0
 582              		.cfi_startproc
 583              		@ args = 0, pretend = 0, frame = 0
 584              		@ frame_needed = 0, uses_anonymous_args = 0
  61:lvgl/src/extra/widgets/calendar/lv_calendar.c ****     LV_LOG_INFO("begin");
 585              		.loc 1 61 1 is_stmt 0 view .LVU167
 586 0000 10B5     		push	{r4, lr}
 587              	.LCFI3:
 588              		.cfi_def_cfa_offset 8
 589              		.cfi_offset 4, -8
 590              		.cfi_offset 14, -4
 591 0002 0146     		mov	r1, r0
  62:lvgl/src/extra/widgets/calendar/lv_calendar.c ****     lv_obj_t * obj = lv_obj_class_create_obj(&lv_calendar_class, parent);
 592              		.loc 1 62 5 is_stmt 1 view .LVU168
  62:lvgl/src/extra/widgets/calendar/lv_calendar.c ****     lv_obj_t * obj = lv_obj_class_create_obj(&lv_calendar_class, parent);
 593              		.loc 1 62 5 view .LVU169
  62:lvgl/src/extra/widgets/calendar/lv_calendar.c ****     lv_obj_t * obj = lv_obj_class_create_obj(&lv_calendar_class, parent);
ARM GAS  C:\usertemp\cc9FftXf.s 			page 20


 594              		.loc 1 62 5 view .LVU170
  63:lvgl/src/extra/widgets/calendar/lv_calendar.c ****     lv_obj_class_init_obj(obj);
 595              		.loc 1 63 5 view .LVU171
  63:lvgl/src/extra/widgets/calendar/lv_calendar.c ****     lv_obj_class_init_obj(obj);
 596              		.loc 1 63 22 is_stmt 0 view .LVU172
 597 0004 0348     		ldr	r0, .L40
 598              	.LVL60:
  63:lvgl/src/extra/widgets/calendar/lv_calendar.c ****     lv_obj_class_init_obj(obj);
 599              		.loc 1 63 22 view .LVU173
 600 0006 FFF7FEFF 		bl	lv_obj_class_create_obj
 601              	.LVL61:
  63:lvgl/src/extra/widgets/calendar/lv_calendar.c ****     lv_obj_class_init_obj(obj);
 602              		.loc 1 63 22 view .LVU174
 603 000a 0446     		mov	r4, r0
 604              	.LVL62:
  64:lvgl/src/extra/widgets/calendar/lv_calendar.c ****     return obj;
 605              		.loc 1 64 5 is_stmt 1 view .LVU175
 606 000c FFF7FEFF 		bl	lv_obj_class_init_obj
 607              	.LVL63:
  65:lvgl/src/extra/widgets/calendar/lv_calendar.c **** }
 608              		.loc 1 65 5 view .LVU176
  66:lvgl/src/extra/widgets/calendar/lv_calendar.c **** 
 609              		.loc 1 66 1 is_stmt 0 view .LVU177
 610 0010 2046     		mov	r0, r4
 611 0012 10BD     		pop	{r4, pc}
 612              	.LVL64:
 613              	.L41:
  66:lvgl/src/extra/widgets/calendar/lv_calendar.c **** 
 614              		.loc 1 66 1 view .LVU178
 615              		.align	2
 616              	.L40:
 617 0014 00000000 		.word	lv_calendar_class
 618              		.cfi_endproc
 619              	.LFE196:
 621              		.section	.text.lv_calendar_set_day_names,"ax",%progbits
 622              		.align	1
 623              		.global	lv_calendar_set_day_names
 624              		.syntax unified
 625              		.thumb
 626              		.thumb_func
 628              	lv_calendar_set_day_names:
 629              	.LVL65:
 630              	.LFB197:
  73:lvgl/src/extra/widgets/calendar/lv_calendar.c ****     LV_ASSERT_OBJ(obj, MY_CLASS);
 631              		.loc 1 73 1 is_stmt 1 view -0
 632              		.cfi_startproc
 633              		@ args = 0, pretend = 0, frame = 0
 634              		@ frame_needed = 0, uses_anonymous_args = 0
  73:lvgl/src/extra/widgets/calendar/lv_calendar.c ****     LV_ASSERT_OBJ(obj, MY_CLASS);
 635              		.loc 1 73 1 is_stmt 0 view .LVU180
 636 0000 10B5     		push	{r4, lr}
 637              	.LCFI4:
 638              		.cfi_def_cfa_offset 8
 639              		.cfi_offset 4, -8
 640              		.cfi_offset 14, -4
  74:lvgl/src/extra/widgets/calendar/lv_calendar.c ****     lv_calendar_t * calendar = (lv_calendar_t *)obj;
 641              		.loc 1 74 5 is_stmt 1 view .LVU181
ARM GAS  C:\usertemp\cc9FftXf.s 			page 21


  74:lvgl/src/extra/widgets/calendar/lv_calendar.c ****     lv_calendar_t * calendar = (lv_calendar_t *)obj;
 642              		.loc 1 74 5 view .LVU182
  74:lvgl/src/extra/widgets/calendar/lv_calendar.c ****     lv_calendar_t * calendar = (lv_calendar_t *)obj;
 643              		.loc 1 74 5 view .LVU183
  75:lvgl/src/extra/widgets/calendar/lv_calendar.c **** 
 644              		.loc 1 75 5 view .LVU184
 645              	.LVL66:
  77:lvgl/src/extra/widgets/calendar/lv_calendar.c ****     for(i = 0; i < 7; i++) {
 646              		.loc 1 77 5 view .LVU185
  78:lvgl/src/extra/widgets/calendar/lv_calendar.c ****         calendar->map[i] = day_names[i];
 647              		.loc 1 78 5 view .LVU186
  78:lvgl/src/extra/widgets/calendar/lv_calendar.c ****         calendar->map[i] = day_names[i];
 648              		.loc 1 78 11 is_stmt 0 view .LVU187
 649 0002 0023     		movs	r3, #0
  78:lvgl/src/extra/widgets/calendar/lv_calendar.c ****         calendar->map[i] = day_names[i];
 650              		.loc 1 78 5 view .LVU188
 651 0004 06E0     		b	.L43
 652              	.LVL67:
 653              	.L44:
  79:lvgl/src/extra/widgets/calendar/lv_calendar.c ****     }
 654              		.loc 1 79 9 is_stmt 1 view .LVU189
  79:lvgl/src/extra/widgets/calendar/lv_calendar.c ****     }
 655              		.loc 1 79 26 is_stmt 0 view .LVU190
 656 0006 03F10E02 		add	r2, r3, #14
 657 000a 51F82340 		ldr	r4, [r1, r3, lsl #2]
 658 000e 40F82240 		str	r4, [r0, r2, lsl #2]
  78:lvgl/src/extra/widgets/calendar/lv_calendar.c ****         calendar->map[i] = day_names[i];
 659              		.loc 1 78 24 is_stmt 1 discriminator 3 view .LVU191
 660 0012 0133     		adds	r3, r3, #1
 661              	.LVL68:
 662              	.L43:
  78:lvgl/src/extra/widgets/calendar/lv_calendar.c ****         calendar->map[i] = day_names[i];
 663              		.loc 1 78 18 discriminator 1 view .LVU192
 664 0014 062B     		cmp	r3, #6
 665 0016 F6D9     		bls	.L44
  81:lvgl/src/extra/widgets/calendar/lv_calendar.c **** }
 666              		.loc 1 81 5 view .LVU193
 667 0018 FFF7FEFF 		bl	lv_obj_invalidate
 668              	.LVL69:
  82:lvgl/src/extra/widgets/calendar/lv_calendar.c **** 
 669              		.loc 1 82 1 is_stmt 0 view .LVU194
 670 001c 10BD     		pop	{r4, pc}
 671              		.cfi_endproc
 672              	.LFE197:
 674              		.section	.text.lv_calendar_set_today_date,"ax",%progbits
 675              		.align	1
 676              		.global	lv_calendar_set_today_date
 677              		.syntax unified
 678              		.thumb
 679              		.thumb_func
 681              	lv_calendar_set_today_date:
 682              	.LVL70:
 683              	.LFB198:
  85:lvgl/src/extra/widgets/calendar/lv_calendar.c ****     LV_ASSERT_OBJ(obj, MY_CLASS);
 684              		.loc 1 85 1 is_stmt 1 view -0
 685              		.cfi_startproc
 686              		@ args = 0, pretend = 0, frame = 0
ARM GAS  C:\usertemp\cc9FftXf.s 			page 22


 687              		@ frame_needed = 0, uses_anonymous_args = 0
  85:lvgl/src/extra/widgets/calendar/lv_calendar.c ****     LV_ASSERT_OBJ(obj, MY_CLASS);
 688              		.loc 1 85 1 is_stmt 0 view .LVU196
 689 0000 08B5     		push	{r3, lr}
 690              	.LCFI5:
 691              		.cfi_def_cfa_offset 8
 692              		.cfi_offset 3, -8
 693              		.cfi_offset 14, -4
  86:lvgl/src/extra/widgets/calendar/lv_calendar.c ****     lv_calendar_t * calendar = (lv_calendar_t *)obj;
 694              		.loc 1 86 5 is_stmt 1 view .LVU197
  86:lvgl/src/extra/widgets/calendar/lv_calendar.c ****     lv_calendar_t * calendar = (lv_calendar_t *)obj;
 695              		.loc 1 86 5 view .LVU198
  86:lvgl/src/extra/widgets/calendar/lv_calendar.c ****     lv_calendar_t * calendar = (lv_calendar_t *)obj;
 696              		.loc 1 86 5 view .LVU199
  87:lvgl/src/extra/widgets/calendar/lv_calendar.c **** 
 697              		.loc 1 87 5 view .LVU200
 698              	.LVL71:
  89:lvgl/src/extra/widgets/calendar/lv_calendar.c ****     calendar->today.month        = month;
 699              		.loc 1 89 5 view .LVU201
  89:lvgl/src/extra/widgets/calendar/lv_calendar.c ****     calendar->today.month        = month;
 700              		.loc 1 89 34 is_stmt 0 view .LVU202
 701 0002 0185     		strh	r1, [r0, #40]	@ movhi
  90:lvgl/src/extra/widgets/calendar/lv_calendar.c ****     calendar->today.day          = day;
 702              		.loc 1 90 5 is_stmt 1 view .LVU203
  90:lvgl/src/extra/widgets/calendar/lv_calendar.c ****     calendar->today.day          = day;
 703              		.loc 1 90 34 is_stmt 0 view .LVU204
 704 0004 80F82A20 		strb	r2, [r0, #42]
  91:lvgl/src/extra/widgets/calendar/lv_calendar.c **** 
 705              		.loc 1 91 5 is_stmt 1 view .LVU205
  91:lvgl/src/extra/widgets/calendar/lv_calendar.c **** 
 706              		.loc 1 91 34 is_stmt 0 view .LVU206
 707 0008 80F82B30 		strb	r3, [r0, #43]
  93:lvgl/src/extra/widgets/calendar/lv_calendar.c **** }
 708              		.loc 1 93 5 is_stmt 1 view .LVU207
 709 000c FFF7FEFF 		bl	highlight_update
 710              	.LVL72:
  94:lvgl/src/extra/widgets/calendar/lv_calendar.c **** 
 711              		.loc 1 94 1 is_stmt 0 view .LVU208
 712 0010 08BD     		pop	{r3, pc}
 713              		.cfi_endproc
 714              	.LFE198:
 716              		.section	.text.lv_calendar_set_highlighted_dates,"ax",%progbits
 717              		.align	1
 718              		.global	lv_calendar_set_highlighted_dates
 719              		.syntax unified
 720              		.thumb
 721              		.thumb_func
 723              	lv_calendar_set_highlighted_dates:
 724              	.LVL73:
 725              	.LFB199:
  97:lvgl/src/extra/widgets/calendar/lv_calendar.c ****     LV_ASSERT_NULL(highlighted);
 726              		.loc 1 97 1 is_stmt 1 view -0
 727              		.cfi_startproc
 728              		@ args = 0, pretend = 0, frame = 0
 729              		@ frame_needed = 0, uses_anonymous_args = 0
  98:lvgl/src/extra/widgets/calendar/lv_calendar.c **** 
 730              		.loc 1 98 5 view .LVU210
ARM GAS  C:\usertemp\cc9FftXf.s 			page 23


  98:lvgl/src/extra/widgets/calendar/lv_calendar.c **** 
 731              		.loc 1 98 5 view .LVU211
 732 0000 29B1     		cbz	r1, .L50
  97:lvgl/src/extra/widgets/calendar/lv_calendar.c ****     LV_ASSERT_NULL(highlighted);
 733              		.loc 1 97 1 is_stmt 0 view .LVU212
 734 0002 08B5     		push	{r3, lr}
 735              	.LCFI6:
 736              		.cfi_def_cfa_offset 8
 737              		.cfi_offset 3, -8
 738              		.cfi_offset 14, -4
  98:lvgl/src/extra/widgets/calendar/lv_calendar.c **** 
 739              		.loc 1 98 5 is_stmt 1 discriminator 2 view .LVU213
  98:lvgl/src/extra/widgets/calendar/lv_calendar.c **** 
 740              		.loc 1 98 32 discriminator 2 view .LVU214
 100:lvgl/src/extra/widgets/calendar/lv_calendar.c ****     lv_calendar_t * calendar = (lv_calendar_t *)obj;
 741              		.loc 1 100 5 view .LVU215
 100:lvgl/src/extra/widgets/calendar/lv_calendar.c ****     lv_calendar_t * calendar = (lv_calendar_t *)obj;
 742              		.loc 1 100 5 view .LVU216
 100:lvgl/src/extra/widgets/calendar/lv_calendar.c ****     lv_calendar_t * calendar = (lv_calendar_t *)obj;
 743              		.loc 1 100 5 view .LVU217
 101:lvgl/src/extra/widgets/calendar/lv_calendar.c **** 
 744              		.loc 1 101 5 view .LVU218
 745              	.LVL74:
 103:lvgl/src/extra/widgets/calendar/lv_calendar.c ****     calendar->highlighted_dates_num = date_num;
 746              		.loc 1 103 5 view .LVU219
 103:lvgl/src/extra/widgets/calendar/lv_calendar.c ****     calendar->highlighted_dates_num = date_num;
 747              		.loc 1 103 37 is_stmt 0 view .LVU220
 748 0004 0163     		str	r1, [r0, #48]
 104:lvgl/src/extra/widgets/calendar/lv_calendar.c **** 
 749              		.loc 1 104 5 is_stmt 1 view .LVU221
 104:lvgl/src/extra/widgets/calendar/lv_calendar.c **** 
 750              		.loc 1 104 37 is_stmt 0 view .LVU222
 751 0006 8286     		strh	r2, [r0, #52]	@ movhi
 106:lvgl/src/extra/widgets/calendar/lv_calendar.c **** }
 752              		.loc 1 106 5 is_stmt 1 view .LVU223
 753 0008 FFF7FEFF 		bl	highlight_update
 754              	.LVL75:
 107:lvgl/src/extra/widgets/calendar/lv_calendar.c **** 
 755              		.loc 1 107 1 is_stmt 0 view .LVU224
 756 000c 08BD     		pop	{r3, pc}
 757              	.LVL76:
 758              	.L50:
 759              	.LCFI7:
 760              		.cfi_def_cfa_offset 0
 761              		.cfi_restore 3
 762              		.cfi_restore 14
  98:lvgl/src/extra/widgets/calendar/lv_calendar.c **** 
 763              		.loc 1 98 5 is_stmt 1 discriminator 1 view .LVU225
  98:lvgl/src/extra/widgets/calendar/lv_calendar.c **** 
 764              		.loc 1 98 5 discriminator 1 view .LVU226
  98:lvgl/src/extra/widgets/calendar/lv_calendar.c **** 
 765              		.loc 1 98 5 discriminator 1 view .LVU227
  98:lvgl/src/extra/widgets/calendar/lv_calendar.c **** 
 766              		.loc 1 98 5 discriminator 1 view .LVU228
  98:lvgl/src/extra/widgets/calendar/lv_calendar.c **** 
 767              		.loc 1 98 5 discriminator 1 view .LVU229
 768 000e FEE7     		b	.L50
ARM GAS  C:\usertemp\cc9FftXf.s 			page 24


 769              		.cfi_endproc
 770              	.LFE199:
 772              		.section	.rodata.lv_calendar_set_showed_date.str1.4,"aMS",%progbits,1
 773              		.align	2
 774              	.LC0:
 775 0000 256400   		.ascii	"%d\000"
 776              		.section	.text.lv_calendar_set_showed_date,"ax",%progbits
 777              		.align	1
 778              		.global	lv_calendar_set_showed_date
 779              		.syntax unified
 780              		.thumb
 781              		.thumb_func
 783              	lv_calendar_set_showed_date:
 784              	.LVL77:
 785              	.LFB200:
 110:lvgl/src/extra/widgets/calendar/lv_calendar.c ****     LV_ASSERT_OBJ(obj, MY_CLASS);
 786              		.loc 1 110 1 view -0
 787              		.cfi_startproc
 788              		@ args = 0, pretend = 0, frame = 8
 789              		@ frame_needed = 0, uses_anonymous_args = 0
 110:lvgl/src/extra/widgets/calendar/lv_calendar.c ****     LV_ASSERT_OBJ(obj, MY_CLASS);
 790              		.loc 1 110 1 is_stmt 0 view .LVU231
 791 0000 2DE9F047 		push	{r4, r5, r6, r7, r8, r9, r10, lr}
 792              	.LCFI8:
 793              		.cfi_def_cfa_offset 32
 794              		.cfi_offset 4, -32
 795              		.cfi_offset 5, -28
 796              		.cfi_offset 6, -24
 797              		.cfi_offset 7, -20
 798              		.cfi_offset 8, -16
 799              		.cfi_offset 9, -12
 800              		.cfi_offset 10, -8
 801              		.cfi_offset 14, -4
 802 0004 82B0     		sub	sp, sp, #8
 803              	.LCFI9:
 804              		.cfi_def_cfa_offset 40
 805 0006 0446     		mov	r4, r0
 806 0008 8A46     		mov	r10, r1
 111:lvgl/src/extra/widgets/calendar/lv_calendar.c ****     lv_calendar_t * calendar = (lv_calendar_t *)obj;
 807              		.loc 1 111 5 is_stmt 1 view .LVU232
 111:lvgl/src/extra/widgets/calendar/lv_calendar.c ****     lv_calendar_t * calendar = (lv_calendar_t *)obj;
 808              		.loc 1 111 5 view .LVU233
 111:lvgl/src/extra/widgets/calendar/lv_calendar.c ****     lv_calendar_t * calendar = (lv_calendar_t *)obj;
 809              		.loc 1 111 5 view .LVU234
 112:lvgl/src/extra/widgets/calendar/lv_calendar.c **** 
 810              		.loc 1 112 5 view .LVU235
 811              	.LVL78:
 114:lvgl/src/extra/widgets/calendar/lv_calendar.c ****     calendar->showed_date.month  = month;
 812              		.loc 1 114 5 view .LVU236
 114:lvgl/src/extra/widgets/calendar/lv_calendar.c ****     calendar->showed_date.month  = month;
 813              		.loc 1 114 34 is_stmt 0 view .LVU237
 814 000a 89B2     		uxth	r1, r1
 815              	.LVL79:
 114:lvgl/src/extra/widgets/calendar/lv_calendar.c ****     calendar->showed_date.month  = month;
 816              		.loc 1 114 34 view .LVU238
 817 000c 8185     		strh	r1, [r0, #44]	@ movhi
 115:lvgl/src/extra/widgets/calendar/lv_calendar.c ****     calendar->showed_date.day    = 1;
ARM GAS  C:\usertemp\cc9FftXf.s 			page 25


 818              		.loc 1 115 5 is_stmt 1 view .LVU239
 115:lvgl/src/extra/widgets/calendar/lv_calendar.c ****     calendar->showed_date.day    = 1;
 819              		.loc 1 115 34 is_stmt 0 view .LVU240
 820 000e 4FFA82F9 		sxtb	r9, r2
 821 0012 80F82E90 		strb	r9, [r0, #46]
 116:lvgl/src/extra/widgets/calendar/lv_calendar.c **** 
 822              		.loc 1 116 5 is_stmt 1 view .LVU241
 116:lvgl/src/extra/widgets/calendar/lv_calendar.c **** 
 823              		.loc 1 116 34 is_stmt 0 view .LVU242
 824 0016 0123     		movs	r3, #1
 825 0018 80F82F30 		strb	r3, [r0, #47]
 118:lvgl/src/extra/widgets/calendar/lv_calendar.c ****     d.year = calendar->showed_date.year;
 826              		.loc 1 118 5 is_stmt 1 view .LVU243
 119:lvgl/src/extra/widgets/calendar/lv_calendar.c ****     d.month = calendar->showed_date.month;
 827              		.loc 1 119 5 view .LVU244
 119:lvgl/src/extra/widgets/calendar/lv_calendar.c ****     d.month = calendar->showed_date.month;
 828              		.loc 1 119 12 is_stmt 0 view .LVU245
 829 001c ADF80410 		strh	r1, [sp, #4]	@ movhi
 120:lvgl/src/extra/widgets/calendar/lv_calendar.c ****     d.day = calendar->showed_date.day;
 830              		.loc 1 120 5 is_stmt 1 view .LVU246
 120:lvgl/src/extra/widgets/calendar/lv_calendar.c ****     d.day = calendar->showed_date.day;
 831              		.loc 1 120 13 is_stmt 0 view .LVU247
 832 0020 8DF80690 		strb	r9, [sp, #6]
 121:lvgl/src/extra/widgets/calendar/lv_calendar.c **** 
 833              		.loc 1 121 5 is_stmt 1 view .LVU248
 121:lvgl/src/extra/widgets/calendar/lv_calendar.c **** 
 834              		.loc 1 121 11 is_stmt 0 view .LVU249
 835 0024 8DF80730 		strb	r3, [sp, #7]
 123:lvgl/src/extra/widgets/calendar/lv_calendar.c **** 
 836              		.loc 1 123 5 is_stmt 1 view .LVU250
 126:lvgl/src/extra/widgets/calendar/lv_calendar.c ****     for(i = 0; i < 7; i++) {
 837              		.loc 1 126 5 view .LVU251
 838 0028 2021     		movs	r1, #32
 839 002a 406A     		ldr	r0, [r0, #36]
 840              	.LVL80:
 126:lvgl/src/extra/widgets/calendar/lv_calendar.c ****     for(i = 0; i < 7; i++) {
 841              		.loc 1 126 5 is_stmt 0 view .LVU252
 842 002c FFF7FEFF 		bl	lv_btnmatrix_clear_btn_ctrl_all
 843              	.LVL81:
 127:lvgl/src/extra/widgets/calendar/lv_calendar.c ****         lv_btnmatrix_set_btn_ctrl(calendar->btnm, i, LV_BTNMATRIX_CTRL_DISABLED);
 844              		.loc 1 127 5 is_stmt 1 view .LVU253
 127:lvgl/src/extra/widgets/calendar/lv_calendar.c ****         lv_btnmatrix_set_btn_ctrl(calendar->btnm, i, LV_BTNMATRIX_CTRL_DISABLED);
 845              		.loc 1 127 11 is_stmt 0 view .LVU254
 846 0030 0025     		movs	r5, #0
 127:lvgl/src/extra/widgets/calendar/lv_calendar.c ****         lv_btnmatrix_set_btn_ctrl(calendar->btnm, i, LV_BTNMATRIX_CTRL_DISABLED);
 847              		.loc 1 127 5 view .LVU255
 848 0032 06E0     		b	.L54
 849              	.LVL82:
 850              	.L55:
 128:lvgl/src/extra/widgets/calendar/lv_calendar.c ****     }
 851              		.loc 1 128 9 is_stmt 1 view .LVU256
 852 0034 2022     		movs	r2, #32
 853 0036 2946     		mov	r1, r5
 854 0038 606A     		ldr	r0, [r4, #36]
 855 003a FFF7FEFF 		bl	lv_btnmatrix_set_btn_ctrl
 856              	.LVL83:
 127:lvgl/src/extra/widgets/calendar/lv_calendar.c ****         lv_btnmatrix_set_btn_ctrl(calendar->btnm, i, LV_BTNMATRIX_CTRL_DISABLED);
ARM GAS  C:\usertemp\cc9FftXf.s 			page 26


 857              		.loc 1 127 24 discriminator 3 view .LVU257
 858 003e 0135     		adds	r5, r5, #1
 859              	.LVL84:
 127:lvgl/src/extra/widgets/calendar/lv_calendar.c ****         lv_btnmatrix_set_btn_ctrl(calendar->btnm, i, LV_BTNMATRIX_CTRL_DISABLED);
 860              		.loc 1 127 24 is_stmt 0 discriminator 3 view .LVU258
 861 0040 EDB2     		uxtb	r5, r5
 862              	.LVL85:
 863              	.L54:
 127:lvgl/src/extra/widgets/calendar/lv_calendar.c ****         lv_btnmatrix_set_btn_ctrl(calendar->btnm, i, LV_BTNMATRIX_CTRL_DISABLED);
 864              		.loc 1 127 18 is_stmt 1 discriminator 1 view .LVU259
 865 0042 062D     		cmp	r5, #6
 866 0044 F6D9     		bls	.L55
 131:lvgl/src/extra/widgets/calendar/lv_calendar.c ****     uint8_t day_first = get_day_of_week(d.year, d.month, 1);
 867              		.loc 1 131 5 view .LVU260
 131:lvgl/src/extra/widgets/calendar/lv_calendar.c ****     uint8_t day_first = get_day_of_week(d.year, d.month, 1);
 868              		.loc 1 131 26 is_stmt 0 view .LVU261
 869 0046 1FFA8AFA 		uxth	r10, r10
 870              	.LVL86:
 131:lvgl/src/extra/widgets/calendar/lv_calendar.c ****     uint8_t day_first = get_day_of_week(d.year, d.month, 1);
 871              		.loc 1 131 26 view .LVU262
 872 004a 4946     		mov	r1, r9
 873 004c 5046     		mov	r0, r10
 874 004e FFF7FEFF 		bl	get_month_length
 875              	.LVL87:
 876 0052 0546     		mov	r5, r0
 877              	.LVL88:
 132:lvgl/src/extra/widgets/calendar/lv_calendar.c ****     uint8_t c;
 878              		.loc 1 132 5 is_stmt 1 view .LVU263
 132:lvgl/src/extra/widgets/calendar/lv_calendar.c ****     uint8_t c;
 879              		.loc 1 132 25 is_stmt 0 view .LVU264
 880 0054 0122     		movs	r2, #1
 881 0056 4946     		mov	r1, r9
 882 0058 5046     		mov	r0, r10
 883 005a FFF7FEFF 		bl	get_day_of_week
 884              	.LVL89:
 885 005e 0746     		mov	r7, r0
 886              	.LVL90:
 133:lvgl/src/extra/widgets/calendar/lv_calendar.c ****     for(i = day_first, c = 1; i < act_mo_len + day_first; i++, c++) {
 887              		.loc 1 133 5 is_stmt 1 view .LVU265
 134:lvgl/src/extra/widgets/calendar/lv_calendar.c ****         lv_snprintf(calendar->nums[i], sizeof(calendar->nums[0]), "%d", c);
 888              		.loc 1 134 5 view .LVU266
 134:lvgl/src/extra/widgets/calendar/lv_calendar.c ****         lv_snprintf(calendar->nums[i], sizeof(calendar->nums[0]), "%d", c);
 889              		.loc 1 134 11 is_stmt 0 view .LVU267
 890 0060 0646     		mov	r6, r0
 134:lvgl/src/extra/widgets/calendar/lv_calendar.c ****         lv_snprintf(calendar->nums[i], sizeof(calendar->nums[0]), "%d", c);
 891              		.loc 1 134 26 view .LVU268
 892 0062 4FF00108 		mov	r8, #1
 134:lvgl/src/extra/widgets/calendar/lv_calendar.c ****         lv_snprintf(calendar->nums[i], sizeof(calendar->nums[0]), "%d", c);
 893              		.loc 1 134 5 view .LVU269
 894 0066 0EE0     		b	.L56
 895              	.LVL91:
 896              	.L57:
 135:lvgl/src/extra/widgets/calendar/lv_calendar.c ****     }
 897              		.loc 1 135 9 is_stmt 1 view .LVU270
 135:lvgl/src/extra/widgets/calendar/lv_calendar.c ****     }
 898              		.loc 1 135 35 is_stmt 0 view .LVU271
 899 0068 06F14600 		add	r0, r6, #70
ARM GAS  C:\usertemp\cc9FftXf.s 			page 27


 135:lvgl/src/extra/widgets/calendar/lv_calendar.c ****     }
 900              		.loc 1 135 9 view .LVU272
 901 006c 4346     		mov	r3, r8
 902 006e 3C4A     		ldr	r2, .L70
 903 0070 0421     		movs	r1, #4
 904 0072 04EB8000 		add	r0, r4, r0, lsl #2
 905 0076 FFF7FEFF 		bl	snprintf
 906              	.LVL92:
 134:lvgl/src/extra/widgets/calendar/lv_calendar.c ****         lv_snprintf(calendar->nums[i], sizeof(calendar->nums[0]), "%d", c);
 907              		.loc 1 134 62 is_stmt 1 discriminator 3 view .LVU273
 134:lvgl/src/extra/widgets/calendar/lv_calendar.c ****         lv_snprintf(calendar->nums[i], sizeof(calendar->nums[0]), "%d", c);
 908              		.loc 1 134 60 is_stmt 0 discriminator 3 view .LVU274
 909 007a 0136     		adds	r6, r6, #1
 910              	.LVL93:
 134:lvgl/src/extra/widgets/calendar/lv_calendar.c ****         lv_snprintf(calendar->nums[i], sizeof(calendar->nums[0]), "%d", c);
 911              		.loc 1 134 60 discriminator 3 view .LVU275
 912 007c F6B2     		uxtb	r6, r6
 913              	.LVL94:
 134:lvgl/src/extra/widgets/calendar/lv_calendar.c ****         lv_snprintf(calendar->nums[i], sizeof(calendar->nums[0]), "%d", c);
 914              		.loc 1 134 65 discriminator 3 view .LVU276
 915 007e 08F10108 		add	r8, r8, #1
 916              	.LVL95:
 134:lvgl/src/extra/widgets/calendar/lv_calendar.c ****         lv_snprintf(calendar->nums[i], sizeof(calendar->nums[0]), "%d", c);
 917              		.loc 1 134 65 discriminator 3 view .LVU277
 918 0082 5FFA88F8 		uxtb	r8, r8
 919              	.LVL96:
 920              	.L56:
 134:lvgl/src/extra/widgets/calendar/lv_calendar.c ****         lv_snprintf(calendar->nums[i], sizeof(calendar->nums[0]), "%d", c);
 921              		.loc 1 134 33 is_stmt 1 discriminator 1 view .LVU278
 134:lvgl/src/extra/widgets/calendar/lv_calendar.c ****         lv_snprintf(calendar->nums[i], sizeof(calendar->nums[0]), "%d", c);
 922              		.loc 1 134 46 is_stmt 0 discriminator 1 view .LVU279
 923 0086 EB19     		adds	r3, r5, r7
 134:lvgl/src/extra/widgets/calendar/lv_calendar.c ****         lv_snprintf(calendar->nums[i], sizeof(calendar->nums[0]), "%d", c);
 924              		.loc 1 134 33 discriminator 1 view .LVU280
 925 0088 9E42     		cmp	r6, r3
 926 008a EDDB     		blt	.L57
 138:lvgl/src/extra/widgets/calendar/lv_calendar.c ****     for(i = 0, c = prev_mo_len - day_first + 1; i < day_first; i++, c++) {
 927              		.loc 1 138 5 is_stmt 1 view .LVU281
 138:lvgl/src/extra/widgets/calendar/lv_calendar.c ****     for(i = 0, c = prev_mo_len - day_first + 1; i < day_first; i++, c++) {
 928              		.loc 1 138 27 is_stmt 0 view .LVU282
 929 008c 09F1FF31 		add	r1, r9, #-1
 930 0090 5046     		mov	r0, r10
 931 0092 FFF7FEFF 		bl	get_month_length
 932              	.LVL97:
 139:lvgl/src/extra/widgets/calendar/lv_calendar.c ****         lv_snprintf(calendar->nums[i], sizeof(calendar->nums[0]), "%d", c);
 933              		.loc 1 139 5 is_stmt 1 view .LVU283
 139:lvgl/src/extra/widgets/calendar/lv_calendar.c ****         lv_snprintf(calendar->nums[i], sizeof(calendar->nums[0]), "%d", c);
 934              		.loc 1 139 32 is_stmt 0 view .LVU284
 935 0096 A0EB0708 		sub	r8, r0, r7
 936              	.LVL98:
 139:lvgl/src/extra/widgets/calendar/lv_calendar.c ****         lv_snprintf(calendar->nums[i], sizeof(calendar->nums[0]), "%d", c);
 937              		.loc 1 139 32 view .LVU285
 938 009a 5FFA88F8 		uxtb	r8, r8
 139:lvgl/src/extra/widgets/calendar/lv_calendar.c ****         lv_snprintf(calendar->nums[i], sizeof(calendar->nums[0]), "%d", c);
 939              		.loc 1 139 18 view .LVU286
 940 009e 08F10108 		add	r8, r8, #1
 941 00a2 5FFA88F8 		uxtb	r8, r8
ARM GAS  C:\usertemp\cc9FftXf.s 			page 28


 942              	.LVL99:
 139:lvgl/src/extra/widgets/calendar/lv_calendar.c ****         lv_snprintf(calendar->nums[i], sizeof(calendar->nums[0]), "%d", c);
 943              		.loc 1 139 11 view .LVU287
 944 00a6 0026     		movs	r6, #0
 139:lvgl/src/extra/widgets/calendar/lv_calendar.c ****         lv_snprintf(calendar->nums[i], sizeof(calendar->nums[0]), "%d", c);
 945              		.loc 1 139 5 view .LVU288
 946 00a8 13E0     		b	.L58
 947              	.LVL100:
 948              	.L59:
 140:lvgl/src/extra/widgets/calendar/lv_calendar.c ****         lv_btnmatrix_set_btn_ctrl(calendar->btnm, i + 7, LV_BTNMATRIX_CTRL_DISABLED);
 949              		.loc 1 140 9 is_stmt 1 view .LVU289
 140:lvgl/src/extra/widgets/calendar/lv_calendar.c ****         lv_btnmatrix_set_btn_ctrl(calendar->btnm, i + 7, LV_BTNMATRIX_CTRL_DISABLED);
 950              		.loc 1 140 35 is_stmt 0 view .LVU290
 951 00aa 06F14600 		add	r0, r6, #70
 140:lvgl/src/extra/widgets/calendar/lv_calendar.c ****         lv_btnmatrix_set_btn_ctrl(calendar->btnm, i + 7, LV_BTNMATRIX_CTRL_DISABLED);
 952              		.loc 1 140 9 view .LVU291
 953 00ae 4346     		mov	r3, r8
 954 00b0 2B4A     		ldr	r2, .L70
 955 00b2 0421     		movs	r1, #4
 956 00b4 04EB8000 		add	r0, r4, r0, lsl #2
 957 00b8 FFF7FEFF 		bl	snprintf
 958              	.LVL101:
 141:lvgl/src/extra/widgets/calendar/lv_calendar.c ****     }
 959              		.loc 1 141 9 is_stmt 1 view .LVU292
 960 00bc 2022     		movs	r2, #32
 961 00be F11D     		adds	r1, r6, #7
 962 00c0 606A     		ldr	r0, [r4, #36]
 963 00c2 FFF7FEFF 		bl	lv_btnmatrix_set_btn_ctrl
 964              	.LVL102:
 139:lvgl/src/extra/widgets/calendar/lv_calendar.c ****         lv_snprintf(calendar->nums[i], sizeof(calendar->nums[0]), "%d", c);
 965              		.loc 1 139 67 discriminator 3 view .LVU293
 139:lvgl/src/extra/widgets/calendar/lv_calendar.c ****         lv_snprintf(calendar->nums[i], sizeof(calendar->nums[0]), "%d", c);
 966              		.loc 1 139 65 is_stmt 0 discriminator 3 view .LVU294
 967 00c6 0136     		adds	r6, r6, #1
 968              	.LVL103:
 139:lvgl/src/extra/widgets/calendar/lv_calendar.c ****         lv_snprintf(calendar->nums[i], sizeof(calendar->nums[0]), "%d", c);
 969              		.loc 1 139 65 discriminator 3 view .LVU295
 970 00c8 F6B2     		uxtb	r6, r6
 971              	.LVL104:
 139:lvgl/src/extra/widgets/calendar/lv_calendar.c ****         lv_snprintf(calendar->nums[i], sizeof(calendar->nums[0]), "%d", c);
 972              		.loc 1 139 70 discriminator 3 view .LVU296
 973 00ca 08F10108 		add	r8, r8, #1
 974              	.LVL105:
 139:lvgl/src/extra/widgets/calendar/lv_calendar.c ****         lv_snprintf(calendar->nums[i], sizeof(calendar->nums[0]), "%d", c);
 975              		.loc 1 139 70 discriminator 3 view .LVU297
 976 00ce 5FFA88F8 		uxtb	r8, r8
 977              	.LVL106:
 978              	.L58:
 139:lvgl/src/extra/widgets/calendar/lv_calendar.c ****         lv_snprintf(calendar->nums[i], sizeof(calendar->nums[0]), "%d", c);
 979              		.loc 1 139 51 is_stmt 1 discriminator 1 view .LVU298
 980 00d2 BE42     		cmp	r6, r7
 981 00d4 E9D3     		bcc	.L59
 144:lvgl/src/extra/widgets/calendar/lv_calendar.c ****         lv_snprintf(calendar->nums[i], sizeof(calendar->nums[0]), "%d", c);
 982              		.loc 1 144 5 view .LVU299
 144:lvgl/src/extra/widgets/calendar/lv_calendar.c ****         lv_snprintf(calendar->nums[i], sizeof(calendar->nums[0]), "%d", c);
 983              		.loc 1 144 11 is_stmt 0 view .LVU300
 984 00d6 3D44     		add	r5, r5, r7
ARM GAS  C:\usertemp\cc9FftXf.s 			page 29


 985              	.LVL107:
 144:lvgl/src/extra/widgets/calendar/lv_calendar.c ****         lv_snprintf(calendar->nums[i], sizeof(calendar->nums[0]), "%d", c);
 986              		.loc 1 144 11 view .LVU301
 987 00d8 EDB2     		uxtb	r5, r5
 988              	.LVL108:
 144:lvgl/src/extra/widgets/calendar/lv_calendar.c ****         lv_snprintf(calendar->nums[i], sizeof(calendar->nums[0]), "%d", c);
 989              		.loc 1 144 39 view .LVU302
 990 00da 0126     		movs	r6, #1
 144:lvgl/src/extra/widgets/calendar/lv_calendar.c ****         lv_snprintf(calendar->nums[i], sizeof(calendar->nums[0]), "%d", c);
 991              		.loc 1 144 5 view .LVU303
 992 00dc 11E0     		b	.L60
 993              	.LVL109:
 994              	.L61:
 145:lvgl/src/extra/widgets/calendar/lv_calendar.c ****         lv_btnmatrix_set_btn_ctrl(calendar->btnm, i + 7, LV_BTNMATRIX_CTRL_DISABLED);
 995              		.loc 1 145 9 is_stmt 1 view .LVU304
 145:lvgl/src/extra/widgets/calendar/lv_calendar.c ****         lv_btnmatrix_set_btn_ctrl(calendar->btnm, i + 7, LV_BTNMATRIX_CTRL_DISABLED);
 996              		.loc 1 145 35 is_stmt 0 view .LVU305
 997 00de 05F14600 		add	r0, r5, #70
 145:lvgl/src/extra/widgets/calendar/lv_calendar.c ****         lv_btnmatrix_set_btn_ctrl(calendar->btnm, i + 7, LV_BTNMATRIX_CTRL_DISABLED);
 998              		.loc 1 145 9 view .LVU306
 999 00e2 3346     		mov	r3, r6
 1000 00e4 1E4A     		ldr	r2, .L70
 1001 00e6 0421     		movs	r1, #4
 1002 00e8 04EB8000 		add	r0, r4, r0, lsl #2
 1003 00ec FFF7FEFF 		bl	snprintf
 1004              	.LVL110:
 146:lvgl/src/extra/widgets/calendar/lv_calendar.c ****     }
 1005              		.loc 1 146 9 is_stmt 1 view .LVU307
 1006 00f0 2022     		movs	r2, #32
 1007 00f2 E91D     		adds	r1, r5, #7
 1008 00f4 606A     		ldr	r0, [r4, #36]
 1009 00f6 FFF7FEFF 		bl	lv_btnmatrix_set_btn_ctrl
 1010              	.LVL111:
 144:lvgl/src/extra/widgets/calendar/lv_calendar.c ****         lv_snprintf(calendar->nums[i], sizeof(calendar->nums[0]), "%d", c);
 1011              		.loc 1 144 58 discriminator 3 view .LVU308
 144:lvgl/src/extra/widgets/calendar/lv_calendar.c ****         lv_snprintf(calendar->nums[i], sizeof(calendar->nums[0]), "%d", c);
 1012              		.loc 1 144 56 is_stmt 0 discriminator 3 view .LVU309
 1013 00fa 0135     		adds	r5, r5, #1
 1014              	.LVL112:
 144:lvgl/src/extra/widgets/calendar/lv_calendar.c ****         lv_snprintf(calendar->nums[i], sizeof(calendar->nums[0]), "%d", c);
 1015              		.loc 1 144 56 discriminator 3 view .LVU310
 1016 00fc EDB2     		uxtb	r5, r5
 1017              	.LVL113:
 144:lvgl/src/extra/widgets/calendar/lv_calendar.c ****         lv_snprintf(calendar->nums[i], sizeof(calendar->nums[0]), "%d", c);
 1018              		.loc 1 144 61 discriminator 3 view .LVU311
 1019 00fe 0136     		adds	r6, r6, #1
 1020              	.LVL114:
 144:lvgl/src/extra/widgets/calendar/lv_calendar.c ****         lv_snprintf(calendar->nums[i], sizeof(calendar->nums[0]), "%d", c);
 1021              		.loc 1 144 61 discriminator 3 view .LVU312
 1022 0100 F6B2     		uxtb	r6, r6
 1023              	.LVL115:
 1024              	.L60:
 144:lvgl/src/extra/widgets/calendar/lv_calendar.c ****         lv_snprintf(calendar->nums[i], sizeof(calendar->nums[0]), "%d", c);
 1025              		.loc 1 144 46 is_stmt 1 discriminator 1 view .LVU313
 1026 0102 292D     		cmp	r5, #41
 1027 0104 EBD9     		bls	.L61
 149:lvgl/src/extra/widgets/calendar/lv_calendar.c **** 
ARM GAS  C:\usertemp\cc9FftXf.s 			page 30


 1028              		.loc 1 149 5 view .LVU314
 1029 0106 2046     		mov	r0, r4
 1030 0108 FFF7FEFF 		bl	highlight_update
 1031              	.LVL116:
 152:lvgl/src/extra/widgets/calendar/lv_calendar.c ****         lv_btnmatrix_set_selected_btn(calendar->btnm, day_first + 7);
 1032              		.loc 1 152 5 view .LVU315
 152:lvgl/src/extra/widgets/calendar/lv_calendar.c ****         lv_btnmatrix_set_selected_btn(calendar->btnm, day_first + 7);
 1033              		.loc 1 152 8 is_stmt 0 view .LVU316
 1034 010c 606A     		ldr	r0, [r4, #36]
 1035 010e FFF7FEFF 		bl	lv_btnmatrix_get_selected_btn
 1036              	.LVL117:
 152:lvgl/src/extra/widgets/calendar/lv_calendar.c ****         lv_btnmatrix_set_selected_btn(calendar->btnm, day_first + 7);
 1037              		.loc 1 152 7 discriminator 1 view .LVU317
 1038 0112 4FF6FF73 		movw	r3, #65535
 1039 0116 9842     		cmp	r0, r3
 1040 0118 08D1     		bne	.L67
 1041              	.L62:
 156:lvgl/src/extra/widgets/calendar/lv_calendar.c **** 
 1042              		.loc 1 156 5 is_stmt 1 view .LVU318
 1043 011a 2046     		mov	r0, r4
 1044 011c FFF7FEFF 		bl	lv_obj_invalidate
 1045              	.LVL118:
 160:lvgl/src/extra/widgets/calendar/lv_calendar.c ****     for(i = 0; i < child_cnt; i++) {
 1046              		.loc 1 160 5 view .LVU319
 160:lvgl/src/extra/widgets/calendar/lv_calendar.c ****     for(i = 0; i < child_cnt; i++) {
 1047              		.loc 1 160 26 is_stmt 0 view .LVU320
 1048 0120 2046     		mov	r0, r4
 1049 0122 FFF7FEFF 		bl	lv_obj_get_child_cnt
 1050              	.LVL119:
 1051 0126 0646     		mov	r6, r0
 1052              	.LVL120:
 161:lvgl/src/extra/widgets/calendar/lv_calendar.c ****         lv_obj_t * child = lv_obj_get_child(obj, i);
 1053              		.loc 1 161 5 is_stmt 1 view .LVU321
 161:lvgl/src/extra/widgets/calendar/lv_calendar.c ****         lv_obj_t * child = lv_obj_get_child(obj, i);
 1054              		.loc 1 161 11 is_stmt 0 view .LVU322
 1055 0128 0025     		movs	r5, #0
 161:lvgl/src/extra/widgets/calendar/lv_calendar.c ****         lv_obj_t * child = lv_obj_get_child(obj, i);
 1056              		.loc 1 161 5 view .LVU323
 1057 012a 0BE0     		b	.L63
 1058              	.LVL121:
 1059              	.L67:
 153:lvgl/src/extra/widgets/calendar/lv_calendar.c ****     }
 1060              		.loc 1 153 9 is_stmt 1 view .LVU324
 1061 012c F91D     		adds	r1, r7, #7
 1062 012e 89B2     		uxth	r1, r1
 1063 0130 606A     		ldr	r0, [r4, #36]
 1064 0132 FFF7FEFF 		bl	lv_btnmatrix_set_selected_btn
 1065              	.LVL122:
 1066 0136 F0E7     		b	.L62
 1067              	.LVL123:
 1068              	.L69:
 1069              	.LBB4:
 164:lvgl/src/extra/widgets/calendar/lv_calendar.c ****     }
 1070              		.loc 1 164 9 view .LVU325
 1071 0138 2246     		mov	r2, r4
 1072 013a 1C21     		movs	r1, #28
 1073 013c FFF7FEFF 		bl	lv_event_send
ARM GAS  C:\usertemp\cc9FftXf.s 			page 31


 1074              	.LVL124:
 1075              	.L64:
 164:lvgl/src/extra/widgets/calendar/lv_calendar.c ****     }
 1076              		.loc 1 164 9 is_stmt 0 view .LVU326
 1077              	.LBE4:
 161:lvgl/src/extra/widgets/calendar/lv_calendar.c ****         lv_obj_t * child = lv_obj_get_child(obj, i);
 1078              		.loc 1 161 32 is_stmt 1 discriminator 2 view .LVU327
 1079 0140 0135     		adds	r5, r5, #1
 1080              	.LVL125:
 161:lvgl/src/extra/widgets/calendar/lv_calendar.c ****         lv_obj_t * child = lv_obj_get_child(obj, i);
 1081              		.loc 1 161 32 is_stmt 0 discriminator 2 view .LVU328
 1082 0142 EDB2     		uxtb	r5, r5
 1083              	.LVL126:
 1084              	.L63:
 161:lvgl/src/extra/widgets/calendar/lv_calendar.c ****         lv_obj_t * child = lv_obj_get_child(obj, i);
 1085              		.loc 1 161 18 is_stmt 1 discriminator 1 view .LVU329
 1086 0144 B542     		cmp	r5, r6
 1087 0146 07D2     		bcs	.L68
 1088              	.LBB5:
 162:lvgl/src/extra/widgets/calendar/lv_calendar.c ****         if(child == calendar->btnm) continue;
 1089              		.loc 1 162 9 view .LVU330
 162:lvgl/src/extra/widgets/calendar/lv_calendar.c ****         if(child == calendar->btnm) continue;
 1090              		.loc 1 162 28 is_stmt 0 view .LVU331
 1091 0148 2946     		mov	r1, r5
 1092 014a 2046     		mov	r0, r4
 1093 014c FFF7FEFF 		bl	lv_obj_get_child
 1094              	.LVL127:
 163:lvgl/src/extra/widgets/calendar/lv_calendar.c ****         lv_event_send(child, LV_EVENT_VALUE_CHANGED, obj);
 1095              		.loc 1 163 9 is_stmt 1 view .LVU332
 163:lvgl/src/extra/widgets/calendar/lv_calendar.c ****         lv_event_send(child, LV_EVENT_VALUE_CHANGED, obj);
 1096              		.loc 1 163 29 is_stmt 0 view .LVU333
 1097 0150 636A     		ldr	r3, [r4, #36]
 163:lvgl/src/extra/widgets/calendar/lv_calendar.c ****         lv_event_send(child, LV_EVENT_VALUE_CHANGED, obj);
 1098              		.loc 1 163 11 view .LVU334
 1099 0152 8342     		cmp	r3, r0
 1100 0154 F0D1     		bne	.L69
 1101 0156 F3E7     		b	.L64
 1102              	.LVL128:
 1103              	.L68:
 163:lvgl/src/extra/widgets/calendar/lv_calendar.c ****         lv_event_send(child, LV_EVENT_VALUE_CHANGED, obj);
 1104              		.loc 1 163 11 view .LVU335
 1105              	.LBE5:
 166:lvgl/src/extra/widgets/calendar/lv_calendar.c **** 
 1106              		.loc 1 166 1 view .LVU336
 1107 0158 02B0     		add	sp, sp, #8
 1108              	.LCFI10:
 1109              		.cfi_def_cfa_offset 32
 1110              		@ sp needed
 1111 015a BDE8F087 		pop	{r4, r5, r6, r7, r8, r9, r10, pc}
 1112              	.LVL129:
 1113              	.L71:
 166:lvgl/src/extra/widgets/calendar/lv_calendar.c **** 
 1114              		.loc 1 166 1 view .LVU337
 1115 015e 00BF     		.align	2
 1116              	.L70:
 1117 0160 00000000 		.word	.LC0
 1118              		.cfi_endproc
ARM GAS  C:\usertemp\cc9FftXf.s 			page 32


 1119              	.LFE200:
 1121              		.section	.rodata.lv_calendar_constructor.str1.4,"aMS",%progbits,1
 1122              		.align	2
 1123              	.LC1:
 1124 0000 0A00     		.ascii	"\012\000"
 1125 0002 0000     		.align	2
 1126              	.LC2:
 1127 0004 00       		.ascii	"\000"
 1128              		.section	.text.lv_calendar_constructor,"ax",%progbits
 1129              		.align	1
 1130              		.syntax unified
 1131              		.thumb
 1132              		.thumb_func
 1134              	lv_calendar_constructor:
 1135              	.LVL130:
 1136              	.LFB207:
 241:lvgl/src/extra/widgets/calendar/lv_calendar.c ****     LV_UNUSED(class_p);
 1137              		.loc 1 241 1 is_stmt 1 view -0
 1138              		.cfi_startproc
 1139              		@ args = 0, pretend = 0, frame = 0
 1140              		@ frame_needed = 0, uses_anonymous_args = 0
 241:lvgl/src/extra/widgets/calendar/lv_calendar.c ****     LV_UNUSED(class_p);
 1141              		.loc 1 241 1 is_stmt 0 view .LVU339
 1142 0000 38B5     		push	{r3, r4, r5, lr}
 1143              	.LCFI11:
 1144              		.cfi_def_cfa_offset 16
 1145              		.cfi_offset 3, -16
 1146              		.cfi_offset 4, -12
 1147              		.cfi_offset 5, -8
 1148              		.cfi_offset 14, -4
 1149 0002 0C46     		mov	r4, r1
 242:lvgl/src/extra/widgets/calendar/lv_calendar.c ****     lv_calendar_t * calendar = (lv_calendar_t *)obj;
 1150              		.loc 1 242 5 is_stmt 1 view .LVU340
 243:lvgl/src/extra/widgets/calendar/lv_calendar.c **** 
 1151              		.loc 1 243 5 view .LVU341
 1152              	.LVL131:
 246:lvgl/src/extra/widgets/calendar/lv_calendar.c ****     calendar->today.month = 1;
 1153              		.loc 1 246 5 view .LVU342
 246:lvgl/src/extra/widgets/calendar/lv_calendar.c ****     calendar->today.month = 1;
 1154              		.loc 1 246 27 is_stmt 0 view .LVU343
 1155 0004 40F2E472 		movw	r2, #2020
 1156 0008 0A85     		strh	r2, [r1, #40]	@ movhi
 247:lvgl/src/extra/widgets/calendar/lv_calendar.c ****     calendar->today.day   = 1;
 1157              		.loc 1 247 5 is_stmt 1 view .LVU344
 247:lvgl/src/extra/widgets/calendar/lv_calendar.c ****     calendar->today.day   = 1;
 1158              		.loc 1 247 27 is_stmt 0 view .LVU345
 1159 000a 0123     		movs	r3, #1
 1160 000c 81F82A30 		strb	r3, [r1, #42]
 248:lvgl/src/extra/widgets/calendar/lv_calendar.c **** 
 1161              		.loc 1 248 5 is_stmt 1 view .LVU346
 248:lvgl/src/extra/widgets/calendar/lv_calendar.c **** 
 1162              		.loc 1 248 27 is_stmt 0 view .LVU347
 1163 0010 81F82B30 		strb	r3, [r1, #43]
 250:lvgl/src/extra/widgets/calendar/lv_calendar.c ****     calendar->showed_date.month = 1;
 1164              		.loc 1 250 5 is_stmt 1 view .LVU348
 250:lvgl/src/extra/widgets/calendar/lv_calendar.c ****     calendar->showed_date.month = 1;
 1165              		.loc 1 250 33 is_stmt 0 view .LVU349
ARM GAS  C:\usertemp\cc9FftXf.s 			page 33


 1166 0014 8A85     		strh	r2, [r1, #44]	@ movhi
 251:lvgl/src/extra/widgets/calendar/lv_calendar.c ****     calendar->showed_date.day   = 1;
 1167              		.loc 1 251 5 is_stmt 1 view .LVU350
 251:lvgl/src/extra/widgets/calendar/lv_calendar.c ****     calendar->showed_date.day   = 1;
 1168              		.loc 1 251 33 is_stmt 0 view .LVU351
 1169 0016 81F82E30 		strb	r3, [r1, #46]
 252:lvgl/src/extra/widgets/calendar/lv_calendar.c **** 
 1170              		.loc 1 252 5 is_stmt 1 view .LVU352
 252:lvgl/src/extra/widgets/calendar/lv_calendar.c **** 
 1171              		.loc 1 252 33 is_stmt 0 view .LVU353
 1172 001a 81F82F30 		strb	r3, [r1, #47]
 254:lvgl/src/extra/widgets/calendar/lv_calendar.c ****     calendar->highlighted_dates_num  = 0;
 1173              		.loc 1 254 5 is_stmt 1 view .LVU354
 254:lvgl/src/extra/widgets/calendar/lv_calendar.c ****     calendar->highlighted_dates_num  = 0;
 1174              		.loc 1 254 38 is_stmt 0 view .LVU355
 1175 001e 0025     		movs	r5, #0
 1176 0020 0D63     		str	r5, [r1, #48]
 255:lvgl/src/extra/widgets/calendar/lv_calendar.c **** 
 1177              		.loc 1 255 5 is_stmt 1 view .LVU356
 255:lvgl/src/extra/widgets/calendar/lv_calendar.c **** 
 1178              		.loc 1 255 38 is_stmt 0 view .LVU357
 1179 0022 8D86     		strh	r5, [r1, #52]	@ movhi
 257:lvgl/src/extra/widgets/calendar/lv_calendar.c ****     uint8_t i;
 1180              		.loc 1 257 5 is_stmt 1 view .LVU358
 1181 0024 A821     		movs	r1, #168
 1182              	.LVL132:
 257:lvgl/src/extra/widgets/calendar/lv_calendar.c ****     uint8_t i;
 1183              		.loc 1 257 5 is_stmt 0 view .LVU359
 1184 0026 04F58C70 		add	r0, r4, #280
 1185              	.LVL133:
 257:lvgl/src/extra/widgets/calendar/lv_calendar.c ****     uint8_t i;
 1186              		.loc 1 257 5 view .LVU360
 1187 002a FFF7FEFF 		bl	lv_memset_00
 1188              	.LVL134:
 258:lvgl/src/extra/widgets/calendar/lv_calendar.c ****     uint8_t j = 0;
 1189              		.loc 1 258 5 is_stmt 1 view .LVU361
 259:lvgl/src/extra/widgets/calendar/lv_calendar.c ****     for(i = 0; i < 8 * 7; i++) {
 1190              		.loc 1 259 5 view .LVU362
 260:lvgl/src/extra/widgets/calendar/lv_calendar.c ****         /*Every 8th string is "\n"*/
 1191              		.loc 1 260 5 view .LVU363
 259:lvgl/src/extra/widgets/calendar/lv_calendar.c ****     for(i = 0; i < 8 * 7; i++) {
 1192              		.loc 1 259 13 is_stmt 0 view .LVU364
 1193 002e 2946     		mov	r1, r5
 260:lvgl/src/extra/widgets/calendar/lv_calendar.c ****         /*Every 8th string is "\n"*/
 1194              		.loc 1 260 11 view .LVU365
 1195 0030 2B46     		mov	r3, r5
 260:lvgl/src/extra/widgets/calendar/lv_calendar.c ****         /*Every 8th string is "\n"*/
 1196              		.loc 1 260 5 view .LVU366
 1197 0032 18E0     		b	.L73
 1198              	.LVL135:
 1199              	.L75:
 265:lvgl/src/extra/widgets/calendar/lv_calendar.c ****             calendar->map[i] = day_names_def[i];
 1200              		.loc 1 265 14 is_stmt 1 view .LVU367
 265:lvgl/src/extra/widgets/calendar/lv_calendar.c ****             calendar->map[i] = day_names_def[i];
 1201              		.loc 1 265 16 is_stmt 0 view .LVU368
 1202 0034 072B     		cmp	r3, #7
 1203 0036 0DD9     		bls	.L74
ARM GAS  C:\usertemp\cc9FftXf.s 			page 34


 269:lvgl/src/extra/widgets/calendar/lv_calendar.c ****             calendar->map[i] = calendar->nums[j];
 1204              		.loc 1 269 13 is_stmt 1 view .LVU369
 269:lvgl/src/extra/widgets/calendar/lv_calendar.c ****             calendar->map[i] = calendar->nums[j];
 1205              		.loc 1 269 34 is_stmt 0 view .LVU370
 1206 0038 01F14600 		add	r0, r1, #70
 1207 003c 4FF0780C 		mov	ip, #120
 1208 0040 04F820C0 		strb	ip, [r4, r0, lsl #2]
 270:lvgl/src/extra/widgets/calendar/lv_calendar.c ****             j++;
 1209              		.loc 1 270 13 is_stmt 1 view .LVU371
 270:lvgl/src/extra/widgets/calendar/lv_calendar.c ****             j++;
 1210              		.loc 1 270 32 is_stmt 0 view .LVU372
 1211 0044 04EB8000 		add	r0, r4, r0, lsl #2
 270:lvgl/src/extra/widgets/calendar/lv_calendar.c ****             j++;
 1212              		.loc 1 270 30 view .LVU373
 1213 0048 0E32     		adds	r2, r2, #14
 1214 004a 44F82200 		str	r0, [r4, r2, lsl #2]
 271:lvgl/src/extra/widgets/calendar/lv_calendar.c ****         }
 1215              		.loc 1 271 13 is_stmt 1 view .LVU374
 271:lvgl/src/extra/widgets/calendar/lv_calendar.c ****         }
 1216              		.loc 1 271 14 is_stmt 0 view .LVU375
 1217 004e 0131     		adds	r1, r1, #1
 1218              	.LVL136:
 271:lvgl/src/extra/widgets/calendar/lv_calendar.c ****         }
 1219              		.loc 1 271 14 view .LVU376
 1220 0050 C9B2     		uxtb	r1, r1
 1221              	.LVL137:
 271:lvgl/src/extra/widgets/calendar/lv_calendar.c ****         }
 1222              		.loc 1 271 14 view .LVU377
 1223 0052 06E0     		b	.L76
 1224              	.L74:
 266:lvgl/src/extra/widgets/calendar/lv_calendar.c ****         }
 1225              		.loc 1 266 13 is_stmt 1 view .LVU378
 266:lvgl/src/extra/widgets/calendar/lv_calendar.c ****         }
 1226              		.loc 1 266 45 is_stmt 0 view .LVU379
 1227 0054 274A     		ldr	r2, .L81
 1228 0056 52F82300 		ldr	r0, [r2, r3, lsl #2]
 266:lvgl/src/extra/widgets/calendar/lv_calendar.c ****         }
 1229              		.loc 1 266 30 view .LVU380
 1230 005a 03F10E02 		add	r2, r3, #14
 1231 005e 44F82200 		str	r0, [r4, r2, lsl #2]
 1232              	.L76:
 260:lvgl/src/extra/widgets/calendar/lv_calendar.c ****         /*Every 8th string is "\n"*/
 1233              		.loc 1 260 28 is_stmt 1 discriminator 2 view .LVU381
 1234 0062 0133     		adds	r3, r3, #1
 1235              	.LVL138:
 260:lvgl/src/extra/widgets/calendar/lv_calendar.c ****         /*Every 8th string is "\n"*/
 1236              		.loc 1 260 28 is_stmt 0 discriminator 2 view .LVU382
 1237 0064 DBB2     		uxtb	r3, r3
 1238              	.LVL139:
 1239              	.L73:
 260:lvgl/src/extra/widgets/calendar/lv_calendar.c ****         /*Every 8th string is "\n"*/
 1240              		.loc 1 260 18 is_stmt 1 discriminator 1 view .LVU383
 1241 0066 372B     		cmp	r3, #55
 1242 0068 0CD8     		bhi	.L80
 262:lvgl/src/extra/widgets/calendar/lv_calendar.c ****             calendar->map[i] = "\n";
 1243              		.loc 1 262 9 view .LVU384
 262:lvgl/src/extra/widgets/calendar/lv_calendar.c ****             calendar->map[i] = "\n";
ARM GAS  C:\usertemp\cc9FftXf.s 			page 35


 1244              		.loc 1 262 11 is_stmt 0 view .LVU385
 1245 006a 002B     		cmp	r3, #0
 1246 006c F2D0     		beq	.L74
 262:lvgl/src/extra/widgets/calendar/lv_calendar.c ****             calendar->map[i] = "\n";
 1247              		.loc 1 262 25 discriminator 1 view .LVU386
 1248 006e 1A46     		mov	r2, r3
 1249 0070 581C     		adds	r0, r3, #1
 262:lvgl/src/extra/widgets/calendar/lv_calendar.c ****             calendar->map[i] = "\n";
 1250              		.loc 1 262 19 discriminator 1 view .LVU387
 1251 0072 10F0070F 		tst	r0, #7
 1252 0076 DDD1     		bne	.L75
 263:lvgl/src/extra/widgets/calendar/lv_calendar.c ****         }
 1253              		.loc 1 263 13 is_stmt 1 view .LVU388
 263:lvgl/src/extra/widgets/calendar/lv_calendar.c ****         }
 1254              		.loc 1 263 30 is_stmt 0 view .LVU389
 1255 0078 03F10E02 		add	r2, r3, #14
 1256 007c 1E48     		ldr	r0, .L81+4
 1257 007e 44F82200 		str	r0, [r4, r2, lsl #2]
 1258 0082 EEE7     		b	.L76
 1259              	.L80:
 274:lvgl/src/extra/widgets/calendar/lv_calendar.c **** 
 1260              		.loc 1 274 5 is_stmt 1 view .LVU390
 274:lvgl/src/extra/widgets/calendar/lv_calendar.c **** 
 1261              		.loc 1 274 30 is_stmt 0 view .LVU391
 1262 0084 1D4B     		ldr	r3, .L81+8
 1263              	.LVL140:
 274:lvgl/src/extra/widgets/calendar/lv_calendar.c **** 
 1264              		.loc 1 274 30 view .LVU392
 1265 0086 C4F81431 		str	r3, [r4, #276]
 276:lvgl/src/extra/widgets/calendar/lv_calendar.c ****     lv_btnmatrix_set_map(calendar->btnm, calendar->map);
 1266              		.loc 1 276 5 is_stmt 1 view .LVU393
 276:lvgl/src/extra/widgets/calendar/lv_calendar.c ****     lv_btnmatrix_set_map(calendar->btnm, calendar->map);
 1267              		.loc 1 276 22 is_stmt 0 view .LVU394
 1268 008a 2046     		mov	r0, r4
 1269 008c FFF7FEFF 		bl	lv_btnmatrix_create
 1270              	.LVL141:
 276:lvgl/src/extra/widgets/calendar/lv_calendar.c ****     lv_btnmatrix_set_map(calendar->btnm, calendar->map);
 1271              		.loc 1 276 20 discriminator 1 view .LVU395
 1272 0090 6062     		str	r0, [r4, #36]
 277:lvgl/src/extra/widgets/calendar/lv_calendar.c ****     lv_btnmatrix_set_btn_ctrl_all(calendar->btnm, LV_BTNMATRIX_CTRL_CLICK_TRIG | LV_BTNMATRIX_CTRL_
 1273              		.loc 1 277 5 is_stmt 1 view .LVU396
 1274 0092 04F13801 		add	r1, r4, #56
 1275 0096 FFF7FEFF 		bl	lv_btnmatrix_set_map
 1276              	.LVL142:
 278:lvgl/src/extra/widgets/calendar/lv_calendar.c ****     lv_obj_add_event_cb(calendar->btnm, draw_part_begin_event_cb, LV_EVENT_DRAW_PART_BEGIN, NULL);
 1277              		.loc 1 278 5 view .LVU397
 1278 009a 4FF48871 		mov	r1, #272
 1279 009e 606A     		ldr	r0, [r4, #36]
 1280 00a0 FFF7FEFF 		bl	lv_btnmatrix_set_btn_ctrl_all
 1281              	.LVL143:
 279:lvgl/src/extra/widgets/calendar/lv_calendar.c ****     lv_obj_set_width(calendar->btnm, lv_pct(100));
 1282              		.loc 1 279 5 view .LVU398
 1283 00a4 0023     		movs	r3, #0
 1284 00a6 1A22     		movs	r2, #26
 1285 00a8 1549     		ldr	r1, .L81+12
 1286 00aa 606A     		ldr	r0, [r4, #36]
 1287 00ac FFF7FEFF 		bl	lv_obj_add_event_cb
ARM GAS  C:\usertemp\cc9FftXf.s 			page 36


 1288              	.LVL144:
 280:lvgl/src/extra/widgets/calendar/lv_calendar.c **** 
 1289              		.loc 1 280 5 view .LVU399
 280:lvgl/src/extra/widgets/calendar/lv_calendar.c **** 
 1290              		.loc 1 280 5 is_stmt 0 discriminator 1 view .LVU400
 1291 00b0 42F26401 		movw	r1, #8292
 1292 00b4 606A     		ldr	r0, [r4, #36]
 1293 00b6 FFF7FEFF 		bl	lv_obj_set_width
 1294              	.LVL145:
 282:lvgl/src/extra/widgets/calendar/lv_calendar.c ****     lv_obj_set_flex_grow(calendar->btnm, 1);
 1295              		.loc 1 282 5 is_stmt 1 view .LVU401
 1296 00ba 0121     		movs	r1, #1
 1297 00bc 2046     		mov	r0, r4
 1298 00be FFF7FEFF 		bl	lv_obj_set_flex_flow
 1299              	.LVL146:
 283:lvgl/src/extra/widgets/calendar/lv_calendar.c **** 
 1300              		.loc 1 283 5 view .LVU402
 1301 00c2 0121     		movs	r1, #1
 1302 00c4 606A     		ldr	r0, [r4, #36]
 1303 00c6 FFF7FEFF 		bl	lv_obj_set_flex_grow
 1304              	.LVL147:
 285:lvgl/src/extra/widgets/calendar/lv_calendar.c ****     lv_calendar_set_today_date(obj, calendar->today.year, calendar->today.month, calendar->today.da
 1305              		.loc 1 285 5 view .LVU403
 1306 00ca 94F92E20 		ldrsb	r2, [r4, #46]
 1307 00ce A18D     		ldrh	r1, [r4, #44]
 1308 00d0 2046     		mov	r0, r4
 1309 00d2 FFF7FEFF 		bl	lv_calendar_set_showed_date
 1310              	.LVL148:
 286:lvgl/src/extra/widgets/calendar/lv_calendar.c **** 
 1311              		.loc 1 286 5 view .LVU404
 1312 00d6 94F92B30 		ldrsb	r3, [r4, #43]
 1313 00da 94F92A20 		ldrsb	r2, [r4, #42]
 1314 00de 218D     		ldrh	r1, [r4, #40]
 1315 00e0 2046     		mov	r0, r4
 1316 00e2 FFF7FEFF 		bl	lv_calendar_set_today_date
 1317              	.LVL149:
 288:lvgl/src/extra/widgets/calendar/lv_calendar.c **** }
 1318              		.loc 1 288 5 view .LVU405
 1319 00e6 4FF48041 		mov	r1, #16384
 1320 00ea 606A     		ldr	r0, [r4, #36]
 1321 00ec FFF7FEFF 		bl	lv_obj_add_flag
 1322              	.LVL150:
 289:lvgl/src/extra/widgets/calendar/lv_calendar.c **** 
 1323              		.loc 1 289 1 is_stmt 0 view .LVU406
 1324 00f0 38BD     		pop	{r3, r4, r5, pc}
 1325              	.LVL151:
 1326              	.L82:
 289:lvgl/src/extra/widgets/calendar/lv_calendar.c **** 
 1327              		.loc 1 289 1 view .LVU407
 1328 00f2 00BF     		.align	2
 1329              	.L81:
 1330 00f4 00000000 		.word	day_names_def
 1331 00f8 00000000 		.word	.LC1
 1332 00fc 04000000 		.word	.LC2
 1333 0100 00000000 		.word	draw_part_begin_event_cb
 1334              		.cfi_endproc
 1335              	.LFE207:
ARM GAS  C:\usertemp\cc9FftXf.s 			page 37


 1337              		.section	.text.lv_calendar_get_btnmatrix,"ax",%progbits
 1338              		.align	1
 1339              		.global	lv_calendar_get_btnmatrix
 1340              		.syntax unified
 1341              		.thumb
 1342              		.thumb_func
 1344              	lv_calendar_get_btnmatrix:
 1345              	.LVL152:
 1346              	.LFB201:
 173:lvgl/src/extra/widgets/calendar/lv_calendar.c ****     LV_ASSERT_OBJ(obj, MY_CLASS);
 1347              		.loc 1 173 1 is_stmt 1 view -0
 1348              		.cfi_startproc
 1349              		@ args = 0, pretend = 0, frame = 0
 1350              		@ frame_needed = 0, uses_anonymous_args = 0
 1351              		@ link register save eliminated.
 174:lvgl/src/extra/widgets/calendar/lv_calendar.c ****     const lv_calendar_t * calendar = (lv_calendar_t *)obj;
 1352              		.loc 1 174 5 view .LVU409
 174:lvgl/src/extra/widgets/calendar/lv_calendar.c ****     const lv_calendar_t * calendar = (lv_calendar_t *)obj;
 1353              		.loc 1 174 5 view .LVU410
 174:lvgl/src/extra/widgets/calendar/lv_calendar.c ****     const lv_calendar_t * calendar = (lv_calendar_t *)obj;
 1354              		.loc 1 174 5 view .LVU411
 175:lvgl/src/extra/widgets/calendar/lv_calendar.c ****     return calendar->btnm;
 1355              		.loc 1 175 5 view .LVU412
 176:lvgl/src/extra/widgets/calendar/lv_calendar.c **** }
 1356              		.loc 1 176 5 view .LVU413
 177:lvgl/src/extra/widgets/calendar/lv_calendar.c **** 
 1357              		.loc 1 177 1 is_stmt 0 view .LVU414
 1358 0000 406A     		ldr	r0, [r0, #36]
 1359              	.LVL153:
 177:lvgl/src/extra/widgets/calendar/lv_calendar.c **** 
 1360              		.loc 1 177 1 view .LVU415
 1361 0002 7047     		bx	lr
 1362              		.cfi_endproc
 1363              	.LFE201:
 1365              		.section	.text.lv_calendar_get_today_date,"ax",%progbits
 1366              		.align	1
 1367              		.global	lv_calendar_get_today_date
 1368              		.syntax unified
 1369              		.thumb
 1370              		.thumb_func
 1372              	lv_calendar_get_today_date:
 1373              	.LVL154:
 1374              	.LFB202:
 180:lvgl/src/extra/widgets/calendar/lv_calendar.c ****     LV_ASSERT_OBJ(obj, MY_CLASS);
 1375              		.loc 1 180 1 is_stmt 1 view -0
 1376              		.cfi_startproc
 1377              		@ args = 0, pretend = 0, frame = 0
 1378              		@ frame_needed = 0, uses_anonymous_args = 0
 1379              		@ link register save eliminated.
 181:lvgl/src/extra/widgets/calendar/lv_calendar.c ****     const lv_calendar_t * calendar = (lv_calendar_t *)obj;
 1380              		.loc 1 181 5 view .LVU417
 181:lvgl/src/extra/widgets/calendar/lv_calendar.c ****     const lv_calendar_t * calendar = (lv_calendar_t *)obj;
 1381              		.loc 1 181 5 view .LVU418
 181:lvgl/src/extra/widgets/calendar/lv_calendar.c ****     const lv_calendar_t * calendar = (lv_calendar_t *)obj;
 1382              		.loc 1 181 5 view .LVU419
 182:lvgl/src/extra/widgets/calendar/lv_calendar.c **** 
 1383              		.loc 1 182 5 view .LVU420
ARM GAS  C:\usertemp\cc9FftXf.s 			page 38


 184:lvgl/src/extra/widgets/calendar/lv_calendar.c **** }
 1384              		.loc 1 184 5 view .LVU421
 185:lvgl/src/extra/widgets/calendar/lv_calendar.c **** 
 1385              		.loc 1 185 1 is_stmt 0 view .LVU422
 1386 0000 2830     		adds	r0, r0, #40
 1387              	.LVL155:
 185:lvgl/src/extra/widgets/calendar/lv_calendar.c **** 
 1388              		.loc 1 185 1 view .LVU423
 1389 0002 7047     		bx	lr
 1390              		.cfi_endproc
 1391              	.LFE202:
 1393              		.section	.text.lv_calendar_get_showed_date,"ax",%progbits
 1394              		.align	1
 1395              		.global	lv_calendar_get_showed_date
 1396              		.syntax unified
 1397              		.thumb
 1398              		.thumb_func
 1400              	lv_calendar_get_showed_date:
 1401              	.LVL156:
 1402              	.LFB203:
 188:lvgl/src/extra/widgets/calendar/lv_calendar.c ****     LV_ASSERT_OBJ(obj, MY_CLASS);
 1403              		.loc 1 188 1 is_stmt 1 view -0
 1404              		.cfi_startproc
 1405              		@ args = 0, pretend = 0, frame = 0
 1406              		@ frame_needed = 0, uses_anonymous_args = 0
 1407              		@ link register save eliminated.
 189:lvgl/src/extra/widgets/calendar/lv_calendar.c ****     const lv_calendar_t * calendar = (lv_calendar_t *)obj;
 1408              		.loc 1 189 5 view .LVU425
 189:lvgl/src/extra/widgets/calendar/lv_calendar.c ****     const lv_calendar_t * calendar = (lv_calendar_t *)obj;
 1409              		.loc 1 189 5 view .LVU426
 189:lvgl/src/extra/widgets/calendar/lv_calendar.c ****     const lv_calendar_t * calendar = (lv_calendar_t *)obj;
 1410              		.loc 1 189 5 view .LVU427
 190:lvgl/src/extra/widgets/calendar/lv_calendar.c **** 
 1411              		.loc 1 190 5 view .LVU428
 192:lvgl/src/extra/widgets/calendar/lv_calendar.c **** }
 1412              		.loc 1 192 5 view .LVU429
 193:lvgl/src/extra/widgets/calendar/lv_calendar.c **** 
 1413              		.loc 1 193 1 is_stmt 0 view .LVU430
 1414 0000 2C30     		adds	r0, r0, #44
 1415              	.LVL157:
 193:lvgl/src/extra/widgets/calendar/lv_calendar.c **** 
 1416              		.loc 1 193 1 view .LVU431
 1417 0002 7047     		bx	lr
 1418              		.cfi_endproc
 1419              	.LFE203:
 1421              		.section	.text.lv_calendar_get_highlighted_dates,"ax",%progbits
 1422              		.align	1
 1423              		.global	lv_calendar_get_highlighted_dates
 1424              		.syntax unified
 1425              		.thumb
 1426              		.thumb_func
 1428              	lv_calendar_get_highlighted_dates:
 1429              	.LVL158:
 1430              	.LFB204:
 196:lvgl/src/extra/widgets/calendar/lv_calendar.c ****     LV_ASSERT_OBJ(obj, MY_CLASS);
 1431              		.loc 1 196 1 is_stmt 1 view -0
 1432              		.cfi_startproc
ARM GAS  C:\usertemp\cc9FftXf.s 			page 39


 1433              		@ args = 0, pretend = 0, frame = 0
 1434              		@ frame_needed = 0, uses_anonymous_args = 0
 1435              		@ link register save eliminated.
 197:lvgl/src/extra/widgets/calendar/lv_calendar.c ****     lv_calendar_t * calendar = (lv_calendar_t *)obj;
 1436              		.loc 1 197 5 view .LVU433
 197:lvgl/src/extra/widgets/calendar/lv_calendar.c ****     lv_calendar_t * calendar = (lv_calendar_t *)obj;
 1437              		.loc 1 197 5 view .LVU434
 197:lvgl/src/extra/widgets/calendar/lv_calendar.c ****     lv_calendar_t * calendar = (lv_calendar_t *)obj;
 1438              		.loc 1 197 5 view .LVU435
 198:lvgl/src/extra/widgets/calendar/lv_calendar.c **** 
 1439              		.loc 1 198 5 view .LVU436
 200:lvgl/src/extra/widgets/calendar/lv_calendar.c **** }
 1440              		.loc 1 200 5 view .LVU437
 201:lvgl/src/extra/widgets/calendar/lv_calendar.c **** 
 1441              		.loc 1 201 1 is_stmt 0 view .LVU438
 1442 0000 006B     		ldr	r0, [r0, #48]
 1443              	.LVL159:
 201:lvgl/src/extra/widgets/calendar/lv_calendar.c **** 
 1444              		.loc 1 201 1 view .LVU439
 1445 0002 7047     		bx	lr
 1446              		.cfi_endproc
 1447              	.LFE204:
 1449              		.section	.text.lv_calendar_get_highlighted_dates_num,"ax",%progbits
 1450              		.align	1
 1451              		.global	lv_calendar_get_highlighted_dates_num
 1452              		.syntax unified
 1453              		.thumb
 1454              		.thumb_func
 1456              	lv_calendar_get_highlighted_dates_num:
 1457              	.LVL160:
 1458              	.LFB205:
 204:lvgl/src/extra/widgets/calendar/lv_calendar.c ****     LV_ASSERT_OBJ(obj, MY_CLASS);
 1459              		.loc 1 204 1 is_stmt 1 view -0
 1460              		.cfi_startproc
 1461              		@ args = 0, pretend = 0, frame = 0
 1462              		@ frame_needed = 0, uses_anonymous_args = 0
 1463              		@ link register save eliminated.
 205:lvgl/src/extra/widgets/calendar/lv_calendar.c ****     lv_calendar_t * calendar = (lv_calendar_t *)obj;
 1464              		.loc 1 205 5 view .LVU441
 205:lvgl/src/extra/widgets/calendar/lv_calendar.c ****     lv_calendar_t * calendar = (lv_calendar_t *)obj;
 1465              		.loc 1 205 5 view .LVU442
 205:lvgl/src/extra/widgets/calendar/lv_calendar.c ****     lv_calendar_t * calendar = (lv_calendar_t *)obj;
 1466              		.loc 1 205 5 view .LVU443
 206:lvgl/src/extra/widgets/calendar/lv_calendar.c **** 
 1467              		.loc 1 206 5 view .LVU444
 208:lvgl/src/extra/widgets/calendar/lv_calendar.c **** }
 1468              		.loc 1 208 5 view .LVU445
 209:lvgl/src/extra/widgets/calendar/lv_calendar.c **** 
 1469              		.loc 1 209 1 is_stmt 0 view .LVU446
 1470 0000 808E     		ldrh	r0, [r0, #52]
 1471              	.LVL161:
 209:lvgl/src/extra/widgets/calendar/lv_calendar.c **** 
 1472              		.loc 1 209 1 view .LVU447
 1473 0002 7047     		bx	lr
 1474              		.cfi_endproc
 1475              	.LFE205:
 1477              		.section	.text.lv_calendar_get_pressed_date,"ax",%progbits
ARM GAS  C:\usertemp\cc9FftXf.s 			page 40


 1478              		.align	1
 1479              		.global	lv_calendar_get_pressed_date
 1480              		.syntax unified
 1481              		.thumb
 1482              		.thumb_func
 1484              	lv_calendar_get_pressed_date:
 1485              	.LVL162:
 1486              	.LFB206:
 212:lvgl/src/extra/widgets/calendar/lv_calendar.c ****     LV_ASSERT_OBJ(obj, MY_CLASS);
 1487              		.loc 1 212 1 is_stmt 1 view -0
 1488              		.cfi_startproc
 1489              		@ args = 0, pretend = 0, frame = 0
 1490              		@ frame_needed = 0, uses_anonymous_args = 0
 212:lvgl/src/extra/widgets/calendar/lv_calendar.c ****     LV_ASSERT_OBJ(obj, MY_CLASS);
 1491              		.loc 1 212 1 is_stmt 0 view .LVU449
 1492 0000 70B5     		push	{r4, r5, r6, lr}
 1493              	.LCFI12:
 1494              		.cfi_def_cfa_offset 16
 1495              		.cfi_offset 4, -16
 1496              		.cfi_offset 5, -12
 1497              		.cfi_offset 6, -8
 1498              		.cfi_offset 14, -4
 1499 0002 0546     		mov	r5, r0
 1500 0004 0C46     		mov	r4, r1
 213:lvgl/src/extra/widgets/calendar/lv_calendar.c ****     lv_calendar_t * calendar = (lv_calendar_t *)obj;
 1501              		.loc 1 213 5 is_stmt 1 view .LVU450
 213:lvgl/src/extra/widgets/calendar/lv_calendar.c ****     lv_calendar_t * calendar = (lv_calendar_t *)obj;
 1502              		.loc 1 213 5 view .LVU451
 213:lvgl/src/extra/widgets/calendar/lv_calendar.c ****     lv_calendar_t * calendar = (lv_calendar_t *)obj;
 1503              		.loc 1 213 5 view .LVU452
 214:lvgl/src/extra/widgets/calendar/lv_calendar.c **** 
 1504              		.loc 1 214 5 view .LVU453
 1505              	.LVL163:
 216:lvgl/src/extra/widgets/calendar/lv_calendar.c ****     if(d == LV_BTNMATRIX_BTN_NONE) {
 1506              		.loc 1 216 5 view .LVU454
 216:lvgl/src/extra/widgets/calendar/lv_calendar.c ****     if(d == LV_BTNMATRIX_BTN_NONE) {
 1507              		.loc 1 216 18 is_stmt 0 view .LVU455
 1508 0006 406A     		ldr	r0, [r0, #36]
 1509              	.LVL164:
 216:lvgl/src/extra/widgets/calendar/lv_calendar.c ****     if(d == LV_BTNMATRIX_BTN_NONE) {
 1510              		.loc 1 216 18 view .LVU456
 1511 0008 FFF7FEFF 		bl	lv_btnmatrix_get_selected_btn
 1512              	.LVL165:
 217:lvgl/src/extra/widgets/calendar/lv_calendar.c ****         date->year = 0;
 1513              		.loc 1 217 5 is_stmt 1 view .LVU457
 217:lvgl/src/extra/widgets/calendar/lv_calendar.c ****         date->year = 0;
 1514              		.loc 1 217 7 is_stmt 0 view .LVU458
 1515 000c 4FF6FF73 		movw	r3, #65535
 1516 0010 9842     		cmp	r0, r3
 1517 0012 13D0     		beq	.L94
 224:lvgl/src/extra/widgets/calendar/lv_calendar.c **** 
 1518              		.loc 1 224 5 is_stmt 1 view .LVU459
 224:lvgl/src/extra/widgets/calendar/lv_calendar.c **** 
 1519              		.loc 1 224 58 is_stmt 0 view .LVU460
 1520 0014 6E6A     		ldr	r6, [r5, #36]
 224:lvgl/src/extra/widgets/calendar/lv_calendar.c **** 
 1521              		.loc 1 224 24 view .LVU461
ARM GAS  C:\usertemp\cc9FftXf.s 			page 41


 1522 0016 3046     		mov	r0, r6
 1523              	.LVL166:
 224:lvgl/src/extra/widgets/calendar/lv_calendar.c **** 
 1524              		.loc 1 224 24 view .LVU462
 1525 0018 FFF7FEFF 		bl	lv_btnmatrix_get_selected_btn
 1526              	.LVL167:
 1527 001c 0146     		mov	r1, r0
 224:lvgl/src/extra/widgets/calendar/lv_calendar.c **** 
 1528              		.loc 1 224 24 discriminator 1 view .LVU463
 1529 001e 3046     		mov	r0, r6
 1530 0020 FFF7FEFF 		bl	lv_btnmatrix_get_btn_text
 1531              	.LVL168:
 226:lvgl/src/extra/widgets/calendar/lv_calendar.c ****     else date->day = (txt[0] - '0') * 10 + (txt[1] - '0');
 1532              		.loc 1 226 5 is_stmt 1 view .LVU464
 226:lvgl/src/extra/widgets/calendar/lv_calendar.c ****     else date->day = (txt[0] - '0') * 10 + (txt[1] - '0');
 1533              		.loc 1 226 11 is_stmt 0 view .LVU465
 1534 0024 4378     		ldrb	r3, [r0, #1]	@ zero_extendqisi2
 226:lvgl/src/extra/widgets/calendar/lv_calendar.c ****     else date->day = (txt[0] - '0') * 10 + (txt[1] - '0');
 1535              		.loc 1 226 7 view .LVU466
 1536 0026 73B9     		cbnz	r3, .L91
 226:lvgl/src/extra/widgets/calendar/lv_calendar.c ****     else date->day = (txt[0] - '0') * 10 + (txt[1] - '0');
 1537              		.loc 1 226 21 is_stmt 1 discriminator 1 view .LVU467
 226:lvgl/src/extra/widgets/calendar/lv_calendar.c ****     else date->day = (txt[0] - '0') * 10 + (txt[1] - '0');
 1538              		.loc 1 226 36 is_stmt 0 discriminator 1 view .LVU468
 1539 0028 0378     		ldrb	r3, [r0]	@ zero_extendqisi2
 226:lvgl/src/extra/widgets/calendar/lv_calendar.c ****     else date->day = (txt[0] - '0') * 10 + (txt[1] - '0');
 1540              		.loc 1 226 40 discriminator 1 view .LVU469
 1541 002a 303B     		subs	r3, r3, #48
 226:lvgl/src/extra/widgets/calendar/lv_calendar.c ****     else date->day = (txt[0] - '0') * 10 + (txt[1] - '0');
 1542              		.loc 1 226 31 discriminator 1 view .LVU470
 1543 002c E370     		strb	r3, [r4, #3]
 1544              	.L92:
 229:lvgl/src/extra/widgets/calendar/lv_calendar.c ****     date->month = calendar->showed_date.month;
 1545              		.loc 1 229 5 is_stmt 1 view .LVU471
 229:lvgl/src/extra/widgets/calendar/lv_calendar.c ****     date->month = calendar->showed_date.month;
 1546              		.loc 1 229 39 is_stmt 0 view .LVU472
 1547 002e AB8D     		ldrh	r3, [r5, #44]
 229:lvgl/src/extra/widgets/calendar/lv_calendar.c ****     date->month = calendar->showed_date.month;
 1548              		.loc 1 229 16 view .LVU473
 1549 0030 2380     		strh	r3, [r4]	@ movhi
 230:lvgl/src/extra/widgets/calendar/lv_calendar.c **** 
 1550              		.loc 1 230 5 is_stmt 1 view .LVU474
 230:lvgl/src/extra/widgets/calendar/lv_calendar.c **** 
 1551              		.loc 1 230 40 is_stmt 0 view .LVU475
 1552 0032 95F92E30 		ldrsb	r3, [r5, #46]
 230:lvgl/src/extra/widgets/calendar/lv_calendar.c **** 
 1553              		.loc 1 230 17 view .LVU476
 1554 0036 A370     		strb	r3, [r4, #2]
 232:lvgl/src/extra/widgets/calendar/lv_calendar.c **** }
 1555              		.loc 1 232 5 is_stmt 1 view .LVU477
 232:lvgl/src/extra/widgets/calendar/lv_calendar.c **** }
 1556              		.loc 1 232 12 is_stmt 0 view .LVU478
 1557 0038 0120     		movs	r0, #1
 1558              	.LVL169:
 1559              	.L90:
 233:lvgl/src/extra/widgets/calendar/lv_calendar.c **** 
 1560              		.loc 1 233 1 view .LVU479
ARM GAS  C:\usertemp\cc9FftXf.s 			page 42


 1561 003a 70BD     		pop	{r4, r5, r6, pc}
 1562              	.LVL170:
 1563              	.L94:
 218:lvgl/src/extra/widgets/calendar/lv_calendar.c ****         date->month = 0;
 1564              		.loc 1 218 9 is_stmt 1 view .LVU480
 218:lvgl/src/extra/widgets/calendar/lv_calendar.c ****         date->month = 0;
 1565              		.loc 1 218 20 is_stmt 0 view .LVU481
 1566 003c 0020     		movs	r0, #0
 1567              	.LVL171:
 218:lvgl/src/extra/widgets/calendar/lv_calendar.c ****         date->month = 0;
 1568              		.loc 1 218 20 view .LVU482
 1569 003e 2080     		strh	r0, [r4]	@ movhi
 219:lvgl/src/extra/widgets/calendar/lv_calendar.c ****         date->day = 0;
 1570              		.loc 1 219 9 is_stmt 1 view .LVU483
 219:lvgl/src/extra/widgets/calendar/lv_calendar.c ****         date->day = 0;
 1571              		.loc 1 219 21 is_stmt 0 view .LVU484
 1572 0040 A070     		strb	r0, [r4, #2]
 220:lvgl/src/extra/widgets/calendar/lv_calendar.c ****         return LV_RES_INV;
 1573              		.loc 1 220 9 is_stmt 1 view .LVU485
 220:lvgl/src/extra/widgets/calendar/lv_calendar.c ****         return LV_RES_INV;
 1574              		.loc 1 220 19 is_stmt 0 view .LVU486
 1575 0042 E070     		strb	r0, [r4, #3]
 221:lvgl/src/extra/widgets/calendar/lv_calendar.c ****     }
 1576              		.loc 1 221 9 is_stmt 1 view .LVU487
 221:lvgl/src/extra/widgets/calendar/lv_calendar.c ****     }
 1577              		.loc 1 221 16 is_stmt 0 view .LVU488
 1578 0044 F9E7     		b	.L90
 1579              	.LVL172:
 1580              	.L91:
 227:lvgl/src/extra/widgets/calendar/lv_calendar.c **** 
 1581              		.loc 1 227 10 is_stmt 1 view .LVU489
 227:lvgl/src/extra/widgets/calendar/lv_calendar.c **** 
 1582              		.loc 1 227 26 is_stmt 0 view .LVU490
 1583 0046 0278     		ldrb	r2, [r0]	@ zero_extendqisi2
 227:lvgl/src/extra/widgets/calendar/lv_calendar.c **** 
 1584              		.loc 1 227 42 view .LVU491
 1585 0048 303A     		subs	r2, r2, #48
 1586 004a 02EB8202 		add	r2, r2, r2, lsl #2
 1587 004e 03EB4203 		add	r3, r3, r2, lsl #1
 1588 0052 303B     		subs	r3, r3, #48
 227:lvgl/src/extra/widgets/calendar/lv_calendar.c **** 
 1589              		.loc 1 227 20 view .LVU492
 1590 0054 E370     		strb	r3, [r4, #3]
 1591 0056 EAE7     		b	.L92
 1592              		.cfi_endproc
 1593              	.LFE206:
 1595              		.section	.rodata.str1.4,"aMS",%progbits,1
 1596              		.align	2
 1597              	.LC3:
 1598 0000 537500   		.ascii	"Su\000"
 1599 0003 00       		.align	2
 1600              	.LC4:
 1601 0004 4D6F00   		.ascii	"Mo\000"
 1602 0007 00       		.align	2
 1603              	.LC5:
 1604 0008 547500   		.ascii	"Tu\000"
 1605 000b 00       		.align	2
ARM GAS  C:\usertemp\cc9FftXf.s 			page 43


 1606              	.LC6:
 1607 000c 576500   		.ascii	"We\000"
 1608 000f 00       		.align	2
 1609              	.LC7:
 1610 0010 546800   		.ascii	"Th\000"
 1611 0013 00       		.align	2
 1612              	.LC8:
 1613 0014 467200   		.ascii	"Fr\000"
 1614 0017 00       		.align	2
 1615              	.LC9:
 1616 0018 536100   		.ascii	"Sa\000"
 1617              		.section	.rodata.day_names_def,"a"
 1618              		.align	2
 1621              	day_names_def:
 1622 0000 00000000 		.word	.LC3
 1623 0004 04000000 		.word	.LC4
 1624 0008 08000000 		.word	.LC5
 1625 000c 0C000000 		.word	.LC6
 1626 0010 10000000 		.word	.LC7
 1627 0014 14000000 		.word	.LC8
 1628 0018 18000000 		.word	.LC9
 1629              		.global	lv_calendar_class
 1630              		.section	.rodata.lv_calendar_class,"a"
 1631              		.align	2
 1634              	lv_calendar_class:
 1635 0000 00000000 		.word	lv_obj_class
 1636 0004 00000000 		.word	lv_calendar_constructor
 1637 0008 00000000 		.space	12
 1637      00000000 
 1637      00000000 
 1638 0014 C300     		.short	195
 1639 0016 C300     		.short	195
 1640 0018 04       		.byte	4
 1641 0019 1C       		.byte	28
 1642 001a 00       		.byte	0
 1643 001b 00       		.space	1
 1644              		.text
 1645              	.Letext0:
 1646              		.file 2 "D:/armtoolchain/arm-gnu-toolchain-13.3.rel1-mingw-w64-i686-arm-none-eabi/arm-none-eabi/in
 1647              		.file 3 "D:/armtoolchain/arm-gnu-toolchain-13.3.rel1-mingw-w64-i686-arm-none-eabi/arm-none-eabi/in
 1648              		.file 4 "D:/armtoolchain/arm-gnu-toolchain-13.3.rel1-mingw-w64-i686-arm-none-eabi/lib/gcc/arm-none
 1649              		.file 5 "D:/update_2024EL/changeform/743zit6/lvgl/src/misc/lv_area.h"
 1650              		.file 6 "D:/update_2024EL/changeform/743zit6/lvgl/src/font/lv_font.h"
 1651              		.file 7 "D:/update_2024EL/changeform/743zit6/lvgl/src/misc/lv_types.h"
 1652              		.file 8 "D:/update_2024EL/changeform/743zit6/lvgl/src/misc/lv_color.h"
 1653              		.file 9 "D:/update_2024EL/changeform/743zit6/lvgl/src/misc/lv_txt.h"
 1654              		.file 10 "D:/update_2024EL/changeform/743zit6/lvgl/src/misc/lv_bidi.h"
 1655              		.file 11 "D:/update_2024EL/changeform/743zit6/lvgl/src/misc/lv_style.h"
 1656              		.file 12 "D:/update_2024EL/changeform/743zit6/lvgl/src/draw/lv_img_buf.h"
 1657              		.file 13 "D:/update_2024EL/changeform/743zit6/lvgl/src/core/lv_obj.h"
 1658              		.file 14 "D:/update_2024EL/changeform/743zit6/lvgl/src/draw/lv_draw_rect.h"
 1659              		.file 15 "D:/update_2024EL/changeform/743zit6/lvgl/src/draw/lv_draw_label.h"
 1660              		.file 16 "D:/update_2024EL/changeform/743zit6/lvgl/src/draw/lv_draw_img.h"
 1661              		.file 17 "D:/update_2024EL/changeform/743zit6/lvgl/src/draw/lv_draw_line.h"
 1662              		.file 18 "D:/update_2024EL/changeform/743zit6/lvgl/src/draw/lv_draw_arc.h"
 1663              		.file 19 "D:/update_2024EL/changeform/743zit6/lvgl/src/draw/lv_draw.h"
 1664              		.file 20 "D:/update_2024EL/changeform/743zit6/lvgl/src/misc/lv_ll.h"
ARM GAS  C:\usertemp\cc9FftXf.s 			page 44


 1665              		.file 21 "D:/update_2024EL/changeform/743zit6/lvgl/src/core/lv_group.h"
 1666              		.file 22 "D:/update_2024EL/changeform/743zit6/lvgl/src/core/lv_obj_scroll.h"
 1667              		.file 23 "D:/update_2024EL/changeform/743zit6/lvgl/src/core/lv_obj_style.h"
 1668              		.file 24 "D:/update_2024EL/changeform/743zit6/lvgl/src/core/lv_obj_draw.h"
 1669              		.file 25 "D:/update_2024EL/changeform/743zit6/lvgl/src/core/lv_obj_class.h"
 1670              		.file 26 "D:/update_2024EL/changeform/743zit6/lvgl/src/core/lv_event.h"
 1671              		.file 27 "lvgl/src/extra/widgets/calendar/../../../widgets/lv_btnmatrix.h"
 1672              		.file 28 "lvgl/src/extra/widgets/calendar/lv_calendar.h"
 1673              		.file 29 "D:/update_2024EL/changeform/743zit6/lvgl/src/widgets/lv_bar.h"
 1674              		.file 30 "D:/update_2024EL/changeform/743zit6/lvgl/src/extra/layouts/flex/lv_flex.h"
 1675              		.file 31 "D:/update_2024EL/changeform/743zit6/lvgl/src/extra/widgets/imgbtn/lv_imgbtn.h"
 1676              		.file 32 "D:/update_2024EL/changeform/743zit6/lvgl/src/core/lv_obj_tree.h"
 1677              		.file 33 "D:/armtoolchain/arm-gnu-toolchain-13.3.rel1-mingw-w64-i686-arm-none-eabi/arm-none-eabi/i
 1678              		.file 34 "D:/update_2024EL/changeform/743zit6/lvgl/src/core/lv_obj_pos.h"
 1679              		.file 35 "D:/update_2024EL/changeform/743zit6/lvgl/src/core/lv_theme.h"
 1680              		.file 36 "D:/update_2024EL/changeform/743zit6/lvgl/src/misc/lv_mem.h"
ARM GAS  C:\usertemp\cc9FftXf.s 			page 45

