ARM GAS  C:\usertemp\ccSNc7FN.s 			page 1


   1              		.cpu cortex-m7
   2              		.arch armv7e-m
   3              		.fpu fpv5-d16
   4              		.eabi_attribute 28, 1
   5              		.eabi_attribute 20, 1
   6              		.eabi_attribute 21, 1
   7              		.eabi_attribute 23, 3
   8              		.eabi_attribute 24, 1
   9              		.eabi_attribute 25, 1
  10              		.eabi_attribute 26, 1
  11              		.eabi_attribute 30, 1
  12              		.eabi_attribute 34, 1
  13              		.eabi_attribute 18, 4
  14              		.file	"lv_dropdown.c"
  15              		.text
  16              	.Ltext0:
  17              		.cfi_sections	.debug_frame
  18              		.file 1 "lvgl/src/widgets/lv_dropdown.c"
  19              		.section	.text.lv_dropdownlist_destructor,"ax",%progbits
  20              		.align	1
  21              		.syntax unified
  22              		.thumb
  23              		.thumb_func
  25              	lv_dropdownlist_destructor:
  26              	.LVL0:
  27              	.LFB188:
   1:lvgl/src/widgets/lv_dropdown.c **** /**
   2:lvgl/src/widgets/lv_dropdown.c ****  * @file lv_dropdown.c
   3:lvgl/src/widgets/lv_dropdown.c ****  *
   4:lvgl/src/widgets/lv_dropdown.c ****  */
   5:lvgl/src/widgets/lv_dropdown.c **** 
   6:lvgl/src/widgets/lv_dropdown.c **** /*********************
   7:lvgl/src/widgets/lv_dropdown.c ****  *      INCLUDES
   8:lvgl/src/widgets/lv_dropdown.c ****  *********************/
   9:lvgl/src/widgets/lv_dropdown.c **** #include "../core/lv_obj.h"
  10:lvgl/src/widgets/lv_dropdown.c **** #include "lv_dropdown.h"
  11:lvgl/src/widgets/lv_dropdown.c **** #if LV_USE_DROPDOWN != 0
  12:lvgl/src/widgets/lv_dropdown.c **** 
  13:lvgl/src/widgets/lv_dropdown.c **** #include "../misc/lv_assert.h"
  14:lvgl/src/widgets/lv_dropdown.c **** #include "../draw/lv_draw.h"
  15:lvgl/src/widgets/lv_dropdown.c **** #include "../core/lv_group.h"
  16:lvgl/src/widgets/lv_dropdown.c **** #include "../core/lv_indev.h"
  17:lvgl/src/widgets/lv_dropdown.c **** #include "../core/lv_disp.h"
  18:lvgl/src/widgets/lv_dropdown.c **** #include "../font/lv_symbol_def.h"
  19:lvgl/src/widgets/lv_dropdown.c **** #include "../misc/lv_anim.h"
  20:lvgl/src/widgets/lv_dropdown.c **** #include "../misc/lv_math.h"
  21:lvgl/src/widgets/lv_dropdown.c **** #include "../misc/lv_txt_ap.h"
  22:lvgl/src/widgets/lv_dropdown.c **** #include <string.h>
  23:lvgl/src/widgets/lv_dropdown.c **** 
  24:lvgl/src/widgets/lv_dropdown.c **** /*********************
  25:lvgl/src/widgets/lv_dropdown.c ****  *      DEFINES
  26:lvgl/src/widgets/lv_dropdown.c ****  *********************/
  27:lvgl/src/widgets/lv_dropdown.c **** #define MY_CLASS &lv_dropdown_class
  28:lvgl/src/widgets/lv_dropdown.c **** #define MY_CLASS_LIST &lv_dropdownlist_class
  29:lvgl/src/widgets/lv_dropdown.c **** 
  30:lvgl/src/widgets/lv_dropdown.c **** #define LV_DROPDOWN_PR_NONE 0xFFFF
  31:lvgl/src/widgets/lv_dropdown.c **** 
ARM GAS  C:\usertemp\ccSNc7FN.s 			page 2


  32:lvgl/src/widgets/lv_dropdown.c **** /**********************
  33:lvgl/src/widgets/lv_dropdown.c ****  *      TYPEDEFS
  34:lvgl/src/widgets/lv_dropdown.c ****  **********************/
  35:lvgl/src/widgets/lv_dropdown.c **** 
  36:lvgl/src/widgets/lv_dropdown.c **** /**********************
  37:lvgl/src/widgets/lv_dropdown.c ****  *  STATIC PROTOTYPES
  38:lvgl/src/widgets/lv_dropdown.c ****  **********************/
  39:lvgl/src/widgets/lv_dropdown.c **** static lv_obj_t * lv_dropdown_list_create(lv_obj_t * parent);
  40:lvgl/src/widgets/lv_dropdown.c **** static void lv_dropdown_constructor(const lv_obj_class_t * class_p, lv_obj_t * obj);
  41:lvgl/src/widgets/lv_dropdown.c **** static void lv_dropdown_destructor(const lv_obj_class_t * class_p, lv_obj_t * obj);
  42:lvgl/src/widgets/lv_dropdown.c **** static void lv_dropdown_event(const lv_obj_class_t * class_p, lv_event_t * e);
  43:lvgl/src/widgets/lv_dropdown.c **** static void draw_main(lv_event_t * e);
  44:lvgl/src/widgets/lv_dropdown.c **** 
  45:lvgl/src/widgets/lv_dropdown.c **** static void lv_dropdownlist_constructor(const lv_obj_class_t * class_p, lv_obj_t * obj);
  46:lvgl/src/widgets/lv_dropdown.c **** static void lv_dropdownlist_destructor(const lv_obj_class_t * class_p, lv_obj_t * list_obj);
  47:lvgl/src/widgets/lv_dropdown.c **** static void lv_dropdown_list_event(const lv_obj_class_t * class_p, lv_event_t * e);
  48:lvgl/src/widgets/lv_dropdown.c **** static void draw_list(lv_event_t * e);
  49:lvgl/src/widgets/lv_dropdown.c **** 
  50:lvgl/src/widgets/lv_dropdown.c **** static void draw_box(lv_obj_t * dropdown_obj, lv_draw_ctx_t * draw_ctx, uint16_t id, lv_state_t sta
  51:lvgl/src/widgets/lv_dropdown.c **** static void draw_box_label(lv_obj_t * dropdown_obj, lv_draw_ctx_t * draw_ctx, uint16_t id, lv_state
  52:lvgl/src/widgets/lv_dropdown.c **** static lv_res_t btn_release_handler(lv_obj_t * obj);
  53:lvgl/src/widgets/lv_dropdown.c **** static lv_res_t list_release_handler(lv_obj_t * list_obj);
  54:lvgl/src/widgets/lv_dropdown.c **** static void list_press_handler(lv_obj_t * page);
  55:lvgl/src/widgets/lv_dropdown.c **** static uint16_t get_id_on_point(lv_obj_t * dropdown_obj, lv_coord_t y);
  56:lvgl/src/widgets/lv_dropdown.c **** static void position_to_selected(lv_obj_t * obj);
  57:lvgl/src/widgets/lv_dropdown.c **** static lv_obj_t * get_label(const lv_obj_t * obj);
  58:lvgl/src/widgets/lv_dropdown.c **** 
  59:lvgl/src/widgets/lv_dropdown.c **** /**********************
  60:lvgl/src/widgets/lv_dropdown.c ****  *  STATIC VARIABLES
  61:lvgl/src/widgets/lv_dropdown.c ****  **********************/
  62:lvgl/src/widgets/lv_dropdown.c **** const lv_obj_class_t lv_dropdown_class = {
  63:lvgl/src/widgets/lv_dropdown.c ****     .constructor_cb = lv_dropdown_constructor,
  64:lvgl/src/widgets/lv_dropdown.c ****     .destructor_cb = lv_dropdown_destructor,
  65:lvgl/src/widgets/lv_dropdown.c ****     .event_cb = lv_dropdown_event,
  66:lvgl/src/widgets/lv_dropdown.c ****     .width_def = LV_DPI_DEF,
  67:lvgl/src/widgets/lv_dropdown.c ****     .height_def = LV_SIZE_CONTENT,
  68:lvgl/src/widgets/lv_dropdown.c ****     .instance_size = sizeof(lv_dropdown_t),
  69:lvgl/src/widgets/lv_dropdown.c ****     .editable = LV_OBJ_CLASS_EDITABLE_TRUE,
  70:lvgl/src/widgets/lv_dropdown.c ****     .group_def = LV_OBJ_CLASS_GROUP_DEF_TRUE,
  71:lvgl/src/widgets/lv_dropdown.c ****     .base_class = &lv_obj_class
  72:lvgl/src/widgets/lv_dropdown.c **** };
  73:lvgl/src/widgets/lv_dropdown.c **** 
  74:lvgl/src/widgets/lv_dropdown.c **** const lv_obj_class_t lv_dropdownlist_class = {
  75:lvgl/src/widgets/lv_dropdown.c ****     .constructor_cb = lv_dropdownlist_constructor,
  76:lvgl/src/widgets/lv_dropdown.c ****     .destructor_cb = lv_dropdownlist_destructor,
  77:lvgl/src/widgets/lv_dropdown.c ****     .event_cb = lv_dropdown_list_event,
  78:lvgl/src/widgets/lv_dropdown.c ****     .instance_size = sizeof(lv_dropdown_list_t),
  79:lvgl/src/widgets/lv_dropdown.c ****     .base_class = &lv_obj_class
  80:lvgl/src/widgets/lv_dropdown.c **** };
  81:lvgl/src/widgets/lv_dropdown.c **** 
  82:lvgl/src/widgets/lv_dropdown.c **** 
  83:lvgl/src/widgets/lv_dropdown.c **** /**********************
  84:lvgl/src/widgets/lv_dropdown.c ****  *      MACROS
  85:lvgl/src/widgets/lv_dropdown.c ****  **********************/
  86:lvgl/src/widgets/lv_dropdown.c **** 
  87:lvgl/src/widgets/lv_dropdown.c **** /**********************
  88:lvgl/src/widgets/lv_dropdown.c ****  *   GLOBAL FUNCTIONS
ARM GAS  C:\usertemp\ccSNc7FN.s 			page 3


  89:lvgl/src/widgets/lv_dropdown.c ****  **********************/
  90:lvgl/src/widgets/lv_dropdown.c **** 
  91:lvgl/src/widgets/lv_dropdown.c **** lv_obj_t * lv_dropdown_create(lv_obj_t * parent)
  92:lvgl/src/widgets/lv_dropdown.c **** {
  93:lvgl/src/widgets/lv_dropdown.c ****     LV_LOG_INFO("begin");
  94:lvgl/src/widgets/lv_dropdown.c ****     lv_obj_t * obj = lv_obj_class_create_obj(&lv_dropdown_class, parent);
  95:lvgl/src/widgets/lv_dropdown.c ****     lv_obj_class_init_obj(obj);
  96:lvgl/src/widgets/lv_dropdown.c ****     return obj;
  97:lvgl/src/widgets/lv_dropdown.c **** }
  98:lvgl/src/widgets/lv_dropdown.c **** 
  99:lvgl/src/widgets/lv_dropdown.c **** /*=====================
 100:lvgl/src/widgets/lv_dropdown.c ****  * Setter functions
 101:lvgl/src/widgets/lv_dropdown.c ****  *====================*/
 102:lvgl/src/widgets/lv_dropdown.c **** 
 103:lvgl/src/widgets/lv_dropdown.c **** void lv_dropdown_set_text(lv_obj_t * obj, const char * txt)
 104:lvgl/src/widgets/lv_dropdown.c **** {
 105:lvgl/src/widgets/lv_dropdown.c ****     LV_ASSERT_OBJ(obj, MY_CLASS);
 106:lvgl/src/widgets/lv_dropdown.c ****     lv_dropdown_t * dropdown = (lv_dropdown_t *)obj;
 107:lvgl/src/widgets/lv_dropdown.c ****     if(dropdown->text == txt) return;
 108:lvgl/src/widgets/lv_dropdown.c **** 
 109:lvgl/src/widgets/lv_dropdown.c ****     dropdown->text = txt;
 110:lvgl/src/widgets/lv_dropdown.c **** 
 111:lvgl/src/widgets/lv_dropdown.c ****     lv_obj_invalidate(obj);
 112:lvgl/src/widgets/lv_dropdown.c **** }
 113:lvgl/src/widgets/lv_dropdown.c **** 
 114:lvgl/src/widgets/lv_dropdown.c **** void lv_dropdown_set_options(lv_obj_t * obj, const char * options)
 115:lvgl/src/widgets/lv_dropdown.c **** {
 116:lvgl/src/widgets/lv_dropdown.c ****     LV_ASSERT_OBJ(obj, MY_CLASS);
 117:lvgl/src/widgets/lv_dropdown.c ****     LV_ASSERT_NULL(options);
 118:lvgl/src/widgets/lv_dropdown.c **** 
 119:lvgl/src/widgets/lv_dropdown.c ****     lv_dropdown_t * dropdown = (lv_dropdown_t *)obj;
 120:lvgl/src/widgets/lv_dropdown.c **** 
 121:lvgl/src/widgets/lv_dropdown.c ****     /*Count the '\n'-s to determine the number of options*/
 122:lvgl/src/widgets/lv_dropdown.c ****     dropdown->option_cnt = 0;
 123:lvgl/src/widgets/lv_dropdown.c ****     uint32_t i;
 124:lvgl/src/widgets/lv_dropdown.c ****     for(i = 0; options[i] != '\0'; i++) {
 125:lvgl/src/widgets/lv_dropdown.c ****         if(options[i] == '\n') dropdown->option_cnt++;
 126:lvgl/src/widgets/lv_dropdown.c ****     }
 127:lvgl/src/widgets/lv_dropdown.c ****     dropdown->option_cnt++;   /*Last option has no `\n`*/
 128:lvgl/src/widgets/lv_dropdown.c ****     dropdown->sel_opt_id      = 0;
 129:lvgl/src/widgets/lv_dropdown.c ****     dropdown->sel_opt_id_orig = 0;
 130:lvgl/src/widgets/lv_dropdown.c **** 
 131:lvgl/src/widgets/lv_dropdown.c ****     /*Allocate space for the new text*/
 132:lvgl/src/widgets/lv_dropdown.c **** #if LV_USE_ARABIC_PERSIAN_CHARS == 0
 133:lvgl/src/widgets/lv_dropdown.c ****     size_t len = strlen(options) + 1;
 134:lvgl/src/widgets/lv_dropdown.c **** #else
 135:lvgl/src/widgets/lv_dropdown.c ****     size_t len = _lv_txt_ap_calc_bytes_cnt(options) + 1;
 136:lvgl/src/widgets/lv_dropdown.c **** #endif
 137:lvgl/src/widgets/lv_dropdown.c **** 
 138:lvgl/src/widgets/lv_dropdown.c ****     if(dropdown->options != NULL && dropdown->static_txt == 0) {
 139:lvgl/src/widgets/lv_dropdown.c ****         lv_mem_free(dropdown->options);
 140:lvgl/src/widgets/lv_dropdown.c ****         dropdown->options = NULL;
 141:lvgl/src/widgets/lv_dropdown.c ****     }
 142:lvgl/src/widgets/lv_dropdown.c **** 
 143:lvgl/src/widgets/lv_dropdown.c ****     dropdown->options = lv_mem_alloc(len);
 144:lvgl/src/widgets/lv_dropdown.c **** 
 145:lvgl/src/widgets/lv_dropdown.c ****     LV_ASSERT_MALLOC(dropdown->options);
ARM GAS  C:\usertemp\ccSNc7FN.s 			page 4


 146:lvgl/src/widgets/lv_dropdown.c ****     if(dropdown->options == NULL) return;
 147:lvgl/src/widgets/lv_dropdown.c **** 
 148:lvgl/src/widgets/lv_dropdown.c **** #if LV_USE_ARABIC_PERSIAN_CHARS == 0
 149:lvgl/src/widgets/lv_dropdown.c ****     strcpy(dropdown->options, options);
 150:lvgl/src/widgets/lv_dropdown.c **** #else
 151:lvgl/src/widgets/lv_dropdown.c ****     _lv_txt_ap_proc(options, dropdown->options);
 152:lvgl/src/widgets/lv_dropdown.c **** #endif
 153:lvgl/src/widgets/lv_dropdown.c **** 
 154:lvgl/src/widgets/lv_dropdown.c ****     /*Now the text is dynamically allocated*/
 155:lvgl/src/widgets/lv_dropdown.c ****     dropdown->static_txt = 0;
 156:lvgl/src/widgets/lv_dropdown.c **** 
 157:lvgl/src/widgets/lv_dropdown.c ****     lv_obj_invalidate(obj);
 158:lvgl/src/widgets/lv_dropdown.c ****     if(dropdown->list) lv_obj_invalidate(dropdown->list);
 159:lvgl/src/widgets/lv_dropdown.c **** }
 160:lvgl/src/widgets/lv_dropdown.c **** 
 161:lvgl/src/widgets/lv_dropdown.c **** void lv_dropdown_set_options_static(lv_obj_t * obj, const char * options)
 162:lvgl/src/widgets/lv_dropdown.c **** {
 163:lvgl/src/widgets/lv_dropdown.c ****     LV_ASSERT_OBJ(obj, MY_CLASS);
 164:lvgl/src/widgets/lv_dropdown.c ****     LV_ASSERT_NULL(options);
 165:lvgl/src/widgets/lv_dropdown.c **** 
 166:lvgl/src/widgets/lv_dropdown.c ****     lv_dropdown_t * dropdown = (lv_dropdown_t *)obj;
 167:lvgl/src/widgets/lv_dropdown.c **** 
 168:lvgl/src/widgets/lv_dropdown.c ****     /*Count the '\n'-s to determine the number of options*/
 169:lvgl/src/widgets/lv_dropdown.c ****     dropdown->option_cnt = 0;
 170:lvgl/src/widgets/lv_dropdown.c ****     uint32_t i;
 171:lvgl/src/widgets/lv_dropdown.c ****     for(i = 0; options[i] != '\0'; i++) {
 172:lvgl/src/widgets/lv_dropdown.c ****         if(options[i] == '\n') dropdown->option_cnt++;
 173:lvgl/src/widgets/lv_dropdown.c ****     }
 174:lvgl/src/widgets/lv_dropdown.c ****     dropdown->option_cnt++;   /*Last option has no `\n`*/
 175:lvgl/src/widgets/lv_dropdown.c ****     dropdown->sel_opt_id      = 0;
 176:lvgl/src/widgets/lv_dropdown.c ****     dropdown->sel_opt_id_orig = 0;
 177:lvgl/src/widgets/lv_dropdown.c **** 
 178:lvgl/src/widgets/lv_dropdown.c ****     if(dropdown->static_txt == 0 && dropdown->options != NULL) {
 179:lvgl/src/widgets/lv_dropdown.c ****         lv_mem_free(dropdown->options);
 180:lvgl/src/widgets/lv_dropdown.c ****         dropdown->options = NULL;
 181:lvgl/src/widgets/lv_dropdown.c ****     }
 182:lvgl/src/widgets/lv_dropdown.c **** 
 183:lvgl/src/widgets/lv_dropdown.c ****     dropdown->static_txt = 1;
 184:lvgl/src/widgets/lv_dropdown.c ****     dropdown->options = (char *)options;
 185:lvgl/src/widgets/lv_dropdown.c **** 
 186:lvgl/src/widgets/lv_dropdown.c ****     lv_obj_invalidate(obj);
 187:lvgl/src/widgets/lv_dropdown.c ****     if(dropdown->list) lv_obj_invalidate(dropdown->list);
 188:lvgl/src/widgets/lv_dropdown.c **** }
 189:lvgl/src/widgets/lv_dropdown.c **** 
 190:lvgl/src/widgets/lv_dropdown.c **** void lv_dropdown_add_option(lv_obj_t * obj, const char * option, uint32_t pos)
 191:lvgl/src/widgets/lv_dropdown.c **** {
 192:lvgl/src/widgets/lv_dropdown.c ****     LV_ASSERT_OBJ(obj, MY_CLASS);
 193:lvgl/src/widgets/lv_dropdown.c ****     LV_ASSERT_NULL(option);
 194:lvgl/src/widgets/lv_dropdown.c **** 
 195:lvgl/src/widgets/lv_dropdown.c ****     lv_dropdown_t * dropdown = (lv_dropdown_t *)obj;
 196:lvgl/src/widgets/lv_dropdown.c **** 
 197:lvgl/src/widgets/lv_dropdown.c ****     /*Convert static options to dynamic*/
 198:lvgl/src/widgets/lv_dropdown.c ****     if(dropdown->static_txt != 0) {
 199:lvgl/src/widgets/lv_dropdown.c ****         char * static_options = dropdown->options;
 200:lvgl/src/widgets/lv_dropdown.c ****         size_t len = strlen(static_options) + 1;
 201:lvgl/src/widgets/lv_dropdown.c **** 
 202:lvgl/src/widgets/lv_dropdown.c ****         dropdown->options = lv_mem_alloc(len);
ARM GAS  C:\usertemp\ccSNc7FN.s 			page 5


 203:lvgl/src/widgets/lv_dropdown.c ****         LV_ASSERT_MALLOC(dropdown->options);
 204:lvgl/src/widgets/lv_dropdown.c ****         if(dropdown->options == NULL) return;
 205:lvgl/src/widgets/lv_dropdown.c **** 
 206:lvgl/src/widgets/lv_dropdown.c ****         strcpy(dropdown->options, static_options);
 207:lvgl/src/widgets/lv_dropdown.c ****         dropdown->static_txt = 0;
 208:lvgl/src/widgets/lv_dropdown.c ****     }
 209:lvgl/src/widgets/lv_dropdown.c **** 
 210:lvgl/src/widgets/lv_dropdown.c ****     /*Allocate space for the new option*/
 211:lvgl/src/widgets/lv_dropdown.c ****     size_t old_len = (dropdown->options == NULL) ? 0 : strlen(dropdown->options);
 212:lvgl/src/widgets/lv_dropdown.c **** #if LV_USE_ARABIC_PERSIAN_CHARS == 0
 213:lvgl/src/widgets/lv_dropdown.c ****     size_t ins_len = strlen(option) + 1;
 214:lvgl/src/widgets/lv_dropdown.c **** #else
 215:lvgl/src/widgets/lv_dropdown.c ****     size_t ins_len = _lv_txt_ap_calc_bytes_cnt(option) + 1;
 216:lvgl/src/widgets/lv_dropdown.c **** #endif
 217:lvgl/src/widgets/lv_dropdown.c **** 
 218:lvgl/src/widgets/lv_dropdown.c ****     size_t new_len = ins_len + old_len + 2; /*+2 for terminating NULL and possible \n*/
 219:lvgl/src/widgets/lv_dropdown.c ****     dropdown->options        = lv_mem_realloc(dropdown->options, new_len + 1);
 220:lvgl/src/widgets/lv_dropdown.c ****     LV_ASSERT_MALLOC(dropdown->options);
 221:lvgl/src/widgets/lv_dropdown.c ****     if(dropdown->options == NULL) return;
 222:lvgl/src/widgets/lv_dropdown.c **** 
 223:lvgl/src/widgets/lv_dropdown.c ****     dropdown->options[old_len] = '\0';
 224:lvgl/src/widgets/lv_dropdown.c **** 
 225:lvgl/src/widgets/lv_dropdown.c ****     /*Find the insert character position*/
 226:lvgl/src/widgets/lv_dropdown.c ****     uint32_t insert_pos = old_len;
 227:lvgl/src/widgets/lv_dropdown.c ****     if(pos != LV_DROPDOWN_POS_LAST) {
 228:lvgl/src/widgets/lv_dropdown.c ****         uint32_t opcnt = 0;
 229:lvgl/src/widgets/lv_dropdown.c ****         for(insert_pos = 0; dropdown->options[insert_pos] != 0; insert_pos++) {
 230:lvgl/src/widgets/lv_dropdown.c ****             if(opcnt == pos)
 231:lvgl/src/widgets/lv_dropdown.c ****                 break;
 232:lvgl/src/widgets/lv_dropdown.c ****             if(dropdown->options[insert_pos] == '\n')
 233:lvgl/src/widgets/lv_dropdown.c ****                 opcnt++;
 234:lvgl/src/widgets/lv_dropdown.c ****         }
 235:lvgl/src/widgets/lv_dropdown.c ****     }
 236:lvgl/src/widgets/lv_dropdown.c **** 
 237:lvgl/src/widgets/lv_dropdown.c ****     /*Add delimiter to existing options*/
 238:lvgl/src/widgets/lv_dropdown.c ****     if((insert_pos > 0) && (pos >= dropdown->option_cnt))
 239:lvgl/src/widgets/lv_dropdown.c ****         _lv_txt_ins(dropdown->options, _lv_txt_encoded_get_char_id(dropdown->options, insert_pos++)
 240:lvgl/src/widgets/lv_dropdown.c **** 
 241:lvgl/src/widgets/lv_dropdown.c ****     /*Insert the new option, adding \n if necessary*/
 242:lvgl/src/widgets/lv_dropdown.c ****     char * ins_buf = lv_mem_buf_get(ins_len + 2); /*+ 2 for terminating NULL and possible \n*/
 243:lvgl/src/widgets/lv_dropdown.c ****     LV_ASSERT_MALLOC(ins_buf);
 244:lvgl/src/widgets/lv_dropdown.c ****     if(ins_buf == NULL) return;
 245:lvgl/src/widgets/lv_dropdown.c **** #if LV_USE_ARABIC_PERSIAN_CHARS == 0
 246:lvgl/src/widgets/lv_dropdown.c ****     strcpy(ins_buf, option);
 247:lvgl/src/widgets/lv_dropdown.c **** #else
 248:lvgl/src/widgets/lv_dropdown.c ****     _lv_txt_ap_proc(option, ins_buf);
 249:lvgl/src/widgets/lv_dropdown.c **** #endif
 250:lvgl/src/widgets/lv_dropdown.c ****     if(pos < dropdown->option_cnt) strcat(ins_buf, "\n");
 251:lvgl/src/widgets/lv_dropdown.c **** 
 252:lvgl/src/widgets/lv_dropdown.c ****     _lv_txt_ins(dropdown->options, _lv_txt_encoded_get_char_id(dropdown->options, insert_pos), ins_
 253:lvgl/src/widgets/lv_dropdown.c ****     lv_mem_buf_release(ins_buf);
 254:lvgl/src/widgets/lv_dropdown.c **** 
 255:lvgl/src/widgets/lv_dropdown.c ****     dropdown->option_cnt++;
 256:lvgl/src/widgets/lv_dropdown.c **** 
 257:lvgl/src/widgets/lv_dropdown.c ****     lv_obj_invalidate(obj);
 258:lvgl/src/widgets/lv_dropdown.c ****     if(dropdown->list) lv_obj_invalidate(dropdown->list);
 259:lvgl/src/widgets/lv_dropdown.c **** }
ARM GAS  C:\usertemp\ccSNc7FN.s 			page 6


 260:lvgl/src/widgets/lv_dropdown.c **** 
 261:lvgl/src/widgets/lv_dropdown.c **** void lv_dropdown_clear_options(lv_obj_t * obj)
 262:lvgl/src/widgets/lv_dropdown.c **** {
 263:lvgl/src/widgets/lv_dropdown.c ****     LV_ASSERT_OBJ(obj, MY_CLASS);
 264:lvgl/src/widgets/lv_dropdown.c ****     lv_dropdown_t * dropdown = (lv_dropdown_t *)obj;
 265:lvgl/src/widgets/lv_dropdown.c ****     if(dropdown->options == NULL) return;
 266:lvgl/src/widgets/lv_dropdown.c **** 
 267:lvgl/src/widgets/lv_dropdown.c ****     if(dropdown->static_txt == 0)
 268:lvgl/src/widgets/lv_dropdown.c ****         lv_mem_free(dropdown->options);
 269:lvgl/src/widgets/lv_dropdown.c **** 
 270:lvgl/src/widgets/lv_dropdown.c ****     dropdown->options = NULL;
 271:lvgl/src/widgets/lv_dropdown.c ****     dropdown->static_txt = 0;
 272:lvgl/src/widgets/lv_dropdown.c ****     dropdown->option_cnt = 0;
 273:lvgl/src/widgets/lv_dropdown.c **** 
 274:lvgl/src/widgets/lv_dropdown.c ****     lv_obj_invalidate(obj);
 275:lvgl/src/widgets/lv_dropdown.c ****     if(dropdown->list) lv_obj_invalidate(dropdown->list);
 276:lvgl/src/widgets/lv_dropdown.c **** }
 277:lvgl/src/widgets/lv_dropdown.c **** 
 278:lvgl/src/widgets/lv_dropdown.c **** void lv_dropdown_set_selected(lv_obj_t * obj, uint16_t sel_opt)
 279:lvgl/src/widgets/lv_dropdown.c **** {
 280:lvgl/src/widgets/lv_dropdown.c ****     LV_ASSERT_OBJ(obj, MY_CLASS);
 281:lvgl/src/widgets/lv_dropdown.c **** 
 282:lvgl/src/widgets/lv_dropdown.c ****     lv_dropdown_t * dropdown = (lv_dropdown_t *)obj;
 283:lvgl/src/widgets/lv_dropdown.c ****     if(dropdown->sel_opt_id == sel_opt) return;
 284:lvgl/src/widgets/lv_dropdown.c **** 
 285:lvgl/src/widgets/lv_dropdown.c ****     dropdown->sel_opt_id      = sel_opt < dropdown->option_cnt ? sel_opt : dropdown->option_cnt - 1
 286:lvgl/src/widgets/lv_dropdown.c ****     dropdown->sel_opt_id_orig = dropdown->sel_opt_id;
 287:lvgl/src/widgets/lv_dropdown.c **** 
 288:lvgl/src/widgets/lv_dropdown.c ****     lv_obj_invalidate(obj);
 289:lvgl/src/widgets/lv_dropdown.c **** }
 290:lvgl/src/widgets/lv_dropdown.c **** 
 291:lvgl/src/widgets/lv_dropdown.c **** void lv_dropdown_set_dir(lv_obj_t * obj, lv_dir_t dir)
 292:lvgl/src/widgets/lv_dropdown.c **** {
 293:lvgl/src/widgets/lv_dropdown.c ****     LV_ASSERT_OBJ(obj, MY_CLASS);
 294:lvgl/src/widgets/lv_dropdown.c **** 
 295:lvgl/src/widgets/lv_dropdown.c ****     lv_dropdown_t * dropdown = (lv_dropdown_t *)obj;
 296:lvgl/src/widgets/lv_dropdown.c ****     if(dropdown->dir == dir) return;
 297:lvgl/src/widgets/lv_dropdown.c **** 
 298:lvgl/src/widgets/lv_dropdown.c ****     dropdown->dir = dir;
 299:lvgl/src/widgets/lv_dropdown.c **** 
 300:lvgl/src/widgets/lv_dropdown.c ****     lv_obj_invalidate(obj);
 301:lvgl/src/widgets/lv_dropdown.c **** }
 302:lvgl/src/widgets/lv_dropdown.c **** 
 303:lvgl/src/widgets/lv_dropdown.c **** void lv_dropdown_set_symbol(lv_obj_t * obj, const void * symbol)
 304:lvgl/src/widgets/lv_dropdown.c **** {
 305:lvgl/src/widgets/lv_dropdown.c ****     LV_ASSERT_OBJ(obj, MY_CLASS);
 306:lvgl/src/widgets/lv_dropdown.c **** 
 307:lvgl/src/widgets/lv_dropdown.c ****     lv_dropdown_t * dropdown = (lv_dropdown_t *)obj;
 308:lvgl/src/widgets/lv_dropdown.c ****     dropdown->symbol = symbol;
 309:lvgl/src/widgets/lv_dropdown.c ****     lv_obj_invalidate(obj);
 310:lvgl/src/widgets/lv_dropdown.c **** }
 311:lvgl/src/widgets/lv_dropdown.c **** 
 312:lvgl/src/widgets/lv_dropdown.c **** void lv_dropdown_set_selected_highlight(lv_obj_t * obj, bool en)
 313:lvgl/src/widgets/lv_dropdown.c **** {
 314:lvgl/src/widgets/lv_dropdown.c ****     LV_ASSERT_OBJ(obj, MY_CLASS);
 315:lvgl/src/widgets/lv_dropdown.c **** 
 316:lvgl/src/widgets/lv_dropdown.c ****     lv_dropdown_t * dropdown = (lv_dropdown_t *)obj;
ARM GAS  C:\usertemp\ccSNc7FN.s 			page 7


 317:lvgl/src/widgets/lv_dropdown.c ****     dropdown->selected_highlight = en;
 318:lvgl/src/widgets/lv_dropdown.c ****     if(dropdown->list) lv_obj_invalidate(dropdown->list);
 319:lvgl/src/widgets/lv_dropdown.c **** }
 320:lvgl/src/widgets/lv_dropdown.c **** 
 321:lvgl/src/widgets/lv_dropdown.c **** /*=====================
 322:lvgl/src/widgets/lv_dropdown.c ****  * Getter functions
 323:lvgl/src/widgets/lv_dropdown.c ****  *====================*/
 324:lvgl/src/widgets/lv_dropdown.c **** 
 325:lvgl/src/widgets/lv_dropdown.c **** lv_obj_t * lv_dropdown_get_list(lv_obj_t * obj)
 326:lvgl/src/widgets/lv_dropdown.c **** {
 327:lvgl/src/widgets/lv_dropdown.c ****     LV_ASSERT_OBJ(obj, MY_CLASS);
 328:lvgl/src/widgets/lv_dropdown.c ****     lv_dropdown_t * dropdown = (lv_dropdown_t *)obj;
 329:lvgl/src/widgets/lv_dropdown.c **** 
 330:lvgl/src/widgets/lv_dropdown.c ****     return dropdown->list;
 331:lvgl/src/widgets/lv_dropdown.c **** }
 332:lvgl/src/widgets/lv_dropdown.c **** 
 333:lvgl/src/widgets/lv_dropdown.c **** const char * lv_dropdown_get_text(lv_obj_t * obj)
 334:lvgl/src/widgets/lv_dropdown.c **** {
 335:lvgl/src/widgets/lv_dropdown.c ****     LV_ASSERT_OBJ(obj, MY_CLASS);
 336:lvgl/src/widgets/lv_dropdown.c ****     lv_dropdown_t * dropdown = (lv_dropdown_t *)obj;
 337:lvgl/src/widgets/lv_dropdown.c **** 
 338:lvgl/src/widgets/lv_dropdown.c ****     return dropdown->text;
 339:lvgl/src/widgets/lv_dropdown.c **** }
 340:lvgl/src/widgets/lv_dropdown.c **** 
 341:lvgl/src/widgets/lv_dropdown.c **** const char * lv_dropdown_get_options(const lv_obj_t * obj)
 342:lvgl/src/widgets/lv_dropdown.c **** {
 343:lvgl/src/widgets/lv_dropdown.c ****     LV_ASSERT_OBJ(obj, MY_CLASS);
 344:lvgl/src/widgets/lv_dropdown.c **** 
 345:lvgl/src/widgets/lv_dropdown.c ****     lv_dropdown_t * dropdown = (lv_dropdown_t *)obj;
 346:lvgl/src/widgets/lv_dropdown.c ****     return dropdown->options == NULL ? "" : dropdown->options;
 347:lvgl/src/widgets/lv_dropdown.c **** }
 348:lvgl/src/widgets/lv_dropdown.c **** 
 349:lvgl/src/widgets/lv_dropdown.c **** uint16_t lv_dropdown_get_selected(const lv_obj_t * obj)
 350:lvgl/src/widgets/lv_dropdown.c **** {
 351:lvgl/src/widgets/lv_dropdown.c ****     LV_ASSERT_OBJ(obj, MY_CLASS);
 352:lvgl/src/widgets/lv_dropdown.c **** 
 353:lvgl/src/widgets/lv_dropdown.c ****     lv_dropdown_t * dropdown = (lv_dropdown_t *)obj;
 354:lvgl/src/widgets/lv_dropdown.c **** 
 355:lvgl/src/widgets/lv_dropdown.c ****     return dropdown->sel_opt_id;
 356:lvgl/src/widgets/lv_dropdown.c **** }
 357:lvgl/src/widgets/lv_dropdown.c **** 
 358:lvgl/src/widgets/lv_dropdown.c **** uint16_t lv_dropdown_get_option_cnt(const lv_obj_t * obj)
 359:lvgl/src/widgets/lv_dropdown.c **** {
 360:lvgl/src/widgets/lv_dropdown.c ****     LV_ASSERT_OBJ(obj, MY_CLASS);
 361:lvgl/src/widgets/lv_dropdown.c **** 
 362:lvgl/src/widgets/lv_dropdown.c ****     lv_dropdown_t * dropdown = (lv_dropdown_t *)obj;
 363:lvgl/src/widgets/lv_dropdown.c **** 
 364:lvgl/src/widgets/lv_dropdown.c ****     return dropdown->option_cnt;
 365:lvgl/src/widgets/lv_dropdown.c **** }
 366:lvgl/src/widgets/lv_dropdown.c **** 
 367:lvgl/src/widgets/lv_dropdown.c **** void lv_dropdown_get_selected_str(const lv_obj_t * obj, char * buf, uint32_t buf_size)
 368:lvgl/src/widgets/lv_dropdown.c **** {
 369:lvgl/src/widgets/lv_dropdown.c ****     LV_ASSERT_OBJ(obj, MY_CLASS);
 370:lvgl/src/widgets/lv_dropdown.c **** 
 371:lvgl/src/widgets/lv_dropdown.c ****     lv_dropdown_t * dropdown = (lv_dropdown_t *)obj;
 372:lvgl/src/widgets/lv_dropdown.c **** 
 373:lvgl/src/widgets/lv_dropdown.c ****     uint32_t i;
ARM GAS  C:\usertemp\ccSNc7FN.s 			page 8


 374:lvgl/src/widgets/lv_dropdown.c ****     uint32_t line        = 0;
 375:lvgl/src/widgets/lv_dropdown.c ****     size_t txt_len;
 376:lvgl/src/widgets/lv_dropdown.c **** 
 377:lvgl/src/widgets/lv_dropdown.c ****     if(dropdown->options)  {
 378:lvgl/src/widgets/lv_dropdown.c ****         txt_len     = strlen(dropdown->options);
 379:lvgl/src/widgets/lv_dropdown.c ****     }
 380:lvgl/src/widgets/lv_dropdown.c ****     else {
 381:lvgl/src/widgets/lv_dropdown.c ****         buf[0] = '\0';
 382:lvgl/src/widgets/lv_dropdown.c ****         return;
 383:lvgl/src/widgets/lv_dropdown.c ****     }
 384:lvgl/src/widgets/lv_dropdown.c **** 
 385:lvgl/src/widgets/lv_dropdown.c ****     for(i = 0; i < txt_len && line != dropdown->sel_opt_id_orig; i++) {
 386:lvgl/src/widgets/lv_dropdown.c ****         if(dropdown->options[i] == '\n') line++;
 387:lvgl/src/widgets/lv_dropdown.c ****     }
 388:lvgl/src/widgets/lv_dropdown.c **** 
 389:lvgl/src/widgets/lv_dropdown.c ****     uint32_t c;
 390:lvgl/src/widgets/lv_dropdown.c ****     for(c = 0; i < txt_len && dropdown->options[i] != '\n'; c++, i++) {
 391:lvgl/src/widgets/lv_dropdown.c ****         if(buf_size && c >= buf_size - 1) {
 392:lvgl/src/widgets/lv_dropdown.c ****             LV_LOG_WARN("lv_dropdown_get_selected_str: the buffer was too small");
 393:lvgl/src/widgets/lv_dropdown.c ****             break;
 394:lvgl/src/widgets/lv_dropdown.c ****         }
 395:lvgl/src/widgets/lv_dropdown.c ****         buf[c] = dropdown->options[i];
 396:lvgl/src/widgets/lv_dropdown.c ****     }
 397:lvgl/src/widgets/lv_dropdown.c **** 
 398:lvgl/src/widgets/lv_dropdown.c ****     buf[c] = '\0';
 399:lvgl/src/widgets/lv_dropdown.c **** }
 400:lvgl/src/widgets/lv_dropdown.c **** 
 401:lvgl/src/widgets/lv_dropdown.c **** const char * lv_dropdown_get_symbol(lv_obj_t * obj)
 402:lvgl/src/widgets/lv_dropdown.c **** {
 403:lvgl/src/widgets/lv_dropdown.c ****     LV_ASSERT_OBJ(obj, MY_CLASS);
 404:lvgl/src/widgets/lv_dropdown.c ****     lv_dropdown_t * dropdown = (lv_dropdown_t *)obj;
 405:lvgl/src/widgets/lv_dropdown.c ****     return dropdown->symbol;
 406:lvgl/src/widgets/lv_dropdown.c **** }
 407:lvgl/src/widgets/lv_dropdown.c **** 
 408:lvgl/src/widgets/lv_dropdown.c **** bool lv_dropdown_get_selected_highlight(lv_obj_t * obj)
 409:lvgl/src/widgets/lv_dropdown.c **** {
 410:lvgl/src/widgets/lv_dropdown.c ****     LV_ASSERT_OBJ(obj, MY_CLASS);
 411:lvgl/src/widgets/lv_dropdown.c ****     lv_dropdown_t * dropdown = (lv_dropdown_t *)obj;
 412:lvgl/src/widgets/lv_dropdown.c ****     return dropdown->selected_highlight;
 413:lvgl/src/widgets/lv_dropdown.c **** }
 414:lvgl/src/widgets/lv_dropdown.c **** 
 415:lvgl/src/widgets/lv_dropdown.c **** lv_dir_t lv_dropdown_get_dir(const lv_obj_t * obj)
 416:lvgl/src/widgets/lv_dropdown.c **** {
 417:lvgl/src/widgets/lv_dropdown.c ****     LV_ASSERT_OBJ(obj, MY_CLASS);
 418:lvgl/src/widgets/lv_dropdown.c ****     lv_dropdown_t * dropdown = (lv_dropdown_t *)obj;
 419:lvgl/src/widgets/lv_dropdown.c ****     return dropdown->dir;
 420:lvgl/src/widgets/lv_dropdown.c **** }
 421:lvgl/src/widgets/lv_dropdown.c **** 
 422:lvgl/src/widgets/lv_dropdown.c **** /*=====================
 423:lvgl/src/widgets/lv_dropdown.c ****  * Other functions
 424:lvgl/src/widgets/lv_dropdown.c ****  *====================*/
 425:lvgl/src/widgets/lv_dropdown.c **** 
 426:lvgl/src/widgets/lv_dropdown.c **** void lv_dropdown_open(lv_obj_t * dropdown_obj)
 427:lvgl/src/widgets/lv_dropdown.c **** {
 428:lvgl/src/widgets/lv_dropdown.c ****     LV_ASSERT_OBJ(dropdown_obj, MY_CLASS);
 429:lvgl/src/widgets/lv_dropdown.c **** 
 430:lvgl/src/widgets/lv_dropdown.c ****     lv_dropdown_t * dropdown = (lv_dropdown_t *)dropdown_obj;
ARM GAS  C:\usertemp\ccSNc7FN.s 			page 9


 431:lvgl/src/widgets/lv_dropdown.c **** 
 432:lvgl/src/widgets/lv_dropdown.c ****     lv_obj_add_state(dropdown_obj, LV_STATE_CHECKED);
 433:lvgl/src/widgets/lv_dropdown.c ****     lv_obj_set_parent(dropdown->list, lv_obj_get_screen(dropdown_obj));
 434:lvgl/src/widgets/lv_dropdown.c ****     lv_obj_move_to_index(dropdown->list, -1);
 435:lvgl/src/widgets/lv_dropdown.c ****     lv_obj_clear_flag(dropdown->list, LV_OBJ_FLAG_HIDDEN);
 436:lvgl/src/widgets/lv_dropdown.c **** 
 437:lvgl/src/widgets/lv_dropdown.c ****     /*To allow styling the list*/
 438:lvgl/src/widgets/lv_dropdown.c ****     lv_event_send(dropdown_obj, LV_EVENT_READY, NULL);
 439:lvgl/src/widgets/lv_dropdown.c **** 
 440:lvgl/src/widgets/lv_dropdown.c ****     lv_obj_t * label = get_label(dropdown_obj);
 441:lvgl/src/widgets/lv_dropdown.c ****     lv_label_set_text_static(label, dropdown->options);
 442:lvgl/src/widgets/lv_dropdown.c ****     lv_obj_set_width(dropdown->list, LV_SIZE_CONTENT);
 443:lvgl/src/widgets/lv_dropdown.c **** 
 444:lvgl/src/widgets/lv_dropdown.c ****     lv_obj_update_layout(label);
 445:lvgl/src/widgets/lv_dropdown.c ****     /*Set smaller width to the width of the button*/
 446:lvgl/src/widgets/lv_dropdown.c ****     if(lv_obj_get_width(dropdown->list) <= lv_obj_get_width(dropdown_obj) &&
 447:lvgl/src/widgets/lv_dropdown.c ****        (dropdown->dir == LV_DIR_TOP || dropdown->dir == LV_DIR_BOTTOM)) {
 448:lvgl/src/widgets/lv_dropdown.c ****         lv_obj_set_width(dropdown->list, lv_obj_get_width(dropdown_obj));
 449:lvgl/src/widgets/lv_dropdown.c ****     }
 450:lvgl/src/widgets/lv_dropdown.c **** 
 451:lvgl/src/widgets/lv_dropdown.c ****     lv_coord_t label_h = lv_obj_get_height(label);
 452:lvgl/src/widgets/lv_dropdown.c ****     lv_coord_t border_width = lv_obj_get_style_border_width(dropdown->list, LV_PART_MAIN);
 453:lvgl/src/widgets/lv_dropdown.c ****     lv_coord_t top = lv_obj_get_style_pad_top(dropdown->list, LV_PART_MAIN) + border_width;
 454:lvgl/src/widgets/lv_dropdown.c ****     lv_coord_t bottom = lv_obj_get_style_pad_bottom(dropdown->list, LV_PART_MAIN) + border_width;
 455:lvgl/src/widgets/lv_dropdown.c **** 
 456:lvgl/src/widgets/lv_dropdown.c ****     lv_coord_t list_fit_h = label_h + top + bottom;
 457:lvgl/src/widgets/lv_dropdown.c ****     lv_coord_t list_h = list_fit_h;
 458:lvgl/src/widgets/lv_dropdown.c **** 
 459:lvgl/src/widgets/lv_dropdown.c ****     lv_dir_t dir = dropdown->dir;
 460:lvgl/src/widgets/lv_dropdown.c ****     /*No space on the bottom? See if top is better.*/
 461:lvgl/src/widgets/lv_dropdown.c ****     if(dropdown->dir == LV_DIR_BOTTOM) {
 462:lvgl/src/widgets/lv_dropdown.c ****         if(dropdown_obj->coords.y2 + list_h > LV_VER_RES) {
 463:lvgl/src/widgets/lv_dropdown.c ****             if(dropdown_obj->coords.y1 > LV_VER_RES - dropdown_obj->coords.y2) {
 464:lvgl/src/widgets/lv_dropdown.c ****                 /*There is more space on the top, so make it drop up*/
 465:lvgl/src/widgets/lv_dropdown.c ****                 dir = LV_DIR_TOP;
 466:lvgl/src/widgets/lv_dropdown.c ****                 list_h = dropdown_obj->coords.y1 - 1;
 467:lvgl/src/widgets/lv_dropdown.c ****             }
 468:lvgl/src/widgets/lv_dropdown.c ****             else {
 469:lvgl/src/widgets/lv_dropdown.c ****                 list_h = LV_VER_RES - dropdown_obj->coords.y2 - 1 ;
 470:lvgl/src/widgets/lv_dropdown.c ****             }
 471:lvgl/src/widgets/lv_dropdown.c ****         }
 472:lvgl/src/widgets/lv_dropdown.c ****     }
 473:lvgl/src/widgets/lv_dropdown.c ****     /*No space on the top? See if bottom is better.*/
 474:lvgl/src/widgets/lv_dropdown.c ****     else if(dropdown->dir == LV_DIR_TOP) {
 475:lvgl/src/widgets/lv_dropdown.c ****         if(dropdown_obj->coords.y1 - list_h < 0) {
 476:lvgl/src/widgets/lv_dropdown.c ****             if(dropdown_obj->coords.y1 < LV_VER_RES - dropdown_obj->coords.y2) {
 477:lvgl/src/widgets/lv_dropdown.c ****                 /*There is more space on the top, so make it drop up*/
 478:lvgl/src/widgets/lv_dropdown.c ****                 dir = LV_DIR_BOTTOM;
 479:lvgl/src/widgets/lv_dropdown.c ****                 list_h = LV_VER_RES - dropdown_obj->coords.y2;
 480:lvgl/src/widgets/lv_dropdown.c ****             }
 481:lvgl/src/widgets/lv_dropdown.c ****             else {
 482:lvgl/src/widgets/lv_dropdown.c ****                 list_h = dropdown_obj->coords.y1;
 483:lvgl/src/widgets/lv_dropdown.c ****             }
 484:lvgl/src/widgets/lv_dropdown.c ****         }
 485:lvgl/src/widgets/lv_dropdown.c ****     }
 486:lvgl/src/widgets/lv_dropdown.c **** 
 487:lvgl/src/widgets/lv_dropdown.c ****     if(list_h > list_fit_h) list_h = list_fit_h;
ARM GAS  C:\usertemp\ccSNc7FN.s 			page 10


 488:lvgl/src/widgets/lv_dropdown.c ****     lv_obj_set_height(dropdown->list, list_h);
 489:lvgl/src/widgets/lv_dropdown.c **** 
 490:lvgl/src/widgets/lv_dropdown.c ****     position_to_selected(dropdown_obj);
 491:lvgl/src/widgets/lv_dropdown.c **** 
 492:lvgl/src/widgets/lv_dropdown.c ****     if(dir == LV_DIR_BOTTOM)     lv_obj_align_to(dropdown->list, dropdown_obj, LV_ALIGN_OUT_BOTTOM_
 493:lvgl/src/widgets/lv_dropdown.c ****     else if(dir == LV_DIR_TOP)   lv_obj_align_to(dropdown->list, dropdown_obj, LV_ALIGN_OUT_TOP_LEF
 494:lvgl/src/widgets/lv_dropdown.c ****     else if(dir == LV_DIR_LEFT)  lv_obj_align_to(dropdown->list, dropdown_obj, LV_ALIGN_OUT_LEFT_TO
 495:lvgl/src/widgets/lv_dropdown.c ****     else if(dir == LV_DIR_RIGHT) lv_obj_align_to(dropdown->list, dropdown_obj, LV_ALIGN_OUT_RIGHT_T
 496:lvgl/src/widgets/lv_dropdown.c **** 
 497:lvgl/src/widgets/lv_dropdown.c ****     lv_obj_update_layout(dropdown->list);
 498:lvgl/src/widgets/lv_dropdown.c **** 
 499:lvgl/src/widgets/lv_dropdown.c ****     if(dropdown->dir == LV_DIR_LEFT || dropdown->dir == LV_DIR_RIGHT) {
 500:lvgl/src/widgets/lv_dropdown.c ****         lv_coord_t y1 = lv_obj_get_y(dropdown->list);
 501:lvgl/src/widgets/lv_dropdown.c ****         lv_coord_t y2 = lv_obj_get_y2(dropdown->list);
 502:lvgl/src/widgets/lv_dropdown.c ****         if(y2 >= LV_VER_RES) {
 503:lvgl/src/widgets/lv_dropdown.c ****             lv_obj_set_y(dropdown->list, y1 - (y2 - LV_VER_RES) - 1);
 504:lvgl/src/widgets/lv_dropdown.c ****         }
 505:lvgl/src/widgets/lv_dropdown.c ****     }
 506:lvgl/src/widgets/lv_dropdown.c **** 
 507:lvgl/src/widgets/lv_dropdown.c ****     lv_text_align_t align = lv_obj_calculate_style_text_align(label, LV_PART_MAIN, dropdown->option
 508:lvgl/src/widgets/lv_dropdown.c **** 
 509:lvgl/src/widgets/lv_dropdown.c ****     switch(align) {
 510:lvgl/src/widgets/lv_dropdown.c ****         default:
 511:lvgl/src/widgets/lv_dropdown.c ****         case LV_TEXT_ALIGN_LEFT:
 512:lvgl/src/widgets/lv_dropdown.c ****             lv_obj_align(label, LV_ALIGN_TOP_LEFT, 0, 0);
 513:lvgl/src/widgets/lv_dropdown.c ****             break;
 514:lvgl/src/widgets/lv_dropdown.c ****         case LV_TEXT_ALIGN_RIGHT:
 515:lvgl/src/widgets/lv_dropdown.c ****             lv_obj_align(label, LV_ALIGN_TOP_RIGHT, 0, 0);
 516:lvgl/src/widgets/lv_dropdown.c ****             break;
 517:lvgl/src/widgets/lv_dropdown.c ****         case LV_TEXT_ALIGN_CENTER:
 518:lvgl/src/widgets/lv_dropdown.c ****             lv_obj_align(label, LV_ALIGN_CENTER, 0, 0);
 519:lvgl/src/widgets/lv_dropdown.c ****             break;
 520:lvgl/src/widgets/lv_dropdown.c **** 
 521:lvgl/src/widgets/lv_dropdown.c ****     }
 522:lvgl/src/widgets/lv_dropdown.c **** }
 523:lvgl/src/widgets/lv_dropdown.c **** 
 524:lvgl/src/widgets/lv_dropdown.c **** void lv_dropdown_close(lv_obj_t * obj)
 525:lvgl/src/widgets/lv_dropdown.c **** {
 526:lvgl/src/widgets/lv_dropdown.c ****     LV_ASSERT_OBJ(obj, MY_CLASS);
 527:lvgl/src/widgets/lv_dropdown.c **** 
 528:lvgl/src/widgets/lv_dropdown.c ****     lv_obj_clear_state(obj, LV_STATE_CHECKED);
 529:lvgl/src/widgets/lv_dropdown.c ****     lv_dropdown_t * dropdown = (lv_dropdown_t *)obj;
 530:lvgl/src/widgets/lv_dropdown.c **** 
 531:lvgl/src/widgets/lv_dropdown.c ****     dropdown->pr_opt_id = LV_DROPDOWN_PR_NONE;
 532:lvgl/src/widgets/lv_dropdown.c ****     lv_obj_add_flag(dropdown->list, LV_OBJ_FLAG_HIDDEN);
 533:lvgl/src/widgets/lv_dropdown.c **** 
 534:lvgl/src/widgets/lv_dropdown.c ****     lv_event_send(obj, LV_EVENT_CANCEL, NULL);
 535:lvgl/src/widgets/lv_dropdown.c **** }
 536:lvgl/src/widgets/lv_dropdown.c **** 
 537:lvgl/src/widgets/lv_dropdown.c **** bool lv_dropdown_is_open(lv_obj_t * obj)
 538:lvgl/src/widgets/lv_dropdown.c **** {
 539:lvgl/src/widgets/lv_dropdown.c ****     LV_ASSERT_OBJ(obj, MY_CLASS);
 540:lvgl/src/widgets/lv_dropdown.c ****     lv_dropdown_t * dropdown = (lv_dropdown_t *)obj;
 541:lvgl/src/widgets/lv_dropdown.c **** 
 542:lvgl/src/widgets/lv_dropdown.c ****     return lv_obj_has_flag(dropdown->list, LV_OBJ_FLAG_HIDDEN) ? false : true;
 543:lvgl/src/widgets/lv_dropdown.c **** }
 544:lvgl/src/widgets/lv_dropdown.c **** 
ARM GAS  C:\usertemp\ccSNc7FN.s 			page 11


 545:lvgl/src/widgets/lv_dropdown.c **** /**********************
 546:lvgl/src/widgets/lv_dropdown.c ****  *   STATIC FUNCTIONS
 547:lvgl/src/widgets/lv_dropdown.c ****  **********************/
 548:lvgl/src/widgets/lv_dropdown.c **** 
 549:lvgl/src/widgets/lv_dropdown.c **** static lv_obj_t * lv_dropdown_list_create(lv_obj_t * parent)
 550:lvgl/src/widgets/lv_dropdown.c **** {
 551:lvgl/src/widgets/lv_dropdown.c ****     LV_LOG_INFO("begin");
 552:lvgl/src/widgets/lv_dropdown.c ****     lv_obj_t * obj = lv_obj_class_create_obj(&lv_dropdownlist_class, parent);
 553:lvgl/src/widgets/lv_dropdown.c ****     lv_obj_class_init_obj(obj);
 554:lvgl/src/widgets/lv_dropdown.c ****     return obj;
 555:lvgl/src/widgets/lv_dropdown.c **** }
 556:lvgl/src/widgets/lv_dropdown.c **** 
 557:lvgl/src/widgets/lv_dropdown.c **** static void lv_dropdown_constructor(const lv_obj_class_t * class_p, lv_obj_t * obj)
 558:lvgl/src/widgets/lv_dropdown.c **** {
 559:lvgl/src/widgets/lv_dropdown.c ****     LV_UNUSED(class_p);
 560:lvgl/src/widgets/lv_dropdown.c ****     LV_TRACE_OBJ_CREATE("begin");
 561:lvgl/src/widgets/lv_dropdown.c **** 
 562:lvgl/src/widgets/lv_dropdown.c ****     lv_dropdown_t * dropdown = (lv_dropdown_t *)obj;
 563:lvgl/src/widgets/lv_dropdown.c **** 
 564:lvgl/src/widgets/lv_dropdown.c ****     /*Initialize the allocated 'ext'*/
 565:lvgl/src/widgets/lv_dropdown.c ****     dropdown->list          = NULL;
 566:lvgl/src/widgets/lv_dropdown.c ****     dropdown->options     = NULL;
 567:lvgl/src/widgets/lv_dropdown.c ****     dropdown->symbol         = LV_SYMBOL_DOWN;
 568:lvgl/src/widgets/lv_dropdown.c ****     dropdown->text         = NULL;
 569:lvgl/src/widgets/lv_dropdown.c ****     dropdown->static_txt = 1;
 570:lvgl/src/widgets/lv_dropdown.c ****     dropdown->selected_highlight = 1;
 571:lvgl/src/widgets/lv_dropdown.c ****     dropdown->sel_opt_id      = 0;
 572:lvgl/src/widgets/lv_dropdown.c ****     dropdown->sel_opt_id_orig = 0;
 573:lvgl/src/widgets/lv_dropdown.c ****     dropdown->pr_opt_id = LV_DROPDOWN_PR_NONE;
 574:lvgl/src/widgets/lv_dropdown.c ****     dropdown->option_cnt      = 0;
 575:lvgl/src/widgets/lv_dropdown.c ****     dropdown->dir = LV_DIR_BOTTOM;
 576:lvgl/src/widgets/lv_dropdown.c **** 
 577:lvgl/src/widgets/lv_dropdown.c ****     lv_obj_add_flag(obj, LV_OBJ_FLAG_SCROLL_ON_FOCUS);
 578:lvgl/src/widgets/lv_dropdown.c ****     lv_dropdown_set_options_static(obj, "Option 1\nOption 2\nOption 3");
 579:lvgl/src/widgets/lv_dropdown.c **** 
 580:lvgl/src/widgets/lv_dropdown.c ****     dropdown->list = lv_dropdown_list_create(lv_obj_get_screen(obj));
 581:lvgl/src/widgets/lv_dropdown.c ****     lv_dropdown_list_t * list = (lv_dropdown_list_t *)dropdown->list;
 582:lvgl/src/widgets/lv_dropdown.c ****     list->dropdown = obj;
 583:lvgl/src/widgets/lv_dropdown.c **** 
 584:lvgl/src/widgets/lv_dropdown.c ****     LV_TRACE_OBJ_CREATE("finished");
 585:lvgl/src/widgets/lv_dropdown.c **** }
 586:lvgl/src/widgets/lv_dropdown.c **** 
 587:lvgl/src/widgets/lv_dropdown.c **** static void lv_dropdown_destructor(const lv_obj_class_t * class_p, lv_obj_t * obj)
 588:lvgl/src/widgets/lv_dropdown.c **** {
 589:lvgl/src/widgets/lv_dropdown.c ****     LV_UNUSED(class_p);
 590:lvgl/src/widgets/lv_dropdown.c ****     lv_dropdown_t * dropdown = (lv_dropdown_t *)obj;
 591:lvgl/src/widgets/lv_dropdown.c **** 
 592:lvgl/src/widgets/lv_dropdown.c ****     if(dropdown->list) {
 593:lvgl/src/widgets/lv_dropdown.c ****         lv_obj_del(dropdown->list);
 594:lvgl/src/widgets/lv_dropdown.c ****         dropdown->list = NULL;
 595:lvgl/src/widgets/lv_dropdown.c ****     }
 596:lvgl/src/widgets/lv_dropdown.c **** 
 597:lvgl/src/widgets/lv_dropdown.c ****     if(!dropdown->static_txt) {
 598:lvgl/src/widgets/lv_dropdown.c ****         lv_mem_free(dropdown->options);
 599:lvgl/src/widgets/lv_dropdown.c ****         dropdown->options = NULL;
 600:lvgl/src/widgets/lv_dropdown.c ****     }
 601:lvgl/src/widgets/lv_dropdown.c **** }
ARM GAS  C:\usertemp\ccSNc7FN.s 			page 12


 602:lvgl/src/widgets/lv_dropdown.c **** 
 603:lvgl/src/widgets/lv_dropdown.c **** static void lv_dropdownlist_constructor(const lv_obj_class_t * class_p, lv_obj_t * obj)
 604:lvgl/src/widgets/lv_dropdown.c **** {
 605:lvgl/src/widgets/lv_dropdown.c ****     LV_UNUSED(class_p);
 606:lvgl/src/widgets/lv_dropdown.c ****     LV_TRACE_OBJ_CREATE("begin");
 607:lvgl/src/widgets/lv_dropdown.c **** 
 608:lvgl/src/widgets/lv_dropdown.c ****     lv_obj_clear_flag(obj, LV_OBJ_FLAG_SCROLL_ON_FOCUS);
 609:lvgl/src/widgets/lv_dropdown.c ****     lv_obj_clear_flag(obj, LV_OBJ_FLAG_CLICK_FOCUSABLE);
 610:lvgl/src/widgets/lv_dropdown.c ****     lv_obj_add_flag(obj, LV_OBJ_FLAG_IGNORE_LAYOUT);
 611:lvgl/src/widgets/lv_dropdown.c ****     lv_obj_add_flag(obj, LV_OBJ_FLAG_HIDDEN);
 612:lvgl/src/widgets/lv_dropdown.c **** 
 613:lvgl/src/widgets/lv_dropdown.c ****     lv_label_create(obj);
 614:lvgl/src/widgets/lv_dropdown.c **** 
 615:lvgl/src/widgets/lv_dropdown.c ****     LV_TRACE_OBJ_CREATE("finished");
 616:lvgl/src/widgets/lv_dropdown.c **** }
 617:lvgl/src/widgets/lv_dropdown.c **** 
 618:lvgl/src/widgets/lv_dropdown.c **** static void lv_dropdownlist_destructor(const lv_obj_class_t * class_p, lv_obj_t * list_obj)
 619:lvgl/src/widgets/lv_dropdown.c **** {
  28              		.loc 1 619 1 view -0
  29              		.cfi_startproc
  30              		@ args = 0, pretend = 0, frame = 0
  31              		@ frame_needed = 0, uses_anonymous_args = 0
  32              		@ link register save eliminated.
 620:lvgl/src/widgets/lv_dropdown.c ****     LV_UNUSED(class_p);
  33              		.loc 1 620 5 view .LVU1
 621:lvgl/src/widgets/lv_dropdown.c ****     lv_dropdown_list_t * list = (lv_dropdown_list_t *)list_obj;
  34              		.loc 1 621 5 view .LVU2
 622:lvgl/src/widgets/lv_dropdown.c ****     lv_obj_t * dropdown_obj = list->dropdown;
  35              		.loc 1 622 5 view .LVU3
  36              		.loc 1 622 16 is_stmt 0 view .LVU4
  37 0000 4B6A     		ldr	r3, [r1, #36]
  38              	.LVL1:
 623:lvgl/src/widgets/lv_dropdown.c ****     lv_dropdown_t * dropdown = (lv_dropdown_t *)dropdown_obj;
  39              		.loc 1 623 5 is_stmt 1 view .LVU5
 624:lvgl/src/widgets/lv_dropdown.c ****     dropdown->list = NULL;
  40              		.loc 1 624 5 view .LVU6
  41              		.loc 1 624 20 is_stmt 0 view .LVU7
  42 0002 0022     		movs	r2, #0
  43 0004 5A62     		str	r2, [r3, #36]
 625:lvgl/src/widgets/lv_dropdown.c **** }
  44              		.loc 1 625 1 view .LVU8
  45 0006 7047     		bx	lr
  46              		.cfi_endproc
  47              	.LFE188:
  49              		.section	.text.get_label,"ax",%progbits
  50              		.align	1
  51              		.syntax unified
  52              		.thumb
  53              		.thumb_func
  55              	get_label:
  56              	.LVL2:
  57              	.LFB200:
 626:lvgl/src/widgets/lv_dropdown.c **** 
 627:lvgl/src/widgets/lv_dropdown.c **** static void lv_dropdown_event(const lv_obj_class_t * class_p, lv_event_t * e)
 628:lvgl/src/widgets/lv_dropdown.c **** {
 629:lvgl/src/widgets/lv_dropdown.c ****     LV_UNUSED(class_p);
 630:lvgl/src/widgets/lv_dropdown.c **** 
ARM GAS  C:\usertemp\ccSNc7FN.s 			page 13


 631:lvgl/src/widgets/lv_dropdown.c ****     lv_res_t res;
 632:lvgl/src/widgets/lv_dropdown.c **** 
 633:lvgl/src/widgets/lv_dropdown.c ****     /*Call the ancestor's event handler*/
 634:lvgl/src/widgets/lv_dropdown.c ****     res = lv_obj_event_base(MY_CLASS, e);
 635:lvgl/src/widgets/lv_dropdown.c ****     if(res != LV_RES_OK) return;
 636:lvgl/src/widgets/lv_dropdown.c **** 
 637:lvgl/src/widgets/lv_dropdown.c ****     lv_event_code_t code = lv_event_get_code(e);
 638:lvgl/src/widgets/lv_dropdown.c ****     lv_obj_t * obj = lv_event_get_target(e);
 639:lvgl/src/widgets/lv_dropdown.c ****     lv_dropdown_t * dropdown = (lv_dropdown_t *)obj;
 640:lvgl/src/widgets/lv_dropdown.c **** 
 641:lvgl/src/widgets/lv_dropdown.c ****     if(code == LV_EVENT_FOCUSED) {
 642:lvgl/src/widgets/lv_dropdown.c ****         lv_group_t * g             = lv_obj_get_group(obj);
 643:lvgl/src/widgets/lv_dropdown.c ****         bool editing               = lv_group_get_editing(g);
 644:lvgl/src/widgets/lv_dropdown.c ****         lv_indev_type_t indev_type = lv_indev_get_type(lv_indev_get_act());
 645:lvgl/src/widgets/lv_dropdown.c **** 
 646:lvgl/src/widgets/lv_dropdown.c ****         /*Encoders need special handling*/
 647:lvgl/src/widgets/lv_dropdown.c ****         if(indev_type == LV_INDEV_TYPE_ENCODER) {
 648:lvgl/src/widgets/lv_dropdown.c ****             /*Open the list if editing*/
 649:lvgl/src/widgets/lv_dropdown.c ****             if(editing) {
 650:lvgl/src/widgets/lv_dropdown.c ****                 lv_dropdown_open(obj);
 651:lvgl/src/widgets/lv_dropdown.c ****             }
 652:lvgl/src/widgets/lv_dropdown.c ****             /*Close the list if navigating*/
 653:lvgl/src/widgets/lv_dropdown.c ****             else {
 654:lvgl/src/widgets/lv_dropdown.c ****                 dropdown->sel_opt_id = dropdown->sel_opt_id_orig;
 655:lvgl/src/widgets/lv_dropdown.c ****                 lv_dropdown_close(obj);
 656:lvgl/src/widgets/lv_dropdown.c ****             }
 657:lvgl/src/widgets/lv_dropdown.c ****         }
 658:lvgl/src/widgets/lv_dropdown.c ****     }
 659:lvgl/src/widgets/lv_dropdown.c ****     else if(code == LV_EVENT_DEFOCUSED || code == LV_EVENT_LEAVE) {
 660:lvgl/src/widgets/lv_dropdown.c ****         lv_dropdown_close(obj);
 661:lvgl/src/widgets/lv_dropdown.c ****     }
 662:lvgl/src/widgets/lv_dropdown.c ****     else if(code == LV_EVENT_RELEASED) {
 663:lvgl/src/widgets/lv_dropdown.c ****         res = btn_release_handler(obj);
 664:lvgl/src/widgets/lv_dropdown.c ****         if(res != LV_RES_OK) return;
 665:lvgl/src/widgets/lv_dropdown.c ****     }
 666:lvgl/src/widgets/lv_dropdown.c ****     else if(code == LV_EVENT_STYLE_CHANGED) {
 667:lvgl/src/widgets/lv_dropdown.c ****         lv_obj_refresh_self_size(obj);
 668:lvgl/src/widgets/lv_dropdown.c ****     }
 669:lvgl/src/widgets/lv_dropdown.c ****     else if(code == LV_EVENT_SIZE_CHANGED) {
 670:lvgl/src/widgets/lv_dropdown.c ****         lv_obj_refresh_self_size(obj);
 671:lvgl/src/widgets/lv_dropdown.c ****     }
 672:lvgl/src/widgets/lv_dropdown.c ****     else if(code == LV_EVENT_GET_SELF_SIZE) {
 673:lvgl/src/widgets/lv_dropdown.c ****         lv_point_t * p = lv_event_get_param(e);
 674:lvgl/src/widgets/lv_dropdown.c ****         const lv_font_t * font = lv_obj_get_style_text_font(obj, LV_PART_MAIN);
 675:lvgl/src/widgets/lv_dropdown.c ****         p->y = lv_font_get_line_height(font);
 676:lvgl/src/widgets/lv_dropdown.c ****     }
 677:lvgl/src/widgets/lv_dropdown.c ****     else if(code == LV_EVENT_KEY) {
 678:lvgl/src/widgets/lv_dropdown.c ****         char c = *((char *)lv_event_get_param(e));
 679:lvgl/src/widgets/lv_dropdown.c ****         if(c == LV_KEY_RIGHT || c == LV_KEY_DOWN) {
 680:lvgl/src/widgets/lv_dropdown.c ****             if(!lv_dropdown_is_open(obj)) {
 681:lvgl/src/widgets/lv_dropdown.c ****                 lv_dropdown_open(obj);
 682:lvgl/src/widgets/lv_dropdown.c ****             }
 683:lvgl/src/widgets/lv_dropdown.c ****             else if(dropdown->sel_opt_id + 1 < dropdown->option_cnt) {
 684:lvgl/src/widgets/lv_dropdown.c ****                 dropdown->sel_opt_id++;
 685:lvgl/src/widgets/lv_dropdown.c ****                 position_to_selected(obj);
 686:lvgl/src/widgets/lv_dropdown.c ****             }
 687:lvgl/src/widgets/lv_dropdown.c ****         }
ARM GAS  C:\usertemp\ccSNc7FN.s 			page 14


 688:lvgl/src/widgets/lv_dropdown.c ****         else if(c == LV_KEY_LEFT || c == LV_KEY_UP) {
 689:lvgl/src/widgets/lv_dropdown.c **** 
 690:lvgl/src/widgets/lv_dropdown.c ****             if(!lv_dropdown_is_open(obj)) {
 691:lvgl/src/widgets/lv_dropdown.c ****                 lv_dropdown_open(obj);
 692:lvgl/src/widgets/lv_dropdown.c ****             }
 693:lvgl/src/widgets/lv_dropdown.c ****             else if(dropdown->sel_opt_id > 0) {
 694:lvgl/src/widgets/lv_dropdown.c ****                 dropdown->sel_opt_id--;
 695:lvgl/src/widgets/lv_dropdown.c ****                 position_to_selected(obj);
 696:lvgl/src/widgets/lv_dropdown.c ****             }
 697:lvgl/src/widgets/lv_dropdown.c ****         }
 698:lvgl/src/widgets/lv_dropdown.c ****         else if(c == LV_KEY_ESC) {
 699:lvgl/src/widgets/lv_dropdown.c ****             dropdown->sel_opt_id = dropdown->sel_opt_id_orig;
 700:lvgl/src/widgets/lv_dropdown.c ****             lv_dropdown_close(obj);
 701:lvgl/src/widgets/lv_dropdown.c ****         }
 702:lvgl/src/widgets/lv_dropdown.c ****         else if(c == LV_KEY_ENTER) {
 703:lvgl/src/widgets/lv_dropdown.c ****             /* Handle the ENTER key only if it was send by an other object.
 704:lvgl/src/widgets/lv_dropdown.c ****              * Do no process it if ENTER is sent by the dropdown because it's handled in LV_EVENT_R
 705:lvgl/src/widgets/lv_dropdown.c ****             lv_obj_t * indev_obj = lv_indev_get_obj_act();
 706:lvgl/src/widgets/lv_dropdown.c ****             if(indev_obj != obj) {
 707:lvgl/src/widgets/lv_dropdown.c ****                 res = btn_release_handler(obj);
 708:lvgl/src/widgets/lv_dropdown.c ****                 if(res != LV_RES_OK) return;
 709:lvgl/src/widgets/lv_dropdown.c ****             }
 710:lvgl/src/widgets/lv_dropdown.c ****         }
 711:lvgl/src/widgets/lv_dropdown.c ****     }
 712:lvgl/src/widgets/lv_dropdown.c ****     else if(code == LV_EVENT_DRAW_MAIN) {
 713:lvgl/src/widgets/lv_dropdown.c ****         draw_main(e);
 714:lvgl/src/widgets/lv_dropdown.c ****     }
 715:lvgl/src/widgets/lv_dropdown.c **** }
 716:lvgl/src/widgets/lv_dropdown.c **** 
 717:lvgl/src/widgets/lv_dropdown.c **** static void lv_dropdown_list_event(const lv_obj_class_t * class_p, lv_event_t * e)
 718:lvgl/src/widgets/lv_dropdown.c **** {
 719:lvgl/src/widgets/lv_dropdown.c ****     LV_UNUSED(class_p);
 720:lvgl/src/widgets/lv_dropdown.c **** 
 721:lvgl/src/widgets/lv_dropdown.c ****     lv_res_t res;
 722:lvgl/src/widgets/lv_dropdown.c **** 
 723:lvgl/src/widgets/lv_dropdown.c ****     /*Call the ancestor's event handler*/
 724:lvgl/src/widgets/lv_dropdown.c ****     lv_event_code_t code = lv_event_get_code(e);
 725:lvgl/src/widgets/lv_dropdown.c ****     if(code != LV_EVENT_DRAW_POST) {
 726:lvgl/src/widgets/lv_dropdown.c ****         res = lv_obj_event_base(MY_CLASS_LIST, e);
 727:lvgl/src/widgets/lv_dropdown.c ****         if(res != LV_RES_OK) return;
 728:lvgl/src/widgets/lv_dropdown.c ****     }
 729:lvgl/src/widgets/lv_dropdown.c ****     lv_obj_t * list = lv_event_get_target(e);
 730:lvgl/src/widgets/lv_dropdown.c ****     lv_obj_t * dropdown_obj = ((lv_dropdown_list_t *)list)->dropdown;
 731:lvgl/src/widgets/lv_dropdown.c ****     lv_dropdown_t * dropdown = (lv_dropdown_t *)dropdown_obj;
 732:lvgl/src/widgets/lv_dropdown.c **** 
 733:lvgl/src/widgets/lv_dropdown.c ****     if(code == LV_EVENT_RELEASED) {
 734:lvgl/src/widgets/lv_dropdown.c ****         if(lv_indev_get_scroll_obj(lv_indev_get_act()) == NULL) {
 735:lvgl/src/widgets/lv_dropdown.c ****             list_release_handler(list);
 736:lvgl/src/widgets/lv_dropdown.c ****         }
 737:lvgl/src/widgets/lv_dropdown.c ****     }
 738:lvgl/src/widgets/lv_dropdown.c ****     else if(code == LV_EVENT_PRESSED) {
 739:lvgl/src/widgets/lv_dropdown.c ****         list_press_handler(list);
 740:lvgl/src/widgets/lv_dropdown.c ****     }
 741:lvgl/src/widgets/lv_dropdown.c ****     else if(code == LV_EVENT_SCROLL_BEGIN) {
 742:lvgl/src/widgets/lv_dropdown.c ****         dropdown->pr_opt_id = LV_DROPDOWN_PR_NONE;
 743:lvgl/src/widgets/lv_dropdown.c ****         lv_obj_invalidate(list);
 744:lvgl/src/widgets/lv_dropdown.c ****     }
ARM GAS  C:\usertemp\ccSNc7FN.s 			page 15


 745:lvgl/src/widgets/lv_dropdown.c ****     else if(code == LV_EVENT_DRAW_POST) {
 746:lvgl/src/widgets/lv_dropdown.c ****         draw_list(e);
 747:lvgl/src/widgets/lv_dropdown.c ****         res = lv_obj_event_base(MY_CLASS_LIST, e);
 748:lvgl/src/widgets/lv_dropdown.c ****         if(res != LV_RES_OK) return;
 749:lvgl/src/widgets/lv_dropdown.c ****     }
 750:lvgl/src/widgets/lv_dropdown.c **** }
 751:lvgl/src/widgets/lv_dropdown.c **** 
 752:lvgl/src/widgets/lv_dropdown.c **** 
 753:lvgl/src/widgets/lv_dropdown.c **** static void draw_main(lv_event_t * e)
 754:lvgl/src/widgets/lv_dropdown.c **** {
 755:lvgl/src/widgets/lv_dropdown.c ****     lv_obj_t * obj = lv_event_get_target(e);
 756:lvgl/src/widgets/lv_dropdown.c ****     lv_dropdown_t * dropdown = (lv_dropdown_t *)obj;
 757:lvgl/src/widgets/lv_dropdown.c ****     lv_draw_ctx_t * draw_ctx = lv_event_get_draw_ctx(e);
 758:lvgl/src/widgets/lv_dropdown.c **** 
 759:lvgl/src/widgets/lv_dropdown.c ****     lv_coord_t border_width = lv_obj_get_style_border_width(obj, LV_PART_MAIN);
 760:lvgl/src/widgets/lv_dropdown.c ****     lv_coord_t left = lv_obj_get_style_pad_left(obj, LV_PART_MAIN) + border_width;
 761:lvgl/src/widgets/lv_dropdown.c ****     lv_coord_t right = lv_obj_get_style_pad_right(obj, LV_PART_MAIN) + border_width;
 762:lvgl/src/widgets/lv_dropdown.c ****     lv_coord_t top = lv_obj_get_style_pad_top(obj, LV_PART_MAIN) + border_width;
 763:lvgl/src/widgets/lv_dropdown.c **** 
 764:lvgl/src/widgets/lv_dropdown.c ****     lv_draw_label_dsc_t symbol_dsc;
 765:lvgl/src/widgets/lv_dropdown.c ****     lv_draw_label_dsc_init(&symbol_dsc);
 766:lvgl/src/widgets/lv_dropdown.c ****     lv_obj_init_draw_label_dsc(obj, LV_PART_INDICATOR, &symbol_dsc);
 767:lvgl/src/widgets/lv_dropdown.c **** 
 768:lvgl/src/widgets/lv_dropdown.c ****     /*If no text specified use the selected option*/
 769:lvgl/src/widgets/lv_dropdown.c ****     const char * opt_txt;
 770:lvgl/src/widgets/lv_dropdown.c ****     if(dropdown->text) opt_txt = dropdown->text;
 771:lvgl/src/widgets/lv_dropdown.c ****     else {
 772:lvgl/src/widgets/lv_dropdown.c ****         char * buf = lv_mem_buf_get(128);
 773:lvgl/src/widgets/lv_dropdown.c ****         lv_dropdown_get_selected_str(obj, buf, 128);
 774:lvgl/src/widgets/lv_dropdown.c ****         opt_txt = buf;
 775:lvgl/src/widgets/lv_dropdown.c ****     }
 776:lvgl/src/widgets/lv_dropdown.c **** 
 777:lvgl/src/widgets/lv_dropdown.c ****     bool symbol_to_left = false;
 778:lvgl/src/widgets/lv_dropdown.c ****     if(dropdown->dir == LV_DIR_LEFT) symbol_to_left = true;
 779:lvgl/src/widgets/lv_dropdown.c ****     if(lv_obj_get_style_base_dir(obj, LV_PART_MAIN) == LV_BASE_DIR_RTL) symbol_to_left = true;
 780:lvgl/src/widgets/lv_dropdown.c **** 
 781:lvgl/src/widgets/lv_dropdown.c ****     if(dropdown->symbol) {
 782:lvgl/src/widgets/lv_dropdown.c ****         lv_img_src_t symbol_type = lv_img_src_get_type(dropdown->symbol);
 783:lvgl/src/widgets/lv_dropdown.c ****         lv_coord_t symbol_w;
 784:lvgl/src/widgets/lv_dropdown.c ****         lv_coord_t symbol_h;
 785:lvgl/src/widgets/lv_dropdown.c ****         if(symbol_type == LV_IMG_SRC_SYMBOL) {
 786:lvgl/src/widgets/lv_dropdown.c ****             lv_point_t size;
 787:lvgl/src/widgets/lv_dropdown.c ****             lv_txt_get_size(&size, dropdown->symbol, symbol_dsc.font, symbol_dsc.letter_space, symb
 788:lvgl/src/widgets/lv_dropdown.c ****                             symbol_dsc.flag);
 789:lvgl/src/widgets/lv_dropdown.c ****             symbol_w = size.x;
 790:lvgl/src/widgets/lv_dropdown.c ****             symbol_h = size.y;
 791:lvgl/src/widgets/lv_dropdown.c ****         }
 792:lvgl/src/widgets/lv_dropdown.c ****         else {
 793:lvgl/src/widgets/lv_dropdown.c ****             lv_img_header_t header;
 794:lvgl/src/widgets/lv_dropdown.c ****             lv_res_t res = lv_img_decoder_get_info(dropdown->symbol, &header);
 795:lvgl/src/widgets/lv_dropdown.c ****             if(res == LV_RES_OK) {
 796:lvgl/src/widgets/lv_dropdown.c ****                 symbol_w = header.w;
 797:lvgl/src/widgets/lv_dropdown.c ****                 symbol_h = header.h;
 798:lvgl/src/widgets/lv_dropdown.c ****             }
 799:lvgl/src/widgets/lv_dropdown.c ****             else {
 800:lvgl/src/widgets/lv_dropdown.c ****                 symbol_w = -1;
 801:lvgl/src/widgets/lv_dropdown.c ****                 symbol_h = -1;
ARM GAS  C:\usertemp\ccSNc7FN.s 			page 16


 802:lvgl/src/widgets/lv_dropdown.c ****             }
 803:lvgl/src/widgets/lv_dropdown.c ****         }
 804:lvgl/src/widgets/lv_dropdown.c **** 
 805:lvgl/src/widgets/lv_dropdown.c ****         lv_area_t symbol_area;
 806:lvgl/src/widgets/lv_dropdown.c ****         if(symbol_to_left) {
 807:lvgl/src/widgets/lv_dropdown.c ****             symbol_area.x1 = obj->coords.x1 + left;
 808:lvgl/src/widgets/lv_dropdown.c ****             symbol_area.x2 = symbol_area.x1 + symbol_w - 1;
 809:lvgl/src/widgets/lv_dropdown.c ****         }
 810:lvgl/src/widgets/lv_dropdown.c ****         else {
 811:lvgl/src/widgets/lv_dropdown.c ****             symbol_area.x1 = obj->coords.x2 - right - symbol_w;
 812:lvgl/src/widgets/lv_dropdown.c ****             symbol_area.x2 = symbol_area.x1 + symbol_w - 1;
 813:lvgl/src/widgets/lv_dropdown.c ****         }
 814:lvgl/src/widgets/lv_dropdown.c **** 
 815:lvgl/src/widgets/lv_dropdown.c ****         if(symbol_type == LV_IMG_SRC_SYMBOL) {
 816:lvgl/src/widgets/lv_dropdown.c ****             symbol_area.y1 = obj->coords.y1 + top;
 817:lvgl/src/widgets/lv_dropdown.c ****             symbol_area.y2 = symbol_area.y1 + symbol_h - 1;
 818:lvgl/src/widgets/lv_dropdown.c ****             lv_draw_label(draw_ctx, &symbol_dsc, &symbol_area, dropdown->symbol, NULL);
 819:lvgl/src/widgets/lv_dropdown.c ****         }
 820:lvgl/src/widgets/lv_dropdown.c ****         else {
 821:lvgl/src/widgets/lv_dropdown.c ****             symbol_area.y1 = obj->coords.y1 + (lv_obj_get_height(obj) - symbol_h) / 2;
 822:lvgl/src/widgets/lv_dropdown.c ****             symbol_area.y2 = symbol_area.y1 + symbol_h - 1;
 823:lvgl/src/widgets/lv_dropdown.c ****             lv_draw_img_dsc_t img_dsc;
 824:lvgl/src/widgets/lv_dropdown.c ****             lv_draw_img_dsc_init(&img_dsc);
 825:lvgl/src/widgets/lv_dropdown.c ****             lv_obj_init_draw_img_dsc(obj, LV_PART_INDICATOR, &img_dsc);
 826:lvgl/src/widgets/lv_dropdown.c ****             img_dsc.pivot.x = symbol_w / 2;
 827:lvgl/src/widgets/lv_dropdown.c ****             img_dsc.pivot.y = symbol_h / 2;
 828:lvgl/src/widgets/lv_dropdown.c ****             img_dsc.angle = lv_obj_get_style_transform_angle(obj, LV_PART_INDICATOR);
 829:lvgl/src/widgets/lv_dropdown.c ****             lv_draw_img(draw_ctx, &img_dsc, &symbol_area, dropdown->symbol);
 830:lvgl/src/widgets/lv_dropdown.c ****         }
 831:lvgl/src/widgets/lv_dropdown.c ****     }
 832:lvgl/src/widgets/lv_dropdown.c **** 
 833:lvgl/src/widgets/lv_dropdown.c ****     lv_draw_label_dsc_t label_dsc;
 834:lvgl/src/widgets/lv_dropdown.c ****     lv_draw_label_dsc_init(&label_dsc);
 835:lvgl/src/widgets/lv_dropdown.c ****     lv_obj_init_draw_label_dsc(obj, LV_PART_MAIN, &label_dsc);
 836:lvgl/src/widgets/lv_dropdown.c **** 
 837:lvgl/src/widgets/lv_dropdown.c ****     lv_point_t size;
 838:lvgl/src/widgets/lv_dropdown.c ****     lv_txt_get_size(&size, opt_txt, label_dsc.font, label_dsc.letter_space, label_dsc.line_space, L
 839:lvgl/src/widgets/lv_dropdown.c ****                     label_dsc.flag);
 840:lvgl/src/widgets/lv_dropdown.c **** 
 841:lvgl/src/widgets/lv_dropdown.c ****     lv_area_t txt_area;
 842:lvgl/src/widgets/lv_dropdown.c ****     txt_area.y1 = obj->coords.y1 + top;
 843:lvgl/src/widgets/lv_dropdown.c ****     txt_area.y2 = txt_area.y1 + size.y;
 844:lvgl/src/widgets/lv_dropdown.c ****     /*Center align the text if no symbol*/
 845:lvgl/src/widgets/lv_dropdown.c ****     if(dropdown->symbol == NULL) {
 846:lvgl/src/widgets/lv_dropdown.c ****         txt_area.x1 = obj->coords.x1 + (lv_obj_get_width(obj) - size.x) / 2;
 847:lvgl/src/widgets/lv_dropdown.c ****         txt_area.x2 = txt_area.x1 + size.x;
 848:lvgl/src/widgets/lv_dropdown.c ****     }
 849:lvgl/src/widgets/lv_dropdown.c ****     else {
 850:lvgl/src/widgets/lv_dropdown.c ****         /*Text to the right*/
 851:lvgl/src/widgets/lv_dropdown.c ****         if(symbol_to_left) {
 852:lvgl/src/widgets/lv_dropdown.c ****             txt_area.x1 = obj->coords.x2 - right - size.x;
 853:lvgl/src/widgets/lv_dropdown.c ****             txt_area.x2 = txt_area.x1 + size.x;
 854:lvgl/src/widgets/lv_dropdown.c ****         }
 855:lvgl/src/widgets/lv_dropdown.c ****         else {
 856:lvgl/src/widgets/lv_dropdown.c ****             txt_area.x1 = obj->coords.x1 + left;
 857:lvgl/src/widgets/lv_dropdown.c ****             txt_area.x2 = txt_area.x1 + size.x;
 858:lvgl/src/widgets/lv_dropdown.c ****         }
ARM GAS  C:\usertemp\ccSNc7FN.s 			page 17


 859:lvgl/src/widgets/lv_dropdown.c ****     }
 860:lvgl/src/widgets/lv_dropdown.c ****     lv_draw_label(draw_ctx, &label_dsc, &txt_area, opt_txt, NULL);
 861:lvgl/src/widgets/lv_dropdown.c **** 
 862:lvgl/src/widgets/lv_dropdown.c ****     if(dropdown->text == NULL) {
 863:lvgl/src/widgets/lv_dropdown.c ****         lv_mem_buf_release((char *)opt_txt);
 864:lvgl/src/widgets/lv_dropdown.c ****     }
 865:lvgl/src/widgets/lv_dropdown.c **** }
 866:lvgl/src/widgets/lv_dropdown.c **** 
 867:lvgl/src/widgets/lv_dropdown.c **** static void draw_list(lv_event_t * e)
 868:lvgl/src/widgets/lv_dropdown.c **** {
 869:lvgl/src/widgets/lv_dropdown.c ****     lv_obj_t * list_obj = lv_event_get_target(e);
 870:lvgl/src/widgets/lv_dropdown.c ****     lv_dropdown_list_t * list = (lv_dropdown_list_t *)list_obj;
 871:lvgl/src/widgets/lv_dropdown.c ****     lv_obj_t * dropdown_obj = list->dropdown;
 872:lvgl/src/widgets/lv_dropdown.c ****     lv_dropdown_t * dropdown = (lv_dropdown_t *)dropdown_obj;
 873:lvgl/src/widgets/lv_dropdown.c ****     lv_draw_ctx_t * draw_ctx = lv_event_get_draw_ctx(e);
 874:lvgl/src/widgets/lv_dropdown.c **** 
 875:lvgl/src/widgets/lv_dropdown.c ****     /* Clip area might be too large too to shadow but
 876:lvgl/src/widgets/lv_dropdown.c ****      * the selected option can be drawn on only the background*/
 877:lvgl/src/widgets/lv_dropdown.c ****     lv_area_t clip_area_core;
 878:lvgl/src/widgets/lv_dropdown.c ****     bool has_common;
 879:lvgl/src/widgets/lv_dropdown.c ****     has_common = _lv_area_intersect(&clip_area_core, draw_ctx->clip_area, &dropdown->list->coords);
 880:lvgl/src/widgets/lv_dropdown.c ****     if(has_common) {
 881:lvgl/src/widgets/lv_dropdown.c ****         const lv_area_t * clip_area_ori = draw_ctx->clip_area;
 882:lvgl/src/widgets/lv_dropdown.c ****         draw_ctx->clip_area = &clip_area_core;
 883:lvgl/src/widgets/lv_dropdown.c ****         if(dropdown->selected_highlight) {
 884:lvgl/src/widgets/lv_dropdown.c ****             if(dropdown->pr_opt_id == dropdown->sel_opt_id) {
 885:lvgl/src/widgets/lv_dropdown.c ****                 draw_box(dropdown_obj, draw_ctx, dropdown->pr_opt_id, LV_STATE_CHECKED | LV_STATE_P
 886:lvgl/src/widgets/lv_dropdown.c ****                 draw_box_label(dropdown_obj, draw_ctx, dropdown->pr_opt_id, LV_STATE_CHECKED | LV_S
 887:lvgl/src/widgets/lv_dropdown.c ****             }
 888:lvgl/src/widgets/lv_dropdown.c ****             else {
 889:lvgl/src/widgets/lv_dropdown.c ****                 draw_box(dropdown_obj, draw_ctx, dropdown->pr_opt_id, LV_STATE_PRESSED);
 890:lvgl/src/widgets/lv_dropdown.c ****                 draw_box_label(dropdown_obj, draw_ctx, dropdown->pr_opt_id, LV_STATE_PRESSED);
 891:lvgl/src/widgets/lv_dropdown.c ****                 draw_box(dropdown_obj, draw_ctx, dropdown->sel_opt_id, LV_STATE_CHECKED);
 892:lvgl/src/widgets/lv_dropdown.c ****                 draw_box_label(dropdown_obj, draw_ctx, dropdown->sel_opt_id, LV_STATE_CHECKED);
 893:lvgl/src/widgets/lv_dropdown.c ****             }
 894:lvgl/src/widgets/lv_dropdown.c ****         }
 895:lvgl/src/widgets/lv_dropdown.c ****         else {
 896:lvgl/src/widgets/lv_dropdown.c ****             draw_box(dropdown_obj, draw_ctx, dropdown->pr_opt_id, LV_STATE_PRESSED);
 897:lvgl/src/widgets/lv_dropdown.c ****             draw_box_label(dropdown_obj, draw_ctx, dropdown->pr_opt_id, LV_STATE_PRESSED);
 898:lvgl/src/widgets/lv_dropdown.c ****         }
 899:lvgl/src/widgets/lv_dropdown.c ****         draw_ctx->clip_area = clip_area_ori;
 900:lvgl/src/widgets/lv_dropdown.c ****     }
 901:lvgl/src/widgets/lv_dropdown.c **** }
 902:lvgl/src/widgets/lv_dropdown.c **** 
 903:lvgl/src/widgets/lv_dropdown.c **** static void draw_box(lv_obj_t * dropdown_obj, lv_draw_ctx_t * draw_ctx, uint16_t id, lv_state_t sta
 904:lvgl/src/widgets/lv_dropdown.c **** {
 905:lvgl/src/widgets/lv_dropdown.c ****     if(id == LV_DROPDOWN_PR_NONE) return;
 906:lvgl/src/widgets/lv_dropdown.c **** 
 907:lvgl/src/widgets/lv_dropdown.c ****     lv_dropdown_t * dropdown = (lv_dropdown_t *)dropdown_obj;
 908:lvgl/src/widgets/lv_dropdown.c ****     lv_obj_t * list_obj = dropdown->list;
 909:lvgl/src/widgets/lv_dropdown.c ****     lv_state_t state_ori = list_obj->state;
 910:lvgl/src/widgets/lv_dropdown.c **** 
 911:lvgl/src/widgets/lv_dropdown.c ****     if(state != list_obj->state) {
 912:lvgl/src/widgets/lv_dropdown.c ****         list_obj->state = state;
 913:lvgl/src/widgets/lv_dropdown.c ****         list_obj->skip_trans = 1;
 914:lvgl/src/widgets/lv_dropdown.c ****     }
 915:lvgl/src/widgets/lv_dropdown.c **** 
ARM GAS  C:\usertemp\ccSNc7FN.s 			page 18


 916:lvgl/src/widgets/lv_dropdown.c ****     /*Draw a rectangle under the selected item*/
 917:lvgl/src/widgets/lv_dropdown.c ****     const lv_font_t * font    = lv_obj_get_style_text_font(list_obj, LV_PART_SELECTED);
 918:lvgl/src/widgets/lv_dropdown.c ****     lv_coord_t line_space = lv_obj_get_style_text_line_space(list_obj,  LV_PART_SELECTED);
 919:lvgl/src/widgets/lv_dropdown.c ****     lv_coord_t font_h         = lv_font_get_line_height(font);
 920:lvgl/src/widgets/lv_dropdown.c **** 
 921:lvgl/src/widgets/lv_dropdown.c ****     /*Draw the selected*/
 922:lvgl/src/widgets/lv_dropdown.c ****     lv_obj_t * label = get_label(dropdown_obj);
 923:lvgl/src/widgets/lv_dropdown.c ****     lv_area_t rect_area;
 924:lvgl/src/widgets/lv_dropdown.c ****     rect_area.y1 = label->coords.y1;
 925:lvgl/src/widgets/lv_dropdown.c ****     rect_area.y1 += id * (font_h + line_space);
 926:lvgl/src/widgets/lv_dropdown.c ****     rect_area.y1 -= line_space / 2;
 927:lvgl/src/widgets/lv_dropdown.c **** 
 928:lvgl/src/widgets/lv_dropdown.c ****     rect_area.y2 = rect_area.y1 + font_h + line_space - 1;
 929:lvgl/src/widgets/lv_dropdown.c ****     rect_area.x1 = dropdown->list->coords.x1;
 930:lvgl/src/widgets/lv_dropdown.c ****     rect_area.x2 = dropdown->list->coords.x2;
 931:lvgl/src/widgets/lv_dropdown.c **** 
 932:lvgl/src/widgets/lv_dropdown.c ****     lv_draw_rect_dsc_t sel_rect;
 933:lvgl/src/widgets/lv_dropdown.c ****     lv_draw_rect_dsc_init(&sel_rect);
 934:lvgl/src/widgets/lv_dropdown.c ****     lv_obj_init_draw_rect_dsc(list_obj,  LV_PART_SELECTED, &sel_rect);
 935:lvgl/src/widgets/lv_dropdown.c ****     lv_draw_rect(draw_ctx, &sel_rect, &rect_area);
 936:lvgl/src/widgets/lv_dropdown.c **** 
 937:lvgl/src/widgets/lv_dropdown.c ****     list_obj->state = state_ori;
 938:lvgl/src/widgets/lv_dropdown.c ****     list_obj->skip_trans = 0;
 939:lvgl/src/widgets/lv_dropdown.c **** }
 940:lvgl/src/widgets/lv_dropdown.c **** 
 941:lvgl/src/widgets/lv_dropdown.c **** static void draw_box_label(lv_obj_t * dropdown_obj, lv_draw_ctx_t * draw_ctx, uint16_t id, lv_state
 942:lvgl/src/widgets/lv_dropdown.c **** {
 943:lvgl/src/widgets/lv_dropdown.c ****     if(id == LV_DROPDOWN_PR_NONE) return;
 944:lvgl/src/widgets/lv_dropdown.c **** 
 945:lvgl/src/widgets/lv_dropdown.c ****     lv_dropdown_t * dropdown = (lv_dropdown_t *)dropdown_obj;
 946:lvgl/src/widgets/lv_dropdown.c ****     lv_obj_t * list_obj = dropdown->list;
 947:lvgl/src/widgets/lv_dropdown.c ****     lv_state_t state_orig = list_obj->state;
 948:lvgl/src/widgets/lv_dropdown.c **** 
 949:lvgl/src/widgets/lv_dropdown.c ****     if(state != list_obj->state) {
 950:lvgl/src/widgets/lv_dropdown.c ****         list_obj->state = state;
 951:lvgl/src/widgets/lv_dropdown.c ****         list_obj->skip_trans = 1;
 952:lvgl/src/widgets/lv_dropdown.c ****     }
 953:lvgl/src/widgets/lv_dropdown.c **** 
 954:lvgl/src/widgets/lv_dropdown.c ****     lv_draw_label_dsc_t label_dsc;
 955:lvgl/src/widgets/lv_dropdown.c ****     lv_draw_label_dsc_init(&label_dsc);
 956:lvgl/src/widgets/lv_dropdown.c ****     lv_obj_init_draw_label_dsc(list_obj, LV_PART_SELECTED, &label_dsc);
 957:lvgl/src/widgets/lv_dropdown.c **** 
 958:lvgl/src/widgets/lv_dropdown.c ****     label_dsc.line_space = lv_obj_get_style_text_line_space(list_obj,
 959:lvgl/src/widgets/lv_dropdown.c ****                                                             LV_PART_SELECTED);  /*Line space should
 960:lvgl/src/widgets/lv_dropdown.c **** 
 961:lvgl/src/widgets/lv_dropdown.c ****     lv_obj_t * label = get_label(dropdown_obj);
 962:lvgl/src/widgets/lv_dropdown.c ****     if(label == NULL) return;
 963:lvgl/src/widgets/lv_dropdown.c **** 
 964:lvgl/src/widgets/lv_dropdown.c ****     lv_coord_t font_h        = lv_font_get_line_height(label_dsc.font);
 965:lvgl/src/widgets/lv_dropdown.c **** 
 966:lvgl/src/widgets/lv_dropdown.c ****     lv_area_t area_sel;
 967:lvgl/src/widgets/lv_dropdown.c ****     area_sel.y1 = label->coords.y1;
 968:lvgl/src/widgets/lv_dropdown.c ****     area_sel.y1 += id * (font_h + label_dsc.line_space);
 969:lvgl/src/widgets/lv_dropdown.c ****     area_sel.y1 -= label_dsc.line_space / 2;
 970:lvgl/src/widgets/lv_dropdown.c **** 
 971:lvgl/src/widgets/lv_dropdown.c ****     area_sel.y2 = area_sel.y1 + font_h + label_dsc.line_space - 1;
 972:lvgl/src/widgets/lv_dropdown.c ****     area_sel.x1 = list_obj->coords.x1;
ARM GAS  C:\usertemp\ccSNc7FN.s 			page 19


 973:lvgl/src/widgets/lv_dropdown.c ****     area_sel.x2 = list_obj->coords.x2;
 974:lvgl/src/widgets/lv_dropdown.c ****     lv_area_t mask_sel;
 975:lvgl/src/widgets/lv_dropdown.c ****     bool area_ok;
 976:lvgl/src/widgets/lv_dropdown.c ****     area_ok = _lv_area_intersect(&mask_sel, draw_ctx->clip_area, &area_sel);
 977:lvgl/src/widgets/lv_dropdown.c ****     if(area_ok) {
 978:lvgl/src/widgets/lv_dropdown.c ****         const lv_area_t * clip_area_ori = draw_ctx->clip_area;
 979:lvgl/src/widgets/lv_dropdown.c ****         draw_ctx->clip_area = &mask_sel;
 980:lvgl/src/widgets/lv_dropdown.c ****         lv_draw_label(draw_ctx, &label_dsc, &label->coords, lv_label_get_text(label), NULL);
 981:lvgl/src/widgets/lv_dropdown.c ****         draw_ctx->clip_area = clip_area_ori;
 982:lvgl/src/widgets/lv_dropdown.c ****     }
 983:lvgl/src/widgets/lv_dropdown.c ****     list_obj->state = state_orig;
 984:lvgl/src/widgets/lv_dropdown.c ****     list_obj->skip_trans = 0;
 985:lvgl/src/widgets/lv_dropdown.c **** }
 986:lvgl/src/widgets/lv_dropdown.c **** 
 987:lvgl/src/widgets/lv_dropdown.c **** 
 988:lvgl/src/widgets/lv_dropdown.c **** static lv_res_t btn_release_handler(lv_obj_t * obj)
 989:lvgl/src/widgets/lv_dropdown.c **** {
 990:lvgl/src/widgets/lv_dropdown.c ****     lv_dropdown_t * dropdown = (lv_dropdown_t *)obj;
 991:lvgl/src/widgets/lv_dropdown.c ****     lv_indev_t * indev = lv_indev_get_act();
 992:lvgl/src/widgets/lv_dropdown.c ****     if(lv_indev_get_scroll_obj(indev) == NULL) {
 993:lvgl/src/widgets/lv_dropdown.c ****         if(lv_dropdown_is_open(obj)) {
 994:lvgl/src/widgets/lv_dropdown.c ****             lv_dropdown_close(obj);
 995:lvgl/src/widgets/lv_dropdown.c ****             if(dropdown->sel_opt_id_orig != dropdown->sel_opt_id) {
 996:lvgl/src/widgets/lv_dropdown.c ****                 dropdown->sel_opt_id_orig = dropdown->sel_opt_id;
 997:lvgl/src/widgets/lv_dropdown.c ****                 lv_res_t res;
 998:lvgl/src/widgets/lv_dropdown.c ****                 uint32_t id  = dropdown->sel_opt_id; /*Just to use uint32_t in event data*/
 999:lvgl/src/widgets/lv_dropdown.c ****                 res = lv_event_send(obj, LV_EVENT_VALUE_CHANGED, &id);
1000:lvgl/src/widgets/lv_dropdown.c ****                 if(res != LV_RES_OK) return res;
1001:lvgl/src/widgets/lv_dropdown.c ****                 lv_obj_invalidate(obj);
1002:lvgl/src/widgets/lv_dropdown.c ****             }
1003:lvgl/src/widgets/lv_dropdown.c ****             lv_indev_type_t indev_type = lv_indev_get_type(indev);
1004:lvgl/src/widgets/lv_dropdown.c ****             if(indev_type == LV_INDEV_TYPE_ENCODER) {
1005:lvgl/src/widgets/lv_dropdown.c ****                 lv_group_set_editing(lv_obj_get_group(obj), false);
1006:lvgl/src/widgets/lv_dropdown.c ****             }
1007:lvgl/src/widgets/lv_dropdown.c ****         }
1008:lvgl/src/widgets/lv_dropdown.c ****         else {
1009:lvgl/src/widgets/lv_dropdown.c ****             lv_dropdown_open(obj);
1010:lvgl/src/widgets/lv_dropdown.c ****         }
1011:lvgl/src/widgets/lv_dropdown.c ****     }
1012:lvgl/src/widgets/lv_dropdown.c ****     else {
1013:lvgl/src/widgets/lv_dropdown.c ****         dropdown->sel_opt_id = dropdown->sel_opt_id_orig;
1014:lvgl/src/widgets/lv_dropdown.c ****         lv_obj_invalidate(obj);
1015:lvgl/src/widgets/lv_dropdown.c ****     }
1016:lvgl/src/widgets/lv_dropdown.c ****     return LV_RES_OK;
1017:lvgl/src/widgets/lv_dropdown.c **** }
1018:lvgl/src/widgets/lv_dropdown.c **** 
1019:lvgl/src/widgets/lv_dropdown.c **** /**
1020:lvgl/src/widgets/lv_dropdown.c ****  * Called when a drop down list is released to open it or set new option
1021:lvgl/src/widgets/lv_dropdown.c ****  * @param list pointer to the drop down list's list
1022:lvgl/src/widgets/lv_dropdown.c ****  * @return LV_RES_INV if the list is not being deleted in the user callback. Else LV_RES_OK
1023:lvgl/src/widgets/lv_dropdown.c ****  */
1024:lvgl/src/widgets/lv_dropdown.c **** static lv_res_t list_release_handler(lv_obj_t * list_obj)
1025:lvgl/src/widgets/lv_dropdown.c **** {
1026:lvgl/src/widgets/lv_dropdown.c ****     lv_dropdown_list_t * list = (lv_dropdown_list_t *) list_obj;
1027:lvgl/src/widgets/lv_dropdown.c ****     lv_obj_t * dropdown_obj = list->dropdown;
1028:lvgl/src/widgets/lv_dropdown.c ****     lv_dropdown_t * dropdown = (lv_dropdown_t *)dropdown_obj;
1029:lvgl/src/widgets/lv_dropdown.c **** 
ARM GAS  C:\usertemp\ccSNc7FN.s 			page 20


1030:lvgl/src/widgets/lv_dropdown.c ****     lv_indev_t * indev = lv_indev_get_act();
1031:lvgl/src/widgets/lv_dropdown.c ****     /*Leave edit mode once a new item is selected*/
1032:lvgl/src/widgets/lv_dropdown.c ****     if(lv_indev_get_type(indev) == LV_INDEV_TYPE_ENCODER) {
1033:lvgl/src/widgets/lv_dropdown.c ****         dropdown->sel_opt_id_orig = dropdown->sel_opt_id;
1034:lvgl/src/widgets/lv_dropdown.c ****         lv_group_t * g      = lv_obj_get_group(dropdown_obj);
1035:lvgl/src/widgets/lv_dropdown.c ****         if(lv_group_get_editing(g)) {
1036:lvgl/src/widgets/lv_dropdown.c ****             lv_group_set_editing(g, false);
1037:lvgl/src/widgets/lv_dropdown.c ****         }
1038:lvgl/src/widgets/lv_dropdown.c ****     }
1039:lvgl/src/widgets/lv_dropdown.c **** 
1040:lvgl/src/widgets/lv_dropdown.c ****     /*Search the clicked option (For KEYPAD and ENCODER the new value should be already set)*/
1041:lvgl/src/widgets/lv_dropdown.c ****     if(lv_indev_get_type(indev) == LV_INDEV_TYPE_POINTER || lv_indev_get_type(indev) == LV_INDEV_TY
1042:lvgl/src/widgets/lv_dropdown.c ****         lv_point_t p;
1043:lvgl/src/widgets/lv_dropdown.c ****         lv_indev_get_point(indev, &p);
1044:lvgl/src/widgets/lv_dropdown.c ****         dropdown->sel_opt_id     = get_id_on_point(dropdown_obj, p.y);
1045:lvgl/src/widgets/lv_dropdown.c ****         dropdown->sel_opt_id_orig = dropdown->sel_opt_id;
1046:lvgl/src/widgets/lv_dropdown.c ****     }
1047:lvgl/src/widgets/lv_dropdown.c **** 
1048:lvgl/src/widgets/lv_dropdown.c ****     lv_dropdown_close(dropdown_obj);
1049:lvgl/src/widgets/lv_dropdown.c **** 
1050:lvgl/src/widgets/lv_dropdown.c ****     /*Invalidate to refresh the text*/
1051:lvgl/src/widgets/lv_dropdown.c ****     if(dropdown->text == NULL) lv_obj_invalidate(dropdown_obj);
1052:lvgl/src/widgets/lv_dropdown.c **** 
1053:lvgl/src/widgets/lv_dropdown.c ****     uint32_t id  = dropdown->sel_opt_id; /*Just to use uint32_t in event data*/
1054:lvgl/src/widgets/lv_dropdown.c ****     lv_res_t res = lv_event_send(dropdown_obj, LV_EVENT_VALUE_CHANGED, &id);
1055:lvgl/src/widgets/lv_dropdown.c ****     if(res != LV_RES_OK) return res;
1056:lvgl/src/widgets/lv_dropdown.c **** 
1057:lvgl/src/widgets/lv_dropdown.c ****     return LV_RES_OK;
1058:lvgl/src/widgets/lv_dropdown.c **** }
1059:lvgl/src/widgets/lv_dropdown.c **** 
1060:lvgl/src/widgets/lv_dropdown.c **** static void list_press_handler(lv_obj_t * list_obj)
1061:lvgl/src/widgets/lv_dropdown.c **** {
1062:lvgl/src/widgets/lv_dropdown.c ****     lv_dropdown_list_t * list = (lv_dropdown_list_t *) list_obj;
1063:lvgl/src/widgets/lv_dropdown.c ****     lv_obj_t * dropdown_obj = list->dropdown;
1064:lvgl/src/widgets/lv_dropdown.c ****     lv_dropdown_t * dropdown = (lv_dropdown_t *)dropdown_obj;
1065:lvgl/src/widgets/lv_dropdown.c **** 
1066:lvgl/src/widgets/lv_dropdown.c ****     lv_indev_t * indev = lv_indev_get_act();
1067:lvgl/src/widgets/lv_dropdown.c ****     if(indev && (lv_indev_get_type(indev) == LV_INDEV_TYPE_POINTER || lv_indev_get_type(indev) == L
1068:lvgl/src/widgets/lv_dropdown.c ****         lv_point_t p;
1069:lvgl/src/widgets/lv_dropdown.c ****         lv_indev_get_point(indev, &p);
1070:lvgl/src/widgets/lv_dropdown.c ****         dropdown->pr_opt_id = get_id_on_point(dropdown_obj, p.y);
1071:lvgl/src/widgets/lv_dropdown.c ****         lv_obj_invalidate(list_obj);
1072:lvgl/src/widgets/lv_dropdown.c ****     }
1073:lvgl/src/widgets/lv_dropdown.c **** }
1074:lvgl/src/widgets/lv_dropdown.c **** 
1075:lvgl/src/widgets/lv_dropdown.c **** static uint16_t get_id_on_point(lv_obj_t * dropdown_obj, lv_coord_t y)
1076:lvgl/src/widgets/lv_dropdown.c **** {
1077:lvgl/src/widgets/lv_dropdown.c ****     lv_dropdown_t * dropdown = (lv_dropdown_t *)dropdown_obj;
1078:lvgl/src/widgets/lv_dropdown.c ****     lv_obj_t * label = get_label(dropdown_obj);
1079:lvgl/src/widgets/lv_dropdown.c ****     if(label == NULL) return 0;
1080:lvgl/src/widgets/lv_dropdown.c ****     y -= label->coords.y1;
1081:lvgl/src/widgets/lv_dropdown.c **** 
1082:lvgl/src/widgets/lv_dropdown.c ****     const lv_font_t * font         = lv_obj_get_style_text_font(label, LV_PART_MAIN);
1083:lvgl/src/widgets/lv_dropdown.c ****     lv_coord_t font_h              = lv_font_get_line_height(font);
1084:lvgl/src/widgets/lv_dropdown.c ****     lv_coord_t line_space = lv_obj_get_style_text_line_space(label, LV_PART_MAIN);
1085:lvgl/src/widgets/lv_dropdown.c **** 
1086:lvgl/src/widgets/lv_dropdown.c ****     y += line_space / 2;
ARM GAS  C:\usertemp\ccSNc7FN.s 			page 21


1087:lvgl/src/widgets/lv_dropdown.c ****     lv_coord_t h = font_h + line_space;
1088:lvgl/src/widgets/lv_dropdown.c **** 
1089:lvgl/src/widgets/lv_dropdown.c ****     uint16_t opt = y / h;
1090:lvgl/src/widgets/lv_dropdown.c **** 
1091:lvgl/src/widgets/lv_dropdown.c ****     if(opt >= dropdown->option_cnt) opt = dropdown->option_cnt - 1;
1092:lvgl/src/widgets/lv_dropdown.c ****     return opt;
1093:lvgl/src/widgets/lv_dropdown.c **** }
1094:lvgl/src/widgets/lv_dropdown.c **** 
1095:lvgl/src/widgets/lv_dropdown.c **** /**
1096:lvgl/src/widgets/lv_dropdown.c ****  * Set the position of list when it is closed to show the selected item
1097:lvgl/src/widgets/lv_dropdown.c ****  * @param ddlist pointer to a drop down list
1098:lvgl/src/widgets/lv_dropdown.c ****  */
1099:lvgl/src/widgets/lv_dropdown.c **** static void position_to_selected(lv_obj_t * dropdown_obj)
1100:lvgl/src/widgets/lv_dropdown.c **** {
1101:lvgl/src/widgets/lv_dropdown.c ****     lv_dropdown_t * dropdown = (lv_dropdown_t *)dropdown_obj;
1102:lvgl/src/widgets/lv_dropdown.c **** 
1103:lvgl/src/widgets/lv_dropdown.c ****     lv_obj_t * label = get_label(dropdown_obj);
1104:lvgl/src/widgets/lv_dropdown.c ****     if(label == NULL) return;
1105:lvgl/src/widgets/lv_dropdown.c **** 
1106:lvgl/src/widgets/lv_dropdown.c ****     if(lv_obj_get_height(label) <= lv_obj_get_content_height(dropdown_obj)) return;
1107:lvgl/src/widgets/lv_dropdown.c **** 
1108:lvgl/src/widgets/lv_dropdown.c ****     const lv_font_t * font         = lv_obj_get_style_text_font(label, LV_PART_MAIN);
1109:lvgl/src/widgets/lv_dropdown.c ****     lv_coord_t font_h              = lv_font_get_line_height(font);
1110:lvgl/src/widgets/lv_dropdown.c ****     lv_coord_t line_space = lv_obj_get_style_text_line_space(label, LV_PART_MAIN);
1111:lvgl/src/widgets/lv_dropdown.c ****     lv_coord_t unit_h = font_h + line_space;
1112:lvgl/src/widgets/lv_dropdown.c ****     lv_coord_t line_y1 = dropdown->sel_opt_id * unit_h;
1113:lvgl/src/widgets/lv_dropdown.c **** 
1114:lvgl/src/widgets/lv_dropdown.c ****     /*Scroll to the selected option*/
1115:lvgl/src/widgets/lv_dropdown.c ****     lv_obj_scroll_to_y(dropdown->list, line_y1, LV_ANIM_OFF);
1116:lvgl/src/widgets/lv_dropdown.c ****     lv_obj_invalidate(dropdown->list);
1117:lvgl/src/widgets/lv_dropdown.c **** }
1118:lvgl/src/widgets/lv_dropdown.c **** 
1119:lvgl/src/widgets/lv_dropdown.c **** static lv_obj_t * get_label(const lv_obj_t * obj)
1120:lvgl/src/widgets/lv_dropdown.c **** {
  58              		.loc 1 1120 1 is_stmt 1 view -0
  59              		.cfi_startproc
  60              		@ args = 0, pretend = 0, frame = 0
  61              		@ frame_needed = 0, uses_anonymous_args = 0
1121:lvgl/src/widgets/lv_dropdown.c ****     lv_dropdown_t * dropdown = (lv_dropdown_t *)obj;
  62              		.loc 1 1121 5 view .LVU10
1122:lvgl/src/widgets/lv_dropdown.c ****     if(dropdown->list == NULL) return NULL;
  63              		.loc 1 1122 5 view .LVU11
  64              		.loc 1 1122 16 is_stmt 0 view .LVU12
  65 0000 406A     		ldr	r0, [r0, #36]
  66              	.LVL3:
  67              		.loc 1 1122 7 view .LVU13
  68 0002 20B1     		cbz	r0, .L5
1120:lvgl/src/widgets/lv_dropdown.c ****     lv_dropdown_t * dropdown = (lv_dropdown_t *)obj;
  69              		.loc 1 1120 1 view .LVU14
  70 0004 08B5     		push	{r3, lr}
  71              	.LCFI0:
  72              		.cfi_def_cfa_offset 8
  73              		.cfi_offset 3, -8
  74              		.cfi_offset 14, -4
1123:lvgl/src/widgets/lv_dropdown.c **** 
1124:lvgl/src/widgets/lv_dropdown.c ****     return lv_obj_get_child(dropdown->list, 0);
  75              		.loc 1 1124 5 is_stmt 1 view .LVU15
ARM GAS  C:\usertemp\ccSNc7FN.s 			page 22


  76              		.loc 1 1124 12 is_stmt 0 view .LVU16
  77 0006 0021     		movs	r1, #0
  78 0008 FFF7FEFF 		bl	lv_obj_get_child
  79              	.LVL4:
1125:lvgl/src/widgets/lv_dropdown.c **** }
  80              		.loc 1 1125 1 view .LVU17
  81 000c 08BD     		pop	{r3, pc}
  82              	.L5:
  83              	.LCFI1:
  84              		.cfi_def_cfa_offset 0
  85              		.cfi_restore 3
  86              		.cfi_restore 14
  87 000e 7047     		bx	lr
  88              		.cfi_endproc
  89              	.LFE200:
  91              		.section	.text.position_to_selected,"ax",%progbits
  92              		.align	1
  93              		.syntax unified
  94              		.thumb
  95              		.thumb_func
  97              	position_to_selected:
  98              	.LVL5:
  99              	.LFB199:
1100:lvgl/src/widgets/lv_dropdown.c ****     lv_dropdown_t * dropdown = (lv_dropdown_t *)dropdown_obj;
 100              		.loc 1 1100 1 is_stmt 1 view -0
 101              		.cfi_startproc
 102              		@ args = 0, pretend = 0, frame = 0
 103              		@ frame_needed = 0, uses_anonymous_args = 0
1100:lvgl/src/widgets/lv_dropdown.c ****     lv_dropdown_t * dropdown = (lv_dropdown_t *)dropdown_obj;
 104              		.loc 1 1100 1 is_stmt 0 view .LVU19
 105 0000 70B5     		push	{r4, r5, r6, lr}
 106              	.LCFI2:
 107              		.cfi_def_cfa_offset 16
 108              		.cfi_offset 4, -16
 109              		.cfi_offset 5, -12
 110              		.cfi_offset 6, -8
 111              		.cfi_offset 14, -4
 112 0002 0446     		mov	r4, r0
1101:lvgl/src/widgets/lv_dropdown.c **** 
 113              		.loc 1 1101 5 is_stmt 1 view .LVU20
 114              	.LVL6:
1103:lvgl/src/widgets/lv_dropdown.c ****     if(label == NULL) return;
 115              		.loc 1 1103 5 view .LVU21
1103:lvgl/src/widgets/lv_dropdown.c ****     if(label == NULL) return;
 116              		.loc 1 1103 24 is_stmt 0 view .LVU22
 117 0004 FFF7FEFF 		bl	get_label
 118              	.LVL7:
1104:lvgl/src/widgets/lv_dropdown.c **** 
 119              		.loc 1 1104 5 is_stmt 1 view .LVU23
1104:lvgl/src/widgets/lv_dropdown.c **** 
 120              		.loc 1 1104 7 is_stmt 0 view .LVU24
 121 0008 40B1     		cbz	r0, .L8
 122 000a 0646     		mov	r6, r0
1106:lvgl/src/widgets/lv_dropdown.c **** 
 123              		.loc 1 1106 5 is_stmt 1 view .LVU25
1106:lvgl/src/widgets/lv_dropdown.c **** 
 124              		.loc 1 1106 8 is_stmt 0 view .LVU26
ARM GAS  C:\usertemp\ccSNc7FN.s 			page 23


 125 000c FFF7FEFF 		bl	lv_obj_get_height
 126              	.LVL8:
1106:lvgl/src/widgets/lv_dropdown.c **** 
 127              		.loc 1 1106 8 view .LVU27
 128 0010 0546     		mov	r5, r0
1106:lvgl/src/widgets/lv_dropdown.c **** 
 129              		.loc 1 1106 36 discriminator 1 view .LVU28
 130 0012 2046     		mov	r0, r4
 131 0014 FFF7FEFF 		bl	lv_obj_get_content_height
 132              	.LVL9:
1106:lvgl/src/widgets/lv_dropdown.c **** 
 133              		.loc 1 1106 7 discriminator 2 view .LVU29
 134 0018 8542     		cmp	r5, r0
 135 001a 00DC     		bgt	.L11
 136              	.LVL10:
 137              	.L8:
1117:lvgl/src/widgets/lv_dropdown.c **** 
 138              		.loc 1 1117 1 view .LVU30
 139 001c 70BD     		pop	{r4, r5, r6, pc}
 140              	.LVL11:
 141              	.L11:
1108:lvgl/src/widgets/lv_dropdown.c ****     lv_coord_t font_h              = lv_font_get_line_height(font);
 142              		.loc 1 1108 5 is_stmt 1 view .LVU31
 143              	.LBB57:
 144              	.LBI57:
 145              		.file 2 "lvgl/src/widgets/../core/lv_obj_style_gen.h"
   1:lvgl/src/widgets/../core/lv_obj_style_gen.h **** static inline lv_coord_t lv_obj_get_style_width(const struct _lv_obj_t * obj, uint32_t part)
   2:lvgl/src/widgets/../core/lv_obj_style_gen.h **** {
   3:lvgl/src/widgets/../core/lv_obj_style_gen.h ****     lv_style_value_t v = lv_obj_get_style_prop(obj, part, LV_STYLE_WIDTH);
   4:lvgl/src/widgets/../core/lv_obj_style_gen.h ****     return (lv_coord_t)v.num;
   5:lvgl/src/widgets/../core/lv_obj_style_gen.h **** }
   6:lvgl/src/widgets/../core/lv_obj_style_gen.h **** 
   7:lvgl/src/widgets/../core/lv_obj_style_gen.h **** static inline lv_coord_t lv_obj_get_style_min_width(const struct _lv_obj_t * obj, uint32_t part)
   8:lvgl/src/widgets/../core/lv_obj_style_gen.h **** {
   9:lvgl/src/widgets/../core/lv_obj_style_gen.h ****     lv_style_value_t v = lv_obj_get_style_prop(obj, part, LV_STYLE_MIN_WIDTH);
  10:lvgl/src/widgets/../core/lv_obj_style_gen.h ****     return (lv_coord_t)v.num;
  11:lvgl/src/widgets/../core/lv_obj_style_gen.h **** }
  12:lvgl/src/widgets/../core/lv_obj_style_gen.h **** 
  13:lvgl/src/widgets/../core/lv_obj_style_gen.h **** static inline lv_coord_t lv_obj_get_style_max_width(const struct _lv_obj_t * obj, uint32_t part)
  14:lvgl/src/widgets/../core/lv_obj_style_gen.h **** {
  15:lvgl/src/widgets/../core/lv_obj_style_gen.h ****     lv_style_value_t v = lv_obj_get_style_prop(obj, part, LV_STYLE_MAX_WIDTH);
  16:lvgl/src/widgets/../core/lv_obj_style_gen.h ****     return (lv_coord_t)v.num;
  17:lvgl/src/widgets/../core/lv_obj_style_gen.h **** }
  18:lvgl/src/widgets/../core/lv_obj_style_gen.h **** 
  19:lvgl/src/widgets/../core/lv_obj_style_gen.h **** static inline lv_coord_t lv_obj_get_style_height(const struct _lv_obj_t * obj, uint32_t part)
  20:lvgl/src/widgets/../core/lv_obj_style_gen.h **** {
  21:lvgl/src/widgets/../core/lv_obj_style_gen.h ****     lv_style_value_t v = lv_obj_get_style_prop(obj, part, LV_STYLE_HEIGHT);
  22:lvgl/src/widgets/../core/lv_obj_style_gen.h ****     return (lv_coord_t)v.num;
  23:lvgl/src/widgets/../core/lv_obj_style_gen.h **** }
  24:lvgl/src/widgets/../core/lv_obj_style_gen.h **** 
  25:lvgl/src/widgets/../core/lv_obj_style_gen.h **** static inline lv_coord_t lv_obj_get_style_min_height(const struct _lv_obj_t * obj, uint32_t part)
  26:lvgl/src/widgets/../core/lv_obj_style_gen.h **** {
  27:lvgl/src/widgets/../core/lv_obj_style_gen.h ****     lv_style_value_t v = lv_obj_get_style_prop(obj, part, LV_STYLE_MIN_HEIGHT);
  28:lvgl/src/widgets/../core/lv_obj_style_gen.h ****     return (lv_coord_t)v.num;
  29:lvgl/src/widgets/../core/lv_obj_style_gen.h **** }
  30:lvgl/src/widgets/../core/lv_obj_style_gen.h **** 
  31:lvgl/src/widgets/../core/lv_obj_style_gen.h **** static inline lv_coord_t lv_obj_get_style_max_height(const struct _lv_obj_t * obj, uint32_t part)
ARM GAS  C:\usertemp\ccSNc7FN.s 			page 24


  32:lvgl/src/widgets/../core/lv_obj_style_gen.h **** {
  33:lvgl/src/widgets/../core/lv_obj_style_gen.h ****     lv_style_value_t v = lv_obj_get_style_prop(obj, part, LV_STYLE_MAX_HEIGHT);
  34:lvgl/src/widgets/../core/lv_obj_style_gen.h ****     return (lv_coord_t)v.num;
  35:lvgl/src/widgets/../core/lv_obj_style_gen.h **** }
  36:lvgl/src/widgets/../core/lv_obj_style_gen.h **** 
  37:lvgl/src/widgets/../core/lv_obj_style_gen.h **** static inline lv_coord_t lv_obj_get_style_x(const struct _lv_obj_t * obj, uint32_t part)
  38:lvgl/src/widgets/../core/lv_obj_style_gen.h **** {
  39:lvgl/src/widgets/../core/lv_obj_style_gen.h ****     lv_style_value_t v = lv_obj_get_style_prop(obj, part, LV_STYLE_X);
  40:lvgl/src/widgets/../core/lv_obj_style_gen.h ****     return (lv_coord_t)v.num;
  41:lvgl/src/widgets/../core/lv_obj_style_gen.h **** }
  42:lvgl/src/widgets/../core/lv_obj_style_gen.h **** 
  43:lvgl/src/widgets/../core/lv_obj_style_gen.h **** static inline lv_coord_t lv_obj_get_style_y(const struct _lv_obj_t * obj, uint32_t part)
  44:lvgl/src/widgets/../core/lv_obj_style_gen.h **** {
  45:lvgl/src/widgets/../core/lv_obj_style_gen.h ****     lv_style_value_t v = lv_obj_get_style_prop(obj, part, LV_STYLE_Y);
  46:lvgl/src/widgets/../core/lv_obj_style_gen.h ****     return (lv_coord_t)v.num;
  47:lvgl/src/widgets/../core/lv_obj_style_gen.h **** }
  48:lvgl/src/widgets/../core/lv_obj_style_gen.h **** 
  49:lvgl/src/widgets/../core/lv_obj_style_gen.h **** static inline lv_align_t lv_obj_get_style_align(const struct _lv_obj_t * obj, uint32_t part)
  50:lvgl/src/widgets/../core/lv_obj_style_gen.h **** {
  51:lvgl/src/widgets/../core/lv_obj_style_gen.h ****     lv_style_value_t v = lv_obj_get_style_prop(obj, part, LV_STYLE_ALIGN);
  52:lvgl/src/widgets/../core/lv_obj_style_gen.h ****     return (lv_align_t)v.num;
  53:lvgl/src/widgets/../core/lv_obj_style_gen.h **** }
  54:lvgl/src/widgets/../core/lv_obj_style_gen.h **** 
  55:lvgl/src/widgets/../core/lv_obj_style_gen.h **** static inline lv_coord_t lv_obj_get_style_transform_width(const struct _lv_obj_t * obj, uint32_t pa
  56:lvgl/src/widgets/../core/lv_obj_style_gen.h **** {
  57:lvgl/src/widgets/../core/lv_obj_style_gen.h ****     lv_style_value_t v = lv_obj_get_style_prop(obj, part, LV_STYLE_TRANSFORM_WIDTH);
  58:lvgl/src/widgets/../core/lv_obj_style_gen.h ****     return (lv_coord_t)v.num;
  59:lvgl/src/widgets/../core/lv_obj_style_gen.h **** }
  60:lvgl/src/widgets/../core/lv_obj_style_gen.h **** 
  61:lvgl/src/widgets/../core/lv_obj_style_gen.h **** static inline lv_coord_t lv_obj_get_style_transform_height(const struct _lv_obj_t * obj, uint32_t p
  62:lvgl/src/widgets/../core/lv_obj_style_gen.h **** {
  63:lvgl/src/widgets/../core/lv_obj_style_gen.h ****     lv_style_value_t v = lv_obj_get_style_prop(obj, part, LV_STYLE_TRANSFORM_HEIGHT);
  64:lvgl/src/widgets/../core/lv_obj_style_gen.h ****     return (lv_coord_t)v.num;
  65:lvgl/src/widgets/../core/lv_obj_style_gen.h **** }
  66:lvgl/src/widgets/../core/lv_obj_style_gen.h **** 
  67:lvgl/src/widgets/../core/lv_obj_style_gen.h **** static inline lv_coord_t lv_obj_get_style_translate_x(const struct _lv_obj_t * obj, uint32_t part)
  68:lvgl/src/widgets/../core/lv_obj_style_gen.h **** {
  69:lvgl/src/widgets/../core/lv_obj_style_gen.h ****     lv_style_value_t v = lv_obj_get_style_prop(obj, part, LV_STYLE_TRANSLATE_X);
  70:lvgl/src/widgets/../core/lv_obj_style_gen.h ****     return (lv_coord_t)v.num;
  71:lvgl/src/widgets/../core/lv_obj_style_gen.h **** }
  72:lvgl/src/widgets/../core/lv_obj_style_gen.h **** 
  73:lvgl/src/widgets/../core/lv_obj_style_gen.h **** static inline lv_coord_t lv_obj_get_style_translate_y(const struct _lv_obj_t * obj, uint32_t part)
  74:lvgl/src/widgets/../core/lv_obj_style_gen.h **** {
  75:lvgl/src/widgets/../core/lv_obj_style_gen.h ****     lv_style_value_t v = lv_obj_get_style_prop(obj, part, LV_STYLE_TRANSLATE_Y);
  76:lvgl/src/widgets/../core/lv_obj_style_gen.h ****     return (lv_coord_t)v.num;
  77:lvgl/src/widgets/../core/lv_obj_style_gen.h **** }
  78:lvgl/src/widgets/../core/lv_obj_style_gen.h **** 
  79:lvgl/src/widgets/../core/lv_obj_style_gen.h **** static inline lv_coord_t lv_obj_get_style_transform_zoom(const struct _lv_obj_t * obj, uint32_t par
  80:lvgl/src/widgets/../core/lv_obj_style_gen.h **** {
  81:lvgl/src/widgets/../core/lv_obj_style_gen.h ****     lv_style_value_t v = lv_obj_get_style_prop(obj, part, LV_STYLE_TRANSFORM_ZOOM);
  82:lvgl/src/widgets/../core/lv_obj_style_gen.h ****     return (lv_coord_t)v.num;
  83:lvgl/src/widgets/../core/lv_obj_style_gen.h **** }
  84:lvgl/src/widgets/../core/lv_obj_style_gen.h **** 
  85:lvgl/src/widgets/../core/lv_obj_style_gen.h **** static inline lv_coord_t lv_obj_get_style_transform_angle(const struct _lv_obj_t * obj, uint32_t pa
  86:lvgl/src/widgets/../core/lv_obj_style_gen.h **** {
  87:lvgl/src/widgets/../core/lv_obj_style_gen.h ****     lv_style_value_t v = lv_obj_get_style_prop(obj, part, LV_STYLE_TRANSFORM_ANGLE);
  88:lvgl/src/widgets/../core/lv_obj_style_gen.h ****     return (lv_coord_t)v.num;
ARM GAS  C:\usertemp\ccSNc7FN.s 			page 25


  89:lvgl/src/widgets/../core/lv_obj_style_gen.h **** }
  90:lvgl/src/widgets/../core/lv_obj_style_gen.h **** 
  91:lvgl/src/widgets/../core/lv_obj_style_gen.h **** static inline lv_coord_t lv_obj_get_style_pad_top(const struct _lv_obj_t * obj, uint32_t part)
  92:lvgl/src/widgets/../core/lv_obj_style_gen.h **** {
  93:lvgl/src/widgets/../core/lv_obj_style_gen.h ****     lv_style_value_t v = lv_obj_get_style_prop(obj, part, LV_STYLE_PAD_TOP);
  94:lvgl/src/widgets/../core/lv_obj_style_gen.h ****     return (lv_coord_t)v.num;
  95:lvgl/src/widgets/../core/lv_obj_style_gen.h **** }
  96:lvgl/src/widgets/../core/lv_obj_style_gen.h **** 
  97:lvgl/src/widgets/../core/lv_obj_style_gen.h **** static inline lv_coord_t lv_obj_get_style_pad_bottom(const struct _lv_obj_t * obj, uint32_t part)
  98:lvgl/src/widgets/../core/lv_obj_style_gen.h **** {
  99:lvgl/src/widgets/../core/lv_obj_style_gen.h ****     lv_style_value_t v = lv_obj_get_style_prop(obj, part, LV_STYLE_PAD_BOTTOM);
 100:lvgl/src/widgets/../core/lv_obj_style_gen.h ****     return (lv_coord_t)v.num;
 101:lvgl/src/widgets/../core/lv_obj_style_gen.h **** }
 102:lvgl/src/widgets/../core/lv_obj_style_gen.h **** 
 103:lvgl/src/widgets/../core/lv_obj_style_gen.h **** static inline lv_coord_t lv_obj_get_style_pad_left(const struct _lv_obj_t * obj, uint32_t part)
 104:lvgl/src/widgets/../core/lv_obj_style_gen.h **** {
 105:lvgl/src/widgets/../core/lv_obj_style_gen.h ****     lv_style_value_t v = lv_obj_get_style_prop(obj, part, LV_STYLE_PAD_LEFT);
 106:lvgl/src/widgets/../core/lv_obj_style_gen.h ****     return (lv_coord_t)v.num;
 107:lvgl/src/widgets/../core/lv_obj_style_gen.h **** }
 108:lvgl/src/widgets/../core/lv_obj_style_gen.h **** 
 109:lvgl/src/widgets/../core/lv_obj_style_gen.h **** static inline lv_coord_t lv_obj_get_style_pad_right(const struct _lv_obj_t * obj, uint32_t part)
 110:lvgl/src/widgets/../core/lv_obj_style_gen.h **** {
 111:lvgl/src/widgets/../core/lv_obj_style_gen.h ****     lv_style_value_t v = lv_obj_get_style_prop(obj, part, LV_STYLE_PAD_RIGHT);
 112:lvgl/src/widgets/../core/lv_obj_style_gen.h ****     return (lv_coord_t)v.num;
 113:lvgl/src/widgets/../core/lv_obj_style_gen.h **** }
 114:lvgl/src/widgets/../core/lv_obj_style_gen.h **** 
 115:lvgl/src/widgets/../core/lv_obj_style_gen.h **** static inline lv_coord_t lv_obj_get_style_pad_row(const struct _lv_obj_t * obj, uint32_t part)
 116:lvgl/src/widgets/../core/lv_obj_style_gen.h **** {
 117:lvgl/src/widgets/../core/lv_obj_style_gen.h ****     lv_style_value_t v = lv_obj_get_style_prop(obj, part, LV_STYLE_PAD_ROW);
 118:lvgl/src/widgets/../core/lv_obj_style_gen.h ****     return (lv_coord_t)v.num;
 119:lvgl/src/widgets/../core/lv_obj_style_gen.h **** }
 120:lvgl/src/widgets/../core/lv_obj_style_gen.h **** 
 121:lvgl/src/widgets/../core/lv_obj_style_gen.h **** static inline lv_coord_t lv_obj_get_style_pad_column(const struct _lv_obj_t * obj, uint32_t part)
 122:lvgl/src/widgets/../core/lv_obj_style_gen.h **** {
 123:lvgl/src/widgets/../core/lv_obj_style_gen.h ****     lv_style_value_t v = lv_obj_get_style_prop(obj, part, LV_STYLE_PAD_COLUMN);
 124:lvgl/src/widgets/../core/lv_obj_style_gen.h ****     return (lv_coord_t)v.num;
 125:lvgl/src/widgets/../core/lv_obj_style_gen.h **** }
 126:lvgl/src/widgets/../core/lv_obj_style_gen.h **** 
 127:lvgl/src/widgets/../core/lv_obj_style_gen.h **** static inline lv_color_t lv_obj_get_style_bg_color(const struct _lv_obj_t * obj, uint32_t part)
 128:lvgl/src/widgets/../core/lv_obj_style_gen.h **** {
 129:lvgl/src/widgets/../core/lv_obj_style_gen.h ****     lv_style_value_t v = lv_obj_get_style_prop(obj, part, LV_STYLE_BG_COLOR);
 130:lvgl/src/widgets/../core/lv_obj_style_gen.h ****     return v.color;
 131:lvgl/src/widgets/../core/lv_obj_style_gen.h **** }
 132:lvgl/src/widgets/../core/lv_obj_style_gen.h **** 
 133:lvgl/src/widgets/../core/lv_obj_style_gen.h **** static inline lv_color_t lv_obj_get_style_bg_color_filtered(const struct _lv_obj_t * obj, uint32_t 
 134:lvgl/src/widgets/../core/lv_obj_style_gen.h **** {
 135:lvgl/src/widgets/../core/lv_obj_style_gen.h ****     lv_style_value_t v = lv_obj_get_style_prop(obj, part, LV_STYLE_BG_COLOR_FILTERED);
 136:lvgl/src/widgets/../core/lv_obj_style_gen.h ****     return v.color;
 137:lvgl/src/widgets/../core/lv_obj_style_gen.h **** }
 138:lvgl/src/widgets/../core/lv_obj_style_gen.h **** 
 139:lvgl/src/widgets/../core/lv_obj_style_gen.h **** static inline lv_opa_t lv_obj_get_style_bg_opa(const struct _lv_obj_t * obj, uint32_t part)
 140:lvgl/src/widgets/../core/lv_obj_style_gen.h **** {
 141:lvgl/src/widgets/../core/lv_obj_style_gen.h ****     lv_style_value_t v = lv_obj_get_style_prop(obj, part, LV_STYLE_BG_OPA);
 142:lvgl/src/widgets/../core/lv_obj_style_gen.h ****     return (lv_opa_t)v.num;
 143:lvgl/src/widgets/../core/lv_obj_style_gen.h **** }
 144:lvgl/src/widgets/../core/lv_obj_style_gen.h **** 
 145:lvgl/src/widgets/../core/lv_obj_style_gen.h **** static inline lv_color_t lv_obj_get_style_bg_grad_color(const struct _lv_obj_t * obj, uint32_t part
ARM GAS  C:\usertemp\ccSNc7FN.s 			page 26


 146:lvgl/src/widgets/../core/lv_obj_style_gen.h **** {
 147:lvgl/src/widgets/../core/lv_obj_style_gen.h ****     lv_style_value_t v = lv_obj_get_style_prop(obj, part, LV_STYLE_BG_GRAD_COLOR);
 148:lvgl/src/widgets/../core/lv_obj_style_gen.h ****     return v.color;
 149:lvgl/src/widgets/../core/lv_obj_style_gen.h **** }
 150:lvgl/src/widgets/../core/lv_obj_style_gen.h **** 
 151:lvgl/src/widgets/../core/lv_obj_style_gen.h **** static inline lv_color_t lv_obj_get_style_bg_grad_color_filtered(const struct _lv_obj_t * obj, uint
 152:lvgl/src/widgets/../core/lv_obj_style_gen.h **** {
 153:lvgl/src/widgets/../core/lv_obj_style_gen.h ****     lv_style_value_t v = lv_obj_get_style_prop(obj, part, LV_STYLE_BG_GRAD_COLOR_FILTERED);
 154:lvgl/src/widgets/../core/lv_obj_style_gen.h ****     return v.color;
 155:lvgl/src/widgets/../core/lv_obj_style_gen.h **** }
 156:lvgl/src/widgets/../core/lv_obj_style_gen.h **** 
 157:lvgl/src/widgets/../core/lv_obj_style_gen.h **** static inline lv_grad_dir_t lv_obj_get_style_bg_grad_dir(const struct _lv_obj_t * obj, uint32_t par
 158:lvgl/src/widgets/../core/lv_obj_style_gen.h **** {
 159:lvgl/src/widgets/../core/lv_obj_style_gen.h ****     lv_style_value_t v = lv_obj_get_style_prop(obj, part, LV_STYLE_BG_GRAD_DIR);
 160:lvgl/src/widgets/../core/lv_obj_style_gen.h ****     return (lv_grad_dir_t)v.num;
 161:lvgl/src/widgets/../core/lv_obj_style_gen.h **** }
 162:lvgl/src/widgets/../core/lv_obj_style_gen.h **** 
 163:lvgl/src/widgets/../core/lv_obj_style_gen.h **** static inline lv_coord_t lv_obj_get_style_bg_main_stop(const struct _lv_obj_t * obj, uint32_t part)
 164:lvgl/src/widgets/../core/lv_obj_style_gen.h **** {
 165:lvgl/src/widgets/../core/lv_obj_style_gen.h ****     lv_style_value_t v = lv_obj_get_style_prop(obj, part, LV_STYLE_BG_MAIN_STOP);
 166:lvgl/src/widgets/../core/lv_obj_style_gen.h ****     return (lv_coord_t)v.num;
 167:lvgl/src/widgets/../core/lv_obj_style_gen.h **** }
 168:lvgl/src/widgets/../core/lv_obj_style_gen.h **** 
 169:lvgl/src/widgets/../core/lv_obj_style_gen.h **** static inline lv_coord_t lv_obj_get_style_bg_grad_stop(const struct _lv_obj_t * obj, uint32_t part)
 170:lvgl/src/widgets/../core/lv_obj_style_gen.h **** {
 171:lvgl/src/widgets/../core/lv_obj_style_gen.h ****     lv_style_value_t v = lv_obj_get_style_prop(obj, part, LV_STYLE_BG_GRAD_STOP);
 172:lvgl/src/widgets/../core/lv_obj_style_gen.h ****     return (lv_coord_t)v.num;
 173:lvgl/src/widgets/../core/lv_obj_style_gen.h **** }
 174:lvgl/src/widgets/../core/lv_obj_style_gen.h **** 
 175:lvgl/src/widgets/../core/lv_obj_style_gen.h **** static inline const lv_grad_dsc_t * lv_obj_get_style_bg_grad(const struct _lv_obj_t * obj, uint32_t
 176:lvgl/src/widgets/../core/lv_obj_style_gen.h **** {
 177:lvgl/src/widgets/../core/lv_obj_style_gen.h ****     lv_style_value_t v = lv_obj_get_style_prop(obj, part, LV_STYLE_BG_GRAD);
 178:lvgl/src/widgets/../core/lv_obj_style_gen.h ****     return (const lv_grad_dsc_t *)v.ptr;
 179:lvgl/src/widgets/../core/lv_obj_style_gen.h **** }
 180:lvgl/src/widgets/../core/lv_obj_style_gen.h **** 
 181:lvgl/src/widgets/../core/lv_obj_style_gen.h **** static inline lv_dither_mode_t lv_obj_get_style_bg_dither_mode(const struct _lv_obj_t * obj, uint32
 182:lvgl/src/widgets/../core/lv_obj_style_gen.h **** {
 183:lvgl/src/widgets/../core/lv_obj_style_gen.h ****     lv_style_value_t v = lv_obj_get_style_prop(obj, part, LV_STYLE_BG_DITHER_MODE);
 184:lvgl/src/widgets/../core/lv_obj_style_gen.h ****     return (lv_dither_mode_t)v.num;
 185:lvgl/src/widgets/../core/lv_obj_style_gen.h **** }
 186:lvgl/src/widgets/../core/lv_obj_style_gen.h **** 
 187:lvgl/src/widgets/../core/lv_obj_style_gen.h **** static inline const void * lv_obj_get_style_bg_img_src(const struct _lv_obj_t * obj, uint32_t part)
 188:lvgl/src/widgets/../core/lv_obj_style_gen.h **** {
 189:lvgl/src/widgets/../core/lv_obj_style_gen.h ****     lv_style_value_t v = lv_obj_get_style_prop(obj, part, LV_STYLE_BG_IMG_SRC);
 190:lvgl/src/widgets/../core/lv_obj_style_gen.h ****     return (const void *)v.ptr;
 191:lvgl/src/widgets/../core/lv_obj_style_gen.h **** }
 192:lvgl/src/widgets/../core/lv_obj_style_gen.h **** 
 193:lvgl/src/widgets/../core/lv_obj_style_gen.h **** static inline lv_opa_t lv_obj_get_style_bg_img_opa(const struct _lv_obj_t * obj, uint32_t part)
 194:lvgl/src/widgets/../core/lv_obj_style_gen.h **** {
 195:lvgl/src/widgets/../core/lv_obj_style_gen.h ****     lv_style_value_t v = lv_obj_get_style_prop(obj, part, LV_STYLE_BG_IMG_OPA);
 196:lvgl/src/widgets/../core/lv_obj_style_gen.h ****     return (lv_opa_t)v.num;
 197:lvgl/src/widgets/../core/lv_obj_style_gen.h **** }
 198:lvgl/src/widgets/../core/lv_obj_style_gen.h **** 
 199:lvgl/src/widgets/../core/lv_obj_style_gen.h **** static inline lv_color_t lv_obj_get_style_bg_img_recolor(const struct _lv_obj_t * obj, uint32_t par
 200:lvgl/src/widgets/../core/lv_obj_style_gen.h **** {
 201:lvgl/src/widgets/../core/lv_obj_style_gen.h ****     lv_style_value_t v = lv_obj_get_style_prop(obj, part, LV_STYLE_BG_IMG_RECOLOR);
 202:lvgl/src/widgets/../core/lv_obj_style_gen.h ****     return v.color;
ARM GAS  C:\usertemp\ccSNc7FN.s 			page 27


 203:lvgl/src/widgets/../core/lv_obj_style_gen.h **** }
 204:lvgl/src/widgets/../core/lv_obj_style_gen.h **** 
 205:lvgl/src/widgets/../core/lv_obj_style_gen.h **** static inline lv_color_t lv_obj_get_style_bg_img_recolor_filtered(const struct _lv_obj_t * obj, uin
 206:lvgl/src/widgets/../core/lv_obj_style_gen.h **** {
 207:lvgl/src/widgets/../core/lv_obj_style_gen.h ****     lv_style_value_t v = lv_obj_get_style_prop(obj, part, LV_STYLE_BG_IMG_RECOLOR_FILTERED);
 208:lvgl/src/widgets/../core/lv_obj_style_gen.h ****     return v.color;
 209:lvgl/src/widgets/../core/lv_obj_style_gen.h **** }
 210:lvgl/src/widgets/../core/lv_obj_style_gen.h **** 
 211:lvgl/src/widgets/../core/lv_obj_style_gen.h **** static inline lv_opa_t lv_obj_get_style_bg_img_recolor_opa(const struct _lv_obj_t * obj, uint32_t p
 212:lvgl/src/widgets/../core/lv_obj_style_gen.h **** {
 213:lvgl/src/widgets/../core/lv_obj_style_gen.h ****     lv_style_value_t v = lv_obj_get_style_prop(obj, part, LV_STYLE_BG_IMG_RECOLOR_OPA);
 214:lvgl/src/widgets/../core/lv_obj_style_gen.h ****     return (lv_opa_t)v.num;
 215:lvgl/src/widgets/../core/lv_obj_style_gen.h **** }
 216:lvgl/src/widgets/../core/lv_obj_style_gen.h **** 
 217:lvgl/src/widgets/../core/lv_obj_style_gen.h **** static inline bool lv_obj_get_style_bg_img_tiled(const struct _lv_obj_t * obj, uint32_t part)
 218:lvgl/src/widgets/../core/lv_obj_style_gen.h **** {
 219:lvgl/src/widgets/../core/lv_obj_style_gen.h ****     lv_style_value_t v = lv_obj_get_style_prop(obj, part, LV_STYLE_BG_IMG_TILED);
 220:lvgl/src/widgets/../core/lv_obj_style_gen.h ****     return (bool)v.num;
 221:lvgl/src/widgets/../core/lv_obj_style_gen.h **** }
 222:lvgl/src/widgets/../core/lv_obj_style_gen.h **** 
 223:lvgl/src/widgets/../core/lv_obj_style_gen.h **** static inline lv_color_t lv_obj_get_style_border_color(const struct _lv_obj_t * obj, uint32_t part)
 224:lvgl/src/widgets/../core/lv_obj_style_gen.h **** {
 225:lvgl/src/widgets/../core/lv_obj_style_gen.h ****     lv_style_value_t v = lv_obj_get_style_prop(obj, part, LV_STYLE_BORDER_COLOR);
 226:lvgl/src/widgets/../core/lv_obj_style_gen.h ****     return v.color;
 227:lvgl/src/widgets/../core/lv_obj_style_gen.h **** }
 228:lvgl/src/widgets/../core/lv_obj_style_gen.h **** 
 229:lvgl/src/widgets/../core/lv_obj_style_gen.h **** static inline lv_color_t lv_obj_get_style_border_color_filtered(const struct _lv_obj_t * obj, uint3
 230:lvgl/src/widgets/../core/lv_obj_style_gen.h **** {
 231:lvgl/src/widgets/../core/lv_obj_style_gen.h ****     lv_style_value_t v = lv_obj_get_style_prop(obj, part, LV_STYLE_BORDER_COLOR_FILTERED);
 232:lvgl/src/widgets/../core/lv_obj_style_gen.h ****     return v.color;
 233:lvgl/src/widgets/../core/lv_obj_style_gen.h **** }
 234:lvgl/src/widgets/../core/lv_obj_style_gen.h **** 
 235:lvgl/src/widgets/../core/lv_obj_style_gen.h **** static inline lv_opa_t lv_obj_get_style_border_opa(const struct _lv_obj_t * obj, uint32_t part)
 236:lvgl/src/widgets/../core/lv_obj_style_gen.h **** {
 237:lvgl/src/widgets/../core/lv_obj_style_gen.h ****     lv_style_value_t v = lv_obj_get_style_prop(obj, part, LV_STYLE_BORDER_OPA);
 238:lvgl/src/widgets/../core/lv_obj_style_gen.h ****     return (lv_opa_t)v.num;
 239:lvgl/src/widgets/../core/lv_obj_style_gen.h **** }
 240:lvgl/src/widgets/../core/lv_obj_style_gen.h **** 
 241:lvgl/src/widgets/../core/lv_obj_style_gen.h **** static inline lv_coord_t lv_obj_get_style_border_width(const struct _lv_obj_t * obj, uint32_t part)
 242:lvgl/src/widgets/../core/lv_obj_style_gen.h **** {
 243:lvgl/src/widgets/../core/lv_obj_style_gen.h ****     lv_style_value_t v = lv_obj_get_style_prop(obj, part, LV_STYLE_BORDER_WIDTH);
 244:lvgl/src/widgets/../core/lv_obj_style_gen.h ****     return (lv_coord_t)v.num;
 245:lvgl/src/widgets/../core/lv_obj_style_gen.h **** }
 246:lvgl/src/widgets/../core/lv_obj_style_gen.h **** 
 247:lvgl/src/widgets/../core/lv_obj_style_gen.h **** static inline lv_border_side_t lv_obj_get_style_border_side(const struct _lv_obj_t * obj, uint32_t 
 248:lvgl/src/widgets/../core/lv_obj_style_gen.h **** {
 249:lvgl/src/widgets/../core/lv_obj_style_gen.h ****     lv_style_value_t v = lv_obj_get_style_prop(obj, part, LV_STYLE_BORDER_SIDE);
 250:lvgl/src/widgets/../core/lv_obj_style_gen.h ****     return (lv_border_side_t)v.num;
 251:lvgl/src/widgets/../core/lv_obj_style_gen.h **** }
 252:lvgl/src/widgets/../core/lv_obj_style_gen.h **** 
 253:lvgl/src/widgets/../core/lv_obj_style_gen.h **** static inline bool lv_obj_get_style_border_post(const struct _lv_obj_t * obj, uint32_t part)
 254:lvgl/src/widgets/../core/lv_obj_style_gen.h **** {
 255:lvgl/src/widgets/../core/lv_obj_style_gen.h ****     lv_style_value_t v = lv_obj_get_style_prop(obj, part, LV_STYLE_BORDER_POST);
 256:lvgl/src/widgets/../core/lv_obj_style_gen.h ****     return (bool)v.num;
 257:lvgl/src/widgets/../core/lv_obj_style_gen.h **** }
 258:lvgl/src/widgets/../core/lv_obj_style_gen.h **** 
 259:lvgl/src/widgets/../core/lv_obj_style_gen.h **** static inline lv_coord_t lv_obj_get_style_outline_width(const struct _lv_obj_t * obj, uint32_t part
ARM GAS  C:\usertemp\ccSNc7FN.s 			page 28


 260:lvgl/src/widgets/../core/lv_obj_style_gen.h **** {
 261:lvgl/src/widgets/../core/lv_obj_style_gen.h ****     lv_style_value_t v = lv_obj_get_style_prop(obj, part, LV_STYLE_OUTLINE_WIDTH);
 262:lvgl/src/widgets/../core/lv_obj_style_gen.h ****     return (lv_coord_t)v.num;
 263:lvgl/src/widgets/../core/lv_obj_style_gen.h **** }
 264:lvgl/src/widgets/../core/lv_obj_style_gen.h **** 
 265:lvgl/src/widgets/../core/lv_obj_style_gen.h **** static inline lv_color_t lv_obj_get_style_outline_color(const struct _lv_obj_t * obj, uint32_t part
 266:lvgl/src/widgets/../core/lv_obj_style_gen.h **** {
 267:lvgl/src/widgets/../core/lv_obj_style_gen.h ****     lv_style_value_t v = lv_obj_get_style_prop(obj, part, LV_STYLE_OUTLINE_COLOR);
 268:lvgl/src/widgets/../core/lv_obj_style_gen.h ****     return v.color;
 269:lvgl/src/widgets/../core/lv_obj_style_gen.h **** }
 270:lvgl/src/widgets/../core/lv_obj_style_gen.h **** 
 271:lvgl/src/widgets/../core/lv_obj_style_gen.h **** static inline lv_color_t lv_obj_get_style_outline_color_filtered(const struct _lv_obj_t * obj, uint
 272:lvgl/src/widgets/../core/lv_obj_style_gen.h **** {
 273:lvgl/src/widgets/../core/lv_obj_style_gen.h ****     lv_style_value_t v = lv_obj_get_style_prop(obj, part, LV_STYLE_OUTLINE_COLOR_FILTERED);
 274:lvgl/src/widgets/../core/lv_obj_style_gen.h ****     return v.color;
 275:lvgl/src/widgets/../core/lv_obj_style_gen.h **** }
 276:lvgl/src/widgets/../core/lv_obj_style_gen.h **** 
 277:lvgl/src/widgets/../core/lv_obj_style_gen.h **** static inline lv_opa_t lv_obj_get_style_outline_opa(const struct _lv_obj_t * obj, uint32_t part)
 278:lvgl/src/widgets/../core/lv_obj_style_gen.h **** {
 279:lvgl/src/widgets/../core/lv_obj_style_gen.h ****     lv_style_value_t v = lv_obj_get_style_prop(obj, part, LV_STYLE_OUTLINE_OPA);
 280:lvgl/src/widgets/../core/lv_obj_style_gen.h ****     return (lv_opa_t)v.num;
 281:lvgl/src/widgets/../core/lv_obj_style_gen.h **** }
 282:lvgl/src/widgets/../core/lv_obj_style_gen.h **** 
 283:lvgl/src/widgets/../core/lv_obj_style_gen.h **** static inline lv_coord_t lv_obj_get_style_outline_pad(const struct _lv_obj_t * obj, uint32_t part)
 284:lvgl/src/widgets/../core/lv_obj_style_gen.h **** {
 285:lvgl/src/widgets/../core/lv_obj_style_gen.h ****     lv_style_value_t v = lv_obj_get_style_prop(obj, part, LV_STYLE_OUTLINE_PAD);
 286:lvgl/src/widgets/../core/lv_obj_style_gen.h ****     return (lv_coord_t)v.num;
 287:lvgl/src/widgets/../core/lv_obj_style_gen.h **** }
 288:lvgl/src/widgets/../core/lv_obj_style_gen.h **** 
 289:lvgl/src/widgets/../core/lv_obj_style_gen.h **** static inline lv_coord_t lv_obj_get_style_shadow_width(const struct _lv_obj_t * obj, uint32_t part)
 290:lvgl/src/widgets/../core/lv_obj_style_gen.h **** {
 291:lvgl/src/widgets/../core/lv_obj_style_gen.h ****     lv_style_value_t v = lv_obj_get_style_prop(obj, part, LV_STYLE_SHADOW_WIDTH);
 292:lvgl/src/widgets/../core/lv_obj_style_gen.h ****     return (lv_coord_t)v.num;
 293:lvgl/src/widgets/../core/lv_obj_style_gen.h **** }
 294:lvgl/src/widgets/../core/lv_obj_style_gen.h **** 
 295:lvgl/src/widgets/../core/lv_obj_style_gen.h **** static inline lv_coord_t lv_obj_get_style_shadow_ofs_x(const struct _lv_obj_t * obj, uint32_t part)
 296:lvgl/src/widgets/../core/lv_obj_style_gen.h **** {
 297:lvgl/src/widgets/../core/lv_obj_style_gen.h ****     lv_style_value_t v = lv_obj_get_style_prop(obj, part, LV_STYLE_SHADOW_OFS_X);
 298:lvgl/src/widgets/../core/lv_obj_style_gen.h ****     return (lv_coord_t)v.num;
 299:lvgl/src/widgets/../core/lv_obj_style_gen.h **** }
 300:lvgl/src/widgets/../core/lv_obj_style_gen.h **** 
 301:lvgl/src/widgets/../core/lv_obj_style_gen.h **** static inline lv_coord_t lv_obj_get_style_shadow_ofs_y(const struct _lv_obj_t * obj, uint32_t part)
 302:lvgl/src/widgets/../core/lv_obj_style_gen.h **** {
 303:lvgl/src/widgets/../core/lv_obj_style_gen.h ****     lv_style_value_t v = lv_obj_get_style_prop(obj, part, LV_STYLE_SHADOW_OFS_Y);
 304:lvgl/src/widgets/../core/lv_obj_style_gen.h ****     return (lv_coord_t)v.num;
 305:lvgl/src/widgets/../core/lv_obj_style_gen.h **** }
 306:lvgl/src/widgets/../core/lv_obj_style_gen.h **** 
 307:lvgl/src/widgets/../core/lv_obj_style_gen.h **** static inline lv_coord_t lv_obj_get_style_shadow_spread(const struct _lv_obj_t * obj, uint32_t part
 308:lvgl/src/widgets/../core/lv_obj_style_gen.h **** {
 309:lvgl/src/widgets/../core/lv_obj_style_gen.h ****     lv_style_value_t v = lv_obj_get_style_prop(obj, part, LV_STYLE_SHADOW_SPREAD);
 310:lvgl/src/widgets/../core/lv_obj_style_gen.h ****     return (lv_coord_t)v.num;
 311:lvgl/src/widgets/../core/lv_obj_style_gen.h **** }
 312:lvgl/src/widgets/../core/lv_obj_style_gen.h **** 
 313:lvgl/src/widgets/../core/lv_obj_style_gen.h **** static inline lv_color_t lv_obj_get_style_shadow_color(const struct _lv_obj_t * obj, uint32_t part)
 314:lvgl/src/widgets/../core/lv_obj_style_gen.h **** {
 315:lvgl/src/widgets/../core/lv_obj_style_gen.h ****     lv_style_value_t v = lv_obj_get_style_prop(obj, part, LV_STYLE_SHADOW_COLOR);
 316:lvgl/src/widgets/../core/lv_obj_style_gen.h ****     return v.color;
ARM GAS  C:\usertemp\ccSNc7FN.s 			page 29


 317:lvgl/src/widgets/../core/lv_obj_style_gen.h **** }
 318:lvgl/src/widgets/../core/lv_obj_style_gen.h **** 
 319:lvgl/src/widgets/../core/lv_obj_style_gen.h **** static inline lv_color_t lv_obj_get_style_shadow_color_filtered(const struct _lv_obj_t * obj, uint3
 320:lvgl/src/widgets/../core/lv_obj_style_gen.h **** {
 321:lvgl/src/widgets/../core/lv_obj_style_gen.h ****     lv_style_value_t v = lv_obj_get_style_prop(obj, part, LV_STYLE_SHADOW_COLOR_FILTERED);
 322:lvgl/src/widgets/../core/lv_obj_style_gen.h ****     return v.color;
 323:lvgl/src/widgets/../core/lv_obj_style_gen.h **** }
 324:lvgl/src/widgets/../core/lv_obj_style_gen.h **** 
 325:lvgl/src/widgets/../core/lv_obj_style_gen.h **** static inline lv_opa_t lv_obj_get_style_shadow_opa(const struct _lv_obj_t * obj, uint32_t part)
 326:lvgl/src/widgets/../core/lv_obj_style_gen.h **** {
 327:lvgl/src/widgets/../core/lv_obj_style_gen.h ****     lv_style_value_t v = lv_obj_get_style_prop(obj, part, LV_STYLE_SHADOW_OPA);
 328:lvgl/src/widgets/../core/lv_obj_style_gen.h ****     return (lv_opa_t)v.num;
 329:lvgl/src/widgets/../core/lv_obj_style_gen.h **** }
 330:lvgl/src/widgets/../core/lv_obj_style_gen.h **** 
 331:lvgl/src/widgets/../core/lv_obj_style_gen.h **** static inline lv_opa_t lv_obj_get_style_img_opa(const struct _lv_obj_t * obj, uint32_t part)
 332:lvgl/src/widgets/../core/lv_obj_style_gen.h **** {
 333:lvgl/src/widgets/../core/lv_obj_style_gen.h ****     lv_style_value_t v = lv_obj_get_style_prop(obj, part, LV_STYLE_IMG_OPA);
 334:lvgl/src/widgets/../core/lv_obj_style_gen.h ****     return (lv_opa_t)v.num;
 335:lvgl/src/widgets/../core/lv_obj_style_gen.h **** }
 336:lvgl/src/widgets/../core/lv_obj_style_gen.h **** 
 337:lvgl/src/widgets/../core/lv_obj_style_gen.h **** static inline lv_color_t lv_obj_get_style_img_recolor(const struct _lv_obj_t * obj, uint32_t part)
 338:lvgl/src/widgets/../core/lv_obj_style_gen.h **** {
 339:lvgl/src/widgets/../core/lv_obj_style_gen.h ****     lv_style_value_t v = lv_obj_get_style_prop(obj, part, LV_STYLE_IMG_RECOLOR);
 340:lvgl/src/widgets/../core/lv_obj_style_gen.h ****     return v.color;
 341:lvgl/src/widgets/../core/lv_obj_style_gen.h **** }
 342:lvgl/src/widgets/../core/lv_obj_style_gen.h **** 
 343:lvgl/src/widgets/../core/lv_obj_style_gen.h **** static inline lv_color_t lv_obj_get_style_img_recolor_filtered(const struct _lv_obj_t * obj, uint32
 344:lvgl/src/widgets/../core/lv_obj_style_gen.h **** {
 345:lvgl/src/widgets/../core/lv_obj_style_gen.h ****     lv_style_value_t v = lv_obj_get_style_prop(obj, part, LV_STYLE_IMG_RECOLOR_FILTERED);
 346:lvgl/src/widgets/../core/lv_obj_style_gen.h ****     return v.color;
 347:lvgl/src/widgets/../core/lv_obj_style_gen.h **** }
 348:lvgl/src/widgets/../core/lv_obj_style_gen.h **** 
 349:lvgl/src/widgets/../core/lv_obj_style_gen.h **** static inline lv_opa_t lv_obj_get_style_img_recolor_opa(const struct _lv_obj_t * obj, uint32_t part
 350:lvgl/src/widgets/../core/lv_obj_style_gen.h **** {
 351:lvgl/src/widgets/../core/lv_obj_style_gen.h ****     lv_style_value_t v = lv_obj_get_style_prop(obj, part, LV_STYLE_IMG_RECOLOR_OPA);
 352:lvgl/src/widgets/../core/lv_obj_style_gen.h ****     return (lv_opa_t)v.num;
 353:lvgl/src/widgets/../core/lv_obj_style_gen.h **** }
 354:lvgl/src/widgets/../core/lv_obj_style_gen.h **** 
 355:lvgl/src/widgets/../core/lv_obj_style_gen.h **** static inline lv_coord_t lv_obj_get_style_line_width(const struct _lv_obj_t * obj, uint32_t part)
 356:lvgl/src/widgets/../core/lv_obj_style_gen.h **** {
 357:lvgl/src/widgets/../core/lv_obj_style_gen.h ****     lv_style_value_t v = lv_obj_get_style_prop(obj, part, LV_STYLE_LINE_WIDTH);
 358:lvgl/src/widgets/../core/lv_obj_style_gen.h ****     return (lv_coord_t)v.num;
 359:lvgl/src/widgets/../core/lv_obj_style_gen.h **** }
 360:lvgl/src/widgets/../core/lv_obj_style_gen.h **** 
 361:lvgl/src/widgets/../core/lv_obj_style_gen.h **** static inline lv_coord_t lv_obj_get_style_line_dash_width(const struct _lv_obj_t * obj, uint32_t pa
 362:lvgl/src/widgets/../core/lv_obj_style_gen.h **** {
 363:lvgl/src/widgets/../core/lv_obj_style_gen.h ****     lv_style_value_t v = lv_obj_get_style_prop(obj, part, LV_STYLE_LINE_DASH_WIDTH);
 364:lvgl/src/widgets/../core/lv_obj_style_gen.h ****     return (lv_coord_t)v.num;
 365:lvgl/src/widgets/../core/lv_obj_style_gen.h **** }
 366:lvgl/src/widgets/../core/lv_obj_style_gen.h **** 
 367:lvgl/src/widgets/../core/lv_obj_style_gen.h **** static inline lv_coord_t lv_obj_get_style_line_dash_gap(const struct _lv_obj_t * obj, uint32_t part
 368:lvgl/src/widgets/../core/lv_obj_style_gen.h **** {
 369:lvgl/src/widgets/../core/lv_obj_style_gen.h ****     lv_style_value_t v = lv_obj_get_style_prop(obj, part, LV_STYLE_LINE_DASH_GAP);
 370:lvgl/src/widgets/../core/lv_obj_style_gen.h ****     return (lv_coord_t)v.num;
 371:lvgl/src/widgets/../core/lv_obj_style_gen.h **** }
 372:lvgl/src/widgets/../core/lv_obj_style_gen.h **** 
 373:lvgl/src/widgets/../core/lv_obj_style_gen.h **** static inline bool lv_obj_get_style_line_rounded(const struct _lv_obj_t * obj, uint32_t part)
ARM GAS  C:\usertemp\ccSNc7FN.s 			page 30


 374:lvgl/src/widgets/../core/lv_obj_style_gen.h **** {
 375:lvgl/src/widgets/../core/lv_obj_style_gen.h ****     lv_style_value_t v = lv_obj_get_style_prop(obj, part, LV_STYLE_LINE_ROUNDED);
 376:lvgl/src/widgets/../core/lv_obj_style_gen.h ****     return (bool)v.num;
 377:lvgl/src/widgets/../core/lv_obj_style_gen.h **** }
 378:lvgl/src/widgets/../core/lv_obj_style_gen.h **** 
 379:lvgl/src/widgets/../core/lv_obj_style_gen.h **** static inline lv_color_t lv_obj_get_style_line_color(const struct _lv_obj_t * obj, uint32_t part)
 380:lvgl/src/widgets/../core/lv_obj_style_gen.h **** {
 381:lvgl/src/widgets/../core/lv_obj_style_gen.h ****     lv_style_value_t v = lv_obj_get_style_prop(obj, part, LV_STYLE_LINE_COLOR);
 382:lvgl/src/widgets/../core/lv_obj_style_gen.h ****     return v.color;
 383:lvgl/src/widgets/../core/lv_obj_style_gen.h **** }
 384:lvgl/src/widgets/../core/lv_obj_style_gen.h **** 
 385:lvgl/src/widgets/../core/lv_obj_style_gen.h **** static inline lv_color_t lv_obj_get_style_line_color_filtered(const struct _lv_obj_t * obj, uint32_
 386:lvgl/src/widgets/../core/lv_obj_style_gen.h **** {
 387:lvgl/src/widgets/../core/lv_obj_style_gen.h ****     lv_style_value_t v = lv_obj_get_style_prop(obj, part, LV_STYLE_LINE_COLOR_FILTERED);
 388:lvgl/src/widgets/../core/lv_obj_style_gen.h ****     return v.color;
 389:lvgl/src/widgets/../core/lv_obj_style_gen.h **** }
 390:lvgl/src/widgets/../core/lv_obj_style_gen.h **** 
 391:lvgl/src/widgets/../core/lv_obj_style_gen.h **** static inline lv_opa_t lv_obj_get_style_line_opa(const struct _lv_obj_t * obj, uint32_t part)
 392:lvgl/src/widgets/../core/lv_obj_style_gen.h **** {
 393:lvgl/src/widgets/../core/lv_obj_style_gen.h ****     lv_style_value_t v = lv_obj_get_style_prop(obj, part, LV_STYLE_LINE_OPA);
 394:lvgl/src/widgets/../core/lv_obj_style_gen.h ****     return (lv_opa_t)v.num;
 395:lvgl/src/widgets/../core/lv_obj_style_gen.h **** }
 396:lvgl/src/widgets/../core/lv_obj_style_gen.h **** 
 397:lvgl/src/widgets/../core/lv_obj_style_gen.h **** static inline lv_coord_t lv_obj_get_style_arc_width(const struct _lv_obj_t * obj, uint32_t part)
 398:lvgl/src/widgets/../core/lv_obj_style_gen.h **** {
 399:lvgl/src/widgets/../core/lv_obj_style_gen.h ****     lv_style_value_t v = lv_obj_get_style_prop(obj, part, LV_STYLE_ARC_WIDTH);
 400:lvgl/src/widgets/../core/lv_obj_style_gen.h ****     return (lv_coord_t)v.num;
 401:lvgl/src/widgets/../core/lv_obj_style_gen.h **** }
 402:lvgl/src/widgets/../core/lv_obj_style_gen.h **** 
 403:lvgl/src/widgets/../core/lv_obj_style_gen.h **** static inline bool lv_obj_get_style_arc_rounded(const struct _lv_obj_t * obj, uint32_t part)
 404:lvgl/src/widgets/../core/lv_obj_style_gen.h **** {
 405:lvgl/src/widgets/../core/lv_obj_style_gen.h ****     lv_style_value_t v = lv_obj_get_style_prop(obj, part, LV_STYLE_ARC_ROUNDED);
 406:lvgl/src/widgets/../core/lv_obj_style_gen.h ****     return (bool)v.num;
 407:lvgl/src/widgets/../core/lv_obj_style_gen.h **** }
 408:lvgl/src/widgets/../core/lv_obj_style_gen.h **** 
 409:lvgl/src/widgets/../core/lv_obj_style_gen.h **** static inline lv_color_t lv_obj_get_style_arc_color(const struct _lv_obj_t * obj, uint32_t part)
 410:lvgl/src/widgets/../core/lv_obj_style_gen.h **** {
 411:lvgl/src/widgets/../core/lv_obj_style_gen.h ****     lv_style_value_t v = lv_obj_get_style_prop(obj, part, LV_STYLE_ARC_COLOR);
 412:lvgl/src/widgets/../core/lv_obj_style_gen.h ****     return v.color;
 413:lvgl/src/widgets/../core/lv_obj_style_gen.h **** }
 414:lvgl/src/widgets/../core/lv_obj_style_gen.h **** 
 415:lvgl/src/widgets/../core/lv_obj_style_gen.h **** static inline lv_color_t lv_obj_get_style_arc_color_filtered(const struct _lv_obj_t * obj, uint32_t
 416:lvgl/src/widgets/../core/lv_obj_style_gen.h **** {
 417:lvgl/src/widgets/../core/lv_obj_style_gen.h ****     lv_style_value_t v = lv_obj_get_style_prop(obj, part, LV_STYLE_ARC_COLOR_FILTERED);
 418:lvgl/src/widgets/../core/lv_obj_style_gen.h ****     return v.color;
 419:lvgl/src/widgets/../core/lv_obj_style_gen.h **** }
 420:lvgl/src/widgets/../core/lv_obj_style_gen.h **** 
 421:lvgl/src/widgets/../core/lv_obj_style_gen.h **** static inline lv_opa_t lv_obj_get_style_arc_opa(const struct _lv_obj_t * obj, uint32_t part)
 422:lvgl/src/widgets/../core/lv_obj_style_gen.h **** {
 423:lvgl/src/widgets/../core/lv_obj_style_gen.h ****     lv_style_value_t v = lv_obj_get_style_prop(obj, part, LV_STYLE_ARC_OPA);
 424:lvgl/src/widgets/../core/lv_obj_style_gen.h ****     return (lv_opa_t)v.num;
 425:lvgl/src/widgets/../core/lv_obj_style_gen.h **** }
 426:lvgl/src/widgets/../core/lv_obj_style_gen.h **** 
 427:lvgl/src/widgets/../core/lv_obj_style_gen.h **** static inline const void * lv_obj_get_style_arc_img_src(const struct _lv_obj_t * obj, uint32_t part
 428:lvgl/src/widgets/../core/lv_obj_style_gen.h **** {
 429:lvgl/src/widgets/../core/lv_obj_style_gen.h ****     lv_style_value_t v = lv_obj_get_style_prop(obj, part, LV_STYLE_ARC_IMG_SRC);
 430:lvgl/src/widgets/../core/lv_obj_style_gen.h ****     return (const void *)v.ptr;
ARM GAS  C:\usertemp\ccSNc7FN.s 			page 31


 431:lvgl/src/widgets/../core/lv_obj_style_gen.h **** }
 432:lvgl/src/widgets/../core/lv_obj_style_gen.h **** 
 433:lvgl/src/widgets/../core/lv_obj_style_gen.h **** static inline lv_color_t lv_obj_get_style_text_color(const struct _lv_obj_t * obj, uint32_t part)
 434:lvgl/src/widgets/../core/lv_obj_style_gen.h **** {
 435:lvgl/src/widgets/../core/lv_obj_style_gen.h ****     lv_style_value_t v = lv_obj_get_style_prop(obj, part, LV_STYLE_TEXT_COLOR);
 436:lvgl/src/widgets/../core/lv_obj_style_gen.h ****     return v.color;
 437:lvgl/src/widgets/../core/lv_obj_style_gen.h **** }
 438:lvgl/src/widgets/../core/lv_obj_style_gen.h **** 
 439:lvgl/src/widgets/../core/lv_obj_style_gen.h **** static inline lv_color_t lv_obj_get_style_text_color_filtered(const struct _lv_obj_t * obj, uint32_
 440:lvgl/src/widgets/../core/lv_obj_style_gen.h **** {
 441:lvgl/src/widgets/../core/lv_obj_style_gen.h ****     lv_style_value_t v = lv_obj_get_style_prop(obj, part, LV_STYLE_TEXT_COLOR_FILTERED);
 442:lvgl/src/widgets/../core/lv_obj_style_gen.h ****     return v.color;
 443:lvgl/src/widgets/../core/lv_obj_style_gen.h **** }
 444:lvgl/src/widgets/../core/lv_obj_style_gen.h **** 
 445:lvgl/src/widgets/../core/lv_obj_style_gen.h **** static inline lv_opa_t lv_obj_get_style_text_opa(const struct _lv_obj_t * obj, uint32_t part)
 446:lvgl/src/widgets/../core/lv_obj_style_gen.h **** {
 447:lvgl/src/widgets/../core/lv_obj_style_gen.h ****     lv_style_value_t v = lv_obj_get_style_prop(obj, part, LV_STYLE_TEXT_OPA);
 448:lvgl/src/widgets/../core/lv_obj_style_gen.h ****     return (lv_opa_t)v.num;
 449:lvgl/src/widgets/../core/lv_obj_style_gen.h **** }
 450:lvgl/src/widgets/../core/lv_obj_style_gen.h **** 
 451:lvgl/src/widgets/../core/lv_obj_style_gen.h **** static inline const lv_font_t * lv_obj_get_style_text_font(const struct _lv_obj_t * obj, uint32_t p
 146              		.loc 2 451 33 view .LVU32
 147              	.LBB58:
 452:lvgl/src/widgets/../core/lv_obj_style_gen.h **** {
 453:lvgl/src/widgets/../core/lv_obj_style_gen.h ****     lv_style_value_t v = lv_obj_get_style_prop(obj, part, LV_STYLE_TEXT_FONT);
 148              		.loc 2 453 5 view .LVU33
 149              		.loc 2 453 26 is_stmt 0 view .LVU34
 150 001e 41F25942 		movw	r2, #5209
 151 0022 0021     		movs	r1, #0
 152 0024 3046     		mov	r0, r6
 153 0026 FFF7FEFF 		bl	lv_obj_get_style_prop
 154              	.LVL12:
 454:lvgl/src/widgets/../core/lv_obj_style_gen.h ****     return (const lv_font_t *)v.ptr;
 155              		.loc 2 454 5 is_stmt 1 view .LVU35
 156              		.loc 2 454 5 is_stmt 0 view .LVU36
 157              	.LBE58:
 158              	.LBE57:
1109:lvgl/src/widgets/lv_dropdown.c ****     lv_coord_t line_space = lv_obj_get_style_text_line_space(label, LV_PART_MAIN);
 159              		.loc 1 1109 5 is_stmt 1 view .LVU37
 160              	.LBB59:
 161              	.LBI59:
 162              		.file 3 "lvgl/src/widgets/../core/../misc/../font/lv_font.h"
   1:lvgl/src/widgets/../core/../misc/../font/lv_font.h **** /**
   2:lvgl/src/widgets/../core/../misc/../font/lv_font.h ****  * @file lv_font.h
   3:lvgl/src/widgets/../core/../misc/../font/lv_font.h ****  *
   4:lvgl/src/widgets/../core/../misc/../font/lv_font.h ****  */
   5:lvgl/src/widgets/../core/../misc/../font/lv_font.h **** 
   6:lvgl/src/widgets/../core/../misc/../font/lv_font.h **** #ifndef LV_FONT_H
   7:lvgl/src/widgets/../core/../misc/../font/lv_font.h **** #define LV_FONT_H
   8:lvgl/src/widgets/../core/../misc/../font/lv_font.h **** 
   9:lvgl/src/widgets/../core/../misc/../font/lv_font.h **** #ifdef __cplusplus
  10:lvgl/src/widgets/../core/../misc/../font/lv_font.h **** extern "C" {
  11:lvgl/src/widgets/../core/../misc/../font/lv_font.h **** #endif
  12:lvgl/src/widgets/../core/../misc/../font/lv_font.h **** 
  13:lvgl/src/widgets/../core/../misc/../font/lv_font.h **** /*********************
  14:lvgl/src/widgets/../core/../misc/../font/lv_font.h ****  *      INCLUDES
  15:lvgl/src/widgets/../core/../misc/../font/lv_font.h ****  *********************/
ARM GAS  C:\usertemp\ccSNc7FN.s 			page 32


  16:lvgl/src/widgets/../core/../misc/../font/lv_font.h **** #include "../lv_conf_internal.h"
  17:lvgl/src/widgets/../core/../misc/../font/lv_font.h **** #include <stdint.h>
  18:lvgl/src/widgets/../core/../misc/../font/lv_font.h **** #include <stddef.h>
  19:lvgl/src/widgets/../core/../misc/../font/lv_font.h **** #include <stdbool.h>
  20:lvgl/src/widgets/../core/../misc/../font/lv_font.h **** 
  21:lvgl/src/widgets/../core/../misc/../font/lv_font.h **** #include "lv_symbol_def.h"
  22:lvgl/src/widgets/../core/../misc/../font/lv_font.h **** #include "../misc/lv_area.h"
  23:lvgl/src/widgets/../core/../misc/../font/lv_font.h **** 
  24:lvgl/src/widgets/../core/../misc/../font/lv_font.h **** /*********************
  25:lvgl/src/widgets/../core/../misc/../font/lv_font.h ****  *      DEFINES
  26:lvgl/src/widgets/../core/../misc/../font/lv_font.h ****  *********************/
  27:lvgl/src/widgets/../core/../misc/../font/lv_font.h **** 
  28:lvgl/src/widgets/../core/../misc/../font/lv_font.h **** /**********************
  29:lvgl/src/widgets/../core/../misc/../font/lv_font.h ****  *      TYPEDEFS
  30:lvgl/src/widgets/../core/../misc/../font/lv_font.h ****  **********************/
  31:lvgl/src/widgets/../core/../misc/../font/lv_font.h **** 
  32:lvgl/src/widgets/../core/../misc/../font/lv_font.h **** /*------------------
  33:lvgl/src/widgets/../core/../misc/../font/lv_font.h ****  * General types
  34:lvgl/src/widgets/../core/../misc/../font/lv_font.h ****  *-----------------*/
  35:lvgl/src/widgets/../core/../misc/../font/lv_font.h **** 
  36:lvgl/src/widgets/../core/../misc/../font/lv_font.h **** struct _lv_font_t;
  37:lvgl/src/widgets/../core/../misc/../font/lv_font.h **** /** Describes the properties of a glyph.*/
  38:lvgl/src/widgets/../core/../misc/../font/lv_font.h **** typedef struct {
  39:lvgl/src/widgets/../core/../misc/../font/lv_font.h ****     const struct _lv_font_t *
  40:lvgl/src/widgets/../core/../misc/../font/lv_font.h ****         resolved_font; /**< Pointer to a font where the gylph was actually found after handling fal
  41:lvgl/src/widgets/../core/../misc/../font/lv_font.h ****     uint16_t adv_w; /**< The glyph needs this space. Draw the next glyph after this width.*/
  42:lvgl/src/widgets/../core/../misc/../font/lv_font.h ****     uint16_t box_w; /**< Width of the glyph's bounding box*/
  43:lvgl/src/widgets/../core/../misc/../font/lv_font.h ****     uint16_t box_h; /**< Height of the glyph's bounding box*/
  44:lvgl/src/widgets/../core/../misc/../font/lv_font.h ****     int16_t ofs_x;  /**< x offset of the bounding box*/
  45:lvgl/src/widgets/../core/../misc/../font/lv_font.h ****     int16_t ofs_y;  /**< y offset of the bounding box*/
  46:lvgl/src/widgets/../core/../misc/../font/lv_font.h ****     uint8_t bpp: 4;  /**< Bit-per-pixel: 1, 2, 4, 8*/
  47:lvgl/src/widgets/../core/../misc/../font/lv_font.h ****     uint8_t is_placeholder: 1; /** Glyph is missing. But placeholder will still be displayed */
  48:lvgl/src/widgets/../core/../misc/../font/lv_font.h **** } lv_font_glyph_dsc_t;
  49:lvgl/src/widgets/../core/../misc/../font/lv_font.h **** 
  50:lvgl/src/widgets/../core/../misc/../font/lv_font.h **** /** The bitmaps might be upscaled by 3 to achieve subpixel rendering.*/
  51:lvgl/src/widgets/../core/../misc/../font/lv_font.h **** enum {
  52:lvgl/src/widgets/../core/../misc/../font/lv_font.h ****     LV_FONT_SUBPX_NONE,
  53:lvgl/src/widgets/../core/../misc/../font/lv_font.h ****     LV_FONT_SUBPX_HOR,
  54:lvgl/src/widgets/../core/../misc/../font/lv_font.h ****     LV_FONT_SUBPX_VER,
  55:lvgl/src/widgets/../core/../misc/../font/lv_font.h ****     LV_FONT_SUBPX_BOTH,
  56:lvgl/src/widgets/../core/../misc/../font/lv_font.h **** };
  57:lvgl/src/widgets/../core/../misc/../font/lv_font.h **** 
  58:lvgl/src/widgets/../core/../misc/../font/lv_font.h **** typedef uint8_t lv_font_subpx_t;
  59:lvgl/src/widgets/../core/../misc/../font/lv_font.h **** 
  60:lvgl/src/widgets/../core/../misc/../font/lv_font.h **** /** Describe the properties of a font*/
  61:lvgl/src/widgets/../core/../misc/../font/lv_font.h **** typedef struct _lv_font_t {
  62:lvgl/src/widgets/../core/../misc/../font/lv_font.h ****     /** Get a glyph's descriptor from a font*/
  63:lvgl/src/widgets/../core/../misc/../font/lv_font.h ****     bool (*get_glyph_dsc)(const struct _lv_font_t *, lv_font_glyph_dsc_t *, uint32_t letter, uint32
  64:lvgl/src/widgets/../core/../misc/../font/lv_font.h **** 
  65:lvgl/src/widgets/../core/../misc/../font/lv_font.h ****     /** Get a glyph's bitmap from a font*/
  66:lvgl/src/widgets/../core/../misc/../font/lv_font.h ****     const uint8_t * (*get_glyph_bitmap)(const struct _lv_font_t *, uint32_t);
  67:lvgl/src/widgets/../core/../misc/../font/lv_font.h **** 
  68:lvgl/src/widgets/../core/../misc/../font/lv_font.h ****     /*Pointer to the font in a font pack (must have the same line height)*/
  69:lvgl/src/widgets/../core/../misc/../font/lv_font.h ****     lv_coord_t line_height;         /**< The real line height where any text fits*/
  70:lvgl/src/widgets/../core/../misc/../font/lv_font.h ****     lv_coord_t base_line;           /**< Base line measured from the top of the line_height*/
  71:lvgl/src/widgets/../core/../misc/../font/lv_font.h ****     uint8_t subpx  : 2;             /**< An element of `lv_font_subpx_t`*/
  72:lvgl/src/widgets/../core/../misc/../font/lv_font.h **** 
ARM GAS  C:\usertemp\ccSNc7FN.s 			page 33


  73:lvgl/src/widgets/../core/../misc/../font/lv_font.h ****     int8_t underline_position;      /**< Distance between the top of the underline and base line (<
  74:lvgl/src/widgets/../core/../misc/../font/lv_font.h ****     int8_t underline_thickness;     /**< Thickness of the underline*/
  75:lvgl/src/widgets/../core/../misc/../font/lv_font.h **** 
  76:lvgl/src/widgets/../core/../misc/../font/lv_font.h ****     const void * dsc;               /**< Store implementation specific or run_time data or caching 
  77:lvgl/src/widgets/../core/../misc/../font/lv_font.h ****     const struct _lv_font_t * fallback;   /**< Fallback font for missing glyph. Resolved recursivel
  78:lvgl/src/widgets/../core/../misc/../font/lv_font.h **** #if LV_USE_USER_DATA
  79:lvgl/src/widgets/../core/../misc/../font/lv_font.h ****     void * user_data;               /**< Custom user data for font.*/
  80:lvgl/src/widgets/../core/../misc/../font/lv_font.h **** #endif
  81:lvgl/src/widgets/../core/../misc/../font/lv_font.h **** } lv_font_t;
  82:lvgl/src/widgets/../core/../misc/../font/lv_font.h **** 
  83:lvgl/src/widgets/../core/../misc/../font/lv_font.h **** /**********************
  84:lvgl/src/widgets/../core/../misc/../font/lv_font.h ****  * GLOBAL PROTOTYPES
  85:lvgl/src/widgets/../core/../misc/../font/lv_font.h ****  **********************/
  86:lvgl/src/widgets/../core/../misc/../font/lv_font.h **** 
  87:lvgl/src/widgets/../core/../misc/../font/lv_font.h **** /**
  88:lvgl/src/widgets/../core/../misc/../font/lv_font.h ****  * Return with the bitmap of a font.
  89:lvgl/src/widgets/../core/../misc/../font/lv_font.h ****  * @param font_p pointer to a font
  90:lvgl/src/widgets/../core/../misc/../font/lv_font.h ****  * @param letter an UNICODE character code
  91:lvgl/src/widgets/../core/../misc/../font/lv_font.h ****  * @return pointer to the bitmap of the letter
  92:lvgl/src/widgets/../core/../misc/../font/lv_font.h ****  */
  93:lvgl/src/widgets/../core/../misc/../font/lv_font.h **** const uint8_t * lv_font_get_glyph_bitmap(const lv_font_t * font_p, uint32_t letter);
  94:lvgl/src/widgets/../core/../misc/../font/lv_font.h **** 
  95:lvgl/src/widgets/../core/../misc/../font/lv_font.h **** /**
  96:lvgl/src/widgets/../core/../misc/../font/lv_font.h ****  * Get the descriptor of a glyph
  97:lvgl/src/widgets/../core/../misc/../font/lv_font.h ****  * @param font_p pointer to font
  98:lvgl/src/widgets/../core/../misc/../font/lv_font.h ****  * @param dsc_out store the result descriptor here
  99:lvgl/src/widgets/../core/../misc/../font/lv_font.h ****  * @param letter an UNICODE letter code
 100:lvgl/src/widgets/../core/../misc/../font/lv_font.h ****  * @param letter_next the next letter after `letter`. Used for kerning
 101:lvgl/src/widgets/../core/../misc/../font/lv_font.h ****  * @return true: descriptor is successfully loaded into `dsc_out`.
 102:lvgl/src/widgets/../core/../misc/../font/lv_font.h ****  *         false: the letter was not found, no data is loaded to `dsc_out`
 103:lvgl/src/widgets/../core/../misc/../font/lv_font.h ****  */
 104:lvgl/src/widgets/../core/../misc/../font/lv_font.h **** bool lv_font_get_glyph_dsc(const lv_font_t * font_p, lv_font_glyph_dsc_t * dsc_out, uint32_t letter
 105:lvgl/src/widgets/../core/../misc/../font/lv_font.h ****                            uint32_t letter_next);
 106:lvgl/src/widgets/../core/../misc/../font/lv_font.h **** 
 107:lvgl/src/widgets/../core/../misc/../font/lv_font.h **** /**
 108:lvgl/src/widgets/../core/../misc/../font/lv_font.h ****  * Get the width of a glyph with kerning
 109:lvgl/src/widgets/../core/../misc/../font/lv_font.h ****  * @param font pointer to a font
 110:lvgl/src/widgets/../core/../misc/../font/lv_font.h ****  * @param letter an UNICODE letter
 111:lvgl/src/widgets/../core/../misc/../font/lv_font.h ****  * @param letter_next the next letter after `letter`. Used for kerning
 112:lvgl/src/widgets/../core/../misc/../font/lv_font.h ****  * @return the width of the glyph
 113:lvgl/src/widgets/../core/../misc/../font/lv_font.h ****  */
 114:lvgl/src/widgets/../core/../misc/../font/lv_font.h **** uint16_t lv_font_get_glyph_width(const lv_font_t * font, uint32_t letter, uint32_t letter_next);
 115:lvgl/src/widgets/../core/../misc/../font/lv_font.h **** 
 116:lvgl/src/widgets/../core/../misc/../font/lv_font.h **** /**
 117:lvgl/src/widgets/../core/../misc/../font/lv_font.h ****  * Get the line height of a font. All characters fit into this height
 118:lvgl/src/widgets/../core/../misc/../font/lv_font.h ****  * @param font_p pointer to a font
 119:lvgl/src/widgets/../core/../misc/../font/lv_font.h ****  * @return the height of a font
 120:lvgl/src/widgets/../core/../misc/../font/lv_font.h ****  */
 121:lvgl/src/widgets/../core/../misc/../font/lv_font.h **** static inline lv_coord_t lv_font_get_line_height(const lv_font_t * font_p)
 163              		.loc 3 121 26 view .LVU38
 164              	.LBB60:
 122:lvgl/src/widgets/../core/../misc/../font/lv_font.h **** {
 123:lvgl/src/widgets/../core/../misc/../font/lv_font.h ****     return font_p->line_height;
 165              		.loc 3 123 5 view .LVU39
 166              		.loc 3 123 18 is_stmt 0 view .LVU40
 167 002a B0F90850 		ldrsh	r5, [r0, #8]
 168              	.LVL13:
ARM GAS  C:\usertemp\ccSNc7FN.s 			page 34


 169              		.loc 3 123 18 view .LVU41
 170              	.LBE60:
 171              	.LBE59:
1110:lvgl/src/widgets/lv_dropdown.c ****     lv_coord_t unit_h = font_h + line_space;
 172              		.loc 1 1110 5 is_stmt 1 view .LVU42
 173              	.LBB61:
 174              	.LBI61:
 455:lvgl/src/widgets/../core/lv_obj_style_gen.h **** }
 456:lvgl/src/widgets/../core/lv_obj_style_gen.h **** 
 457:lvgl/src/widgets/../core/lv_obj_style_gen.h **** static inline lv_coord_t lv_obj_get_style_text_letter_space(const struct _lv_obj_t * obj, uint32_t 
 458:lvgl/src/widgets/../core/lv_obj_style_gen.h **** {
 459:lvgl/src/widgets/../core/lv_obj_style_gen.h ****     lv_style_value_t v = lv_obj_get_style_prop(obj, part, LV_STYLE_TEXT_LETTER_SPACE);
 460:lvgl/src/widgets/../core/lv_obj_style_gen.h ****     return (lv_coord_t)v.num;
 461:lvgl/src/widgets/../core/lv_obj_style_gen.h **** }
 462:lvgl/src/widgets/../core/lv_obj_style_gen.h **** 
 463:lvgl/src/widgets/../core/lv_obj_style_gen.h **** static inline lv_coord_t lv_obj_get_style_text_line_space(const struct _lv_obj_t * obj, uint32_t pa
 175              		.loc 2 463 26 view .LVU43
 176              	.LBB62:
 464:lvgl/src/widgets/../core/lv_obj_style_gen.h **** {
 465:lvgl/src/widgets/../core/lv_obj_style_gen.h ****     lv_style_value_t v = lv_obj_get_style_prop(obj, part, LV_STYLE_TEXT_LINE_SPACE);
 177              		.loc 2 465 5 view .LVU44
 178              		.loc 2 465 26 is_stmt 0 view .LVU45
 179 002e 41F25B42 		movw	r2, #5211
 180 0032 0021     		movs	r1, #0
 181 0034 3046     		mov	r0, r6
 182              	.LVL14:
 183              		.loc 2 465 26 view .LVU46
 184 0036 FFF7FEFF 		bl	lv_obj_get_style_prop
 185              	.LVL15:
 466:lvgl/src/widgets/../core/lv_obj_style_gen.h ****     return (lv_coord_t)v.num;
 186              		.loc 2 466 5 is_stmt 1 view .LVU47
 187              		.loc 2 466 5 is_stmt 0 view .LVU48
 188              	.LBE62:
 189              	.LBE61:
1111:lvgl/src/widgets/lv_dropdown.c ****     lv_coord_t line_y1 = dropdown->sel_opt_id * unit_h;
 190              		.loc 1 1111 5 is_stmt 1 view .LVU49
1111:lvgl/src/widgets/lv_dropdown.c ****     lv_coord_t line_y1 = dropdown->sel_opt_id * unit_h;
 191              		.loc 1 1111 32 is_stmt 0 view .LVU50
 192 003a 2918     		adds	r1, r5, r0
 193              	.LVL16:
1112:lvgl/src/widgets/lv_dropdown.c **** 
 194              		.loc 1 1112 5 is_stmt 1 view .LVU51
1112:lvgl/src/widgets/lv_dropdown.c **** 
 195              		.loc 1 1112 34 is_stmt 0 view .LVU52
 196 003c E38E     		ldrh	r3, [r4, #54]
1112:lvgl/src/widgets/lv_dropdown.c **** 
 197              		.loc 1 1112 16 view .LVU53
 198 003e 11FB03F1 		smulbb	r1, r1, r3
 199              	.LVL17:
1115:lvgl/src/widgets/lv_dropdown.c ****     lv_obj_invalidate(dropdown->list);
 200              		.loc 1 1115 5 is_stmt 1 view .LVU54
 201 0042 0022     		movs	r2, #0
 202 0044 09B2     		sxth	r1, r1
1115:lvgl/src/widgets/lv_dropdown.c ****     lv_obj_invalidate(dropdown->list);
 203              		.loc 1 1115 5 is_stmt 0 view .LVU55
 204 0046 606A     		ldr	r0, [r4, #36]
 205              	.LVL18:
ARM GAS  C:\usertemp\ccSNc7FN.s 			page 35


1115:lvgl/src/widgets/lv_dropdown.c ****     lv_obj_invalidate(dropdown->list);
 206              		.loc 1 1115 5 view .LVU56
 207 0048 FFF7FEFF 		bl	lv_obj_scroll_to_y
 208              	.LVL19:
1116:lvgl/src/widgets/lv_dropdown.c **** }
 209              		.loc 1 1116 5 is_stmt 1 view .LVU57
 210 004c 606A     		ldr	r0, [r4, #36]
 211 004e FFF7FEFF 		bl	lv_obj_invalidate
 212              	.LVL20:
 213 0052 E3E7     		b	.L8
 214              		.cfi_endproc
 215              	.LFE199:
 217              		.section	.text.get_id_on_point,"ax",%progbits
 218              		.align	1
 219              		.syntax unified
 220              		.thumb
 221              		.thumb_func
 223              	get_id_on_point:
 224              	.LVL21:
 225              	.LFB198:
1076:lvgl/src/widgets/lv_dropdown.c ****     lv_dropdown_t * dropdown = (lv_dropdown_t *)dropdown_obj;
 226              		.loc 1 1076 1 view -0
 227              		.cfi_startproc
 228              		@ args = 0, pretend = 0, frame = 0
 229              		@ frame_needed = 0, uses_anonymous_args = 0
1076:lvgl/src/widgets/lv_dropdown.c ****     lv_dropdown_t * dropdown = (lv_dropdown_t *)dropdown_obj;
 230              		.loc 1 1076 1 is_stmt 0 view .LVU59
 231 0000 F8B5     		push	{r3, r4, r5, r6, r7, lr}
 232              	.LCFI3:
 233              		.cfi_def_cfa_offset 24
 234              		.cfi_offset 3, -24
 235              		.cfi_offset 4, -20
 236              		.cfi_offset 5, -16
 237              		.cfi_offset 6, -12
 238              		.cfi_offset 7, -8
 239              		.cfi_offset 14, -4
 240 0002 0546     		mov	r5, r0
 241 0004 0C46     		mov	r4, r1
1077:lvgl/src/widgets/lv_dropdown.c ****     lv_obj_t * label = get_label(dropdown_obj);
 242              		.loc 1 1077 5 is_stmt 1 view .LVU60
 243              	.LVL22:
1078:lvgl/src/widgets/lv_dropdown.c ****     if(label == NULL) return 0;
 244              		.loc 1 1078 5 view .LVU61
1078:lvgl/src/widgets/lv_dropdown.c ****     if(label == NULL) return 0;
 245              		.loc 1 1078 24 is_stmt 0 view .LVU62
 246 0006 FFF7FEFF 		bl	get_label
 247              	.LVL23:
1079:lvgl/src/widgets/lv_dropdown.c ****     y -= label->coords.y1;
 248              		.loc 1 1079 5 is_stmt 1 view .LVU63
1079:lvgl/src/widgets/lv_dropdown.c ****     y -= label->coords.y1;
 249              		.loc 1 1079 7 is_stmt 0 view .LVU64
 250 000a 18B3     		cbz	r0, .L15
 251 000c 0746     		mov	r7, r0
1080:lvgl/src/widgets/lv_dropdown.c **** 
 252              		.loc 1 1080 5 is_stmt 1 view .LVU65
1080:lvgl/src/widgets/lv_dropdown.c **** 
 253              		.loc 1 1080 23 is_stmt 0 view .LVU66
ARM GAS  C:\usertemp\ccSNc7FN.s 			page 36


 254 000e C38A     		ldrh	r3, [r0, #22]
1080:lvgl/src/widgets/lv_dropdown.c **** 
 255              		.loc 1 1080 7 view .LVU67
 256 0010 E41A     		subs	r4, r4, r3
 257              	.LVL24:
1080:lvgl/src/widgets/lv_dropdown.c **** 
 258              		.loc 1 1080 7 view .LVU68
 259 0012 A4B2     		uxth	r4, r4
 260              	.LVL25:
1082:lvgl/src/widgets/lv_dropdown.c ****     lv_coord_t font_h              = lv_font_get_line_height(font);
 261              		.loc 1 1082 5 is_stmt 1 view .LVU69
 262              	.LBB63:
 263              	.LBI63:
 451:lvgl/src/widgets/../core/lv_obj_style_gen.h **** {
 264              		.loc 2 451 33 view .LVU70
 265              	.LBB64:
 453:lvgl/src/widgets/../core/lv_obj_style_gen.h ****     return (const lv_font_t *)v.ptr;
 266              		.loc 2 453 5 view .LVU71
 453:lvgl/src/widgets/../core/lv_obj_style_gen.h ****     return (const lv_font_t *)v.ptr;
 267              		.loc 2 453 26 is_stmt 0 view .LVU72
 268 0014 41F25942 		movw	r2, #5209
 269 0018 0021     		movs	r1, #0
 270 001a FFF7FEFF 		bl	lv_obj_get_style_prop
 271              	.LVL26:
 454:lvgl/src/widgets/../core/lv_obj_style_gen.h **** }
 272              		.loc 2 454 5 is_stmt 1 view .LVU73
 454:lvgl/src/widgets/../core/lv_obj_style_gen.h **** }
 273              		.loc 2 454 5 is_stmt 0 view .LVU74
 274              	.LBE64:
 275              	.LBE63:
1083:lvgl/src/widgets/lv_dropdown.c ****     lv_coord_t line_space = lv_obj_get_style_text_line_space(label, LV_PART_MAIN);
 276              		.loc 1 1083 5 is_stmt 1 view .LVU75
 277              	.LBB65:
 278              	.LBI65:
 121:lvgl/src/widgets/../core/../misc/../font/lv_font.h **** {
 279              		.loc 3 121 26 view .LVU76
 280              	.LBB66:
 281              		.loc 3 123 5 view .LVU77
 282              		.loc 3 123 18 is_stmt 0 view .LVU78
 283 001e B0F90860 		ldrsh	r6, [r0, #8]
 284              	.LVL27:
 285              		.loc 3 123 18 view .LVU79
 286              	.LBE66:
 287              	.LBE65:
1084:lvgl/src/widgets/lv_dropdown.c **** 
 288              		.loc 1 1084 5 is_stmt 1 view .LVU80
 289              	.LBB67:
 290              	.LBI67:
 463:lvgl/src/widgets/../core/lv_obj_style_gen.h **** {
 291              		.loc 2 463 26 view .LVU81
 292              	.LBB68:
 465:lvgl/src/widgets/../core/lv_obj_style_gen.h ****     return (lv_coord_t)v.num;
 293              		.loc 2 465 5 view .LVU82
 465:lvgl/src/widgets/../core/lv_obj_style_gen.h ****     return (lv_coord_t)v.num;
 294              		.loc 2 465 26 is_stmt 0 view .LVU83
 295 0022 41F25B42 		movw	r2, #5211
 296 0026 0021     		movs	r1, #0
ARM GAS  C:\usertemp\ccSNc7FN.s 			page 37


 297 0028 3846     		mov	r0, r7
 298              	.LVL28:
 465:lvgl/src/widgets/../core/lv_obj_style_gen.h ****     return (lv_coord_t)v.num;
 299              		.loc 2 465 26 view .LVU84
 300 002a FFF7FEFF 		bl	lv_obj_get_style_prop
 301              	.LVL29:
 302              		.loc 2 466 5 is_stmt 1 view .LVU85
 303              		.loc 2 466 12 is_stmt 0 view .LVU86
 304 002e 03B2     		sxth	r3, r0
 305              	.LVL30:
 306              		.loc 2 466 12 view .LVU87
 307              	.LBE68:
 308              	.LBE67:
1086:lvgl/src/widgets/lv_dropdown.c ****     lv_coord_t h = font_h + line_space;
 309              		.loc 1 1086 5 is_stmt 1 view .LVU88
1086:lvgl/src/widgets/lv_dropdown.c ****     lv_coord_t h = font_h + line_space;
 310              		.loc 1 1086 7 is_stmt 0 view .LVU89
 311 0030 002B     		cmp	r3, #0
 312 0032 0DDB     		blt	.L17
 313              	.LVL31:
 314              	.L14:
1086:lvgl/src/widgets/lv_dropdown.c ****     lv_coord_t h = font_h + line_space;
 315              		.loc 1 1086 7 view .LVU90
 316 0034 04EB6304 		add	r4, r4, r3, asr #1
 317              	.LVL32:
1086:lvgl/src/widgets/lv_dropdown.c ****     lv_coord_t h = font_h + line_space;
 318              		.loc 1 1086 7 view .LVU91
 319 0038 24B2     		sxth	r4, r4
 320              	.LVL33:
1087:lvgl/src/widgets/lv_dropdown.c **** 
 321              		.loc 1 1087 5 is_stmt 1 view .LVU92
1087:lvgl/src/widgets/lv_dropdown.c **** 
 322              		.loc 1 1087 27 is_stmt 0 view .LVU93
 323 003a 0644     		add	r6, r6, r0
 324              	.LVL34:
1087:lvgl/src/widgets/lv_dropdown.c **** 
 325              		.loc 1 1087 16 view .LVU94
 326 003c 36B2     		sxth	r6, r6
 327              	.LVL35:
1089:lvgl/src/widgets/lv_dropdown.c **** 
 328              		.loc 1 1089 5 is_stmt 1 view .LVU95
1089:lvgl/src/widgets/lv_dropdown.c **** 
 329              		.loc 1 1089 22 is_stmt 0 view .LVU96
 330 003e 94FBF6F4 		sdiv	r4, r4, r6
 331              	.LVL36:
1089:lvgl/src/widgets/lv_dropdown.c **** 
 332              		.loc 1 1089 14 view .LVU97
 333 0042 A0B2     		uxth	r0, r4
 334              	.LVL37:
1091:lvgl/src/widgets/lv_dropdown.c ****     return opt;
 335              		.loc 1 1091 5 is_stmt 1 view .LVU98
1091:lvgl/src/widgets/lv_dropdown.c ****     return opt;
 336              		.loc 1 1091 23 is_stmt 0 view .LVU99
 337 0044 AB8E     		ldrh	r3, [r5, #52]
1091:lvgl/src/widgets/lv_dropdown.c ****     return opt;
 338              		.loc 1 1091 7 view .LVU100
 339 0046 8342     		cmp	r3, r0
ARM GAS  C:\usertemp\ccSNc7FN.s 			page 38


 340 0048 01D8     		bhi	.L13
1091:lvgl/src/widgets/lv_dropdown.c ****     return opt;
 341              		.loc 1 1091 37 is_stmt 1 discriminator 1 view .LVU101
1091:lvgl/src/widgets/lv_dropdown.c ****     return opt;
 342              		.loc 1 1091 41 is_stmt 0 discriminator 1 view .LVU102
 343 004a 013B     		subs	r3, r3, #1
 344 004c 98B2     		uxth	r0, r3
 345              	.LVL38:
 346              	.L13:
1093:lvgl/src/widgets/lv_dropdown.c **** 
 347              		.loc 1 1093 1 view .LVU103
 348 004e F8BD     		pop	{r3, r4, r5, r6, r7, pc}
 349              	.LVL39:
 350              	.L17:
1086:lvgl/src/widgets/lv_dropdown.c ****     lv_coord_t h = font_h + line_space;
 351              		.loc 1 1086 7 view .LVU104
 352 0050 0133     		adds	r3, r3, #1
 353              	.LVL40:
1086:lvgl/src/widgets/lv_dropdown.c ****     lv_coord_t h = font_h + line_space;
 354              		.loc 1 1086 7 view .LVU105
 355 0052 EFE7     		b	.L14
 356              	.LVL41:
 357              	.L15:
1079:lvgl/src/widgets/lv_dropdown.c ****     y -= label->coords.y1;
 358              		.loc 1 1079 30 discriminator 1 view .LVU106
 359 0054 0020     		movs	r0, #0
 360              	.LVL42:
1079:lvgl/src/widgets/lv_dropdown.c ****     y -= label->coords.y1;
 361              		.loc 1 1079 30 discriminator 1 view .LVU107
 362 0056 FAE7     		b	.L13
 363              		.cfi_endproc
 364              	.LFE198:
 366              		.section	.text.lv_dropdown_destructor,"ax",%progbits
 367              		.align	1
 368              		.syntax unified
 369              		.thumb
 370              		.thumb_func
 372              	lv_dropdown_destructor:
 373              	.LVL43:
 374              	.LFB186:
 588:lvgl/src/widgets/lv_dropdown.c ****     LV_UNUSED(class_p);
 375              		.loc 1 588 1 is_stmt 1 view -0
 376              		.cfi_startproc
 377              		@ args = 0, pretend = 0, frame = 0
 378              		@ frame_needed = 0, uses_anonymous_args = 0
 588:lvgl/src/widgets/lv_dropdown.c ****     LV_UNUSED(class_p);
 379              		.loc 1 588 1 is_stmt 0 view .LVU109
 380 0000 10B5     		push	{r4, lr}
 381              	.LCFI4:
 382              		.cfi_def_cfa_offset 8
 383              		.cfi_offset 4, -8
 384              		.cfi_offset 14, -4
 385 0002 0C46     		mov	r4, r1
 589:lvgl/src/widgets/lv_dropdown.c ****     lv_dropdown_t * dropdown = (lv_dropdown_t *)obj;
 386              		.loc 1 589 5 is_stmt 1 view .LVU110
 590:lvgl/src/widgets/lv_dropdown.c **** 
 387              		.loc 1 590 5 view .LVU111
ARM GAS  C:\usertemp\ccSNc7FN.s 			page 39


 388              	.LVL44:
 592:lvgl/src/widgets/lv_dropdown.c ****         lv_obj_del(dropdown->list);
 389              		.loc 1 592 5 view .LVU112
 592:lvgl/src/widgets/lv_dropdown.c ****         lv_obj_del(dropdown->list);
 390              		.loc 1 592 16 is_stmt 0 view .LVU113
 391 0004 486A     		ldr	r0, [r1, #36]
 392              	.LVL45:
 592:lvgl/src/widgets/lv_dropdown.c ****         lv_obj_del(dropdown->list);
 393              		.loc 1 592 7 view .LVU114
 394 0006 18B1     		cbz	r0, .L19
 593:lvgl/src/widgets/lv_dropdown.c ****         dropdown->list = NULL;
 395              		.loc 1 593 9 is_stmt 1 view .LVU115
 396 0008 FFF7FEFF 		bl	lv_obj_del
 397              	.LVL46:
 594:lvgl/src/widgets/lv_dropdown.c ****     }
 398              		.loc 1 594 9 view .LVU116
 594:lvgl/src/widgets/lv_dropdown.c ****     }
 399              		.loc 1 594 24 is_stmt 0 view .LVU117
 400 000c 0023     		movs	r3, #0
 401 000e 6362     		str	r3, [r4, #36]
 402              	.L19:
 597:lvgl/src/widgets/lv_dropdown.c ****         lv_mem_free(dropdown->options);
 403              		.loc 1 597 5 is_stmt 1 view .LVU118
 597:lvgl/src/widgets/lv_dropdown.c ****         lv_mem_free(dropdown->options);
 404              		.loc 1 597 8 is_stmt 0 view .LVU119
 405 0010 94F83C30 		ldrb	r3, [r4, #60]	@ zero_extendqisi2
 597:lvgl/src/widgets/lv_dropdown.c ****         lv_mem_free(dropdown->options);
 406              		.loc 1 597 7 view .LVU120
 407 0014 13F0100F 		tst	r3, #16
 408 0018 00D0     		beq	.L22
 409              	.L18:
 601:lvgl/src/widgets/lv_dropdown.c **** 
 410              		.loc 1 601 1 view .LVU121
 411 001a 10BD     		pop	{r4, pc}
 412              	.LVL47:
 413              	.L22:
 598:lvgl/src/widgets/lv_dropdown.c ****         dropdown->options = NULL;
 414              		.loc 1 598 9 is_stmt 1 view .LVU122
 415 001c 206B     		ldr	r0, [r4, #48]
 416 001e FFF7FEFF 		bl	lv_mem_free
 417              	.LVL48:
 599:lvgl/src/widgets/lv_dropdown.c ****     }
 418              		.loc 1 599 9 view .LVU123
 599:lvgl/src/widgets/lv_dropdown.c ****     }
 419              		.loc 1 599 27 is_stmt 0 view .LVU124
 420 0022 0023     		movs	r3, #0
 421 0024 2363     		str	r3, [r4, #48]
 601:lvgl/src/widgets/lv_dropdown.c **** 
 422              		.loc 1 601 1 view .LVU125
 423 0026 F8E7     		b	.L18
 424              		.cfi_endproc
 425              	.LFE186:
 427              		.section	.text.lv_dropdown_list_create,"ax",%progbits
 428              		.align	1
 429              		.syntax unified
 430              		.thumb
 431              		.thumb_func
ARM GAS  C:\usertemp\ccSNc7FN.s 			page 40


 433              	lv_dropdown_list_create:
 434              	.LVL49:
 435              	.LFB184:
 550:lvgl/src/widgets/lv_dropdown.c ****     LV_LOG_INFO("begin");
 436              		.loc 1 550 1 is_stmt 1 view -0
 437              		.cfi_startproc
 438              		@ args = 0, pretend = 0, frame = 0
 439              		@ frame_needed = 0, uses_anonymous_args = 0
 550:lvgl/src/widgets/lv_dropdown.c ****     LV_LOG_INFO("begin");
 440              		.loc 1 550 1 is_stmt 0 view .LVU127
 441 0000 10B5     		push	{r4, lr}
 442              	.LCFI5:
 443              		.cfi_def_cfa_offset 8
 444              		.cfi_offset 4, -8
 445              		.cfi_offset 14, -4
 446 0002 0146     		mov	r1, r0
 551:lvgl/src/widgets/lv_dropdown.c ****     lv_obj_t * obj = lv_obj_class_create_obj(&lv_dropdownlist_class, parent);
 447              		.loc 1 551 5 is_stmt 1 view .LVU128
 551:lvgl/src/widgets/lv_dropdown.c ****     lv_obj_t * obj = lv_obj_class_create_obj(&lv_dropdownlist_class, parent);
 448              		.loc 1 551 5 view .LVU129
 551:lvgl/src/widgets/lv_dropdown.c ****     lv_obj_t * obj = lv_obj_class_create_obj(&lv_dropdownlist_class, parent);
 449              		.loc 1 551 5 view .LVU130
 552:lvgl/src/widgets/lv_dropdown.c ****     lv_obj_class_init_obj(obj);
 450              		.loc 1 552 5 view .LVU131
 552:lvgl/src/widgets/lv_dropdown.c ****     lv_obj_class_init_obj(obj);
 451              		.loc 1 552 22 is_stmt 0 view .LVU132
 452 0004 0348     		ldr	r0, .L25
 453              	.LVL50:
 552:lvgl/src/widgets/lv_dropdown.c ****     lv_obj_class_init_obj(obj);
 454              		.loc 1 552 22 view .LVU133
 455 0006 FFF7FEFF 		bl	lv_obj_class_create_obj
 456              	.LVL51:
 552:lvgl/src/widgets/lv_dropdown.c ****     lv_obj_class_init_obj(obj);
 457              		.loc 1 552 22 view .LVU134
 458 000a 0446     		mov	r4, r0
 459              	.LVL52:
 553:lvgl/src/widgets/lv_dropdown.c ****     return obj;
 460              		.loc 1 553 5 is_stmt 1 view .LVU135
 461 000c FFF7FEFF 		bl	lv_obj_class_init_obj
 462              	.LVL53:
 554:lvgl/src/widgets/lv_dropdown.c **** }
 463              		.loc 1 554 5 view .LVU136
 555:lvgl/src/widgets/lv_dropdown.c **** 
 464              		.loc 1 555 1 is_stmt 0 view .LVU137
 465 0010 2046     		mov	r0, r4
 466 0012 10BD     		pop	{r4, pc}
 467              	.LVL54:
 468              	.L26:
 555:lvgl/src/widgets/lv_dropdown.c **** 
 469              		.loc 1 555 1 view .LVU138
 470              		.align	2
 471              	.L25:
 472 0014 00000000 		.word	lv_dropdownlist_class
 473              		.cfi_endproc
 474              	.LFE184:
 476              		.section	.text.list_press_handler,"ax",%progbits
 477              		.align	1
ARM GAS  C:\usertemp\ccSNc7FN.s 			page 41


 478              		.syntax unified
 479              		.thumb
 480              		.thumb_func
 482              	list_press_handler:
 483              	.LVL55:
 484              	.LFB197:
1061:lvgl/src/widgets/lv_dropdown.c ****     lv_dropdown_list_t * list = (lv_dropdown_list_t *) list_obj;
 485              		.loc 1 1061 1 is_stmt 1 view -0
 486              		.cfi_startproc
 487              		@ args = 0, pretend = 0, frame = 8
 488              		@ frame_needed = 0, uses_anonymous_args = 0
1061:lvgl/src/widgets/lv_dropdown.c ****     lv_dropdown_list_t * list = (lv_dropdown_list_t *) list_obj;
 489              		.loc 1 1061 1 is_stmt 0 view .LVU140
 490 0000 70B5     		push	{r4, r5, r6, lr}
 491              	.LCFI6:
 492              		.cfi_def_cfa_offset 16
 493              		.cfi_offset 4, -16
 494              		.cfi_offset 5, -12
 495              		.cfi_offset 6, -8
 496              		.cfi_offset 14, -4
 497 0002 82B0     		sub	sp, sp, #8
 498              	.LCFI7:
 499              		.cfi_def_cfa_offset 24
 500 0004 0446     		mov	r4, r0
1062:lvgl/src/widgets/lv_dropdown.c ****     lv_obj_t * dropdown_obj = list->dropdown;
 501              		.loc 1 1062 5 is_stmt 1 view .LVU141
 502              	.LVL56:
1063:lvgl/src/widgets/lv_dropdown.c ****     lv_dropdown_t * dropdown = (lv_dropdown_t *)dropdown_obj;
 503              		.loc 1 1063 5 view .LVU142
1063:lvgl/src/widgets/lv_dropdown.c ****     lv_dropdown_t * dropdown = (lv_dropdown_t *)dropdown_obj;
 504              		.loc 1 1063 16 is_stmt 0 view .LVU143
 505 0006 466A     		ldr	r6, [r0, #36]
 506              	.LVL57:
1064:lvgl/src/widgets/lv_dropdown.c **** 
 507              		.loc 1 1064 5 is_stmt 1 view .LVU144
1066:lvgl/src/widgets/lv_dropdown.c ****     if(indev && (lv_indev_get_type(indev) == LV_INDEV_TYPE_POINTER || lv_indev_get_type(indev) == L
 508              		.loc 1 1066 5 view .LVU145
1066:lvgl/src/widgets/lv_dropdown.c ****     if(indev && (lv_indev_get_type(indev) == LV_INDEV_TYPE_POINTER || lv_indev_get_type(indev) == L
 509              		.loc 1 1066 26 is_stmt 0 view .LVU146
 510 0008 FFF7FEFF 		bl	lv_indev_get_act
 511              	.LVL58:
1067:lvgl/src/widgets/lv_dropdown.c ****         lv_point_t p;
 512              		.loc 1 1067 5 is_stmt 1 view .LVU147
1067:lvgl/src/widgets/lv_dropdown.c ****         lv_point_t p;
 513              		.loc 1 1067 7 is_stmt 0 view .LVU148
 514 000c B0B1     		cbz	r0, .L27
 515 000e 0546     		mov	r5, r0
1067:lvgl/src/widgets/lv_dropdown.c ****         lv_point_t p;
 516              		.loc 1 1067 18 discriminator 1 view .LVU149
 517 0010 FFF7FEFF 		bl	lv_indev_get_type
 518              	.LVL59:
1067:lvgl/src/widgets/lv_dropdown.c ****         lv_point_t p;
 519              		.loc 1 1067 14 discriminator 1 view .LVU150
 520 0014 0128     		cmp	r0, #1
 521 0016 04D0     		beq	.L29
1067:lvgl/src/widgets/lv_dropdown.c ****         lv_point_t p;
 522              		.loc 1 1067 71 discriminator 2 view .LVU151
ARM GAS  C:\usertemp\ccSNc7FN.s 			page 42


 523 0018 2846     		mov	r0, r5
 524 001a FFF7FEFF 		bl	lv_indev_get_type
 525              	.LVL60:
1067:lvgl/src/widgets/lv_dropdown.c ****         lv_point_t p;
 526              		.loc 1 1067 68 discriminator 1 view .LVU152
 527 001e 0328     		cmp	r0, #3
 528 0020 0CD1     		bne	.L27
 529              	.L29:
 530              	.LBB69:
1068:lvgl/src/widgets/lv_dropdown.c ****         lv_indev_get_point(indev, &p);
 531              		.loc 1 1068 9 is_stmt 1 view .LVU153
1069:lvgl/src/widgets/lv_dropdown.c ****         dropdown->pr_opt_id = get_id_on_point(dropdown_obj, p.y);
 532              		.loc 1 1069 9 view .LVU154
 533 0022 01A9     		add	r1, sp, #4
 534 0024 2846     		mov	r0, r5
 535 0026 FFF7FEFF 		bl	lv_indev_get_point
 536              	.LVL61:
1070:lvgl/src/widgets/lv_dropdown.c ****         lv_obj_invalidate(list_obj);
 537              		.loc 1 1070 9 view .LVU155
1070:lvgl/src/widgets/lv_dropdown.c ****         lv_obj_invalidate(list_obj);
 538              		.loc 1 1070 31 is_stmt 0 view .LVU156
 539 002a BDF90610 		ldrsh	r1, [sp, #6]
 540 002e 3046     		mov	r0, r6
 541 0030 FFF7FEFF 		bl	get_id_on_point
 542              	.LVL62:
1070:lvgl/src/widgets/lv_dropdown.c ****         lv_obj_invalidate(list_obj);
 543              		.loc 1 1070 29 discriminator 1 view .LVU157
 544 0034 7087     		strh	r0, [r6, #58]	@ movhi
1071:lvgl/src/widgets/lv_dropdown.c ****     }
 545              		.loc 1 1071 9 is_stmt 1 view .LVU158
 546 0036 2046     		mov	r0, r4
 547 0038 FFF7FEFF 		bl	lv_obj_invalidate
 548              	.LVL63:
 549              	.L27:
1071:lvgl/src/widgets/lv_dropdown.c ****     }
 550              		.loc 1 1071 9 is_stmt 0 view .LVU159
 551              	.LBE69:
1073:lvgl/src/widgets/lv_dropdown.c **** 
 552              		.loc 1 1073 1 view .LVU160
 553 003c 02B0     		add	sp, sp, #8
 554              	.LCFI8:
 555              		.cfi_def_cfa_offset 16
 556              		@ sp needed
 557 003e 70BD     		pop	{r4, r5, r6, pc}
1073:lvgl/src/widgets/lv_dropdown.c **** 
 558              		.loc 1 1073 1 view .LVU161
 559              		.cfi_endproc
 560              	.LFE197:
 562              		.section	.text.draw_box,"ax",%progbits
 563              		.align	1
 564              		.syntax unified
 565              		.thumb
 566              		.thumb_func
 568              	draw_box:
 569              	.LVL64:
 570              	.LFB193:
 904:lvgl/src/widgets/lv_dropdown.c ****     if(id == LV_DROPDOWN_PR_NONE) return;
ARM GAS  C:\usertemp\ccSNc7FN.s 			page 43


 571              		.loc 1 904 1 is_stmt 1 view -0
 572              		.cfi_startproc
 573              		@ args = 0, pretend = 0, frame = 64
 574              		@ frame_needed = 0, uses_anonymous_args = 0
 904:lvgl/src/widgets/lv_dropdown.c ****     if(id == LV_DROPDOWN_PR_NONE) return;
 575              		.loc 1 904 1 is_stmt 0 view .LVU163
 576 0000 2DE9F04F 		push	{r4, r5, r6, r7, r8, r9, r10, fp, lr}
 577              	.LCFI9:
 578              		.cfi_def_cfa_offset 36
 579              		.cfi_offset 4, -36
 580              		.cfi_offset 5, -32
 581              		.cfi_offset 6, -28
 582              		.cfi_offset 7, -24
 583              		.cfi_offset 8, -20
 584              		.cfi_offset 9, -16
 585              		.cfi_offset 10, -12
 586              		.cfi_offset 11, -8
 587              		.cfi_offset 14, -4
 588 0004 91B0     		sub	sp, sp, #68
 589              	.LCFI10:
 590              		.cfi_def_cfa_offset 104
 591 0006 9346     		mov	fp, r2
 905:lvgl/src/widgets/lv_dropdown.c **** 
 592              		.loc 1 905 5 is_stmt 1 view .LVU164
 905:lvgl/src/widgets/lv_dropdown.c **** 
 593              		.loc 1 905 7 is_stmt 0 view .LVU165
 594 0008 4FF6FF72 		movw	r2, #65535
 595              	.LVL65:
 905:lvgl/src/widgets/lv_dropdown.c **** 
 596              		.loc 1 905 7 view .LVU166
 597 000c 9345     		cmp	fp, r2
 598 000e 60D0     		beq	.L31
 599 0010 0546     		mov	r5, r0
 600 0012 0F46     		mov	r7, r1
 907:lvgl/src/widgets/lv_dropdown.c ****     lv_obj_t * list_obj = dropdown->list;
 601              		.loc 1 907 5 is_stmt 1 view .LVU167
 602              	.LVL66:
 908:lvgl/src/widgets/lv_dropdown.c ****     lv_state_t state_ori = list_obj->state;
 603              		.loc 1 908 5 view .LVU168
 908:lvgl/src/widgets/lv_dropdown.c ****     lv_state_t state_ori = list_obj->state;
 604              		.loc 1 908 16 is_stmt 0 view .LVU169
 605 0014 446A     		ldr	r4, [r0, #36]
 606              	.LVL67:
 909:lvgl/src/widgets/lv_dropdown.c **** 
 607              		.loc 1 909 5 is_stmt 1 view .LVU170
 909:lvgl/src/widgets/lv_dropdown.c **** 
 608              		.loc 1 909 16 is_stmt 0 view .LVU171
 609 0016 B4F82080 		ldrh	r8, [r4, #32]
 610              	.LVL68:
 911:lvgl/src/widgets/lv_dropdown.c ****         list_obj->state = state;
 611              		.loc 1 911 5 is_stmt 1 view .LVU172
 911:lvgl/src/widgets/lv_dropdown.c ****         list_obj->state = state;
 612              		.loc 1 911 7 is_stmt 0 view .LVU173
 613 001a 9845     		cmp	r8, r3
 614 001c 06D0     		beq	.L34
 912:lvgl/src/widgets/lv_dropdown.c ****         list_obj->skip_trans = 1;
 615              		.loc 1 912 9 is_stmt 1 view .LVU174
ARM GAS  C:\usertemp\ccSNc7FN.s 			page 44


 912:lvgl/src/widgets/lv_dropdown.c ****         list_obj->skip_trans = 1;
 616              		.loc 1 912 25 is_stmt 0 view .LVU175
 617 001e 2384     		strh	r3, [r4, #32]	@ movhi
 913:lvgl/src/widgets/lv_dropdown.c ****     }
 618              		.loc 1 913 9 is_stmt 1 view .LVU176
 913:lvgl/src/widgets/lv_dropdown.c ****     }
 619              		.loc 1 913 30 is_stmt 0 view .LVU177
 620 0020 94F82230 		ldrb	r3, [r4, #34]	@ zero_extendqisi2
 621              	.LVL69:
 913:lvgl/src/widgets/lv_dropdown.c ****     }
 622              		.loc 1 913 30 view .LVU178
 623 0024 43F00403 		orr	r3, r3, #4
 624 0028 84F82230 		strb	r3, [r4, #34]
 625              	.LVL70:
 626              	.L34:
 917:lvgl/src/widgets/lv_dropdown.c ****     lv_coord_t line_space = lv_obj_get_style_text_line_space(list_obj,  LV_PART_SELECTED);
 627              		.loc 1 917 5 is_stmt 1 view .LVU179
 628              	.LBB70:
 629              	.LBI70:
 451:lvgl/src/widgets/../core/lv_obj_style_gen.h **** {
 630              		.loc 2 451 33 view .LVU180
 631              	.LBB71:
 453:lvgl/src/widgets/../core/lv_obj_style_gen.h ****     return (const lv_font_t *)v.ptr;
 632              		.loc 2 453 5 view .LVU181
 453:lvgl/src/widgets/../core/lv_obj_style_gen.h ****     return (const lv_font_t *)v.ptr;
 633              		.loc 2 453 26 is_stmt 0 view .LVU182
 634 002c 41F25942 		movw	r2, #5209
 635 0030 4FF48021 		mov	r1, #262144
 636              	.LVL71:
 453:lvgl/src/widgets/../core/lv_obj_style_gen.h ****     return (const lv_font_t *)v.ptr;
 637              		.loc 2 453 26 view .LVU183
 638 0034 2046     		mov	r0, r4
 639              	.LVL72:
 453:lvgl/src/widgets/../core/lv_obj_style_gen.h ****     return (const lv_font_t *)v.ptr;
 640              		.loc 2 453 26 view .LVU184
 641 0036 FFF7FEFF 		bl	lv_obj_get_style_prop
 642              	.LVL73:
 643 003a 8146     		mov	r9, r0
 644              	.LVL74:
 454:lvgl/src/widgets/../core/lv_obj_style_gen.h **** }
 645              		.loc 2 454 5 is_stmt 1 view .LVU185
 454:lvgl/src/widgets/../core/lv_obj_style_gen.h **** }
 646              		.loc 2 454 5 is_stmt 0 view .LVU186
 647              	.LBE71:
 648              	.LBE70:
 918:lvgl/src/widgets/lv_dropdown.c ****     lv_coord_t font_h         = lv_font_get_line_height(font);
 649              		.loc 1 918 5 is_stmt 1 view .LVU187
 650              	.LBB72:
 651              	.LBI72:
 463:lvgl/src/widgets/../core/lv_obj_style_gen.h **** {
 652              		.loc 2 463 26 view .LVU188
 653              	.LBB73:
 465:lvgl/src/widgets/../core/lv_obj_style_gen.h ****     return (lv_coord_t)v.num;
 654              		.loc 2 465 5 view .LVU189
 465:lvgl/src/widgets/../core/lv_obj_style_gen.h ****     return (lv_coord_t)v.num;
 655              		.loc 2 465 26 is_stmt 0 view .LVU190
 656 003c 41F25B42 		movw	r2, #5211
ARM GAS  C:\usertemp\ccSNc7FN.s 			page 45


 657 0040 4FF48021 		mov	r1, #262144
 658 0044 2046     		mov	r0, r4
 659              	.LVL75:
 465:lvgl/src/widgets/../core/lv_obj_style_gen.h ****     return (lv_coord_t)v.num;
 660              		.loc 2 465 26 view .LVU191
 661 0046 FFF7FEFF 		bl	lv_obj_get_style_prop
 662              	.LVL76:
 663 004a 0646     		mov	r6, r0
 664              		.loc 2 466 5 is_stmt 1 view .LVU192
 665              		.loc 2 466 12 is_stmt 0 view .LVU193
 666 004c 0FFA80FA 		sxth	r10, r0
 667              	.LVL77:
 668              		.loc 2 466 12 view .LVU194
 669              	.LBE73:
 670              	.LBE72:
 919:lvgl/src/widgets/lv_dropdown.c **** 
 671              		.loc 1 919 5 is_stmt 1 view .LVU195
 672              	.LBB74:
 673              	.LBI74:
 121:lvgl/src/widgets/../core/../misc/../font/lv_font.h **** {
 674              		.loc 3 121 26 view .LVU196
 675              	.LBB75:
 676              		.loc 3 123 5 view .LVU197
 677              		.loc 3 123 18 is_stmt 0 view .LVU198
 678 0050 B9F90890 		ldrsh	r9, [r9, #8]
 679              	.LVL78:
 680              		.loc 3 123 18 view .LVU199
 681              	.LBE75:
 682              	.LBE74:
 922:lvgl/src/widgets/lv_dropdown.c ****     lv_area_t rect_area;
 683              		.loc 1 922 5 is_stmt 1 view .LVU200
 922:lvgl/src/widgets/lv_dropdown.c ****     lv_area_t rect_area;
 684              		.loc 1 922 24 is_stmt 0 view .LVU201
 685 0054 2846     		mov	r0, r5
 686 0056 FFF7FEFF 		bl	get_label
 687              	.LVL79:
 923:lvgl/src/widgets/lv_dropdown.c ****     rect_area.y1 = label->coords.y1;
 688              		.loc 1 923 5 is_stmt 1 view .LVU202
 924:lvgl/src/widgets/lv_dropdown.c ****     rect_area.y1 += id * (font_h + line_space);
 689              		.loc 1 924 5 view .LVU203
 924:lvgl/src/widgets/lv_dropdown.c ****     rect_area.y1 += id * (font_h + line_space);
 690              		.loc 1 924 33 is_stmt 0 view .LVU204
 691 005a B0F91630 		ldrsh	r3, [r0, #22]
 924:lvgl/src/widgets/lv_dropdown.c ****     rect_area.y1 += id * (font_h + line_space);
 692              		.loc 1 924 18 view .LVU205
 693 005e ADF83A30 		strh	r3, [sp, #58]	@ movhi
 925:lvgl/src/widgets/lv_dropdown.c ****     rect_area.y1 -= line_space / 2;
 694              		.loc 1 925 5 is_stmt 1 view .LVU206
 925:lvgl/src/widgets/lv_dropdown.c ****     rect_area.y1 -= line_space / 2;
 695              		.loc 1 925 34 is_stmt 0 view .LVU207
 696 0062 09EB0A02 		add	r2, r9, r10
 925:lvgl/src/widgets/lv_dropdown.c ****     rect_area.y1 -= line_space / 2;
 697              		.loc 1 925 18 view .LVU208
 698 0066 12FB0BF2 		smulbb	r2, r2, fp
 699 006a 12FA83F3 		uxtah	r3, r2, r3
 700 006e 9BB2     		uxth	r3, r3
 701 0070 ADF83A30 		strh	r3, [sp, #58]	@ movhi
ARM GAS  C:\usertemp\ccSNc7FN.s 			page 46


 926:lvgl/src/widgets/lv_dropdown.c **** 
 702              		.loc 1 926 5 is_stmt 1 view .LVU209
 926:lvgl/src/widgets/lv_dropdown.c **** 
 703              		.loc 1 926 18 is_stmt 0 view .LVU210
 704 0074 5246     		mov	r2, r10
 705 0076 BAF1000F 		cmp	r10, #0
 706 007a 2DDB     		blt	.L37
 707              	.L35:
 708 007c A3EB6203 		sub	r3, r3, r2, asr #1
 709 0080 9BB2     		uxth	r3, r3
 710 0082 ADF83A30 		strh	r3, [sp, #58]	@ movhi
 928:lvgl/src/widgets/lv_dropdown.c ****     rect_area.x1 = dropdown->list->coords.x1;
 711              		.loc 1 928 5 is_stmt 1 view .LVU211
 928:lvgl/src/widgets/lv_dropdown.c ****     rect_area.x1 = dropdown->list->coords.x1;
 712              		.loc 1 928 33 is_stmt 0 view .LVU212
 713 0086 4B44     		add	r3, r3, r9
 928:lvgl/src/widgets/lv_dropdown.c ****     rect_area.x1 = dropdown->list->coords.x1;
 714              		.loc 1 928 42 view .LVU213
 715 0088 16FA83F3 		uxtah	r3, r6, r3
 716 008c 9BB2     		uxth	r3, r3
 928:lvgl/src/widgets/lv_dropdown.c ****     rect_area.x1 = dropdown->list->coords.x1;
 717              		.loc 1 928 55 view .LVU214
 718 008e 013B     		subs	r3, r3, #1
 928:lvgl/src/widgets/lv_dropdown.c ****     rect_area.x1 = dropdown->list->coords.x1;
 719              		.loc 1 928 18 view .LVU215
 720 0090 ADF83E30 		strh	r3, [sp, #62]	@ movhi
 929:lvgl/src/widgets/lv_dropdown.c ****     rect_area.x2 = dropdown->list->coords.x2;
 721              		.loc 1 929 5 is_stmt 1 view .LVU216
 929:lvgl/src/widgets/lv_dropdown.c ****     rect_area.x2 = dropdown->list->coords.x2;
 722              		.loc 1 929 28 is_stmt 0 view .LVU217
 723 0094 6B6A     		ldr	r3, [r5, #36]
 929:lvgl/src/widgets/lv_dropdown.c ****     rect_area.x2 = dropdown->list->coords.x2;
 724              		.loc 1 929 42 view .LVU218
 725 0096 B3F91420 		ldrsh	r2, [r3, #20]
 929:lvgl/src/widgets/lv_dropdown.c ****     rect_area.x2 = dropdown->list->coords.x2;
 726              		.loc 1 929 18 view .LVU219
 727 009a ADF83820 		strh	r2, [sp, #56]	@ movhi
 930:lvgl/src/widgets/lv_dropdown.c **** 
 728              		.loc 1 930 5 is_stmt 1 view .LVU220
 930:lvgl/src/widgets/lv_dropdown.c **** 
 729              		.loc 1 930 42 is_stmt 0 view .LVU221
 730 009e B3F91830 		ldrsh	r3, [r3, #24]
 930:lvgl/src/widgets/lv_dropdown.c **** 
 731              		.loc 1 930 18 view .LVU222
 732 00a2 ADF83C30 		strh	r3, [sp, #60]	@ movhi
 932:lvgl/src/widgets/lv_dropdown.c ****     lv_draw_rect_dsc_init(&sel_rect);
 733              		.loc 1 932 5 is_stmt 1 view .LVU223
 933:lvgl/src/widgets/lv_dropdown.c ****     lv_obj_init_draw_rect_dsc(list_obj,  LV_PART_SELECTED, &sel_rect);
 734              		.loc 1 933 5 view .LVU224
 735 00a6 6846     		mov	r0, sp
 736              	.LVL80:
 933:lvgl/src/widgets/lv_dropdown.c ****     lv_obj_init_draw_rect_dsc(list_obj,  LV_PART_SELECTED, &sel_rect);
 737              		.loc 1 933 5 is_stmt 0 view .LVU225
 738 00a8 FFF7FEFF 		bl	lv_draw_rect_dsc_init
 739              	.LVL81:
 934:lvgl/src/widgets/lv_dropdown.c ****     lv_draw_rect(draw_ctx, &sel_rect, &rect_area);
 740              		.loc 1 934 5 is_stmt 1 view .LVU226
ARM GAS  C:\usertemp\ccSNc7FN.s 			page 47


 741 00ac 6A46     		mov	r2, sp
 742 00ae 4FF48021 		mov	r1, #262144
 743 00b2 2046     		mov	r0, r4
 744 00b4 FFF7FEFF 		bl	lv_obj_init_draw_rect_dsc
 745              	.LVL82:
 935:lvgl/src/widgets/lv_dropdown.c **** 
 746              		.loc 1 935 5 view .LVU227
 747 00b8 0EAA     		add	r2, sp, #56
 748 00ba 6946     		mov	r1, sp
 749 00bc 3846     		mov	r0, r7
 750 00be FFF7FEFF 		bl	lv_draw_rect
 751              	.LVL83:
 937:lvgl/src/widgets/lv_dropdown.c ****     list_obj->skip_trans = 0;
 752              		.loc 1 937 5 view .LVU228
 937:lvgl/src/widgets/lv_dropdown.c ****     list_obj->skip_trans = 0;
 753              		.loc 1 937 21 is_stmt 0 view .LVU229
 754 00c2 A4F82080 		strh	r8, [r4, #32]	@ movhi
 938:lvgl/src/widgets/lv_dropdown.c **** }
 755              		.loc 1 938 5 is_stmt 1 view .LVU230
 938:lvgl/src/widgets/lv_dropdown.c **** }
 756              		.loc 1 938 26 is_stmt 0 view .LVU231
 757 00c6 94F82230 		ldrb	r3, [r4, #34]	@ zero_extendqisi2
 758 00ca 23F00403 		bic	r3, r3, #4
 759 00ce 84F82230 		strb	r3, [r4, #34]
 760              	.LVL84:
 761              	.L31:
 939:lvgl/src/widgets/lv_dropdown.c **** 
 762              		.loc 1 939 1 view .LVU232
 763 00d2 11B0     		add	sp, sp, #68
 764              	.LCFI11:
 765              		.cfi_remember_state
 766              		.cfi_def_cfa_offset 36
 767              		@ sp needed
 768 00d4 BDE8F08F 		pop	{r4, r5, r6, r7, r8, r9, r10, fp, pc}
 769              	.LVL85:
 770              	.L37:
 771              	.LCFI12:
 772              		.cfi_restore_state
 926:lvgl/src/widgets/lv_dropdown.c **** 
 773              		.loc 1 926 18 view .LVU233
 774 00d8 0AF10102 		add	r2, r10, #1
 775 00dc CEE7     		b	.L35
 776              		.cfi_endproc
 777              	.LFE193:
 779              		.section	.text.draw_box_label,"ax",%progbits
 780              		.align	1
 781              		.syntax unified
 782              		.thumb
 783              		.thumb_func
 785              	draw_box_label:
 786              	.LVL86:
 787              	.LFB194:
 942:lvgl/src/widgets/lv_dropdown.c ****     if(id == LV_DROPDOWN_PR_NONE) return;
 788              		.loc 1 942 1 is_stmt 1 view -0
 789              		.cfi_startproc
 790              		@ args = 0, pretend = 0, frame = 48
 791              		@ frame_needed = 0, uses_anonymous_args = 0
ARM GAS  C:\usertemp\ccSNc7FN.s 			page 48


 942:lvgl/src/widgets/lv_dropdown.c ****     if(id == LV_DROPDOWN_PR_NONE) return;
 792              		.loc 1 942 1 is_stmt 0 view .LVU235
 793 0000 2DE9F043 		push	{r4, r5, r6, r7, r8, r9, lr}
 794              	.LCFI13:
 795              		.cfi_def_cfa_offset 28
 796              		.cfi_offset 4, -28
 797              		.cfi_offset 5, -24
 798              		.cfi_offset 6, -20
 799              		.cfi_offset 7, -16
 800              		.cfi_offset 8, -12
 801              		.cfi_offset 9, -8
 802              		.cfi_offset 14, -4
 803 0004 8FB0     		sub	sp, sp, #60
 804              	.LCFI14:
 805              		.cfi_def_cfa_offset 88
 806 0006 9046     		mov	r8, r2
 943:lvgl/src/widgets/lv_dropdown.c **** 
 807              		.loc 1 943 5 is_stmt 1 view .LVU236
 943:lvgl/src/widgets/lv_dropdown.c **** 
 808              		.loc 1 943 7 is_stmt 0 view .LVU237
 809 0008 4FF6FF72 		movw	r2, #65535
 810              	.LVL87:
 943:lvgl/src/widgets/lv_dropdown.c **** 
 811              		.loc 1 943 7 view .LVU238
 812 000c 9045     		cmp	r8, r2
 813 000e 59D0     		beq	.L38
 814 0010 0746     		mov	r7, r0
 815 0012 0D46     		mov	r5, r1
 945:lvgl/src/widgets/lv_dropdown.c ****     lv_obj_t * list_obj = dropdown->list;
 816              		.loc 1 945 5 is_stmt 1 view .LVU239
 817              	.LVL88:
 946:lvgl/src/widgets/lv_dropdown.c ****     lv_state_t state_orig = list_obj->state;
 818              		.loc 1 946 5 view .LVU240
 946:lvgl/src/widgets/lv_dropdown.c ****     lv_state_t state_orig = list_obj->state;
 819              		.loc 1 946 16 is_stmt 0 view .LVU241
 820 0014 446A     		ldr	r4, [r0, #36]
 821              	.LVL89:
 947:lvgl/src/widgets/lv_dropdown.c **** 
 822              		.loc 1 947 5 is_stmt 1 view .LVU242
 947:lvgl/src/widgets/lv_dropdown.c **** 
 823              		.loc 1 947 16 is_stmt 0 view .LVU243
 824 0016 268C     		ldrh	r6, [r4, #32]
 825              	.LVL90:
 949:lvgl/src/widgets/lv_dropdown.c ****         list_obj->state = state;
 826              		.loc 1 949 5 is_stmt 1 view .LVU244
 949:lvgl/src/widgets/lv_dropdown.c ****         list_obj->state = state;
 827              		.loc 1 949 7 is_stmt 0 view .LVU245
 828 0018 9E42     		cmp	r6, r3
 829 001a 06D0     		beq	.L40
 950:lvgl/src/widgets/lv_dropdown.c ****         list_obj->skip_trans = 1;
 830              		.loc 1 950 9 is_stmt 1 view .LVU246
 950:lvgl/src/widgets/lv_dropdown.c ****         list_obj->skip_trans = 1;
 831              		.loc 1 950 25 is_stmt 0 view .LVU247
 832 001c 2384     		strh	r3, [r4, #32]	@ movhi
 951:lvgl/src/widgets/lv_dropdown.c ****     }
 833              		.loc 1 951 9 is_stmt 1 view .LVU248
 951:lvgl/src/widgets/lv_dropdown.c ****     }
ARM GAS  C:\usertemp\ccSNc7FN.s 			page 49


 834              		.loc 1 951 30 is_stmt 0 view .LVU249
 835 001e 94F82230 		ldrb	r3, [r4, #34]	@ zero_extendqisi2
 836              	.LVL91:
 951:lvgl/src/widgets/lv_dropdown.c ****     }
 837              		.loc 1 951 30 view .LVU250
 838 0022 43F00403 		orr	r3, r3, #4
 839 0026 84F82230 		strb	r3, [r4, #34]
 840              	.LVL92:
 841              	.L40:
 954:lvgl/src/widgets/lv_dropdown.c ****     lv_draw_label_dsc_init(&label_dsc);
 842              		.loc 1 954 5 is_stmt 1 view .LVU251
 955:lvgl/src/widgets/lv_dropdown.c ****     lv_obj_init_draw_label_dsc(list_obj, LV_PART_SELECTED, &label_dsc);
 843              		.loc 1 955 5 view .LVU252
 844 002a 06A8     		add	r0, sp, #24
 845              	.LVL93:
 955:lvgl/src/widgets/lv_dropdown.c ****     lv_obj_init_draw_label_dsc(list_obj, LV_PART_SELECTED, &label_dsc);
 846              		.loc 1 955 5 is_stmt 0 view .LVU253
 847 002c FFF7FEFF 		bl	lv_draw_label_dsc_init
 848              	.LVL94:
 956:lvgl/src/widgets/lv_dropdown.c **** 
 849              		.loc 1 956 5 is_stmt 1 view .LVU254
 850 0030 06AA     		add	r2, sp, #24
 851 0032 4FF48021 		mov	r1, #262144
 852 0036 2046     		mov	r0, r4
 853 0038 FFF7FEFF 		bl	lv_obj_init_draw_label_dsc
 854              	.LVL95:
 958:lvgl/src/widgets/lv_dropdown.c ****                                                             LV_PART_SELECTED);  /*Line space should
 855              		.loc 1 958 5 view .LVU255
 856              	.LBB76:
 857              	.LBI76:
 463:lvgl/src/widgets/../core/lv_obj_style_gen.h **** {
 858              		.loc 2 463 26 view .LVU256
 859              	.LBB77:
 465:lvgl/src/widgets/../core/lv_obj_style_gen.h ****     return (lv_coord_t)v.num;
 860              		.loc 2 465 5 view .LVU257
 465:lvgl/src/widgets/../core/lv_obj_style_gen.h ****     return (lv_coord_t)v.num;
 861              		.loc 2 465 26 is_stmt 0 view .LVU258
 862 003c 41F25B42 		movw	r2, #5211
 863 0040 4FF48021 		mov	r1, #262144
 864 0044 2046     		mov	r0, r4
 865 0046 FFF7FEFF 		bl	lv_obj_get_style_prop
 866              	.LVL96:
 867              		.loc 2 466 5 is_stmt 1 view .LVU259
 868              		.loc 2 466 5 is_stmt 0 view .LVU260
 869              	.LBE77:
 870              	.LBE76:
 958:lvgl/src/widgets/lv_dropdown.c ****                                                             LV_PART_SELECTED);  /*Line space should
 871              		.loc 1 958 26 discriminator 1 view .LVU261
 872 004a ADF82A00 		strh	r0, [sp, #42]	@ movhi
 961:lvgl/src/widgets/lv_dropdown.c ****     if(label == NULL) return;
 873              		.loc 1 961 5 is_stmt 1 view .LVU262
 961:lvgl/src/widgets/lv_dropdown.c ****     if(label == NULL) return;
 874              		.loc 1 961 24 is_stmt 0 view .LVU263
 875 004e 3846     		mov	r0, r7
 876 0050 FFF7FEFF 		bl	get_label
 877              	.LVL97:
 962:lvgl/src/widgets/lv_dropdown.c **** 
ARM GAS  C:\usertemp\ccSNc7FN.s 			page 50


 878              		.loc 1 962 5 is_stmt 1 view .LVU264
 962:lvgl/src/widgets/lv_dropdown.c **** 
 879              		.loc 1 962 7 is_stmt 0 view .LVU265
 880 0054 0746     		mov	r7, r0
 881              	.LVL98:
 962:lvgl/src/widgets/lv_dropdown.c **** 
 882              		.loc 1 962 7 view .LVU266
 883 0056 A8B3     		cbz	r0, .L38
 964:lvgl/src/widgets/lv_dropdown.c **** 
 884              		.loc 1 964 5 is_stmt 1 view .LVU267
 964:lvgl/src/widgets/lv_dropdown.c **** 
 885              		.loc 1 964 32 is_stmt 0 view .LVU268
 886 0058 069B     		ldr	r3, [sp, #24]
 887              	.LVL99:
 888              	.LBB78:
 889              	.LBI78:
 121:lvgl/src/widgets/../core/../misc/../font/lv_font.h **** {
 890              		.loc 3 121 26 is_stmt 1 view .LVU269
 891              	.LBB79:
 892              		.loc 3 123 5 view .LVU270
 893              		.loc 3 123 18 is_stmt 0 view .LVU271
 894 005a B3F90800 		ldrsh	r0, [r3, #8]
 895              	.LVL100:
 896              		.loc 3 123 18 view .LVU272
 897              	.LBE79:
 898              	.LBE78:
 966:lvgl/src/widgets/lv_dropdown.c ****     area_sel.y1 = label->coords.y1;
 899              		.loc 1 966 5 is_stmt 1 view .LVU273
 967:lvgl/src/widgets/lv_dropdown.c ****     area_sel.y1 += id * (font_h + label_dsc.line_space);
 900              		.loc 1 967 5 view .LVU274
 967:lvgl/src/widgets/lv_dropdown.c ****     area_sel.y1 += id * (font_h + label_dsc.line_space);
 901              		.loc 1 967 32 is_stmt 0 view .LVU275
 902 005e B7F91630 		ldrsh	r3, [r7, #22]
 967:lvgl/src/widgets/lv_dropdown.c ****     area_sel.y1 += id * (font_h + label_dsc.line_space);
 903              		.loc 1 967 17 view .LVU276
 904 0062 ADF81230 		strh	r3, [sp, #18]	@ movhi
 968:lvgl/src/widgets/lv_dropdown.c ****     area_sel.y1 -= label_dsc.line_space / 2;
 905              		.loc 1 968 5 is_stmt 1 view .LVU277
 968:lvgl/src/widgets/lv_dropdown.c ****     area_sel.y1 -= label_dsc.line_space / 2;
 906              		.loc 1 968 44 is_stmt 0 view .LVU278
 907 0066 BDF92A20 		ldrsh	r2, [sp, #42]
 968:lvgl/src/widgets/lv_dropdown.c ****     area_sel.y1 -= label_dsc.line_space / 2;
 908              		.loc 1 968 33 view .LVU279
 909 006a 8118     		adds	r1, r0, r2
 968:lvgl/src/widgets/lv_dropdown.c ****     area_sel.y1 -= label_dsc.line_space / 2;
 910              		.loc 1 968 17 view .LVU280
 911 006c 11FB08F1 		smulbb	r1, r1, r8
 912 0070 11FA83F3 		uxtah	r3, r1, r3
 913 0074 9BB2     		uxth	r3, r3
 914 0076 ADF81230 		strh	r3, [sp, #18]	@ movhi
 969:lvgl/src/widgets/lv_dropdown.c **** 
 915              		.loc 1 969 5 is_stmt 1 view .LVU281
 969:lvgl/src/widgets/lv_dropdown.c **** 
 916              		.loc 1 969 17 is_stmt 0 view .LVU282
 917 007a 1146     		mov	r1, r2
 918 007c 002A     		cmp	r2, #0
 919 007e 24DB     		blt	.L45
ARM GAS  C:\usertemp\ccSNc7FN.s 			page 51


 920              	.L41:
 921 0080 A3EB6103 		sub	r3, r3, r1, asr #1
 922 0084 9BB2     		uxth	r3, r3
 923 0086 ADF81230 		strh	r3, [sp, #18]	@ movhi
 971:lvgl/src/widgets/lv_dropdown.c ****     area_sel.x1 = list_obj->coords.x1;
 924              		.loc 1 971 5 is_stmt 1 view .LVU283
 971:lvgl/src/widgets/lv_dropdown.c ****     area_sel.x1 = list_obj->coords.x1;
 925              		.loc 1 971 31 is_stmt 0 view .LVU284
 926 008a 0344     		add	r3, r3, r0
 971:lvgl/src/widgets/lv_dropdown.c ****     area_sel.x1 = list_obj->coords.x1;
 927              		.loc 1 971 51 view .LVU285
 928 008c 92B2     		uxth	r2, r2
 971:lvgl/src/widgets/lv_dropdown.c ****     area_sel.x1 = list_obj->coords.x1;
 929              		.loc 1 971 40 view .LVU286
 930 008e 12FA83F3 		uxtah	r3, r2, r3
 931 0092 9BB2     		uxth	r3, r3
 971:lvgl/src/widgets/lv_dropdown.c ****     area_sel.x1 = list_obj->coords.x1;
 932              		.loc 1 971 63 view .LVU287
 933 0094 013B     		subs	r3, r3, #1
 971:lvgl/src/widgets/lv_dropdown.c ****     area_sel.x1 = list_obj->coords.x1;
 934              		.loc 1 971 17 view .LVU288
 935 0096 ADF81630 		strh	r3, [sp, #22]	@ movhi
 972:lvgl/src/widgets/lv_dropdown.c ****     area_sel.x2 = list_obj->coords.x2;
 936              		.loc 1 972 5 is_stmt 1 view .LVU289
 972:lvgl/src/widgets/lv_dropdown.c ****     area_sel.x2 = list_obj->coords.x2;
 937              		.loc 1 972 35 is_stmt 0 view .LVU290
 938 009a B4F91430 		ldrsh	r3, [r4, #20]
 972:lvgl/src/widgets/lv_dropdown.c ****     area_sel.x2 = list_obj->coords.x2;
 939              		.loc 1 972 17 view .LVU291
 940 009e ADF81030 		strh	r3, [sp, #16]	@ movhi
 973:lvgl/src/widgets/lv_dropdown.c ****     lv_area_t mask_sel;
 941              		.loc 1 973 5 is_stmt 1 view .LVU292
 973:lvgl/src/widgets/lv_dropdown.c ****     lv_area_t mask_sel;
 942              		.loc 1 973 35 is_stmt 0 view .LVU293
 943 00a2 B4F91830 		ldrsh	r3, [r4, #24]
 973:lvgl/src/widgets/lv_dropdown.c ****     lv_area_t mask_sel;
 944              		.loc 1 973 17 view .LVU294
 945 00a6 ADF81430 		strh	r3, [sp, #20]	@ movhi
 974:lvgl/src/widgets/lv_dropdown.c ****     bool area_ok;
 946              		.loc 1 974 5 is_stmt 1 view .LVU295
 975:lvgl/src/widgets/lv_dropdown.c ****     area_ok = _lv_area_intersect(&mask_sel, draw_ctx->clip_area, &area_sel);
 947              		.loc 1 975 5 view .LVU296
 976:lvgl/src/widgets/lv_dropdown.c ****     if(area_ok) {
 948              		.loc 1 976 5 view .LVU297
 976:lvgl/src/widgets/lv_dropdown.c ****     if(area_ok) {
 949              		.loc 1 976 15 is_stmt 0 view .LVU298
 950 00aa 04AA     		add	r2, sp, #16
 951 00ac A968     		ldr	r1, [r5, #8]
 952 00ae 02A8     		add	r0, sp, #8
 953              	.LVL101:
 976:lvgl/src/widgets/lv_dropdown.c ****     if(area_ok) {
 954              		.loc 1 976 15 view .LVU299
 955 00b0 FFF7FEFF 		bl	_lv_area_intersect
 956              	.LVL102:
 977:lvgl/src/widgets/lv_dropdown.c ****         const lv_area_t * clip_area_ori = draw_ctx->clip_area;
 957              		.loc 1 977 5 is_stmt 1 view .LVU300
 977:lvgl/src/widgets/lv_dropdown.c ****         const lv_area_t * clip_area_ori = draw_ctx->clip_area;
ARM GAS  C:\usertemp\ccSNc7FN.s 			page 52


 958              		.loc 1 977 7 is_stmt 0 view .LVU301
 959 00b4 58B9     		cbnz	r0, .L46
 960              	.LVL103:
 961              	.L42:
 983:lvgl/src/widgets/lv_dropdown.c ****     list_obj->skip_trans = 0;
 962              		.loc 1 983 5 is_stmt 1 view .LVU302
 983:lvgl/src/widgets/lv_dropdown.c ****     list_obj->skip_trans = 0;
 963              		.loc 1 983 21 is_stmt 0 view .LVU303
 964 00b6 2684     		strh	r6, [r4, #32]	@ movhi
 984:lvgl/src/widgets/lv_dropdown.c **** }
 965              		.loc 1 984 5 is_stmt 1 view .LVU304
 984:lvgl/src/widgets/lv_dropdown.c **** }
 966              		.loc 1 984 26 is_stmt 0 view .LVU305
 967 00b8 94F82230 		ldrb	r3, [r4, #34]	@ zero_extendqisi2
 968 00bc 23F00403 		bic	r3, r3, #4
 969 00c0 84F82230 		strb	r3, [r4, #34]
 970              	.LVL104:
 971              	.L38:
 985:lvgl/src/widgets/lv_dropdown.c **** 
 972              		.loc 1 985 1 view .LVU306
 973 00c4 0FB0     		add	sp, sp, #60
 974              	.LCFI15:
 975              		.cfi_remember_state
 976              		.cfi_def_cfa_offset 28
 977              		@ sp needed
 978 00c6 BDE8F083 		pop	{r4, r5, r6, r7, r8, r9, pc}
 979              	.LVL105:
 980              	.L45:
 981              	.LCFI16:
 982              		.cfi_restore_state
 969:lvgl/src/widgets/lv_dropdown.c **** 
 983              		.loc 1 969 17 view .LVU307
 984 00ca 511C     		adds	r1, r2, #1
 985 00cc D8E7     		b	.L41
 986              	.LVL106:
 987              	.L46:
 988              	.LBB80:
 978:lvgl/src/widgets/lv_dropdown.c ****         draw_ctx->clip_area = &mask_sel;
 989              		.loc 1 978 9 is_stmt 1 view .LVU308
 978:lvgl/src/widgets/lv_dropdown.c ****         draw_ctx->clip_area = &mask_sel;
 990              		.loc 1 978 27 is_stmt 0 view .LVU309
 991 00ce D5F80880 		ldr	r8, [r5, #8]
 992              	.LVL107:
 979:lvgl/src/widgets/lv_dropdown.c ****         lv_draw_label(draw_ctx, &label_dsc, &label->coords, lv_label_get_text(label), NULL);
 993              		.loc 1 979 9 is_stmt 1 view .LVU310
 979:lvgl/src/widgets/lv_dropdown.c ****         lv_draw_label(draw_ctx, &label_dsc, &label->coords, lv_label_get_text(label), NULL);
 994              		.loc 1 979 29 is_stmt 0 view .LVU311
 995 00d2 02AB     		add	r3, sp, #8
 996 00d4 AB60     		str	r3, [r5, #8]
 980:lvgl/src/widgets/lv_dropdown.c ****         draw_ctx->clip_area = clip_area_ori;
 997              		.loc 1 980 9 is_stmt 1 view .LVU312
 980:lvgl/src/widgets/lv_dropdown.c ****         draw_ctx->clip_area = clip_area_ori;
 998              		.loc 1 980 45 is_stmt 0 view .LVU313
 999 00d6 07F11409 		add	r9, r7, #20
 980:lvgl/src/widgets/lv_dropdown.c ****         draw_ctx->clip_area = clip_area_ori;
 1000              		.loc 1 980 61 view .LVU314
 1001 00da 3846     		mov	r0, r7
ARM GAS  C:\usertemp\ccSNc7FN.s 			page 53


 1002              	.LVL108:
 980:lvgl/src/widgets/lv_dropdown.c ****         draw_ctx->clip_area = clip_area_ori;
 1003              		.loc 1 980 61 view .LVU315
 1004 00dc FFF7FEFF 		bl	lv_label_get_text
 1005              	.LVL109:
 1006 00e0 0346     		mov	r3, r0
 980:lvgl/src/widgets/lv_dropdown.c ****         draw_ctx->clip_area = clip_area_ori;
 1007              		.loc 1 980 9 discriminator 1 view .LVU316
 1008 00e2 0022     		movs	r2, #0
 1009 00e4 0092     		str	r2, [sp]
 1010 00e6 4A46     		mov	r2, r9
 1011 00e8 06A9     		add	r1, sp, #24
 1012 00ea 2846     		mov	r0, r5
 1013 00ec FFF7FEFF 		bl	lv_draw_label
 1014              	.LVL110:
 981:lvgl/src/widgets/lv_dropdown.c ****     }
 1015              		.loc 1 981 9 is_stmt 1 view .LVU317
 981:lvgl/src/widgets/lv_dropdown.c ****     }
 1016              		.loc 1 981 29 is_stmt 0 view .LVU318
 1017 00f0 C5F80880 		str	r8, [r5, #8]
 1018 00f4 DFE7     		b	.L42
 1019              	.LBE80:
 1020              		.cfi_endproc
 1021              	.LFE194:
 1023              		.section	.text.draw_list,"ax",%progbits
 1024              		.align	1
 1025              		.syntax unified
 1026              		.thumb
 1027              		.thumb_func
 1029              	draw_list:
 1030              	.LVL111:
 1031              	.LFB192:
 868:lvgl/src/widgets/lv_dropdown.c ****     lv_obj_t * list_obj = lv_event_get_target(e);
 1032              		.loc 1 868 1 is_stmt 1 view -0
 1033              		.cfi_startproc
 1034              		@ args = 0, pretend = 0, frame = 8
 1035              		@ frame_needed = 0, uses_anonymous_args = 0
 868:lvgl/src/widgets/lv_dropdown.c ****     lv_obj_t * list_obj = lv_event_get_target(e);
 1036              		.loc 1 868 1 is_stmt 0 view .LVU320
 1037 0000 70B5     		push	{r4, r5, r6, lr}
 1038              	.LCFI17:
 1039              		.cfi_def_cfa_offset 16
 1040              		.cfi_offset 4, -16
 1041              		.cfi_offset 5, -12
 1042              		.cfi_offset 6, -8
 1043              		.cfi_offset 14, -4
 1044 0002 82B0     		sub	sp, sp, #8
 1045              	.LCFI18:
 1046              		.cfi_def_cfa_offset 24
 1047 0004 0446     		mov	r4, r0
 869:lvgl/src/widgets/lv_dropdown.c ****     lv_dropdown_list_t * list = (lv_dropdown_list_t *)list_obj;
 1048              		.loc 1 869 5 is_stmt 1 view .LVU321
 869:lvgl/src/widgets/lv_dropdown.c ****     lv_dropdown_list_t * list = (lv_dropdown_list_t *)list_obj;
 1049              		.loc 1 869 27 is_stmt 0 view .LVU322
 1050 0006 FFF7FEFF 		bl	lv_event_get_target
 1051              	.LVL112:
 870:lvgl/src/widgets/lv_dropdown.c ****     lv_obj_t * dropdown_obj = list->dropdown;
ARM GAS  C:\usertemp\ccSNc7FN.s 			page 54


 1052              		.loc 1 870 5 is_stmt 1 view .LVU323
 871:lvgl/src/widgets/lv_dropdown.c ****     lv_dropdown_t * dropdown = (lv_dropdown_t *)dropdown_obj;
 1053              		.loc 1 871 5 view .LVU324
 871:lvgl/src/widgets/lv_dropdown.c ****     lv_dropdown_t * dropdown = (lv_dropdown_t *)dropdown_obj;
 1054              		.loc 1 871 16 is_stmt 0 view .LVU325
 1055 000a 456A     		ldr	r5, [r0, #36]
 1056              	.LVL113:
 872:lvgl/src/widgets/lv_dropdown.c ****     lv_draw_ctx_t * draw_ctx = lv_event_get_draw_ctx(e);
 1057              		.loc 1 872 5 is_stmt 1 view .LVU326
 873:lvgl/src/widgets/lv_dropdown.c **** 
 1058              		.loc 1 873 5 view .LVU327
 873:lvgl/src/widgets/lv_dropdown.c **** 
 1059              		.loc 1 873 32 is_stmt 0 view .LVU328
 1060 000c 2046     		mov	r0, r4
 1061              	.LVL114:
 873:lvgl/src/widgets/lv_dropdown.c **** 
 1062              		.loc 1 873 32 view .LVU329
 1063 000e FFF7FEFF 		bl	lv_event_get_draw_ctx
 1064              	.LVL115:
 1065 0012 0446     		mov	r4, r0
 1066              	.LVL116:
 877:lvgl/src/widgets/lv_dropdown.c ****     bool has_common;
 1067              		.loc 1 877 5 is_stmt 1 view .LVU330
 878:lvgl/src/widgets/lv_dropdown.c ****     has_common = _lv_area_intersect(&clip_area_core, draw_ctx->clip_area, &dropdown->list->coords);
 1068              		.loc 1 878 5 view .LVU331
 879:lvgl/src/widgets/lv_dropdown.c ****     if(has_common) {
 1069              		.loc 1 879 5 view .LVU332
 879:lvgl/src/widgets/lv_dropdown.c ****     if(has_common) {
 1070              		.loc 1 879 84 is_stmt 0 view .LVU333
 1071 0014 6A6A     		ldr	r2, [r5, #36]
 879:lvgl/src/widgets/lv_dropdown.c ****     if(has_common) {
 1072              		.loc 1 879 18 view .LVU334
 1073 0016 1432     		adds	r2, r2, #20
 1074 0018 8168     		ldr	r1, [r0, #8]
 1075 001a 6846     		mov	r0, sp
 1076              	.LVL117:
 879:lvgl/src/widgets/lv_dropdown.c ****     if(has_common) {
 1077              		.loc 1 879 18 view .LVU335
 1078 001c FFF7FEFF 		bl	_lv_area_intersect
 1079              	.LVL118:
 880:lvgl/src/widgets/lv_dropdown.c ****         const lv_area_t * clip_area_ori = draw_ctx->clip_area;
 1080              		.loc 1 880 5 is_stmt 1 view .LVU336
 880:lvgl/src/widgets/lv_dropdown.c ****         const lv_area_t * clip_area_ori = draw_ctx->clip_area;
 1081              		.loc 1 880 7 is_stmt 0 view .LVU337
 1082 0020 18B3     		cbz	r0, .L47
 1083              	.LBB81:
 881:lvgl/src/widgets/lv_dropdown.c ****         draw_ctx->clip_area = &clip_area_core;
 1084              		.loc 1 881 9 is_stmt 1 view .LVU338
 881:lvgl/src/widgets/lv_dropdown.c ****         draw_ctx->clip_area = &clip_area_core;
 1085              		.loc 1 881 27 is_stmt 0 view .LVU339
 1086 0022 A668     		ldr	r6, [r4, #8]
 1087              	.LVL119:
 882:lvgl/src/widgets/lv_dropdown.c ****         if(dropdown->selected_highlight) {
 1088              		.loc 1 882 9 is_stmt 1 view .LVU340
 882:lvgl/src/widgets/lv_dropdown.c ****         if(dropdown->selected_highlight) {
 1089              		.loc 1 882 29 is_stmt 0 view .LVU341
 1090 0024 C4F808D0 		str	sp, [r4, #8]
ARM GAS  C:\usertemp\ccSNc7FN.s 			page 55


 883:lvgl/src/widgets/lv_dropdown.c ****             if(dropdown->pr_opt_id == dropdown->sel_opt_id) {
 1091              		.loc 1 883 9 is_stmt 1 view .LVU342
 883:lvgl/src/widgets/lv_dropdown.c ****             if(dropdown->pr_opt_id == dropdown->sel_opt_id) {
 1092              		.loc 1 883 12 is_stmt 0 view .LVU343
 1093 0028 95F83C30 		ldrb	r3, [r5, #60]	@ zero_extendqisi2
 883:lvgl/src/widgets/lv_dropdown.c ****             if(dropdown->pr_opt_id == dropdown->sel_opt_id) {
 1094              		.loc 1 883 11 view .LVU344
 1095 002c 13F0200F 		tst	r3, #32
 1096 0030 29D0     		beq	.L49
 884:lvgl/src/widgets/lv_dropdown.c ****                 draw_box(dropdown_obj, draw_ctx, dropdown->pr_opt_id, LV_STATE_CHECKED | LV_STATE_P
 1097              		.loc 1 884 13 is_stmt 1 view .LVU345
 884:lvgl/src/widgets/lv_dropdown.c ****                 draw_box(dropdown_obj, draw_ctx, dropdown->pr_opt_id, LV_STATE_CHECKED | LV_STATE_P
 1098              		.loc 1 884 24 is_stmt 0 view .LVU346
 1099 0032 6A8F     		ldrh	r2, [r5, #58]
 884:lvgl/src/widgets/lv_dropdown.c ****                 draw_box(dropdown_obj, draw_ctx, dropdown->pr_opt_id, LV_STATE_CHECKED | LV_STATE_P
 1100              		.loc 1 884 47 view .LVU347
 1101 0034 EB8E     		ldrh	r3, [r5, #54]
 884:lvgl/src/widgets/lv_dropdown.c ****                 draw_box(dropdown_obj, draw_ctx, dropdown->pr_opt_id, LV_STATE_CHECKED | LV_STATE_P
 1102              		.loc 1 884 15 view .LVU348
 1103 0036 9A42     		cmp	r2, r3
 1104 0038 19D0     		beq	.L53
 889:lvgl/src/widgets/lv_dropdown.c ****                 draw_box_label(dropdown_obj, draw_ctx, dropdown->pr_opt_id, LV_STATE_PRESSED);
 1105              		.loc 1 889 17 is_stmt 1 view .LVU349
 1106 003a 2023     		movs	r3, #32
 1107 003c 2146     		mov	r1, r4
 1108 003e 2846     		mov	r0, r5
 1109              	.LVL120:
 889:lvgl/src/widgets/lv_dropdown.c ****                 draw_box_label(dropdown_obj, draw_ctx, dropdown->pr_opt_id, LV_STATE_PRESSED);
 1110              		.loc 1 889 17 is_stmt 0 view .LVU350
 1111 0040 FFF7FEFF 		bl	draw_box
 1112              	.LVL121:
 890:lvgl/src/widgets/lv_dropdown.c ****                 draw_box(dropdown_obj, draw_ctx, dropdown->sel_opt_id, LV_STATE_CHECKED);
 1113              		.loc 1 890 17 is_stmt 1 view .LVU351
 1114 0044 2023     		movs	r3, #32
 1115 0046 6A8F     		ldrh	r2, [r5, #58]
 1116 0048 2146     		mov	r1, r4
 1117 004a 2846     		mov	r0, r5
 1118 004c FFF7FEFF 		bl	draw_box_label
 1119              	.LVL122:
 891:lvgl/src/widgets/lv_dropdown.c ****                 draw_box_label(dropdown_obj, draw_ctx, dropdown->sel_opt_id, LV_STATE_CHECKED);
 1120              		.loc 1 891 17 view .LVU352
 1121 0050 0123     		movs	r3, #1
 1122 0052 EA8E     		ldrh	r2, [r5, #54]
 1123 0054 2146     		mov	r1, r4
 1124 0056 2846     		mov	r0, r5
 1125 0058 FFF7FEFF 		bl	draw_box
 1126              	.LVL123:
 892:lvgl/src/widgets/lv_dropdown.c ****             }
 1127              		.loc 1 892 17 view .LVU353
 1128 005c 0123     		movs	r3, #1
 1129 005e EA8E     		ldrh	r2, [r5, #54]
 1130 0060 2146     		mov	r1, r4
 1131 0062 2846     		mov	r0, r5
 1132 0064 FFF7FEFF 		bl	draw_box_label
 1133              	.LVL124:
 1134              	.L51:
 899:lvgl/src/widgets/lv_dropdown.c ****     }
ARM GAS  C:\usertemp\ccSNc7FN.s 			page 56


 1135              		.loc 1 899 9 view .LVU354
 899:lvgl/src/widgets/lv_dropdown.c ****     }
 1136              		.loc 1 899 29 is_stmt 0 view .LVU355
 1137 0068 A660     		str	r6, [r4, #8]
 1138              	.LVL125:
 1139              	.L47:
 899:lvgl/src/widgets/lv_dropdown.c ****     }
 1140              		.loc 1 899 29 view .LVU356
 1141              	.LBE81:
 901:lvgl/src/widgets/lv_dropdown.c **** 
 1142              		.loc 1 901 1 view .LVU357
 1143 006a 02B0     		add	sp, sp, #8
 1144              	.LCFI19:
 1145              		.cfi_remember_state
 1146              		.cfi_def_cfa_offset 16
 1147              		@ sp needed
 1148 006c 70BD     		pop	{r4, r5, r6, pc}
 1149              	.LVL126:
 1150              	.L53:
 1151              	.LCFI20:
 1152              		.cfi_restore_state
 1153              	.LBB82:
 885:lvgl/src/widgets/lv_dropdown.c ****                 draw_box_label(dropdown_obj, draw_ctx, dropdown->pr_opt_id, LV_STATE_CHECKED | LV_S
 1154              		.loc 1 885 17 is_stmt 1 view .LVU358
 1155 006e 2123     		movs	r3, #33
 1156 0070 2146     		mov	r1, r4
 1157 0072 2846     		mov	r0, r5
 1158              	.LVL127:
 885:lvgl/src/widgets/lv_dropdown.c ****                 draw_box_label(dropdown_obj, draw_ctx, dropdown->pr_opt_id, LV_STATE_CHECKED | LV_S
 1159              		.loc 1 885 17 is_stmt 0 view .LVU359
 1160 0074 FFF7FEFF 		bl	draw_box
 1161              	.LVL128:
 886:lvgl/src/widgets/lv_dropdown.c ****             }
 1162              		.loc 1 886 17 is_stmt 1 view .LVU360
 1163 0078 2123     		movs	r3, #33
 1164 007a 6A8F     		ldrh	r2, [r5, #58]
 1165 007c 2146     		mov	r1, r4
 1166 007e 2846     		mov	r0, r5
 1167 0080 FFF7FEFF 		bl	draw_box_label
 1168              	.LVL129:
 1169 0084 F0E7     		b	.L51
 1170              	.LVL130:
 1171              	.L49:
 896:lvgl/src/widgets/lv_dropdown.c ****             draw_box_label(dropdown_obj, draw_ctx, dropdown->pr_opt_id, LV_STATE_PRESSED);
 1172              		.loc 1 896 13 view .LVU361
 1173 0086 2023     		movs	r3, #32
 1174 0088 6A8F     		ldrh	r2, [r5, #58]
 1175 008a 2146     		mov	r1, r4
 1176 008c 2846     		mov	r0, r5
 1177              	.LVL131:
 896:lvgl/src/widgets/lv_dropdown.c ****             draw_box_label(dropdown_obj, draw_ctx, dropdown->pr_opt_id, LV_STATE_PRESSED);
 1178              		.loc 1 896 13 is_stmt 0 view .LVU362
 1179 008e FFF7FEFF 		bl	draw_box
 1180              	.LVL132:
 897:lvgl/src/widgets/lv_dropdown.c ****         }
 1181              		.loc 1 897 13 is_stmt 1 view .LVU363
 1182 0092 2023     		movs	r3, #32
ARM GAS  C:\usertemp\ccSNc7FN.s 			page 57


 1183 0094 6A8F     		ldrh	r2, [r5, #58]
 1184 0096 2146     		mov	r1, r4
 1185 0098 2846     		mov	r0, r5
 1186 009a FFF7FEFF 		bl	draw_box_label
 1187              	.LVL133:
 1188 009e E3E7     		b	.L51
 1189              	.LBE82:
 1190              		.cfi_endproc
 1191              	.LFE192:
 1193              		.section	.text.lv_dropdownlist_constructor,"ax",%progbits
 1194              		.align	1
 1195              		.syntax unified
 1196              		.thumb
 1197              		.thumb_func
 1199              	lv_dropdownlist_constructor:
 1200              	.LVL134:
 1201              	.LFB187:
 604:lvgl/src/widgets/lv_dropdown.c ****     LV_UNUSED(class_p);
 1202              		.loc 1 604 1 view -0
 1203              		.cfi_startproc
 1204              		@ args = 0, pretend = 0, frame = 0
 1205              		@ frame_needed = 0, uses_anonymous_args = 0
 604:lvgl/src/widgets/lv_dropdown.c ****     LV_UNUSED(class_p);
 1206              		.loc 1 604 1 is_stmt 0 view .LVU365
 1207 0000 10B5     		push	{r4, lr}
 1208              	.LCFI21:
 1209              		.cfi_def_cfa_offset 8
 1210              		.cfi_offset 4, -8
 1211              		.cfi_offset 14, -4
 1212 0002 0C46     		mov	r4, r1
 605:lvgl/src/widgets/lv_dropdown.c ****     LV_TRACE_OBJ_CREATE("begin");
 1213              		.loc 1 605 5 is_stmt 1 view .LVU366
 606:lvgl/src/widgets/lv_dropdown.c **** 
 1214              		.loc 1 606 5 view .LVU367
 606:lvgl/src/widgets/lv_dropdown.c **** 
 1215              		.loc 1 606 5 view .LVU368
 606:lvgl/src/widgets/lv_dropdown.c **** 
 1216              		.loc 1 606 5 view .LVU369
 608:lvgl/src/widgets/lv_dropdown.c ****     lv_obj_clear_flag(obj, LV_OBJ_FLAG_CLICK_FOCUSABLE);
 1217              		.loc 1 608 5 view .LVU370
 1218 0004 4FF48061 		mov	r1, #1024
 1219              	.LVL135:
 608:lvgl/src/widgets/lv_dropdown.c ****     lv_obj_clear_flag(obj, LV_OBJ_FLAG_CLICK_FOCUSABLE);
 1220              		.loc 1 608 5 is_stmt 0 view .LVU371
 1221 0008 2046     		mov	r0, r4
 1222              	.LVL136:
 608:lvgl/src/widgets/lv_dropdown.c ****     lv_obj_clear_flag(obj, LV_OBJ_FLAG_CLICK_FOCUSABLE);
 1223              		.loc 1 608 5 view .LVU372
 1224 000a FFF7FEFF 		bl	lv_obj_clear_flag
 1225              	.LVL137:
 609:lvgl/src/widgets/lv_dropdown.c ****     lv_obj_add_flag(obj, LV_OBJ_FLAG_IGNORE_LAYOUT);
 1226              		.loc 1 609 5 is_stmt 1 view .LVU373
 1227 000e 0421     		movs	r1, #4
 1228 0010 2046     		mov	r0, r4
 1229 0012 FFF7FEFF 		bl	lv_obj_clear_flag
 1230              	.LVL138:
 610:lvgl/src/widgets/lv_dropdown.c ****     lv_obj_add_flag(obj, LV_OBJ_FLAG_HIDDEN);
ARM GAS  C:\usertemp\ccSNc7FN.s 			page 58


 1231              		.loc 1 610 5 view .LVU374
 1232 0016 4FF40031 		mov	r1, #131072
 1233 001a 2046     		mov	r0, r4
 1234 001c FFF7FEFF 		bl	lv_obj_add_flag
 1235              	.LVL139:
 611:lvgl/src/widgets/lv_dropdown.c **** 
 1236              		.loc 1 611 5 view .LVU375
 1237 0020 0121     		movs	r1, #1
 1238 0022 2046     		mov	r0, r4
 1239 0024 FFF7FEFF 		bl	lv_obj_add_flag
 1240              	.LVL140:
 613:lvgl/src/widgets/lv_dropdown.c **** 
 1241              		.loc 1 613 5 view .LVU376
 1242 0028 2046     		mov	r0, r4
 1243 002a FFF7FEFF 		bl	lv_label_create
 1244              	.LVL141:
 615:lvgl/src/widgets/lv_dropdown.c **** }
 1245              		.loc 1 615 5 view .LVU377
 615:lvgl/src/widgets/lv_dropdown.c **** }
 1246              		.loc 1 615 5 view .LVU378
 615:lvgl/src/widgets/lv_dropdown.c **** }
 1247              		.loc 1 615 5 view .LVU379
 616:lvgl/src/widgets/lv_dropdown.c **** 
 1248              		.loc 1 616 1 is_stmt 0 view .LVU380
 1249 002e 10BD     		pop	{r4, pc}
 616:lvgl/src/widgets/lv_dropdown.c **** 
 1250              		.loc 1 616 1 view .LVU381
 1251              		.cfi_endproc
 1252              	.LFE187:
 1254              		.section	.text.lv_dropdown_create,"ax",%progbits
 1255              		.align	1
 1256              		.global	lv_dropdown_create
 1257              		.syntax unified
 1258              		.thumb
 1259              		.thumb_func
 1261              	lv_dropdown_create:
 1262              	.LVL142:
 1263              	.LFB162:
  92:lvgl/src/widgets/lv_dropdown.c ****     LV_LOG_INFO("begin");
 1264              		.loc 1 92 1 is_stmt 1 view -0
 1265              		.cfi_startproc
 1266              		@ args = 0, pretend = 0, frame = 0
 1267              		@ frame_needed = 0, uses_anonymous_args = 0
  92:lvgl/src/widgets/lv_dropdown.c ****     LV_LOG_INFO("begin");
 1268              		.loc 1 92 1 is_stmt 0 view .LVU383
 1269 0000 10B5     		push	{r4, lr}
 1270              	.LCFI22:
 1271              		.cfi_def_cfa_offset 8
 1272              		.cfi_offset 4, -8
 1273              		.cfi_offset 14, -4
 1274 0002 0146     		mov	r1, r0
  93:lvgl/src/widgets/lv_dropdown.c ****     lv_obj_t * obj = lv_obj_class_create_obj(&lv_dropdown_class, parent);
 1275              		.loc 1 93 5 is_stmt 1 view .LVU384
  93:lvgl/src/widgets/lv_dropdown.c ****     lv_obj_t * obj = lv_obj_class_create_obj(&lv_dropdown_class, parent);
 1276              		.loc 1 93 5 view .LVU385
  93:lvgl/src/widgets/lv_dropdown.c ****     lv_obj_t * obj = lv_obj_class_create_obj(&lv_dropdown_class, parent);
 1277              		.loc 1 93 5 view .LVU386
ARM GAS  C:\usertemp\ccSNc7FN.s 			page 59


  94:lvgl/src/widgets/lv_dropdown.c ****     lv_obj_class_init_obj(obj);
 1278              		.loc 1 94 5 view .LVU387
  94:lvgl/src/widgets/lv_dropdown.c ****     lv_obj_class_init_obj(obj);
 1279              		.loc 1 94 22 is_stmt 0 view .LVU388
 1280 0004 0348     		ldr	r0, .L58
 1281              	.LVL143:
  94:lvgl/src/widgets/lv_dropdown.c ****     lv_obj_class_init_obj(obj);
 1282              		.loc 1 94 22 view .LVU389
 1283 0006 FFF7FEFF 		bl	lv_obj_class_create_obj
 1284              	.LVL144:
  94:lvgl/src/widgets/lv_dropdown.c ****     lv_obj_class_init_obj(obj);
 1285              		.loc 1 94 22 view .LVU390
 1286 000a 0446     		mov	r4, r0
 1287              	.LVL145:
  95:lvgl/src/widgets/lv_dropdown.c ****     return obj;
 1288              		.loc 1 95 5 is_stmt 1 view .LVU391
 1289 000c FFF7FEFF 		bl	lv_obj_class_init_obj
 1290              	.LVL146:
  96:lvgl/src/widgets/lv_dropdown.c **** }
 1291              		.loc 1 96 5 view .LVU392
  97:lvgl/src/widgets/lv_dropdown.c **** 
 1292              		.loc 1 97 1 is_stmt 0 view .LVU393
 1293 0010 2046     		mov	r0, r4
 1294 0012 10BD     		pop	{r4, pc}
 1295              	.LVL147:
 1296              	.L59:
  97:lvgl/src/widgets/lv_dropdown.c **** 
 1297              		.loc 1 97 1 view .LVU394
 1298              		.align	2
 1299              	.L58:
 1300 0014 00000000 		.word	lv_dropdown_class
 1301              		.cfi_endproc
 1302              	.LFE162:
 1304              		.section	.text.lv_dropdown_set_text,"ax",%progbits
 1305              		.align	1
 1306              		.global	lv_dropdown_set_text
 1307              		.syntax unified
 1308              		.thumb
 1309              		.thumb_func
 1311              	lv_dropdown_set_text:
 1312              	.LVL148:
 1313              	.LFB163:
 104:lvgl/src/widgets/lv_dropdown.c ****     LV_ASSERT_OBJ(obj, MY_CLASS);
 1314              		.loc 1 104 1 is_stmt 1 view -0
 1315              		.cfi_startproc
 1316              		@ args = 0, pretend = 0, frame = 0
 1317              		@ frame_needed = 0, uses_anonymous_args = 0
 104:lvgl/src/widgets/lv_dropdown.c ****     LV_ASSERT_OBJ(obj, MY_CLASS);
 1318              		.loc 1 104 1 is_stmt 0 view .LVU396
 1319 0000 08B5     		push	{r3, lr}
 1320              	.LCFI23:
 1321              		.cfi_def_cfa_offset 8
 1322              		.cfi_offset 3, -8
 1323              		.cfi_offset 14, -4
 105:lvgl/src/widgets/lv_dropdown.c ****     lv_dropdown_t * dropdown = (lv_dropdown_t *)obj;
 1324              		.loc 1 105 5 is_stmt 1 view .LVU397
 105:lvgl/src/widgets/lv_dropdown.c ****     lv_dropdown_t * dropdown = (lv_dropdown_t *)obj;
ARM GAS  C:\usertemp\ccSNc7FN.s 			page 60


 1325              		.loc 1 105 5 view .LVU398
 105:lvgl/src/widgets/lv_dropdown.c ****     lv_dropdown_t * dropdown = (lv_dropdown_t *)obj;
 1326              		.loc 1 105 5 view .LVU399
 106:lvgl/src/widgets/lv_dropdown.c ****     if(dropdown->text == txt) return;
 1327              		.loc 1 106 5 view .LVU400
 1328              	.LVL149:
 107:lvgl/src/widgets/lv_dropdown.c **** 
 1329              		.loc 1 107 5 view .LVU401
 107:lvgl/src/widgets/lv_dropdown.c **** 
 1330              		.loc 1 107 16 is_stmt 0 view .LVU402
 1331 0002 836A     		ldr	r3, [r0, #40]
 107:lvgl/src/widgets/lv_dropdown.c **** 
 1332              		.loc 1 107 7 view .LVU403
 1333 0004 8B42     		cmp	r3, r1
 1334 0006 02D0     		beq	.L60
 109:lvgl/src/widgets/lv_dropdown.c **** 
 1335              		.loc 1 109 5 is_stmt 1 view .LVU404
 109:lvgl/src/widgets/lv_dropdown.c **** 
 1336              		.loc 1 109 20 is_stmt 0 view .LVU405
 1337 0008 8162     		str	r1, [r0, #40]
 111:lvgl/src/widgets/lv_dropdown.c **** }
 1338              		.loc 1 111 5 is_stmt 1 view .LVU406
 1339 000a FFF7FEFF 		bl	lv_obj_invalidate
 1340              	.LVL150:
 1341              	.L60:
 112:lvgl/src/widgets/lv_dropdown.c **** 
 1342              		.loc 1 112 1 is_stmt 0 view .LVU407
 1343 000e 08BD     		pop	{r3, pc}
 1344              		.cfi_endproc
 1345              	.LFE163:
 1347              		.section	.text.lv_dropdown_set_options,"ax",%progbits
 1348              		.align	1
 1349              		.global	lv_dropdown_set_options
 1350              		.syntax unified
 1351              		.thumb
 1352              		.thumb_func
 1354              	lv_dropdown_set_options:
 1355              	.LVL151:
 1356              	.LFB164:
 115:lvgl/src/widgets/lv_dropdown.c ****     LV_ASSERT_OBJ(obj, MY_CLASS);
 1357              		.loc 1 115 1 is_stmt 1 view -0
 1358              		.cfi_startproc
 1359              		@ args = 0, pretend = 0, frame = 0
 1360              		@ frame_needed = 0, uses_anonymous_args = 0
 116:lvgl/src/widgets/lv_dropdown.c ****     LV_ASSERT_NULL(options);
 1361              		.loc 1 116 5 view .LVU409
 116:lvgl/src/widgets/lv_dropdown.c ****     LV_ASSERT_NULL(options);
 1362              		.loc 1 116 5 view .LVU410
 116:lvgl/src/widgets/lv_dropdown.c ****     LV_ASSERT_NULL(options);
 1363              		.loc 1 116 5 view .LVU411
 117:lvgl/src/widgets/lv_dropdown.c **** 
 1364              		.loc 1 117 5 view .LVU412
 117:lvgl/src/widgets/lv_dropdown.c **** 
 1365              		.loc 1 117 5 view .LVU413
 1366 0000 29B1     		cbz	r1, .L65
 115:lvgl/src/widgets/lv_dropdown.c ****     LV_ASSERT_OBJ(obj, MY_CLASS);
 1367              		.loc 1 115 1 is_stmt 0 view .LVU414
ARM GAS  C:\usertemp\ccSNc7FN.s 			page 61


 1368 0002 70B5     		push	{r4, r5, r6, lr}
 1369              	.LCFI24:
 1370              		.cfi_def_cfa_offset 16
 1371              		.cfi_offset 4, -16
 1372              		.cfi_offset 5, -12
 1373              		.cfi_offset 6, -8
 1374              		.cfi_offset 14, -4
 1375 0004 0446     		mov	r4, r0
 1376 0006 0D46     		mov	r5, r1
 117:lvgl/src/widgets/lv_dropdown.c **** 
 1377              		.loc 1 117 5 is_stmt 1 discriminator 2 view .LVU415
 117:lvgl/src/widgets/lv_dropdown.c **** 
 1378              		.loc 1 117 28 discriminator 2 view .LVU416
 119:lvgl/src/widgets/lv_dropdown.c **** 
 1379              		.loc 1 119 5 view .LVU417
 1380              	.LVL152:
 122:lvgl/src/widgets/lv_dropdown.c ****     uint32_t i;
 1381              		.loc 1 122 5 view .LVU418
 122:lvgl/src/widgets/lv_dropdown.c ****     uint32_t i;
 1382              		.loc 1 122 26 is_stmt 0 view .LVU419
 1383 0008 0023     		movs	r3, #0
 1384 000a 8386     		strh	r3, [r0, #52]	@ movhi
 123:lvgl/src/widgets/lv_dropdown.c ****     for(i = 0; options[i] != '\0'; i++) {
 1385              		.loc 1 123 5 is_stmt 1 view .LVU420
 124:lvgl/src/widgets/lv_dropdown.c ****         if(options[i] == '\n') dropdown->option_cnt++;
 1386              		.loc 1 124 5 view .LVU421
 1387              	.LVL153:
 124:lvgl/src/widgets/lv_dropdown.c ****         if(options[i] == '\n') dropdown->option_cnt++;
 1388              		.loc 1 124 5 is_stmt 0 view .LVU422
 1389 000c 01E0     		b	.L66
 1390              	.LVL154:
 1391              	.L65:
 1392              	.LCFI25:
 1393              		.cfi_def_cfa_offset 0
 1394              		.cfi_restore 4
 1395              		.cfi_restore 5
 1396              		.cfi_restore 6
 1397              		.cfi_restore 14
 117:lvgl/src/widgets/lv_dropdown.c **** 
 1398              		.loc 1 117 5 is_stmt 1 discriminator 1 view .LVU423
 117:lvgl/src/widgets/lv_dropdown.c **** 
 1399              		.loc 1 117 5 discriminator 1 view .LVU424
 117:lvgl/src/widgets/lv_dropdown.c **** 
 1400              		.loc 1 117 5 discriminator 1 view .LVU425
 117:lvgl/src/widgets/lv_dropdown.c **** 
 1401              		.loc 1 117 5 discriminator 1 view .LVU426
 117:lvgl/src/widgets/lv_dropdown.c **** 
 1402              		.loc 1 117 5 discriminator 1 view .LVU427
 1403 000e FEE7     		b	.L65
 1404              	.LVL155:
 1405              	.L67:
 1406              	.LCFI26:
 1407              		.cfi_def_cfa_offset 16
 1408              		.cfi_offset 4, -16
 1409              		.cfi_offset 5, -12
 1410              		.cfi_offset 6, -8
 1411              		.cfi_offset 14, -4
ARM GAS  C:\usertemp\ccSNc7FN.s 			page 62


 124:lvgl/src/widgets/lv_dropdown.c ****         if(options[i] == '\n') dropdown->option_cnt++;
 1412              		.loc 1 124 37 discriminator 2 view .LVU428
 1413 0010 0133     		adds	r3, r3, #1
 1414              	.LVL156:
 1415              	.L66:
 124:lvgl/src/widgets/lv_dropdown.c ****         if(options[i] == '\n') dropdown->option_cnt++;
 1416              		.loc 1 124 27 discriminator 1 view .LVU429
 124:lvgl/src/widgets/lv_dropdown.c ****         if(options[i] == '\n') dropdown->option_cnt++;
 1417              		.loc 1 124 23 is_stmt 0 discriminator 1 view .LVU430
 1418 0012 EA5C     		ldrb	r2, [r5, r3]	@ zero_extendqisi2
 124:lvgl/src/widgets/lv_dropdown.c ****         if(options[i] == '\n') dropdown->option_cnt++;
 1419              		.loc 1 124 27 discriminator 1 view .LVU431
 1420 0014 2AB1     		cbz	r2, .L75
 125:lvgl/src/widgets/lv_dropdown.c ****     }
 1421              		.loc 1 125 9 is_stmt 1 view .LVU432
 125:lvgl/src/widgets/lv_dropdown.c ****     }
 1422              		.loc 1 125 11 is_stmt 0 view .LVU433
 1423 0016 0A2A     		cmp	r2, #10
 1424 0018 FAD1     		bne	.L67
 125:lvgl/src/widgets/lv_dropdown.c ****     }
 1425              		.loc 1 125 32 is_stmt 1 discriminator 1 view .LVU434
 125:lvgl/src/widgets/lv_dropdown.c ****     }
 1426              		.loc 1 125 40 is_stmt 0 discriminator 1 view .LVU435
 1427 001a A28E     		ldrh	r2, [r4, #52]
 125:lvgl/src/widgets/lv_dropdown.c ****     }
 1428              		.loc 1 125 52 discriminator 1 view .LVU436
 1429 001c 0132     		adds	r2, r2, #1
 1430 001e A286     		strh	r2, [r4, #52]	@ movhi
 1431 0020 F6E7     		b	.L67
 1432              	.L75:
 127:lvgl/src/widgets/lv_dropdown.c ****     dropdown->sel_opt_id      = 0;
 1433              		.loc 1 127 5 is_stmt 1 view .LVU437
 127:lvgl/src/widgets/lv_dropdown.c ****     dropdown->sel_opt_id      = 0;
 1434              		.loc 1 127 13 is_stmt 0 view .LVU438
 1435 0022 A38E     		ldrh	r3, [r4, #52]
 1436              	.LVL157:
 127:lvgl/src/widgets/lv_dropdown.c ****     dropdown->sel_opt_id      = 0;
 1437              		.loc 1 127 25 view .LVU439
 1438 0024 0133     		adds	r3, r3, #1
 1439 0026 A386     		strh	r3, [r4, #52]	@ movhi
 128:lvgl/src/widgets/lv_dropdown.c ****     dropdown->sel_opt_id_orig = 0;
 1440              		.loc 1 128 5 is_stmt 1 view .LVU440
 128:lvgl/src/widgets/lv_dropdown.c ****     dropdown->sel_opt_id_orig = 0;
 1441              		.loc 1 128 31 is_stmt 0 view .LVU441
 1442 0028 0023     		movs	r3, #0
 1443 002a E386     		strh	r3, [r4, #54]	@ movhi
 129:lvgl/src/widgets/lv_dropdown.c **** 
 1444              		.loc 1 129 5 is_stmt 1 view .LVU442
 129:lvgl/src/widgets/lv_dropdown.c **** 
 1445              		.loc 1 129 31 is_stmt 0 view .LVU443
 1446 002c 2387     		strh	r3, [r4, #56]	@ movhi
 133:lvgl/src/widgets/lv_dropdown.c **** #else
 1447              		.loc 1 133 5 is_stmt 1 view .LVU444
 133:lvgl/src/widgets/lv_dropdown.c **** #else
 1448              		.loc 1 133 18 is_stmt 0 view .LVU445
 1449 002e 2846     		mov	r0, r5
 1450              	.LVL158:
ARM GAS  C:\usertemp\ccSNc7FN.s 			page 63


 133:lvgl/src/widgets/lv_dropdown.c **** #else
 1451              		.loc 1 133 18 view .LVU446
 1452 0030 FFF7FEFF 		bl	strlen
 1453              	.LVL159:
 133:lvgl/src/widgets/lv_dropdown.c **** #else
 1454              		.loc 1 133 12 discriminator 1 view .LVU447
 1455 0034 461C     		adds	r6, r0, #1
 1456              	.LVL160:
 138:lvgl/src/widgets/lv_dropdown.c ****         lv_mem_free(dropdown->options);
 1457              		.loc 1 138 5 is_stmt 1 view .LVU448
 138:lvgl/src/widgets/lv_dropdown.c ****         lv_mem_free(dropdown->options);
 1458              		.loc 1 138 16 is_stmt 0 view .LVU449
 1459 0036 206B     		ldr	r0, [r4, #48]
 138:lvgl/src/widgets/lv_dropdown.c ****         lv_mem_free(dropdown->options);
 1460              		.loc 1 138 7 view .LVU450
 1461 0038 20B1     		cbz	r0, .L69
 138:lvgl/src/widgets/lv_dropdown.c ****         lv_mem_free(dropdown->options);
 1462              		.loc 1 138 58 discriminator 1 view .LVU451
 1463 003a 94F83C30 		ldrb	r3, [r4, #60]	@ zero_extendqisi2
 138:lvgl/src/widgets/lv_dropdown.c ****         lv_mem_free(dropdown->options);
 1464              		.loc 1 138 34 discriminator 1 view .LVU452
 1465 003e 13F0100F 		tst	r3, #16
 1466 0042 15D0     		beq	.L76
 1467              	.L69:
 143:lvgl/src/widgets/lv_dropdown.c **** 
 1468              		.loc 1 143 5 is_stmt 1 view .LVU453
 143:lvgl/src/widgets/lv_dropdown.c **** 
 1469              		.loc 1 143 25 is_stmt 0 view .LVU454
 1470 0044 3046     		mov	r0, r6
 1471 0046 FFF7FEFF 		bl	lv_mem_alloc
 1472              	.LVL161:
 143:lvgl/src/widgets/lv_dropdown.c **** 
 1473              		.loc 1 143 23 discriminator 1 view .LVU455
 1474 004a 2063     		str	r0, [r4, #48]
 145:lvgl/src/widgets/lv_dropdown.c ****     if(dropdown->options == NULL) return;
 1475              		.loc 1 145 5 is_stmt 1 view .LVU456
 145:lvgl/src/widgets/lv_dropdown.c ****     if(dropdown->options == NULL) return;
 1476              		.loc 1 145 5 view .LVU457
 1477 004c A8B1     		cbz	r0, .L71
 145:lvgl/src/widgets/lv_dropdown.c ****     if(dropdown->options == NULL) return;
 1478              		.loc 1 145 5 discriminator 2 view .LVU458
 145:lvgl/src/widgets/lv_dropdown.c ****     if(dropdown->options == NULL) return;
 1479              		.loc 1 145 40 discriminator 2 view .LVU459
 146:lvgl/src/widgets/lv_dropdown.c **** 
 1480              		.loc 1 146 5 view .LVU460
 149:lvgl/src/widgets/lv_dropdown.c **** #else
 1481              		.loc 1 149 5 view .LVU461
 1482 004e 2946     		mov	r1, r5
 1483 0050 FFF7FEFF 		bl	strcpy
 1484              	.LVL162:
 155:lvgl/src/widgets/lv_dropdown.c **** 
 1485              		.loc 1 155 5 view .LVU462
 155:lvgl/src/widgets/lv_dropdown.c **** 
 1486              		.loc 1 155 26 is_stmt 0 view .LVU463
 1487 0054 94F83C30 		ldrb	r3, [r4, #60]	@ zero_extendqisi2
 1488 0058 23F01003 		bic	r3, r3, #16
 1489 005c 84F83C30 		strb	r3, [r4, #60]
ARM GAS  C:\usertemp\ccSNc7FN.s 			page 64


 157:lvgl/src/widgets/lv_dropdown.c ****     if(dropdown->list) lv_obj_invalidate(dropdown->list);
 1490              		.loc 1 157 5 is_stmt 1 view .LVU464
 1491 0060 2046     		mov	r0, r4
 1492 0062 FFF7FEFF 		bl	lv_obj_invalidate
 1493              	.LVL163:
 158:lvgl/src/widgets/lv_dropdown.c **** }
 1494              		.loc 1 158 5 view .LVU465
 158:lvgl/src/widgets/lv_dropdown.c **** }
 1495              		.loc 1 158 16 is_stmt 0 view .LVU466
 1496 0066 606A     		ldr	r0, [r4, #36]
 158:lvgl/src/widgets/lv_dropdown.c **** }
 1497              		.loc 1 158 7 view .LVU467
 1498 0068 08B1     		cbz	r0, .L63
 158:lvgl/src/widgets/lv_dropdown.c **** }
 1499              		.loc 1 158 24 is_stmt 1 discriminator 1 view .LVU468
 1500 006a FFF7FEFF 		bl	lv_obj_invalidate
 1501              	.LVL164:
 1502              	.L63:
 159:lvgl/src/widgets/lv_dropdown.c **** 
 1503              		.loc 1 159 1 is_stmt 0 view .LVU469
 1504 006e 70BD     		pop	{r4, r5, r6, pc}
 1505              	.LVL165:
 1506              	.L76:
 139:lvgl/src/widgets/lv_dropdown.c ****         dropdown->options = NULL;
 1507              		.loc 1 139 9 is_stmt 1 view .LVU470
 1508 0070 FFF7FEFF 		bl	lv_mem_free
 1509              	.LVL166:
 140:lvgl/src/widgets/lv_dropdown.c ****     }
 1510              		.loc 1 140 9 view .LVU471
 140:lvgl/src/widgets/lv_dropdown.c ****     }
 1511              		.loc 1 140 27 is_stmt 0 view .LVU472
 1512 0074 0023     		movs	r3, #0
 1513 0076 2363     		str	r3, [r4, #48]
 1514 0078 E4E7     		b	.L69
 1515              	.L71:
 145:lvgl/src/widgets/lv_dropdown.c ****     if(dropdown->options == NULL) return;
 1516              		.loc 1 145 5 is_stmt 1 discriminator 1 view .LVU473
 145:lvgl/src/widgets/lv_dropdown.c ****     if(dropdown->options == NULL) return;
 1517              		.loc 1 145 5 discriminator 1 view .LVU474
 145:lvgl/src/widgets/lv_dropdown.c ****     if(dropdown->options == NULL) return;
 1518              		.loc 1 145 5 discriminator 1 view .LVU475
 145:lvgl/src/widgets/lv_dropdown.c ****     if(dropdown->options == NULL) return;
 1519              		.loc 1 145 5 discriminator 1 view .LVU476
 145:lvgl/src/widgets/lv_dropdown.c ****     if(dropdown->options == NULL) return;
 1520              		.loc 1 145 5 discriminator 1 view .LVU477
 1521 007a FEE7     		b	.L71
 1522              		.cfi_endproc
 1523              	.LFE164:
 1525              		.section	.text.lv_dropdown_set_options_static,"ax",%progbits
 1526              		.align	1
 1527              		.global	lv_dropdown_set_options_static
 1528              		.syntax unified
 1529              		.thumb
 1530              		.thumb_func
 1532              	lv_dropdown_set_options_static:
 1533              	.LVL167:
 1534              	.LFB165:
ARM GAS  C:\usertemp\ccSNc7FN.s 			page 65


 162:lvgl/src/widgets/lv_dropdown.c ****     LV_ASSERT_OBJ(obj, MY_CLASS);
 1535              		.loc 1 162 1 view -0
 1536              		.cfi_startproc
 1537              		@ args = 0, pretend = 0, frame = 0
 1538              		@ frame_needed = 0, uses_anonymous_args = 0
 163:lvgl/src/widgets/lv_dropdown.c ****     LV_ASSERT_NULL(options);
 1539              		.loc 1 163 5 view .LVU479
 163:lvgl/src/widgets/lv_dropdown.c ****     LV_ASSERT_NULL(options);
 1540              		.loc 1 163 5 view .LVU480
 163:lvgl/src/widgets/lv_dropdown.c ****     LV_ASSERT_NULL(options);
 1541              		.loc 1 163 5 view .LVU481
 164:lvgl/src/widgets/lv_dropdown.c **** 
 1542              		.loc 1 164 5 view .LVU482
 164:lvgl/src/widgets/lv_dropdown.c **** 
 1543              		.loc 1 164 5 view .LVU483
 1544 0000 29B1     		cbz	r1, .L79
 162:lvgl/src/widgets/lv_dropdown.c ****     LV_ASSERT_OBJ(obj, MY_CLASS);
 1545              		.loc 1 162 1 is_stmt 0 view .LVU484
 1546 0002 38B5     		push	{r3, r4, r5, lr}
 1547              	.LCFI27:
 1548              		.cfi_def_cfa_offset 16
 1549              		.cfi_offset 3, -16
 1550              		.cfi_offset 4, -12
 1551              		.cfi_offset 5, -8
 1552              		.cfi_offset 14, -4
 1553 0004 0446     		mov	r4, r0
 1554 0006 0D46     		mov	r5, r1
 164:lvgl/src/widgets/lv_dropdown.c **** 
 1555              		.loc 1 164 5 is_stmt 1 discriminator 2 view .LVU485
 164:lvgl/src/widgets/lv_dropdown.c **** 
 1556              		.loc 1 164 28 discriminator 2 view .LVU486
 166:lvgl/src/widgets/lv_dropdown.c **** 
 1557              		.loc 1 166 5 view .LVU487
 1558              	.LVL168:
 169:lvgl/src/widgets/lv_dropdown.c ****     uint32_t i;
 1559              		.loc 1 169 5 view .LVU488
 169:lvgl/src/widgets/lv_dropdown.c ****     uint32_t i;
 1560              		.loc 1 169 26 is_stmt 0 view .LVU489
 1561 0008 0023     		movs	r3, #0
 1562 000a 8386     		strh	r3, [r0, #52]	@ movhi
 170:lvgl/src/widgets/lv_dropdown.c ****     for(i = 0; options[i] != '\0'; i++) {
 1563              		.loc 1 170 5 is_stmt 1 view .LVU490
 171:lvgl/src/widgets/lv_dropdown.c ****         if(options[i] == '\n') dropdown->option_cnt++;
 1564              		.loc 1 171 5 view .LVU491
 1565              	.LVL169:
 171:lvgl/src/widgets/lv_dropdown.c ****         if(options[i] == '\n') dropdown->option_cnt++;
 1566              		.loc 1 171 5 is_stmt 0 view .LVU492
 1567 000c 01E0     		b	.L80
 1568              	.LVL170:
 1569              	.L79:
 1570              	.LCFI28:
 1571              		.cfi_def_cfa_offset 0
 1572              		.cfi_restore 3
 1573              		.cfi_restore 4
 1574              		.cfi_restore 5
 1575              		.cfi_restore 14
 164:lvgl/src/widgets/lv_dropdown.c **** 
ARM GAS  C:\usertemp\ccSNc7FN.s 			page 66


 1576              		.loc 1 164 5 is_stmt 1 discriminator 1 view .LVU493
 164:lvgl/src/widgets/lv_dropdown.c **** 
 1577              		.loc 1 164 5 discriminator 1 view .LVU494
 164:lvgl/src/widgets/lv_dropdown.c **** 
 1578              		.loc 1 164 5 discriminator 1 view .LVU495
 164:lvgl/src/widgets/lv_dropdown.c **** 
 1579              		.loc 1 164 5 discriminator 1 view .LVU496
 164:lvgl/src/widgets/lv_dropdown.c **** 
 1580              		.loc 1 164 5 discriminator 1 view .LVU497
 1581 000e FEE7     		b	.L79
 1582              	.LVL171:
 1583              	.L81:
 1584              	.LCFI29:
 1585              		.cfi_def_cfa_offset 16
 1586              		.cfi_offset 3, -16
 1587              		.cfi_offset 4, -12
 1588              		.cfi_offset 5, -8
 1589              		.cfi_offset 14, -4
 171:lvgl/src/widgets/lv_dropdown.c ****         if(options[i] == '\n') dropdown->option_cnt++;
 1590              		.loc 1 171 37 discriminator 2 view .LVU498
 1591 0010 0133     		adds	r3, r3, #1
 1592              	.LVL172:
 1593              	.L80:
 171:lvgl/src/widgets/lv_dropdown.c ****         if(options[i] == '\n') dropdown->option_cnt++;
 1594              		.loc 1 171 27 discriminator 1 view .LVU499
 171:lvgl/src/widgets/lv_dropdown.c ****         if(options[i] == '\n') dropdown->option_cnt++;
 1595              		.loc 1 171 23 is_stmt 0 discriminator 1 view .LVU500
 1596 0012 EA5C     		ldrb	r2, [r5, r3]	@ zero_extendqisi2
 171:lvgl/src/widgets/lv_dropdown.c ****         if(options[i] == '\n') dropdown->option_cnt++;
 1597              		.loc 1 171 27 discriminator 1 view .LVU501
 1598 0014 2AB1     		cbz	r2, .L87
 172:lvgl/src/widgets/lv_dropdown.c ****     }
 1599              		.loc 1 172 9 is_stmt 1 view .LVU502
 172:lvgl/src/widgets/lv_dropdown.c ****     }
 1600              		.loc 1 172 11 is_stmt 0 view .LVU503
 1601 0016 0A2A     		cmp	r2, #10
 1602 0018 FAD1     		bne	.L81
 172:lvgl/src/widgets/lv_dropdown.c ****     }
 1603              		.loc 1 172 32 is_stmt 1 discriminator 1 view .LVU504
 172:lvgl/src/widgets/lv_dropdown.c ****     }
 1604              		.loc 1 172 40 is_stmt 0 discriminator 1 view .LVU505
 1605 001a A28E     		ldrh	r2, [r4, #52]
 172:lvgl/src/widgets/lv_dropdown.c ****     }
 1606              		.loc 1 172 52 discriminator 1 view .LVU506
 1607 001c 0132     		adds	r2, r2, #1
 1608 001e A286     		strh	r2, [r4, #52]	@ movhi
 1609 0020 F6E7     		b	.L81
 1610              	.L87:
 174:lvgl/src/widgets/lv_dropdown.c ****     dropdown->sel_opt_id      = 0;
 1611              		.loc 1 174 5 is_stmt 1 view .LVU507
 174:lvgl/src/widgets/lv_dropdown.c ****     dropdown->sel_opt_id      = 0;
 1612              		.loc 1 174 13 is_stmt 0 view .LVU508
 1613 0022 A38E     		ldrh	r3, [r4, #52]
 1614              	.LVL173:
 174:lvgl/src/widgets/lv_dropdown.c ****     dropdown->sel_opt_id      = 0;
 1615              		.loc 1 174 25 view .LVU509
 1616 0024 0133     		adds	r3, r3, #1
ARM GAS  C:\usertemp\ccSNc7FN.s 			page 67


 1617 0026 A386     		strh	r3, [r4, #52]	@ movhi
 175:lvgl/src/widgets/lv_dropdown.c ****     dropdown->sel_opt_id_orig = 0;
 1618              		.loc 1 175 5 is_stmt 1 view .LVU510
 175:lvgl/src/widgets/lv_dropdown.c ****     dropdown->sel_opt_id_orig = 0;
 1619              		.loc 1 175 31 is_stmt 0 view .LVU511
 1620 0028 0023     		movs	r3, #0
 1621 002a E386     		strh	r3, [r4, #54]	@ movhi
 176:lvgl/src/widgets/lv_dropdown.c **** 
 1622              		.loc 1 176 5 is_stmt 1 view .LVU512
 176:lvgl/src/widgets/lv_dropdown.c **** 
 1623              		.loc 1 176 31 is_stmt 0 view .LVU513
 1624 002c 2387     		strh	r3, [r4, #56]	@ movhi
 178:lvgl/src/widgets/lv_dropdown.c ****         lv_mem_free(dropdown->options);
 1625              		.loc 1 178 5 is_stmt 1 view .LVU514
 178:lvgl/src/widgets/lv_dropdown.c ****         lv_mem_free(dropdown->options);
 1626              		.loc 1 178 29 is_stmt 0 view .LVU515
 1627 002e 94F83C30 		ldrb	r3, [r4, #60]	@ zero_extendqisi2
 178:lvgl/src/widgets/lv_dropdown.c ****         lv_mem_free(dropdown->options);
 1628              		.loc 1 178 7 view .LVU516
 1629 0032 13F0100F 		tst	r3, #16
 1630 0036 05D1     		bne	.L83
 178:lvgl/src/widgets/lv_dropdown.c ****         lv_mem_free(dropdown->options);
 1631              		.loc 1 178 45 discriminator 1 view .LVU517
 1632 0038 206B     		ldr	r0, [r4, #48]
 1633              	.LVL174:
 178:lvgl/src/widgets/lv_dropdown.c ****         lv_mem_free(dropdown->options);
 1634              		.loc 1 178 34 discriminator 1 view .LVU518
 1635 003a 18B1     		cbz	r0, .L83
 179:lvgl/src/widgets/lv_dropdown.c ****         dropdown->options = NULL;
 1636              		.loc 1 179 9 is_stmt 1 view .LVU519
 1637 003c FFF7FEFF 		bl	lv_mem_free
 1638              	.LVL175:
 180:lvgl/src/widgets/lv_dropdown.c ****     }
 1639              		.loc 1 180 9 view .LVU520
 180:lvgl/src/widgets/lv_dropdown.c ****     }
 1640              		.loc 1 180 27 is_stmt 0 view .LVU521
 1641 0040 0023     		movs	r3, #0
 1642 0042 2363     		str	r3, [r4, #48]
 1643              	.L83:
 183:lvgl/src/widgets/lv_dropdown.c ****     dropdown->options = (char *)options;
 1644              		.loc 1 183 5 is_stmt 1 view .LVU522
 183:lvgl/src/widgets/lv_dropdown.c ****     dropdown->options = (char *)options;
 1645              		.loc 1 183 26 is_stmt 0 view .LVU523
 1646 0044 94F83C30 		ldrb	r3, [r4, #60]	@ zero_extendqisi2
 1647 0048 43F01003 		orr	r3, r3, #16
 1648 004c 84F83C30 		strb	r3, [r4, #60]
 184:lvgl/src/widgets/lv_dropdown.c **** 
 1649              		.loc 1 184 5 is_stmt 1 view .LVU524
 184:lvgl/src/widgets/lv_dropdown.c **** 
 1650              		.loc 1 184 23 is_stmt 0 view .LVU525
 1651 0050 2563     		str	r5, [r4, #48]
 186:lvgl/src/widgets/lv_dropdown.c ****     if(dropdown->list) lv_obj_invalidate(dropdown->list);
 1652              		.loc 1 186 5 is_stmt 1 view .LVU526
 1653 0052 2046     		mov	r0, r4
 1654 0054 FFF7FEFF 		bl	lv_obj_invalidate
 1655              	.LVL176:
 187:lvgl/src/widgets/lv_dropdown.c **** }
ARM GAS  C:\usertemp\ccSNc7FN.s 			page 68


 1656              		.loc 1 187 5 view .LVU527
 187:lvgl/src/widgets/lv_dropdown.c **** }
 1657              		.loc 1 187 16 is_stmt 0 view .LVU528
 1658 0058 606A     		ldr	r0, [r4, #36]
 187:lvgl/src/widgets/lv_dropdown.c **** }
 1659              		.loc 1 187 7 view .LVU529
 1660 005a 08B1     		cbz	r0, .L77
 187:lvgl/src/widgets/lv_dropdown.c **** }
 1661              		.loc 1 187 24 is_stmt 1 discriminator 1 view .LVU530
 1662 005c FFF7FEFF 		bl	lv_obj_invalidate
 1663              	.LVL177:
 1664              	.L77:
 188:lvgl/src/widgets/lv_dropdown.c **** 
 1665              		.loc 1 188 1 is_stmt 0 view .LVU531
 1666 0060 38BD     		pop	{r3, r4, r5, pc}
 188:lvgl/src/widgets/lv_dropdown.c **** 
 1667              		.loc 1 188 1 view .LVU532
 1668              		.cfi_endproc
 1669              	.LFE165:
 1671              		.section	.rodata.lv_dropdown_constructor.str1.4,"aMS",%progbits,1
 1672              		.align	2
 1673              	.LC0:
 1674 0000 EF81B800 		.ascii	"\357\201\270\000"
 1675              		.align	2
 1676              	.LC1:
 1677 0004 4F707469 		.ascii	"Option 1\012Option 2\012Option 3\000"
 1677      6F6E2031 
 1677      0A4F7074 
 1677      696F6E20 
 1677      320A4F70 
 1678              		.section	.text.lv_dropdown_constructor,"ax",%progbits
 1679              		.align	1
 1680              		.syntax unified
 1681              		.thumb
 1682              		.thumb_func
 1684              	lv_dropdown_constructor:
 1685              	.LVL178:
 1686              	.LFB185:
 558:lvgl/src/widgets/lv_dropdown.c ****     LV_UNUSED(class_p);
 1687              		.loc 1 558 1 is_stmt 1 view -0
 1688              		.cfi_startproc
 1689              		@ args = 0, pretend = 0, frame = 0
 1690              		@ frame_needed = 0, uses_anonymous_args = 0
 558:lvgl/src/widgets/lv_dropdown.c ****     LV_UNUSED(class_p);
 1691              		.loc 1 558 1 is_stmt 0 view .LVU534
 1692 0000 10B5     		push	{r4, lr}
 1693              	.LCFI30:
 1694              		.cfi_def_cfa_offset 8
 1695              		.cfi_offset 4, -8
 1696              		.cfi_offset 14, -4
 1697 0002 0C46     		mov	r4, r1
 559:lvgl/src/widgets/lv_dropdown.c ****     LV_TRACE_OBJ_CREATE("begin");
 1698              		.loc 1 559 5 is_stmt 1 view .LVU535
 560:lvgl/src/widgets/lv_dropdown.c **** 
 1699              		.loc 1 560 5 view .LVU536
 560:lvgl/src/widgets/lv_dropdown.c **** 
 1700              		.loc 1 560 5 view .LVU537
ARM GAS  C:\usertemp\ccSNc7FN.s 			page 69


 560:lvgl/src/widgets/lv_dropdown.c **** 
 1701              		.loc 1 560 5 view .LVU538
 562:lvgl/src/widgets/lv_dropdown.c **** 
 1702              		.loc 1 562 5 view .LVU539
 1703              	.LVL179:
 565:lvgl/src/widgets/lv_dropdown.c ****     dropdown->options     = NULL;
 1704              		.loc 1 565 5 view .LVU540
 565:lvgl/src/widgets/lv_dropdown.c ****     dropdown->options     = NULL;
 1705              		.loc 1 565 29 is_stmt 0 view .LVU541
 1706 0004 0023     		movs	r3, #0
 1707 0006 4B62     		str	r3, [r1, #36]
 566:lvgl/src/widgets/lv_dropdown.c ****     dropdown->symbol         = LV_SYMBOL_DOWN;
 1708              		.loc 1 566 5 is_stmt 1 view .LVU542
 566:lvgl/src/widgets/lv_dropdown.c ****     dropdown->symbol         = LV_SYMBOL_DOWN;
 1709              		.loc 1 566 27 is_stmt 0 view .LVU543
 1710 0008 0B63     		str	r3, [r1, #48]
 567:lvgl/src/widgets/lv_dropdown.c ****     dropdown->text         = NULL;
 1711              		.loc 1 567 5 is_stmt 1 view .LVU544
 567:lvgl/src/widgets/lv_dropdown.c ****     dropdown->text         = NULL;
 1712              		.loc 1 567 30 is_stmt 0 view .LVU545
 1713 000a 164A     		ldr	r2, .L90
 1714 000c CA62     		str	r2, [r1, #44]
 568:lvgl/src/widgets/lv_dropdown.c ****     dropdown->static_txt = 1;
 1715              		.loc 1 568 5 is_stmt 1 view .LVU546
 568:lvgl/src/widgets/lv_dropdown.c ****     dropdown->static_txt = 1;
 1716              		.loc 1 568 28 is_stmt 0 view .LVU547
 1717 000e 8B62     		str	r3, [r1, #40]
 569:lvgl/src/widgets/lv_dropdown.c ****     dropdown->selected_highlight = 1;
 1718              		.loc 1 569 5 is_stmt 1 view .LVU548
 569:lvgl/src/widgets/lv_dropdown.c ****     dropdown->selected_highlight = 1;
 1719              		.loc 1 569 26 is_stmt 0 view .LVU549
 1720 0010 91F83C20 		ldrb	r2, [r1, #60]	@ zero_extendqisi2
 1721 0014 42F01002 		orr	r2, r2, #16
 1722 0018 81F83C20 		strb	r2, [r1, #60]
 570:lvgl/src/widgets/lv_dropdown.c ****     dropdown->sel_opt_id      = 0;
 1723              		.loc 1 570 5 is_stmt 1 view .LVU550
 570:lvgl/src/widgets/lv_dropdown.c ****     dropdown->sel_opt_id      = 0;
 1724              		.loc 1 570 34 is_stmt 0 view .LVU551
 1725 001c D2B2     		uxtb	r2, r2
 1726 001e 42F02002 		orr	r2, r2, #32
 1727 0022 81F83C20 		strb	r2, [r1, #60]
 571:lvgl/src/widgets/lv_dropdown.c ****     dropdown->sel_opt_id_orig = 0;
 1728              		.loc 1 571 5 is_stmt 1 view .LVU552
 571:lvgl/src/widgets/lv_dropdown.c ****     dropdown->sel_opt_id_orig = 0;
 1729              		.loc 1 571 31 is_stmt 0 view .LVU553
 1730 0026 CB86     		strh	r3, [r1, #54]	@ movhi
 572:lvgl/src/widgets/lv_dropdown.c ****     dropdown->pr_opt_id = LV_DROPDOWN_PR_NONE;
 1731              		.loc 1 572 5 is_stmt 1 view .LVU554
 572:lvgl/src/widgets/lv_dropdown.c ****     dropdown->pr_opt_id = LV_DROPDOWN_PR_NONE;
 1732              		.loc 1 572 31 is_stmt 0 view .LVU555
 1733 0028 0B87     		strh	r3, [r1, #56]	@ movhi
 573:lvgl/src/widgets/lv_dropdown.c ****     dropdown->option_cnt      = 0;
 1734              		.loc 1 573 5 is_stmt 1 view .LVU556
 573:lvgl/src/widgets/lv_dropdown.c ****     dropdown->option_cnt      = 0;
 1735              		.loc 1 573 25 is_stmt 0 view .LVU557
 1736 002a 4FF6FF72 		movw	r2, #65535
 1737 002e 4A87     		strh	r2, [r1, #58]	@ movhi
ARM GAS  C:\usertemp\ccSNc7FN.s 			page 70


 574:lvgl/src/widgets/lv_dropdown.c ****     dropdown->dir = LV_DIR_BOTTOM;
 1738              		.loc 1 574 5 is_stmt 1 view .LVU558
 574:lvgl/src/widgets/lv_dropdown.c ****     dropdown->dir = LV_DIR_BOTTOM;
 1739              		.loc 1 574 31 is_stmt 0 view .LVU559
 1740 0030 8B86     		strh	r3, [r1, #52]	@ movhi
 575:lvgl/src/widgets/lv_dropdown.c **** 
 1741              		.loc 1 575 5 is_stmt 1 view .LVU560
 575:lvgl/src/widgets/lv_dropdown.c **** 
 1742              		.loc 1 575 19 is_stmt 0 view .LVU561
 1743 0032 91F83C30 		ldrb	r3, [r1, #60]	@ zero_extendqisi2
 1744 0036 0822     		movs	r2, #8
 1745 0038 62F30303 		bfi	r3, r2, #0, #4
 1746 003c 81F83C30 		strb	r3, [r1, #60]
 577:lvgl/src/widgets/lv_dropdown.c ****     lv_dropdown_set_options_static(obj, "Option 1\nOption 2\nOption 3");
 1747              		.loc 1 577 5 is_stmt 1 view .LVU562
 1748 0040 4FF48061 		mov	r1, #1024
 1749              	.LVL180:
 577:lvgl/src/widgets/lv_dropdown.c ****     lv_dropdown_set_options_static(obj, "Option 1\nOption 2\nOption 3");
 1750              		.loc 1 577 5 is_stmt 0 view .LVU563
 1751 0044 2046     		mov	r0, r4
 1752              	.LVL181:
 577:lvgl/src/widgets/lv_dropdown.c ****     lv_dropdown_set_options_static(obj, "Option 1\nOption 2\nOption 3");
 1753              		.loc 1 577 5 view .LVU564
 1754 0046 FFF7FEFF 		bl	lv_obj_add_flag
 1755              	.LVL182:
 578:lvgl/src/widgets/lv_dropdown.c **** 
 1756              		.loc 1 578 5 is_stmt 1 view .LVU565
 1757 004a 0749     		ldr	r1, .L90+4
 1758 004c 2046     		mov	r0, r4
 1759 004e FFF7FEFF 		bl	lv_dropdown_set_options_static
 1760              	.LVL183:
 580:lvgl/src/widgets/lv_dropdown.c ****     lv_dropdown_list_t * list = (lv_dropdown_list_t *)dropdown->list;
 1761              		.loc 1 580 5 view .LVU566
 580:lvgl/src/widgets/lv_dropdown.c ****     lv_dropdown_list_t * list = (lv_dropdown_list_t *)dropdown->list;
 1762              		.loc 1 580 46 is_stmt 0 view .LVU567
 1763 0052 2046     		mov	r0, r4
 1764 0054 FFF7FEFF 		bl	lv_obj_get_screen
 1765              	.LVL184:
 580:lvgl/src/widgets/lv_dropdown.c ****     lv_dropdown_list_t * list = (lv_dropdown_list_t *)dropdown->list;
 1766              		.loc 1 580 22 discriminator 1 view .LVU568
 1767 0058 FFF7FEFF 		bl	lv_dropdown_list_create
 1768              	.LVL185:
 580:lvgl/src/widgets/lv_dropdown.c ****     lv_dropdown_list_t * list = (lv_dropdown_list_t *)dropdown->list;
 1769              		.loc 1 580 20 discriminator 2 view .LVU569
 1770 005c 6062     		str	r0, [r4, #36]
 581:lvgl/src/widgets/lv_dropdown.c ****     list->dropdown = obj;
 1771              		.loc 1 581 5 is_stmt 1 view .LVU570
 1772              	.LVL186:
 582:lvgl/src/widgets/lv_dropdown.c **** 
 1773              		.loc 1 582 5 view .LVU571
 582:lvgl/src/widgets/lv_dropdown.c **** 
 1774              		.loc 1 582 20 is_stmt 0 view .LVU572
 1775 005e 4462     		str	r4, [r0, #36]
 584:lvgl/src/widgets/lv_dropdown.c **** }
 1776              		.loc 1 584 5 is_stmt 1 view .LVU573
 584:lvgl/src/widgets/lv_dropdown.c **** }
 1777              		.loc 1 584 5 view .LVU574
ARM GAS  C:\usertemp\ccSNc7FN.s 			page 71


 584:lvgl/src/widgets/lv_dropdown.c **** }
 1778              		.loc 1 584 5 view .LVU575
 585:lvgl/src/widgets/lv_dropdown.c **** 
 1779              		.loc 1 585 1 is_stmt 0 view .LVU576
 1780 0060 10BD     		pop	{r4, pc}
 1781              	.LVL187:
 1782              	.L91:
 585:lvgl/src/widgets/lv_dropdown.c **** 
 1783              		.loc 1 585 1 view .LVU577
 1784 0062 00BF     		.align	2
 1785              	.L90:
 1786 0064 00000000 		.word	.LC0
 1787 0068 04000000 		.word	.LC1
 1788              		.cfi_endproc
 1789              	.LFE185:
 1791              		.section	.rodata.lv_dropdown_add_option.str1.4,"aMS",%progbits,1
 1792              		.align	2
