ARM GAS  C:\usertemp\ccL9DfK7.s 			page 1


   1              		.cpu cortex-m7
   2              		.arch armv7e-m
   3              		.fpu fpv5-d16
   4              		.eabi_attribute 28, 1
   5              		.eabi_attribute 20, 1
   6              		.eabi_attribute 21, 1
   7              		.eabi_attribute 23, 3
   8              		.eabi_attribute 24, 1
   9              		.eabi_attribute 25, 1
  10              		.eabi_attribute 26, 1
  11              		.eabi_attribute 30, 1
  12              		.eabi_attribute 34, 1
  13              		.eabi_attribute 18, 4
  14              		.file	"lv_dclock.c"
  15              		.text
  16              	.Ltext0:
  17              		.cfi_sections	.debug_frame
  18              		.file 1 "lvgl/src/extra/widgets/dclock/lv_dclock.c"
  19              		.section	.text.lv_dclock_refr_text,"ax",%progbits
  20              		.align	1
  21              		.syntax unified
  22              		.thumb
  23              		.thumb_func
  25              	lv_dclock_refr_text:
  26              	.LVL0:
  27              	.LFB167:
   1:lvgl/src/extra/widgets/dclock/lv_dclock.c **** ﻿/**
   2:lvgl/src/extra/widgets/dclock/lv_dclock.c ****  * @file lv_dclock.c
   3:lvgl/src/extra/widgets/dclock/lv_dclock.c ****  *
   4:lvgl/src/extra/widgets/dclock/lv_dclock.c ****  */
   5:lvgl/src/extra/widgets/dclock/lv_dclock.c **** 
   6:lvgl/src/extra/widgets/dclock/lv_dclock.c **** /*********************
   7:lvgl/src/extra/widgets/dclock/lv_dclock.c ****  *      INCLUDES
   8:lvgl/src/extra/widgets/dclock/lv_dclock.c ****  *********************/
   9:lvgl/src/extra/widgets/dclock/lv_dclock.c **** #include "lv_dclock.h"
  10:lvgl/src/extra/widgets/dclock/lv_dclock.c **** #if LV_USE_DCLOCK != 0
  11:lvgl/src/extra/widgets/dclock/lv_dclock.c **** #include "../../../core/lv_obj.h"
  12:lvgl/src/extra/widgets/dclock/lv_dclock.c **** #include "../../../misc/lv_assert.h"
  13:lvgl/src/extra/widgets/dclock/lv_dclock.c **** #include "../../../core/lv_group.h"
  14:lvgl/src/extra/widgets/dclock/lv_dclock.c **** #include "../../../draw/lv_draw.h"
  15:lvgl/src/extra/widgets/dclock/lv_dclock.c **** #include "../../../misc/lv_color.h"
  16:lvgl/src/extra/widgets/dclock/lv_dclock.c **** #include "../../../misc/lv_math.h"
  17:lvgl/src/extra/widgets/dclock/lv_dclock.c **** #include "../../../misc/lv_bidi.h"
  18:lvgl/src/extra/widgets/dclock/lv_dclock.c **** #include "../../../misc/lv_txt_ap.h"
  19:lvgl/src/extra/widgets/dclock/lv_dclock.c **** #include "../../../misc/lv_printf.h"
  20:lvgl/src/extra/widgets/dclock/lv_dclock.c **** #include "../../../widgets/lv_label.h"
  21:lvgl/src/extra/widgets/dclock/lv_dclock.c **** 
  22:lvgl/src/extra/widgets/dclock/lv_dclock.c **** 
  23:lvgl/src/extra/widgets/dclock/lv_dclock.c **** /*********************
  24:lvgl/src/extra/widgets/dclock/lv_dclock.c ****  *      DEFINES
  25:lvgl/src/extra/widgets/dclock/lv_dclock.c ****  *********************/
  26:lvgl/src/extra/widgets/dclock/lv_dclock.c **** #define MY_CLASS &lv_dclock_class
  27:lvgl/src/extra/widgets/dclock/lv_dclock.c **** 
  28:lvgl/src/extra/widgets/dclock/lv_dclock.c **** #define LV_DCLOCK_DEF_SCROLL_SPEED   (lv_disp_get_dpi(lv_obj_get_disp(obj)) / 3)
  29:lvgl/src/extra/widgets/dclock/lv_dclock.c **** #define LV_DCLOCK_SCROLL_DELAY       300
  30:lvgl/src/extra/widgets/dclock/lv_dclock.c **** #define LV_DCLOCK_DOT_END_INV 0xFFFFFFFF
  31:lvgl/src/extra/widgets/dclock/lv_dclock.c **** #define LV_DCLOCK_HINT_HEIGHT_LIMIT 1024 /*Enable "hint" to buffer info about labels larger than th
ARM GAS  C:\usertemp\ccL9DfK7.s 			page 2


  32:lvgl/src/extra/widgets/dclock/lv_dclock.c **** 
  33:lvgl/src/extra/widgets/dclock/lv_dclock.c **** /**********************
  34:lvgl/src/extra/widgets/dclock/lv_dclock.c ****  *      TYPEDEFS
  35:lvgl/src/extra/widgets/dclock/lv_dclock.c ****  **********************/
  36:lvgl/src/extra/widgets/dclock/lv_dclock.c **** 
  37:lvgl/src/extra/widgets/dclock/lv_dclock.c **** /**********************
  38:lvgl/src/extra/widgets/dclock/lv_dclock.c ****  *  STATIC PROTOTYPES
  39:lvgl/src/extra/widgets/dclock/lv_dclock.c ****  **********************/
  40:lvgl/src/extra/widgets/dclock/lv_dclock.c **** static void lv_dclock_constructor(const lv_obj_class_t * class_p, lv_obj_t * obj);
  41:lvgl/src/extra/widgets/dclock/lv_dclock.c **** static void lv_dclock_destructor(const lv_obj_class_t * class_p, lv_obj_t * obj);
  42:lvgl/src/extra/widgets/dclock/lv_dclock.c **** static void lv_dclock_event(const lv_obj_class_t * class_p, lv_event_t * e);
  43:lvgl/src/extra/widgets/dclock/lv_dclock.c **** static void draw_main(lv_event_t * e);
  44:lvgl/src/extra/widgets/dclock/lv_dclock.c **** static void lv_dclock_refr_text(lv_obj_t * obj);
  45:lvgl/src/extra/widgets/dclock/lv_dclock.c **** 
  46:lvgl/src/extra/widgets/dclock/lv_dclock.c **** /**********************
  47:lvgl/src/extra/widgets/dclock/lv_dclock.c ****  *  STATIC VARIABLES
  48:lvgl/src/extra/widgets/dclock/lv_dclock.c ****  **********************/
  49:lvgl/src/extra/widgets/dclock/lv_dclock.c **** const lv_obj_class_t lv_dclock_class = {
  50:lvgl/src/extra/widgets/dclock/lv_dclock.c ****     .constructor_cb = lv_dclock_constructor,
  51:lvgl/src/extra/widgets/dclock/lv_dclock.c ****     .destructor_cb = lv_dclock_destructor,
  52:lvgl/src/extra/widgets/dclock/lv_dclock.c ****     .event_cb = lv_dclock_event,
  53:lvgl/src/extra/widgets/dclock/lv_dclock.c ****     .width_def = LV_SIZE_CONTENT,
  54:lvgl/src/extra/widgets/dclock/lv_dclock.c ****     .height_def = LV_SIZE_CONTENT,
  55:lvgl/src/extra/widgets/dclock/lv_dclock.c ****     .instance_size = sizeof(lv_dclock_t),
  56:lvgl/src/extra/widgets/dclock/lv_dclock.c ****     .base_class = &lv_obj_class
  57:lvgl/src/extra/widgets/dclock/lv_dclock.c **** };
  58:lvgl/src/extra/widgets/dclock/lv_dclock.c **** 
  59:lvgl/src/extra/widgets/dclock/lv_dclock.c **** /**********************
  60:lvgl/src/extra/widgets/dclock/lv_dclock.c ****  *   GLOBAL FUNCTIONS
  61:lvgl/src/extra/widgets/dclock/lv_dclock.c ****  **********************/
  62:lvgl/src/extra/widgets/dclock/lv_dclock.c **** 
  63:lvgl/src/extra/widgets/dclock/lv_dclock.c **** lv_obj_t * lv_dclock_create(lv_obj_t * parent, char * input_time)
  64:lvgl/src/extra/widgets/dclock/lv_dclock.c **** {
  65:lvgl/src/extra/widgets/dclock/lv_dclock.c ****     LV_LOG_INFO("begin");
  66:lvgl/src/extra/widgets/dclock/lv_dclock.c ****     lv_obj_t * obj = lv_obj_class_create_obj(MY_CLASS, parent);
  67:lvgl/src/extra/widgets/dclock/lv_dclock.c ****     lv_obj_class_init_obj(obj);
  68:lvgl/src/extra/widgets/dclock/lv_dclock.c ****     if(lv_obj_is_valid(obj)) {
  69:lvgl/src/extra/widgets/dclock/lv_dclock.c ****         lv_dclock_set_text_fmt(obj, "%s", input_time);
  70:lvgl/src/extra/widgets/dclock/lv_dclock.c ****     }
  71:lvgl/src/extra/widgets/dclock/lv_dclock.c ****     return obj;
  72:lvgl/src/extra/widgets/dclock/lv_dclock.c **** }
  73:lvgl/src/extra/widgets/dclock/lv_dclock.c **** 
  74:lvgl/src/extra/widgets/dclock/lv_dclock.c **** void lv_dclock_set_text(lv_obj_t * obj, const char * text)
  75:lvgl/src/extra/widgets/dclock/lv_dclock.c **** {
  76:lvgl/src/extra/widgets/dclock/lv_dclock.c ****     LV_ASSERT_OBJ(obj, MY_CLASS);
  77:lvgl/src/extra/widgets/dclock/lv_dclock.c ****     lv_dclock_t * dclock = (lv_dclock_t *)obj;
  78:lvgl/src/extra/widgets/dclock/lv_dclock.c **** 
  79:lvgl/src/extra/widgets/dclock/lv_dclock.c ****     lv_obj_invalidate(obj);
  80:lvgl/src/extra/widgets/dclock/lv_dclock.c **** 
  81:lvgl/src/extra/widgets/dclock/lv_dclock.c ****     /*If text is NULL then just refresh with the current text*/
  82:lvgl/src/extra/widgets/dclock/lv_dclock.c ****     if(text == NULL) text = dclock->text;
  83:lvgl/src/extra/widgets/dclock/lv_dclock.c **** 
  84:lvgl/src/extra/widgets/dclock/lv_dclock.c ****     if(dclock->text == text && dclock->static_txt == 0) {
  85:lvgl/src/extra/widgets/dclock/lv_dclock.c ****         /*If set its own text then reallocate it (maybe its size changed)*/
  86:lvgl/src/extra/widgets/dclock/lv_dclock.c **** #if LV_USE_ARABIC_PERSIAN_CHARS
  87:lvgl/src/extra/widgets/dclock/lv_dclock.c ****         /*Get the size of the text and process it*/
  88:lvgl/src/extra/widgets/dclock/lv_dclock.c ****         size_t len = _lv_txt_ap_calc_bytes_cnt(text);
ARM GAS  C:\usertemp\ccL9DfK7.s 			page 3


  89:lvgl/src/extra/widgets/dclock/lv_dclock.c **** 
  90:lvgl/src/extra/widgets/dclock/lv_dclock.c ****         dclock->text = lv_mem_realloc(dclock->text, len);
  91:lvgl/src/extra/widgets/dclock/lv_dclock.c ****         LV_ASSERT_MALLOC(dclock->text);
  92:lvgl/src/extra/widgets/dclock/lv_dclock.c ****         if(dclock->text == NULL) return;
  93:lvgl/src/extra/widgets/dclock/lv_dclock.c **** 
  94:lvgl/src/extra/widgets/dclock/lv_dclock.c ****         _lv_txt_ap_proc(dclock->text, dclock->text);
  95:lvgl/src/extra/widgets/dclock/lv_dclock.c **** #else
  96:lvgl/src/extra/widgets/dclock/lv_dclock.c ****         dclock->text = lv_mem_realloc(dclock->text, strlen(dclock->text) + 1);
  97:lvgl/src/extra/widgets/dclock/lv_dclock.c **** #endif
  98:lvgl/src/extra/widgets/dclock/lv_dclock.c **** 
  99:lvgl/src/extra/widgets/dclock/lv_dclock.c ****         LV_ASSERT_MALLOC(dclock->text);
 100:lvgl/src/extra/widgets/dclock/lv_dclock.c ****         if(dclock->text == NULL) return;
 101:lvgl/src/extra/widgets/dclock/lv_dclock.c ****     }
 102:lvgl/src/extra/widgets/dclock/lv_dclock.c ****     else {
 103:lvgl/src/extra/widgets/dclock/lv_dclock.c ****         /*Free the old text*/
 104:lvgl/src/extra/widgets/dclock/lv_dclock.c ****         if(dclock->text != NULL && dclock->static_txt == 0) {
 105:lvgl/src/extra/widgets/dclock/lv_dclock.c ****             lv_mem_free(dclock->text);
 106:lvgl/src/extra/widgets/dclock/lv_dclock.c ****             dclock->text = NULL;
 107:lvgl/src/extra/widgets/dclock/lv_dclock.c ****         }
 108:lvgl/src/extra/widgets/dclock/lv_dclock.c **** 
 109:lvgl/src/extra/widgets/dclock/lv_dclock.c **** #if LV_USE_ARABIC_PERSIAN_CHARS
 110:lvgl/src/extra/widgets/dclock/lv_dclock.c ****         /*Get the size of the text and process it*/
 111:lvgl/src/extra/widgets/dclock/lv_dclock.c ****         size_t len = _lv_txt_ap_calc_bytes_cnt(text);
 112:lvgl/src/extra/widgets/dclock/lv_dclock.c **** 
 113:lvgl/src/extra/widgets/dclock/lv_dclock.c ****         dclock->text = lv_mem_alloc(len);
 114:lvgl/src/extra/widgets/dclock/lv_dclock.c ****         LV_ASSERT_MALLOC(dclock->text);
 115:lvgl/src/extra/widgets/dclock/lv_dclock.c ****         if(dclock->text == NULL) return;
 116:lvgl/src/extra/widgets/dclock/lv_dclock.c **** 
 117:lvgl/src/extra/widgets/dclock/lv_dclock.c ****         _lv_txt_ap_proc(text, dclock->text);
 118:lvgl/src/extra/widgets/dclock/lv_dclock.c **** #else
 119:lvgl/src/extra/widgets/dclock/lv_dclock.c ****         /*Get the size of the text*/
 120:lvgl/src/extra/widgets/dclock/lv_dclock.c ****         size_t len = strlen(text) + 1;
 121:lvgl/src/extra/widgets/dclock/lv_dclock.c **** 
 122:lvgl/src/extra/widgets/dclock/lv_dclock.c ****         /*Allocate space for the new text*/
 123:lvgl/src/extra/widgets/dclock/lv_dclock.c ****         dclock->text = lv_mem_alloc(len);
 124:lvgl/src/extra/widgets/dclock/lv_dclock.c ****         LV_ASSERT_MALLOC(dclock->text);
 125:lvgl/src/extra/widgets/dclock/lv_dclock.c ****         if(dclock->text == NULL) return;
 126:lvgl/src/extra/widgets/dclock/lv_dclock.c ****         strcpy(dclock->text, text);
 127:lvgl/src/extra/widgets/dclock/lv_dclock.c **** #endif
 128:lvgl/src/extra/widgets/dclock/lv_dclock.c **** 
 129:lvgl/src/extra/widgets/dclock/lv_dclock.c ****         /*Now the text is dynamically allocated*/
 130:lvgl/src/extra/widgets/dclock/lv_dclock.c ****         dclock->static_txt = 0;
 131:lvgl/src/extra/widgets/dclock/lv_dclock.c ****     }
 132:lvgl/src/extra/widgets/dclock/lv_dclock.c **** 
 133:lvgl/src/extra/widgets/dclock/lv_dclock.c ****     lv_dclock_refr_text(obj);
 134:lvgl/src/extra/widgets/dclock/lv_dclock.c **** }
 135:lvgl/src/extra/widgets/dclock/lv_dclock.c **** 
 136:lvgl/src/extra/widgets/dclock/lv_dclock.c **** void lv_dclock_set_text_fmt(lv_obj_t * obj, const char * fmt, ...)
 137:lvgl/src/extra/widgets/dclock/lv_dclock.c **** {
 138:lvgl/src/extra/widgets/dclock/lv_dclock.c **** 
 139:lvgl/src/extra/widgets/dclock/lv_dclock.c ****     LV_ASSERT_OBJ(obj, MY_CLASS);
 140:lvgl/src/extra/widgets/dclock/lv_dclock.c ****     LV_ASSERT_NULL(fmt);
 141:lvgl/src/extra/widgets/dclock/lv_dclock.c ****     lv_obj_invalidate(obj);
 142:lvgl/src/extra/widgets/dclock/lv_dclock.c ****     lv_dclock_t * dclock = (lv_dclock_t *)obj;
 143:lvgl/src/extra/widgets/dclock/lv_dclock.c **** 
 144:lvgl/src/extra/widgets/dclock/lv_dclock.c ****     /*If text is NULL then refresh*/
 145:lvgl/src/extra/widgets/dclock/lv_dclock.c ****     if(fmt == NULL) {
ARM GAS  C:\usertemp\ccL9DfK7.s 			page 4


 146:lvgl/src/extra/widgets/dclock/lv_dclock.c ****         lv_dclock_refr_text(obj);
 147:lvgl/src/extra/widgets/dclock/lv_dclock.c ****         return;
 148:lvgl/src/extra/widgets/dclock/lv_dclock.c ****     }
 149:lvgl/src/extra/widgets/dclock/lv_dclock.c **** 
 150:lvgl/src/extra/widgets/dclock/lv_dclock.c ****     if(dclock->text != NULL && dclock->static_txt == 0) {
 151:lvgl/src/extra/widgets/dclock/lv_dclock.c ****         lv_mem_free(dclock->text);
 152:lvgl/src/extra/widgets/dclock/lv_dclock.c ****         dclock->text = NULL;
 153:lvgl/src/extra/widgets/dclock/lv_dclock.c ****     }
 154:lvgl/src/extra/widgets/dclock/lv_dclock.c **** 
 155:lvgl/src/extra/widgets/dclock/lv_dclock.c ****     va_list args;
 156:lvgl/src/extra/widgets/dclock/lv_dclock.c ****     va_start(args, fmt);
 157:lvgl/src/extra/widgets/dclock/lv_dclock.c ****     dclock->text = _lv_txt_set_text_vfmt(fmt, args);
 158:lvgl/src/extra/widgets/dclock/lv_dclock.c ****     va_end(args);
 159:lvgl/src/extra/widgets/dclock/lv_dclock.c ****     dclock->static_txt = 0; /*Now the text is dynamically allocated*/
 160:lvgl/src/extra/widgets/dclock/lv_dclock.c **** 
 161:lvgl/src/extra/widgets/dclock/lv_dclock.c ****     lv_dclock_refr_text(obj);
 162:lvgl/src/extra/widgets/dclock/lv_dclock.c **** }
 163:lvgl/src/extra/widgets/dclock/lv_dclock.c **** 
 164:lvgl/src/extra/widgets/dclock/lv_dclock.c **** /*=====================
 165:lvgl/src/extra/widgets/dclock/lv_dclock.c ****  * Getter functions
 166:lvgl/src/extra/widgets/dclock/lv_dclock.c ****  *====================*/
 167:lvgl/src/extra/widgets/dclock/lv_dclock.c **** 
 168:lvgl/src/extra/widgets/dclock/lv_dclock.c **** uint32_t lv_dclock_get_text_selection_start(const lv_obj_t * obj)
 169:lvgl/src/extra/widgets/dclock/lv_dclock.c **** {
 170:lvgl/src/extra/widgets/dclock/lv_dclock.c ****     LV_ASSERT_OBJ(obj, MY_CLASS);
 171:lvgl/src/extra/widgets/dclock/lv_dclock.c **** 
 172:lvgl/src/extra/widgets/dclock/lv_dclock.c **** #if LV_DCLOCK_TEXT_SELECTION
 173:lvgl/src/extra/widgets/dclock/lv_dclock.c ****     lv_dclock_t * dclock = (lv_dclock_t *)obj;
 174:lvgl/src/extra/widgets/dclock/lv_dclock.c ****     return dclock->sel_start;
 175:lvgl/src/extra/widgets/dclock/lv_dclock.c **** 
 176:lvgl/src/extra/widgets/dclock/lv_dclock.c **** #else
 177:lvgl/src/extra/widgets/dclock/lv_dclock.c ****     LV_UNUSED(obj); /*Unused*/
 178:lvgl/src/extra/widgets/dclock/lv_dclock.c ****     return LV_DCLOCK_TEXT_SELECTION_OFF;
 179:lvgl/src/extra/widgets/dclock/lv_dclock.c **** #endif
 180:lvgl/src/extra/widgets/dclock/lv_dclock.c **** }
 181:lvgl/src/extra/widgets/dclock/lv_dclock.c **** 
 182:lvgl/src/extra/widgets/dclock/lv_dclock.c **** uint32_t lv_dclock_get_text_selection_end(const lv_obj_t * obj)
 183:lvgl/src/extra/widgets/dclock/lv_dclock.c **** {
 184:lvgl/src/extra/widgets/dclock/lv_dclock.c ****     LV_ASSERT_OBJ(obj, MY_CLASS);
 185:lvgl/src/extra/widgets/dclock/lv_dclock.c **** 
 186:lvgl/src/extra/widgets/dclock/lv_dclock.c **** #if LV_DCLOCK_TEXT_SELECTION
 187:lvgl/src/extra/widgets/dclock/lv_dclock.c ****     lv_dclock_t * dclock = (lv_dclock_t *)obj;
 188:lvgl/src/extra/widgets/dclock/lv_dclock.c ****     return dclock->sel_end;
 189:lvgl/src/extra/widgets/dclock/lv_dclock.c **** #else
 190:lvgl/src/extra/widgets/dclock/lv_dclock.c ****     LV_UNUSED(obj); /*Unused*/
 191:lvgl/src/extra/widgets/dclock/lv_dclock.c ****     return LV_DCLOCK_TEXT_SELECTION_OFF;
 192:lvgl/src/extra/widgets/dclock/lv_dclock.c **** #endif
 193:lvgl/src/extra/widgets/dclock/lv_dclock.c **** }
 194:lvgl/src/extra/widgets/dclock/lv_dclock.c **** 
 195:lvgl/src/extra/widgets/dclock/lv_dclock.c **** 
 196:lvgl/src/extra/widgets/dclock/lv_dclock.c **** /*=====================
 197:lvgl/src/extra/widgets/dclock/lv_dclock.c ****  * Other functions
 198:lvgl/src/extra/widgets/dclock/lv_dclock.c ****  *====================*/
 199:lvgl/src/extra/widgets/dclock/lv_dclock.c **** 
 200:lvgl/src/extra/widgets/dclock/lv_dclock.c **** /**
 201:lvgl/src/extra/widgets/dclock/lv_dclock.c ****  * @brief           Calculate the digital clock by the 24-hours mode
 202:lvgl/src/extra/widgets/dclock/lv_dclock.c ****  * @param obj       pointer to the values for hour/minute/seconds and the bool value to select AM/P
ARM GAS  C:\usertemp\ccL9DfK7.s 			page 5


 203:lvgl/src/extra/widgets/dclock/lv_dclock.c ****  * @return          selection end index. The function of lv_dclock_24_timer_cb will call it.
 204:lvgl/src/extra/widgets/dclock/lv_dclock.c ****  */
 205:lvgl/src/extra/widgets/dclock/lv_dclock.c **** void clock_count_24(int * hour, int * minute, int * seconds)
 206:lvgl/src/extra/widgets/dclock/lv_dclock.c **** {
 207:lvgl/src/extra/widgets/dclock/lv_dclock.c ****     (*seconds)++;
 208:lvgl/src/extra/widgets/dclock/lv_dclock.c **** 
 209:lvgl/src/extra/widgets/dclock/lv_dclock.c ****     if(*seconds == 60) {
 210:lvgl/src/extra/widgets/dclock/lv_dclock.c ****         *seconds = 0;
 211:lvgl/src/extra/widgets/dclock/lv_dclock.c ****         (*minute)++;
 212:lvgl/src/extra/widgets/dclock/lv_dclock.c ****     }
 213:lvgl/src/extra/widgets/dclock/lv_dclock.c **** 
 214:lvgl/src/extra/widgets/dclock/lv_dclock.c ****     if(*minute == 60) {
 215:lvgl/src/extra/widgets/dclock/lv_dclock.c ****         *minute = 0;
 216:lvgl/src/extra/widgets/dclock/lv_dclock.c ****         (*hour)++;
 217:lvgl/src/extra/widgets/dclock/lv_dclock.c ****     }
 218:lvgl/src/extra/widgets/dclock/lv_dclock.c **** 
 219:lvgl/src/extra/widgets/dclock/lv_dclock.c ****     if(*hour == 24) {
 220:lvgl/src/extra/widgets/dclock/lv_dclock.c ****         *hour = 0;
 221:lvgl/src/extra/widgets/dclock/lv_dclock.c ****     }
 222:lvgl/src/extra/widgets/dclock/lv_dclock.c **** }
 223:lvgl/src/extra/widgets/dclock/lv_dclock.c **** 
 224:lvgl/src/extra/widgets/dclock/lv_dclock.c **** /**
 225:lvgl/src/extra/widgets/dclock/lv_dclock.c ****  * @brief           Calculate the digital clock by the 12-hours mode
 226:lvgl/src/extra/widgets/dclock/lv_dclock.c ****  * @param obj       pointer to the values for hour/minute/seconds and the bool value to select AM/P
 227:lvgl/src/extra/widgets/dclock/lv_dclock.c ****  * @return          selection end index. The function of lv_dclock_12_timer_cb will call it.
 228:lvgl/src/extra/widgets/dclock/lv_dclock.c ****  */
 229:lvgl/src/extra/widgets/dclock/lv_dclock.c **** void clock_count_12(int * hour, int * minute, int * seconds, char * meridiem)
 230:lvgl/src/extra/widgets/dclock/lv_dclock.c **** {
 231:lvgl/src/extra/widgets/dclock/lv_dclock.c **** 
 232:lvgl/src/extra/widgets/dclock/lv_dclock.c ****     (*seconds)++;
 233:lvgl/src/extra/widgets/dclock/lv_dclock.c ****     if(*seconds == 60) {
 234:lvgl/src/extra/widgets/dclock/lv_dclock.c ****         *seconds = 0;
 235:lvgl/src/extra/widgets/dclock/lv_dclock.c ****         (*minute)++;
 236:lvgl/src/extra/widgets/dclock/lv_dclock.c ****     }
 237:lvgl/src/extra/widgets/dclock/lv_dclock.c ****     if(*minute == 60) {
 238:lvgl/src/extra/widgets/dclock/lv_dclock.c ****         *minute = 0;
 239:lvgl/src/extra/widgets/dclock/lv_dclock.c ****         if(*hour < 12) {
 240:lvgl/src/extra/widgets/dclock/lv_dclock.c ****             (*hour)++;
 241:lvgl/src/extra/widgets/dclock/lv_dclock.c ****         }
 242:lvgl/src/extra/widgets/dclock/lv_dclock.c ****         else {
 243:lvgl/src/extra/widgets/dclock/lv_dclock.c ****             (*hour)++;
 244:lvgl/src/extra/widgets/dclock/lv_dclock.c ****             (*hour) = (*hour) % 12;
 245:lvgl/src/extra/widgets/dclock/lv_dclock.c ****         }
 246:lvgl/src/extra/widgets/dclock/lv_dclock.c ****     }
 247:lvgl/src/extra/widgets/dclock/lv_dclock.c ****     if(*hour == 12 && *seconds == 0 && *minute == 0) {
 248:lvgl/src/extra/widgets/dclock/lv_dclock.c ****         if((strcmp(meridiem, "PM") == 0)) {
 249:lvgl/src/extra/widgets/dclock/lv_dclock.c ****             strcpy(meridiem, "AM");
 250:lvgl/src/extra/widgets/dclock/lv_dclock.c ****         }
 251:lvgl/src/extra/widgets/dclock/lv_dclock.c ****         else {
 252:lvgl/src/extra/widgets/dclock/lv_dclock.c ****             strcpy(meridiem, "PM");
 253:lvgl/src/extra/widgets/dclock/lv_dclock.c ****         }
 254:lvgl/src/extra/widgets/dclock/lv_dclock.c ****     }
 255:lvgl/src/extra/widgets/dclock/lv_dclock.c **** }
 256:lvgl/src/extra/widgets/dclock/lv_dclock.c **** 
 257:lvgl/src/extra/widgets/dclock/lv_dclock.c **** 
 258:lvgl/src/extra/widgets/dclock/lv_dclock.c **** /**********************
 259:lvgl/src/extra/widgets/dclock/lv_dclock.c ****  *   STATIC FUNCTIONS
ARM GAS  C:\usertemp\ccL9DfK7.s 			page 6


 260:lvgl/src/extra/widgets/dclock/lv_dclock.c ****  **********************/
 261:lvgl/src/extra/widgets/dclock/lv_dclock.c **** 
 262:lvgl/src/extra/widgets/dclock/lv_dclock.c **** static void lv_dclock_constructor(const lv_obj_class_t * class_p, lv_obj_t * obj)
 263:lvgl/src/extra/widgets/dclock/lv_dclock.c **** {
 264:lvgl/src/extra/widgets/dclock/lv_dclock.c ****     LV_UNUSED(class_p);
 265:lvgl/src/extra/widgets/dclock/lv_dclock.c ****     LV_TRACE_OBJ_CREATE("begin");
 266:lvgl/src/extra/widgets/dclock/lv_dclock.c **** 
 267:lvgl/src/extra/widgets/dclock/lv_dclock.c ****     lv_dclock_t * dclock = (lv_dclock_t *)obj;
 268:lvgl/src/extra/widgets/dclock/lv_dclock.c **** 
 269:lvgl/src/extra/widgets/dclock/lv_dclock.c ****     dclock->text       = NULL;
 270:lvgl/src/extra/widgets/dclock/lv_dclock.c ****     dclock->static_txt = 0;
 271:lvgl/src/extra/widgets/dclock/lv_dclock.c ****     dclock->recolor    = 0;
 272:lvgl/src/extra/widgets/dclock/lv_dclock.c ****     dclock->offset.x = 0;
 273:lvgl/src/extra/widgets/dclock/lv_dclock.c ****     dclock->offset.y = 0;
 274:lvgl/src/extra/widgets/dclock/lv_dclock.c **** 
 275:lvgl/src/extra/widgets/dclock/lv_dclock.c **** #if LV_DCLOCK_TEXT_SELECTION
 276:lvgl/src/extra/widgets/dclock/lv_dclock.c ****     dclock->sel_start = LV_DRAW_LABEL_NO_TXT_SEL;
 277:lvgl/src/extra/widgets/dclock/lv_dclock.c ****     dclock->sel_end   = LV_DRAW_LABEL_NO_TXT_SEL;
 278:lvgl/src/extra/widgets/dclock/lv_dclock.c **** #endif
 279:lvgl/src/extra/widgets/dclock/lv_dclock.c **** 
 280:lvgl/src/extra/widgets/dclock/lv_dclock.c ****     lv_obj_clear_flag(obj, LV_OBJ_FLAG_CLICKABLE);
 281:lvgl/src/extra/widgets/dclock/lv_dclock.c **** 
 282:lvgl/src/extra/widgets/dclock/lv_dclock.c ****     LV_TRACE_OBJ_CREATE("finished");
 283:lvgl/src/extra/widgets/dclock/lv_dclock.c **** }
 284:lvgl/src/extra/widgets/dclock/lv_dclock.c **** 
 285:lvgl/src/extra/widgets/dclock/lv_dclock.c **** static void lv_dclock_destructor(const lv_obj_class_t * class_p, lv_obj_t * obj)
 286:lvgl/src/extra/widgets/dclock/lv_dclock.c **** {
 287:lvgl/src/extra/widgets/dclock/lv_dclock.c ****     LV_UNUSED(class_p);
 288:lvgl/src/extra/widgets/dclock/lv_dclock.c ****     lv_dclock_t * dclock = (lv_dclock_t *)obj;
 289:lvgl/src/extra/widgets/dclock/lv_dclock.c **** 
 290:lvgl/src/extra/widgets/dclock/lv_dclock.c ****     if(!dclock->static_txt) lv_mem_free(dclock->text);
 291:lvgl/src/extra/widgets/dclock/lv_dclock.c ****     dclock->text = NULL;
 292:lvgl/src/extra/widgets/dclock/lv_dclock.c **** }
 293:lvgl/src/extra/widgets/dclock/lv_dclock.c **** 
 294:lvgl/src/extra/widgets/dclock/lv_dclock.c **** static void lv_dclock_event(const lv_obj_class_t * class_p, lv_event_t * e)
 295:lvgl/src/extra/widgets/dclock/lv_dclock.c **** {
 296:lvgl/src/extra/widgets/dclock/lv_dclock.c ****     LV_UNUSED(class_p);
 297:lvgl/src/extra/widgets/dclock/lv_dclock.c **** 
 298:lvgl/src/extra/widgets/dclock/lv_dclock.c ****     lv_res_t res;
 299:lvgl/src/extra/widgets/dclock/lv_dclock.c **** 
 300:lvgl/src/extra/widgets/dclock/lv_dclock.c ****     /*Call the ancestor's event handler*/
 301:lvgl/src/extra/widgets/dclock/lv_dclock.c ****     res = lv_obj_event_base(MY_CLASS, e);
 302:lvgl/src/extra/widgets/dclock/lv_dclock.c ****     if(res != LV_RES_OK) return;
 303:lvgl/src/extra/widgets/dclock/lv_dclock.c **** 
 304:lvgl/src/extra/widgets/dclock/lv_dclock.c ****     lv_event_code_t code = lv_event_get_code(e);
 305:lvgl/src/extra/widgets/dclock/lv_dclock.c ****     lv_obj_t * obj = lv_event_get_target(e);
 306:lvgl/src/extra/widgets/dclock/lv_dclock.c **** 
 307:lvgl/src/extra/widgets/dclock/lv_dclock.c ****     if(code == LV_EVENT_STYLE_CHANGED) {
 308:lvgl/src/extra/widgets/dclock/lv_dclock.c ****         lv_dclock_refr_text(obj);
 309:lvgl/src/extra/widgets/dclock/lv_dclock.c ****     }
 310:lvgl/src/extra/widgets/dclock/lv_dclock.c ****     else if(code == LV_EVENT_REFR_EXT_DRAW_SIZE) {
 311:lvgl/src/extra/widgets/dclock/lv_dclock.c ****         /* Italic or other non-typical letters can be drawn of out of the object.
 312:lvgl/src/extra/widgets/dclock/lv_dclock.c ****          * It happens if box_w + ofs_x > adw_w in the glyph.
 313:lvgl/src/extra/widgets/dclock/lv_dclock.c ****          * To avoid this add some extra draw area.
 314:lvgl/src/extra/widgets/dclock/lv_dclock.c ****          * font_h / 4 is an empirical value. */
 315:lvgl/src/extra/widgets/dclock/lv_dclock.c ****         const lv_font_t * font = lv_obj_get_style_text_font(obj, LV_PART_MAIN);
 316:lvgl/src/extra/widgets/dclock/lv_dclock.c ****         lv_coord_t font_h = lv_font_get_line_height(font);
ARM GAS  C:\usertemp\ccL9DfK7.s 			page 7


 317:lvgl/src/extra/widgets/dclock/lv_dclock.c ****         lv_event_set_ext_draw_size(e, font_h / 4);
 318:lvgl/src/extra/widgets/dclock/lv_dclock.c ****     }
 319:lvgl/src/extra/widgets/dclock/lv_dclock.c ****     else if(code == LV_EVENT_SIZE_CHANGED) {
 320:lvgl/src/extra/widgets/dclock/lv_dclock.c ****         lv_dclock_refr_text(obj);
 321:lvgl/src/extra/widgets/dclock/lv_dclock.c ****     }
 322:lvgl/src/extra/widgets/dclock/lv_dclock.c ****     else if(code == LV_EVENT_GET_SELF_SIZE) {
 323:lvgl/src/extra/widgets/dclock/lv_dclock.c ****         lv_point_t size;
 324:lvgl/src/extra/widgets/dclock/lv_dclock.c ****         lv_dclock_t * dclock = (lv_dclock_t *)obj;
 325:lvgl/src/extra/widgets/dclock/lv_dclock.c ****         const lv_font_t * font = lv_obj_get_style_text_font(obj, LV_PART_MAIN);
 326:lvgl/src/extra/widgets/dclock/lv_dclock.c ****         lv_coord_t letter_space = lv_obj_get_style_text_letter_space(obj, LV_PART_MAIN);
 327:lvgl/src/extra/widgets/dclock/lv_dclock.c ****         lv_coord_t line_space = lv_obj_get_style_text_line_space(obj, LV_PART_MAIN);
 328:lvgl/src/extra/widgets/dclock/lv_dclock.c ****         lv_text_flag_t flag = LV_TEXT_FLAG_NONE;
 329:lvgl/src/extra/widgets/dclock/lv_dclock.c ****         if(dclock->recolor != 0) flag |= LV_TEXT_FLAG_RECOLOR;
 330:lvgl/src/extra/widgets/dclock/lv_dclock.c ****         if(dclock->expand != 0) flag |= LV_TEXT_FLAG_EXPAND;
 331:lvgl/src/extra/widgets/dclock/lv_dclock.c **** 
 332:lvgl/src/extra/widgets/dclock/lv_dclock.c ****         lv_coord_t w = lv_obj_get_content_width(obj);
 333:lvgl/src/extra/widgets/dclock/lv_dclock.c ****         if(lv_obj_get_style_width(obj, LV_PART_MAIN) == LV_SIZE_CONTENT && !obj->w_layout) w = LV_C
 334:lvgl/src/extra/widgets/dclock/lv_dclock.c ****         else w = lv_obj_get_content_width(obj);
 335:lvgl/src/extra/widgets/dclock/lv_dclock.c **** 
 336:lvgl/src/extra/widgets/dclock/lv_dclock.c ****         lv_txt_get_size(&size, dclock->text, font, letter_space, line_space, w, flag);
 337:lvgl/src/extra/widgets/dclock/lv_dclock.c **** 
 338:lvgl/src/extra/widgets/dclock/lv_dclock.c ****         lv_point_t * self_size = lv_event_get_param(e);
 339:lvgl/src/extra/widgets/dclock/lv_dclock.c ****         self_size->x = LV_MAX(self_size->x, size.x);
 340:lvgl/src/extra/widgets/dclock/lv_dclock.c ****         self_size->y = LV_MAX(self_size->y, size.y);
 341:lvgl/src/extra/widgets/dclock/lv_dclock.c ****     }
 342:lvgl/src/extra/widgets/dclock/lv_dclock.c ****     else if(code == LV_EVENT_DRAW_MAIN) {
 343:lvgl/src/extra/widgets/dclock/lv_dclock.c ****         draw_main(e);
 344:lvgl/src/extra/widgets/dclock/lv_dclock.c ****     }
 345:lvgl/src/extra/widgets/dclock/lv_dclock.c **** }
 346:lvgl/src/extra/widgets/dclock/lv_dclock.c **** 
 347:lvgl/src/extra/widgets/dclock/lv_dclock.c **** static void draw_main(lv_event_t * e)
 348:lvgl/src/extra/widgets/dclock/lv_dclock.c **** {
 349:lvgl/src/extra/widgets/dclock/lv_dclock.c ****     lv_obj_t * obj = lv_event_get_target(e);
 350:lvgl/src/extra/widgets/dclock/lv_dclock.c ****     lv_dclock_t * dclock = (lv_dclock_t *)obj;
 351:lvgl/src/extra/widgets/dclock/lv_dclock.c ****     lv_draw_ctx_t * draw_ctx = lv_event_get_draw_ctx(e);
 352:lvgl/src/extra/widgets/dclock/lv_dclock.c **** 
 353:lvgl/src/extra/widgets/dclock/lv_dclock.c ****     lv_area_t txt_coords;
 354:lvgl/src/extra/widgets/dclock/lv_dclock.c ****     lv_obj_get_content_coords(obj, &txt_coords);
 355:lvgl/src/extra/widgets/dclock/lv_dclock.c **** 
 356:lvgl/src/extra/widgets/dclock/lv_dclock.c ****     lv_text_flag_t flag = LV_TEXT_FLAG_NONE;
 357:lvgl/src/extra/widgets/dclock/lv_dclock.c ****     if(dclock->recolor != 0) flag |= LV_TEXT_FLAG_RECOLOR;
 358:lvgl/src/extra/widgets/dclock/lv_dclock.c ****     if(dclock->expand != 0) flag |= LV_TEXT_FLAG_EXPAND;
 359:lvgl/src/extra/widgets/dclock/lv_dclock.c ****     if(lv_obj_get_style_width(obj, LV_PART_MAIN) == LV_SIZE_CONTENT && !obj->w_layout) flag |= LV_T
 360:lvgl/src/extra/widgets/dclock/lv_dclock.c **** 
 361:lvgl/src/extra/widgets/dclock/lv_dclock.c ****     lv_draw_label_dsc_t dclock_draw_dsc;
 362:lvgl/src/extra/widgets/dclock/lv_dclock.c ****     lv_draw_label_dsc_init(&dclock_draw_dsc);
 363:lvgl/src/extra/widgets/dclock/lv_dclock.c **** 
 364:lvgl/src/extra/widgets/dclock/lv_dclock.c ****     dclock_draw_dsc.ofs_x = dclock->offset.x;
 365:lvgl/src/extra/widgets/dclock/lv_dclock.c ****     dclock_draw_dsc.ofs_y = dclock->offset.y;
 366:lvgl/src/extra/widgets/dclock/lv_dclock.c **** 
 367:lvgl/src/extra/widgets/dclock/lv_dclock.c ****     dclock_draw_dsc.flag = flag;
 368:lvgl/src/extra/widgets/dclock/lv_dclock.c ****     lv_obj_init_draw_label_dsc(obj, LV_PART_MAIN, &dclock_draw_dsc);
 369:lvgl/src/extra/widgets/dclock/lv_dclock.c ****     lv_bidi_calculate_align(&dclock_draw_dsc.align, &dclock_draw_dsc.bidi_dir, dclock->text);
 370:lvgl/src/extra/widgets/dclock/lv_dclock.c **** 
 371:lvgl/src/extra/widgets/dclock/lv_dclock.c ****     dclock_draw_dsc.sel_start = lv_dclock_get_text_selection_start(obj);
 372:lvgl/src/extra/widgets/dclock/lv_dclock.c ****     dclock_draw_dsc.sel_end = lv_dclock_get_text_selection_end(obj);
 373:lvgl/src/extra/widgets/dclock/lv_dclock.c ****     if(dclock_draw_dsc.sel_start != LV_DRAW_LABEL_NO_TXT_SEL && dclock_draw_dsc.sel_end != LV_DRAW_
ARM GAS  C:\usertemp\ccL9DfK7.s 			page 8


 374:lvgl/src/extra/widgets/dclock/lv_dclock.c ****         dclock_draw_dsc.sel_color = lv_obj_get_style_text_color_filtered(obj, LV_PART_SELECTED);
 375:lvgl/src/extra/widgets/dclock/lv_dclock.c ****         dclock_draw_dsc.sel_bg_color = lv_obj_get_style_bg_color(obj, LV_PART_SELECTED);
 376:lvgl/src/extra/widgets/dclock/lv_dclock.c ****     }
 377:lvgl/src/extra/widgets/dclock/lv_dclock.c **** 
 378:lvgl/src/extra/widgets/dclock/lv_dclock.c ****     /* In SCROLL and SCROLL_CIRCULAR mode the CENTER and RIGHT are pointless, so remove them.
 379:lvgl/src/extra/widgets/dclock/lv_dclock.c ****      * (In addition, they will create misalignment in this situation)*/
 380:lvgl/src/extra/widgets/dclock/lv_dclock.c **** 
 381:lvgl/src/extra/widgets/dclock/lv_dclock.c **** #if LV_DCLOCK_LONG_TXT_HINT
 382:lvgl/src/extra/widgets/dclock/lv_dclock.c ****     lv_draw_label_hint_t * hint = &dclock->hint;
 383:lvgl/src/extra/widgets/dclock/lv_dclock.c ****     if(dclock->long_mode == LV_DCLOCK_LONG_SCROLL_CIRCULAR || lv_area_get_height(&txt_coords) < LV_
 384:lvgl/src/extra/widgets/dclock/lv_dclock.c ****         hint = NULL;
 385:lvgl/src/extra/widgets/dclock/lv_dclock.c **** 
 386:lvgl/src/extra/widgets/dclock/lv_dclock.c **** #else
 387:lvgl/src/extra/widgets/dclock/lv_dclock.c ****     /*Just for compatibility*/
 388:lvgl/src/extra/widgets/dclock/lv_dclock.c ****     lv_draw_label_hint_t * hint = NULL;
 389:lvgl/src/extra/widgets/dclock/lv_dclock.c **** #endif
 390:lvgl/src/extra/widgets/dclock/lv_dclock.c **** 
 391:lvgl/src/extra/widgets/dclock/lv_dclock.c ****     lv_area_t txt_clip;
 392:lvgl/src/extra/widgets/dclock/lv_dclock.c ****     bool is_common = _lv_area_intersect(&txt_clip, &txt_coords, draw_ctx->clip_area);
 393:lvgl/src/extra/widgets/dclock/lv_dclock.c ****     if(!is_common) return;
 394:lvgl/src/extra/widgets/dclock/lv_dclock.c **** 
 395:lvgl/src/extra/widgets/dclock/lv_dclock.c ****     lv_draw_label(draw_ctx, &dclock_draw_dsc, &txt_coords, dclock->text, hint); /// copy the above 
 396:lvgl/src/extra/widgets/dclock/lv_dclock.c ****     const lv_area_t * clip_area_ori = draw_ctx->clip_area;
 397:lvgl/src/extra/widgets/dclock/lv_dclock.c ****     draw_ctx->clip_area = &txt_clip;
 398:lvgl/src/extra/widgets/dclock/lv_dclock.c **** 
 399:lvgl/src/extra/widgets/dclock/lv_dclock.c ****     draw_ctx->clip_area = clip_area_ori;
 400:lvgl/src/extra/widgets/dclock/lv_dclock.c **** }
 401:lvgl/src/extra/widgets/dclock/lv_dclock.c **** 
 402:lvgl/src/extra/widgets/dclock/lv_dclock.c **** /**
 403:lvgl/src/extra/widgets/dclock/lv_dclock.c ****  * Refresh the dclock with its text stored in its extended data
 404:lvgl/src/extra/widgets/dclock/lv_dclock.c ****  * @param dclock pointer to a label object
 405:lvgl/src/extra/widgets/dclock/lv_dclock.c ****  */
 406:lvgl/src/extra/widgets/dclock/lv_dclock.c **** static void lv_dclock_refr_text(lv_obj_t * obj)
 407:lvgl/src/extra/widgets/dclock/lv_dclock.c **** {
  28              		.loc 1 407 1 view -0
  29              		.cfi_startproc
  30              		@ args = 0, pretend = 0, frame = 16
  31              		@ frame_needed = 0, uses_anonymous_args = 0
 408:lvgl/src/extra/widgets/dclock/lv_dclock.c **** 
 409:lvgl/src/extra/widgets/dclock/lv_dclock.c ****     lv_dclock_t * dclock = (lv_dclock_t *)obj;
  32              		.loc 1 409 5 view .LVU1
 410:lvgl/src/extra/widgets/dclock/lv_dclock.c ****     if(dclock->text == NULL) return;
  33              		.loc 1 410 5 view .LVU2
  34              		.loc 1 410 14 is_stmt 0 view .LVU3
  35 0000 436A     		ldr	r3, [r0, #36]
  36              		.loc 1 410 7 view .LVU4
  37 0002 002B     		cmp	r3, #0
  38 0004 57D0     		beq	.L9
 407:lvgl/src/extra/widgets/dclock/lv_dclock.c **** 
  39              		.loc 1 407 1 view .LVU5
  40 0006 2DE9F043 		push	{r4, r5, r6, r7, r8, r9, lr}
  41              	.LCFI0:
  42              		.cfi_def_cfa_offset 28
  43              		.cfi_offset 4, -28
  44              		.cfi_offset 5, -24
  45              		.cfi_offset 6, -20
  46              		.cfi_offset 7, -16
ARM GAS  C:\usertemp\ccL9DfK7.s 			page 9


  47              		.cfi_offset 8, -12
  48              		.cfi_offset 9, -8
  49              		.cfi_offset 14, -4
  50 000a 89B0     		sub	sp, sp, #36
  51              	.LCFI1:
  52              		.cfi_def_cfa_offset 64
  53 000c 0446     		mov	r4, r0
 411:lvgl/src/extra/widgets/dclock/lv_dclock.c **** #if LV_DCLOCK_LONG_TXT_HINT
 412:lvgl/src/extra/widgets/dclock/lv_dclock.c ****     dclock->hint.line_start = -1; /*The hint is invalid if the text changes*/
 413:lvgl/src/extra/widgets/dclock/lv_dclock.c **** #endif
 414:lvgl/src/extra/widgets/dclock/lv_dclock.c **** 
 415:lvgl/src/extra/widgets/dclock/lv_dclock.c ****     lv_area_t txt_coords;
  54              		.loc 1 415 5 is_stmt 1 view .LVU6
 416:lvgl/src/extra/widgets/dclock/lv_dclock.c ****     lv_obj_get_content_coords(obj, &txt_coords);
  55              		.loc 1 416 5 view .LVU7
  56 000e 06A9     		add	r1, sp, #24
  57 0010 FFF7FEFF 		bl	lv_obj_get_content_coords
  58              	.LVL1:
 417:lvgl/src/extra/widgets/dclock/lv_dclock.c ****     lv_coord_t max_w         = lv_area_get_width(&txt_coords);
  59              		.loc 1 417 5 view .LVU8
  60              	.LBB34:
  61              	.LBI34:
  62              		.file 2 "D:/update_2024EL/changeform/743zit6/lvgl/src/misc/lv_area.h"
   1:D:/update_2024EL/changeform/743zit6/lvgl/src/misc\lv_area.h **** /**
   2:D:/update_2024EL/changeform/743zit6/lvgl/src/misc\lv_area.h ****  * @file lv_area.h
   3:D:/update_2024EL/changeform/743zit6/lvgl/src/misc\lv_area.h ****  *
   4:D:/update_2024EL/changeform/743zit6/lvgl/src/misc\lv_area.h ****  */
   5:D:/update_2024EL/changeform/743zit6/lvgl/src/misc\lv_area.h **** 
   6:D:/update_2024EL/changeform/743zit6/lvgl/src/misc\lv_area.h **** #ifndef LV_AREA_H
   7:D:/update_2024EL/changeform/743zit6/lvgl/src/misc\lv_area.h **** #define LV_AREA_H
   8:D:/update_2024EL/changeform/743zit6/lvgl/src/misc\lv_area.h **** 
   9:D:/update_2024EL/changeform/743zit6/lvgl/src/misc\lv_area.h **** #ifdef __cplusplus
  10:D:/update_2024EL/changeform/743zit6/lvgl/src/misc\lv_area.h **** extern "C" {
  11:D:/update_2024EL/changeform/743zit6/lvgl/src/misc\lv_area.h **** #endif
  12:D:/update_2024EL/changeform/743zit6/lvgl/src/misc\lv_area.h **** 
  13:D:/update_2024EL/changeform/743zit6/lvgl/src/misc\lv_area.h **** /*********************
  14:D:/update_2024EL/changeform/743zit6/lvgl/src/misc\lv_area.h ****  *      INCLUDES
  15:D:/update_2024EL/changeform/743zit6/lvgl/src/misc\lv_area.h ****  *********************/
  16:D:/update_2024EL/changeform/743zit6/lvgl/src/misc\lv_area.h **** #include "../lv_conf_internal.h"
  17:D:/update_2024EL/changeform/743zit6/lvgl/src/misc\lv_area.h **** #include <stdbool.h>
  18:D:/update_2024EL/changeform/743zit6/lvgl/src/misc\lv_area.h **** #include <stdint.h>
  19:D:/update_2024EL/changeform/743zit6/lvgl/src/misc\lv_area.h **** 
  20:D:/update_2024EL/changeform/743zit6/lvgl/src/misc\lv_area.h **** /*********************
  21:D:/update_2024EL/changeform/743zit6/lvgl/src/misc\lv_area.h ****  *      DEFINES
  22:D:/update_2024EL/changeform/743zit6/lvgl/src/misc\lv_area.h ****  *********************/
  23:D:/update_2024EL/changeform/743zit6/lvgl/src/misc\lv_area.h **** 
  24:D:/update_2024EL/changeform/743zit6/lvgl/src/misc\lv_area.h **** #if LV_USE_LARGE_COORD
  25:D:/update_2024EL/changeform/743zit6/lvgl/src/misc\lv_area.h **** typedef int32_t lv_coord_t;
  26:D:/update_2024EL/changeform/743zit6/lvgl/src/misc\lv_area.h **** #else
  27:D:/update_2024EL/changeform/743zit6/lvgl/src/misc\lv_area.h **** typedef int16_t lv_coord_t;
  28:D:/update_2024EL/changeform/743zit6/lvgl/src/misc\lv_area.h **** #endif
  29:D:/update_2024EL/changeform/743zit6/lvgl/src/misc\lv_area.h **** 
  30:D:/update_2024EL/changeform/743zit6/lvgl/src/misc\lv_area.h **** /**********************
  31:D:/update_2024EL/changeform/743zit6/lvgl/src/misc\lv_area.h ****  *      TYPEDEFS
  32:D:/update_2024EL/changeform/743zit6/lvgl/src/misc\lv_area.h ****  **********************/
  33:D:/update_2024EL/changeform/743zit6/lvgl/src/misc\lv_area.h **** 
  34:D:/update_2024EL/changeform/743zit6/lvgl/src/misc\lv_area.h **** /**
ARM GAS  C:\usertemp\ccL9DfK7.s 			page 10


  35:D:/update_2024EL/changeform/743zit6/lvgl/src/misc\lv_area.h ****  * Represents a point on the screen.
  36:D:/update_2024EL/changeform/743zit6/lvgl/src/misc\lv_area.h ****  */
  37:D:/update_2024EL/changeform/743zit6/lvgl/src/misc\lv_area.h **** typedef struct {
  38:D:/update_2024EL/changeform/743zit6/lvgl/src/misc\lv_area.h ****     lv_coord_t x;
  39:D:/update_2024EL/changeform/743zit6/lvgl/src/misc\lv_area.h ****     lv_coord_t y;
  40:D:/update_2024EL/changeform/743zit6/lvgl/src/misc\lv_area.h **** } lv_point_t;
  41:D:/update_2024EL/changeform/743zit6/lvgl/src/misc\lv_area.h **** 
  42:D:/update_2024EL/changeform/743zit6/lvgl/src/misc\lv_area.h **** /** Represents an area of the screen.*/
  43:D:/update_2024EL/changeform/743zit6/lvgl/src/misc\lv_area.h **** typedef struct {
  44:D:/update_2024EL/changeform/743zit6/lvgl/src/misc\lv_area.h ****     lv_coord_t x1;
  45:D:/update_2024EL/changeform/743zit6/lvgl/src/misc\lv_area.h ****     lv_coord_t y1;
  46:D:/update_2024EL/changeform/743zit6/lvgl/src/misc\lv_area.h ****     lv_coord_t x2;
  47:D:/update_2024EL/changeform/743zit6/lvgl/src/misc\lv_area.h ****     lv_coord_t y2;
  48:D:/update_2024EL/changeform/743zit6/lvgl/src/misc\lv_area.h **** } lv_area_t;
  49:D:/update_2024EL/changeform/743zit6/lvgl/src/misc\lv_area.h **** 
  50:D:/update_2024EL/changeform/743zit6/lvgl/src/misc\lv_area.h **** /** Alignments*/
  51:D:/update_2024EL/changeform/743zit6/lvgl/src/misc\lv_area.h **** enum {
  52:D:/update_2024EL/changeform/743zit6/lvgl/src/misc\lv_area.h ****     LV_ALIGN_DEFAULT = 0,
  53:D:/update_2024EL/changeform/743zit6/lvgl/src/misc\lv_area.h ****     LV_ALIGN_TOP_LEFT,
  54:D:/update_2024EL/changeform/743zit6/lvgl/src/misc\lv_area.h ****     LV_ALIGN_TOP_MID,
  55:D:/update_2024EL/changeform/743zit6/lvgl/src/misc\lv_area.h ****     LV_ALIGN_TOP_RIGHT,
  56:D:/update_2024EL/changeform/743zit6/lvgl/src/misc\lv_area.h ****     LV_ALIGN_BOTTOM_LEFT,
  57:D:/update_2024EL/changeform/743zit6/lvgl/src/misc\lv_area.h ****     LV_ALIGN_BOTTOM_MID,
  58:D:/update_2024EL/changeform/743zit6/lvgl/src/misc\lv_area.h ****     LV_ALIGN_BOTTOM_RIGHT,
  59:D:/update_2024EL/changeform/743zit6/lvgl/src/misc\lv_area.h ****     LV_ALIGN_LEFT_MID,
  60:D:/update_2024EL/changeform/743zit6/lvgl/src/misc\lv_area.h ****     LV_ALIGN_RIGHT_MID,
  61:D:/update_2024EL/changeform/743zit6/lvgl/src/misc\lv_area.h ****     LV_ALIGN_CENTER,
  62:D:/update_2024EL/changeform/743zit6/lvgl/src/misc\lv_area.h **** 
  63:D:/update_2024EL/changeform/743zit6/lvgl/src/misc\lv_area.h ****     LV_ALIGN_OUT_TOP_LEFT,
  64:D:/update_2024EL/changeform/743zit6/lvgl/src/misc\lv_area.h ****     LV_ALIGN_OUT_TOP_MID,
  65:D:/update_2024EL/changeform/743zit6/lvgl/src/misc\lv_area.h ****     LV_ALIGN_OUT_TOP_RIGHT,
  66:D:/update_2024EL/changeform/743zit6/lvgl/src/misc\lv_area.h ****     LV_ALIGN_OUT_BOTTOM_LEFT,
  67:D:/update_2024EL/changeform/743zit6/lvgl/src/misc\lv_area.h ****     LV_ALIGN_OUT_BOTTOM_MID,
  68:D:/update_2024EL/changeform/743zit6/lvgl/src/misc\lv_area.h ****     LV_ALIGN_OUT_BOTTOM_RIGHT,
  69:D:/update_2024EL/changeform/743zit6/lvgl/src/misc\lv_area.h ****     LV_ALIGN_OUT_LEFT_TOP,
  70:D:/update_2024EL/changeform/743zit6/lvgl/src/misc\lv_area.h ****     LV_ALIGN_OUT_LEFT_MID,
  71:D:/update_2024EL/changeform/743zit6/lvgl/src/misc\lv_area.h ****     LV_ALIGN_OUT_LEFT_BOTTOM,
  72:D:/update_2024EL/changeform/743zit6/lvgl/src/misc\lv_area.h ****     LV_ALIGN_OUT_RIGHT_TOP,
  73:D:/update_2024EL/changeform/743zit6/lvgl/src/misc\lv_area.h ****     LV_ALIGN_OUT_RIGHT_MID,
  74:D:/update_2024EL/changeform/743zit6/lvgl/src/misc\lv_area.h ****     LV_ALIGN_OUT_RIGHT_BOTTOM,
  75:D:/update_2024EL/changeform/743zit6/lvgl/src/misc\lv_area.h **** };
  76:D:/update_2024EL/changeform/743zit6/lvgl/src/misc\lv_area.h **** typedef uint8_t lv_align_t;
  77:D:/update_2024EL/changeform/743zit6/lvgl/src/misc\lv_area.h **** 
  78:D:/update_2024EL/changeform/743zit6/lvgl/src/misc\lv_area.h **** enum {
  79:D:/update_2024EL/changeform/743zit6/lvgl/src/misc\lv_area.h ****     LV_DIR_NONE     = 0x00,
  80:D:/update_2024EL/changeform/743zit6/lvgl/src/misc\lv_area.h ****     LV_DIR_LEFT     = (1 << 0),
  81:D:/update_2024EL/changeform/743zit6/lvgl/src/misc\lv_area.h ****     LV_DIR_RIGHT    = (1 << 1),
  82:D:/update_2024EL/changeform/743zit6/lvgl/src/misc\lv_area.h ****     LV_DIR_TOP      = (1 << 2),
  83:D:/update_2024EL/changeform/743zit6/lvgl/src/misc\lv_area.h ****     LV_DIR_BOTTOM   = (1 << 3),
  84:D:/update_2024EL/changeform/743zit6/lvgl/src/misc\lv_area.h ****     LV_DIR_HOR      = LV_DIR_LEFT | LV_DIR_RIGHT,
  85:D:/update_2024EL/changeform/743zit6/lvgl/src/misc\lv_area.h ****     LV_DIR_VER      = LV_DIR_TOP | LV_DIR_BOTTOM,
  86:D:/update_2024EL/changeform/743zit6/lvgl/src/misc\lv_area.h ****     LV_DIR_ALL      = LV_DIR_HOR | LV_DIR_VER,
  87:D:/update_2024EL/changeform/743zit6/lvgl/src/misc\lv_area.h **** };
  88:D:/update_2024EL/changeform/743zit6/lvgl/src/misc\lv_area.h **** 
  89:D:/update_2024EL/changeform/743zit6/lvgl/src/misc\lv_area.h **** typedef uint8_t lv_dir_t;
  90:D:/update_2024EL/changeform/743zit6/lvgl/src/misc\lv_area.h **** 
  91:D:/update_2024EL/changeform/743zit6/lvgl/src/misc\lv_area.h **** /**********************
ARM GAS  C:\usertemp\ccL9DfK7.s 			page 11


  92:D:/update_2024EL/changeform/743zit6/lvgl/src/misc\lv_area.h ****  * GLOBAL PROTOTYPES
  93:D:/update_2024EL/changeform/743zit6/lvgl/src/misc\lv_area.h ****  **********************/
  94:D:/update_2024EL/changeform/743zit6/lvgl/src/misc\lv_area.h **** 
  95:D:/update_2024EL/changeform/743zit6/lvgl/src/misc\lv_area.h **** /**
  96:D:/update_2024EL/changeform/743zit6/lvgl/src/misc\lv_area.h ****  * Initialize an area
  97:D:/update_2024EL/changeform/743zit6/lvgl/src/misc\lv_area.h ****  * @param area_p pointer to an area
  98:D:/update_2024EL/changeform/743zit6/lvgl/src/misc\lv_area.h ****  * @param x1 left coordinate of the area
  99:D:/update_2024EL/changeform/743zit6/lvgl/src/misc\lv_area.h ****  * @param y1 top coordinate of the area
 100:D:/update_2024EL/changeform/743zit6/lvgl/src/misc\lv_area.h ****  * @param x2 right coordinate of the area
 101:D:/update_2024EL/changeform/743zit6/lvgl/src/misc\lv_area.h ****  * @param y2 bottom coordinate of the area
 102:D:/update_2024EL/changeform/743zit6/lvgl/src/misc\lv_area.h ****  */
 103:D:/update_2024EL/changeform/743zit6/lvgl/src/misc\lv_area.h **** void lv_area_set(lv_area_t * area_p, lv_coord_t x1, lv_coord_t y1, lv_coord_t x2, lv_coord_t y2);
 104:D:/update_2024EL/changeform/743zit6/lvgl/src/misc\lv_area.h **** 
 105:D:/update_2024EL/changeform/743zit6/lvgl/src/misc\lv_area.h **** /**
 106:D:/update_2024EL/changeform/743zit6/lvgl/src/misc\lv_area.h ****  * Copy an area
 107:D:/update_2024EL/changeform/743zit6/lvgl/src/misc\lv_area.h ****  * @param dest pointer to the destination area
 108:D:/update_2024EL/changeform/743zit6/lvgl/src/misc\lv_area.h ****  * @param src pointer to the source area
 109:D:/update_2024EL/changeform/743zit6/lvgl/src/misc\lv_area.h ****  */
 110:D:/update_2024EL/changeform/743zit6/lvgl/src/misc\lv_area.h **** inline static void lv_area_copy(lv_area_t * dest, const lv_area_t * src)
 111:D:/update_2024EL/changeform/743zit6/lvgl/src/misc\lv_area.h **** {
 112:D:/update_2024EL/changeform/743zit6/lvgl/src/misc\lv_area.h ****     dest->x1 = src->x1;
 113:D:/update_2024EL/changeform/743zit6/lvgl/src/misc\lv_area.h ****     dest->y1 = src->y1;
 114:D:/update_2024EL/changeform/743zit6/lvgl/src/misc\lv_area.h ****     dest->x2 = src->x2;
 115:D:/update_2024EL/changeform/743zit6/lvgl/src/misc\lv_area.h ****     dest->y2 = src->y2;
 116:D:/update_2024EL/changeform/743zit6/lvgl/src/misc\lv_area.h **** }
 117:D:/update_2024EL/changeform/743zit6/lvgl/src/misc\lv_area.h **** 
 118:D:/update_2024EL/changeform/743zit6/lvgl/src/misc\lv_area.h **** /**
 119:D:/update_2024EL/changeform/743zit6/lvgl/src/misc\lv_area.h ****  * Get the width of an area
 120:D:/update_2024EL/changeform/743zit6/lvgl/src/misc\lv_area.h ****  * @param area_p pointer to an area
 121:D:/update_2024EL/changeform/743zit6/lvgl/src/misc\lv_area.h ****  * @return the width of the area (if x1 == x2 -> width = 1)
 122:D:/update_2024EL/changeform/743zit6/lvgl/src/misc\lv_area.h ****  */
 123:D:/update_2024EL/changeform/743zit6/lvgl/src/misc\lv_area.h **** static inline lv_coord_t lv_area_get_width(const lv_area_t * area_p)
  63              		.loc 2 123 26 view .LVU9
  64              	.LBB35:
 124:D:/update_2024EL/changeform/743zit6/lvgl/src/misc\lv_area.h **** {
 125:D:/update_2024EL/changeform/743zit6/lvgl/src/misc\lv_area.h ****     return (lv_coord_t)(area_p->x2 - area_p->x1 + 1);
  65              		.loc 2 125 5 view .LVU10
  66              		.loc 2 125 31 is_stmt 0 view .LVU11
  67 0014 BDF81C50 		ldrh	r5, [sp, #28]
  68              		.loc 2 125 44 view .LVU12
  69 0018 BDF81830 		ldrh	r3, [sp, #24]
  70              		.loc 2 125 36 view .LVU13
  71 001c ED1A     		subs	r5, r5, r3
  72 001e ADB2     		uxth	r5, r5
  73              		.loc 2 125 49 view .LVU14
  74 0020 0135     		adds	r5, r5, #1
  75              		.loc 2 125 12 view .LVU15
  76 0022 2DB2     		sxth	r5, r5
  77              	.LVL2:
  78              		.loc 2 125 12 view .LVU16
  79              	.LBE35:
  80              	.LBE34:
 418:lvgl/src/extra/widgets/dclock/lv_dclock.c ****     const lv_font_t * font   = lv_obj_get_style_text_font(obj, LV_PART_MAIN);
  81              		.loc 1 418 5 is_stmt 1 view .LVU17
  82              	.LBB36:
  83              	.LBI36:
  84              		.file 3 "lvgl/src/extra/widgets/dclock/../../../core/lv_obj_style_gen.h"
ARM GAS  C:\usertemp\ccL9DfK7.s 			page 12


   1:lvgl/src/extra/widgets/dclock/../../../core/lv_obj_style_gen.h **** static inline lv_coord_t lv_obj_get_style_width(const struct _lv_obj_t * obj, uint32_t part)
   2:lvgl/src/extra/widgets/dclock/../../../core/lv_obj_style_gen.h **** {
   3:lvgl/src/extra/widgets/dclock/../../../core/lv_obj_style_gen.h ****     lv_style_value_t v = lv_obj_get_style_prop(obj, part, LV_STYLE_WIDTH);
   4:lvgl/src/extra/widgets/dclock/../../../core/lv_obj_style_gen.h ****     return (lv_coord_t)v.num;
   5:lvgl/src/extra/widgets/dclock/../../../core/lv_obj_style_gen.h **** }
   6:lvgl/src/extra/widgets/dclock/../../../core/lv_obj_style_gen.h **** 
   7:lvgl/src/extra/widgets/dclock/../../../core/lv_obj_style_gen.h **** static inline lv_coord_t lv_obj_get_style_min_width(const struct _lv_obj_t * obj, uint32_t part)
   8:lvgl/src/extra/widgets/dclock/../../../core/lv_obj_style_gen.h **** {
   9:lvgl/src/extra/widgets/dclock/../../../core/lv_obj_style_gen.h ****     lv_style_value_t v = lv_obj_get_style_prop(obj, part, LV_STYLE_MIN_WIDTH);
  10:lvgl/src/extra/widgets/dclock/../../../core/lv_obj_style_gen.h ****     return (lv_coord_t)v.num;
  11:lvgl/src/extra/widgets/dclock/../../../core/lv_obj_style_gen.h **** }
  12:lvgl/src/extra/widgets/dclock/../../../core/lv_obj_style_gen.h **** 
  13:lvgl/src/extra/widgets/dclock/../../../core/lv_obj_style_gen.h **** static inline lv_coord_t lv_obj_get_style_max_width(const struct _lv_obj_t * obj, uint32_t part)
  14:lvgl/src/extra/widgets/dclock/../../../core/lv_obj_style_gen.h **** {
  15:lvgl/src/extra/widgets/dclock/../../../core/lv_obj_style_gen.h ****     lv_style_value_t v = lv_obj_get_style_prop(obj, part, LV_STYLE_MAX_WIDTH);
  16:lvgl/src/extra/widgets/dclock/../../../core/lv_obj_style_gen.h ****     return (lv_coord_t)v.num;
  17:lvgl/src/extra/widgets/dclock/../../../core/lv_obj_style_gen.h **** }
  18:lvgl/src/extra/widgets/dclock/../../../core/lv_obj_style_gen.h **** 
  19:lvgl/src/extra/widgets/dclock/../../../core/lv_obj_style_gen.h **** static inline lv_coord_t lv_obj_get_style_height(const struct _lv_obj_t * obj, uint32_t part)
  20:lvgl/src/extra/widgets/dclock/../../../core/lv_obj_style_gen.h **** {
  21:lvgl/src/extra/widgets/dclock/../../../core/lv_obj_style_gen.h ****     lv_style_value_t v = lv_obj_get_style_prop(obj, part, LV_STYLE_HEIGHT);
  22:lvgl/src/extra/widgets/dclock/../../../core/lv_obj_style_gen.h ****     return (lv_coord_t)v.num;
  23:lvgl/src/extra/widgets/dclock/../../../core/lv_obj_style_gen.h **** }
  24:lvgl/src/extra/widgets/dclock/../../../core/lv_obj_style_gen.h **** 
  25:lvgl/src/extra/widgets/dclock/../../../core/lv_obj_style_gen.h **** static inline lv_coord_t lv_obj_get_style_min_height(const struct _lv_obj_t * obj, uint32_t part)
  26:lvgl/src/extra/widgets/dclock/../../../core/lv_obj_style_gen.h **** {
  27:lvgl/src/extra/widgets/dclock/../../../core/lv_obj_style_gen.h ****     lv_style_value_t v = lv_obj_get_style_prop(obj, part, LV_STYLE_MIN_HEIGHT);
  28:lvgl/src/extra/widgets/dclock/../../../core/lv_obj_style_gen.h ****     return (lv_coord_t)v.num;
  29:lvgl/src/extra/widgets/dclock/../../../core/lv_obj_style_gen.h **** }
  30:lvgl/src/extra/widgets/dclock/../../../core/lv_obj_style_gen.h **** 
  31:lvgl/src/extra/widgets/dclock/../../../core/lv_obj_style_gen.h **** static inline lv_coord_t lv_obj_get_style_max_height(const struct _lv_obj_t * obj, uint32_t part)
  32:lvgl/src/extra/widgets/dclock/../../../core/lv_obj_style_gen.h **** {
  33:lvgl/src/extra/widgets/dclock/../../../core/lv_obj_style_gen.h ****     lv_style_value_t v = lv_obj_get_style_prop(obj, part, LV_STYLE_MAX_HEIGHT);
  34:lvgl/src/extra/widgets/dclock/../../../core/lv_obj_style_gen.h ****     return (lv_coord_t)v.num;
  35:lvgl/src/extra/widgets/dclock/../../../core/lv_obj_style_gen.h **** }
  36:lvgl/src/extra/widgets/dclock/../../../core/lv_obj_style_gen.h **** 
  37:lvgl/src/extra/widgets/dclock/../../../core/lv_obj_style_gen.h **** static inline lv_coord_t lv_obj_get_style_x(const struct _lv_obj_t * obj, uint32_t part)
  38:lvgl/src/extra/widgets/dclock/../../../core/lv_obj_style_gen.h **** {
  39:lvgl/src/extra/widgets/dclock/../../../core/lv_obj_style_gen.h ****     lv_style_value_t v = lv_obj_get_style_prop(obj, part, LV_STYLE_X);
  40:lvgl/src/extra/widgets/dclock/../../../core/lv_obj_style_gen.h ****     return (lv_coord_t)v.num;
  41:lvgl/src/extra/widgets/dclock/../../../core/lv_obj_style_gen.h **** }
  42:lvgl/src/extra/widgets/dclock/../../../core/lv_obj_style_gen.h **** 
  43:lvgl/src/extra/widgets/dclock/../../../core/lv_obj_style_gen.h **** static inline lv_coord_t lv_obj_get_style_y(const struct _lv_obj_t * obj, uint32_t part)
  44:lvgl/src/extra/widgets/dclock/../../../core/lv_obj_style_gen.h **** {
  45:lvgl/src/extra/widgets/dclock/../../../core/lv_obj_style_gen.h ****     lv_style_value_t v = lv_obj_get_style_prop(obj, part, LV_STYLE_Y);
  46:lvgl/src/extra/widgets/dclock/../../../core/lv_obj_style_gen.h ****     return (lv_coord_t)v.num;
  47:lvgl/src/extra/widgets/dclock/../../../core/lv_obj_style_gen.h **** }
  48:lvgl/src/extra/widgets/dclock/../../../core/lv_obj_style_gen.h **** 
  49:lvgl/src/extra/widgets/dclock/../../../core/lv_obj_style_gen.h **** static inline lv_align_t lv_obj_get_style_align(const struct _lv_obj_t * obj, uint32_t part)
  50:lvgl/src/extra/widgets/dclock/../../../core/lv_obj_style_gen.h **** {
  51:lvgl/src/extra/widgets/dclock/../../../core/lv_obj_style_gen.h ****     lv_style_value_t v = lv_obj_get_style_prop(obj, part, LV_STYLE_ALIGN);
  52:lvgl/src/extra/widgets/dclock/../../../core/lv_obj_style_gen.h ****     return (lv_align_t)v.num;
  53:lvgl/src/extra/widgets/dclock/../../../core/lv_obj_style_gen.h **** }
  54:lvgl/src/extra/widgets/dclock/../../../core/lv_obj_style_gen.h **** 
  55:lvgl/src/extra/widgets/dclock/../../../core/lv_obj_style_gen.h **** static inline lv_coord_t lv_obj_get_style_transform_width(const struct _lv_obj_t * obj, uint32_t pa
  56:lvgl/src/extra/widgets/dclock/../../../core/lv_obj_style_gen.h **** {
  57:lvgl/src/extra/widgets/dclock/../../../core/lv_obj_style_gen.h ****     lv_style_value_t v = lv_obj_get_style_prop(obj, part, LV_STYLE_TRANSFORM_WIDTH);
ARM GAS  C:\usertemp\ccL9DfK7.s 			page 13


  58:lvgl/src/extra/widgets/dclock/../../../core/lv_obj_style_gen.h ****     return (lv_coord_t)v.num;
  59:lvgl/src/extra/widgets/dclock/../../../core/lv_obj_style_gen.h **** }
  60:lvgl/src/extra/widgets/dclock/../../../core/lv_obj_style_gen.h **** 
  61:lvgl/src/extra/widgets/dclock/../../../core/lv_obj_style_gen.h **** static inline lv_coord_t lv_obj_get_style_transform_height(const struct _lv_obj_t * obj, uint32_t p
  62:lvgl/src/extra/widgets/dclock/../../../core/lv_obj_style_gen.h **** {
  63:lvgl/src/extra/widgets/dclock/../../../core/lv_obj_style_gen.h ****     lv_style_value_t v = lv_obj_get_style_prop(obj, part, LV_STYLE_TRANSFORM_HEIGHT);
  64:lvgl/src/extra/widgets/dclock/../../../core/lv_obj_style_gen.h ****     return (lv_coord_t)v.num;
  65:lvgl/src/extra/widgets/dclock/../../../core/lv_obj_style_gen.h **** }
  66:lvgl/src/extra/widgets/dclock/../../../core/lv_obj_style_gen.h **** 
  67:lvgl/src/extra/widgets/dclock/../../../core/lv_obj_style_gen.h **** static inline lv_coord_t lv_obj_get_style_translate_x(const struct _lv_obj_t * obj, uint32_t part)
  68:lvgl/src/extra/widgets/dclock/../../../core/lv_obj_style_gen.h **** {
  69:lvgl/src/extra/widgets/dclock/../../../core/lv_obj_style_gen.h ****     lv_style_value_t v = lv_obj_get_style_prop(obj, part, LV_STYLE_TRANSLATE_X);
  70:lvgl/src/extra/widgets/dclock/../../../core/lv_obj_style_gen.h ****     return (lv_coord_t)v.num;
  71:lvgl/src/extra/widgets/dclock/../../../core/lv_obj_style_gen.h **** }
  72:lvgl/src/extra/widgets/dclock/../../../core/lv_obj_style_gen.h **** 
  73:lvgl/src/extra/widgets/dclock/../../../core/lv_obj_style_gen.h **** static inline lv_coord_t lv_obj_get_style_translate_y(const struct _lv_obj_t * obj, uint32_t part)
  74:lvgl/src/extra/widgets/dclock/../../../core/lv_obj_style_gen.h **** {
  75:lvgl/src/extra/widgets/dclock/../../../core/lv_obj_style_gen.h ****     lv_style_value_t v = lv_obj_get_style_prop(obj, part, LV_STYLE_TRANSLATE_Y);
  76:lvgl/src/extra/widgets/dclock/../../../core/lv_obj_style_gen.h ****     return (lv_coord_t)v.num;
  77:lvgl/src/extra/widgets/dclock/../../../core/lv_obj_style_gen.h **** }
  78:lvgl/src/extra/widgets/dclock/../../../core/lv_obj_style_gen.h **** 
  79:lvgl/src/extra/widgets/dclock/../../../core/lv_obj_style_gen.h **** static inline lv_coord_t lv_obj_get_style_transform_zoom(const struct _lv_obj_t * obj, uint32_t par
  80:lvgl/src/extra/widgets/dclock/../../../core/lv_obj_style_gen.h **** {
  81:lvgl/src/extra/widgets/dclock/../../../core/lv_obj_style_gen.h ****     lv_style_value_t v = lv_obj_get_style_prop(obj, part, LV_STYLE_TRANSFORM_ZOOM);
  82:lvgl/src/extra/widgets/dclock/../../../core/lv_obj_style_gen.h ****     return (lv_coord_t)v.num;
  83:lvgl/src/extra/widgets/dclock/../../../core/lv_obj_style_gen.h **** }
  84:lvgl/src/extra/widgets/dclock/../../../core/lv_obj_style_gen.h **** 
  85:lvgl/src/extra/widgets/dclock/../../../core/lv_obj_style_gen.h **** static inline lv_coord_t lv_obj_get_style_transform_angle(const struct _lv_obj_t * obj, uint32_t pa
  86:lvgl/src/extra/widgets/dclock/../../../core/lv_obj_style_gen.h **** {
  87:lvgl/src/extra/widgets/dclock/../../../core/lv_obj_style_gen.h ****     lv_style_value_t v = lv_obj_get_style_prop(obj, part, LV_STYLE_TRANSFORM_ANGLE);
  88:lvgl/src/extra/widgets/dclock/../../../core/lv_obj_style_gen.h ****     return (lv_coord_t)v.num;
  89:lvgl/src/extra/widgets/dclock/../../../core/lv_obj_style_gen.h **** }
  90:lvgl/src/extra/widgets/dclock/../../../core/lv_obj_style_gen.h **** 
  91:lvgl/src/extra/widgets/dclock/../../../core/lv_obj_style_gen.h **** static inline lv_coord_t lv_obj_get_style_pad_top(const struct _lv_obj_t * obj, uint32_t part)
  92:lvgl/src/extra/widgets/dclock/../../../core/lv_obj_style_gen.h **** {
  93:lvgl/src/extra/widgets/dclock/../../../core/lv_obj_style_gen.h ****     lv_style_value_t v = lv_obj_get_style_prop(obj, part, LV_STYLE_PAD_TOP);
  94:lvgl/src/extra/widgets/dclock/../../../core/lv_obj_style_gen.h ****     return (lv_coord_t)v.num;
  95:lvgl/src/extra/widgets/dclock/../../../core/lv_obj_style_gen.h **** }
  96:lvgl/src/extra/widgets/dclock/../../../core/lv_obj_style_gen.h **** 
  97:lvgl/src/extra/widgets/dclock/../../../core/lv_obj_style_gen.h **** static inline lv_coord_t lv_obj_get_style_pad_bottom(const struct _lv_obj_t * obj, uint32_t part)
  98:lvgl/src/extra/widgets/dclock/../../../core/lv_obj_style_gen.h **** {
  99:lvgl/src/extra/widgets/dclock/../../../core/lv_obj_style_gen.h ****     lv_style_value_t v = lv_obj_get_style_prop(obj, part, LV_STYLE_PAD_BOTTOM);
 100:lvgl/src/extra/widgets/dclock/../../../core/lv_obj_style_gen.h ****     return (lv_coord_t)v.num;
 101:lvgl/src/extra/widgets/dclock/../../../core/lv_obj_style_gen.h **** }
 102:lvgl/src/extra/widgets/dclock/../../../core/lv_obj_style_gen.h **** 
 103:lvgl/src/extra/widgets/dclock/../../../core/lv_obj_style_gen.h **** static inline lv_coord_t lv_obj_get_style_pad_left(const struct _lv_obj_t * obj, uint32_t part)
 104:lvgl/src/extra/widgets/dclock/../../../core/lv_obj_style_gen.h **** {
 105:lvgl/src/extra/widgets/dclock/../../../core/lv_obj_style_gen.h ****     lv_style_value_t v = lv_obj_get_style_prop(obj, part, LV_STYLE_PAD_LEFT);
 106:lvgl/src/extra/widgets/dclock/../../../core/lv_obj_style_gen.h ****     return (lv_coord_t)v.num;
 107:lvgl/src/extra/widgets/dclock/../../../core/lv_obj_style_gen.h **** }
 108:lvgl/src/extra/widgets/dclock/../../../core/lv_obj_style_gen.h **** 
 109:lvgl/src/extra/widgets/dclock/../../../core/lv_obj_style_gen.h **** static inline lv_coord_t lv_obj_get_style_pad_right(const struct _lv_obj_t * obj, uint32_t part)
 110:lvgl/src/extra/widgets/dclock/../../../core/lv_obj_style_gen.h **** {
 111:lvgl/src/extra/widgets/dclock/../../../core/lv_obj_style_gen.h ****     lv_style_value_t v = lv_obj_get_style_prop(obj, part, LV_STYLE_PAD_RIGHT);
 112:lvgl/src/extra/widgets/dclock/../../../core/lv_obj_style_gen.h ****     return (lv_coord_t)v.num;
 113:lvgl/src/extra/widgets/dclock/../../../core/lv_obj_style_gen.h **** }
 114:lvgl/src/extra/widgets/dclock/../../../core/lv_obj_style_gen.h **** 
ARM GAS  C:\usertemp\ccL9DfK7.s 			page 14


 115:lvgl/src/extra/widgets/dclock/../../../core/lv_obj_style_gen.h **** static inline lv_coord_t lv_obj_get_style_pad_row(const struct _lv_obj_t * obj, uint32_t part)
 116:lvgl/src/extra/widgets/dclock/../../../core/lv_obj_style_gen.h **** {
 117:lvgl/src/extra/widgets/dclock/../../../core/lv_obj_style_gen.h ****     lv_style_value_t v = lv_obj_get_style_prop(obj, part, LV_STYLE_PAD_ROW);
 118:lvgl/src/extra/widgets/dclock/../../../core/lv_obj_style_gen.h ****     return (lv_coord_t)v.num;
 119:lvgl/src/extra/widgets/dclock/../../../core/lv_obj_style_gen.h **** }
 120:lvgl/src/extra/widgets/dclock/../../../core/lv_obj_style_gen.h **** 
 121:lvgl/src/extra/widgets/dclock/../../../core/lv_obj_style_gen.h **** static inline lv_coord_t lv_obj_get_style_pad_column(const struct _lv_obj_t * obj, uint32_t part)
 122:lvgl/src/extra/widgets/dclock/../../../core/lv_obj_style_gen.h **** {
 123:lvgl/src/extra/widgets/dclock/../../../core/lv_obj_style_gen.h ****     lv_style_value_t v = lv_obj_get_style_prop(obj, part, LV_STYLE_PAD_COLUMN);
 124:lvgl/src/extra/widgets/dclock/../../../core/lv_obj_style_gen.h ****     return (lv_coord_t)v.num;
 125:lvgl/src/extra/widgets/dclock/../../../core/lv_obj_style_gen.h **** }
 126:lvgl/src/extra/widgets/dclock/../../../core/lv_obj_style_gen.h **** 
 127:lvgl/src/extra/widgets/dclock/../../../core/lv_obj_style_gen.h **** static inline lv_color_t lv_obj_get_style_bg_color(const struct _lv_obj_t * obj, uint32_t part)
 128:lvgl/src/extra/widgets/dclock/../../../core/lv_obj_style_gen.h **** {
 129:lvgl/src/extra/widgets/dclock/../../../core/lv_obj_style_gen.h ****     lv_style_value_t v = lv_obj_get_style_prop(obj, part, LV_STYLE_BG_COLOR);
 130:lvgl/src/extra/widgets/dclock/../../../core/lv_obj_style_gen.h ****     return v.color;
 131:lvgl/src/extra/widgets/dclock/../../../core/lv_obj_style_gen.h **** }
 132:lvgl/src/extra/widgets/dclock/../../../core/lv_obj_style_gen.h **** 
 133:lvgl/src/extra/widgets/dclock/../../../core/lv_obj_style_gen.h **** static inline lv_color_t lv_obj_get_style_bg_color_filtered(const struct _lv_obj_t * obj, uint32_t 
 134:lvgl/src/extra/widgets/dclock/../../../core/lv_obj_style_gen.h **** {
 135:lvgl/src/extra/widgets/dclock/../../../core/lv_obj_style_gen.h ****     lv_style_value_t v = lv_obj_get_style_prop(obj, part, LV_STYLE_BG_COLOR_FILTERED);
 136:lvgl/src/extra/widgets/dclock/../../../core/lv_obj_style_gen.h ****     return v.color;
 137:lvgl/src/extra/widgets/dclock/../../../core/lv_obj_style_gen.h **** }
 138:lvgl/src/extra/widgets/dclock/../../../core/lv_obj_style_gen.h **** 
 139:lvgl/src/extra/widgets/dclock/../../../core/lv_obj_style_gen.h **** static inline lv_opa_t lv_obj_get_style_bg_opa(const struct _lv_obj_t * obj, uint32_t part)
 140:lvgl/src/extra/widgets/dclock/../../../core/lv_obj_style_gen.h **** {
 141:lvgl/src/extra/widgets/dclock/../../../core/lv_obj_style_gen.h ****     lv_style_value_t v = lv_obj_get_style_prop(obj, part, LV_STYLE_BG_OPA);
 142:lvgl/src/extra/widgets/dclock/../../../core/lv_obj_style_gen.h ****     return (lv_opa_t)v.num;
 143:lvgl/src/extra/widgets/dclock/../../../core/lv_obj_style_gen.h **** }
 144:lvgl/src/extra/widgets/dclock/../../../core/lv_obj_style_gen.h **** 
 145:lvgl/src/extra/widgets/dclock/../../../core/lv_obj_style_gen.h **** static inline lv_color_t lv_obj_get_style_bg_grad_color(const struct _lv_obj_t * obj, uint32_t part
 146:lvgl/src/extra/widgets/dclock/../../../core/lv_obj_style_gen.h **** {
 147:lvgl/src/extra/widgets/dclock/../../../core/lv_obj_style_gen.h ****     lv_style_value_t v = lv_obj_get_style_prop(obj, part, LV_STYLE_BG_GRAD_COLOR);
 148:lvgl/src/extra/widgets/dclock/../../../core/lv_obj_style_gen.h ****     return v.color;
 149:lvgl/src/extra/widgets/dclock/../../../core/lv_obj_style_gen.h **** }
 150:lvgl/src/extra/widgets/dclock/../../../core/lv_obj_style_gen.h **** 
 151:lvgl/src/extra/widgets/dclock/../../../core/lv_obj_style_gen.h **** static inline lv_color_t lv_obj_get_style_bg_grad_color_filtered(const struct _lv_obj_t * obj, uint
 152:lvgl/src/extra/widgets/dclock/../../../core/lv_obj_style_gen.h **** {
 153:lvgl/src/extra/widgets/dclock/../../../core/lv_obj_style_gen.h ****     lv_style_value_t v = lv_obj_get_style_prop(obj, part, LV_STYLE_BG_GRAD_COLOR_FILTERED);
 154:lvgl/src/extra/widgets/dclock/../../../core/lv_obj_style_gen.h ****     return v.color;
 155:lvgl/src/extra/widgets/dclock/../../../core/lv_obj_style_gen.h **** }
 156:lvgl/src/extra/widgets/dclock/../../../core/lv_obj_style_gen.h **** 
 157:lvgl/src/extra/widgets/dclock/../../../core/lv_obj_style_gen.h **** static inline lv_grad_dir_t lv_obj_get_style_bg_grad_dir(const struct _lv_obj_t * obj, uint32_t par
 158:lvgl/src/extra/widgets/dclock/../../../core/lv_obj_style_gen.h **** {
 159:lvgl/src/extra/widgets/dclock/../../../core/lv_obj_style_gen.h ****     lv_style_value_t v = lv_obj_get_style_prop(obj, part, LV_STYLE_BG_GRAD_DIR);
 160:lvgl/src/extra/widgets/dclock/../../../core/lv_obj_style_gen.h ****     return (lv_grad_dir_t)v.num;
 161:lvgl/src/extra/widgets/dclock/../../../core/lv_obj_style_gen.h **** }
 162:lvgl/src/extra/widgets/dclock/../../../core/lv_obj_style_gen.h **** 
 163:lvgl/src/extra/widgets/dclock/../../../core/lv_obj_style_gen.h **** static inline lv_coord_t lv_obj_get_style_bg_main_stop(const struct _lv_obj_t * obj, uint32_t part)
 164:lvgl/src/extra/widgets/dclock/../../../core/lv_obj_style_gen.h **** {
 165:lvgl/src/extra/widgets/dclock/../../../core/lv_obj_style_gen.h ****     lv_style_value_t v = lv_obj_get_style_prop(obj, part, LV_STYLE_BG_MAIN_STOP);
 166:lvgl/src/extra/widgets/dclock/../../../core/lv_obj_style_gen.h ****     return (lv_coord_t)v.num;
 167:lvgl/src/extra/widgets/dclock/../../../core/lv_obj_style_gen.h **** }
 168:lvgl/src/extra/widgets/dclock/../../../core/lv_obj_style_gen.h **** 
 169:lvgl/src/extra/widgets/dclock/../../../core/lv_obj_style_gen.h **** static inline lv_coord_t lv_obj_get_style_bg_grad_stop(const struct _lv_obj_t * obj, uint32_t part)
 170:lvgl/src/extra/widgets/dclock/../../../core/lv_obj_style_gen.h **** {
 171:lvgl/src/extra/widgets/dclock/../../../core/lv_obj_style_gen.h ****     lv_style_value_t v = lv_obj_get_style_prop(obj, part, LV_STYLE_BG_GRAD_STOP);
ARM GAS  C:\usertemp\ccL9DfK7.s 			page 15


 172:lvgl/src/extra/widgets/dclock/../../../core/lv_obj_style_gen.h ****     return (lv_coord_t)v.num;
 173:lvgl/src/extra/widgets/dclock/../../../core/lv_obj_style_gen.h **** }
 174:lvgl/src/extra/widgets/dclock/../../../core/lv_obj_style_gen.h **** 
 175:lvgl/src/extra/widgets/dclock/../../../core/lv_obj_style_gen.h **** static inline const lv_grad_dsc_t * lv_obj_get_style_bg_grad(const struct _lv_obj_t * obj, uint32_t
 176:lvgl/src/extra/widgets/dclock/../../../core/lv_obj_style_gen.h **** {
 177:lvgl/src/extra/widgets/dclock/../../../core/lv_obj_style_gen.h ****     lv_style_value_t v = lv_obj_get_style_prop(obj, part, LV_STYLE_BG_GRAD);
 178:lvgl/src/extra/widgets/dclock/../../../core/lv_obj_style_gen.h ****     return (const lv_grad_dsc_t *)v.ptr;
 179:lvgl/src/extra/widgets/dclock/../../../core/lv_obj_style_gen.h **** }
 180:lvgl/src/extra/widgets/dclock/../../../core/lv_obj_style_gen.h **** 
 181:lvgl/src/extra/widgets/dclock/../../../core/lv_obj_style_gen.h **** static inline lv_dither_mode_t lv_obj_get_style_bg_dither_mode(const struct _lv_obj_t * obj, uint32
 182:lvgl/src/extra/widgets/dclock/../../../core/lv_obj_style_gen.h **** {
 183:lvgl/src/extra/widgets/dclock/../../../core/lv_obj_style_gen.h ****     lv_style_value_t v = lv_obj_get_style_prop(obj, part, LV_STYLE_BG_DITHER_MODE);
 184:lvgl/src/extra/widgets/dclock/../../../core/lv_obj_style_gen.h ****     return (lv_dither_mode_t)v.num;
 185:lvgl/src/extra/widgets/dclock/../../../core/lv_obj_style_gen.h **** }
 186:lvgl/src/extra/widgets/dclock/../../../core/lv_obj_style_gen.h **** 
 187:lvgl/src/extra/widgets/dclock/../../../core/lv_obj_style_gen.h **** static inline const void * lv_obj_get_style_bg_img_src(const struct _lv_obj_t * obj, uint32_t part)
 188:lvgl/src/extra/widgets/dclock/../../../core/lv_obj_style_gen.h **** {
 189:lvgl/src/extra/widgets/dclock/../../../core/lv_obj_style_gen.h ****     lv_style_value_t v = lv_obj_get_style_prop(obj, part, LV_STYLE_BG_IMG_SRC);
 190:lvgl/src/extra/widgets/dclock/../../../core/lv_obj_style_gen.h ****     return (const void *)v.ptr;
 191:lvgl/src/extra/widgets/dclock/../../../core/lv_obj_style_gen.h **** }
 192:lvgl/src/extra/widgets/dclock/../../../core/lv_obj_style_gen.h **** 
 193:lvgl/src/extra/widgets/dclock/../../../core/lv_obj_style_gen.h **** static inline lv_opa_t lv_obj_get_style_bg_img_opa(const struct _lv_obj_t * obj, uint32_t part)
 194:lvgl/src/extra/widgets/dclock/../../../core/lv_obj_style_gen.h **** {
 195:lvgl/src/extra/widgets/dclock/../../../core/lv_obj_style_gen.h ****     lv_style_value_t v = lv_obj_get_style_prop(obj, part, LV_STYLE_BG_IMG_OPA);
 196:lvgl/src/extra/widgets/dclock/../../../core/lv_obj_style_gen.h ****     return (lv_opa_t)v.num;
 197:lvgl/src/extra/widgets/dclock/../../../core/lv_obj_style_gen.h **** }
 198:lvgl/src/extra/widgets/dclock/../../../core/lv_obj_style_gen.h **** 
 199:lvgl/src/extra/widgets/dclock/../../../core/lv_obj_style_gen.h **** static inline lv_color_t lv_obj_get_style_bg_img_recolor(const struct _lv_obj_t * obj, uint32_t par
 200:lvgl/src/extra/widgets/dclock/../../../core/lv_obj_style_gen.h **** {
 201:lvgl/src/extra/widgets/dclock/../../../core/lv_obj_style_gen.h ****     lv_style_value_t v = lv_obj_get_style_prop(obj, part, LV_STYLE_BG_IMG_RECOLOR);
 202:lvgl/src/extra/widgets/dclock/../../../core/lv_obj_style_gen.h ****     return v.color;
 203:lvgl/src/extra/widgets/dclock/../../../core/lv_obj_style_gen.h **** }
 204:lvgl/src/extra/widgets/dclock/../../../core/lv_obj_style_gen.h **** 
 205:lvgl/src/extra/widgets/dclock/../../../core/lv_obj_style_gen.h **** static inline lv_color_t lv_obj_get_style_bg_img_recolor_filtered(const struct _lv_obj_t * obj, uin
 206:lvgl/src/extra/widgets/dclock/../../../core/lv_obj_style_gen.h **** {
 207:lvgl/src/extra/widgets/dclock/../../../core/lv_obj_style_gen.h ****     lv_style_value_t v = lv_obj_get_style_prop(obj, part, LV_STYLE_BG_IMG_RECOLOR_FILTERED);
 208:lvgl/src/extra/widgets/dclock/../../../core/lv_obj_style_gen.h ****     return v.color;
 209:lvgl/src/extra/widgets/dclock/../../../core/lv_obj_style_gen.h **** }
 210:lvgl/src/extra/widgets/dclock/../../../core/lv_obj_style_gen.h **** 
 211:lvgl/src/extra/widgets/dclock/../../../core/lv_obj_style_gen.h **** static inline lv_opa_t lv_obj_get_style_bg_img_recolor_opa(const struct _lv_obj_t * obj, uint32_t p
 212:lvgl/src/extra/widgets/dclock/../../../core/lv_obj_style_gen.h **** {
 213:lvgl/src/extra/widgets/dclock/../../../core/lv_obj_style_gen.h ****     lv_style_value_t v = lv_obj_get_style_prop(obj, part, LV_STYLE_BG_IMG_RECOLOR_OPA);
 214:lvgl/src/extra/widgets/dclock/../../../core/lv_obj_style_gen.h ****     return (lv_opa_t)v.num;
 215:lvgl/src/extra/widgets/dclock/../../../core/lv_obj_style_gen.h **** }
 216:lvgl/src/extra/widgets/dclock/../../../core/lv_obj_style_gen.h **** 
 217:lvgl/src/extra/widgets/dclock/../../../core/lv_obj_style_gen.h **** static inline bool lv_obj_get_style_bg_img_tiled(const struct _lv_obj_t * obj, uint32_t part)
 218:lvgl/src/extra/widgets/dclock/../../../core/lv_obj_style_gen.h **** {
 219:lvgl/src/extra/widgets/dclock/../../../core/lv_obj_style_gen.h ****     lv_style_value_t v = lv_obj_get_style_prop(obj, part, LV_STYLE_BG_IMG_TILED);
 220:lvgl/src/extra/widgets/dclock/../../../core/lv_obj_style_gen.h ****     return (bool)v.num;
 221:lvgl/src/extra/widgets/dclock/../../../core/lv_obj_style_gen.h **** }
 222:lvgl/src/extra/widgets/dclock/../../../core/lv_obj_style_gen.h **** 
 223:lvgl/src/extra/widgets/dclock/../../../core/lv_obj_style_gen.h **** static inline lv_color_t lv_obj_get_style_border_color(const struct _lv_obj_t * obj, uint32_t part)
 224:lvgl/src/extra/widgets/dclock/../../../core/lv_obj_style_gen.h **** {
 225:lvgl/src/extra/widgets/dclock/../../../core/lv_obj_style_gen.h ****     lv_style_value_t v = lv_obj_get_style_prop(obj, part, LV_STYLE_BORDER_COLOR);
 226:lvgl/src/extra/widgets/dclock/../../../core/lv_obj_style_gen.h ****     return v.color;
 227:lvgl/src/extra/widgets/dclock/../../../core/lv_obj_style_gen.h **** }
 228:lvgl/src/extra/widgets/dclock/../../../core/lv_obj_style_gen.h **** 
ARM GAS  C:\usertemp\ccL9DfK7.s 			page 16


 229:lvgl/src/extra/widgets/dclock/../../../core/lv_obj_style_gen.h **** static inline lv_color_t lv_obj_get_style_border_color_filtered(const struct _lv_obj_t * obj, uint3
 230:lvgl/src/extra/widgets/dclock/../../../core/lv_obj_style_gen.h **** {
 231:lvgl/src/extra/widgets/dclock/../../../core/lv_obj_style_gen.h ****     lv_style_value_t v = lv_obj_get_style_prop(obj, part, LV_STYLE_BORDER_COLOR_FILTERED);
 232:lvgl/src/extra/widgets/dclock/../../../core/lv_obj_style_gen.h ****     return v.color;
 233:lvgl/src/extra/widgets/dclock/../../../core/lv_obj_style_gen.h **** }
 234:lvgl/src/extra/widgets/dclock/../../../core/lv_obj_style_gen.h **** 
 235:lvgl/src/extra/widgets/dclock/../../../core/lv_obj_style_gen.h **** static inline lv_opa_t lv_obj_get_style_border_opa(const struct _lv_obj_t * obj, uint32_t part)
 236:lvgl/src/extra/widgets/dclock/../../../core/lv_obj_style_gen.h **** {
 237:lvgl/src/extra/widgets/dclock/../../../core/lv_obj_style_gen.h ****     lv_style_value_t v = lv_obj_get_style_prop(obj, part, LV_STYLE_BORDER_OPA);
 238:lvgl/src/extra/widgets/dclock/../../../core/lv_obj_style_gen.h ****     return (lv_opa_t)v.num;
 239:lvgl/src/extra/widgets/dclock/../../../core/lv_obj_style_gen.h **** }
 240:lvgl/src/extra/widgets/dclock/../../../core/lv_obj_style_gen.h **** 
 241:lvgl/src/extra/widgets/dclock/../../../core/lv_obj_style_gen.h **** static inline lv_coord_t lv_obj_get_style_border_width(const struct _lv_obj_t * obj, uint32_t part)
 242:lvgl/src/extra/widgets/dclock/../../../core/lv_obj_style_gen.h **** {
 243:lvgl/src/extra/widgets/dclock/../../../core/lv_obj_style_gen.h ****     lv_style_value_t v = lv_obj_get_style_prop(obj, part, LV_STYLE_BORDER_WIDTH);
 244:lvgl/src/extra/widgets/dclock/../../../core/lv_obj_style_gen.h ****     return (lv_coord_t)v.num;
 245:lvgl/src/extra/widgets/dclock/../../../core/lv_obj_style_gen.h **** }
 246:lvgl/src/extra/widgets/dclock/../../../core/lv_obj_style_gen.h **** 
 247:lvgl/src/extra/widgets/dclock/../../../core/lv_obj_style_gen.h **** static inline lv_border_side_t lv_obj_get_style_border_side(const struct _lv_obj_t * obj, uint32_t 
 248:lvgl/src/extra/widgets/dclock/../../../core/lv_obj_style_gen.h **** {
 249:lvgl/src/extra/widgets/dclock/../../../core/lv_obj_style_gen.h ****     lv_style_value_t v = lv_obj_get_style_prop(obj, part, LV_STYLE_BORDER_SIDE);
 250:lvgl/src/extra/widgets/dclock/../../../core/lv_obj_style_gen.h ****     return (lv_border_side_t)v.num;
 251:lvgl/src/extra/widgets/dclock/../../../core/lv_obj_style_gen.h **** }
 252:lvgl/src/extra/widgets/dclock/../../../core/lv_obj_style_gen.h **** 
 253:lvgl/src/extra/widgets/dclock/../../../core/lv_obj_style_gen.h **** static inline bool lv_obj_get_style_border_post(const struct _lv_obj_t * obj, uint32_t part)
 254:lvgl/src/extra/widgets/dclock/../../../core/lv_obj_style_gen.h **** {
 255:lvgl/src/extra/widgets/dclock/../../../core/lv_obj_style_gen.h ****     lv_style_value_t v = lv_obj_get_style_prop(obj, part, LV_STYLE_BORDER_POST);
 256:lvgl/src/extra/widgets/dclock/../../../core/lv_obj_style_gen.h ****     return (bool)v.num;
 257:lvgl/src/extra/widgets/dclock/../../../core/lv_obj_style_gen.h **** }
 258:lvgl/src/extra/widgets/dclock/../../../core/lv_obj_style_gen.h **** 
 259:lvgl/src/extra/widgets/dclock/../../../core/lv_obj_style_gen.h **** static inline lv_coord_t lv_obj_get_style_outline_width(const struct _lv_obj_t * obj, uint32_t part
 260:lvgl/src/extra/widgets/dclock/../../../core/lv_obj_style_gen.h **** {
 261:lvgl/src/extra/widgets/dclock/../../../core/lv_obj_style_gen.h ****     lv_style_value_t v = lv_obj_get_style_prop(obj, part, LV_STYLE_OUTLINE_WIDTH);
 262:lvgl/src/extra/widgets/dclock/../../../core/lv_obj_style_gen.h ****     return (lv_coord_t)v.num;
 263:lvgl/src/extra/widgets/dclock/../../../core/lv_obj_style_gen.h **** }
 264:lvgl/src/extra/widgets/dclock/../../../core/lv_obj_style_gen.h **** 
 265:lvgl/src/extra/widgets/dclock/../../../core/lv_obj_style_gen.h **** static inline lv_color_t lv_obj_get_style_outline_color(const struct _lv_obj_t * obj, uint32_t part
 266:lvgl/src/extra/widgets/dclock/../../../core/lv_obj_style_gen.h **** {
 267:lvgl/src/extra/widgets/dclock/../../../core/lv_obj_style_gen.h ****     lv_style_value_t v = lv_obj_get_style_prop(obj, part, LV_STYLE_OUTLINE_COLOR);
 268:lvgl/src/extra/widgets/dclock/../../../core/lv_obj_style_gen.h ****     return v.color;
 269:lvgl/src/extra/widgets/dclock/../../../core/lv_obj_style_gen.h **** }
 270:lvgl/src/extra/widgets/dclock/../../../core/lv_obj_style_gen.h **** 
 271:lvgl/src/extra/widgets/dclock/../../../core/lv_obj_style_gen.h **** static inline lv_color_t lv_obj_get_style_outline_color_filtered(const struct _lv_obj_t * obj, uint
 272:lvgl/src/extra/widgets/dclock/../../../core/lv_obj_style_gen.h **** {
 273:lvgl/src/extra/widgets/dclock/../../../core/lv_obj_style_gen.h ****     lv_style_value_t v = lv_obj_get_style_prop(obj, part, LV_STYLE_OUTLINE_COLOR_FILTERED);
 274:lvgl/src/extra/widgets/dclock/../../../core/lv_obj_style_gen.h ****     return v.color;
 275:lvgl/src/extra/widgets/dclock/../../../core/lv_obj_style_gen.h **** }
 276:lvgl/src/extra/widgets/dclock/../../../core/lv_obj_style_gen.h **** 
 277:lvgl/src/extra/widgets/dclock/../../../core/lv_obj_style_gen.h **** static inline lv_opa_t lv_obj_get_style_outline_opa(const struct _lv_obj_t * obj, uint32_t part)
 278:lvgl/src/extra/widgets/dclock/../../../core/lv_obj_style_gen.h **** {
 279:lvgl/src/extra/widgets/dclock/../../../core/lv_obj_style_gen.h ****     lv_style_value_t v = lv_obj_get_style_prop(obj, part, LV_STYLE_OUTLINE_OPA);
 280:lvgl/src/extra/widgets/dclock/../../../core/lv_obj_style_gen.h ****     return (lv_opa_t)v.num;
 281:lvgl/src/extra/widgets/dclock/../../../core/lv_obj_style_gen.h **** }
 282:lvgl/src/extra/widgets/dclock/../../../core/lv_obj_style_gen.h **** 
 283:lvgl/src/extra/widgets/dclock/../../../core/lv_obj_style_gen.h **** static inline lv_coord_t lv_obj_get_style_outline_pad(const struct _lv_obj_t * obj, uint32_t part)
 284:lvgl/src/extra/widgets/dclock/../../../core/lv_obj_style_gen.h **** {
 285:lvgl/src/extra/widgets/dclock/../../../core/lv_obj_style_gen.h ****     lv_style_value_t v = lv_obj_get_style_prop(obj, part, LV_STYLE_OUTLINE_PAD);
ARM GAS  C:\usertemp\ccL9DfK7.s 			page 17


 286:lvgl/src/extra/widgets/dclock/../../../core/lv_obj_style_gen.h ****     return (lv_coord_t)v.num;
 287:lvgl/src/extra/widgets/dclock/../../../core/lv_obj_style_gen.h **** }
 288:lvgl/src/extra/widgets/dclock/../../../core/lv_obj_style_gen.h **** 
 289:lvgl/src/extra/widgets/dclock/../../../core/lv_obj_style_gen.h **** static inline lv_coord_t lv_obj_get_style_shadow_width(const struct _lv_obj_t * obj, uint32_t part)
 290:lvgl/src/extra/widgets/dclock/../../../core/lv_obj_style_gen.h **** {
 291:lvgl/src/extra/widgets/dclock/../../../core/lv_obj_style_gen.h ****     lv_style_value_t v = lv_obj_get_style_prop(obj, part, LV_STYLE_SHADOW_WIDTH);
 292:lvgl/src/extra/widgets/dclock/../../../core/lv_obj_style_gen.h ****     return (lv_coord_t)v.num;
 293:lvgl/src/extra/widgets/dclock/../../../core/lv_obj_style_gen.h **** }
 294:lvgl/src/extra/widgets/dclock/../../../core/lv_obj_style_gen.h **** 
 295:lvgl/src/extra/widgets/dclock/../../../core/lv_obj_style_gen.h **** static inline lv_coord_t lv_obj_get_style_shadow_ofs_x(const struct _lv_obj_t * obj, uint32_t part)
 296:lvgl/src/extra/widgets/dclock/../../../core/lv_obj_style_gen.h **** {
 297:lvgl/src/extra/widgets/dclock/../../../core/lv_obj_style_gen.h ****     lv_style_value_t v = lv_obj_get_style_prop(obj, part, LV_STYLE_SHADOW_OFS_X);
 298:lvgl/src/extra/widgets/dclock/../../../core/lv_obj_style_gen.h ****     return (lv_coord_t)v.num;
 299:lvgl/src/extra/widgets/dclock/../../../core/lv_obj_style_gen.h **** }
 300:lvgl/src/extra/widgets/dclock/../../../core/lv_obj_style_gen.h **** 
 301:lvgl/src/extra/widgets/dclock/../../../core/lv_obj_style_gen.h **** static inline lv_coord_t lv_obj_get_style_shadow_ofs_y(const struct _lv_obj_t * obj, uint32_t part)
 302:lvgl/src/extra/widgets/dclock/../../../core/lv_obj_style_gen.h **** {
 303:lvgl/src/extra/widgets/dclock/../../../core/lv_obj_style_gen.h ****     lv_style_value_t v = lv_obj_get_style_prop(obj, part, LV_STYLE_SHADOW_OFS_Y);
 304:lvgl/src/extra/widgets/dclock/../../../core/lv_obj_style_gen.h ****     return (lv_coord_t)v.num;
 305:lvgl/src/extra/widgets/dclock/../../../core/lv_obj_style_gen.h **** }
 306:lvgl/src/extra/widgets/dclock/../../../core/lv_obj_style_gen.h **** 
 307:lvgl/src/extra/widgets/dclock/../../../core/lv_obj_style_gen.h **** static inline lv_coord_t lv_obj_get_style_shadow_spread(const struct _lv_obj_t * obj, uint32_t part
 308:lvgl/src/extra/widgets/dclock/../../../core/lv_obj_style_gen.h **** {
 309:lvgl/src/extra/widgets/dclock/../../../core/lv_obj_style_gen.h ****     lv_style_value_t v = lv_obj_get_style_prop(obj, part, LV_STYLE_SHADOW_SPREAD);
 310:lvgl/src/extra/widgets/dclock/../../../core/lv_obj_style_gen.h ****     return (lv_coord_t)v.num;
 311:lvgl/src/extra/widgets/dclock/../../../core/lv_obj_style_gen.h **** }
 312:lvgl/src/extra/widgets/dclock/../../../core/lv_obj_style_gen.h **** 
 313:lvgl/src/extra/widgets/dclock/../../../core/lv_obj_style_gen.h **** static inline lv_color_t lv_obj_get_style_shadow_color(const struct _lv_obj_t * obj, uint32_t part)
 314:lvgl/src/extra/widgets/dclock/../../../core/lv_obj_style_gen.h **** {
 315:lvgl/src/extra/widgets/dclock/../../../core/lv_obj_style_gen.h ****     lv_style_value_t v = lv_obj_get_style_prop(obj, part, LV_STYLE_SHADOW_COLOR);
 316:lvgl/src/extra/widgets/dclock/../../../core/lv_obj_style_gen.h ****     return v.color;
 317:lvgl/src/extra/widgets/dclock/../../../core/lv_obj_style_gen.h **** }
 318:lvgl/src/extra/widgets/dclock/../../../core/lv_obj_style_gen.h **** 
 319:lvgl/src/extra/widgets/dclock/../../../core/lv_obj_style_gen.h **** static inline lv_color_t lv_obj_get_style_shadow_color_filtered(const struct _lv_obj_t * obj, uint3
 320:lvgl/src/extra/widgets/dclock/../../../core/lv_obj_style_gen.h **** {
 321:lvgl/src/extra/widgets/dclock/../../../core/lv_obj_style_gen.h ****     lv_style_value_t v = lv_obj_get_style_prop(obj, part, LV_STYLE_SHADOW_COLOR_FILTERED);
 322:lvgl/src/extra/widgets/dclock/../../../core/lv_obj_style_gen.h ****     return v.color;
 323:lvgl/src/extra/widgets/dclock/../../../core/lv_obj_style_gen.h **** }
 324:lvgl/src/extra/widgets/dclock/../../../core/lv_obj_style_gen.h **** 
 325:lvgl/src/extra/widgets/dclock/../../../core/lv_obj_style_gen.h **** static inline lv_opa_t lv_obj_get_style_shadow_opa(const struct _lv_obj_t * obj, uint32_t part)
 326:lvgl/src/extra/widgets/dclock/../../../core/lv_obj_style_gen.h **** {
 327:lvgl/src/extra/widgets/dclock/../../../core/lv_obj_style_gen.h ****     lv_style_value_t v = lv_obj_get_style_prop(obj, part, LV_STYLE_SHADOW_OPA);
 328:lvgl/src/extra/widgets/dclock/../../../core/lv_obj_style_gen.h ****     return (lv_opa_t)v.num;
 329:lvgl/src/extra/widgets/dclock/../../../core/lv_obj_style_gen.h **** }
 330:lvgl/src/extra/widgets/dclock/../../../core/lv_obj_style_gen.h **** 
 331:lvgl/src/extra/widgets/dclock/../../../core/lv_obj_style_gen.h **** static inline lv_opa_t lv_obj_get_style_img_opa(const struct _lv_obj_t * obj, uint32_t part)
 332:lvgl/src/extra/widgets/dclock/../../../core/lv_obj_style_gen.h **** {
 333:lvgl/src/extra/widgets/dclock/../../../core/lv_obj_style_gen.h ****     lv_style_value_t v = lv_obj_get_style_prop(obj, part, LV_STYLE_IMG_OPA);
 334:lvgl/src/extra/widgets/dclock/../../../core/lv_obj_style_gen.h ****     return (lv_opa_t)v.num;
 335:lvgl/src/extra/widgets/dclock/../../../core/lv_obj_style_gen.h **** }
 336:lvgl/src/extra/widgets/dclock/../../../core/lv_obj_style_gen.h **** 
 337:lvgl/src/extra/widgets/dclock/../../../core/lv_obj_style_gen.h **** static inline lv_color_t lv_obj_get_style_img_recolor(const struct _lv_obj_t * obj, uint32_t part)
 338:lvgl/src/extra/widgets/dclock/../../../core/lv_obj_style_gen.h **** {
 339:lvgl/src/extra/widgets/dclock/../../../core/lv_obj_style_gen.h ****     lv_style_value_t v = lv_obj_get_style_prop(obj, part, LV_STYLE_IMG_RECOLOR);
 340:lvgl/src/extra/widgets/dclock/../../../core/lv_obj_style_gen.h ****     return v.color;
 341:lvgl/src/extra/widgets/dclock/../../../core/lv_obj_style_gen.h **** }
 342:lvgl/src/extra/widgets/dclock/../../../core/lv_obj_style_gen.h **** 
ARM GAS  C:\usertemp\ccL9DfK7.s 			page 18


 343:lvgl/src/extra/widgets/dclock/../../../core/lv_obj_style_gen.h **** static inline lv_color_t lv_obj_get_style_img_recolor_filtered(const struct _lv_obj_t * obj, uint32
 344:lvgl/src/extra/widgets/dclock/../../../core/lv_obj_style_gen.h **** {
 345:lvgl/src/extra/widgets/dclock/../../../core/lv_obj_style_gen.h ****     lv_style_value_t v = lv_obj_get_style_prop(obj, part, LV_STYLE_IMG_RECOLOR_FILTERED);
 346:lvgl/src/extra/widgets/dclock/../../../core/lv_obj_style_gen.h ****     return v.color;
 347:lvgl/src/extra/widgets/dclock/../../../core/lv_obj_style_gen.h **** }
 348:lvgl/src/extra/widgets/dclock/../../../core/lv_obj_style_gen.h **** 
 349:lvgl/src/extra/widgets/dclock/../../../core/lv_obj_style_gen.h **** static inline lv_opa_t lv_obj_get_style_img_recolor_opa(const struct _lv_obj_t * obj, uint32_t part
 350:lvgl/src/extra/widgets/dclock/../../../core/lv_obj_style_gen.h **** {
 351:lvgl/src/extra/widgets/dclock/../../../core/lv_obj_style_gen.h ****     lv_style_value_t v = lv_obj_get_style_prop(obj, part, LV_STYLE_IMG_RECOLOR_OPA);
 352:lvgl/src/extra/widgets/dclock/../../../core/lv_obj_style_gen.h ****     return (lv_opa_t)v.num;
 353:lvgl/src/extra/widgets/dclock/../../../core/lv_obj_style_gen.h **** }
 354:lvgl/src/extra/widgets/dclock/../../../core/lv_obj_style_gen.h **** 
 355:lvgl/src/extra/widgets/dclock/../../../core/lv_obj_style_gen.h **** static inline lv_coord_t lv_obj_get_style_line_width(const struct _lv_obj_t * obj, uint32_t part)
 356:lvgl/src/extra/widgets/dclock/../../../core/lv_obj_style_gen.h **** {
 357:lvgl/src/extra/widgets/dclock/../../../core/lv_obj_style_gen.h ****     lv_style_value_t v = lv_obj_get_style_prop(obj, part, LV_STYLE_LINE_WIDTH);
 358:lvgl/src/extra/widgets/dclock/../../../core/lv_obj_style_gen.h ****     return (lv_coord_t)v.num;
 359:lvgl/src/extra/widgets/dclock/../../../core/lv_obj_style_gen.h **** }
 360:lvgl/src/extra/widgets/dclock/../../../core/lv_obj_style_gen.h **** 
 361:lvgl/src/extra/widgets/dclock/../../../core/lv_obj_style_gen.h **** static inline lv_coord_t lv_obj_get_style_line_dash_width(const struct _lv_obj_t * obj, uint32_t pa
 362:lvgl/src/extra/widgets/dclock/../../../core/lv_obj_style_gen.h **** {
 363:lvgl/src/extra/widgets/dclock/../../../core/lv_obj_style_gen.h ****     lv_style_value_t v = lv_obj_get_style_prop(obj, part, LV_STYLE_LINE_DASH_WIDTH);
 364:lvgl/src/extra/widgets/dclock/../../../core/lv_obj_style_gen.h ****     return (lv_coord_t)v.num;
 365:lvgl/src/extra/widgets/dclock/../../../core/lv_obj_style_gen.h **** }
 366:lvgl/src/extra/widgets/dclock/../../../core/lv_obj_style_gen.h **** 
 367:lvgl/src/extra/widgets/dclock/../../../core/lv_obj_style_gen.h **** static inline lv_coord_t lv_obj_get_style_line_dash_gap(const struct _lv_obj_t * obj, uint32_t part
 368:lvgl/src/extra/widgets/dclock/../../../core/lv_obj_style_gen.h **** {
 369:lvgl/src/extra/widgets/dclock/../../../core/lv_obj_style_gen.h ****     lv_style_value_t v = lv_obj_get_style_prop(obj, part, LV_STYLE_LINE_DASH_GAP);
 370:lvgl/src/extra/widgets/dclock/../../../core/lv_obj_style_gen.h ****     return (lv_coord_t)v.num;
 371:lvgl/src/extra/widgets/dclock/../../../core/lv_obj_style_gen.h **** }
 372:lvgl/src/extra/widgets/dclock/../../../core/lv_obj_style_gen.h **** 
 373:lvgl/src/extra/widgets/dclock/../../../core/lv_obj_style_gen.h **** static inline bool lv_obj_get_style_line_rounded(const struct _lv_obj_t * obj, uint32_t part)
 374:lvgl/src/extra/widgets/dclock/../../../core/lv_obj_style_gen.h **** {
 375:lvgl/src/extra/widgets/dclock/../../../core/lv_obj_style_gen.h ****     lv_style_value_t v = lv_obj_get_style_prop(obj, part, LV_STYLE_LINE_ROUNDED);
 376:lvgl/src/extra/widgets/dclock/../../../core/lv_obj_style_gen.h ****     return (bool)v.num;
 377:lvgl/src/extra/widgets/dclock/../../../core/lv_obj_style_gen.h **** }
 378:lvgl/src/extra/widgets/dclock/../../../core/lv_obj_style_gen.h **** 
 379:lvgl/src/extra/widgets/dclock/../../../core/lv_obj_style_gen.h **** static inline lv_color_t lv_obj_get_style_line_color(const struct _lv_obj_t * obj, uint32_t part)
 380:lvgl/src/extra/widgets/dclock/../../../core/lv_obj_style_gen.h **** {
 381:lvgl/src/extra/widgets/dclock/../../../core/lv_obj_style_gen.h ****     lv_style_value_t v = lv_obj_get_style_prop(obj, part, LV_STYLE_LINE_COLOR);
 382:lvgl/src/extra/widgets/dclock/../../../core/lv_obj_style_gen.h ****     return v.color;
 383:lvgl/src/extra/widgets/dclock/../../../core/lv_obj_style_gen.h **** }
 384:lvgl/src/extra/widgets/dclock/../../../core/lv_obj_style_gen.h **** 
 385:lvgl/src/extra/widgets/dclock/../../../core/lv_obj_style_gen.h **** static inline lv_color_t lv_obj_get_style_line_color_filtered(const struct _lv_obj_t * obj, uint32_
 386:lvgl/src/extra/widgets/dclock/../../../core/lv_obj_style_gen.h **** {
 387:lvgl/src/extra/widgets/dclock/../../../core/lv_obj_style_gen.h ****     lv_style_value_t v = lv_obj_get_style_prop(obj, part, LV_STYLE_LINE_COLOR_FILTERED);
 388:lvgl/src/extra/widgets/dclock/../../../core/lv_obj_style_gen.h ****     return v.color;
 389:lvgl/src/extra/widgets/dclock/../../../core/lv_obj_style_gen.h **** }
 390:lvgl/src/extra/widgets/dclock/../../../core/lv_obj_style_gen.h **** 
 391:lvgl/src/extra/widgets/dclock/../../../core/lv_obj_style_gen.h **** static inline lv_opa_t lv_obj_get_style_line_opa(const struct _lv_obj_t * obj, uint32_t part)
 392:lvgl/src/extra/widgets/dclock/../../../core/lv_obj_style_gen.h **** {
 393:lvgl/src/extra/widgets/dclock/../../../core/lv_obj_style_gen.h ****     lv_style_value_t v = lv_obj_get_style_prop(obj, part, LV_STYLE_LINE_OPA);
 394:lvgl/src/extra/widgets/dclock/../../../core/lv_obj_style_gen.h ****     return (lv_opa_t)v.num;
 395:lvgl/src/extra/widgets/dclock/../../../core/lv_obj_style_gen.h **** }
 396:lvgl/src/extra/widgets/dclock/../../../core/lv_obj_style_gen.h **** 
 397:lvgl/src/extra/widgets/dclock/../../../core/lv_obj_style_gen.h **** static inline lv_coord_t lv_obj_get_style_arc_width(const struct _lv_obj_t * obj, uint32_t part)
 398:lvgl/src/extra/widgets/dclock/../../../core/lv_obj_style_gen.h **** {
 399:lvgl/src/extra/widgets/dclock/../../../core/lv_obj_style_gen.h ****     lv_style_value_t v = lv_obj_get_style_prop(obj, part, LV_STYLE_ARC_WIDTH);
ARM GAS  C:\usertemp\ccL9DfK7.s 			page 19


 400:lvgl/src/extra/widgets/dclock/../../../core/lv_obj_style_gen.h ****     return (lv_coord_t)v.num;
 401:lvgl/src/extra/widgets/dclock/../../../core/lv_obj_style_gen.h **** }
 402:lvgl/src/extra/widgets/dclock/../../../core/lv_obj_style_gen.h **** 
 403:lvgl/src/extra/widgets/dclock/../../../core/lv_obj_style_gen.h **** static inline bool lv_obj_get_style_arc_rounded(const struct _lv_obj_t * obj, uint32_t part)
 404:lvgl/src/extra/widgets/dclock/../../../core/lv_obj_style_gen.h **** {
 405:lvgl/src/extra/widgets/dclock/../../../core/lv_obj_style_gen.h ****     lv_style_value_t v = lv_obj_get_style_prop(obj, part, LV_STYLE_ARC_ROUNDED);
 406:lvgl/src/extra/widgets/dclock/../../../core/lv_obj_style_gen.h ****     return (bool)v.num;
 407:lvgl/src/extra/widgets/dclock/../../../core/lv_obj_style_gen.h **** }
 408:lvgl/src/extra/widgets/dclock/../../../core/lv_obj_style_gen.h **** 
 409:lvgl/src/extra/widgets/dclock/../../../core/lv_obj_style_gen.h **** static inline lv_color_t lv_obj_get_style_arc_color(const struct _lv_obj_t * obj, uint32_t part)
 410:lvgl/src/extra/widgets/dclock/../../../core/lv_obj_style_gen.h **** {
 411:lvgl/src/extra/widgets/dclock/../../../core/lv_obj_style_gen.h ****     lv_style_value_t v = lv_obj_get_style_prop(obj, part, LV_STYLE_ARC_COLOR);
 412:lvgl/src/extra/widgets/dclock/../../../core/lv_obj_style_gen.h ****     return v.color;
 413:lvgl/src/extra/widgets/dclock/../../../core/lv_obj_style_gen.h **** }
 414:lvgl/src/extra/widgets/dclock/../../../core/lv_obj_style_gen.h **** 
 415:lvgl/src/extra/widgets/dclock/../../../core/lv_obj_style_gen.h **** static inline lv_color_t lv_obj_get_style_arc_color_filtered(const struct _lv_obj_t * obj, uint32_t
 416:lvgl/src/extra/widgets/dclock/../../../core/lv_obj_style_gen.h **** {
 417:lvgl/src/extra/widgets/dclock/../../../core/lv_obj_style_gen.h ****     lv_style_value_t v = lv_obj_get_style_prop(obj, part, LV_STYLE_ARC_COLOR_FILTERED);
 418:lvgl/src/extra/widgets/dclock/../../../core/lv_obj_style_gen.h ****     return v.color;
 419:lvgl/src/extra/widgets/dclock/../../../core/lv_obj_style_gen.h **** }
 420:lvgl/src/extra/widgets/dclock/../../../core/lv_obj_style_gen.h **** 
 421:lvgl/src/extra/widgets/dclock/../../../core/lv_obj_style_gen.h **** static inline lv_opa_t lv_obj_get_style_arc_opa(const struct _lv_obj_t * obj, uint32_t part)
 422:lvgl/src/extra/widgets/dclock/../../../core/lv_obj_style_gen.h **** {
 423:lvgl/src/extra/widgets/dclock/../../../core/lv_obj_style_gen.h ****     lv_style_value_t v = lv_obj_get_style_prop(obj, part, LV_STYLE_ARC_OPA);
 424:lvgl/src/extra/widgets/dclock/../../../core/lv_obj_style_gen.h ****     return (lv_opa_t)v.num;
 425:lvgl/src/extra/widgets/dclock/../../../core/lv_obj_style_gen.h **** }
 426:lvgl/src/extra/widgets/dclock/../../../core/lv_obj_style_gen.h **** 
 427:lvgl/src/extra/widgets/dclock/../../../core/lv_obj_style_gen.h **** static inline const void * lv_obj_get_style_arc_img_src(const struct _lv_obj_t * obj, uint32_t part
 428:lvgl/src/extra/widgets/dclock/../../../core/lv_obj_style_gen.h **** {
 429:lvgl/src/extra/widgets/dclock/../../../core/lv_obj_style_gen.h ****     lv_style_value_t v = lv_obj_get_style_prop(obj, part, LV_STYLE_ARC_IMG_SRC);
 430:lvgl/src/extra/widgets/dclock/../../../core/lv_obj_style_gen.h ****     return (const void *)v.ptr;
 431:lvgl/src/extra/widgets/dclock/../../../core/lv_obj_style_gen.h **** }
 432:lvgl/src/extra/widgets/dclock/../../../core/lv_obj_style_gen.h **** 
 433:lvgl/src/extra/widgets/dclock/../../../core/lv_obj_style_gen.h **** static inline lv_color_t lv_obj_get_style_text_color(const struct _lv_obj_t * obj, uint32_t part)
 434:lvgl/src/extra/widgets/dclock/../../../core/lv_obj_style_gen.h **** {
 435:lvgl/src/extra/widgets/dclock/../../../core/lv_obj_style_gen.h ****     lv_style_value_t v = lv_obj_get_style_prop(obj, part, LV_STYLE_TEXT_COLOR);
 436:lvgl/src/extra/widgets/dclock/../../../core/lv_obj_style_gen.h ****     return v.color;
 437:lvgl/src/extra/widgets/dclock/../../../core/lv_obj_style_gen.h **** }
 438:lvgl/src/extra/widgets/dclock/../../../core/lv_obj_style_gen.h **** 
 439:lvgl/src/extra/widgets/dclock/../../../core/lv_obj_style_gen.h **** static inline lv_color_t lv_obj_get_style_text_color_filtered(const struct _lv_obj_t * obj, uint32_
 440:lvgl/src/extra/widgets/dclock/../../../core/lv_obj_style_gen.h **** {
 441:lvgl/src/extra/widgets/dclock/../../../core/lv_obj_style_gen.h ****     lv_style_value_t v = lv_obj_get_style_prop(obj, part, LV_STYLE_TEXT_COLOR_FILTERED);
 442:lvgl/src/extra/widgets/dclock/../../../core/lv_obj_style_gen.h ****     return v.color;
 443:lvgl/src/extra/widgets/dclock/../../../core/lv_obj_style_gen.h **** }
 444:lvgl/src/extra/widgets/dclock/../../../core/lv_obj_style_gen.h **** 
 445:lvgl/src/extra/widgets/dclock/../../../core/lv_obj_style_gen.h **** static inline lv_opa_t lv_obj_get_style_text_opa(const struct _lv_obj_t * obj, uint32_t part)
 446:lvgl/src/extra/widgets/dclock/../../../core/lv_obj_style_gen.h **** {
 447:lvgl/src/extra/widgets/dclock/../../../core/lv_obj_style_gen.h ****     lv_style_value_t v = lv_obj_get_style_prop(obj, part, LV_STYLE_TEXT_OPA);
 448:lvgl/src/extra/widgets/dclock/../../../core/lv_obj_style_gen.h ****     return (lv_opa_t)v.num;
 449:lvgl/src/extra/widgets/dclock/../../../core/lv_obj_style_gen.h **** }
 450:lvgl/src/extra/widgets/dclock/../../../core/lv_obj_style_gen.h **** 
 451:lvgl/src/extra/widgets/dclock/../../../core/lv_obj_style_gen.h **** static inline const lv_font_t * lv_obj_get_style_text_font(const struct _lv_obj_t * obj, uint32_t p
  85              		.loc 3 451 33 view .LVU18
  86              	.LBB37:
 452:lvgl/src/extra/widgets/dclock/../../../core/lv_obj_style_gen.h **** {
 453:lvgl/src/extra/widgets/dclock/../../../core/lv_obj_style_gen.h ****     lv_style_value_t v = lv_obj_get_style_prop(obj, part, LV_STYLE_TEXT_FONT);
  87              		.loc 3 453 5 view .LVU19
ARM GAS  C:\usertemp\ccL9DfK7.s 			page 20


  88              		.loc 3 453 26 is_stmt 0 view .LVU20
  89 0024 41F25942 		movw	r2, #5209
  90 0028 0021     		movs	r1, #0
  91 002a 2046     		mov	r0, r4
  92 002c FFF7FEFF 		bl	lv_obj_get_style_prop
  93              	.LVL3:
  94 0030 0646     		mov	r6, r0
 454:lvgl/src/extra/widgets/dclock/../../../core/lv_obj_style_gen.h ****     return (const lv_font_t *)v.ptr;
  95              		.loc 3 454 5 is_stmt 1 view .LVU21
  96              	.LVL4:
  97              		.loc 3 454 5 is_stmt 0 view .LVU22
  98              	.LBE37:
  99              	.LBE36:
 419:lvgl/src/extra/widgets/dclock/lv_dclock.c ****     lv_coord_t line_space = lv_obj_get_style_text_line_space(obj, LV_PART_MAIN);
 100              		.loc 1 419 5 is_stmt 1 view .LVU23
 101              	.LBB38:
 102              	.LBI38:
 455:lvgl/src/extra/widgets/dclock/../../../core/lv_obj_style_gen.h **** }
 456:lvgl/src/extra/widgets/dclock/../../../core/lv_obj_style_gen.h **** 
 457:lvgl/src/extra/widgets/dclock/../../../core/lv_obj_style_gen.h **** static inline lv_coord_t lv_obj_get_style_text_letter_space(const struct _lv_obj_t * obj, uint32_t 
 458:lvgl/src/extra/widgets/dclock/../../../core/lv_obj_style_gen.h **** {
 459:lvgl/src/extra/widgets/dclock/../../../core/lv_obj_style_gen.h ****     lv_style_value_t v = lv_obj_get_style_prop(obj, part, LV_STYLE_TEXT_LETTER_SPACE);
 460:lvgl/src/extra/widgets/dclock/../../../core/lv_obj_style_gen.h ****     return (lv_coord_t)v.num;
 461:lvgl/src/extra/widgets/dclock/../../../core/lv_obj_style_gen.h **** }
 462:lvgl/src/extra/widgets/dclock/../../../core/lv_obj_style_gen.h **** 
 463:lvgl/src/extra/widgets/dclock/../../../core/lv_obj_style_gen.h **** static inline lv_coord_t lv_obj_get_style_text_line_space(const struct _lv_obj_t * obj, uint32_t pa
 103              		.loc 3 463 26 view .LVU24
 104              	.LBB39:
 464:lvgl/src/extra/widgets/dclock/../../../core/lv_obj_style_gen.h **** {
 465:lvgl/src/extra/widgets/dclock/../../../core/lv_obj_style_gen.h ****     lv_style_value_t v = lv_obj_get_style_prop(obj, part, LV_STYLE_TEXT_LINE_SPACE);
 105              		.loc 3 465 5 view .LVU25
 106              		.loc 3 465 26 is_stmt 0 view .LVU26
 107 0032 41F25B42 		movw	r2, #5211
 108 0036 0021     		movs	r1, #0
 109 0038 2046     		mov	r0, r4
 110              	.LVL5:
 111              		.loc 3 465 26 view .LVU27
 112 003a FFF7FEFF 		bl	lv_obj_get_style_prop
 113              	.LVL6:
 466:lvgl/src/extra/widgets/dclock/../../../core/lv_obj_style_gen.h ****     return (lv_coord_t)v.num;
 114              		.loc 3 466 5 is_stmt 1 view .LVU28
 115              		.loc 3 466 12 is_stmt 0 view .LVU29
 116 003e 0FFA80F8 		sxth	r8, r0
 117              	.LVL7:
 118              		.loc 3 466 12 view .LVU30
 119              	.LBE39:
 120              	.LBE38:
 420:lvgl/src/extra/widgets/dclock/lv_dclock.c ****     lv_coord_t letter_space = lv_obj_get_style_text_letter_space(obj, LV_PART_MAIN);
 121              		.loc 1 420 5 is_stmt 1 view .LVU31
 122              	.LBB40:
 123              	.LBI40:
 457:lvgl/src/extra/widgets/dclock/../../../core/lv_obj_style_gen.h **** {
 124              		.loc 3 457 26 view .LVU32
 125              	.LBB41:
 459:lvgl/src/extra/widgets/dclock/../../../core/lv_obj_style_gen.h ****     return (lv_coord_t)v.num;
 126              		.loc 3 459 5 view .LVU33
 459:lvgl/src/extra/widgets/dclock/../../../core/lv_obj_style_gen.h ****     return (lv_coord_t)v.num;
ARM GAS  C:\usertemp\ccL9DfK7.s 			page 21


 127              		.loc 3 459 26 is_stmt 0 view .LVU34
 128 0042 41F25A42 		movw	r2, #5210
 129 0046 0021     		movs	r1, #0
 130 0048 2046     		mov	r0, r4
 131 004a FFF7FEFF 		bl	lv_obj_get_style_prop
 132              	.LVL8:
 460:lvgl/src/extra/widgets/dclock/../../../core/lv_obj_style_gen.h **** }
 133              		.loc 3 460 5 is_stmt 1 view .LVU35
 460:lvgl/src/extra/widgets/dclock/../../../core/lv_obj_style_gen.h **** }
 134              		.loc 3 460 12 is_stmt 0 view .LVU36
 135 004e 07B2     		sxth	r7, r0
 136              	.LVL9:
 460:lvgl/src/extra/widgets/dclock/../../../core/lv_obj_style_gen.h **** }
 137              		.loc 3 460 12 view .LVU37
 138              	.LBE41:
 139              	.LBE40:
 421:lvgl/src/extra/widgets/dclock/lv_dclock.c **** 
 422:lvgl/src/extra/widgets/dclock/lv_dclock.c ****     /*Calc. the height and longest line*/
 423:lvgl/src/extra/widgets/dclock/lv_dclock.c ****     lv_point_t size;
 140              		.loc 1 423 5 is_stmt 1 view .LVU38
 424:lvgl/src/extra/widgets/dclock/lv_dclock.c ****     lv_text_flag_t flag = LV_TEXT_FLAG_NONE;
 141              		.loc 1 424 5 view .LVU39
 425:lvgl/src/extra/widgets/dclock/lv_dclock.c ****     if(dclock->recolor != 0) flag |= LV_TEXT_FLAG_RECOLOR;
 142              		.loc 1 425 5 view .LVU40
 143              		.loc 1 425 24 is_stmt 0 view .LVU41
 144 0050 94F83430 		ldrb	r3, [r4, #52]	@ zero_extendqisi2
 145              		.loc 1 425 7 view .LVU42
 146 0054 13F00209 		ands	r9, r3, #2
 147 0058 01D0     		beq	.L4
 148              		.loc 1 425 35 discriminator 1 view .LVU43
 149 005a 4FF00109 		mov	r9, #1
 150              	.L4:
 151              	.LVL10:
 426:lvgl/src/extra/widgets/dclock/lv_dclock.c ****     if(dclock->expand != 0) flag |= LV_TEXT_FLAG_EXPAND;
 152              		.loc 1 426 5 is_stmt 1 view .LVU44
 153              		.loc 1 426 7 is_stmt 0 view .LVU45
 154 005e 13F0040F 		tst	r3, #4
 155 0062 01D0     		beq	.L5
 156              		.loc 1 426 29 is_stmt 1 discriminator 1 view .LVU46
 157              		.loc 1 426 34 is_stmt 0 discriminator 1 view .LVU47
 158 0064 49F00209 		orr	r9, r9, #2
 159              	.LVL11:
 160              	.L5:
 427:lvgl/src/extra/widgets/dclock/lv_dclock.c ****     if(lv_obj_get_style_width(obj, LV_PART_MAIN) == LV_SIZE_CONTENT && !obj->w_layout) flag |= LV_T
 161              		.loc 1 427 5 is_stmt 1 view .LVU48
 162              	.LBB42:
 163              	.LBI42:
   1:lvgl/src/extra/widgets/dclock/../../../core/lv_obj_style_gen.h **** {
 164              		.loc 3 1 26 view .LVU49
 165              	.LBB43:
   3:lvgl/src/extra/widgets/dclock/../../../core/lv_obj_style_gen.h ****     return (lv_coord_t)v.num;
 166              		.loc 3 3 5 view .LVU50
   3:lvgl/src/extra/widgets/dclock/../../../core/lv_obj_style_gen.h ****     return (lv_coord_t)v.num;
 167              		.loc 3 3 26 is_stmt 0 view .LVU51
 168 0068 41F20102 		movw	r2, #4097
 169 006c 0021     		movs	r1, #0
 170 006e 2046     		mov	r0, r4
ARM GAS  C:\usertemp\ccL9DfK7.s 			page 22


 171 0070 FFF7FEFF 		bl	lv_obj_get_style_prop
 172              	.LVL12:
   4:lvgl/src/extra/widgets/dclock/../../../core/lv_obj_style_gen.h **** }
 173              		.loc 3 4 5 is_stmt 1 view .LVU52
   4:lvgl/src/extra/widgets/dclock/../../../core/lv_obj_style_gen.h **** }
 174              		.loc 3 4 12 is_stmt 0 view .LVU53
 175 0074 00B2     		sxth	r0, r0
 176              	.LVL13:
   4:lvgl/src/extra/widgets/dclock/../../../core/lv_obj_style_gen.h **** }
 177              		.loc 3 4 12 view .LVU54
 178              	.LBE43:
 179              	.LBE42:
 180              		.loc 1 427 7 discriminator 1 view .LVU55
 181 0076 42F2D173 		movw	r3, #10193
 182 007a 9842     		cmp	r0, r3
 183 007c 13D0     		beq	.L12
 184              	.L6:
 428:lvgl/src/extra/widgets/dclock/lv_dclock.c **** 
 429:lvgl/src/extra/widgets/dclock/lv_dclock.c ****     lv_txt_get_size(&size, dclock->text, font, letter_space, line_space, max_w, flag);
 185              		.loc 1 429 5 is_stmt 1 view .LVU56
 186 007e CDF80890 		str	r9, [sp, #8]
 187 0082 0195     		str	r5, [sp, #4]
 188 0084 CDF80080 		str	r8, [sp]
 189 0088 3B46     		mov	r3, r7
 190 008a 3246     		mov	r2, r6
 191 008c 616A     		ldr	r1, [r4, #36]
 192 008e 05A8     		add	r0, sp, #20
 193 0090 FFF7FEFF 		bl	lv_txt_get_size
 194              	.LVL14:
 430:lvgl/src/extra/widgets/dclock/lv_dclock.c **** 
 431:lvgl/src/extra/widgets/dclock/lv_dclock.c ****     lv_obj_refresh_self_size(obj);
 195              		.loc 1 431 5 view .LVU57
 196 0094 2046     		mov	r0, r4
 197 0096 FFF7FEFF 		bl	lv_obj_refresh_self_size
 198              	.LVL15:
 432:lvgl/src/extra/widgets/dclock/lv_dclock.c **** 
 433:lvgl/src/extra/widgets/dclock/lv_dclock.c ****     lv_obj_invalidate(obj);
 199              		.loc 1 433 5 view .LVU58
 200 009a 2046     		mov	r0, r4
 201 009c FFF7FEFF 		bl	lv_obj_invalidate
 202              	.LVL16:
 434:lvgl/src/extra/widgets/dclock/lv_dclock.c **** 
 435:lvgl/src/extra/widgets/dclock/lv_dclock.c **** }
 203              		.loc 1 435 1 is_stmt 0 view .LVU59
 204 00a0 09B0     		add	sp, sp, #36
 205              	.LCFI2:
 206              		.cfi_remember_state
 207              		.cfi_def_cfa_offset 28
 208              		@ sp needed
 209 00a2 BDE8F083 		pop	{r4, r5, r6, r7, r8, r9, pc}
 210              	.LVL17:
 211              	.L12:
 212              	.LCFI3:
 213              		.cfi_restore_state
 427:lvgl/src/extra/widgets/dclock/lv_dclock.c **** 
 214              		.loc 1 427 72 discriminator 1 view .LVU60
 215 00a6 94F82330 		ldrb	r3, [r4, #35]	@ zero_extendqisi2
ARM GAS  C:\usertemp\ccL9DfK7.s 			page 23


 427:lvgl/src/extra/widgets/dclock/lv_dclock.c **** 
 216              		.loc 1 427 69 discriminator 1 view .LVU61
 217 00aa 13F0040F 		tst	r3, #4
 218 00ae E6D1     		bne	.L6
 427:lvgl/src/extra/widgets/dclock/lv_dclock.c **** 
 219              		.loc 1 427 88 is_stmt 1 discriminator 2 view .LVU62
 427:lvgl/src/extra/widgets/dclock/lv_dclock.c **** 
 220              		.loc 1 427 93 is_stmt 0 discriminator 2 view .LVU63
 221 00b0 49F00409 		orr	r9, r9, #4
 222              	.LVL18:
 427:lvgl/src/extra/widgets/dclock/lv_dclock.c **** 
 223              		.loc 1 427 93 discriminator 2 view .LVU64
 224 00b4 E3E7     		b	.L6
 225              	.LVL19:
 226              	.L9:
 227              	.LCFI4:
 228              		.cfi_def_cfa_offset 0
 229              		.cfi_restore 4
 230              		.cfi_restore 5
 231              		.cfi_restore 6
 232              		.cfi_restore 7
 233              		.cfi_restore 8
 234              		.cfi_restore 9
 235              		.cfi_restore 14
 427:lvgl/src/extra/widgets/dclock/lv_dclock.c **** 
 236              		.loc 1 427 93 discriminator 2 view .LVU65
 237 00b6 7047     		bx	lr
 238              		.cfi_endproc
 239              	.LFE167:
 241              		.section	.text.lv_dclock_destructor,"ax",%progbits
 242              		.align	1
 243              		.syntax unified
 244              		.thumb
 245              		.thumb_func
 247              	lv_dclock_destructor:
 248              	.LVL20:
 249              	.LFB164:
 286:lvgl/src/extra/widgets/dclock/lv_dclock.c ****     LV_UNUSED(class_p);
 250              		.loc 1 286 1 is_stmt 1 view -0
 251              		.cfi_startproc
 252              		@ args = 0, pretend = 0, frame = 0
 253              		@ frame_needed = 0, uses_anonymous_args = 0
 286:lvgl/src/extra/widgets/dclock/lv_dclock.c ****     LV_UNUSED(class_p);
 254              		.loc 1 286 1 is_stmt 0 view .LVU67
 255 0000 10B5     		push	{r4, lr}
 256              	.LCFI5:
 257              		.cfi_def_cfa_offset 8
 258              		.cfi_offset 4, -8
 259              		.cfi_offset 14, -4
 260 0002 0C46     		mov	r4, r1
 287:lvgl/src/extra/widgets/dclock/lv_dclock.c ****     lv_dclock_t * dclock = (lv_dclock_t *)obj;
 261              		.loc 1 287 5 is_stmt 1 view .LVU68
 288:lvgl/src/extra/widgets/dclock/lv_dclock.c **** 
 262              		.loc 1 288 5 view .LVU69
 263              	.LVL21:
 290:lvgl/src/extra/widgets/dclock/lv_dclock.c ****     dclock->text = NULL;
 264              		.loc 1 290 5 view .LVU70
ARM GAS  C:\usertemp\ccL9DfK7.s 			page 24


 290:lvgl/src/extra/widgets/dclock/lv_dclock.c ****     dclock->text = NULL;
 265              		.loc 1 290 8 is_stmt 0 view .LVU71
 266 0004 91F83430 		ldrb	r3, [r1, #52]	@ zero_extendqisi2
 290:lvgl/src/extra/widgets/dclock/lv_dclock.c ****     dclock->text = NULL;
 267              		.loc 1 290 7 view .LVU72
 268 0008 13F0010F 		tst	r3, #1
 269 000c 02D0     		beq	.L16
 270              	.LVL22:
 271              	.L14:
 291:lvgl/src/extra/widgets/dclock/lv_dclock.c **** }
 272              		.loc 1 291 5 is_stmt 1 view .LVU73
 291:lvgl/src/extra/widgets/dclock/lv_dclock.c **** }
 273              		.loc 1 291 18 is_stmt 0 view .LVU74
 274 000e 0023     		movs	r3, #0
 275 0010 6362     		str	r3, [r4, #36]
 292:lvgl/src/extra/widgets/dclock/lv_dclock.c **** 
 276              		.loc 1 292 1 view .LVU75
 277 0012 10BD     		pop	{r4, pc}
 278              	.LVL23:
 279              	.L16:
 290:lvgl/src/extra/widgets/dclock/lv_dclock.c ****     dclock->text = NULL;
 280              		.loc 1 290 29 is_stmt 1 discriminator 1 view .LVU76
 281 0014 486A     		ldr	r0, [r1, #36]
 282              	.LVL24:
 290:lvgl/src/extra/widgets/dclock/lv_dclock.c ****     dclock->text = NULL;
 283              		.loc 1 290 29 is_stmt 0 discriminator 1 view .LVU77
 284 0016 FFF7FEFF 		bl	lv_mem_free
 285              	.LVL25:
 290:lvgl/src/extra/widgets/dclock/lv_dclock.c ****     dclock->text = NULL;
 286              		.loc 1 290 29 discriminator 1 view .LVU78
 287 001a F8E7     		b	.L14
 288              		.cfi_endproc
 289              	.LFE164:
 291              		.section	.text.lv_dclock_constructor,"ax",%progbits
 292              		.align	1
 293              		.syntax unified
 294              		.thumb
 295              		.thumb_func
 297              	lv_dclock_constructor:
 298              	.LVL26:
 299              	.LFB163:
 263:lvgl/src/extra/widgets/dclock/lv_dclock.c ****     LV_UNUSED(class_p);
 300              		.loc 1 263 1 is_stmt 1 view -0
 301              		.cfi_startproc
 302              		@ args = 0, pretend = 0, frame = 0
 303              		@ frame_needed = 0, uses_anonymous_args = 0
 263:lvgl/src/extra/widgets/dclock/lv_dclock.c ****     LV_UNUSED(class_p);
 304              		.loc 1 263 1 is_stmt 0 view .LVU80
 305 0000 08B5     		push	{r3, lr}
 306              	.LCFI6:
 307              		.cfi_def_cfa_offset 8
 308              		.cfi_offset 3, -8
 309              		.cfi_offset 14, -4
 310 0002 0846     		mov	r0, r1
 311              	.LVL27:
 264:lvgl/src/extra/widgets/dclock/lv_dclock.c ****     LV_TRACE_OBJ_CREATE("begin");
 312              		.loc 1 264 5 is_stmt 1 view .LVU81
ARM GAS  C:\usertemp\ccL9DfK7.s 			page 25


 265:lvgl/src/extra/widgets/dclock/lv_dclock.c **** 
 313              		.loc 1 265 5 view .LVU82
 265:lvgl/src/extra/widgets/dclock/lv_dclock.c **** 
 314              		.loc 1 265 5 view .LVU83
 265:lvgl/src/extra/widgets/dclock/lv_dclock.c **** 
 315              		.loc 1 265 5 view .LVU84
 267:lvgl/src/extra/widgets/dclock/lv_dclock.c **** 
 316              		.loc 1 267 5 view .LVU85
 269:lvgl/src/extra/widgets/dclock/lv_dclock.c ****     dclock->static_txt = 0;
 317              		.loc 1 269 5 view .LVU86
 269:lvgl/src/extra/widgets/dclock/lv_dclock.c ****     dclock->static_txt = 0;
 318              		.loc 1 269 24 is_stmt 0 view .LVU87
 319 0004 0023     		movs	r3, #0
 320 0006 4B62     		str	r3, [r1, #36]
 270:lvgl/src/extra/widgets/dclock/lv_dclock.c ****     dclock->recolor    = 0;
 321              		.loc 1 270 5 is_stmt 1 view .LVU88
 270:lvgl/src/extra/widgets/dclock/lv_dclock.c ****     dclock->recolor    = 0;
 322              		.loc 1 270 24 is_stmt 0 view .LVU89
 323 0008 91F83420 		ldrb	r2, [r1, #52]	@ zero_extendqisi2
 324 000c 63F30002 		bfi	r2, r3, #0, #1
 325 0010 81F83420 		strb	r2, [r1, #52]
 271:lvgl/src/extra/widgets/dclock/lv_dclock.c ****     dclock->offset.x = 0;
 326              		.loc 1 271 5 is_stmt 1 view .LVU90
 271:lvgl/src/extra/widgets/dclock/lv_dclock.c ****     dclock->offset.x = 0;
 327              		.loc 1 271 24 is_stmt 0 view .LVU91
 328 0014 D2B2     		uxtb	r2, r2
 329 0016 63F34102 		bfi	r2, r3, #1, #1
 330 001a 81F83420 		strb	r2, [r1, #52]
 272:lvgl/src/extra/widgets/dclock/lv_dclock.c ****     dclock->offset.y = 0;
 331              		.loc 1 272 5 is_stmt 1 view .LVU92
 272:lvgl/src/extra/widgets/dclock/lv_dclock.c ****     dclock->offset.y = 0;
 332              		.loc 1 272 22 is_stmt 0 view .LVU93
 333 001e 0B86     		strh	r3, [r1, #48]	@ movhi
 273:lvgl/src/extra/widgets/dclock/lv_dclock.c **** 
 334              		.loc 1 273 5 is_stmt 1 view .LVU94
 273:lvgl/src/extra/widgets/dclock/lv_dclock.c **** 
 335              		.loc 1 273 22 is_stmt 0 view .LVU95
 336 0020 4B86     		strh	r3, [r1, #50]	@ movhi
 276:lvgl/src/extra/widgets/dclock/lv_dclock.c ****     dclock->sel_end   = LV_DRAW_LABEL_NO_TXT_SEL;
 337              		.loc 1 276 5 is_stmt 1 view .LVU96
 276:lvgl/src/extra/widgets/dclock/lv_dclock.c ****     dclock->sel_end   = LV_DRAW_LABEL_NO_TXT_SEL;
 338              		.loc 1 276 23 is_stmt 0 view .LVU97
 339 0022 4FF6FF73 		movw	r3, #65535
 340 0026 8B62     		str	r3, [r1, #40]
 277:lvgl/src/extra/widgets/dclock/lv_dclock.c **** #endif
 341              		.loc 1 277 5 is_stmt 1 view .LVU98
 277:lvgl/src/extra/widgets/dclock/lv_dclock.c **** #endif
 342              		.loc 1 277 23 is_stmt 0 view .LVU99
 343 0028 CB62     		str	r3, [r1, #44]
 280:lvgl/src/extra/widgets/dclock/lv_dclock.c **** 
 344              		.loc 1 280 5 is_stmt 1 view .LVU100
 345 002a 0221     		movs	r1, #2
 346              	.LVL28:
 280:lvgl/src/extra/widgets/dclock/lv_dclock.c **** 
 347              		.loc 1 280 5 is_stmt 0 view .LVU101
 348 002c FFF7FEFF 		bl	lv_obj_clear_flag
 349              	.LVL29:
ARM GAS  C:\usertemp\ccL9DfK7.s 			page 26


 282:lvgl/src/extra/widgets/dclock/lv_dclock.c **** }
 350              		.loc 1 282 5 is_stmt 1 view .LVU102
 282:lvgl/src/extra/widgets/dclock/lv_dclock.c **** }
 351              		.loc 1 282 5 view .LVU103
 282:lvgl/src/extra/widgets/dclock/lv_dclock.c **** }
 352              		.loc 1 282 5 view .LVU104
 283:lvgl/src/extra/widgets/dclock/lv_dclock.c **** 
 353              		.loc 1 283 1 is_stmt 0 view .LVU105
 354 0030 08BD     		pop	{r3, pc}
 355              		.cfi_endproc
 356              	.LFE163:
 358              		.section	.text.lv_dclock_set_text,"ax",%progbits
 359              		.align	1
 360              		.global	lv_dclock_set_text
 361              		.syntax unified
 362              		.thumb
 363              		.thumb_func
 365              	lv_dclock_set_text:
 366              	.LVL30:
 367              	.LFB157:
  75:lvgl/src/extra/widgets/dclock/lv_dclock.c ****     LV_ASSERT_OBJ(obj, MY_CLASS);
 368              		.loc 1 75 1 is_stmt 1 view -0
 369              		.cfi_startproc
 370              		@ args = 0, pretend = 0, frame = 0
 371              		@ frame_needed = 0, uses_anonymous_args = 0
  75:lvgl/src/extra/widgets/dclock/lv_dclock.c ****     LV_ASSERT_OBJ(obj, MY_CLASS);
 372              		.loc 1 75 1 is_stmt 0 view .LVU107
 373 0000 70B5     		push	{r4, r5, r6, lr}
 374              	.LCFI7:
 375              		.cfi_def_cfa_offset 16
 376              		.cfi_offset 4, -16
 377              		.cfi_offset 5, -12
 378              		.cfi_offset 6, -8
 379              		.cfi_offset 14, -4
 380 0002 0446     		mov	r4, r0
 381 0004 0D46     		mov	r5, r1
  76:lvgl/src/extra/widgets/dclock/lv_dclock.c ****     lv_dclock_t * dclock = (lv_dclock_t *)obj;
 382              		.loc 1 76 5 is_stmt 1 view .LVU108
  76:lvgl/src/extra/widgets/dclock/lv_dclock.c ****     lv_dclock_t * dclock = (lv_dclock_t *)obj;
 383              		.loc 1 76 5 view .LVU109
  76:lvgl/src/extra/widgets/dclock/lv_dclock.c ****     lv_dclock_t * dclock = (lv_dclock_t *)obj;
 384              		.loc 1 76 5 view .LVU110
  77:lvgl/src/extra/widgets/dclock/lv_dclock.c **** 
 385              		.loc 1 77 5 view .LVU111
 386              	.LVL31:
  79:lvgl/src/extra/widgets/dclock/lv_dclock.c **** 
 387              		.loc 1 79 5 view .LVU112
 388 0006 FFF7FEFF 		bl	lv_obj_invalidate
 389              	.LVL32:
  82:lvgl/src/extra/widgets/dclock/lv_dclock.c **** 
 390              		.loc 1 82 5 view .LVU113
  82:lvgl/src/extra/widgets/dclock/lv_dclock.c **** 
 391              		.loc 1 82 7 is_stmt 0 view .LVU114
 392 000a EDB1     		cbz	r5, .L28
 393              	.L20:
  84:lvgl/src/extra/widgets/dclock/lv_dclock.c ****         /*If set its own text then reallocate it (maybe its size changed)*/
 394              		.loc 1 84 5 is_stmt 1 view .LVU115
ARM GAS  C:\usertemp\ccL9DfK7.s 			page 27


  84:lvgl/src/extra/widgets/dclock/lv_dclock.c ****         /*If set its own text then reallocate it (maybe its size changed)*/
 395              		.loc 1 84 14 is_stmt 0 view .LVU116
 396 000c 666A     		ldr	r6, [r4, #36]
  84:lvgl/src/extra/widgets/dclock/lv_dclock.c ****         /*If set its own text then reallocate it (maybe its size changed)*/
 397              		.loc 1 84 7 view .LVU117
 398 000e AE42     		cmp	r6, r5
 399 0010 1CD0     		beq	.L29
 400              	.L21:
 401              	.LBB44:
 104:lvgl/src/extra/widgets/dclock/lv_dclock.c ****             lv_mem_free(dclock->text);
 402              		.loc 1 104 9 is_stmt 1 view .LVU118
 104:lvgl/src/extra/widgets/dclock/lv_dclock.c ****             lv_mem_free(dclock->text);
 403              		.loc 1 104 11 is_stmt 0 view .LVU119
 404 0012 26B1     		cbz	r6, .L24
 104:lvgl/src/extra/widgets/dclock/lv_dclock.c ****             lv_mem_free(dclock->text);
 405              		.loc 1 104 55 discriminator 1 view .LVU120
 406 0014 94F83430 		ldrb	r3, [r4, #52]	@ zero_extendqisi2
 104:lvgl/src/extra/widgets/dclock/lv_dclock.c ****             lv_mem_free(dclock->text);
 407              		.loc 1 104 33 discriminator 1 view .LVU121
 408 0018 13F0010F 		tst	r3, #1
 409 001c 26D0     		beq	.L30
 410              	.L24:
 120:lvgl/src/extra/widgets/dclock/lv_dclock.c **** 
 411              		.loc 1 120 9 is_stmt 1 view .LVU122
 120:lvgl/src/extra/widgets/dclock/lv_dclock.c **** 
 412              		.loc 1 120 22 is_stmt 0 view .LVU123
 413 001e 2846     		mov	r0, r5
 414 0020 FFF7FEFF 		bl	strlen
 415              	.LVL33:
 123:lvgl/src/extra/widgets/dclock/lv_dclock.c ****         LV_ASSERT_MALLOC(dclock->text);
 416              		.loc 1 123 9 is_stmt 1 view .LVU124
 123:lvgl/src/extra/widgets/dclock/lv_dclock.c ****         LV_ASSERT_MALLOC(dclock->text);
 417              		.loc 1 123 24 is_stmt 0 view .LVU125
 418 0024 0130     		adds	r0, r0, #1
 419              	.LVL34:
 123:lvgl/src/extra/widgets/dclock/lv_dclock.c ****         LV_ASSERT_MALLOC(dclock->text);
 420              		.loc 1 123 24 view .LVU126
 421 0026 FFF7FEFF 		bl	lv_mem_alloc
 422              	.LVL35:
 123:lvgl/src/extra/widgets/dclock/lv_dclock.c ****         LV_ASSERT_MALLOC(dclock->text);
 423              		.loc 1 123 22 discriminator 1 view .LVU127
 424 002a 6062     		str	r0, [r4, #36]
 124:lvgl/src/extra/widgets/dclock/lv_dclock.c ****         if(dclock->text == NULL) return;
 425              		.loc 1 124 9 is_stmt 1 view .LVU128
 124:lvgl/src/extra/widgets/dclock/lv_dclock.c ****         if(dclock->text == NULL) return;
 426              		.loc 1 124 9 view .LVU129
 427 002c 20B3     		cbz	r0, .L26
 124:lvgl/src/extra/widgets/dclock/lv_dclock.c ****         if(dclock->text == NULL) return;
 428              		.loc 1 124 9 discriminator 2 view .LVU130
 124:lvgl/src/extra/widgets/dclock/lv_dclock.c ****         if(dclock->text == NULL) return;
 429              		.loc 1 124 39 discriminator 2 view .LVU131
 125:lvgl/src/extra/widgets/dclock/lv_dclock.c ****         strcpy(dclock->text, text);
 430              		.loc 1 125 9 view .LVU132
 126:lvgl/src/extra/widgets/dclock/lv_dclock.c **** #endif
 431              		.loc 1 126 9 view .LVU133
 432 002e 2946     		mov	r1, r5
 433 0030 FFF7FEFF 		bl	strcpy
ARM GAS  C:\usertemp\ccL9DfK7.s 			page 28


 434              	.LVL36:
 130:lvgl/src/extra/widgets/dclock/lv_dclock.c ****     }
 435              		.loc 1 130 9 view .LVU134
 130:lvgl/src/extra/widgets/dclock/lv_dclock.c ****     }
 436              		.loc 1 130 28 is_stmt 0 view .LVU135
 437 0034 94F83430 		ldrb	r3, [r4, #52]	@ zero_extendqisi2
 438 0038 23F00103 		bic	r3, r3, #1
 439 003c 84F83430 		strb	r3, [r4, #52]
 440              	.LVL37:
 441              	.L22:
 130:lvgl/src/extra/widgets/dclock/lv_dclock.c ****     }
 442              		.loc 1 130 28 view .LVU136
 443              	.LBE44:
 133:lvgl/src/extra/widgets/dclock/lv_dclock.c **** }
 444              		.loc 1 133 5 is_stmt 1 view .LVU137
 445 0040 2046     		mov	r0, r4
 446 0042 FFF7FEFF 		bl	lv_dclock_refr_text
 447              	.LVL38:
 134:lvgl/src/extra/widgets/dclock/lv_dclock.c **** 
 448              		.loc 1 134 1 is_stmt 0 view .LVU138
 449 0046 70BD     		pop	{r4, r5, r6, pc}
 450              	.LVL39:
 451              	.L28:
  82:lvgl/src/extra/widgets/dclock/lv_dclock.c **** 
 452              		.loc 1 82 22 is_stmt 1 discriminator 1 view .LVU139
  82:lvgl/src/extra/widgets/dclock/lv_dclock.c **** 
 453              		.loc 1 82 27 is_stmt 0 discriminator 1 view .LVU140
 454 0048 656A     		ldr	r5, [r4, #36]
 455              	.LVL40:
  82:lvgl/src/extra/widgets/dclock/lv_dclock.c **** 
 456              		.loc 1 82 27 discriminator 1 view .LVU141
 457 004a DFE7     		b	.L20
 458              	.L29:
  84:lvgl/src/extra/widgets/dclock/lv_dclock.c ****         /*If set its own text then reallocate it (maybe its size changed)*/
 459              		.loc 1 84 51 discriminator 1 view .LVU142
 460 004c 94F83430 		ldrb	r3, [r4, #52]	@ zero_extendqisi2
  84:lvgl/src/extra/widgets/dclock/lv_dclock.c ****         /*If set its own text then reallocate it (maybe its size changed)*/
 461              		.loc 1 84 29 discriminator 1 view .LVU143
 462 0050 13F0010F 		tst	r3, #1
 463 0054 DDD1     		bne	.L21
  96:lvgl/src/extra/widgets/dclock/lv_dclock.c **** #endif
 464              		.loc 1 96 9 is_stmt 1 view .LVU144
  96:lvgl/src/extra/widgets/dclock/lv_dclock.c **** #endif
 465              		.loc 1 96 53 is_stmt 0 view .LVU145
 466 0056 3046     		mov	r0, r6
 467 0058 FFF7FEFF 		bl	strlen
 468              	.LVL41:
  96:lvgl/src/extra/widgets/dclock/lv_dclock.c **** #endif
 469              		.loc 1 96 24 discriminator 1 view .LVU146
 470 005c 411C     		adds	r1, r0, #1
 471 005e 3046     		mov	r0, r6
 472 0060 FFF7FEFF 		bl	lv_mem_realloc
 473              	.LVL42:
  96:lvgl/src/extra/widgets/dclock/lv_dclock.c **** #endif
 474              		.loc 1 96 22 discriminator 2 view .LVU147
 475 0064 6062     		str	r0, [r4, #36]
  99:lvgl/src/extra/widgets/dclock/lv_dclock.c ****         if(dclock->text == NULL) return;
ARM GAS  C:\usertemp\ccL9DfK7.s 			page 29


 476              		.loc 1 99 9 is_stmt 1 view .LVU148
  99:lvgl/src/extra/widgets/dclock/lv_dclock.c ****         if(dclock->text == NULL) return;
 477              		.loc 1 99 9 view .LVU149
 478 0066 0028     		cmp	r0, #0
 479 0068 EAD1     		bne	.L22
 480              	.L23:
  99:lvgl/src/extra/widgets/dclock/lv_dclock.c ****         if(dclock->text == NULL) return;
 481              		.loc 1 99 9 discriminator 1 view .LVU150
  99:lvgl/src/extra/widgets/dclock/lv_dclock.c ****         if(dclock->text == NULL) return;
 482              		.loc 1 99 9 discriminator 1 view .LVU151
  99:lvgl/src/extra/widgets/dclock/lv_dclock.c ****         if(dclock->text == NULL) return;
 483              		.loc 1 99 9 discriminator 1 view .LVU152
  99:lvgl/src/extra/widgets/dclock/lv_dclock.c ****         if(dclock->text == NULL) return;
 484              		.loc 1 99 9 discriminator 1 view .LVU153
  99:lvgl/src/extra/widgets/dclock/lv_dclock.c ****         if(dclock->text == NULL) return;
 485              		.loc 1 99 9 discriminator 1 view .LVU154
 486 006a FEE7     		b	.L23
 487              	.L30:
 488              	.LBB45:
 105:lvgl/src/extra/widgets/dclock/lv_dclock.c ****             dclock->text = NULL;
 489              		.loc 1 105 13 view .LVU155
 490 006c 3046     		mov	r0, r6
 491 006e FFF7FEFF 		bl	lv_mem_free
 492              	.LVL43:
 106:lvgl/src/extra/widgets/dclock/lv_dclock.c ****         }
 493              		.loc 1 106 13 view .LVU156
 106:lvgl/src/extra/widgets/dclock/lv_dclock.c ****         }
 494              		.loc 1 106 26 is_stmt 0 view .LVU157
 495 0072 0023     		movs	r3, #0
 496 0074 6362     		str	r3, [r4, #36]
 497 0076 D2E7     		b	.L24
 498              	.LVL44:
 499              	.L26:
 124:lvgl/src/extra/widgets/dclock/lv_dclock.c ****         if(dclock->text == NULL) return;
 500              		.loc 1 124 9 is_stmt 1 discriminator 1 view .LVU158
 124:lvgl/src/extra/widgets/dclock/lv_dclock.c ****         if(dclock->text == NULL) return;
 501              		.loc 1 124 9 discriminator 1 view .LVU159
 124:lvgl/src/extra/widgets/dclock/lv_dclock.c ****         if(dclock->text == NULL) return;
 502              		.loc 1 124 9 discriminator 1 view .LVU160
 124:lvgl/src/extra/widgets/dclock/lv_dclock.c ****         if(dclock->text == NULL) return;
 503              		.loc 1 124 9 discriminator 1 view .LVU161
 124:lvgl/src/extra/widgets/dclock/lv_dclock.c ****         if(dclock->text == NULL) return;
 504              		.loc 1 124 9 discriminator 1 view .LVU162
 505 0078 FEE7     		b	.L26
 506              	.LBE45:
 507              		.cfi_endproc
 508              	.LFE157:
 510              		.section	.text.lv_dclock_set_text_fmt,"ax",%progbits
 511              		.align	1
 512              		.global	lv_dclock_set_text_fmt
 513              		.syntax unified
 514              		.thumb
 515              		.thumb_func
 517              	lv_dclock_set_text_fmt:
 518              	.LVL45:
 519              	.LFB158:
 137:lvgl/src/extra/widgets/dclock/lv_dclock.c **** 
ARM GAS  C:\usertemp\ccL9DfK7.s 			page 30


 520              		.loc 1 137 1 view -0
 521              		.cfi_startproc
 522              		@ args = 4, pretend = 12, frame = 8
 523              		@ frame_needed = 0, uses_anonymous_args = 1
 137:lvgl/src/extra/widgets/dclock/lv_dclock.c **** 
 524              		.loc 1 137 1 is_stmt 0 view .LVU164
 525 0000 0EB4     		push	{r1, r2, r3}
 526              	.LCFI8:
 527              		.cfi_def_cfa_offset 12
 528              		.cfi_offset 1, -12
 529              		.cfi_offset 2, -8
 530              		.cfi_offset 3, -4
 531 0002 30B5     		push	{r4, r5, lr}
 532              	.LCFI9:
 533              		.cfi_def_cfa_offset 24
 534              		.cfi_offset 4, -24
 535              		.cfi_offset 5, -20
 536              		.cfi_offset 14, -16
 537 0004 82B0     		sub	sp, sp, #8
 538              	.LCFI10:
 539              		.cfi_def_cfa_offset 32
 540 0006 059D     		ldr	r5, [sp, #20]
 139:lvgl/src/extra/widgets/dclock/lv_dclock.c ****     LV_ASSERT_NULL(fmt);
 541              		.loc 1 139 5 is_stmt 1 view .LVU165
 139:lvgl/src/extra/widgets/dclock/lv_dclock.c ****     LV_ASSERT_NULL(fmt);
 542              		.loc 1 139 5 view .LVU166
 139:lvgl/src/extra/widgets/dclock/lv_dclock.c ****     LV_ASSERT_NULL(fmt);
 543              		.loc 1 139 5 view .LVU167
 140:lvgl/src/extra/widgets/dclock/lv_dclock.c ****     lv_obj_invalidate(obj);
 544              		.loc 1 140 5 view .LVU168
 140:lvgl/src/extra/widgets/dclock/lv_dclock.c ****     lv_obj_invalidate(obj);
 545              		.loc 1 140 5 view .LVU169
 546 0008 EDB1     		cbz	r5, .L33
 547 000a 0446     		mov	r4, r0
 140:lvgl/src/extra/widgets/dclock/lv_dclock.c ****     lv_obj_invalidate(obj);
 548              		.loc 1 140 5 discriminator 2 view .LVU170
 140:lvgl/src/extra/widgets/dclock/lv_dclock.c ****     lv_obj_invalidate(obj);
 549              		.loc 1 140 24 discriminator 2 view .LVU171
 141:lvgl/src/extra/widgets/dclock/lv_dclock.c ****     lv_dclock_t * dclock = (lv_dclock_t *)obj;
 550              		.loc 1 141 5 view .LVU172
 551 000c FFF7FEFF 		bl	lv_obj_invalidate
 552              	.LVL46:
 142:lvgl/src/extra/widgets/dclock/lv_dclock.c **** 
 553              		.loc 1 142 5 view .LVU173
 145:lvgl/src/extra/widgets/dclock/lv_dclock.c ****         lv_dclock_refr_text(obj);
 554              		.loc 1 145 5 view .LVU174
 150:lvgl/src/extra/widgets/dclock/lv_dclock.c ****         lv_mem_free(dclock->text);
 555              		.loc 1 150 5 view .LVU175
 150:lvgl/src/extra/widgets/dclock/lv_dclock.c ****         lv_mem_free(dclock->text);
 556              		.loc 1 150 14 is_stmt 0 view .LVU176
 557 0010 606A     		ldr	r0, [r4, #36]
 150:lvgl/src/extra/widgets/dclock/lv_dclock.c ****         lv_mem_free(dclock->text);
 558              		.loc 1 150 7 view .LVU177
 559 0012 20B1     		cbz	r0, .L34
 150:lvgl/src/extra/widgets/dclock/lv_dclock.c ****         lv_mem_free(dclock->text);
 560              		.loc 1 150 51 discriminator 1 view .LVU178
 561 0014 94F83430 		ldrb	r3, [r4, #52]	@ zero_extendqisi2
ARM GAS  C:\usertemp\ccL9DfK7.s 			page 31


 150:lvgl/src/extra/widgets/dclock/lv_dclock.c ****         lv_mem_free(dclock->text);
 562              		.loc 1 150 29 discriminator 1 view .LVU179
 563 0018 13F0010F 		tst	r3, #1
 564 001c 14D0     		beq	.L36
 565              	.L34:
 155:lvgl/src/extra/widgets/dclock/lv_dclock.c ****     va_start(args, fmt);
 566              		.loc 1 155 5 is_stmt 1 view .LVU180
 156:lvgl/src/extra/widgets/dclock/lv_dclock.c ****     dclock->text = _lv_txt_set_text_vfmt(fmt, args);
 567              		.loc 1 156 5 view .LVU181
 568 001e 06A9     		add	r1, sp, #24
 569 0020 0191     		str	r1, [sp, #4]
 157:lvgl/src/extra/widgets/dclock/lv_dclock.c ****     va_end(args);
 570              		.loc 1 157 5 view .LVU182
 157:lvgl/src/extra/widgets/dclock/lv_dclock.c ****     va_end(args);
 571              		.loc 1 157 20 is_stmt 0 view .LVU183
 572 0022 2846     		mov	r0, r5
 573 0024 FFF7FEFF 		bl	_lv_txt_set_text_vfmt
 574              	.LVL47:
 157:lvgl/src/extra/widgets/dclock/lv_dclock.c ****     va_end(args);
 575              		.loc 1 157 18 discriminator 1 view .LVU184
 576 0028 6062     		str	r0, [r4, #36]
 158:lvgl/src/extra/widgets/dclock/lv_dclock.c ****     dclock->static_txt = 0; /*Now the text is dynamically allocated*/
 577              		.loc 1 158 5 is_stmt 1 view .LVU185
 159:lvgl/src/extra/widgets/dclock/lv_dclock.c **** 
 578              		.loc 1 159 5 view .LVU186
 159:lvgl/src/extra/widgets/dclock/lv_dclock.c **** 
 579              		.loc 1 159 24 is_stmt 0 view .LVU187
 580 002a 94F83430 		ldrb	r3, [r4, #52]	@ zero_extendqisi2
 581 002e 23F00103 		bic	r3, r3, #1
 582 0032 84F83430 		strb	r3, [r4, #52]
 161:lvgl/src/extra/widgets/dclock/lv_dclock.c **** }
 583              		.loc 1 161 5 is_stmt 1 view .LVU188
 584 0036 2046     		mov	r0, r4
 585 0038 FFF7FEFF 		bl	lv_dclock_refr_text
 586              	.LVL48:
 162:lvgl/src/extra/widgets/dclock/lv_dclock.c **** 
 587              		.loc 1 162 1 is_stmt 0 view .LVU189
 588 003c 02B0     		add	sp, sp, #8
 589              	.LCFI11:
 590              		.cfi_remember_state
 591              		.cfi_def_cfa_offset 24
 592              		@ sp needed
 593 003e BDE83040 		pop	{r4, r5, lr}
 594              	.LCFI12:
 595              		.cfi_restore 14
 596              		.cfi_restore 5
 597              		.cfi_restore 4
 598              		.cfi_def_cfa_offset 12
 599              	.LVL49:
 162:lvgl/src/extra/widgets/dclock/lv_dclock.c **** 
 600              		.loc 1 162 1 view .LVU190
 601 0042 03B0     		add	sp, sp, #12
 602              	.LCFI13:
 603              		.cfi_restore 3
 604              		.cfi_restore 2
 605              		.cfi_restore 1
 606              		.cfi_def_cfa_offset 0
ARM GAS  C:\usertemp\ccL9DfK7.s 			page 32


 607 0044 7047     		bx	lr
 608              	.LVL50:
 609              	.L33:
 610              	.LCFI14:
 611              		.cfi_restore_state
 140:lvgl/src/extra/widgets/dclock/lv_dclock.c ****     lv_obj_invalidate(obj);
 612              		.loc 1 140 5 is_stmt 1 discriminator 1 view .LVU191
 140:lvgl/src/extra/widgets/dclock/lv_dclock.c ****     lv_obj_invalidate(obj);
 613              		.loc 1 140 5 discriminator 1 view .LVU192
 140:lvgl/src/extra/widgets/dclock/lv_dclock.c ****     lv_obj_invalidate(obj);
 614              		.loc 1 140 5 discriminator 1 view .LVU193
 140:lvgl/src/extra/widgets/dclock/lv_dclock.c ****     lv_obj_invalidate(obj);
 615              		.loc 1 140 5 discriminator 1 view .LVU194
 140:lvgl/src/extra/widgets/dclock/lv_dclock.c ****     lv_obj_invalidate(obj);
 616              		.loc 1 140 5 discriminator 1 view .LVU195
 617 0046 FEE7     		b	.L33
 618              	.LVL51:
 619              	.L36:
 151:lvgl/src/extra/widgets/dclock/lv_dclock.c ****         dclock->text = NULL;
 620              		.loc 1 151 9 view .LVU196
 621 0048 FFF7FEFF 		bl	lv_mem_free
 622              	.LVL52:
 152:lvgl/src/extra/widgets/dclock/lv_dclock.c ****     }
 623              		.loc 1 152 9 view .LVU197
 152:lvgl/src/extra/widgets/dclock/lv_dclock.c ****     }
 624              		.loc 1 152 22 is_stmt 0 view .LVU198
 625 004c 0023     		movs	r3, #0
 626 004e 6362     		str	r3, [r4, #36]
 627 0050 E5E7     		b	.L34
 628              		.cfi_endproc
 629              	.LFE158:
 631              		.section	.rodata.lv_dclock_create.str1.4,"aMS",%progbits,1
 632              		.align	2
 633              	.LC0:
 634 0000 257300   		.ascii	"%s\000"
 635              		.section	.text.lv_dclock_create,"ax",%progbits
 636              		.align	1
 637              		.global	lv_dclock_create
 638              		.syntax unified
 639              		.thumb
 640              		.thumb_func
 642              	lv_dclock_create:
 643              	.LVL53:
 644              	.LFB156:
  64:lvgl/src/extra/widgets/dclock/lv_dclock.c ****     LV_LOG_INFO("begin");
 645              		.loc 1 64 1 is_stmt 1 view -0
 646              		.cfi_startproc
 647              		@ args = 0, pretend = 0, frame = 0
 648              		@ frame_needed = 0, uses_anonymous_args = 0
  64:lvgl/src/extra/widgets/dclock/lv_dclock.c ****     LV_LOG_INFO("begin");
 649              		.loc 1 64 1 is_stmt 0 view .LVU200
 650 0000 38B5     		push	{r3, r4, r5, lr}
 651              	.LCFI15:
 652              		.cfi_def_cfa_offset 16
 653              		.cfi_offset 3, -16
 654              		.cfi_offset 4, -12
 655              		.cfi_offset 5, -8
ARM GAS  C:\usertemp\ccL9DfK7.s 			page 33


 656              		.cfi_offset 14, -4
 657 0002 0D46     		mov	r5, r1
  65:lvgl/src/extra/widgets/dclock/lv_dclock.c ****     lv_obj_t * obj = lv_obj_class_create_obj(MY_CLASS, parent);
 658              		.loc 1 65 5 is_stmt 1 view .LVU201
  65:lvgl/src/extra/widgets/dclock/lv_dclock.c ****     lv_obj_t * obj = lv_obj_class_create_obj(MY_CLASS, parent);
 659              		.loc 1 65 5 view .LVU202
  65:lvgl/src/extra/widgets/dclock/lv_dclock.c ****     lv_obj_t * obj = lv_obj_class_create_obj(MY_CLASS, parent);
 660              		.loc 1 65 5 view .LVU203
  66:lvgl/src/extra/widgets/dclock/lv_dclock.c ****     lv_obj_class_init_obj(obj);
 661              		.loc 1 66 5 view .LVU204
  66:lvgl/src/extra/widgets/dclock/lv_dclock.c ****     lv_obj_class_init_obj(obj);
 662              		.loc 1 66 22 is_stmt 0 view .LVU205
 663 0004 0146     		mov	r1, r0
 664              	.LVL54:
  66:lvgl/src/extra/widgets/dclock/lv_dclock.c ****     lv_obj_class_init_obj(obj);
 665              		.loc 1 66 22 view .LVU206
 666 0006 0948     		ldr	r0, .L41
 667              	.LVL55:
  66:lvgl/src/extra/widgets/dclock/lv_dclock.c ****     lv_obj_class_init_obj(obj);
 668              		.loc 1 66 22 view .LVU207
 669 0008 FFF7FEFF 		bl	lv_obj_class_create_obj
 670              	.LVL56:
  66:lvgl/src/extra/widgets/dclock/lv_dclock.c ****     lv_obj_class_init_obj(obj);
 671              		.loc 1 66 22 view .LVU208
 672 000c 0446     		mov	r4, r0
 673              	.LVL57:
  67:lvgl/src/extra/widgets/dclock/lv_dclock.c ****     if(lv_obj_is_valid(obj)) {
 674              		.loc 1 67 5 is_stmt 1 view .LVU209
 675 000e FFF7FEFF 		bl	lv_obj_class_init_obj
 676              	.LVL58:
  68:lvgl/src/extra/widgets/dclock/lv_dclock.c ****         lv_dclock_set_text_fmt(obj, "%s", input_time);
 677              		.loc 1 68 5 view .LVU210
  68:lvgl/src/extra/widgets/dclock/lv_dclock.c ****         lv_dclock_set_text_fmt(obj, "%s", input_time);
 678              		.loc 1 68 8 is_stmt 0 view .LVU211
 679 0012 2046     		mov	r0, r4
 680 0014 FFF7FEFF 		bl	lv_obj_is_valid
 681              	.LVL59:
  68:lvgl/src/extra/widgets/dclock/lv_dclock.c ****         lv_dclock_set_text_fmt(obj, "%s", input_time);
 682              		.loc 1 68 7 discriminator 1 view .LVU212
 683 0018 08B9     		cbnz	r0, .L40
 684              	.L37:
  72:lvgl/src/extra/widgets/dclock/lv_dclock.c **** 
 685              		.loc 1 72 1 view .LVU213
 686 001a 2046     		mov	r0, r4
 687 001c 38BD     		pop	{r3, r4, r5, pc}
 688              	.LVL60:
 689              	.L40:
  69:lvgl/src/extra/widgets/dclock/lv_dclock.c ****     }
 690              		.loc 1 69 9 is_stmt 1 view .LVU214
 691 001e 2A46     		mov	r2, r5
 692 0020 0349     		ldr	r1, .L41+4
 693 0022 2046     		mov	r0, r4
 694 0024 FFF7FEFF 		bl	lv_dclock_set_text_fmt
 695              	.LVL61:
  71:lvgl/src/extra/widgets/dclock/lv_dclock.c **** }
 696              		.loc 1 71 5 view .LVU215
  71:lvgl/src/extra/widgets/dclock/lv_dclock.c **** }
ARM GAS  C:\usertemp\ccL9DfK7.s 			page 34


 697              		.loc 1 71 12 is_stmt 0 view .LVU216
 698 0028 F7E7     		b	.L37
 699              	.L42:
 700 002a 00BF     		.align	2
 701              	.L41:
 702 002c 00000000 		.word	lv_dclock_class
 703 0030 00000000 		.word	.LC0
 704              		.cfi_endproc
 705              	.LFE156:
 707              		.section	.text.lv_dclock_get_text_selection_start,"ax",%progbits
 708              		.align	1
 709              		.global	lv_dclock_get_text_selection_start
 710              		.syntax unified
 711              		.thumb
 712              		.thumb_func
 714              	lv_dclock_get_text_selection_start:
 715              	.LVL62:
 716              	.LFB159:
 169:lvgl/src/extra/widgets/dclock/lv_dclock.c ****     LV_ASSERT_OBJ(obj, MY_CLASS);
 717              		.loc 1 169 1 is_stmt 1 view -0
 718              		.cfi_startproc
 719              		@ args = 0, pretend = 0, frame = 0
 720              		@ frame_needed = 0, uses_anonymous_args = 0
 721              		@ link register save eliminated.
 170:lvgl/src/extra/widgets/dclock/lv_dclock.c **** 
 722              		.loc 1 170 5 view .LVU218
 170:lvgl/src/extra/widgets/dclock/lv_dclock.c **** 
 723              		.loc 1 170 5 view .LVU219
 170:lvgl/src/extra/widgets/dclock/lv_dclock.c **** 
 724              		.loc 1 170 5 view .LVU220
 173:lvgl/src/extra/widgets/dclock/lv_dclock.c ****     return dclock->sel_start;
 725              		.loc 1 173 5 view .LVU221
 174:lvgl/src/extra/widgets/dclock/lv_dclock.c **** 
 726              		.loc 1 174 5 view .LVU222
 180:lvgl/src/extra/widgets/dclock/lv_dclock.c **** 
 727              		.loc 1 180 1 is_stmt 0 view .LVU223
 728 0000 806A     		ldr	r0, [r0, #40]
 729              	.LVL63:
 180:lvgl/src/extra/widgets/dclock/lv_dclock.c **** 
 730              		.loc 1 180 1 view .LVU224
 731 0002 7047     		bx	lr
 732              		.cfi_endproc
 733              	.LFE159:
 735              		.section	.text.lv_dclock_get_text_selection_end,"ax",%progbits
 736              		.align	1
 737              		.global	lv_dclock_get_text_selection_end
 738              		.syntax unified
 739              		.thumb
 740              		.thumb_func
 742              	lv_dclock_get_text_selection_end:
 743              	.LVL64:
 744              	.LFB160:
 183:lvgl/src/extra/widgets/dclock/lv_dclock.c ****     LV_ASSERT_OBJ(obj, MY_CLASS);
 745              		.loc 1 183 1 is_stmt 1 view -0
 746              		.cfi_startproc
 747              		@ args = 0, pretend = 0, frame = 0
 748              		@ frame_needed = 0, uses_anonymous_args = 0
ARM GAS  C:\usertemp\ccL9DfK7.s 			page 35


 749              		@ link register save eliminated.
 184:lvgl/src/extra/widgets/dclock/lv_dclock.c **** 
 750              		.loc 1 184 5 view .LVU226
 184:lvgl/src/extra/widgets/dclock/lv_dclock.c **** 
 751              		.loc 1 184 5 view .LVU227
 184:lvgl/src/extra/widgets/dclock/lv_dclock.c **** 
 752              		.loc 1 184 5 view .LVU228
 187:lvgl/src/extra/widgets/dclock/lv_dclock.c ****     return dclock->sel_end;
 753              		.loc 1 187 5 view .LVU229
 188:lvgl/src/extra/widgets/dclock/lv_dclock.c **** #else
 754              		.loc 1 188 5 view .LVU230
 193:lvgl/src/extra/widgets/dclock/lv_dclock.c **** 
 755              		.loc 1 193 1 is_stmt 0 view .LVU231
 756 0000 C06A     		ldr	r0, [r0, #44]
 757              	.LVL65:
 193:lvgl/src/extra/widgets/dclock/lv_dclock.c **** 
 758              		.loc 1 193 1 view .LVU232
 759 0002 7047     		bx	lr
 760              		.cfi_endproc
 761              	.LFE160:
 763              		.section	.text.draw_main,"ax",%progbits
 764              		.align	1
 765              		.syntax unified
 766              		.thumb
 767              		.thumb_func
 769              	draw_main:
 770              	.LVL66:
 771              	.LFB166:
 348:lvgl/src/extra/widgets/dclock/lv_dclock.c ****     lv_obj_t * obj = lv_event_get_target(e);
 772              		.loc 1 348 1 is_stmt 1 view -0
 773              		.cfi_startproc
 774              		@ args = 0, pretend = 0, frame = 48
 775              		@ frame_needed = 0, uses_anonymous_args = 0
 348:lvgl/src/extra/widgets/dclock/lv_dclock.c ****     lv_obj_t * obj = lv_event_get_target(e);
 776              		.loc 1 348 1 is_stmt 0 view .LVU234
 777 0000 70B5     		push	{r4, r5, r6, lr}
 778              	.LCFI16:
 779              		.cfi_def_cfa_offset 16
 780              		.cfi_offset 4, -16
 781              		.cfi_offset 5, -12
 782              		.cfi_offset 6, -8
 783              		.cfi_offset 14, -4
 784 0002 8EB0     		sub	sp, sp, #56
 785              	.LCFI17:
 786              		.cfi_def_cfa_offset 72
 787 0004 0546     		mov	r5, r0
 349:lvgl/src/extra/widgets/dclock/lv_dclock.c ****     lv_dclock_t * dclock = (lv_dclock_t *)obj;
 788              		.loc 1 349 5 is_stmt 1 view .LVU235
 349:lvgl/src/extra/widgets/dclock/lv_dclock.c ****     lv_dclock_t * dclock = (lv_dclock_t *)obj;
 789              		.loc 1 349 22 is_stmt 0 view .LVU236
 790 0006 FFF7FEFF 		bl	lv_event_get_target
 791              	.LVL67:
 349:lvgl/src/extra/widgets/dclock/lv_dclock.c ****     lv_dclock_t * dclock = (lv_dclock_t *)obj;
 792              		.loc 1 349 22 view .LVU237
 793 000a 0446     		mov	r4, r0
 794              	.LVL68:
 350:lvgl/src/extra/widgets/dclock/lv_dclock.c ****     lv_draw_ctx_t * draw_ctx = lv_event_get_draw_ctx(e);
ARM GAS  C:\usertemp\ccL9DfK7.s 			page 36


 795              		.loc 1 350 5 is_stmt 1 view .LVU238
 351:lvgl/src/extra/widgets/dclock/lv_dclock.c **** 
 796              		.loc 1 351 5 view .LVU239
 351:lvgl/src/extra/widgets/dclock/lv_dclock.c **** 
 797              		.loc 1 351 32 is_stmt 0 view .LVU240
 798 000c 2846     		mov	r0, r5
 799              	.LVL69:
 351:lvgl/src/extra/widgets/dclock/lv_dclock.c **** 
 800              		.loc 1 351 32 view .LVU241
 801 000e FFF7FEFF 		bl	lv_event_get_draw_ctx
 802              	.LVL70:
 803 0012 0546     		mov	r5, r0
 804              	.LVL71:
 353:lvgl/src/extra/widgets/dclock/lv_dclock.c ****     lv_obj_get_content_coords(obj, &txt_coords);
 805              		.loc 1 353 5 is_stmt 1 view .LVU242
 354:lvgl/src/extra/widgets/dclock/lv_dclock.c **** 
 806              		.loc 1 354 5 view .LVU243
 807 0014 0CA9     		add	r1, sp, #48
 808 0016 2046     		mov	r0, r4
 809              	.LVL72:
 354:lvgl/src/extra/widgets/dclock/lv_dclock.c **** 
 810              		.loc 1 354 5 is_stmt 0 view .LVU244
 811 0018 FFF7FEFF 		bl	lv_obj_get_content_coords
 812              	.LVL73:
 356:lvgl/src/extra/widgets/dclock/lv_dclock.c ****     if(dclock->recolor != 0) flag |= LV_TEXT_FLAG_RECOLOR;
 813              		.loc 1 356 5 is_stmt 1 view .LVU245
 357:lvgl/src/extra/widgets/dclock/lv_dclock.c ****     if(dclock->expand != 0) flag |= LV_TEXT_FLAG_EXPAND;
 814              		.loc 1 357 5 view .LVU246
 357:lvgl/src/extra/widgets/dclock/lv_dclock.c ****     if(dclock->expand != 0) flag |= LV_TEXT_FLAG_EXPAND;
 815              		.loc 1 357 24 is_stmt 0 view .LVU247
 816 001c 94F83430 		ldrb	r3, [r4, #52]	@ zero_extendqisi2
 357:lvgl/src/extra/widgets/dclock/lv_dclock.c ****     if(dclock->expand != 0) flag |= LV_TEXT_FLAG_EXPAND;
 817              		.loc 1 357 7 view .LVU248
 818 0020 13F00206 		ands	r6, r3, #2
 819 0024 00D0     		beq	.L46
 357:lvgl/src/extra/widgets/dclock/lv_dclock.c ****     if(dclock->expand != 0) flag |= LV_TEXT_FLAG_EXPAND;
 820              		.loc 1 357 35 discriminator 1 view .LVU249
 821 0026 0126     		movs	r6, #1
 822              	.L46:
 823              	.LVL74:
 358:lvgl/src/extra/widgets/dclock/lv_dclock.c ****     if(lv_obj_get_style_width(obj, LV_PART_MAIN) == LV_SIZE_CONTENT && !obj->w_layout) flag |= LV_T
 824              		.loc 1 358 5 is_stmt 1 view .LVU250
 358:lvgl/src/extra/widgets/dclock/lv_dclock.c ****     if(lv_obj_get_style_width(obj, LV_PART_MAIN) == LV_SIZE_CONTENT && !obj->w_layout) flag |= LV_T
 825              		.loc 1 358 7 is_stmt 0 view .LVU251
 826 0028 13F0040F 		tst	r3, #4
 827 002c 01D0     		beq	.L47
 358:lvgl/src/extra/widgets/dclock/lv_dclock.c ****     if(lv_obj_get_style_width(obj, LV_PART_MAIN) == LV_SIZE_CONTENT && !obj->w_layout) flag |= LV_T
 828              		.loc 1 358 29 is_stmt 1 discriminator 1 view .LVU252
 358:lvgl/src/extra/widgets/dclock/lv_dclock.c ****     if(lv_obj_get_style_width(obj, LV_PART_MAIN) == LV_SIZE_CONTENT && !obj->w_layout) flag |= LV_T
 829              		.loc 1 358 34 is_stmt 0 discriminator 1 view .LVU253
 830 002e 46F00206 		orr	r6, r6, #2
 831              	.LVL75:
 832              	.L47:
 359:lvgl/src/extra/widgets/dclock/lv_dclock.c **** 
 833              		.loc 1 359 5 is_stmt 1 view .LVU254
 834              	.LBB46:
 835              	.LBI46:
ARM GAS  C:\usertemp\ccL9DfK7.s 			page 37


   1:lvgl/src/extra/widgets/dclock/../../../core/lv_obj_style_gen.h **** {
 836              		.loc 3 1 26 view .LVU255
 837              	.LBB47:
   3:lvgl/src/extra/widgets/dclock/../../../core/lv_obj_style_gen.h ****     return (lv_coord_t)v.num;
 838              		.loc 3 3 5 view .LVU256
   3:lvgl/src/extra/widgets/dclock/../../../core/lv_obj_style_gen.h ****     return (lv_coord_t)v.num;
 839              		.loc 3 3 26 is_stmt 0 view .LVU257
 840 0032 41F20102 		movw	r2, #4097
 841 0036 0021     		movs	r1, #0
 842 0038 2046     		mov	r0, r4
 843 003a FFF7FEFF 		bl	lv_obj_get_style_prop
 844              	.LVL76:
   4:lvgl/src/extra/widgets/dclock/../../../core/lv_obj_style_gen.h **** }
 845              		.loc 3 4 5 is_stmt 1 view .LVU258
   4:lvgl/src/extra/widgets/dclock/../../../core/lv_obj_style_gen.h **** }
 846              		.loc 3 4 12 is_stmt 0 view .LVU259
 847 003e 00B2     		sxth	r0, r0
 848              	.LVL77:
   4:lvgl/src/extra/widgets/dclock/../../../core/lv_obj_style_gen.h **** }
 849              		.loc 3 4 12 view .LVU260
 850              	.LBE47:
 851              	.LBE46:
 359:lvgl/src/extra/widgets/dclock/lv_dclock.c **** 
 852              		.loc 1 359 7 discriminator 1 view .LVU261
 853 0040 42F2D173 		movw	r3, #10193
 854 0044 9842     		cmp	r0, r3
 855 0046 2ED0     		beq	.L55
 856              	.L48:
 361:lvgl/src/extra/widgets/dclock/lv_dclock.c ****     lv_draw_label_dsc_init(&dclock_draw_dsc);
 857              		.loc 1 361 5 is_stmt 1 view .LVU262
 362:lvgl/src/extra/widgets/dclock/lv_dclock.c **** 
 858              		.loc 1 362 5 view .LVU263
 859 0048 04A8     		add	r0, sp, #16
 860 004a FFF7FEFF 		bl	lv_draw_label_dsc_init
 861              	.LVL78:
 364:lvgl/src/extra/widgets/dclock/lv_dclock.c ****     dclock_draw_dsc.ofs_y = dclock->offset.y;
 862              		.loc 1 364 5 view .LVU264
 364:lvgl/src/extra/widgets/dclock/lv_dclock.c ****     dclock_draw_dsc.ofs_y = dclock->offset.y;
 863              		.loc 1 364 43 is_stmt 0 view .LVU265
 864 004e B4F93030 		ldrsh	r3, [r4, #48]
 364:lvgl/src/extra/widgets/dclock/lv_dclock.c ****     dclock_draw_dsc.ofs_y = dclock->offset.y;
 865              		.loc 1 364 27 view .LVU266
 866 0052 ADF82630 		strh	r3, [sp, #38]	@ movhi
 365:lvgl/src/extra/widgets/dclock/lv_dclock.c **** 
 867              		.loc 1 365 5 is_stmt 1 view .LVU267
 365:lvgl/src/extra/widgets/dclock/lv_dclock.c **** 
 868              		.loc 1 365 43 is_stmt 0 view .LVU268
 869 0056 B4F93230 		ldrsh	r3, [r4, #50]
 365:lvgl/src/extra/widgets/dclock/lv_dclock.c **** 
 870              		.loc 1 365 27 view .LVU269
 871 005a ADF82830 		strh	r3, [sp, #40]	@ movhi
 367:lvgl/src/extra/widgets/dclock/lv_dclock.c ****     lv_obj_init_draw_label_dsc(obj, LV_PART_MAIN, &dclock_draw_dsc);
 872              		.loc 1 367 5 is_stmt 1 view .LVU270
 367:lvgl/src/extra/widgets/dclock/lv_dclock.c ****     lv_obj_init_draw_label_dsc(obj, LV_PART_MAIN, &dclock_draw_dsc);
 873              		.loc 1 367 26 is_stmt 0 view .LVU271
 874 005e 8DF82D60 		strb	r6, [sp, #45]
 368:lvgl/src/extra/widgets/dclock/lv_dclock.c ****     lv_bidi_calculate_align(&dclock_draw_dsc.align, &dclock_draw_dsc.bidi_dir, dclock->text);
ARM GAS  C:\usertemp\ccL9DfK7.s 			page 38


 875              		.loc 1 368 5 is_stmt 1 view .LVU272
 876 0062 04AA     		add	r2, sp, #16
 877 0064 0021     		movs	r1, #0
 878 0066 2046     		mov	r0, r4
 879 0068 FFF7FEFF 		bl	lv_obj_init_draw_label_dsc
 880              	.LVL79:
 369:lvgl/src/extra/widgets/dclock/lv_dclock.c **** 
 881              		.loc 1 369 5 view .LVU273
 882              	.LBB48:
 883              	.LBI48:
 884              		.file 4 "D:/update_2024EL/changeform/743zit6/lvgl/src/misc/lv_bidi.h"
   1:D:/update_2024EL/changeform/743zit6/lvgl/src/misc\lv_bidi.h **** /**
   2:D:/update_2024EL/changeform/743zit6/lvgl/src/misc\lv_bidi.h ****  * @file lv_bidi.h
   3:D:/update_2024EL/changeform/743zit6/lvgl/src/misc\lv_bidi.h ****  *
   4:D:/update_2024EL/changeform/743zit6/lvgl/src/misc\lv_bidi.h ****  */
   5:D:/update_2024EL/changeform/743zit6/lvgl/src/misc\lv_bidi.h **** 
   6:D:/update_2024EL/changeform/743zit6/lvgl/src/misc\lv_bidi.h **** #ifndef LV_BIDI_H
   7:D:/update_2024EL/changeform/743zit6/lvgl/src/misc\lv_bidi.h **** #define LV_BIDI_H
   8:D:/update_2024EL/changeform/743zit6/lvgl/src/misc\lv_bidi.h **** 
   9:D:/update_2024EL/changeform/743zit6/lvgl/src/misc\lv_bidi.h **** #ifdef __cplusplus
  10:D:/update_2024EL/changeform/743zit6/lvgl/src/misc\lv_bidi.h **** extern "C" {
  11:D:/update_2024EL/changeform/743zit6/lvgl/src/misc\lv_bidi.h **** #endif
  12:D:/update_2024EL/changeform/743zit6/lvgl/src/misc\lv_bidi.h **** 
  13:D:/update_2024EL/changeform/743zit6/lvgl/src/misc\lv_bidi.h **** /*********************
  14:D:/update_2024EL/changeform/743zit6/lvgl/src/misc\lv_bidi.h ****  *      INCLUDES
  15:D:/update_2024EL/changeform/743zit6/lvgl/src/misc\lv_bidi.h ****  *********************/
  16:D:/update_2024EL/changeform/743zit6/lvgl/src/misc\lv_bidi.h **** #include "../lv_conf_internal.h"
  17:D:/update_2024EL/changeform/743zit6/lvgl/src/misc\lv_bidi.h **** 
  18:D:/update_2024EL/changeform/743zit6/lvgl/src/misc\lv_bidi.h **** #include <stdbool.h>
  19:D:/update_2024EL/changeform/743zit6/lvgl/src/misc\lv_bidi.h **** #include <stdint.h>
  20:D:/update_2024EL/changeform/743zit6/lvgl/src/misc\lv_bidi.h **** #include "lv_txt.h"
  21:D:/update_2024EL/changeform/743zit6/lvgl/src/misc\lv_bidi.h **** 
  22:D:/update_2024EL/changeform/743zit6/lvgl/src/misc\lv_bidi.h **** /*********************
  23:D:/update_2024EL/changeform/743zit6/lvgl/src/misc\lv_bidi.h ****  *      DEFINES
  24:D:/update_2024EL/changeform/743zit6/lvgl/src/misc\lv_bidi.h ****  *********************/
  25:D:/update_2024EL/changeform/743zit6/lvgl/src/misc\lv_bidi.h **** /*Special non printable strong characters.
  26:D:/update_2024EL/changeform/743zit6/lvgl/src/misc\lv_bidi.h ****  *They can be inserted to texts to affect the run's direction*/
  27:D:/update_2024EL/changeform/743zit6/lvgl/src/misc\lv_bidi.h **** #define LV_BIDI_LRO  "\xE2\x80\xAD" /*U+202D*/
  28:D:/update_2024EL/changeform/743zit6/lvgl/src/misc\lv_bidi.h **** #define LV_BIDI_RLO  "\xE2\x80\xAE" /*U+202E*/
  29:D:/update_2024EL/changeform/743zit6/lvgl/src/misc\lv_bidi.h **** 
  30:D:/update_2024EL/changeform/743zit6/lvgl/src/misc\lv_bidi.h **** /**********************
  31:D:/update_2024EL/changeform/743zit6/lvgl/src/misc\lv_bidi.h ****  *      TYPEDEFS
  32:D:/update_2024EL/changeform/743zit6/lvgl/src/misc\lv_bidi.h ****  **********************/
  33:D:/update_2024EL/changeform/743zit6/lvgl/src/misc\lv_bidi.h **** enum {
  34:D:/update_2024EL/changeform/743zit6/lvgl/src/misc\lv_bidi.h ****     LV_BASE_DIR_LTR      = 0x00,
  35:D:/update_2024EL/changeform/743zit6/lvgl/src/misc\lv_bidi.h ****     LV_BASE_DIR_RTL      = 0x01,
  36:D:/update_2024EL/changeform/743zit6/lvgl/src/misc\lv_bidi.h ****     LV_BASE_DIR_AUTO     = 0x02,
  37:D:/update_2024EL/changeform/743zit6/lvgl/src/misc\lv_bidi.h **** 
  38:D:/update_2024EL/changeform/743zit6/lvgl/src/misc\lv_bidi.h ****     LV_BASE_DIR_NEUTRAL  = 0x20,
  39:D:/update_2024EL/changeform/743zit6/lvgl/src/misc\lv_bidi.h ****     LV_BASE_DIR_WEAK     = 0x21,
  40:D:/update_2024EL/changeform/743zit6/lvgl/src/misc\lv_bidi.h **** };
  41:D:/update_2024EL/changeform/743zit6/lvgl/src/misc\lv_bidi.h **** 
  42:D:/update_2024EL/changeform/743zit6/lvgl/src/misc\lv_bidi.h **** typedef uint8_t lv_base_dir_t;
  43:D:/update_2024EL/changeform/743zit6/lvgl/src/misc\lv_bidi.h **** 
  44:D:/update_2024EL/changeform/743zit6/lvgl/src/misc\lv_bidi.h **** /**********************
  45:D:/update_2024EL/changeform/743zit6/lvgl/src/misc\lv_bidi.h ****  * GLOBAL PROTOTYPES
  46:D:/update_2024EL/changeform/743zit6/lvgl/src/misc\lv_bidi.h ****  **********************/
ARM GAS  C:\usertemp\ccL9DfK7.s 			page 39


  47:D:/update_2024EL/changeform/743zit6/lvgl/src/misc\lv_bidi.h **** #if LV_USE_BIDI
  48:D:/update_2024EL/changeform/743zit6/lvgl/src/misc\lv_bidi.h **** 
  49:D:/update_2024EL/changeform/743zit6/lvgl/src/misc\lv_bidi.h **** /**
  50:D:/update_2024EL/changeform/743zit6/lvgl/src/misc\lv_bidi.h ****  * Convert a text to get the characters in the correct visual order according to
  51:D:/update_2024EL/changeform/743zit6/lvgl/src/misc\lv_bidi.h ****  * Unicode Bidirectional Algorithm
  52:D:/update_2024EL/changeform/743zit6/lvgl/src/misc\lv_bidi.h ****  * @param str_in the text to process
  53:D:/update_2024EL/changeform/743zit6/lvgl/src/misc\lv_bidi.h ****  * @param str_out store the result here. Has the be `strlen(str_in)` length
  54:D:/update_2024EL/changeform/743zit6/lvgl/src/misc\lv_bidi.h ****  * @param base_dir `LV_BASE_DIR_LTR` or `LV_BASE_DIR_RTL`
  55:D:/update_2024EL/changeform/743zit6/lvgl/src/misc\lv_bidi.h ****  */
  56:D:/update_2024EL/changeform/743zit6/lvgl/src/misc\lv_bidi.h **** void _lv_bidi_process(const char * str_in, char * str_out, lv_base_dir_t base_dir);
  57:D:/update_2024EL/changeform/743zit6/lvgl/src/misc\lv_bidi.h **** 
  58:D:/update_2024EL/changeform/743zit6/lvgl/src/misc\lv_bidi.h **** /**
  59:D:/update_2024EL/changeform/743zit6/lvgl/src/misc\lv_bidi.h ****  * Auto-detect the direction of a text based on the first strong character
  60:D:/update_2024EL/changeform/743zit6/lvgl/src/misc\lv_bidi.h ****  * @param txt the text to process
  61:D:/update_2024EL/changeform/743zit6/lvgl/src/misc\lv_bidi.h ****  * @return `LV_BASE_DIR_LTR` or `LV_BASE_DIR_RTL`
  62:D:/update_2024EL/changeform/743zit6/lvgl/src/misc\lv_bidi.h ****  */
  63:D:/update_2024EL/changeform/743zit6/lvgl/src/misc\lv_bidi.h **** lv_base_dir_t _lv_bidi_detect_base_dir(const char * txt);
  64:D:/update_2024EL/changeform/743zit6/lvgl/src/misc\lv_bidi.h **** 
  65:D:/update_2024EL/changeform/743zit6/lvgl/src/misc\lv_bidi.h **** /**
  66:D:/update_2024EL/changeform/743zit6/lvgl/src/misc\lv_bidi.h ****  * Get the logical position of a character in a line
  67:D:/update_2024EL/changeform/743zit6/lvgl/src/misc\lv_bidi.h ****  * @param str_in the input string. Can be only one line.
  68:D:/update_2024EL/changeform/743zit6/lvgl/src/misc\lv_bidi.h ****  * @param bidi_txt internally the text is bidi processed which buffer can be get here.
  69:D:/update_2024EL/changeform/743zit6/lvgl/src/misc\lv_bidi.h ****  * If not required anymore has to freed with `lv_mem_free()`
  70:D:/update_2024EL/changeform/743zit6/lvgl/src/misc\lv_bidi.h ****  * Can be `NULL` is unused
  71:D:/update_2024EL/changeform/743zit6/lvgl/src/misc\lv_bidi.h ****  * @param len length of the line in character count
  72:D:/update_2024EL/changeform/743zit6/lvgl/src/misc\lv_bidi.h ****  * @param base_dir base direction of the text: `LV_BASE_DIR_LTR` or `LV_BASE_DIR_RTL`
  73:D:/update_2024EL/changeform/743zit6/lvgl/src/misc\lv_bidi.h ****  * @param visual_pos the visual character position which logical position should be get
  74:D:/update_2024EL/changeform/743zit6/lvgl/src/misc\lv_bidi.h ****  * @param is_rtl tell the char at `visual_pos` is RTL or LTR context
  75:D:/update_2024EL/changeform/743zit6/lvgl/src/misc\lv_bidi.h ****  * @return the logical character position
  76:D:/update_2024EL/changeform/743zit6/lvgl/src/misc\lv_bidi.h ****  */
  77:D:/update_2024EL/changeform/743zit6/lvgl/src/misc\lv_bidi.h **** uint16_t _lv_bidi_get_logical_pos(const char * str_in, char ** bidi_txt, uint32_t len, lv_base_dir_
  78:D:/update_2024EL/changeform/743zit6/lvgl/src/misc\lv_bidi.h ****                                   uint32_t visual_pos, bool * is_rtl);
  79:D:/update_2024EL/changeform/743zit6/lvgl/src/misc\lv_bidi.h **** 
  80:D:/update_2024EL/changeform/743zit6/lvgl/src/misc\lv_bidi.h **** /**
  81:D:/update_2024EL/changeform/743zit6/lvgl/src/misc\lv_bidi.h ****  * Get the visual position of a character in a line
  82:D:/update_2024EL/changeform/743zit6/lvgl/src/misc\lv_bidi.h ****  * @param str_in the input string. Can be only one line.
  83:D:/update_2024EL/changeform/743zit6/lvgl/src/misc\lv_bidi.h ****  * @param bidi_txt internally the text is bidi processed which buffer can be get here.
  84:D:/update_2024EL/changeform/743zit6/lvgl/src/misc\lv_bidi.h ****  * If not required anymore has to freed with `lv_mem_free()`
  85:D:/update_2024EL/changeform/743zit6/lvgl/src/misc\lv_bidi.h ****  * Can be `NULL` is unused
  86:D:/update_2024EL/changeform/743zit6/lvgl/src/misc\lv_bidi.h ****  * @param len length of the line in character count
  87:D:/update_2024EL/changeform/743zit6/lvgl/src/misc\lv_bidi.h ****  * @param base_dir base direction of the text: `LV_BASE_DIR_LTR` or `LV_BASE_DIR_RTL`
  88:D:/update_2024EL/changeform/743zit6/lvgl/src/misc\lv_bidi.h ****  * @param logical_pos the logical character position which visual position should be get
  89:D:/update_2024EL/changeform/743zit6/lvgl/src/misc\lv_bidi.h ****  * @param is_rtl tell the char at `logical_pos` is RTL or LTR context
  90:D:/update_2024EL/changeform/743zit6/lvgl/src/misc\lv_bidi.h ****  * @return the visual character position
  91:D:/update_2024EL/changeform/743zit6/lvgl/src/misc\lv_bidi.h ****  */
  92:D:/update_2024EL/changeform/743zit6/lvgl/src/misc\lv_bidi.h **** uint16_t _lv_bidi_get_visual_pos(const char * str_in, char ** bidi_txt, uint16_t len, lv_base_dir_t
  93:D:/update_2024EL/changeform/743zit6/lvgl/src/misc\lv_bidi.h ****                                  uint32_t logical_pos, bool * is_rtl);
  94:D:/update_2024EL/changeform/743zit6/lvgl/src/misc\lv_bidi.h **** 
  95:D:/update_2024EL/changeform/743zit6/lvgl/src/misc\lv_bidi.h **** /**
  96:D:/update_2024EL/changeform/743zit6/lvgl/src/misc\lv_bidi.h ****  * Bidi process a paragraph of text
  97:D:/update_2024EL/changeform/743zit6/lvgl/src/misc\lv_bidi.h ****  * @param str_in the string to process
  98:D:/update_2024EL/changeform/743zit6/lvgl/src/misc\lv_bidi.h ****  * @param str_out store the result here
  99:D:/update_2024EL/changeform/743zit6/lvgl/src/misc\lv_bidi.h ****  * @param len length of the text
 100:D:/update_2024EL/changeform/743zit6/lvgl/src/misc\lv_bidi.h ****  * @param base_dir base dir of the text
 101:D:/update_2024EL/changeform/743zit6/lvgl/src/misc\lv_bidi.h ****  * @param pos_conv_out an `uint16_t` array to store the related logical position of the character.
 102:D:/update_2024EL/changeform/743zit6/lvgl/src/misc\lv_bidi.h ****  * Can be `NULL` is unused
 103:D:/update_2024EL/changeform/743zit6/lvgl/src/misc\lv_bidi.h ****  * @param pos_conv_len length of `pos_conv_out` in element count
ARM GAS  C:\usertemp\ccL9DfK7.s 			page 40


 104:D:/update_2024EL/changeform/743zit6/lvgl/src/misc\lv_bidi.h ****  */
 105:D:/update_2024EL/changeform/743zit6/lvgl/src/misc\lv_bidi.h **** void _lv_bidi_process_paragraph(const char * str_in, char * str_out, uint32_t len, lv_base_dir_t ba
 106:D:/update_2024EL/changeform/743zit6/lvgl/src/misc\lv_bidi.h ****                                 uint16_t * pos_conv_out, uint16_t pos_conv_len);
 107:D:/update_2024EL/changeform/743zit6/lvgl/src/misc\lv_bidi.h **** 
 108:D:/update_2024EL/changeform/743zit6/lvgl/src/misc\lv_bidi.h **** /**
 109:D:/update_2024EL/changeform/743zit6/lvgl/src/misc\lv_bidi.h ****  * Get the real text alignment from the a text alignment, base direction and a text.
 110:D:/update_2024EL/changeform/743zit6/lvgl/src/misc\lv_bidi.h ****  * @param align     LV_TEXT_ALIGN_..., write back the calculated align here (LV_TEXT_ALIGN_LEFT/RIG
 111:D:/update_2024EL/changeform/743zit6/lvgl/src/misc\lv_bidi.h ****  * @param base_dir  LV_BASE_DIR_..., write the calculated base dir here (LV_BASE_DIR_LTR/RTL)
 112:D:/update_2024EL/changeform/743zit6/lvgl/src/misc\lv_bidi.h ****  * @param txt       a text, used with LV_BASE_DIR_AUTO to determine the base direction
 113:D:/update_2024EL/changeform/743zit6/lvgl/src/misc\lv_bidi.h ****  */
 114:D:/update_2024EL/changeform/743zit6/lvgl/src/misc\lv_bidi.h **** void lv_bidi_calculate_align(lv_text_align_t * align, lv_base_dir_t * base_dir, const char * txt);
 115:D:/update_2024EL/changeform/743zit6/lvgl/src/misc\lv_bidi.h **** 
 116:D:/update_2024EL/changeform/743zit6/lvgl/src/misc\lv_bidi.h **** 
 117:D:/update_2024EL/changeform/743zit6/lvgl/src/misc\lv_bidi.h **** /**********************
 118:D:/update_2024EL/changeform/743zit6/lvgl/src/misc\lv_bidi.h ****  *      MACROS
 119:D:/update_2024EL/changeform/743zit6/lvgl/src/misc\lv_bidi.h ****  **********************/
 120:D:/update_2024EL/changeform/743zit6/lvgl/src/misc\lv_bidi.h **** 
 121:D:/update_2024EL/changeform/743zit6/lvgl/src/misc\lv_bidi.h **** #else /*LV_USE_BIDI*/
 122:D:/update_2024EL/changeform/743zit6/lvgl/src/misc\lv_bidi.h **** /**
 123:D:/update_2024EL/changeform/743zit6/lvgl/src/misc\lv_bidi.h ****  * For compatibility if LV_USE_BIDI = 0
 124:D:/update_2024EL/changeform/743zit6/lvgl/src/misc\lv_bidi.h ****  * Get the real text alignment from the a text alignment, base direction and a text.
 125:D:/update_2024EL/changeform/743zit6/lvgl/src/misc\lv_bidi.h ****  * @param align     For LV_TEXT_ALIGN_AUTO give LV_TEXT_ALIGN_LEFT else leave unchanged, write back
 126:D:/update_2024EL/changeform/743zit6/lvgl/src/misc\lv_bidi.h ****  * @param base_dir  Unused
 127:D:/update_2024EL/changeform/743zit6/lvgl/src/misc\lv_bidi.h ****  * @param txt       Unused
 128:D:/update_2024EL/changeform/743zit6/lvgl/src/misc\lv_bidi.h ****  */
 129:D:/update_2024EL/changeform/743zit6/lvgl/src/misc\lv_bidi.h **** static inline void lv_bidi_calculate_align(lv_text_align_t * align, lv_base_dir_t * base_dir, const
 885              		.loc 4 129 20 view .LVU274
 886              	.LBB49:
 130:D:/update_2024EL/changeform/743zit6/lvgl/src/misc\lv_bidi.h **** {
 131:D:/update_2024EL/changeform/743zit6/lvgl/src/misc\lv_bidi.h ****     LV_UNUSED(txt);
 887              		.loc 4 131 5 view .LVU275
 132:D:/update_2024EL/changeform/743zit6/lvgl/src/misc\lv_bidi.h ****     LV_UNUSED(base_dir);
 888              		.loc 4 132 5 view .LVU276
 133:D:/update_2024EL/changeform/743zit6/lvgl/src/misc\lv_bidi.h ****     if(*align == LV_TEXT_ALIGN_AUTO) * align = LV_TEXT_ALIGN_LEFT;
 889              		.loc 4 133 5 view .LVU277
 890              		.loc 4 133 8 is_stmt 0 view .LVU278
 891 006c 9DF82C30 		ldrb	r3, [sp, #44]	@ zero_extendqisi2
 892              		.loc 4 133 7 view .LVU279
 893 0070 13B9     		cbnz	r3, .L49
 894              		.loc 4 133 38 is_stmt 1 discriminator 1 view .LVU280
 895              		.loc 4 133 46 is_stmt 0 discriminator 1 view .LVU281
 896 0072 0123     		movs	r3, #1
 897 0074 8DF82C30 		strb	r3, [sp, #44]
 898              	.L49:
 899              	.LVL80:
 900              		.loc 4 133 46 discriminator 1 view .LVU282
 901              	.LBE49:
 902              	.LBE48:
 371:lvgl/src/extra/widgets/dclock/lv_dclock.c ****     dclock_draw_dsc.sel_end = lv_dclock_get_text_selection_end(obj);
 903              		.loc 1 371 5 is_stmt 1 view .LVU283
 371:lvgl/src/extra/widgets/dclock/lv_dclock.c ****     dclock_draw_dsc.sel_end = lv_dclock_get_text_selection_end(obj);
 904              		.loc 1 371 33 is_stmt 0 view .LVU284
 905 0078 2046     		mov	r0, r4
 906 007a FFF7FEFF 		bl	lv_dclock_get_text_selection_start
 907              	.LVL81:
 908 007e 0646     		mov	r6, r0
 909              	.LVL82:
ARM GAS  C:\usertemp\ccL9DfK7.s 			page 41


 371:lvgl/src/extra/widgets/dclock/lv_dclock.c ****     dclock_draw_dsc.sel_end = lv_dclock_get_text_selection_end(obj);
 910              		.loc 1 371 31 discriminator 1 view .LVU285
 911 0080 0590     		str	r0, [sp, #20]
 372:lvgl/src/extra/widgets/dclock/lv_dclock.c ****     if(dclock_draw_dsc.sel_start != LV_DRAW_LABEL_NO_TXT_SEL && dclock_draw_dsc.sel_end != LV_DRAW_
 912              		.loc 1 372 5 is_stmt 1 view .LVU286
 372:lvgl/src/extra/widgets/dclock/lv_dclock.c ****     if(dclock_draw_dsc.sel_start != LV_DRAW_LABEL_NO_TXT_SEL && dclock_draw_dsc.sel_end != LV_DRAW_
 913              		.loc 1 372 31 is_stmt 0 view .LVU287
 914 0082 2046     		mov	r0, r4
 915 0084 FFF7FEFF 		bl	lv_dclock_get_text_selection_end
 916              	.LVL83:
 372:lvgl/src/extra/widgets/dclock/lv_dclock.c ****     if(dclock_draw_dsc.sel_start != LV_DRAW_LABEL_NO_TXT_SEL && dclock_draw_dsc.sel_end != LV_DRAW_
 917              		.loc 1 372 29 discriminator 1 view .LVU288
 918 0088 0690     		str	r0, [sp, #24]
 373:lvgl/src/extra/widgets/dclock/lv_dclock.c ****         dclock_draw_dsc.sel_color = lv_obj_get_style_text_color_filtered(obj, LV_PART_SELECTED);
 919              		.loc 1 373 5 is_stmt 1 view .LVU289
 373:lvgl/src/extra/widgets/dclock/lv_dclock.c ****         dclock_draw_dsc.sel_color = lv_obj_get_style_text_color_filtered(obj, LV_PART_SELECTED);
 920              		.loc 1 373 7 is_stmt 0 view .LVU290
 921 008a 4FF6FF73 		movw	r3, #65535
 922 008e 9E42     		cmp	r6, r3
 923 0090 01D0     		beq	.L50
 373:lvgl/src/extra/widgets/dclock/lv_dclock.c ****         dclock_draw_dsc.sel_color = lv_obj_get_style_text_color_filtered(obj, LV_PART_SELECTED);
 924              		.loc 1 373 62 discriminator 1 view .LVU291
 925 0092 9842     		cmp	r0, r3
 926 0094 0FD1     		bne	.L56
 927              	.L50:
 388:lvgl/src/extra/widgets/dclock/lv_dclock.c **** #endif
 928              		.loc 1 388 5 is_stmt 1 view .LVU292
 929              	.LVL84:
 391:lvgl/src/extra/widgets/dclock/lv_dclock.c ****     bool is_common = _lv_area_intersect(&txt_clip, &txt_coords, draw_ctx->clip_area);
 930              		.loc 1 391 5 view .LVU293
 392:lvgl/src/extra/widgets/dclock/lv_dclock.c ****     if(!is_common) return;
 931              		.loc 1 392 5 view .LVU294
 392:lvgl/src/extra/widgets/dclock/lv_dclock.c ****     if(!is_common) return;
 932              		.loc 1 392 22 is_stmt 0 view .LVU295
 933 0096 AA68     		ldr	r2, [r5, #8]
 934 0098 0CA9     		add	r1, sp, #48
 935 009a 02A8     		add	r0, sp, #8
 936 009c FFF7FEFF 		bl	_lv_area_intersect
 937              	.LVL85:
 393:lvgl/src/extra/widgets/dclock/lv_dclock.c **** 
 938              		.loc 1 393 5 is_stmt 1 view .LVU296
 393:lvgl/src/extra/widgets/dclock/lv_dclock.c **** 
 939              		.loc 1 393 7 is_stmt 0 view .LVU297
 940 00a0 D8B9     		cbnz	r0, .L57
 941              	.LVL86:
 942              	.L45:
 400:lvgl/src/extra/widgets/dclock/lv_dclock.c **** 
 943              		.loc 1 400 1 view .LVU298
 944 00a2 0EB0     		add	sp, sp, #56
 945              	.LCFI18:
 946              		.cfi_remember_state
 947              		.cfi_def_cfa_offset 16
 948              		@ sp needed
 949 00a4 70BD     		pop	{r4, r5, r6, pc}
 950              	.LVL87:
 951              	.L55:
 952              	.LCFI19:
ARM GAS  C:\usertemp\ccL9DfK7.s 			page 42


 953              		.cfi_restore_state
 359:lvgl/src/extra/widgets/dclock/lv_dclock.c **** 
 954              		.loc 1 359 72 discriminator 1 view .LVU299
 955 00a6 94F82330 		ldrb	r3, [r4, #35]	@ zero_extendqisi2
 359:lvgl/src/extra/widgets/dclock/lv_dclock.c **** 
 956              		.loc 1 359 69 discriminator 1 view .LVU300
 957 00aa 13F0040F 		tst	r3, #4
 958 00ae CBD1     		bne	.L48
 359:lvgl/src/extra/widgets/dclock/lv_dclock.c **** 
 959              		.loc 1 359 88 is_stmt 1 discriminator 2 view .LVU301
 359:lvgl/src/extra/widgets/dclock/lv_dclock.c **** 
 960              		.loc 1 359 93 is_stmt 0 discriminator 2 view .LVU302
 961 00b0 46F00406 		orr	r6, r6, #4
 962              	.LVL88:
 359:lvgl/src/extra/widgets/dclock/lv_dclock.c **** 
 963              		.loc 1 359 93 discriminator 2 view .LVU303
 964 00b4 C8E7     		b	.L48
 965              	.LVL89:
 966              	.L56:
 374:lvgl/src/extra/widgets/dclock/lv_dclock.c ****         dclock_draw_dsc.sel_bg_color = lv_obj_get_style_bg_color(obj, LV_PART_SELECTED);
 967              		.loc 1 374 9 is_stmt 1 view .LVU304
 968              	.LBB50:
 969              	.LBI50:
 439:lvgl/src/extra/widgets/dclock/../../../core/lv_obj_style_gen.h **** {
 970              		.loc 3 439 26 view .LVU305
 971              	.LBB51:
 441:lvgl/src/extra/widgets/dclock/../../../core/lv_obj_style_gen.h ****     return v.color;
 972              		.loc 3 441 5 view .LVU306
 441:lvgl/src/extra/widgets/dclock/../../../core/lv_obj_style_gen.h ****     return v.color;
 973              		.loc 3 441 26 is_stmt 0 view .LVU307
 974 00b6 44F25742 		movw	r2, #17495
 975 00ba 4FF48021 		mov	r1, #262144
 976 00be 2046     		mov	r0, r4
 977 00c0 FFF7FEFF 		bl	lv_obj_get_style_prop
 978              	.LVL90:
 442:lvgl/src/extra/widgets/dclock/../../../core/lv_obj_style_gen.h **** }
 979              		.loc 3 442 5 is_stmt 1 view .LVU308
 442:lvgl/src/extra/widgets/dclock/../../../core/lv_obj_style_gen.h **** }
 980              		.loc 3 442 5 is_stmt 0 view .LVU309
 981              	.LBE51:
 982              	.LBE50:
 374:lvgl/src/extra/widgets/dclock/lv_dclock.c ****         dclock_draw_dsc.sel_bg_color = lv_obj_get_style_bg_color(obj, LV_PART_SELECTED);
 983              		.loc 1 374 37 view .LVU310
 984 00c4 ADF81E00 		strh	r0, [sp, #30]	@ movhi
 375:lvgl/src/extra/widgets/dclock/lv_dclock.c ****     }
 985              		.loc 1 375 9 is_stmt 1 view .LVU311
 986              	.LVL91:
 987              	.LBB52:
 988              	.LBI52:
 127:lvgl/src/extra/widgets/dclock/../../../core/lv_obj_style_gen.h **** {
 989              		.loc 3 127 26 view .LVU312
 990              	.LBB53:
 129:lvgl/src/extra/widgets/dclock/../../../core/lv_obj_style_gen.h ****     return v.color;
 991              		.loc 3 129 5 view .LVU313
 129:lvgl/src/extra/widgets/dclock/../../../core/lv_obj_style_gen.h ****     return v.color;
 992              		.loc 3 129 26 is_stmt 0 view .LVU314
 993 00c8 2022     		movs	r2, #32
ARM GAS  C:\usertemp\ccL9DfK7.s 			page 43


 994 00ca 4FF48021 		mov	r1, #262144
 995 00ce 2046     		mov	r0, r4
 996 00d0 FFF7FEFF 		bl	lv_obj_get_style_prop
 997              	.LVL92:
 130:lvgl/src/extra/widgets/dclock/../../../core/lv_obj_style_gen.h **** }
 998              		.loc 3 130 5 is_stmt 1 view .LVU315
 130:lvgl/src/extra/widgets/dclock/../../../core/lv_obj_style_gen.h **** }
 999              		.loc 3 130 5 is_stmt 0 view .LVU316
 1000              	.LBE53:
 1001              	.LBE52:
 375:lvgl/src/extra/widgets/dclock/lv_dclock.c ****     }
 1002              		.loc 1 375 40 view .LVU317
 1003 00d4 ADF82000 		strh	r0, [sp, #32]	@ movhi
 1004 00d8 DDE7     		b	.L50
 1005              	.LVL93:
 1006              	.L57:
 395:lvgl/src/extra/widgets/dclock/lv_dclock.c ****     const lv_area_t * clip_area_ori = draw_ctx->clip_area;
 1007              		.loc 1 395 5 is_stmt 1 view .LVU318
 395:lvgl/src/extra/widgets/dclock/lv_dclock.c ****     const lv_area_t * clip_area_ori = draw_ctx->clip_area;
 1008              		.loc 1 395 66 is_stmt 0 view .LVU319
 1009 00da 636A     		ldr	r3, [r4, #36]
 395:lvgl/src/extra/widgets/dclock/lv_dclock.c ****     const lv_area_t * clip_area_ori = draw_ctx->clip_area;
 1010              		.loc 1 395 5 view .LVU320
 1011 00dc 0022     		movs	r2, #0
 1012 00de 0092     		str	r2, [sp]
 1013 00e0 0CAA     		add	r2, sp, #48
 1014 00e2 04A9     		add	r1, sp, #16
 1015 00e4 2846     		mov	r0, r5
 1016              	.LVL94:
 395:lvgl/src/extra/widgets/dclock/lv_dclock.c ****     const lv_area_t * clip_area_ori = draw_ctx->clip_area;
 1017              		.loc 1 395 5 view .LVU321
 1018 00e6 FFF7FEFF 		bl	lv_draw_label
 1019              	.LVL95:
 396:lvgl/src/extra/widgets/dclock/lv_dclock.c ****     draw_ctx->clip_area = &txt_clip;
 1020              		.loc 1 396 5 is_stmt 1 view .LVU322
 396:lvgl/src/extra/widgets/dclock/lv_dclock.c ****     draw_ctx->clip_area = &txt_clip;
 1021              		.loc 1 396 23 is_stmt 0 view .LVU323
 1022 00ea AB68     		ldr	r3, [r5, #8]
 1023              	.LVL96:
 397:lvgl/src/extra/widgets/dclock/lv_dclock.c **** 
 1024              		.loc 1 397 5 is_stmt 1 view .LVU324
 397:lvgl/src/extra/widgets/dclock/lv_dclock.c **** 
 1025              		.loc 1 397 25 is_stmt 0 view .LVU325
 1026 00ec 02AA     		add	r2, sp, #8
 1027 00ee AA60     		str	r2, [r5, #8]
 399:lvgl/src/extra/widgets/dclock/lv_dclock.c **** }
 1028              		.loc 1 399 5 is_stmt 1 view .LVU326
 399:lvgl/src/extra/widgets/dclock/lv_dclock.c **** }
 1029              		.loc 1 399 25 is_stmt 0 view .LVU327
 1030 00f0 AB60     		str	r3, [r5, #8]
 1031 00f2 D6E7     		b	.L45
 1032              		.cfi_endproc
 1033              	.LFE166:
 1035              		.section	.text.lv_dclock_event,"ax",%progbits
 1036              		.align	1
 1037              		.syntax unified
 1038              		.thumb
ARM GAS  C:\usertemp\ccL9DfK7.s 			page 44


 1039              		.thumb_func
 1041              	lv_dclock_event:
 1042              	.LVL97:
 1043              	.LFB165:
 295:lvgl/src/extra/widgets/dclock/lv_dclock.c ****     LV_UNUSED(class_p);
 1044              		.loc 1 295 1 is_stmt 1 view -0
 1045              		.cfi_startproc
 1046              		@ args = 0, pretend = 0, frame = 8
 1047              		@ frame_needed = 0, uses_anonymous_args = 0
 295:lvgl/src/extra/widgets/dclock/lv_dclock.c ****     LV_UNUSED(class_p);
 1048              		.loc 1 295 1 is_stmt 0 view .LVU329
 1049 0000 2DE9F043 		push	{r4, r5, r6, r7, r8, r9, lr}
 1050              	.LCFI20:
 1051              		.cfi_def_cfa_offset 28
 1052              		.cfi_offset 4, -28
 1053              		.cfi_offset 5, -24
 1054              		.cfi_offset 6, -20
 1055              		.cfi_offset 7, -16
 1056              		.cfi_offset 8, -12
 1057              		.cfi_offset 9, -8
 1058              		.cfi_offset 14, -4
 1059 0004 87B0     		sub	sp, sp, #28
 1060              	.LCFI21:
 1061              		.cfi_def_cfa_offset 56
 1062 0006 0E46     		mov	r6, r1
 296:lvgl/src/extra/widgets/dclock/lv_dclock.c **** 
 1063              		.loc 1 296 5 is_stmt 1 view .LVU330
 298:lvgl/src/extra/widgets/dclock/lv_dclock.c **** 
 1064              		.loc 1 298 5 view .LVU331
 301:lvgl/src/extra/widgets/dclock/lv_dclock.c ****     if(res != LV_RES_OK) return;
 1065              		.loc 1 301 5 view .LVU332
 301:lvgl/src/extra/widgets/dclock/lv_dclock.c ****     if(res != LV_RES_OK) return;
 1066              		.loc 1 301 11 is_stmt 0 view .LVU333
 1067 0008 5F48     		ldr	r0, .L76
 1068              	.LVL98:
 301:lvgl/src/extra/widgets/dclock/lv_dclock.c ****     if(res != LV_RES_OK) return;
 1069              		.loc 1 301 11 view .LVU334
 1070 000a FFF7FEFF 		bl	lv_obj_event_base
 1071              	.LVL99:
 302:lvgl/src/extra/widgets/dclock/lv_dclock.c **** 
 1072              		.loc 1 302 5 is_stmt 1 view .LVU335
 302:lvgl/src/extra/widgets/dclock/lv_dclock.c **** 
 1073              		.loc 1 302 7 is_stmt 0 view .LVU336
 1074 000e 0128     		cmp	r0, #1
 1075 0010 02D0     		beq	.L74
 1076              	.LVL100:
 1077              	.L58:
 345:lvgl/src/extra/widgets/dclock/lv_dclock.c **** 
 1078              		.loc 1 345 1 view .LVU337
 1079 0012 07B0     		add	sp, sp, #28
 1080              	.LCFI22:
 1081              		.cfi_remember_state
 1082              		.cfi_def_cfa_offset 28
 1083              		@ sp needed
 1084 0014 BDE8F083 		pop	{r4, r5, r6, r7, r8, r9, pc}
 1085              	.LVL101:
 1086              	.L74:
ARM GAS  C:\usertemp\ccL9DfK7.s 			page 45


 1087              	.LCFI23:
 1088              		.cfi_restore_state
 345:lvgl/src/extra/widgets/dclock/lv_dclock.c **** 
 1089              		.loc 1 345 1 view .LVU338
 1090 0018 0446     		mov	r4, r0
 304:lvgl/src/extra/widgets/dclock/lv_dclock.c ****     lv_obj_t * obj = lv_event_get_target(e);
 1091              		.loc 1 304 5 is_stmt 1 view .LVU339
 304:lvgl/src/extra/widgets/dclock/lv_dclock.c ****     lv_obj_t * obj = lv_event_get_target(e);
 1092              		.loc 1 304 28 is_stmt 0 view .LVU340
 1093 001a 3046     		mov	r0, r6
 1094              	.LVL102:
 304:lvgl/src/extra/widgets/dclock/lv_dclock.c ****     lv_obj_t * obj = lv_event_get_target(e);
 1095              		.loc 1 304 28 view .LVU341
 1096 001c FFF7FEFF 		bl	lv_event_get_code
 1097              	.LVL103:
 1098 0020 0546     		mov	r5, r0
 1099              	.LVL104:
 305:lvgl/src/extra/widgets/dclock/lv_dclock.c **** 
 1100              		.loc 1 305 5 is_stmt 1 view .LVU342
 305:lvgl/src/extra/widgets/dclock/lv_dclock.c **** 
 1101              		.loc 1 305 22 is_stmt 0 view .LVU343
 1102 0022 3046     		mov	r0, r6
 1103 0024 FFF7FEFF 		bl	lv_event_get_target
 1104              	.LVL105:
 1105 0028 0746     		mov	r7, r0
 1106              	.LVL106:
 307:lvgl/src/extra/widgets/dclock/lv_dclock.c ****         lv_dclock_refr_text(obj);
 1107              		.loc 1 307 5 is_stmt 1 view .LVU344
 1108 002a A5F11303 		sub	r3, r5, #19
 1109 002e 192B     		cmp	r3, #25
 1110 0030 EFD8     		bhi	.L58
 1111 0032 01A2     		adr	r2, .L61
 1112 0034 52F823F0 		ldr	pc, [r2, r3, lsl #2]
 1113              		.p2align 2
 1114              	.L61:
 1115 0038 A7000000 		.word	.L65+1
 1116 003c 13000000 		.word	.L58+1
 1117 0040 7F010000 		.word	.L64+1
 1118 0044 13000000 		.word	.L58+1
 1119 0048 13000000 		.word	.L58+1
 1120 004c 13000000 		.word	.L58+1
 1121 0050 13000000 		.word	.L58+1
 1122 0054 13000000 		.word	.L58+1
 1123 0058 13000000 		.word	.L58+1
 1124 005c 13000000 		.word	.L58+1
 1125 0060 13000000 		.word	.L58+1
 1126 0064 13000000 		.word	.L58+1
 1127 0068 13000000 		.word	.L58+1
 1128 006c 13000000 		.word	.L58+1
 1129 0070 13000000 		.word	.L58+1
 1130 0074 13000000 		.word	.L58+1
 1131 0078 13000000 		.word	.L58+1
 1132 007c 13000000 		.word	.L58+1
 1133 0080 13000000 		.word	.L58+1
 1134 0084 13000000 		.word	.L58+1
 1135 0088 13000000 		.word	.L58+1
 1136 008c 13000000 		.word	.L58+1
ARM GAS  C:\usertemp\ccL9DfK7.s 			page 46


 1137 0090 C7000000 		.word	.L63+1
 1138 0094 A1000000 		.word	.L62+1
 1139 0098 13000000 		.word	.L58+1
 1140 009c CD000000 		.word	.L60+1
 1141              		.p2align 1
 1142              	.L62:
 308:lvgl/src/extra/widgets/dclock/lv_dclock.c ****     }
 1143              		.loc 1 308 9 view .LVU345
 1144 00a0 FFF7FEFF 		bl	lv_dclock_refr_text
 1145              	.LVL107:
 308:lvgl/src/extra/widgets/dclock/lv_dclock.c ****     }
 1146              		.loc 1 308 9 is_stmt 0 view .LVU346
 1147 00a4 B5E7     		b	.L58
 1148              	.LVL108:
 1149              	.L65:
 1150              	.LBB54:
 315:lvgl/src/extra/widgets/dclock/lv_dclock.c ****         lv_coord_t font_h = lv_font_get_line_height(font);
 1151              		.loc 1 315 9 is_stmt 1 view .LVU347
 1152              	.LBB55:
 1153              	.LBI55:
 451:lvgl/src/extra/widgets/dclock/../../../core/lv_obj_style_gen.h **** {
 1154              		.loc 3 451 33 view .LVU348
 1155              	.LBB56:
 453:lvgl/src/extra/widgets/dclock/../../../core/lv_obj_style_gen.h ****     return (const lv_font_t *)v.ptr;
 1156              		.loc 3 453 5 view .LVU349
 453:lvgl/src/extra/widgets/dclock/../../../core/lv_obj_style_gen.h ****     return (const lv_font_t *)v.ptr;
 1157              		.loc 3 453 26 is_stmt 0 view .LVU350
 1158 00a6 41F25942 		movw	r2, #5209
 1159 00aa 0021     		movs	r1, #0
 1160 00ac FFF7FEFF 		bl	lv_obj_get_style_prop
 1161              	.LVL109:
 454:lvgl/src/extra/widgets/dclock/../../../core/lv_obj_style_gen.h **** }
 1162              		.loc 3 454 5 is_stmt 1 view .LVU351
 454:lvgl/src/extra/widgets/dclock/../../../core/lv_obj_style_gen.h **** }
 1163              		.loc 3 454 5 is_stmt 0 view .LVU352
 1164              	.LBE56:
 1165              	.LBE55:
 316:lvgl/src/extra/widgets/dclock/lv_dclock.c ****         lv_event_set_ext_draw_size(e, font_h / 4);
 1166              		.loc 1 316 9 is_stmt 1 view .LVU353
 1167              	.LBB57:
 1168              	.LBI57:
 1169              		.file 5 "D:/update_2024EL/changeform/743zit6/lvgl/src/font/lv_font.h"
   1:D:/update_2024EL/changeform/743zit6/lvgl/src/font\lv_font.h **** /**
   2:D:/update_2024EL/changeform/743zit6/lvgl/src/font\lv_font.h ****  * @file lv_font.h
   3:D:/update_2024EL/changeform/743zit6/lvgl/src/font\lv_font.h ****  *
   4:D:/update_2024EL/changeform/743zit6/lvgl/src/font\lv_font.h ****  */
   5:D:/update_2024EL/changeform/743zit6/lvgl/src/font\lv_font.h **** 
   6:D:/update_2024EL/changeform/743zit6/lvgl/src/font\lv_font.h **** #ifndef LV_FONT_H
   7:D:/update_2024EL/changeform/743zit6/lvgl/src/font\lv_font.h **** #define LV_FONT_H
   8:D:/update_2024EL/changeform/743zit6/lvgl/src/font\lv_font.h **** 
   9:D:/update_2024EL/changeform/743zit6/lvgl/src/font\lv_font.h **** #ifdef __cplusplus
  10:D:/update_2024EL/changeform/743zit6/lvgl/src/font\lv_font.h **** extern "C" {
  11:D:/update_2024EL/changeform/743zit6/lvgl/src/font\lv_font.h **** #endif
  12:D:/update_2024EL/changeform/743zit6/lvgl/src/font\lv_font.h **** 
  13:D:/update_2024EL/changeform/743zit6/lvgl/src/font\lv_font.h **** /*********************
  14:D:/update_2024EL/changeform/743zit6/lvgl/src/font\lv_font.h ****  *      INCLUDES
  15:D:/update_2024EL/changeform/743zit6/lvgl/src/font\lv_font.h ****  *********************/
ARM GAS  C:\usertemp\ccL9DfK7.s 			page 47


  16:D:/update_2024EL/changeform/743zit6/lvgl/src/font\lv_font.h **** #include "../lv_conf_internal.h"
  17:D:/update_2024EL/changeform/743zit6/lvgl/src/font\lv_font.h **** #include <stdint.h>
  18:D:/update_2024EL/changeform/743zit6/lvgl/src/font\lv_font.h **** #include <stddef.h>
  19:D:/update_2024EL/changeform/743zit6/lvgl/src/font\lv_font.h **** #include <stdbool.h>
  20:D:/update_2024EL/changeform/743zit6/lvgl/src/font\lv_font.h **** 
  21:D:/update_2024EL/changeform/743zit6/lvgl/src/font\lv_font.h **** #include "lv_symbol_def.h"
  22:D:/update_2024EL/changeform/743zit6/lvgl/src/font\lv_font.h **** #include "../misc/lv_area.h"
  23:D:/update_2024EL/changeform/743zit6/lvgl/src/font\lv_font.h **** 
  24:D:/update_2024EL/changeform/743zit6/lvgl/src/font\lv_font.h **** /*********************
  25:D:/update_2024EL/changeform/743zit6/lvgl/src/font\lv_font.h ****  *      DEFINES
  26:D:/update_2024EL/changeform/743zit6/lvgl/src/font\lv_font.h ****  *********************/
  27:D:/update_2024EL/changeform/743zit6/lvgl/src/font\lv_font.h **** 
  28:D:/update_2024EL/changeform/743zit6/lvgl/src/font\lv_font.h **** /**********************
  29:D:/update_2024EL/changeform/743zit6/lvgl/src/font\lv_font.h ****  *      TYPEDEFS
  30:D:/update_2024EL/changeform/743zit6/lvgl/src/font\lv_font.h ****  **********************/
  31:D:/update_2024EL/changeform/743zit6/lvgl/src/font\lv_font.h **** 
  32:D:/update_2024EL/changeform/743zit6/lvgl/src/font\lv_font.h **** /*------------------
  33:D:/update_2024EL/changeform/743zit6/lvgl/src/font\lv_font.h ****  * General types
  34:D:/update_2024EL/changeform/743zit6/lvgl/src/font\lv_font.h ****  *-----------------*/
  35:D:/update_2024EL/changeform/743zit6/lvgl/src/font\lv_font.h **** 
  36:D:/update_2024EL/changeform/743zit6/lvgl/src/font\lv_font.h **** struct _lv_font_t;
  37:D:/update_2024EL/changeform/743zit6/lvgl/src/font\lv_font.h **** /** Describes the properties of a glyph.*/
  38:D:/update_2024EL/changeform/743zit6/lvgl/src/font\lv_font.h **** typedef struct {
  39:D:/update_2024EL/changeform/743zit6/lvgl/src/font\lv_font.h ****     const struct _lv_font_t *
  40:D:/update_2024EL/changeform/743zit6/lvgl/src/font\lv_font.h ****         resolved_font; /**< Pointer to a font where the gylph was actually found after handling fal
  41:D:/update_2024EL/changeform/743zit6/lvgl/src/font\lv_font.h ****     uint16_t adv_w; /**< The glyph needs this space. Draw the next glyph after this width.*/
  42:D:/update_2024EL/changeform/743zit6/lvgl/src/font\lv_font.h ****     uint16_t box_w; /**< Width of the glyph's bounding box*/
  43:D:/update_2024EL/changeform/743zit6/lvgl/src/font\lv_font.h ****     uint16_t box_h; /**< Height of the glyph's bounding box*/
  44:D:/update_2024EL/changeform/743zit6/lvgl/src/font\lv_font.h ****     int16_t ofs_x;  /**< x offset of the bounding box*/
  45:D:/update_2024EL/changeform/743zit6/lvgl/src/font\lv_font.h ****     int16_t ofs_y;  /**< y offset of the bounding box*/
  46:D:/update_2024EL/changeform/743zit6/lvgl/src/font\lv_font.h ****     uint8_t bpp: 4;  /**< Bit-per-pixel: 1, 2, 4, 8*/
  47:D:/update_2024EL/changeform/743zit6/lvgl/src/font\lv_font.h ****     uint8_t is_placeholder: 1; /** Glyph is missing. But placeholder will still be displayed */
  48:D:/update_2024EL/changeform/743zit6/lvgl/src/font\lv_font.h **** } lv_font_glyph_dsc_t;
  49:D:/update_2024EL/changeform/743zit6/lvgl/src/font\lv_font.h **** 
  50:D:/update_2024EL/changeform/743zit6/lvgl/src/font\lv_font.h **** /** The bitmaps might be upscaled by 3 to achieve subpixel rendering.*/
  51:D:/update_2024EL/changeform/743zit6/lvgl/src/font\lv_font.h **** enum {
  52:D:/update_2024EL/changeform/743zit6/lvgl/src/font\lv_font.h ****     LV_FONT_SUBPX_NONE,
  53:D:/update_2024EL/changeform/743zit6/lvgl/src/font\lv_font.h ****     LV_FONT_SUBPX_HOR,
  54:D:/update_2024EL/changeform/743zit6/lvgl/src/font\lv_font.h ****     LV_FONT_SUBPX_VER,
  55:D:/update_2024EL/changeform/743zit6/lvgl/src/font\lv_font.h ****     LV_FONT_SUBPX_BOTH,
  56:D:/update_2024EL/changeform/743zit6/lvgl/src/font\lv_font.h **** };
  57:D:/update_2024EL/changeform/743zit6/lvgl/src/font\lv_font.h **** 
  58:D:/update_2024EL/changeform/743zit6/lvgl/src/font\lv_font.h **** typedef uint8_t lv_font_subpx_t;
  59:D:/update_2024EL/changeform/743zit6/lvgl/src/font\lv_font.h **** 
  60:D:/update_2024EL/changeform/743zit6/lvgl/src/font\lv_font.h **** /** Describe the properties of a font*/
  61:D:/update_2024EL/changeform/743zit6/lvgl/src/font\lv_font.h **** typedef struct _lv_font_t {
  62:D:/update_2024EL/changeform/743zit6/lvgl/src/font\lv_font.h ****     /** Get a glyph's descriptor from a font*/
  63:D:/update_2024EL/changeform/743zit6/lvgl/src/font\lv_font.h ****     bool (*get_glyph_dsc)(const struct _lv_font_t *, lv_font_glyph_dsc_t *, uint32_t letter, uint32
  64:D:/update_2024EL/changeform/743zit6/lvgl/src/font\lv_font.h **** 
  65:D:/update_2024EL/changeform/743zit6/lvgl/src/font\lv_font.h ****     /** Get a glyph's bitmap from a font*/
  66:D:/update_2024EL/changeform/743zit6/lvgl/src/font\lv_font.h ****     const uint8_t * (*get_glyph_bitmap)(const struct _lv_font_t *, uint32_t);
  67:D:/update_2024EL/changeform/743zit6/lvgl/src/font\lv_font.h **** 
  68:D:/update_2024EL/changeform/743zit6/lvgl/src/font\lv_font.h ****     /*Pointer to the font in a font pack (must have the same line height)*/
  69:D:/update_2024EL/changeform/743zit6/lvgl/src/font\lv_font.h ****     lv_coord_t line_height;         /**< The real line height where any text fits*/
  70:D:/update_2024EL/changeform/743zit6/lvgl/src/font\lv_font.h ****     lv_coord_t base_line;           /**< Base line measured from the top of the line_height*/
  71:D:/update_2024EL/changeform/743zit6/lvgl/src/font\lv_font.h ****     uint8_t subpx  : 2;             /**< An element of `lv_font_subpx_t`*/
  72:D:/update_2024EL/changeform/743zit6/lvgl/src/font\lv_font.h **** 
ARM GAS  C:\usertemp\ccL9DfK7.s 			page 48


  73:D:/update_2024EL/changeform/743zit6/lvgl/src/font\lv_font.h ****     int8_t underline_position;      /**< Distance between the top of the underline and base line (<
  74:D:/update_2024EL/changeform/743zit6/lvgl/src/font\lv_font.h ****     int8_t underline_thickness;     /**< Thickness of the underline*/
  75:D:/update_2024EL/changeform/743zit6/lvgl/src/font\lv_font.h **** 
  76:D:/update_2024EL/changeform/743zit6/lvgl/src/font\lv_font.h ****     const void * dsc;               /**< Store implementation specific or run_time data or caching 
  77:D:/update_2024EL/changeform/743zit6/lvgl/src/font\lv_font.h ****     const struct _lv_font_t * fallback;   /**< Fallback font for missing glyph. Resolved recursivel
  78:D:/update_2024EL/changeform/743zit6/lvgl/src/font\lv_font.h **** #if LV_USE_USER_DATA
  79:D:/update_2024EL/changeform/743zit6/lvgl/src/font\lv_font.h ****     void * user_data;               /**< Custom user data for font.*/
  80:D:/update_2024EL/changeform/743zit6/lvgl/src/font\lv_font.h **** #endif
  81:D:/update_2024EL/changeform/743zit6/lvgl/src/font\lv_font.h **** } lv_font_t;
  82:D:/update_2024EL/changeform/743zit6/lvgl/src/font\lv_font.h **** 
  83:D:/update_2024EL/changeform/743zit6/lvgl/src/font\lv_font.h **** /**********************
  84:D:/update_2024EL/changeform/743zit6/lvgl/src/font\lv_font.h ****  * GLOBAL PROTOTYPES
  85:D:/update_2024EL/changeform/743zit6/lvgl/src/font\lv_font.h ****  **********************/
  86:D:/update_2024EL/changeform/743zit6/lvgl/src/font\lv_font.h **** 
  87:D:/update_2024EL/changeform/743zit6/lvgl/src/font\lv_font.h **** /**
  88:D:/update_2024EL/changeform/743zit6/lvgl/src/font\lv_font.h ****  * Return with the bitmap of a font.
  89:D:/update_2024EL/changeform/743zit6/lvgl/src/font\lv_font.h ****  * @param font_p pointer to a font
  90:D:/update_2024EL/changeform/743zit6/lvgl/src/font\lv_font.h ****  * @param letter an UNICODE character code
  91:D:/update_2024EL/changeform/743zit6/lvgl/src/font\lv_font.h ****  * @return pointer to the bitmap of the letter
  92:D:/update_2024EL/changeform/743zit6/lvgl/src/font\lv_font.h ****  */
  93:D:/update_2024EL/changeform/743zit6/lvgl/src/font\lv_font.h **** const uint8_t * lv_font_get_glyph_bitmap(const lv_font_t * font_p, uint32_t letter);
  94:D:/update_2024EL/changeform/743zit6/lvgl/src/font\lv_font.h **** 
  95:D:/update_2024EL/changeform/743zit6/lvgl/src/font\lv_font.h **** /**
  96:D:/update_2024EL/changeform/743zit6/lvgl/src/font\lv_font.h ****  * Get the descriptor of a glyph
  97:D:/update_2024EL/changeform/743zit6/lvgl/src/font\lv_font.h ****  * @param font_p pointer to font
  98:D:/update_2024EL/changeform/743zit6/lvgl/src/font\lv_font.h ****  * @param dsc_out store the result descriptor here
  99:D:/update_2024EL/changeform/743zit6/lvgl/src/font\lv_font.h ****  * @param letter an UNICODE letter code
 100:D:/update_2024EL/changeform/743zit6/lvgl/src/font\lv_font.h ****  * @param letter_next the next letter after `letter`. Used for kerning
 101:D:/update_2024EL/changeform/743zit6/lvgl/src/font\lv_font.h ****  * @return true: descriptor is successfully loaded into `dsc_out`.
 102:D:/update_2024EL/changeform/743zit6/lvgl/src/font\lv_font.h ****  *         false: the letter was not found, no data is loaded to `dsc_out`
 103:D:/update_2024EL/changeform/743zit6/lvgl/src/font\lv_font.h ****  */
 104:D:/update_2024EL/changeform/743zit6/lvgl/src/font\lv_font.h **** bool lv_font_get_glyph_dsc(const lv_font_t * font_p, lv_font_glyph_dsc_t * dsc_out, uint32_t letter
 105:D:/update_2024EL/changeform/743zit6/lvgl/src/font\lv_font.h ****                            uint32_t letter_next);
 106:D:/update_2024EL/changeform/743zit6/lvgl/src/font\lv_font.h **** 
 107:D:/update_2024EL/changeform/743zit6/lvgl/src/font\lv_font.h **** /**
 108:D:/update_2024EL/changeform/743zit6/lvgl/src/font\lv_font.h ****  * Get the width of a glyph with kerning
 109:D:/update_2024EL/changeform/743zit6/lvgl/src/font\lv_font.h ****  * @param font pointer to a font
 110:D:/update_2024EL/changeform/743zit6/lvgl/src/font\lv_font.h ****  * @param letter an UNICODE letter
 111:D:/update_2024EL/changeform/743zit6/lvgl/src/font\lv_font.h ****  * @param letter_next the next letter after `letter`. Used for kerning
 112:D:/update_2024EL/changeform/743zit6/lvgl/src/font\lv_font.h ****  * @return the width of the glyph
 113:D:/update_2024EL/changeform/743zit6/lvgl/src/font\lv_font.h ****  */
 114:D:/update_2024EL/changeform/743zit6/lvgl/src/font\lv_font.h **** uint16_t lv_font_get_glyph_width(const lv_font_t * font, uint32_t letter, uint32_t letter_next);
 115:D:/update_2024EL/changeform/743zit6/lvgl/src/font\lv_font.h **** 
 116:D:/update_2024EL/changeform/743zit6/lvgl/src/font\lv_font.h **** /**
 117:D:/update_2024EL/changeform/743zit6/lvgl/src/font\lv_font.h ****  * Get the line height of a font. All characters fit into this height
 118:D:/update_2024EL/changeform/743zit6/lvgl/src/font\lv_font.h ****  * @param font_p pointer to a font
 119:D:/update_2024EL/changeform/743zit6/lvgl/src/font\lv_font.h ****  * @return the height of a font
 120:D:/update_2024EL/changeform/743zit6/lvgl/src/font\lv_font.h ****  */
 121:D:/update_2024EL/changeform/743zit6/lvgl/src/font\lv_font.h **** static inline lv_coord_t lv_font_get_line_height(const lv_font_t * font_p)
 1170              		.loc 5 121 26 view .LVU354
 1171              	.LBB58:
 122:D:/update_2024EL/changeform/743zit6/lvgl/src/font\lv_font.h **** {
 123:D:/update_2024EL/changeform/743zit6/lvgl/src/font\lv_font.h ****     return font_p->line_height;
 1172              		.loc 5 123 5 view .LVU355
 1173              		.loc 5 123 18 is_stmt 0 view .LVU356
 1174 00b0 B0F90810 		ldrsh	r1, [r0, #8]
 1175              	.LVL110:
ARM GAS  C:\usertemp\ccL9DfK7.s 			page 49


 1176              		.loc 5 123 18 view .LVU357
 1177              	.LBE58:
 1178              	.LBE57:
 317:lvgl/src/extra/widgets/dclock/lv_dclock.c ****     }
 1179              		.loc 1 317 9 is_stmt 1 view .LVU358
 317:lvgl/src/extra/widgets/dclock/lv_dclock.c ****     }
 1180              		.loc 1 317 9 is_stmt 0 view .LVU359
 1181 00b4 0029     		cmp	r1, #0
 1182 00b6 04DB     		blt	.L75
 1183              	.LVL111:
 1184              	.L66:
 317:lvgl/src/extra/widgets/dclock/lv_dclock.c ****     }
 1185              		.loc 1 317 9 view .LVU360
 1186 00b8 8910     		asrs	r1, r1, #2
 1187 00ba 3046     		mov	r0, r6
 1188              	.LVL112:
 317:lvgl/src/extra/widgets/dclock/lv_dclock.c ****     }
 1189              		.loc 1 317 9 view .LVU361
 1190 00bc FFF7FEFF 		bl	lv_event_set_ext_draw_size
 1191              	.LVL113:
 317:lvgl/src/extra/widgets/dclock/lv_dclock.c ****     }
 1192              		.loc 1 317 9 view .LVU362
 1193              	.LBE54:
 1194 00c0 A7E7     		b	.L58
 1195              	.LVL114:
 1196              	.L75:
 1197              	.LBB59:
 317:lvgl/src/extra/widgets/dclock/lv_dclock.c ****     }
 1198              		.loc 1 317 9 view .LVU363
 1199 00c2 0331     		adds	r1, r1, #3
 1200              	.LVL115:
 317:lvgl/src/extra/widgets/dclock/lv_dclock.c ****     }
 1201              		.loc 1 317 9 view .LVU364
 1202 00c4 F8E7     		b	.L66
 1203              	.LVL116:
 1204              	.L63:
 317:lvgl/src/extra/widgets/dclock/lv_dclock.c ****     }
 1205              		.loc 1 317 9 view .LVU365
 1206              	.LBE59:
 320:lvgl/src/extra/widgets/dclock/lv_dclock.c ****     }
 1207              		.loc 1 320 9 is_stmt 1 view .LVU366
 1208 00c6 FFF7FEFF 		bl	lv_dclock_refr_text
 1209              	.LVL117:
 320:lvgl/src/extra/widgets/dclock/lv_dclock.c ****     }
 1210              		.loc 1 320 9 is_stmt 0 view .LVU367
 1211 00ca A2E7     		b	.L58
 1212              	.LVL118:
 1213              	.L60:
 1214              	.LBB60:
 323:lvgl/src/extra/widgets/dclock/lv_dclock.c ****         lv_dclock_t * dclock = (lv_dclock_t *)obj;
 1215              		.loc 1 323 9 is_stmt 1 view .LVU368
 324:lvgl/src/extra/widgets/dclock/lv_dclock.c ****         const lv_font_t * font = lv_obj_get_style_text_font(obj, LV_PART_MAIN);
 1216              		.loc 1 324 9 view .LVU369
 325:lvgl/src/extra/widgets/dclock/lv_dclock.c ****         lv_coord_t letter_space = lv_obj_get_style_text_letter_space(obj, LV_PART_MAIN);
 1217              		.loc 1 325 9 view .LVU370
 1218              	.LBB61:
 1219              	.LBI61:
ARM GAS  C:\usertemp\ccL9DfK7.s 			page 50


 451:lvgl/src/extra/widgets/dclock/../../../core/lv_obj_style_gen.h **** {
 1220              		.loc 3 451 33 view .LVU371
 1221              	.LBB62:
 453:lvgl/src/extra/widgets/dclock/../../../core/lv_obj_style_gen.h ****     return (const lv_font_t *)v.ptr;
 1222              		.loc 3 453 5 view .LVU372
 453:lvgl/src/extra/widgets/dclock/../../../core/lv_obj_style_gen.h ****     return (const lv_font_t *)v.ptr;
 1223              		.loc 3 453 26 is_stmt 0 view .LVU373
 1224 00cc 41F25942 		movw	r2, #5209
 1225 00d0 0021     		movs	r1, #0
 1226 00d2 FFF7FEFF 		bl	lv_obj_get_style_prop
 1227              	.LVL119:
 453:lvgl/src/extra/widgets/dclock/../../../core/lv_obj_style_gen.h ****     return (const lv_font_t *)v.ptr;
 1228              		.loc 3 453 26 view .LVU374
 1229 00d6 0546     		mov	r5, r0
 1230              	.LVL120:
 454:lvgl/src/extra/widgets/dclock/../../../core/lv_obj_style_gen.h **** }
 1231              		.loc 3 454 5 is_stmt 1 view .LVU375
 454:lvgl/src/extra/widgets/dclock/../../../core/lv_obj_style_gen.h **** }
 1232              		.loc 3 454 5 is_stmt 0 view .LVU376
 1233              	.LBE62:
 1234              	.LBE61:
 326:lvgl/src/extra/widgets/dclock/lv_dclock.c ****         lv_coord_t line_space = lv_obj_get_style_text_line_space(obj, LV_PART_MAIN);
 1235              		.loc 1 326 9 is_stmt 1 view .LVU377
 1236              	.LBB63:
 1237              	.LBI63:
 457:lvgl/src/extra/widgets/dclock/../../../core/lv_obj_style_gen.h **** {
 1238              		.loc 3 457 26 view .LVU378
 1239              	.LBB64:
 459:lvgl/src/extra/widgets/dclock/../../../core/lv_obj_style_gen.h ****     return (lv_coord_t)v.num;
 1240              		.loc 3 459 5 view .LVU379
 459:lvgl/src/extra/widgets/dclock/../../../core/lv_obj_style_gen.h ****     return (lv_coord_t)v.num;
 1241              		.loc 3 459 26 is_stmt 0 view .LVU380
 1242 00d8 41F25A42 		movw	r2, #5210
 1243 00dc 0021     		movs	r1, #0
 1244 00de 3846     		mov	r0, r7
 1245              	.LVL121:
 459:lvgl/src/extra/widgets/dclock/../../../core/lv_obj_style_gen.h ****     return (lv_coord_t)v.num;
 1246              		.loc 3 459 26 view .LVU381
 1247 00e0 FFF7FEFF 		bl	lv_obj_get_style_prop
 1248              	.LVL122:
 460:lvgl/src/extra/widgets/dclock/../../../core/lv_obj_style_gen.h **** }
 1249              		.loc 3 460 5 is_stmt 1 view .LVU382
 460:lvgl/src/extra/widgets/dclock/../../../core/lv_obj_style_gen.h **** }
 1250              		.loc 3 460 12 is_stmt 0 view .LVU383
 1251 00e4 0FFA80F8 		sxth	r8, r0
 1252              	.LVL123:
 460:lvgl/src/extra/widgets/dclock/../../../core/lv_obj_style_gen.h **** }
 1253              		.loc 3 460 12 view .LVU384
 1254              	.LBE64:
 1255              	.LBE63:
 327:lvgl/src/extra/widgets/dclock/lv_dclock.c ****         lv_text_flag_t flag = LV_TEXT_FLAG_NONE;
 1256              		.loc 1 327 9 is_stmt 1 view .LVU385
 1257              	.LBB65:
 1258              	.LBI65:
 463:lvgl/src/extra/widgets/dclock/../../../core/lv_obj_style_gen.h **** {
 1259              		.loc 3 463 26 view .LVU386
 1260              	.LBB66:
ARM GAS  C:\usertemp\ccL9DfK7.s 			page 51


 465:lvgl/src/extra/widgets/dclock/../../../core/lv_obj_style_gen.h ****     return (lv_coord_t)v.num;
 1261              		.loc 3 465 5 view .LVU387
 465:lvgl/src/extra/widgets/dclock/../../../core/lv_obj_style_gen.h ****     return (lv_coord_t)v.num;
 1262              		.loc 3 465 26 is_stmt 0 view .LVU388
 1263 00e8 41F25B42 		movw	r2, #5211
 1264 00ec 0021     		movs	r1, #0
 1265 00ee 3846     		mov	r0, r7
 1266 00f0 FFF7FEFF 		bl	lv_obj_get_style_prop
 1267              	.LVL124:
 1268              		.loc 3 466 5 is_stmt 1 view .LVU389
 1269              		.loc 3 466 12 is_stmt 0 view .LVU390
 1270 00f4 0FFA80F9 		sxth	r9, r0
 1271              	.LVL125:
 1272              		.loc 3 466 12 view .LVU391
 1273              	.LBE66:
 1274              	.LBE65:
 328:lvgl/src/extra/widgets/dclock/lv_dclock.c ****         if(dclock->recolor != 0) flag |= LV_TEXT_FLAG_RECOLOR;
 1275              		.loc 1 328 9 is_stmt 1 view .LVU392
 329:lvgl/src/extra/widgets/dclock/lv_dclock.c ****         if(dclock->expand != 0) flag |= LV_TEXT_FLAG_EXPAND;
 1276              		.loc 1 329 9 view .LVU393
 329:lvgl/src/extra/widgets/dclock/lv_dclock.c ****         if(dclock->expand != 0) flag |= LV_TEXT_FLAG_EXPAND;
 1277              		.loc 1 329 28 is_stmt 0 view .LVU394
 1278 00f8 97F83430 		ldrb	r3, [r7, #52]	@ zero_extendqisi2
 329:lvgl/src/extra/widgets/dclock/lv_dclock.c ****         if(dclock->expand != 0) flag |= LV_TEXT_FLAG_EXPAND;
 1279              		.loc 1 329 11 view .LVU395
 1280 00fc 13F00202 		ands	r2, r3, #2
 1281 0100 00D1     		bne	.L67
 328:lvgl/src/extra/widgets/dclock/lv_dclock.c ****         if(dclock->recolor != 0) flag |= LV_TEXT_FLAG_RECOLOR;
 1282              		.loc 1 328 24 view .LVU396
 1283 0102 1446     		mov	r4, r2
 1284              	.LVL126:
 1285              	.L67:
 330:lvgl/src/extra/widgets/dclock/lv_dclock.c **** 
 1286              		.loc 1 330 9 is_stmt 1 view .LVU397
 330:lvgl/src/extra/widgets/dclock/lv_dclock.c **** 
 1287              		.loc 1 330 11 is_stmt 0 view .LVU398
 1288 0104 13F0040F 		tst	r3, #4
 1289 0108 02D0     		beq	.L68
 330:lvgl/src/extra/widgets/dclock/lv_dclock.c **** 
 1290              		.loc 1 330 33 is_stmt 1 discriminator 1 view .LVU399
 330:lvgl/src/extra/widgets/dclock/lv_dclock.c **** 
 1291              		.loc 1 330 38 is_stmt 0 discriminator 1 view .LVU400
 1292 010a 44F00204 		orr	r4, r4, #2
 1293              	.LVL127:
 330:lvgl/src/extra/widgets/dclock/lv_dclock.c **** 
 1294              		.loc 1 330 38 discriminator 1 view .LVU401
 1295 010e E4B2     		uxtb	r4, r4
 1296              	.LVL128:
 1297              	.L68:
 332:lvgl/src/extra/widgets/dclock/lv_dclock.c ****         if(lv_obj_get_style_width(obj, LV_PART_MAIN) == LV_SIZE_CONTENT && !obj->w_layout) w = LV_C
 1298              		.loc 1 332 9 is_stmt 1 view .LVU402
 332:lvgl/src/extra/widgets/dclock/lv_dclock.c ****         if(lv_obj_get_style_width(obj, LV_PART_MAIN) == LV_SIZE_CONTENT && !obj->w_layout) w = LV_C
 1299              		.loc 1 332 24 is_stmt 0 view .LVU403
 1300 0110 3846     		mov	r0, r7
 1301 0112 FFF7FEFF 		bl	lv_obj_get_content_width
 1302              	.LVL129:
 333:lvgl/src/extra/widgets/dclock/lv_dclock.c ****         else w = lv_obj_get_content_width(obj);
ARM GAS  C:\usertemp\ccL9DfK7.s 			page 52


 1303              		.loc 1 333 9 is_stmt 1 view .LVU404
 1304              	.LBB67:
 1305              	.LBI67:
   1:lvgl/src/extra/widgets/dclock/../../../core/lv_obj_style_gen.h **** {
 1306              		.loc 3 1 26 view .LVU405
 1307              	.LBB68:
   3:lvgl/src/extra/widgets/dclock/../../../core/lv_obj_style_gen.h ****     return (lv_coord_t)v.num;
 1308              		.loc 3 3 5 view .LVU406
   3:lvgl/src/extra/widgets/dclock/../../../core/lv_obj_style_gen.h ****     return (lv_coord_t)v.num;
 1309              		.loc 3 3 26 is_stmt 0 view .LVU407
 1310 0116 41F20102 		movw	r2, #4097
 1311 011a 0021     		movs	r1, #0
 1312 011c 3846     		mov	r0, r7
 1313 011e FFF7FEFF 		bl	lv_obj_get_style_prop
 1314              	.LVL130:
   4:lvgl/src/extra/widgets/dclock/../../../core/lv_obj_style_gen.h **** }
 1315              		.loc 3 4 5 is_stmt 1 view .LVU408
   4:lvgl/src/extra/widgets/dclock/../../../core/lv_obj_style_gen.h **** }
 1316              		.loc 3 4 12 is_stmt 0 view .LVU409
 1317 0122 00B2     		sxth	r0, r0
 1318              	.LVL131:
   4:lvgl/src/extra/widgets/dclock/../../../core/lv_obj_style_gen.h **** }
 1319              		.loc 3 4 12 view .LVU410
 1320              	.LBE68:
 1321              	.LBE67:
 333:lvgl/src/extra/widgets/dclock/lv_dclock.c ****         else w = lv_obj_get_content_width(obj);
 1322              		.loc 1 333 11 discriminator 1 view .LVU411
 1323 0124 42F2D173 		movw	r3, #10193
 1324 0128 9842     		cmp	r0, r3
 1325 012a 04D1     		bne	.L69
 333:lvgl/src/extra/widgets/dclock/lv_dclock.c ****         else w = lv_obj_get_content_width(obj);
 1326              		.loc 1 333 76 discriminator 1 view .LVU412
 1327 012c 97F82330 		ldrb	r3, [r7, #35]	@ zero_extendqisi2
 333:lvgl/src/extra/widgets/dclock/lv_dclock.c ****         else w = lv_obj_get_content_width(obj);
 1328              		.loc 1 333 73 discriminator 1 view .LVU413
 1329 0130 13F0040F 		tst	r3, #4
 1330 0134 20D0     		beq	.L71
 1331              	.L69:
 334:lvgl/src/extra/widgets/dclock/lv_dclock.c **** 
 1332              		.loc 1 334 14 is_stmt 1 view .LVU414
 334:lvgl/src/extra/widgets/dclock/lv_dclock.c **** 
 1333              		.loc 1 334 18 is_stmt 0 view .LVU415
 1334 0136 3846     		mov	r0, r7
 1335 0138 FFF7FEFF 		bl	lv_obj_get_content_width
 1336              	.LVL132:
 1337              	.L70:
 336:lvgl/src/extra/widgets/dclock/lv_dclock.c **** 
 1338              		.loc 1 336 9 is_stmt 1 view .LVU416
 336:lvgl/src/extra/widgets/dclock/lv_dclock.c **** 
 1339              		.loc 1 336 38 is_stmt 0 view .LVU417
 1340 013c 796A     		ldr	r1, [r7, #36]
 336:lvgl/src/extra/widgets/dclock/lv_dclock.c **** 
 1341              		.loc 1 336 9 view .LVU418
 1342 013e 0294     		str	r4, [sp, #8]
 1343 0140 0190     		str	r0, [sp, #4]
 1344 0142 CDF80090 		str	r9, [sp]
 1345 0146 4346     		mov	r3, r8
ARM GAS  C:\usertemp\ccL9DfK7.s 			page 53


 1346 0148 2A46     		mov	r2, r5
 1347 014a 05A8     		add	r0, sp, #20
 1348              	.LVL133:
 336:lvgl/src/extra/widgets/dclock/lv_dclock.c **** 
 1349              		.loc 1 336 9 view .LVU419
 1350 014c FFF7FEFF 		bl	lv_txt_get_size
 1351              	.LVL134:
 338:lvgl/src/extra/widgets/dclock/lv_dclock.c ****         self_size->x = LV_MAX(self_size->x, size.x);
 1352              		.loc 1 338 9 is_stmt 1 view .LVU420
 338:lvgl/src/extra/widgets/dclock/lv_dclock.c ****         self_size->x = LV_MAX(self_size->x, size.x);
 1353              		.loc 1 338 34 is_stmt 0 view .LVU421
 1354 0150 3046     		mov	r0, r6
 1355 0152 FFF7FEFF 		bl	lv_event_get_param
 1356              	.LVL135:
 339:lvgl/src/extra/widgets/dclock/lv_dclock.c ****         self_size->y = LV_MAX(self_size->y, size.y);
 1357              		.loc 1 339 9 is_stmt 1 view .LVU422
 339:lvgl/src/extra/widgets/dclock/lv_dclock.c ****         self_size->y = LV_MAX(self_size->y, size.y);
 1358              		.loc 1 339 24 is_stmt 0 view .LVU423
 1359 0156 BDF91430 		ldrsh	r3, [sp, #20]
 1360 015a B0F90020 		ldrsh	r2, [r0]
 1361 015e 9342     		cmp	r3, r2
 1362 0160 B8BF     		it	lt
 1363 0162 1346     		movlt	r3, r2
 339:lvgl/src/extra/widgets/dclock/lv_dclock.c ****         self_size->y = LV_MAX(self_size->y, size.y);
 1364              		.loc 1 339 22 view .LVU424
 1365 0164 0380     		strh	r3, [r0]	@ movhi
 340:lvgl/src/extra/widgets/dclock/lv_dclock.c ****     }
 1366              		.loc 1 340 9 is_stmt 1 view .LVU425
 340:lvgl/src/extra/widgets/dclock/lv_dclock.c ****     }
 1367              		.loc 1 340 24 is_stmt 0 view .LVU426
 1368 0166 BDF91630 		ldrsh	r3, [sp, #22]
 1369 016a B0F90220 		ldrsh	r2, [r0, #2]
 1370 016e 9342     		cmp	r3, r2
 1371 0170 B8BF     		it	lt
 1372 0172 1346     		movlt	r3, r2
 340:lvgl/src/extra/widgets/dclock/lv_dclock.c ****     }
 1373              		.loc 1 340 22 view .LVU427
 1374 0174 4380     		strh	r3, [r0, #2]	@ movhi
 1375              	.LBE60:
 1376 0176 4CE7     		b	.L58
 1377              	.LVL136:
 1378              	.L71:
 1379              	.LBB69:
 333:lvgl/src/extra/widgets/dclock/lv_dclock.c ****         else w = lv_obj_get_content_width(obj);
 1380              		.loc 1 333 94 discriminator 2 view .LVU428
 1381 0178 41F6FF70 		movw	r0, #8191
 1382 017c DEE7     		b	.L70
 1383              	.LVL137:
 1384              	.L64:
 333:lvgl/src/extra/widgets/dclock/lv_dclock.c ****         else w = lv_obj_get_content_width(obj);
 1385              		.loc 1 333 94 discriminator 2 view .LVU429
 1386              	.LBE69:
 343:lvgl/src/extra/widgets/dclock/lv_dclock.c ****     }
 1387              		.loc 1 343 9 is_stmt 1 view .LVU430
 1388 017e 3046     		mov	r0, r6
 1389              	.LVL138:
 343:lvgl/src/extra/widgets/dclock/lv_dclock.c ****     }
ARM GAS  C:\usertemp\ccL9DfK7.s 			page 54


 1390              		.loc 1 343 9 is_stmt 0 view .LVU431
 1391 0180 FFF7FEFF 		bl	draw_main
 1392              	.LVL139:
 1393 0184 45E7     		b	.L58
 1394              	.L77:
 1395 0186 00BF     		.align	2
 1396              	.L76:
 1397 0188 00000000 		.word	lv_dclock_class
 1398              		.cfi_endproc
 1399              	.LFE165:
 1401              		.section	.text.clock_count_24,"ax",%progbits
 1402              		.align	1
 1403              		.global	clock_count_24
 1404              		.syntax unified
 1405              		.thumb
 1406              		.thumb_func
 1408              	clock_count_24:
 1409              	.LVL140:
 1410              	.LFB161:
 206:lvgl/src/extra/widgets/dclock/lv_dclock.c ****     (*seconds)++;
 1411              		.loc 1 206 1 is_stmt 1 view -0
 1412              		.cfi_startproc
 1413              		@ args = 0, pretend = 0, frame = 0
 1414              		@ frame_needed = 0, uses_anonymous_args = 0
 1415              		@ link register save eliminated.
 207:lvgl/src/extra/widgets/dclock/lv_dclock.c **** 
 1416              		.loc 1 207 5 view .LVU433
 207:lvgl/src/extra/widgets/dclock/lv_dclock.c **** 
 1417              		.loc 1 207 6 is_stmt 0 view .LVU434
 1418 0000 1368     		ldr	r3, [r2]
 207:lvgl/src/extra/widgets/dclock/lv_dclock.c **** 
 1419              		.loc 1 207 15 view .LVU435
 1420 0002 0133     		adds	r3, r3, #1
 1421 0004 1360     		str	r3, [r2]
 209:lvgl/src/extra/widgets/dclock/lv_dclock.c ****         *seconds = 0;
 1422              		.loc 1 209 5 is_stmt 1 view .LVU436
 209:lvgl/src/extra/widgets/dclock/lv_dclock.c ****         *seconds = 0;
 1423              		.loc 1 209 7 is_stmt 0 view .LVU437
 1424 0006 3C2B     		cmp	r3, #60
 1425 0008 06D0     		beq	.L82
 1426              	.L79:
 214:lvgl/src/extra/widgets/dclock/lv_dclock.c ****         *minute = 0;
 1427              		.loc 1 214 5 is_stmt 1 view .LVU438
 214:lvgl/src/extra/widgets/dclock/lv_dclock.c ****         *minute = 0;
 1428              		.loc 1 214 8 is_stmt 0 view .LVU439
 1429 000a 0B68     		ldr	r3, [r1]
 214:lvgl/src/extra/widgets/dclock/lv_dclock.c ****         *minute = 0;
 1430              		.loc 1 214 7 view .LVU440
 1431 000c 3C2B     		cmp	r3, #60
 1432 000e 09D0     		beq	.L83
 1433              	.L80:
 219:lvgl/src/extra/widgets/dclock/lv_dclock.c ****         *hour = 0;
 1434              		.loc 1 219 5 is_stmt 1 view .LVU441
 219:lvgl/src/extra/widgets/dclock/lv_dclock.c ****         *hour = 0;
 1435              		.loc 1 219 8 is_stmt 0 view .LVU442
 1436 0010 0368     		ldr	r3, [r0]
 219:lvgl/src/extra/widgets/dclock/lv_dclock.c ****         *hour = 0;
ARM GAS  C:\usertemp\ccL9DfK7.s 			page 55


 1437              		.loc 1 219 7 view .LVU443
 1438 0012 182B     		cmp	r3, #24
 1439 0014 0CD0     		beq	.L84
 1440              	.L78:
 222:lvgl/src/extra/widgets/dclock/lv_dclock.c **** 
 1441              		.loc 1 222 1 view .LVU444
 1442 0016 7047     		bx	lr
 1443              	.L82:
 210:lvgl/src/extra/widgets/dclock/lv_dclock.c ****         (*minute)++;
 1444              		.loc 1 210 9 is_stmt 1 view .LVU445
 210:lvgl/src/extra/widgets/dclock/lv_dclock.c ****         (*minute)++;
 1445              		.loc 1 210 18 is_stmt 0 view .LVU446
 1446 0018 0023     		movs	r3, #0
 1447 001a 1360     		str	r3, [r2]
 211:lvgl/src/extra/widgets/dclock/lv_dclock.c ****     }
 1448              		.loc 1 211 9 is_stmt 1 view .LVU447
 211:lvgl/src/extra/widgets/dclock/lv_dclock.c ****     }
 1449              		.loc 1 211 10 is_stmt 0 view .LVU448
 1450 001c 0B68     		ldr	r3, [r1]
 211:lvgl/src/extra/widgets/dclock/lv_dclock.c ****     }
 1451              		.loc 1 211 18 view .LVU449
 1452 001e 0133     		adds	r3, r3, #1
 1453 0020 0B60     		str	r3, [r1]
 1454 0022 F2E7     		b	.L79
 1455              	.L83:
 215:lvgl/src/extra/widgets/dclock/lv_dclock.c ****         (*hour)++;
 1456              		.loc 1 215 9 is_stmt 1 view .LVU450
 215:lvgl/src/extra/widgets/dclock/lv_dclock.c ****         (*hour)++;
 1457              		.loc 1 215 17 is_stmt 0 view .LVU451
 1458 0024 0023     		movs	r3, #0
 1459 0026 0B60     		str	r3, [r1]
 216:lvgl/src/extra/widgets/dclock/lv_dclock.c ****     }
 1460              		.loc 1 216 9 is_stmt 1 view .LVU452
 216:lvgl/src/extra/widgets/dclock/lv_dclock.c ****     }
 1461              		.loc 1 216 10 is_stmt 0 view .LVU453
 1462 0028 0368     		ldr	r3, [r0]
 216:lvgl/src/extra/widgets/dclock/lv_dclock.c ****     }
 1463              		.loc 1 216 16 view .LVU454
 1464 002a 0133     		adds	r3, r3, #1
 1465 002c 0360     		str	r3, [r0]
 1466 002e EFE7     		b	.L80
 1467              	.L84:
 220:lvgl/src/extra/widgets/dclock/lv_dclock.c ****     }
 1468              		.loc 1 220 9 is_stmt 1 view .LVU455
 220:lvgl/src/extra/widgets/dclock/lv_dclock.c ****     }
 1469              		.loc 1 220 15 is_stmt 0 view .LVU456
 1470 0030 0023     		movs	r3, #0
 1471 0032 0360     		str	r3, [r0]
 222:lvgl/src/extra/widgets/dclock/lv_dclock.c **** 
 1472              		.loc 1 222 1 view .LVU457
 1473 0034 EFE7     		b	.L78
 1474              		.cfi_endproc
 1475              	.LFE161:
 1477              		.section	.rodata.clock_count_12.str1.4,"aMS",%progbits,1
 1478              		.align	2
 1479              	.LC1:
 1480 0000 504D00   		.ascii	"PM\000"
ARM GAS  C:\usertemp\ccL9DfK7.s 			page 56


 1481 0003 00       		.align	2
 1482              	.LC2:
 1483 0004 414D00   		.ascii	"AM\000"
 1484              		.section	.text.clock_count_12,"ax",%progbits
 1485              		.align	1
 1486              		.global	clock_count_12
 1487              		.syntax unified
 1488              		.thumb
 1489              		.thumb_func
 1491              	clock_count_12:
 1492              	.LVL141:
 1493              	.LFB162:
 230:lvgl/src/extra/widgets/dclock/lv_dclock.c **** 
 1494              		.loc 1 230 1 is_stmt 1 view -0
 1495              		.cfi_startproc
 1496              		@ args = 0, pretend = 0, frame = 0
 1497              		@ frame_needed = 0, uses_anonymous_args = 0
 230:lvgl/src/extra/widgets/dclock/lv_dclock.c **** 
 1498              		.loc 1 230 1 is_stmt 0 view .LVU459
 1499 0000 38B5     		push	{r3, r4, r5, lr}
 1500              	.LCFI24:
 1501              		.cfi_def_cfa_offset 16
 1502              		.cfi_offset 3, -16
 1503              		.cfi_offset 4, -12
 1504              		.cfi_offset 5, -8
 1505              		.cfi_offset 14, -4
 1506 0002 1D46     		mov	r5, r3
 232:lvgl/src/extra/widgets/dclock/lv_dclock.c ****     if(*seconds == 60) {
 1507              		.loc 1 232 5 is_stmt 1 view .LVU460
 232:lvgl/src/extra/widgets/dclock/lv_dclock.c ****     if(*seconds == 60) {
 1508              		.loc 1 232 6 is_stmt 0 view .LVU461
 1509 0004 1468     		ldr	r4, [r2]
 232:lvgl/src/extra/widgets/dclock/lv_dclock.c ****     if(*seconds == 60) {
 1510              		.loc 1 232 15 view .LVU462
 1511 0006 0134     		adds	r4, r4, #1
 1512 0008 1460     		str	r4, [r2]
 233:lvgl/src/extra/widgets/dclock/lv_dclock.c ****         *seconds = 0;
 1513              		.loc 1 233 5 is_stmt 1 view .LVU463
 233:lvgl/src/extra/widgets/dclock/lv_dclock.c ****         *seconds = 0;
 1514              		.loc 1 233 7 is_stmt 0 view .LVU464
 1515 000a 3C2C     		cmp	r4, #60
 1516 000c 06D0     		beq	.L92
 1517              	.LVL142:
 1518              	.L86:
 237:lvgl/src/extra/widgets/dclock/lv_dclock.c ****         *minute = 0;
 1519              		.loc 1 237 5 is_stmt 1 view .LVU465
 237:lvgl/src/extra/widgets/dclock/lv_dclock.c ****         *minute = 0;
 1520              		.loc 1 237 8 is_stmt 0 view .LVU466
 1521 000e 0B68     		ldr	r3, [r1]
 237:lvgl/src/extra/widgets/dclock/lv_dclock.c ****         *minute = 0;
 1522              		.loc 1 237 7 view .LVU467
 1523 0010 3C2B     		cmp	r3, #60
 1524 0012 09D0     		beq	.L93
 1525              	.L87:
 247:lvgl/src/extra/widgets/dclock/lv_dclock.c ****         if((strcmp(meridiem, "PM") == 0)) {
 1526              		.loc 1 247 5 is_stmt 1 view .LVU468
 247:lvgl/src/extra/widgets/dclock/lv_dclock.c ****         if((strcmp(meridiem, "PM") == 0)) {
ARM GAS  C:\usertemp\ccL9DfK7.s 			page 57


 1527              		.loc 1 247 8 is_stmt 0 view .LVU469
 1528 0014 0368     		ldr	r3, [r0]
 247:lvgl/src/extra/widgets/dclock/lv_dclock.c ****         if((strcmp(meridiem, "PM") == 0)) {
 1529              		.loc 1 247 7 view .LVU470
 1530 0016 0C2B     		cmp	r3, #12
 1531 0018 1CD0     		beq	.L94
 1532              	.LVL143:
 1533              	.L85:
 255:lvgl/src/extra/widgets/dclock/lv_dclock.c **** 
 1534              		.loc 1 255 1 view .LVU471
 1535 001a 38BD     		pop	{r3, r4, r5, pc}
 1536              	.LVL144:
 1537              	.L92:
 234:lvgl/src/extra/widgets/dclock/lv_dclock.c ****         (*minute)++;
 1538              		.loc 1 234 9 is_stmt 1 view .LVU472
 234:lvgl/src/extra/widgets/dclock/lv_dclock.c ****         (*minute)++;
 1539              		.loc 1 234 18 is_stmt 0 view .LVU473
 1540 001c 0023     		movs	r3, #0
 1541              	.LVL145:
 234:lvgl/src/extra/widgets/dclock/lv_dclock.c ****         (*minute)++;
 1542              		.loc 1 234 18 view .LVU474
 1543 001e 1360     		str	r3, [r2]
 235:lvgl/src/extra/widgets/dclock/lv_dclock.c ****     }
 1544              		.loc 1 235 9 is_stmt 1 view .LVU475
 235:lvgl/src/extra/widgets/dclock/lv_dclock.c ****     }
 1545              		.loc 1 235 10 is_stmt 0 view .LVU476
 1546 0020 0B68     		ldr	r3, [r1]
 235:lvgl/src/extra/widgets/dclock/lv_dclock.c ****     }
 1547              		.loc 1 235 18 view .LVU477
 1548 0022 0133     		adds	r3, r3, #1
 1549 0024 0B60     		str	r3, [r1]
 1550 0026 F2E7     		b	.L86
 1551              	.L93:
 238:lvgl/src/extra/widgets/dclock/lv_dclock.c ****         if(*hour < 12) {
 1552              		.loc 1 238 9 is_stmt 1 view .LVU478
 238:lvgl/src/extra/widgets/dclock/lv_dclock.c ****         if(*hour < 12) {
 1553              		.loc 1 238 17 is_stmt 0 view .LVU479
 1554 0028 0023     		movs	r3, #0
 1555 002a 0B60     		str	r3, [r1]
 239:lvgl/src/extra/widgets/dclock/lv_dclock.c ****             (*hour)++;
 1556              		.loc 1 239 9 is_stmt 1 view .LVU480
 239:lvgl/src/extra/widgets/dclock/lv_dclock.c ****             (*hour)++;
 1557              		.loc 1 239 12 is_stmt 0 view .LVU481
 1558 002c 0368     		ldr	r3, [r0]
 239:lvgl/src/extra/widgets/dclock/lv_dclock.c ****             (*hour)++;
 1559              		.loc 1 239 11 view .LVU482
 1560 002e 0B2B     		cmp	r3, #11
 1561 0030 02DC     		bgt	.L88
 240:lvgl/src/extra/widgets/dclock/lv_dclock.c ****         }
 1562              		.loc 1 240 13 is_stmt 1 view .LVU483
 240:lvgl/src/extra/widgets/dclock/lv_dclock.c ****         }
 1563              		.loc 1 240 20 is_stmt 0 view .LVU484
 1564 0032 0133     		adds	r3, r3, #1
 1565 0034 0360     		str	r3, [r0]
 1566 0036 EDE7     		b	.L87
 1567              	.L88:
 243:lvgl/src/extra/widgets/dclock/lv_dclock.c ****             (*hour) = (*hour) % 12;
ARM GAS  C:\usertemp\ccL9DfK7.s 			page 58


 1568              		.loc 1 243 13 is_stmt 1 view .LVU485
 243:lvgl/src/extra/widgets/dclock/lv_dclock.c ****             (*hour) = (*hour) % 12;
 1569              		.loc 1 243 20 is_stmt 0 view .LVU486
 1570 0038 0133     		adds	r3, r3, #1
 1571 003a 0360     		str	r3, [r0]
 244:lvgl/src/extra/widgets/dclock/lv_dclock.c ****         }
 1572              		.loc 1 244 13 is_stmt 1 view .LVU487
 244:lvgl/src/extra/widgets/dclock/lv_dclock.c ****         }
 1573              		.loc 1 244 31 is_stmt 0 view .LVU488
 1574 003c 114C     		ldr	r4, .L95
 1575 003e 84FB034C 		smull	r4, ip, r4, r3
 1576 0042 DC17     		asrs	r4, r3, #31
 1577 0044 C4EB6C04 		rsb	r4, r4, ip, asr #1
 1578 0048 04EB4404 		add	r4, r4, r4, lsl #1
 1579 004c A3EB8404 		sub	r4, r3, r4, lsl #2
 244:lvgl/src/extra/widgets/dclock/lv_dclock.c ****         }
 1580              		.loc 1 244 21 view .LVU489
 1581 0050 0460     		str	r4, [r0]
 1582 0052 DFE7     		b	.L87
 1583              	.L94:
 247:lvgl/src/extra/widgets/dclock/lv_dclock.c ****         if((strcmp(meridiem, "PM") == 0)) {
 1584              		.loc 1 247 23 discriminator 1 view .LVU490
 1585 0054 1368     		ldr	r3, [r2]
 247:lvgl/src/extra/widgets/dclock/lv_dclock.c ****         if((strcmp(meridiem, "PM") == 0)) {
 1586              		.loc 1 247 20 discriminator 1 view .LVU491
 1587 0056 002B     		cmp	r3, #0
 1588 0058 DFD1     		bne	.L85
 247:lvgl/src/extra/widgets/dclock/lv_dclock.c ****         if((strcmp(meridiem, "PM") == 0)) {
 1589              		.loc 1 247 40 discriminator 2 view .LVU492
 1590 005a 0B68     		ldr	r3, [r1]
 247:lvgl/src/extra/widgets/dclock/lv_dclock.c ****         if((strcmp(meridiem, "PM") == 0)) {
 1591              		.loc 1 247 37 discriminator 2 view .LVU493
 1592 005c 002B     		cmp	r3, #0
 1593 005e DCD1     		bne	.L85
 248:lvgl/src/extra/widgets/dclock/lv_dclock.c ****             strcpy(meridiem, "AM");
 1594              		.loc 1 248 9 is_stmt 1 view .LVU494
 248:lvgl/src/extra/widgets/dclock/lv_dclock.c ****             strcpy(meridiem, "AM");
 1595              		.loc 1 248 13 is_stmt 0 view .LVU495
 1596 0060 0949     		ldr	r1, .L95+4
 1597              	.LVL146:
 248:lvgl/src/extra/widgets/dclock/lv_dclock.c ****             strcpy(meridiem, "AM");
 1598              		.loc 1 248 13 view .LVU496
 1599 0062 2846     		mov	r0, r5
 1600              	.LVL147:
 248:lvgl/src/extra/widgets/dclock/lv_dclock.c ****             strcpy(meridiem, "AM");
 1601              		.loc 1 248 13 view .LVU497
 1602 0064 FFF7FEFF 		bl	strcmp
 1603              	.LVL148:
 248:lvgl/src/extra/widgets/dclock/lv_dclock.c ****             strcpy(meridiem, "AM");
 1604              		.loc 1 248 11 discriminator 1 view .LVU498
 1605 0068 28B9     		cbnz	r0, .L90
 249:lvgl/src/extra/widgets/dclock/lv_dclock.c ****         }
 1606              		.loc 1 249 13 is_stmt 1 view .LVU499
 1607 006a 084B     		ldr	r3, .L95+8
 1608 006c 1A88     		ldrh	r2, [r3]	@ unaligned
 1609 006e 9B78     		ldrb	r3, [r3, #2]	@ zero_extendqisi2
 1610 0070 2A80     		strh	r2, [r5]	@ unaligned
ARM GAS  C:\usertemp\ccL9DfK7.s 			page 59


 1611 0072 AB70     		strb	r3, [r5, #2]
 1612 0074 D1E7     		b	.L85
 1613              	.L90:
 252:lvgl/src/extra/widgets/dclock/lv_dclock.c ****         }
 1614              		.loc 1 252 13 view .LVU500
 1615 0076 044B     		ldr	r3, .L95+4
 1616 0078 1A88     		ldrh	r2, [r3]	@ unaligned
 1617 007a 9B78     		ldrb	r3, [r3, #2]	@ zero_extendqisi2
 1618 007c 2A80     		strh	r2, [r5]	@ unaligned
 1619 007e AB70     		strb	r3, [r5, #2]
 255:lvgl/src/extra/widgets/dclock/lv_dclock.c **** 
 1620              		.loc 1 255 1 is_stmt 0 view .LVU501
 1621 0080 CBE7     		b	.L85
 1622              	.L96:
 1623 0082 00BF     		.align	2
 1624              	.L95:
 1625 0084 ABAAAA2A 		.word	715827883
 1626 0088 00000000 		.word	.LC1
 1627 008c 04000000 		.word	.LC2
 1628              		.cfi_endproc
 1629              	.LFE162:
 1631              		.global	lv_dclock_class
 1632              		.section	.rodata.lv_dclock_class,"a"
 1633              		.align	2
 1636              	lv_dclock_class:
 1637 0000 00000000 		.word	lv_obj_class
 1638 0004 00000000 		.word	lv_dclock_constructor
 1639 0008 00000000 		.word	lv_dclock_destructor
 1640 000c 00000000 		.space	4
 1641 0010 00000000 		.word	lv_dclock_event
 1642 0014 D127     		.short	10193
 1643 0016 D127     		.short	10193
 1644 0018 80       		.byte	128
 1645 0019 03       		.byte	3
 1646 001a 00       		.byte	0
 1647 001b 00       		.space	1
 1648              		.text
 1649              	.Letext0:
 1650              		.file 6 "D:/armtoolchain/arm-gnu-toolchain-13.3.rel1-mingw-w64-i686-arm-none-eabi/arm-none-eabi/in
 1651              		.file 7 "D:/armtoolchain/arm-gnu-toolchain-13.3.rel1-mingw-w64-i686-arm-none-eabi/arm-none-eabi/in
 1652              		.file 8 "D:/armtoolchain/arm-gnu-toolchain-13.3.rel1-mingw-w64-i686-arm-none-eabi/lib/gcc/arm-none
 1653              		.file 9 "D:/armtoolchain/arm-gnu-toolchain-13.3.rel1-mingw-w64-i686-arm-none-eabi/lib/gcc/arm-none
 1654              		.file 10 "D:/update_2024EL/changeform/743zit6/lvgl/src/misc/lv_types.h"
 1655              		.file 11 "D:/update_2024EL/changeform/743zit6/lvgl/src/misc/lv_color.h"
 1656              		.file 12 "D:/update_2024EL/changeform/743zit6/lvgl/src/misc/lv_txt.h"
 1657              		.file 13 "D:/update_2024EL/changeform/743zit6/lvgl/src/misc/lv_style.h"
 1658              		.file 14 "D:/update_2024EL/changeform/743zit6/lvgl/src/draw/lv_img_buf.h"
 1659              		.file 15 "lvgl/src/extra/widgets/dclock/../../../core/lv_obj.h"
 1660              		.file 16 "D:/update_2024EL/changeform/743zit6/lvgl/src/draw/lv_draw_rect.h"
 1661              		.file 17 "D:/update_2024EL/changeform/743zit6/lvgl/src/draw/lv_draw_label.h"
 1662              		.file 18 "D:/update_2024EL/changeform/743zit6/lvgl/src/draw/lv_draw_img.h"
 1663              		.file 19 "D:/update_2024EL/changeform/743zit6/lvgl/src/draw/lv_draw_line.h"
 1664              		.file 20 "D:/update_2024EL/changeform/743zit6/lvgl/src/draw/lv_draw_arc.h"
 1665              		.file 21 "D:/update_2024EL/changeform/743zit6/lvgl/src/draw/lv_draw.h"
 1666              		.file 22 "D:/update_2024EL/changeform/743zit6/lvgl/src/misc/lv_ll.h"
 1667              		.file 23 "lvgl/src/extra/widgets/dclock/../../../core/lv_group.h"
 1668              		.file 24 "lvgl/src/extra/widgets/dclock/../../../core/lv_obj_scroll.h"
ARM GAS  C:\usertemp\ccL9DfK7.s 			page 60


 1669              		.file 25 "lvgl/src/extra/widgets/dclock/../../../core/lv_obj_style.h"
 1670              		.file 26 "lvgl/src/extra/widgets/dclock/../../../core/lv_obj_class.h"
 1671              		.file 27 "lvgl/src/extra/widgets/dclock/../../../core/lv_event.h"
 1672              		.file 28 "lvgl/src/extra/widgets/dclock/lv_dclock.h"
 1673              		.file 29 "D:/armtoolchain/arm-gnu-toolchain-13.3.rel1-mingw-w64-i686-arm-none-eabi/arm-none-eabi/i
 1674              		.file 30 "D:/update_2024EL/changeform/743zit6/lvgl/src/misc/lv_mem.h"
 1675              		.file 31 "lvgl/src/extra/widgets/dclock/../../../core/lv_obj_draw.h"
 1676              		.file 32 "D:/update_2024EL/changeform/743zit6/lvgl/src/core/lv_obj_pos.h"
 1677              		.file 33 "<built-in>"
ARM GAS  C:\usertemp\ccL9DfK7.s 			page 61

