ARM GAS  C:\usertemp\ccCTlRWi.s 			page 1


   1              		.cpu cortex-m7
   2              		.arch armv7e-m
   3              		.fpu fpv5-d16
   4              		.eabi_attribute 28, 1
   5              		.eabi_attribute 20, 1
   6              		.eabi_attribute 21, 1
   7              		.eabi_attribute 23, 3
   8              		.eabi_attribute 24, 1
   9              		.eabi_attribute 25, 1
  10              		.eabi_attribute 26, 1
  11              		.eabi_attribute 30, 1
  12              		.eabi_attribute 34, 1
  13              		.eabi_attribute 18, 4
  14              		.file	"lv_hal_indev.c"
  15              		.text
  16              	.Ltext0:
  17              		.cfi_sections	.debug_frame
  18              		.file 1 "lvgl/src/hal/lv_hal_indev.c"
  19              		.section	.text.lv_indev_drv_init,"ax",%progbits
  20              		.align	1
  21              		.global	lv_indev_drv_init
  22              		.syntax unified
  23              		.thumb
  24              		.thumb_func
  26              	lv_indev_drv_init:
  27              	.LVL0:
  28              	.LFB156:
   1:lvgl/src/hal/lv_hal_indev.c **** /**
   2:lvgl/src/hal/lv_hal_indev.c ****  * @file lv_hal_indev.c
   3:lvgl/src/hal/lv_hal_indev.c ****  *
   4:lvgl/src/hal/lv_hal_indev.c ****  * @description Input device HAL interface
   5:lvgl/src/hal/lv_hal_indev.c ****  *
   6:lvgl/src/hal/lv_hal_indev.c ****  */
   7:lvgl/src/hal/lv_hal_indev.c **** 
   8:lvgl/src/hal/lv_hal_indev.c **** /*********************
   9:lvgl/src/hal/lv_hal_indev.c ****  *      INCLUDES
  10:lvgl/src/hal/lv_hal_indev.c ****  *********************/
  11:lvgl/src/hal/lv_hal_indev.c **** #include "../misc/lv_assert.h"
  12:lvgl/src/hal/lv_hal_indev.c **** #include "../hal/lv_hal_indev.h"
  13:lvgl/src/hal/lv_hal_indev.c **** #include "../core/lv_indev.h"
  14:lvgl/src/hal/lv_hal_indev.c **** #include "../misc/lv_mem.h"
  15:lvgl/src/hal/lv_hal_indev.c **** #include "../misc/lv_gc.h"
  16:lvgl/src/hal/lv_hal_indev.c **** #include "lv_hal_disp.h"
  17:lvgl/src/hal/lv_hal_indev.c **** 
  18:lvgl/src/hal/lv_hal_indev.c **** /*********************
  19:lvgl/src/hal/lv_hal_indev.c ****  *      DEFINES
  20:lvgl/src/hal/lv_hal_indev.c ****  *********************/
  21:lvgl/src/hal/lv_hal_indev.c **** 
  22:lvgl/src/hal/lv_hal_indev.c **** /**********************
  23:lvgl/src/hal/lv_hal_indev.c ****  *      TYPEDEFS
  24:lvgl/src/hal/lv_hal_indev.c ****  **********************/
  25:lvgl/src/hal/lv_hal_indev.c **** 
  26:lvgl/src/hal/lv_hal_indev.c **** /**********************
  27:lvgl/src/hal/lv_hal_indev.c ****  *  GLOBAL PROTOTYPES
  28:lvgl/src/hal/lv_hal_indev.c ****  **********************/
  29:lvgl/src/hal/lv_hal_indev.c **** 
  30:lvgl/src/hal/lv_hal_indev.c **** /**********************
ARM GAS  C:\usertemp\ccCTlRWi.s 			page 2


  31:lvgl/src/hal/lv_hal_indev.c ****  *  STATIC PROTOTYPES
  32:lvgl/src/hal/lv_hal_indev.c ****  **********************/
  33:lvgl/src/hal/lv_hal_indev.c **** 
  34:lvgl/src/hal/lv_hal_indev.c **** /**********************
  35:lvgl/src/hal/lv_hal_indev.c ****  *  STATIC VARIABLES
  36:lvgl/src/hal/lv_hal_indev.c ****  **********************/
  37:lvgl/src/hal/lv_hal_indev.c **** 
  38:lvgl/src/hal/lv_hal_indev.c **** /**********************
  39:lvgl/src/hal/lv_hal_indev.c ****  *      MACROS
  40:lvgl/src/hal/lv_hal_indev.c ****  **********************/
  41:lvgl/src/hal/lv_hal_indev.c **** #if LV_LOG_TRACE_INDEV
  42:lvgl/src/hal/lv_hal_indev.c ****     #define INDEV_TRACE(...) LV_LOG_TRACE(__VA_ARGS__)
  43:lvgl/src/hal/lv_hal_indev.c **** #else
  44:lvgl/src/hal/lv_hal_indev.c ****     #define INDEV_TRACE(...)
  45:lvgl/src/hal/lv_hal_indev.c **** #endif
  46:lvgl/src/hal/lv_hal_indev.c **** 
  47:lvgl/src/hal/lv_hal_indev.c **** /**********************
  48:lvgl/src/hal/lv_hal_indev.c ****  *   GLOBAL FUNCTIONS
  49:lvgl/src/hal/lv_hal_indev.c ****  **********************/
  50:lvgl/src/hal/lv_hal_indev.c **** 
  51:lvgl/src/hal/lv_hal_indev.c **** /**
  52:lvgl/src/hal/lv_hal_indev.c ****  * Initialize an input device driver with default values.
  53:lvgl/src/hal/lv_hal_indev.c ****  * It is used to surly have known values in the fields ant not memory junk.
  54:lvgl/src/hal/lv_hal_indev.c ****  * After it you can set the fields.
  55:lvgl/src/hal/lv_hal_indev.c ****  * @param driver pointer to driver variable to initialize
  56:lvgl/src/hal/lv_hal_indev.c ****  */
  57:lvgl/src/hal/lv_hal_indev.c **** void lv_indev_drv_init(lv_indev_drv_t * driver)
  58:lvgl/src/hal/lv_hal_indev.c **** {
  29              		.loc 1 58 1 view -0
  30              		.cfi_startproc
  31              		@ args = 0, pretend = 0, frame = 0
  32              		@ frame_needed = 0, uses_anonymous_args = 0
  33              		.loc 1 58 1 is_stmt 0 view .LVU1
  34 0000 10B5     		push	{r4, lr}
  35              	.LCFI0:
  36              		.cfi_def_cfa_offset 8
  37              		.cfi_offset 4, -8
  38              		.cfi_offset 14, -4
  39 0002 0446     		mov	r4, r0
  59:lvgl/src/hal/lv_hal_indev.c ****     lv_memset_00(driver, sizeof(lv_indev_drv_t));
  40              		.loc 1 59 5 is_stmt 1 view .LVU2
  41 0004 2021     		movs	r1, #32
  42 0006 FFF7FEFF 		bl	lv_memset_00
  43              	.LVL1:
  60:lvgl/src/hal/lv_hal_indev.c **** 
  61:lvgl/src/hal/lv_hal_indev.c ****     driver->type                 = LV_INDEV_TYPE_NONE;
  44              		.loc 1 61 5 view .LVU3
  45              		.loc 1 61 34 is_stmt 0 view .LVU4
  46 000a 0023     		movs	r3, #0
  47 000c 2370     		strb	r3, [r4]
  62:lvgl/src/hal/lv_hal_indev.c ****     driver->scroll_limit         = LV_INDEV_DEF_SCROLL_LIMIT;
  48              		.loc 1 62 5 is_stmt 1 view .LVU5
  49              		.loc 1 62 34 is_stmt 0 view .LVU6
  50 000e 0A23     		movs	r3, #10
  51 0010 2376     		strb	r3, [r4, #24]
  63:lvgl/src/hal/lv_hal_indev.c ****     driver->scroll_throw         = LV_INDEV_DEF_SCROLL_THROW;
  52              		.loc 1 63 5 is_stmt 1 view .LVU7
ARM GAS  C:\usertemp\ccCTlRWi.s 			page 3


  53              		.loc 1 63 34 is_stmt 0 view .LVU8
  54 0012 6376     		strb	r3, [r4, #25]
  64:lvgl/src/hal/lv_hal_indev.c ****     driver->long_press_time      = LV_INDEV_DEF_LONG_PRESS_TIME;
  55              		.loc 1 64 5 is_stmt 1 view .LVU9
  56              		.loc 1 64 34 is_stmt 0 view .LVU10
  57 0014 4FF4C873 		mov	r3, #400
  58 0018 A383     		strh	r3, [r4, #28]	@ movhi
  65:lvgl/src/hal/lv_hal_indev.c ****     driver->long_press_repeat_time  = LV_INDEV_DEF_LONG_PRESS_REP_TIME;
  59              		.loc 1 65 5 is_stmt 1 view .LVU11
  60              		.loc 1 65 37 is_stmt 0 view .LVU12
  61 001a 6423     		movs	r3, #100
  62 001c E383     		strh	r3, [r4, #30]	@ movhi
  66:lvgl/src/hal/lv_hal_indev.c ****     driver->gesture_limit        = LV_INDEV_DEF_GESTURE_LIMIT;
  63              		.loc 1 66 5 is_stmt 1 view .LVU13
  64              		.loc 1 66 34 is_stmt 0 view .LVU14
  65 001e 3223     		movs	r3, #50
  66 0020 E376     		strb	r3, [r4, #27]
  67:lvgl/src/hal/lv_hal_indev.c ****     driver->gesture_min_velocity = LV_INDEV_DEF_GESTURE_MIN_VELOCITY;
  67              		.loc 1 67 5 is_stmt 1 view .LVU15
  68              		.loc 1 67 34 is_stmt 0 view .LVU16
  69 0022 0323     		movs	r3, #3
  70 0024 A376     		strb	r3, [r4, #26]
  68:lvgl/src/hal/lv_hal_indev.c **** }
  71              		.loc 1 68 1 view .LVU17
  72 0026 10BD     		pop	{r4, pc}
  73              		.loc 1 68 1 view .LVU18
  74              		.cfi_endproc
  75              	.LFE156:
  77              		.section	.text.lv_indev_drv_register,"ax",%progbits
  78              		.align	1
  79              		.global	lv_indev_drv_register
  80              		.syntax unified
  81              		.thumb
  82              		.thumb_func
  84              	lv_indev_drv_register:
  85              	.LVL2:
  86              	.LFB157:
  69:lvgl/src/hal/lv_hal_indev.c **** 
  70:lvgl/src/hal/lv_hal_indev.c **** /**
  71:lvgl/src/hal/lv_hal_indev.c ****  * Register an initialized input device driver.
  72:lvgl/src/hal/lv_hal_indev.c ****  * @param driver pointer to an initialized 'lv_indev_drv_t' variable.
  73:lvgl/src/hal/lv_hal_indev.c ****  * Only pointer is saved, so the driver should be static or dynamically allocated.
  74:lvgl/src/hal/lv_hal_indev.c ****  * @return pointer to the new input device or NULL on error
  75:lvgl/src/hal/lv_hal_indev.c ****  */
  76:lvgl/src/hal/lv_hal_indev.c **** lv_indev_t * lv_indev_drv_register(lv_indev_drv_t * driver)
  77:lvgl/src/hal/lv_hal_indev.c **** {
  87              		.loc 1 77 1 is_stmt 1 view -0
  88              		.cfi_startproc
  89              		@ args = 0, pretend = 0, frame = 0
  90              		@ frame_needed = 0, uses_anonymous_args = 0
  91              		.loc 1 77 1 is_stmt 0 view .LVU20
  92 0000 38B5     		push	{r3, r4, r5, lr}
  93              	.LCFI1:
  94              		.cfi_def_cfa_offset 16
  95              		.cfi_offset 3, -16
  96              		.cfi_offset 4, -12
  97              		.cfi_offset 5, -8
ARM GAS  C:\usertemp\ccCTlRWi.s 			page 4


  98              		.cfi_offset 14, -4
  99 0002 0446     		mov	r4, r0
  78:lvgl/src/hal/lv_hal_indev.c **** 
  79:lvgl/src/hal/lv_hal_indev.c ****     if(driver->disp == NULL) driver->disp = lv_disp_get_default();
 100              		.loc 1 79 5 is_stmt 1 view .LVU21
 101              		.loc 1 79 14 is_stmt 0 view .LVU22
 102 0004 0369     		ldr	r3, [r0, #16]
 103              		.loc 1 79 7 view .LVU23
 104 0006 B3B1     		cbz	r3, .L9
 105              	.LVL3:
 106              	.L4:
  80:lvgl/src/hal/lv_hal_indev.c **** 
  81:lvgl/src/hal/lv_hal_indev.c ****     if(driver->disp == NULL) {
 107              		.loc 1 81 5 is_stmt 1 view .LVU24
 108              		.loc 1 81 14 is_stmt 0 view .LVU25
 109 0008 2569     		ldr	r5, [r4, #16]
 110              		.loc 1 81 7 view .LVU26
 111 000a 95B1     		cbz	r5, .L3
  82:lvgl/src/hal/lv_hal_indev.c ****         LV_LOG_WARN("lv_indev_drv_register: no display registered hence can't attach the indev to "
  83:lvgl/src/hal/lv_hal_indev.c ****                     "a display");
  84:lvgl/src/hal/lv_hal_indev.c ****         return NULL;
  85:lvgl/src/hal/lv_hal_indev.c ****     }
  86:lvgl/src/hal/lv_hal_indev.c **** 
  87:lvgl/src/hal/lv_hal_indev.c ****     lv_indev_t * indev = _lv_ll_ins_head(&LV_GC_ROOT(_lv_indev_ll));
 112              		.loc 1 87 5 is_stmt 1 view .LVU27
 113              		.loc 1 87 26 is_stmt 0 view .LVU28
 114 000c 0C48     		ldr	r0, .L10
 115 000e FFF7FEFF 		bl	_lv_ll_ins_head
 116              	.LVL4:
  88:lvgl/src/hal/lv_hal_indev.c ****     if(!indev) {
 117              		.loc 1 88 5 is_stmt 1 view .LVU29
 118              		.loc 1 88 7 is_stmt 0 view .LVU30
 119 0012 0546     		mov	r5, r0
 120 0014 98B1     		cbz	r0, .L7
  89:lvgl/src/hal/lv_hal_indev.c ****         LV_ASSERT_MALLOC(indev);
  90:lvgl/src/hal/lv_hal_indev.c ****         return NULL;
  91:lvgl/src/hal/lv_hal_indev.c ****     }
  92:lvgl/src/hal/lv_hal_indev.c **** 
  93:lvgl/src/hal/lv_hal_indev.c ****     lv_memset_00(indev, sizeof(lv_indev_t));
 121              		.loc 1 93 5 is_stmt 1 view .LVU31
 122 0016 5821     		movs	r1, #88
 123 0018 FFF7FEFF 		bl	lv_memset_00
 124              	.LVL5:
  94:lvgl/src/hal/lv_hal_indev.c ****     indev->driver = driver;
 125              		.loc 1 94 5 view .LVU32
 126              		.loc 1 94 19 is_stmt 0 view .LVU33
 127 001c 2C60     		str	r4, [r5]
  95:lvgl/src/hal/lv_hal_indev.c **** 
  96:lvgl/src/hal/lv_hal_indev.c ****     indev->proc.reset_query  = 1;
 128              		.loc 1 96 5 is_stmt 1 view .LVU34
 129              		.loc 1 96 30 is_stmt 0 view .LVU35
 130 001e 6B79     		ldrb	r3, [r5, #5]	@ zero_extendqisi2
 131 0020 43F00203 		orr	r3, r3, #2
 132 0024 6B71     		strb	r3, [r5, #5]
  97:lvgl/src/hal/lv_hal_indev.c ****     indev->driver->read_timer = lv_timer_create(lv_indev_read_timer_cb, LV_INDEV_DEF_READ_PERIOD, i
 133              		.loc 1 97 5 is_stmt 1 view .LVU36
 134              		.loc 1 97 33 is_stmt 0 view .LVU37
ARM GAS  C:\usertemp\ccCTlRWi.s 			page 5


 135 0026 2A46     		mov	r2, r5
 136 0028 1E21     		movs	r1, #30
 137 002a 0648     		ldr	r0, .L10+4
 138 002c FFF7FEFF 		bl	lv_timer_create
 139              	.LVL6:
 140              		.loc 1 97 31 discriminator 1 view .LVU38
 141 0030 6061     		str	r0, [r4, #20]
  98:lvgl/src/hal/lv_hal_indev.c **** 
  99:lvgl/src/hal/lv_hal_indev.c ****     return indev;
 142              		.loc 1 99 5 is_stmt 1 view .LVU39
 143              	.LVL7:
 144              	.L3:
 100:lvgl/src/hal/lv_hal_indev.c **** }
 145              		.loc 1 100 1 is_stmt 0 view .LVU40
 146 0032 2846     		mov	r0, r5
 147 0034 38BD     		pop	{r3, r4, r5, pc}
 148              	.LVL8:
 149              	.L9:
  79:lvgl/src/hal/lv_hal_indev.c **** 
 150              		.loc 1 79 30 is_stmt 1 discriminator 1 view .LVU41
  79:lvgl/src/hal/lv_hal_indev.c **** 
 151              		.loc 1 79 45 is_stmt 0 discriminator 1 view .LVU42
 152 0036 FFF7FEFF 		bl	lv_disp_get_default
 153              	.LVL9:
  79:lvgl/src/hal/lv_hal_indev.c **** 
 154              		.loc 1 79 43 discriminator 1 view .LVU43
 155 003a 2061     		str	r0, [r4, #16]
 156 003c E4E7     		b	.L4
 157              	.LVL10:
 158              	.L7:
  89:lvgl/src/hal/lv_hal_indev.c ****         return NULL;
 159              		.loc 1 89 9 is_stmt 1 discriminator 1 view .LVU44
  89:lvgl/src/hal/lv_hal_indev.c ****         return NULL;
 160              		.loc 1 89 9 discriminator 1 view .LVU45
  89:lvgl/src/hal/lv_hal_indev.c ****         return NULL;
 161              		.loc 1 89 9 discriminator 1 view .LVU46
  89:lvgl/src/hal/lv_hal_indev.c ****         return NULL;
 162              		.loc 1 89 9 discriminator 1 view .LVU47
  89:lvgl/src/hal/lv_hal_indev.c ****         return NULL;
 163              		.loc 1 89 9 discriminator 1 view .LVU48
 164 003e FEE7     		b	.L7
 165              	.L11:
 166              		.align	2
 167              	.L10:
 168 0040 00000000 		.word	_lv_indev_ll
 169 0044 00000000 		.word	lv_indev_read_timer_cb
 170              		.cfi_endproc
 171              	.LFE157:
 173              		.section	.text.lv_indev_drv_update,"ax",%progbits
 174              		.align	1
 175              		.global	lv_indev_drv_update
 176              		.syntax unified
 177              		.thumb
 178              		.thumb_func
 180              	lv_indev_drv_update:
 181              	.LVL11:
 182              	.LFB158:
ARM GAS  C:\usertemp\ccCTlRWi.s 			page 6


 101:lvgl/src/hal/lv_hal_indev.c **** 
 102:lvgl/src/hal/lv_hal_indev.c **** /**
 103:lvgl/src/hal/lv_hal_indev.c ****  * Update the driver in run time.
 104:lvgl/src/hal/lv_hal_indev.c ****  * @param indev pointer to a input device. (return value of `lv_indev_drv_register`)
 105:lvgl/src/hal/lv_hal_indev.c ****  * @param new_drv pointer to the new driver
 106:lvgl/src/hal/lv_hal_indev.c ****  */
 107:lvgl/src/hal/lv_hal_indev.c **** void lv_indev_drv_update(lv_indev_t * indev, lv_indev_drv_t * new_drv)
 108:lvgl/src/hal/lv_hal_indev.c **** {
 183              		.loc 1 108 1 view -0
 184              		.cfi_startproc
 185              		@ args = 0, pretend = 0, frame = 0
 186              		@ frame_needed = 0, uses_anonymous_args = 0
 109:lvgl/src/hal/lv_hal_indev.c ****     LV_ASSERT_NULL(indev);
 187              		.loc 1 109 5 view .LVU50
 188              		.loc 1 109 5 view .LVU51
 189 0000 C8B1     		cbz	r0, .L14
 108:lvgl/src/hal/lv_hal_indev.c ****     LV_ASSERT_NULL(indev);
 190              		.loc 1 108 1 is_stmt 0 view .LVU52
 191 0002 38B5     		push	{r3, r4, r5, lr}
 192              	.LCFI2:
 193              		.cfi_def_cfa_offset 16
 194              		.cfi_offset 3, -16
 195              		.cfi_offset 4, -12
 196              		.cfi_offset 5, -8
 197              		.cfi_offset 14, -4
 198 0004 0C46     		mov	r4, r1
 199 0006 0546     		mov	r5, r0
 200              		.loc 1 109 5 is_stmt 1 discriminator 2 view .LVU53
 201              		.loc 1 109 26 discriminator 2 view .LVU54
 110:lvgl/src/hal/lv_hal_indev.c ****     LV_ASSERT_NULL(indev->driver);
 202              		.loc 1 110 5 view .LVU55
 203              		.loc 1 110 5 view .LVU56
 204 0008 0368     		ldr	r3, [r0]
 205 000a ABB1     		cbz	r3, .L16
 206              		.loc 1 110 5 discriminator 2 view .LVU57
 207              		.loc 1 110 34 discriminator 2 view .LVU58
 111:lvgl/src/hal/lv_hal_indev.c ****     LV_ASSERT_NULL(indev->driver->read_timer);
 208              		.loc 1 111 5 view .LVU59
 209              		.loc 1 111 5 view .LVU60
 210 000c 5869     		ldr	r0, [r3, #20]
 211              	.LVL12:
 212              		.loc 1 111 5 is_stmt 0 view .LVU61
 213 000e A0B1     		cbz	r0, .L18
 214              		.loc 1 111 5 is_stmt 1 discriminator 2 view .LVU62
 215              		.loc 1 111 46 discriminator 2 view .LVU63
 112:lvgl/src/hal/lv_hal_indev.c ****     lv_timer_del(indev->driver->read_timer);
 216              		.loc 1 112 5 view .LVU64
 217 0010 FFF7FEFF 		bl	lv_timer_del
 218              	.LVL13:
 113:lvgl/src/hal/lv_hal_indev.c **** 
 114:lvgl/src/hal/lv_hal_indev.c ****     LV_ASSERT_NULL(new_drv);
 219              		.loc 1 114 5 view .LVU65
 220              		.loc 1 114 5 view .LVU66
 221 0014 94B1     		cbz	r4, .L20
 222              		.loc 1 114 5 discriminator 2 view .LVU67
 223              		.loc 1 114 28 discriminator 2 view .LVU68
 115:lvgl/src/hal/lv_hal_indev.c ****     if(new_drv->disp == NULL) {
ARM GAS  C:\usertemp\ccCTlRWi.s 			page 7


 224              		.loc 1 115 5 view .LVU69
 225              		.loc 1 115 15 is_stmt 0 view .LVU70
 226 0016 2369     		ldr	r3, [r4, #16]
 227              		.loc 1 115 7 view .LVU71
 228 0018 8BB1     		cbz	r3, .L26
 229              	.L21:
 116:lvgl/src/hal/lv_hal_indev.c ****         new_drv->disp = lv_disp_get_default();
 117:lvgl/src/hal/lv_hal_indev.c ****     }
 118:lvgl/src/hal/lv_hal_indev.c ****     if(new_drv->disp == NULL) {
 230              		.loc 1 118 5 is_stmt 1 view .LVU72
 231              		.loc 1 118 15 is_stmt 0 view .LVU73
 232 001a 2369     		ldr	r3, [r4, #16]
 233              		.loc 1 118 7 view .LVU74
 234 001c 9BB1     		cbz	r3, .L27
 119:lvgl/src/hal/lv_hal_indev.c ****         LV_LOG_WARN("lv_indev_drv_register: no display registered hence can't attach the indev to "
 120:lvgl/src/hal/lv_hal_indev.c ****                     "a display");
 121:lvgl/src/hal/lv_hal_indev.c ****         indev->proc.disabled = true;
 122:lvgl/src/hal/lv_hal_indev.c ****         return;
 123:lvgl/src/hal/lv_hal_indev.c ****     }
 124:lvgl/src/hal/lv_hal_indev.c **** 
 125:lvgl/src/hal/lv_hal_indev.c ****     indev->driver = new_drv;
 235              		.loc 1 125 5 is_stmt 1 view .LVU75
 236              		.loc 1 125 19 is_stmt 0 view .LVU76
 237 001e 2C60     		str	r4, [r5]
 126:lvgl/src/hal/lv_hal_indev.c ****     indev->driver->read_timer = lv_timer_create(lv_indev_read_timer_cb, LV_INDEV_DEF_READ_PERIOD, i
 238              		.loc 1 126 5 is_stmt 1 view .LVU77
 239              		.loc 1 126 33 is_stmt 0 view .LVU78
 240 0020 2A46     		mov	r2, r5
 241 0022 1E21     		movs	r1, #30
 242 0024 0A48     		ldr	r0, .L28
 243 0026 FFF7FEFF 		bl	lv_timer_create
 244              	.LVL14:
 245              		.loc 1 126 31 discriminator 1 view .LVU79
 246 002a 6061     		str	r0, [r4, #20]
 127:lvgl/src/hal/lv_hal_indev.c ****     indev->proc.reset_query   = 1;
 247              		.loc 1 127 5 is_stmt 1 view .LVU80
 248              		.loc 1 127 31 is_stmt 0 view .LVU81
 249 002c 6B79     		ldrb	r3, [r5, #5]	@ zero_extendqisi2
 250 002e 43F00203 		orr	r3, r3, #2
 251 0032 6B71     		strb	r3, [r5, #5]
 252              	.L12:
 128:lvgl/src/hal/lv_hal_indev.c **** }
 253              		.loc 1 128 1 view .LVU82
 254 0034 38BD     		pop	{r3, r4, r5, pc}
 255              	.LVL15:
 256              	.L14:
 257              	.LCFI3:
 258              		.cfi_def_cfa_offset 0
 259              		.cfi_restore 3
 260              		.cfi_restore 4
 261              		.cfi_restore 5
 262              		.cfi_restore 14
 109:lvgl/src/hal/lv_hal_indev.c ****     LV_ASSERT_NULL(indev->driver);
 263              		.loc 1 109 5 is_stmt 1 discriminator 1 view .LVU83
 109:lvgl/src/hal/lv_hal_indev.c ****     LV_ASSERT_NULL(indev->driver);
 264              		.loc 1 109 5 discriminator 1 view .LVU84
 109:lvgl/src/hal/lv_hal_indev.c ****     LV_ASSERT_NULL(indev->driver);
ARM GAS  C:\usertemp\ccCTlRWi.s 			page 8


 265              		.loc 1 109 5 discriminator 1 view .LVU85
 109:lvgl/src/hal/lv_hal_indev.c ****     LV_ASSERT_NULL(indev->driver);
 266              		.loc 1 109 5 discriminator 1 view .LVU86
 109:lvgl/src/hal/lv_hal_indev.c ****     LV_ASSERT_NULL(indev->driver);
 267              		.loc 1 109 5 discriminator 1 view .LVU87
 268 0036 FEE7     		b	.L14
 269              	.L16:
 270              	.LCFI4:
 271              		.cfi_def_cfa_offset 16
 272              		.cfi_offset 3, -16
 273              		.cfi_offset 4, -12
 274              		.cfi_offset 5, -8
 275              		.cfi_offset 14, -4
 110:lvgl/src/hal/lv_hal_indev.c ****     LV_ASSERT_NULL(indev->driver->read_timer);
 276              		.loc 1 110 5 discriminator 1 view .LVU88
 110:lvgl/src/hal/lv_hal_indev.c ****     LV_ASSERT_NULL(indev->driver->read_timer);
 277              		.loc 1 110 5 discriminator 1 view .LVU89
 110:lvgl/src/hal/lv_hal_indev.c ****     LV_ASSERT_NULL(indev->driver->read_timer);
 278              		.loc 1 110 5 discriminator 1 view .LVU90
 110:lvgl/src/hal/lv_hal_indev.c ****     LV_ASSERT_NULL(indev->driver->read_timer);
 279              		.loc 1 110 5 discriminator 1 view .LVU91
 110:lvgl/src/hal/lv_hal_indev.c ****     LV_ASSERT_NULL(indev->driver->read_timer);
 280              		.loc 1 110 5 discriminator 1 view .LVU92
 281 0038 FEE7     		b	.L16
 282              	.LVL16:
 283              	.L18:
 111:lvgl/src/hal/lv_hal_indev.c ****     lv_timer_del(indev->driver->read_timer);
 284              		.loc 1 111 5 discriminator 1 view .LVU93
 111:lvgl/src/hal/lv_hal_indev.c ****     lv_timer_del(indev->driver->read_timer);
 285              		.loc 1 111 5 discriminator 1 view .LVU94
 111:lvgl/src/hal/lv_hal_indev.c ****     lv_timer_del(indev->driver->read_timer);
 286              		.loc 1 111 5 discriminator 1 view .LVU95
 111:lvgl/src/hal/lv_hal_indev.c ****     lv_timer_del(indev->driver->read_timer);
 287              		.loc 1 111 5 discriminator 1 view .LVU96
 111:lvgl/src/hal/lv_hal_indev.c ****     lv_timer_del(indev->driver->read_timer);
 288              		.loc 1 111 5 discriminator 1 view .LVU97
 289 003a FEE7     		b	.L18
 290              	.LVL17:
 291              	.L20:
 114:lvgl/src/hal/lv_hal_indev.c ****     if(new_drv->disp == NULL) {
 292              		.loc 1 114 5 discriminator 1 view .LVU98
 114:lvgl/src/hal/lv_hal_indev.c ****     if(new_drv->disp == NULL) {
 293              		.loc 1 114 5 discriminator 1 view .LVU99
 114:lvgl/src/hal/lv_hal_indev.c ****     if(new_drv->disp == NULL) {
 294              		.loc 1 114 5 discriminator 1 view .LVU100
 114:lvgl/src/hal/lv_hal_indev.c ****     if(new_drv->disp == NULL) {
 295              		.loc 1 114 5 discriminator 1 view .LVU101
 114:lvgl/src/hal/lv_hal_indev.c ****     if(new_drv->disp == NULL) {
 296              		.loc 1 114 5 discriminator 1 view .LVU102
 297 003c FEE7     		b	.L20
 298              	.L26:
 116:lvgl/src/hal/lv_hal_indev.c ****     }
 299              		.loc 1 116 9 view .LVU103
 116:lvgl/src/hal/lv_hal_indev.c ****     }
 300              		.loc 1 116 25 is_stmt 0 view .LVU104
 301 003e FFF7FEFF 		bl	lv_disp_get_default
 302              	.LVL18:
ARM GAS  C:\usertemp\ccCTlRWi.s 			page 9


 116:lvgl/src/hal/lv_hal_indev.c ****     }
 303              		.loc 1 116 23 discriminator 1 view .LVU105
 304 0042 2061     		str	r0, [r4, #16]
 305 0044 E9E7     		b	.L21
 306              	.L27:
 119:lvgl/src/hal/lv_hal_indev.c ****                     "a display");
 307              		.loc 1 119 9 is_stmt 1 view .LVU106
 119:lvgl/src/hal/lv_hal_indev.c ****                     "a display");
 308              		.loc 1 119 9 view .LVU107
 119:lvgl/src/hal/lv_hal_indev.c ****                     "a display");
 309              		.loc 1 119 9 view .LVU108
 121:lvgl/src/hal/lv_hal_indev.c ****         return;
 310              		.loc 1 121 9 view .LVU109
 121:lvgl/src/hal/lv_hal_indev.c ****         return;
 311              		.loc 1 121 30 is_stmt 0 view .LVU110
 312 0046 6B79     		ldrb	r3, [r5, #5]	@ zero_extendqisi2
 313 0048 43F00403 		orr	r3, r3, #4
 314 004c 6B71     		strb	r3, [r5, #5]
 122:lvgl/src/hal/lv_hal_indev.c ****     }
 315              		.loc 1 122 9 is_stmt 1 view .LVU111
 316 004e F1E7     		b	.L12
 317              	.L29:
 318              		.align	2
 319              	.L28:
 320 0050 00000000 		.word	lv_indev_read_timer_cb
 321              		.cfi_endproc
 322              	.LFE158:
 324              		.section	.text.lv_indev_delete,"ax",%progbits
 325              		.align	1
 326              		.global	lv_indev_delete
 327              		.syntax unified
 328              		.thumb
 329              		.thumb_func
 331              	lv_indev_delete:
 332              	.LVL19:
 333              	.LFB159:
 129:lvgl/src/hal/lv_hal_indev.c **** 
 130:lvgl/src/hal/lv_hal_indev.c **** /**
 131:lvgl/src/hal/lv_hal_indev.c **** * Remove the provided input device. Make sure not to use the provided input device afterwards anymo
 132:lvgl/src/hal/lv_hal_indev.c **** * @param indev pointer to delete
 133:lvgl/src/hal/lv_hal_indev.c **** */
 134:lvgl/src/hal/lv_hal_indev.c **** void lv_indev_delete(lv_indev_t * indev)
 135:lvgl/src/hal/lv_hal_indev.c **** {
 334              		.loc 1 135 1 view -0
 335              		.cfi_startproc
 336              		@ args = 0, pretend = 0, frame = 0
 337              		@ frame_needed = 0, uses_anonymous_args = 0
 136:lvgl/src/hal/lv_hal_indev.c ****     LV_ASSERT_NULL(indev);
 338              		.loc 1 136 5 view .LVU113
 339              		.loc 1 136 5 view .LVU114
 340 0000 78B1     		cbz	r0, .L32
 135:lvgl/src/hal/lv_hal_indev.c ****     LV_ASSERT_NULL(indev);
 341              		.loc 1 135 1 is_stmt 0 view .LVU115
 342 0002 10B5     		push	{r4, lr}
 343              	.LCFI5:
 344              		.cfi_def_cfa_offset 8
 345              		.cfi_offset 4, -8
ARM GAS  C:\usertemp\ccCTlRWi.s 			page 10


 346              		.cfi_offset 14, -4
 347 0004 0446     		mov	r4, r0
 348              		.loc 1 136 5 is_stmt 1 discriminator 2 view .LVU116
 349              		.loc 1 136 26 discriminator 2 view .LVU117
 137:lvgl/src/hal/lv_hal_indev.c ****     LV_ASSERT_NULL(indev->driver);
 350              		.loc 1 137 5 view .LVU118
 351              		.loc 1 137 5 view .LVU119
 352 0006 0368     		ldr	r3, [r0]
 353 0008 63B1     		cbz	r3, .L34
 354              		.loc 1 137 5 discriminator 2 view .LVU120
 355              		.loc 1 137 34 discriminator 2 view .LVU121
 138:lvgl/src/hal/lv_hal_indev.c ****     LV_ASSERT_NULL(indev->driver->read_timer);
 356              		.loc 1 138 5 view .LVU122
 357              		.loc 1 138 5 view .LVU123
 358 000a 5869     		ldr	r0, [r3, #20]
 359              	.LVL20:
 360              		.loc 1 138 5 is_stmt 0 view .LVU124
 361 000c 58B1     		cbz	r0, .L36
 362              		.loc 1 138 5 is_stmt 1 discriminator 2 view .LVU125
 363              		.loc 1 138 46 discriminator 2 view .LVU126
 139:lvgl/src/hal/lv_hal_indev.c ****     /*Clean up the read timer first*/
 140:lvgl/src/hal/lv_hal_indev.c ****     lv_timer_del(indev->driver->read_timer);
 364              		.loc 1 140 5 view .LVU127
 365 000e FFF7FEFF 		bl	lv_timer_del
 366              	.LVL21:
 141:lvgl/src/hal/lv_hal_indev.c ****     /*Remove the input device from the list*/
 142:lvgl/src/hal/lv_hal_indev.c ****     _lv_ll_remove(&LV_GC_ROOT(_lv_indev_ll), indev);
 367              		.loc 1 142 5 view .LVU128
 368 0012 2146     		mov	r1, r4
 369 0014 0448     		ldr	r0, .L39
 370 0016 FFF7FEFF 		bl	_lv_ll_remove
 371              	.LVL22:
 143:lvgl/src/hal/lv_hal_indev.c ****     /*Free the memory of the input device*/
 144:lvgl/src/hal/lv_hal_indev.c ****     lv_mem_free(indev);
 372              		.loc 1 144 5 view .LVU129
 373 001a 2046     		mov	r0, r4
 374 001c FFF7FEFF 		bl	lv_mem_free
 375              	.LVL23:
 145:lvgl/src/hal/lv_hal_indev.c **** }
 376              		.loc 1 145 1 is_stmt 0 view .LVU130
 377 0020 10BD     		pop	{r4, pc}
 378              	.LVL24:
 379              	.L32:
 380              	.LCFI6:
 381              		.cfi_def_cfa_offset 0
 382              		.cfi_restore 4
 383              		.cfi_restore 14
 136:lvgl/src/hal/lv_hal_indev.c ****     LV_ASSERT_NULL(indev->driver);
 384              		.loc 1 136 5 is_stmt 1 discriminator 1 view .LVU131
 136:lvgl/src/hal/lv_hal_indev.c ****     LV_ASSERT_NULL(indev->driver);
 385              		.loc 1 136 5 discriminator 1 view .LVU132
 136:lvgl/src/hal/lv_hal_indev.c ****     LV_ASSERT_NULL(indev->driver);
 386              		.loc 1 136 5 discriminator 1 view .LVU133
 136:lvgl/src/hal/lv_hal_indev.c ****     LV_ASSERT_NULL(indev->driver);
 387              		.loc 1 136 5 discriminator 1 view .LVU134
 136:lvgl/src/hal/lv_hal_indev.c ****     LV_ASSERT_NULL(indev->driver);
 388              		.loc 1 136 5 discriminator 1 view .LVU135
ARM GAS  C:\usertemp\ccCTlRWi.s 			page 11


 389 0022 FEE7     		b	.L32
 390              	.L34:
 391              	.LCFI7:
 392              		.cfi_def_cfa_offset 8
 393              		.cfi_offset 4, -8
 394              		.cfi_offset 14, -4
 137:lvgl/src/hal/lv_hal_indev.c ****     LV_ASSERT_NULL(indev->driver->read_timer);
 395              		.loc 1 137 5 discriminator 1 view .LVU136
 137:lvgl/src/hal/lv_hal_indev.c ****     LV_ASSERT_NULL(indev->driver->read_timer);
 396              		.loc 1 137 5 discriminator 1 view .LVU137
 137:lvgl/src/hal/lv_hal_indev.c ****     LV_ASSERT_NULL(indev->driver->read_timer);
 397              		.loc 1 137 5 discriminator 1 view .LVU138
 137:lvgl/src/hal/lv_hal_indev.c ****     LV_ASSERT_NULL(indev->driver->read_timer);
 398              		.loc 1 137 5 discriminator 1 view .LVU139
 137:lvgl/src/hal/lv_hal_indev.c ****     LV_ASSERT_NULL(indev->driver->read_timer);
 399              		.loc 1 137 5 discriminator 1 view .LVU140
 400 0024 FEE7     		b	.L34
 401              	.LVL25:
 402              	.L36:
 138:lvgl/src/hal/lv_hal_indev.c ****     /*Clean up the read timer first*/
 403              		.loc 1 138 5 discriminator 1 view .LVU141
 138:lvgl/src/hal/lv_hal_indev.c ****     /*Clean up the read timer first*/
 404              		.loc 1 138 5 discriminator 1 view .LVU142
 138:lvgl/src/hal/lv_hal_indev.c ****     /*Clean up the read timer first*/
 405              		.loc 1 138 5 discriminator 1 view .LVU143
 138:lvgl/src/hal/lv_hal_indev.c ****     /*Clean up the read timer first*/
 406              		.loc 1 138 5 discriminator 1 view .LVU144
 138:lvgl/src/hal/lv_hal_indev.c ****     /*Clean up the read timer first*/
 407              		.loc 1 138 5 discriminator 1 view .LVU145
 408 0026 FEE7     		b	.L36
 409              	.L40:
 410              		.align	2
 411              	.L39:
 412 0028 00000000 		.word	_lv_indev_ll
 413              		.cfi_endproc
 414              	.LFE159:
 416              		.section	.text.lv_indev_get_next,"ax",%progbits
 417              		.align	1
 418              		.global	lv_indev_get_next
 419              		.syntax unified
 420              		.thumb
 421              		.thumb_func
 423              	lv_indev_get_next:
 424              	.LVL26:
 425              	.LFB160:
 146:lvgl/src/hal/lv_hal_indev.c **** 
 147:lvgl/src/hal/lv_hal_indev.c **** /**
 148:lvgl/src/hal/lv_hal_indev.c ****  * Get the next input device.
 149:lvgl/src/hal/lv_hal_indev.c ****  * @param indev pointer to the current input device. NULL to initialize.
 150:lvgl/src/hal/lv_hal_indev.c ****  * @return the next input devise or NULL if no more. Give the first input device when the parameter
 151:lvgl/src/hal/lv_hal_indev.c ****  * is NULL
 152:lvgl/src/hal/lv_hal_indev.c ****  */
 153:lvgl/src/hal/lv_hal_indev.c **** lv_indev_t * lv_indev_get_next(lv_indev_t * indev)
 154:lvgl/src/hal/lv_hal_indev.c **** {
 426              		.loc 1 154 1 view -0
 427              		.cfi_startproc
 428              		@ args = 0, pretend = 0, frame = 0
ARM GAS  C:\usertemp\ccCTlRWi.s 			page 12


 429              		@ frame_needed = 0, uses_anonymous_args = 0
 430              		.loc 1 154 1 is_stmt 0 view .LVU147
 431 0000 08B5     		push	{r3, lr}
 432              	.LCFI8:
 433              		.cfi_def_cfa_offset 8
 434              		.cfi_offset 3, -8
 435              		.cfi_offset 14, -4
 155:lvgl/src/hal/lv_hal_indev.c ****     if(indev == NULL)
 436              		.loc 1 155 5 is_stmt 1 view .LVU148
 437              		.loc 1 155 7 is_stmt 0 view .LVU149
 438 0002 20B1     		cbz	r0, .L45
 439 0004 0146     		mov	r1, r0
 156:lvgl/src/hal/lv_hal_indev.c ****         return _lv_ll_get_head(&LV_GC_ROOT(_lv_indev_ll));
 157:lvgl/src/hal/lv_hal_indev.c ****     else
 158:lvgl/src/hal/lv_hal_indev.c ****         return _lv_ll_get_next(&LV_GC_ROOT(_lv_indev_ll), indev);
 440              		.loc 1 158 9 is_stmt 1 view .LVU150
 441              		.loc 1 158 16 is_stmt 0 view .LVU151
 442 0006 0448     		ldr	r0, .L46
 443              	.LVL27:
 444              		.loc 1 158 16 view .LVU152
 445 0008 FFF7FEFF 		bl	_lv_ll_get_next
 446              	.LVL28:
 447              	.L41:
 159:lvgl/src/hal/lv_hal_indev.c **** }
 448              		.loc 1 159 1 view .LVU153
 449 000c 08BD     		pop	{r3, pc}
 450              	.LVL29:
 451              	.L45:
 156:lvgl/src/hal/lv_hal_indev.c ****         return _lv_ll_get_head(&LV_GC_ROOT(_lv_indev_ll));
 452              		.loc 1 156 9 is_stmt 1 view .LVU154
 156:lvgl/src/hal/lv_hal_indev.c ****         return _lv_ll_get_head(&LV_GC_ROOT(_lv_indev_ll));
 453              		.loc 1 156 16 is_stmt 0 view .LVU155
 454 000e 0248     		ldr	r0, .L46
 455              	.LVL30:
 156:lvgl/src/hal/lv_hal_indev.c ****         return _lv_ll_get_head(&LV_GC_ROOT(_lv_indev_ll));
 456              		.loc 1 156 16 view .LVU156
 457 0010 FFF7FEFF 		bl	_lv_ll_get_head
 458              	.LVL31:
 459 0014 FAE7     		b	.L41
 460              	.L47:
 461 0016 00BF     		.align	2
 462              	.L46:
 463 0018 00000000 		.word	_lv_indev_ll
 464              		.cfi_endproc
 465              	.LFE160:
 467              		.section	.text._lv_indev_read,"ax",%progbits
 468              		.align	1
 469              		.global	_lv_indev_read
 470              		.syntax unified
 471              		.thumb
 472              		.thumb_func
 474              	_lv_indev_read:
 475              	.LVL32:
 476              	.LFB161:
 160:lvgl/src/hal/lv_hal_indev.c **** 
 161:lvgl/src/hal/lv_hal_indev.c **** /**
 162:lvgl/src/hal/lv_hal_indev.c ****  * Read data from an input device.
ARM GAS  C:\usertemp\ccCTlRWi.s 			page 13


 163:lvgl/src/hal/lv_hal_indev.c ****  * @param indev pointer to an input device
 164:lvgl/src/hal/lv_hal_indev.c ****  * @param data input device will write its data here
 165:lvgl/src/hal/lv_hal_indev.c ****  */
 166:lvgl/src/hal/lv_hal_indev.c **** void _lv_indev_read(lv_indev_t * indev, lv_indev_data_t * data)
 167:lvgl/src/hal/lv_hal_indev.c **** {
 477              		.loc 1 167 1 is_stmt 1 view -0
 478              		.cfi_startproc
 479              		@ args = 0, pretend = 0, frame = 0
 480              		@ frame_needed = 0, uses_anonymous_args = 0
 481              		.loc 1 167 1 is_stmt 0 view .LVU158
 482 0000 38B5     		push	{r3, r4, r5, lr}
 483              	.LCFI9:
 484              		.cfi_def_cfa_offset 16
 485              		.cfi_offset 3, -16
 486              		.cfi_offset 4, -12
 487              		.cfi_offset 5, -8
 488              		.cfi_offset 14, -4
 489 0002 0446     		mov	r4, r0
 490 0004 0D46     		mov	r5, r1
 168:lvgl/src/hal/lv_hal_indev.c ****     lv_memset_00(data, sizeof(lv_indev_data_t));
 491              		.loc 1 168 5 is_stmt 1 view .LVU159
 492 0006 1021     		movs	r1, #16
 493              	.LVL33:
 494              		.loc 1 168 5 is_stmt 0 view .LVU160
 495 0008 2846     		mov	r0, r5
 496              	.LVL34:
 497              		.loc 1 168 5 view .LVU161
 498 000a FFF7FEFF 		bl	lv_memset_00
 499              	.LVL35:
 169:lvgl/src/hal/lv_hal_indev.c **** 
 170:lvgl/src/hal/lv_hal_indev.c ****     /* For touchpad sometimes users don't set the last pressed coordinate on release.
 171:lvgl/src/hal/lv_hal_indev.c ****      * So be sure a coordinates are initialized to the last point */
 172:lvgl/src/hal/lv_hal_indev.c ****     if(indev->driver->type == LV_INDEV_TYPE_POINTER) {
 500              		.loc 1 172 5 is_stmt 1 view .LVU162
 501              		.loc 1 172 13 is_stmt 0 view .LVU163
 502 000e 2368     		ldr	r3, [r4]
 503              		.loc 1 172 21 view .LVU164
 504 0010 1B78     		ldrb	r3, [r3]	@ zero_extendqisi2
 505              		.loc 1 172 7 view .LVU165
 506 0012 012B     		cmp	r3, #1
 507 0014 06D0     		beq	.L54
 173:lvgl/src/hal/lv_hal_indev.c ****         data->point.x = indev->proc.types.pointer.last_raw_point.x;
 174:lvgl/src/hal/lv_hal_indev.c ****         data->point.y = indev->proc.types.pointer.last_raw_point.y;
 175:lvgl/src/hal/lv_hal_indev.c ****     }
 176:lvgl/src/hal/lv_hal_indev.c ****     /*Similarly set at least the last key in case of the user doesn't set it on release*/
 177:lvgl/src/hal/lv_hal_indev.c ****     else if(indev->driver->type == LV_INDEV_TYPE_KEYPAD) {
 508              		.loc 1 177 10 is_stmt 1 view .LVU166
 509              		.loc 1 177 12 is_stmt 0 view .LVU167
 510 0016 022B     		cmp	r3, #2
 511 0018 10D0     		beq	.L55
 178:lvgl/src/hal/lv_hal_indev.c ****         data->key = indev->proc.types.keypad.last_key;
 179:lvgl/src/hal/lv_hal_indev.c ****     }
 180:lvgl/src/hal/lv_hal_indev.c ****     /*For compatibility assume that used button was enter (encoder push)*/
 181:lvgl/src/hal/lv_hal_indev.c ****     else if(indev->driver->type == LV_INDEV_TYPE_ENCODER) {
 512              		.loc 1 181 10 is_stmt 1 view .LVU168
 513              		.loc 1 181 12 is_stmt 0 view .LVU169
 514 001a 042B     		cmp	r3, #4
ARM GAS  C:\usertemp\ccCTlRWi.s 			page 14


 515 001c 08D1     		bne	.L50
 182:lvgl/src/hal/lv_hal_indev.c ****         data->key = LV_KEY_ENTER;
 516              		.loc 1 182 9 is_stmt 1 view .LVU170
 517              		.loc 1 182 19 is_stmt 0 view .LVU171
 518 001e 0A23     		movs	r3, #10
 519 0020 6B60     		str	r3, [r5, #4]
 520 0022 05E0     		b	.L50
 521              	.L54:
 173:lvgl/src/hal/lv_hal_indev.c ****         data->point.x = indev->proc.types.pointer.last_raw_point.x;
 522              		.loc 1 173 9 is_stmt 1 view .LVU172
 173:lvgl/src/hal/lv_hal_indev.c ****         data->point.x = indev->proc.types.pointer.last_raw_point.x;
 523              		.loc 1 173 65 is_stmt 0 view .LVU173
 524 0024 B4F91030 		ldrsh	r3, [r4, #16]
 173:lvgl/src/hal/lv_hal_indev.c ****         data->point.x = indev->proc.types.pointer.last_raw_point.x;
 525              		.loc 1 173 23 view .LVU174
 526 0028 2B80     		strh	r3, [r5]	@ movhi
 174:lvgl/src/hal/lv_hal_indev.c ****     }
 527              		.loc 1 174 9 is_stmt 1 view .LVU175
 174:lvgl/src/hal/lv_hal_indev.c ****     }
 528              		.loc 1 174 65 is_stmt 0 view .LVU176
 529 002a B4F91230 		ldrsh	r3, [r4, #18]
 174:lvgl/src/hal/lv_hal_indev.c ****     }
 530              		.loc 1 174 23 view .LVU177
 531 002e 6B80     		strh	r3, [r5, #2]	@ movhi
 532              	.L50:
 183:lvgl/src/hal/lv_hal_indev.c ****     }
 184:lvgl/src/hal/lv_hal_indev.c **** 
 185:lvgl/src/hal/lv_hal_indev.c ****     if(indev->driver->read_cb) {
 533              		.loc 1 185 5 is_stmt 1 view .LVU178
 534              		.loc 1 185 13 is_stmt 0 view .LVU179
 535 0030 2068     		ldr	r0, [r4]
 536              		.loc 1 185 21 view .LVU180
 537 0032 4368     		ldr	r3, [r0, #4]
 538              		.loc 1 185 7 view .LVU181
 539 0034 0BB1     		cbz	r3, .L48
 186:lvgl/src/hal/lv_hal_indev.c ****         INDEV_TRACE("calling indev_read_cb");
 540              		.loc 1 186 9 is_stmt 1 view .LVU182
 541              		.loc 1 186 9 view .LVU183
 542              		.loc 1 186 9 view .LVU184
 187:lvgl/src/hal/lv_hal_indev.c ****         indev->driver->read_cb(indev->driver, data);
 543              		.loc 1 187 9 view .LVU185
 544 0036 2946     		mov	r1, r5
 545 0038 9847     		blx	r3
 546              	.LVL36:
 188:lvgl/src/hal/lv_hal_indev.c ****     }
 189:lvgl/src/hal/lv_hal_indev.c ****     else {
 190:lvgl/src/hal/lv_hal_indev.c ****         LV_LOG_WARN("indev_read_cb is not registered");
 547              		.loc 1 190 9 view .LVU186
 548              		.loc 1 190 9 view .LVU187
 549              		.loc 1 190 9 view .LVU188
 550              	.L48:
 191:lvgl/src/hal/lv_hal_indev.c ****     }
 192:lvgl/src/hal/lv_hal_indev.c **** }
 551              		.loc 1 192 1 is_stmt 0 view .LVU189
 552 003a 38BD     		pop	{r3, r4, r5, pc}
 553              	.LVL37:
 554              	.L55:
ARM GAS  C:\usertemp\ccCTlRWi.s 			page 15


 178:lvgl/src/hal/lv_hal_indev.c ****     }
 555              		.loc 1 178 9 is_stmt 1 view .LVU190
 178:lvgl/src/hal/lv_hal_indev.c ****     }
 556              		.loc 1 178 45 is_stmt 0 view .LVU191
 557 003c E368     		ldr	r3, [r4, #12]
 178:lvgl/src/hal/lv_hal_indev.c ****     }
 558              		.loc 1 178 19 view .LVU192
 559 003e 6B60     		str	r3, [r5, #4]
 560 0040 F6E7     		b	.L50
 561              		.cfi_endproc
 562              	.LFE161:
 564              		.text
 565              	.Letext0:
 566              		.file 2 "D:/armtoolchain/arm-gnu-toolchain-13.3.rel1-mingw-w64-i686-arm-none-eabi/arm-none-eabi/in
 567              		.file 3 "D:/armtoolchain/arm-gnu-toolchain-13.3.rel1-mingw-w64-i686-arm-none-eabi/arm-none-eabi/in
 568              		.file 4 "lvgl/src/hal/../misc/lv_types.h"
 569              		.file 5 "D:/armtoolchain/arm-gnu-toolchain-13.3.rel1-mingw-w64-i686-arm-none-eabi/lib/gcc/arm-none
 570              		.file 6 "lvgl/src/hal/../hal/../misc/lv_area.h"
 571              		.file 7 "lvgl/src/hal/../hal/../misc/lv_timer.h"
 572              		.file 8 "lvgl/src/hal/../hal/lv_hal_indev.h"
 573              		.file 9 "lvgl/src/hal/../core/../hal/lv_hal_disp.h"
 574              		.file 10 "lvgl/src/hal/../core/lv_obj.h"
 575              		.file 11 "lvgl/src/hal/../core/lv_group.h"
 576              		.file 12 "lvgl/src/hal/../core/../misc/../font/lv_font.h"
 577              		.file 13 "lvgl/src/hal/../core/../misc/lv_color.h"
 578              		.file 14 "lvgl/src/hal/../core/../misc/lv_txt.h"
 579              		.file 15 "lvgl/src/hal/../core/../misc/lv_bidi.h"
 580              		.file 16 "lvgl/src/hal/../core/../misc/lv_style.h"
 581              		.file 17 "lvgl/src/hal/../core/../hal/../draw/lv_img_buf.h"
 582              		.file 18 "lvgl/src/hal/../core/../hal/../draw/lv_draw_rect.h"
 583              		.file 19 "lvgl/src/hal/../core/../hal/../draw/lv_draw_label.h"
 584              		.file 20 "lvgl/src/hal/../core/../hal/../draw/lv_draw_img.h"
 585              		.file 21 "lvgl/src/hal/../core/../hal/../draw/lv_draw_line.h"
 586              		.file 22 "lvgl/src/hal/../core/../hal/../draw/lv_draw_arc.h"
 587              		.file 23 "lvgl/src/hal/../core/../hal/../draw/lv_draw.h"
 588              		.file 24 "lvgl/src/hal/../core/../hal/../misc/lv_ll.h"
 589              		.file 25 "lvgl/src/hal/../core/lv_obj_scroll.h"
 590              		.file 26 "lvgl/src/hal/../core/lv_obj_style.h"
 591              		.file 27 "lvgl/src/hal/../core/lv_obj_class.h"
 592              		.file 28 "lvgl/src/hal/../core/lv_event.h"
 593              		.file 29 "lvgl/src/hal/../misc/lv_mem.h"
 594              		.file 30 "lvgl/src/hal/../core/lv_indev.h"
 595              		.file 31 "lvgl/src/hal/../misc/lv_gc.h"
ARM GAS  C:\usertemp\ccCTlRWi.s 			page 16

