ARM GAS  C:\usertemp\ccrOwx87.s 			page 1


   1              		.cpu cortex-m7
   2              		.arch armv7e-m
   3              		.fpu fpv5-d16
   4              		.eabi_attribute 28, 1
   5              		.eabi_attribute 20, 1
   6              		.eabi_attribute 21, 1
   7              		.eabi_attribute 23, 3
   8              		.eabi_attribute 24, 1
   9              		.eabi_attribute 25, 1
  10              		.eabi_attribute 26, 1
  11              		.eabi_attribute 30, 1
  12              		.eabi_attribute 34, 1
  13              		.eabi_attribute 18, 4
  14              		.file	"lv_img.c"
  15              		.text
  16              	.Ltext0:
  17              		.cfi_sections	.debug_frame
  18              		.file 1 "lvgl/src/widgets/lv_img.c"
  19              		.section	.text.lv_img_get_transformed_size,"ax",%progbits
  20              		.align	1
  21              		.syntax unified
  22              		.thumb
  23              		.thumb_func
  25              	lv_img_get_transformed_size:
  26              	.LVL0:
  27              	.LFB175:
   1:lvgl/src/widgets/lv_img.c **** /**
   2:lvgl/src/widgets/lv_img.c ****  * @file lv_img.c
   3:lvgl/src/widgets/lv_img.c ****  *
   4:lvgl/src/widgets/lv_img.c ****  */
   5:lvgl/src/widgets/lv_img.c **** 
   6:lvgl/src/widgets/lv_img.c **** /*********************
   7:lvgl/src/widgets/lv_img.c ****  *      INCLUDES
   8:lvgl/src/widgets/lv_img.c ****  *********************/
   9:lvgl/src/widgets/lv_img.c **** #include "lv_img.h"
  10:lvgl/src/widgets/lv_img.c **** #if LV_USE_IMG != 0
  11:lvgl/src/widgets/lv_img.c **** 
  12:lvgl/src/widgets/lv_img.c **** #include "../misc/lv_assert.h"
  13:lvgl/src/widgets/lv_img.c **** #include "../draw/lv_img_decoder.h"
  14:lvgl/src/widgets/lv_img.c **** #include "../misc/lv_fs.h"
  15:lvgl/src/widgets/lv_img.c **** #include "../misc/lv_txt.h"
  16:lvgl/src/widgets/lv_img.c **** #include "../misc/lv_math.h"
  17:lvgl/src/widgets/lv_img.c **** #include "../misc/lv_log.h"
  18:lvgl/src/widgets/lv_img.c **** 
  19:lvgl/src/widgets/lv_img.c **** /*********************
  20:lvgl/src/widgets/lv_img.c ****  *      DEFINES
  21:lvgl/src/widgets/lv_img.c ****  *********************/
  22:lvgl/src/widgets/lv_img.c **** #define MY_CLASS &lv_img_class
  23:lvgl/src/widgets/lv_img.c **** 
  24:lvgl/src/widgets/lv_img.c **** /**********************
  25:lvgl/src/widgets/lv_img.c ****  *      TYPEDEFS
  26:lvgl/src/widgets/lv_img.c ****  **********************/
  27:lvgl/src/widgets/lv_img.c **** 
  28:lvgl/src/widgets/lv_img.c **** /**********************
  29:lvgl/src/widgets/lv_img.c ****  *  STATIC PROTOTYPES
  30:lvgl/src/widgets/lv_img.c ****  **********************/
  31:lvgl/src/widgets/lv_img.c **** static void lv_img_constructor(const lv_obj_class_t * class_p, lv_obj_t * obj);
ARM GAS  C:\usertemp\ccrOwx87.s 			page 2


  32:lvgl/src/widgets/lv_img.c **** static void lv_img_destructor(const lv_obj_class_t * class_p, lv_obj_t * obj);
  33:lvgl/src/widgets/lv_img.c **** static void lv_img_event(const lv_obj_class_t * class_p, lv_event_t * e);
  34:lvgl/src/widgets/lv_img.c **** static void draw_img(lv_event_t * e);
  35:lvgl/src/widgets/lv_img.c **** 
  36:lvgl/src/widgets/lv_img.c **** /**********************
  37:lvgl/src/widgets/lv_img.c ****  *  STATIC VARIABLES
  38:lvgl/src/widgets/lv_img.c ****  **********************/
  39:lvgl/src/widgets/lv_img.c **** const lv_obj_class_t lv_img_class = {
  40:lvgl/src/widgets/lv_img.c ****     .constructor_cb = lv_img_constructor,
  41:lvgl/src/widgets/lv_img.c ****     .destructor_cb = lv_img_destructor,
  42:lvgl/src/widgets/lv_img.c ****     .event_cb = lv_img_event,
  43:lvgl/src/widgets/lv_img.c ****     .width_def = LV_SIZE_CONTENT,
  44:lvgl/src/widgets/lv_img.c ****     .height_def = LV_SIZE_CONTENT,
  45:lvgl/src/widgets/lv_img.c ****     .instance_size = sizeof(lv_img_t),
  46:lvgl/src/widgets/lv_img.c ****     .base_class = &lv_obj_class
  47:lvgl/src/widgets/lv_img.c **** };
  48:lvgl/src/widgets/lv_img.c **** 
  49:lvgl/src/widgets/lv_img.c **** /**********************
  50:lvgl/src/widgets/lv_img.c ****  *      MACROS
  51:lvgl/src/widgets/lv_img.c ****  **********************/
  52:lvgl/src/widgets/lv_img.c **** 
  53:lvgl/src/widgets/lv_img.c **** /**********************
  54:lvgl/src/widgets/lv_img.c ****  *   GLOBAL FUNCTIONS
  55:lvgl/src/widgets/lv_img.c ****  **********************/
  56:lvgl/src/widgets/lv_img.c **** 
  57:lvgl/src/widgets/lv_img.c **** lv_obj_t * lv_img_create(lv_obj_t * parent)
  58:lvgl/src/widgets/lv_img.c **** {
  59:lvgl/src/widgets/lv_img.c ****     LV_LOG_INFO("begin");
  60:lvgl/src/widgets/lv_img.c ****     lv_obj_t * obj = lv_obj_class_create_obj(MY_CLASS, parent);
  61:lvgl/src/widgets/lv_img.c ****     lv_obj_class_init_obj(obj);
  62:lvgl/src/widgets/lv_img.c ****     return obj;
  63:lvgl/src/widgets/lv_img.c **** }
  64:lvgl/src/widgets/lv_img.c **** 
  65:lvgl/src/widgets/lv_img.c **** /*=====================
  66:lvgl/src/widgets/lv_img.c ****  * Setter functions
  67:lvgl/src/widgets/lv_img.c ****  *====================*/
  68:lvgl/src/widgets/lv_img.c **** 
  69:lvgl/src/widgets/lv_img.c **** void lv_img_set_src(lv_obj_t * obj, const void * src)
  70:lvgl/src/widgets/lv_img.c **** {
  71:lvgl/src/widgets/lv_img.c ****     LV_ASSERT_OBJ(obj, MY_CLASS);
  72:lvgl/src/widgets/lv_img.c **** 
  73:lvgl/src/widgets/lv_img.c ****     lv_obj_invalidate(obj);
  74:lvgl/src/widgets/lv_img.c **** 
  75:lvgl/src/widgets/lv_img.c ****     lv_img_src_t src_type = lv_img_src_get_type(src);
  76:lvgl/src/widgets/lv_img.c ****     lv_img_t * img = (lv_img_t *)obj;
  77:lvgl/src/widgets/lv_img.c **** 
  78:lvgl/src/widgets/lv_img.c **** #if LV_USE_LOG && LV_LOG_LEVEL >= LV_LOG_LEVEL_INFO
  79:lvgl/src/widgets/lv_img.c ****     switch(src_type) {
  80:lvgl/src/widgets/lv_img.c ****         case LV_IMG_SRC_FILE:
  81:lvgl/src/widgets/lv_img.c ****             LV_LOG_TRACE("lv_img_set_src: `LV_IMG_SRC_FILE` type found");
  82:lvgl/src/widgets/lv_img.c ****             break;
  83:lvgl/src/widgets/lv_img.c ****         case LV_IMG_SRC_VARIABLE:
  84:lvgl/src/widgets/lv_img.c ****             LV_LOG_TRACE("lv_img_set_src: `LV_IMG_SRC_VARIABLE` type found");
  85:lvgl/src/widgets/lv_img.c ****             break;
  86:lvgl/src/widgets/lv_img.c ****         case LV_IMG_SRC_SYMBOL:
  87:lvgl/src/widgets/lv_img.c ****             LV_LOG_TRACE("lv_img_set_src: `LV_IMG_SRC_SYMBOL` type found");
  88:lvgl/src/widgets/lv_img.c ****             break;
ARM GAS  C:\usertemp\ccrOwx87.s 			page 3


  89:lvgl/src/widgets/lv_img.c ****         default:
  90:lvgl/src/widgets/lv_img.c ****             LV_LOG_WARN("lv_img_set_src: unknown type");
  91:lvgl/src/widgets/lv_img.c ****     }
  92:lvgl/src/widgets/lv_img.c **** #endif
  93:lvgl/src/widgets/lv_img.c **** 
  94:lvgl/src/widgets/lv_img.c ****     /*If the new source type is unknown free the memories of the old source*/
  95:lvgl/src/widgets/lv_img.c ****     if(src_type == LV_IMG_SRC_UNKNOWN) {
  96:lvgl/src/widgets/lv_img.c ****         LV_LOG_WARN("lv_img_set_src: unknown image type");
  97:lvgl/src/widgets/lv_img.c ****         if(img->src_type == LV_IMG_SRC_SYMBOL || img->src_type == LV_IMG_SRC_FILE) {
  98:lvgl/src/widgets/lv_img.c ****             lv_mem_free((void *)img->src);
  99:lvgl/src/widgets/lv_img.c ****         }
 100:lvgl/src/widgets/lv_img.c ****         img->src      = NULL;
 101:lvgl/src/widgets/lv_img.c ****         img->src_type = LV_IMG_SRC_UNKNOWN;
 102:lvgl/src/widgets/lv_img.c ****         return;
 103:lvgl/src/widgets/lv_img.c ****     }
 104:lvgl/src/widgets/lv_img.c **** 
 105:lvgl/src/widgets/lv_img.c ****     lv_img_header_t header;
 106:lvgl/src/widgets/lv_img.c ****     lv_img_decoder_get_info(src, &header);
 107:lvgl/src/widgets/lv_img.c **** 
 108:lvgl/src/widgets/lv_img.c ****     /*Save the source*/
 109:lvgl/src/widgets/lv_img.c ****     if(src_type == LV_IMG_SRC_VARIABLE) {
 110:lvgl/src/widgets/lv_img.c ****         /*If memory was allocated because of the previous `src_type` then free it*/
 111:lvgl/src/widgets/lv_img.c ****         if(img->src_type == LV_IMG_SRC_FILE || img->src_type == LV_IMG_SRC_SYMBOL) {
 112:lvgl/src/widgets/lv_img.c ****             lv_mem_free((void *)img->src);
 113:lvgl/src/widgets/lv_img.c ****         }
 114:lvgl/src/widgets/lv_img.c ****         img->src = src;
 115:lvgl/src/widgets/lv_img.c ****     }
 116:lvgl/src/widgets/lv_img.c ****     else if(src_type == LV_IMG_SRC_FILE || src_type == LV_IMG_SRC_SYMBOL) {
 117:lvgl/src/widgets/lv_img.c ****         /*If the new and the old src are the same then it was only a refresh.*/
 118:lvgl/src/widgets/lv_img.c ****         if(img->src != src) {
 119:lvgl/src/widgets/lv_img.c ****             const void * old_src = NULL;
 120:lvgl/src/widgets/lv_img.c ****             /*If memory was allocated because of the previous `src_type` then save its pointer and 
 121:lvgl/src/widgets/lv_img.c ****              *It's important to allocate first to be sure the new data will be on a new address.
 122:lvgl/src/widgets/lv_img.c ****              *Else `img_cache` wouldn't see the change in source.*/
 123:lvgl/src/widgets/lv_img.c ****             if(img->src_type == LV_IMG_SRC_FILE || img->src_type == LV_IMG_SRC_SYMBOL) {
 124:lvgl/src/widgets/lv_img.c ****                 old_src = img->src;
 125:lvgl/src/widgets/lv_img.c ****             }
 126:lvgl/src/widgets/lv_img.c ****             char * new_str = lv_mem_alloc(strlen(src) + 1);
 127:lvgl/src/widgets/lv_img.c ****             LV_ASSERT_MALLOC(new_str);
 128:lvgl/src/widgets/lv_img.c ****             if(new_str == NULL) return;
 129:lvgl/src/widgets/lv_img.c ****             strcpy(new_str, src);
 130:lvgl/src/widgets/lv_img.c ****             img->src = new_str;
 131:lvgl/src/widgets/lv_img.c **** 
 132:lvgl/src/widgets/lv_img.c ****             if(old_src) lv_mem_free((void *)old_src);
 133:lvgl/src/widgets/lv_img.c ****         }
 134:lvgl/src/widgets/lv_img.c ****     }
 135:lvgl/src/widgets/lv_img.c **** 
 136:lvgl/src/widgets/lv_img.c ****     if(src_type == LV_IMG_SRC_SYMBOL) {
 137:lvgl/src/widgets/lv_img.c ****         /*`lv_img_dsc_get_info` couldn't set the with and height of a font so set it here*/
 138:lvgl/src/widgets/lv_img.c ****         const lv_font_t * font = lv_obj_get_style_text_font(obj, LV_PART_MAIN);
 139:lvgl/src/widgets/lv_img.c ****         lv_coord_t letter_space = lv_obj_get_style_text_letter_space(obj, LV_PART_MAIN);
 140:lvgl/src/widgets/lv_img.c ****         lv_coord_t line_space = lv_obj_get_style_text_line_space(obj, LV_PART_MAIN);
 141:lvgl/src/widgets/lv_img.c ****         lv_point_t size;
 142:lvgl/src/widgets/lv_img.c ****         lv_txt_get_size(&size, src, font, letter_space, line_space, LV_COORD_MAX, LV_TEXT_FLAG_NONE
 143:lvgl/src/widgets/lv_img.c ****         header.w = size.x;
 144:lvgl/src/widgets/lv_img.c ****         header.h = size.y;
 145:lvgl/src/widgets/lv_img.c ****     }
ARM GAS  C:\usertemp\ccrOwx87.s 			page 4


 146:lvgl/src/widgets/lv_img.c **** 
 147:lvgl/src/widgets/lv_img.c ****     img->src_type = src_type;
 148:lvgl/src/widgets/lv_img.c ****     img->w        = header.w;
 149:lvgl/src/widgets/lv_img.c ****     img->h        = header.h;
 150:lvgl/src/widgets/lv_img.c ****     img->cf       = header.cf;
 151:lvgl/src/widgets/lv_img.c ****     img->pivot.x = header.w / 2;
 152:lvgl/src/widgets/lv_img.c ****     img->pivot.y = header.h / 2;
 153:lvgl/src/widgets/lv_img.c **** 
 154:lvgl/src/widgets/lv_img.c ****     lv_obj_refresh_self_size(obj);
 155:lvgl/src/widgets/lv_img.c **** 
 156:lvgl/src/widgets/lv_img.c ****     /*Provide enough room for the rotated corners*/
 157:lvgl/src/widgets/lv_img.c ****     if(img->angle || img->zoom != LV_IMG_ZOOM_NONE) lv_obj_refresh_ext_draw_size(obj);
 158:lvgl/src/widgets/lv_img.c **** 
 159:lvgl/src/widgets/lv_img.c ****     lv_obj_invalidate(obj);
 160:lvgl/src/widgets/lv_img.c **** }
 161:lvgl/src/widgets/lv_img.c **** 
 162:lvgl/src/widgets/lv_img.c **** void lv_img_set_offset_x(lv_obj_t * obj, lv_coord_t x)
 163:lvgl/src/widgets/lv_img.c **** {
 164:lvgl/src/widgets/lv_img.c ****     LV_ASSERT_OBJ(obj, MY_CLASS);
 165:lvgl/src/widgets/lv_img.c **** 
 166:lvgl/src/widgets/lv_img.c ****     lv_img_t * img = (lv_img_t *)obj;
 167:lvgl/src/widgets/lv_img.c **** 
 168:lvgl/src/widgets/lv_img.c ****     x = x % img->w;
 169:lvgl/src/widgets/lv_img.c **** 
 170:lvgl/src/widgets/lv_img.c ****     img->offset.x = x;
 171:lvgl/src/widgets/lv_img.c ****     lv_obj_invalidate(obj);
 172:lvgl/src/widgets/lv_img.c **** }
 173:lvgl/src/widgets/lv_img.c **** 
 174:lvgl/src/widgets/lv_img.c **** void lv_img_set_offset_y(lv_obj_t * obj, lv_coord_t y)
 175:lvgl/src/widgets/lv_img.c **** {
 176:lvgl/src/widgets/lv_img.c ****     LV_ASSERT_OBJ(obj, MY_CLASS);
 177:lvgl/src/widgets/lv_img.c **** 
 178:lvgl/src/widgets/lv_img.c ****     lv_img_t * img = (lv_img_t *)obj;
 179:lvgl/src/widgets/lv_img.c **** 
 180:lvgl/src/widgets/lv_img.c ****     y = y % img->h;
 181:lvgl/src/widgets/lv_img.c **** 
 182:lvgl/src/widgets/lv_img.c ****     img->offset.y = y;
 183:lvgl/src/widgets/lv_img.c ****     lv_obj_invalidate(obj);
 184:lvgl/src/widgets/lv_img.c **** }
 185:lvgl/src/widgets/lv_img.c **** 
 186:lvgl/src/widgets/lv_img.c **** void lv_img_set_angle(lv_obj_t * obj, int16_t angle)
 187:lvgl/src/widgets/lv_img.c **** {
 188:lvgl/src/widgets/lv_img.c ****     if(angle < 0 || angle >= 3600) angle = angle % 3600;
 189:lvgl/src/widgets/lv_img.c **** 
 190:lvgl/src/widgets/lv_img.c ****     lv_img_t * img = (lv_img_t *)obj;
 191:lvgl/src/widgets/lv_img.c ****     if(angle == img->angle) return;
 192:lvgl/src/widgets/lv_img.c **** 
 193:lvgl/src/widgets/lv_img.c ****     lv_coord_t transf_zoom = lv_obj_get_style_transform_zoom(obj, LV_PART_MAIN);
 194:lvgl/src/widgets/lv_img.c ****     transf_zoom = ((int32_t)transf_zoom * img->zoom) >> 8;
 195:lvgl/src/widgets/lv_img.c **** 
 196:lvgl/src/widgets/lv_img.c ****     lv_coord_t transf_angle = lv_obj_get_style_transform_angle(obj, LV_PART_MAIN);
 197:lvgl/src/widgets/lv_img.c **** 
 198:lvgl/src/widgets/lv_img.c ****     lv_obj_update_layout(obj);  /*Be sure the object's size is calculated*/
 199:lvgl/src/widgets/lv_img.c ****     lv_coord_t w = lv_obj_get_width(obj);
 200:lvgl/src/widgets/lv_img.c ****     lv_coord_t h = lv_obj_get_height(obj);
 201:lvgl/src/widgets/lv_img.c ****     lv_area_t a;
 202:lvgl/src/widgets/lv_img.c ****     _lv_img_buf_get_transformed_area(&a, w, h, transf_angle + img->angle, transf_zoom, &img->pivot)
ARM GAS  C:\usertemp\ccrOwx87.s 			page 5


 203:lvgl/src/widgets/lv_img.c ****     a.x1 += obj->coords.x1;
 204:lvgl/src/widgets/lv_img.c ****     a.y1 += obj->coords.y1;
 205:lvgl/src/widgets/lv_img.c ****     a.x2 += obj->coords.x1;
 206:lvgl/src/widgets/lv_img.c ****     a.y2 += obj->coords.y1;
 207:lvgl/src/widgets/lv_img.c ****     lv_obj_invalidate_area(obj, &a);
 208:lvgl/src/widgets/lv_img.c **** 
 209:lvgl/src/widgets/lv_img.c ****     img->angle = angle;
 210:lvgl/src/widgets/lv_img.c ****     lv_obj_refresh_ext_draw_size(obj);
 211:lvgl/src/widgets/lv_img.c **** 
 212:lvgl/src/widgets/lv_img.c ****     _lv_img_buf_get_transformed_area(&a, w, h, transf_angle + img->angle, transf_zoom, &img->pivot)
 213:lvgl/src/widgets/lv_img.c ****     a.x1 += obj->coords.x1;
 214:lvgl/src/widgets/lv_img.c ****     a.y1 += obj->coords.y1;
 215:lvgl/src/widgets/lv_img.c ****     a.x2 += obj->coords.x1;
 216:lvgl/src/widgets/lv_img.c ****     a.y2 += obj->coords.y1;
 217:lvgl/src/widgets/lv_img.c ****     lv_obj_invalidate_area(obj, &a);
 218:lvgl/src/widgets/lv_img.c **** }
 219:lvgl/src/widgets/lv_img.c **** 
 220:lvgl/src/widgets/lv_img.c **** void lv_img_set_pivot(lv_obj_t * obj, lv_coord_t x, lv_coord_t y)
 221:lvgl/src/widgets/lv_img.c **** {
 222:lvgl/src/widgets/lv_img.c ****     lv_img_t * img = (lv_img_t *)obj;
 223:lvgl/src/widgets/lv_img.c ****     if(img->pivot.x == x && img->pivot.y == y) return;
 224:lvgl/src/widgets/lv_img.c **** 
 225:lvgl/src/widgets/lv_img.c ****     lv_coord_t transf_zoom = lv_obj_get_style_transform_zoom(obj, LV_PART_MAIN);
 226:lvgl/src/widgets/lv_img.c ****     transf_zoom = ((int32_t)transf_zoom * img->zoom) >> 8;
 227:lvgl/src/widgets/lv_img.c **** 
 228:lvgl/src/widgets/lv_img.c ****     lv_coord_t transf_angle = lv_obj_get_style_transform_angle(obj, LV_PART_MAIN);
 229:lvgl/src/widgets/lv_img.c ****     transf_angle += img->angle;
 230:lvgl/src/widgets/lv_img.c **** 
 231:lvgl/src/widgets/lv_img.c ****     lv_obj_update_layout(obj);  /*Be sure the object's size is calculated*/
 232:lvgl/src/widgets/lv_img.c ****     lv_coord_t w = lv_obj_get_width(obj);
 233:lvgl/src/widgets/lv_img.c ****     lv_coord_t h = lv_obj_get_height(obj);
 234:lvgl/src/widgets/lv_img.c ****     lv_area_t a;
 235:lvgl/src/widgets/lv_img.c ****     _lv_img_buf_get_transformed_area(&a, w, h, transf_angle, transf_zoom, &img->pivot);
 236:lvgl/src/widgets/lv_img.c ****     a.x1 += obj->coords.x1;
 237:lvgl/src/widgets/lv_img.c ****     a.y1 += obj->coords.y1;
 238:lvgl/src/widgets/lv_img.c ****     a.x2 += obj->coords.x1;
 239:lvgl/src/widgets/lv_img.c ****     a.y2 += obj->coords.y1;
 240:lvgl/src/widgets/lv_img.c ****     lv_obj_invalidate_area(obj, &a);
 241:lvgl/src/widgets/lv_img.c **** 
 242:lvgl/src/widgets/lv_img.c ****     img->pivot.x = x;
 243:lvgl/src/widgets/lv_img.c ****     img->pivot.y = y;
 244:lvgl/src/widgets/lv_img.c ****     lv_obj_refresh_ext_draw_size(obj);
 245:lvgl/src/widgets/lv_img.c **** 
 246:lvgl/src/widgets/lv_img.c ****     _lv_img_buf_get_transformed_area(&a, w, h, transf_angle, transf_zoom, &img->pivot);
 247:lvgl/src/widgets/lv_img.c ****     a.x1 += obj->coords.x1;
 248:lvgl/src/widgets/lv_img.c ****     a.y1 += obj->coords.y1;
 249:lvgl/src/widgets/lv_img.c ****     a.x2 += obj->coords.x1;
 250:lvgl/src/widgets/lv_img.c ****     a.y2 += obj->coords.y1;
 251:lvgl/src/widgets/lv_img.c ****     lv_obj_invalidate_area(obj, &a);
 252:lvgl/src/widgets/lv_img.c **** }
 253:lvgl/src/widgets/lv_img.c **** 
 254:lvgl/src/widgets/lv_img.c **** void lv_img_set_zoom(lv_obj_t * obj, uint16_t zoom)
 255:lvgl/src/widgets/lv_img.c **** {
 256:lvgl/src/widgets/lv_img.c ****     lv_img_t * img = (lv_img_t *)obj;
 257:lvgl/src/widgets/lv_img.c ****     if(zoom == img->zoom) return;
 258:lvgl/src/widgets/lv_img.c **** 
 259:lvgl/src/widgets/lv_img.c ****     if(zoom == 0) zoom = 1;
ARM GAS  C:\usertemp\ccrOwx87.s 			page 6


 260:lvgl/src/widgets/lv_img.c **** 
 261:lvgl/src/widgets/lv_img.c ****     lv_coord_t transf_zoom = lv_obj_get_style_transform_zoom(obj, LV_PART_MAIN);
 262:lvgl/src/widgets/lv_img.c **** 
 263:lvgl/src/widgets/lv_img.c ****     lv_coord_t transf_angle = lv_obj_get_style_transform_angle(obj, LV_PART_MAIN);
 264:lvgl/src/widgets/lv_img.c ****     transf_angle += img->angle;
 265:lvgl/src/widgets/lv_img.c **** 
 266:lvgl/src/widgets/lv_img.c ****     lv_obj_update_layout(obj);  /*Be sure the object's size is calculated*/
 267:lvgl/src/widgets/lv_img.c ****     lv_coord_t w = lv_obj_get_width(obj);
 268:lvgl/src/widgets/lv_img.c ****     lv_coord_t h = lv_obj_get_height(obj);
 269:lvgl/src/widgets/lv_img.c ****     lv_area_t a;
 270:lvgl/src/widgets/lv_img.c ****     _lv_img_buf_get_transformed_area(&a, w, h, transf_angle, ((int32_t)transf_zoom * img->zoom) >> 
 271:lvgl/src/widgets/lv_img.c ****     a.x1 += obj->coords.x1 - 1;
 272:lvgl/src/widgets/lv_img.c ****     a.y1 += obj->coords.y1 - 1;
 273:lvgl/src/widgets/lv_img.c ****     a.x2 += obj->coords.x1 + 1;
 274:lvgl/src/widgets/lv_img.c ****     a.y2 += obj->coords.y1 + 1;
 275:lvgl/src/widgets/lv_img.c ****     lv_obj_invalidate_area(obj, &a);
 276:lvgl/src/widgets/lv_img.c **** 
 277:lvgl/src/widgets/lv_img.c ****     img->zoom = zoom;
 278:lvgl/src/widgets/lv_img.c ****     lv_obj_refresh_ext_draw_size(obj);
 279:lvgl/src/widgets/lv_img.c **** 
 280:lvgl/src/widgets/lv_img.c ****     _lv_img_buf_get_transformed_area(&a, w, h, transf_angle, ((int32_t)transf_zoom * img->zoom) >> 
 281:lvgl/src/widgets/lv_img.c ****     a.x1 += obj->coords.x1 - 1;
 282:lvgl/src/widgets/lv_img.c ****     a.y1 += obj->coords.y1 - 1;
 283:lvgl/src/widgets/lv_img.c ****     a.x2 += obj->coords.x1 + 1;
 284:lvgl/src/widgets/lv_img.c ****     a.y2 += obj->coords.y1 + 1;
 285:lvgl/src/widgets/lv_img.c ****     lv_obj_invalidate_area(obj, &a);
 286:lvgl/src/widgets/lv_img.c **** }
 287:lvgl/src/widgets/lv_img.c **** 
 288:lvgl/src/widgets/lv_img.c **** void lv_img_set_antialias(lv_obj_t * obj, bool antialias)
 289:lvgl/src/widgets/lv_img.c **** {
 290:lvgl/src/widgets/lv_img.c ****     lv_img_t * img = (lv_img_t *)obj;
 291:lvgl/src/widgets/lv_img.c ****     if(antialias == img->antialias) return;
 292:lvgl/src/widgets/lv_img.c **** 
 293:lvgl/src/widgets/lv_img.c ****     img->antialias = antialias;
 294:lvgl/src/widgets/lv_img.c ****     lv_obj_invalidate(obj);
 295:lvgl/src/widgets/lv_img.c **** }
 296:lvgl/src/widgets/lv_img.c **** 
 297:lvgl/src/widgets/lv_img.c **** void lv_img_set_size_mode(lv_obj_t * obj, lv_img_size_mode_t mode)
 298:lvgl/src/widgets/lv_img.c **** {
 299:lvgl/src/widgets/lv_img.c ****     LV_ASSERT_OBJ(obj, MY_CLASS);
 300:lvgl/src/widgets/lv_img.c ****     lv_img_t * img = (lv_img_t *)obj;
 301:lvgl/src/widgets/lv_img.c ****     if(mode == img->obj_size_mode) return;
 302:lvgl/src/widgets/lv_img.c **** 
 303:lvgl/src/widgets/lv_img.c ****     img->obj_size_mode = mode;
 304:lvgl/src/widgets/lv_img.c ****     lv_obj_invalidate(obj);
 305:lvgl/src/widgets/lv_img.c **** }
 306:lvgl/src/widgets/lv_img.c **** 
 307:lvgl/src/widgets/lv_img.c **** /*=====================
 308:lvgl/src/widgets/lv_img.c ****  * Getter functions
 309:lvgl/src/widgets/lv_img.c ****  *====================*/
 310:lvgl/src/widgets/lv_img.c **** 
 311:lvgl/src/widgets/lv_img.c **** const void * lv_img_get_src(lv_obj_t * obj)
 312:lvgl/src/widgets/lv_img.c **** {
 313:lvgl/src/widgets/lv_img.c ****     LV_ASSERT_OBJ(obj, MY_CLASS);
 314:lvgl/src/widgets/lv_img.c **** 
 315:lvgl/src/widgets/lv_img.c ****     lv_img_t * img = (lv_img_t *)obj;
 316:lvgl/src/widgets/lv_img.c **** 
ARM GAS  C:\usertemp\ccrOwx87.s 			page 7


 317:lvgl/src/widgets/lv_img.c ****     return img->src;
 318:lvgl/src/widgets/lv_img.c **** }
 319:lvgl/src/widgets/lv_img.c **** 
 320:lvgl/src/widgets/lv_img.c **** lv_coord_t lv_img_get_offset_x(lv_obj_t * obj)
 321:lvgl/src/widgets/lv_img.c **** {
 322:lvgl/src/widgets/lv_img.c ****     LV_ASSERT_OBJ(obj, MY_CLASS);
 323:lvgl/src/widgets/lv_img.c **** 
 324:lvgl/src/widgets/lv_img.c ****     lv_img_t * img = (lv_img_t *)obj;
 325:lvgl/src/widgets/lv_img.c **** 
 326:lvgl/src/widgets/lv_img.c ****     return img->offset.x;
 327:lvgl/src/widgets/lv_img.c **** }
 328:lvgl/src/widgets/lv_img.c **** 
 329:lvgl/src/widgets/lv_img.c **** lv_coord_t lv_img_get_offset_y(lv_obj_t * obj)
 330:lvgl/src/widgets/lv_img.c **** {
 331:lvgl/src/widgets/lv_img.c ****     LV_ASSERT_OBJ(obj, MY_CLASS);
 332:lvgl/src/widgets/lv_img.c **** 
 333:lvgl/src/widgets/lv_img.c ****     lv_img_t * img = (lv_img_t *)obj;
 334:lvgl/src/widgets/lv_img.c **** 
 335:lvgl/src/widgets/lv_img.c ****     return img->offset.y;
 336:lvgl/src/widgets/lv_img.c **** }
 337:lvgl/src/widgets/lv_img.c **** 
 338:lvgl/src/widgets/lv_img.c **** uint16_t lv_img_get_angle(lv_obj_t * obj)
 339:lvgl/src/widgets/lv_img.c **** {
 340:lvgl/src/widgets/lv_img.c ****     LV_ASSERT_OBJ(obj, MY_CLASS);
 341:lvgl/src/widgets/lv_img.c **** 
 342:lvgl/src/widgets/lv_img.c ****     lv_img_t * img = (lv_img_t *)obj;
 343:lvgl/src/widgets/lv_img.c **** 
 344:lvgl/src/widgets/lv_img.c ****     return img->angle;
 345:lvgl/src/widgets/lv_img.c **** }
 346:lvgl/src/widgets/lv_img.c **** 
 347:lvgl/src/widgets/lv_img.c **** void lv_img_get_pivot(lv_obj_t * obj, lv_point_t * pivot)
 348:lvgl/src/widgets/lv_img.c **** {
 349:lvgl/src/widgets/lv_img.c ****     LV_ASSERT_OBJ(obj, MY_CLASS);
 350:lvgl/src/widgets/lv_img.c **** 
 351:lvgl/src/widgets/lv_img.c ****     lv_img_t * img = (lv_img_t *)obj;
 352:lvgl/src/widgets/lv_img.c **** 
 353:lvgl/src/widgets/lv_img.c ****     *pivot = img->pivot;
 354:lvgl/src/widgets/lv_img.c **** }
 355:lvgl/src/widgets/lv_img.c **** 
 356:lvgl/src/widgets/lv_img.c **** uint16_t lv_img_get_zoom(lv_obj_t * obj)
 357:lvgl/src/widgets/lv_img.c **** {
 358:lvgl/src/widgets/lv_img.c ****     LV_ASSERT_OBJ(obj, MY_CLASS);
 359:lvgl/src/widgets/lv_img.c **** 
 360:lvgl/src/widgets/lv_img.c ****     lv_img_t * img = (lv_img_t *)obj;
 361:lvgl/src/widgets/lv_img.c **** 
 362:lvgl/src/widgets/lv_img.c ****     return img->zoom;
 363:lvgl/src/widgets/lv_img.c **** }
 364:lvgl/src/widgets/lv_img.c **** 
 365:lvgl/src/widgets/lv_img.c **** bool lv_img_get_antialias(lv_obj_t * obj)
 366:lvgl/src/widgets/lv_img.c **** {
 367:lvgl/src/widgets/lv_img.c ****     LV_ASSERT_OBJ(obj, MY_CLASS);
 368:lvgl/src/widgets/lv_img.c **** 
 369:lvgl/src/widgets/lv_img.c ****     lv_img_t * img = (lv_img_t *)obj;
 370:lvgl/src/widgets/lv_img.c **** 
 371:lvgl/src/widgets/lv_img.c ****     return img->antialias ? true : false;
 372:lvgl/src/widgets/lv_img.c **** }
 373:lvgl/src/widgets/lv_img.c **** 
ARM GAS  C:\usertemp\ccrOwx87.s 			page 8


 374:lvgl/src/widgets/lv_img.c **** lv_img_size_mode_t lv_img_get_size_mode(lv_obj_t * obj)
 375:lvgl/src/widgets/lv_img.c **** {
 376:lvgl/src/widgets/lv_img.c ****     LV_ASSERT_OBJ(obj, MY_CLASS);
 377:lvgl/src/widgets/lv_img.c ****     lv_img_t * img = (lv_img_t *)obj;
 378:lvgl/src/widgets/lv_img.c ****     return img->obj_size_mode;
 379:lvgl/src/widgets/lv_img.c **** }
 380:lvgl/src/widgets/lv_img.c **** 
 381:lvgl/src/widgets/lv_img.c **** /**********************
 382:lvgl/src/widgets/lv_img.c ****  *   STATIC FUNCTIONS
 383:lvgl/src/widgets/lv_img.c ****  **********************/
 384:lvgl/src/widgets/lv_img.c **** 
 385:lvgl/src/widgets/lv_img.c **** static void lv_img_constructor(const lv_obj_class_t * class_p, lv_obj_t * obj)
 386:lvgl/src/widgets/lv_img.c **** {
 387:lvgl/src/widgets/lv_img.c ****     LV_UNUSED(class_p);
 388:lvgl/src/widgets/lv_img.c ****     LV_TRACE_OBJ_CREATE("begin");
 389:lvgl/src/widgets/lv_img.c **** 
 390:lvgl/src/widgets/lv_img.c ****     lv_img_t * img = (lv_img_t *)obj;
 391:lvgl/src/widgets/lv_img.c **** 
 392:lvgl/src/widgets/lv_img.c ****     img->src       = NULL;
 393:lvgl/src/widgets/lv_img.c ****     img->src_type  = LV_IMG_SRC_UNKNOWN;
 394:lvgl/src/widgets/lv_img.c ****     img->cf        = LV_IMG_CF_UNKNOWN;
 395:lvgl/src/widgets/lv_img.c ****     img->w         = lv_obj_get_width(obj);
 396:lvgl/src/widgets/lv_img.c ****     img->h         = lv_obj_get_height(obj);
 397:lvgl/src/widgets/lv_img.c ****     img->angle = 0;
 398:lvgl/src/widgets/lv_img.c ****     img->zoom = LV_IMG_ZOOM_NONE;
 399:lvgl/src/widgets/lv_img.c ****     img->antialias = LV_COLOR_DEPTH > 8 ? 1 : 0;
 400:lvgl/src/widgets/lv_img.c ****     img->offset.x  = 0;
 401:lvgl/src/widgets/lv_img.c ****     img->offset.y  = 0;
 402:lvgl/src/widgets/lv_img.c ****     img->pivot.x = 0;
 403:lvgl/src/widgets/lv_img.c ****     img->pivot.y = 0;
 404:lvgl/src/widgets/lv_img.c ****     img->obj_size_mode = LV_IMG_SIZE_MODE_VIRTUAL;
 405:lvgl/src/widgets/lv_img.c **** 
 406:lvgl/src/widgets/lv_img.c ****     lv_obj_clear_flag(obj, LV_OBJ_FLAG_CLICKABLE);
 407:lvgl/src/widgets/lv_img.c ****     lv_obj_add_flag(obj, LV_OBJ_FLAG_ADV_HITTEST);
 408:lvgl/src/widgets/lv_img.c **** 
 409:lvgl/src/widgets/lv_img.c ****     LV_TRACE_OBJ_CREATE("finished");
 410:lvgl/src/widgets/lv_img.c **** }
 411:lvgl/src/widgets/lv_img.c **** 
 412:lvgl/src/widgets/lv_img.c **** static void lv_img_destructor(const lv_obj_class_t * class_p, lv_obj_t * obj)
 413:lvgl/src/widgets/lv_img.c **** {
 414:lvgl/src/widgets/lv_img.c ****     LV_UNUSED(class_p);
 415:lvgl/src/widgets/lv_img.c ****     lv_img_t * img = (lv_img_t *)obj;
 416:lvgl/src/widgets/lv_img.c ****     if(img->src_type == LV_IMG_SRC_FILE || img->src_type == LV_IMG_SRC_SYMBOL) {
 417:lvgl/src/widgets/lv_img.c ****         lv_mem_free((void *)img->src);
 418:lvgl/src/widgets/lv_img.c ****         img->src      = NULL;
 419:lvgl/src/widgets/lv_img.c ****         img->src_type = LV_IMG_SRC_UNKNOWN;
 420:lvgl/src/widgets/lv_img.c ****     }
 421:lvgl/src/widgets/lv_img.c **** }
 422:lvgl/src/widgets/lv_img.c **** 
 423:lvgl/src/widgets/lv_img.c **** static lv_point_t lv_img_get_transformed_size(lv_obj_t * obj)
 424:lvgl/src/widgets/lv_img.c **** {
  28              		.loc 1 424 1 view -0
  29              		.cfi_startproc
  30              		@ args = 0, pretend = 0, frame = 16
  31              		@ frame_needed = 0, uses_anonymous_args = 0
  32              		.loc 1 424 1 is_stmt 0 view .LVU1
  33 0000 30B5     		push	{r4, r5, lr}
ARM GAS  C:\usertemp\ccrOwx87.s 			page 9


  34              	.LCFI0:
  35              		.cfi_def_cfa_offset 12
  36              		.cfi_offset 4, -12
  37              		.cfi_offset 5, -8
  38              		.cfi_offset 14, -4
  39 0002 87B0     		sub	sp, sp, #28
  40              	.LCFI1:
  41              		.cfi_def_cfa_offset 40
  42 0004 0446     		mov	r4, r0
 425:lvgl/src/widgets/lv_img.c ****     lv_img_t * img = (lv_img_t *)obj;
  43              		.loc 1 425 5 is_stmt 1 view .LVU2
  44              	.LVL1:
 426:lvgl/src/widgets/lv_img.c **** 
 427:lvgl/src/widgets/lv_img.c ****     int32_t zoom_final = lv_obj_get_style_transform_zoom(obj, LV_PART_MAIN);
  45              		.loc 1 427 5 view .LVU3
  46              	.LBB83:
  47              	.LBI83:
  48              		.file 2 "lvgl/src/widgets/../core/lv_obj_style_gen.h"
   1:lvgl/src/widgets/../core/lv_obj_style_gen.h **** static inline lv_coord_t lv_obj_get_style_width(const struct _lv_obj_t * obj, uint32_t part)
   2:lvgl/src/widgets/../core/lv_obj_style_gen.h **** {
   3:lvgl/src/widgets/../core/lv_obj_style_gen.h ****     lv_style_value_t v = lv_obj_get_style_prop(obj, part, LV_STYLE_WIDTH);
   4:lvgl/src/widgets/../core/lv_obj_style_gen.h ****     return (lv_coord_t)v.num;
   5:lvgl/src/widgets/../core/lv_obj_style_gen.h **** }
   6:lvgl/src/widgets/../core/lv_obj_style_gen.h **** 
   7:lvgl/src/widgets/../core/lv_obj_style_gen.h **** static inline lv_coord_t lv_obj_get_style_min_width(const struct _lv_obj_t * obj, uint32_t part)
   8:lvgl/src/widgets/../core/lv_obj_style_gen.h **** {
   9:lvgl/src/widgets/../core/lv_obj_style_gen.h ****     lv_style_value_t v = lv_obj_get_style_prop(obj, part, LV_STYLE_MIN_WIDTH);
  10:lvgl/src/widgets/../core/lv_obj_style_gen.h ****     return (lv_coord_t)v.num;
  11:lvgl/src/widgets/../core/lv_obj_style_gen.h **** }
  12:lvgl/src/widgets/../core/lv_obj_style_gen.h **** 
  13:lvgl/src/widgets/../core/lv_obj_style_gen.h **** static inline lv_coord_t lv_obj_get_style_max_width(const struct _lv_obj_t * obj, uint32_t part)
  14:lvgl/src/widgets/../core/lv_obj_style_gen.h **** {
  15:lvgl/src/widgets/../core/lv_obj_style_gen.h ****     lv_style_value_t v = lv_obj_get_style_prop(obj, part, LV_STYLE_MAX_WIDTH);
  16:lvgl/src/widgets/../core/lv_obj_style_gen.h ****     return (lv_coord_t)v.num;
  17:lvgl/src/widgets/../core/lv_obj_style_gen.h **** }
  18:lvgl/src/widgets/../core/lv_obj_style_gen.h **** 
  19:lvgl/src/widgets/../core/lv_obj_style_gen.h **** static inline lv_coord_t lv_obj_get_style_height(const struct _lv_obj_t * obj, uint32_t part)
  20:lvgl/src/widgets/../core/lv_obj_style_gen.h **** {
  21:lvgl/src/widgets/../core/lv_obj_style_gen.h ****     lv_style_value_t v = lv_obj_get_style_prop(obj, part, LV_STYLE_HEIGHT);
  22:lvgl/src/widgets/../core/lv_obj_style_gen.h ****     return (lv_coord_t)v.num;
  23:lvgl/src/widgets/../core/lv_obj_style_gen.h **** }
  24:lvgl/src/widgets/../core/lv_obj_style_gen.h **** 
  25:lvgl/src/widgets/../core/lv_obj_style_gen.h **** static inline lv_coord_t lv_obj_get_style_min_height(const struct _lv_obj_t * obj, uint32_t part)
  26:lvgl/src/widgets/../core/lv_obj_style_gen.h **** {
  27:lvgl/src/widgets/../core/lv_obj_style_gen.h ****     lv_style_value_t v = lv_obj_get_style_prop(obj, part, LV_STYLE_MIN_HEIGHT);
  28:lvgl/src/widgets/../core/lv_obj_style_gen.h ****     return (lv_coord_t)v.num;
  29:lvgl/src/widgets/../core/lv_obj_style_gen.h **** }
  30:lvgl/src/widgets/../core/lv_obj_style_gen.h **** 
  31:lvgl/src/widgets/../core/lv_obj_style_gen.h **** static inline lv_coord_t lv_obj_get_style_max_height(const struct _lv_obj_t * obj, uint32_t part)
  32:lvgl/src/widgets/../core/lv_obj_style_gen.h **** {
  33:lvgl/src/widgets/../core/lv_obj_style_gen.h ****     lv_style_value_t v = lv_obj_get_style_prop(obj, part, LV_STYLE_MAX_HEIGHT);
  34:lvgl/src/widgets/../core/lv_obj_style_gen.h ****     return (lv_coord_t)v.num;
  35:lvgl/src/widgets/../core/lv_obj_style_gen.h **** }
  36:lvgl/src/widgets/../core/lv_obj_style_gen.h **** 
  37:lvgl/src/widgets/../core/lv_obj_style_gen.h **** static inline lv_coord_t lv_obj_get_style_x(const struct _lv_obj_t * obj, uint32_t part)
  38:lvgl/src/widgets/../core/lv_obj_style_gen.h **** {
  39:lvgl/src/widgets/../core/lv_obj_style_gen.h ****     lv_style_value_t v = lv_obj_get_style_prop(obj, part, LV_STYLE_X);
ARM GAS  C:\usertemp\ccrOwx87.s 			page 10


  40:lvgl/src/widgets/../core/lv_obj_style_gen.h ****     return (lv_coord_t)v.num;
  41:lvgl/src/widgets/../core/lv_obj_style_gen.h **** }
  42:lvgl/src/widgets/../core/lv_obj_style_gen.h **** 
  43:lvgl/src/widgets/../core/lv_obj_style_gen.h **** static inline lv_coord_t lv_obj_get_style_y(const struct _lv_obj_t * obj, uint32_t part)
  44:lvgl/src/widgets/../core/lv_obj_style_gen.h **** {
  45:lvgl/src/widgets/../core/lv_obj_style_gen.h ****     lv_style_value_t v = lv_obj_get_style_prop(obj, part, LV_STYLE_Y);
  46:lvgl/src/widgets/../core/lv_obj_style_gen.h ****     return (lv_coord_t)v.num;
  47:lvgl/src/widgets/../core/lv_obj_style_gen.h **** }
  48:lvgl/src/widgets/../core/lv_obj_style_gen.h **** 
  49:lvgl/src/widgets/../core/lv_obj_style_gen.h **** static inline lv_align_t lv_obj_get_style_align(const struct _lv_obj_t * obj, uint32_t part)
  50:lvgl/src/widgets/../core/lv_obj_style_gen.h **** {
  51:lvgl/src/widgets/../core/lv_obj_style_gen.h ****     lv_style_value_t v = lv_obj_get_style_prop(obj, part, LV_STYLE_ALIGN);
  52:lvgl/src/widgets/../core/lv_obj_style_gen.h ****     return (lv_align_t)v.num;
  53:lvgl/src/widgets/../core/lv_obj_style_gen.h **** }
  54:lvgl/src/widgets/../core/lv_obj_style_gen.h **** 
  55:lvgl/src/widgets/../core/lv_obj_style_gen.h **** static inline lv_coord_t lv_obj_get_style_transform_width(const struct _lv_obj_t * obj, uint32_t pa
  56:lvgl/src/widgets/../core/lv_obj_style_gen.h **** {
  57:lvgl/src/widgets/../core/lv_obj_style_gen.h ****     lv_style_value_t v = lv_obj_get_style_prop(obj, part, LV_STYLE_TRANSFORM_WIDTH);
  58:lvgl/src/widgets/../core/lv_obj_style_gen.h ****     return (lv_coord_t)v.num;
  59:lvgl/src/widgets/../core/lv_obj_style_gen.h **** }
  60:lvgl/src/widgets/../core/lv_obj_style_gen.h **** 
  61:lvgl/src/widgets/../core/lv_obj_style_gen.h **** static inline lv_coord_t lv_obj_get_style_transform_height(const struct _lv_obj_t * obj, uint32_t p
  62:lvgl/src/widgets/../core/lv_obj_style_gen.h **** {
  63:lvgl/src/widgets/../core/lv_obj_style_gen.h ****     lv_style_value_t v = lv_obj_get_style_prop(obj, part, LV_STYLE_TRANSFORM_HEIGHT);
  64:lvgl/src/widgets/../core/lv_obj_style_gen.h ****     return (lv_coord_t)v.num;
  65:lvgl/src/widgets/../core/lv_obj_style_gen.h **** }
  66:lvgl/src/widgets/../core/lv_obj_style_gen.h **** 
  67:lvgl/src/widgets/../core/lv_obj_style_gen.h **** static inline lv_coord_t lv_obj_get_style_translate_x(const struct _lv_obj_t * obj, uint32_t part)
  68:lvgl/src/widgets/../core/lv_obj_style_gen.h **** {
  69:lvgl/src/widgets/../core/lv_obj_style_gen.h ****     lv_style_value_t v = lv_obj_get_style_prop(obj, part, LV_STYLE_TRANSLATE_X);
  70:lvgl/src/widgets/../core/lv_obj_style_gen.h ****     return (lv_coord_t)v.num;
  71:lvgl/src/widgets/../core/lv_obj_style_gen.h **** }
  72:lvgl/src/widgets/../core/lv_obj_style_gen.h **** 
  73:lvgl/src/widgets/../core/lv_obj_style_gen.h **** static inline lv_coord_t lv_obj_get_style_translate_y(const struct _lv_obj_t * obj, uint32_t part)
  74:lvgl/src/widgets/../core/lv_obj_style_gen.h **** {
  75:lvgl/src/widgets/../core/lv_obj_style_gen.h ****     lv_style_value_t v = lv_obj_get_style_prop(obj, part, LV_STYLE_TRANSLATE_Y);
  76:lvgl/src/widgets/../core/lv_obj_style_gen.h ****     return (lv_coord_t)v.num;
  77:lvgl/src/widgets/../core/lv_obj_style_gen.h **** }
  78:lvgl/src/widgets/../core/lv_obj_style_gen.h **** 
  79:lvgl/src/widgets/../core/lv_obj_style_gen.h **** static inline lv_coord_t lv_obj_get_style_transform_zoom(const struct _lv_obj_t * obj, uint32_t par
  49              		.loc 2 79 26 view .LVU4
  50              	.LBB84:
  80:lvgl/src/widgets/../core/lv_obj_style_gen.h **** {
  81:lvgl/src/widgets/../core/lv_obj_style_gen.h ****     lv_style_value_t v = lv_obj_get_style_prop(obj, part, LV_STYLE_TRANSFORM_ZOOM);
  51              		.loc 2 81 5 view .LVU5
  52              		.loc 2 81 26 is_stmt 0 view .LVU6
  53 0006 43F60E02 		movw	r2, #14350
  54 000a 0021     		movs	r1, #0
  55 000c FFF7FEFF 		bl	lv_obj_get_style_prop
  56              	.LVL2:
  82:lvgl/src/widgets/../core/lv_obj_style_gen.h ****     return (lv_coord_t)v.num;
  57              		.loc 2 82 5 is_stmt 1 view .LVU7
  58              		.loc 2 82 12 is_stmt 0 view .LVU8
  59 0010 00B2     		sxth	r0, r0
  60              	.LVL3:
  61              		.loc 2 82 12 view .LVU9
  62              	.LBE84:
ARM GAS  C:\usertemp\ccrOwx87.s 			page 11


  63              	.LBE83:
 428:lvgl/src/widgets/lv_img.c ****     zoom_final = (zoom_final * img->zoom) >> 8;
  64              		.loc 1 428 5 is_stmt 1 view .LVU10
  65              		.loc 1 428 35 is_stmt 0 view .LVU11
  66 0012 E58E     		ldrh	r5, [r4, #54]
  67              		.loc 1 428 30 view .LVU12
  68 0014 00FB05F5 		mul	r5, r0, r5
  69              		.loc 1 428 16 view .LVU13
  70 0018 2D12     		asrs	r5, r5, #8
  71              	.LVL4:
 429:lvgl/src/widgets/lv_img.c ****     int32_t angle_final = lv_obj_get_style_transform_angle(obj, LV_PART_MAIN);
  72              		.loc 1 429 5 is_stmt 1 view .LVU14
  73              	.LBB85:
  74              	.LBI85:
  83:lvgl/src/widgets/../core/lv_obj_style_gen.h **** }
  84:lvgl/src/widgets/../core/lv_obj_style_gen.h **** 
  85:lvgl/src/widgets/../core/lv_obj_style_gen.h **** static inline lv_coord_t lv_obj_get_style_transform_angle(const struct _lv_obj_t * obj, uint32_t pa
  75              		.loc 2 85 26 view .LVU15
  76              	.LBB86:
  86:lvgl/src/widgets/../core/lv_obj_style_gen.h **** {
  87:lvgl/src/widgets/../core/lv_obj_style_gen.h ****     lv_style_value_t v = lv_obj_get_style_prop(obj, part, LV_STYLE_TRANSFORM_ANGLE);
  77              		.loc 2 87 5 view .LVU16
  78              		.loc 2 87 26 is_stmt 0 view .LVU17
  79 001a 43F60F02 		movw	r2, #14351
  80 001e 0021     		movs	r1, #0
  81 0020 2046     		mov	r0, r4
  82 0022 FFF7FEFF 		bl	lv_obj_get_style_prop
  83              	.LVL5:
  88:lvgl/src/widgets/../core/lv_obj_style_gen.h ****     return (lv_coord_t)v.num;
  84              		.loc 2 88 5 is_stmt 1 view .LVU18
  85              		.loc 2 88 5 is_stmt 0 view .LVU19
  86              	.LBE86:
  87              	.LBE85:
 430:lvgl/src/widgets/lv_img.c ****     angle_final += img->angle;
  88              		.loc 1 430 5 is_stmt 1 view .LVU20
  89              		.loc 1 430 23 is_stmt 0 view .LVU21
  90 0026 238E     		ldrh	r3, [r4, #48]
  91              		.loc 1 430 17 view .LVU22
  92 0028 03FA80F3 		sxtah	r3, r3, r0
  93              	.LVL6:
 431:lvgl/src/widgets/lv_img.c **** 
 432:lvgl/src/widgets/lv_img.c ****     lv_area_t area_transform;
  94              		.loc 1 432 5 is_stmt 1 view .LVU23
 433:lvgl/src/widgets/lv_img.c ****     _lv_img_buf_get_transformed_area(&area_transform, img->w, img->h,
  95              		.loc 1 433 5 view .LVU24
 434:lvgl/src/widgets/lv_img.c ****                                      angle_final, zoom_final, &img->pivot);
  96              		.loc 1 434 63 is_stmt 0 view .LVU25
  97 002c 04F13202 		add	r2, r4, #50
 433:lvgl/src/widgets/lv_img.c ****     _lv_img_buf_get_transformed_area(&area_transform, img->w, img->h,
  98              		.loc 1 433 5 view .LVU26
  99 0030 0192     		str	r2, [sp, #4]
 100 0032 ADB2     		uxth	r5, r5
 101              	.LVL7:
 433:lvgl/src/widgets/lv_img.c ****     _lv_img_buf_get_transformed_area(&area_transform, img->w, img->h,
 102              		.loc 1 433 5 view .LVU27
 103 0034 0095     		str	r5, [sp]
 104 0036 1BB2     		sxth	r3, r3
ARM GAS  C:\usertemp\ccrOwx87.s 			page 12


 105              	.LVL8:
 433:lvgl/src/widgets/lv_img.c ****     _lv_img_buf_get_transformed_area(&area_transform, img->w, img->h,
 106              		.loc 1 433 5 view .LVU28
 107 0038 B4F92E20 		ldrsh	r2, [r4, #46]
 108 003c B4F92C10 		ldrsh	r1, [r4, #44]
 109 0040 03A8     		add	r0, sp, #12
 433:lvgl/src/widgets/lv_img.c ****     _lv_img_buf_get_transformed_area(&area_transform, img->w, img->h,
 110              		.loc 1 433 5 view .LVU29
 111 0042 FFF7FEFF 		bl	_lv_img_buf_get_transformed_area
 112              	.LVL9:
 435:lvgl/src/widgets/lv_img.c **** 
 436:lvgl/src/widgets/lv_img.c ****     return (lv_point_t) {
 113              		.loc 1 436 5 is_stmt 1 view .LVU30
 114              	.LBB87:
 115              	.LBI87:
 116              		.file 3 "lvgl/src/widgets/../core/../misc/../font/../misc/lv_area.h"
   1:lvgl/src/widgets/../core/../misc/../font/../misc/lv_area.h **** /**
   2:lvgl/src/widgets/../core/../misc/../font/../misc/lv_area.h ****  * @file lv_area.h
   3:lvgl/src/widgets/../core/../misc/../font/../misc/lv_area.h ****  *
   4:lvgl/src/widgets/../core/../misc/../font/../misc/lv_area.h ****  */
   5:lvgl/src/widgets/../core/../misc/../font/../misc/lv_area.h **** 
   6:lvgl/src/widgets/../core/../misc/../font/../misc/lv_area.h **** #ifndef LV_AREA_H
   7:lvgl/src/widgets/../core/../misc/../font/../misc/lv_area.h **** #define LV_AREA_H
   8:lvgl/src/widgets/../core/../misc/../font/../misc/lv_area.h **** 
   9:lvgl/src/widgets/../core/../misc/../font/../misc/lv_area.h **** #ifdef __cplusplus
  10:lvgl/src/widgets/../core/../misc/../font/../misc/lv_area.h **** extern "C" {
  11:lvgl/src/widgets/../core/../misc/../font/../misc/lv_area.h **** #endif
  12:lvgl/src/widgets/../core/../misc/../font/../misc/lv_area.h **** 
  13:lvgl/src/widgets/../core/../misc/../font/../misc/lv_area.h **** /*********************
  14:lvgl/src/widgets/../core/../misc/../font/../misc/lv_area.h ****  *      INCLUDES
  15:lvgl/src/widgets/../core/../misc/../font/../misc/lv_area.h ****  *********************/
  16:lvgl/src/widgets/../core/../misc/../font/../misc/lv_area.h **** #include "../lv_conf_internal.h"
  17:lvgl/src/widgets/../core/../misc/../font/../misc/lv_area.h **** #include <stdbool.h>
  18:lvgl/src/widgets/../core/../misc/../font/../misc/lv_area.h **** #include <stdint.h>
  19:lvgl/src/widgets/../core/../misc/../font/../misc/lv_area.h **** 
  20:lvgl/src/widgets/../core/../misc/../font/../misc/lv_area.h **** /*********************
  21:lvgl/src/widgets/../core/../misc/../font/../misc/lv_area.h ****  *      DEFINES
  22:lvgl/src/widgets/../core/../misc/../font/../misc/lv_area.h ****  *********************/
  23:lvgl/src/widgets/../core/../misc/../font/../misc/lv_area.h **** 
  24:lvgl/src/widgets/../core/../misc/../font/../misc/lv_area.h **** #if LV_USE_LARGE_COORD
  25:lvgl/src/widgets/../core/../misc/../font/../misc/lv_area.h **** typedef int32_t lv_coord_t;
  26:lvgl/src/widgets/../core/../misc/../font/../misc/lv_area.h **** #else
  27:lvgl/src/widgets/../core/../misc/../font/../misc/lv_area.h **** typedef int16_t lv_coord_t;
  28:lvgl/src/widgets/../core/../misc/../font/../misc/lv_area.h **** #endif
  29:lvgl/src/widgets/../core/../misc/../font/../misc/lv_area.h **** 
  30:lvgl/src/widgets/../core/../misc/../font/../misc/lv_area.h **** /**********************
  31:lvgl/src/widgets/../core/../misc/../font/../misc/lv_area.h ****  *      TYPEDEFS
  32:lvgl/src/widgets/../core/../misc/../font/../misc/lv_area.h ****  **********************/
  33:lvgl/src/widgets/../core/../misc/../font/../misc/lv_area.h **** 
  34:lvgl/src/widgets/../core/../misc/../font/../misc/lv_area.h **** /**
  35:lvgl/src/widgets/../core/../misc/../font/../misc/lv_area.h ****  * Represents a point on the screen.
  36:lvgl/src/widgets/../core/../misc/../font/../misc/lv_area.h ****  */
  37:lvgl/src/widgets/../core/../misc/../font/../misc/lv_area.h **** typedef struct {
  38:lvgl/src/widgets/../core/../misc/../font/../misc/lv_area.h ****     lv_coord_t x;
  39:lvgl/src/widgets/../core/../misc/../font/../misc/lv_area.h ****     lv_coord_t y;
  40:lvgl/src/widgets/../core/../misc/../font/../misc/lv_area.h **** } lv_point_t;
  41:lvgl/src/widgets/../core/../misc/../font/../misc/lv_area.h **** 
ARM GAS  C:\usertemp\ccrOwx87.s 			page 13


  42:lvgl/src/widgets/../core/../misc/../font/../misc/lv_area.h **** /** Represents an area of the screen.*/
  43:lvgl/src/widgets/../core/../misc/../font/../misc/lv_area.h **** typedef struct {
  44:lvgl/src/widgets/../core/../misc/../font/../misc/lv_area.h ****     lv_coord_t x1;
  45:lvgl/src/widgets/../core/../misc/../font/../misc/lv_area.h ****     lv_coord_t y1;
  46:lvgl/src/widgets/../core/../misc/../font/../misc/lv_area.h ****     lv_coord_t x2;
  47:lvgl/src/widgets/../core/../misc/../font/../misc/lv_area.h ****     lv_coord_t y2;
  48:lvgl/src/widgets/../core/../misc/../font/../misc/lv_area.h **** } lv_area_t;
  49:lvgl/src/widgets/../core/../misc/../font/../misc/lv_area.h **** 
  50:lvgl/src/widgets/../core/../misc/../font/../misc/lv_area.h **** /** Alignments*/
  51:lvgl/src/widgets/../core/../misc/../font/../misc/lv_area.h **** enum {
  52:lvgl/src/widgets/../core/../misc/../font/../misc/lv_area.h ****     LV_ALIGN_DEFAULT = 0,
  53:lvgl/src/widgets/../core/../misc/../font/../misc/lv_area.h ****     LV_ALIGN_TOP_LEFT,
  54:lvgl/src/widgets/../core/../misc/../font/../misc/lv_area.h ****     LV_ALIGN_TOP_MID,
  55:lvgl/src/widgets/../core/../misc/../font/../misc/lv_area.h ****     LV_ALIGN_TOP_RIGHT,
  56:lvgl/src/widgets/../core/../misc/../font/../misc/lv_area.h ****     LV_ALIGN_BOTTOM_LEFT,
  57:lvgl/src/widgets/../core/../misc/../font/../misc/lv_area.h ****     LV_ALIGN_BOTTOM_MID,
  58:lvgl/src/widgets/../core/../misc/../font/../misc/lv_area.h ****     LV_ALIGN_BOTTOM_RIGHT,
  59:lvgl/src/widgets/../core/../misc/../font/../misc/lv_area.h ****     LV_ALIGN_LEFT_MID,
  60:lvgl/src/widgets/../core/../misc/../font/../misc/lv_area.h ****     LV_ALIGN_RIGHT_MID,
  61:lvgl/src/widgets/../core/../misc/../font/../misc/lv_area.h ****     LV_ALIGN_CENTER,
  62:lvgl/src/widgets/../core/../misc/../font/../misc/lv_area.h **** 
  63:lvgl/src/widgets/../core/../misc/../font/../misc/lv_area.h ****     LV_ALIGN_OUT_TOP_LEFT,
  64:lvgl/src/widgets/../core/../misc/../font/../misc/lv_area.h ****     LV_ALIGN_OUT_TOP_MID,
  65:lvgl/src/widgets/../core/../misc/../font/../misc/lv_area.h ****     LV_ALIGN_OUT_TOP_RIGHT,
  66:lvgl/src/widgets/../core/../misc/../font/../misc/lv_area.h ****     LV_ALIGN_OUT_BOTTOM_LEFT,
  67:lvgl/src/widgets/../core/../misc/../font/../misc/lv_area.h ****     LV_ALIGN_OUT_BOTTOM_MID,
  68:lvgl/src/widgets/../core/../misc/../font/../misc/lv_area.h ****     LV_ALIGN_OUT_BOTTOM_RIGHT,
  69:lvgl/src/widgets/../core/../misc/../font/../misc/lv_area.h ****     LV_ALIGN_OUT_LEFT_TOP,
  70:lvgl/src/widgets/../core/../misc/../font/../misc/lv_area.h ****     LV_ALIGN_OUT_LEFT_MID,
  71:lvgl/src/widgets/../core/../misc/../font/../misc/lv_area.h ****     LV_ALIGN_OUT_LEFT_BOTTOM,
  72:lvgl/src/widgets/../core/../misc/../font/../misc/lv_area.h ****     LV_ALIGN_OUT_RIGHT_TOP,
  73:lvgl/src/widgets/../core/../misc/../font/../misc/lv_area.h ****     LV_ALIGN_OUT_RIGHT_MID,
  74:lvgl/src/widgets/../core/../misc/../font/../misc/lv_area.h ****     LV_ALIGN_OUT_RIGHT_BOTTOM,
  75:lvgl/src/widgets/../core/../misc/../font/../misc/lv_area.h **** };
  76:lvgl/src/widgets/../core/../misc/../font/../misc/lv_area.h **** typedef uint8_t lv_align_t;
  77:lvgl/src/widgets/../core/../misc/../font/../misc/lv_area.h **** 
  78:lvgl/src/widgets/../core/../misc/../font/../misc/lv_area.h **** enum {
  79:lvgl/src/widgets/../core/../misc/../font/../misc/lv_area.h ****     LV_DIR_NONE     = 0x00,
  80:lvgl/src/widgets/../core/../misc/../font/../misc/lv_area.h ****     LV_DIR_LEFT     = (1 << 0),
  81:lvgl/src/widgets/../core/../misc/../font/../misc/lv_area.h ****     LV_DIR_RIGHT    = (1 << 1),
  82:lvgl/src/widgets/../core/../misc/../font/../misc/lv_area.h ****     LV_DIR_TOP      = (1 << 2),
  83:lvgl/src/widgets/../core/../misc/../font/../misc/lv_area.h ****     LV_DIR_BOTTOM   = (1 << 3),
  84:lvgl/src/widgets/../core/../misc/../font/../misc/lv_area.h ****     LV_DIR_HOR      = LV_DIR_LEFT | LV_DIR_RIGHT,
  85:lvgl/src/widgets/../core/../misc/../font/../misc/lv_area.h ****     LV_DIR_VER      = LV_DIR_TOP | LV_DIR_BOTTOM,
  86:lvgl/src/widgets/../core/../misc/../font/../misc/lv_area.h ****     LV_DIR_ALL      = LV_DIR_HOR | LV_DIR_VER,
  87:lvgl/src/widgets/../core/../misc/../font/../misc/lv_area.h **** };
  88:lvgl/src/widgets/../core/../misc/../font/../misc/lv_area.h **** 
  89:lvgl/src/widgets/../core/../misc/../font/../misc/lv_area.h **** typedef uint8_t lv_dir_t;
  90:lvgl/src/widgets/../core/../misc/../font/../misc/lv_area.h **** 
  91:lvgl/src/widgets/../core/../misc/../font/../misc/lv_area.h **** /**********************
  92:lvgl/src/widgets/../core/../misc/../font/../misc/lv_area.h ****  * GLOBAL PROTOTYPES
  93:lvgl/src/widgets/../core/../misc/../font/../misc/lv_area.h ****  **********************/
  94:lvgl/src/widgets/../core/../misc/../font/../misc/lv_area.h **** 
  95:lvgl/src/widgets/../core/../misc/../font/../misc/lv_area.h **** /**
  96:lvgl/src/widgets/../core/../misc/../font/../misc/lv_area.h ****  * Initialize an area
  97:lvgl/src/widgets/../core/../misc/../font/../misc/lv_area.h ****  * @param area_p pointer to an area
  98:lvgl/src/widgets/../core/../misc/../font/../misc/lv_area.h ****  * @param x1 left coordinate of the area
ARM GAS  C:\usertemp\ccrOwx87.s 			page 14


  99:lvgl/src/widgets/../core/../misc/../font/../misc/lv_area.h ****  * @param y1 top coordinate of the area
 100:lvgl/src/widgets/../core/../misc/../font/../misc/lv_area.h ****  * @param x2 right coordinate of the area
 101:lvgl/src/widgets/../core/../misc/../font/../misc/lv_area.h ****  * @param y2 bottom coordinate of the area
 102:lvgl/src/widgets/../core/../misc/../font/../misc/lv_area.h ****  */
 103:lvgl/src/widgets/../core/../misc/../font/../misc/lv_area.h **** void lv_area_set(lv_area_t * area_p, lv_coord_t x1, lv_coord_t y1, lv_coord_t x2, lv_coord_t y2);
 104:lvgl/src/widgets/../core/../misc/../font/../misc/lv_area.h **** 
 105:lvgl/src/widgets/../core/../misc/../font/../misc/lv_area.h **** /**
 106:lvgl/src/widgets/../core/../misc/../font/../misc/lv_area.h ****  * Copy an area
 107:lvgl/src/widgets/../core/../misc/../font/../misc/lv_area.h ****  * @param dest pointer to the destination area
 108:lvgl/src/widgets/../core/../misc/../font/../misc/lv_area.h ****  * @param src pointer to the source area
 109:lvgl/src/widgets/../core/../misc/../font/../misc/lv_area.h ****  */
 110:lvgl/src/widgets/../core/../misc/../font/../misc/lv_area.h **** inline static void lv_area_copy(lv_area_t * dest, const lv_area_t * src)
 111:lvgl/src/widgets/../core/../misc/../font/../misc/lv_area.h **** {
 112:lvgl/src/widgets/../core/../misc/../font/../misc/lv_area.h ****     dest->x1 = src->x1;
 113:lvgl/src/widgets/../core/../misc/../font/../misc/lv_area.h ****     dest->y1 = src->y1;
 114:lvgl/src/widgets/../core/../misc/../font/../misc/lv_area.h ****     dest->x2 = src->x2;
 115:lvgl/src/widgets/../core/../misc/../font/../misc/lv_area.h ****     dest->y2 = src->y2;
 116:lvgl/src/widgets/../core/../misc/../font/../misc/lv_area.h **** }
 117:lvgl/src/widgets/../core/../misc/../font/../misc/lv_area.h **** 
 118:lvgl/src/widgets/../core/../misc/../font/../misc/lv_area.h **** /**
 119:lvgl/src/widgets/../core/../misc/../font/../misc/lv_area.h ****  * Get the width of an area
 120:lvgl/src/widgets/../core/../misc/../font/../misc/lv_area.h ****  * @param area_p pointer to an area
 121:lvgl/src/widgets/../core/../misc/../font/../misc/lv_area.h ****  * @return the width of the area (if x1 == x2 -> width = 1)
 122:lvgl/src/widgets/../core/../misc/../font/../misc/lv_area.h ****  */
 123:lvgl/src/widgets/../core/../misc/../font/../misc/lv_area.h **** static inline lv_coord_t lv_area_get_width(const lv_area_t * area_p)
 117              		.loc 3 123 26 view .LVU31
 118              	.LBB88:
 124:lvgl/src/widgets/../core/../misc/../font/../misc/lv_area.h **** {
 125:lvgl/src/widgets/../core/../misc/../font/../misc/lv_area.h ****     return (lv_coord_t)(area_p->x2 - area_p->x1 + 1);
 119              		.loc 3 125 5 view .LVU32
 120              		.loc 3 125 31 is_stmt 0 view .LVU33
 121 0046 BDF81020 		ldrh	r2, [sp, #16]
 122              		.loc 3 125 44 view .LVU34
 123 004a BDF80C30 		ldrh	r3, [sp, #12]
 124              		.loc 3 125 36 view .LVU35
 125 004e D21A     		subs	r2, r2, r3
 126 0050 92B2     		uxth	r2, r2
 127              		.loc 3 125 49 view .LVU36
 128 0052 0132     		adds	r2, r2, #1
 129              	.LVL10:
 130              		.loc 3 125 49 view .LVU37
 131              	.LBE88:
 132              	.LBE87:
 133              	.LBB89:
 134              	.LBI89:
 126:lvgl/src/widgets/../core/../misc/../font/../misc/lv_area.h **** }
 127:lvgl/src/widgets/../core/../misc/../font/../misc/lv_area.h **** 
 128:lvgl/src/widgets/../core/../misc/../font/../misc/lv_area.h **** /**
 129:lvgl/src/widgets/../core/../misc/../font/../misc/lv_area.h ****  * Get the height of an area
 130:lvgl/src/widgets/../core/../misc/../font/../misc/lv_area.h ****  * @param area_p pointer to an area
 131:lvgl/src/widgets/../core/../misc/../font/../misc/lv_area.h ****  * @return the height of the area (if y1 == y2 -> height = 1)
 132:lvgl/src/widgets/../core/../misc/../font/../misc/lv_area.h ****  */
 133:lvgl/src/widgets/../core/../misc/../font/../misc/lv_area.h **** static inline lv_coord_t lv_area_get_height(const lv_area_t * area_p)
 135              		.loc 3 133 26 is_stmt 1 view .LVU38
 136              	.LBB90:
 134:lvgl/src/widgets/../core/../misc/../font/../misc/lv_area.h **** {
 135:lvgl/src/widgets/../core/../misc/../font/../misc/lv_area.h ****     return (lv_coord_t)(area_p->y2 - area_p->y1 + 1);
ARM GAS  C:\usertemp\ccrOwx87.s 			page 15


 137              		.loc 3 135 5 view .LVU39
 138              		.loc 3 135 31 is_stmt 0 view .LVU40
 139 0054 BDF81230 		ldrh	r3, [sp, #18]
 140              		.loc 3 135 44 view .LVU41
 141 0058 BDF80E10 		ldrh	r1, [sp, #14]
 142              		.loc 3 135 36 view .LVU42
 143 005c 5B1A     		subs	r3, r3, r1
 144 005e 9BB2     		uxth	r3, r3
 145              		.loc 3 135 49 view .LVU43
 146 0060 0133     		adds	r3, r3, #1
 147              	.LVL11:
 148              		.loc 3 135 49 view .LVU44
 149              	.LBE90:
 150              	.LBE89:
 151              		.loc 1 436 12 view .LVU45
 152 0062 ADF81420 		strh	r2, [sp, #20]	@ movhi
 153 0066 ADF81630 		strh	r3, [sp, #22]	@ movhi
 154 006a 0020     		movs	r0, #0
 155 006c 93B2     		uxth	r3, r2
 156 006e 63F30F00 		bfi	r0, r3, #0, #16
 157 0072 BDF81630 		ldrh	r3, [sp, #22]
 158 0076 63F31F40 		bfi	r0, r3, #16, #16
 437:lvgl/src/widgets/lv_img.c ****         lv_area_get_width(&area_transform), lv_area_get_height(&area_transform)
 438:lvgl/src/widgets/lv_img.c ****     };
 439:lvgl/src/widgets/lv_img.c **** }
 159              		.loc 1 439 1 view .LVU46
 160 007a 07B0     		add	sp, sp, #28
 161              	.LCFI2:
 162              		.cfi_def_cfa_offset 12
 163              		@ sp needed
 164 007c 30BD     		pop	{r4, r5, pc}
 165              		.loc 1 439 1 view .LVU47
 166              		.cfi_endproc
 167              	.LFE175:
 169              		.section	.text.draw_img,"ax",%progbits
 170              		.align	1
 171              		.syntax unified
 172              		.thumb
 173              		.thumb_func
 175              	draw_img:
 176              	.LVL12:
 177              	.LFB177:
 440:lvgl/src/widgets/lv_img.c **** 
 441:lvgl/src/widgets/lv_img.c **** static void lv_img_event(const lv_obj_class_t * class_p, lv_event_t * e)
 442:lvgl/src/widgets/lv_img.c **** {
 443:lvgl/src/widgets/lv_img.c ****     LV_UNUSED(class_p);
 444:lvgl/src/widgets/lv_img.c **** 
 445:lvgl/src/widgets/lv_img.c ****     lv_event_code_t code = lv_event_get_code(e);
 446:lvgl/src/widgets/lv_img.c **** 
 447:lvgl/src/widgets/lv_img.c ****     /*Ancestor events will be called during drawing*/
 448:lvgl/src/widgets/lv_img.c ****     if(code != LV_EVENT_DRAW_MAIN && code != LV_EVENT_DRAW_POST) {
 449:lvgl/src/widgets/lv_img.c ****         /*Call the ancestor's event handler*/
 450:lvgl/src/widgets/lv_img.c ****         lv_res_t res = lv_obj_event_base(MY_CLASS, e);
 451:lvgl/src/widgets/lv_img.c ****         if(res != LV_RES_OK) return;
 452:lvgl/src/widgets/lv_img.c ****     }
 453:lvgl/src/widgets/lv_img.c **** 
 454:lvgl/src/widgets/lv_img.c ****     lv_obj_t * obj = lv_event_get_target(e);
ARM GAS  C:\usertemp\ccrOwx87.s 			page 16


 455:lvgl/src/widgets/lv_img.c ****     lv_img_t * img = (lv_img_t *)obj;
 456:lvgl/src/widgets/lv_img.c **** 
 457:lvgl/src/widgets/lv_img.c ****     if(code == LV_EVENT_STYLE_CHANGED) {
 458:lvgl/src/widgets/lv_img.c ****         /*Refresh the file name to refresh the symbol text size*/
 459:lvgl/src/widgets/lv_img.c ****         if(img->src_type == LV_IMG_SRC_SYMBOL) {
 460:lvgl/src/widgets/lv_img.c ****             lv_img_set_src(obj, img->src);
 461:lvgl/src/widgets/lv_img.c ****         }
 462:lvgl/src/widgets/lv_img.c ****         else {
 463:lvgl/src/widgets/lv_img.c ****             /*With transformation it might change*/
 464:lvgl/src/widgets/lv_img.c ****             lv_obj_refresh_ext_draw_size(obj);
 465:lvgl/src/widgets/lv_img.c ****         }
 466:lvgl/src/widgets/lv_img.c ****     }
 467:lvgl/src/widgets/lv_img.c ****     else if(code == LV_EVENT_REFR_EXT_DRAW_SIZE) {
 468:lvgl/src/widgets/lv_img.c **** 
 469:lvgl/src/widgets/lv_img.c ****         lv_coord_t * s = lv_event_get_param(e);
 470:lvgl/src/widgets/lv_img.c ****         lv_coord_t transf_zoom = lv_obj_get_style_transform_zoom(obj, LV_PART_MAIN);
 471:lvgl/src/widgets/lv_img.c ****         transf_zoom = ((int32_t)transf_zoom * img->zoom) >> 8;
 472:lvgl/src/widgets/lv_img.c **** 
 473:lvgl/src/widgets/lv_img.c ****         lv_coord_t transf_angle = lv_obj_get_style_transform_angle(obj, LV_PART_MAIN);
 474:lvgl/src/widgets/lv_img.c ****         transf_angle += img->angle;
 475:lvgl/src/widgets/lv_img.c **** 
 476:lvgl/src/widgets/lv_img.c ****         /*If the image has angle provide enough room for the rotated corners*/
 477:lvgl/src/widgets/lv_img.c ****         if(transf_angle || transf_zoom != LV_IMG_ZOOM_NONE) {
 478:lvgl/src/widgets/lv_img.c ****             lv_area_t a;
 479:lvgl/src/widgets/lv_img.c ****             lv_coord_t w = lv_obj_get_width(obj);
 480:lvgl/src/widgets/lv_img.c ****             lv_coord_t h = lv_obj_get_height(obj);
 481:lvgl/src/widgets/lv_img.c ****             _lv_img_buf_get_transformed_area(&a, w, h, transf_angle, transf_zoom, &img->pivot);
 482:lvgl/src/widgets/lv_img.c ****             lv_coord_t pad_ori = *s;
 483:lvgl/src/widgets/lv_img.c ****             *s = LV_MAX(*s, pad_ori - a.x1);
 484:lvgl/src/widgets/lv_img.c ****             *s = LV_MAX(*s, pad_ori - a.y1);
 485:lvgl/src/widgets/lv_img.c ****             *s = LV_MAX(*s, pad_ori + a.x2 - w);
 486:lvgl/src/widgets/lv_img.c ****             *s = LV_MAX(*s, pad_ori + a.y2 - h);
 487:lvgl/src/widgets/lv_img.c ****         }
 488:lvgl/src/widgets/lv_img.c ****     }
 489:lvgl/src/widgets/lv_img.c ****     else if(code == LV_EVENT_HIT_TEST) {
 490:lvgl/src/widgets/lv_img.c ****         lv_hit_test_info_t * info = lv_event_get_param(e);
 491:lvgl/src/widgets/lv_img.c ****         lv_coord_t zoom = lv_obj_get_style_transform_zoom(obj, LV_PART_MAIN);
 492:lvgl/src/widgets/lv_img.c ****         zoom = (zoom * img->zoom) >> 8;
 493:lvgl/src/widgets/lv_img.c **** 
 494:lvgl/src/widgets/lv_img.c ****         lv_coord_t angle = lv_obj_get_style_transform_angle(obj, LV_PART_MAIN);
 495:lvgl/src/widgets/lv_img.c ****         angle += img->angle;
 496:lvgl/src/widgets/lv_img.c **** 
 497:lvgl/src/widgets/lv_img.c ****         /*If the object is exactly image sized (not cropped, not mosaic) and transformed
 498:lvgl/src/widgets/lv_img.c ****          *perform hit test on its transformed area*/
 499:lvgl/src/widgets/lv_img.c ****         if(img->w == lv_obj_get_width(obj) && img->h == lv_obj_get_height(obj) &&
 500:lvgl/src/widgets/lv_img.c ****            (zoom != LV_IMG_ZOOM_NONE || angle != 0 || img->pivot.x != img->w / 2 || img->pivot.y !=
 501:lvgl/src/widgets/lv_img.c **** 
 502:lvgl/src/widgets/lv_img.c ****             lv_coord_t w = lv_obj_get_width(obj);
 503:lvgl/src/widgets/lv_img.c ****             lv_coord_t h = lv_obj_get_height(obj);
 504:lvgl/src/widgets/lv_img.c ****             lv_area_t coords;
 505:lvgl/src/widgets/lv_img.c ****             _lv_img_buf_get_transformed_area(&coords, w, h, angle, zoom, &img->pivot);
 506:lvgl/src/widgets/lv_img.c ****             coords.x1 += obj->coords.x1;
 507:lvgl/src/widgets/lv_img.c ****             coords.y1 += obj->coords.y1;
 508:lvgl/src/widgets/lv_img.c ****             coords.x2 += obj->coords.x1;
 509:lvgl/src/widgets/lv_img.c ****             coords.y2 += obj->coords.y1;
 510:lvgl/src/widgets/lv_img.c **** 
 511:lvgl/src/widgets/lv_img.c ****             info->res = _lv_area_is_point_on(&coords, info->point, 0);
ARM GAS  C:\usertemp\ccrOwx87.s 			page 17


 512:lvgl/src/widgets/lv_img.c ****         }
 513:lvgl/src/widgets/lv_img.c ****         else {
 514:lvgl/src/widgets/lv_img.c ****             lv_area_t a;
 515:lvgl/src/widgets/lv_img.c ****             lv_obj_get_click_area(obj, &a);
 516:lvgl/src/widgets/lv_img.c ****             info->res = _lv_area_is_point_on(&a, info->point, 0);
 517:lvgl/src/widgets/lv_img.c ****         }
 518:lvgl/src/widgets/lv_img.c ****     }
 519:lvgl/src/widgets/lv_img.c ****     else if(code == LV_EVENT_GET_SELF_SIZE) {
 520:lvgl/src/widgets/lv_img.c ****         lv_point_t * p = lv_event_get_param(e);
 521:lvgl/src/widgets/lv_img.c ****         if(img->obj_size_mode == LV_IMG_SIZE_MODE_REAL) {
 522:lvgl/src/widgets/lv_img.c ****             *p = lv_img_get_transformed_size(obj);
 523:lvgl/src/widgets/lv_img.c ****         }
 524:lvgl/src/widgets/lv_img.c ****         else {
 525:lvgl/src/widgets/lv_img.c ****             p->x = img->w;
 526:lvgl/src/widgets/lv_img.c ****             p->y = img->h;
 527:lvgl/src/widgets/lv_img.c ****         }
 528:lvgl/src/widgets/lv_img.c ****     }
 529:lvgl/src/widgets/lv_img.c ****     else if(code == LV_EVENT_DRAW_MAIN || code == LV_EVENT_DRAW_POST || code == LV_EVENT_COVER_CHEC
 530:lvgl/src/widgets/lv_img.c ****         draw_img(e);
 531:lvgl/src/widgets/lv_img.c ****     }
 532:lvgl/src/widgets/lv_img.c **** }
 533:lvgl/src/widgets/lv_img.c **** 
 534:lvgl/src/widgets/lv_img.c **** static void draw_img(lv_event_t * e)
 535:lvgl/src/widgets/lv_img.c **** {
 178              		.loc 1 535 1 is_stmt 1 view -0
 179              		.cfi_startproc
 180              		@ args = 0, pretend = 0, frame = 104
 181              		@ frame_needed = 0, uses_anonymous_args = 0
 182              		.loc 1 535 1 is_stmt 0 view .LVU49
 183 0000 2DE9F04F 		push	{r4, r5, r6, r7, r8, r9, r10, fp, lr}
 184              	.LCFI3:
 185              		.cfi_def_cfa_offset 36
 186              		.cfi_offset 4, -36
 187              		.cfi_offset 5, -32
 188              		.cfi_offset 6, -28
 189              		.cfi_offset 7, -24
 190              		.cfi_offset 8, -20
 191              		.cfi_offset 9, -16
 192              		.cfi_offset 10, -12
 193              		.cfi_offset 11, -8
 194              		.cfi_offset 14, -4
 195 0004 9DB0     		sub	sp, sp, #116
 196              	.LCFI4:
 197              		.cfi_def_cfa_offset 152
 198 0006 0646     		mov	r6, r0
 536:lvgl/src/widgets/lv_img.c ****     lv_event_code_t code = lv_event_get_code(e);
 199              		.loc 1 536 5 is_stmt 1 view .LVU50
 200              		.loc 1 536 28 is_stmt 0 view .LVU51
 201 0008 FFF7FEFF 		bl	lv_event_get_code
 202              	.LVL13:
 203              		.loc 1 536 28 view .LVU52
 204 000c 0546     		mov	r5, r0
 205              	.LVL14:
 537:lvgl/src/widgets/lv_img.c ****     lv_obj_t * obj = lv_event_get_target(e);
 206              		.loc 1 537 5 is_stmt 1 view .LVU53
 207              		.loc 1 537 22 is_stmt 0 view .LVU54
 208 000e 3046     		mov	r0, r6
ARM GAS  C:\usertemp\ccrOwx87.s 			page 18


 209 0010 FFF7FEFF 		bl	lv_event_get_target
 210              	.LVL15:
 211 0014 0446     		mov	r4, r0
 212              	.LVL16:
 538:lvgl/src/widgets/lv_img.c ****     lv_img_t * img = (lv_img_t *)obj;
 213              		.loc 1 538 5 is_stmt 1 view .LVU55
 539:lvgl/src/widgets/lv_img.c ****     if(code == LV_EVENT_COVER_CHECK) {
 214              		.loc 1 539 5 view .LVU56
 215              		.loc 1 539 7 is_stmt 0 view .LVU57
 216 0016 122D     		cmp	r5, #18
 217 0018 07D0     		beq	.L32
 540:lvgl/src/widgets/lv_img.c ****         lv_cover_check_info_t * info = lv_event_get_param(e);
 541:lvgl/src/widgets/lv_img.c ****         if(info->res == LV_COVER_RES_MASKED) return;
 542:lvgl/src/widgets/lv_img.c ****         if(img->src_type == LV_IMG_SRC_UNKNOWN || img->src_type == LV_IMG_SRC_SYMBOL) {
 543:lvgl/src/widgets/lv_img.c ****             info->res = LV_COVER_RES_NOT_COVER;
 544:lvgl/src/widgets/lv_img.c ****             return;
 545:lvgl/src/widgets/lv_img.c ****         }
 546:lvgl/src/widgets/lv_img.c **** 
 547:lvgl/src/widgets/lv_img.c ****         /*Non true color format might have "holes"*/
 548:lvgl/src/widgets/lv_img.c ****         if(img->cf != LV_IMG_CF_TRUE_COLOR && img->cf != LV_IMG_CF_RAW) {
 549:lvgl/src/widgets/lv_img.c ****             info->res = LV_COVER_RES_NOT_COVER;
 550:lvgl/src/widgets/lv_img.c ****             return;
 551:lvgl/src/widgets/lv_img.c ****         }
 552:lvgl/src/widgets/lv_img.c **** 
 553:lvgl/src/widgets/lv_img.c ****         /*With not LV_OPA_COVER images can't cover an area */
 554:lvgl/src/widgets/lv_img.c ****         if(lv_obj_get_style_img_opa(obj, LV_PART_MAIN) != LV_OPA_COVER) {
 555:lvgl/src/widgets/lv_img.c ****             info->res = LV_COVER_RES_NOT_COVER;
 556:lvgl/src/widgets/lv_img.c ****             return;
 557:lvgl/src/widgets/lv_img.c ****         }
 558:lvgl/src/widgets/lv_img.c **** 
 559:lvgl/src/widgets/lv_img.c ****         int32_t angle_final = lv_obj_get_style_transform_angle(obj, LV_PART_MAIN);
 560:lvgl/src/widgets/lv_img.c ****         angle_final += img->angle;
 561:lvgl/src/widgets/lv_img.c **** 
 562:lvgl/src/widgets/lv_img.c ****         if(angle_final != 0) {
 563:lvgl/src/widgets/lv_img.c ****             info->res = LV_COVER_RES_NOT_COVER;
 564:lvgl/src/widgets/lv_img.c ****             return;
 565:lvgl/src/widgets/lv_img.c ****         }
 566:lvgl/src/widgets/lv_img.c **** 
 567:lvgl/src/widgets/lv_img.c ****         int32_t zoom_final = lv_obj_get_style_transform_zoom(obj, LV_PART_MAIN);
 568:lvgl/src/widgets/lv_img.c ****         zoom_final = (zoom_final * img->zoom) >> 8;
 569:lvgl/src/widgets/lv_img.c **** 
 570:lvgl/src/widgets/lv_img.c ****         const lv_area_t * clip_area = lv_event_get_param(e);
 571:lvgl/src/widgets/lv_img.c ****         if(zoom_final == LV_IMG_ZOOM_NONE) {
 572:lvgl/src/widgets/lv_img.c ****             if(_lv_area_is_in(clip_area, &obj->coords, 0) == false) {
 573:lvgl/src/widgets/lv_img.c ****                 info->res = LV_COVER_RES_NOT_COVER;
 574:lvgl/src/widgets/lv_img.c ****                 return;
 575:lvgl/src/widgets/lv_img.c ****             }
 576:lvgl/src/widgets/lv_img.c ****         }
 577:lvgl/src/widgets/lv_img.c ****         else {
 578:lvgl/src/widgets/lv_img.c ****             lv_area_t a;
 579:lvgl/src/widgets/lv_img.c ****             _lv_img_buf_get_transformed_area(&a, lv_obj_get_width(obj), lv_obj_get_height(obj), 0, 
 580:lvgl/src/widgets/lv_img.c ****             a.x1 += obj->coords.x1;
 581:lvgl/src/widgets/lv_img.c ****             a.y1 += obj->coords.y1;
 582:lvgl/src/widgets/lv_img.c ****             a.x2 += obj->coords.x1;
 583:lvgl/src/widgets/lv_img.c ****             a.y2 += obj->coords.y1;
 584:lvgl/src/widgets/lv_img.c **** 
 585:lvgl/src/widgets/lv_img.c ****             if(_lv_area_is_in(clip_area, &a, 0) == false) {
ARM GAS  C:\usertemp\ccrOwx87.s 			page 19


 586:lvgl/src/widgets/lv_img.c ****                 info->res = LV_COVER_RES_NOT_COVER;
 587:lvgl/src/widgets/lv_img.c ****                 return;
 588:lvgl/src/widgets/lv_img.c ****             }
 589:lvgl/src/widgets/lv_img.c ****         }
 590:lvgl/src/widgets/lv_img.c ****     }
 591:lvgl/src/widgets/lv_img.c ****     else if(code == LV_EVENT_DRAW_MAIN || code == LV_EVENT_DRAW_POST) {
 218              		.loc 1 591 10 is_stmt 1 view .LVU58
 219              		.loc 1 591 12 is_stmt 0 view .LVU59
 220 001a 182D     		cmp	r5, #24
 221 001c 18BF     		it	ne
 222 001e 152D     		cmpne	r5, #21
 223 0020 00F08180 		beq	.L33
 224              	.LVL17:
 225              	.L3:
 592:lvgl/src/widgets/lv_img.c **** 
 593:lvgl/src/widgets/lv_img.c ****         int32_t zoom_final = lv_obj_get_style_transform_zoom(obj, LV_PART_MAIN);
 594:lvgl/src/widgets/lv_img.c ****         zoom_final = (zoom_final * img->zoom) >> 8;
 595:lvgl/src/widgets/lv_img.c **** 
 596:lvgl/src/widgets/lv_img.c ****         int32_t angle_final = lv_obj_get_style_transform_angle(obj, LV_PART_MAIN);
 597:lvgl/src/widgets/lv_img.c ****         angle_final += img->angle;
 598:lvgl/src/widgets/lv_img.c **** 
 599:lvgl/src/widgets/lv_img.c ****         lv_coord_t obj_w = lv_obj_get_width(obj);
 600:lvgl/src/widgets/lv_img.c ****         lv_coord_t obj_h = lv_obj_get_height(obj);
 601:lvgl/src/widgets/lv_img.c **** 
 602:lvgl/src/widgets/lv_img.c ****         lv_coord_t border_width = lv_obj_get_style_border_width(obj, LV_PART_MAIN);
 603:lvgl/src/widgets/lv_img.c ****         lv_coord_t pleft = lv_obj_get_style_pad_left(obj, LV_PART_MAIN) + border_width;
 604:lvgl/src/widgets/lv_img.c ****         lv_coord_t pright = lv_obj_get_style_pad_right(obj, LV_PART_MAIN) + border_width;
 605:lvgl/src/widgets/lv_img.c ****         lv_coord_t ptop = lv_obj_get_style_pad_top(obj, LV_PART_MAIN) + border_width;
 606:lvgl/src/widgets/lv_img.c ****         lv_coord_t pbottom = lv_obj_get_style_pad_bottom(obj, LV_PART_MAIN) + border_width;
 607:lvgl/src/widgets/lv_img.c **** 
 608:lvgl/src/widgets/lv_img.c ****         lv_point_t bg_pivot;
 609:lvgl/src/widgets/lv_img.c ****         bg_pivot.x = img->pivot.x + pleft;
 610:lvgl/src/widgets/lv_img.c ****         bg_pivot.y = img->pivot.y + ptop;
 611:lvgl/src/widgets/lv_img.c ****         lv_area_t bg_coords;
 612:lvgl/src/widgets/lv_img.c **** 
 613:lvgl/src/widgets/lv_img.c ****         if(img->obj_size_mode == LV_IMG_SIZE_MODE_REAL) {
 614:lvgl/src/widgets/lv_img.c ****             /*Object size equals to transformed image size*/
 615:lvgl/src/widgets/lv_img.c ****             lv_obj_get_coords(obj, &bg_coords);
 616:lvgl/src/widgets/lv_img.c ****         }
 617:lvgl/src/widgets/lv_img.c ****         else {
 618:lvgl/src/widgets/lv_img.c ****             _lv_img_buf_get_transformed_area(&bg_coords, obj_w, obj_h,
 619:lvgl/src/widgets/lv_img.c ****                                              angle_final, zoom_final, &bg_pivot);
 620:lvgl/src/widgets/lv_img.c **** 
 621:lvgl/src/widgets/lv_img.c ****             /*Modify the coordinates to draw the background for the rotated and scaled coordinates*
 622:lvgl/src/widgets/lv_img.c ****             bg_coords.x1 += obj->coords.x1;
 623:lvgl/src/widgets/lv_img.c ****             bg_coords.y1 += obj->coords.y1;
 624:lvgl/src/widgets/lv_img.c ****             bg_coords.x2 += obj->coords.x1;
 625:lvgl/src/widgets/lv_img.c ****             bg_coords.y2 += obj->coords.y1;
 626:lvgl/src/widgets/lv_img.c ****         }
 627:lvgl/src/widgets/lv_img.c **** 
 628:lvgl/src/widgets/lv_img.c ****         lv_area_t ori_coords;
 629:lvgl/src/widgets/lv_img.c ****         lv_area_copy(&ori_coords, &obj->coords);
 630:lvgl/src/widgets/lv_img.c ****         lv_area_copy(&obj->coords, &bg_coords);
 631:lvgl/src/widgets/lv_img.c **** 
 632:lvgl/src/widgets/lv_img.c ****         lv_res_t res = lv_obj_event_base(MY_CLASS, e);
 633:lvgl/src/widgets/lv_img.c ****         if(res != LV_RES_OK) return;
 634:lvgl/src/widgets/lv_img.c **** 
ARM GAS  C:\usertemp\ccrOwx87.s 			page 20


 635:lvgl/src/widgets/lv_img.c ****         lv_area_copy(&obj->coords, &ori_coords);
 636:lvgl/src/widgets/lv_img.c **** 
 637:lvgl/src/widgets/lv_img.c ****         if(code == LV_EVENT_DRAW_MAIN) {
 638:lvgl/src/widgets/lv_img.c ****             if(img->h == 0 || img->w == 0) return;
 639:lvgl/src/widgets/lv_img.c ****             if(zoom_final == 0) return;
 640:lvgl/src/widgets/lv_img.c **** 
 641:lvgl/src/widgets/lv_img.c ****             lv_draw_ctx_t * draw_ctx = lv_event_get_draw_ctx(e);
 642:lvgl/src/widgets/lv_img.c **** 
 643:lvgl/src/widgets/lv_img.c ****             lv_area_t img_max_area;
 644:lvgl/src/widgets/lv_img.c ****             lv_area_copy(&img_max_area, &obj->coords);
 645:lvgl/src/widgets/lv_img.c **** 
 646:lvgl/src/widgets/lv_img.c ****             lv_point_t img_size_final = lv_img_get_transformed_size(obj);
 647:lvgl/src/widgets/lv_img.c **** 
 648:lvgl/src/widgets/lv_img.c ****             if(img->obj_size_mode == LV_IMG_SIZE_MODE_REAL) {
 649:lvgl/src/widgets/lv_img.c ****                 img_max_area.x1 -= ((img->w - img_size_final.x) + 1) / 2;
 650:lvgl/src/widgets/lv_img.c ****                 img_max_area.x2 -= ((img->w - img_size_final.x) + 1) / 2;
 651:lvgl/src/widgets/lv_img.c ****                 img_max_area.y1 -= ((img->h - img_size_final.y) + 1) / 2;
 652:lvgl/src/widgets/lv_img.c ****                 img_max_area.y2 -= ((img->h - img_size_final.y) + 1) / 2;
 653:lvgl/src/widgets/lv_img.c ****             }
 654:lvgl/src/widgets/lv_img.c ****             else {
 655:lvgl/src/widgets/lv_img.c ****                 img_max_area.x2 = img_max_area.x1 + lv_area_get_width(&bg_coords) - 1;
 656:lvgl/src/widgets/lv_img.c ****                 img_max_area.y2 = img_max_area.y1 + lv_area_get_height(&bg_coords) - 1;
 657:lvgl/src/widgets/lv_img.c ****             }
 658:lvgl/src/widgets/lv_img.c **** 
 659:lvgl/src/widgets/lv_img.c ****             img_max_area.x1 += pleft;
 660:lvgl/src/widgets/lv_img.c ****             img_max_area.y1 += ptop;
 661:lvgl/src/widgets/lv_img.c ****             img_max_area.x2 -= pright;
 662:lvgl/src/widgets/lv_img.c ****             img_max_area.y2 -= pbottom;
 663:lvgl/src/widgets/lv_img.c **** 
 664:lvgl/src/widgets/lv_img.c ****             if(img->src_type == LV_IMG_SRC_FILE || img->src_type == LV_IMG_SRC_VARIABLE) {
 665:lvgl/src/widgets/lv_img.c ****                 lv_draw_img_dsc_t img_dsc;
 666:lvgl/src/widgets/lv_img.c ****                 lv_draw_img_dsc_init(&img_dsc);
 667:lvgl/src/widgets/lv_img.c ****                 lv_obj_init_draw_img_dsc(obj, LV_PART_MAIN, &img_dsc);
 668:lvgl/src/widgets/lv_img.c **** 
 669:lvgl/src/widgets/lv_img.c ****                 img_dsc.zoom = zoom_final;
 670:lvgl/src/widgets/lv_img.c ****                 img_dsc.angle = angle_final;
 671:lvgl/src/widgets/lv_img.c ****                 img_dsc.pivot.x = img->pivot.x;
 672:lvgl/src/widgets/lv_img.c ****                 img_dsc.pivot.y = img->pivot.y;
 673:lvgl/src/widgets/lv_img.c ****                 img_dsc.antialias = img->antialias;
 674:lvgl/src/widgets/lv_img.c **** 
 675:lvgl/src/widgets/lv_img.c ****                 lv_area_t img_clip_area;
 676:lvgl/src/widgets/lv_img.c ****                 img_clip_area.x1 = bg_coords.x1 + pleft;
 677:lvgl/src/widgets/lv_img.c ****                 img_clip_area.y1 = bg_coords.y1 + ptop;
 678:lvgl/src/widgets/lv_img.c ****                 img_clip_area.x2 = bg_coords.x2 - pright;
 679:lvgl/src/widgets/lv_img.c ****                 img_clip_area.y2 = bg_coords.y2 - pbottom;
 680:lvgl/src/widgets/lv_img.c ****                 const lv_area_t * clip_area_ori = draw_ctx->clip_area;
 681:lvgl/src/widgets/lv_img.c **** 
 682:lvgl/src/widgets/lv_img.c ****                 if(!_lv_area_intersect(&img_clip_area, draw_ctx->clip_area, &img_clip_area)) return
 683:lvgl/src/widgets/lv_img.c ****                 draw_ctx->clip_area = &img_clip_area;
 684:lvgl/src/widgets/lv_img.c **** 
 685:lvgl/src/widgets/lv_img.c ****                 lv_area_t coords_tmp;
 686:lvgl/src/widgets/lv_img.c ****                 coords_tmp.y1 = img_max_area.y1 + img->offset.y;
 687:lvgl/src/widgets/lv_img.c ****                 if(coords_tmp.y1 > img_max_area.y1) coords_tmp.y1 -= img->h;
 688:lvgl/src/widgets/lv_img.c ****                 coords_tmp.y2 = coords_tmp.y1 + img->h - 1;
 689:lvgl/src/widgets/lv_img.c **** 
 690:lvgl/src/widgets/lv_img.c ****                 for(; coords_tmp.y1 < img_max_area.y2; coords_tmp.y1 += img_size_final.y, coords_tm
 691:lvgl/src/widgets/lv_img.c ****                     coords_tmp.x1 = img_max_area.x1 + img->offset.x;
ARM GAS  C:\usertemp\ccrOwx87.s 			page 21


 692:lvgl/src/widgets/lv_img.c ****                     if(coords_tmp.x1 > img_max_area.x1) coords_tmp.x1 -= img->w;
 693:lvgl/src/widgets/lv_img.c ****                     coords_tmp.x2 = coords_tmp.x1 + img->w - 1;
 694:lvgl/src/widgets/lv_img.c **** 
 695:lvgl/src/widgets/lv_img.c ****                     for(; coords_tmp.x1 < img_max_area.x2; coords_tmp.x1 += img_size_final.x, coord
 696:lvgl/src/widgets/lv_img.c ****                         lv_draw_img(draw_ctx, &img_dsc, &coords_tmp, img->src);
 697:lvgl/src/widgets/lv_img.c ****                     }
 698:lvgl/src/widgets/lv_img.c ****                 }
 699:lvgl/src/widgets/lv_img.c ****                 draw_ctx->clip_area = clip_area_ori;
 700:lvgl/src/widgets/lv_img.c ****             }
 701:lvgl/src/widgets/lv_img.c ****             else if(img->src_type == LV_IMG_SRC_SYMBOL) {
 702:lvgl/src/widgets/lv_img.c ****                 lv_draw_label_dsc_t label_dsc;
 703:lvgl/src/widgets/lv_img.c ****                 lv_draw_label_dsc_init(&label_dsc);
 704:lvgl/src/widgets/lv_img.c ****                 lv_obj_init_draw_label_dsc(obj, LV_PART_MAIN, &label_dsc);
 705:lvgl/src/widgets/lv_img.c **** 
 706:lvgl/src/widgets/lv_img.c ****                 lv_draw_label(draw_ctx, &label_dsc, &obj->coords, img->src, NULL);
 707:lvgl/src/widgets/lv_img.c ****             }
 708:lvgl/src/widgets/lv_img.c ****             else {
 709:lvgl/src/widgets/lv_img.c ****                 /*Trigger the error handler of image draw*/
 710:lvgl/src/widgets/lv_img.c ****                 LV_LOG_WARN("draw_img: image source type is unknown");
 711:lvgl/src/widgets/lv_img.c ****                 lv_draw_img(draw_ctx, NULL, &obj->coords, NULL);
 712:lvgl/src/widgets/lv_img.c ****             }
 713:lvgl/src/widgets/lv_img.c ****         }
 714:lvgl/src/widgets/lv_img.c ****     }
 715:lvgl/src/widgets/lv_img.c **** }
 226              		.loc 1 715 1 view .LVU60
 227 0024 1DB0     		add	sp, sp, #116
 228              	.LCFI5:
 229              		.cfi_remember_state
 230              		.cfi_def_cfa_offset 36
 231              		@ sp needed
 232 0026 BDE8F08F 		pop	{r4, r5, r6, r7, r8, r9, r10, fp, pc}
 233              	.LVL18:
 234              	.L32:
 235              	.LCFI6:
 236              		.cfi_restore_state
 237              	.LBB91:
 540:lvgl/src/widgets/lv_img.c ****         lv_cover_check_info_t * info = lv_event_get_param(e);
 238              		.loc 1 540 9 is_stmt 1 view .LVU61
 540:lvgl/src/widgets/lv_img.c ****         lv_cover_check_info_t * info = lv_event_get_param(e);
 239              		.loc 1 540 40 is_stmt 0 view .LVU62
 240 002a 3046     		mov	r0, r6
 241              	.LVL19:
 540:lvgl/src/widgets/lv_img.c ****         lv_cover_check_info_t * info = lv_event_get_param(e);
 242              		.loc 1 540 40 view .LVU63
 243 002c FFF7FEFF 		bl	lv_event_get_param
 244              	.LVL20:
 245 0030 0546     		mov	r5, r0
 246              	.LVL21:
 541:lvgl/src/widgets/lv_img.c ****         if(img->src_type == LV_IMG_SRC_UNKNOWN || img->src_type == LV_IMG_SRC_SYMBOL) {
 247              		.loc 1 541 9 is_stmt 1 view .LVU64
 541:lvgl/src/widgets/lv_img.c ****         if(img->src_type == LV_IMG_SRC_UNKNOWN || img->src_type == LV_IMG_SRC_SYMBOL) {
 248              		.loc 1 541 16 is_stmt 0 view .LVU65
 249 0032 0378     		ldrb	r3, [r0]	@ zero_extendqisi2
 541:lvgl/src/widgets/lv_img.c ****         if(img->src_type == LV_IMG_SRC_UNKNOWN || img->src_type == LV_IMG_SRC_SYMBOL) {
 250              		.loc 1 541 11 view .LVU66
 251 0034 022B     		cmp	r3, #2
 252 0036 F5D0     		beq	.L3
ARM GAS  C:\usertemp\ccrOwx87.s 			page 22


 542:lvgl/src/widgets/lv_img.c ****             info->res = LV_COVER_RES_NOT_COVER;
 253              		.loc 1 542 9 is_stmt 1 view .LVU67
 542:lvgl/src/widgets/lv_img.c ****             info->res = LV_COVER_RES_NOT_COVER;
 254              		.loc 1 542 26 is_stmt 0 view .LVU68
 255 0038 94F83830 		ldrb	r3, [r4, #56]	@ zero_extendqisi2
 542:lvgl/src/widgets/lv_img.c ****             info->res = LV_COVER_RES_NOT_COVER;
 256              		.loc 1 542 11 view .LVU69
 257 003c 13F0020F 		tst	r3, #2
 258 0040 08D1     		bne	.L34
 548:lvgl/src/widgets/lv_img.c ****             info->res = LV_COVER_RES_NOT_COVER;
 259              		.loc 1 548 9 is_stmt 1 view .LVU70
 548:lvgl/src/widgets/lv_img.c ****             info->res = LV_COVER_RES_NOT_COVER;
 260              		.loc 1 548 44 is_stmt 0 view .LVU71
 261 0042 03F07C03 		and	r3, r3, #124
 548:lvgl/src/widgets/lv_img.c ****             info->res = LV_COVER_RES_NOT_COVER;
 262              		.loc 1 548 11 view .LVU72
 263 0046 102B     		cmp	r3, #16
 264 0048 18BF     		it	ne
 265 004a 042B     		cmpne	r3, #4
 266 004c 05D0     		beq	.L7
 549:lvgl/src/widgets/lv_img.c ****             return;
 267              		.loc 1 549 13 is_stmt 1 view .LVU73
 549:lvgl/src/widgets/lv_img.c ****             return;
 268              		.loc 1 549 23 is_stmt 0 view .LVU74
 269 004e 0123     		movs	r3, #1
 270 0050 0370     		strb	r3, [r0]
 550:lvgl/src/widgets/lv_img.c ****         }
 271              		.loc 1 550 13 is_stmt 1 view .LVU75
 272 0052 E7E7     		b	.L3
 273              	.L34:
 543:lvgl/src/widgets/lv_img.c ****             return;
 274              		.loc 1 543 13 view .LVU76
 543:lvgl/src/widgets/lv_img.c ****             return;
 275              		.loc 1 543 23 is_stmt 0 view .LVU77
 276 0054 0123     		movs	r3, #1
 277 0056 0370     		strb	r3, [r0]
 544:lvgl/src/widgets/lv_img.c ****         }
 278              		.loc 1 544 13 is_stmt 1 view .LVU78
 279 0058 E4E7     		b	.L3
 280              	.L7:
 554:lvgl/src/widgets/lv_img.c ****             info->res = LV_COVER_RES_NOT_COVER;
 281              		.loc 1 554 9 view .LVU79
 282              	.LVL22:
 283              	.LBB92:
 284              	.LBI92:
  89:lvgl/src/widgets/../core/lv_obj_style_gen.h **** }
  90:lvgl/src/widgets/../core/lv_obj_style_gen.h **** 
  91:lvgl/src/widgets/../core/lv_obj_style_gen.h **** static inline lv_coord_t lv_obj_get_style_pad_top(const struct _lv_obj_t * obj, uint32_t part)
  92:lvgl/src/widgets/../core/lv_obj_style_gen.h **** {
  93:lvgl/src/widgets/../core/lv_obj_style_gen.h ****     lv_style_value_t v = lv_obj_get_style_prop(obj, part, LV_STYLE_PAD_TOP);
  94:lvgl/src/widgets/../core/lv_obj_style_gen.h ****     return (lv_coord_t)v.num;
  95:lvgl/src/widgets/../core/lv_obj_style_gen.h **** }
  96:lvgl/src/widgets/../core/lv_obj_style_gen.h **** 
  97:lvgl/src/widgets/../core/lv_obj_style_gen.h **** static inline lv_coord_t lv_obj_get_style_pad_bottom(const struct _lv_obj_t * obj, uint32_t part)
  98:lvgl/src/widgets/../core/lv_obj_style_gen.h **** {
  99:lvgl/src/widgets/../core/lv_obj_style_gen.h ****     lv_style_value_t v = lv_obj_get_style_prop(obj, part, LV_STYLE_PAD_BOTTOM);
 100:lvgl/src/widgets/../core/lv_obj_style_gen.h ****     return (lv_coord_t)v.num;
ARM GAS  C:\usertemp\ccrOwx87.s 			page 23


 101:lvgl/src/widgets/../core/lv_obj_style_gen.h **** }
 102:lvgl/src/widgets/../core/lv_obj_style_gen.h **** 
 103:lvgl/src/widgets/../core/lv_obj_style_gen.h **** static inline lv_coord_t lv_obj_get_style_pad_left(const struct _lv_obj_t * obj, uint32_t part)
 104:lvgl/src/widgets/../core/lv_obj_style_gen.h **** {
 105:lvgl/src/widgets/../core/lv_obj_style_gen.h ****     lv_style_value_t v = lv_obj_get_style_prop(obj, part, LV_STYLE_PAD_LEFT);
 106:lvgl/src/widgets/../core/lv_obj_style_gen.h ****     return (lv_coord_t)v.num;
 107:lvgl/src/widgets/../core/lv_obj_style_gen.h **** }
 108:lvgl/src/widgets/../core/lv_obj_style_gen.h **** 
 109:lvgl/src/widgets/../core/lv_obj_style_gen.h **** static inline lv_coord_t lv_obj_get_style_pad_right(const struct _lv_obj_t * obj, uint32_t part)
 110:lvgl/src/widgets/../core/lv_obj_style_gen.h **** {
 111:lvgl/src/widgets/../core/lv_obj_style_gen.h ****     lv_style_value_t v = lv_obj_get_style_prop(obj, part, LV_STYLE_PAD_RIGHT);
 112:lvgl/src/widgets/../core/lv_obj_style_gen.h ****     return (lv_coord_t)v.num;
 113:lvgl/src/widgets/../core/lv_obj_style_gen.h **** }
 114:lvgl/src/widgets/../core/lv_obj_style_gen.h **** 
 115:lvgl/src/widgets/../core/lv_obj_style_gen.h **** static inline lv_coord_t lv_obj_get_style_pad_row(const struct _lv_obj_t * obj, uint32_t part)
 116:lvgl/src/widgets/../core/lv_obj_style_gen.h **** {
 117:lvgl/src/widgets/../core/lv_obj_style_gen.h ****     lv_style_value_t v = lv_obj_get_style_prop(obj, part, LV_STYLE_PAD_ROW);
 118:lvgl/src/widgets/../core/lv_obj_style_gen.h ****     return (lv_coord_t)v.num;
 119:lvgl/src/widgets/../core/lv_obj_style_gen.h **** }
 120:lvgl/src/widgets/../core/lv_obj_style_gen.h **** 
 121:lvgl/src/widgets/../core/lv_obj_style_gen.h **** static inline lv_coord_t lv_obj_get_style_pad_column(const struct _lv_obj_t * obj, uint32_t part)
 122:lvgl/src/widgets/../core/lv_obj_style_gen.h **** {
 123:lvgl/src/widgets/../core/lv_obj_style_gen.h ****     lv_style_value_t v = lv_obj_get_style_prop(obj, part, LV_STYLE_PAD_COLUMN);
 124:lvgl/src/widgets/../core/lv_obj_style_gen.h ****     return (lv_coord_t)v.num;
 125:lvgl/src/widgets/../core/lv_obj_style_gen.h **** }
 126:lvgl/src/widgets/../core/lv_obj_style_gen.h **** 
 127:lvgl/src/widgets/../core/lv_obj_style_gen.h **** static inline lv_color_t lv_obj_get_style_bg_color(const struct _lv_obj_t * obj, uint32_t part)
 128:lvgl/src/widgets/../core/lv_obj_style_gen.h **** {
 129:lvgl/src/widgets/../core/lv_obj_style_gen.h ****     lv_style_value_t v = lv_obj_get_style_prop(obj, part, LV_STYLE_BG_COLOR);
 130:lvgl/src/widgets/../core/lv_obj_style_gen.h ****     return v.color;
 131:lvgl/src/widgets/../core/lv_obj_style_gen.h **** }
 132:lvgl/src/widgets/../core/lv_obj_style_gen.h **** 
 133:lvgl/src/widgets/../core/lv_obj_style_gen.h **** static inline lv_color_t lv_obj_get_style_bg_color_filtered(const struct _lv_obj_t * obj, uint32_t 
 134:lvgl/src/widgets/../core/lv_obj_style_gen.h **** {
 135:lvgl/src/widgets/../core/lv_obj_style_gen.h ****     lv_style_value_t v = lv_obj_get_style_prop(obj, part, LV_STYLE_BG_COLOR_FILTERED);
 136:lvgl/src/widgets/../core/lv_obj_style_gen.h ****     return v.color;
 137:lvgl/src/widgets/../core/lv_obj_style_gen.h **** }
 138:lvgl/src/widgets/../core/lv_obj_style_gen.h **** 
 139:lvgl/src/widgets/../core/lv_obj_style_gen.h **** static inline lv_opa_t lv_obj_get_style_bg_opa(const struct _lv_obj_t * obj, uint32_t part)
 140:lvgl/src/widgets/../core/lv_obj_style_gen.h **** {
 141:lvgl/src/widgets/../core/lv_obj_style_gen.h ****     lv_style_value_t v = lv_obj_get_style_prop(obj, part, LV_STYLE_BG_OPA);
 142:lvgl/src/widgets/../core/lv_obj_style_gen.h ****     return (lv_opa_t)v.num;
 143:lvgl/src/widgets/../core/lv_obj_style_gen.h **** }
 144:lvgl/src/widgets/../core/lv_obj_style_gen.h **** 
 145:lvgl/src/widgets/../core/lv_obj_style_gen.h **** static inline lv_color_t lv_obj_get_style_bg_grad_color(const struct _lv_obj_t * obj, uint32_t part
 146:lvgl/src/widgets/../core/lv_obj_style_gen.h **** {
 147:lvgl/src/widgets/../core/lv_obj_style_gen.h ****     lv_style_value_t v = lv_obj_get_style_prop(obj, part, LV_STYLE_BG_GRAD_COLOR);
 148:lvgl/src/widgets/../core/lv_obj_style_gen.h ****     return v.color;
 149:lvgl/src/widgets/../core/lv_obj_style_gen.h **** }
 150:lvgl/src/widgets/../core/lv_obj_style_gen.h **** 
 151:lvgl/src/widgets/../core/lv_obj_style_gen.h **** static inline lv_color_t lv_obj_get_style_bg_grad_color_filtered(const struct _lv_obj_t * obj, uint
 152:lvgl/src/widgets/../core/lv_obj_style_gen.h **** {
 153:lvgl/src/widgets/../core/lv_obj_style_gen.h ****     lv_style_value_t v = lv_obj_get_style_prop(obj, part, LV_STYLE_BG_GRAD_COLOR_FILTERED);
 154:lvgl/src/widgets/../core/lv_obj_style_gen.h ****     return v.color;
 155:lvgl/src/widgets/../core/lv_obj_style_gen.h **** }
 156:lvgl/src/widgets/../core/lv_obj_style_gen.h **** 
 157:lvgl/src/widgets/../core/lv_obj_style_gen.h **** static inline lv_grad_dir_t lv_obj_get_style_bg_grad_dir(const struct _lv_obj_t * obj, uint32_t par
ARM GAS  C:\usertemp\ccrOwx87.s 			page 24


 158:lvgl/src/widgets/../core/lv_obj_style_gen.h **** {
 159:lvgl/src/widgets/../core/lv_obj_style_gen.h ****     lv_style_value_t v = lv_obj_get_style_prop(obj, part, LV_STYLE_BG_GRAD_DIR);
 160:lvgl/src/widgets/../core/lv_obj_style_gen.h ****     return (lv_grad_dir_t)v.num;
 161:lvgl/src/widgets/../core/lv_obj_style_gen.h **** }
 162:lvgl/src/widgets/../core/lv_obj_style_gen.h **** 
 163:lvgl/src/widgets/../core/lv_obj_style_gen.h **** static inline lv_coord_t lv_obj_get_style_bg_main_stop(const struct _lv_obj_t * obj, uint32_t part)
 164:lvgl/src/widgets/../core/lv_obj_style_gen.h **** {
 165:lvgl/src/widgets/../core/lv_obj_style_gen.h ****     lv_style_value_t v = lv_obj_get_style_prop(obj, part, LV_STYLE_BG_MAIN_STOP);
 166:lvgl/src/widgets/../core/lv_obj_style_gen.h ****     return (lv_coord_t)v.num;
 167:lvgl/src/widgets/../core/lv_obj_style_gen.h **** }
 168:lvgl/src/widgets/../core/lv_obj_style_gen.h **** 
 169:lvgl/src/widgets/../core/lv_obj_style_gen.h **** static inline lv_coord_t lv_obj_get_style_bg_grad_stop(const struct _lv_obj_t * obj, uint32_t part)
 170:lvgl/src/widgets/../core/lv_obj_style_gen.h **** {
 171:lvgl/src/widgets/../core/lv_obj_style_gen.h ****     lv_style_value_t v = lv_obj_get_style_prop(obj, part, LV_STYLE_BG_GRAD_STOP);
 172:lvgl/src/widgets/../core/lv_obj_style_gen.h ****     return (lv_coord_t)v.num;
 173:lvgl/src/widgets/../core/lv_obj_style_gen.h **** }
 174:lvgl/src/widgets/../core/lv_obj_style_gen.h **** 
 175:lvgl/src/widgets/../core/lv_obj_style_gen.h **** static inline const lv_grad_dsc_t * lv_obj_get_style_bg_grad(const struct _lv_obj_t * obj, uint32_t
 176:lvgl/src/widgets/../core/lv_obj_style_gen.h **** {
 177:lvgl/src/widgets/../core/lv_obj_style_gen.h ****     lv_style_value_t v = lv_obj_get_style_prop(obj, part, LV_STYLE_BG_GRAD);
 178:lvgl/src/widgets/../core/lv_obj_style_gen.h ****     return (const lv_grad_dsc_t *)v.ptr;
 179:lvgl/src/widgets/../core/lv_obj_style_gen.h **** }
 180:lvgl/src/widgets/../core/lv_obj_style_gen.h **** 
 181:lvgl/src/widgets/../core/lv_obj_style_gen.h **** static inline lv_dither_mode_t lv_obj_get_style_bg_dither_mode(const struct _lv_obj_t * obj, uint32
 182:lvgl/src/widgets/../core/lv_obj_style_gen.h **** {
 183:lvgl/src/widgets/../core/lv_obj_style_gen.h ****     lv_style_value_t v = lv_obj_get_style_prop(obj, part, LV_STYLE_BG_DITHER_MODE);
 184:lvgl/src/widgets/../core/lv_obj_style_gen.h ****     return (lv_dither_mode_t)v.num;
 185:lvgl/src/widgets/../core/lv_obj_style_gen.h **** }
 186:lvgl/src/widgets/../core/lv_obj_style_gen.h **** 
 187:lvgl/src/widgets/../core/lv_obj_style_gen.h **** static inline const void * lv_obj_get_style_bg_img_src(const struct _lv_obj_t * obj, uint32_t part)
 188:lvgl/src/widgets/../core/lv_obj_style_gen.h **** {
 189:lvgl/src/widgets/../core/lv_obj_style_gen.h ****     lv_style_value_t v = lv_obj_get_style_prop(obj, part, LV_STYLE_BG_IMG_SRC);
 190:lvgl/src/widgets/../core/lv_obj_style_gen.h ****     return (const void *)v.ptr;
 191:lvgl/src/widgets/../core/lv_obj_style_gen.h **** }
 192:lvgl/src/widgets/../core/lv_obj_style_gen.h **** 
 193:lvgl/src/widgets/../core/lv_obj_style_gen.h **** static inline lv_opa_t lv_obj_get_style_bg_img_opa(const struct _lv_obj_t * obj, uint32_t part)
 194:lvgl/src/widgets/../core/lv_obj_style_gen.h **** {
 195:lvgl/src/widgets/../core/lv_obj_style_gen.h ****     lv_style_value_t v = lv_obj_get_style_prop(obj, part, LV_STYLE_BG_IMG_OPA);
 196:lvgl/src/widgets/../core/lv_obj_style_gen.h ****     return (lv_opa_t)v.num;
 197:lvgl/src/widgets/../core/lv_obj_style_gen.h **** }
 198:lvgl/src/widgets/../core/lv_obj_style_gen.h **** 
 199:lvgl/src/widgets/../core/lv_obj_style_gen.h **** static inline lv_color_t lv_obj_get_style_bg_img_recolor(const struct _lv_obj_t * obj, uint32_t par
 200:lvgl/src/widgets/../core/lv_obj_style_gen.h **** {
 201:lvgl/src/widgets/../core/lv_obj_style_gen.h ****     lv_style_value_t v = lv_obj_get_style_prop(obj, part, LV_STYLE_BG_IMG_RECOLOR);
 202:lvgl/src/widgets/../core/lv_obj_style_gen.h ****     return v.color;
 203:lvgl/src/widgets/../core/lv_obj_style_gen.h **** }
 204:lvgl/src/widgets/../core/lv_obj_style_gen.h **** 
 205:lvgl/src/widgets/../core/lv_obj_style_gen.h **** static inline lv_color_t lv_obj_get_style_bg_img_recolor_filtered(const struct _lv_obj_t * obj, uin
 206:lvgl/src/widgets/../core/lv_obj_style_gen.h **** {
 207:lvgl/src/widgets/../core/lv_obj_style_gen.h ****     lv_style_value_t v = lv_obj_get_style_prop(obj, part, LV_STYLE_BG_IMG_RECOLOR_FILTERED);
 208:lvgl/src/widgets/../core/lv_obj_style_gen.h ****     return v.color;
 209:lvgl/src/widgets/../core/lv_obj_style_gen.h **** }
 210:lvgl/src/widgets/../core/lv_obj_style_gen.h **** 
 211:lvgl/src/widgets/../core/lv_obj_style_gen.h **** static inline lv_opa_t lv_obj_get_style_bg_img_recolor_opa(const struct _lv_obj_t * obj, uint32_t p
 212:lvgl/src/widgets/../core/lv_obj_style_gen.h **** {
 213:lvgl/src/widgets/../core/lv_obj_style_gen.h ****     lv_style_value_t v = lv_obj_get_style_prop(obj, part, LV_STYLE_BG_IMG_RECOLOR_OPA);
 214:lvgl/src/widgets/../core/lv_obj_style_gen.h ****     return (lv_opa_t)v.num;
ARM GAS  C:\usertemp\ccrOwx87.s 			page 25


 215:lvgl/src/widgets/../core/lv_obj_style_gen.h **** }
 216:lvgl/src/widgets/../core/lv_obj_style_gen.h **** 
 217:lvgl/src/widgets/../core/lv_obj_style_gen.h **** static inline bool lv_obj_get_style_bg_img_tiled(const struct _lv_obj_t * obj, uint32_t part)
 218:lvgl/src/widgets/../core/lv_obj_style_gen.h **** {
 219:lvgl/src/widgets/../core/lv_obj_style_gen.h ****     lv_style_value_t v = lv_obj_get_style_prop(obj, part, LV_STYLE_BG_IMG_TILED);
 220:lvgl/src/widgets/../core/lv_obj_style_gen.h ****     return (bool)v.num;
 221:lvgl/src/widgets/../core/lv_obj_style_gen.h **** }
 222:lvgl/src/widgets/../core/lv_obj_style_gen.h **** 
 223:lvgl/src/widgets/../core/lv_obj_style_gen.h **** static inline lv_color_t lv_obj_get_style_border_color(const struct _lv_obj_t * obj, uint32_t part)
 224:lvgl/src/widgets/../core/lv_obj_style_gen.h **** {
 225:lvgl/src/widgets/../core/lv_obj_style_gen.h ****     lv_style_value_t v = lv_obj_get_style_prop(obj, part, LV_STYLE_BORDER_COLOR);
 226:lvgl/src/widgets/../core/lv_obj_style_gen.h ****     return v.color;
 227:lvgl/src/widgets/../core/lv_obj_style_gen.h **** }
 228:lvgl/src/widgets/../core/lv_obj_style_gen.h **** 
 229:lvgl/src/widgets/../core/lv_obj_style_gen.h **** static inline lv_color_t lv_obj_get_style_border_color_filtered(const struct _lv_obj_t * obj, uint3
 230:lvgl/src/widgets/../core/lv_obj_style_gen.h **** {
 231:lvgl/src/widgets/../core/lv_obj_style_gen.h ****     lv_style_value_t v = lv_obj_get_style_prop(obj, part, LV_STYLE_BORDER_COLOR_FILTERED);
 232:lvgl/src/widgets/../core/lv_obj_style_gen.h ****     return v.color;
 233:lvgl/src/widgets/../core/lv_obj_style_gen.h **** }
 234:lvgl/src/widgets/../core/lv_obj_style_gen.h **** 
 235:lvgl/src/widgets/../core/lv_obj_style_gen.h **** static inline lv_opa_t lv_obj_get_style_border_opa(const struct _lv_obj_t * obj, uint32_t part)
 236:lvgl/src/widgets/../core/lv_obj_style_gen.h **** {
 237:lvgl/src/widgets/../core/lv_obj_style_gen.h ****     lv_style_value_t v = lv_obj_get_style_prop(obj, part, LV_STYLE_BORDER_OPA);
 238:lvgl/src/widgets/../core/lv_obj_style_gen.h ****     return (lv_opa_t)v.num;
 239:lvgl/src/widgets/../core/lv_obj_style_gen.h **** }
 240:lvgl/src/widgets/../core/lv_obj_style_gen.h **** 
 241:lvgl/src/widgets/../core/lv_obj_style_gen.h **** static inline lv_coord_t lv_obj_get_style_border_width(const struct _lv_obj_t * obj, uint32_t part)
 242:lvgl/src/widgets/../core/lv_obj_style_gen.h **** {
 243:lvgl/src/widgets/../core/lv_obj_style_gen.h ****     lv_style_value_t v = lv_obj_get_style_prop(obj, part, LV_STYLE_BORDER_WIDTH);
 244:lvgl/src/widgets/../core/lv_obj_style_gen.h ****     return (lv_coord_t)v.num;
 245:lvgl/src/widgets/../core/lv_obj_style_gen.h **** }
 246:lvgl/src/widgets/../core/lv_obj_style_gen.h **** 
 247:lvgl/src/widgets/../core/lv_obj_style_gen.h **** static inline lv_border_side_t lv_obj_get_style_border_side(const struct _lv_obj_t * obj, uint32_t 
 248:lvgl/src/widgets/../core/lv_obj_style_gen.h **** {
 249:lvgl/src/widgets/../core/lv_obj_style_gen.h ****     lv_style_value_t v = lv_obj_get_style_prop(obj, part, LV_STYLE_BORDER_SIDE);
 250:lvgl/src/widgets/../core/lv_obj_style_gen.h ****     return (lv_border_side_t)v.num;
 251:lvgl/src/widgets/../core/lv_obj_style_gen.h **** }
 252:lvgl/src/widgets/../core/lv_obj_style_gen.h **** 
 253:lvgl/src/widgets/../core/lv_obj_style_gen.h **** static inline bool lv_obj_get_style_border_post(const struct _lv_obj_t * obj, uint32_t part)
 254:lvgl/src/widgets/../core/lv_obj_style_gen.h **** {
 255:lvgl/src/widgets/../core/lv_obj_style_gen.h ****     lv_style_value_t v = lv_obj_get_style_prop(obj, part, LV_STYLE_BORDER_POST);
 256:lvgl/src/widgets/../core/lv_obj_style_gen.h ****     return (bool)v.num;
 257:lvgl/src/widgets/../core/lv_obj_style_gen.h **** }
 258:lvgl/src/widgets/../core/lv_obj_style_gen.h **** 
 259:lvgl/src/widgets/../core/lv_obj_style_gen.h **** static inline lv_coord_t lv_obj_get_style_outline_width(const struct _lv_obj_t * obj, uint32_t part
 260:lvgl/src/widgets/../core/lv_obj_style_gen.h **** {
 261:lvgl/src/widgets/../core/lv_obj_style_gen.h ****     lv_style_value_t v = lv_obj_get_style_prop(obj, part, LV_STYLE_OUTLINE_WIDTH);
 262:lvgl/src/widgets/../core/lv_obj_style_gen.h ****     return (lv_coord_t)v.num;
 263:lvgl/src/widgets/../core/lv_obj_style_gen.h **** }
 264:lvgl/src/widgets/../core/lv_obj_style_gen.h **** 
 265:lvgl/src/widgets/../core/lv_obj_style_gen.h **** static inline lv_color_t lv_obj_get_style_outline_color(const struct _lv_obj_t * obj, uint32_t part
 266:lvgl/src/widgets/../core/lv_obj_style_gen.h **** {
 267:lvgl/src/widgets/../core/lv_obj_style_gen.h ****     lv_style_value_t v = lv_obj_get_style_prop(obj, part, LV_STYLE_OUTLINE_COLOR);
 268:lvgl/src/widgets/../core/lv_obj_style_gen.h ****     return v.color;
 269:lvgl/src/widgets/../core/lv_obj_style_gen.h **** }
 270:lvgl/src/widgets/../core/lv_obj_style_gen.h **** 
 271:lvgl/src/widgets/../core/lv_obj_style_gen.h **** static inline lv_color_t lv_obj_get_style_outline_color_filtered(const struct _lv_obj_t * obj, uint
ARM GAS  C:\usertemp\ccrOwx87.s 			page 26


 272:lvgl/src/widgets/../core/lv_obj_style_gen.h **** {
 273:lvgl/src/widgets/../core/lv_obj_style_gen.h ****     lv_style_value_t v = lv_obj_get_style_prop(obj, part, LV_STYLE_OUTLINE_COLOR_FILTERED);
 274:lvgl/src/widgets/../core/lv_obj_style_gen.h ****     return v.color;
 275:lvgl/src/widgets/../core/lv_obj_style_gen.h **** }
 276:lvgl/src/widgets/../core/lv_obj_style_gen.h **** 
 277:lvgl/src/widgets/../core/lv_obj_style_gen.h **** static inline lv_opa_t lv_obj_get_style_outline_opa(const struct _lv_obj_t * obj, uint32_t part)
 278:lvgl/src/widgets/../core/lv_obj_style_gen.h **** {
 279:lvgl/src/widgets/../core/lv_obj_style_gen.h ****     lv_style_value_t v = lv_obj_get_style_prop(obj, part, LV_STYLE_OUTLINE_OPA);
 280:lvgl/src/widgets/../core/lv_obj_style_gen.h ****     return (lv_opa_t)v.num;
 281:lvgl/src/widgets/../core/lv_obj_style_gen.h **** }
 282:lvgl/src/widgets/../core/lv_obj_style_gen.h **** 
 283:lvgl/src/widgets/../core/lv_obj_style_gen.h **** static inline lv_coord_t lv_obj_get_style_outline_pad(const struct _lv_obj_t * obj, uint32_t part)
 284:lvgl/src/widgets/../core/lv_obj_style_gen.h **** {
 285:lvgl/src/widgets/../core/lv_obj_style_gen.h ****     lv_style_value_t v = lv_obj_get_style_prop(obj, part, LV_STYLE_OUTLINE_PAD);
 286:lvgl/src/widgets/../core/lv_obj_style_gen.h ****     return (lv_coord_t)v.num;
 287:lvgl/src/widgets/../core/lv_obj_style_gen.h **** }
 288:lvgl/src/widgets/../core/lv_obj_style_gen.h **** 
 289:lvgl/src/widgets/../core/lv_obj_style_gen.h **** static inline lv_coord_t lv_obj_get_style_shadow_width(const struct _lv_obj_t * obj, uint32_t part)
 290:lvgl/src/widgets/../core/lv_obj_style_gen.h **** {
 291:lvgl/src/widgets/../core/lv_obj_style_gen.h ****     lv_style_value_t v = lv_obj_get_style_prop(obj, part, LV_STYLE_SHADOW_WIDTH);
 292:lvgl/src/widgets/../core/lv_obj_style_gen.h ****     return (lv_coord_t)v.num;
 293:lvgl/src/widgets/../core/lv_obj_style_gen.h **** }
 294:lvgl/src/widgets/../core/lv_obj_style_gen.h **** 
 295:lvgl/src/widgets/../core/lv_obj_style_gen.h **** static inline lv_coord_t lv_obj_get_style_shadow_ofs_x(const struct _lv_obj_t * obj, uint32_t part)
 296:lvgl/src/widgets/../core/lv_obj_style_gen.h **** {
 297:lvgl/src/widgets/../core/lv_obj_style_gen.h ****     lv_style_value_t v = lv_obj_get_style_prop(obj, part, LV_STYLE_SHADOW_OFS_X);
 298:lvgl/src/widgets/../core/lv_obj_style_gen.h ****     return (lv_coord_t)v.num;
 299:lvgl/src/widgets/../core/lv_obj_style_gen.h **** }
 300:lvgl/src/widgets/../core/lv_obj_style_gen.h **** 
 301:lvgl/src/widgets/../core/lv_obj_style_gen.h **** static inline lv_coord_t lv_obj_get_style_shadow_ofs_y(const struct _lv_obj_t * obj, uint32_t part)
 302:lvgl/src/widgets/../core/lv_obj_style_gen.h **** {
 303:lvgl/src/widgets/../core/lv_obj_style_gen.h ****     lv_style_value_t v = lv_obj_get_style_prop(obj, part, LV_STYLE_SHADOW_OFS_Y);
 304:lvgl/src/widgets/../core/lv_obj_style_gen.h ****     return (lv_coord_t)v.num;
 305:lvgl/src/widgets/../core/lv_obj_style_gen.h **** }
 306:lvgl/src/widgets/../core/lv_obj_style_gen.h **** 
 307:lvgl/src/widgets/../core/lv_obj_style_gen.h **** static inline lv_coord_t lv_obj_get_style_shadow_spread(const struct _lv_obj_t * obj, uint32_t part
 308:lvgl/src/widgets/../core/lv_obj_style_gen.h **** {
 309:lvgl/src/widgets/../core/lv_obj_style_gen.h ****     lv_style_value_t v = lv_obj_get_style_prop(obj, part, LV_STYLE_SHADOW_SPREAD);
 310:lvgl/src/widgets/../core/lv_obj_style_gen.h ****     return (lv_coord_t)v.num;
 311:lvgl/src/widgets/../core/lv_obj_style_gen.h **** }
 312:lvgl/src/widgets/../core/lv_obj_style_gen.h **** 
 313:lvgl/src/widgets/../core/lv_obj_style_gen.h **** static inline lv_color_t lv_obj_get_style_shadow_color(const struct _lv_obj_t * obj, uint32_t part)
 314:lvgl/src/widgets/../core/lv_obj_style_gen.h **** {
 315:lvgl/src/widgets/../core/lv_obj_style_gen.h ****     lv_style_value_t v = lv_obj_get_style_prop(obj, part, LV_STYLE_SHADOW_COLOR);
 316:lvgl/src/widgets/../core/lv_obj_style_gen.h ****     return v.color;
 317:lvgl/src/widgets/../core/lv_obj_style_gen.h **** }
 318:lvgl/src/widgets/../core/lv_obj_style_gen.h **** 
 319:lvgl/src/widgets/../core/lv_obj_style_gen.h **** static inline lv_color_t lv_obj_get_style_shadow_color_filtered(const struct _lv_obj_t * obj, uint3
 320:lvgl/src/widgets/../core/lv_obj_style_gen.h **** {
 321:lvgl/src/widgets/../core/lv_obj_style_gen.h ****     lv_style_value_t v = lv_obj_get_style_prop(obj, part, LV_STYLE_SHADOW_COLOR_FILTERED);
 322:lvgl/src/widgets/../core/lv_obj_style_gen.h ****     return v.color;
 323:lvgl/src/widgets/../core/lv_obj_style_gen.h **** }
 324:lvgl/src/widgets/../core/lv_obj_style_gen.h **** 
 325:lvgl/src/widgets/../core/lv_obj_style_gen.h **** static inline lv_opa_t lv_obj_get_style_shadow_opa(const struct _lv_obj_t * obj, uint32_t part)
 326:lvgl/src/widgets/../core/lv_obj_style_gen.h **** {
 327:lvgl/src/widgets/../core/lv_obj_style_gen.h ****     lv_style_value_t v = lv_obj_get_style_prop(obj, part, LV_STYLE_SHADOW_OPA);
 328:lvgl/src/widgets/../core/lv_obj_style_gen.h ****     return (lv_opa_t)v.num;
ARM GAS  C:\usertemp\ccrOwx87.s 			page 27


 329:lvgl/src/widgets/../core/lv_obj_style_gen.h **** }
 330:lvgl/src/widgets/../core/lv_obj_style_gen.h **** 
 331:lvgl/src/widgets/../core/lv_obj_style_gen.h **** static inline lv_opa_t lv_obj_get_style_img_opa(const struct _lv_obj_t * obj, uint32_t part)
 285              		.loc 2 331 24 view .LVU80
 286              	.LBB93:
 332:lvgl/src/widgets/../core/lv_obj_style_gen.h **** {
 333:lvgl/src/widgets/../core/lv_obj_style_gen.h ****     lv_style_value_t v = lv_obj_get_style_prop(obj, part, LV_STYLE_IMG_OPA);
 287              		.loc 2 333 5 view .LVU81
 288              		.loc 2 333 26 is_stmt 0 view .LVU82
 289 005a 4622     		movs	r2, #70
 290 005c 0021     		movs	r1, #0
 291 005e 2046     		mov	r0, r4
 292              	.LVL23:
 293              		.loc 2 333 26 view .LVU83
 294 0060 FFF7FEFF 		bl	lv_obj_get_style_prop
 295              	.LVL24:
 334:lvgl/src/widgets/../core/lv_obj_style_gen.h ****     return (lv_opa_t)v.num;
 296              		.loc 2 334 5 is_stmt 1 view .LVU84
 297              		.loc 2 334 12 is_stmt 0 view .LVU85
 298 0064 C0B2     		uxtb	r0, r0
 299              	.LVL25:
 300              		.loc 2 334 12 view .LVU86
 301              	.LBE93:
 302              	.LBE92:
 554:lvgl/src/widgets/lv_img.c ****             info->res = LV_COVER_RES_NOT_COVER;
 303              		.loc 1 554 11 discriminator 1 view .LVU87
 304 0066 FF28     		cmp	r0, #255
 305 0068 02D0     		beq	.L8
 555:lvgl/src/widgets/lv_img.c ****             return;
 306              		.loc 1 555 13 is_stmt 1 view .LVU88
 555:lvgl/src/widgets/lv_img.c ****             return;
 307              		.loc 1 555 23 is_stmt 0 view .LVU89
 308 006a 0123     		movs	r3, #1
 309 006c 2B70     		strb	r3, [r5]
 556:lvgl/src/widgets/lv_img.c ****         }
 310              		.loc 1 556 13 is_stmt 1 view .LVU90
 311 006e D9E7     		b	.L3
 312              	.L8:
 559:lvgl/src/widgets/lv_img.c ****         angle_final += img->angle;
 313              		.loc 1 559 9 view .LVU91
 314              	.LVL26:
 315              	.LBB94:
 316              	.LBI94:
  85:lvgl/src/widgets/../core/lv_obj_style_gen.h **** {
 317              		.loc 2 85 26 view .LVU92
 318              	.LBB95:
  87:lvgl/src/widgets/../core/lv_obj_style_gen.h ****     return (lv_coord_t)v.num;
 319              		.loc 2 87 5 view .LVU93
  87:lvgl/src/widgets/../core/lv_obj_style_gen.h ****     return (lv_coord_t)v.num;
 320              		.loc 2 87 26 is_stmt 0 view .LVU94
 321 0070 43F60F02 		movw	r2, #14351
 322 0074 0021     		movs	r1, #0
 323 0076 2046     		mov	r0, r4
 324 0078 FFF7FEFF 		bl	lv_obj_get_style_prop
 325              	.LVL27:
  88:lvgl/src/widgets/../core/lv_obj_style_gen.h **** }
 326              		.loc 2 88 5 is_stmt 1 view .LVU95
ARM GAS  C:\usertemp\ccrOwx87.s 			page 28


  88:lvgl/src/widgets/../core/lv_obj_style_gen.h **** }
 327              		.loc 2 88 5 is_stmt 0 view .LVU96
 328              	.LBE95:
 329              	.LBE94:
 560:lvgl/src/widgets/lv_img.c **** 
 330              		.loc 1 560 9 is_stmt 1 view .LVU97
 560:lvgl/src/widgets/lv_img.c **** 
 331              		.loc 1 560 27 is_stmt 0 view .LVU98
 332 007c 238E     		ldrh	r3, [r4, #48]
 560:lvgl/src/widgets/lv_img.c **** 
 333              		.loc 1 560 21 view .LVU99
 334 007e 03FA80F0 		sxtah	r0, r3, r0
 335              	.LVL28:
 562:lvgl/src/widgets/lv_img.c ****             info->res = LV_COVER_RES_NOT_COVER;
 336              		.loc 1 562 9 is_stmt 1 view .LVU100
 562:lvgl/src/widgets/lv_img.c ****             info->res = LV_COVER_RES_NOT_COVER;
 337              		.loc 1 562 11 is_stmt 0 view .LVU101
 338 0082 10B1     		cbz	r0, .L9
 563:lvgl/src/widgets/lv_img.c ****             return;
 339              		.loc 1 563 13 is_stmt 1 view .LVU102
 563:lvgl/src/widgets/lv_img.c ****             return;
 340              		.loc 1 563 23 is_stmt 0 view .LVU103
 341 0084 0123     		movs	r3, #1
 342 0086 2B70     		strb	r3, [r5]
 564:lvgl/src/widgets/lv_img.c ****         }
 343              		.loc 1 564 13 is_stmt 1 view .LVU104
 344 0088 CCE7     		b	.L3
 345              	.L9:
 567:lvgl/src/widgets/lv_img.c ****         zoom_final = (zoom_final * img->zoom) >> 8;
 346              		.loc 1 567 9 view .LVU105
 347              	.LVL29:
 348              	.LBB96:
 349              	.LBI96:
  79:lvgl/src/widgets/../core/lv_obj_style_gen.h **** {
 350              		.loc 2 79 26 view .LVU106
 351              	.LBB97:
  81:lvgl/src/widgets/../core/lv_obj_style_gen.h ****     return (lv_coord_t)v.num;
 352              		.loc 2 81 5 view .LVU107
  81:lvgl/src/widgets/../core/lv_obj_style_gen.h ****     return (lv_coord_t)v.num;
 353              		.loc 2 81 26 is_stmt 0 view .LVU108
 354 008a 43F60E02 		movw	r2, #14350
 355 008e 0021     		movs	r1, #0
 356 0090 2046     		mov	r0, r4
 357              	.LVL30:
  81:lvgl/src/widgets/../core/lv_obj_style_gen.h ****     return (lv_coord_t)v.num;
 358              		.loc 2 81 26 view .LVU109
 359 0092 FFF7FEFF 		bl	lv_obj_get_style_prop
 360              	.LVL31:
  82:lvgl/src/widgets/../core/lv_obj_style_gen.h **** }
 361              		.loc 2 82 5 is_stmt 1 view .LVU110
  82:lvgl/src/widgets/../core/lv_obj_style_gen.h **** }
 362              		.loc 2 82 12 is_stmt 0 view .LVU111
 363 0096 03B2     		sxth	r3, r0
 364              	.LVL32:
  82:lvgl/src/widgets/../core/lv_obj_style_gen.h **** }
 365              		.loc 2 82 12 view .LVU112
 366              	.LBE97:
ARM GAS  C:\usertemp\ccrOwx87.s 			page 29


 367              	.LBE96:
 568:lvgl/src/widgets/lv_img.c **** 
 368              		.loc 1 568 9 is_stmt 1 view .LVU113
 568:lvgl/src/widgets/lv_img.c **** 
 369              		.loc 1 568 39 is_stmt 0 view .LVU114
 370 0098 E78E     		ldrh	r7, [r4, #54]
 568:lvgl/src/widgets/lv_img.c **** 
 371              		.loc 1 568 34 view .LVU115
 372 009a 03FB07F7 		mul	r7, r3, r7
 568:lvgl/src/widgets/lv_img.c **** 
 373              		.loc 1 568 20 view .LVU116
 374 009e 3F12     		asrs	r7, r7, #8
 375              	.LVL33:
 570:lvgl/src/widgets/lv_img.c ****         if(zoom_final == LV_IMG_ZOOM_NONE) {
 376              		.loc 1 570 9 is_stmt 1 view .LVU117
 570:lvgl/src/widgets/lv_img.c ****         if(zoom_final == LV_IMG_ZOOM_NONE) {
 377              		.loc 1 570 39 is_stmt 0 view .LVU118
 378 00a0 3046     		mov	r0, r6
 379 00a2 FFF7FEFF 		bl	lv_event_get_param
 380              	.LVL34:
 381 00a6 0646     		mov	r6, r0
 382              	.LVL35:
 571:lvgl/src/widgets/lv_img.c ****             if(_lv_area_is_in(clip_area, &obj->coords, 0) == false) {
 383              		.loc 1 571 9 is_stmt 1 view .LVU119
 571:lvgl/src/widgets/lv_img.c ****             if(_lv_area_is_in(clip_area, &obj->coords, 0) == false) {
 384              		.loc 1 571 11 is_stmt 0 view .LVU120
 385 00a8 B7F5807F 		cmp	r7, #256
 386 00ac 31D0     		beq	.L35
 387              	.LBB98:
 578:lvgl/src/widgets/lv_img.c ****             _lv_img_buf_get_transformed_area(&a, lv_obj_get_width(obj), lv_obj_get_height(obj), 0, 
 388              		.loc 1 578 13 is_stmt 1 view .LVU121
 579:lvgl/src/widgets/lv_img.c ****             a.x1 += obj->coords.x1;
 389              		.loc 1 579 13 view .LVU122
 390 00ae 2046     		mov	r0, r4
 391              	.LVL36:
 579:lvgl/src/widgets/lv_img.c ****             a.x1 += obj->coords.x1;
 392              		.loc 1 579 13 is_stmt 0 view .LVU123
 393 00b0 FFF7FEFF 		bl	lv_obj_get_width
 394              	.LVL37:
 395 00b4 8046     		mov	r8, r0
 579:lvgl/src/widgets/lv_img.c ****             a.x1 += obj->coords.x1;
 396              		.loc 1 579 13 discriminator 1 view .LVU124
 397 00b6 2046     		mov	r0, r4
 398 00b8 FFF7FEFF 		bl	lv_obj_get_height
 399              	.LVL38:
 400 00bc 0246     		mov	r2, r0
 579:lvgl/src/widgets/lv_img.c ****             a.x1 += obj->coords.x1;
 401              		.loc 1 579 112 discriminator 2 view .LVU125
 402 00be 04F13203 		add	r3, r4, #50
 579:lvgl/src/widgets/lv_img.c ****             a.x1 += obj->coords.x1;
 403              		.loc 1 579 13 discriminator 2 view .LVU126
 404 00c2 0193     		str	r3, [sp, #4]
 405 00c4 BFB2     		uxth	r7, r7
 406              	.LVL39:
 579:lvgl/src/widgets/lv_img.c ****             a.x1 += obj->coords.x1;
 407              		.loc 1 579 13 discriminator 2 view .LVU127
 408 00c6 0097     		str	r7, [sp]
ARM GAS  C:\usertemp\ccrOwx87.s 			page 30


 409 00c8 0023     		movs	r3, #0
 410 00ca 4146     		mov	r1, r8
 411 00cc 14A8     		add	r0, sp, #80
 412 00ce FFF7FEFF 		bl	_lv_img_buf_get_transformed_area
 413              	.LVL40:
 580:lvgl/src/widgets/lv_img.c ****             a.y1 += obj->coords.y1;
 414              		.loc 1 580 13 is_stmt 1 view .LVU128
 580:lvgl/src/widgets/lv_img.c ****             a.y1 += obj->coords.y1;
 415              		.loc 1 580 14 is_stmt 0 view .LVU129
 416 00d2 BDF85030 		ldrh	r3, [sp, #80]
 580:lvgl/src/widgets/lv_img.c ****             a.y1 += obj->coords.y1;
 417              		.loc 1 580 32 view .LVU130
 418 00d6 A28A     		ldrh	r2, [r4, #20]
 580:lvgl/src/widgets/lv_img.c ****             a.y1 += obj->coords.y1;
 419              		.loc 1 580 18 view .LVU131
 420 00d8 1344     		add	r3, r3, r2
 421 00da ADF85030 		strh	r3, [sp, #80]	@ movhi
 581:lvgl/src/widgets/lv_img.c ****             a.x2 += obj->coords.x1;
 422              		.loc 1 581 13 is_stmt 1 view .LVU132
 581:lvgl/src/widgets/lv_img.c ****             a.x2 += obj->coords.x1;
 423              		.loc 1 581 14 is_stmt 0 view .LVU133
 424 00de BDF85210 		ldrh	r1, [sp, #82]
 581:lvgl/src/widgets/lv_img.c ****             a.x2 += obj->coords.x1;
 425              		.loc 1 581 32 view .LVU134
 426 00e2 E38A     		ldrh	r3, [r4, #22]
 581:lvgl/src/widgets/lv_img.c ****             a.x2 += obj->coords.x1;
 427              		.loc 1 581 18 view .LVU135
 428 00e4 1944     		add	r1, r1, r3
 429 00e6 ADF85210 		strh	r1, [sp, #82]	@ movhi
 582:lvgl/src/widgets/lv_img.c ****             a.y2 += obj->coords.y1;
 430              		.loc 1 582 13 is_stmt 1 view .LVU136
 582:lvgl/src/widgets/lv_img.c ****             a.y2 += obj->coords.y1;
 431              		.loc 1 582 14 is_stmt 0 view .LVU137
 432 00ea BDF85410 		ldrh	r1, [sp, #84]
 582:lvgl/src/widgets/lv_img.c ****             a.y2 += obj->coords.y1;
 433              		.loc 1 582 18 view .LVU138
 434 00ee 0A44     		add	r2, r2, r1
 435 00f0 ADF85420 		strh	r2, [sp, #84]	@ movhi
 583:lvgl/src/widgets/lv_img.c **** 
 436              		.loc 1 583 13 is_stmt 1 view .LVU139
 583:lvgl/src/widgets/lv_img.c **** 
 437              		.loc 1 583 14 is_stmt 0 view .LVU140
 438 00f4 BDF85620 		ldrh	r2, [sp, #86]
 583:lvgl/src/widgets/lv_img.c **** 
 439              		.loc 1 583 18 view .LVU141
 440 00f8 1344     		add	r3, r3, r2
 441 00fa ADF85630 		strh	r3, [sp, #86]	@ movhi
 585:lvgl/src/widgets/lv_img.c ****                 info->res = LV_COVER_RES_NOT_COVER;
 442              		.loc 1 585 13 is_stmt 1 view .LVU142
 585:lvgl/src/widgets/lv_img.c ****                 info->res = LV_COVER_RES_NOT_COVER;
 443              		.loc 1 585 16 is_stmt 0 view .LVU143
 444 00fe 0022     		movs	r2, #0
 445 0100 14A9     		add	r1, sp, #80
 446 0102 3046     		mov	r0, r6
 447 0104 FFF7FEFF 		bl	_lv_area_is_in
 448              	.LVL41:
 585:lvgl/src/widgets/lv_img.c ****                 info->res = LV_COVER_RES_NOT_COVER;
ARM GAS  C:\usertemp\ccrOwx87.s 			page 31


 449              		.loc 1 585 15 discriminator 1 view .LVU144
 450 0108 0028     		cmp	r0, #0
 451 010a 8BD1     		bne	.L3
 586:lvgl/src/widgets/lv_img.c ****                 return;
 452              		.loc 1 586 17 is_stmt 1 view .LVU145
 586:lvgl/src/widgets/lv_img.c ****                 return;
 453              		.loc 1 586 27 is_stmt 0 view .LVU146
 454 010c 0123     		movs	r3, #1
 455 010e 2B70     		strb	r3, [r5]
 587:lvgl/src/widgets/lv_img.c ****             }
 456              		.loc 1 587 17 is_stmt 1 view .LVU147
 457 0110 88E7     		b	.L3
 458              	.LVL42:
 459              	.L35:
 587:lvgl/src/widgets/lv_img.c ****             }
 460              		.loc 1 587 17 is_stmt 0 view .LVU148
 461              	.LBE98:
 572:lvgl/src/widgets/lv_img.c ****                 info->res = LV_COVER_RES_NOT_COVER;
 462              		.loc 1 572 13 is_stmt 1 view .LVU149
 572:lvgl/src/widgets/lv_img.c ****                 info->res = LV_COVER_RES_NOT_COVER;
 463              		.loc 1 572 16 is_stmt 0 view .LVU150
 464 0112 0022     		movs	r2, #0
 465 0114 04F11401 		add	r1, r4, #20
 466 0118 FFF7FEFF 		bl	_lv_area_is_in
 467              	.LVL43:
 572:lvgl/src/widgets/lv_img.c ****                 info->res = LV_COVER_RES_NOT_COVER;
 468              		.loc 1 572 15 discriminator 1 view .LVU151
 469 011c 0028     		cmp	r0, #0
 470 011e 81D1     		bne	.L3
 573:lvgl/src/widgets/lv_img.c ****                 return;
 471              		.loc 1 573 17 is_stmt 1 view .LVU152
 573:lvgl/src/widgets/lv_img.c ****                 return;
 472              		.loc 1 573 27 is_stmt 0 view .LVU153
 473 0120 0123     		movs	r3, #1
 474 0122 2B70     		strb	r3, [r5]
 574:lvgl/src/widgets/lv_img.c ****             }
 475              		.loc 1 574 17 is_stmt 1 view .LVU154
 476 0124 7EE7     		b	.L3
 477              	.LVL44:
 478              	.L33:
 574:lvgl/src/widgets/lv_img.c ****             }
 479              		.loc 1 574 17 is_stmt 0 view .LVU155
 480              	.LBE91:
 481              	.LBB99:
 593:lvgl/src/widgets/lv_img.c ****         zoom_final = (zoom_final * img->zoom) >> 8;
 482              		.loc 1 593 9 is_stmt 1 view .LVU156
 483              	.LBB100:
 484              	.LBI100:
  79:lvgl/src/widgets/../core/lv_obj_style_gen.h **** {
 485              		.loc 2 79 26 view .LVU157
 486              	.LBB101:
  81:lvgl/src/widgets/../core/lv_obj_style_gen.h ****     return (lv_coord_t)v.num;
 487              		.loc 2 81 5 view .LVU158
  81:lvgl/src/widgets/../core/lv_obj_style_gen.h ****     return (lv_coord_t)v.num;
 488              		.loc 2 81 26 is_stmt 0 view .LVU159
 489 0126 43F60E02 		movw	r2, #14350
 490 012a 0021     		movs	r1, #0
ARM GAS  C:\usertemp\ccrOwx87.s 			page 32


 491 012c FFF7FEFF 		bl	lv_obj_get_style_prop
 492              	.LVL45:
  82:lvgl/src/widgets/../core/lv_obj_style_gen.h **** }
 493              		.loc 2 82 5 is_stmt 1 view .LVU160
  82:lvgl/src/widgets/../core/lv_obj_style_gen.h **** }
 494              		.loc 2 82 12 is_stmt 0 view .LVU161
 495 0130 00B2     		sxth	r0, r0
 496              	.LVL46:
  82:lvgl/src/widgets/../core/lv_obj_style_gen.h **** }
 497              		.loc 2 82 12 view .LVU162
 498              	.LBE101:
 499              	.LBE100:
 594:lvgl/src/widgets/lv_img.c **** 
 500              		.loc 1 594 9 is_stmt 1 view .LVU163
 594:lvgl/src/widgets/lv_img.c **** 
 501              		.loc 1 594 39 is_stmt 0 view .LVU164
 502 0132 E38E     		ldrh	r3, [r4, #54]
 594:lvgl/src/widgets/lv_img.c **** 
 503              		.loc 1 594 34 view .LVU165
 504 0134 00FB03F3 		mul	r3, r0, r3
 594:lvgl/src/widgets/lv_img.c **** 
 505              		.loc 1 594 20 view .LVU166
 506 0138 1B12     		asrs	r3, r3, #8
 507 013a 0393     		str	r3, [sp, #12]
 508              	.LVL47:
 596:lvgl/src/widgets/lv_img.c ****         angle_final += img->angle;
 509              		.loc 1 596 9 is_stmt 1 view .LVU167
 510              	.LBB102:
 511              	.LBI102:
  85:lvgl/src/widgets/../core/lv_obj_style_gen.h **** {
 512              		.loc 2 85 26 view .LVU168
 513              	.LBB103:
  87:lvgl/src/widgets/../core/lv_obj_style_gen.h ****     return (lv_coord_t)v.num;
 514              		.loc 2 87 5 view .LVU169
  87:lvgl/src/widgets/../core/lv_obj_style_gen.h ****     return (lv_coord_t)v.num;
 515              		.loc 2 87 26 is_stmt 0 view .LVU170
 516 013c 43F60F02 		movw	r2, #14351
 517 0140 0021     		movs	r1, #0
 518 0142 2046     		mov	r0, r4
 519 0144 FFF7FEFF 		bl	lv_obj_get_style_prop
 520              	.LVL48:
  88:lvgl/src/widgets/../core/lv_obj_style_gen.h **** }
 521              		.loc 2 88 5 is_stmt 1 view .LVU171
  88:lvgl/src/widgets/../core/lv_obj_style_gen.h **** }
 522              		.loc 2 88 5 is_stmt 0 view .LVU172
 523              	.LBE103:
 524              	.LBE102:
 597:lvgl/src/widgets/lv_img.c **** 
 525              		.loc 1 597 9 is_stmt 1 view .LVU173
 597:lvgl/src/widgets/lv_img.c **** 
 526              		.loc 1 597 27 is_stmt 0 view .LVU174
 527 0148 238E     		ldrh	r3, [r4, #48]
 597:lvgl/src/widgets/lv_img.c **** 
 528              		.loc 1 597 21 view .LVU175
 529 014a 03FA80F3 		sxtah	r3, r3, r0
 530 014e 0493     		str	r3, [sp, #16]
 531              	.LVL49:
ARM GAS  C:\usertemp\ccrOwx87.s 			page 33


 599:lvgl/src/widgets/lv_img.c ****         lv_coord_t obj_h = lv_obj_get_height(obj);
 532              		.loc 1 599 9 is_stmt 1 view .LVU176
 599:lvgl/src/widgets/lv_img.c ****         lv_coord_t obj_h = lv_obj_get_height(obj);
 533              		.loc 1 599 28 is_stmt 0 view .LVU177
 534 0150 2046     		mov	r0, r4
 535 0152 FFF7FEFF 		bl	lv_obj_get_width
 536              	.LVL50:
 599:lvgl/src/widgets/lv_img.c ****         lv_coord_t obj_h = lv_obj_get_height(obj);
 537              		.loc 1 599 28 view .LVU178
 538 0156 8146     		mov	r9, r0
 539              	.LVL51:
 600:lvgl/src/widgets/lv_img.c **** 
 540              		.loc 1 600 9 is_stmt 1 view .LVU179
 600:lvgl/src/widgets/lv_img.c **** 
 541              		.loc 1 600 28 is_stmt 0 view .LVU180
 542 0158 2046     		mov	r0, r4
 543 015a FFF7FEFF 		bl	lv_obj_get_height
 544              	.LVL52:
 545 015e 8246     		mov	r10, r0
 546              	.LVL53:
 602:lvgl/src/widgets/lv_img.c ****         lv_coord_t pleft = lv_obj_get_style_pad_left(obj, LV_PART_MAIN) + border_width;
 547              		.loc 1 602 9 is_stmt 1 view .LVU181
 548              	.LBB104:
 549              	.LBI104:
 241:lvgl/src/widgets/../core/lv_obj_style_gen.h **** {
 550              		.loc 2 241 26 view .LVU182
 551              	.LBB105:
 243:lvgl/src/widgets/../core/lv_obj_style_gen.h ****     return (lv_coord_t)v.num;
 552              		.loc 2 243 5 view .LVU183
 243:lvgl/src/widgets/../core/lv_obj_style_gen.h ****     return (lv_coord_t)v.num;
 553              		.loc 2 243 26 is_stmt 0 view .LVU184
 554 0160 41F23202 		movw	r2, #4146
 555 0164 0021     		movs	r1, #0
 556 0166 2046     		mov	r0, r4
 557 0168 FFF7FEFF 		bl	lv_obj_get_style_prop
 558              	.LVL54:
 559 016c 8046     		mov	r8, r0
 560              	.LVL55:
 244:lvgl/src/widgets/../core/lv_obj_style_gen.h **** }
 561              		.loc 2 244 5 is_stmt 1 view .LVU185
 244:lvgl/src/widgets/../core/lv_obj_style_gen.h **** }
 562              		.loc 2 244 5 is_stmt 0 view .LVU186
 563              	.LBE105:
 564              	.LBE104:
 603:lvgl/src/widgets/lv_img.c ****         lv_coord_t pright = lv_obj_get_style_pad_right(obj, LV_PART_MAIN) + border_width;
 565              		.loc 1 603 9 is_stmt 1 view .LVU187
 566              	.LBB106:
 567              	.LBI106:
 103:lvgl/src/widgets/../core/lv_obj_style_gen.h **** {
 568              		.loc 2 103 26 view .LVU188
 569              	.LBB107:
 105:lvgl/src/widgets/../core/lv_obj_style_gen.h ****     return (lv_coord_t)v.num;
 570              		.loc 2 105 5 view .LVU189
 105:lvgl/src/widgets/../core/lv_obj_style_gen.h ****     return (lv_coord_t)v.num;
 571              		.loc 2 105 26 is_stmt 0 view .LVU190
 572 016e 41F61202 		movw	r2, #6162
 573 0172 0021     		movs	r1, #0
ARM GAS  C:\usertemp\ccrOwx87.s 			page 34


 574 0174 2046     		mov	r0, r4
 575 0176 FFF7FEFF 		bl	lv_obj_get_style_prop
 576              	.LVL56:
 106:lvgl/src/widgets/../core/lv_obj_style_gen.h **** }
 577              		.loc 2 106 5 is_stmt 1 view .LVU191
 106:lvgl/src/widgets/../core/lv_obj_style_gen.h **** }
 578              		.loc 2 106 5 is_stmt 0 view .LVU192
 579              	.LBE107:
 580              	.LBE106:
 603:lvgl/src/widgets/lv_img.c ****         lv_coord_t pright = lv_obj_get_style_pad_right(obj, LV_PART_MAIN) + border_width;
 581              		.loc 1 603 73 discriminator 1 view .LVU193
 582 017a 1FFA88F8 		uxth	r8, r8
 603:lvgl/src/widgets/lv_img.c ****         lv_coord_t pright = lv_obj_get_style_pad_right(obj, LV_PART_MAIN) + border_width;
 583              		.loc 1 603 73 discriminator 1 view .LVU194
 584 017e 18FA80F0 		uxtah	r0, r8, r0
 585 0182 83B2     		uxth	r3, r0
 586 0184 0293     		str	r3, [sp, #8]
 587              	.LVL57:
 604:lvgl/src/widgets/lv_img.c ****         lv_coord_t ptop = lv_obj_get_style_pad_top(obj, LV_PART_MAIN) + border_width;
 588              		.loc 1 604 9 is_stmt 1 view .LVU195
 589              	.LBB108:
 590              	.LBI108:
 109:lvgl/src/widgets/../core/lv_obj_style_gen.h **** {
 591              		.loc 2 109 26 view .LVU196
 592              	.LBB109:
 111:lvgl/src/widgets/../core/lv_obj_style_gen.h ****     return (lv_coord_t)v.num;
 593              		.loc 2 111 5 view .LVU197
 111:lvgl/src/widgets/../core/lv_obj_style_gen.h ****     return (lv_coord_t)v.num;
 594              		.loc 2 111 26 is_stmt 0 view .LVU198
 595 0186 41F61302 		movw	r2, #6163
 596 018a 0021     		movs	r1, #0
 597 018c 2046     		mov	r0, r4
 598 018e FFF7FEFF 		bl	lv_obj_get_style_prop
 599              	.LVL58:
 112:lvgl/src/widgets/../core/lv_obj_style_gen.h **** }
 600              		.loc 2 112 5 is_stmt 1 view .LVU199
 112:lvgl/src/widgets/../core/lv_obj_style_gen.h **** }
 601              		.loc 2 112 5 is_stmt 0 view .LVU200
 602              	.LBE109:
 603              	.LBE108:
 604:lvgl/src/widgets/lv_img.c ****         lv_coord_t ptop = lv_obj_get_style_pad_top(obj, LV_PART_MAIN) + border_width;
 604              		.loc 1 604 75 discriminator 1 view .LVU201
 605 0192 18FA80F0 		uxtah	r0, r8, r0
 606 0196 81B2     		uxth	r1, r0
 607 0198 0591     		str	r1, [sp, #20]
 608              	.LVL59:
 605:lvgl/src/widgets/lv_img.c ****         lv_coord_t pbottom = lv_obj_get_style_pad_bottom(obj, LV_PART_MAIN) + border_width;
 609              		.loc 1 605 9 is_stmt 1 view .LVU202
 610              	.LBB110:
 611              	.LBI110:
  91:lvgl/src/widgets/../core/lv_obj_style_gen.h **** {
 612              		.loc 2 91 26 view .LVU203
 613              	.LBB111:
  93:lvgl/src/widgets/../core/lv_obj_style_gen.h ****     return (lv_coord_t)v.num;
 614              		.loc 2 93 5 view .LVU204
  93:lvgl/src/widgets/../core/lv_obj_style_gen.h ****     return (lv_coord_t)v.num;
 615              		.loc 2 93 26 is_stmt 0 view .LVU205
ARM GAS  C:\usertemp\ccrOwx87.s 			page 35


 616 019a 41F61002 		movw	r2, #6160
 617 019e 0021     		movs	r1, #0
 618 01a0 2046     		mov	r0, r4
 619 01a2 FFF7FEFF 		bl	lv_obj_get_style_prop
 620              	.LVL60:
  94:lvgl/src/widgets/../core/lv_obj_style_gen.h **** }
 621              		.loc 2 94 5 is_stmt 1 view .LVU206
  94:lvgl/src/widgets/../core/lv_obj_style_gen.h **** }
 622              		.loc 2 94 5 is_stmt 0 view .LVU207
 623              	.LBE111:
 624              	.LBE110:
 605:lvgl/src/widgets/lv_img.c ****         lv_coord_t pbottom = lv_obj_get_style_pad_bottom(obj, LV_PART_MAIN) + border_width;
 625              		.loc 1 605 71 discriminator 1 view .LVU208
 626 01a6 18FA80F7 		uxtah	r7, r8, r0
 627 01aa BFB2     		uxth	r7, r7
 628              	.LVL61:
 606:lvgl/src/widgets/lv_img.c **** 
 629              		.loc 1 606 9 is_stmt 1 view .LVU209
 630              	.LBB112:
 631              	.LBI112:
  97:lvgl/src/widgets/../core/lv_obj_style_gen.h **** {
 632              		.loc 2 97 26 view .LVU210
 633              	.LBB113:
  99:lvgl/src/widgets/../core/lv_obj_style_gen.h ****     return (lv_coord_t)v.num;
 634              		.loc 2 99 5 view .LVU211
  99:lvgl/src/widgets/../core/lv_obj_style_gen.h ****     return (lv_coord_t)v.num;
 635              		.loc 2 99 26 is_stmt 0 view .LVU212
 636 01ac 41F61102 		movw	r2, #6161
 637 01b0 0021     		movs	r1, #0
 638 01b2 2046     		mov	r0, r4
 639 01b4 FFF7FEFF 		bl	lv_obj_get_style_prop
 640              	.LVL62:
 100:lvgl/src/widgets/../core/lv_obj_style_gen.h **** }
 641              		.loc 2 100 5 is_stmt 1 view .LVU213
 100:lvgl/src/widgets/../core/lv_obj_style_gen.h **** }
 642              		.loc 2 100 5 is_stmt 0 view .LVU214
 643              	.LBE113:
 644              	.LBE112:
 606:lvgl/src/widgets/lv_img.c **** 
 645              		.loc 1 606 77 discriminator 1 view .LVU215
 646 01b8 18FA80F0 		uxtah	r0, r8, r0
 647 01bc 81B2     		uxth	r1, r0
 648 01be 0691     		str	r1, [sp, #24]
 649              	.LVL63:
 608:lvgl/src/widgets/lv_img.c ****         bg_pivot.x = img->pivot.x + pleft;
 650              		.loc 1 608 9 is_stmt 1 view .LVU216
 609:lvgl/src/widgets/lv_img.c ****         bg_pivot.y = img->pivot.y + ptop;
 651              		.loc 1 609 9 view .LVU217
 609:lvgl/src/widgets/lv_img.c ****         bg_pivot.y = img->pivot.y + ptop;
 652              		.loc 1 609 32 is_stmt 0 view .LVU218
 653 01c0 638E     		ldrh	r3, [r4, #50]
 609:lvgl/src/widgets/lv_img.c ****         bg_pivot.y = img->pivot.y + ptop;
 654              		.loc 1 609 35 view .LVU219
 655 01c2 029A     		ldr	r2, [sp, #8]
 656 01c4 1344     		add	r3, r3, r2
 609:lvgl/src/widgets/lv_img.c ****         bg_pivot.y = img->pivot.y + ptop;
 657              		.loc 1 609 20 view .LVU220
ARM GAS  C:\usertemp\ccrOwx87.s 			page 36


 658 01c6 ADF82030 		strh	r3, [sp, #32]	@ movhi
 610:lvgl/src/widgets/lv_img.c ****         lv_area_t bg_coords;
 659              		.loc 1 610 9 is_stmt 1 view .LVU221
 610:lvgl/src/widgets/lv_img.c ****         lv_area_t bg_coords;
 660              		.loc 1 610 32 is_stmt 0 view .LVU222
 661 01ca A38E     		ldrh	r3, [r4, #52]
 610:lvgl/src/widgets/lv_img.c ****         lv_area_t bg_coords;
 662              		.loc 1 610 35 view .LVU223
 663 01cc 3B44     		add	r3, r3, r7
 610:lvgl/src/widgets/lv_img.c ****         lv_area_t bg_coords;
 664              		.loc 1 610 20 view .LVU224
 665 01ce ADF82230 		strh	r3, [sp, #34]	@ movhi
 611:lvgl/src/widgets/lv_img.c **** 
 666              		.loc 1 611 9 is_stmt 1 view .LVU225
 613:lvgl/src/widgets/lv_img.c ****             /*Object size equals to transformed image size*/
 667              		.loc 1 613 9 view .LVU226
 613:lvgl/src/widgets/lv_img.c ****             /*Object size equals to transformed image size*/
 668              		.loc 1 613 31 is_stmt 0 view .LVU227
 669 01d2 94F83930 		ldrb	r3, [r4, #57]	@ zero_extendqisi2
 670 01d6 03F00303 		and	r3, r3, #3
 613:lvgl/src/widgets/lv_img.c ****             /*Object size equals to transformed image size*/
 671              		.loc 1 613 11 view .LVU228
 672 01da 012B     		cmp	r3, #1
 673 01dc 00F0CC80 		beq	.L36
 618:lvgl/src/widgets/lv_img.c ****                                              angle_final, zoom_final, &bg_pivot);
 674              		.loc 1 618 13 is_stmt 1 view .LVU229
 675 01e0 08AB     		add	r3, sp, #32
 676 01e2 0193     		str	r3, [sp, #4]
 677 01e4 BDF80C30 		ldrh	r3, [sp, #12]
 678 01e8 0093     		str	r3, [sp]
 679 01ea BDF91030 		ldrsh	r3, [sp, #16]
 680 01ee 5246     		mov	r2, r10
 681 01f0 4946     		mov	r1, r9
 682 01f2 0AA8     		add	r0, sp, #40
 683 01f4 FFF7FEFF 		bl	_lv_img_buf_get_transformed_area
 684              	.LVL64:
 622:lvgl/src/widgets/lv_img.c ****             bg_coords.y1 += obj->coords.y1;
 685              		.loc 1 622 13 view .LVU230
 622:lvgl/src/widgets/lv_img.c ****             bg_coords.y1 += obj->coords.y1;
 686              		.loc 1 622 22 is_stmt 0 view .LVU231
 687 01f8 BDF82830 		ldrh	r3, [sp, #40]
 622:lvgl/src/widgets/lv_img.c ****             bg_coords.y1 += obj->coords.y1;
 688              		.loc 1 622 40 view .LVU232
 689 01fc A28A     		ldrh	r2, [r4, #20]
 622:lvgl/src/widgets/lv_img.c ****             bg_coords.y1 += obj->coords.y1;
 690              		.loc 1 622 26 view .LVU233
 691 01fe 1344     		add	r3, r3, r2
 692 0200 ADF82830 		strh	r3, [sp, #40]	@ movhi
 623:lvgl/src/widgets/lv_img.c ****             bg_coords.x2 += obj->coords.x1;
 693              		.loc 1 623 13 is_stmt 1 view .LVU234
 623:lvgl/src/widgets/lv_img.c ****             bg_coords.x2 += obj->coords.x1;
 694              		.loc 1 623 22 is_stmt 0 view .LVU235
 695 0204 BDF82A10 		ldrh	r1, [sp, #42]
 623:lvgl/src/widgets/lv_img.c ****             bg_coords.x2 += obj->coords.x1;
 696              		.loc 1 623 40 view .LVU236
 697 0208 E38A     		ldrh	r3, [r4, #22]
 623:lvgl/src/widgets/lv_img.c ****             bg_coords.x2 += obj->coords.x1;
ARM GAS  C:\usertemp\ccrOwx87.s 			page 37


 698              		.loc 1 623 26 view .LVU237
 699 020a 1944     		add	r1, r1, r3
 700 020c ADF82A10 		strh	r1, [sp, #42]	@ movhi
 624:lvgl/src/widgets/lv_img.c ****             bg_coords.y2 += obj->coords.y1;
 701              		.loc 1 624 13 is_stmt 1 view .LVU238
 624:lvgl/src/widgets/lv_img.c ****             bg_coords.y2 += obj->coords.y1;
 702              		.loc 1 624 22 is_stmt 0 view .LVU239
 703 0210 BDF82C10 		ldrh	r1, [sp, #44]
 624:lvgl/src/widgets/lv_img.c ****             bg_coords.y2 += obj->coords.y1;
 704              		.loc 1 624 26 view .LVU240
 705 0214 0A44     		add	r2, r2, r1
 706 0216 ADF82C20 		strh	r2, [sp, #44]	@ movhi
 625:lvgl/src/widgets/lv_img.c ****         }
 707              		.loc 1 625 13 is_stmt 1 view .LVU241
 625:lvgl/src/widgets/lv_img.c ****         }
 708              		.loc 1 625 22 is_stmt 0 view .LVU242
 709 021a BDF82E20 		ldrh	r2, [sp, #46]
 625:lvgl/src/widgets/lv_img.c ****         }
 710              		.loc 1 625 26 view .LVU243
 711 021e 1344     		add	r3, r3, r2
 712 0220 ADF82E30 		strh	r3, [sp, #46]	@ movhi
 713              	.L13:
 628:lvgl/src/widgets/lv_img.c ****         lv_area_copy(&ori_coords, &obj->coords);
 714              		.loc 1 628 9 is_stmt 1 view .LVU244
 629:lvgl/src/widgets/lv_img.c ****         lv_area_copy(&obj->coords, &bg_coords);
 715              		.loc 1 629 9 view .LVU245
 716              	.LVL65:
 717              	.LBB114:
 718              	.LBI114:
 110:lvgl/src/widgets/../core/../misc/../font/../misc/lv_area.h **** {
 719              		.loc 3 110 20 view .LVU246
 720              	.LBB115:
 112:lvgl/src/widgets/../core/../misc/../font/../misc/lv_area.h ****     dest->y1 = src->y1;
 721              		.loc 3 112 5 view .LVU247
 112:lvgl/src/widgets/../core/../misc/../font/../misc/lv_area.h ****     dest->y1 = src->y1;
 722              		.loc 3 112 19 is_stmt 0 view .LVU248
 723 0224 B4F914B0 		ldrsh	fp, [r4, #20]
 112:lvgl/src/widgets/../core/../misc/../font/../misc/lv_area.h ****     dest->y1 = src->y1;
 724              		.loc 3 112 14 view .LVU249
 725 0228 ADF830B0 		strh	fp, [sp, #48]	@ movhi
 113:lvgl/src/widgets/../core/../misc/../font/../misc/lv_area.h ****     dest->x2 = src->x2;
 726              		.loc 3 113 5 is_stmt 1 view .LVU250
 113:lvgl/src/widgets/../core/../misc/../font/../misc/lv_area.h ****     dest->x2 = src->x2;
 727              		.loc 3 113 19 is_stmt 0 view .LVU251
 728 022c B4F916A0 		ldrsh	r10, [r4, #22]
 729              	.LVL66:
 113:lvgl/src/widgets/../core/../misc/../font/../misc/lv_area.h ****     dest->x2 = src->x2;
 730              		.loc 3 113 14 view .LVU252
 731 0230 ADF832A0 		strh	r10, [sp, #50]	@ movhi
 114:lvgl/src/widgets/../core/../misc/../font/../misc/lv_area.h ****     dest->y2 = src->y2;
 732              		.loc 3 114 5 is_stmt 1 view .LVU253
 114:lvgl/src/widgets/../core/../misc/../font/../misc/lv_area.h ****     dest->y2 = src->y2;
 733              		.loc 3 114 19 is_stmt 0 view .LVU254
 734 0234 B4F91890 		ldrsh	r9, [r4, #24]
 735              	.LVL67:
 114:lvgl/src/widgets/../core/../misc/../font/../misc/lv_area.h ****     dest->y2 = src->y2;
 736              		.loc 3 114 14 view .LVU255
ARM GAS  C:\usertemp\ccrOwx87.s 			page 38


 737 0238 ADF83490 		strh	r9, [sp, #52]	@ movhi
 115:lvgl/src/widgets/../core/../misc/../font/../misc/lv_area.h **** }
 738              		.loc 3 115 5 is_stmt 1 view .LVU256
 115:lvgl/src/widgets/../core/../misc/../font/../misc/lv_area.h **** }
 739              		.loc 3 115 19 is_stmt 0 view .LVU257
 740 023c B4F91A80 		ldrsh	r8, [r4, #26]
 741              	.LVL68:
 115:lvgl/src/widgets/../core/../misc/../font/../misc/lv_area.h **** }
 742              		.loc 3 115 14 view .LVU258
 743 0240 ADF83680 		strh	r8, [sp, #54]	@ movhi
 744              	.LVL69:
 115:lvgl/src/widgets/../core/../misc/../font/../misc/lv_area.h **** }
 745              		.loc 3 115 14 view .LVU259
 746              	.LBE115:
 747              	.LBE114:
 630:lvgl/src/widgets/lv_img.c **** 
 748              		.loc 1 630 9 is_stmt 1 view .LVU260
 749              	.LBB116:
 750              	.LBI116:
 110:lvgl/src/widgets/../core/../misc/../font/../misc/lv_area.h **** {
 751              		.loc 3 110 20 view .LVU261
 752              	.LBB117:
 112:lvgl/src/widgets/../core/../misc/../font/../misc/lv_area.h ****     dest->y1 = src->y1;
 753              		.loc 3 112 5 view .LVU262
 112:lvgl/src/widgets/../core/../misc/../font/../misc/lv_area.h ****     dest->y1 = src->y1;
 754              		.loc 3 112 19 is_stmt 0 view .LVU263
 755 0244 BDF92830 		ldrsh	r3, [sp, #40]
 112:lvgl/src/widgets/../core/../misc/../font/../misc/lv_area.h ****     dest->y1 = src->y1;
 756              		.loc 3 112 14 view .LVU264
 757 0248 A382     		strh	r3, [r4, #20]	@ movhi
 113:lvgl/src/widgets/../core/../misc/../font/../misc/lv_area.h ****     dest->x2 = src->x2;
 758              		.loc 3 113 5 is_stmt 1 view .LVU265
 113:lvgl/src/widgets/../core/../misc/../font/../misc/lv_area.h ****     dest->x2 = src->x2;
 759              		.loc 3 113 19 is_stmt 0 view .LVU266
 760 024a BDF92A30 		ldrsh	r3, [sp, #42]
 113:lvgl/src/widgets/../core/../misc/../font/../misc/lv_area.h ****     dest->x2 = src->x2;
 761              		.loc 3 113 14 view .LVU267
 762 024e E382     		strh	r3, [r4, #22]	@ movhi
 114:lvgl/src/widgets/../core/../misc/../font/../misc/lv_area.h ****     dest->y2 = src->y2;
 763              		.loc 3 114 5 is_stmt 1 view .LVU268
 114:lvgl/src/widgets/../core/../misc/../font/../misc/lv_area.h ****     dest->y2 = src->y2;
 764              		.loc 3 114 19 is_stmt 0 view .LVU269
 765 0250 BDF92C30 		ldrsh	r3, [sp, #44]
 114:lvgl/src/widgets/../core/../misc/../font/../misc/lv_area.h ****     dest->y2 = src->y2;
 766              		.loc 3 114 14 view .LVU270
 767 0254 2383     		strh	r3, [r4, #24]	@ movhi
 115:lvgl/src/widgets/../core/../misc/../font/../misc/lv_area.h **** }
 768              		.loc 3 115 5 is_stmt 1 view .LVU271
 115:lvgl/src/widgets/../core/../misc/../font/../misc/lv_area.h **** }
 769              		.loc 3 115 19 is_stmt 0 view .LVU272
 770 0256 BDF92E30 		ldrsh	r3, [sp, #46]
 115:lvgl/src/widgets/../core/../misc/../font/../misc/lv_area.h **** }
 771              		.loc 3 115 14 view .LVU273
 772 025a 6383     		strh	r3, [r4, #26]	@ movhi
 773              	.LVL70:
 115:lvgl/src/widgets/../core/../misc/../font/../misc/lv_area.h **** }
 774              		.loc 3 115 14 view .LVU274
ARM GAS  C:\usertemp\ccrOwx87.s 			page 39


 775              	.LBE117:
 776              	.LBE116:
 632:lvgl/src/widgets/lv_img.c ****         if(res != LV_RES_OK) return;
 777              		.loc 1 632 9 is_stmt 1 view .LVU275
 632:lvgl/src/widgets/lv_img.c ****         if(res != LV_RES_OK) return;
 778              		.loc 1 632 24 is_stmt 0 view .LVU276
 779 025c 3146     		mov	r1, r6
 780 025e B148     		ldr	r0, .L43
 781 0260 FFF7FEFF 		bl	lv_obj_event_base
 782              	.LVL71:
 633:lvgl/src/widgets/lv_img.c **** 
 783              		.loc 1 633 9 is_stmt 1 view .LVU277
 633:lvgl/src/widgets/lv_img.c **** 
 784              		.loc 1 633 11 is_stmt 0 view .LVU278
 785 0264 0128     		cmp	r0, #1
 786 0266 7FF4DDAE 		bne	.L3
 635:lvgl/src/widgets/lv_img.c **** 
 787              		.loc 1 635 9 is_stmt 1 view .LVU279
 788              	.LVL72:
 789              	.LBB118:
 790              	.LBI118:
 110:lvgl/src/widgets/../core/../misc/../font/../misc/lv_area.h **** {
 791              		.loc 3 110 20 view .LVU280
 792              	.LBB119:
 112:lvgl/src/widgets/../core/../misc/../font/../misc/lv_area.h ****     dest->y1 = src->y1;
 793              		.loc 3 112 5 view .LVU281
 112:lvgl/src/widgets/../core/../misc/../font/../misc/lv_area.h ****     dest->y1 = src->y1;
 794              		.loc 3 112 14 is_stmt 0 view .LVU282
 795 026a A4F814B0 		strh	fp, [r4, #20]	@ movhi
 113:lvgl/src/widgets/../core/../misc/../font/../misc/lv_area.h ****     dest->x2 = src->x2;
 796              		.loc 3 113 5 is_stmt 1 view .LVU283
 113:lvgl/src/widgets/../core/../misc/../font/../misc/lv_area.h ****     dest->x2 = src->x2;
 797              		.loc 3 113 14 is_stmt 0 view .LVU284
 798 026e A4F816A0 		strh	r10, [r4, #22]	@ movhi
 114:lvgl/src/widgets/../core/../misc/../font/../misc/lv_area.h ****     dest->y2 = src->y2;
 799              		.loc 3 114 5 is_stmt 1 view .LVU285
 114:lvgl/src/widgets/../core/../misc/../font/../misc/lv_area.h ****     dest->y2 = src->y2;
 800              		.loc 3 114 14 is_stmt 0 view .LVU286
 801 0272 A4F81890 		strh	r9, [r4, #24]	@ movhi
 115:lvgl/src/widgets/../core/../misc/../font/../misc/lv_area.h **** }
 802              		.loc 3 115 5 is_stmt 1 view .LVU287
 115:lvgl/src/widgets/../core/../misc/../font/../misc/lv_area.h **** }
 803              		.loc 3 115 14 is_stmt 0 view .LVU288
 804 0276 A4F81A80 		strh	r8, [r4, #26]	@ movhi
 805              	.LVL73:
 115:lvgl/src/widgets/../core/../misc/../font/../misc/lv_area.h **** }
 806              		.loc 3 115 14 view .LVU289
 807              	.LBE119:
 808              	.LBE118:
 637:lvgl/src/widgets/lv_img.c ****             if(img->h == 0 || img->w == 0) return;
 809              		.loc 1 637 9 is_stmt 1 view .LVU290
 637:lvgl/src/widgets/lv_img.c ****             if(img->h == 0 || img->w == 0) return;
 810              		.loc 1 637 11 is_stmt 0 view .LVU291
 811 027a 152D     		cmp	r5, #21
 812 027c 7FF4D2AE 		bne	.L3
 813              	.LBB120:
 638:lvgl/src/widgets/lv_img.c ****             if(zoom_final == 0) return;
ARM GAS  C:\usertemp\ccrOwx87.s 			page 40


 814              		.loc 1 638 13 is_stmt 1 view .LVU292
 638:lvgl/src/widgets/lv_img.c ****             if(zoom_final == 0) return;
 815              		.loc 1 638 19 is_stmt 0 view .LVU293
 816 0280 B4F92E30 		ldrsh	r3, [r4, #46]
 638:lvgl/src/widgets/lv_img.c ****             if(zoom_final == 0) return;
 817              		.loc 1 638 15 view .LVU294
 818 0284 002B     		cmp	r3, #0
 819 0286 3FF4CDAE 		beq	.L3
 638:lvgl/src/widgets/lv_img.c ****             if(zoom_final == 0) return;
 820              		.loc 1 638 34 discriminator 2 view .LVU295
 821 028a B4F92C30 		ldrsh	r3, [r4, #44]
 638:lvgl/src/widgets/lv_img.c ****             if(zoom_final == 0) return;
 822              		.loc 1 638 28 discriminator 2 view .LVU296
 823 028e 002B     		cmp	r3, #0
 824 0290 3FF4C8AE 		beq	.L3
 639:lvgl/src/widgets/lv_img.c **** 
 825              		.loc 1 639 13 is_stmt 1 view .LVU297
 639:lvgl/src/widgets/lv_img.c **** 
 826              		.loc 1 639 15 is_stmt 0 view .LVU298
 827 0294 039B     		ldr	r3, [sp, #12]
 828 0296 002B     		cmp	r3, #0
 829 0298 3FF4C4AE 		beq	.L3
 641:lvgl/src/widgets/lv_img.c **** 
 830              		.loc 1 641 13 is_stmt 1 view .LVU299
 641:lvgl/src/widgets/lv_img.c **** 
 831              		.loc 1 641 40 is_stmt 0 view .LVU300
 832 029c 3046     		mov	r0, r6
 833              	.LVL74:
 641:lvgl/src/widgets/lv_img.c **** 
 834              		.loc 1 641 40 view .LVU301
 835 029e FFF7FEFF 		bl	lv_event_get_draw_ctx
 836              	.LVL75:
 837 02a2 0646     		mov	r6, r0
 838              	.LVL76:
 643:lvgl/src/widgets/lv_img.c ****             lv_area_copy(&img_max_area, &obj->coords);
 839              		.loc 1 643 13 is_stmt 1 view .LVU302
 644:lvgl/src/widgets/lv_img.c **** 
 840              		.loc 1 644 13 view .LVU303
 841              	.LBB121:
 842              	.LBI121:
 110:lvgl/src/widgets/../core/../misc/../font/../misc/lv_area.h **** {
 843              		.loc 3 110 20 view .LVU304
 844              	.LBB122:
 112:lvgl/src/widgets/../core/../misc/../font/../misc/lv_area.h ****     dest->y1 = src->y1;
 845              		.loc 3 112 5 view .LVU305
 112:lvgl/src/widgets/../core/../misc/../font/../misc/lv_area.h ****     dest->y1 = src->y1;
 846              		.loc 3 112 19 is_stmt 0 view .LVU306
 847 02a4 B4F91450 		ldrsh	r5, [r4, #20]
 848              	.LVL77:
 112:lvgl/src/widgets/../core/../misc/../font/../misc/lv_area.h ****     dest->y1 = src->y1;
 849              		.loc 3 112 14 view .LVU307
 850 02a8 ADF83850 		strh	r5, [sp, #56]	@ movhi
 113:lvgl/src/widgets/../core/../misc/../font/../misc/lv_area.h ****     dest->x2 = src->x2;
 851              		.loc 3 113 5 is_stmt 1 view .LVU308
 113:lvgl/src/widgets/../core/../misc/../font/../misc/lv_area.h ****     dest->x2 = src->x2;
 852              		.loc 3 113 19 is_stmt 0 view .LVU309
 853 02ac B4F91680 		ldrsh	r8, [r4, #22]
ARM GAS  C:\usertemp\ccrOwx87.s 			page 41


 113:lvgl/src/widgets/../core/../misc/../font/../misc/lv_area.h ****     dest->x2 = src->x2;
 854              		.loc 3 113 14 view .LVU310
 855 02b0 ADF83A80 		strh	r8, [sp, #58]	@ movhi
 114:lvgl/src/widgets/../core/../misc/../font/../misc/lv_area.h ****     dest->y2 = src->y2;
 856              		.loc 3 114 5 is_stmt 1 view .LVU311
 114:lvgl/src/widgets/../core/../misc/../font/../misc/lv_area.h ****     dest->y2 = src->y2;
 857              		.loc 3 114 19 is_stmt 0 view .LVU312
 858 02b4 B4F91890 		ldrsh	r9, [r4, #24]
 114:lvgl/src/widgets/../core/../misc/../font/../misc/lv_area.h ****     dest->y2 = src->y2;
 859              		.loc 3 114 14 view .LVU313
 860 02b8 ADF83C90 		strh	r9, [sp, #60]	@ movhi
 115:lvgl/src/widgets/../core/../misc/../font/../misc/lv_area.h **** }
 861              		.loc 3 115 5 is_stmt 1 view .LVU314
 115:lvgl/src/widgets/../core/../misc/../font/../misc/lv_area.h **** }
 862              		.loc 3 115 19 is_stmt 0 view .LVU315
 863 02bc B4F91AA0 		ldrsh	r10, [r4, #26]
 115:lvgl/src/widgets/../core/../misc/../font/../misc/lv_area.h **** }
 864              		.loc 3 115 14 view .LVU316
 865 02c0 ADF83EA0 		strh	r10, [sp, #62]	@ movhi
 866              	.LVL78:
 115:lvgl/src/widgets/../core/../misc/../font/../misc/lv_area.h **** }
 867              		.loc 3 115 14 view .LVU317
 868              	.LBE122:
 869              	.LBE121:
 646:lvgl/src/widgets/lv_img.c **** 
 870              		.loc 1 646 13 is_stmt 1 view .LVU318
 646:lvgl/src/widgets/lv_img.c **** 
 871              		.loc 1 646 41 is_stmt 0 view .LVU319
 872 02c4 2046     		mov	r0, r4
 873              	.LVL79:
 646:lvgl/src/widgets/lv_img.c **** 
 874              		.loc 1 646 41 view .LVU320
 875 02c6 FFF7FEFF 		bl	lv_img_get_transformed_size
 876              	.LVL80:
 877 02ca 0990     		str	r0, [sp, #36]
 648:lvgl/src/widgets/lv_img.c ****                 img_max_area.x1 -= ((img->w - img_size_final.x) + 1) / 2;
 878              		.loc 1 648 13 is_stmt 1 view .LVU321
 648:lvgl/src/widgets/lv_img.c ****                 img_max_area.x1 -= ((img->w - img_size_final.x) + 1) / 2;
 879              		.loc 1 648 35 is_stmt 0 view .LVU322
 880 02cc 94F83930 		ldrb	r3, [r4, #57]	@ zero_extendqisi2
 881 02d0 03F00303 		and	r3, r3, #3
 648:lvgl/src/widgets/lv_img.c ****                 img_max_area.x1 -= ((img->w - img_size_final.x) + 1) / 2;
 882              		.loc 1 648 15 view .LVU323
 883 02d4 012B     		cmp	r3, #1
 884 02d6 54D0     		beq	.L37
 655:lvgl/src/widgets/lv_img.c ****                 img_max_area.y2 = img_max_area.y1 + lv_area_get_height(&bg_coords) - 1;
 885              		.loc 1 655 17 is_stmt 1 view .LVU324
 886              	.LVL81:
 887              	.LBB123:
 888              	.LBI123:
 123:lvgl/src/widgets/../core/../misc/../font/../misc/lv_area.h **** {
 889              		.loc 3 123 26 view .LVU325
 890              	.LBB124:
 125:lvgl/src/widgets/../core/../misc/../font/../misc/lv_area.h **** }
 891              		.loc 3 125 5 view .LVU326
 125:lvgl/src/widgets/../core/../misc/../font/../misc/lv_area.h **** }
 892              		.loc 3 125 31 is_stmt 0 view .LVU327
ARM GAS  C:\usertemp\ccrOwx87.s 			page 42


 893 02d8 BDF82C30 		ldrh	r3, [sp, #44]
 125:lvgl/src/widgets/../core/../misc/../font/../misc/lv_area.h **** }
 894              		.loc 3 125 44 view .LVU328
 895 02dc BDF82820 		ldrh	r2, [sp, #40]
 125:lvgl/src/widgets/../core/../misc/../font/../misc/lv_area.h **** }
 896              		.loc 3 125 36 view .LVU329
 897 02e0 9B1A     		subs	r3, r3, r2
 898 02e2 9BB2     		uxth	r3, r3
 125:lvgl/src/widgets/../core/../misc/../font/../misc/lv_area.h **** }
 899              		.loc 3 125 49 view .LVU330
 900 02e4 0133     		adds	r3, r3, #1
 901 02e6 9BB2     		uxth	r3, r3
 902              	.LVL82:
 125:lvgl/src/widgets/../core/../misc/../font/../misc/lv_area.h **** }
 903              		.loc 3 125 49 view .LVU331
 904              	.LBE124:
 905              	.LBE123:
 655:lvgl/src/widgets/lv_img.c ****                 img_max_area.y2 = img_max_area.y1 + lv_area_get_height(&bg_coords) - 1;
 906              		.loc 1 655 51 discriminator 1 view .LVU332
 907 02e8 13FA85F3 		uxtah	r3, r3, r5
 908 02ec 9BB2     		uxth	r3, r3
 655:lvgl/src/widgets/lv_img.c ****                 img_max_area.y2 = img_max_area.y1 + lv_area_get_height(&bg_coords) - 1;
 909              		.loc 1 655 83 discriminator 1 view .LVU333
 910 02ee 013B     		subs	r3, r3, #1
 655:lvgl/src/widgets/lv_img.c ****                 img_max_area.y2 = img_max_area.y1 + lv_area_get_height(&bg_coords) - 1;
 911              		.loc 1 655 33 discriminator 1 view .LVU334
 912 02f0 ADF83C30 		strh	r3, [sp, #60]	@ movhi
 656:lvgl/src/widgets/lv_img.c ****             }
 913              		.loc 1 656 17 is_stmt 1 view .LVU335
 914              	.LVL83:
 915              	.LBB125:
 916              	.LBI125:
 133:lvgl/src/widgets/../core/../misc/../font/../misc/lv_area.h **** {
 917              		.loc 3 133 26 view .LVU336
 918              	.LBB126:
 919              		.loc 3 135 5 view .LVU337
 920              		.loc 3 135 31 is_stmt 0 view .LVU338
 921 02f4 BDF82E30 		ldrh	r3, [sp, #46]
 922              		.loc 3 135 44 view .LVU339
 923 02f8 BDF82A20 		ldrh	r2, [sp, #42]
 924              		.loc 3 135 36 view .LVU340
 925 02fc 9B1A     		subs	r3, r3, r2
 926 02fe 9BB2     		uxth	r3, r3
 927              		.loc 3 135 49 view .LVU341
 928 0300 0133     		adds	r3, r3, #1
 929 0302 9BB2     		uxth	r3, r3
 930              	.LVL84:
 931              		.loc 3 135 49 view .LVU342
 932              	.LBE126:
 933              	.LBE125:
 656:lvgl/src/widgets/lv_img.c ****             }
 934              		.loc 1 656 51 discriminator 1 view .LVU343
 935 0304 13FA88F3 		uxtah	r3, r3, r8
 936 0308 9BB2     		uxth	r3, r3
 656:lvgl/src/widgets/lv_img.c ****             }
 937              		.loc 1 656 84 discriminator 1 view .LVU344
 938 030a 013B     		subs	r3, r3, #1
ARM GAS  C:\usertemp\ccrOwx87.s 			page 43


 656:lvgl/src/widgets/lv_img.c ****             }
 939              		.loc 1 656 33 discriminator 1 view .LVU345
 940 030c ADF83E30 		strh	r3, [sp, #62]	@ movhi
 941              	.L20:
 659:lvgl/src/widgets/lv_img.c ****             img_max_area.y1 += ptop;
 942              		.loc 1 659 13 is_stmt 1 view .LVU346
 659:lvgl/src/widgets/lv_img.c ****             img_max_area.y1 += ptop;
 943              		.loc 1 659 25 is_stmt 0 view .LVU347
 944 0310 BDF83830 		ldrh	r3, [sp, #56]
 659:lvgl/src/widgets/lv_img.c ****             img_max_area.y1 += ptop;
 945              		.loc 1 659 29 view .LVU348
 946 0314 029A     		ldr	r2, [sp, #8]
 947 0316 1344     		add	r3, r3, r2
 948 0318 1FFA83FA 		uxth	r10, r3
 949 031c 0FFA83F9 		sxth	r9, r3
 950 0320 ADF83890 		strh	r9, [sp, #56]	@ movhi
 660:lvgl/src/widgets/lv_img.c ****             img_max_area.x2 -= pright;
 951              		.loc 1 660 13 is_stmt 1 view .LVU349
 660:lvgl/src/widgets/lv_img.c ****             img_max_area.x2 -= pright;
 952              		.loc 1 660 25 is_stmt 0 view .LVU350
 953 0324 BDF83A30 		ldrh	r3, [sp, #58]
 660:lvgl/src/widgets/lv_img.c ****             img_max_area.x2 -= pright;
 954              		.loc 1 660 29 view .LVU351
 955 0328 3B44     		add	r3, r3, r7
 956 032a 9AB2     		uxth	r2, r3
 957 032c 0792     		str	r2, [sp, #28]
 958 032e 0FFA83FB 		sxth	fp, r3
 959 0332 ADF83AB0 		strh	fp, [sp, #58]	@ movhi
 661:lvgl/src/widgets/lv_img.c ****             img_max_area.y2 -= pbottom;
 960              		.loc 1 661 13 is_stmt 1 view .LVU352
 661:lvgl/src/widgets/lv_img.c ****             img_max_area.y2 -= pbottom;
 961              		.loc 1 661 25 is_stmt 0 view .LVU353
 962 0336 BDF83C50 		ldrh	r5, [sp, #60]
 661:lvgl/src/widgets/lv_img.c ****             img_max_area.y2 -= pbottom;
 963              		.loc 1 661 29 view .LVU354
 964 033a 059B     		ldr	r3, [sp, #20]
 965 033c ED1A     		subs	r5, r5, r3
 966 033e 2DB2     		sxth	r5, r5
 967 0340 ADF83C50 		strh	r5, [sp, #60]	@ movhi
 662:lvgl/src/widgets/lv_img.c **** 
 968              		.loc 1 662 13 is_stmt 1 view .LVU355
 662:lvgl/src/widgets/lv_img.c **** 
 969              		.loc 1 662 25 is_stmt 0 view .LVU356
 970 0344 BDF83E30 		ldrh	r3, [sp, #62]
 662:lvgl/src/widgets/lv_img.c **** 
 971              		.loc 1 662 29 view .LVU357
 972 0348 069A     		ldr	r2, [sp, #24]
 973 034a 9B1A     		subs	r3, r3, r2
 974 034c 0FFA83F8 		sxth	r8, r3
 975 0350 ADF83E80 		strh	r8, [sp, #62]	@ movhi
 664:lvgl/src/widgets/lv_img.c ****                 lv_draw_img_dsc_t img_dsc;
 976              		.loc 1 664 13 is_stmt 1 view .LVU358
 664:lvgl/src/widgets/lv_img.c ****                 lv_draw_img_dsc_t img_dsc;
 977              		.loc 1 664 30 is_stmt 0 view .LVU359
 978 0354 94F83830 		ldrb	r3, [r4, #56]	@ zero_extendqisi2
 664:lvgl/src/widgets/lv_img.c ****                 lv_draw_img_dsc_t img_dsc;
 979              		.loc 1 664 15 view .LVU360
ARM GAS  C:\usertemp\ccrOwx87.s 			page 44


 980 0358 13F0020F 		tst	r3, #2
 981 035c 3BD0     		beq	.L38
 701:lvgl/src/widgets/lv_img.c ****                 lv_draw_label_dsc_t label_dsc;
 982              		.loc 1 701 18 is_stmt 1 view .LVU361
 701:lvgl/src/widgets/lv_img.c ****                 lv_draw_label_dsc_t label_dsc;
 983              		.loc 1 701 35 is_stmt 0 view .LVU362
 984 035e 03F00303 		and	r3, r3, #3
 701:lvgl/src/widgets/lv_img.c ****                 lv_draw_label_dsc_t label_dsc;
 985              		.loc 1 701 20 view .LVU363
 986 0362 022B     		cmp	r3, #2
 987 0364 00F0CC80 		beq	.L39
 710:lvgl/src/widgets/lv_img.c ****                 lv_draw_img(draw_ctx, NULL, &obj->coords, NULL);
 988              		.loc 1 710 17 is_stmt 1 view .LVU364
 710:lvgl/src/widgets/lv_img.c ****                 lv_draw_img(draw_ctx, NULL, &obj->coords, NULL);
 989              		.loc 1 710 17 view .LVU365
 710:lvgl/src/widgets/lv_img.c ****                 lv_draw_img(draw_ctx, NULL, &obj->coords, NULL);
 990              		.loc 1 710 17 view .LVU366
 711:lvgl/src/widgets/lv_img.c ****             }
 991              		.loc 1 711 17 view .LVU367
 992 0368 0023     		movs	r3, #0
 993 036a 04F11402 		add	r2, r4, #20
 994 036e 1946     		mov	r1, r3
 995 0370 3046     		mov	r0, r6
 996 0372 FFF7FEFF 		bl	lv_draw_img
 997              	.LVL85:
 998 0376 55E6     		b	.L3
 999              	.LVL86:
 1000              	.L36:
 711:lvgl/src/widgets/lv_img.c ****             }
 1001              		.loc 1 711 17 is_stmt 0 view .LVU368
 1002              	.LBE120:
 615:lvgl/src/widgets/lv_img.c ****         }
 1003              		.loc 1 615 13 is_stmt 1 view .LVU369
 1004 0378 0AA9     		add	r1, sp, #40
 1005 037a 2046     		mov	r0, r4
 1006 037c FFF7FEFF 		bl	lv_obj_get_coords
 1007              	.LVL87:
 1008 0380 50E7     		b	.L13
 1009              	.LVL88:
 1010              	.L37:
 1011              	.LBB129:
 649:lvgl/src/widgets/lv_img.c ****                 img_max_area.x2 -= ((img->w - img_size_final.x) + 1) / 2;
 1012              		.loc 1 649 17 view .LVU370
 649:lvgl/src/widgets/lv_img.c ****                 img_max_area.x2 -= ((img->w - img_size_final.x) + 1) / 2;
 1013              		.loc 1 649 29 is_stmt 0 view .LVU371
 1014 0382 AAB2     		uxth	r2, r5
 649:lvgl/src/widgets/lv_img.c ****                 img_max_area.x2 -= ((img->w - img_size_final.x) + 1) / 2;
 1015              		.loc 1 649 41 view .LVU372
 1016 0384 B4F92C30 		ldrsh	r3, [r4, #44]
 649:lvgl/src/widgets/lv_img.c ****                 img_max_area.x2 -= ((img->w - img_size_final.x) + 1) / 2;
 1017              		.loc 1 649 61 view .LVU373
 1018 0388 BDF92410 		ldrsh	r1, [sp, #36]
 649:lvgl/src/widgets/lv_img.c ****                 img_max_area.x2 -= ((img->w - img_size_final.x) + 1) / 2;
 1019              		.loc 1 649 45 view .LVU374
 1020 038c 5B1A     		subs	r3, r3, r1
 649:lvgl/src/widgets/lv_img.c ****                 img_max_area.x2 -= ((img->w - img_size_final.x) + 1) / 2;
 1021              		.loc 1 649 70 view .LVU375
ARM GAS  C:\usertemp\ccrOwx87.s 			page 45


 1022 038e 0133     		adds	r3, r3, #1
 1023 0390 1DD4     		bmi	.L40
 1024              	.L18:
 1025 0392 5B10     		asrs	r3, r3, #1
 1026 0394 5B42     		rsbs	r3, r3, #0
 649:lvgl/src/widgets/lv_img.c ****                 img_max_area.x2 -= ((img->w - img_size_final.x) + 1) / 2;
 1027              		.loc 1 649 33 view .LVU376
 1028 0396 9BB2     		uxth	r3, r3
 1029 0398 1A44     		add	r2, r2, r3
 1030 039a ADF83820 		strh	r2, [sp, #56]	@ movhi
 650:lvgl/src/widgets/lv_img.c ****                 img_max_area.y1 -= ((img->h - img_size_final.y) + 1) / 2;
 1031              		.loc 1 650 17 is_stmt 1 view .LVU377
 650:lvgl/src/widgets/lv_img.c ****                 img_max_area.y1 -= ((img->h - img_size_final.y) + 1) / 2;
 1032              		.loc 1 650 33 is_stmt 0 view .LVU378
 1033 039e 13FA89F9 		uxtah	r9, r3, r9
 1034 03a2 ADF83C90 		strh	r9, [sp, #60]	@ movhi
 651:lvgl/src/widgets/lv_img.c ****                 img_max_area.y2 -= ((img->h - img_size_final.y) + 1) / 2;
 1035              		.loc 1 651 17 is_stmt 1 view .LVU379
 651:lvgl/src/widgets/lv_img.c ****                 img_max_area.y2 -= ((img->h - img_size_final.y) + 1) / 2;
 1036              		.loc 1 651 29 is_stmt 0 view .LVU380
 1037 03a6 1FFA88F2 		uxth	r2, r8
 651:lvgl/src/widgets/lv_img.c ****                 img_max_area.y2 -= ((img->h - img_size_final.y) + 1) / 2;
 1038              		.loc 1 651 41 view .LVU381
 1039 03aa B4F92E30 		ldrsh	r3, [r4, #46]
 651:lvgl/src/widgets/lv_img.c ****                 img_max_area.y2 -= ((img->h - img_size_final.y) + 1) / 2;
 1040              		.loc 1 651 61 view .LVU382
 1041 03ae BDF92610 		ldrsh	r1, [sp, #38]
 651:lvgl/src/widgets/lv_img.c ****                 img_max_area.y2 -= ((img->h - img_size_final.y) + 1) / 2;
 1042              		.loc 1 651 45 view .LVU383
 1043 03b2 5B1A     		subs	r3, r3, r1
 651:lvgl/src/widgets/lv_img.c ****                 img_max_area.y2 -= ((img->h - img_size_final.y) + 1) / 2;
 1044              		.loc 1 651 70 view .LVU384
 1045 03b4 0133     		adds	r3, r3, #1
 1046 03b6 0CD4     		bmi	.L41
 1047              	.L19:
 1048 03b8 5B10     		asrs	r3, r3, #1
 1049 03ba 5B42     		rsbs	r3, r3, #0
 651:lvgl/src/widgets/lv_img.c ****                 img_max_area.y2 -= ((img->h - img_size_final.y) + 1) / 2;
 1050              		.loc 1 651 33 view .LVU385
 1051 03bc 9BB2     		uxth	r3, r3
 1052 03be 1A44     		add	r2, r2, r3
 1053 03c0 ADF83A20 		strh	r2, [sp, #58]	@ movhi
 652:lvgl/src/widgets/lv_img.c ****             }
 1054              		.loc 1 652 17 is_stmt 1 view .LVU386
 652:lvgl/src/widgets/lv_img.c ****             }
 1055              		.loc 1 652 33 is_stmt 0 view .LVU387
 1056 03c4 13FA8AFA 		uxtah	r10, r3, r10
 1057 03c8 ADF83EA0 		strh	r10, [sp, #62]	@ movhi
 1058 03cc A0E7     		b	.L20
 1059              	.L40:
 649:lvgl/src/widgets/lv_img.c ****                 img_max_area.x2 -= ((img->w - img_size_final.x) + 1) / 2;
 1060              		.loc 1 649 70 view .LVU388
 1061 03ce 0133     		adds	r3, r3, #1
 1062 03d0 DFE7     		b	.L18
 1063              	.L41:
 651:lvgl/src/widgets/lv_img.c ****                 img_max_area.y2 -= ((img->h - img_size_final.y) + 1) / 2;
 1064              		.loc 1 651 70 view .LVU389
ARM GAS  C:\usertemp\ccrOwx87.s 			page 46


 1065 03d2 0133     		adds	r3, r3, #1
 1066 03d4 F0E7     		b	.L19
 1067              	.L38:
 1068              	.LBB127:
 665:lvgl/src/widgets/lv_img.c ****                 lv_draw_img_dsc_init(&img_dsc);
 1069              		.loc 1 665 17 is_stmt 1 view .LVU390
 666:lvgl/src/widgets/lv_img.c ****                 lv_obj_init_draw_img_dsc(obj, LV_PART_MAIN, &img_dsc);
 1070              		.loc 1 666 17 view .LVU391
 1071 03d6 14A8     		add	r0, sp, #80
 1072 03d8 FFF7FEFF 		bl	lv_draw_img_dsc_init
 1073              	.LVL89:
 667:lvgl/src/widgets/lv_img.c **** 
 1074              		.loc 1 667 17 view .LVU392
 1075 03dc 14AA     		add	r2, sp, #80
 1076 03de 0021     		movs	r1, #0
 1077 03e0 2046     		mov	r0, r4
 1078 03e2 FFF7FEFF 		bl	lv_obj_init_draw_img_dsc
 1079              	.LVL90:
 669:lvgl/src/widgets/lv_img.c ****                 img_dsc.angle = angle_final;
 1080              		.loc 1 669 17 view .LVU393
 669:lvgl/src/widgets/lv_img.c ****                 img_dsc.angle = angle_final;
 1081              		.loc 1 669 30 is_stmt 0 view .LVU394
 1082 03e6 039B     		ldr	r3, [sp, #12]
 1083 03e8 ADF85230 		strh	r3, [sp, #82]	@ movhi
 670:lvgl/src/widgets/lv_img.c ****                 img_dsc.pivot.x = img->pivot.x;
 1084              		.loc 1 670 17 is_stmt 1 view .LVU395
 670:lvgl/src/widgets/lv_img.c ****                 img_dsc.pivot.x = img->pivot.x;
 1085              		.loc 1 670 31 is_stmt 0 view .LVU396
 1086 03ec 049B     		ldr	r3, [sp, #16]
 1087 03ee ADF85030 		strh	r3, [sp, #80]	@ movhi
 671:lvgl/src/widgets/lv_img.c ****                 img_dsc.pivot.y = img->pivot.y;
 1088              		.loc 1 671 17 is_stmt 1 view .LVU397
 671:lvgl/src/widgets/lv_img.c ****                 img_dsc.pivot.y = img->pivot.y;
 1089              		.loc 1 671 45 is_stmt 0 view .LVU398
 1090 03f2 B4F93230 		ldrsh	r3, [r4, #50]
 671:lvgl/src/widgets/lv_img.c ****                 img_dsc.pivot.y = img->pivot.y;
 1091              		.loc 1 671 33 view .LVU399
 1092 03f6 ADF85430 		strh	r3, [sp, #84]	@ movhi
 672:lvgl/src/widgets/lv_img.c ****                 img_dsc.antialias = img->antialias;
 1093              		.loc 1 672 17 is_stmt 1 view .LVU400
 672:lvgl/src/widgets/lv_img.c ****                 img_dsc.antialias = img->antialias;
 1094              		.loc 1 672 45 is_stmt 0 view .LVU401
 1095 03fa B4F93430 		ldrsh	r3, [r4, #52]
 672:lvgl/src/widgets/lv_img.c ****                 img_dsc.antialias = img->antialias;
 1096              		.loc 1 672 33 view .LVU402
 1097 03fe ADF85630 		strh	r3, [sp, #86]	@ movhi
 673:lvgl/src/widgets/lv_img.c **** 
 1098              		.loc 1 673 17 is_stmt 1 view .LVU403
 673:lvgl/src/widgets/lv_img.c **** 
 1099              		.loc 1 673 40 is_stmt 0 view .LVU404
 1100 0402 94F83830 		ldrb	r3, [r4, #56]	@ zero_extendqisi2
 1101 0406 DB09     		lsrs	r3, r3, #7
 673:lvgl/src/widgets/lv_img.c **** 
 1102              		.loc 1 673 35 view .LVU405
 1103 0408 9DF86420 		ldrb	r2, [sp, #100]	@ zero_extendqisi2
 1104 040c 63F30002 		bfi	r2, r3, #0, #1
 1105 0410 8DF86420 		strb	r2, [sp, #100]
ARM GAS  C:\usertemp\ccrOwx87.s 			page 47


 675:lvgl/src/widgets/lv_img.c ****                 img_clip_area.x1 = bg_coords.x1 + pleft;
 1106              		.loc 1 675 17 is_stmt 1 view .LVU406
 676:lvgl/src/widgets/lv_img.c ****                 img_clip_area.y1 = bg_coords.y1 + ptop;
 1107              		.loc 1 676 17 view .LVU407
 676:lvgl/src/widgets/lv_img.c ****                 img_clip_area.y1 = bg_coords.y1 + ptop;
 1108              		.loc 1 676 45 is_stmt 0 view .LVU408
 1109 0414 BDF82830 		ldrh	r3, [sp, #40]
 676:lvgl/src/widgets/lv_img.c ****                 img_clip_area.y1 = bg_coords.y1 + ptop;
 1110              		.loc 1 676 49 view .LVU409
 1111 0418 029A     		ldr	r2, [sp, #8]
 1112 041a 1A44     		add	r2, r2, r3
 676:lvgl/src/widgets/lv_img.c ****                 img_clip_area.y1 = bg_coords.y1 + ptop;
 1113              		.loc 1 676 34 view .LVU410
 1114 041c ADF84020 		strh	r2, [sp, #64]	@ movhi
 677:lvgl/src/widgets/lv_img.c ****                 img_clip_area.x2 = bg_coords.x2 - pright;
 1115              		.loc 1 677 17 is_stmt 1 view .LVU411
 677:lvgl/src/widgets/lv_img.c ****                 img_clip_area.x2 = bg_coords.x2 - pright;
 1116              		.loc 1 677 45 is_stmt 0 view .LVU412
 1117 0420 BDF82A30 		ldrh	r3, [sp, #42]
 677:lvgl/src/widgets/lv_img.c ****                 img_clip_area.x2 = bg_coords.x2 - pright;
 1118              		.loc 1 677 49 view .LVU413
 1119 0424 1F44     		add	r7, r7, r3
 1120              	.LVL91:
 677:lvgl/src/widgets/lv_img.c ****                 img_clip_area.x2 = bg_coords.x2 - pright;
 1121              		.loc 1 677 34 view .LVU414
 1122 0426 ADF84270 		strh	r7, [sp, #66]	@ movhi
 678:lvgl/src/widgets/lv_img.c ****                 img_clip_area.y2 = bg_coords.y2 - pbottom;
 1123              		.loc 1 678 17 is_stmt 1 view .LVU415
 678:lvgl/src/widgets/lv_img.c ****                 img_clip_area.y2 = bg_coords.y2 - pbottom;
 1124              		.loc 1 678 45 is_stmt 0 view .LVU416
 1125 042a BDF82C30 		ldrh	r3, [sp, #44]
 678:lvgl/src/widgets/lv_img.c ****                 img_clip_area.y2 = bg_coords.y2 - pbottom;
 1126              		.loc 1 678 49 view .LVU417
 1127 042e 059A     		ldr	r2, [sp, #20]
 1128 0430 9B1A     		subs	r3, r3, r2
 678:lvgl/src/widgets/lv_img.c ****                 img_clip_area.y2 = bg_coords.y2 - pbottom;
 1129              		.loc 1 678 34 view .LVU418
 1130 0432 ADF84430 		strh	r3, [sp, #68]	@ movhi
 679:lvgl/src/widgets/lv_img.c ****                 const lv_area_t * clip_area_ori = draw_ctx->clip_area;
 1131              		.loc 1 679 17 is_stmt 1 view .LVU419
 679:lvgl/src/widgets/lv_img.c ****                 const lv_area_t * clip_area_ori = draw_ctx->clip_area;
 1132              		.loc 1 679 45 is_stmt 0 view .LVU420
 1133 0436 BDF82E30 		ldrh	r3, [sp, #46]
 679:lvgl/src/widgets/lv_img.c ****                 const lv_area_t * clip_area_ori = draw_ctx->clip_area;
 1134              		.loc 1 679 49 view .LVU421
 1135 043a 069A     		ldr	r2, [sp, #24]
 1136 043c 9B1A     		subs	r3, r3, r2
 679:lvgl/src/widgets/lv_img.c ****                 const lv_area_t * clip_area_ori = draw_ctx->clip_area;
 1137              		.loc 1 679 34 view .LVU422
 1138 043e ADF84630 		strh	r3, [sp, #70]	@ movhi
 680:lvgl/src/widgets/lv_img.c **** 
 1139              		.loc 1 680 17 is_stmt 1 view .LVU423
 680:lvgl/src/widgets/lv_img.c **** 
 1140              		.loc 1 680 35 is_stmt 0 view .LVU424
 1141 0442 B768     		ldr	r7, [r6, #8]
 1142              	.LVL92:
 682:lvgl/src/widgets/lv_img.c ****                 draw_ctx->clip_area = &img_clip_area;
ARM GAS  C:\usertemp\ccrOwx87.s 			page 48


 1143              		.loc 1 682 17 is_stmt 1 view .LVU425
 682:lvgl/src/widgets/lv_img.c ****                 draw_ctx->clip_area = &img_clip_area;
 1144              		.loc 1 682 21 is_stmt 0 view .LVU426
 1145 0444 10AA     		add	r2, sp, #64
 1146 0446 3946     		mov	r1, r7
 1147 0448 1046     		mov	r0, r2
 1148 044a FFF7FEFF 		bl	_lv_area_intersect
 1149              	.LVL93:
 682:lvgl/src/widgets/lv_img.c ****                 draw_ctx->clip_area = &img_clip_area;
 1150              		.loc 1 682 19 discriminator 1 view .LVU427
 1151 044e 0028     		cmp	r0, #0
 1152 0450 3FF4E8AD 		beq	.L3
 683:lvgl/src/widgets/lv_img.c **** 
 1153              		.loc 1 683 17 is_stmt 1 view .LVU428
 683:lvgl/src/widgets/lv_img.c **** 
 1154              		.loc 1 683 37 is_stmt 0 view .LVU429
 1155 0454 10AB     		add	r3, sp, #64
 1156 0456 B360     		str	r3, [r6, #8]
 685:lvgl/src/widgets/lv_img.c ****                 coords_tmp.y1 = img_max_area.y1 + img->offset.y;
 1157              		.loc 1 685 17 is_stmt 1 view .LVU430
 686:lvgl/src/widgets/lv_img.c ****                 if(coords_tmp.y1 > img_max_area.y1) coords_tmp.y1 -= img->h;
 1158              		.loc 1 686 17 view .LVU431
 686:lvgl/src/widgets/lv_img.c ****                 if(coords_tmp.y1 > img_max_area.y1) coords_tmp.y1 -= img->h;
 1159              		.loc 1 686 62 is_stmt 0 view .LVU432
 1160 0458 638D     		ldrh	r3, [r4, #42]
 686:lvgl/src/widgets/lv_img.c ****                 if(coords_tmp.y1 > img_max_area.y1) coords_tmp.y1 -= img->h;
 1161              		.loc 1 686 49 view .LVU433
 1162 045a 079A     		ldr	r2, [sp, #28]
 1163 045c 1A44     		add	r2, r2, r3
 1164 045e 1346     		mov	r3, r2
 1165 0460 92B2     		uxth	r2, r2
 1166 0462 1BB2     		sxth	r3, r3
 686:lvgl/src/widgets/lv_img.c ****                 if(coords_tmp.y1 > img_max_area.y1) coords_tmp.y1 -= img->h;
 1167              		.loc 1 686 31 view .LVU434
 1168 0464 ADF84A30 		strh	r3, [sp, #74]	@ movhi
 687:lvgl/src/widgets/lv_img.c ****                 coords_tmp.y2 = coords_tmp.y1 + img->h - 1;
 1169              		.loc 1 687 17 is_stmt 1 view .LVU435
 687:lvgl/src/widgets/lv_img.c ****                 coords_tmp.y2 = coords_tmp.y1 + img->h - 1;
 1170              		.loc 1 687 19 is_stmt 0 view .LVU436
 1171 0468 9B45     		cmp	fp, r3
 1172 046a 03DA     		bge	.L23
 687:lvgl/src/widgets/lv_img.c ****                 coords_tmp.y2 = coords_tmp.y1 + img->h - 1;
 1173              		.loc 1 687 53 is_stmt 1 discriminator 1 view .LVU437
 687:lvgl/src/widgets/lv_img.c ****                 coords_tmp.y2 = coords_tmp.y1 + img->h - 1;
 1174              		.loc 1 687 73 is_stmt 0 discriminator 1 view .LVU438
 1175 046c E38D     		ldrh	r3, [r4, #46]
 687:lvgl/src/widgets/lv_img.c ****                 coords_tmp.y2 = coords_tmp.y1 + img->h - 1;
 1176              		.loc 1 687 67 discriminator 1 view .LVU439
 1177 046e D21A     		subs	r2, r2, r3
 1178 0470 ADF84A20 		strh	r2, [sp, #74]	@ movhi
 1179              	.L23:
 688:lvgl/src/widgets/lv_img.c **** 
 1180              		.loc 1 688 17 is_stmt 1 view .LVU440
 688:lvgl/src/widgets/lv_img.c **** 
 1181              		.loc 1 688 43 is_stmt 0 view .LVU441
 1182 0474 BDF84A30 		ldrh	r3, [sp, #74]
 688:lvgl/src/widgets/lv_img.c **** 
ARM GAS  C:\usertemp\ccrOwx87.s 			page 49


 1183              		.loc 1 688 52 view .LVU442
 1184 0478 E28D     		ldrh	r2, [r4, #46]
 688:lvgl/src/widgets/lv_img.c **** 
 1185              		.loc 1 688 47 view .LVU443
 1186 047a 1344     		add	r3, r3, r2
 1187 047c 9BB2     		uxth	r3, r3
 688:lvgl/src/widgets/lv_img.c **** 
 1188              		.loc 1 688 56 view .LVU444
 1189 047e 013B     		subs	r3, r3, #1
 688:lvgl/src/widgets/lv_img.c **** 
 1190              		.loc 1 688 31 view .LVU445
 1191 0480 ADF84E30 		strh	r3, [sp, #78]	@ movhi
 690:lvgl/src/widgets/lv_img.c ****                     coords_tmp.x1 = img_max_area.x1 + img->offset.x;
 1192              		.loc 1 690 17 is_stmt 1 view .LVU446
 1193 0484 21E0     		b	.L24
 1194              	.L27:
 696:lvgl/src/widgets/lv_img.c ****                     }
 1195              		.loc 1 696 25 view .LVU447
 1196 0486 636A     		ldr	r3, [r4, #36]
 1197 0488 12AA     		add	r2, sp, #72
 1198 048a 14A9     		add	r1, sp, #80
 1199 048c 3046     		mov	r0, r6
 1200 048e FFF7FEFF 		bl	lv_draw_img
 1201              	.LVL94:
 695:lvgl/src/widgets/lv_img.c ****                         lv_draw_img(draw_ctx, &img_dsc, &coords_tmp, img->src);
 1202              		.loc 1 695 93 discriminator 2 view .LVU448
 695:lvgl/src/widgets/lv_img.c ****                         lv_draw_img(draw_ctx, &img_dsc, &coords_tmp, img->src);
 1203              		.loc 1 695 70 is_stmt 0 discriminator 2 view .LVU449
 1204 0492 BDF84820 		ldrh	r2, [sp, #72]
 695:lvgl/src/widgets/lv_img.c ****                         lv_draw_img(draw_ctx, &img_dsc, &coords_tmp, img->src);
 1205              		.loc 1 695 91 discriminator 2 view .LVU450
 1206 0496 BDF82430 		ldrh	r3, [sp, #36]
 695:lvgl/src/widgets/lv_img.c ****                         lv_draw_img(draw_ctx, &img_dsc, &coords_tmp, img->src);
 1207              		.loc 1 695 74 discriminator 2 view .LVU451
 1208 049a 1A44     		add	r2, r2, r3
 1209 049c ADF84820 		strh	r2, [sp, #72]	@ movhi
 695:lvgl/src/widgets/lv_img.c ****                         lv_draw_img(draw_ctx, &img_dsc, &coords_tmp, img->src);
 1210              		.loc 1 695 105 discriminator 2 view .LVU452
 1211 04a0 BDF84C20 		ldrh	r2, [sp, #76]
 695:lvgl/src/widgets/lv_img.c ****                         lv_draw_img(draw_ctx, &img_dsc, &coords_tmp, img->src);
 1212              		.loc 1 695 109 discriminator 2 view .LVU453
 1213 04a4 1344     		add	r3, r3, r2
 1214 04a6 ADF84C30 		strh	r3, [sp, #76]	@ movhi
 1215              	.L26:
 695:lvgl/src/widgets/lv_img.c ****                         lv_draw_img(draw_ctx, &img_dsc, &coords_tmp, img->src);
 1216              		.loc 1 695 41 is_stmt 1 discriminator 1 view .LVU454
 695:lvgl/src/widgets/lv_img.c ****                         lv_draw_img(draw_ctx, &img_dsc, &coords_tmp, img->src);
 1217              		.loc 1 695 37 is_stmt 0 discriminator 1 view .LVU455
 1218 04aa BDF94830 		ldrsh	r3, [sp, #72]
 695:lvgl/src/widgets/lv_img.c ****                         lv_draw_img(draw_ctx, &img_dsc, &coords_tmp, img->src);
 1219              		.loc 1 695 41 discriminator 1 view .LVU456
 1220 04ae 9D42     		cmp	r5, r3
 1221 04b0 E9DC     		bgt	.L27
 690:lvgl/src/widgets/lv_img.c ****                     coords_tmp.x1 = img_max_area.x1 + img->offset.x;
 1222              		.loc 1 690 89 is_stmt 1 view .LVU457
 690:lvgl/src/widgets/lv_img.c ****                     coords_tmp.x1 = img_max_area.x1 + img->offset.x;
 1223              		.loc 1 690 66 is_stmt 0 view .LVU458
ARM GAS  C:\usertemp\ccrOwx87.s 			page 50


 1224 04b2 BDF84A20 		ldrh	r2, [sp, #74]
 690:lvgl/src/widgets/lv_img.c ****                     coords_tmp.x1 = img_max_area.x1 + img->offset.x;
 1225              		.loc 1 690 87 view .LVU459
 1226 04b6 BDF82630 		ldrh	r3, [sp, #38]
 690:lvgl/src/widgets/lv_img.c ****                     coords_tmp.x1 = img_max_area.x1 + img->offset.x;
 1227              		.loc 1 690 70 view .LVU460
 1228 04ba 1A44     		add	r2, r2, r3
 1229 04bc ADF84A20 		strh	r2, [sp, #74]	@ movhi
 690:lvgl/src/widgets/lv_img.c ****                     coords_tmp.x1 = img_max_area.x1 + img->offset.x;
 1230              		.loc 1 690 101 view .LVU461
 1231 04c0 BDF84E20 		ldrh	r2, [sp, #78]
 690:lvgl/src/widgets/lv_img.c ****                     coords_tmp.x1 = img_max_area.x1 + img->offset.x;
 1232              		.loc 1 690 105 view .LVU462
 1233 04c4 1344     		add	r3, r3, r2
 1234 04c6 ADF84E30 		strh	r3, [sp, #78]	@ movhi
 1235              	.L24:
 690:lvgl/src/widgets/lv_img.c ****                     coords_tmp.x1 = img_max_area.x1 + img->offset.x;
 1236              		.loc 1 690 37 is_stmt 1 discriminator 1 view .LVU463
 690:lvgl/src/widgets/lv_img.c ****                     coords_tmp.x1 = img_max_area.x1 + img->offset.x;
 1237              		.loc 1 690 33 is_stmt 0 discriminator 1 view .LVU464
 1238 04ca BDF94A30 		ldrsh	r3, [sp, #74]
 690:lvgl/src/widgets/lv_img.c ****                     coords_tmp.x1 = img_max_area.x1 + img->offset.x;
 1239              		.loc 1 690 37 discriminator 1 view .LVU465
 1240 04ce 9845     		cmp	r8, r3
 1241 04d0 14DD     		ble	.L42
 691:lvgl/src/widgets/lv_img.c ****                     if(coords_tmp.x1 > img_max_area.x1) coords_tmp.x1 -= img->w;
 1242              		.loc 1 691 21 is_stmt 1 view .LVU466
 691:lvgl/src/widgets/lv_img.c ****                     if(coords_tmp.x1 > img_max_area.x1) coords_tmp.x1 -= img->w;
 1243              		.loc 1 691 66 is_stmt 0 view .LVU467
 1244 04d2 238D     		ldrh	r3, [r4, #40]
 691:lvgl/src/widgets/lv_img.c ****                     if(coords_tmp.x1 > img_max_area.x1) coords_tmp.x1 -= img->w;
 1245              		.loc 1 691 53 view .LVU468
 1246 04d4 5344     		add	r3, r3, r10
 1247 04d6 9AB2     		uxth	r2, r3
 1248 04d8 1BB2     		sxth	r3, r3
 691:lvgl/src/widgets/lv_img.c ****                     if(coords_tmp.x1 > img_max_area.x1) coords_tmp.x1 -= img->w;
 1249              		.loc 1 691 35 view .LVU469
 1250 04da ADF84830 		strh	r3, [sp, #72]	@ movhi
 692:lvgl/src/widgets/lv_img.c ****                     coords_tmp.x2 = coords_tmp.x1 + img->w - 1;
 1251              		.loc 1 692 21 is_stmt 1 view .LVU470
 692:lvgl/src/widgets/lv_img.c ****                     coords_tmp.x2 = coords_tmp.x1 + img->w - 1;
 1252              		.loc 1 692 23 is_stmt 0 view .LVU471
 1253 04de 9945     		cmp	r9, r3
 1254 04e0 03DA     		bge	.L25
 692:lvgl/src/widgets/lv_img.c ****                     coords_tmp.x2 = coords_tmp.x1 + img->w - 1;
 1255              		.loc 1 692 57 is_stmt 1 discriminator 1 view .LVU472
 692:lvgl/src/widgets/lv_img.c ****                     coords_tmp.x2 = coords_tmp.x1 + img->w - 1;
 1256              		.loc 1 692 77 is_stmt 0 discriminator 1 view .LVU473
 1257 04e2 A38D     		ldrh	r3, [r4, #44]
 692:lvgl/src/widgets/lv_img.c ****                     coords_tmp.x2 = coords_tmp.x1 + img->w - 1;
 1258              		.loc 1 692 71 discriminator 1 view .LVU474
 1259 04e4 D21A     		subs	r2, r2, r3
 1260 04e6 ADF84820 		strh	r2, [sp, #72]	@ movhi
 1261              	.L25:
 693:lvgl/src/widgets/lv_img.c **** 
 1262              		.loc 1 693 21 is_stmt 1 view .LVU475
 693:lvgl/src/widgets/lv_img.c **** 
ARM GAS  C:\usertemp\ccrOwx87.s 			page 51


 1263              		.loc 1 693 47 is_stmt 0 view .LVU476
 1264 04ea BDF84830 		ldrh	r3, [sp, #72]
 693:lvgl/src/widgets/lv_img.c **** 
 1265              		.loc 1 693 56 view .LVU477
 1266 04ee A28D     		ldrh	r2, [r4, #44]
 693:lvgl/src/widgets/lv_img.c **** 
 1267              		.loc 1 693 51 view .LVU478
 1268 04f0 1344     		add	r3, r3, r2
 1269 04f2 9BB2     		uxth	r3, r3
 693:lvgl/src/widgets/lv_img.c **** 
 1270              		.loc 1 693 60 view .LVU479
 1271 04f4 013B     		subs	r3, r3, #1
 693:lvgl/src/widgets/lv_img.c **** 
 1272              		.loc 1 693 35 view .LVU480
 1273 04f6 ADF84C30 		strh	r3, [sp, #76]	@ movhi
 695:lvgl/src/widgets/lv_img.c ****                         lv_draw_img(draw_ctx, &img_dsc, &coords_tmp, img->src);
 1274              		.loc 1 695 21 is_stmt 1 view .LVU481
 1275 04fa D6E7     		b	.L26
 1276              	.L42:
 699:lvgl/src/widgets/lv_img.c ****             }
 1277              		.loc 1 699 17 view .LVU482
 699:lvgl/src/widgets/lv_img.c ****             }
 1278              		.loc 1 699 37 is_stmt 0 view .LVU483
 1279 04fc B760     		str	r7, [r6, #8]
 1280              	.LBE127:
 1281 04fe 91E5     		b	.L3
 1282              	.LVL95:
 1283              	.L39:
 1284              	.LBB128:
 702:lvgl/src/widgets/lv_img.c ****                 lv_draw_label_dsc_init(&label_dsc);
 1285              		.loc 1 702 17 is_stmt 1 view .LVU484
 703:lvgl/src/widgets/lv_img.c ****                 lv_obj_init_draw_label_dsc(obj, LV_PART_MAIN, &label_dsc);
 1286              		.loc 1 703 17 view .LVU485
 1287 0500 14A8     		add	r0, sp, #80
 1288 0502 FFF7FEFF 		bl	lv_draw_label_dsc_init
 1289              	.LVL96:
 704:lvgl/src/widgets/lv_img.c **** 
 1290              		.loc 1 704 17 view .LVU486
 1291 0506 14AA     		add	r2, sp, #80
 1292 0508 0021     		movs	r1, #0
 1293 050a 2046     		mov	r0, r4
 1294 050c FFF7FEFF 		bl	lv_obj_init_draw_label_dsc
 1295              	.LVL97:
 706:lvgl/src/widgets/lv_img.c ****             }
 1296              		.loc 1 706 17 view .LVU487
 706:lvgl/src/widgets/lv_img.c ****             }
 1297              		.loc 1 706 70 is_stmt 0 view .LVU488
 1298 0510 636A     		ldr	r3, [r4, #36]
 706:lvgl/src/widgets/lv_img.c ****             }
 1299              		.loc 1 706 17 view .LVU489
 1300 0512 0022     		movs	r2, #0
 1301 0514 0092     		str	r2, [sp]
 1302 0516 04F11402 		add	r2, r4, #20
 1303 051a 14A9     		add	r1, sp, #80
 1304 051c 3046     		mov	r0, r6
 1305 051e FFF7FEFF 		bl	lv_draw_label
 1306              	.LVL98:
ARM GAS  C:\usertemp\ccrOwx87.s 			page 52


 1307              	.LBE128:
 1308 0522 7FE5     		b	.L3
 1309              	.L44:
 1310              		.align	2
 1311              	.L43:
 1312 0524 00000000 		.word	lv_img_class
 1313              	.LBE129:
 1314              	.LBE99:
 1315              		.cfi_endproc
 1316              	.LFE177:
 1318              		.section	.text.lv_img_destructor,"ax",%progbits
 1319              		.align	1
 1320              		.syntax unified
 1321              		.thumb
 1322              		.thumb_func
 1324              	lv_img_destructor:
 1325              	.LVL99:
 1326              	.LFB174:
 413:lvgl/src/widgets/lv_img.c ****     LV_UNUSED(class_p);
 1327              		.loc 1 413 1 is_stmt 1 view -0
 1328              		.cfi_startproc
 1329              		@ args = 0, pretend = 0, frame = 0
 1330              		@ frame_needed = 0, uses_anonymous_args = 0
 414:lvgl/src/widgets/lv_img.c ****     lv_img_t * img = (lv_img_t *)obj;
 1331              		.loc 1 414 5 view .LVU491
 415:lvgl/src/widgets/lv_img.c ****     if(img->src_type == LV_IMG_SRC_FILE || img->src_type == LV_IMG_SRC_SYMBOL) {
 1332              		.loc 1 415 5 view .LVU492
 416:lvgl/src/widgets/lv_img.c ****         lv_mem_free((void *)img->src);
 1333              		.loc 1 416 5 view .LVU493
 416:lvgl/src/widgets/lv_img.c ****         lv_mem_free((void *)img->src);
 1334              		.loc 1 416 22 is_stmt 0 view .LVU494
 1335 0000 91F83830 		ldrb	r3, [r1, #56]	@ zero_extendqisi2
 416:lvgl/src/widgets/lv_img.c ****         lv_mem_free((void *)img->src);
 1336              		.loc 1 416 41 view .LVU495
 1337 0004 03F00303 		and	r3, r3, #3
 1338 0008 013B     		subs	r3, r3, #1
 1339 000a DBB2     		uxtb	r3, r3
 416:lvgl/src/widgets/lv_img.c ****         lv_mem_free((void *)img->src);
 1340              		.loc 1 416 7 view .LVU496
 1341 000c 012B     		cmp	r3, #1
 1342 000e 00D9     		bls	.L51
 1343 0010 7047     		bx	lr
 1344              	.L51:
 413:lvgl/src/widgets/lv_img.c ****     LV_UNUSED(class_p);
 1345              		.loc 1 413 1 view .LVU497
 1346 0012 10B5     		push	{r4, lr}
 1347              	.LCFI7:
 1348              		.cfi_def_cfa_offset 8
 1349              		.cfi_offset 4, -8
 1350              		.cfi_offset 14, -4
 1351 0014 0C46     		mov	r4, r1
 417:lvgl/src/widgets/lv_img.c ****         img->src      = NULL;
 1352              		.loc 1 417 9 is_stmt 1 view .LVU498
 1353 0016 486A     		ldr	r0, [r1, #36]
 1354              	.LVL100:
 417:lvgl/src/widgets/lv_img.c ****         img->src      = NULL;
 1355              		.loc 1 417 9 is_stmt 0 view .LVU499
ARM GAS  C:\usertemp\ccrOwx87.s 			page 53


 1356 0018 FFF7FEFF 		bl	lv_mem_free
 1357              	.LVL101:
 418:lvgl/src/widgets/lv_img.c ****         img->src_type = LV_IMG_SRC_UNKNOWN;
 1358              		.loc 1 418 9 is_stmt 1 view .LVU500
 418:lvgl/src/widgets/lv_img.c ****         img->src_type = LV_IMG_SRC_UNKNOWN;
 1359              		.loc 1 418 23 is_stmt 0 view .LVU501
 1360 001c 0023     		movs	r3, #0
 1361 001e 6362     		str	r3, [r4, #36]
 419:lvgl/src/widgets/lv_img.c ****     }
 1362              		.loc 1 419 9 is_stmt 1 view .LVU502
 419:lvgl/src/widgets/lv_img.c ****     }
 1363              		.loc 1 419 23 is_stmt 0 view .LVU503
 1364 0020 94F83830 		ldrb	r3, [r4, #56]	@ zero_extendqisi2
 1365 0024 43F00303 		orr	r3, r3, #3
 1366 0028 84F83830 		strb	r3, [r4, #56]
 421:lvgl/src/widgets/lv_img.c **** 
 1367              		.loc 1 421 1 view .LVU504
 1368 002c 10BD     		pop	{r4, pc}
 421:lvgl/src/widgets/lv_img.c **** 
 1369              		.loc 1 421 1 view .LVU505
 1370              		.cfi_endproc
 1371              	.LFE174:
 1373              		.section	.text.lv_img_constructor,"ax",%progbits
 1374              		.align	1
 1375              		.syntax unified
 1376              		.thumb
 1377              		.thumb_func
 1379              	lv_img_constructor:
 1380              	.LVL102:
 1381              	.LFB173:
 386:lvgl/src/widgets/lv_img.c ****     LV_UNUSED(class_p);
 1382              		.loc 1 386 1 is_stmt 1 view -0
 1383              		.cfi_startproc
 1384              		@ args = 0, pretend = 0, frame = 0
 1385              		@ frame_needed = 0, uses_anonymous_args = 0
 386:lvgl/src/widgets/lv_img.c ****     LV_UNUSED(class_p);
 1386              		.loc 1 386 1 is_stmt 0 view .LVU507
 1387 0000 38B5     		push	{r3, r4, r5, lr}
 1388              	.LCFI8:
 1389              		.cfi_def_cfa_offset 16
 1390              		.cfi_offset 3, -16
 1391              		.cfi_offset 4, -12
 1392              		.cfi_offset 5, -8
 1393              		.cfi_offset 14, -4
 1394 0002 0C46     		mov	r4, r1
 387:lvgl/src/widgets/lv_img.c ****     LV_TRACE_OBJ_CREATE("begin");
 1395              		.loc 1 387 5 is_stmt 1 view .LVU508
 388:lvgl/src/widgets/lv_img.c **** 
 1396              		.loc 1 388 5 view .LVU509
 388:lvgl/src/widgets/lv_img.c **** 
 1397              		.loc 1 388 5 view .LVU510
 388:lvgl/src/widgets/lv_img.c **** 
 1398              		.loc 1 388 5 view .LVU511
 390:lvgl/src/widgets/lv_img.c **** 
 1399              		.loc 1 390 5 view .LVU512
 1400              	.LVL103:
 392:lvgl/src/widgets/lv_img.c ****     img->src_type  = LV_IMG_SRC_UNKNOWN;
ARM GAS  C:\usertemp\ccrOwx87.s 			page 54


 1401              		.loc 1 392 5 view .LVU513
 392:lvgl/src/widgets/lv_img.c ****     img->src_type  = LV_IMG_SRC_UNKNOWN;
 1402              		.loc 1 392 20 is_stmt 0 view .LVU514
 1403 0004 0025     		movs	r5, #0
 1404 0006 4D62     		str	r5, [r1, #36]
 393:lvgl/src/widgets/lv_img.c ****     img->cf        = LV_IMG_CF_UNKNOWN;
 1405              		.loc 1 393 5 is_stmt 1 view .LVU515
 393:lvgl/src/widgets/lv_img.c ****     img->cf        = LV_IMG_CF_UNKNOWN;
 1406              		.loc 1 393 20 is_stmt 0 view .LVU516
 1407 0008 91F83830 		ldrb	r3, [r1, #56]	@ zero_extendqisi2
 1408 000c 43F00303 		orr	r3, r3, #3
 1409 0010 81F83830 		strb	r3, [r1, #56]
 394:lvgl/src/widgets/lv_img.c ****     img->w         = lv_obj_get_width(obj);
 1410              		.loc 1 394 5 is_stmt 1 view .LVU517
 394:lvgl/src/widgets/lv_img.c ****     img->w         = lv_obj_get_width(obj);
 1411              		.loc 1 394 20 is_stmt 0 view .LVU518
 1412 0014 DBB2     		uxtb	r3, r3
 1413 0016 65F38603 		bfi	r3, r5, #2, #5
 1414 001a 81F83830 		strb	r3, [r1, #56]
 395:lvgl/src/widgets/lv_img.c ****     img->h         = lv_obj_get_height(obj);
 1415              		.loc 1 395 5 is_stmt 1 view .LVU519
 395:lvgl/src/widgets/lv_img.c ****     img->h         = lv_obj_get_height(obj);
 1416              		.loc 1 395 22 is_stmt 0 view .LVU520
 1417 001e 0846     		mov	r0, r1
 1418              	.LVL104:
 395:lvgl/src/widgets/lv_img.c ****     img->h         = lv_obj_get_height(obj);
 1419              		.loc 1 395 22 view .LVU521
 1420 0020 FFF7FEFF 		bl	lv_obj_get_width
 1421              	.LVL105:
 395:lvgl/src/widgets/lv_img.c ****     img->h         = lv_obj_get_height(obj);
 1422              		.loc 1 395 20 discriminator 1 view .LVU522
 1423 0024 A085     		strh	r0, [r4, #44]	@ movhi
 396:lvgl/src/widgets/lv_img.c ****     img->angle = 0;
 1424              		.loc 1 396 5 is_stmt 1 view .LVU523
 396:lvgl/src/widgets/lv_img.c ****     img->angle = 0;
 1425              		.loc 1 396 22 is_stmt 0 view .LVU524
 1426 0026 2046     		mov	r0, r4
 1427 0028 FFF7FEFF 		bl	lv_obj_get_height
 1428              	.LVL106:
 396:lvgl/src/widgets/lv_img.c ****     img->angle = 0;
 1429              		.loc 1 396 20 discriminator 1 view .LVU525
 1430 002c E085     		strh	r0, [r4, #46]	@ movhi
 397:lvgl/src/widgets/lv_img.c ****     img->zoom = LV_IMG_ZOOM_NONE;
 1431              		.loc 1 397 5 is_stmt 1 view .LVU526
 397:lvgl/src/widgets/lv_img.c ****     img->zoom = LV_IMG_ZOOM_NONE;
 1432              		.loc 1 397 16 is_stmt 0 view .LVU527
 1433 002e 2586     		strh	r5, [r4, #48]	@ movhi
 398:lvgl/src/widgets/lv_img.c ****     img->antialias = LV_COLOR_DEPTH > 8 ? 1 : 0;
 1434              		.loc 1 398 5 is_stmt 1 view .LVU528
 398:lvgl/src/widgets/lv_img.c ****     img->antialias = LV_COLOR_DEPTH > 8 ? 1 : 0;
 1435              		.loc 1 398 15 is_stmt 0 view .LVU529
 1436 0030 4FF48073 		mov	r3, #256
 1437 0034 E386     		strh	r3, [r4, #54]	@ movhi
 399:lvgl/src/widgets/lv_img.c ****     img->offset.x  = 0;
 1438              		.loc 1 399 5 is_stmt 1 view .LVU530
 399:lvgl/src/widgets/lv_img.c ****     img->offset.x  = 0;
 1439              		.loc 1 399 20 is_stmt 0 view .LVU531
ARM GAS  C:\usertemp\ccrOwx87.s 			page 55


 1440 0036 94F83830 		ldrb	r3, [r4, #56]	@ zero_extendqisi2
 1441 003a 43F08003 		orr	r3, r3, #128
 1442 003e 84F83830 		strb	r3, [r4, #56]
 400:lvgl/src/widgets/lv_img.c ****     img->offset.y  = 0;
 1443              		.loc 1 400 5 is_stmt 1 view .LVU532
 400:lvgl/src/widgets/lv_img.c ****     img->offset.y  = 0;
 1444              		.loc 1 400 20 is_stmt 0 view .LVU533
 1445 0042 2585     		strh	r5, [r4, #40]	@ movhi
 401:lvgl/src/widgets/lv_img.c ****     img->pivot.x = 0;
 1446              		.loc 1 401 5 is_stmt 1 view .LVU534
 401:lvgl/src/widgets/lv_img.c ****     img->pivot.x = 0;
 1447              		.loc 1 401 20 is_stmt 0 view .LVU535
 1448 0044 6585     		strh	r5, [r4, #42]	@ movhi
 402:lvgl/src/widgets/lv_img.c ****     img->pivot.y = 0;
 1449              		.loc 1 402 5 is_stmt 1 view .LVU536
 402:lvgl/src/widgets/lv_img.c ****     img->pivot.y = 0;
 1450              		.loc 1 402 18 is_stmt 0 view .LVU537
 1451 0046 6586     		strh	r5, [r4, #50]	@ movhi
 403:lvgl/src/widgets/lv_img.c ****     img->obj_size_mode = LV_IMG_SIZE_MODE_VIRTUAL;
 1452              		.loc 1 403 5 is_stmt 1 view .LVU538
 403:lvgl/src/widgets/lv_img.c ****     img->obj_size_mode = LV_IMG_SIZE_MODE_VIRTUAL;
 1453              		.loc 1 403 18 is_stmt 0 view .LVU539
 1454 0048 A586     		strh	r5, [r4, #52]	@ movhi
 404:lvgl/src/widgets/lv_img.c **** 
 1455              		.loc 1 404 5 is_stmt 1 view .LVU540
 404:lvgl/src/widgets/lv_img.c **** 
 1456              		.loc 1 404 24 is_stmt 0 view .LVU541
 1457 004a 94F83930 		ldrb	r3, [r4, #57]	@ zero_extendqisi2
 1458 004e 65F30103 		bfi	r3, r5, #0, #2
 1459 0052 84F83930 		strb	r3, [r4, #57]
 406:lvgl/src/widgets/lv_img.c ****     lv_obj_add_flag(obj, LV_OBJ_FLAG_ADV_HITTEST);
 1460              		.loc 1 406 5 is_stmt 1 view .LVU542
 1461 0056 0221     		movs	r1, #2
 1462 0058 2046     		mov	r0, r4
 1463 005a FFF7FEFF 		bl	lv_obj_clear_flag
 1464              	.LVL107:
 407:lvgl/src/widgets/lv_img.c **** 
 1465              		.loc 1 407 5 view .LVU543
 1466 005e 4FF48031 		mov	r1, #65536
 1467 0062 2046     		mov	r0, r4
 1468 0064 FFF7FEFF 		bl	lv_obj_add_flag
 1469              	.LVL108:
 409:lvgl/src/widgets/lv_img.c **** }
 1470              		.loc 1 409 5 view .LVU544
 409:lvgl/src/widgets/lv_img.c **** }
 1471              		.loc 1 409 5 view .LVU545
 409:lvgl/src/widgets/lv_img.c **** }
 1472              		.loc 1 409 5 view .LVU546
 410:lvgl/src/widgets/lv_img.c **** 
 1473              		.loc 1 410 1 is_stmt 0 view .LVU547
 1474 0068 38BD     		pop	{r3, r4, r5, pc}
 410:lvgl/src/widgets/lv_img.c **** 
 1475              		.loc 1 410 1 view .LVU548
 1476              		.cfi_endproc
 1477              	.LFE173:
 1479              		.section	.text.lv_img_create,"ax",%progbits
 1480              		.align	1
ARM GAS  C:\usertemp\ccrOwx87.s 			page 56


 1481              		.global	lv_img_create
 1482              		.syntax unified
 1483              		.thumb
 1484              		.thumb_func
 1486              	lv_img_create:
 1487              	.LVL109:
 1488              	.LFB156:
  58:lvgl/src/widgets/lv_img.c ****     LV_LOG_INFO("begin");
 1489              		.loc 1 58 1 is_stmt 1 view -0
 1490              		.cfi_startproc
 1491              		@ args = 0, pretend = 0, frame = 0
 1492              		@ frame_needed = 0, uses_anonymous_args = 0
  58:lvgl/src/widgets/lv_img.c ****     LV_LOG_INFO("begin");
 1493              		.loc 1 58 1 is_stmt 0 view .LVU550
 1494 0000 10B5     		push	{r4, lr}
 1495              	.LCFI9:
 1496              		.cfi_def_cfa_offset 8
 1497              		.cfi_offset 4, -8
 1498              		.cfi_offset 14, -4
 1499 0002 0146     		mov	r1, r0
  59:lvgl/src/widgets/lv_img.c ****     lv_obj_t * obj = lv_obj_class_create_obj(MY_CLASS, parent);
 1500              		.loc 1 59 5 is_stmt 1 view .LVU551
  59:lvgl/src/widgets/lv_img.c ****     lv_obj_t * obj = lv_obj_class_create_obj(MY_CLASS, parent);
 1501              		.loc 1 59 5 view .LVU552
  59:lvgl/src/widgets/lv_img.c ****     lv_obj_t * obj = lv_obj_class_create_obj(MY_CLASS, parent);
 1502              		.loc 1 59 5 view .LVU553
  60:lvgl/src/widgets/lv_img.c ****     lv_obj_class_init_obj(obj);
 1503              		.loc 1 60 5 view .LVU554
  60:lvgl/src/widgets/lv_img.c ****     lv_obj_class_init_obj(obj);
 1504              		.loc 1 60 22 is_stmt 0 view .LVU555
 1505 0004 0348     		ldr	r0, .L56
 1506              	.LVL110:
  60:lvgl/src/widgets/lv_img.c ****     lv_obj_class_init_obj(obj);
 1507              		.loc 1 60 22 view .LVU556
 1508 0006 FFF7FEFF 		bl	lv_obj_class_create_obj
 1509              	.LVL111:
  60:lvgl/src/widgets/lv_img.c ****     lv_obj_class_init_obj(obj);
 1510              		.loc 1 60 22 view .LVU557
 1511 000a 0446     		mov	r4, r0
 1512              	.LVL112:
  61:lvgl/src/widgets/lv_img.c ****     return obj;
 1513              		.loc 1 61 5 is_stmt 1 view .LVU558
 1514 000c FFF7FEFF 		bl	lv_obj_class_init_obj
 1515              	.LVL113:
  62:lvgl/src/widgets/lv_img.c **** }
 1516              		.loc 1 62 5 view .LVU559
  63:lvgl/src/widgets/lv_img.c **** 
 1517              		.loc 1 63 1 is_stmt 0 view .LVU560
 1518 0010 2046     		mov	r0, r4
 1519 0012 10BD     		pop	{r4, pc}
 1520              	.LVL114:
 1521              	.L57:
  63:lvgl/src/widgets/lv_img.c **** 
 1522              		.loc 1 63 1 view .LVU561
 1523              		.align	2
 1524              	.L56:
 1525 0014 00000000 		.word	lv_img_class
ARM GAS  C:\usertemp\ccrOwx87.s 			page 57


 1526              		.cfi_endproc
 1527              	.LFE156:
 1529              		.section	.text.lv_img_set_src,"ax",%progbits
 1530              		.align	1
 1531              		.global	lv_img_set_src
 1532              		.syntax unified
 1533              		.thumb
 1534              		.thumb_func
 1536              	lv_img_set_src:
 1537              	.LVL115:
 1538              	.LFB157:
  70:lvgl/src/widgets/lv_img.c ****     LV_ASSERT_OBJ(obj, MY_CLASS);
 1539              		.loc 1 70 1 is_stmt 1 view -0
 1540              		.cfi_startproc
 1541              		@ args = 0, pretend = 0, frame = 8
 1542              		@ frame_needed = 0, uses_anonymous_args = 0
  70:lvgl/src/widgets/lv_img.c ****     LV_ASSERT_OBJ(obj, MY_CLASS);
 1543              		.loc 1 70 1 is_stmt 0 view .LVU563
 1544 0000 2DE9F041 		push	{r4, r5, r6, r7, r8, lr}
 1545              	.LCFI10:
 1546              		.cfi_def_cfa_offset 24
 1547              		.cfi_offset 4, -24
 1548              		.cfi_offset 5, -20
 1549              		.cfi_offset 6, -16
 1550              		.cfi_offset 7, -12
 1551              		.cfi_offset 8, -8
 1552              		.cfi_offset 14, -4
 1553 0004 86B0     		sub	sp, sp, #24
 1554              	.LCFI11:
 1555              		.cfi_def_cfa_offset 48
 1556 0006 0446     		mov	r4, r0
 1557 0008 0E46     		mov	r6, r1
  71:lvgl/src/widgets/lv_img.c **** 
 1558              		.loc 1 71 5 is_stmt 1 view .LVU564
  71:lvgl/src/widgets/lv_img.c **** 
 1559              		.loc 1 71 5 view .LVU565
  71:lvgl/src/widgets/lv_img.c **** 
 1560              		.loc 1 71 5 view .LVU566
  73:lvgl/src/widgets/lv_img.c **** 
 1561              		.loc 1 73 5 view .LVU567
 1562 000a FFF7FEFF 		bl	lv_obj_invalidate
 1563              	.LVL116:
  75:lvgl/src/widgets/lv_img.c ****     lv_img_t * img = (lv_img_t *)obj;
 1564              		.loc 1 75 5 view .LVU568
  75:lvgl/src/widgets/lv_img.c ****     lv_img_t * img = (lv_img_t *)obj;
 1565              		.loc 1 75 29 is_stmt 0 view .LVU569
 1566 000e 3046     		mov	r0, r6
 1567 0010 FFF7FEFF 		bl	lv_img_src_get_type
 1568              	.LVL117:
  76:lvgl/src/widgets/lv_img.c **** 
 1569              		.loc 1 76 5 is_stmt 1 view .LVU570
  79:lvgl/src/widgets/lv_img.c ****         case LV_IMG_SRC_FILE:
 1570              		.loc 1 79 5 view .LVU571
  87:lvgl/src/widgets/lv_img.c ****             break;
 1571              		.loc 1 87 13 view .LVU572
  87:lvgl/src/widgets/lv_img.c ****             break;
 1572              		.loc 1 87 13 view .LVU573
ARM GAS  C:\usertemp\ccrOwx87.s 			page 58


  87:lvgl/src/widgets/lv_img.c ****             break;
 1573              		.loc 1 87 13 view .LVU574
  88:lvgl/src/widgets/lv_img.c ****         default:
 1574              		.loc 1 88 13 view .LVU575
  90:lvgl/src/widgets/lv_img.c ****     }
 1575              		.loc 1 90 13 view .LVU576
  90:lvgl/src/widgets/lv_img.c ****     }
 1576              		.loc 1 90 13 view .LVU577
  90:lvgl/src/widgets/lv_img.c ****     }
 1577              		.loc 1 90 13 view .LVU578
  95:lvgl/src/widgets/lv_img.c ****         LV_LOG_WARN("lv_img_set_src: unknown image type");
 1578              		.loc 1 95 5 view .LVU579
  95:lvgl/src/widgets/lv_img.c ****         LV_LOG_WARN("lv_img_set_src: unknown image type");
 1579              		.loc 1 95 7 is_stmt 0 view .LVU580
 1580 0014 0328     		cmp	r0, #3
 1581 0016 40D0     		beq	.L74
 1582 0018 0546     		mov	r5, r0
 105:lvgl/src/widgets/lv_img.c ****     lv_img_decoder_get_info(src, &header);
 1583              		.loc 1 105 5 is_stmt 1 view .LVU581
 106:lvgl/src/widgets/lv_img.c **** 
 1584              		.loc 1 106 5 view .LVU582
 1585 001a 05A9     		add	r1, sp, #20
 1586 001c 3046     		mov	r0, r6
 1587              	.LVL118:
 106:lvgl/src/widgets/lv_img.c **** 
 1588              		.loc 1 106 5 is_stmt 0 view .LVU583
 1589 001e FFF7FEFF 		bl	lv_img_decoder_get_info
 1590              	.LVL119:
 109:lvgl/src/widgets/lv_img.c ****         /*If memory was allocated because of the previous `src_type` then free it*/
 1591              		.loc 1 109 5 is_stmt 1 view .LVU584
 109:lvgl/src/widgets/lv_img.c ****         /*If memory was allocated because of the previous `src_type` then free it*/
 1592              		.loc 1 109 7 is_stmt 0 view .LVU585
 1593 0022 002D     		cmp	r5, #0
 1594 0024 52D1     		bne	.L62
 111:lvgl/src/widgets/lv_img.c ****             lv_mem_free((void *)img->src);
 1595              		.loc 1 111 9 is_stmt 1 view .LVU586
 111:lvgl/src/widgets/lv_img.c ****             lv_mem_free((void *)img->src);
 1596              		.loc 1 111 26 is_stmt 0 view .LVU587
 1597 0026 94F83830 		ldrb	r3, [r4, #56]	@ zero_extendqisi2
 111:lvgl/src/widgets/lv_img.c ****             lv_mem_free((void *)img->src);
 1598              		.loc 1 111 45 view .LVU588
 1599 002a 03F00303 		and	r3, r3, #3
 1600 002e 013B     		subs	r3, r3, #1
 1601 0030 DBB2     		uxtb	r3, r3
 111:lvgl/src/widgets/lv_img.c ****             lv_mem_free((void *)img->src);
 1602              		.loc 1 111 11 view .LVU589
 1603 0032 012B     		cmp	r3, #1
 1604 0034 46D9     		bls	.L75
 1605              	.L63:
 114:lvgl/src/widgets/lv_img.c ****     }
 1606              		.loc 1 114 9 is_stmt 1 view .LVU590
 114:lvgl/src/widgets/lv_img.c ****     }
 1607              		.loc 1 114 18 is_stmt 0 view .LVU591
 1608 0036 6662     		str	r6, [r4, #36]
 1609              	.L64:
 136:lvgl/src/widgets/lv_img.c ****         /*`lv_img_dsc_get_info` couldn't set the with and height of a font so set it here*/
 1610              		.loc 1 136 5 is_stmt 1 view .LVU592
ARM GAS  C:\usertemp\ccrOwx87.s 			page 59


 136:lvgl/src/widgets/lv_img.c ****         /*`lv_img_dsc_get_info` couldn't set the with and height of a font so set it here*/
 1611              		.loc 1 136 7 is_stmt 0 view .LVU593
 1612 0038 022D     		cmp	r5, #2
 1613 003a 6BD0     		beq	.L76
 1614              	.LVL120:
 1615              	.L65:
 147:lvgl/src/widgets/lv_img.c ****     img->w        = header.w;
 1616              		.loc 1 147 5 is_stmt 1 view .LVU594
 147:lvgl/src/widgets/lv_img.c ****     img->w        = header.w;
 1617              		.loc 1 147 19 is_stmt 0 view .LVU595
 1618 003c 94F83830 		ldrb	r3, [r4, #56]	@ zero_extendqisi2
 1619 0040 65F30103 		bfi	r3, r5, #0, #2
 1620 0044 84F83830 		strb	r3, [r4, #56]
 148:lvgl/src/widgets/lv_img.c ****     img->h        = header.h;
 1621              		.loc 1 148 5 is_stmt 1 view .LVU596
 148:lvgl/src/widgets/lv_img.c ****     img->h        = header.h;
 1622              		.loc 1 148 27 is_stmt 0 view .LVU597
 1623 0048 059A     		ldr	r2, [sp, #20]
 1624 004a C2F38A23 		ubfx	r3, r2, #10, #11
 148:lvgl/src/widgets/lv_img.c ****     img->h        = header.h;
 1625              		.loc 1 148 19 view .LVU598
 1626 004e A385     		strh	r3, [r4, #44]	@ movhi
 149:lvgl/src/widgets/lv_img.c ****     img->cf       = header.cf;
 1627              		.loc 1 149 5 is_stmt 1 view .LVU599
 149:lvgl/src/widgets/lv_img.c ****     img->cf       = header.cf;
 1628              		.loc 1 149 27 is_stmt 0 view .LVU600
 1629 0050 BDF81630 		ldrh	r3, [sp, #22]
 1630 0054 C3F34A11 		ubfx	r1, r3, #5, #11
 1631 0058 0B46     		mov	r3, r1
 149:lvgl/src/widgets/lv_img.c ****     img->cf       = header.cf;
 1632              		.loc 1 149 19 view .LVU601
 1633 005a E185     		strh	r1, [r4, #46]	@ movhi
 150:lvgl/src/widgets/lv_img.c ****     img->pivot.x = header.w / 2;
 1634              		.loc 1 150 5 is_stmt 1 view .LVU602
 150:lvgl/src/widgets/lv_img.c ****     img->pivot.x = header.w / 2;
 1635              		.loc 1 150 27 is_stmt 0 view .LVU603
 1636 005c 9DF81400 		ldrb	r0, [sp, #20]	@ zero_extendqisi2
 150:lvgl/src/widgets/lv_img.c ****     img->pivot.x = header.w / 2;
 1637              		.loc 1 150 19 view .LVU604
 1638 0060 94F83810 		ldrb	r1, [r4, #56]	@ zero_extendqisi2
 1639 0064 60F38601 		bfi	r1, r0, #2, #5
 1640 0068 84F83810 		strb	r1, [r4, #56]
 151:lvgl/src/widgets/lv_img.c ****     img->pivot.y = header.h / 2;
 1641              		.loc 1 151 5 is_stmt 1 view .LVU605
 151:lvgl/src/widgets/lv_img.c ****     img->pivot.y = header.h / 2;
 1642              		.loc 1 151 29 is_stmt 0 view .LVU606
 1643 006c C2F3C922 		ubfx	r2, r2, #11, #10
 151:lvgl/src/widgets/lv_img.c ****     img->pivot.y = header.h / 2;
 1644              		.loc 1 151 18 view .LVU607
 1645 0070 6286     		strh	r2, [r4, #50]	@ movhi
 152:lvgl/src/widgets/lv_img.c **** 
 1646              		.loc 1 152 5 is_stmt 1 view .LVU608
 152:lvgl/src/widgets/lv_img.c **** 
 1647              		.loc 1 152 29 is_stmt 0 view .LVU609
 1648 0072 5B10     		asrs	r3, r3, #1
 152:lvgl/src/widgets/lv_img.c **** 
 1649              		.loc 1 152 18 view .LVU610
ARM GAS  C:\usertemp\ccrOwx87.s 			page 60


 1650 0074 A386     		strh	r3, [r4, #52]	@ movhi
 154:lvgl/src/widgets/lv_img.c **** 
 1651              		.loc 1 154 5 is_stmt 1 view .LVU611
 1652 0076 2046     		mov	r0, r4
 1653 0078 FFF7FEFF 		bl	lv_obj_refresh_self_size
 1654              	.LVL121:
 157:lvgl/src/widgets/lv_img.c **** 
 1655              		.loc 1 157 5 view .LVU612
 157:lvgl/src/widgets/lv_img.c **** 
 1656              		.loc 1 157 11 is_stmt 0 view .LVU613
 1657 007c 238E     		ldrh	r3, [r4, #48]
 157:lvgl/src/widgets/lv_img.c **** 
 1658              		.loc 1 157 7 view .LVU614
 1659 007e 1BB9     		cbnz	r3, .L71
 157:lvgl/src/widgets/lv_img.c **** 
 1660              		.loc 1 157 25 discriminator 2 view .LVU615
 1661 0080 E38E     		ldrh	r3, [r4, #54]
 157:lvgl/src/widgets/lv_img.c **** 
 1662              		.loc 1 157 19 discriminator 2 view .LVU616
 1663 0082 B3F5807F 		cmp	r3, #256
 1664 0086 02D0     		beq	.L72
 1665              	.L71:
 157:lvgl/src/widgets/lv_img.c **** 
 1666              		.loc 1 157 53 is_stmt 1 discriminator 3 view .LVU617
 1667 0088 2046     		mov	r0, r4
 1668 008a FFF7FEFF 		bl	lv_obj_refresh_ext_draw_size
 1669              	.LVL122:
 1670              	.L72:
 159:lvgl/src/widgets/lv_img.c **** }
 1671              		.loc 1 159 5 view .LVU618
 1672 008e 2046     		mov	r0, r4
 1673 0090 FFF7FEFF 		bl	lv_obj_invalidate
 1674              	.LVL123:
 1675              	.L58:
 160:lvgl/src/widgets/lv_img.c **** 
 1676              		.loc 1 160 1 is_stmt 0 view .LVU619
 1677 0094 06B0     		add	sp, sp, #24
 1678              	.LCFI12:
 1679              		.cfi_remember_state
 1680              		.cfi_def_cfa_offset 24
 1681              		@ sp needed
 1682 0096 BDE8F081 		pop	{r4, r5, r6, r7, r8, pc}
 1683              	.LVL124:
 1684              	.L74:
 1685              	.LCFI13:
 1686              		.cfi_restore_state
  96:lvgl/src/widgets/lv_img.c ****         if(img->src_type == LV_IMG_SRC_SYMBOL || img->src_type == LV_IMG_SRC_FILE) {
 1687              		.loc 1 96 9 is_stmt 1 view .LVU620
  96:lvgl/src/widgets/lv_img.c ****         if(img->src_type == LV_IMG_SRC_SYMBOL || img->src_type == LV_IMG_SRC_FILE) {
 1688              		.loc 1 96 9 view .LVU621
  96:lvgl/src/widgets/lv_img.c ****         if(img->src_type == LV_IMG_SRC_SYMBOL || img->src_type == LV_IMG_SRC_FILE) {
 1689              		.loc 1 96 9 view .LVU622
  97:lvgl/src/widgets/lv_img.c ****             lv_mem_free((void *)img->src);
 1690              		.loc 1 97 9 view .LVU623
  97:lvgl/src/widgets/lv_img.c ****             lv_mem_free((void *)img->src);
 1691              		.loc 1 97 26 is_stmt 0 view .LVU624
 1692 009a 94F83830 		ldrb	r3, [r4, #56]	@ zero_extendqisi2
ARM GAS  C:\usertemp\ccrOwx87.s 			page 61


  97:lvgl/src/widgets/lv_img.c ****             lv_mem_free((void *)img->src);
 1693              		.loc 1 97 47 view .LVU625
 1694 009e 03F00303 		and	r3, r3, #3
 1695 00a2 013B     		subs	r3, r3, #1
 1696 00a4 DBB2     		uxtb	r3, r3
  97:lvgl/src/widgets/lv_img.c ****             lv_mem_free((void *)img->src);
 1697              		.loc 1 97 11 view .LVU626
 1698 00a6 012B     		cmp	r3, #1
 1699 00a8 08D9     		bls	.L77
 1700              	.LVL125:
 1701              	.L60:
 100:lvgl/src/widgets/lv_img.c ****         img->src_type = LV_IMG_SRC_UNKNOWN;
 1702              		.loc 1 100 9 is_stmt 1 view .LVU627
 100:lvgl/src/widgets/lv_img.c ****         img->src_type = LV_IMG_SRC_UNKNOWN;
 1703              		.loc 1 100 23 is_stmt 0 view .LVU628
 1704 00aa 0023     		movs	r3, #0
 1705 00ac 6362     		str	r3, [r4, #36]
 101:lvgl/src/widgets/lv_img.c ****         return;
 1706              		.loc 1 101 9 is_stmt 1 view .LVU629
 101:lvgl/src/widgets/lv_img.c ****         return;
 1707              		.loc 1 101 23 is_stmt 0 view .LVU630
 1708 00ae 94F83830 		ldrb	r3, [r4, #56]	@ zero_extendqisi2
 1709 00b2 43F00303 		orr	r3, r3, #3
 1710 00b6 84F83830 		strb	r3, [r4, #56]
 102:lvgl/src/widgets/lv_img.c ****     }
 1711              		.loc 1 102 9 is_stmt 1 view .LVU631
 1712 00ba EBE7     		b	.L58
 1713              	.LVL126:
 1714              	.L77:
  98:lvgl/src/widgets/lv_img.c ****         }
 1715              		.loc 1 98 13 view .LVU632
 1716 00bc 606A     		ldr	r0, [r4, #36]
 1717              	.LVL127:
  98:lvgl/src/widgets/lv_img.c ****         }
 1718              		.loc 1 98 13 is_stmt 0 view .LVU633
 1719 00be FFF7FEFF 		bl	lv_mem_free
 1720              	.LVL128:
 1721 00c2 F2E7     		b	.L60
 1722              	.LVL129:
 1723              	.L75:
 112:lvgl/src/widgets/lv_img.c ****         }
 1724              		.loc 1 112 13 is_stmt 1 view .LVU634
 1725 00c4 606A     		ldr	r0, [r4, #36]
 1726 00c6 FFF7FEFF 		bl	lv_mem_free
 1727              	.LVL130:
 1728 00ca B4E7     		b	.L63
 1729              	.L62:
 116:lvgl/src/widgets/lv_img.c ****         /*If the new and the old src are the same then it was only a refresh.*/
 1730              		.loc 1 116 10 view .LVU635
 116:lvgl/src/widgets/lv_img.c ****         /*If the new and the old src are the same then it was only a refresh.*/
 1731              		.loc 1 116 41 is_stmt 0 view .LVU636
 1732 00cc 6B1E     		subs	r3, r5, #1
 1733 00ce DBB2     		uxtb	r3, r3
 116:lvgl/src/widgets/lv_img.c ****         /*If the new and the old src are the same then it was only a refresh.*/
 1734              		.loc 1 116 12 view .LVU637
 1735 00d0 012B     		cmp	r3, #1
 1736 00d2 B3D8     		bhi	.L65
ARM GAS  C:\usertemp\ccrOwx87.s 			page 62


 118:lvgl/src/widgets/lv_img.c ****             const void * old_src = NULL;
 1737              		.loc 1 118 9 is_stmt 1 view .LVU638
 118:lvgl/src/widgets/lv_img.c ****             const void * old_src = NULL;
 1738              		.loc 1 118 15 is_stmt 0 view .LVU639
 1739 00d4 676A     		ldr	r7, [r4, #36]
 118:lvgl/src/widgets/lv_img.c ****             const void * old_src = NULL;
 1740              		.loc 1 118 11 view .LVU640
 1741 00d6 B742     		cmp	r7, r6
 1742 00d8 AED0     		beq	.L64
 1743              	.LBB130:
 119:lvgl/src/widgets/lv_img.c ****             /*If memory was allocated because of the previous `src_type` then save its pointer and 
 1744              		.loc 1 119 13 is_stmt 1 view .LVU641
 1745              	.LVL131:
 123:lvgl/src/widgets/lv_img.c ****                 old_src = img->src;
 1746              		.loc 1 123 13 view .LVU642
 123:lvgl/src/widgets/lv_img.c ****                 old_src = img->src;
 1747              		.loc 1 123 30 is_stmt 0 view .LVU643
 1748 00da 94F83830 		ldrb	r3, [r4, #56]	@ zero_extendqisi2
 123:lvgl/src/widgets/lv_img.c ****                 old_src = img->src;
 1749              		.loc 1 123 49 view .LVU644
 1750 00de 03F00303 		and	r3, r3, #3
 1751 00e2 013B     		subs	r3, r3, #1
 1752 00e4 DBB2     		uxtb	r3, r3
 123:lvgl/src/widgets/lv_img.c ****                 old_src = img->src;
 1753              		.loc 1 123 15 view .LVU645
 1754 00e6 012B     		cmp	r3, #1
 1755 00e8 00D9     		bls	.L66
 119:lvgl/src/widgets/lv_img.c ****             /*If memory was allocated because of the previous `src_type` then save its pointer and 
 1756              		.loc 1 119 26 view .LVU646
 1757 00ea 0027     		movs	r7, #0
 1758              	.L66:
 1759              	.LVL132:
 126:lvgl/src/widgets/lv_img.c ****             LV_ASSERT_MALLOC(new_str);
 1760              		.loc 1 126 13 is_stmt 1 view .LVU647
 126:lvgl/src/widgets/lv_img.c ****             LV_ASSERT_MALLOC(new_str);
 1761              		.loc 1 126 43 is_stmt 0 view .LVU648
 1762 00ec 3046     		mov	r0, r6
 1763 00ee FFF7FEFF 		bl	strlen
 1764              	.LVL133:
 126:lvgl/src/widgets/lv_img.c ****             LV_ASSERT_MALLOC(new_str);
 1765              		.loc 1 126 30 discriminator 1 view .LVU649
 1766 00f2 0130     		adds	r0, r0, #1
 1767 00f4 FFF7FEFF 		bl	lv_mem_alloc
 1768              	.LVL134:
 127:lvgl/src/widgets/lv_img.c ****             if(new_str == NULL) return;
 1769              		.loc 1 127 13 is_stmt 1 view .LVU650
 127:lvgl/src/widgets/lv_img.c ****             if(new_str == NULL) return;
 1770              		.loc 1 127 13 view .LVU651
 1771 00f8 8046     		mov	r8, r0
 1772 00fa 50B1     		cbz	r0, .L68
 127:lvgl/src/widgets/lv_img.c ****             if(new_str == NULL) return;
 1773              		.loc 1 127 13 discriminator 2 view .LVU652
 127:lvgl/src/widgets/lv_img.c ****             if(new_str == NULL) return;
 1774              		.loc 1 127 38 discriminator 2 view .LVU653
 128:lvgl/src/widgets/lv_img.c ****             strcpy(new_str, src);
 1775              		.loc 1 128 13 view .LVU654
 129:lvgl/src/widgets/lv_img.c ****             img->src = new_str;
ARM GAS  C:\usertemp\ccrOwx87.s 			page 63


 1776              		.loc 1 129 13 view .LVU655
 1777 00fc 3146     		mov	r1, r6
 1778 00fe FFF7FEFF 		bl	strcpy
 1779              	.LVL135:
 130:lvgl/src/widgets/lv_img.c **** 
 1780              		.loc 1 130 13 view .LVU656
 130:lvgl/src/widgets/lv_img.c **** 
 1781              		.loc 1 130 22 is_stmt 0 view .LVU657
 1782 0102 C4F82480 		str	r8, [r4, #36]
 132:lvgl/src/widgets/lv_img.c ****         }
 1783              		.loc 1 132 13 is_stmt 1 view .LVU658
 132:lvgl/src/widgets/lv_img.c ****         }
 1784              		.loc 1 132 15 is_stmt 0 view .LVU659
 1785 0106 002F     		cmp	r7, #0
 1786 0108 96D0     		beq	.L64
 132:lvgl/src/widgets/lv_img.c ****         }
 1787              		.loc 1 132 25 is_stmt 1 discriminator 1 view .LVU660
 1788 010a 3846     		mov	r0, r7
 1789 010c FFF7FEFF 		bl	lv_mem_free
 1790              	.LVL136:
 1791 0110 92E7     		b	.L64
 1792              	.LVL137:
 1793              	.L68:
 127:lvgl/src/widgets/lv_img.c ****             if(new_str == NULL) return;
 1794              		.loc 1 127 13 discriminator 1 view .LVU661
 127:lvgl/src/widgets/lv_img.c ****             if(new_str == NULL) return;
 1795              		.loc 1 127 13 discriminator 1 view .LVU662
 127:lvgl/src/widgets/lv_img.c ****             if(new_str == NULL) return;
 1796              		.loc 1 127 13 discriminator 1 view .LVU663
 127:lvgl/src/widgets/lv_img.c ****             if(new_str == NULL) return;
 1797              		.loc 1 127 13 discriminator 1 view .LVU664
 127:lvgl/src/widgets/lv_img.c ****             if(new_str == NULL) return;
 1798              		.loc 1 127 13 discriminator 1 view .LVU665
 1799 0112 FEE7     		b	.L68
 1800              	.LVL138:
 1801              	.L76:
 127:lvgl/src/widgets/lv_img.c ****             if(new_str == NULL) return;
 1802              		.loc 1 127 13 is_stmt 0 discriminator 1 view .LVU666
 1803              	.LBE130:
 1804              	.LBB131:
 138:lvgl/src/widgets/lv_img.c ****         lv_coord_t letter_space = lv_obj_get_style_text_letter_space(obj, LV_PART_MAIN);
 1805              		.loc 1 138 9 is_stmt 1 view .LVU667
 1806              	.LBB132:
 1807              	.LBI132:
 335:lvgl/src/widgets/../core/lv_obj_style_gen.h **** }
 336:lvgl/src/widgets/../core/lv_obj_style_gen.h **** 
 337:lvgl/src/widgets/../core/lv_obj_style_gen.h **** static inline lv_color_t lv_obj_get_style_img_recolor(const struct _lv_obj_t * obj, uint32_t part)
 338:lvgl/src/widgets/../core/lv_obj_style_gen.h **** {
 339:lvgl/src/widgets/../core/lv_obj_style_gen.h ****     lv_style_value_t v = lv_obj_get_style_prop(obj, part, LV_STYLE_IMG_RECOLOR);
 340:lvgl/src/widgets/../core/lv_obj_style_gen.h ****     return v.color;
 341:lvgl/src/widgets/../core/lv_obj_style_gen.h **** }
 342:lvgl/src/widgets/../core/lv_obj_style_gen.h **** 
 343:lvgl/src/widgets/../core/lv_obj_style_gen.h **** static inline lv_color_t lv_obj_get_style_img_recolor_filtered(const struct _lv_obj_t * obj, uint32
 344:lvgl/src/widgets/../core/lv_obj_style_gen.h **** {
 345:lvgl/src/widgets/../core/lv_obj_style_gen.h ****     lv_style_value_t v = lv_obj_get_style_prop(obj, part, LV_STYLE_IMG_RECOLOR_FILTERED);
 346:lvgl/src/widgets/../core/lv_obj_style_gen.h ****     return v.color;
 347:lvgl/src/widgets/../core/lv_obj_style_gen.h **** }
ARM GAS  C:\usertemp\ccrOwx87.s 			page 64


 348:lvgl/src/widgets/../core/lv_obj_style_gen.h **** 
 349:lvgl/src/widgets/../core/lv_obj_style_gen.h **** static inline lv_opa_t lv_obj_get_style_img_recolor_opa(const struct _lv_obj_t * obj, uint32_t part
 350:lvgl/src/widgets/../core/lv_obj_style_gen.h **** {
 351:lvgl/src/widgets/../core/lv_obj_style_gen.h ****     lv_style_value_t v = lv_obj_get_style_prop(obj, part, LV_STYLE_IMG_RECOLOR_OPA);
 352:lvgl/src/widgets/../core/lv_obj_style_gen.h ****     return (lv_opa_t)v.num;
 353:lvgl/src/widgets/../core/lv_obj_style_gen.h **** }
 354:lvgl/src/widgets/../core/lv_obj_style_gen.h **** 
 355:lvgl/src/widgets/../core/lv_obj_style_gen.h **** static inline lv_coord_t lv_obj_get_style_line_width(const struct _lv_obj_t * obj, uint32_t part)
 356:lvgl/src/widgets/../core/lv_obj_style_gen.h **** {
 357:lvgl/src/widgets/../core/lv_obj_style_gen.h ****     lv_style_value_t v = lv_obj_get_style_prop(obj, part, LV_STYLE_LINE_WIDTH);
 358:lvgl/src/widgets/../core/lv_obj_style_gen.h ****     return (lv_coord_t)v.num;
 359:lvgl/src/widgets/../core/lv_obj_style_gen.h **** }
 360:lvgl/src/widgets/../core/lv_obj_style_gen.h **** 
 361:lvgl/src/widgets/../core/lv_obj_style_gen.h **** static inline lv_coord_t lv_obj_get_style_line_dash_width(const struct _lv_obj_t * obj, uint32_t pa
 362:lvgl/src/widgets/../core/lv_obj_style_gen.h **** {
 363:lvgl/src/widgets/../core/lv_obj_style_gen.h ****     lv_style_value_t v = lv_obj_get_style_prop(obj, part, LV_STYLE_LINE_DASH_WIDTH);
 364:lvgl/src/widgets/../core/lv_obj_style_gen.h ****     return (lv_coord_t)v.num;
 365:lvgl/src/widgets/../core/lv_obj_style_gen.h **** }
 366:lvgl/src/widgets/../core/lv_obj_style_gen.h **** 
 367:lvgl/src/widgets/../core/lv_obj_style_gen.h **** static inline lv_coord_t lv_obj_get_style_line_dash_gap(const struct _lv_obj_t * obj, uint32_t part
 368:lvgl/src/widgets/../core/lv_obj_style_gen.h **** {
 369:lvgl/src/widgets/../core/lv_obj_style_gen.h ****     lv_style_value_t v = lv_obj_get_style_prop(obj, part, LV_STYLE_LINE_DASH_GAP);
 370:lvgl/src/widgets/../core/lv_obj_style_gen.h ****     return (lv_coord_t)v.num;
 371:lvgl/src/widgets/../core/lv_obj_style_gen.h **** }
 372:lvgl/src/widgets/../core/lv_obj_style_gen.h **** 
 373:lvgl/src/widgets/../core/lv_obj_style_gen.h **** static inline bool lv_obj_get_style_line_rounded(const struct _lv_obj_t * obj, uint32_t part)
 374:lvgl/src/widgets/../core/lv_obj_style_gen.h **** {
 375:lvgl/src/widgets/../core/lv_obj_style_gen.h ****     lv_style_value_t v = lv_obj_get_style_prop(obj, part, LV_STYLE_LINE_ROUNDED);
 376:lvgl/src/widgets/../core/lv_obj_style_gen.h ****     return (bool)v.num;
 377:lvgl/src/widgets/../core/lv_obj_style_gen.h **** }
 378:lvgl/src/widgets/../core/lv_obj_style_gen.h **** 
 379:lvgl/src/widgets/../core/lv_obj_style_gen.h **** static inline lv_color_t lv_obj_get_style_line_color(const struct _lv_obj_t * obj, uint32_t part)
 380:lvgl/src/widgets/../core/lv_obj_style_gen.h **** {
 381:lvgl/src/widgets/../core/lv_obj_style_gen.h ****     lv_style_value_t v = lv_obj_get_style_prop(obj, part, LV_STYLE_LINE_COLOR);
 382:lvgl/src/widgets/../core/lv_obj_style_gen.h ****     return v.color;
 383:lvgl/src/widgets/../core/lv_obj_style_gen.h **** }
 384:lvgl/src/widgets/../core/lv_obj_style_gen.h **** 
 385:lvgl/src/widgets/../core/lv_obj_style_gen.h **** static inline lv_color_t lv_obj_get_style_line_color_filtered(const struct _lv_obj_t * obj, uint32_
 386:lvgl/src/widgets/../core/lv_obj_style_gen.h **** {
 387:lvgl/src/widgets/../core/lv_obj_style_gen.h ****     lv_style_value_t v = lv_obj_get_style_prop(obj, part, LV_STYLE_LINE_COLOR_FILTERED);
 388:lvgl/src/widgets/../core/lv_obj_style_gen.h ****     return v.color;
 389:lvgl/src/widgets/../core/lv_obj_style_gen.h **** }
 390:lvgl/src/widgets/../core/lv_obj_style_gen.h **** 
 391:lvgl/src/widgets/../core/lv_obj_style_gen.h **** static inline lv_opa_t lv_obj_get_style_line_opa(const struct _lv_obj_t * obj, uint32_t part)
 392:lvgl/src/widgets/../core/lv_obj_style_gen.h **** {
 393:lvgl/src/widgets/../core/lv_obj_style_gen.h ****     lv_style_value_t v = lv_obj_get_style_prop(obj, part, LV_STYLE_LINE_OPA);
 394:lvgl/src/widgets/../core/lv_obj_style_gen.h ****     return (lv_opa_t)v.num;
 395:lvgl/src/widgets/../core/lv_obj_style_gen.h **** }
 396:lvgl/src/widgets/../core/lv_obj_style_gen.h **** 
 397:lvgl/src/widgets/../core/lv_obj_style_gen.h **** static inline lv_coord_t lv_obj_get_style_arc_width(const struct _lv_obj_t * obj, uint32_t part)
 398:lvgl/src/widgets/../core/lv_obj_style_gen.h **** {
 399:lvgl/src/widgets/../core/lv_obj_style_gen.h ****     lv_style_value_t v = lv_obj_get_style_prop(obj, part, LV_STYLE_ARC_WIDTH);
 400:lvgl/src/widgets/../core/lv_obj_style_gen.h ****     return (lv_coord_t)v.num;
 401:lvgl/src/widgets/../core/lv_obj_style_gen.h **** }
 402:lvgl/src/widgets/../core/lv_obj_style_gen.h **** 
 403:lvgl/src/widgets/../core/lv_obj_style_gen.h **** static inline bool lv_obj_get_style_arc_rounded(const struct _lv_obj_t * obj, uint32_t part)
 404:lvgl/src/widgets/../core/lv_obj_style_gen.h **** {
ARM GAS  C:\usertemp\ccrOwx87.s 			page 65


 405:lvgl/src/widgets/../core/lv_obj_style_gen.h ****     lv_style_value_t v = lv_obj_get_style_prop(obj, part, LV_STYLE_ARC_ROUNDED);
 406:lvgl/src/widgets/../core/lv_obj_style_gen.h ****     return (bool)v.num;
 407:lvgl/src/widgets/../core/lv_obj_style_gen.h **** }
 408:lvgl/src/widgets/../core/lv_obj_style_gen.h **** 
 409:lvgl/src/widgets/../core/lv_obj_style_gen.h **** static inline lv_color_t lv_obj_get_style_arc_color(const struct _lv_obj_t * obj, uint32_t part)
 410:lvgl/src/widgets/../core/lv_obj_style_gen.h **** {
 411:lvgl/src/widgets/../core/lv_obj_style_gen.h ****     lv_style_value_t v = lv_obj_get_style_prop(obj, part, LV_STYLE_ARC_COLOR);
 412:lvgl/src/widgets/../core/lv_obj_style_gen.h ****     return v.color;
 413:lvgl/src/widgets/../core/lv_obj_style_gen.h **** }
 414:lvgl/src/widgets/../core/lv_obj_style_gen.h **** 
 415:lvgl/src/widgets/../core/lv_obj_style_gen.h **** static inline lv_color_t lv_obj_get_style_arc_color_filtered(const struct _lv_obj_t * obj, uint32_t
 416:lvgl/src/widgets/../core/lv_obj_style_gen.h **** {
 417:lvgl/src/widgets/../core/lv_obj_style_gen.h ****     lv_style_value_t v = lv_obj_get_style_prop(obj, part, LV_STYLE_ARC_COLOR_FILTERED);
 418:lvgl/src/widgets/../core/lv_obj_style_gen.h ****     return v.color;
 419:lvgl/src/widgets/../core/lv_obj_style_gen.h **** }
 420:lvgl/src/widgets/../core/lv_obj_style_gen.h **** 
 421:lvgl/src/widgets/../core/lv_obj_style_gen.h **** static inline lv_opa_t lv_obj_get_style_arc_opa(const struct _lv_obj_t * obj, uint32_t part)
 422:lvgl/src/widgets/../core/lv_obj_style_gen.h **** {
 423:lvgl/src/widgets/../core/lv_obj_style_gen.h ****     lv_style_value_t v = lv_obj_get_style_prop(obj, part, LV_STYLE_ARC_OPA);
 424:lvgl/src/widgets/../core/lv_obj_style_gen.h ****     return (lv_opa_t)v.num;
 425:lvgl/src/widgets/../core/lv_obj_style_gen.h **** }
 426:lvgl/src/widgets/../core/lv_obj_style_gen.h **** 
 427:lvgl/src/widgets/../core/lv_obj_style_gen.h **** static inline const void * lv_obj_get_style_arc_img_src(const struct _lv_obj_t * obj, uint32_t part
 428:lvgl/src/widgets/../core/lv_obj_style_gen.h **** {
 429:lvgl/src/widgets/../core/lv_obj_style_gen.h ****     lv_style_value_t v = lv_obj_get_style_prop(obj, part, LV_STYLE_ARC_IMG_SRC);
 430:lvgl/src/widgets/../core/lv_obj_style_gen.h ****     return (const void *)v.ptr;
 431:lvgl/src/widgets/../core/lv_obj_style_gen.h **** }
 432:lvgl/src/widgets/../core/lv_obj_style_gen.h **** 
 433:lvgl/src/widgets/../core/lv_obj_style_gen.h **** static inline lv_color_t lv_obj_get_style_text_color(const struct _lv_obj_t * obj, uint32_t part)
 434:lvgl/src/widgets/../core/lv_obj_style_gen.h **** {
 435:lvgl/src/widgets/../core/lv_obj_style_gen.h ****     lv_style_value_t v = lv_obj_get_style_prop(obj, part, LV_STYLE_TEXT_COLOR);
 436:lvgl/src/widgets/../core/lv_obj_style_gen.h ****     return v.color;
 437:lvgl/src/widgets/../core/lv_obj_style_gen.h **** }
 438:lvgl/src/widgets/../core/lv_obj_style_gen.h **** 
 439:lvgl/src/widgets/../core/lv_obj_style_gen.h **** static inline lv_color_t lv_obj_get_style_text_color_filtered(const struct _lv_obj_t * obj, uint32_
 440:lvgl/src/widgets/../core/lv_obj_style_gen.h **** {
 441:lvgl/src/widgets/../core/lv_obj_style_gen.h ****     lv_style_value_t v = lv_obj_get_style_prop(obj, part, LV_STYLE_TEXT_COLOR_FILTERED);
 442:lvgl/src/widgets/../core/lv_obj_style_gen.h ****     return v.color;
 443:lvgl/src/widgets/../core/lv_obj_style_gen.h **** }
 444:lvgl/src/widgets/../core/lv_obj_style_gen.h **** 
 445:lvgl/src/widgets/../core/lv_obj_style_gen.h **** static inline lv_opa_t lv_obj_get_style_text_opa(const struct _lv_obj_t * obj, uint32_t part)
 446:lvgl/src/widgets/../core/lv_obj_style_gen.h **** {
 447:lvgl/src/widgets/../core/lv_obj_style_gen.h ****     lv_style_value_t v = lv_obj_get_style_prop(obj, part, LV_STYLE_TEXT_OPA);
 448:lvgl/src/widgets/../core/lv_obj_style_gen.h ****     return (lv_opa_t)v.num;
 449:lvgl/src/widgets/../core/lv_obj_style_gen.h **** }
 450:lvgl/src/widgets/../core/lv_obj_style_gen.h **** 
 451:lvgl/src/widgets/../core/lv_obj_style_gen.h **** static inline const lv_font_t * lv_obj_get_style_text_font(const struct _lv_obj_t * obj, uint32_t p
 1808              		.loc 2 451 33 view .LVU668
 1809              	.LBB133:
 452:lvgl/src/widgets/../core/lv_obj_style_gen.h **** {
 453:lvgl/src/widgets/../core/lv_obj_style_gen.h ****     lv_style_value_t v = lv_obj_get_style_prop(obj, part, LV_STYLE_TEXT_FONT);
 1810              		.loc 2 453 5 view .LVU669
 1811              		.loc 2 453 26 is_stmt 0 view .LVU670
 1812 0114 41F25942 		movw	r2, #5209
 1813 0118 0021     		movs	r1, #0
 1814 011a 2046     		mov	r0, r4
 1815 011c FFF7FEFF 		bl	lv_obj_get_style_prop
ARM GAS  C:\usertemp\ccrOwx87.s 			page 66


 1816              	.LVL139:
 1817 0120 0746     		mov	r7, r0
 454:lvgl/src/widgets/../core/lv_obj_style_gen.h ****     return (const lv_font_t *)v.ptr;
 1818              		.loc 2 454 5 is_stmt 1 view .LVU671
 1819              	.LVL140:
 1820              		.loc 2 454 5 is_stmt 0 view .LVU672
 1821              	.LBE133:
 1822              	.LBE132:
 139:lvgl/src/widgets/lv_img.c ****         lv_coord_t line_space = lv_obj_get_style_text_line_space(obj, LV_PART_MAIN);
 1823              		.loc 1 139 9 is_stmt 1 view .LVU673
 1824              	.LBB134:
 1825              	.LBI134:
 455:lvgl/src/widgets/../core/lv_obj_style_gen.h **** }
 456:lvgl/src/widgets/../core/lv_obj_style_gen.h **** 
 457:lvgl/src/widgets/../core/lv_obj_style_gen.h **** static inline lv_coord_t lv_obj_get_style_text_letter_space(const struct _lv_obj_t * obj, uint32_t 
 1826              		.loc 2 457 26 view .LVU674
 1827              	.LBB135:
 458:lvgl/src/widgets/../core/lv_obj_style_gen.h **** {
 459:lvgl/src/widgets/../core/lv_obj_style_gen.h ****     lv_style_value_t v = lv_obj_get_style_prop(obj, part, LV_STYLE_TEXT_LETTER_SPACE);
 1828              		.loc 2 459 5 view .LVU675
 1829              		.loc 2 459 26 is_stmt 0 view .LVU676
 1830 0122 41F25A42 		movw	r2, #5210
 1831 0126 0021     		movs	r1, #0
 1832 0128 2046     		mov	r0, r4
 1833              	.LVL141:
 1834              		.loc 2 459 26 view .LVU677
 1835 012a FFF7FEFF 		bl	lv_obj_get_style_prop
 1836              	.LVL142:
 460:lvgl/src/widgets/../core/lv_obj_style_gen.h ****     return (lv_coord_t)v.num;
 1837              		.loc 2 460 5 is_stmt 1 view .LVU678
 1838              		.loc 2 460 12 is_stmt 0 view .LVU679
 1839 012e 0FFA80F8 		sxth	r8, r0
 1840              	.LVL143:
 1841              		.loc 2 460 12 view .LVU680
 1842              	.LBE135:
 1843              	.LBE134:
 140:lvgl/src/widgets/lv_img.c ****         lv_point_t size;
 1844              		.loc 1 140 9 is_stmt 1 view .LVU681
 1845              	.LBB136:
 1846              	.LBI136:
 461:lvgl/src/widgets/../core/lv_obj_style_gen.h **** }
 462:lvgl/src/widgets/../core/lv_obj_style_gen.h **** 
 463:lvgl/src/widgets/../core/lv_obj_style_gen.h **** static inline lv_coord_t lv_obj_get_style_text_line_space(const struct _lv_obj_t * obj, uint32_t pa
 1847              		.loc 2 463 26 view .LVU682
 1848              	.LBB137:
 464:lvgl/src/widgets/../core/lv_obj_style_gen.h **** {
 465:lvgl/src/widgets/../core/lv_obj_style_gen.h ****     lv_style_value_t v = lv_obj_get_style_prop(obj, part, LV_STYLE_TEXT_LINE_SPACE);
 1849              		.loc 2 465 5 view .LVU683
 1850              		.loc 2 465 26 is_stmt 0 view .LVU684
 1851 0132 41F25B42 		movw	r2, #5211
 1852 0136 0021     		movs	r1, #0
 1853 0138 2046     		mov	r0, r4
 1854 013a FFF7FEFF 		bl	lv_obj_get_style_prop
 1855              	.LVL144:
 466:lvgl/src/widgets/../core/lv_obj_style_gen.h ****     return (lv_coord_t)v.num;
 1856              		.loc 2 466 5 is_stmt 1 view .LVU685
 1857              		.loc 2 466 12 is_stmt 0 view .LVU686
ARM GAS  C:\usertemp\ccrOwx87.s 			page 67


 1858 013e 00B2     		sxth	r0, r0
 1859              	.LVL145:
 1860              		.loc 2 466 12 view .LVU687
 1861              	.LBE137:
 1862              	.LBE136:
 141:lvgl/src/widgets/lv_img.c ****         lv_txt_get_size(&size, src, font, letter_space, line_space, LV_COORD_MAX, LV_TEXT_FLAG_NONE
 1863              		.loc 1 141 9 is_stmt 1 view .LVU688
 142:lvgl/src/widgets/lv_img.c ****         header.w = size.x;
 1864              		.loc 1 142 9 view .LVU689
 1865 0140 0023     		movs	r3, #0
 1866 0142 0293     		str	r3, [sp, #8]
 1867 0144 41F6FF73 		movw	r3, #8191
 1868 0148 0193     		str	r3, [sp, #4]
 1869 014a 0090     		str	r0, [sp]
 1870 014c 4346     		mov	r3, r8
 1871 014e 3A46     		mov	r2, r7
 1872 0150 3146     		mov	r1, r6
 1873 0152 04A8     		add	r0, sp, #16
 1874              	.LVL146:
 142:lvgl/src/widgets/lv_img.c ****         header.w = size.x;
 1875              		.loc 1 142 9 is_stmt 0 view .LVU690
 1876 0154 FFF7FEFF 		bl	lv_txt_get_size
 1877              	.LVL147:
 143:lvgl/src/widgets/lv_img.c ****         header.h = size.y;
 1878              		.loc 1 143 9 is_stmt 1 view .LVU691
 143:lvgl/src/widgets/lv_img.c ****         header.h = size.y;
 1879              		.loc 1 143 24 is_stmt 0 view .LVU692
 1880 0158 BDF81020 		ldrh	r2, [sp, #16]
 143:lvgl/src/widgets/lv_img.c ****         header.h = size.y;
 1881              		.loc 1 143 18 view .LVU693
 1882 015c 059B     		ldr	r3, [sp, #20]
 1883 015e 62F39423 		bfi	r3, r2, #10, #11
 1884 0162 0593     		str	r3, [sp, #20]
 144:lvgl/src/widgets/lv_img.c ****     }
 1885              		.loc 1 144 9 is_stmt 1 view .LVU694
 144:lvgl/src/widgets/lv_img.c ****     }
 1886              		.loc 1 144 24 is_stmt 0 view .LVU695
 1887 0164 BDF81220 		ldrh	r2, [sp, #18]
 144:lvgl/src/widgets/lv_img.c ****     }
 1888              		.loc 1 144 18 view .LVU696
 1889 0168 BDF81630 		ldrh	r3, [sp, #22]
 1890 016c 62F34F13 		bfi	r3, r2, #5, #11
 1891 0170 ADF81630 		strh	r3, [sp, #22]	@ movhi
 1892 0174 62E7     		b	.L65
 1893              	.LBE131:
 1894              		.cfi_endproc
 1895              	.LFE157:
 1897              		.section	.text.lv_img_event,"ax",%progbits
 1898              		.align	1
 1899              		.syntax unified
 1900              		.thumb
 1901              		.thumb_func
 1903              	lv_img_event:
 1904              	.LVL148:
 1905              	.LFB176:
 442:lvgl/src/widgets/lv_img.c ****     LV_UNUSED(class_p);
 1906              		.loc 1 442 1 is_stmt 1 view -0
ARM GAS  C:\usertemp\ccrOwx87.s 			page 68


 1907              		.cfi_startproc
 1908              		@ args = 0, pretend = 0, frame = 8
 1909              		@ frame_needed = 0, uses_anonymous_args = 0
 442:lvgl/src/widgets/lv_img.c ****     LV_UNUSED(class_p);
 1910              		.loc 1 442 1 is_stmt 0 view .LVU698
 1911 0000 2DE9F043 		push	{r4, r5, r6, r7, r8, r9, lr}
 1912              	.LCFI14:
 1913              		.cfi_def_cfa_offset 28
 1914              		.cfi_offset 4, -28
 1915              		.cfi_offset 5, -24
 1916              		.cfi_offset 6, -20
 1917              		.cfi_offset 7, -16
 1918              		.cfi_offset 8, -12
 1919              		.cfi_offset 9, -8
 1920              		.cfi_offset 14, -4
 1921 0004 85B0     		sub	sp, sp, #20
 1922              	.LCFI15:
 1923              		.cfi_def_cfa_offset 48
 1924 0006 0D46     		mov	r5, r1
 443:lvgl/src/widgets/lv_img.c **** 
 1925              		.loc 1 443 5 is_stmt 1 view .LVU699
 445:lvgl/src/widgets/lv_img.c **** 
 1926              		.loc 1 445 5 view .LVU700
 445:lvgl/src/widgets/lv_img.c **** 
 1927              		.loc 1 445 28 is_stmt 0 view .LVU701
 1928 0008 0846     		mov	r0, r1
 1929              	.LVL149:
 445:lvgl/src/widgets/lv_img.c **** 
 1930              		.loc 1 445 28 view .LVU702
 1931 000a FFF7FEFF 		bl	lv_event_get_code
 1932              	.LVL150:
 445:lvgl/src/widgets/lv_img.c **** 
 1933              		.loc 1 445 28 view .LVU703
 1934 000e 0446     		mov	r4, r0
 1935              	.LVL151:
 448:lvgl/src/widgets/lv_img.c ****         /*Call the ancestor's event handler*/
 1936              		.loc 1 448 5 is_stmt 1 view .LVU704
 448:lvgl/src/widgets/lv_img.c ****         /*Call the ancestor's event handler*/
 1937              		.loc 1 448 7 is_stmt 0 view .LVU705
 1938 0010 1528     		cmp	r0, #21
 1939 0012 18BF     		it	ne
 1940 0014 1828     		cmpne	r0, #24
 1941 0016 06D0     		beq	.L79
 1942              	.LBB138:
 450:lvgl/src/widgets/lv_img.c ****         if(res != LV_RES_OK) return;
 1943              		.loc 1 450 9 is_stmt 1 view .LVU706
 450:lvgl/src/widgets/lv_img.c ****         if(res != LV_RES_OK) return;
 1944              		.loc 1 450 24 is_stmt 0 view .LVU707
 1945 0018 2946     		mov	r1, r5
 1946 001a 9848     		ldr	r0, .L101
 1947              	.LVL152:
 450:lvgl/src/widgets/lv_img.c ****         if(res != LV_RES_OK) return;
 1948              		.loc 1 450 24 view .LVU708
 1949 001c FFF7FEFF 		bl	lv_obj_event_base
 1950              	.LVL153:
 451:lvgl/src/widgets/lv_img.c ****     }
 1951              		.loc 1 451 9 is_stmt 1 view .LVU709
ARM GAS  C:\usertemp\ccrOwx87.s 			page 69


 451:lvgl/src/widgets/lv_img.c ****     }
 1952              		.loc 1 451 11 is_stmt 0 view .LVU710
 1953 0020 0128     		cmp	r0, #1
 1954 0022 40F02881 		bne	.L78
 1955              	.LVL154:
 1956              	.L79:
 451:lvgl/src/widgets/lv_img.c ****     }
 1957              		.loc 1 451 11 view .LVU711
 1958              	.LBE138:
 454:lvgl/src/widgets/lv_img.c ****     lv_img_t * img = (lv_img_t *)obj;
 1959              		.loc 1 454 5 is_stmt 1 view .LVU712
 454:lvgl/src/widgets/lv_img.c ****     lv_img_t * img = (lv_img_t *)obj;
 1960              		.loc 1 454 22 is_stmt 0 view .LVU713
 1961 0026 2846     		mov	r0, r5
 1962 0028 FFF7FEFF 		bl	lv_event_get_target
 1963              	.LVL155:
 1964 002c 0646     		mov	r6, r0
 1965              	.LVL156:
 455:lvgl/src/widgets/lv_img.c **** 
 1966              		.loc 1 455 5 is_stmt 1 view .LVU714
 457:lvgl/src/widgets/lv_img.c ****         /*Refresh the file name to refresh the symbol text size*/
 1967              		.loc 1 457 5 view .LVU715
 1968 002e 113C     		subs	r4, r4, #17
 1969 0030 1B2C     		cmp	r4, #27
 1970 0032 00F22081 		bhi	.L78
 1971 0036 DFE814F0 		tbh	[pc, r4, lsl #1]
 1972              	.L82:
 1973 003a 8200     		.2byte	(.L86-.L82)/2
 1974 003c 1B01     		.2byte	(.L84-.L82)/2
 1975 003e 2900     		.2byte	(.L85-.L82)/2
 1976 0040 1E01     		.2byte	(.L78-.L82)/2
 1977 0042 1B01     		.2byte	(.L84-.L82)/2
 1978 0044 1E01     		.2byte	(.L78-.L82)/2
 1979 0046 1E01     		.2byte	(.L78-.L82)/2
 1980 0048 1B01     		.2byte	(.L84-.L82)/2
 1981 004a 1E01     		.2byte	(.L78-.L82)/2
 1982 004c 1E01     		.2byte	(.L78-.L82)/2
 1983 004e 1E01     		.2byte	(.L78-.L82)/2
 1984 0050 1E01     		.2byte	(.L78-.L82)/2
 1985 0052 1E01     		.2byte	(.L78-.L82)/2
 1986 0054 1E01     		.2byte	(.L78-.L82)/2
 1987 0056 1E01     		.2byte	(.L78-.L82)/2
 1988 0058 1E01     		.2byte	(.L78-.L82)/2
 1989 005a 1E01     		.2byte	(.L78-.L82)/2
 1990 005c 1E01     		.2byte	(.L78-.L82)/2
 1991 005e 1E01     		.2byte	(.L78-.L82)/2
 1992 0060 1E01     		.2byte	(.L78-.L82)/2
 1993 0062 1E01     		.2byte	(.L78-.L82)/2
 1994 0064 1E01     		.2byte	(.L78-.L82)/2
 1995 0066 1E01     		.2byte	(.L78-.L82)/2
 1996 0068 1E01     		.2byte	(.L78-.L82)/2
 1997 006a 1E01     		.2byte	(.L78-.L82)/2
 1998 006c 1C00     		.2byte	(.L83-.L82)/2
 1999 006e 1E01     		.2byte	(.L78-.L82)/2
 2000 0070 0201     		.2byte	(.L81-.L82)/2
 2001              		.p2align 1
 2002              	.L83:
ARM GAS  C:\usertemp\ccrOwx87.s 			page 70


 459:lvgl/src/widgets/lv_img.c ****             lv_img_set_src(obj, img->src);
 2003              		.loc 1 459 9 view .LVU716
 459:lvgl/src/widgets/lv_img.c ****             lv_img_set_src(obj, img->src);
 2004              		.loc 1 459 26 is_stmt 0 view .LVU717
 2005 0072 90F83830 		ldrb	r3, [r0, #56]	@ zero_extendqisi2
 2006 0076 03F00303 		and	r3, r3, #3
 459:lvgl/src/widgets/lv_img.c ****             lv_img_set_src(obj, img->src);
 2007              		.loc 1 459 11 view .LVU718
 2008 007a 022B     		cmp	r3, #2
 2009 007c 02D0     		beq	.L95
 464:lvgl/src/widgets/lv_img.c ****         }
 2010              		.loc 1 464 13 is_stmt 1 view .LVU719
 2011 007e FFF7FEFF 		bl	lv_obj_refresh_ext_draw_size
 2012              	.LVL157:
 464:lvgl/src/widgets/lv_img.c ****         }
 2013              		.loc 1 464 13 is_stmt 0 view .LVU720
 2014 0082 F8E0     		b	.L78
 2015              	.LVL158:
 2016              	.L95:
 460:lvgl/src/widgets/lv_img.c ****         }
 2017              		.loc 1 460 13 is_stmt 1 view .LVU721
 2018 0084 416A     		ldr	r1, [r0, #36]
 2019 0086 FFF7FEFF 		bl	lv_img_set_src
 2020              	.LVL159:
 460:lvgl/src/widgets/lv_img.c ****         }
 2021              		.loc 1 460 13 is_stmt 0 view .LVU722
 2022 008a F4E0     		b	.L78
 2023              	.LVL160:
 2024              	.L85:
 2025              	.LBB139:
 469:lvgl/src/widgets/lv_img.c ****         lv_coord_t transf_zoom = lv_obj_get_style_transform_zoom(obj, LV_PART_MAIN);
 2026              		.loc 1 469 9 is_stmt 1 view .LVU723
 469:lvgl/src/widgets/lv_img.c ****         lv_coord_t transf_zoom = lv_obj_get_style_transform_zoom(obj, LV_PART_MAIN);
 2027              		.loc 1 469 26 is_stmt 0 view .LVU724
 2028 008c 2846     		mov	r0, r5
 2029              	.LVL161:
 469:lvgl/src/widgets/lv_img.c ****         lv_coord_t transf_zoom = lv_obj_get_style_transform_zoom(obj, LV_PART_MAIN);
 2030              		.loc 1 469 26 view .LVU725
 2031 008e FFF7FEFF 		bl	lv_event_get_param
 2032              	.LVL162:
 2033 0092 0746     		mov	r7, r0
 2034              	.LVL163:
 470:lvgl/src/widgets/lv_img.c ****         transf_zoom = ((int32_t)transf_zoom * img->zoom) >> 8;
 2035              		.loc 1 470 9 is_stmt 1 view .LVU726
 2036              	.LBB140:
 2037              	.LBI140:
  79:lvgl/src/widgets/../core/lv_obj_style_gen.h **** {
 2038              		.loc 2 79 26 view .LVU727
 2039              	.LBB141:
  81:lvgl/src/widgets/../core/lv_obj_style_gen.h ****     return (lv_coord_t)v.num;
 2040              		.loc 2 81 5 view .LVU728
  81:lvgl/src/widgets/../core/lv_obj_style_gen.h ****     return (lv_coord_t)v.num;
 2041              		.loc 2 81 26 is_stmt 0 view .LVU729
 2042 0094 43F60E02 		movw	r2, #14350
 2043 0098 0021     		movs	r1, #0
 2044 009a 3046     		mov	r0, r6
 2045              	.LVL164:
ARM GAS  C:\usertemp\ccrOwx87.s 			page 71


  81:lvgl/src/widgets/../core/lv_obj_style_gen.h ****     return (lv_coord_t)v.num;
 2046              		.loc 2 81 26 view .LVU730
 2047 009c FFF7FEFF 		bl	lv_obj_get_style_prop
 2048              	.LVL165:
  82:lvgl/src/widgets/../core/lv_obj_style_gen.h **** }
 2049              		.loc 2 82 5 is_stmt 1 view .LVU731
  82:lvgl/src/widgets/../core/lv_obj_style_gen.h **** }
 2050              		.loc 2 82 12 is_stmt 0 view .LVU732
 2051 00a0 03B2     		sxth	r3, r0
 2052              	.LVL166:
  82:lvgl/src/widgets/../core/lv_obj_style_gen.h **** }
 2053              		.loc 2 82 12 view .LVU733
 2054              	.LBE141:
 2055              	.LBE140:
 471:lvgl/src/widgets/lv_img.c **** 
 2056              		.loc 1 471 9 is_stmt 1 view .LVU734
 471:lvgl/src/widgets/lv_img.c **** 
 2057              		.loc 1 471 50 is_stmt 0 view .LVU735
 2058 00a2 F28E     		ldrh	r2, [r6, #54]
 471:lvgl/src/widgets/lv_img.c **** 
 2059              		.loc 1 471 45 view .LVU736
 2060 00a4 02FB03F3 		mul	r3, r2, r3
 2061              	.LVL167:
 471:lvgl/src/widgets/lv_img.c **** 
 2062              		.loc 1 471 58 view .LVU737
 2063 00a8 4FEA2328 		asr	r8, r3, #8
 471:lvgl/src/widgets/lv_img.c **** 
 2064              		.loc 1 471 21 view .LVU738
 2065 00ac 43F30F24 		sbfx	r4, r3, #8, #16
 2066              	.LVL168:
 473:lvgl/src/widgets/lv_img.c ****         transf_angle += img->angle;
 2067              		.loc 1 473 9 is_stmt 1 view .LVU739
 2068              	.LBB142:
 2069              	.LBI142:
  85:lvgl/src/widgets/../core/lv_obj_style_gen.h **** {
 2070              		.loc 2 85 26 view .LVU740
 2071              	.LBB143:
  87:lvgl/src/widgets/../core/lv_obj_style_gen.h ****     return (lv_coord_t)v.num;
 2072              		.loc 2 87 5 view .LVU741
  87:lvgl/src/widgets/../core/lv_obj_style_gen.h ****     return (lv_coord_t)v.num;
 2073              		.loc 2 87 26 is_stmt 0 view .LVU742
 2074 00b0 43F60F02 		movw	r2, #14351
 2075 00b4 0021     		movs	r1, #0
 2076 00b6 3046     		mov	r0, r6
 2077 00b8 FFF7FEFF 		bl	lv_obj_get_style_prop
 2078              	.LVL169:
  88:lvgl/src/widgets/../core/lv_obj_style_gen.h **** }
 2079              		.loc 2 88 5 is_stmt 1 view .LVU743
  88:lvgl/src/widgets/../core/lv_obj_style_gen.h **** }
 2080              		.loc 2 88 5 is_stmt 0 view .LVU744
 2081              	.LBE143:
 2082              	.LBE142:
 474:lvgl/src/widgets/lv_img.c **** 
 2083              		.loc 1 474 9 is_stmt 1 view .LVU745
 474:lvgl/src/widgets/lv_img.c **** 
 2084              		.loc 1 474 28 is_stmt 0 view .LVU746
 2085 00bc 358E     		ldrh	r5, [r6, #48]
ARM GAS  C:\usertemp\ccrOwx87.s 			page 72


 2086              	.LVL170:
 474:lvgl/src/widgets/lv_img.c **** 
 2087              		.loc 1 474 22 view .LVU747
 2088 00be 0544     		add	r5, r5, r0
 2089 00c0 2DB2     		sxth	r5, r5
 2090              	.LVL171:
 477:lvgl/src/widgets/lv_img.c ****             lv_area_t a;
 2091              		.loc 1 477 9 is_stmt 1 view .LVU748
 477:lvgl/src/widgets/lv_img.c ****             lv_area_t a;
 2092              		.loc 1 477 11 is_stmt 0 view .LVU749
 2093 00c2 B4F5807F 		cmp	r4, #256
 2094 00c6 08BF     		it	eq
 2095 00c8 002D     		cmpeq	r5, #0
 2096 00ca 00F0D480 		beq	.L78
 2097              	.LBB144:
 478:lvgl/src/widgets/lv_img.c ****             lv_coord_t w = lv_obj_get_width(obj);
 2098              		.loc 1 478 13 is_stmt 1 view .LVU750
 479:lvgl/src/widgets/lv_img.c ****             lv_coord_t h = lv_obj_get_height(obj);
 2099              		.loc 1 479 13 view .LVU751
 479:lvgl/src/widgets/lv_img.c ****             lv_coord_t h = lv_obj_get_height(obj);
 2100              		.loc 1 479 28 is_stmt 0 view .LVU752
 2101 00ce 3046     		mov	r0, r6
 2102 00d0 FFF7FEFF 		bl	lv_obj_get_width
 2103              	.LVL172:
 2104 00d4 8146     		mov	r9, r0
 2105              	.LVL173:
 480:lvgl/src/widgets/lv_img.c ****             _lv_img_buf_get_transformed_area(&a, w, h, transf_angle, transf_zoom, &img->pivot);
 2106              		.loc 1 480 13 is_stmt 1 view .LVU753
 480:lvgl/src/widgets/lv_img.c ****             _lv_img_buf_get_transformed_area(&a, w, h, transf_angle, transf_zoom, &img->pivot);
 2107              		.loc 1 480 28 is_stmt 0 view .LVU754
 2108 00d6 3046     		mov	r0, r6
 2109 00d8 FFF7FEFF 		bl	lv_obj_get_height
 2110              	.LVL174:
 2111 00dc 0446     		mov	r4, r0
 2112              	.LVL175:
 481:lvgl/src/widgets/lv_img.c ****             lv_coord_t pad_ori = *s;
 2113              		.loc 1 481 13 is_stmt 1 view .LVU755
 481:lvgl/src/widgets/lv_img.c ****             lv_coord_t pad_ori = *s;
 2114              		.loc 1 481 83 is_stmt 0 view .LVU756
 2115 00de 3236     		adds	r6, r6, #50
 2116              	.LVL176:
 481:lvgl/src/widgets/lv_img.c ****             lv_coord_t pad_ori = *s;
 2117              		.loc 1 481 13 view .LVU757
 2118 00e0 0196     		str	r6, [sp, #4]
 2119 00e2 1FFA88F3 		uxth	r3, r8
 2120 00e6 0093     		str	r3, [sp]
 2121 00e8 2B46     		mov	r3, r5
 2122 00ea 0246     		mov	r2, r0
 2123 00ec 4946     		mov	r1, r9
 2124 00ee 02A8     		add	r0, sp, #8
 2125              	.LVL177:
 481:lvgl/src/widgets/lv_img.c ****             lv_coord_t pad_ori = *s;
 2126              		.loc 1 481 13 view .LVU758
 2127 00f0 FFF7FEFF 		bl	_lv_img_buf_get_transformed_area
 2128              	.LVL178:
 482:lvgl/src/widgets/lv_img.c ****             *s = LV_MAX(*s, pad_ori - a.x1);
 2129              		.loc 1 482 13 is_stmt 1 view .LVU759
ARM GAS  C:\usertemp\ccrOwx87.s 			page 73


 482:lvgl/src/widgets/lv_img.c ****             *s = LV_MAX(*s, pad_ori - a.x1);
 2130              		.loc 1 482 24 is_stmt 0 view .LVU760
 2131 00f4 B7F90030 		ldrsh	r3, [r7]
 2132              	.LVL179:
 483:lvgl/src/widgets/lv_img.c ****             *s = LV_MAX(*s, pad_ori - a.y1);
 2133              		.loc 1 483 13 is_stmt 1 view .LVU761
 483:lvgl/src/widgets/lv_img.c ****             *s = LV_MAX(*s, pad_ori - a.y1);
 2134              		.loc 1 483 18 is_stmt 0 view .LVU762
 2135 00f8 BDF90810 		ldrsh	r1, [sp, #8]
 2136 00fc 591A     		subs	r1, r3, r1
 2137 00fe 9942     		cmp	r1, r3
 2138 0100 B8BF     		it	lt
 2139 0102 1946     		movlt	r1, r3
 483:lvgl/src/widgets/lv_img.c ****             *s = LV_MAX(*s, pad_ori - a.y1);
 2140              		.loc 1 483 16 view .LVU763
 2141 0104 09B2     		sxth	r1, r1
 2142 0106 3980     		strh	r1, [r7]	@ movhi
 484:lvgl/src/widgets/lv_img.c ****             *s = LV_MAX(*s, pad_ori + a.x2 - w);
 2143              		.loc 1 484 13 is_stmt 1 view .LVU764
 484:lvgl/src/widgets/lv_img.c ****             *s = LV_MAX(*s, pad_ori + a.x2 - w);
 2144              		.loc 1 484 18 is_stmt 0 view .LVU765
 2145 0108 BDF90A20 		ldrsh	r2, [sp, #10]
 2146 010c 9A1A     		subs	r2, r3, r2
 2147 010e 8A42     		cmp	r2, r1
 2148 0110 B8BF     		it	lt
 2149 0112 0A46     		movlt	r2, r1
 484:lvgl/src/widgets/lv_img.c ****             *s = LV_MAX(*s, pad_ori + a.x2 - w);
 2150              		.loc 1 484 16 view .LVU766
 2151 0114 12B2     		sxth	r2, r2
 2152 0116 3A80     		strh	r2, [r7]	@ movhi
 485:lvgl/src/widgets/lv_img.c ****             *s = LV_MAX(*s, pad_ori + a.y2 - h);
 2153              		.loc 1 485 13 is_stmt 1 view .LVU767
 485:lvgl/src/widgets/lv_img.c ****             *s = LV_MAX(*s, pad_ori + a.y2 - h);
 2154              		.loc 1 485 18 is_stmt 0 view .LVU768
 2155 0118 BDF90C10 		ldrsh	r1, [sp, #12]
 2156 011c 1944     		add	r1, r1, r3
 2157 011e A1EB0901 		sub	r1, r1, r9
 2158 0122 9142     		cmp	r1, r2
 2159 0124 B8BF     		it	lt
 2160 0126 1146     		movlt	r1, r2
 485:lvgl/src/widgets/lv_img.c ****             *s = LV_MAX(*s, pad_ori + a.y2 - h);
 2161              		.loc 1 485 16 view .LVU769
 2162 0128 09B2     		sxth	r1, r1
 2163 012a 3980     		strh	r1, [r7]	@ movhi
 486:lvgl/src/widgets/lv_img.c ****         }
 2164              		.loc 1 486 13 is_stmt 1 view .LVU770
 486:lvgl/src/widgets/lv_img.c ****         }
 2165              		.loc 1 486 18 is_stmt 0 view .LVU771
 2166 012c BDF90E20 		ldrsh	r2, [sp, #14]
 2167 0130 1344     		add	r3, r3, r2
 2168              	.LVL180:
 486:lvgl/src/widgets/lv_img.c ****         }
 2169              		.loc 1 486 18 view .LVU772
 2170 0132 1B1B     		subs	r3, r3, r4
 2171 0134 8B42     		cmp	r3, r1
 2172 0136 B8BF     		it	lt
 2173 0138 0B46     		movlt	r3, r1
ARM GAS  C:\usertemp\ccrOwx87.s 			page 74


 486:lvgl/src/widgets/lv_img.c ****         }
 2174              		.loc 1 486 16 view .LVU773
 2175 013a 3B80     		strh	r3, [r7]	@ movhi
 2176 013c 9BE0     		b	.L78
 2177              	.LVL181:
 2178              	.L86:
 486:lvgl/src/widgets/lv_img.c ****         }
 2179              		.loc 1 486 16 view .LVU774
 2180              	.LBE144:
 2181              	.LBE139:
 2182              	.LBB145:
 490:lvgl/src/widgets/lv_img.c ****         lv_coord_t zoom = lv_obj_get_style_transform_zoom(obj, LV_PART_MAIN);
 2183              		.loc 1 490 9 is_stmt 1 view .LVU775
 490:lvgl/src/widgets/lv_img.c ****         lv_coord_t zoom = lv_obj_get_style_transform_zoom(obj, LV_PART_MAIN);
 2184              		.loc 1 490 37 is_stmt 0 view .LVU776
 2185 013e 2846     		mov	r0, r5
 2186              	.LVL182:
 490:lvgl/src/widgets/lv_img.c ****         lv_coord_t zoom = lv_obj_get_style_transform_zoom(obj, LV_PART_MAIN);
 2187              		.loc 1 490 37 view .LVU777
 2188 0140 FFF7FEFF 		bl	lv_event_get_param
 2189              	.LVL183:
 2190 0144 0546     		mov	r5, r0
 2191              	.LVL184:
 491:lvgl/src/widgets/lv_img.c ****         zoom = (zoom * img->zoom) >> 8;
 2192              		.loc 1 491 9 is_stmt 1 view .LVU778
 2193              	.LBB146:
 2194              	.LBI146:
  79:lvgl/src/widgets/../core/lv_obj_style_gen.h **** {
 2195              		.loc 2 79 26 view .LVU779
 2196              	.LBB147:
  81:lvgl/src/widgets/../core/lv_obj_style_gen.h ****     return (lv_coord_t)v.num;
 2197              		.loc 2 81 5 view .LVU780
  81:lvgl/src/widgets/../core/lv_obj_style_gen.h ****     return (lv_coord_t)v.num;
 2198              		.loc 2 81 26 is_stmt 0 view .LVU781
 2199 0146 43F60E02 		movw	r2, #14350
 2200 014a 0021     		movs	r1, #0
 2201 014c 3046     		mov	r0, r6
 2202              	.LVL185:
  81:lvgl/src/widgets/../core/lv_obj_style_gen.h ****     return (lv_coord_t)v.num;
 2203              		.loc 2 81 26 view .LVU782
 2204 014e FFF7FEFF 		bl	lv_obj_get_style_prop
 2205              	.LVL186:
  82:lvgl/src/widgets/../core/lv_obj_style_gen.h **** }
 2206              		.loc 2 82 5 is_stmt 1 view .LVU783
  82:lvgl/src/widgets/../core/lv_obj_style_gen.h **** }
 2207              		.loc 2 82 12 is_stmt 0 view .LVU784
 2208 0152 03B2     		sxth	r3, r0
 2209              	.LVL187:
