ARM GAS  C:\usertemp\ccMJcN2s.s 			page 1


   1              		.cpu cortex-m7
   2              		.arch armv7e-m
   3              		.fpu fpv5-d16
   4              		.eabi_attribute 28, 1
   5              		.eabi_attribute 20, 1
   6              		.eabi_attribute 21, 1
   7              		.eabi_attribute 23, 3
   8              		.eabi_attribute 24, 1
   9              		.eabi_attribute 25, 1
  10              		.eabi_attribute 26, 1
  11              		.eabi_attribute 30, 1
  12              		.eabi_attribute 34, 1
  13              		.eabi_attribute 18, 4
  14              		.file	"lv_indev.c"
  15              		.text
  16              	.Ltext0:
  17              		.cfi_sections	.debug_frame
  18              		.file 1 "lvgl/src/core/lv_indev.c"
  19              		.section	.text.indev_proc_reset_query_handler,"ax",%progbits
  20              		.align	1
  21              		.syntax unified
  22              		.thumb
  23              		.thumb_func
  25              	indev_proc_reset_query_handler:
  26              	.LVL0:
  27              	.LFB187:
   1:lvgl/src/core/lv_indev.c **** /**
   2:lvgl/src/core/lv_indev.c ****  * @file lv_indev.c
   3:lvgl/src/core/lv_indev.c ****  *
   4:lvgl/src/core/lv_indev.c ****  */
   5:lvgl/src/core/lv_indev.c **** 
   6:lvgl/src/core/lv_indev.c **** /*********************
   7:lvgl/src/core/lv_indev.c ****  *      INCLUDES
   8:lvgl/src/core/lv_indev.c ****  ********************/
   9:lvgl/src/core/lv_indev.c **** #include "lv_indev.h"
  10:lvgl/src/core/lv_indev.c **** #include "lv_disp.h"
  11:lvgl/src/core/lv_indev.c **** #include "lv_obj.h"
  12:lvgl/src/core/lv_indev.c **** #include "lv_indev_scroll.h"
  13:lvgl/src/core/lv_indev.c **** #include "lv_group.h"
  14:lvgl/src/core/lv_indev.c **** #include "lv_refr.h"
  15:lvgl/src/core/lv_indev.c **** 
  16:lvgl/src/core/lv_indev.c **** #include "../hal/lv_hal_tick.h"
  17:lvgl/src/core/lv_indev.c **** #include "../misc/lv_timer.h"
  18:lvgl/src/core/lv_indev.c **** #include "../misc/lv_math.h"
  19:lvgl/src/core/lv_indev.c **** 
  20:lvgl/src/core/lv_indev.c **** /*********************
  21:lvgl/src/core/lv_indev.c ****  *      DEFINES
  22:lvgl/src/core/lv_indev.c ****  *********************/
  23:lvgl/src/core/lv_indev.c **** #if LV_INDEV_DEF_SCROLL_THROW <= 0
  24:lvgl/src/core/lv_indev.c ****     #warning "LV_INDEV_DRAG_THROW must be greater than 0"
  25:lvgl/src/core/lv_indev.c **** #endif
  26:lvgl/src/core/lv_indev.c **** 
  27:lvgl/src/core/lv_indev.c **** /**********************
  28:lvgl/src/core/lv_indev.c ****  *      TYPEDEFS
  29:lvgl/src/core/lv_indev.c ****  **********************/
  30:lvgl/src/core/lv_indev.c **** 
  31:lvgl/src/core/lv_indev.c **** /**********************
ARM GAS  C:\usertemp\ccMJcN2s.s 			page 2


  32:lvgl/src/core/lv_indev.c ****  *  STATIC PROTOTYPES
  33:lvgl/src/core/lv_indev.c ****  **********************/
  34:lvgl/src/core/lv_indev.c **** static void indev_pointer_proc(lv_indev_t * i, lv_indev_data_t * data);
  35:lvgl/src/core/lv_indev.c **** static void indev_keypad_proc(lv_indev_t * i, lv_indev_data_t * data);
  36:lvgl/src/core/lv_indev.c **** static void indev_encoder_proc(lv_indev_t * i, lv_indev_data_t * data);
  37:lvgl/src/core/lv_indev.c **** static void indev_button_proc(lv_indev_t * i, lv_indev_data_t * data);
  38:lvgl/src/core/lv_indev.c **** static void indev_proc_press(_lv_indev_proc_t * proc);
  39:lvgl/src/core/lv_indev.c **** static void indev_proc_release(_lv_indev_proc_t * proc);
  40:lvgl/src/core/lv_indev.c **** static void indev_proc_reset_query_handler(lv_indev_t * indev);
  41:lvgl/src/core/lv_indev.c **** static void indev_click_focus(_lv_indev_proc_t * proc);
  42:lvgl/src/core/lv_indev.c **** static void indev_gesture(_lv_indev_proc_t * proc);
  43:lvgl/src/core/lv_indev.c **** static bool indev_reset_check(_lv_indev_proc_t * proc);
  44:lvgl/src/core/lv_indev.c **** 
  45:lvgl/src/core/lv_indev.c **** /**********************
  46:lvgl/src/core/lv_indev.c ****  *  STATIC VARIABLES
  47:lvgl/src/core/lv_indev.c ****  **********************/
  48:lvgl/src/core/lv_indev.c **** static lv_indev_t * indev_act;
  49:lvgl/src/core/lv_indev.c **** static lv_obj_t * indev_obj_act = NULL;
  50:lvgl/src/core/lv_indev.c **** 
  51:lvgl/src/core/lv_indev.c **** /**********************
  52:lvgl/src/core/lv_indev.c ****  *      MACROS
  53:lvgl/src/core/lv_indev.c ****  **********************/
  54:lvgl/src/core/lv_indev.c **** #if LV_LOG_TRACE_INDEV
  55:lvgl/src/core/lv_indev.c ****     #define INDEV_TRACE(...) LV_LOG_TRACE(__VA_ARGS__)
  56:lvgl/src/core/lv_indev.c **** #else
  57:lvgl/src/core/lv_indev.c ****     #define INDEV_TRACE(...)
  58:lvgl/src/core/lv_indev.c **** #endif
  59:lvgl/src/core/lv_indev.c **** 
  60:lvgl/src/core/lv_indev.c **** /**********************
  61:lvgl/src/core/lv_indev.c ****  *   GLOBAL FUNCTIONS
  62:lvgl/src/core/lv_indev.c ****  **********************/
  63:lvgl/src/core/lv_indev.c **** 
  64:lvgl/src/core/lv_indev.c **** void lv_indev_read_timer_cb(lv_timer_t * timer)
  65:lvgl/src/core/lv_indev.c **** {
  66:lvgl/src/core/lv_indev.c ****     INDEV_TRACE("begin");
  67:lvgl/src/core/lv_indev.c **** 
  68:lvgl/src/core/lv_indev.c ****     lv_indev_data_t data;
  69:lvgl/src/core/lv_indev.c **** 
  70:lvgl/src/core/lv_indev.c ****     indev_act = timer->user_data;
  71:lvgl/src/core/lv_indev.c **** 
  72:lvgl/src/core/lv_indev.c ****     /*Read and process all indevs*/
  73:lvgl/src/core/lv_indev.c ****     if(indev_act->driver->disp == NULL) return; /*Not assigned to any displays*/
  74:lvgl/src/core/lv_indev.c **** 
  75:lvgl/src/core/lv_indev.c ****     /*Handle reset query before processing the point*/
  76:lvgl/src/core/lv_indev.c ****     indev_proc_reset_query_handler(indev_act);
  77:lvgl/src/core/lv_indev.c **** 
  78:lvgl/src/core/lv_indev.c ****     if(indev_act->proc.disabled) return;
  79:lvgl/src/core/lv_indev.c ****     bool continue_reading;
  80:lvgl/src/core/lv_indev.c ****     do {
  81:lvgl/src/core/lv_indev.c ****         /*Read the data*/
  82:lvgl/src/core/lv_indev.c ****         _lv_indev_read(indev_act, &data);
  83:lvgl/src/core/lv_indev.c ****         continue_reading = data.continue_reading;
  84:lvgl/src/core/lv_indev.c **** 
  85:lvgl/src/core/lv_indev.c ****         /*The active object might deleted even in the read function*/
  86:lvgl/src/core/lv_indev.c ****         indev_proc_reset_query_handler(indev_act);
  87:lvgl/src/core/lv_indev.c ****         indev_obj_act = NULL;
  88:lvgl/src/core/lv_indev.c **** 
ARM GAS  C:\usertemp\ccMJcN2s.s 			page 3


  89:lvgl/src/core/lv_indev.c ****         indev_act->proc.state = data.state;
  90:lvgl/src/core/lv_indev.c **** 
  91:lvgl/src/core/lv_indev.c ****         /*Save the last activity time*/
  92:lvgl/src/core/lv_indev.c ****         if(indev_act->proc.state == LV_INDEV_STATE_PRESSED) {
  93:lvgl/src/core/lv_indev.c ****             indev_act->driver->disp->last_activity_time = lv_tick_get();
  94:lvgl/src/core/lv_indev.c ****         }
  95:lvgl/src/core/lv_indev.c ****         else if(indev_act->driver->type == LV_INDEV_TYPE_ENCODER && data.enc_diff) {
  96:lvgl/src/core/lv_indev.c ****             indev_act->driver->disp->last_activity_time = lv_tick_get();
  97:lvgl/src/core/lv_indev.c ****         }
  98:lvgl/src/core/lv_indev.c **** 
  99:lvgl/src/core/lv_indev.c ****         if(indev_act->driver->type == LV_INDEV_TYPE_POINTER) {
 100:lvgl/src/core/lv_indev.c ****             indev_pointer_proc(indev_act, &data);
 101:lvgl/src/core/lv_indev.c ****         }
 102:lvgl/src/core/lv_indev.c ****         else if(indev_act->driver->type == LV_INDEV_TYPE_KEYPAD) {
 103:lvgl/src/core/lv_indev.c ****             indev_keypad_proc(indev_act, &data);
 104:lvgl/src/core/lv_indev.c ****         }
 105:lvgl/src/core/lv_indev.c ****         else if(indev_act->driver->type == LV_INDEV_TYPE_ENCODER) {
 106:lvgl/src/core/lv_indev.c ****             indev_encoder_proc(indev_act, &data);
 107:lvgl/src/core/lv_indev.c ****         }
 108:lvgl/src/core/lv_indev.c ****         else if(indev_act->driver->type == LV_INDEV_TYPE_BUTTON) {
 109:lvgl/src/core/lv_indev.c ****             indev_button_proc(indev_act, &data);
 110:lvgl/src/core/lv_indev.c ****         }
 111:lvgl/src/core/lv_indev.c ****         /*Handle reset query if it happened in during processing*/
 112:lvgl/src/core/lv_indev.c ****         indev_proc_reset_query_handler(indev_act);
 113:lvgl/src/core/lv_indev.c ****     } while(continue_reading);
 114:lvgl/src/core/lv_indev.c **** 
 115:lvgl/src/core/lv_indev.c ****     /*End of indev processing, so no act indev*/
 116:lvgl/src/core/lv_indev.c ****     indev_act     = NULL;
 117:lvgl/src/core/lv_indev.c ****     indev_obj_act = NULL;
 118:lvgl/src/core/lv_indev.c **** 
 119:lvgl/src/core/lv_indev.c ****     INDEV_TRACE("finished");
 120:lvgl/src/core/lv_indev.c **** }
 121:lvgl/src/core/lv_indev.c **** 
 122:lvgl/src/core/lv_indev.c **** void lv_indev_enable(lv_indev_t * indev, bool en)
 123:lvgl/src/core/lv_indev.c **** {
 124:lvgl/src/core/lv_indev.c ****     if(!indev) return;
 125:lvgl/src/core/lv_indev.c **** 
 126:lvgl/src/core/lv_indev.c ****     indev->proc.disabled = en ? 0 : 1;
 127:lvgl/src/core/lv_indev.c **** }
 128:lvgl/src/core/lv_indev.c **** 
 129:lvgl/src/core/lv_indev.c **** lv_indev_t * lv_indev_get_act(void)
 130:lvgl/src/core/lv_indev.c **** {
 131:lvgl/src/core/lv_indev.c ****     return indev_act;
 132:lvgl/src/core/lv_indev.c **** }
 133:lvgl/src/core/lv_indev.c **** 
 134:lvgl/src/core/lv_indev.c **** lv_indev_type_t lv_indev_get_type(const lv_indev_t * indev)
 135:lvgl/src/core/lv_indev.c **** {
 136:lvgl/src/core/lv_indev.c ****     if(indev == NULL) return LV_INDEV_TYPE_NONE;
 137:lvgl/src/core/lv_indev.c **** 
 138:lvgl/src/core/lv_indev.c ****     return indev->driver->type;
 139:lvgl/src/core/lv_indev.c **** }
 140:lvgl/src/core/lv_indev.c **** 
 141:lvgl/src/core/lv_indev.c **** void lv_indev_reset(lv_indev_t * indev, lv_obj_t * obj)
 142:lvgl/src/core/lv_indev.c **** {
 143:lvgl/src/core/lv_indev.c ****     if(indev) {
 144:lvgl/src/core/lv_indev.c ****         indev->proc.reset_query = 1;
 145:lvgl/src/core/lv_indev.c ****         if(indev_act == indev) indev_obj_act = NULL;
ARM GAS  C:\usertemp\ccMJcN2s.s 			page 4


 146:lvgl/src/core/lv_indev.c ****         if(indev->driver->type == LV_INDEV_TYPE_POINTER || indev->driver->type == LV_INDEV_TYPE_KEY
 147:lvgl/src/core/lv_indev.c ****             if(obj == NULL || indev->proc.types.pointer.last_pressed == obj) {
 148:lvgl/src/core/lv_indev.c ****                 indev->proc.types.pointer.last_pressed = NULL;
 149:lvgl/src/core/lv_indev.c ****             }
 150:lvgl/src/core/lv_indev.c ****             if(obj == NULL || indev->proc.types.pointer.act_obj == obj) {
 151:lvgl/src/core/lv_indev.c ****                 indev->proc.types.pointer.act_obj = NULL;
 152:lvgl/src/core/lv_indev.c ****             }
 153:lvgl/src/core/lv_indev.c ****             if(obj == NULL || indev->proc.types.pointer.last_obj == obj) {
 154:lvgl/src/core/lv_indev.c ****                 indev->proc.types.pointer.last_obj = NULL;
 155:lvgl/src/core/lv_indev.c ****             }
 156:lvgl/src/core/lv_indev.c ****         }
 157:lvgl/src/core/lv_indev.c ****     }
 158:lvgl/src/core/lv_indev.c ****     else {
 159:lvgl/src/core/lv_indev.c ****         lv_indev_t * i = lv_indev_get_next(NULL);
 160:lvgl/src/core/lv_indev.c ****         while(i) {
 161:lvgl/src/core/lv_indev.c ****             i->proc.reset_query = 1;
 162:lvgl/src/core/lv_indev.c ****             if(i->driver->type == LV_INDEV_TYPE_POINTER || i->driver->type == LV_INDEV_TYPE_KEYPAD)
 163:lvgl/src/core/lv_indev.c ****                 if(obj == NULL || i->proc.types.pointer.last_pressed == obj) {
 164:lvgl/src/core/lv_indev.c ****                     i->proc.types.pointer.last_pressed = NULL;
 165:lvgl/src/core/lv_indev.c ****                 }
 166:lvgl/src/core/lv_indev.c ****                 if(obj == NULL || i->proc.types.pointer.act_obj == obj) {
 167:lvgl/src/core/lv_indev.c ****                     i->proc.types.pointer.act_obj = NULL;
 168:lvgl/src/core/lv_indev.c ****                 }
 169:lvgl/src/core/lv_indev.c ****                 if(obj == NULL || i->proc.types.pointer.last_obj == obj) {
 170:lvgl/src/core/lv_indev.c ****                     i->proc.types.pointer.last_obj = NULL;
 171:lvgl/src/core/lv_indev.c ****                 }
 172:lvgl/src/core/lv_indev.c ****             }
 173:lvgl/src/core/lv_indev.c ****             i = lv_indev_get_next(i);
 174:lvgl/src/core/lv_indev.c ****         }
 175:lvgl/src/core/lv_indev.c ****         indev_obj_act = NULL;
 176:lvgl/src/core/lv_indev.c ****     }
 177:lvgl/src/core/lv_indev.c **** }
 178:lvgl/src/core/lv_indev.c **** 
 179:lvgl/src/core/lv_indev.c **** void lv_indev_reset_long_press(lv_indev_t * indev)
 180:lvgl/src/core/lv_indev.c **** {
 181:lvgl/src/core/lv_indev.c ****     indev->proc.long_pr_sent         = 0;
 182:lvgl/src/core/lv_indev.c ****     indev->proc.longpr_rep_timestamp = lv_tick_get();
 183:lvgl/src/core/lv_indev.c ****     indev->proc.pr_timestamp         = lv_tick_get();
 184:lvgl/src/core/lv_indev.c **** }
 185:lvgl/src/core/lv_indev.c **** 
 186:lvgl/src/core/lv_indev.c **** void lv_indev_set_cursor(lv_indev_t * indev, lv_obj_t * cur_obj)
 187:lvgl/src/core/lv_indev.c **** {
 188:lvgl/src/core/lv_indev.c ****     if(indev->driver->type != LV_INDEV_TYPE_POINTER) return;
 189:lvgl/src/core/lv_indev.c **** 
 190:lvgl/src/core/lv_indev.c ****     indev->cursor = cur_obj;
 191:lvgl/src/core/lv_indev.c ****     lv_obj_set_parent(indev->cursor, lv_disp_get_layer_sys(indev->driver->disp));
 192:lvgl/src/core/lv_indev.c ****     lv_obj_set_pos(indev->cursor, indev->proc.types.pointer.act_point.x, indev->proc.types.pointer.
 193:lvgl/src/core/lv_indev.c ****     lv_obj_clear_flag(indev->cursor, LV_OBJ_FLAG_CLICKABLE);
 194:lvgl/src/core/lv_indev.c ****     lv_obj_add_flag(indev->cursor, LV_OBJ_FLAG_IGNORE_LAYOUT | LV_OBJ_FLAG_FLOATING);
 195:lvgl/src/core/lv_indev.c **** }
 196:lvgl/src/core/lv_indev.c **** 
 197:lvgl/src/core/lv_indev.c **** void lv_indev_set_group(lv_indev_t * indev, lv_group_t * group)
 198:lvgl/src/core/lv_indev.c **** {
 199:lvgl/src/core/lv_indev.c ****     if(indev->driver->type == LV_INDEV_TYPE_KEYPAD || indev->driver->type == LV_INDEV_TYPE_ENCODER)
 200:lvgl/src/core/lv_indev.c ****         indev->group = group;
 201:lvgl/src/core/lv_indev.c ****     }
 202:lvgl/src/core/lv_indev.c **** }
ARM GAS  C:\usertemp\ccMJcN2s.s 			page 5


 203:lvgl/src/core/lv_indev.c **** 
 204:lvgl/src/core/lv_indev.c **** void lv_indev_set_button_points(lv_indev_t * indev, const lv_point_t points[])
 205:lvgl/src/core/lv_indev.c **** {
 206:lvgl/src/core/lv_indev.c ****     if(indev->driver->type == LV_INDEV_TYPE_BUTTON) {
 207:lvgl/src/core/lv_indev.c ****         indev->btn_points = points;
 208:lvgl/src/core/lv_indev.c ****     }
 209:lvgl/src/core/lv_indev.c **** }
 210:lvgl/src/core/lv_indev.c **** 
 211:lvgl/src/core/lv_indev.c **** void lv_indev_get_point(const lv_indev_t * indev, lv_point_t * point)
 212:lvgl/src/core/lv_indev.c **** {
 213:lvgl/src/core/lv_indev.c ****     if(indev == NULL) {
 214:lvgl/src/core/lv_indev.c ****         point->x = 0;
 215:lvgl/src/core/lv_indev.c ****         point->y = 0;
 216:lvgl/src/core/lv_indev.c ****         return;
 217:lvgl/src/core/lv_indev.c ****     }
 218:lvgl/src/core/lv_indev.c ****     if(indev->driver->type != LV_INDEV_TYPE_POINTER && indev->driver->type != LV_INDEV_TYPE_BUTTON)
 219:lvgl/src/core/lv_indev.c ****         point->x = -1;
 220:lvgl/src/core/lv_indev.c ****         point->y = -1;
 221:lvgl/src/core/lv_indev.c ****     }
 222:lvgl/src/core/lv_indev.c ****     else {
 223:lvgl/src/core/lv_indev.c ****         point->x = indev->proc.types.pointer.act_point.x;
 224:lvgl/src/core/lv_indev.c ****         point->y = indev->proc.types.pointer.act_point.y;
 225:lvgl/src/core/lv_indev.c ****     }
 226:lvgl/src/core/lv_indev.c **** }
 227:lvgl/src/core/lv_indev.c **** 
 228:lvgl/src/core/lv_indev.c **** lv_dir_t lv_indev_get_gesture_dir(const lv_indev_t * indev)
 229:lvgl/src/core/lv_indev.c **** {
 230:lvgl/src/core/lv_indev.c ****     return indev->proc.types.pointer.gesture_dir;
 231:lvgl/src/core/lv_indev.c **** }
 232:lvgl/src/core/lv_indev.c **** 
 233:lvgl/src/core/lv_indev.c **** uint32_t lv_indev_get_key(const lv_indev_t * indev)
 234:lvgl/src/core/lv_indev.c **** {
 235:lvgl/src/core/lv_indev.c ****     if(indev->driver->type != LV_INDEV_TYPE_KEYPAD)
 236:lvgl/src/core/lv_indev.c ****         return 0;
 237:lvgl/src/core/lv_indev.c ****     else
 238:lvgl/src/core/lv_indev.c ****         return indev->proc.types.keypad.last_key;
 239:lvgl/src/core/lv_indev.c **** }
 240:lvgl/src/core/lv_indev.c **** 
 241:lvgl/src/core/lv_indev.c **** lv_dir_t lv_indev_get_scroll_dir(const lv_indev_t * indev)
 242:lvgl/src/core/lv_indev.c **** {
 243:lvgl/src/core/lv_indev.c ****     if(indev == NULL) return false;
 244:lvgl/src/core/lv_indev.c ****     if(indev->driver->type != LV_INDEV_TYPE_POINTER && indev->driver->type != LV_INDEV_TYPE_BUTTON)
 245:lvgl/src/core/lv_indev.c ****     return indev->proc.types.pointer.scroll_dir;
 246:lvgl/src/core/lv_indev.c **** }
 247:lvgl/src/core/lv_indev.c **** 
 248:lvgl/src/core/lv_indev.c **** lv_obj_t * lv_indev_get_scroll_obj(const lv_indev_t * indev)
 249:lvgl/src/core/lv_indev.c **** {
 250:lvgl/src/core/lv_indev.c ****     if(indev == NULL) return NULL;
 251:lvgl/src/core/lv_indev.c ****     if(indev->driver->type != LV_INDEV_TYPE_POINTER && indev->driver->type != LV_INDEV_TYPE_BUTTON)
 252:lvgl/src/core/lv_indev.c ****     return indev->proc.types.pointer.scroll_obj;
 253:lvgl/src/core/lv_indev.c **** }
 254:lvgl/src/core/lv_indev.c **** 
 255:lvgl/src/core/lv_indev.c **** void lv_indev_get_vect(const lv_indev_t * indev, lv_point_t * point)
 256:lvgl/src/core/lv_indev.c **** {
 257:lvgl/src/core/lv_indev.c ****     point->x = 0;
 258:lvgl/src/core/lv_indev.c ****     point->y = 0;
 259:lvgl/src/core/lv_indev.c **** 
ARM GAS  C:\usertemp\ccMJcN2s.s 			page 6


 260:lvgl/src/core/lv_indev.c ****     if(indev == NULL) return;
 261:lvgl/src/core/lv_indev.c **** 
 262:lvgl/src/core/lv_indev.c ****     if(indev->driver->type == LV_INDEV_TYPE_POINTER || indev->driver->type == LV_INDEV_TYPE_BUTTON)
 263:lvgl/src/core/lv_indev.c ****         point->x = indev->proc.types.pointer.vect.x;
 264:lvgl/src/core/lv_indev.c ****         point->y = indev->proc.types.pointer.vect.y;
 265:lvgl/src/core/lv_indev.c ****     }
 266:lvgl/src/core/lv_indev.c **** }
 267:lvgl/src/core/lv_indev.c **** 
 268:lvgl/src/core/lv_indev.c **** void lv_indev_wait_release(lv_indev_t * indev)
 269:lvgl/src/core/lv_indev.c **** {
 270:lvgl/src/core/lv_indev.c ****     if(indev == NULL)return;
 271:lvgl/src/core/lv_indev.c ****     indev->proc.wait_until_release = 1;
 272:lvgl/src/core/lv_indev.c **** }
 273:lvgl/src/core/lv_indev.c **** 
 274:lvgl/src/core/lv_indev.c **** lv_obj_t * lv_indev_get_obj_act(void)
 275:lvgl/src/core/lv_indev.c **** {
 276:lvgl/src/core/lv_indev.c ****     return indev_obj_act;
 277:lvgl/src/core/lv_indev.c **** }
 278:lvgl/src/core/lv_indev.c **** 
 279:lvgl/src/core/lv_indev.c **** lv_timer_t * lv_indev_get_read_timer(lv_disp_t * indev)
 280:lvgl/src/core/lv_indev.c **** {
 281:lvgl/src/core/lv_indev.c ****     if(!indev) {
 282:lvgl/src/core/lv_indev.c ****         LV_LOG_WARN("lv_indev_get_read_timer: indev was NULL");
 283:lvgl/src/core/lv_indev.c ****         return NULL;
 284:lvgl/src/core/lv_indev.c ****     }
 285:lvgl/src/core/lv_indev.c **** 
 286:lvgl/src/core/lv_indev.c ****     return indev->refr_timer;
 287:lvgl/src/core/lv_indev.c **** }
 288:lvgl/src/core/lv_indev.c **** 
 289:lvgl/src/core/lv_indev.c **** lv_obj_t * lv_indev_search_obj(lv_obj_t * obj, lv_point_t * point)
 290:lvgl/src/core/lv_indev.c **** {
 291:lvgl/src/core/lv_indev.c ****     lv_obj_t * found_p = NULL;
 292:lvgl/src/core/lv_indev.c **** 
 293:lvgl/src/core/lv_indev.c ****     /*If this obj is hidden the children are hidden too so return immediately*/
 294:lvgl/src/core/lv_indev.c ****     if(lv_obj_has_flag(obj, LV_OBJ_FLAG_HIDDEN)) return NULL;
 295:lvgl/src/core/lv_indev.c **** 
 296:lvgl/src/core/lv_indev.c ****     bool hit_test_ok = lv_obj_hit_test(obj, point);
 297:lvgl/src/core/lv_indev.c **** 
 298:lvgl/src/core/lv_indev.c ****     /*If the point is on this object or has overflow visible check its children too*/
 299:lvgl/src/core/lv_indev.c ****     if(_lv_area_is_point_on(&obj->coords, point, 0) || lv_obj_has_flag(obj, LV_OBJ_FLAG_OVERFLOW_VI
 300:lvgl/src/core/lv_indev.c ****         int32_t i;
 301:lvgl/src/core/lv_indev.c ****         uint32_t child_cnt = lv_obj_get_child_cnt(obj);
 302:lvgl/src/core/lv_indev.c ****         /*If a child matches use it*/
 303:lvgl/src/core/lv_indev.c ****         for(i = child_cnt - 1; i >= 0; i--) {
 304:lvgl/src/core/lv_indev.c ****             lv_obj_t * child = obj->spec_attr->children[i];
 305:lvgl/src/core/lv_indev.c ****             found_p = lv_indev_search_obj(child, point);
 306:lvgl/src/core/lv_indev.c ****             if(found_p) return found_p;
 307:lvgl/src/core/lv_indev.c ****         }
 308:lvgl/src/core/lv_indev.c ****     }
 309:lvgl/src/core/lv_indev.c **** 
 310:lvgl/src/core/lv_indev.c ****     /*If not return earlier for a clicked child and this obj's hittest was ok use it
 311:lvgl/src/core/lv_indev.c ****      *else return NULL*/
 312:lvgl/src/core/lv_indev.c ****     if(hit_test_ok) return obj;
 313:lvgl/src/core/lv_indev.c ****     else return NULL;
 314:lvgl/src/core/lv_indev.c **** }
 315:lvgl/src/core/lv_indev.c **** 
 316:lvgl/src/core/lv_indev.c **** /**********************
ARM GAS  C:\usertemp\ccMJcN2s.s 			page 7


 317:lvgl/src/core/lv_indev.c ****  *   STATIC FUNCTIONS
 318:lvgl/src/core/lv_indev.c ****  **********************/
 319:lvgl/src/core/lv_indev.c **** 
 320:lvgl/src/core/lv_indev.c **** /**
 321:lvgl/src/core/lv_indev.c ****  * Process a new point from LV_INDEV_TYPE_POINTER input device
 322:lvgl/src/core/lv_indev.c ****  * @param i pointer to an input device
 323:lvgl/src/core/lv_indev.c ****  * @param data pointer to the data read from the input device
 324:lvgl/src/core/lv_indev.c ****  */
 325:lvgl/src/core/lv_indev.c **** static void indev_pointer_proc(lv_indev_t * i, lv_indev_data_t * data)
 326:lvgl/src/core/lv_indev.c **** {
 327:lvgl/src/core/lv_indev.c ****     lv_disp_t * disp = i->driver->disp;
 328:lvgl/src/core/lv_indev.c ****     /*Save the raw points so they can be used again in _lv_indev_read*/
 329:lvgl/src/core/lv_indev.c ****     i->proc.types.pointer.last_raw_point.x = data->point.x;
 330:lvgl/src/core/lv_indev.c ****     i->proc.types.pointer.last_raw_point.y = data->point.y;
 331:lvgl/src/core/lv_indev.c **** 
 332:lvgl/src/core/lv_indev.c ****     if(disp->driver->rotated == LV_DISP_ROT_180 || disp->driver->rotated == LV_DISP_ROT_270) {
 333:lvgl/src/core/lv_indev.c ****         data->point.x = disp->driver->hor_res - data->point.x - 1;
 334:lvgl/src/core/lv_indev.c ****         data->point.y = disp->driver->ver_res - data->point.y - 1;
 335:lvgl/src/core/lv_indev.c ****     }
 336:lvgl/src/core/lv_indev.c ****     if(disp->driver->rotated == LV_DISP_ROT_90 || disp->driver->rotated == LV_DISP_ROT_270) {
 337:lvgl/src/core/lv_indev.c ****         lv_coord_t tmp = data->point.y;
 338:lvgl/src/core/lv_indev.c ****         data->point.y = data->point.x;
 339:lvgl/src/core/lv_indev.c ****         data->point.x = disp->driver->ver_res - tmp - 1;
 340:lvgl/src/core/lv_indev.c ****     }
 341:lvgl/src/core/lv_indev.c **** 
 342:lvgl/src/core/lv_indev.c ****     /*Simple sanity check*/
 343:lvgl/src/core/lv_indev.c ****     if(data->point.x < 0) {
 344:lvgl/src/core/lv_indev.c ****         LV_LOG_WARN("X is %d which is smaller than zero", data->point.x);
 345:lvgl/src/core/lv_indev.c ****     }
 346:lvgl/src/core/lv_indev.c ****     if(data->point.x >= lv_disp_get_hor_res(i->driver->disp)) {
 347:lvgl/src/core/lv_indev.c ****         LV_LOG_WARN("X is %d which is greater than hor. res", data->point.x);
 348:lvgl/src/core/lv_indev.c ****     }
 349:lvgl/src/core/lv_indev.c ****     if(data->point.y < 0) {
 350:lvgl/src/core/lv_indev.c ****         LV_LOG_WARN("Y is %d which is smaller than zero", data->point.y);
 351:lvgl/src/core/lv_indev.c ****     }
 352:lvgl/src/core/lv_indev.c ****     if(data->point.y >= lv_disp_get_ver_res(i->driver->disp)) {
 353:lvgl/src/core/lv_indev.c ****         LV_LOG_WARN("Y is %d which is greater than ver. res", data->point.y);
 354:lvgl/src/core/lv_indev.c ****     }
 355:lvgl/src/core/lv_indev.c **** 
 356:lvgl/src/core/lv_indev.c ****     /*Move the cursor if set and moved*/
 357:lvgl/src/core/lv_indev.c ****     if(i->cursor != NULL &&
 358:lvgl/src/core/lv_indev.c ****        (i->proc.types.pointer.last_point.x != data->point.x || i->proc.types.pointer.last_point.y !
 359:lvgl/src/core/lv_indev.c ****         lv_obj_set_pos(i->cursor, data->point.x, data->point.y);
 360:lvgl/src/core/lv_indev.c ****     }
 361:lvgl/src/core/lv_indev.c **** 
 362:lvgl/src/core/lv_indev.c ****     i->proc.types.pointer.act_point.x = data->point.x;
 363:lvgl/src/core/lv_indev.c ****     i->proc.types.pointer.act_point.y = data->point.y;
 364:lvgl/src/core/lv_indev.c **** 
 365:lvgl/src/core/lv_indev.c ****     if(i->proc.state == LV_INDEV_STATE_PRESSED) {
 366:lvgl/src/core/lv_indev.c ****         indev_proc_press(&i->proc);
 367:lvgl/src/core/lv_indev.c ****     }
 368:lvgl/src/core/lv_indev.c ****     else {
 369:lvgl/src/core/lv_indev.c ****         indev_proc_release(&i->proc);
 370:lvgl/src/core/lv_indev.c ****     }
 371:lvgl/src/core/lv_indev.c **** 
 372:lvgl/src/core/lv_indev.c ****     i->proc.types.pointer.last_point.x = i->proc.types.pointer.act_point.x;
 373:lvgl/src/core/lv_indev.c ****     i->proc.types.pointer.last_point.y = i->proc.types.pointer.act_point.y;
ARM GAS  C:\usertemp\ccMJcN2s.s 			page 8


 374:lvgl/src/core/lv_indev.c **** }
 375:lvgl/src/core/lv_indev.c **** 
 376:lvgl/src/core/lv_indev.c **** /**
 377:lvgl/src/core/lv_indev.c ****  * Process a new point from LV_INDEV_TYPE_KEYPAD input device
 378:lvgl/src/core/lv_indev.c ****  * @param i pointer to an input device
 379:lvgl/src/core/lv_indev.c ****  * @param data pointer to the data read from the input device
 380:lvgl/src/core/lv_indev.c ****  */
 381:lvgl/src/core/lv_indev.c **** static void indev_keypad_proc(lv_indev_t * i, lv_indev_data_t * data)
 382:lvgl/src/core/lv_indev.c **** {
 383:lvgl/src/core/lv_indev.c ****     if(data->state == LV_INDEV_STATE_PRESSED && i->proc.wait_until_release) return;
 384:lvgl/src/core/lv_indev.c **** 
 385:lvgl/src/core/lv_indev.c ****     if(i->proc.wait_until_release) {
 386:lvgl/src/core/lv_indev.c ****         i->proc.wait_until_release      = 0;
 387:lvgl/src/core/lv_indev.c ****         i->proc.pr_timestamp            = 0;
 388:lvgl/src/core/lv_indev.c ****         i->proc.long_pr_sent            = 0;
 389:lvgl/src/core/lv_indev.c ****         i->proc.types.keypad.last_state = LV_INDEV_STATE_RELEASED; /*To skip the processing of rele
 390:lvgl/src/core/lv_indev.c ****     }
 391:lvgl/src/core/lv_indev.c **** 
 392:lvgl/src/core/lv_indev.c ****     lv_group_t * g = i->group;
 393:lvgl/src/core/lv_indev.c ****     if(g == NULL) return;
 394:lvgl/src/core/lv_indev.c **** 
 395:lvgl/src/core/lv_indev.c ****     indev_obj_act = lv_group_get_focused(g);
 396:lvgl/src/core/lv_indev.c ****     if(indev_obj_act == NULL) return;
 397:lvgl/src/core/lv_indev.c **** 
 398:lvgl/src/core/lv_indev.c ****     /*Save the last key to compare it with the current latter on RELEASE*/
 399:lvgl/src/core/lv_indev.c ****     uint32_t prev_key = i->proc.types.keypad.last_key;
 400:lvgl/src/core/lv_indev.c **** 
 401:lvgl/src/core/lv_indev.c ****     /*Save the last key.
 402:lvgl/src/core/lv_indev.c ****      *It must be done here else `lv_indev_get_key` will return the last key in events*/
 403:lvgl/src/core/lv_indev.c ****     i->proc.types.keypad.last_key = data->key;
 404:lvgl/src/core/lv_indev.c **** 
 405:lvgl/src/core/lv_indev.c ****     /*Save the previous state so we can detect state changes below and also set the last state now
 406:lvgl/src/core/lv_indev.c ****      *so if any event handler on the way returns `LV_RES_INV` the last state is remembered
 407:lvgl/src/core/lv_indev.c ****      *for the next time*/
 408:lvgl/src/core/lv_indev.c ****     uint32_t prev_state             = i->proc.types.keypad.last_state;
 409:lvgl/src/core/lv_indev.c ****     i->proc.types.keypad.last_state = data->state;
 410:lvgl/src/core/lv_indev.c **** 
 411:lvgl/src/core/lv_indev.c ****     /*Key press happened*/
 412:lvgl/src/core/lv_indev.c ****     if(data->state == LV_INDEV_STATE_PRESSED && prev_state == LV_INDEV_STATE_RELEASED) {
 413:lvgl/src/core/lv_indev.c ****         LV_LOG_INFO("%d key is pressed", data->key);
 414:lvgl/src/core/lv_indev.c ****         i->proc.pr_timestamp = lv_tick_get();
 415:lvgl/src/core/lv_indev.c **** 
 416:lvgl/src/core/lv_indev.c ****         /*Simulate a press on the object if ENTER was pressed*/
 417:lvgl/src/core/lv_indev.c ****         if(data->key == LV_KEY_ENTER) {
 418:lvgl/src/core/lv_indev.c ****             /*Send the ENTER as a normal KEY*/
 419:lvgl/src/core/lv_indev.c ****             lv_group_send_data(g, LV_KEY_ENTER);
 420:lvgl/src/core/lv_indev.c **** 
 421:lvgl/src/core/lv_indev.c ****             lv_event_send(indev_obj_act, LV_EVENT_PRESSED, indev_act);
 422:lvgl/src/core/lv_indev.c ****             if(indev_reset_check(&i->proc)) return;
 423:lvgl/src/core/lv_indev.c ****         }
 424:lvgl/src/core/lv_indev.c ****         else if(data->key == LV_KEY_ESC) {
 425:lvgl/src/core/lv_indev.c ****             /*Send the ESC as a normal KEY*/
 426:lvgl/src/core/lv_indev.c ****             lv_group_send_data(g, LV_KEY_ESC);
 427:lvgl/src/core/lv_indev.c **** 
 428:lvgl/src/core/lv_indev.c ****             lv_event_send(indev_obj_act, LV_EVENT_CANCEL, indev_act);
 429:lvgl/src/core/lv_indev.c ****             if(indev_reset_check(&i->proc)) return;
 430:lvgl/src/core/lv_indev.c ****         }
ARM GAS  C:\usertemp\ccMJcN2s.s 			page 9


 431:lvgl/src/core/lv_indev.c ****         /*Move the focus on NEXT*/
 432:lvgl/src/core/lv_indev.c ****         else if(data->key == LV_KEY_NEXT) {
 433:lvgl/src/core/lv_indev.c ****             lv_group_set_editing(g, false); /*Editing is not used by KEYPAD is be sure it is disabl
 434:lvgl/src/core/lv_indev.c ****             lv_group_focus_next(g);
 435:lvgl/src/core/lv_indev.c ****             if(indev_reset_check(&i->proc)) return;
 436:lvgl/src/core/lv_indev.c ****         }
 437:lvgl/src/core/lv_indev.c ****         /*Move the focus on PREV*/
 438:lvgl/src/core/lv_indev.c ****         else if(data->key == LV_KEY_PREV) {
 439:lvgl/src/core/lv_indev.c ****             lv_group_set_editing(g, false); /*Editing is not used by KEYPAD is be sure it is disabl
 440:lvgl/src/core/lv_indev.c ****             lv_group_focus_prev(g);
 441:lvgl/src/core/lv_indev.c ****             if(indev_reset_check(&i->proc)) return;
 442:lvgl/src/core/lv_indev.c ****         }
 443:lvgl/src/core/lv_indev.c ****         /*Just send other keys to the object (e.g. 'A' or `LV_GROUP_KEY_RIGHT`)*/
 444:lvgl/src/core/lv_indev.c ****         else {
 445:lvgl/src/core/lv_indev.c ****             lv_group_send_data(g, data->key);
 446:lvgl/src/core/lv_indev.c ****         }
 447:lvgl/src/core/lv_indev.c ****     }
 448:lvgl/src/core/lv_indev.c ****     /*Pressing*/
 449:lvgl/src/core/lv_indev.c ****     else if(data->state == LV_INDEV_STATE_PRESSED && prev_state == LV_INDEV_STATE_PRESSED) {
 450:lvgl/src/core/lv_indev.c **** 
 451:lvgl/src/core/lv_indev.c ****         if(data->key == LV_KEY_ENTER) {
 452:lvgl/src/core/lv_indev.c ****             lv_event_send(indev_obj_act, LV_EVENT_PRESSING, indev_act);
 453:lvgl/src/core/lv_indev.c ****             if(indev_reset_check(&i->proc)) return;
 454:lvgl/src/core/lv_indev.c ****         }
 455:lvgl/src/core/lv_indev.c **** 
 456:lvgl/src/core/lv_indev.c ****         /*Long press time has elapsed?*/
 457:lvgl/src/core/lv_indev.c ****         if(i->proc.long_pr_sent == 0 && lv_tick_elaps(i->proc.pr_timestamp) > i->driver->long_press
 458:lvgl/src/core/lv_indev.c ****             i->proc.long_pr_sent = 1;
 459:lvgl/src/core/lv_indev.c ****             if(data->key == LV_KEY_ENTER) {
 460:lvgl/src/core/lv_indev.c ****                 i->proc.longpr_rep_timestamp = lv_tick_get();
 461:lvgl/src/core/lv_indev.c ****                 lv_event_send(indev_obj_act, LV_EVENT_LONG_PRESSED, indev_act);
 462:lvgl/src/core/lv_indev.c ****                 if(indev_reset_check(&i->proc)) return;
 463:lvgl/src/core/lv_indev.c ****             }
 464:lvgl/src/core/lv_indev.c ****         }
 465:lvgl/src/core/lv_indev.c ****         /*Long press repeated time has elapsed?*/
 466:lvgl/src/core/lv_indev.c ****         else if(i->proc.long_pr_sent != 0 &&
 467:lvgl/src/core/lv_indev.c ****                 lv_tick_elaps(i->proc.longpr_rep_timestamp) > i->driver->long_press_repeat_time) {
 468:lvgl/src/core/lv_indev.c **** 
 469:lvgl/src/core/lv_indev.c ****             i->proc.longpr_rep_timestamp = lv_tick_get();
 470:lvgl/src/core/lv_indev.c **** 
 471:lvgl/src/core/lv_indev.c ****             /*Send LONG_PRESS_REP on ENTER*/
 472:lvgl/src/core/lv_indev.c ****             if(data->key == LV_KEY_ENTER) {
 473:lvgl/src/core/lv_indev.c ****                 lv_event_send(indev_obj_act, LV_EVENT_LONG_PRESSED_REPEAT, indev_act);
 474:lvgl/src/core/lv_indev.c ****                 if(indev_reset_check(&i->proc)) return;
 475:lvgl/src/core/lv_indev.c ****             }
 476:lvgl/src/core/lv_indev.c ****             /*Move the focus on NEXT again*/
 477:lvgl/src/core/lv_indev.c ****             else if(data->key == LV_KEY_NEXT) {
 478:lvgl/src/core/lv_indev.c ****                 lv_group_set_editing(g, false); /*Editing is not used by KEYPAD is be sure it is di
 479:lvgl/src/core/lv_indev.c ****                 lv_group_focus_next(g);
 480:lvgl/src/core/lv_indev.c ****                 if(indev_reset_check(&i->proc)) return;
 481:lvgl/src/core/lv_indev.c ****             }
 482:lvgl/src/core/lv_indev.c ****             /*Move the focus on PREV again*/
 483:lvgl/src/core/lv_indev.c ****             else if(data->key == LV_KEY_PREV) {
 484:lvgl/src/core/lv_indev.c ****                 lv_group_set_editing(g, false); /*Editing is not used by KEYPAD is be sure it is di
 485:lvgl/src/core/lv_indev.c ****                 lv_group_focus_prev(g);
 486:lvgl/src/core/lv_indev.c ****                 if(indev_reset_check(&i->proc)) return;
 487:lvgl/src/core/lv_indev.c ****             }
ARM GAS  C:\usertemp\ccMJcN2s.s 			page 10


 488:lvgl/src/core/lv_indev.c ****             /*Just send other keys again to the object (e.g. 'A' or `LV_GROUP_KEY_RIGHT)*/
 489:lvgl/src/core/lv_indev.c ****             else {
 490:lvgl/src/core/lv_indev.c ****                 lv_group_send_data(g, data->key);
 491:lvgl/src/core/lv_indev.c ****                 if(indev_reset_check(&i->proc)) return;
 492:lvgl/src/core/lv_indev.c ****             }
 493:lvgl/src/core/lv_indev.c ****         }
 494:lvgl/src/core/lv_indev.c ****     }
 495:lvgl/src/core/lv_indev.c ****     /*Release happened*/
 496:lvgl/src/core/lv_indev.c ****     else if(data->state == LV_INDEV_STATE_RELEASED && prev_state == LV_INDEV_STATE_PRESSED) {
 497:lvgl/src/core/lv_indev.c ****         LV_LOG_INFO("%d key is released", data->key);
 498:lvgl/src/core/lv_indev.c ****         /*The user might clear the key when it was released. Always release the pressed key*/
 499:lvgl/src/core/lv_indev.c ****         data->key = prev_key;
 500:lvgl/src/core/lv_indev.c ****         if(data->key == LV_KEY_ENTER) {
 501:lvgl/src/core/lv_indev.c **** 
 502:lvgl/src/core/lv_indev.c ****             lv_event_send(indev_obj_act, LV_EVENT_RELEASED, indev_act);
 503:lvgl/src/core/lv_indev.c ****             if(indev_reset_check(&i->proc)) return;
 504:lvgl/src/core/lv_indev.c **** 
 505:lvgl/src/core/lv_indev.c ****             if(i->proc.long_pr_sent == 0) {
 506:lvgl/src/core/lv_indev.c ****                 lv_event_send(indev_obj_act, LV_EVENT_SHORT_CLICKED, indev_act);
 507:lvgl/src/core/lv_indev.c ****                 if(indev_reset_check(&i->proc)) return;
 508:lvgl/src/core/lv_indev.c ****             }
 509:lvgl/src/core/lv_indev.c **** 
 510:lvgl/src/core/lv_indev.c ****             lv_event_send(indev_obj_act, LV_EVENT_CLICKED, indev_act);
 511:lvgl/src/core/lv_indev.c ****             if(indev_reset_check(&i->proc)) return;
 512:lvgl/src/core/lv_indev.c **** 
 513:lvgl/src/core/lv_indev.c ****         }
 514:lvgl/src/core/lv_indev.c ****         i->proc.pr_timestamp = 0;
 515:lvgl/src/core/lv_indev.c ****         i->proc.long_pr_sent = 0;
 516:lvgl/src/core/lv_indev.c ****     }
 517:lvgl/src/core/lv_indev.c ****     indev_obj_act = NULL;
 518:lvgl/src/core/lv_indev.c **** }
 519:lvgl/src/core/lv_indev.c **** 
 520:lvgl/src/core/lv_indev.c **** /**
 521:lvgl/src/core/lv_indev.c ****  * Process a new point from LV_INDEV_TYPE_ENCODER input device
 522:lvgl/src/core/lv_indev.c ****  * @param i pointer to an input device
 523:lvgl/src/core/lv_indev.c ****  * @param data pointer to the data read from the input device
 524:lvgl/src/core/lv_indev.c ****  */
 525:lvgl/src/core/lv_indev.c **** static void indev_encoder_proc(lv_indev_t * i, lv_indev_data_t * data)
 526:lvgl/src/core/lv_indev.c **** {
 527:lvgl/src/core/lv_indev.c ****     if(data->state == LV_INDEV_STATE_PRESSED && i->proc.wait_until_release) return;
 528:lvgl/src/core/lv_indev.c **** 
 529:lvgl/src/core/lv_indev.c ****     if(i->proc.wait_until_release) {
 530:lvgl/src/core/lv_indev.c ****         i->proc.wait_until_release      = 0;
 531:lvgl/src/core/lv_indev.c ****         i->proc.pr_timestamp            = 0;
 532:lvgl/src/core/lv_indev.c ****         i->proc.long_pr_sent            = 0;
 533:lvgl/src/core/lv_indev.c ****         i->proc.types.keypad.last_state = LV_INDEV_STATE_RELEASED; /*To skip the processing of rele
 534:lvgl/src/core/lv_indev.c ****     }
 535:lvgl/src/core/lv_indev.c **** 
 536:lvgl/src/core/lv_indev.c ****     /*Save the last keys before anything else.
 537:lvgl/src/core/lv_indev.c ****      *They need to be already saved if the function returns for any reason*/
 538:lvgl/src/core/lv_indev.c ****     lv_indev_state_t last_state     = i->proc.types.keypad.last_state;
 539:lvgl/src/core/lv_indev.c ****     i->proc.types.keypad.last_state = data->state;
 540:lvgl/src/core/lv_indev.c ****     i->proc.types.keypad.last_key   = data->key;
 541:lvgl/src/core/lv_indev.c **** 
 542:lvgl/src/core/lv_indev.c ****     lv_group_t * g = i->group;
 543:lvgl/src/core/lv_indev.c ****     if(g == NULL) return;
 544:lvgl/src/core/lv_indev.c **** 
ARM GAS  C:\usertemp\ccMJcN2s.s 			page 11


 545:lvgl/src/core/lv_indev.c ****     indev_obj_act = lv_group_get_focused(g);
 546:lvgl/src/core/lv_indev.c ****     if(indev_obj_act == NULL) return;
 547:lvgl/src/core/lv_indev.c **** 
 548:lvgl/src/core/lv_indev.c ****     /*Process the steps they are valid only with released button*/
 549:lvgl/src/core/lv_indev.c ****     if(data->state != LV_INDEV_STATE_RELEASED) {
 550:lvgl/src/core/lv_indev.c ****         data->enc_diff = 0;
 551:lvgl/src/core/lv_indev.c ****     }
 552:lvgl/src/core/lv_indev.c **** 
 553:lvgl/src/core/lv_indev.c ****     /*Refresh the focused object. It might change due to lv_group_focus_prev/next*/
 554:lvgl/src/core/lv_indev.c ****     indev_obj_act = lv_group_get_focused(g);
 555:lvgl/src/core/lv_indev.c ****     if(indev_obj_act == NULL) return;
 556:lvgl/src/core/lv_indev.c **** 
 557:lvgl/src/core/lv_indev.c ****     /*Button press happened*/
 558:lvgl/src/core/lv_indev.c ****     if(data->state == LV_INDEV_STATE_PRESSED && last_state == LV_INDEV_STATE_RELEASED) {
 559:lvgl/src/core/lv_indev.c ****         LV_LOG_INFO("pressed");
 560:lvgl/src/core/lv_indev.c **** 
 561:lvgl/src/core/lv_indev.c ****         i->proc.pr_timestamp = lv_tick_get();
 562:lvgl/src/core/lv_indev.c **** 
 563:lvgl/src/core/lv_indev.c ****         if(data->key == LV_KEY_ENTER) {
 564:lvgl/src/core/lv_indev.c ****             bool editable_or_scrollable = lv_obj_is_editable(indev_obj_act) ||
 565:lvgl/src/core/lv_indev.c ****                                           lv_obj_has_flag(indev_obj_act, LV_OBJ_FLAG_SCROLLABLE);
 566:lvgl/src/core/lv_indev.c ****             if(lv_group_get_editing(g) == true || editable_or_scrollable == false) {
 567:lvgl/src/core/lv_indev.c ****                 lv_event_send(indev_obj_act, LV_EVENT_PRESSED, indev_act);
 568:lvgl/src/core/lv_indev.c ****                 if(indev_reset_check(&i->proc)) return;
 569:lvgl/src/core/lv_indev.c ****             }
 570:lvgl/src/core/lv_indev.c ****         }
 571:lvgl/src/core/lv_indev.c ****         else if(data->key == LV_KEY_LEFT) {
 572:lvgl/src/core/lv_indev.c ****             /*emulate encoder left*/
 573:lvgl/src/core/lv_indev.c ****             data->enc_diff--;
 574:lvgl/src/core/lv_indev.c ****         }
 575:lvgl/src/core/lv_indev.c ****         else if(data->key == LV_KEY_RIGHT) {
 576:lvgl/src/core/lv_indev.c ****             /*emulate encoder right*/
 577:lvgl/src/core/lv_indev.c ****             data->enc_diff++;
 578:lvgl/src/core/lv_indev.c ****         }
 579:lvgl/src/core/lv_indev.c ****         else if(data->key == LV_KEY_ESC) {
 580:lvgl/src/core/lv_indev.c ****             /*Send the ESC as a normal KEY*/
 581:lvgl/src/core/lv_indev.c ****             lv_group_send_data(g, LV_KEY_ESC);
 582:lvgl/src/core/lv_indev.c **** 
 583:lvgl/src/core/lv_indev.c ****             lv_event_send(indev_obj_act, LV_EVENT_CANCEL, indev_act);
 584:lvgl/src/core/lv_indev.c ****             if(indev_reset_check(&i->proc)) return;
 585:lvgl/src/core/lv_indev.c ****         }
 586:lvgl/src/core/lv_indev.c ****         /*Just send other keys to the object (e.g. 'A' or `LV_GROUP_KEY_RIGHT`)*/
 587:lvgl/src/core/lv_indev.c ****         else {
 588:lvgl/src/core/lv_indev.c ****             lv_group_send_data(g, data->key);
 589:lvgl/src/core/lv_indev.c ****         }
 590:lvgl/src/core/lv_indev.c ****     }
 591:lvgl/src/core/lv_indev.c ****     /*Pressing*/
 592:lvgl/src/core/lv_indev.c ****     else if(data->state == LV_INDEV_STATE_PRESSED && last_state == LV_INDEV_STATE_PRESSED) {
 593:lvgl/src/core/lv_indev.c ****         /*Long press*/
 594:lvgl/src/core/lv_indev.c ****         if(i->proc.long_pr_sent == 0 && lv_tick_elaps(i->proc.pr_timestamp) > i->driver->long_press
 595:lvgl/src/core/lv_indev.c **** 
 596:lvgl/src/core/lv_indev.c ****             i->proc.long_pr_sent = 1;
 597:lvgl/src/core/lv_indev.c ****             i->proc.longpr_rep_timestamp = lv_tick_get();
 598:lvgl/src/core/lv_indev.c **** 
 599:lvgl/src/core/lv_indev.c ****             if(data->key == LV_KEY_ENTER) {
 600:lvgl/src/core/lv_indev.c ****                 bool editable_or_scrollable = lv_obj_is_editable(indev_obj_act) ||
 601:lvgl/src/core/lv_indev.c ****                                               lv_obj_has_flag(indev_obj_act, LV_OBJ_FLAG_SCROLLABLE
ARM GAS  C:\usertemp\ccMJcN2s.s 			page 12


 602:lvgl/src/core/lv_indev.c **** 
 603:lvgl/src/core/lv_indev.c ****                 /*On enter long press toggle edit mode.*/
 604:lvgl/src/core/lv_indev.c ****                 if(editable_or_scrollable) {
 605:lvgl/src/core/lv_indev.c ****                     /*Don't leave edit mode if there is only one object (nowhere to navigate)*/
 606:lvgl/src/core/lv_indev.c ****                     if(lv_group_get_obj_count(g) > 1) {
 607:lvgl/src/core/lv_indev.c ****                         LV_LOG_INFO("toggling edit mode");
 608:lvgl/src/core/lv_indev.c ****                         lv_group_set_editing(g, lv_group_get_editing(g) ? false : true); /*Toggle e
 609:lvgl/src/core/lv_indev.c ****                         lv_obj_clear_state(indev_obj_act, LV_STATE_PRESSED);    /*Remove the presse
 610:lvgl/src/core/lv_indev.c ****                     }
 611:lvgl/src/core/lv_indev.c ****                 }
 612:lvgl/src/core/lv_indev.c ****                 /*If not editable then just send a long press Call the ancestor's event handler*/
 613:lvgl/src/core/lv_indev.c ****                 else {
 614:lvgl/src/core/lv_indev.c ****                     lv_event_send(indev_obj_act, LV_EVENT_LONG_PRESSED, indev_act);
 615:lvgl/src/core/lv_indev.c ****                     if(indev_reset_check(&i->proc)) return;
 616:lvgl/src/core/lv_indev.c ****                 }
 617:lvgl/src/core/lv_indev.c ****             }
 618:lvgl/src/core/lv_indev.c **** 
 619:lvgl/src/core/lv_indev.c ****             i->proc.long_pr_sent = 1;
 620:lvgl/src/core/lv_indev.c ****         }
 621:lvgl/src/core/lv_indev.c ****         /*Long press repeated time has elapsed?*/
 622:lvgl/src/core/lv_indev.c ****         else if(i->proc.long_pr_sent != 0 && lv_tick_elaps(i->proc.longpr_rep_timestamp) > i->drive
 623:lvgl/src/core/lv_indev.c **** 
 624:lvgl/src/core/lv_indev.c ****             i->proc.longpr_rep_timestamp = lv_tick_get();
 625:lvgl/src/core/lv_indev.c **** 
 626:lvgl/src/core/lv_indev.c ****             if(data->key == LV_KEY_ENTER) {
 627:lvgl/src/core/lv_indev.c ****                 lv_event_send(indev_obj_act, LV_EVENT_LONG_PRESSED_REPEAT, indev_act);
 628:lvgl/src/core/lv_indev.c ****                 if(indev_reset_check(&i->proc)) return;
 629:lvgl/src/core/lv_indev.c ****             }
 630:lvgl/src/core/lv_indev.c ****             else if(data->key == LV_KEY_LEFT) {
 631:lvgl/src/core/lv_indev.c ****                 /*emulate encoder left*/
 632:lvgl/src/core/lv_indev.c ****                 data->enc_diff--;
 633:lvgl/src/core/lv_indev.c ****             }
 634:lvgl/src/core/lv_indev.c ****             else if(data->key == LV_KEY_RIGHT) {
 635:lvgl/src/core/lv_indev.c ****                 /*emulate encoder right*/
 636:lvgl/src/core/lv_indev.c ****                 data->enc_diff++;
 637:lvgl/src/core/lv_indev.c ****             }
 638:lvgl/src/core/lv_indev.c ****             else {
 639:lvgl/src/core/lv_indev.c ****                 lv_group_send_data(g, data->key);
 640:lvgl/src/core/lv_indev.c ****                 if(indev_reset_check(&i->proc)) return;
 641:lvgl/src/core/lv_indev.c ****             }
 642:lvgl/src/core/lv_indev.c **** 
 643:lvgl/src/core/lv_indev.c ****         }
 644:lvgl/src/core/lv_indev.c **** 
 645:lvgl/src/core/lv_indev.c ****     }
 646:lvgl/src/core/lv_indev.c ****     /*Release happened*/
 647:lvgl/src/core/lv_indev.c ****     else if(data->state == LV_INDEV_STATE_RELEASED && last_state == LV_INDEV_STATE_PRESSED) {
 648:lvgl/src/core/lv_indev.c ****         LV_LOG_INFO("released");
 649:lvgl/src/core/lv_indev.c **** 
 650:lvgl/src/core/lv_indev.c ****         if(data->key == LV_KEY_ENTER) {
 651:lvgl/src/core/lv_indev.c ****             bool editable_or_scrollable = lv_obj_is_editable(indev_obj_act) ||
 652:lvgl/src/core/lv_indev.c ****                                           lv_obj_has_flag(indev_obj_act, LV_OBJ_FLAG_SCROLLABLE);
 653:lvgl/src/core/lv_indev.c **** 
 654:lvgl/src/core/lv_indev.c ****             /*The button was released on a non-editable object. Just send enter*/
 655:lvgl/src/core/lv_indev.c ****             if(editable_or_scrollable == false) {
 656:lvgl/src/core/lv_indev.c ****                 lv_event_send(indev_obj_act, LV_EVENT_RELEASED, indev_act);
 657:lvgl/src/core/lv_indev.c ****                 if(indev_reset_check(&i->proc)) return;
 658:lvgl/src/core/lv_indev.c **** 
ARM GAS  C:\usertemp\ccMJcN2s.s 			page 13


 659:lvgl/src/core/lv_indev.c ****                 if(i->proc.long_pr_sent == 0) lv_event_send(indev_obj_act, LV_EVENT_SHORT_CLICKED, 
 660:lvgl/src/core/lv_indev.c ****                 if(indev_reset_check(&i->proc)) return;
 661:lvgl/src/core/lv_indev.c **** 
 662:lvgl/src/core/lv_indev.c ****                 lv_event_send(indev_obj_act, LV_EVENT_CLICKED, indev_act);
 663:lvgl/src/core/lv_indev.c ****                 if(indev_reset_check(&i->proc)) return;
 664:lvgl/src/core/lv_indev.c **** 
 665:lvgl/src/core/lv_indev.c ****             }
 666:lvgl/src/core/lv_indev.c ****             /*An object is being edited and the button is released.*/
 667:lvgl/src/core/lv_indev.c ****             else if(lv_group_get_editing(g)) {
 668:lvgl/src/core/lv_indev.c ****                 /*Ignore long pressed enter release because it comes from mode switch*/
 669:lvgl/src/core/lv_indev.c ****                 if(!i->proc.long_pr_sent || lv_group_get_obj_count(g) <= 1) {
 670:lvgl/src/core/lv_indev.c ****                     lv_event_send(indev_obj_act, LV_EVENT_RELEASED, indev_act);
 671:lvgl/src/core/lv_indev.c ****                     if(indev_reset_check(&i->proc)) return;
 672:lvgl/src/core/lv_indev.c **** 
 673:lvgl/src/core/lv_indev.c ****                     lv_event_send(indev_obj_act, LV_EVENT_SHORT_CLICKED, indev_act);
 674:lvgl/src/core/lv_indev.c ****                     if(indev_reset_check(&i->proc)) return;
 675:lvgl/src/core/lv_indev.c **** 
 676:lvgl/src/core/lv_indev.c ****                     lv_event_send(indev_obj_act, LV_EVENT_CLICKED, indev_act);
 677:lvgl/src/core/lv_indev.c ****                     if(indev_reset_check(&i->proc)) return;
 678:lvgl/src/core/lv_indev.c **** 
 679:lvgl/src/core/lv_indev.c **** 
 680:lvgl/src/core/lv_indev.c ****                     lv_group_send_data(g, LV_KEY_ENTER);
 681:lvgl/src/core/lv_indev.c ****                 }
 682:lvgl/src/core/lv_indev.c ****                 else {
 683:lvgl/src/core/lv_indev.c ****                     lv_obj_clear_state(indev_obj_act, LV_STATE_PRESSED);    /*Remove the pressed st
 684:lvgl/src/core/lv_indev.c ****                 }
 685:lvgl/src/core/lv_indev.c ****             }
 686:lvgl/src/core/lv_indev.c ****             /*If the focused object is editable and now in navigate mode then on enter switch edit
 687:lvgl/src/core/lv_indev.c ****                mode*/
 688:lvgl/src/core/lv_indev.c ****             else if(!i->proc.long_pr_sent) {
 689:lvgl/src/core/lv_indev.c ****                 LV_LOG_INFO("entering edit mode");
 690:lvgl/src/core/lv_indev.c ****                 lv_group_set_editing(g, true); /*Set edit mode*/
 691:lvgl/src/core/lv_indev.c ****             }
 692:lvgl/src/core/lv_indev.c ****         }
 693:lvgl/src/core/lv_indev.c **** 
 694:lvgl/src/core/lv_indev.c ****         i->proc.pr_timestamp = 0;
 695:lvgl/src/core/lv_indev.c ****         i->proc.long_pr_sent = 0;
 696:lvgl/src/core/lv_indev.c ****     }
 697:lvgl/src/core/lv_indev.c ****     indev_obj_act = NULL;
 698:lvgl/src/core/lv_indev.c **** 
 699:lvgl/src/core/lv_indev.c ****     /*if encoder steps or simulated steps via left/right keys*/
 700:lvgl/src/core/lv_indev.c ****     if(data->enc_diff != 0) {
 701:lvgl/src/core/lv_indev.c ****         /*In edit mode send LEFT/RIGHT keys*/
 702:lvgl/src/core/lv_indev.c ****         if(lv_group_get_editing(g)) {
 703:lvgl/src/core/lv_indev.c ****             LV_LOG_INFO("rotated by %+d (edit)", data->enc_diff);
 704:lvgl/src/core/lv_indev.c ****             int32_t s;
 705:lvgl/src/core/lv_indev.c ****             if(data->enc_diff < 0) {
 706:lvgl/src/core/lv_indev.c ****                 for(s = 0; s < -data->enc_diff; s++) lv_group_send_data(g, LV_KEY_LEFT);
 707:lvgl/src/core/lv_indev.c ****             }
 708:lvgl/src/core/lv_indev.c ****             else if(data->enc_diff > 0) {
 709:lvgl/src/core/lv_indev.c ****                 for(s = 0; s < data->enc_diff; s++) lv_group_send_data(g, LV_KEY_RIGHT);
 710:lvgl/src/core/lv_indev.c ****             }
 711:lvgl/src/core/lv_indev.c ****         }
 712:lvgl/src/core/lv_indev.c ****         /*In navigate mode focus on the next/prev objects*/
 713:lvgl/src/core/lv_indev.c ****         else {
 714:lvgl/src/core/lv_indev.c ****             LV_LOG_INFO("rotated by %+d (nav)", data->enc_diff);
 715:lvgl/src/core/lv_indev.c ****             int32_t s;
ARM GAS  C:\usertemp\ccMJcN2s.s 			page 14


 716:lvgl/src/core/lv_indev.c ****             if(data->enc_diff < 0) {
 717:lvgl/src/core/lv_indev.c ****                 for(s = 0; s < -data->enc_diff; s++) lv_group_focus_prev(g);
 718:lvgl/src/core/lv_indev.c ****             }
 719:lvgl/src/core/lv_indev.c ****             else if(data->enc_diff > 0) {
 720:lvgl/src/core/lv_indev.c ****                 for(s = 0; s < data->enc_diff; s++) lv_group_focus_next(g);
 721:lvgl/src/core/lv_indev.c ****             }
 722:lvgl/src/core/lv_indev.c ****         }
 723:lvgl/src/core/lv_indev.c ****     }
 724:lvgl/src/core/lv_indev.c **** }
 725:lvgl/src/core/lv_indev.c **** 
 726:lvgl/src/core/lv_indev.c **** /**
 727:lvgl/src/core/lv_indev.c ****  * Process new points from an input device. indev->state.pressed has to be set
 728:lvgl/src/core/lv_indev.c ****  * @param indev pointer to an input device state
 729:lvgl/src/core/lv_indev.c ****  * @param x x coordinate of the next point
 730:lvgl/src/core/lv_indev.c ****  * @param y y coordinate of the next point
 731:lvgl/src/core/lv_indev.c ****  */
 732:lvgl/src/core/lv_indev.c **** static void indev_button_proc(lv_indev_t * i, lv_indev_data_t * data)
 733:lvgl/src/core/lv_indev.c **** {
 734:lvgl/src/core/lv_indev.c ****     /*Die gracefully if i->btn_points is NULL*/
 735:lvgl/src/core/lv_indev.c ****     if(i->btn_points == NULL) {
 736:lvgl/src/core/lv_indev.c ****         LV_LOG_WARN("btn_points is NULL");
 737:lvgl/src/core/lv_indev.c ****         return;
 738:lvgl/src/core/lv_indev.c ****     }
 739:lvgl/src/core/lv_indev.c **** 
 740:lvgl/src/core/lv_indev.c ****     lv_coord_t x = i->btn_points[data->btn_id].x;
 741:lvgl/src/core/lv_indev.c ****     lv_coord_t y = i->btn_points[data->btn_id].y;
 742:lvgl/src/core/lv_indev.c **** 
 743:lvgl/src/core/lv_indev.c ****     static lv_indev_state_t prev_state = LV_INDEV_STATE_RELEASED;
 744:lvgl/src/core/lv_indev.c ****     if(prev_state != data->state) {
 745:lvgl/src/core/lv_indev.c ****         if(data->state == LV_INDEV_STATE_PRESSED) {
 746:lvgl/src/core/lv_indev.c ****             LV_LOG_INFO("button %d is pressed (x:%d y:%d)", data->btn_id, x, y);
 747:lvgl/src/core/lv_indev.c ****         }
 748:lvgl/src/core/lv_indev.c ****         else {
 749:lvgl/src/core/lv_indev.c ****             LV_LOG_INFO("button %d is released (x:%d y:%d)", data->btn_id, x, y);
 750:lvgl/src/core/lv_indev.c ****         }
 751:lvgl/src/core/lv_indev.c ****     }
 752:lvgl/src/core/lv_indev.c **** 
 753:lvgl/src/core/lv_indev.c ****     /*If a new point comes always make a release*/
 754:lvgl/src/core/lv_indev.c ****     if(data->state == LV_INDEV_STATE_PRESSED) {
 755:lvgl/src/core/lv_indev.c ****         if(i->proc.types.pointer.last_point.x != x ||
 756:lvgl/src/core/lv_indev.c ****            i->proc.types.pointer.last_point.y != y) {
 757:lvgl/src/core/lv_indev.c ****             indev_proc_release(&i->proc);
 758:lvgl/src/core/lv_indev.c ****         }
 759:lvgl/src/core/lv_indev.c ****     }
 760:lvgl/src/core/lv_indev.c **** 
 761:lvgl/src/core/lv_indev.c ****     if(indev_reset_check(&i->proc)) return;
 762:lvgl/src/core/lv_indev.c **** 
 763:lvgl/src/core/lv_indev.c ****     /*Save the new points*/
 764:lvgl/src/core/lv_indev.c ****     i->proc.types.pointer.act_point.x = x;
 765:lvgl/src/core/lv_indev.c ****     i->proc.types.pointer.act_point.y = y;
 766:lvgl/src/core/lv_indev.c **** 
 767:lvgl/src/core/lv_indev.c ****     if(data->state == LV_INDEV_STATE_PRESSED) indev_proc_press(&i->proc);
 768:lvgl/src/core/lv_indev.c ****     else indev_proc_release(&i->proc);
 769:lvgl/src/core/lv_indev.c **** 
 770:lvgl/src/core/lv_indev.c ****     if(indev_reset_check(&i->proc)) return;
 771:lvgl/src/core/lv_indev.c **** 
 772:lvgl/src/core/lv_indev.c ****     i->proc.types.pointer.last_point.x = i->proc.types.pointer.act_point.x;
ARM GAS  C:\usertemp\ccMJcN2s.s 			page 15


 773:lvgl/src/core/lv_indev.c ****     i->proc.types.pointer.last_point.y = i->proc.types.pointer.act_point.y;
 774:lvgl/src/core/lv_indev.c **** }
 775:lvgl/src/core/lv_indev.c **** 
 776:lvgl/src/core/lv_indev.c **** /**
 777:lvgl/src/core/lv_indev.c ****  * Process the pressed state of LV_INDEV_TYPE_POINTER input devices
 778:lvgl/src/core/lv_indev.c ****  * @param indev pointer to an input device 'proc'
 779:lvgl/src/core/lv_indev.c ****  * @return LV_RES_OK: no indev reset required; LV_RES_INV: indev reset is required
 780:lvgl/src/core/lv_indev.c ****  */
 781:lvgl/src/core/lv_indev.c **** static void indev_proc_press(_lv_indev_proc_t * proc)
 782:lvgl/src/core/lv_indev.c **** {
 783:lvgl/src/core/lv_indev.c ****     LV_LOG_INFO("pressed at x:%d y:%d", proc->types.pointer.act_point.x, proc->types.pointer.act_po
 784:lvgl/src/core/lv_indev.c ****     indev_obj_act = proc->types.pointer.act_obj;
 785:lvgl/src/core/lv_indev.c **** 
 786:lvgl/src/core/lv_indev.c ****     if(proc->wait_until_release != 0) return;
 787:lvgl/src/core/lv_indev.c **** 
 788:lvgl/src/core/lv_indev.c ****     lv_disp_t * disp = indev_act->driver->disp;
 789:lvgl/src/core/lv_indev.c ****     bool new_obj_searched = false;
 790:lvgl/src/core/lv_indev.c **** 
 791:lvgl/src/core/lv_indev.c ****     /*If there is no last object then search*/
 792:lvgl/src/core/lv_indev.c ****     if(indev_obj_act == NULL) {
 793:lvgl/src/core/lv_indev.c ****         indev_obj_act = lv_indev_search_obj(lv_disp_get_layer_sys(disp), &proc->types.pointer.act_p
 794:lvgl/src/core/lv_indev.c ****         if(indev_obj_act == NULL) indev_obj_act = lv_indev_search_obj(lv_disp_get_layer_top(disp),
 795:lvgl/src/core/lv_indev.c ****                                                                           &proc->types.pointer.act_
 796:lvgl/src/core/lv_indev.c ****         if(indev_obj_act == NULL) indev_obj_act = lv_indev_search_obj(lv_disp_get_scr_act(disp),
 797:lvgl/src/core/lv_indev.c ****                                                                           &proc->types.pointer.act_
 798:lvgl/src/core/lv_indev.c ****         new_obj_searched = true;
 799:lvgl/src/core/lv_indev.c ****     }
 800:lvgl/src/core/lv_indev.c ****     /*If there is last object but it is not scrolled and not protected also search*/
 801:lvgl/src/core/lv_indev.c ****     else if(proc->types.pointer.scroll_obj == NULL &&
 802:lvgl/src/core/lv_indev.c ****             lv_obj_has_flag(indev_obj_act, LV_OBJ_FLAG_PRESS_LOCK) == false) {
 803:lvgl/src/core/lv_indev.c ****         indev_obj_act = lv_indev_search_obj(lv_disp_get_layer_sys(disp), &proc->types.pointer.act_p
 804:lvgl/src/core/lv_indev.c ****         if(indev_obj_act == NULL) indev_obj_act = lv_indev_search_obj(lv_disp_get_layer_top(disp),
 805:lvgl/src/core/lv_indev.c ****                                                                           &proc->types.pointer.act_
 806:lvgl/src/core/lv_indev.c ****         if(indev_obj_act == NULL) indev_obj_act = lv_indev_search_obj(lv_disp_get_scr_act(disp),
 807:lvgl/src/core/lv_indev.c ****                                                                           &proc->types.pointer.act_
 808:lvgl/src/core/lv_indev.c ****         new_obj_searched = true;
 809:lvgl/src/core/lv_indev.c ****     }
 810:lvgl/src/core/lv_indev.c **** 
 811:lvgl/src/core/lv_indev.c ****     /*The last object might have scroll throw. Stop it manually*/
 812:lvgl/src/core/lv_indev.c ****     if(new_obj_searched && proc->types.pointer.last_obj) {
 813:lvgl/src/core/lv_indev.c ****         proc->types.pointer.scroll_throw_vect.x = 0;
 814:lvgl/src/core/lv_indev.c ****         proc->types.pointer.scroll_throw_vect.y = 0;
 815:lvgl/src/core/lv_indev.c ****         _lv_indev_scroll_throw_handler(proc);
 816:lvgl/src/core/lv_indev.c ****         if(indev_reset_check(proc)) return;
 817:lvgl/src/core/lv_indev.c ****     }
 818:lvgl/src/core/lv_indev.c **** 
 819:lvgl/src/core/lv_indev.c ****     /*If a new object was found reset some variables and send a pressed Call the ancestor's event h
 820:lvgl/src/core/lv_indev.c ****     if(indev_obj_act != proc->types.pointer.act_obj) {
 821:lvgl/src/core/lv_indev.c ****         proc->types.pointer.last_point.x = proc->types.pointer.act_point.x;
 822:lvgl/src/core/lv_indev.c ****         proc->types.pointer.last_point.y = proc->types.pointer.act_point.y;
 823:lvgl/src/core/lv_indev.c **** 
 824:lvgl/src/core/lv_indev.c ****         /*If a new object found the previous was lost, so send a Call the ancestor's event handler*
 825:lvgl/src/core/lv_indev.c ****         if(proc->types.pointer.act_obj != NULL) {
 826:lvgl/src/core/lv_indev.c ****             /*Save the obj because in special cases `act_obj` can change in the Call the ancestor's
 827:lvgl/src/core/lv_indev.c ****             lv_obj_t * last_obj = proc->types.pointer.act_obj;
 828:lvgl/src/core/lv_indev.c **** 
 829:lvgl/src/core/lv_indev.c ****             lv_event_send(last_obj, LV_EVENT_PRESS_LOST, indev_act);
ARM GAS  C:\usertemp\ccMJcN2s.s 			page 16


 830:lvgl/src/core/lv_indev.c ****             if(indev_reset_check(proc)) return;
 831:lvgl/src/core/lv_indev.c ****         }
 832:lvgl/src/core/lv_indev.c **** 
 833:lvgl/src/core/lv_indev.c ****         proc->types.pointer.act_obj  = indev_obj_act; /*Save the pressed object*/
 834:lvgl/src/core/lv_indev.c ****         proc->types.pointer.last_obj = indev_obj_act;
 835:lvgl/src/core/lv_indev.c **** 
 836:lvgl/src/core/lv_indev.c ****         if(indev_obj_act != NULL) {
 837:lvgl/src/core/lv_indev.c ****             /*Save the time when the obj pressed to count long press time.*/
 838:lvgl/src/core/lv_indev.c ****             proc->pr_timestamp                 = lv_tick_get();
 839:lvgl/src/core/lv_indev.c ****             proc->long_pr_sent                 = 0;
 840:lvgl/src/core/lv_indev.c ****             proc->types.pointer.scroll_sum.x     = 0;
 841:lvgl/src/core/lv_indev.c ****             proc->types.pointer.scroll_sum.y     = 0;
 842:lvgl/src/core/lv_indev.c ****             proc->types.pointer.scroll_dir = LV_DIR_NONE;
 843:lvgl/src/core/lv_indev.c ****             proc->types.pointer.gesture_dir = LV_DIR_NONE;
 844:lvgl/src/core/lv_indev.c ****             proc->types.pointer.gesture_sent   = 0;
 845:lvgl/src/core/lv_indev.c ****             proc->types.pointer.gesture_sum.x  = 0;
 846:lvgl/src/core/lv_indev.c ****             proc->types.pointer.gesture_sum.y  = 0;
 847:lvgl/src/core/lv_indev.c ****             proc->types.pointer.vect.x         = 0;
 848:lvgl/src/core/lv_indev.c ****             proc->types.pointer.vect.y         = 0;
 849:lvgl/src/core/lv_indev.c **** 
 850:lvgl/src/core/lv_indev.c ****             /*Call the ancestor's event handler about the press*/
 851:lvgl/src/core/lv_indev.c ****             lv_event_send(indev_obj_act, LV_EVENT_PRESSED, indev_act);
 852:lvgl/src/core/lv_indev.c ****             if(indev_reset_check(proc)) return;
 853:lvgl/src/core/lv_indev.c **** 
 854:lvgl/src/core/lv_indev.c ****             if(indev_act->proc.wait_until_release) return;
 855:lvgl/src/core/lv_indev.c **** 
 856:lvgl/src/core/lv_indev.c ****             /*Handle focus*/
 857:lvgl/src/core/lv_indev.c ****             indev_click_focus(&indev_act->proc);
 858:lvgl/src/core/lv_indev.c ****             if(indev_reset_check(proc)) return;
 859:lvgl/src/core/lv_indev.c **** 
 860:lvgl/src/core/lv_indev.c ****         }
 861:lvgl/src/core/lv_indev.c ****     }
 862:lvgl/src/core/lv_indev.c **** 
 863:lvgl/src/core/lv_indev.c ****     /*Calculate the vector and apply a low pass filter: new value = 0.5 * old_value + 0.5 * new_val
 864:lvgl/src/core/lv_indev.c ****     proc->types.pointer.vect.x = proc->types.pointer.act_point.x - proc->types.pointer.last_point.x
 865:lvgl/src/core/lv_indev.c ****     proc->types.pointer.vect.y = proc->types.pointer.act_point.y - proc->types.pointer.last_point.y
 866:lvgl/src/core/lv_indev.c **** 
 867:lvgl/src/core/lv_indev.c ****     proc->types.pointer.scroll_throw_vect.x = (proc->types.pointer.scroll_throw_vect.x * 4) >> 3;
 868:lvgl/src/core/lv_indev.c ****     proc->types.pointer.scroll_throw_vect.y = (proc->types.pointer.scroll_throw_vect.y * 4) >> 3;
 869:lvgl/src/core/lv_indev.c **** 
 870:lvgl/src/core/lv_indev.c ****     proc->types.pointer.scroll_throw_vect.x += (proc->types.pointer.vect.x * 4) >> 3;
 871:lvgl/src/core/lv_indev.c ****     proc->types.pointer.scroll_throw_vect.y += (proc->types.pointer.vect.y * 4) >> 3;
 872:lvgl/src/core/lv_indev.c **** 
 873:lvgl/src/core/lv_indev.c ****     proc->types.pointer.scroll_throw_vect_ori = proc->types.pointer.scroll_throw_vect;
 874:lvgl/src/core/lv_indev.c **** 
 875:lvgl/src/core/lv_indev.c ****     if(indev_obj_act) {
 876:lvgl/src/core/lv_indev.c ****         lv_event_send(indev_obj_act, LV_EVENT_PRESSING, indev_act);
 877:lvgl/src/core/lv_indev.c ****         if(indev_reset_check(proc)) return;
 878:lvgl/src/core/lv_indev.c **** 
 879:lvgl/src/core/lv_indev.c ****         if(indev_act->proc.wait_until_release) return;
 880:lvgl/src/core/lv_indev.c **** 
 881:lvgl/src/core/lv_indev.c ****         _lv_indev_scroll_handler(proc);
 882:lvgl/src/core/lv_indev.c ****         if(indev_reset_check(proc)) return;
 883:lvgl/src/core/lv_indev.c ****         indev_gesture(proc);
 884:lvgl/src/core/lv_indev.c ****         if(indev_reset_check(proc)) return;
 885:lvgl/src/core/lv_indev.c **** 
 886:lvgl/src/core/lv_indev.c ****         /*If there is no scrolling then check for long press time*/
ARM GAS  C:\usertemp\ccMJcN2s.s 			page 17


 887:lvgl/src/core/lv_indev.c ****         if(proc->types.pointer.scroll_obj == NULL && proc->long_pr_sent == 0) {
 888:lvgl/src/core/lv_indev.c ****             /*Call the ancestor's event handler about the long press if enough time elapsed*/
 889:lvgl/src/core/lv_indev.c ****             if(lv_tick_elaps(proc->pr_timestamp) > indev_act->driver->long_press_time) {
 890:lvgl/src/core/lv_indev.c ****                 lv_event_send(indev_obj_act, LV_EVENT_LONG_PRESSED, indev_act);
 891:lvgl/src/core/lv_indev.c ****                 if(indev_reset_check(proc)) return;
 892:lvgl/src/core/lv_indev.c **** 
 893:lvgl/src/core/lv_indev.c ****                 /*Mark the Call the ancestor's event handler sending to do not send it again*/
 894:lvgl/src/core/lv_indev.c ****                 proc->long_pr_sent = 1;
 895:lvgl/src/core/lv_indev.c **** 
 896:lvgl/src/core/lv_indev.c ****                 /*Save the long press time stamp for the long press repeat handler*/
 897:lvgl/src/core/lv_indev.c ****                 proc->longpr_rep_timestamp = lv_tick_get();
 898:lvgl/src/core/lv_indev.c ****             }
 899:lvgl/src/core/lv_indev.c ****         }
 900:lvgl/src/core/lv_indev.c **** 
 901:lvgl/src/core/lv_indev.c ****         /*Send long press repeated Call the ancestor's event handler*/
 902:lvgl/src/core/lv_indev.c ****         if(proc->types.pointer.scroll_obj == NULL && proc->long_pr_sent == 1) {
 903:lvgl/src/core/lv_indev.c ****             /*Call the ancestor's event handler about the long press repeat if enough time elapsed*
 904:lvgl/src/core/lv_indev.c ****             if(lv_tick_elaps(proc->longpr_rep_timestamp) > indev_act->driver->long_press_repeat_tim
 905:lvgl/src/core/lv_indev.c ****                 lv_event_send(indev_obj_act, LV_EVENT_LONG_PRESSED_REPEAT, indev_act);
 906:lvgl/src/core/lv_indev.c ****                 if(indev_reset_check(proc)) return;
 907:lvgl/src/core/lv_indev.c ****                 proc->longpr_rep_timestamp = lv_tick_get();
 908:lvgl/src/core/lv_indev.c ****             }
 909:lvgl/src/core/lv_indev.c ****         }
 910:lvgl/src/core/lv_indev.c ****     }
 911:lvgl/src/core/lv_indev.c **** }
 912:lvgl/src/core/lv_indev.c **** 
 913:lvgl/src/core/lv_indev.c **** /**
 914:lvgl/src/core/lv_indev.c ****  * Process the released state of LV_INDEV_TYPE_POINTER input devices
 915:lvgl/src/core/lv_indev.c ****  * @param proc pointer to an input device 'proc'
 916:lvgl/src/core/lv_indev.c ****  */
 917:lvgl/src/core/lv_indev.c **** static void indev_proc_release(_lv_indev_proc_t * proc)
 918:lvgl/src/core/lv_indev.c **** {
 919:lvgl/src/core/lv_indev.c ****     if(proc->wait_until_release != 0) {
 920:lvgl/src/core/lv_indev.c ****         proc->types.pointer.act_obj  = NULL;
 921:lvgl/src/core/lv_indev.c ****         proc->types.pointer.last_obj = NULL;
 922:lvgl/src/core/lv_indev.c ****         proc->pr_timestamp           = 0;
 923:lvgl/src/core/lv_indev.c ****         proc->longpr_rep_timestamp   = 0;
 924:lvgl/src/core/lv_indev.c ****         proc->wait_until_release     = 0;
 925:lvgl/src/core/lv_indev.c ****     }
 926:lvgl/src/core/lv_indev.c ****     indev_obj_act = proc->types.pointer.act_obj;
 927:lvgl/src/core/lv_indev.c ****     lv_obj_t * scroll_obj = proc->types.pointer.scroll_obj;
 928:lvgl/src/core/lv_indev.c **** 
 929:lvgl/src/core/lv_indev.c ****     /*Forget the act obj and send a released Call the ancestor's event handler*/
 930:lvgl/src/core/lv_indev.c ****     if(indev_obj_act) {
 931:lvgl/src/core/lv_indev.c ****         LV_LOG_INFO("released");
 932:lvgl/src/core/lv_indev.c **** 
 933:lvgl/src/core/lv_indev.c ****         /*Send RELEASE Call the ancestor's event handler and event*/
 934:lvgl/src/core/lv_indev.c ****         lv_event_send(indev_obj_act, LV_EVENT_RELEASED, indev_act);
 935:lvgl/src/core/lv_indev.c ****         if(indev_reset_check(proc)) return;
 936:lvgl/src/core/lv_indev.c **** 
 937:lvgl/src/core/lv_indev.c ****         /*Send CLICK if no scrolling*/
 938:lvgl/src/core/lv_indev.c ****         if(scroll_obj == NULL) {
 939:lvgl/src/core/lv_indev.c ****             if(proc->long_pr_sent == 0) {
 940:lvgl/src/core/lv_indev.c ****                 lv_event_send(indev_obj_act, LV_EVENT_SHORT_CLICKED, indev_act);
 941:lvgl/src/core/lv_indev.c ****                 if(indev_reset_check(proc)) return;
 942:lvgl/src/core/lv_indev.c ****             }
 943:lvgl/src/core/lv_indev.c **** 
ARM GAS  C:\usertemp\ccMJcN2s.s 			page 18


 944:lvgl/src/core/lv_indev.c ****             lv_event_send(indev_obj_act, LV_EVENT_CLICKED, indev_act);
 945:lvgl/src/core/lv_indev.c ****             if(indev_reset_check(proc)) return;
 946:lvgl/src/core/lv_indev.c ****         }
 947:lvgl/src/core/lv_indev.c **** 
 948:lvgl/src/core/lv_indev.c ****         proc->types.pointer.act_obj = NULL;
 949:lvgl/src/core/lv_indev.c ****         proc->pr_timestamp          = 0;
 950:lvgl/src/core/lv_indev.c ****         proc->longpr_rep_timestamp  = 0;
 951:lvgl/src/core/lv_indev.c **** 
 952:lvgl/src/core/lv_indev.c ****     }
 953:lvgl/src/core/lv_indev.c **** 
 954:lvgl/src/core/lv_indev.c ****     /*The reset can be set in the Call the ancestor's event handler function.
 955:lvgl/src/core/lv_indev.c ****      * In case of reset query ignore the remaining parts.*/
 956:lvgl/src/core/lv_indev.c ****     if(scroll_obj) {
 957:lvgl/src/core/lv_indev.c ****         _lv_indev_scroll_throw_handler(proc);
 958:lvgl/src/core/lv_indev.c ****         if(indev_reset_check(proc)) return;
 959:lvgl/src/core/lv_indev.c ****     }
 960:lvgl/src/core/lv_indev.c **** }
 961:lvgl/src/core/lv_indev.c **** 
 962:lvgl/src/core/lv_indev.c **** /**
 963:lvgl/src/core/lv_indev.c ****  * Process a new point from LV_INDEV_TYPE_BUTTON input device
 964:lvgl/src/core/lv_indev.c ****  * @param i pointer to an input device
 965:lvgl/src/core/lv_indev.c ****  * @param data pointer to the data read from the input device
 966:lvgl/src/core/lv_indev.c ****  * Reset input device if a reset query has been sent to it
 967:lvgl/src/core/lv_indev.c ****  * @param indev pointer to an input device
 968:lvgl/src/core/lv_indev.c ****  */
 969:lvgl/src/core/lv_indev.c **** static void indev_proc_reset_query_handler(lv_indev_t * indev)
 970:lvgl/src/core/lv_indev.c **** {
  28              		.loc 1 970 1 view -0
  29              		.cfi_startproc
  30              		@ args = 0, pretend = 0, frame = 0
  31              		@ frame_needed = 0, uses_anonymous_args = 0
  32              		@ link register save eliminated.
 971:lvgl/src/core/lv_indev.c ****     if(indev->proc.reset_query) {
  33              		.loc 1 971 5 view .LVU1
  34              		.loc 1 971 8 is_stmt 0 view .LVU2
  35 0000 4379     		ldrb	r3, [r0, #5]	@ zero_extendqisi2
  36              		.loc 1 971 7 view .LVU3
  37 0002 13F0020F 		tst	r3, #2
  38 0006 1BD0     		beq	.L1
 972:lvgl/src/core/lv_indev.c ****         indev->proc.types.pointer.act_obj           = NULL;
  39              		.loc 1 972 9 is_stmt 1 view .LVU4
  40              		.loc 1 972 53 is_stmt 0 view .LVU5
  41 0008 0023     		movs	r3, #0
  42 000a 4362     		str	r3, [r0, #36]
 973:lvgl/src/core/lv_indev.c ****         indev->proc.types.pointer.last_obj          = NULL;
  43              		.loc 1 973 9 is_stmt 1 view .LVU6
  44              		.loc 1 973 53 is_stmt 0 view .LVU7
  45 000c 8362     		str	r3, [r0, #40]
 974:lvgl/src/core/lv_indev.c ****         indev->proc.types.pointer.scroll_obj          = NULL;
  46              		.loc 1 974 9 is_stmt 1 view .LVU8
  47              		.loc 1 974 55 is_stmt 0 view .LVU9
  48 000e C362     		str	r3, [r0, #44]
 975:lvgl/src/core/lv_indev.c ****         indev->proc.long_pr_sent                    = 0;
  49              		.loc 1 975 9 is_stmt 1 view .LVU10
  50              		.loc 1 975 53 is_stmt 0 view .LVU11
  51 0010 4279     		ldrb	r2, [r0, #5]	@ zero_extendqisi2
  52 0012 63F30002 		bfi	r2, r3, #0, #1
ARM GAS  C:\usertemp\ccMJcN2s.s 			page 19


  53 0016 4271     		strb	r2, [r0, #5]
 976:lvgl/src/core/lv_indev.c ****         indev->proc.pr_timestamp                    = 0;
  54              		.loc 1 976 9 is_stmt 1 view .LVU12
  55              		.loc 1 976 53 is_stmt 0 view .LVU13
  56 0018 4364     		str	r3, [r0, #68]
 977:lvgl/src/core/lv_indev.c ****         indev->proc.longpr_rep_timestamp            = 0;
  57              		.loc 1 977 9 is_stmt 1 view .LVU14
  58              		.loc 1 977 53 is_stmt 0 view .LVU15
  59 001a 8364     		str	r3, [r0, #72]
 978:lvgl/src/core/lv_indev.c ****         indev->proc.types.pointer.scroll_sum.x        = 0;
  60              		.loc 1 978 9 is_stmt 1 view .LVU16
  61              		.loc 1 978 55 is_stmt 0 view .LVU17
  62 001c 0383     		strh	r3, [r0, #24]	@ movhi
 979:lvgl/src/core/lv_indev.c ****         indev->proc.types.pointer.scroll_sum.y        = 0;
  63              		.loc 1 979 9 is_stmt 1 view .LVU18
  64              		.loc 1 979 55 is_stmt 0 view .LVU19
  65 001e 4383     		strh	r3, [r0, #26]	@ movhi
 980:lvgl/src/core/lv_indev.c ****         indev->proc.types.pointer.scroll_dir = LV_DIR_NONE;
  66              		.loc 1 980 9 is_stmt 1 view .LVU20
  67              		.loc 1 980 46 is_stmt 0 view .LVU21
  68 0020 90F84020 		ldrb	r2, [r0, #64]	@ zero_extendqisi2
  69 0024 63F30302 		bfi	r2, r3, #0, #4
  70 0028 80F84020 		strb	r2, [r0, #64]
 981:lvgl/src/core/lv_indev.c ****         indev->proc.types.pointer.scroll_throw_vect.x = 0;
  71              		.loc 1 981 9 is_stmt 1 view .LVU22
  72              		.loc 1 981 55 is_stmt 0 view .LVU23
  73 002c 8383     		strh	r3, [r0, #28]	@ movhi
 982:lvgl/src/core/lv_indev.c ****         indev->proc.types.pointer.scroll_throw_vect.y = 0;
  74              		.loc 1 982 9 is_stmt 1 view .LVU24
  75              		.loc 1 982 55 is_stmt 0 view .LVU25
  76 002e C383     		strh	r3, [r0, #30]	@ movhi
 983:lvgl/src/core/lv_indev.c ****         indev->proc.types.pointer.gesture_sum.x     = 0;
  77              		.loc 1 983 9 is_stmt 1 view .LVU26
  78              		.loc 1 983 53 is_stmt 0 view .LVU27
  79 0030 8387     		strh	r3, [r0, #60]	@ movhi
 984:lvgl/src/core/lv_indev.c ****         indev->proc.types.pointer.gesture_sum.y     = 0;
  80              		.loc 1 984 9 is_stmt 1 view .LVU28
  81              		.loc 1 984 53 is_stmt 0 view .LVU29
  82 0032 C387     		strh	r3, [r0, #62]	@ movhi
 985:lvgl/src/core/lv_indev.c ****         indev->proc.reset_query                     = 0;
  83              		.loc 1 985 9 is_stmt 1 view .LVU30
  84              		.loc 1 985 53 is_stmt 0 view .LVU31
  85 0034 4279     		ldrb	r2, [r0, #5]	@ zero_extendqisi2
  86 0036 63F34102 		bfi	r2, r3, #1, #1
  87 003a 4271     		strb	r2, [r0, #5]
 986:lvgl/src/core/lv_indev.c ****         indev_obj_act                               = NULL;
  88              		.loc 1 986 9 is_stmt 1 view .LVU32
  89              		.loc 1 986 53 is_stmt 0 view .LVU33
  90 003c 014A     		ldr	r2, .L3
  91 003e 1360     		str	r3, [r2]
  92              	.L1:
 987:lvgl/src/core/lv_indev.c ****     }
 988:lvgl/src/core/lv_indev.c **** }
  93              		.loc 1 988 1 view .LVU34
  94 0040 7047     		bx	lr
  95              	.L4:
  96 0042 00BF     		.align	2
ARM GAS  C:\usertemp\ccMJcN2s.s 			page 20


  97              	.L3:
  98 0044 00000000 		.word	indev_obj_act
  99              		.cfi_endproc
 100              	.LFE187:
 102              		.section	.text.indev_reset_check,"ax",%progbits
 103              		.align	1
 104              		.syntax unified
 105              		.thumb
 106              		.thumb_func
 108              	indev_reset_check:
 109              	.LVL1:
 110              	.LFB190:
 989:lvgl/src/core/lv_indev.c **** 
 990:lvgl/src/core/lv_indev.c **** /**
 991:lvgl/src/core/lv_indev.c ****  * Handle focus/defocus on click for POINTER input devices
 992:lvgl/src/core/lv_indev.c ****  * @param proc pointer to the state of the indev
 993:lvgl/src/core/lv_indev.c ****  */
 994:lvgl/src/core/lv_indev.c **** static void indev_click_focus(_lv_indev_proc_t * proc)
 995:lvgl/src/core/lv_indev.c **** {
 996:lvgl/src/core/lv_indev.c ****     /*Handle click focus*/
 997:lvgl/src/core/lv_indev.c ****     if(lv_obj_has_flag(indev_obj_act, LV_OBJ_FLAG_CLICK_FOCUSABLE) == false ||
 998:lvgl/src/core/lv_indev.c ****        proc->types.pointer.last_pressed == indev_obj_act) {
 999:lvgl/src/core/lv_indev.c ****         return;
1000:lvgl/src/core/lv_indev.c ****     }
1001:lvgl/src/core/lv_indev.c **** 
1002:lvgl/src/core/lv_indev.c ****     lv_group_t * g_act = lv_obj_get_group(indev_obj_act);
1003:lvgl/src/core/lv_indev.c ****     lv_group_t * g_prev = proc->types.pointer.last_pressed ? lv_obj_get_group(proc->types.pointer.l
1004:lvgl/src/core/lv_indev.c **** 
1005:lvgl/src/core/lv_indev.c ****     /*If both the last and act. obj. are in the same group (or have no group)*/
1006:lvgl/src/core/lv_indev.c ****     if(g_act == g_prev) {
1007:lvgl/src/core/lv_indev.c ****         /*The objects are in a group*/
1008:lvgl/src/core/lv_indev.c ****         if(g_act) {
1009:lvgl/src/core/lv_indev.c ****             lv_group_focus_obj(indev_obj_act);
1010:lvgl/src/core/lv_indev.c ****             if(indev_reset_check(proc)) return;
1011:lvgl/src/core/lv_indev.c ****         }
1012:lvgl/src/core/lv_indev.c ****         /*The object are not in group*/
1013:lvgl/src/core/lv_indev.c ****         else {
1014:lvgl/src/core/lv_indev.c ****             if(proc->types.pointer.last_pressed) {
1015:lvgl/src/core/lv_indev.c ****                 lv_event_send(proc->types.pointer.last_pressed, LV_EVENT_DEFOCUSED, indev_act);
1016:lvgl/src/core/lv_indev.c ****                 if(indev_reset_check(proc)) return;
1017:lvgl/src/core/lv_indev.c ****             }
1018:lvgl/src/core/lv_indev.c **** 
1019:lvgl/src/core/lv_indev.c ****             lv_event_send(indev_obj_act, LV_EVENT_FOCUSED, indev_act);
1020:lvgl/src/core/lv_indev.c ****             if(indev_reset_check(proc)) return;
1021:lvgl/src/core/lv_indev.c ****         }
1022:lvgl/src/core/lv_indev.c ****     }
1023:lvgl/src/core/lv_indev.c ****     /*The object are not in the same group (in different groups or one has no group)*/
1024:lvgl/src/core/lv_indev.c ****     else {
1025:lvgl/src/core/lv_indev.c ****         /*If the prev. obj. is not in a group then defocus it.*/
1026:lvgl/src/core/lv_indev.c ****         if(g_prev == NULL && proc->types.pointer.last_pressed) {
1027:lvgl/src/core/lv_indev.c ****             lv_event_send(proc->types.pointer.last_pressed, LV_EVENT_DEFOCUSED, indev_act);
1028:lvgl/src/core/lv_indev.c ****             if(indev_reset_check(proc)) return;
1029:lvgl/src/core/lv_indev.c ****         }
1030:lvgl/src/core/lv_indev.c ****         /*Focus on a non-group object*/
1031:lvgl/src/core/lv_indev.c ****         else {
1032:lvgl/src/core/lv_indev.c ****             if(proc->types.pointer.last_pressed) {
1033:lvgl/src/core/lv_indev.c ****                 /*If the prev. object also wasn't in a group defocus it*/
ARM GAS  C:\usertemp\ccMJcN2s.s 			page 21


1034:lvgl/src/core/lv_indev.c ****                 if(g_prev == NULL) {
1035:lvgl/src/core/lv_indev.c ****                     lv_event_send(proc->types.pointer.last_pressed, LV_EVENT_DEFOCUSED, indev_act);
1036:lvgl/src/core/lv_indev.c ****                     if(indev_reset_check(proc)) return;
1037:lvgl/src/core/lv_indev.c ****                 }
1038:lvgl/src/core/lv_indev.c ****                 /*If the prev. object also was in a group at least "LEAVE" it instead of defocus*/
1039:lvgl/src/core/lv_indev.c ****                 else {
1040:lvgl/src/core/lv_indev.c ****                     lv_event_send(proc->types.pointer.last_pressed, LV_EVENT_LEAVE, indev_act);
1041:lvgl/src/core/lv_indev.c ****                     if(indev_reset_check(proc)) return;
1042:lvgl/src/core/lv_indev.c ****                 }
1043:lvgl/src/core/lv_indev.c ****             }
1044:lvgl/src/core/lv_indev.c ****         }
1045:lvgl/src/core/lv_indev.c **** 
1046:lvgl/src/core/lv_indev.c ****         /*Focus to the act. in its group*/
1047:lvgl/src/core/lv_indev.c ****         if(g_act) {
1048:lvgl/src/core/lv_indev.c ****             lv_group_focus_obj(indev_obj_act);
1049:lvgl/src/core/lv_indev.c ****             if(indev_reset_check(proc)) return;
1050:lvgl/src/core/lv_indev.c ****         }
1051:lvgl/src/core/lv_indev.c ****         else {
1052:lvgl/src/core/lv_indev.c ****             lv_event_send(indev_obj_act, LV_EVENT_FOCUSED, indev_act);
1053:lvgl/src/core/lv_indev.c ****             if(indev_reset_check(proc)) return;
1054:lvgl/src/core/lv_indev.c ****         }
1055:lvgl/src/core/lv_indev.c ****     }
1056:lvgl/src/core/lv_indev.c ****     proc->types.pointer.last_pressed = indev_obj_act;
1057:lvgl/src/core/lv_indev.c **** }
1058:lvgl/src/core/lv_indev.c **** 
1059:lvgl/src/core/lv_indev.c **** /**
1060:lvgl/src/core/lv_indev.c **** * Handle the gesture of indev_proc_p->types.pointer.act_obj
1061:lvgl/src/core/lv_indev.c **** * @param indev pointer to an input device state
1062:lvgl/src/core/lv_indev.c **** */
1063:lvgl/src/core/lv_indev.c **** void indev_gesture(_lv_indev_proc_t * proc)
1064:lvgl/src/core/lv_indev.c **** {
1065:lvgl/src/core/lv_indev.c **** 
1066:lvgl/src/core/lv_indev.c ****     if(proc->types.pointer.scroll_obj) return;
1067:lvgl/src/core/lv_indev.c ****     if(proc->types.pointer.gesture_sent) return;
1068:lvgl/src/core/lv_indev.c **** 
1069:lvgl/src/core/lv_indev.c ****     lv_obj_t * gesture_obj = proc->types.pointer.act_obj;
1070:lvgl/src/core/lv_indev.c **** 
1071:lvgl/src/core/lv_indev.c ****     /*If gesture parent is active check recursively the gesture attribute*/
1072:lvgl/src/core/lv_indev.c ****     while(gesture_obj && lv_obj_has_flag(gesture_obj, LV_OBJ_FLAG_GESTURE_BUBBLE)) {
1073:lvgl/src/core/lv_indev.c ****         gesture_obj = lv_obj_get_parent(gesture_obj);
1074:lvgl/src/core/lv_indev.c ****     }
1075:lvgl/src/core/lv_indev.c **** 
1076:lvgl/src/core/lv_indev.c ****     if(gesture_obj == NULL) return;
1077:lvgl/src/core/lv_indev.c **** 
1078:lvgl/src/core/lv_indev.c ****     if((LV_ABS(proc->types.pointer.vect.x) < indev_act->driver->gesture_min_velocity) &&
1079:lvgl/src/core/lv_indev.c ****        (LV_ABS(proc->types.pointer.vect.y) < indev_act->driver->gesture_min_velocity)) {
1080:lvgl/src/core/lv_indev.c ****         proc->types.pointer.gesture_sum.x = 0;
1081:lvgl/src/core/lv_indev.c ****         proc->types.pointer.gesture_sum.y = 0;
1082:lvgl/src/core/lv_indev.c ****     }
1083:lvgl/src/core/lv_indev.c **** 
1084:lvgl/src/core/lv_indev.c ****     /*Count the movement by gesture*/
1085:lvgl/src/core/lv_indev.c ****     proc->types.pointer.gesture_sum.x += proc->types.pointer.vect.x;
1086:lvgl/src/core/lv_indev.c ****     proc->types.pointer.gesture_sum.y += proc->types.pointer.vect.y;
1087:lvgl/src/core/lv_indev.c **** 
1088:lvgl/src/core/lv_indev.c ****     if((LV_ABS(proc->types.pointer.gesture_sum.x) > indev_act->driver->gesture_limit) ||
1089:lvgl/src/core/lv_indev.c ****        (LV_ABS(proc->types.pointer.gesture_sum.y) > indev_act->driver->gesture_limit)) {
1090:lvgl/src/core/lv_indev.c **** 
ARM GAS  C:\usertemp\ccMJcN2s.s 			page 22


1091:lvgl/src/core/lv_indev.c ****         proc->types.pointer.gesture_sent = 1;
1092:lvgl/src/core/lv_indev.c **** 
1093:lvgl/src/core/lv_indev.c ****         if(LV_ABS(proc->types.pointer.gesture_sum.x) > LV_ABS(proc->types.pointer.gesture_sum.y)) {
1094:lvgl/src/core/lv_indev.c ****             if(proc->types.pointer.gesture_sum.x > 0)
1095:lvgl/src/core/lv_indev.c ****                 proc->types.pointer.gesture_dir = LV_DIR_RIGHT;
1096:lvgl/src/core/lv_indev.c ****             else
1097:lvgl/src/core/lv_indev.c ****                 proc->types.pointer.gesture_dir = LV_DIR_LEFT;
1098:lvgl/src/core/lv_indev.c ****         }
1099:lvgl/src/core/lv_indev.c ****         else {
1100:lvgl/src/core/lv_indev.c ****             if(proc->types.pointer.gesture_sum.y > 0)
1101:lvgl/src/core/lv_indev.c ****                 proc->types.pointer.gesture_dir = LV_DIR_BOTTOM;
1102:lvgl/src/core/lv_indev.c ****             else
1103:lvgl/src/core/lv_indev.c ****                 proc->types.pointer.gesture_dir = LV_DIR_TOP;
1104:lvgl/src/core/lv_indev.c ****         }
1105:lvgl/src/core/lv_indev.c **** 
1106:lvgl/src/core/lv_indev.c ****         lv_event_send(gesture_obj, LV_EVENT_GESTURE, indev_act);
1107:lvgl/src/core/lv_indev.c ****         if(indev_reset_check(proc)) return;
1108:lvgl/src/core/lv_indev.c ****     }
1109:lvgl/src/core/lv_indev.c **** }
1110:lvgl/src/core/lv_indev.c **** 
1111:lvgl/src/core/lv_indev.c **** /**
1112:lvgl/src/core/lv_indev.c ****  * Checks if the reset_query flag has been set. If so, perform necessary global indev cleanup actio
1113:lvgl/src/core/lv_indev.c ****  * @param proc pointer to an input device 'proc'
1114:lvgl/src/core/lv_indev.c ****  * @return true if indev query should be immediately truncated.
1115:lvgl/src/core/lv_indev.c ****  */
1116:lvgl/src/core/lv_indev.c **** static bool indev_reset_check(_lv_indev_proc_t * proc)
1117:lvgl/src/core/lv_indev.c **** {
 111              		.loc 1 1117 1 is_stmt 1 view -0
 112              		.cfi_startproc
 113              		@ args = 0, pretend = 0, frame = 0
 114              		@ frame_needed = 0, uses_anonymous_args = 0
 115              		@ link register save eliminated.
1118:lvgl/src/core/lv_indev.c ****     if(proc->reset_query) {
 116              		.loc 1 1118 5 view .LVU36
 117              		.loc 1 1118 8 is_stmt 0 view .LVU37
 118 0000 4078     		ldrb	r0, [r0, #1]	@ zero_extendqisi2
 119              	.LVL2:
 120              		.loc 1 1118 7 view .LVU38
 121 0002 10F0020F 		tst	r0, #2
 122 0006 02D0     		beq	.L6
1119:lvgl/src/core/lv_indev.c ****         indev_obj_act = NULL;
 123              		.loc 1 1119 9 is_stmt 1 view .LVU39
 124              		.loc 1 1119 23 is_stmt 0 view .LVU40
 125 0008 024B     		ldr	r3, .L7
 126 000a 0022     		movs	r2, #0
 127 000c 1A60     		str	r2, [r3]
 128              	.L6:
1120:lvgl/src/core/lv_indev.c ****     }
1121:lvgl/src/core/lv_indev.c **** 
1122:lvgl/src/core/lv_indev.c ****     return proc->reset_query ? true : false;
 129              		.loc 1 1122 5 is_stmt 1 view .LVU41
1123:lvgl/src/core/lv_indev.c **** }
 130              		.loc 1 1123 1 is_stmt 0 view .LVU42
 131 000e C0F34000 		ubfx	r0, r0, #1, #1
 132 0012 7047     		bx	lr
 133              	.L8:
 134              		.align	2
ARM GAS  C:\usertemp\ccMJcN2s.s 			page 23


 135              	.L7:
 136 0014 00000000 		.word	indev_obj_act
 137              		.cfi_endproc
 138              	.LFE190:
 140              		.section	.text.indev_proc_release,"ax",%progbits
 141              		.align	1
 142              		.syntax unified
 143              		.thumb
 144              		.thumb_func
 146              	indev_proc_release:
 147              	.LVL3:
 148              	.LFB186:
 918:lvgl/src/core/lv_indev.c ****     if(proc->wait_until_release != 0) {
 149              		.loc 1 918 1 is_stmt 1 view -0
 150              		.cfi_startproc
 151              		@ args = 0, pretend = 0, frame = 0
 152              		@ frame_needed = 0, uses_anonymous_args = 0
 918:lvgl/src/core/lv_indev.c ****     if(proc->wait_until_release != 0) {
 153              		.loc 1 918 1 is_stmt 0 view .LVU44
 154 0000 38B5     		push	{r3, r4, r5, lr}
 155              	.LCFI0:
 156              		.cfi_def_cfa_offset 16
 157              		.cfi_offset 3, -16
 158              		.cfi_offset 4, -12
 159              		.cfi_offset 5, -8
 160              		.cfi_offset 14, -4
 161 0002 0446     		mov	r4, r0
 919:lvgl/src/core/lv_indev.c ****         proc->types.pointer.act_obj  = NULL;
 162              		.loc 1 919 5 is_stmt 1 view .LVU45
 919:lvgl/src/core/lv_indev.c ****         proc->types.pointer.act_obj  = NULL;
 163              		.loc 1 919 33 is_stmt 0 view .LVU46
 164 0004 4378     		ldrb	r3, [r0, #1]	@ zero_extendqisi2
 919:lvgl/src/core/lv_indev.c ****         proc->types.pointer.act_obj  = NULL;
 165              		.loc 1 919 7 view .LVU47
 166 0006 13F0080F 		tst	r3, #8
 167 000a 08D0     		beq	.L10
 920:lvgl/src/core/lv_indev.c ****         proc->types.pointer.last_obj = NULL;
 168              		.loc 1 920 9 is_stmt 1 view .LVU48
 920:lvgl/src/core/lv_indev.c ****         proc->types.pointer.last_obj = NULL;
 169              		.loc 1 920 38 is_stmt 0 view .LVU49
 170 000c 0023     		movs	r3, #0
 171 000e 0362     		str	r3, [r0, #32]
 921:lvgl/src/core/lv_indev.c ****         proc->pr_timestamp           = 0;
 172              		.loc 1 921 9 is_stmt 1 view .LVU50
 921:lvgl/src/core/lv_indev.c ****         proc->pr_timestamp           = 0;
 173              		.loc 1 921 38 is_stmt 0 view .LVU51
 174 0010 4362     		str	r3, [r0, #36]
 922:lvgl/src/core/lv_indev.c ****         proc->longpr_rep_timestamp   = 0;
 175              		.loc 1 922 9 is_stmt 1 view .LVU52
 922:lvgl/src/core/lv_indev.c ****         proc->longpr_rep_timestamp   = 0;
 176              		.loc 1 922 38 is_stmt 0 view .LVU53
 177 0012 0364     		str	r3, [r0, #64]
 923:lvgl/src/core/lv_indev.c ****         proc->wait_until_release     = 0;
 178              		.loc 1 923 9 is_stmt 1 view .LVU54
 923:lvgl/src/core/lv_indev.c ****         proc->wait_until_release     = 0;
 179              		.loc 1 923 38 is_stmt 0 view .LVU55
 180 0014 4364     		str	r3, [r0, #68]
ARM GAS  C:\usertemp\ccMJcN2s.s 			page 24


 924:lvgl/src/core/lv_indev.c ****     }
 181              		.loc 1 924 9 is_stmt 1 view .LVU56
 924:lvgl/src/core/lv_indev.c ****     }
 182              		.loc 1 924 38 is_stmt 0 view .LVU57
 183 0016 4278     		ldrb	r2, [r0, #1]	@ zero_extendqisi2
 184 0018 63F3C302 		bfi	r2, r3, #3, #1
 185 001c 4270     		strb	r2, [r0, #1]
 186              	.L10:
 926:lvgl/src/core/lv_indev.c ****     lv_obj_t * scroll_obj = proc->types.pointer.scroll_obj;
 187              		.loc 1 926 5 is_stmt 1 view .LVU58
 926:lvgl/src/core/lv_indev.c ****     lv_obj_t * scroll_obj = proc->types.pointer.scroll_obj;
 188              		.loc 1 926 40 is_stmt 0 view .LVU59
 189 001e 206A     		ldr	r0, [r4, #32]
 190              	.LVL4:
 926:lvgl/src/core/lv_indev.c ****     lv_obj_t * scroll_obj = proc->types.pointer.scroll_obj;
 191              		.loc 1 926 19 view .LVU60
 192 0020 1B4B     		ldr	r3, .L17
 193 0022 1860     		str	r0, [r3]
 927:lvgl/src/core/lv_indev.c **** 
 194              		.loc 1 927 5 is_stmt 1 view .LVU61
 927:lvgl/src/core/lv_indev.c **** 
 195              		.loc 1 927 16 is_stmt 0 view .LVU62
 196 0024 A56A     		ldr	r5, [r4, #40]
 197              	.LVL5:
 930:lvgl/src/core/lv_indev.c ****         LV_LOG_INFO("released");
 198              		.loc 1 930 5 is_stmt 1 view .LVU63
 930:lvgl/src/core/lv_indev.c ****         LV_LOG_INFO("released");
 199              		.loc 1 930 7 is_stmt 0 view .LVU64
 200 0026 68B1     		cbz	r0, .L11
 931:lvgl/src/core/lv_indev.c **** 
 201              		.loc 1 931 9 is_stmt 1 view .LVU65
 931:lvgl/src/core/lv_indev.c **** 
 202              		.loc 1 931 9 view .LVU66
 931:lvgl/src/core/lv_indev.c **** 
 203              		.loc 1 931 9 view .LVU67
 934:lvgl/src/core/lv_indev.c ****         if(indev_reset_check(proc)) return;
 204              		.loc 1 934 9 view .LVU68
 205 0028 1A4B     		ldr	r3, .L17+4
 206 002a 1A68     		ldr	r2, [r3]
 207 002c 0821     		movs	r1, #8
 208 002e FFF7FEFF 		bl	lv_event_send
 209              	.LVL6:
 935:lvgl/src/core/lv_indev.c **** 
 210              		.loc 1 935 9 view .LVU69
 935:lvgl/src/core/lv_indev.c **** 
 211              		.loc 1 935 12 is_stmt 0 view .LVU70
 212 0032 2046     		mov	r0, r4
 213 0034 FFF7FEFF 		bl	indev_reset_check
 214              	.LVL7:
 935:lvgl/src/core/lv_indev.c **** 
 215              		.loc 1 935 11 discriminator 1 view .LVU71
 216 0038 58B9     		cbnz	r0, .L9
 938:lvgl/src/core/lv_indev.c ****             if(proc->long_pr_sent == 0) {
 217              		.loc 1 938 9 is_stmt 1 view .LVU72
 938:lvgl/src/core/lv_indev.c ****             if(proc->long_pr_sent == 0) {
 218              		.loc 1 938 11 is_stmt 0 view .LVU73
 219 003a 5DB1     		cbz	r5, .L16
ARM GAS  C:\usertemp\ccMJcN2s.s 			page 25


 220              	.L13:
 948:lvgl/src/core/lv_indev.c ****         proc->pr_timestamp          = 0;
 221              		.loc 1 948 9 is_stmt 1 view .LVU74
 948:lvgl/src/core/lv_indev.c ****         proc->pr_timestamp          = 0;
 222              		.loc 1 948 37 is_stmt 0 view .LVU75
 223 003c 0023     		movs	r3, #0
 224 003e 2362     		str	r3, [r4, #32]
 949:lvgl/src/core/lv_indev.c ****         proc->longpr_rep_timestamp  = 0;
 225              		.loc 1 949 9 is_stmt 1 view .LVU76
 949:lvgl/src/core/lv_indev.c ****         proc->longpr_rep_timestamp  = 0;
 226              		.loc 1 949 37 is_stmt 0 view .LVU77
 227 0040 2364     		str	r3, [r4, #64]
 950:lvgl/src/core/lv_indev.c **** 
 228              		.loc 1 950 9 is_stmt 1 view .LVU78
 950:lvgl/src/core/lv_indev.c **** 
 229              		.loc 1 950 37 is_stmt 0 view .LVU79
 230 0042 6364     		str	r3, [r4, #68]
 231              	.L11:
 956:lvgl/src/core/lv_indev.c ****         _lv_indev_scroll_throw_handler(proc);
 232              		.loc 1 956 5 is_stmt 1 view .LVU80
 956:lvgl/src/core/lv_indev.c ****         _lv_indev_scroll_throw_handler(proc);
 233              		.loc 1 956 7 is_stmt 0 view .LVU81
 234 0044 2DB1     		cbz	r5, .L9
 957:lvgl/src/core/lv_indev.c ****         if(indev_reset_check(proc)) return;
 235              		.loc 1 957 9 is_stmt 1 view .LVU82
 236 0046 2046     		mov	r0, r4
 237 0048 FFF7FEFF 		bl	_lv_indev_scroll_throw_handler
 238              	.LVL8:
 958:lvgl/src/core/lv_indev.c ****     }
 239              		.loc 1 958 9 view .LVU83
 958:lvgl/src/core/lv_indev.c ****     }
 240              		.loc 1 958 12 is_stmt 0 view .LVU84
 241 004c 2046     		mov	r0, r4
 242 004e FFF7FEFF 		bl	indev_reset_check
 243              	.LVL9:
 958:lvgl/src/core/lv_indev.c ****     }
 244              		.loc 1 958 37 is_stmt 1 discriminator 1 view .LVU85
 245              	.L9:
 960:lvgl/src/core/lv_indev.c **** 
 246              		.loc 1 960 1 is_stmt 0 view .LVU86
 247 0052 38BD     		pop	{r3, r4, r5, pc}
 248              	.LVL10:
 249              	.L16:
 939:lvgl/src/core/lv_indev.c ****                 lv_event_send(indev_obj_act, LV_EVENT_SHORT_CLICKED, indev_act);
 250              		.loc 1 939 13 is_stmt 1 view .LVU87
 939:lvgl/src/core/lv_indev.c ****                 lv_event_send(indev_obj_act, LV_EVENT_SHORT_CLICKED, indev_act);
 251              		.loc 1 939 35 is_stmt 0 view .LVU88
 252 0054 6378     		ldrb	r3, [r4, #1]	@ zero_extendqisi2
 939:lvgl/src/core/lv_indev.c ****                 lv_event_send(indev_obj_act, LV_EVENT_SHORT_CLICKED, indev_act);
 253              		.loc 1 939 15 view .LVU89
 254 0056 13F0010F 		tst	r3, #1
 255 005a 0BD1     		bne	.L14
 940:lvgl/src/core/lv_indev.c ****                 if(indev_reset_check(proc)) return;
 256              		.loc 1 940 17 is_stmt 1 view .LVU90
 257 005c 0D4B     		ldr	r3, .L17+4
 258 005e 1A68     		ldr	r2, [r3]
 259 0060 0421     		movs	r1, #4
ARM GAS  C:\usertemp\ccMJcN2s.s 			page 26


 260 0062 0B4B     		ldr	r3, .L17
 261 0064 1868     		ldr	r0, [r3]
 262 0066 FFF7FEFF 		bl	lv_event_send
 263              	.LVL11:
 941:lvgl/src/core/lv_indev.c ****             }
 264              		.loc 1 941 17 view .LVU91
 941:lvgl/src/core/lv_indev.c ****             }
 265              		.loc 1 941 20 is_stmt 0 view .LVU92
 266 006a 2046     		mov	r0, r4
 267 006c FFF7FEFF 		bl	indev_reset_check
 268              	.LVL12:
 941:lvgl/src/core/lv_indev.c ****             }
 269              		.loc 1 941 19 discriminator 1 view .LVU93
 270 0070 0028     		cmp	r0, #0
 271 0072 EED1     		bne	.L9
 272              	.L14:
 944:lvgl/src/core/lv_indev.c ****             if(indev_reset_check(proc)) return;
 273              		.loc 1 944 13 is_stmt 1 view .LVU94
 274 0074 074B     		ldr	r3, .L17+4
 275 0076 1A68     		ldr	r2, [r3]
 276 0078 0721     		movs	r1, #7
 277 007a 054B     		ldr	r3, .L17
 278 007c 1868     		ldr	r0, [r3]
 279 007e FFF7FEFF 		bl	lv_event_send
 280              	.LVL13:
 945:lvgl/src/core/lv_indev.c ****         }
 281              		.loc 1 945 13 view .LVU95
 945:lvgl/src/core/lv_indev.c ****         }
 282              		.loc 1 945 16 is_stmt 0 view .LVU96
 283 0082 2046     		mov	r0, r4
 284 0084 FFF7FEFF 		bl	indev_reset_check
 285              	.LVL14:
 945:lvgl/src/core/lv_indev.c ****         }
 286              		.loc 1 945 15 discriminator 1 view .LVU97
 287 0088 0028     		cmp	r0, #0
 288 008a D7D0     		beq	.L13
 289 008c E1E7     		b	.L9
 290              	.L18:
 291 008e 00BF     		.align	2
 292              	.L17:
 293 0090 00000000 		.word	indev_obj_act
 294 0094 00000000 		.word	indev_act
 295              		.cfi_endproc
 296              	.LFE186:
 298              		.section	.text.indev_click_focus,"ax",%progbits
 299              		.align	1
 300              		.syntax unified
 301              		.thumb
 302              		.thumb_func
 304              	indev_click_focus:
 305              	.LVL15:
 306              	.LFB188:
 995:lvgl/src/core/lv_indev.c ****     /*Handle click focus*/
 307              		.loc 1 995 1 is_stmt 1 view -0
 308              		.cfi_startproc
 309              		@ args = 0, pretend = 0, frame = 0
 310              		@ frame_needed = 0, uses_anonymous_args = 0
ARM GAS  C:\usertemp\ccMJcN2s.s 			page 27


 995:lvgl/src/core/lv_indev.c ****     /*Handle click focus*/
 311              		.loc 1 995 1 is_stmt 0 view .LVU99
 312 0000 38B5     		push	{r3, r4, r5, lr}
 313              	.LCFI1:
 314              		.cfi_def_cfa_offset 16
 315              		.cfi_offset 3, -16
 316              		.cfi_offset 4, -12
 317              		.cfi_offset 5, -8
 318              		.cfi_offset 14, -4
 319 0002 0446     		mov	r4, r0
 997:lvgl/src/core/lv_indev.c ****        proc->types.pointer.last_pressed == indev_obj_act) {
 320              		.loc 1 997 5 is_stmt 1 view .LVU100
 997:lvgl/src/core/lv_indev.c ****        proc->types.pointer.last_pressed == indev_obj_act) {
 321              		.loc 1 997 8 is_stmt 0 view .LVU101
 322 0004 0421     		movs	r1, #4
 323 0006 3E4B     		ldr	r3, .L34
 324 0008 1868     		ldr	r0, [r3]
 325              	.LVL16:
 997:lvgl/src/core/lv_indev.c ****        proc->types.pointer.last_pressed == indev_obj_act) {
 326              		.loc 1 997 8 view .LVU102
 327 000a FFF7FEFF 		bl	lv_obj_has_flag
 328              	.LVL17:
 997:lvgl/src/core/lv_indev.c ****        proc->types.pointer.last_pressed == indev_obj_act) {
 329              		.loc 1 997 7 discriminator 1 view .LVU103
 330 000e 50B3     		cbz	r0, .L19
 998:lvgl/src/core/lv_indev.c ****         return;
 331              		.loc 1 998 27 view .LVU104
 332 0010 E36A     		ldr	r3, [r4, #44]
 998:lvgl/src/core/lv_indev.c ****         return;
 333              		.loc 1 998 41 view .LVU105
 334 0012 3B4A     		ldr	r2, .L34
 335 0014 1068     		ldr	r0, [r2]
 997:lvgl/src/core/lv_indev.c ****        proc->types.pointer.last_pressed == indev_obj_act) {
 336              		.loc 1 997 77 discriminator 1 view .LVU106
 337 0016 8342     		cmp	r3, r0
 338 0018 25D0     		beq	.L19
1002:lvgl/src/core/lv_indev.c ****     lv_group_t * g_prev = proc->types.pointer.last_pressed ? lv_obj_get_group(proc->types.pointer.l
 339              		.loc 1 1002 5 is_stmt 1 view .LVU107
1002:lvgl/src/core/lv_indev.c ****     lv_group_t * g_prev = proc->types.pointer.last_pressed ? lv_obj_get_group(proc->types.pointer.l
 340              		.loc 1 1002 26 is_stmt 0 view .LVU108
 341 001a FFF7FEFF 		bl	lv_obj_get_group
 342              	.LVL18:
 343 001e 0546     		mov	r5, r0
 344              	.LVL19:
1003:lvgl/src/core/lv_indev.c **** 
 345              		.loc 1 1003 5 is_stmt 1 view .LVU109
1003:lvgl/src/core/lv_indev.c **** 
 346              		.loc 1 1003 46 is_stmt 0 view .LVU110
 347 0020 E06A     		ldr	r0, [r4, #44]
 348              	.LVL20:
1003:lvgl/src/core/lv_indev.c **** 
 349              		.loc 1 1003 113 view .LVU111
 350 0022 08B1     		cbz	r0, .L21
1003:lvgl/src/core/lv_indev.c **** 
 351              		.loc 1 1003 62 discriminator 1 view .LVU112
 352 0024 FFF7FEFF 		bl	lv_obj_get_group
 353              	.LVL21:
ARM GAS  C:\usertemp\ccMJcN2s.s 			page 28


 354              	.L21:
1006:lvgl/src/core/lv_indev.c ****         /*The objects are in a group*/
 355              		.loc 1 1006 5 is_stmt 1 view .LVU113
1006:lvgl/src/core/lv_indev.c ****         /*The objects are in a group*/
 356              		.loc 1 1006 7 is_stmt 0 view .LVU114
 357 0028 A842     		cmp	r0, r5
 358 002a 1DD0     		beq	.L31
1026:lvgl/src/core/lv_indev.c ****             lv_event_send(proc->types.pointer.last_pressed, LV_EVENT_DEFOCUSED, indev_act);
 359              		.loc 1 1026 9 is_stmt 1 view .LVU115
1026:lvgl/src/core/lv_indev.c ****             lv_event_send(proc->types.pointer.last_pressed, LV_EVENT_DEFOCUSED, indev_act);
 360              		.loc 1 1026 11 is_stmt 0 view .LVU116
 361 002c 0028     		cmp	r0, #0
 362 002e 3FD0     		beq	.L32
 363              	.L26:
1032:lvgl/src/core/lv_indev.c ****                 /*If the prev. object also wasn't in a group defocus it*/
 364              		.loc 1 1032 13 is_stmt 1 view .LVU117
1032:lvgl/src/core/lv_indev.c ****                 /*If the prev. object also wasn't in a group defocus it*/
 365              		.loc 1 1032 35 is_stmt 0 view .LVU118
 366 0030 E36A     		ldr	r3, [r4, #44]
1032:lvgl/src/core/lv_indev.c ****                 /*If the prev. object also wasn't in a group defocus it*/
 367              		.loc 1 1032 15 view .LVU119
 368 0032 5BB1     		cbz	r3, .L27
1034:lvgl/src/core/lv_indev.c ****                     lv_event_send(proc->types.pointer.last_pressed, LV_EVENT_DEFOCUSED, indev_act);
 369              		.loc 1 1034 17 is_stmt 1 view .LVU120
1034:lvgl/src/core/lv_indev.c ****                     lv_event_send(proc->types.pointer.last_pressed, LV_EVENT_DEFOCUSED, indev_act);
 370              		.loc 1 1034 19 is_stmt 0 view .LVU121
 371 0034 0028     		cmp	r0, #0
 372 0036 4AD0     		beq	.L33
1040:lvgl/src/core/lv_indev.c ****                     if(indev_reset_check(proc)) return;
 373              		.loc 1 1040 21 is_stmt 1 view .LVU122
 374 0038 324A     		ldr	r2, .L34+4
 375 003a 1268     		ldr	r2, [r2]
 376 003c 1021     		movs	r1, #16
 377 003e 1846     		mov	r0, r3
 378              	.LVL22:
1040:lvgl/src/core/lv_indev.c ****                     if(indev_reset_check(proc)) return;
 379              		.loc 1 1040 21 is_stmt 0 view .LVU123
 380 0040 FFF7FEFF 		bl	lv_event_send
 381              	.LVL23:
1041:lvgl/src/core/lv_indev.c ****                 }
 382              		.loc 1 1041 21 is_stmt 1 view .LVU124
1041:lvgl/src/core/lv_indev.c ****                 }
 383              		.loc 1 1041 24 is_stmt 0 view .LVU125
 384 0044 2046     		mov	r0, r4
 385 0046 FFF7FEFF 		bl	indev_reset_check
 386              	.LVL24:
1041:lvgl/src/core/lv_indev.c ****                 }
 387              		.loc 1 1041 23 discriminator 1 view .LVU126
 388 004a 60B9     		cbnz	r0, .L19
 389              	.L27:
1047:lvgl/src/core/lv_indev.c ****             lv_group_focus_obj(indev_obj_act);
 390              		.loc 1 1047 9 is_stmt 1 view .LVU127
1047:lvgl/src/core/lv_indev.c ****             lv_group_focus_obj(indev_obj_act);
 391              		.loc 1 1047 11 is_stmt 0 view .LVU128
 392 004c 002D     		cmp	r5, #0
 393 004e 4AD0     		beq	.L29
1048:lvgl/src/core/lv_indev.c ****             if(indev_reset_check(proc)) return;
ARM GAS  C:\usertemp\ccMJcN2s.s 			page 29


 394              		.loc 1 1048 13 is_stmt 1 view .LVU129
 395 0050 2B4B     		ldr	r3, .L34
 396 0052 1868     		ldr	r0, [r3]
 397 0054 FFF7FEFF 		bl	lv_group_focus_obj
 398              	.LVL25:
1049:lvgl/src/core/lv_indev.c ****         }
 399              		.loc 1 1049 13 view .LVU130
1049:lvgl/src/core/lv_indev.c ****         }
 400              		.loc 1 1049 16 is_stmt 0 view .LVU131
 401 0058 2046     		mov	r0, r4
 402 005a FFF7FEFF 		bl	indev_reset_check
 403              	.LVL26:
1049:lvgl/src/core/lv_indev.c ****         }
 404              		.loc 1 1049 15 discriminator 1 view .LVU132
 405 005e 10B9     		cbnz	r0, .L19
 406              	.L24:
1056:lvgl/src/core/lv_indev.c **** }
 407              		.loc 1 1056 5 is_stmt 1 view .LVU133
1056:lvgl/src/core/lv_indev.c **** }
 408              		.loc 1 1056 38 is_stmt 0 view .LVU134
 409 0060 274B     		ldr	r3, .L34
 410 0062 1B68     		ldr	r3, [r3]
 411 0064 E362     		str	r3, [r4, #44]
 412              	.LVL27:
 413              	.L19:
1057:lvgl/src/core/lv_indev.c **** 
 414              		.loc 1 1057 1 view .LVU135
 415 0066 38BD     		pop	{r3, r4, r5, pc}
 416              	.LVL28:
 417              	.L31:
1008:lvgl/src/core/lv_indev.c ****             lv_group_focus_obj(indev_obj_act);
 418              		.loc 1 1008 9 is_stmt 1 view .LVU136
1008:lvgl/src/core/lv_indev.c ****             lv_group_focus_obj(indev_obj_act);
 419              		.loc 1 1008 11 is_stmt 0 view .LVU137
 420 0068 4DB1     		cbz	r5, .L23
1009:lvgl/src/core/lv_indev.c ****             if(indev_reset_check(proc)) return;
 421              		.loc 1 1009 13 is_stmt 1 view .LVU138
 422 006a 254B     		ldr	r3, .L34
 423 006c 1868     		ldr	r0, [r3]
 424              	.LVL29:
1009:lvgl/src/core/lv_indev.c ****             if(indev_reset_check(proc)) return;
 425              		.loc 1 1009 13 is_stmt 0 view .LVU139
 426 006e FFF7FEFF 		bl	lv_group_focus_obj
 427              	.LVL30:
1010:lvgl/src/core/lv_indev.c ****         }
 428              		.loc 1 1010 13 is_stmt 1 view .LVU140
1010:lvgl/src/core/lv_indev.c ****         }
 429              		.loc 1 1010 16 is_stmt 0 view .LVU141
 430 0072 2046     		mov	r0, r4
 431 0074 FFF7FEFF 		bl	indev_reset_check
 432              	.LVL31:
1010:lvgl/src/core/lv_indev.c ****         }
 433              		.loc 1 1010 15 discriminator 1 view .LVU142
 434 0078 0028     		cmp	r0, #0
 435 007a F1D0     		beq	.L24
 436 007c F3E7     		b	.L19
 437              	.LVL32:
ARM GAS  C:\usertemp\ccMJcN2s.s 			page 30


 438              	.L23:
1014:lvgl/src/core/lv_indev.c ****                 lv_event_send(proc->types.pointer.last_pressed, LV_EVENT_DEFOCUSED, indev_act);
 439              		.loc 1 1014 13 is_stmt 1 view .LVU143
1014:lvgl/src/core/lv_indev.c ****                 lv_event_send(proc->types.pointer.last_pressed, LV_EVENT_DEFOCUSED, indev_act);
 440              		.loc 1 1014 35 is_stmt 0 view .LVU144
 441 007e E06A     		ldr	r0, [r4, #44]
 442              	.LVL33:
1014:lvgl/src/core/lv_indev.c ****                 lv_event_send(proc->types.pointer.last_pressed, LV_EVENT_DEFOCUSED, indev_act);
 443              		.loc 1 1014 15 view .LVU145
 444 0080 48B1     		cbz	r0, .L25
1015:lvgl/src/core/lv_indev.c ****                 if(indev_reset_check(proc)) return;
 445              		.loc 1 1015 17 is_stmt 1 view .LVU146
 446 0082 204B     		ldr	r3, .L34+4
 447 0084 1A68     		ldr	r2, [r3]
 448 0086 0F21     		movs	r1, #15
 449 0088 FFF7FEFF 		bl	lv_event_send
 450              	.LVL34:
1016:lvgl/src/core/lv_indev.c ****             }
 451              		.loc 1 1016 17 view .LVU147
1016:lvgl/src/core/lv_indev.c ****             }
 452              		.loc 1 1016 20 is_stmt 0 view .LVU148
 453 008c 2046     		mov	r0, r4
 454 008e FFF7FEFF 		bl	indev_reset_check
 455              	.LVL35:
1016:lvgl/src/core/lv_indev.c ****             }
 456              		.loc 1 1016 19 discriminator 1 view .LVU149
 457 0092 0028     		cmp	r0, #0
 458 0094 E7D1     		bne	.L19
 459              	.L25:
1019:lvgl/src/core/lv_indev.c ****             if(indev_reset_check(proc)) return;
 460              		.loc 1 1019 13 is_stmt 1 view .LVU150
 461 0096 1B4B     		ldr	r3, .L34+4
 462 0098 1A68     		ldr	r2, [r3]
 463 009a 0E21     		movs	r1, #14
 464 009c 184B     		ldr	r3, .L34
 465 009e 1868     		ldr	r0, [r3]
 466 00a0 FFF7FEFF 		bl	lv_event_send
 467              	.LVL36:
1020:lvgl/src/core/lv_indev.c ****         }
 468              		.loc 1 1020 13 view .LVU151
1020:lvgl/src/core/lv_indev.c ****         }
 469              		.loc 1 1020 16 is_stmt 0 view .LVU152
 470 00a4 2046     		mov	r0, r4
 471 00a6 FFF7FEFF 		bl	indev_reset_check
 472              	.LVL37:
1020:lvgl/src/core/lv_indev.c ****         }
 473              		.loc 1 1020 15 discriminator 1 view .LVU153
 474 00aa 0028     		cmp	r0, #0
 475 00ac D8D0     		beq	.L24
 476 00ae DAE7     		b	.L19
 477              	.LVL38:
 478              	.L32:
1026:lvgl/src/core/lv_indev.c ****             lv_event_send(proc->types.pointer.last_pressed, LV_EVENT_DEFOCUSED, indev_act);
 479              		.loc 1 1026 49 discriminator 1 view .LVU154
 480 00b0 E36A     		ldr	r3, [r4, #44]
1026:lvgl/src/core/lv_indev.c ****             lv_event_send(proc->types.pointer.last_pressed, LV_EVENT_DEFOCUSED, indev_act);
 481              		.loc 1 1026 27 discriminator 1 view .LVU155
ARM GAS  C:\usertemp\ccMJcN2s.s 			page 31


 482 00b2 002B     		cmp	r3, #0
 483 00b4 BCD0     		beq	.L26
1027:lvgl/src/core/lv_indev.c ****             if(indev_reset_check(proc)) return;
 484              		.loc 1 1027 13 is_stmt 1 view .LVU156
 485 00b6 134A     		ldr	r2, .L34+4
 486 00b8 1268     		ldr	r2, [r2]
 487 00ba 0F21     		movs	r1, #15
 488 00bc 1846     		mov	r0, r3
 489              	.LVL39:
1027:lvgl/src/core/lv_indev.c ****             if(indev_reset_check(proc)) return;
 490              		.loc 1 1027 13 is_stmt 0 view .LVU157
 491 00be FFF7FEFF 		bl	lv_event_send
 492              	.LVL40:
1028:lvgl/src/core/lv_indev.c ****         }
 493              		.loc 1 1028 13 is_stmt 1 view .LVU158
1028:lvgl/src/core/lv_indev.c ****         }
 494              		.loc 1 1028 16 is_stmt 0 view .LVU159
 495 00c2 2046     		mov	r0, r4
 496 00c4 FFF7FEFF 		bl	indev_reset_check
 497              	.LVL41:
1028:lvgl/src/core/lv_indev.c ****         }
 498              		.loc 1 1028 15 discriminator 1 view .LVU160
 499 00c8 0028     		cmp	r0, #0
 500 00ca BFD0     		beq	.L27
 501 00cc CBE7     		b	.L19
 502              	.LVL42:
 503              	.L33:
1035:lvgl/src/core/lv_indev.c ****                     if(indev_reset_check(proc)) return;
 504              		.loc 1 1035 21 is_stmt 1 view .LVU161
 505 00ce 0D4A     		ldr	r2, .L34+4
 506 00d0 1268     		ldr	r2, [r2]
 507 00d2 0F21     		movs	r1, #15
 508 00d4 1846     		mov	r0, r3
 509              	.LVL43:
1035:lvgl/src/core/lv_indev.c ****                     if(indev_reset_check(proc)) return;
 510              		.loc 1 1035 21 is_stmt 0 view .LVU162
 511 00d6 FFF7FEFF 		bl	lv_event_send
 512              	.LVL44:
1036:lvgl/src/core/lv_indev.c ****                 }
 513              		.loc 1 1036 21 is_stmt 1 view .LVU163
1036:lvgl/src/core/lv_indev.c ****                 }
 514              		.loc 1 1036 24 is_stmt 0 view .LVU164
 515 00da 2046     		mov	r0, r4
 516 00dc FFF7FEFF 		bl	indev_reset_check
 517              	.LVL45:
1036:lvgl/src/core/lv_indev.c ****                 }
 518              		.loc 1 1036 23 discriminator 1 view .LVU165
 519 00e0 0028     		cmp	r0, #0
 520 00e2 B3D0     		beq	.L27
 521 00e4 BFE7     		b	.L19
 522              	.L29:
1052:lvgl/src/core/lv_indev.c ****             if(indev_reset_check(proc)) return;
 523              		.loc 1 1052 13 is_stmt 1 view .LVU166
 524 00e6 074B     		ldr	r3, .L34+4
 525 00e8 1A68     		ldr	r2, [r3]
 526 00ea 0E21     		movs	r1, #14
 527 00ec 044B     		ldr	r3, .L34
ARM GAS  C:\usertemp\ccMJcN2s.s 			page 32


 528 00ee 1868     		ldr	r0, [r3]
 529 00f0 FFF7FEFF 		bl	lv_event_send
 530              	.LVL46:
1053:lvgl/src/core/lv_indev.c ****         }
 531              		.loc 1 1053 13 view .LVU167
1053:lvgl/src/core/lv_indev.c ****         }
 532              		.loc 1 1053 16 is_stmt 0 view .LVU168
 533 00f4 2046     		mov	r0, r4
 534 00f6 FFF7FEFF 		bl	indev_reset_check
 535              	.LVL47:
1053:lvgl/src/core/lv_indev.c ****         }
 536              		.loc 1 1053 15 discriminator 1 view .LVU169
 537 00fa 0028     		cmp	r0, #0
 538 00fc B0D0     		beq	.L24
 539 00fe B2E7     		b	.L19
 540              	.L35:
 541              		.align	2
 542              	.L34:
 543 0100 00000000 		.word	indev_obj_act
 544 0104 00000000 		.word	indev_act
 545              		.cfi_endproc
 546              	.LFE188:
 548              		.section	.text.indev_gesture,"ax",%progbits
 549              		.align	1
 550              		.syntax unified
 551              		.thumb
 552              		.thumb_func
 554              	indev_gesture:
 555              	.LVL48:
 556              	.LFB189:
1064:lvgl/src/core/lv_indev.c **** 
 557              		.loc 1 1064 1 is_stmt 1 view -0
 558              		.cfi_startproc
 559              		@ args = 0, pretend = 0, frame = 0
 560              		@ frame_needed = 0, uses_anonymous_args = 0
1066:lvgl/src/core/lv_indev.c ****     if(proc->types.pointer.gesture_sent) return;
 561              		.loc 1 1066 5 view .LVU171
1066:lvgl/src/core/lv_indev.c ****     if(proc->types.pointer.gesture_sent) return;
 562              		.loc 1 1066 27 is_stmt 0 view .LVU172
 563 0000 836A     		ldr	r3, [r0, #40]
1066:lvgl/src/core/lv_indev.c ****     if(proc->types.pointer.gesture_sent) return;
 564              		.loc 1 1066 7 view .LVU173
 565 0002 03B1     		cbz	r3, .L51
 566 0004 7047     		bx	lr
 567              	.L51:
1064:lvgl/src/core/lv_indev.c **** 
 568              		.loc 1 1064 1 view .LVU174
 569 0006 70B5     		push	{r4, r5, r6, lr}
 570              	.LCFI2:
 571              		.cfi_def_cfa_offset 16
 572              		.cfi_offset 4, -16
 573              		.cfi_offset 5, -12
 574              		.cfi_offset 6, -8
 575              		.cfi_offset 14, -4
 576 0008 0546     		mov	r5, r0
1067:lvgl/src/core/lv_indev.c **** 
 577              		.loc 1 1067 5 is_stmt 1 view .LVU175
ARM GAS  C:\usertemp\ccMJcN2s.s 			page 33


1067:lvgl/src/core/lv_indev.c **** 
 578              		.loc 1 1067 8 is_stmt 0 view .LVU176
 579 000a 90F83D30 		ldrb	r3, [r0, #61]	@ zero_extendqisi2
1067:lvgl/src/core/lv_indev.c **** 
 580              		.loc 1 1067 7 view .LVU177
 581 000e 13F0010F 		tst	r3, #1
 582 0012 61D1     		bne	.L36
1069:lvgl/src/core/lv_indev.c **** 
 583              		.loc 1 1069 5 is_stmt 1 view .LVU178
1069:lvgl/src/core/lv_indev.c **** 
 584              		.loc 1 1069 16 is_stmt 0 view .LVU179
 585 0014 046A     		ldr	r4, [r0, #32]
 586              	.LVL49:
1072:lvgl/src/core/lv_indev.c ****         gesture_obj = lv_obj_get_parent(gesture_obj);
 587              		.loc 1 1072 5 is_stmt 1 view .LVU180
1072:lvgl/src/core/lv_indev.c ****         gesture_obj = lv_obj_get_parent(gesture_obj);
 588              		.loc 1 1072 10 is_stmt 0 view .LVU181
 589 0016 03E0     		b	.L38
 590              	.LVL50:
 591              	.L40:
1073:lvgl/src/core/lv_indev.c ****     }
 592              		.loc 1 1073 9 is_stmt 1 view .LVU182
1073:lvgl/src/core/lv_indev.c ****     }
 593              		.loc 1 1073 23 is_stmt 0 view .LVU183
 594 0018 2046     		mov	r0, r4
 595 001a FFF7FEFF 		bl	lv_obj_get_parent
 596              	.LVL51:
 597 001e 0446     		mov	r4, r0
 598              	.LVL52:
 599              	.L38:
1072:lvgl/src/core/lv_indev.c ****         gesture_obj = lv_obj_get_parent(gesture_obj);
 600              		.loc 1 1072 23 is_stmt 1 view .LVU184
 601 0020 34B1     		cbz	r4, .L39
1072:lvgl/src/core/lv_indev.c ****         gesture_obj = lv_obj_get_parent(gesture_obj);
 602              		.loc 1 1072 26 is_stmt 0 discriminator 1 view .LVU185
 603 0022 4FF40041 		mov	r1, #32768
 604 0026 2046     		mov	r0, r4
 605 0028 FFF7FEFF 		bl	lv_obj_has_flag
 606              	.LVL53:
1072:lvgl/src/core/lv_indev.c ****         gesture_obj = lv_obj_get_parent(gesture_obj);
 607              		.loc 1 1072 23 discriminator 1 view .LVU186
 608 002c 0028     		cmp	r0, #0
 609 002e F3D1     		bne	.L40
 610              	.L39:
1076:lvgl/src/core/lv_indev.c **** 
 611              		.loc 1 1076 5 is_stmt 1 view .LVU187
1076:lvgl/src/core/lv_indev.c **** 
 612              		.loc 1 1076 7 is_stmt 0 view .LVU188
 613 0030 002C     		cmp	r4, #0
 614 0032 51D0     		beq	.L36
1078:lvgl/src/core/lv_indev.c ****        (LV_ABS(proc->types.pointer.vect.y) < indev_act->driver->gesture_min_velocity)) {
 615              		.loc 1 1078 5 is_stmt 1 view .LVU189
1078:lvgl/src/core/lv_indev.c ****        (LV_ABS(proc->types.pointer.vect.y) < indev_act->driver->gesture_min_velocity)) {
 616              		.loc 1 1078 9 is_stmt 0 view .LVU190
 617 0034 B5F91030 		ldrsh	r3, [r5, #16]
 618 0038 83EAE371 		eor	r1, r3, r3, asr #31
 619 003c A1EBE371 		sub	r1, r1, r3, asr #31
ARM GAS  C:\usertemp\ccMJcN2s.s 			page 34


 620 0040 89B2     		uxth	r1, r1
1078:lvgl/src/core/lv_indev.c ****        (LV_ABS(proc->types.pointer.vect.y) < indev_act->driver->gesture_min_velocity)) {
 621              		.loc 1 1078 55 view .LVU191
 622 0042 334A     		ldr	r2, .L52
 623 0044 1268     		ldr	r2, [r2]
 624 0046 1068     		ldr	r0, [r2]
1078:lvgl/src/core/lv_indev.c ****        (LV_ABS(proc->types.pointer.vect.y) < indev_act->driver->gesture_min_velocity)) {
 625              		.loc 1 1078 63 view .LVU192
 626 0048 807E     		ldrb	r0, [r0, #26]	@ zero_extendqisi2
1078:lvgl/src/core/lv_indev.c ****        (LV_ABS(proc->types.pointer.vect.y) < indev_act->driver->gesture_min_velocity)) {
 627              		.loc 1 1078 7 view .LVU193
 628 004a 8142     		cmp	r1, r0
 629 004c 0AD2     		bcs	.L41
1079:lvgl/src/core/lv_indev.c ****         proc->types.pointer.gesture_sum.x = 0;
 630              		.loc 1 1079 9 view .LVU194
 631 004e B5F91210 		ldrsh	r1, [r5, #18]
 632 0052 0029     		cmp	r1, #0
 633 0054 B8BF     		it	lt
 634 0056 4942     		rsblt	r1, r1, #0
 635 0058 89B2     		uxth	r1, r1
1078:lvgl/src/core/lv_indev.c ****        (LV_ABS(proc->types.pointer.vect.y) < indev_act->driver->gesture_min_velocity)) {
 636              		.loc 1 1078 87 discriminator 1 view .LVU195
 637 005a 8842     		cmp	r0, r1
 638 005c 02D9     		bls	.L41
1080:lvgl/src/core/lv_indev.c ****         proc->types.pointer.gesture_sum.y = 0;
 639              		.loc 1 1080 9 is_stmt 1 view .LVU196
1080:lvgl/src/core/lv_indev.c ****         proc->types.pointer.gesture_sum.y = 0;
 640              		.loc 1 1080 43 is_stmt 0 view .LVU197
 641 005e 0021     		movs	r1, #0
 642 0060 2987     		strh	r1, [r5, #56]	@ movhi
1081:lvgl/src/core/lv_indev.c ****     }
 643              		.loc 1 1081 9 is_stmt 1 view .LVU198
1081:lvgl/src/core/lv_indev.c ****     }
 644              		.loc 1 1081 43 is_stmt 0 view .LVU199
 645 0062 6987     		strh	r1, [r5, #58]	@ movhi
 646              	.L41:
1085:lvgl/src/core/lv_indev.c ****     proc->types.pointer.gesture_sum.y += proc->types.pointer.vect.y;
 647              		.loc 1 1085 5 is_stmt 1 view .LVU200
1085:lvgl/src/core/lv_indev.c ****     proc->types.pointer.gesture_sum.y += proc->types.pointer.vect.y;
 648              		.loc 1 1085 36 is_stmt 0 view .LVU201
 649 0064 298F     		ldrh	r1, [r5, #56]
1085:lvgl/src/core/lv_indev.c ****     proc->types.pointer.gesture_sum.y += proc->types.pointer.vect.y;
 650              		.loc 1 1085 39 view .LVU202
 651 0066 11FA83F3 		uxtah	r3, r1, r3
 652 006a 1BB2     		sxth	r3, r3
 653 006c 2B87     		strh	r3, [r5, #56]	@ movhi
1086:lvgl/src/core/lv_indev.c **** 
 654              		.loc 1 1086 5 is_stmt 1 view .LVU203
1086:lvgl/src/core/lv_indev.c **** 
 655              		.loc 1 1086 36 is_stmt 0 view .LVU204
 656 006e 698F     		ldrh	r1, [r5, #58]
1086:lvgl/src/core/lv_indev.c **** 
 657              		.loc 1 1086 66 view .LVU205
 658 0070 688A     		ldrh	r0, [r5, #18]
1086:lvgl/src/core/lv_indev.c **** 
 659              		.loc 1 1086 39 view .LVU206
 660 0072 0144     		add	r1, r1, r0
ARM GAS  C:\usertemp\ccMJcN2s.s 			page 35


 661 0074 09B2     		sxth	r1, r1
 662 0076 6987     		strh	r1, [r5, #58]	@ movhi
1088:lvgl/src/core/lv_indev.c ****        (LV_ABS(proc->types.pointer.gesture_sum.y) > indev_act->driver->gesture_limit)) {
 663              		.loc 1 1088 5 is_stmt 1 view .LVU207
1088:lvgl/src/core/lv_indev.c ****        (LV_ABS(proc->types.pointer.gesture_sum.y) > indev_act->driver->gesture_limit)) {
 664              		.loc 1 1088 9 is_stmt 0 view .LVU208
 665 0078 83EAE370 		eor	r0, r3, r3, asr #31
 666 007c A0EBE370 		sub	r0, r0, r3, asr #31
 667 0080 80B2     		uxth	r0, r0
1088:lvgl/src/core/lv_indev.c ****        (LV_ABS(proc->types.pointer.gesture_sum.y) > indev_act->driver->gesture_limit)) {
 668              		.loc 1 1088 70 view .LVU209
 669 0082 1668     		ldr	r6, [r2]
 670 0084 96F81BC0 		ldrb	ip, [r6, #27]	@ zero_extendqisi2
1088:lvgl/src/core/lv_indev.c ****        (LV_ABS(proc->types.pointer.gesture_sum.y) > indev_act->driver->gesture_limit)) {
 671              		.loc 1 1088 7 view .LVU210
 672 0088 6045     		cmp	r0, ip
 673 008a 07D8     		bhi	.L42
1089:lvgl/src/core/lv_indev.c **** 
 674              		.loc 1 1089 9 view .LVU211
 675 008c 81EAE17E 		eor	lr, r1, r1, asr #31
 676 0090 AEEBE17E 		sub	lr, lr, r1, asr #31
 677 0094 1FFA8EFE 		uxth	lr, lr
1088:lvgl/src/core/lv_indev.c ****        (LV_ABS(proc->types.pointer.gesture_sum.y) > indev_act->driver->gesture_limit)) {
 678              		.loc 1 1088 87 discriminator 1 view .LVU212
 679 0098 F445     		cmp	ip, lr
 680 009a 1DD2     		bcs	.L36
 681              	.L42:
1091:lvgl/src/core/lv_indev.c **** 
 682              		.loc 1 1091 9 is_stmt 1 view .LVU213
1091:lvgl/src/core/lv_indev.c **** 
 683              		.loc 1 1091 42 is_stmt 0 view .LVU214
 684 009c 95F83DC0 		ldrb	ip, [r5, #61]	@ zero_extendqisi2
 685 00a0 4CF0010C 		orr	ip, ip, #1
 686 00a4 85F83DC0 		strb	ip, [r5, #61]
1093:lvgl/src/core/lv_indev.c ****             if(proc->types.pointer.gesture_sum.x > 0)
 687              		.loc 1 1093 9 is_stmt 1 view .LVU215
1093:lvgl/src/core/lv_indev.c ****             if(proc->types.pointer.gesture_sum.x > 0)
 688              		.loc 1 1093 56 is_stmt 0 view .LVU216
 689 00a8 81EAE17C 		eor	ip, r1, r1, asr #31
 690 00ac ACEBE17C 		sub	ip, ip, r1, asr #31
 691 00b0 1FFA8CFC 		uxth	ip, ip
1093:lvgl/src/core/lv_indev.c ****             if(proc->types.pointer.gesture_sum.x > 0)
 692              		.loc 1 1093 11 view .LVU217
 693 00b4 6045     		cmp	r0, ip
 694 00b6 18D9     		bls	.L43
1094:lvgl/src/core/lv_indev.c ****                 proc->types.pointer.gesture_dir = LV_DIR_RIGHT;
 695              		.loc 1 1094 13 is_stmt 1 view .LVU218
1094:lvgl/src/core/lv_indev.c ****                 proc->types.pointer.gesture_dir = LV_DIR_RIGHT;
 696              		.loc 1 1094 15 is_stmt 0 view .LVU219
 697 00b8 002B     		cmp	r3, #0
 698 00ba 0EDD     		ble	.L44
1095:lvgl/src/core/lv_indev.c ****             else
 699              		.loc 1 1095 17 is_stmt 1 view .LVU220
1095:lvgl/src/core/lv_indev.c ****             else
 700              		.loc 1 1095 49 is_stmt 0 view .LVU221
 701 00bc 95F83C30 		ldrb	r3, [r5, #60]	@ zero_extendqisi2
 702 00c0 0221     		movs	r1, #2
ARM GAS  C:\usertemp\ccMJcN2s.s 			page 36


 703 00c2 61F30713 		bfi	r3, r1, #4, #4
 704 00c6 85F83C30 		strb	r3, [r5, #60]
 705              	.L45:
1106:lvgl/src/core/lv_indev.c ****         if(indev_reset_check(proc)) return;
 706              		.loc 1 1106 9 is_stmt 1 view .LVU222
 707 00ca 0C21     		movs	r1, #12
 708 00cc 2046     		mov	r0, r4
 709 00ce FFF7FEFF 		bl	lv_event_send
 710              	.LVL54:
1107:lvgl/src/core/lv_indev.c ****     }
 711              		.loc 1 1107 9 view .LVU223
1107:lvgl/src/core/lv_indev.c ****     }
 712              		.loc 1 1107 12 is_stmt 0 view .LVU224
 713 00d2 2846     		mov	r0, r5
 714 00d4 FFF7FEFF 		bl	indev_reset_check
 715              	.LVL55:
1107:lvgl/src/core/lv_indev.c ****     }
 716              		.loc 1 1107 37 is_stmt 1 discriminator 1 view .LVU225
 717              	.L36:
1109:lvgl/src/core/lv_indev.c **** 
 718              		.loc 1 1109 1 is_stmt 0 view .LVU226
 719 00d8 70BD     		pop	{r4, r5, r6, pc}
 720              	.LVL56:
 721              	.L44:
1097:lvgl/src/core/lv_indev.c ****         }
 722              		.loc 1 1097 17 is_stmt 1 view .LVU227
1097:lvgl/src/core/lv_indev.c ****         }
 723              		.loc 1 1097 49 is_stmt 0 view .LVU228
 724 00da 95F83C30 		ldrb	r3, [r5, #60]	@ zero_extendqisi2
 725 00de 0121     		movs	r1, #1
 726 00e0 61F30713 		bfi	r3, r1, #4, #4
 727 00e4 85F83C30 		strb	r3, [r5, #60]
 728 00e8 EFE7     		b	.L45
 729              	.L43:
1100:lvgl/src/core/lv_indev.c ****                 proc->types.pointer.gesture_dir = LV_DIR_BOTTOM;
 730              		.loc 1 1100 13 is_stmt 1 view .LVU229
1100:lvgl/src/core/lv_indev.c ****                 proc->types.pointer.gesture_dir = LV_DIR_BOTTOM;
 731              		.loc 1 1100 15 is_stmt 0 view .LVU230
 732 00ea 0029     		cmp	r1, #0
 733 00ec 07DD     		ble	.L46
1101:lvgl/src/core/lv_indev.c ****             else
 734              		.loc 1 1101 17 is_stmt 1 view .LVU231
1101:lvgl/src/core/lv_indev.c ****             else
 735              		.loc 1 1101 49 is_stmt 0 view .LVU232
 736 00ee 95F83C30 		ldrb	r3, [r5, #60]	@ zero_extendqisi2
 737 00f2 0821     		movs	r1, #8
 738 00f4 61F30713 		bfi	r3, r1, #4, #4
 739 00f8 85F83C30 		strb	r3, [r5, #60]
 740 00fc E5E7     		b	.L45
 741              	.L46:
1103:lvgl/src/core/lv_indev.c ****         }
 742              		.loc 1 1103 17 is_stmt 1 view .LVU233
1103:lvgl/src/core/lv_indev.c ****         }
 743              		.loc 1 1103 49 is_stmt 0 view .LVU234
 744 00fe 95F83C30 		ldrb	r3, [r5, #60]	@ zero_extendqisi2
 745 0102 0421     		movs	r1, #4
 746 0104 61F30713 		bfi	r3, r1, #4, #4
ARM GAS  C:\usertemp\ccMJcN2s.s 			page 37


 747 0108 85F83C30 		strb	r3, [r5, #60]
 748 010c DDE7     		b	.L45
 749              	.L53:
 750 010e 00BF     		.align	2
 751              	.L52:
 752 0110 00000000 		.word	indev_act
 753              		.cfi_endproc
 754              	.LFE189:
 756              		.section	.text.indev_keypad_proc,"ax",%progbits
 757              		.align	1
 758              		.syntax unified
 759              		.thumb
 760              		.thumb_func
 762              	indev_keypad_proc:
 763              	.LVL57:
 764              	.LFB182:
 382:lvgl/src/core/lv_indev.c ****     if(data->state == LV_INDEV_STATE_PRESSED && i->proc.wait_until_release) return;
 765              		.loc 1 382 1 is_stmt 1 view -0
 766              		.cfi_startproc
 767              		@ args = 0, pretend = 0, frame = 0
 768              		@ frame_needed = 0, uses_anonymous_args = 0
 382:lvgl/src/core/lv_indev.c ****     if(data->state == LV_INDEV_STATE_PRESSED && i->proc.wait_until_release) return;
 769              		.loc 1 382 1 is_stmt 0 view .LVU236
 770 0000 70B5     		push	{r4, r5, r6, lr}
 771              	.LCFI3:
 772              		.cfi_def_cfa_offset 16
 773              		.cfi_offset 4, -16
 774              		.cfi_offset 5, -12
 775              		.cfi_offset 6, -8
 776              		.cfi_offset 14, -4
 777 0002 0446     		mov	r4, r0
 778 0004 0D46     		mov	r5, r1
 383:lvgl/src/core/lv_indev.c **** 
 779              		.loc 1 383 5 is_stmt 1 view .LVU237
 383:lvgl/src/core/lv_indev.c **** 
 780              		.loc 1 383 12 is_stmt 0 view .LVU238
 781 0006 8B7B     		ldrb	r3, [r1, #14]	@ zero_extendqisi2
 383:lvgl/src/core/lv_indev.c **** 
 782              		.loc 1 383 7 view .LVU239
 783 0008 012B     		cmp	r3, #1
 784 000a 28D0     		beq	.L75
 785              	.L55:
 385:lvgl/src/core/lv_indev.c ****         i->proc.wait_until_release      = 0;
 786              		.loc 1 385 5 is_stmt 1 view .LVU240
 385:lvgl/src/core/lv_indev.c ****         i->proc.wait_until_release      = 0;
 787              		.loc 1 385 8 is_stmt 0 view .LVU241
 788 000c 6379     		ldrb	r3, [r4, #5]	@ zero_extendqisi2
 385:lvgl/src/core/lv_indev.c ****         i->proc.wait_until_release      = 0;
 789              		.loc 1 385 7 view .LVU242
 790 000e 13F0080F 		tst	r3, #8
 791 0012 0AD0     		beq	.L57
 386:lvgl/src/core/lv_indev.c ****         i->proc.pr_timestamp            = 0;
 792              		.loc 1 386 9 is_stmt 1 view .LVU243
 386:lvgl/src/core/lv_indev.c ****         i->proc.pr_timestamp            = 0;
 793              		.loc 1 386 41 is_stmt 0 view .LVU244
 794 0014 6379     		ldrb	r3, [r4, #5]	@ zero_extendqisi2
 795 0016 23F00803 		bic	r3, r3, #8
ARM GAS  C:\usertemp\ccMJcN2s.s 			page 38


 796 001a 6371     		strb	r3, [r4, #5]
 387:lvgl/src/core/lv_indev.c ****         i->proc.long_pr_sent            = 0;
 797              		.loc 1 387 9 is_stmt 1 view .LVU245
 387:lvgl/src/core/lv_indev.c ****         i->proc.long_pr_sent            = 0;
 798              		.loc 1 387 41 is_stmt 0 view .LVU246
 799 001c 0023     		movs	r3, #0
 800 001e 6364     		str	r3, [r4, #68]
 388:lvgl/src/core/lv_indev.c ****         i->proc.types.keypad.last_state = LV_INDEV_STATE_RELEASED; /*To skip the processing of rele
 801              		.loc 1 388 9 is_stmt 1 view .LVU247
 388:lvgl/src/core/lv_indev.c ****         i->proc.types.keypad.last_state = LV_INDEV_STATE_RELEASED; /*To skip the processing of rele
 802              		.loc 1 388 41 is_stmt 0 view .LVU248
 803 0020 6279     		ldrb	r2, [r4, #5]	@ zero_extendqisi2
 804 0022 63F30002 		bfi	r2, r3, #0, #1
 805 0026 6271     		strb	r2, [r4, #5]
 389:lvgl/src/core/lv_indev.c ****     }
 806              		.loc 1 389 9 is_stmt 1 view .LVU249
 389:lvgl/src/core/lv_indev.c ****     }
 807              		.loc 1 389 41 is_stmt 0 view .LVU250
 808 0028 2372     		strb	r3, [r4, #8]
 809              	.L57:
 392:lvgl/src/core/lv_indev.c ****     if(g == NULL) return;
 810              		.loc 1 392 5 is_stmt 1 view .LVU251
 392:lvgl/src/core/lv_indev.c ****     if(g == NULL) return;
 811              		.loc 1 392 18 is_stmt 0 view .LVU252
 812 002a 266D     		ldr	r6, [r4, #80]
 813              	.LVL58:
 393:lvgl/src/core/lv_indev.c **** 
 814              		.loc 1 393 5 is_stmt 1 view .LVU253
 393:lvgl/src/core/lv_indev.c **** 
 815              		.loc 1 393 7 is_stmt 0 view .LVU254
 816 002c B6B1     		cbz	r6, .L54
 395:lvgl/src/core/lv_indev.c ****     if(indev_obj_act == NULL) return;
 817              		.loc 1 395 5 is_stmt 1 view .LVU255
 395:lvgl/src/core/lv_indev.c ****     if(indev_obj_act == NULL) return;
 818              		.loc 1 395 21 is_stmt 0 view .LVU256
 819 002e 3046     		mov	r0, r6
 820              	.LVL59:
 395:lvgl/src/core/lv_indev.c ****     if(indev_obj_act == NULL) return;
 821              		.loc 1 395 21 view .LVU257
 822 0030 FFF7FEFF 		bl	lv_group_get_focused
 823              	.LVL60:
 395:lvgl/src/core/lv_indev.c ****     if(indev_obj_act == NULL) return;
 824              		.loc 1 395 19 discriminator 1 view .LVU258
 825 0034 904B     		ldr	r3, .L85
 826 0036 1860     		str	r0, [r3]
 396:lvgl/src/core/lv_indev.c **** 
 827              		.loc 1 396 5 is_stmt 1 view .LVU259
 396:lvgl/src/core/lv_indev.c **** 
 828              		.loc 1 396 7 is_stmt 0 view .LVU260
 829 0038 80B1     		cbz	r0, .L54
 399:lvgl/src/core/lv_indev.c **** 
 830              		.loc 1 399 5 is_stmt 1 view .LVU261
 399:lvgl/src/core/lv_indev.c **** 
 831              		.loc 1 399 14 is_stmt 0 view .LVU262
 832 003a E168     		ldr	r1, [r4, #12]
 833              	.LVL61:
 403:lvgl/src/core/lv_indev.c **** 
ARM GAS  C:\usertemp\ccMJcN2s.s 			page 39


 834              		.loc 1 403 5 is_stmt 1 view .LVU263
 403:lvgl/src/core/lv_indev.c **** 
 835              		.loc 1 403 41 is_stmt 0 view .LVU264
 836 003c 6B68     		ldr	r3, [r5, #4]
 403:lvgl/src/core/lv_indev.c **** 
 837              		.loc 1 403 35 view .LVU265
 838 003e E360     		str	r3, [r4, #12]
 408:lvgl/src/core/lv_indev.c ****     i->proc.types.keypad.last_state = data->state;
 839              		.loc 1 408 5 is_stmt 1 view .LVU266
 408:lvgl/src/core/lv_indev.c ****     i->proc.types.keypad.last_state = data->state;
 840              		.loc 1 408 59 is_stmt 0 view .LVU267
 841 0040 227A     		ldrb	r2, [r4, #8]	@ zero_extendqisi2
 842              	.LVL62:
 409:lvgl/src/core/lv_indev.c **** 
 843              		.loc 1 409 5 is_stmt 1 view .LVU268
 409:lvgl/src/core/lv_indev.c **** 
 844              		.loc 1 409 43 is_stmt 0 view .LVU269
 845 0042 AB7B     		ldrb	r3, [r5, #14]	@ zero_extendqisi2
 409:lvgl/src/core/lv_indev.c **** 
 846              		.loc 1 409 37 view .LVU270
 847 0044 2372     		strb	r3, [r4, #8]
 412:lvgl/src/core/lv_indev.c ****         LV_LOG_INFO("%d key is pressed", data->key);
 848              		.loc 1 412 5 is_stmt 1 view .LVU271
 412:lvgl/src/core/lv_indev.c ****         LV_LOG_INFO("%d key is pressed", data->key);
 849              		.loc 1 412 7 is_stmt 0 view .LVU272
 850 0046 012B     		cmp	r3, #1
 851 0048 0ED0     		beq	.L76
 852              	.L58:
 449:lvgl/src/core/lv_indev.c **** 
 853              		.loc 1 449 10 is_stmt 1 view .LVU273
 449:lvgl/src/core/lv_indev.c **** 
 854              		.loc 1 449 12 is_stmt 0 view .LVU274
 855 004a 012B     		cmp	r3, #1
 856 004c 62D0     		beq	.L77
 857              	.L66:
 496:lvgl/src/core/lv_indev.c ****         LV_LOG_INFO("%d key is released", data->key);
 858              		.loc 1 496 10 is_stmt 1 view .LVU275
 496:lvgl/src/core/lv_indev.c ****         LV_LOG_INFO("%d key is released", data->key);
 859              		.loc 1 496 12 is_stmt 0 view .LVU276
 860 004e 13B9     		cbnz	r3, .L65
 496:lvgl/src/core/lv_indev.c ****         LV_LOG_INFO("%d key is released", data->key);
 861              		.loc 1 496 52 discriminator 1 view .LVU277
 862 0050 012A     		cmp	r2, #1
 863 0052 00F0DC80 		beq	.L78
 864              	.LVL63:
 865              	.L65:
 517:lvgl/src/core/lv_indev.c **** }
 866              		.loc 1 517 5 is_stmt 1 view .LVU278
 517:lvgl/src/core/lv_indev.c **** }
 867              		.loc 1 517 19 is_stmt 0 view .LVU279
 868 0056 884B     		ldr	r3, .L85
 869 0058 0022     		movs	r2, #0
 870 005a 1A60     		str	r2, [r3]
 871              	.LVL64:
 872              	.L54:
 518:lvgl/src/core/lv_indev.c **** 
 873              		.loc 1 518 1 view .LVU280
ARM GAS  C:\usertemp\ccMJcN2s.s 			page 40


 874 005c 70BD     		pop	{r4, r5, r6, pc}
 875              	.LVL65:
 876              	.L75:
 383:lvgl/src/core/lv_indev.c **** 
 877              		.loc 1 383 46 discriminator 1 view .LVU281
 878 005e 4379     		ldrb	r3, [r0, #5]	@ zero_extendqisi2
 879 0060 13F0080F 		tst	r3, #8
 880 0064 D2D0     		beq	.L55
 881 0066 F9E7     		b	.L54
 882              	.LVL66:
 883              	.L76:
 412:lvgl/src/core/lv_indev.c ****         LV_LOG_INFO("%d key is pressed", data->key);
 884              		.loc 1 412 46 discriminator 1 view .LVU282
 885 0068 002A     		cmp	r2, #0
 886 006a EED1     		bne	.L58
 413:lvgl/src/core/lv_indev.c ****         i->proc.pr_timestamp = lv_tick_get();
 887              		.loc 1 413 9 is_stmt 1 view .LVU283
 413:lvgl/src/core/lv_indev.c ****         i->proc.pr_timestamp = lv_tick_get();
 888              		.loc 1 413 9 view .LVU284
 413:lvgl/src/core/lv_indev.c ****         i->proc.pr_timestamp = lv_tick_get();
 889              		.loc 1 413 9 view .LVU285
 414:lvgl/src/core/lv_indev.c **** 
 890              		.loc 1 414 9 view .LVU286
 414:lvgl/src/core/lv_indev.c **** 
 891              		.loc 1 414 32 is_stmt 0 view .LVU287
 892 006c FFF7FEFF 		bl	lv_tick_get
 893              	.LVL67:
 414:lvgl/src/core/lv_indev.c **** 
 894              		.loc 1 414 30 discriminator 1 view .LVU288
 895 0070 6064     		str	r0, [r4, #68]
 417:lvgl/src/core/lv_indev.c ****             /*Send the ENTER as a normal KEY*/
 896              		.loc 1 417 9 is_stmt 1 view .LVU289
 417:lvgl/src/core/lv_indev.c ****             /*Send the ENTER as a normal KEY*/
 897              		.loc 1 417 16 is_stmt 0 view .LVU290
 898 0072 6968     		ldr	r1, [r5, #4]
 899 0074 A1F10903 		sub	r3, r1, #9
 900 0078 122B     		cmp	r3, #18
 901 007a 47D8     		bhi	.L59
 902 007c DFE803F0 		tbb	[pc, r3]
 903              	.L61:
 904 0080 2C       		.byte	(.L64-.L61)/2
 905 0081 0A       		.byte	(.L63-.L61)/2
 906 0082 39       		.byte	(.L62-.L61)/2
 907 0083 46       		.byte	(.L59-.L61)/2
 908 0084 46       		.byte	(.L59-.L61)/2
 909 0085 46       		.byte	(.L59-.L61)/2
 910 0086 46       		.byte	(.L59-.L61)/2
 911 0087 46       		.byte	(.L59-.L61)/2
 912 0088 46       		.byte	(.L59-.L61)/2
 913 0089 46       		.byte	(.L59-.L61)/2
 914 008a 46       		.byte	(.L59-.L61)/2
 915 008b 46       		.byte	(.L59-.L61)/2
 916 008c 46       		.byte	(.L59-.L61)/2
 917 008d 46       		.byte	(.L59-.L61)/2
 918 008e 46       		.byte	(.L59-.L61)/2
 919 008f 46       		.byte	(.L59-.L61)/2
 920 0090 46       		.byte	(.L59-.L61)/2
ARM GAS  C:\usertemp\ccMJcN2s.s 			page 41


 921 0091 46       		.byte	(.L59-.L61)/2
 922 0092 1B       		.byte	(.L60-.L61)/2
 923 0093 00       		.p2align 1
 924              	.L63:
 419:lvgl/src/core/lv_indev.c **** 
 925              		.loc 1 419 13 is_stmt 1 view .LVU291
 926 0094 0A21     		movs	r1, #10
 927 0096 3046     		mov	r0, r6
 928 0098 FFF7FEFF 		bl	lv_group_send_data
 929              	.LVL68:
 421:lvgl/src/core/lv_indev.c ****             if(indev_reset_check(&i->proc)) return;
 930              		.loc 1 421 13 view .LVU292
 931 009c 774B     		ldr	r3, .L85+4
 932 009e 1A68     		ldr	r2, [r3]
 933 00a0 0121     		movs	r1, #1
 934 00a2 754B     		ldr	r3, .L85
 935 00a4 1868     		ldr	r0, [r3]
 936 00a6 FFF7FEFF 		bl	lv_event_send
 937              	.LVL69:
 422:lvgl/src/core/lv_indev.c ****         }
 938              		.loc 1 422 13 view .LVU293
 422:lvgl/src/core/lv_indev.c ****         }
 939              		.loc 1 422 16 is_stmt 0 view .LVU294
 940 00aa 201D     		adds	r0, r4, #4
 941 00ac FFF7FEFF 		bl	indev_reset_check
 942              	.LVL70:
 422:lvgl/src/core/lv_indev.c ****         }
 943              		.loc 1 422 15 discriminator 1 view .LVU295
 944 00b0 0028     		cmp	r0, #0
 945 00b2 D0D0     		beq	.L65
 946 00b4 D2E7     		b	.L54
 947              	.L60:
 426:lvgl/src/core/lv_indev.c **** 
 948              		.loc 1 426 13 is_stmt 1 view .LVU296
 949 00b6 1B21     		movs	r1, #27
 950 00b8 3046     		mov	r0, r6
 951 00ba FFF7FEFF 		bl	lv_group_send_data
 952              	.LVL71:
 428:lvgl/src/core/lv_indev.c ****             if(indev_reset_check(&i->proc)) return;
 953              		.loc 1 428 13 view .LVU297
 954 00be 6F4B     		ldr	r3, .L85+4
 955 00c0 1A68     		ldr	r2, [r3]
 956 00c2 2021     		movs	r1, #32
 957 00c4 6C4B     		ldr	r3, .L85
 958 00c6 1868     		ldr	r0, [r3]
 959 00c8 FFF7FEFF 		bl	lv_event_send
 960              	.LVL72:
 429:lvgl/src/core/lv_indev.c ****         }
 961              		.loc 1 429 13 view .LVU298
 429:lvgl/src/core/lv_indev.c ****         }
 962              		.loc 1 429 16 is_stmt 0 view .LVU299
 963 00cc 201D     		adds	r0, r4, #4
 964 00ce FFF7FEFF 		bl	indev_reset_check
 965              	.LVL73:
 429:lvgl/src/core/lv_indev.c ****         }
 966              		.loc 1 429 15 discriminator 1 view .LVU300
 967 00d2 0028     		cmp	r0, #0
ARM GAS  C:\usertemp\ccMJcN2s.s 			page 42


 968 00d4 BFD0     		beq	.L65
 969 00d6 C1E7     		b	.L54
 970              	.L64:
 433:lvgl/src/core/lv_indev.c ****             lv_group_focus_next(g);
 971              		.loc 1 433 13 is_stmt 1 view .LVU301
 972 00d8 0021     		movs	r1, #0
 973 00da 3046     		mov	r0, r6
 974 00dc FFF7FEFF 		bl	lv_group_set_editing
 975              	.LVL74:
 434:lvgl/src/core/lv_indev.c ****             if(indev_reset_check(&i->proc)) return;
 976              		.loc 1 434 13 view .LVU302
 977 00e0 3046     		mov	r0, r6
 978 00e2 FFF7FEFF 		bl	lv_group_focus_next
 979              	.LVL75:
 435:lvgl/src/core/lv_indev.c ****         }
 980              		.loc 1 435 13 view .LVU303
 435:lvgl/src/core/lv_indev.c ****         }
 981              		.loc 1 435 16 is_stmt 0 view .LVU304
 982 00e6 201D     		adds	r0, r4, #4
 983 00e8 FFF7FEFF 		bl	indev_reset_check
 984              	.LVL76:
 435:lvgl/src/core/lv_indev.c ****         }
 985              		.loc 1 435 15 discriminator 1 view .LVU305
 986 00ec 0028     		cmp	r0, #0
 987 00ee B2D0     		beq	.L65
 988 00f0 B4E7     		b	.L54
 989              	.L62:
 439:lvgl/src/core/lv_indev.c ****             lv_group_focus_prev(g);
 990              		.loc 1 439 13 is_stmt 1 view .LVU306
 991 00f2 0021     		movs	r1, #0
 992 00f4 3046     		mov	r0, r6
 993 00f6 FFF7FEFF 		bl	lv_group_set_editing
 994              	.LVL77:
 440:lvgl/src/core/lv_indev.c ****             if(indev_reset_check(&i->proc)) return;
 995              		.loc 1 440 13 view .LVU307
 996 00fa 3046     		mov	r0, r6
 997 00fc FFF7FEFF 		bl	lv_group_focus_prev
 998              	.LVL78:
 441:lvgl/src/core/lv_indev.c ****         }
 999              		.loc 1 441 13 view .LVU308
 441:lvgl/src/core/lv_indev.c ****         }
 1000              		.loc 1 441 16 is_stmt 0 view .LVU309
 1001 0100 201D     		adds	r0, r4, #4
 1002 0102 FFF7FEFF 		bl	indev_reset_check
 1003              	.LVL79:
 441:lvgl/src/core/lv_indev.c ****         }
 1004              		.loc 1 441 15 discriminator 1 view .LVU310
 1005 0106 0028     		cmp	r0, #0
 1006 0108 A5D0     		beq	.L65
 1007 010a A7E7     		b	.L54
 1008              	.L59:
 445:lvgl/src/core/lv_indev.c ****         }
 1009              		.loc 1 445 13 is_stmt 1 view .LVU311
 1010 010c 3046     		mov	r0, r6
 1011 010e FFF7FEFF 		bl	lv_group_send_data
 1012              	.LVL80:
 1013 0112 A0E7     		b	.L65
ARM GAS  C:\usertemp\ccMJcN2s.s 			page 43


 1014              	.LVL81:
 1015              	.L77:
 449:lvgl/src/core/lv_indev.c **** 
 1016              		.loc 1 449 51 is_stmt 0 discriminator 1 view .LVU312
 1017 0114 012A     		cmp	r2, #1
 1018 0116 9AD1     		bne	.L66
 451:lvgl/src/core/lv_indev.c ****             lv_event_send(indev_obj_act, LV_EVENT_PRESSING, indev_act);
 1019              		.loc 1 451 9 is_stmt 1 view .LVU313
 451:lvgl/src/core/lv_indev.c ****             lv_event_send(indev_obj_act, LV_EVENT_PRESSING, indev_act);
 1020              		.loc 1 451 16 is_stmt 0 view .LVU314
 1021 0118 6B68     		ldr	r3, [r5, #4]
 451:lvgl/src/core/lv_indev.c ****             lv_event_send(indev_obj_act, LV_EVENT_PRESSING, indev_act);
 1022              		.loc 1 451 11 view .LVU315
 1023 011a 0A2B     		cmp	r3, #10
 1024 011c 22D0     		beq	.L79
 1025              	.LVL82:
 1026              	.L67:
 457:lvgl/src/core/lv_indev.c ****             i->proc.long_pr_sent = 1;
 1027              		.loc 1 457 9 is_stmt 1 view .LVU316
 457:lvgl/src/core/lv_indev.c ****             i->proc.long_pr_sent = 1;
 1028              		.loc 1 457 33 is_stmt 0 view .LVU317
 1029 011e 6379     		ldrb	r3, [r4, #5]	@ zero_extendqisi2
 457:lvgl/src/core/lv_indev.c ****             i->proc.long_pr_sent = 1;
 1030              		.loc 1 457 11 view .LVU318
 1031 0120 13F0010F 		tst	r3, #1
 1032 0124 29D0     		beq	.L80
 1033              	.L68:
 466:lvgl/src/core/lv_indev.c ****                 lv_tick_elaps(i->proc.longpr_rep_timestamp) > i->driver->long_press_repeat_time) {
 1034              		.loc 1 466 14 is_stmt 1 view .LVU319
 466:lvgl/src/core/lv_indev.c ****                 lv_tick_elaps(i->proc.longpr_rep_timestamp) > i->driver->long_press_repeat_time) {
 1035              		.loc 1 466 38 is_stmt 0 view .LVU320
 1036 0126 6379     		ldrb	r3, [r4, #5]	@ zero_extendqisi2
 466:lvgl/src/core/lv_indev.c ****                 lv_tick_elaps(i->proc.longpr_rep_timestamp) > i->driver->long_press_repeat_time) {
 1037              		.loc 1 466 16 view .LVU321
 1038 0128 13F0010F 		tst	r3, #1
 1039 012c 93D0     		beq	.L65
 467:lvgl/src/core/lv_indev.c **** 
 1040              		.loc 1 467 17 view .LVU322
 1041 012e A06C     		ldr	r0, [r4, #72]
 1042 0130 FFF7FEFF 		bl	lv_tick_elaps
 1043              	.LVL83:
 467:lvgl/src/core/lv_indev.c **** 
 1044              		.loc 1 467 64 discriminator 1 view .LVU323
 1045 0134 2368     		ldr	r3, [r4]
 467:lvgl/src/core/lv_indev.c **** 
 1046              		.loc 1 467 72 discriminator 1 view .LVU324
 1047 0136 DB8B     		ldrh	r3, [r3, #30]
 466:lvgl/src/core/lv_indev.c ****                 lv_tick_elaps(i->proc.longpr_rep_timestamp) > i->driver->long_press_repeat_time) {
 1048              		.loc 1 466 43 discriminator 1 view .LVU325
 1049 0138 9842     		cmp	r0, r3
 1050 013a 8CD9     		bls	.L65
 469:lvgl/src/core/lv_indev.c **** 
 1051              		.loc 1 469 13 is_stmt 1 view .LVU326
 469:lvgl/src/core/lv_indev.c **** 
 1052              		.loc 1 469 44 is_stmt 0 view .LVU327
 1053 013c FFF7FEFF 		bl	lv_tick_get
 1054              	.LVL84:
ARM GAS  C:\usertemp\ccMJcN2s.s 			page 44


 469:lvgl/src/core/lv_indev.c **** 
 1055              		.loc 1 469 42 discriminator 1 view .LVU328
 1056 0140 A064     		str	r0, [r4, #72]
 472:lvgl/src/core/lv_indev.c ****                 lv_event_send(indev_obj_act, LV_EVENT_LONG_PRESSED_REPEAT, indev_act);
 1057              		.loc 1 472 13 is_stmt 1 view .LVU329
 472:lvgl/src/core/lv_indev.c ****                 lv_event_send(indev_obj_act, LV_EVENT_LONG_PRESSED_REPEAT, indev_act);
 1058              		.loc 1 472 20 is_stmt 0 view .LVU330
 1059 0142 6968     		ldr	r1, [r5, #4]
 472:lvgl/src/core/lv_indev.c ****                 lv_event_send(indev_obj_act, LV_EVENT_LONG_PRESSED_REPEAT, indev_act);
 1060              		.loc 1 472 15 view .LVU331
 1061 0144 0A29     		cmp	r1, #10
 1062 0146 38D0     		beq	.L81
 477:lvgl/src/core/lv_indev.c ****                 lv_group_set_editing(g, false); /*Editing is not used by KEYPAD is be sure it is di
 1063              		.loc 1 477 18 is_stmt 1 view .LVU332
 477:lvgl/src/core/lv_indev.c ****                 lv_group_set_editing(g, false); /*Editing is not used by KEYPAD is be sure it is di
 1064              		.loc 1 477 20 is_stmt 0 view .LVU333
 1065 0148 0929     		cmp	r1, #9
 1066 014a 44D0     		beq	.L82
 483:lvgl/src/core/lv_indev.c ****                 lv_group_set_editing(g, false); /*Editing is not used by KEYPAD is be sure it is di
 1067              		.loc 1 483 18 is_stmt 1 view .LVU334
 483:lvgl/src/core/lv_indev.c ****                 lv_group_set_editing(g, false); /*Editing is not used by KEYPAD is be sure it is di
 1068              		.loc 1 483 20 is_stmt 0 view .LVU335
 1069 014c 0B29     		cmp	r1, #11
 1070 014e 50D0     		beq	.L83
 490:lvgl/src/core/lv_indev.c ****                 if(indev_reset_check(&i->proc)) return;
 1071              		.loc 1 490 17 is_stmt 1 view .LVU336
 1072 0150 3046     		mov	r0, r6
 1073 0152 FFF7FEFF 		bl	lv_group_send_data
 1074              	.LVL85:
 491:lvgl/src/core/lv_indev.c ****             }
 1075              		.loc 1 491 17 view .LVU337
 491:lvgl/src/core/lv_indev.c ****             }
 1076              		.loc 1 491 20 is_stmt 0 view .LVU338
 1077 0156 201D     		adds	r0, r4, #4
 1078 0158 FFF7FEFF 		bl	indev_reset_check
 1079              	.LVL86:
 491:lvgl/src/core/lv_indev.c ****             }
 1080              		.loc 1 491 19 discriminator 1 view .LVU339
 1081 015c 0028     		cmp	r0, #0
 1082 015e 3FF47AAF 		beq	.L65
 1083 0162 7BE7     		b	.L54
 1084              	.LVL87:
 1085              	.L79:
 452:lvgl/src/core/lv_indev.c ****             if(indev_reset_check(&i->proc)) return;
 1086              		.loc 1 452 13 is_stmt 1 view .LVU340
 1087 0164 454B     		ldr	r3, .L85+4
 1088 0166 1A68     		ldr	r2, [r3]
 1089              	.LVL88:
 452:lvgl/src/core/lv_indev.c ****             if(indev_reset_check(&i->proc)) return;
 1090              		.loc 1 452 13 is_stmt 0 view .LVU341
 1091 0168 0221     		movs	r1, #2
 1092              	.LVL89:
 452:lvgl/src/core/lv_indev.c ****             if(indev_reset_check(&i->proc)) return;
 1093              		.loc 1 452 13 view .LVU342
 1094 016a FFF7FEFF 		bl	lv_event_send
 1095              	.LVL90:
 453:lvgl/src/core/lv_indev.c ****         }
ARM GAS  C:\usertemp\ccMJcN2s.s 			page 45


 1096              		.loc 1 453 13 is_stmt 1 view .LVU343
 453:lvgl/src/core/lv_indev.c ****         }
 1097              		.loc 1 453 16 is_stmt 0 view .LVU344
 1098 016e 201D     		adds	r0, r4, #4
 1099 0170 FFF7FEFF 		bl	indev_reset_check
 1100              	.LVL91:
 453:lvgl/src/core/lv_indev.c ****         }
 1101              		.loc 1 453 15 discriminator 1 view .LVU345
 1102 0174 0028     		cmp	r0, #0
 1103 0176 D2D0     		beq	.L67
 1104 0178 70E7     		b	.L54
 1105              	.L80:
 457:lvgl/src/core/lv_indev.c ****             i->proc.long_pr_sent = 1;
 1106              		.loc 1 457 41 discriminator 1 view .LVU346
 1107 017a 606C     		ldr	r0, [r4, #68]
 1108 017c FFF7FEFF 		bl	lv_tick_elaps
 1109              	.LVL92:
 457:lvgl/src/core/lv_indev.c ****             i->proc.long_pr_sent = 1;
 1110              		.loc 1 457 80 discriminator 1 view .LVU347
 1111 0180 2368     		ldr	r3, [r4]
 457:lvgl/src/core/lv_indev.c ****             i->proc.long_pr_sent = 1;
 1112              		.loc 1 457 88 discriminator 1 view .LVU348
 1113 0182 9B8B     		ldrh	r3, [r3, #28]
 457:lvgl/src/core/lv_indev.c ****             i->proc.long_pr_sent = 1;
 1114              		.loc 1 457 38 discriminator 1 view .LVU349
 1115 0184 9842     		cmp	r0, r3
 1116 0186 CED9     		bls	.L68
 458:lvgl/src/core/lv_indev.c ****             if(data->key == LV_KEY_ENTER) {
 1117              		.loc 1 458 13 is_stmt 1 view .LVU350
 458:lvgl/src/core/lv_indev.c ****             if(data->key == LV_KEY_ENTER) {
 1118              		.loc 1 458 34 is_stmt 0 view .LVU351
 1119 0188 6379     		ldrb	r3, [r4, #5]	@ zero_extendqisi2
 1120 018a 43F00103 		orr	r3, r3, #1
 1121 018e 6371     		strb	r3, [r4, #5]
 459:lvgl/src/core/lv_indev.c ****                 i->proc.longpr_rep_timestamp = lv_tick_get();
 1122              		.loc 1 459 13 is_stmt 1 view .LVU352
 459:lvgl/src/core/lv_indev.c ****                 i->proc.longpr_rep_timestamp = lv_tick_get();
 1123              		.loc 1 459 20 is_stmt 0 view .LVU353
 1124 0190 6B68     		ldr	r3, [r5, #4]
 459:lvgl/src/core/lv_indev.c ****                 i->proc.longpr_rep_timestamp = lv_tick_get();
 1125              		.loc 1 459 15 view .LVU354
 1126 0192 0A2B     		cmp	r3, #10
 1127 0194 7FF45FAF 		bne	.L65
 460:lvgl/src/core/lv_indev.c ****                 lv_event_send(indev_obj_act, LV_EVENT_LONG_PRESSED, indev_act);
 1128              		.loc 1 460 17 is_stmt 1 view .LVU355
 460:lvgl/src/core/lv_indev.c ****                 lv_event_send(indev_obj_act, LV_EVENT_LONG_PRESSED, indev_act);
 1129              		.loc 1 460 48 is_stmt 0 view .LVU356
 1130 0198 FFF7FEFF 		bl	lv_tick_get
 1131              	.LVL93:
 460:lvgl/src/core/lv_indev.c ****                 lv_event_send(indev_obj_act, LV_EVENT_LONG_PRESSED, indev_act);
 1132              		.loc 1 460 46 discriminator 1 view .LVU357
 1133 019c A064     		str	r0, [r4, #72]
 461:lvgl/src/core/lv_indev.c ****                 if(indev_reset_check(&i->proc)) return;
 1134              		.loc 1 461 17 is_stmt 1 view .LVU358
 1135 019e 374B     		ldr	r3, .L85+4
 1136 01a0 1A68     		ldr	r2, [r3]
 1137 01a2 0521     		movs	r1, #5
ARM GAS  C:\usertemp\ccMJcN2s.s 			page 46


 1138 01a4 344B     		ldr	r3, .L85
 1139 01a6 1868     		ldr	r0, [r3]
 1140 01a8 FFF7FEFF 		bl	lv_event_send
 1141              	.LVL94:
 462:lvgl/src/core/lv_indev.c ****             }
 1142              		.loc 1 462 17 view .LVU359
 462:lvgl/src/core/lv_indev.c ****             }
 1143              		.loc 1 462 20 is_stmt 0 view .LVU360
 1144 01ac 201D     		adds	r0, r4, #4
 1145 01ae FFF7FEFF 		bl	indev_reset_check
 1146              	.LVL95:
 462:lvgl/src/core/lv_indev.c ****             }
 1147              		.loc 1 462 19 discriminator 1 view .LVU361
 1148 01b2 0028     		cmp	r0, #0
 1149 01b4 3FF44FAF 		beq	.L65
 1150 01b8 50E7     		b	.L54
 1151              	.L81:
 473:lvgl/src/core/lv_indev.c ****                 if(indev_reset_check(&i->proc)) return;
 1152              		.loc 1 473 17 is_stmt 1 view .LVU362
 1153 01ba 304B     		ldr	r3, .L85+4
 1154 01bc 1A68     		ldr	r2, [r3]
 1155 01be 0621     		movs	r1, #6
 1156 01c0 2D4B     		ldr	r3, .L85
 1157 01c2 1868     		ldr	r0, [r3]
 1158 01c4 FFF7FEFF 		bl	lv_event_send
 1159              	.LVL96:
 474:lvgl/src/core/lv_indev.c ****             }
 1160              		.loc 1 474 17 view .LVU363
 474:lvgl/src/core/lv_indev.c ****             }
 1161              		.loc 1 474 20 is_stmt 0 view .LVU364
 1162 01c8 201D     		adds	r0, r4, #4
 1163 01ca FFF7FEFF 		bl	indev_reset_check
 1164              	.LVL97:
 474:lvgl/src/core/lv_indev.c ****             }
 1165              		.loc 1 474 19 discriminator 1 view .LVU365
 1166 01ce 0028     		cmp	r0, #0
 1167 01d0 3FF441AF 		beq	.L65
 1168 01d4 42E7     		b	.L54
 1169              	.L82:
 478:lvgl/src/core/lv_indev.c ****                 lv_group_focus_next(g);
 1170              		.loc 1 478 17 is_stmt 1 view .LVU366
 1171 01d6 0021     		movs	r1, #0
 1172 01d8 3046     		mov	r0, r6
 1173 01da FFF7FEFF 		bl	lv_group_set_editing
 1174              	.LVL98:
 479:lvgl/src/core/lv_indev.c ****                 if(indev_reset_check(&i->proc)) return;
 1175              		.loc 1 479 17 view .LVU367
 1176 01de 3046     		mov	r0, r6
 1177 01e0 FFF7FEFF 		bl	lv_group_focus_next
 1178              	.LVL99:
 480:lvgl/src/core/lv_indev.c ****             }
 1179              		.loc 1 480 17 view .LVU368
 480:lvgl/src/core/lv_indev.c ****             }
 1180              		.loc 1 480 20 is_stmt 0 view .LVU369
 1181 01e4 201D     		adds	r0, r4, #4
 1182 01e6 FFF7FEFF 		bl	indev_reset_check
 1183              	.LVL100:
ARM GAS  C:\usertemp\ccMJcN2s.s 			page 47


 480:lvgl/src/core/lv_indev.c ****             }
 1184              		.loc 1 480 19 discriminator 1 view .LVU370
 1185 01ea 0028     		cmp	r0, #0
 1186 01ec 3FF433AF 		beq	.L65
 1187 01f0 34E7     		b	.L54
 1188              	.L83:
 484:lvgl/src/core/lv_indev.c ****                 lv_group_focus_prev(g);
 1189              		.loc 1 484 17 is_stmt 1 view .LVU371
 1190 01f2 0021     		movs	r1, #0
 1191 01f4 3046     		mov	r0, r6
 1192 01f6 FFF7FEFF 		bl	lv_group_set_editing
 1193              	.LVL101:
 485:lvgl/src/core/lv_indev.c ****                 if(indev_reset_check(&i->proc)) return;
 1194              		.loc 1 485 17 view .LVU372
 1195 01fa 3046     		mov	r0, r6
 1196 01fc FFF7FEFF 		bl	lv_group_focus_prev
 1197              	.LVL102:
 486:lvgl/src/core/lv_indev.c ****             }
 1198              		.loc 1 486 17 view .LVU373
 486:lvgl/src/core/lv_indev.c ****             }
 1199              		.loc 1 486 20 is_stmt 0 view .LVU374
 1200 0200 201D     		adds	r0, r4, #4
 1201 0202 FFF7FEFF 		bl	indev_reset_check
 1202              	.LVL103:
 486:lvgl/src/core/lv_indev.c ****             }
 1203              		.loc 1 486 19 discriminator 1 view .LVU375
 1204 0206 0028     		cmp	r0, #0
 1205 0208 3FF425AF 		beq	.L65
 1206 020c 26E7     		b	.L54
 1207              	.LVL104:
 1208              	.L78:
 497:lvgl/src/core/lv_indev.c ****         /*The user might clear the key when it was released. Always release the pressed key*/
 1209              		.loc 1 497 9 is_stmt 1 view .LVU376
 497:lvgl/src/core/lv_indev.c ****         /*The user might clear the key when it was released. Always release the pressed key*/
 1210              		.loc 1 497 9 view .LVU377
 497:lvgl/src/core/lv_indev.c ****         /*The user might clear the key when it was released. Always release the pressed key*/
 1211              		.loc 1 497 9 view .LVU378
 499:lvgl/src/core/lv_indev.c ****         if(data->key == LV_KEY_ENTER) {
 1212              		.loc 1 499 9 view .LVU379
 499:lvgl/src/core/lv_indev.c ****         if(data->key == LV_KEY_ENTER) {
 1213              		.loc 1 499 19 is_stmt 0 view .LVU380
 1214 020e 6960     		str	r1, [r5, #4]
 500:lvgl/src/core/lv_indev.c **** 
 1215              		.loc 1 500 9 is_stmt 1 view .LVU381
 500:lvgl/src/core/lv_indev.c **** 
 1216              		.loc 1 500 11 is_stmt 0 view .LVU382
 1217 0210 0A29     		cmp	r1, #10
 1218 0212 06D0     		beq	.L84
 1219              	.LVL105:
 1220              	.L72:
 514:lvgl/src/core/lv_indev.c ****         i->proc.long_pr_sent = 0;
 1221              		.loc 1 514 9 is_stmt 1 view .LVU383
 514:lvgl/src/core/lv_indev.c ****         i->proc.long_pr_sent = 0;
 1222              		.loc 1 514 30 is_stmt 0 view .LVU384
 1223 0214 0022     		movs	r2, #0
 1224 0216 6264     		str	r2, [r4, #68]
 515:lvgl/src/core/lv_indev.c ****     }
ARM GAS  C:\usertemp\ccMJcN2s.s 			page 48


 1225              		.loc 1 515 9 is_stmt 1 view .LVU385
 515:lvgl/src/core/lv_indev.c ****     }
 1226              		.loc 1 515 30 is_stmt 0 view .LVU386
 1227 0218 6379     		ldrb	r3, [r4, #5]	@ zero_extendqisi2
 1228 021a 62F30003 		bfi	r3, r2, #0, #1
 1229 021e 6371     		strb	r3, [r4, #5]
 1230 0220 19E7     		b	.L65
 1231              	.LVL106:
 1232              	.L84:
 502:lvgl/src/core/lv_indev.c ****             if(indev_reset_check(&i->proc)) return;
 1233              		.loc 1 502 13 is_stmt 1 view .LVU387
 1234 0222 164B     		ldr	r3, .L85+4
 1235 0224 1A68     		ldr	r2, [r3]
 1236              	.LVL107:
 502:lvgl/src/core/lv_indev.c ****             if(indev_reset_check(&i->proc)) return;
 1237              		.loc 1 502 13 is_stmt 0 view .LVU388
 1238 0226 0821     		movs	r1, #8
 1239              	.LVL108:
 502:lvgl/src/core/lv_indev.c ****             if(indev_reset_check(&i->proc)) return;
 1240              		.loc 1 502 13 view .LVU389
 1241 0228 FFF7FEFF 		bl	lv_event_send
 1242              	.LVL109:
 503:lvgl/src/core/lv_indev.c **** 
 1243              		.loc 1 503 13 is_stmt 1 view .LVU390
 503:lvgl/src/core/lv_indev.c **** 
 1244              		.loc 1 503 16 is_stmt 0 view .LVU391
 1245 022c 251D     		adds	r5, r4, #4
 1246              	.LVL110:
 503:lvgl/src/core/lv_indev.c **** 
 1247              		.loc 1 503 16 view .LVU392
 1248 022e 2846     		mov	r0, r5
 1249 0230 FFF7FEFF 		bl	indev_reset_check
 1250              	.LVL111:
 503:lvgl/src/core/lv_indev.c **** 
 1251              		.loc 1 503 15 discriminator 1 view .LVU393
 1252 0234 0028     		cmp	r0, #0
 1253 0236 7FF411AF 		bne	.L54
 505:lvgl/src/core/lv_indev.c ****                 lv_event_send(indev_obj_act, LV_EVENT_SHORT_CLICKED, indev_act);
 1254              		.loc 1 505 13 is_stmt 1 view .LVU394
 505:lvgl/src/core/lv_indev.c ****                 lv_event_send(indev_obj_act, LV_EVENT_SHORT_CLICKED, indev_act);
 1255              		.loc 1 505 37 is_stmt 0 view .LVU395
 1256 023a 6379     		ldrb	r3, [r4, #5]	@ zero_extendqisi2
 505:lvgl/src/core/lv_indev.c ****                 lv_event_send(indev_obj_act, LV_EVENT_SHORT_CLICKED, indev_act);
 1257              		.loc 1 505 15 view .LVU396
 1258 023c 13F0010F 		tst	r3, #1
 1259 0240 0CD1     		bne	.L73
 506:lvgl/src/core/lv_indev.c ****                 if(indev_reset_check(&i->proc)) return;
 1260              		.loc 1 506 17 is_stmt 1 view .LVU397
 1261 0242 0E4B     		ldr	r3, .L85+4
 1262 0244 1A68     		ldr	r2, [r3]
 1263 0246 0421     		movs	r1, #4
 1264 0248 0B4B     		ldr	r3, .L85
 1265 024a 1868     		ldr	r0, [r3]
 1266 024c FFF7FEFF 		bl	lv_event_send
 1267              	.LVL112:
 507:lvgl/src/core/lv_indev.c ****             }
 1268              		.loc 1 507 17 view .LVU398
ARM GAS  C:\usertemp\ccMJcN2s.s 			page 49


 507:lvgl/src/core/lv_indev.c ****             }
 1269              		.loc 1 507 20 is_stmt 0 view .LVU399
 1270 0250 2846     		mov	r0, r5
 1271 0252 FFF7FEFF 		bl	indev_reset_check
 1272              	.LVL113:
 507:lvgl/src/core/lv_indev.c ****             }
 1273              		.loc 1 507 19 discriminator 1 view .LVU400
 1274 0256 0028     		cmp	r0, #0
 1275 0258 7FF400AF 		bne	.L54
 1276              	.L73:
 510:lvgl/src/core/lv_indev.c ****             if(indev_reset_check(&i->proc)) return;
 1277              		.loc 1 510 13 is_stmt 1 view .LVU401
 1278 025c 074B     		ldr	r3, .L85+4
 1279 025e 1A68     		ldr	r2, [r3]
 1280 0260 0721     		movs	r1, #7
 1281 0262 054B     		ldr	r3, .L85
 1282 0264 1868     		ldr	r0, [r3]
 1283 0266 FFF7FEFF 		bl	lv_event_send
 1284              	.LVL114:
 511:lvgl/src/core/lv_indev.c **** 
 1285              		.loc 1 511 13 view .LVU402
 511:lvgl/src/core/lv_indev.c **** 
 1286              		.loc 1 511 16 is_stmt 0 view .LVU403
 1287 026a 2846     		mov	r0, r5
 1288 026c FFF7FEFF 		bl	indev_reset_check
 1289              	.LVL115:
 511:lvgl/src/core/lv_indev.c **** 
 1290              		.loc 1 511 15 discriminator 1 view .LVU404
 1291 0270 0028     		cmp	r0, #0
 1292 0272 CFD0     		beq	.L72
 1293 0274 F2E6     		b	.L54
 1294              	.L86:
 1295 0276 00BF     		.align	2
 1296              	.L85:
 1297 0278 00000000 		.word	indev_obj_act
 1298 027c 00000000 		.word	indev_act
 1299              		.cfi_endproc
 1300              	.LFE182:
 1302              		.section	.text.indev_encoder_proc,"ax",%progbits
 1303              		.align	1
 1304              		.syntax unified
 1305              		.thumb
 1306              		.thumb_func
 1308              	indev_encoder_proc:
 1309              	.LVL116:
 1310              	.LFB183:
 526:lvgl/src/core/lv_indev.c ****     if(data->state == LV_INDEV_STATE_PRESSED && i->proc.wait_until_release) return;
 1311              		.loc 1 526 1 is_stmt 1 view -0
 1312              		.cfi_startproc
 1313              		@ args = 0, pretend = 0, frame = 0
 1314              		@ frame_needed = 0, uses_anonymous_args = 0
 526:lvgl/src/core/lv_indev.c ****     if(data->state == LV_INDEV_STATE_PRESSED && i->proc.wait_until_release) return;
 1315              		.loc 1 526 1 is_stmt 0 view .LVU406
 1316 0000 F8B5     		push	{r3, r4, r5, r6, r7, lr}
 1317              	.LCFI4:
 1318              		.cfi_def_cfa_offset 24
 1319              		.cfi_offset 3, -24
ARM GAS  C:\usertemp\ccMJcN2s.s 			page 50


 1320              		.cfi_offset 4, -20
 1321              		.cfi_offset 5, -16
 1322              		.cfi_offset 6, -12
 1323              		.cfi_offset 7, -8
 1324              		.cfi_offset 14, -4
 1325 0002 0446     		mov	r4, r0
 1326 0004 0D46     		mov	r5, r1
 527:lvgl/src/core/lv_indev.c **** 
 1327              		.loc 1 527 5 is_stmt 1 view .LVU407
 527:lvgl/src/core/lv_indev.c **** 
 1328              		.loc 1 527 12 is_stmt 0 view .LVU408
 1329 0006 8B7B     		ldrb	r3, [r1, #14]	@ zero_extendqisi2
 527:lvgl/src/core/lv_indev.c **** 
 1330              		.loc 1 527 7 view .LVU409
 1331 0008 012B     		cmp	r3, #1
 1332 000a 37D0     		beq	.L140
 1333              	.L88:
 529:lvgl/src/core/lv_indev.c ****         i->proc.wait_until_release      = 0;
 1334              		.loc 1 529 5 is_stmt 1 view .LVU410
 529:lvgl/src/core/lv_indev.c ****         i->proc.wait_until_release      = 0;
 1335              		.loc 1 529 8 is_stmt 0 view .LVU411
 1336 000c 6379     		ldrb	r3, [r4, #5]	@ zero_extendqisi2
 529:lvgl/src/core/lv_indev.c ****         i->proc.wait_until_release      = 0;
 1337              		.loc 1 529 7 view .LVU412
 1338 000e 13F0080F 		tst	r3, #8
 1339 0012 0AD0     		beq	.L90
 530:lvgl/src/core/lv_indev.c ****         i->proc.pr_timestamp            = 0;
 1340              		.loc 1 530 9 is_stmt 1 view .LVU413
 530:lvgl/src/core/lv_indev.c ****         i->proc.pr_timestamp            = 0;
 1341              		.loc 1 530 41 is_stmt 0 view .LVU414
 1342 0014 6379     		ldrb	r3, [r4, #5]	@ zero_extendqisi2
 1343 0016 23F00803 		bic	r3, r3, #8
 1344 001a 6371     		strb	r3, [r4, #5]
 531:lvgl/src/core/lv_indev.c ****         i->proc.long_pr_sent            = 0;
 1345              		.loc 1 531 9 is_stmt 1 view .LVU415
 531:lvgl/src/core/lv_indev.c ****         i->proc.long_pr_sent            = 0;
 1346              		.loc 1 531 41 is_stmt 0 view .LVU416
 1347 001c 0023     		movs	r3, #0
 1348 001e 6364     		str	r3, [r4, #68]
 532:lvgl/src/core/lv_indev.c ****         i->proc.types.keypad.last_state = LV_INDEV_STATE_RELEASED; /*To skip the processing of rele
 1349              		.loc 1 532 9 is_stmt 1 view .LVU417
 532:lvgl/src/core/lv_indev.c ****         i->proc.types.keypad.last_state = LV_INDEV_STATE_RELEASED; /*To skip the processing of rele
 1350              		.loc 1 532 41 is_stmt 0 view .LVU418
 1351 0020 6279     		ldrb	r2, [r4, #5]	@ zero_extendqisi2
 1352 0022 63F30002 		bfi	r2, r3, #0, #1
 1353 0026 6271     		strb	r2, [r4, #5]
 533:lvgl/src/core/lv_indev.c ****     }
 1354              		.loc 1 533 9 is_stmt 1 view .LVU419
 533:lvgl/src/core/lv_indev.c ****     }
 1355              		.loc 1 533 41 is_stmt 0 view .LVU420
 1356 0028 2372     		strb	r3, [r4, #8]
 1357              	.L90:
 538:lvgl/src/core/lv_indev.c ****     i->proc.types.keypad.last_state = data->state;
 1358              		.loc 1 538 5 is_stmt 1 view .LVU421
 538:lvgl/src/core/lv_indev.c ****     i->proc.types.keypad.last_state = data->state;
 1359              		.loc 1 538 22 is_stmt 0 view .LVU422
 1360 002a 277A     		ldrb	r7, [r4, #8]	@ zero_extendqisi2
ARM GAS  C:\usertemp\ccMJcN2s.s 			page 51


 1361              	.LVL117:
 539:lvgl/src/core/lv_indev.c ****     i->proc.types.keypad.last_key   = data->key;
 1362              		.loc 1 539 5 is_stmt 1 view .LVU423
 539:lvgl/src/core/lv_indev.c ****     i->proc.types.keypad.last_key   = data->key;
 1363              		.loc 1 539 43 is_stmt 0 view .LVU424
 1364 002c AB7B     		ldrb	r3, [r5, #14]	@ zero_extendqisi2
 539:lvgl/src/core/lv_indev.c ****     i->proc.types.keypad.last_key   = data->key;
 1365              		.loc 1 539 37 view .LVU425
 1366 002e 2372     		strb	r3, [r4, #8]
 540:lvgl/src/core/lv_indev.c **** 
 1367              		.loc 1 540 5 is_stmt 1 view .LVU426
 540:lvgl/src/core/lv_indev.c **** 
 1368              		.loc 1 540 43 is_stmt 0 view .LVU427
 1369 0030 6B68     		ldr	r3, [r5, #4]
 540:lvgl/src/core/lv_indev.c **** 
 1370              		.loc 1 540 37 view .LVU428
 1371 0032 E360     		str	r3, [r4, #12]
 542:lvgl/src/core/lv_indev.c ****     if(g == NULL) return;
 1372              		.loc 1 542 5 is_stmt 1 view .LVU429
 542:lvgl/src/core/lv_indev.c ****     if(g == NULL) return;
 1373              		.loc 1 542 18 is_stmt 0 view .LVU430
 1374 0034 266D     		ldr	r6, [r4, #80]
 1375              	.LVL118:
 543:lvgl/src/core/lv_indev.c **** 
 1376              		.loc 1 543 5 is_stmt 1 view .LVU431
 543:lvgl/src/core/lv_indev.c **** 
 1377              		.loc 1 543 7 is_stmt 0 view .LVU432
 1378 0036 06B3     		cbz	r6, .L87
 545:lvgl/src/core/lv_indev.c ****     if(indev_obj_act == NULL) return;
 1379              		.loc 1 545 5 is_stmt 1 view .LVU433
 545:lvgl/src/core/lv_indev.c ****     if(indev_obj_act == NULL) return;
 1380              		.loc 1 545 21 is_stmt 0 view .LVU434
 1381 0038 3046     		mov	r0, r6
 1382              	.LVL119:
 545:lvgl/src/core/lv_indev.c ****     if(indev_obj_act == NULL) return;
 1383              		.loc 1 545 21 view .LVU435
 1384 003a FFF7FEFF 		bl	lv_group_get_focused
 1385              	.LVL120:
 545:lvgl/src/core/lv_indev.c ****     if(indev_obj_act == NULL) return;
 1386              		.loc 1 545 19 discriminator 1 view .LVU436
 1387 003e 984B     		ldr	r3, .L155
 1388 0040 1860     		str	r0, [r3]
 546:lvgl/src/core/lv_indev.c **** 
 1389              		.loc 1 546 5 is_stmt 1 view .LVU437
 546:lvgl/src/core/lv_indev.c **** 
 1390              		.loc 1 546 7 is_stmt 0 view .LVU438
 1391 0042 D0B1     		cbz	r0, .L87
 549:lvgl/src/core/lv_indev.c ****         data->enc_diff = 0;
 1392              		.loc 1 549 5 is_stmt 1 view .LVU439
 549:lvgl/src/core/lv_indev.c ****         data->enc_diff = 0;
 1393              		.loc 1 549 12 is_stmt 0 view .LVU440
 1394 0044 AB7B     		ldrb	r3, [r5, #14]	@ zero_extendqisi2
 549:lvgl/src/core/lv_indev.c ****         data->enc_diff = 0;
 1395              		.loc 1 549 7 view .LVU441
 1396 0046 0BB1     		cbz	r3, .L91
 550:lvgl/src/core/lv_indev.c ****     }
 1397              		.loc 1 550 9 is_stmt 1 view .LVU442
ARM GAS  C:\usertemp\ccMJcN2s.s 			page 52


 550:lvgl/src/core/lv_indev.c ****     }
 1398              		.loc 1 550 24 is_stmt 0 view .LVU443
 1399 0048 0023     		movs	r3, #0
 1400 004a AB81     		strh	r3, [r5, #12]	@ movhi
 1401              	.L91:
 554:lvgl/src/core/lv_indev.c ****     if(indev_obj_act == NULL) return;
 1402              		.loc 1 554 5 is_stmt 1 view .LVU444
 554:lvgl/src/core/lv_indev.c ****     if(indev_obj_act == NULL) return;
 1403              		.loc 1 554 21 is_stmt 0 view .LVU445
 1404 004c 3046     		mov	r0, r6
 1405 004e FFF7FEFF 		bl	lv_group_get_focused
 1406              	.LVL121:
 554:lvgl/src/core/lv_indev.c ****     if(indev_obj_act == NULL) return;
 1407              		.loc 1 554 19 discriminator 1 view .LVU446
 1408 0052 934B     		ldr	r3, .L155
 1409 0054 1860     		str	r0, [r3]
 555:lvgl/src/core/lv_indev.c **** 
 1410              		.loc 1 555 5 is_stmt 1 view .LVU447
 555:lvgl/src/core/lv_indev.c **** 
 1411              		.loc 1 555 7 is_stmt 0 view .LVU448
 1412 0056 80B1     		cbz	r0, .L87
 558:lvgl/src/core/lv_indev.c ****         LV_LOG_INFO("pressed");
 1413              		.loc 1 558 5 is_stmt 1 view .LVU449
 558:lvgl/src/core/lv_indev.c ****         LV_LOG_INFO("pressed");
 1414              		.loc 1 558 12 is_stmt 0 view .LVU450
 1415 0058 AB7B     		ldrb	r3, [r5, #14]	@ zero_extendqisi2
 558:lvgl/src/core/lv_indev.c ****         LV_LOG_INFO("pressed");
 1416              		.loc 1 558 7 view .LVU451
 1417 005a 012B     		cmp	r3, #1
 1418 005c 13D0     		beq	.L141
 1419              	.L92:
 592:lvgl/src/core/lv_indev.c ****         /*Long press*/
 1420              		.loc 1 592 10 is_stmt 1 view .LVU452
 592:lvgl/src/core/lv_indev.c ****         /*Long press*/
 1421              		.loc 1 592 12 is_stmt 0 view .LVU453
 1422 005e 012B     		cmp	r3, #1
 1423 0060 69D0     		beq	.L142
 1424              	.L102:
 647:lvgl/src/core/lv_indev.c ****         LV_LOG_INFO("released");
 1425              		.loc 1 647 10 is_stmt 1 view .LVU454
 647:lvgl/src/core/lv_indev.c ****         LV_LOG_INFO("released");
 1426              		.loc 1 647 12 is_stmt 0 view .LVU455
 1427 0062 13B9     		cbnz	r3, .L101
 647:lvgl/src/core/lv_indev.c ****         LV_LOG_INFO("released");
 1428              		.loc 1 647 52 discriminator 1 view .LVU456
 1429 0064 012F     		cmp	r7, #1
 1430 0066 00F0E580 		beq	.L143
 1431              	.LVL122:
 1432              	.L101:
 697:lvgl/src/core/lv_indev.c **** 
 1433              		.loc 1 697 5 is_stmt 1 view .LVU457
 697:lvgl/src/core/lv_indev.c **** 
 1434              		.loc 1 697 19 is_stmt 0 view .LVU458
 1435 006a 8D4B     		ldr	r3, .L155
 1436 006c 0022     		movs	r2, #0
 1437 006e 1A60     		str	r2, [r3]
 700:lvgl/src/core/lv_indev.c ****         /*In edit mode send LEFT/RIGHT keys*/
ARM GAS  C:\usertemp\ccMJcN2s.s 			page 53


 1438              		.loc 1 700 5 is_stmt 1 view .LVU459
 700:lvgl/src/core/lv_indev.c ****         /*In edit mode send LEFT/RIGHT keys*/
 1439              		.loc 1 700 12 is_stmt 0 view .LVU460
 1440 0070 B5F90C30 		ldrsh	r3, [r5, #12]
 700:lvgl/src/core/lv_indev.c ****         /*In edit mode send LEFT/RIGHT keys*/
 1441              		.loc 1 700 7 view .LVU461
 1442 0074 002B     		cmp	r3, #0
 1443 0076 40F07481 		bne	.L144
 1444              	.LVL123:
 1445              	.L87:
 724:lvgl/src/core/lv_indev.c **** 
 1446              		.loc 1 724 1 view .LVU462
 1447 007a F8BD     		pop	{r3, r4, r5, r6, r7, pc}
 1448              	.LVL124:
 1449              	.L140:
 527:lvgl/src/core/lv_indev.c **** 
 1450              		.loc 1 527 46 discriminator 1 view .LVU463
 1451 007c 4379     		ldrb	r3, [r0, #5]	@ zero_extendqisi2
 1452 007e 13F0080F 		tst	r3, #8
 1453 0082 C3D0     		beq	.L88
 1454 0084 F9E7     		b	.L87
 1455              	.LVL125:
 1456              	.L141:
 558:lvgl/src/core/lv_indev.c ****         LV_LOG_INFO("pressed");
 1457              		.loc 1 558 46 discriminator 1 view .LVU464
 1458 0086 002F     		cmp	r7, #0
 1459 0088 E9D1     		bne	.L92
 559:lvgl/src/core/lv_indev.c **** 
 1460              		.loc 1 559 9 is_stmt 1 view .LVU465
 559:lvgl/src/core/lv_indev.c **** 
 1461              		.loc 1 559 9 view .LVU466
 559:lvgl/src/core/lv_indev.c **** 
 1462              		.loc 1 559 9 view .LVU467
 561:lvgl/src/core/lv_indev.c **** 
 1463              		.loc 1 561 9 view .LVU468
 561:lvgl/src/core/lv_indev.c **** 
 1464              		.loc 1 561 32 is_stmt 0 view .LVU469
 1465 008a FFF7FEFF 		bl	lv_tick_get
 1466              	.LVL126:
 561:lvgl/src/core/lv_indev.c **** 
 1467              		.loc 1 561 30 discriminator 1 view .LVU470
 1468 008e 6064     		str	r0, [r4, #68]
 563:lvgl/src/core/lv_indev.c ****             bool editable_or_scrollable = lv_obj_is_editable(indev_obj_act) ||
 1469              		.loc 1 563 9 is_stmt 1 view .LVU471
 563:lvgl/src/core/lv_indev.c ****             bool editable_or_scrollable = lv_obj_is_editable(indev_obj_act) ||
 1470              		.loc 1 563 16 is_stmt 0 view .LVU472
 1471 0090 6968     		ldr	r1, [r5, #4]
 1472 0092 A1F10A03 		sub	r3, r1, #10
 1473 0096 112B     		cmp	r3, #17
 1474 0098 49D8     		bhi	.L93
 1475 009a DFE803F0 		tbb	[pc, r3]
 1476              	.L95:
 1477 009e 09       		.byte	(.L98-.L95)/2
 1478 009f 48       		.byte	(.L93-.L95)/2
 1479 00a0 48       		.byte	(.L93-.L95)/2
 1480 00a1 48       		.byte	(.L93-.L95)/2
 1481 00a2 48       		.byte	(.L93-.L95)/2
ARM GAS  C:\usertemp\ccMJcN2s.s 			page 54


 1482 00a3 48       		.byte	(.L93-.L95)/2
 1483 00a4 48       		.byte	(.L93-.L95)/2
 1484 00a5 48       		.byte	(.L93-.L95)/2
 1485 00a6 48       		.byte	(.L93-.L95)/2
 1486 00a7 32       		.byte	(.L97-.L95)/2
 1487 00a8 2D       		.byte	(.L96-.L95)/2
 1488 00a9 48       		.byte	(.L93-.L95)/2
 1489 00aa 48       		.byte	(.L93-.L95)/2
 1490 00ab 48       		.byte	(.L93-.L95)/2
 1491 00ac 48       		.byte	(.L93-.L95)/2
 1492 00ad 48       		.byte	(.L93-.L95)/2
 1493 00ae 48       		.byte	(.L93-.L95)/2
 1494 00af 37       		.byte	(.L94-.L95)/2
 1495              		.p2align 1
 1496              	.L98:
 1497              	.LBB2:
 564:lvgl/src/core/lv_indev.c ****                                           lv_obj_has_flag(indev_obj_act, LV_OBJ_FLAG_SCROLLABLE);
 1498              		.loc 1 564 13 is_stmt 1 view .LVU473
 564:lvgl/src/core/lv_indev.c ****                                           lv_obj_has_flag(indev_obj_act, LV_OBJ_FLAG_SCROLLABLE);
 1499              		.loc 1 564 43 is_stmt 0 view .LVU474
 1500 00b0 7B4B     		ldr	r3, .L155
 1501 00b2 1868     		ldr	r0, [r3]
 1502 00b4 FFF7FEFF 		bl	lv_obj_is_editable
 1503              	.LVL127:
 564:lvgl/src/core/lv_indev.c ****                                           lv_obj_has_flag(indev_obj_act, LV_OBJ_FLAG_SCROLLABLE);
 1504              		.loc 1 564 77 discriminator 1 view .LVU475
 1505 00b8 A0B1     		cbz	r0, .L145
 564:lvgl/src/core/lv_indev.c ****                                           lv_obj_has_flag(indev_obj_act, LV_OBJ_FLAG_SCROLLABLE);
 1506              		.loc 1 564 77 discriminator 3 view .LVU476
 1507 00ba 0123     		movs	r3, #1
 1508              	.L99:
 564:lvgl/src/core/lv_indev.c ****                                           lv_obj_has_flag(indev_obj_act, LV_OBJ_FLAG_SCROLLABLE);
 1509              		.loc 1 564 18 discriminator 6 view .LVU477
 1510 00bc 1F46     		mov	r7, r3
 1511              	.LVL128:
 566:lvgl/src/core/lv_indev.c ****                 lv_event_send(indev_obj_act, LV_EVENT_PRESSED, indev_act);
 1512              		.loc 1 566 13 is_stmt 1 view .LVU478
 566:lvgl/src/core/lv_indev.c ****                 lv_event_send(indev_obj_act, LV_EVENT_PRESSED, indev_act);
 1513              		.loc 1 566 16 is_stmt 0 view .LVU479
 1514 00be 3046     		mov	r0, r6
 1515 00c0 FFF7FEFF 		bl	lv_group_get_editing
 1516              	.LVL129:
 566:lvgl/src/core/lv_indev.c ****                 lv_event_send(indev_obj_act, LV_EVENT_PRESSED, indev_act);
 1517              		.loc 1 566 15 discriminator 1 view .LVU480
 1518 00c4 08B9     		cbnz	r0, .L100
 566:lvgl/src/core/lv_indev.c ****                 lv_event_send(indev_obj_act, LV_EVENT_PRESSED, indev_act);
 1519              		.loc 1 566 48 discriminator 1 view .LVU481
 1520 00c6 002F     		cmp	r7, #0
 1521 00c8 CFD1     		bne	.L101
 1522              	.L100:
 567:lvgl/src/core/lv_indev.c ****                 if(indev_reset_check(&i->proc)) return;
 1523              		.loc 1 567 17 is_stmt 1 view .LVU482
 1524 00ca 764B     		ldr	r3, .L155+4
 1525 00cc 1A68     		ldr	r2, [r3]
 1526 00ce 0121     		movs	r1, #1
 1527 00d0 734B     		ldr	r3, .L155
 1528 00d2 1868     		ldr	r0, [r3]
ARM GAS  C:\usertemp\ccMJcN2s.s 			page 55


 1529 00d4 FFF7FEFF 		bl	lv_event_send
 1530              	.LVL130:
 568:lvgl/src/core/lv_indev.c ****             }
 1531              		.loc 1 568 17 view .LVU483
 568:lvgl/src/core/lv_indev.c ****             }
 1532              		.loc 1 568 20 is_stmt 0 view .LVU484
 1533 00d8 201D     		adds	r0, r4, #4
 1534 00da FFF7FEFF 		bl	indev_reset_check
 1535              	.LVL131:
 568:lvgl/src/core/lv_indev.c ****             }
 1536              		.loc 1 568 19 discriminator 1 view .LVU485
 1537 00de 0028     		cmp	r0, #0
 1538 00e0 C3D0     		beq	.L101
 1539 00e2 CAE7     		b	.L87
 1540              	.LVL132:
 1541              	.L145:
 565:lvgl/src/core/lv_indev.c ****             if(lv_group_get_editing(g) == true || editable_or_scrollable == false) {
 1542              		.loc 1 565 43 view .LVU486
 1543 00e4 1021     		movs	r1, #16
 1544 00e6 6E4B     		ldr	r3, .L155
 1545 00e8 1868     		ldr	r0, [r3]
 1546 00ea FFF7FEFF 		bl	lv_obj_has_flag
 1547              	.LVL133:
 564:lvgl/src/core/lv_indev.c ****                                           lv_obj_has_flag(indev_obj_act, LV_OBJ_FLAG_SCROLLABLE);
 1548              		.loc 1 564 77 discriminator 2 view .LVU487
 1549 00ee 08B9     		cbnz	r0, .L130
 564:lvgl/src/core/lv_indev.c ****                                           lv_obj_has_flag(indev_obj_act, LV_OBJ_FLAG_SCROLLABLE);
 1550              		.loc 1 564 77 discriminator 4 view .LVU488
 1551 00f0 0023     		movs	r3, #0
 1552 00f2 E3E7     		b	.L99
 1553              	.L130:
 564:lvgl/src/core/lv_indev.c ****                                           lv_obj_has_flag(indev_obj_act, LV_OBJ_FLAG_SCROLLABLE);
 1554              		.loc 1 564 77 discriminator 3 view .LVU489
 1555 00f4 0123     		movs	r3, #1
 1556 00f6 E1E7     		b	.L99
 1557              	.L96:
 1558              	.LBE2:
 573:lvgl/src/core/lv_indev.c ****         }
 1559              		.loc 1 573 13 is_stmt 1 view .LVU490
 573:lvgl/src/core/lv_indev.c ****         }
 1560              		.loc 1 573 17 is_stmt 0 view .LVU491
 1561 00f8 B5F90C30 		ldrsh	r3, [r5, #12]
 573:lvgl/src/core/lv_indev.c ****         }
 1562              		.loc 1 573 27 view .LVU492
 1563 00fc 013B     		subs	r3, r3, #1
 1564 00fe AB81     		strh	r3, [r5, #12]	@ movhi
 1565 0100 B3E7     		b	.L101
 1566              	.L97:
 577:lvgl/src/core/lv_indev.c ****         }
 1567              		.loc 1 577 13 is_stmt 1 view .LVU493
 577:lvgl/src/core/lv_indev.c ****         }
 1568              		.loc 1 577 17 is_stmt 0 view .LVU494
 1569 0102 B5F90C30 		ldrsh	r3, [r5, #12]
 577:lvgl/src/core/lv_indev.c ****         }
 1570              		.loc 1 577 27 view .LVU495
 1571 0106 0133     		adds	r3, r3, #1
 1572 0108 AB81     		strh	r3, [r5, #12]	@ movhi
ARM GAS  C:\usertemp\ccMJcN2s.s 			page 56


 1573 010a AEE7     		b	.L101
 1574              	.L94:
 581:lvgl/src/core/lv_indev.c **** 
 1575              		.loc 1 581 13 is_stmt 1 view .LVU496
 1576 010c 1B21     		movs	r1, #27
 1577 010e 3046     		mov	r0, r6
 1578 0110 FFF7FEFF 		bl	lv_group_send_data
 1579              	.LVL134:
 583:lvgl/src/core/lv_indev.c ****             if(indev_reset_check(&i->proc)) return;
 1580              		.loc 1 583 13 view .LVU497
 1581 0114 634B     		ldr	r3, .L155+4
 1582 0116 1A68     		ldr	r2, [r3]
 1583 0118 2021     		movs	r1, #32
 1584 011a 614B     		ldr	r3, .L155
 1585 011c 1868     		ldr	r0, [r3]
 1586 011e FFF7FEFF 		bl	lv_event_send
 1587              	.LVL135:
 584:lvgl/src/core/lv_indev.c ****         }
 1588              		.loc 1 584 13 view .LVU498
 584:lvgl/src/core/lv_indev.c ****         }
 1589              		.loc 1 584 16 is_stmt 0 view .LVU499
 1590 0122 201D     		adds	r0, r4, #4
 1591 0124 FFF7FEFF 		bl	indev_reset_check
 1592              	.LVL136:
 584:lvgl/src/core/lv_indev.c ****         }
 1593              		.loc 1 584 15 discriminator 1 view .LVU500
 1594 0128 0028     		cmp	r0, #0
 1595 012a 9ED0     		beq	.L101
 1596 012c A5E7     		b	.L87
 1597              	.L93:
 588:lvgl/src/core/lv_indev.c ****         }
 1598              		.loc 1 588 13 is_stmt 1 view .LVU501
 1599 012e 3046     		mov	r0, r6
 1600 0130 FFF7FEFF 		bl	lv_group_send_data
 1601              	.LVL137:
 1602 0134 99E7     		b	.L101
 1603              	.L142:
 592:lvgl/src/core/lv_indev.c ****         /*Long press*/
 1604              		.loc 1 592 51 is_stmt 0 discriminator 1 view .LVU502
 1605 0136 012F     		cmp	r7, #1
 1606 0138 93D1     		bne	.L102
 594:lvgl/src/core/lv_indev.c **** 
 1607              		.loc 1 594 9 is_stmt 1 view .LVU503
 594:lvgl/src/core/lv_indev.c **** 
 1608              		.loc 1 594 33 is_stmt 0 view .LVU504
 1609 013a 6379     		ldrb	r3, [r4, #5]	@ zero_extendqisi2
 594:lvgl/src/core/lv_indev.c **** 
 1610              		.loc 1 594 11 view .LVU505
 1611 013c 13F0010F 		tst	r3, #1
 1612 0140 19D0     		beq	.L146
 1613              	.L103:
 622:lvgl/src/core/lv_indev.c **** 
 1614              		.loc 1 622 14 is_stmt 1 view .LVU506
 622:lvgl/src/core/lv_indev.c **** 
 1615              		.loc 1 622 38 is_stmt 0 view .LVU507
 1616 0142 6379     		ldrb	r3, [r4, #5]	@ zero_extendqisi2
 622:lvgl/src/core/lv_indev.c **** 
ARM GAS  C:\usertemp\ccMJcN2s.s 			page 57


 1617              		.loc 1 622 16 view .LVU508
 1618 0144 13F0010F 		tst	r3, #1
 1619 0148 8FD0     		beq	.L101
 622:lvgl/src/core/lv_indev.c **** 
 1620              		.loc 1 622 46 discriminator 1 view .LVU509
 1621 014a A06C     		ldr	r0, [r4, #72]
 1622 014c FFF7FEFF 		bl	lv_tick_elaps
 1623              	.LVL138:
 622:lvgl/src/core/lv_indev.c **** 
 1624              		.loc 1 622 93 discriminator 1 view .LVU510
 1625 0150 2368     		ldr	r3, [r4]
 622:lvgl/src/core/lv_indev.c **** 
 1626              		.loc 1 622 101 discriminator 1 view .LVU511
 1627 0152 DB8B     		ldrh	r3, [r3, #30]
 622:lvgl/src/core/lv_indev.c **** 
 1628              		.loc 1 622 43 discriminator 1 view .LVU512
 1629 0154 9842     		cmp	r0, r3
 1630 0156 88D9     		bls	.L101
 624:lvgl/src/core/lv_indev.c **** 
 1631              		.loc 1 624 13 is_stmt 1 view .LVU513
 624:lvgl/src/core/lv_indev.c **** 
 1632              		.loc 1 624 44 is_stmt 0 view .LVU514
 1633 0158 FFF7FEFF 		bl	lv_tick_get
 1634              	.LVL139:
 624:lvgl/src/core/lv_indev.c **** 
 1635              		.loc 1 624 42 discriminator 1 view .LVU515
 1636 015c A064     		str	r0, [r4, #72]
 626:lvgl/src/core/lv_indev.c ****                 lv_event_send(indev_obj_act, LV_EVENT_LONG_PRESSED_REPEAT, indev_act);
 1637              		.loc 1 626 13 is_stmt 1 view .LVU516
 626:lvgl/src/core/lv_indev.c ****                 lv_event_send(indev_obj_act, LV_EVENT_LONG_PRESSED_REPEAT, indev_act);
 1638              		.loc 1 626 20 is_stmt 0 view .LVU517
 1639 015e 6968     		ldr	r1, [r5, #4]
 626:lvgl/src/core/lv_indev.c ****                 lv_event_send(indev_obj_act, LV_EVENT_LONG_PRESSED_REPEAT, indev_act);
 1640              		.loc 1 626 15 view .LVU518
 1641 0160 0A29     		cmp	r1, #10
 1642 0162 4AD0     		beq	.L147
 630:lvgl/src/core/lv_indev.c ****                 /*emulate encoder left*/
 1643              		.loc 1 630 18 is_stmt 1 view .LVU519
 630:lvgl/src/core/lv_indev.c ****                 /*emulate encoder left*/
 1644              		.loc 1 630 20 is_stmt 0 view .LVU520
 1645 0164 1429     		cmp	r1, #20
 1646 0166 56D0     		beq	.L148
 634:lvgl/src/core/lv_indev.c ****                 /*emulate encoder right*/
 1647              		.loc 1 634 18 is_stmt 1 view .LVU521
 634:lvgl/src/core/lv_indev.c ****                 /*emulate encoder right*/
 1648              		.loc 1 634 20 is_stmt 0 view .LVU522
 1649 0168 1329     		cmp	r1, #19
 1650 016a 59D1     		bne	.L110
 636:lvgl/src/core/lv_indev.c ****             }
 1651              		.loc 1 636 17 is_stmt 1 view .LVU523
 636:lvgl/src/core/lv_indev.c ****             }
 1652              		.loc 1 636 21 is_stmt 0 view .LVU524
 1653 016c B5F90C30 		ldrsh	r3, [r5, #12]
 636:lvgl/src/core/lv_indev.c ****             }
 1654              		.loc 1 636 31 view .LVU525
 1655 0170 0133     		adds	r3, r3, #1
 1656 0172 AB81     		strh	r3, [r5, #12]	@ movhi
ARM GAS  C:\usertemp\ccMJcN2s.s 			page 58


 1657 0174 79E7     		b	.L101
 1658              	.L146:
 594:lvgl/src/core/lv_indev.c **** 
 1659              		.loc 1 594 41 discriminator 1 view .LVU526
 1660 0176 606C     		ldr	r0, [r4, #68]
 1661 0178 FFF7FEFF 		bl	lv_tick_elaps
 1662              	.LVL140:
 594:lvgl/src/core/lv_indev.c **** 
 1663              		.loc 1 594 80 discriminator 1 view .LVU527
 1664 017c 2368     		ldr	r3, [r4]
 594:lvgl/src/core/lv_indev.c **** 
 1665              		.loc 1 594 88 discriminator 1 view .LVU528
 1666 017e 9B8B     		ldrh	r3, [r3, #28]
 594:lvgl/src/core/lv_indev.c **** 
 1667              		.loc 1 594 38 discriminator 1 view .LVU529
 1668 0180 9842     		cmp	r0, r3
 1669 0182 DED9     		bls	.L103
 596:lvgl/src/core/lv_indev.c ****             i->proc.longpr_rep_timestamp = lv_tick_get();
 1670              		.loc 1 596 13 is_stmt 1 view .LVU530
 596:lvgl/src/core/lv_indev.c ****             i->proc.longpr_rep_timestamp = lv_tick_get();
 1671              		.loc 1 596 34 is_stmt 0 view .LVU531
 1672 0184 6379     		ldrb	r3, [r4, #5]	@ zero_extendqisi2
 1673 0186 43F00103 		orr	r3, r3, #1
 1674 018a 6371     		strb	r3, [r4, #5]
 597:lvgl/src/core/lv_indev.c **** 
 1675              		.loc 1 597 13 is_stmt 1 view .LVU532
 597:lvgl/src/core/lv_indev.c **** 
 1676              		.loc 1 597 44 is_stmt 0 view .LVU533
 1677 018c FFF7FEFF 		bl	lv_tick_get
 1678              	.LVL141:
 597:lvgl/src/core/lv_indev.c **** 
 1679              		.loc 1 597 42 discriminator 1 view .LVU534
 1680 0190 A064     		str	r0, [r4, #72]
 599:lvgl/src/core/lv_indev.c ****                 bool editable_or_scrollable = lv_obj_is_editable(indev_obj_act) ||
 1681              		.loc 1 599 13 is_stmt 1 view .LVU535
 599:lvgl/src/core/lv_indev.c ****                 bool editable_or_scrollable = lv_obj_is_editable(indev_obj_act) ||
 1682              		.loc 1 599 20 is_stmt 0 view .LVU536
 1683 0192 6B68     		ldr	r3, [r5, #4]
 599:lvgl/src/core/lv_indev.c ****                 bool editable_or_scrollable = lv_obj_is_editable(indev_obj_act) ||
 1684              		.loc 1 599 15 view .LVU537
 1685 0194 0A2B     		cmp	r3, #10
 1686 0196 04D0     		beq	.L149
 1687              	.L104:
 619:lvgl/src/core/lv_indev.c ****         }
 1688              		.loc 1 619 13 is_stmt 1 view .LVU538
 619:lvgl/src/core/lv_indev.c ****         }
 1689              		.loc 1 619 34 is_stmt 0 view .LVU539
 1690 0198 6379     		ldrb	r3, [r4, #5]	@ zero_extendqisi2
 1691 019a 43F00103 		orr	r3, r3, #1
 1692 019e 6371     		strb	r3, [r4, #5]
 1693 01a0 63E7     		b	.L101
 1694              	.L149:
 1695              	.LBB3:
 600:lvgl/src/core/lv_indev.c ****                                               lv_obj_has_flag(indev_obj_act, LV_OBJ_FLAG_SCROLLABLE
 1696              		.loc 1 600 17 is_stmt 1 view .LVU540
 600:lvgl/src/core/lv_indev.c ****                                               lv_obj_has_flag(indev_obj_act, LV_OBJ_FLAG_SCROLLABLE
 1697              		.loc 1 600 47 is_stmt 0 view .LVU541
ARM GAS  C:\usertemp\ccMJcN2s.s 			page 59


 1698 01a2 3F4B     		ldr	r3, .L155
 1699 01a4 1868     		ldr	r0, [r3]
 1700 01a6 FFF7FEFF 		bl	lv_obj_is_editable
 1701              	.LVL142:
 600:lvgl/src/core/lv_indev.c ****                                               lv_obj_has_flag(indev_obj_act, LV_OBJ_FLAG_SCROLLABLE
 1702              		.loc 1 600 81 discriminator 1 view .LVU542
 1703 01aa 28B9     		cbnz	r0, .L105
 601:lvgl/src/core/lv_indev.c **** 
 1704              		.loc 1 601 47 view .LVU543
 1705 01ac 1021     		movs	r1, #16
 1706 01ae 3C4B     		ldr	r3, .L155
 1707 01b0 1868     		ldr	r0, [r3]
 1708 01b2 FFF7FEFF 		bl	lv_obj_has_flag
 1709              	.LVL143:
 600:lvgl/src/core/lv_indev.c ****                                               lv_obj_has_flag(indev_obj_act, LV_OBJ_FLAG_SCROLLABLE
 1710              		.loc 1 600 81 discriminator 2 view .LVU544
 1711 01b6 98B1     		cbz	r0, .L106
 1712              	.L105:
 1713              	.LVL144:
 604:lvgl/src/core/lv_indev.c ****                     /*Don't leave edit mode if there is only one object (nowhere to navigate)*/
 1714              		.loc 1 604 17 is_stmt 1 view .LVU545
 606:lvgl/src/core/lv_indev.c ****                         LV_LOG_INFO("toggling edit mode");
 1715              		.loc 1 606 21 view .LVU546
 606:lvgl/src/core/lv_indev.c ****                         LV_LOG_INFO("toggling edit mode");
 1716              		.loc 1 606 24 is_stmt 0 view .LVU547
 1717 01b8 3046     		mov	r0, r6
 1718 01ba FFF7FEFF 		bl	lv_group_get_obj_count
 1719              	.LVL145:
 606:lvgl/src/core/lv_indev.c ****                         LV_LOG_INFO("toggling edit mode");
 1720              		.loc 1 606 23 discriminator 1 view .LVU548
 1721 01be 0128     		cmp	r0, #1
 1722 01c0 EAD9     		bls	.L104
 607:lvgl/src/core/lv_indev.c ****                         lv_group_set_editing(g, lv_group_get_editing(g) ? false : true); /*Toggle e
 1723              		.loc 1 607 25 is_stmt 1 view .LVU549
 607:lvgl/src/core/lv_indev.c ****                         lv_group_set_editing(g, lv_group_get_editing(g) ? false : true); /*Toggle e
 1724              		.loc 1 607 25 view .LVU550
 607:lvgl/src/core/lv_indev.c ****                         lv_group_set_editing(g, lv_group_get_editing(g) ? false : true); /*Toggle e
 1725              		.loc 1 607 25 view .LVU551
 608:lvgl/src/core/lv_indev.c ****                         lv_obj_clear_state(indev_obj_act, LV_STATE_PRESSED);    /*Remove the presse
 1726              		.loc 1 608 25 view .LVU552
 608:lvgl/src/core/lv_indev.c ****                         lv_obj_clear_state(indev_obj_act, LV_STATE_PRESSED);    /*Remove the presse
 1727              		.loc 1 608 49 is_stmt 0 view .LVU553
 1728 01c2 3046     		mov	r0, r6
 1729 01c4 FFF7FEFF 		bl	lv_group_get_editing
 1730              	.LVL146:
 608:lvgl/src/core/lv_indev.c ****                         lv_obj_clear_state(indev_obj_act, LV_STATE_PRESSED);    /*Remove the presse
 1731              		.loc 1 608 25 discriminator 1 view .LVU554
 1732 01c8 80F00101 		eor	r1, r0, #1
 1733 01cc C9B2     		uxtb	r1, r1
 1734 01ce 3046     		mov	r0, r6
 1735 01d0 FFF7FEFF 		bl	lv_group_set_editing
 1736              	.LVL147:
 609:lvgl/src/core/lv_indev.c ****                     }
 1737              		.loc 1 609 25 is_stmt 1 view .LVU555
 1738 01d4 2021     		movs	r1, #32
 1739 01d6 324B     		ldr	r3, .L155
 1740 01d8 1868     		ldr	r0, [r3]
ARM GAS  C:\usertemp\ccMJcN2s.s 			page 60


 1741 01da FFF7FEFF 		bl	lv_obj_clear_state
 1742              	.LVL148:
 1743 01de DBE7     		b	.L104
 1744              	.LVL149:
 1745              	.L106:
 604:lvgl/src/core/lv_indev.c ****                     /*Don't leave edit mode if there is only one object (nowhere to navigate)*/
 1746              		.loc 1 604 17 view .LVU556
 614:lvgl/src/core/lv_indev.c ****                     if(indev_reset_check(&i->proc)) return;
 1747              		.loc 1 614 21 view .LVU557
 1748 01e0 304B     		ldr	r3, .L155+4
 1749 01e2 1A68     		ldr	r2, [r3]
 1750 01e4 0521     		movs	r1, #5
 1751 01e6 2E4B     		ldr	r3, .L155
 1752 01e8 1868     		ldr	r0, [r3]
 1753 01ea FFF7FEFF 		bl	lv_event_send
 1754              	.LVL150:
 615:lvgl/src/core/lv_indev.c ****                 }
 1755              		.loc 1 615 21 view .LVU558
 615:lvgl/src/core/lv_indev.c ****                 }
 1756              		.loc 1 615 24 is_stmt 0 view .LVU559
 1757 01ee 201D     		adds	r0, r4, #4
 1758 01f0 FFF7FEFF 		bl	indev_reset_check
 1759              	.LVL151:
 615:lvgl/src/core/lv_indev.c ****                 }
 1760              		.loc 1 615 23 discriminator 1 view .LVU560
 1761 01f4 0028     		cmp	r0, #0
 1762 01f6 CFD0     		beq	.L104
 1763 01f8 3FE7     		b	.L87
 1764              	.LVL152:
 1765              	.L147:
 615:lvgl/src/core/lv_indev.c ****                 }
 1766              		.loc 1 615 23 discriminator 1 view .LVU561
 1767              	.LBE3:
 627:lvgl/src/core/lv_indev.c ****                 if(indev_reset_check(&i->proc)) return;
 1768              		.loc 1 627 17 is_stmt 1 view .LVU562
 1769 01fa 2A4B     		ldr	r3, .L155+4
 1770 01fc 1A68     		ldr	r2, [r3]
 1771 01fe 0621     		movs	r1, #6
 1772 0200 274B     		ldr	r3, .L155
 1773 0202 1868     		ldr	r0, [r3]
 1774 0204 FFF7FEFF 		bl	lv_event_send
 1775              	.LVL153:
 628:lvgl/src/core/lv_indev.c ****             }
 1776              		.loc 1 628 17 view .LVU563
 628:lvgl/src/core/lv_indev.c ****             }
 1777              		.loc 1 628 20 is_stmt 0 view .LVU564
 1778 0208 201D     		adds	r0, r4, #4
 1779 020a FFF7FEFF 		bl	indev_reset_check
 1780              	.LVL154:
 628:lvgl/src/core/lv_indev.c ****             }
 1781              		.loc 1 628 19 discriminator 1 view .LVU565
 1782 020e 0028     		cmp	r0, #0
 1783 0210 3FF42BAF 		beq	.L101
 1784 0214 31E7     		b	.L87
 1785              	.L148:
 632:lvgl/src/core/lv_indev.c ****             }
 1786              		.loc 1 632 17 is_stmt 1 view .LVU566
ARM GAS  C:\usertemp\ccMJcN2s.s 			page 61


 632:lvgl/src/core/lv_indev.c ****             }
 1787              		.loc 1 632 21 is_stmt 0 view .LVU567
 1788 0216 B5F90C30 		ldrsh	r3, [r5, #12]
 632:lvgl/src/core/lv_indev.c ****             }
 1789              		.loc 1 632 31 view .LVU568
 1790 021a 013B     		subs	r3, r3, #1
 1791 021c AB81     		strh	r3, [r5, #12]	@ movhi
 1792 021e 24E7     		b	.L101
 1793              	.L110:
 639:lvgl/src/core/lv_indev.c ****                 if(indev_reset_check(&i->proc)) return;
 1794              		.loc 1 639 17 is_stmt 1 view .LVU569
 1795 0220 3046     		mov	r0, r6
 1796 0222 FFF7FEFF 		bl	lv_group_send_data
 1797              	.LVL155:
 640:lvgl/src/core/lv_indev.c ****             }
 1798              		.loc 1 640 17 view .LVU570
 640:lvgl/src/core/lv_indev.c ****             }
 1799              		.loc 1 640 20 is_stmt 0 view .LVU571
 1800 0226 201D     		adds	r0, r4, #4
 1801 0228 FFF7FEFF 		bl	indev_reset_check
 1802              	.LVL156:
 640:lvgl/src/core/lv_indev.c ****             }
 1803              		.loc 1 640 19 discriminator 1 view .LVU572
 1804 022c 0028     		cmp	r0, #0
 1805 022e 3FF41CAF 		beq	.L101
 1806 0232 22E7     		b	.L87
 1807              	.L143:
 648:lvgl/src/core/lv_indev.c **** 
 1808              		.loc 1 648 9 is_stmt 1 view .LVU573
 648:lvgl/src/core/lv_indev.c **** 
 1809              		.loc 1 648 9 view .LVU574
 648:lvgl/src/core/lv_indev.c **** 
 1810              		.loc 1 648 9 view .LVU575
 650:lvgl/src/core/lv_indev.c ****             bool editable_or_scrollable = lv_obj_is_editable(indev_obj_act) ||
 1811              		.loc 1 650 9 view .LVU576
 650:lvgl/src/core/lv_indev.c ****             bool editable_or_scrollable = lv_obj_is_editable(indev_obj_act) ||
 1812              		.loc 1 650 16 is_stmt 0 view .LVU577
 1813 0234 6B68     		ldr	r3, [r5, #4]
 650:lvgl/src/core/lv_indev.c ****             bool editable_or_scrollable = lv_obj_is_editable(indev_obj_act) ||
 1814              		.loc 1 650 11 view .LVU578
 1815 0236 0A2B     		cmp	r3, #10
 1816 0238 06D0     		beq	.L150
 1817              	.LVL157:
 1818              	.L111:
 694:lvgl/src/core/lv_indev.c ****         i->proc.long_pr_sent = 0;
 1819              		.loc 1 694 9 is_stmt 1 view .LVU579
 694:lvgl/src/core/lv_indev.c ****         i->proc.long_pr_sent = 0;
 1820              		.loc 1 694 30 is_stmt 0 view .LVU580
 1821 023a 0022     		movs	r2, #0
 1822 023c 6264     		str	r2, [r4, #68]
 695:lvgl/src/core/lv_indev.c ****     }
 1823              		.loc 1 695 9 is_stmt 1 view .LVU581
 695:lvgl/src/core/lv_indev.c ****     }
 1824              		.loc 1 695 30 is_stmt 0 view .LVU582
 1825 023e 6379     		ldrb	r3, [r4, #5]	@ zero_extendqisi2
 1826 0240 62F30003 		bfi	r3, r2, #0, #1
 1827 0244 6371     		strb	r3, [r4, #5]
ARM GAS  C:\usertemp\ccMJcN2s.s 			page 62


 1828 0246 10E7     		b	.L101
 1829              	.LVL158:
 1830              	.L150:
 1831              	.LBB4:
 651:lvgl/src/core/lv_indev.c ****                                           lv_obj_has_flag(indev_obj_act, LV_OBJ_FLAG_SCROLLABLE);
 1832              		.loc 1 651 13 is_stmt 1 view .LVU583
 651:lvgl/src/core/lv_indev.c ****                                           lv_obj_has_flag(indev_obj_act, LV_OBJ_FLAG_SCROLLABLE);
 1833              		.loc 1 651 43 is_stmt 0 view .LVU584
 1834 0248 FFF7FEFF 		bl	lv_obj_is_editable
 1835              	.LVL159:
 651:lvgl/src/core/lv_indev.c ****                                           lv_obj_has_flag(indev_obj_act, LV_OBJ_FLAG_SCROLLABLE);
 1836              		.loc 1 651 77 discriminator 1 view .LVU585
 1837 024c 60B3     		cbz	r0, .L151
 651:lvgl/src/core/lv_indev.c ****                                           lv_obj_has_flag(indev_obj_act, LV_OBJ_FLAG_SCROLLABLE);
 1838              		.loc 1 651 77 discriminator 3 view .LVU586
 1839 024e 0123     		movs	r3, #1
 1840              	.L112:
 1841              	.LVL160:
 655:lvgl/src/core/lv_indev.c ****                 lv_event_send(indev_obj_act, LV_EVENT_RELEASED, indev_act);
 1842              		.loc 1 655 13 is_stmt 1 view .LVU587
 655:lvgl/src/core/lv_indev.c ****                 lv_event_send(indev_obj_act, LV_EVENT_RELEASED, indev_act);
 1843              		.loc 1 655 15 is_stmt 0 view .LVU588
 1844 0250 002B     		cmp	r3, #0
 1845 0252 3BD1     		bne	.L113
 656:lvgl/src/core/lv_indev.c ****                 if(indev_reset_check(&i->proc)) return;
 1846              		.loc 1 656 17 is_stmt 1 view .LVU589
 1847 0254 134B     		ldr	r3, .L155+4
 1848              	.LVL161:
 656:lvgl/src/core/lv_indev.c ****                 if(indev_reset_check(&i->proc)) return;
 1849              		.loc 1 656 17 is_stmt 0 view .LVU590
 1850 0256 1A68     		ldr	r2, [r3]
 1851 0258 0821     		movs	r1, #8
 1852 025a 114B     		ldr	r3, .L155
 1853 025c 1868     		ldr	r0, [r3]
 1854 025e FFF7FEFF 		bl	lv_event_send
 1855              	.LVL162:
 657:lvgl/src/core/lv_indev.c **** 
 1856              		.loc 1 657 17 is_stmt 1 view .LVU591
 657:lvgl/src/core/lv_indev.c **** 
 1857              		.loc 1 657 20 is_stmt 0 view .LVU592
 1858 0262 271D     		adds	r7, r4, #4
 1859              	.LVL163:
 657:lvgl/src/core/lv_indev.c **** 
 1860              		.loc 1 657 20 view .LVU593
 1861 0264 3846     		mov	r0, r7
 1862 0266 FFF7FEFF 		bl	indev_reset_check
 1863              	.LVL164:
 657:lvgl/src/core/lv_indev.c **** 
 1864              		.loc 1 657 19 discriminator 1 view .LVU594
 1865 026a 0028     		cmp	r0, #0
 1866 026c 7FF405AF 		bne	.L87
 659:lvgl/src/core/lv_indev.c ****                 if(indev_reset_check(&i->proc)) return;
 1867              		.loc 1 659 17 is_stmt 1 view .LVU595
 659:lvgl/src/core/lv_indev.c ****                 if(indev_reset_check(&i->proc)) return;
 1868              		.loc 1 659 41 is_stmt 0 view .LVU596
 1869 0270 6379     		ldrb	r3, [r4, #5]	@ zero_extendqisi2
 659:lvgl/src/core/lv_indev.c ****                 if(indev_reset_check(&i->proc)) return;
ARM GAS  C:\usertemp\ccMJcN2s.s 			page 63


 1870              		.loc 1 659 19 view .LVU597
 1871 0272 13F0010F 		tst	r3, #1
 1872 0276 21D0     		beq	.L152
 1873              	.L114:
 660:lvgl/src/core/lv_indev.c **** 
 1874              		.loc 1 660 17 is_stmt 1 view .LVU598
 660:lvgl/src/core/lv_indev.c **** 
 1875              		.loc 1 660 20 is_stmt 0 view .LVU599
 1876 0278 3846     		mov	r0, r7
 1877 027a FFF7FEFF 		bl	indev_reset_check
 1878              	.LVL165:
 660:lvgl/src/core/lv_indev.c **** 
 1879              		.loc 1 660 19 discriminator 1 view .LVU600
 1880 027e 0028     		cmp	r0, #0
 1881 0280 7FF4FBAE 		bne	.L87
 662:lvgl/src/core/lv_indev.c ****                 if(indev_reset_check(&i->proc)) return;
 1882              		.loc 1 662 17 is_stmt 1 view .LVU601
 1883 0284 074B     		ldr	r3, .L155+4
 1884 0286 1A68     		ldr	r2, [r3]
 1885 0288 0721     		movs	r1, #7
 1886 028a 054B     		ldr	r3, .L155
 1887 028c 1868     		ldr	r0, [r3]
 1888 028e FFF7FEFF 		bl	lv_event_send
 1889              	.LVL166:
 663:lvgl/src/core/lv_indev.c **** 
 1890              		.loc 1 663 17 view .LVU602
 663:lvgl/src/core/lv_indev.c **** 
 1891              		.loc 1 663 20 is_stmt 0 view .LVU603
 1892 0292 3846     		mov	r0, r7
 1893 0294 FFF7FEFF 		bl	indev_reset_check
 1894              	.LVL167:
 663:lvgl/src/core/lv_indev.c **** 
 1895              		.loc 1 663 19 discriminator 1 view .LVU604
 1896 0298 0028     		cmp	r0, #0
 1897 029a CED0     		beq	.L111
 1898 029c EDE6     		b	.L87
 1899              	.L156:
 1900 029e 00BF     		.align	2
 1901              	.L155:
 1902 02a0 00000000 		.word	indev_obj_act
 1903 02a4 00000000 		.word	indev_act
 1904              	.LVL168:
 1905              	.L151:
 652:lvgl/src/core/lv_indev.c **** 
 1906              		.loc 1 652 43 view .LVU605
 1907 02a8 1021     		movs	r1, #16
 1908 02aa 4F4B     		ldr	r3, .L157
 1909 02ac 1868     		ldr	r0, [r3]
 1910 02ae FFF7FEFF 		bl	lv_obj_has_flag
 1911              	.LVL169:
 651:lvgl/src/core/lv_indev.c ****                                           lv_obj_has_flag(indev_obj_act, LV_OBJ_FLAG_SCROLLABLE);
 1912              		.loc 1 651 77 discriminator 2 view .LVU606
 1913 02b2 08B9     		cbnz	r0, .L132
 651:lvgl/src/core/lv_indev.c ****                                           lv_obj_has_flag(indev_obj_act, LV_OBJ_FLAG_SCROLLABLE);
 1914              		.loc 1 651 77 discriminator 4 view .LVU607
 1915 02b4 0023     		movs	r3, #0
 1916 02b6 CBE7     		b	.L112
ARM GAS  C:\usertemp\ccMJcN2s.s 			page 64


 1917              	.L132:
 651:lvgl/src/core/lv_indev.c ****                                           lv_obj_has_flag(indev_obj_act, LV_OBJ_FLAG_SCROLLABLE);
 1918              		.loc 1 651 77 discriminator 3 view .LVU608
 1919 02b8 0123     		movs	r3, #1
 1920 02ba C9E7     		b	.L112
 1921              	.LVL170:
 1922              	.L152:
 659:lvgl/src/core/lv_indev.c ****                 if(indev_reset_check(&i->proc)) return;
 1923              		.loc 1 659 47 is_stmt 1 discriminator 1 view .LVU609
 1924 02bc 4B4B     		ldr	r3, .L157+4
 1925 02be 1A68     		ldr	r2, [r3]
 1926 02c0 0421     		movs	r1, #4
 1927 02c2 494B     		ldr	r3, .L157
 1928 02c4 1868     		ldr	r0, [r3]
 1929 02c6 FFF7FEFF 		bl	lv_event_send
 1930              	.LVL171:
 1931 02ca D5E7     		b	.L114
 1932              	.LVL172:
 1933              	.L113:
 667:lvgl/src/core/lv_indev.c ****                 /*Ignore long pressed enter release because it comes from mode switch*/
 1934              		.loc 1 667 18 view .LVU610
 667:lvgl/src/core/lv_indev.c ****                 /*Ignore long pressed enter release because it comes from mode switch*/
 1935              		.loc 1 667 21 is_stmt 0 view .LVU611
 1936 02cc 3046     		mov	r0, r6
 1937 02ce FFF7FEFF 		bl	lv_group_get_editing
 1938              	.LVL173:
 667:lvgl/src/core/lv_indev.c ****                 /*Ignore long pressed enter release because it comes from mode switch*/
 1939              		.loc 1 667 20 discriminator 1 view .LVU612
 1940 02d2 0028     		cmp	r0, #0
 1941 02d4 3BD0     		beq	.L115
 669:lvgl/src/core/lv_indev.c ****                     lv_event_send(indev_obj_act, LV_EVENT_RELEASED, indev_act);
 1942              		.loc 1 669 17 is_stmt 1 view .LVU613
 669:lvgl/src/core/lv_indev.c ****                     lv_event_send(indev_obj_act, LV_EVENT_RELEASED, indev_act);
 1943              		.loc 1 669 20 is_stmt 0 view .LVU614
 1944 02d6 6379     		ldrb	r3, [r4, #5]	@ zero_extendqisi2
 669:lvgl/src/core/lv_indev.c ****                     lv_event_send(indev_obj_act, LV_EVENT_RELEASED, indev_act);
 1945              		.loc 1 669 19 view .LVU615
 1946 02d8 13F0010F 		tst	r3, #1
 1947 02dc 04D0     		beq	.L116
 669:lvgl/src/core/lv_indev.c ****                     lv_event_send(indev_obj_act, LV_EVENT_RELEASED, indev_act);
 1948              		.loc 1 669 45 discriminator 1 view .LVU616
 1949 02de 3046     		mov	r0, r6
 1950 02e0 FFF7FEFF 		bl	lv_group_get_obj_count
 1951              	.LVL174:
 669:lvgl/src/core/lv_indev.c ****                     lv_event_send(indev_obj_act, LV_EVENT_RELEASED, indev_act);
 1952              		.loc 1 669 42 discriminator 1 view .LVU617
 1953 02e4 0128     		cmp	r0, #1
 1954 02e6 2CD8     		bhi	.L117
 1955              	.L116:
 670:lvgl/src/core/lv_indev.c ****                     if(indev_reset_check(&i->proc)) return;
 1956              		.loc 1 670 21 is_stmt 1 view .LVU618
 1957 02e8 404B     		ldr	r3, .L157+4
 1958 02ea 1A68     		ldr	r2, [r3]
 1959 02ec 0821     		movs	r1, #8
 1960 02ee 3E4B     		ldr	r3, .L157
 1961 02f0 1868     		ldr	r0, [r3]
 1962 02f2 FFF7FEFF 		bl	lv_event_send
ARM GAS  C:\usertemp\ccMJcN2s.s 			page 65


 1963              	.LVL175:
 671:lvgl/src/core/lv_indev.c **** 
 1964              		.loc 1 671 21 view .LVU619
 671:lvgl/src/core/lv_indev.c **** 
 1965              		.loc 1 671 24 is_stmt 0 view .LVU620
 1966 02f6 271D     		adds	r7, r4, #4
 1967              	.LVL176:
 671:lvgl/src/core/lv_indev.c **** 
 1968              		.loc 1 671 24 view .LVU621
 1969 02f8 3846     		mov	r0, r7
 1970 02fa FFF7FEFF 		bl	indev_reset_check
 1971              	.LVL177:
 671:lvgl/src/core/lv_indev.c **** 
 1972              		.loc 1 671 23 discriminator 1 view .LVU622
 1973 02fe 0028     		cmp	r0, #0
 1974 0300 7FF4BBAE 		bne	.L87
 673:lvgl/src/core/lv_indev.c ****                     if(indev_reset_check(&i->proc)) return;
 1975              		.loc 1 673 21 is_stmt 1 view .LVU623
 1976 0304 394B     		ldr	r3, .L157+4
 1977 0306 1A68     		ldr	r2, [r3]
 1978 0308 0421     		movs	r1, #4
 1979 030a 374B     		ldr	r3, .L157
 1980 030c 1868     		ldr	r0, [r3]
 1981 030e FFF7FEFF 		bl	lv_event_send
 1982              	.LVL178:
 674:lvgl/src/core/lv_indev.c **** 
 1983              		.loc 1 674 21 view .LVU624
 674:lvgl/src/core/lv_indev.c **** 
 1984              		.loc 1 674 24 is_stmt 0 view .LVU625
 1985 0312 3846     		mov	r0, r7
 1986 0314 FFF7FEFF 		bl	indev_reset_check
 1987              	.LVL179:
 674:lvgl/src/core/lv_indev.c **** 
 1988              		.loc 1 674 23 discriminator 1 view .LVU626
 1989 0318 0028     		cmp	r0, #0
 1990 031a 7FF4AEAE 		bne	.L87
 676:lvgl/src/core/lv_indev.c ****                     if(indev_reset_check(&i->proc)) return;
 1991              		.loc 1 676 21 is_stmt 1 view .LVU627
 1992 031e 334B     		ldr	r3, .L157+4
 1993 0320 1A68     		ldr	r2, [r3]
 1994 0322 0721     		movs	r1, #7
 1995 0324 304B     		ldr	r3, .L157
 1996 0326 1868     		ldr	r0, [r3]
 1997 0328 FFF7FEFF 		bl	lv_event_send
 1998              	.LVL180:
 677:lvgl/src/core/lv_indev.c **** 
 1999              		.loc 1 677 21 view .LVU628
 677:lvgl/src/core/lv_indev.c **** 
 2000              		.loc 1 677 24 is_stmt 0 view .LVU629
 2001 032c 3846     		mov	r0, r7
 2002 032e FFF7FEFF 		bl	indev_reset_check
 2003              	.LVL181:
 677:lvgl/src/core/lv_indev.c **** 
 2004              		.loc 1 677 23 discriminator 1 view .LVU630
 2005 0332 0028     		cmp	r0, #0
 2006 0334 7FF4A1AE 		bne	.L87
 680:lvgl/src/core/lv_indev.c ****                 }
ARM GAS  C:\usertemp\ccMJcN2s.s 			page 66


 2007              		.loc 1 680 21 is_stmt 1 view .LVU631
 2008 0338 0A21     		movs	r1, #10
 2009 033a 3046     		mov	r0, r6
 2010 033c FFF7FEFF 		bl	lv_group_send_data
 2011              	.LVL182:
 2012 0340 7BE7     		b	.L111
 2013              	.LVL183:
 2014              	.L117:
 683:lvgl/src/core/lv_indev.c ****                 }
 2015              		.loc 1 683 21 view .LVU632
 2016 0342 2021     		movs	r1, #32
 2017 0344 284B     		ldr	r3, .L157
 2018 0346 1868     		ldr	r0, [r3]
 2019 0348 FFF7FEFF 		bl	lv_obj_clear_state
 2020              	.LVL184:
 2021 034c 75E7     		b	.L111
 2022              	.L115:
 688:lvgl/src/core/lv_indev.c ****                 LV_LOG_INFO("entering edit mode");
 2023              		.loc 1 688 18 view .LVU633
 688:lvgl/src/core/lv_indev.c ****                 LV_LOG_INFO("entering edit mode");
 2024              		.loc 1 688 21 is_stmt 0 view .LVU634
 2025 034e 6379     		ldrb	r3, [r4, #5]	@ zero_extendqisi2
 688:lvgl/src/core/lv_indev.c ****                 LV_LOG_INFO("entering edit mode");
 2026              		.loc 1 688 20 view .LVU635
 2027 0350 13F0010F 		tst	r3, #1
 2028 0354 7FF471AF 		bne	.L111
 689:lvgl/src/core/lv_indev.c ****                 lv_group_set_editing(g, true); /*Set edit mode*/
 2029              		.loc 1 689 17 is_stmt 1 view .LVU636
 689:lvgl/src/core/lv_indev.c ****                 lv_group_set_editing(g, true); /*Set edit mode*/
 2030              		.loc 1 689 17 view .LVU637
 689:lvgl/src/core/lv_indev.c ****                 lv_group_set_editing(g, true); /*Set edit mode*/
 2031              		.loc 1 689 17 view .LVU638
 690:lvgl/src/core/lv_indev.c ****             }
 2032              		.loc 1 690 17 view .LVU639
 2033 0358 0121     		movs	r1, #1
 2034 035a 3046     		mov	r0, r6
 2035 035c FFF7FEFF 		bl	lv_group_set_editing
 2036              	.LVL185:
 2037 0360 6BE7     		b	.L111
 2038              	.LVL186:
 2039              	.L144:
 690:lvgl/src/core/lv_indev.c ****             }
 2040              		.loc 1 690 17 is_stmt 0 view .LVU640
 2041              	.LBE4:
 702:lvgl/src/core/lv_indev.c ****             LV_LOG_INFO("rotated by %+d (edit)", data->enc_diff);
 2042              		.loc 1 702 9 is_stmt 1 view .LVU641
 702:lvgl/src/core/lv_indev.c ****             LV_LOG_INFO("rotated by %+d (edit)", data->enc_diff);
 2043              		.loc 1 702 12 is_stmt 0 view .LVU642
 2044 0362 3046     		mov	r0, r6
 2045 0364 FFF7FEFF 		bl	lv_group_get_editing
 2046              	.LVL187:
 702:lvgl/src/core/lv_indev.c ****             LV_LOG_INFO("rotated by %+d (edit)", data->enc_diff);
 2047              		.loc 1 702 11 discriminator 1 view .LVU643
 2048 0368 F8B1     		cbz	r0, .L118
 2049              	.LBB5:
 703:lvgl/src/core/lv_indev.c ****             int32_t s;
 2050              		.loc 1 703 13 is_stmt 1 view .LVU644
ARM GAS  C:\usertemp\ccMJcN2s.s 			page 67


 703:lvgl/src/core/lv_indev.c ****             int32_t s;
 2051              		.loc 1 703 13 view .LVU645
 703:lvgl/src/core/lv_indev.c ****             int32_t s;
 2052              		.loc 1 703 13 view .LVU646
 704:lvgl/src/core/lv_indev.c ****             if(data->enc_diff < 0) {
 2053              		.loc 1 704 13 view .LVU647
 705:lvgl/src/core/lv_indev.c ****                 for(s = 0; s < -data->enc_diff; s++) lv_group_send_data(g, LV_KEY_LEFT);
 2054              		.loc 1 705 13 view .LVU648
 705:lvgl/src/core/lv_indev.c ****                 for(s = 0; s < -data->enc_diff; s++) lv_group_send_data(g, LV_KEY_LEFT);
 2055              		.loc 1 705 20 is_stmt 0 view .LVU649
 2056 036a B5F90C30 		ldrsh	r3, [r5, #12]
 705:lvgl/src/core/lv_indev.c ****                 for(s = 0; s < -data->enc_diff; s++) lv_group_send_data(g, LV_KEY_LEFT);
 2057              		.loc 1 705 15 view .LVU650
 2058 036e 002B     		cmp	r3, #0
 2059 0370 0FDB     		blt	.L153
 708:lvgl/src/core/lv_indev.c ****                 for(s = 0; s < data->enc_diff; s++) lv_group_send_data(g, LV_KEY_RIGHT);
 2060              		.loc 1 708 18 is_stmt 1 view .LVU651
 708:lvgl/src/core/lv_indev.c ****                 for(s = 0; s < data->enc_diff; s++) lv_group_send_data(g, LV_KEY_RIGHT);
 2061              		.loc 1 708 20 is_stmt 0 view .LVU652
 2062 0372 002B     		cmp	r3, #0
 2063 0374 7FF781AE 		ble	.L87
 709:lvgl/src/core/lv_indev.c ****             }
 2064              		.loc 1 709 23 view .LVU653
 2065 0378 0024     		movs	r4, #0
 2066              	.LVL188:
 709:lvgl/src/core/lv_indev.c ****             }
 2067              		.loc 1 709 23 view .LVU654
 2068 037a 11E0     		b	.L122
 2069              	.LVL189:
 2070              	.L121:
 706:lvgl/src/core/lv_indev.c ****             }
 2071              		.loc 1 706 54 is_stmt 1 discriminator 3 view .LVU655
 2072 037c 1421     		movs	r1, #20
 2073 037e 3046     		mov	r0, r6
 2074 0380 FFF7FEFF 		bl	lv_group_send_data
 2075              	.LVL190:
 706:lvgl/src/core/lv_indev.c ****             }
 2076              		.loc 1 706 50 discriminator 3 view .LVU656
 2077 0384 0134     		adds	r4, r4, #1
 2078              	.LVL191:
 2079              	.L119:
 706:lvgl/src/core/lv_indev.c ****             }
 2080              		.loc 1 706 30 discriminator 2 view .LVU657
 706:lvgl/src/core/lv_indev.c ****             }
 2081              		.loc 1 706 37 is_stmt 0 discriminator 2 view .LVU658
 2082 0386 B5F90C30 		ldrsh	r3, [r5, #12]
 706:lvgl/src/core/lv_indev.c ****             }
 2083              		.loc 1 706 32 discriminator 2 view .LVU659
 2084 038a 5B42     		rsbs	r3, r3, #0
 706:lvgl/src/core/lv_indev.c ****             }
 2085              		.loc 1 706 30 discriminator 2 view .LVU660
 2086 038c A342     		cmp	r3, r4
 2087 038e F5DC     		bgt	.L121
 2088 0390 73E6     		b	.L87
 2089              	.LVL192:
 2090              	.L153:
 706:lvgl/src/core/lv_indev.c ****             }
ARM GAS  C:\usertemp\ccMJcN2s.s 			page 68


 2091              		.loc 1 706 23 view .LVU661
 2092 0392 0024     		movs	r4, #0
 2093              	.LVL193:
 706:lvgl/src/core/lv_indev.c ****             }
 2094              		.loc 1 706 23 view .LVU662
 2095 0394 F7E7     		b	.L119
 2096              	.LVL194:
 2097              	.L123:
 709:lvgl/src/core/lv_indev.c ****             }
 2098              		.loc 1 709 53 is_stmt 1 discriminator 3 view .LVU663
 2099 0396 1321     		movs	r1, #19
 2100 0398 3046     		mov	r0, r6
 2101 039a FFF7FEFF 		bl	lv_group_send_data
 2102              	.LVL195:
 709:lvgl/src/core/lv_indev.c ****             }
 2103              		.loc 1 709 49 discriminator 3 view .LVU664
 2104 039e 0134     		adds	r4, r4, #1
 2105              	.LVL196:
 2106              	.L122:
 709:lvgl/src/core/lv_indev.c ****             }
 2107              		.loc 1 709 30 discriminator 2 view .LVU665
 709:lvgl/src/core/lv_indev.c ****             }
 2108              		.loc 1 709 36 is_stmt 0 discriminator 2 view .LVU666
 2109 03a0 B5F90C30 		ldrsh	r3, [r5, #12]
 709:lvgl/src/core/lv_indev.c ****             }
 2110              		.loc 1 709 30 discriminator 2 view .LVU667
 2111 03a4 A342     		cmp	r3, r4
 2112 03a6 F6DC     		bgt	.L123
 2113 03a8 67E6     		b	.L87
 2114              	.LVL197:
 2115              	.L118:
 709:lvgl/src/core/lv_indev.c ****             }
 2116              		.loc 1 709 30 discriminator 2 view .LVU668
 2117              	.LBE5:
 2118              	.LBB6:
 714:lvgl/src/core/lv_indev.c ****             int32_t s;
 2119              		.loc 1 714 13 is_stmt 1 view .LVU669
 714:lvgl/src/core/lv_indev.c ****             int32_t s;
 2120              		.loc 1 714 13 view .LVU670
 714:lvgl/src/core/lv_indev.c ****             int32_t s;
 2121              		.loc 1 714 13 view .LVU671
 715:lvgl/src/core/lv_indev.c ****             if(data->enc_diff < 0) {
 2122              		.loc 1 715 13 view .LVU672
 716:lvgl/src/core/lv_indev.c ****                 for(s = 0; s < -data->enc_diff; s++) lv_group_focus_prev(g);
 2123              		.loc 1 716 13 view .LVU673
 716:lvgl/src/core/lv_indev.c ****                 for(s = 0; s < -data->enc_diff; s++) lv_group_focus_prev(g);
 2124              		.loc 1 716 20 is_stmt 0 view .LVU674
 2125 03aa B5F90C30 		ldrsh	r3, [r5, #12]
 716:lvgl/src/core/lv_indev.c ****                 for(s = 0; s < -data->enc_diff; s++) lv_group_focus_prev(g);
 2126              		.loc 1 716 15 view .LVU675
 2127 03ae 002B     		cmp	r3, #0
 2128 03b0 0EDB     		blt	.L154
 719:lvgl/src/core/lv_indev.c ****                 for(s = 0; s < data->enc_diff; s++) lv_group_focus_next(g);
 2129              		.loc 1 719 18 is_stmt 1 view .LVU676
 719:lvgl/src/core/lv_indev.c ****                 for(s = 0; s < data->enc_diff; s++) lv_group_focus_next(g);
 2130              		.loc 1 719 20 is_stmt 0 view .LVU677
 2131 03b2 002B     		cmp	r3, #0
ARM GAS  C:\usertemp\ccMJcN2s.s 			page 69


 2132 03b4 7FF761AE 		ble	.L87
 720:lvgl/src/core/lv_indev.c ****             }
 2133              		.loc 1 720 23 view .LVU678
 2134 03b8 0024     		movs	r4, #0
 2135              	.LVL198:
 720:lvgl/src/core/lv_indev.c ****             }
 2136              		.loc 1 720 23 view .LVU679
 2137 03ba 0FE0     		b	.L127
 2138              	.LVL199:
 2139              	.L126:
 717:lvgl/src/core/lv_indev.c ****             }
 2140              		.loc 1 717 54 is_stmt 1 discriminator 3 view .LVU680
 2141 03bc 3046     		mov	r0, r6
 2142 03be FFF7FEFF 		bl	lv_group_focus_prev
 2143              	.LVL200:
 717:lvgl/src/core/lv_indev.c ****             }
 2144              		.loc 1 717 50 discriminator 3 view .LVU681
 2145 03c2 0134     		adds	r4, r4, #1
 2146              	.LVL201:
 2147              	.L124:
 717:lvgl/src/core/lv_indev.c ****             }
 2148              		.loc 1 717 30 discriminator 2 view .LVU682
 717:lvgl/src/core/lv_indev.c ****             }
 2149              		.loc 1 717 37 is_stmt 0 discriminator 2 view .LVU683
 2150 03c4 B5F90C30 		ldrsh	r3, [r5, #12]
 717:lvgl/src/core/lv_indev.c ****             }
 2151              		.loc 1 717 32 discriminator 2 view .LVU684
 2152 03c8 5B42     		rsbs	r3, r3, #0
 717:lvgl/src/core/lv_indev.c ****             }
 2153              		.loc 1 717 30 discriminator 2 view .LVU685
 2154 03ca A342     		cmp	r3, r4
 2155 03cc F6DC     		bgt	.L126
 2156 03ce 54E6     		b	.L87
 2157              	.LVL202:
 2158              	.L154:
 717:lvgl/src/core/lv_indev.c ****             }
 2159              		.loc 1 717 23 view .LVU686
 2160 03d0 0024     		movs	r4, #0
 2161              	.LVL203:
 717:lvgl/src/core/lv_indev.c ****             }
 2162              		.loc 1 717 23 view .LVU687
 2163 03d2 F7E7     		b	.L124
 2164              	.LVL204:
 2165              	.L128:
 720:lvgl/src/core/lv_indev.c ****             }
 2166              		.loc 1 720 53 is_stmt 1 discriminator 3 view .LVU688
 2167 03d4 3046     		mov	r0, r6
 2168 03d6 FFF7FEFF 		bl	lv_group_focus_next
 2169              	.LVL205:
 720:lvgl/src/core/lv_indev.c ****             }
 2170              		.loc 1 720 49 discriminator 3 view .LVU689
 2171 03da 0134     		adds	r4, r4, #1
 2172              	.LVL206:
 2173              	.L127:
 720:lvgl/src/core/lv_indev.c ****             }
 2174              		.loc 1 720 30 discriminator 2 view .LVU690
 720:lvgl/src/core/lv_indev.c ****             }
ARM GAS  C:\usertemp\ccMJcN2s.s 			page 70


 2175              		.loc 1 720 36 is_stmt 0 discriminator 2 view .LVU691
 2176 03dc B5F90C30 		ldrsh	r3, [r5, #12]
 720:lvgl/src/core/lv_indev.c ****             }
 2177              		.loc 1 720 30 discriminator 2 view .LVU692
 2178 03e0 A342     		cmp	r3, r4
 2179 03e2 F7DC     		bgt	.L128
 2180 03e4 49E6     		b	.L87
 2181              	.L158:
 2182 03e6 00BF     		.align	2
 2183              	.L157:
 2184 03e8 00000000 		.word	indev_obj_act
 2185 03ec 00000000 		.word	indev_act
 2186              	.LBE6:
 2187              		.cfi_endproc
 2188              	.LFE183:
 2190              		.section	.text.lv_indev_enable,"ax",%progbits
 2191              		.align	1
 2192              		.global	lv_indev_enable
 2193              		.syntax unified
 2194              		.thumb
 2195              		.thumb_func
 2197              	lv_indev_enable:
 2198              	.LVL207:
 2199              	.LFB163:
 123:lvgl/src/core/lv_indev.c ****     if(!indev) return;
 2200              		.loc 1 123 1 is_stmt 1 view -0
 2201              		.cfi_startproc
 2202              		@ args = 0, pretend = 0, frame = 0
 2203              		@ frame_needed = 0, uses_anonymous_args = 0
 2204              		@ link register save eliminated.
 124:lvgl/src/core/lv_indev.c **** 
 2205              		.loc 1 124 5 view .LVU694
 124:lvgl/src/core/lv_indev.c **** 
 2206              		.loc 1 124 7 is_stmt 0 view .LVU695
 2207 0000 28B1     		cbz	r0, .L159
 126:lvgl/src/core/lv_indev.c **** }
 2208              		.loc 1 126 5 is_stmt 1 view .LVU696
 126:lvgl/src/core/lv_indev.c **** }
 2209              		.loc 1 126 35 is_stmt 0 view .LVU697
 2210 0002 81F00101 		eor	r1, r1, #1
 2211              	.LVL208:
 126:lvgl/src/core/lv_indev.c **** }
 2212              		.loc 1 126 26 view .LVU698
 2213 0006 4279     		ldrb	r2, [r0, #5]	@ zero_extendqisi2
 2214 0008 61F38202 		bfi	r2, r1, #2, #1
 2215 000c 4271     		strb	r2, [r0, #5]
 2216              	.LVL209:
 2217              	.L159:
 127:lvgl/src/core/lv_indev.c **** 
 2218              		.loc 1 127 1 view .LVU699
 2219 000e 7047     		bx	lr
 2220              		.cfi_endproc
 2221              	.LFE163:
 2223              		.section	.text.lv_indev_get_act,"ax",%progbits
 2224              		.align	1
 2225              		.global	lv_indev_get_act
 2226              		.syntax unified
ARM GAS  C:\usertemp\ccMJcN2s.s 			page 71


 2227              		.thumb
 2228              		.thumb_func
 2230              	lv_indev_get_act:
 2231              	.LFB164:
 130:lvgl/src/core/lv_indev.c ****     return indev_act;
 2232              		.loc 1 130 1 is_stmt 1 view -0
 2233              		.cfi_startproc
 2234              		@ args = 0, pretend = 0, frame = 0
 2235              		@ frame_needed = 0, uses_anonymous_args = 0
 2236              		@ link register save eliminated.
 131:lvgl/src/core/lv_indev.c **** }
 2237              		.loc 1 131 5 view .LVU701
 132:lvgl/src/core/lv_indev.c **** 
 2238              		.loc 1 132 1 is_stmt 0 view .LVU702
 2239 0000 014B     		ldr	r3, .L162
 2240 0002 1868     		ldr	r0, [r3]
 2241 0004 7047     		bx	lr
 2242              	.L163:
 2243 0006 00BF     		.align	2
 2244              	.L162:
 2245 0008 00000000 		.word	indev_act
 2246              		.cfi_endproc
 2247              	.LFE164:
 2249              		.section	.text.lv_indev_get_type,"ax",%progbits
 2250              		.align	1
 2251              		.global	lv_indev_get_type
 2252              		.syntax unified
 2253              		.thumb
 2254              		.thumb_func
 2256              	lv_indev_get_type:
 2257              	.LVL210:
 2258              	.LFB165:
 135:lvgl/src/core/lv_indev.c ****     if(indev == NULL) return LV_INDEV_TYPE_NONE;
 2259              		.loc 1 135 1 is_stmt 1 view -0
 2260              		.cfi_startproc
 2261              		@ args = 0, pretend = 0, frame = 0
 2262              		@ frame_needed = 0, uses_anonymous_args = 0
 2263              		@ link register save eliminated.
 136:lvgl/src/core/lv_indev.c **** 
 2264              		.loc 1 136 5 view .LVU704
 136:lvgl/src/core/lv_indev.c **** 
 2265              		.loc 1 136 7 is_stmt 0 view .LVU705
 2266 0000 10B1     		cbz	r0, .L166
 138:lvgl/src/core/lv_indev.c **** }
 2267              		.loc 1 138 5 is_stmt 1 view .LVU706
 138:lvgl/src/core/lv_indev.c **** }
 2268              		.loc 1 138 17 is_stmt 0 view .LVU707
 2269 0002 0368     		ldr	r3, [r0]
 138:lvgl/src/core/lv_indev.c **** }
 2270              		.loc 1 138 25 view .LVU708
 2271 0004 1878     		ldrb	r0, [r3]	@ zero_extendqisi2
 2272              	.LVL211:
 138:lvgl/src/core/lv_indev.c **** }
 2273              		.loc 1 138 25 view .LVU709
 2274 0006 7047     		bx	lr
 2275              	.LVL212:
 2276              	.L166:
ARM GAS  C:\usertemp\ccMJcN2s.s 			page 72


 136:lvgl/src/core/lv_indev.c **** 
 2277              		.loc 1 136 30 discriminator 1 view .LVU710
 2278 0008 0020     		movs	r0, #0
 2279              	.LVL213:
 139:lvgl/src/core/lv_indev.c **** 
 2280              		.loc 1 139 1 view .LVU711
 2281 000a 7047     		bx	lr
 2282              		.cfi_endproc
 2283              	.LFE165:
 2285              		.section	.text.lv_indev_reset,"ax",%progbits
 2286              		.align	1
 2287              		.global	lv_indev_reset
 2288              		.syntax unified
 2289              		.thumb
 2290              		.thumb_func
 2292              	lv_indev_reset:
 2293              	.LVL214:
 2294              	.LFB166:
 142:lvgl/src/core/lv_indev.c ****     if(indev) {
 2295              		.loc 1 142 1 is_stmt 1 view -0
 2296              		.cfi_startproc
 2297              		@ args = 0, pretend = 0, frame = 0
 2298              		@ frame_needed = 0, uses_anonymous_args = 0
 142:lvgl/src/core/lv_indev.c ****     if(indev) {
 2299              		.loc 1 142 1 is_stmt 0 view .LVU713
 2300 0000 10B5     		push	{r4, lr}
 2301              	.LCFI5:
 2302              		.cfi_def_cfa_offset 8
 2303              		.cfi_offset 4, -8
 2304              		.cfi_offset 14, -4
 2305 0002 0C46     		mov	r4, r1
 143:lvgl/src/core/lv_indev.c ****         indev->proc.reset_query = 1;
 2306              		.loc 1 143 5 is_stmt 1 view .LVU714
 143:lvgl/src/core/lv_indev.c ****         indev->proc.reset_query = 1;
 2307              		.loc 1 143 7 is_stmt 0 view .LVU715
 2308 0004 48B3     		cbz	r0, .L168
 2309 0006 0246     		mov	r2, r0
 144:lvgl/src/core/lv_indev.c ****         if(indev_act == indev) indev_obj_act = NULL;
 2310              		.loc 1 144 9 is_stmt 1 view .LVU716
 144:lvgl/src/core/lv_indev.c ****         if(indev_act == indev) indev_obj_act = NULL;
 2311              		.loc 1 144 33 is_stmt 0 view .LVU717
 2312 0008 4379     		ldrb	r3, [r0, #5]	@ zero_extendqisi2
 2313 000a 43F00203 		orr	r3, r3, #2
 2314 000e 4371     		strb	r3, [r0, #5]
 145:lvgl/src/core/lv_indev.c ****         if(indev->driver->type == LV_INDEV_TYPE_POINTER || indev->driver->type == LV_INDEV_TYPE_KEY
 2315              		.loc 1 145 9 is_stmt 1 view .LVU718
 145:lvgl/src/core/lv_indev.c ****         if(indev->driver->type == LV_INDEV_TYPE_POINTER || indev->driver->type == LV_INDEV_TYPE_KEY
 2316              		.loc 1 145 22 is_stmt 0 view .LVU719
 2317 0010 284B     		ldr	r3, .L192
 2318 0012 1B68     		ldr	r3, [r3]
 145:lvgl/src/core/lv_indev.c ****         if(indev->driver->type == LV_INDEV_TYPE_POINTER || indev->driver->type == LV_INDEV_TYPE_KEY
 2319              		.loc 1 145 11 view .LVU720
 2320 0014 8342     		cmp	r3, r0
 2321 0016 06D0     		beq	.L184
 2322              	.LVL215:
 2323              	.L169:
 146:lvgl/src/core/lv_indev.c ****             if(obj == NULL || indev->proc.types.pointer.last_pressed == obj) {
ARM GAS  C:\usertemp\ccMJcN2s.s 			page 73


 2324              		.loc 1 146 9 is_stmt 1 view .LVU721
 146:lvgl/src/core/lv_indev.c ****             if(obj == NULL || indev->proc.types.pointer.last_pressed == obj) {
 2325              		.loc 1 146 17 is_stmt 0 view .LVU722
 2326 0018 1368     		ldr	r3, [r2]
 146:lvgl/src/core/lv_indev.c ****             if(obj == NULL || indev->proc.types.pointer.last_pressed == obj) {
 2327              		.loc 1 146 25 view .LVU723
 2328 001a 1B78     		ldrb	r3, [r3]	@ zero_extendqisi2
 146:lvgl/src/core/lv_indev.c ****             if(obj == NULL || indev->proc.types.pointer.last_pressed == obj) {
 2329              		.loc 1 146 57 view .LVU724
 2330 001c 013B     		subs	r3, r3, #1
 2331 001e DBB2     		uxtb	r3, r3
 146:lvgl/src/core/lv_indev.c ****             if(obj == NULL || indev->proc.types.pointer.last_pressed == obj) {
 2332              		.loc 1 146 11 view .LVU725
 2333 0020 012B     		cmp	r3, #1
 2334 0022 04D9     		bls	.L185
 2335              	.LVL216:
 2336              	.L167:
 177:lvgl/src/core/lv_indev.c **** 
 2337              		.loc 1 177 1 view .LVU726
 2338 0024 10BD     		pop	{r4, pc}
 2339              	.LVL217:
 2340              	.L184:
 145:lvgl/src/core/lv_indev.c ****         if(indev->driver->type == LV_INDEV_TYPE_POINTER || indev->driver->type == LV_INDEV_TYPE_KEY
 2341              		.loc 1 145 32 is_stmt 1 discriminator 1 view .LVU727
 145:lvgl/src/core/lv_indev.c ****         if(indev->driver->type == LV_INDEV_TYPE_POINTER || indev->driver->type == LV_INDEV_TYPE_KEY
 2342              		.loc 1 145 46 is_stmt 0 discriminator 1 view .LVU728
 2343 0026 244B     		ldr	r3, .L192+4
 2344 0028 0021     		movs	r1, #0
 2345              	.LVL218:
 145:lvgl/src/core/lv_indev.c ****         if(indev->driver->type == LV_INDEV_TYPE_POINTER || indev->driver->type == LV_INDEV_TYPE_KEY
 2346              		.loc 1 145 46 discriminator 1 view .LVU729
 2347 002a 1960     		str	r1, [r3]
 2348 002c F4E7     		b	.L169
 2349              	.L185:
 147:lvgl/src/core/lv_indev.c ****                 indev->proc.types.pointer.last_pressed = NULL;
 2350              		.loc 1 147 13 is_stmt 1 view .LVU730
 147:lvgl/src/core/lv_indev.c ****                 indev->proc.types.pointer.last_pressed = NULL;
 2351              		.loc 1 147 15 is_stmt 0 view .LVU731
 2352 002e 34B1     		cbz	r4, .L186
 147:lvgl/src/core/lv_indev.c ****                 indev->proc.types.pointer.last_pressed = NULL;
 2353              		.loc 1 147 56 discriminator 1 view .LVU732
 2354 0030 136B     		ldr	r3, [r2, #48]
 147:lvgl/src/core/lv_indev.c ****                 indev->proc.types.pointer.last_pressed = NULL;
 2355              		.loc 1 147 28 discriminator 1 view .LVU733
 2356 0032 A342     		cmp	r3, r4
 2357 0034 0ED0     		beq	.L187
 2358              	.L173:
 150:lvgl/src/core/lv_indev.c ****                 indev->proc.types.pointer.act_obj = NULL;
 2359              		.loc 1 150 13 is_stmt 1 view .LVU734
 150:lvgl/src/core/lv_indev.c ****                 indev->proc.types.pointer.act_obj = NULL;
 2360              		.loc 1 150 56 is_stmt 0 discriminator 1 view .LVU735
 2361 0036 536A     		ldr	r3, [r2, #36]
 150:lvgl/src/core/lv_indev.c ****                 indev->proc.types.pointer.act_obj = NULL;
 2362              		.loc 1 150 28 discriminator 1 view .LVU736
 2363 0038 A342     		cmp	r3, r4
 2364 003a 04D1     		bne	.L174
 2365 003c 01E0     		b	.L172
ARM GAS  C:\usertemp\ccMJcN2s.s 			page 74


 2366              	.L186:
 148:lvgl/src/core/lv_indev.c ****             }
 2367              		.loc 1 148 17 is_stmt 1 view .LVU737
 148:lvgl/src/core/lv_indev.c ****             }
 2368              		.loc 1 148 56 is_stmt 0 view .LVU738
 2369 003e 0023     		movs	r3, #0
 2370 0040 1363     		str	r3, [r2, #48]
 150:lvgl/src/core/lv_indev.c ****                 indev->proc.types.pointer.act_obj = NULL;
 2371              		.loc 1 150 13 is_stmt 1 view .LVU739
 2372              	.L172:
 151:lvgl/src/core/lv_indev.c ****             }
 2373              		.loc 1 151 17 view .LVU740
 151:lvgl/src/core/lv_indev.c ****             }
 2374              		.loc 1 151 51 is_stmt 0 view .LVU741
 2375 0042 0023     		movs	r3, #0
 2376 0044 5362     		str	r3, [r2, #36]
 2377              	.L174:
 153:lvgl/src/core/lv_indev.c ****                 indev->proc.types.pointer.last_obj = NULL;
 2378              		.loc 1 153 13 is_stmt 1 view .LVU742
 153:lvgl/src/core/lv_indev.c ****                 indev->proc.types.pointer.last_obj = NULL;
 2379              		.loc 1 153 15 is_stmt 0 view .LVU743
 2380 0046 14B1     		cbz	r4, .L175
 153:lvgl/src/core/lv_indev.c ****                 indev->proc.types.pointer.last_obj = NULL;
 2381              		.loc 1 153 56 discriminator 1 view .LVU744
 2382 0048 936A     		ldr	r3, [r2, #40]
 153:lvgl/src/core/lv_indev.c ****                 indev->proc.types.pointer.last_obj = NULL;
 2383              		.loc 1 153 28 discriminator 1 view .LVU745
 2384 004a A342     		cmp	r3, r4
 2385 004c EAD1     		bne	.L167
 2386              	.L175:
 154:lvgl/src/core/lv_indev.c ****             }
 2387              		.loc 1 154 17 is_stmt 1 view .LVU746
 154:lvgl/src/core/lv_indev.c ****             }
 2388              		.loc 1 154 52 is_stmt 0 view .LVU747
 2389 004e 0023     		movs	r3, #0
 2390 0050 9362     		str	r3, [r2, #40]
 2391 0052 E7E7     		b	.L167
 2392              	.L187:
 148:lvgl/src/core/lv_indev.c ****             }
 2393              		.loc 1 148 17 is_stmt 1 view .LVU748
 148:lvgl/src/core/lv_indev.c ****             }
 2394              		.loc 1 148 56 is_stmt 0 view .LVU749
 2395 0054 0023     		movs	r3, #0
 2396 0056 1363     		str	r3, [r2, #48]
 2397 0058 EDE7     		b	.L173
 2398              	.LVL219:
 2399              	.L168:
 2400              	.LBB7:
 159:lvgl/src/core/lv_indev.c ****         while(i) {
 2401              		.loc 1 159 9 is_stmt 1 view .LVU750
 159:lvgl/src/core/lv_indev.c ****         while(i) {
 2402              		.loc 1 159 26 is_stmt 0 view .LVU751
 2403 005a 0020     		movs	r0, #0
 2404              	.LVL220:
 159:lvgl/src/core/lv_indev.c ****         while(i) {
 2405              		.loc 1 159 26 view .LVU752
 2406 005c FFF7FEFF 		bl	lv_indev_get_next
ARM GAS  C:\usertemp\ccMJcN2s.s 			page 75


 2407              	.LVL221:
 160:lvgl/src/core/lv_indev.c ****             i->proc.reset_query = 1;
 2408              		.loc 1 160 9 is_stmt 1 view .LVU753
 160:lvgl/src/core/lv_indev.c ****             i->proc.reset_query = 1;
 2409              		.loc 1 160 14 is_stmt 0 view .LVU754
 2410 0060 06E0     		b	.L176
 2411              	.L189:
 164:lvgl/src/core/lv_indev.c ****                 }
 2412              		.loc 1 164 21 is_stmt 1 view .LVU755
 164:lvgl/src/core/lv_indev.c ****                 }
 2413              		.loc 1 164 56 is_stmt 0 view .LVU756
 2414 0062 0023     		movs	r3, #0
 2415 0064 0363     		str	r3, [r0, #48]
 166:lvgl/src/core/lv_indev.c ****                     i->proc.types.pointer.act_obj = NULL;
 2416              		.loc 1 166 17 is_stmt 1 view .LVU757
 167:lvgl/src/core/lv_indev.c ****                 }
 2417              		.loc 1 167 21 view .LVU758
 167:lvgl/src/core/lv_indev.c ****                 }
 2418              		.loc 1 167 51 is_stmt 0 view .LVU759
 2419 0066 4362     		str	r3, [r0, #36]
 169:lvgl/src/core/lv_indev.c ****                     i->proc.types.pointer.last_obj = NULL;
 2420              		.loc 1 169 17 is_stmt 1 view .LVU760
 2421              	.L179:
 170:lvgl/src/core/lv_indev.c ****                 }
 2422              		.loc 1 170 21 view .LVU761
 170:lvgl/src/core/lv_indev.c ****                 }
 2423              		.loc 1 170 52 is_stmt 0 view .LVU762
 2424 0068 0023     		movs	r3, #0
 2425 006a 8362     		str	r3, [r0, #40]
 2426              	.L177:
 173:lvgl/src/core/lv_indev.c ****         }
 2427              		.loc 1 173 13 is_stmt 1 view .LVU763
 173:lvgl/src/core/lv_indev.c ****         }
 2428              		.loc 1 173 17 is_stmt 0 view .LVU764
 2429 006c FFF7FEFF 		bl	lv_indev_get_next
 2430              	.LVL222:
 2431              	.L176:
 160:lvgl/src/core/lv_indev.c ****             i->proc.reset_query = 1;
 2432              		.loc 1 160 15 is_stmt 1 view .LVU765
 2433 0070 D8B1     		cbz	r0, .L188
 161:lvgl/src/core/lv_indev.c ****             if(i->driver->type == LV_INDEV_TYPE_POINTER || i->driver->type == LV_INDEV_TYPE_KEYPAD)
 2434              		.loc 1 161 13 view .LVU766
 161:lvgl/src/core/lv_indev.c ****             if(i->driver->type == LV_INDEV_TYPE_POINTER || i->driver->type == LV_INDEV_TYPE_KEYPAD)
 2435              		.loc 1 161 33 is_stmt 0 view .LVU767
 2436 0072 4379     		ldrb	r3, [r0, #5]	@ zero_extendqisi2
 2437 0074 43F00203 		orr	r3, r3, #2
 2438 0078 4371     		strb	r3, [r0, #5]
 162:lvgl/src/core/lv_indev.c ****                 if(obj == NULL || i->proc.types.pointer.last_pressed == obj) {
 2439              		.loc 1 162 13 is_stmt 1 view .LVU768
 162:lvgl/src/core/lv_indev.c ****                 if(obj == NULL || i->proc.types.pointer.last_pressed == obj) {
 2440              		.loc 1 162 17 is_stmt 0 view .LVU769
 2441 007a 0368     		ldr	r3, [r0]
 162:lvgl/src/core/lv_indev.c ****                 if(obj == NULL || i->proc.types.pointer.last_pressed == obj) {
 2442              		.loc 1 162 25 view .LVU770
 2443 007c 1B78     		ldrb	r3, [r3]	@ zero_extendqisi2
 162:lvgl/src/core/lv_indev.c ****                 if(obj == NULL || i->proc.types.pointer.last_pressed == obj) {
 2444              		.loc 1 162 57 view .LVU771
ARM GAS  C:\usertemp\ccMJcN2s.s 			page 76


 2445 007e 013B     		subs	r3, r3, #1
 2446 0080 DBB2     		uxtb	r3, r3
 162:lvgl/src/core/lv_indev.c ****                 if(obj == NULL || i->proc.types.pointer.last_pressed == obj) {
 2447              		.loc 1 162 15 view .LVU772
 2448 0082 012B     		cmp	r3, #1
 2449 0084 F2D8     		bhi	.L177
 163:lvgl/src/core/lv_indev.c ****                     i->proc.types.pointer.last_pressed = NULL;
 2450              		.loc 1 163 17 is_stmt 1 view .LVU773
 163:lvgl/src/core/lv_indev.c ****                     i->proc.types.pointer.last_pressed = NULL;
 2451              		.loc 1 163 19 is_stmt 0 view .LVU774
 2452 0086 002C     		cmp	r4, #0
 2453 0088 EBD0     		beq	.L189
 163:lvgl/src/core/lv_indev.c ****                     i->proc.types.pointer.last_pressed = NULL;
 2454              		.loc 1 163 56 discriminator 1 view .LVU775
 2455 008a 036B     		ldr	r3, [r0, #48]
 163:lvgl/src/core/lv_indev.c ****                     i->proc.types.pointer.last_pressed = NULL;
 2456              		.loc 1 163 32 discriminator 1 view .LVU776
 2457 008c A342     		cmp	r3, r4
 2458 008e 06D0     		beq	.L190
 2459              	.L180:
 166:lvgl/src/core/lv_indev.c ****                     i->proc.types.pointer.act_obj = NULL;
 2460              		.loc 1 166 17 is_stmt 1 view .LVU777
 166:lvgl/src/core/lv_indev.c ****                     i->proc.types.pointer.act_obj = NULL;
 2461              		.loc 1 166 56 is_stmt 0 discriminator 1 view .LVU778
 2462 0090 436A     		ldr	r3, [r0, #36]
 166:lvgl/src/core/lv_indev.c ****                     i->proc.types.pointer.act_obj = NULL;
 2463              		.loc 1 166 32 discriminator 1 view .LVU779
 2464 0092 A342     		cmp	r3, r4
 2465 0094 06D0     		beq	.L191
 2466              	.L181:
 169:lvgl/src/core/lv_indev.c ****                     i->proc.types.pointer.last_obj = NULL;
 2467              		.loc 1 169 17 is_stmt 1 view .LVU780
 169:lvgl/src/core/lv_indev.c ****                     i->proc.types.pointer.last_obj = NULL;
 2468              		.loc 1 169 56 is_stmt 0 discriminator 1 view .LVU781
 2469 0096 836A     		ldr	r3, [r0, #40]
 169:lvgl/src/core/lv_indev.c ****                     i->proc.types.pointer.last_obj = NULL;
 2470              		.loc 1 169 32 discriminator 1 view .LVU782
 2471 0098 A342     		cmp	r3, r4
 2472 009a E7D1     		bne	.L177
 2473 009c E4E7     		b	.L179
 2474              	.L190:
 164:lvgl/src/core/lv_indev.c ****                 }
 2475              		.loc 1 164 21 is_stmt 1 view .LVU783
 164:lvgl/src/core/lv_indev.c ****                 }
 2476              		.loc 1 164 56 is_stmt 0 view .LVU784
 2477 009e 0023     		movs	r3, #0
 2478 00a0 0363     		str	r3, [r0, #48]
 2479 00a2 F5E7     		b	.L180
 2480              	.L191:
 167:lvgl/src/core/lv_indev.c ****                 }
 2481              		.loc 1 167 21 is_stmt 1 view .LVU785
 167:lvgl/src/core/lv_indev.c ****                 }
 2482              		.loc 1 167 51 is_stmt 0 view .LVU786
 2483 00a4 0023     		movs	r3, #0
 2484 00a6 4362     		str	r3, [r0, #36]
 2485 00a8 F5E7     		b	.L181
 2486              	.L188:
ARM GAS  C:\usertemp\ccMJcN2s.s 			page 77


 175:lvgl/src/core/lv_indev.c ****     }
 2487              		.loc 1 175 9 is_stmt 1 view .LVU787
 175:lvgl/src/core/lv_indev.c ****     }
 2488              		.loc 1 175 23 is_stmt 0 view .LVU788
 2489 00aa 034B     		ldr	r3, .L192+4
 2490 00ac 0022     		movs	r2, #0
 2491 00ae 1A60     		str	r2, [r3]
 2492              	.LBE7:
 177:lvgl/src/core/lv_indev.c **** 
 2493              		.loc 1 177 1 view .LVU789
 2494 00b0 B8E7     		b	.L167
 2495              	.L193:
 2496 00b2 00BF     		.align	2
 2497              	.L192:
 2498 00b4 00000000 		.word	indev_act
 2499 00b8 00000000 		.word	indev_obj_act
 2500              		.cfi_endproc
 2501              	.LFE166:
 2503              		.section	.text.lv_indev_reset_long_press,"ax",%progbits
 2504              		.align	1
 2505              		.global	lv_indev_reset_long_press
 2506              		.syntax unified
 2507              		.thumb
 2508              		.thumb_func
 2510              	lv_indev_reset_long_press:
 2511              	.LVL223:
 2512              	.LFB167:
 180:lvgl/src/core/lv_indev.c ****     indev->proc.long_pr_sent         = 0;
 2513              		.loc 1 180 1 is_stmt 1 view -0
 2514              		.cfi_startproc
 2515              		@ args = 0, pretend = 0, frame = 0
 2516              		@ frame_needed = 0, uses_anonymous_args = 0
 180:lvgl/src/core/lv_indev.c ****     indev->proc.long_pr_sent         = 0;
 2517              		.loc 1 180 1 is_stmt 0 view .LVU791
 2518 0000 10B5     		push	{r4, lr}
 2519              	.LCFI6:
 2520              		.cfi_def_cfa_offset 8
 2521              		.cfi_offset 4, -8
 2522              		.cfi_offset 14, -4
 2523 0002 0446     		mov	r4, r0
 181:lvgl/src/core/lv_indev.c ****     indev->proc.longpr_rep_timestamp = lv_tick_get();
 2524              		.loc 1 181 5 is_stmt 1 view .LVU792
 181:lvgl/src/core/lv_indev.c ****     indev->proc.longpr_rep_timestamp = lv_tick_get();
 2525              		.loc 1 181 38 is_stmt 0 view .LVU793
 2526 0004 4379     		ldrb	r3, [r0, #5]	@ zero_extendqisi2
 2527 0006 23F00103 		bic	r3, r3, #1
 2528 000a 4371     		strb	r3, [r0, #5]
 182:lvgl/src/core/lv_indev.c ****     indev->proc.pr_timestamp         = lv_tick_get();
 2529              		.loc 1 182 5 is_stmt 1 view .LVU794
 182:lvgl/src/core/lv_indev.c ****     indev->proc.pr_timestamp         = lv_tick_get();
 2530              		.loc 1 182 40 is_stmt 0 view .LVU795
 2531 000c FFF7FEFF 		bl	lv_tick_get
 2532              	.LVL224:
 182:lvgl/src/core/lv_indev.c ****     indev->proc.pr_timestamp         = lv_tick_get();
 2533              		.loc 1 182 38 discriminator 1 view .LVU796
 2534 0010 A064     		str	r0, [r4, #72]
 183:lvgl/src/core/lv_indev.c **** }
ARM GAS  C:\usertemp\ccMJcN2s.s 			page 78


 2535              		.loc 1 183 5 is_stmt 1 view .LVU797
 183:lvgl/src/core/lv_indev.c **** }
 2536              		.loc 1 183 40 is_stmt 0 view .LVU798
 2537 0012 FFF7FEFF 		bl	lv_tick_get
 2538              	.LVL225:
 183:lvgl/src/core/lv_indev.c **** }
 2539              		.loc 1 183 38 discriminator 1 view .LVU799
 2540 0016 6064     		str	r0, [r4, #68]
 184:lvgl/src/core/lv_indev.c **** 
 2541              		.loc 1 184 1 view .LVU800
 2542 0018 10BD     		pop	{r4, pc}
 184:lvgl/src/core/lv_indev.c **** 
 2543              		.loc 1 184 1 view .LVU801
 2544              		.cfi_endproc
 2545              	.LFE167:
 2547              		.section	.text.lv_indev_set_cursor,"ax",%progbits
 2548              		.align	1
 2549              		.global	lv_indev_set_cursor
 2550              		.syntax unified
 2551              		.thumb
 2552              		.thumb_func
 2554              	lv_indev_set_cursor:
 2555              	.LVL226:
 2556              	.LFB168:
 187:lvgl/src/core/lv_indev.c ****     if(indev->driver->type != LV_INDEV_TYPE_POINTER) return;
 2557              		.loc 1 187 1 is_stmt 1 view -0
 2558              		.cfi_startproc
 2559              		@ args = 0, pretend = 0, frame = 0
 2560              		@ frame_needed = 0, uses_anonymous_args = 0
 187:lvgl/src/core/lv_indev.c ****     if(indev->driver->type != LV_INDEV_TYPE_POINTER) return;
 2561              		.loc 1 187 1 is_stmt 0 view .LVU803
 2562 0000 38B5     		push	{r3, r4, r5, lr}
 2563              	.LCFI7:
 2564              		.cfi_def_cfa_offset 16
 2565              		.cfi_offset 3, -16
 2566              		.cfi_offset 4, -12
 2567              		.cfi_offset 5, -8
 2568              		.cfi_offset 14, -4
 188:lvgl/src/core/lv_indev.c **** 
 2569              		.loc 1 188 5 is_stmt 1 view .LVU804
 188:lvgl/src/core/lv_indev.c **** 
 2570              		.loc 1 188 13 is_stmt 0 view .LVU805
 2571 0002 0368     		ldr	r3, [r0]
 188:lvgl/src/core/lv_indev.c **** 
 2572              		.loc 1 188 21 view .LVU806
 2573 0004 1A78     		ldrb	r2, [r3]	@ zero_extendqisi2
 188:lvgl/src/core/lv_indev.c **** 
 2574              		.loc 1 188 7 view .LVU807
 2575 0006 012A     		cmp	r2, #1
 2576 0008 00D0     		beq	.L199
 2577              	.LVL227:
 2578              	.L196:
 195:lvgl/src/core/lv_indev.c **** 
 2579              		.loc 1 195 1 view .LVU808
 2580 000a 38BD     		pop	{r3, r4, r5, pc}
 2581              	.LVL228:
 2582              	.L199:
ARM GAS  C:\usertemp\ccMJcN2s.s 			page 79


 195:lvgl/src/core/lv_indev.c **** 
 2583              		.loc 1 195 1 view .LVU809
 2584 000c 0446     		mov	r4, r0
 2585 000e 0D46     		mov	r5, r1
 190:lvgl/src/core/lv_indev.c ****     lv_obj_set_parent(indev->cursor, lv_disp_get_layer_sys(indev->driver->disp));
 2586              		.loc 1 190 5 is_stmt 1 view .LVU810
 190:lvgl/src/core/lv_indev.c ****     lv_obj_set_parent(indev->cursor, lv_disp_get_layer_sys(indev->driver->disp));
 2587              		.loc 1 190 19 is_stmt 0 view .LVU811
 2588 0010 C164     		str	r1, [r0, #76]
 191:lvgl/src/core/lv_indev.c ****     lv_obj_set_pos(indev->cursor, indev->proc.types.pointer.act_point.x, indev->proc.types.pointer.
 2589              		.loc 1 191 5 is_stmt 1 view .LVU812
 191:lvgl/src/core/lv_indev.c ****     lv_obj_set_pos(indev->cursor, indev->proc.types.pointer.act_point.x, indev->proc.types.pointer.
 2590              		.loc 1 191 38 is_stmt 0 view .LVU813
 2591 0012 1869     		ldr	r0, [r3, #16]
 2592              	.LVL229:
 191:lvgl/src/core/lv_indev.c ****     lv_obj_set_pos(indev->cursor, indev->proc.types.pointer.act_point.x, indev->proc.types.pointer.
 2593              		.loc 1 191 38 view .LVU814
 2594 0014 FFF7FEFF 		bl	lv_disp_get_layer_sys
 2595              	.LVL230:
 191:lvgl/src/core/lv_indev.c ****     lv_obj_set_pos(indev->cursor, indev->proc.types.pointer.act_point.x, indev->proc.types.pointer.
 2596              		.loc 1 191 38 view .LVU815
 2597 0018 0146     		mov	r1, r0
 191:lvgl/src/core/lv_indev.c ****     lv_obj_set_pos(indev->cursor, indev->proc.types.pointer.act_point.x, indev->proc.types.pointer.
 2598              		.loc 1 191 5 discriminator 1 view .LVU816
 2599 001a 2846     		mov	r0, r5
 2600 001c FFF7FEFF 		bl	lv_obj_set_parent
 2601              	.LVL231:
 192:lvgl/src/core/lv_indev.c ****     lv_obj_clear_flag(indev->cursor, LV_OBJ_FLAG_CLICKABLE);
 2602              		.loc 1 192 5 is_stmt 1 view .LVU817
 2603 0020 B4F90A20 		ldrsh	r2, [r4, #10]
 2604 0024 B4F90810 		ldrsh	r1, [r4, #8]
 2605 0028 E06C     		ldr	r0, [r4, #76]
 2606 002a FFF7FEFF 		bl	lv_obj_set_pos
 2607              	.LVL232:
 193:lvgl/src/core/lv_indev.c ****     lv_obj_add_flag(indev->cursor, LV_OBJ_FLAG_IGNORE_LAYOUT | LV_OBJ_FLAG_FLOATING);
 2608              		.loc 1 193 5 view .LVU818
 2609 002e 0221     		movs	r1, #2
 2610 0030 E06C     		ldr	r0, [r4, #76]
 2611 0032 FFF7FEFF 		bl	lv_obj_clear_flag
 2612              	.LVL233:
 194:lvgl/src/core/lv_indev.c **** }
 2613              		.loc 1 194 5 view .LVU819
 2614 0036 4FF4C021 		mov	r1, #393216
 2615 003a E06C     		ldr	r0, [r4, #76]
 2616 003c FFF7FEFF 		bl	lv_obj_add_flag
 2617              	.LVL234:
 2618 0040 E3E7     		b	.L196
 2619              		.cfi_endproc
 2620              	.LFE168:
 2622              		.section	.text.lv_indev_set_group,"ax",%progbits
 2623              		.align	1
 2624              		.global	lv_indev_set_group
 2625              		.syntax unified
 2626              		.thumb
 2627              		.thumb_func
 2629              	lv_indev_set_group:
 2630              	.LVL235:
ARM GAS  C:\usertemp\ccMJcN2s.s 			page 80


 2631              	.LFB169:
 198:lvgl/src/core/lv_indev.c ****     if(indev->driver->type == LV_INDEV_TYPE_KEYPAD || indev->driver->type == LV_INDEV_TYPE_ENCODER)
 2632              		.loc 1 198 1 view -0
 2633              		.cfi_startproc
 2634              		@ args = 0, pretend = 0, frame = 0
 2635              		@ frame_needed = 0, uses_anonymous_args = 0
 2636              		@ link register save eliminated.
 199:lvgl/src/core/lv_indev.c ****         indev->group = group;
 2637              		.loc 1 199 5 view .LVU821
 199:lvgl/src/core/lv_indev.c ****         indev->group = group;
 2638              		.loc 1 199 13 is_stmt 0 view .LVU822
 2639 0000 0368     		ldr	r3, [r0]
 199:lvgl/src/core/lv_indev.c ****         indev->group = group;
 2640              		.loc 1 199 21 view .LVU823
 2641 0002 1B78     		ldrb	r3, [r3]	@ zero_extendqisi2
 199:lvgl/src/core/lv_indev.c ****         indev->group = group;
 2642              		.loc 1 199 7 view .LVU824
 2643 0004 042B     		cmp	r3, #4
 2644 0006 18BF     		it	ne
 2645 0008 022B     		cmpne	r3, #2
 2646 000a 00D1     		bne	.L200
 200:lvgl/src/core/lv_indev.c ****     }
 2647              		.loc 1 200 9 is_stmt 1 view .LVU825
 200:lvgl/src/core/lv_indev.c ****     }
 2648              		.loc 1 200 22 is_stmt 0 view .LVU826
 2649 000c 0165     		str	r1, [r0, #80]
 2650              	.L200:
 202:lvgl/src/core/lv_indev.c **** 
 2651              		.loc 1 202 1 view .LVU827
 2652 000e 7047     		bx	lr
 2653              		.cfi_endproc
 2654              	.LFE169:
 2656              		.section	.text.lv_indev_set_button_points,"ax",%progbits
 2657              		.align	1
 2658              		.global	lv_indev_set_button_points
 2659              		.syntax unified
 2660              		.thumb
 2661              		.thumb_func
 2663              	lv_indev_set_button_points:
 2664              	.LVL236:
 2665              	.LFB170:
 205:lvgl/src/core/lv_indev.c ****     if(indev->driver->type == LV_INDEV_TYPE_BUTTON) {
 2666              		.loc 1 205 1 is_stmt 1 view -0
 2667              		.cfi_startproc
 2668              		@ args = 0, pretend = 0, frame = 0
 2669              		@ frame_needed = 0, uses_anonymous_args = 0
 2670              		@ link register save eliminated.
 206:lvgl/src/core/lv_indev.c ****         indev->btn_points = points;
 2671              		.loc 1 206 5 view .LVU829
 206:lvgl/src/core/lv_indev.c ****         indev->btn_points = points;
 2672              		.loc 1 206 13 is_stmt 0 view .LVU830
 2673 0000 0368     		ldr	r3, [r0]
 206:lvgl/src/core/lv_indev.c ****         indev->btn_points = points;
 2674              		.loc 1 206 21 view .LVU831
 2675 0002 1B78     		ldrb	r3, [r3]	@ zero_extendqisi2
 206:lvgl/src/core/lv_indev.c ****         indev->btn_points = points;
 2676              		.loc 1 206 7 view .LVU832
ARM GAS  C:\usertemp\ccMJcN2s.s 			page 81


 2677 0004 032B     		cmp	r3, #3
 2678 0006 00D0     		beq	.L204
 2679              	.L202:
 209:lvgl/src/core/lv_indev.c **** 
 2680              		.loc 1 209 1 view .LVU833
 2681 0008 7047     		bx	lr
 2682              	.L204:
 207:lvgl/src/core/lv_indev.c ****     }
 2683              		.loc 1 207 9 is_stmt 1 view .LVU834
 207:lvgl/src/core/lv_indev.c ****     }
 2684              		.loc 1 207 27 is_stmt 0 view .LVU835
 2685 000a 4165     		str	r1, [r0, #84]
 209:lvgl/src/core/lv_indev.c **** 
 2686              		.loc 1 209 1 view .LVU836
 2687 000c FCE7     		b	.L202
 2688              		.cfi_endproc
 2689              	.LFE170:
 2691              		.section	.text.lv_indev_get_point,"ax",%progbits
 2692              		.align	1
 2693              		.global	lv_indev_get_point
 2694              		.syntax unified
 2695              		.thumb
 2696              		.thumb_func
 2698              	lv_indev_get_point:
 2699              	.LVL237:
 2700              	.LFB171:
 212:lvgl/src/core/lv_indev.c ****     if(indev == NULL) {
 2701              		.loc 1 212 1 is_stmt 1 view -0
 2702              		.cfi_startproc
 2703              		@ args = 0, pretend = 0, frame = 0
 2704              		@ frame_needed = 0, uses_anonymous_args = 0
 2705              		@ link register save eliminated.
 213:lvgl/src/core/lv_indev.c ****         point->x = 0;
 2706              		.loc 1 213 5 view .LVU838
 213:lvgl/src/core/lv_indev.c ****         point->x = 0;
 2707              		.loc 1 213 7 is_stmt 0 view .LVU839
 2708 0000 50B1     		cbz	r0, .L209
 218:lvgl/src/core/lv_indev.c ****         point->x = -1;
 2709              		.loc 1 218 5 is_stmt 1 view .LVU840
 218:lvgl/src/core/lv_indev.c ****         point->x = -1;
 2710              		.loc 1 218 13 is_stmt 0 view .LVU841
 2711 0002 0268     		ldr	r2, [r0]
 218:lvgl/src/core/lv_indev.c ****         point->x = -1;
 2712              		.loc 1 218 21 view .LVU842
 2713 0004 1278     		ldrb	r2, [r2]	@ zero_extendqisi2
 218:lvgl/src/core/lv_indev.c ****         point->x = -1;
 2714              		.loc 1 218 7 view .LVU843
 2715 0006 012A     		cmp	r2, #1
 2716 0008 18BF     		it	ne
 2717 000a 032A     		cmpne	r2, #3
 2718 000c 08D0     		beq	.L208
 219:lvgl/src/core/lv_indev.c ****         point->y = -1;
 2719              		.loc 1 219 9 is_stmt 1 view .LVU844
 219:lvgl/src/core/lv_indev.c ****         point->y = -1;
 2720              		.loc 1 219 18 is_stmt 0 view .LVU845
 2721 000e 4FF6FF73 		movw	r3, #65535
 2722 0012 0B80     		strh	r3, [r1]	@ movhi
ARM GAS  C:\usertemp\ccMJcN2s.s 			page 82


 220:lvgl/src/core/lv_indev.c ****     }
 2723              		.loc 1 220 9 is_stmt 1 view .LVU846
 220:lvgl/src/core/lv_indev.c ****     }
 2724              		.loc 1 220 18 is_stmt 0 view .LVU847
 2725 0014 4B80     		strh	r3, [r1, #2]	@ movhi
 2726 0016 7047     		bx	lr
 2727              	.L209:
 214:lvgl/src/core/lv_indev.c ****         point->y = 0;
 2728              		.loc 1 214 9 is_stmt 1 view .LVU848
 214:lvgl/src/core/lv_indev.c ****         point->y = 0;
 2729              		.loc 1 214 18 is_stmt 0 view .LVU849
 2730 0018 0023     		movs	r3, #0
 2731 001a 0B80     		strh	r3, [r1]	@ movhi
 215:lvgl/src/core/lv_indev.c ****         return;
 2732              		.loc 1 215 9 is_stmt 1 view .LVU850
 215:lvgl/src/core/lv_indev.c ****         return;
 2733              		.loc 1 215 18 is_stmt 0 view .LVU851
 2734 001c 4B80     		strh	r3, [r1, #2]	@ movhi
 216:lvgl/src/core/lv_indev.c ****     }
 2735              		.loc 1 216 9 is_stmt 1 view .LVU852
 2736 001e 7047     		bx	lr
 2737              	.L208:
 223:lvgl/src/core/lv_indev.c ****         point->y = indev->proc.types.pointer.act_point.y;
 2738              		.loc 1 223 9 view .LVU853
 223:lvgl/src/core/lv_indev.c ****         point->y = indev->proc.types.pointer.act_point.y;
 2739              		.loc 1 223 55 is_stmt 0 view .LVU854
 2740 0020 B0F90820 		ldrsh	r2, [r0, #8]
 223:lvgl/src/core/lv_indev.c ****         point->y = indev->proc.types.pointer.act_point.y;
 2741              		.loc 1 223 18 view .LVU855
 2742 0024 0A80     		strh	r2, [r1]	@ movhi
 224:lvgl/src/core/lv_indev.c ****     }
 2743              		.loc 1 224 9 is_stmt 1 view .LVU856
 224:lvgl/src/core/lv_indev.c ****     }
 2744              		.loc 1 224 55 is_stmt 0 view .LVU857
 2745 0026 B0F90A30 		ldrsh	r3, [r0, #10]
 224:lvgl/src/core/lv_indev.c ****     }
 2746              		.loc 1 224 18 view .LVU858
 2747 002a 4B80     		strh	r3, [r1, #2]	@ movhi
 226:lvgl/src/core/lv_indev.c **** 
 2748              		.loc 1 226 1 view .LVU859
 2749 002c 7047     		bx	lr
 2750              		.cfi_endproc
 2751              	.LFE171:
 2753              		.section	.text.lv_indev_get_gesture_dir,"ax",%progbits
 2754              		.align	1
 2755              		.global	lv_indev_get_gesture_dir
 2756              		.syntax unified
 2757              		.thumb
 2758              		.thumb_func
 2760              	lv_indev_get_gesture_dir:
 2761              	.LVL238:
 2762              	.LFB172:
 229:lvgl/src/core/lv_indev.c ****     return indev->proc.types.pointer.gesture_dir;
 2763              		.loc 1 229 1 is_stmt 1 view -0
 2764              		.cfi_startproc
 2765              		@ args = 0, pretend = 0, frame = 0
 2766              		@ frame_needed = 0, uses_anonymous_args = 0
ARM GAS  C:\usertemp\ccMJcN2s.s 			page 83


 2767              		@ link register save eliminated.
 230:lvgl/src/core/lv_indev.c **** }
 2768              		.loc 1 230 5 view .LVU861
 230:lvgl/src/core/lv_indev.c **** }
 2769              		.loc 1 230 37 is_stmt 0 view .LVU862
 2770 0000 90F84000 		ldrb	r0, [r0, #64]	@ zero_extendqisi2
 2771              	.LVL239:
 231:lvgl/src/core/lv_indev.c **** 
 2772              		.loc 1 231 1 view .LVU863
 2773 0004 0009     		lsrs	r0, r0, #4
 2774 0006 7047     		bx	lr
 2775              		.cfi_endproc
 2776              	.LFE172:
 2778              		.section	.text.lv_indev_get_key,"ax",%progbits
 2779              		.align	1
 2780              		.global	lv_indev_get_key
 2781              		.syntax unified
 2782              		.thumb
 2783              		.thumb_func
 2785              	lv_indev_get_key:
 2786              	.LVL240:
 2787              	.LFB173:
 234:lvgl/src/core/lv_indev.c ****     if(indev->driver->type != LV_INDEV_TYPE_KEYPAD)
 2788              		.loc 1 234 1 is_stmt 1 view -0
 2789              		.cfi_startproc
 2790              		@ args = 0, pretend = 0, frame = 0
 2791              		@ frame_needed = 0, uses_anonymous_args = 0
 2792              		@ link register save eliminated.
 235:lvgl/src/core/lv_indev.c ****         return 0;
 2793              		.loc 1 235 5 view .LVU865
 235:lvgl/src/core/lv_indev.c ****         return 0;
 2794              		.loc 1 235 13 is_stmt 0 view .LVU866
 2795 0000 0368     		ldr	r3, [r0]
 235:lvgl/src/core/lv_indev.c ****         return 0;
 2796              		.loc 1 235 21 view .LVU867
 2797 0002 1B78     		ldrb	r3, [r3]	@ zero_extendqisi2
 235:lvgl/src/core/lv_indev.c ****         return 0;
 2798              		.loc 1 235 7 view .LVU868
 2799 0004 022B     		cmp	r3, #2
 2800 0006 01D0     		beq	.L214
 236:lvgl/src/core/lv_indev.c ****     else
 2801              		.loc 1 236 16 view .LVU869
 2802 0008 0020     		movs	r0, #0
 2803              	.LVL241:
 239:lvgl/src/core/lv_indev.c **** 
 2804              		.loc 1 239 1 view .LVU870
 2805 000a 7047     		bx	lr
 2806              	.LVL242:
 2807              	.L214:
 238:lvgl/src/core/lv_indev.c **** }
 2808              		.loc 1 238 9 is_stmt 1 view .LVU871
 238:lvgl/src/core/lv_indev.c **** }
 2809              		.loc 1 238 40 is_stmt 0 view .LVU872
 2810 000c C068     		ldr	r0, [r0, #12]
 2811              	.LVL243:
 238:lvgl/src/core/lv_indev.c **** }
 2812              		.loc 1 238 40 view .LVU873
ARM GAS  C:\usertemp\ccMJcN2s.s 			page 84


 2813 000e 7047     		bx	lr
 2814              		.cfi_endproc
 2815              	.LFE173:
 2817              		.section	.text.lv_indev_get_scroll_dir,"ax",%progbits
 2818              		.align	1
 2819              		.global	lv_indev_get_scroll_dir
 2820              		.syntax unified
 2821              		.thumb
 2822              		.thumb_func
 2824              	lv_indev_get_scroll_dir:
 2825              	.LVL244:
 2826              	.LFB174:
 242:lvgl/src/core/lv_indev.c ****     if(indev == NULL) return false;
 2827              		.loc 1 242 1 is_stmt 1 view -0
 2828              		.cfi_startproc
 2829              		@ args = 0, pretend = 0, frame = 0
 2830              		@ frame_needed = 0, uses_anonymous_args = 0
 2831              		@ link register save eliminated.
 243:lvgl/src/core/lv_indev.c ****     if(indev->driver->type != LV_INDEV_TYPE_POINTER && indev->driver->type != LV_INDEV_TYPE_BUTTON)
 2832              		.loc 1 243 5 view .LVU875
 243:lvgl/src/core/lv_indev.c ****     if(indev->driver->type != LV_INDEV_TYPE_POINTER && indev->driver->type != LV_INDEV_TYPE_BUTTON)
 2833              		.loc 1 243 7 is_stmt 0 view .LVU876
 2834 0000 50B1     		cbz	r0, .L217
 244:lvgl/src/core/lv_indev.c ****     return indev->proc.types.pointer.scroll_dir;
 2835              		.loc 1 244 5 is_stmt 1 view .LVU877
 244:lvgl/src/core/lv_indev.c ****     return indev->proc.types.pointer.scroll_dir;
 2836              		.loc 1 244 13 is_stmt 0 view .LVU878
 2837 0002 0368     		ldr	r3, [r0]
 244:lvgl/src/core/lv_indev.c ****     return indev->proc.types.pointer.scroll_dir;
 2838              		.loc 1 244 21 view .LVU879
 2839 0004 1B78     		ldrb	r3, [r3]	@ zero_extendqisi2
 244:lvgl/src/core/lv_indev.c ****     return indev->proc.types.pointer.scroll_dir;
 2840              		.loc 1 244 7 view .LVU880
 2841 0006 012B     		cmp	r3, #1
 2842 0008 18BF     		it	ne
 2843 000a 032B     		cmpne	r3, #3
 2844 000c 06D1     		bne	.L218
 245:lvgl/src/core/lv_indev.c **** }
 2845              		.loc 1 245 5 is_stmt 1 view .LVU881
 245:lvgl/src/core/lv_indev.c **** }
 2846              		.loc 1 245 37 is_stmt 0 view .LVU882
 2847 000e 90F84000 		ldrb	r0, [r0, #64]	@ zero_extendqisi2
 2848              	.LVL245:
 245:lvgl/src/core/lv_indev.c **** }
 2849              		.loc 1 245 37 view .LVU883
 2850 0012 00F00F00 		and	r0, r0, #15
 2851 0016 7047     		bx	lr
 2852              	.LVL246:
 2853              	.L217:
 243:lvgl/src/core/lv_indev.c ****     if(indev->driver->type != LV_INDEV_TYPE_POINTER && indev->driver->type != LV_INDEV_TYPE_BUTTON)
 2854              		.loc 1 243 30 discriminator 1 view .LVU884
 2855 0018 0020     		movs	r0, #0
 2856              	.LVL247:
 243:lvgl/src/core/lv_indev.c ****     if(indev->driver->type != LV_INDEV_TYPE_POINTER && indev->driver->type != LV_INDEV_TYPE_BUTTON)
 2857              		.loc 1 243 30 discriminator 1 view .LVU885
 2858 001a 7047     		bx	lr
 2859              	.LVL248:
ARM GAS  C:\usertemp\ccMJcN2s.s 			page 85


 2860              	.L218:
 244:lvgl/src/core/lv_indev.c ****     return indev->proc.types.pointer.scroll_dir;
 2861              		.loc 1 244 108 discriminator 1 view .LVU886
 2862 001c 0020     		movs	r0, #0
 2863              	.LVL249:
 246:lvgl/src/core/lv_indev.c **** 
 2864              		.loc 1 246 1 view .LVU887
 2865 001e 7047     		bx	lr
 2866              		.cfi_endproc
 2867              	.LFE174:
 2869              		.section	.text.lv_indev_get_scroll_obj,"ax",%progbits
 2870              		.align	1
 2871              		.global	lv_indev_get_scroll_obj
 2872              		.syntax unified
 2873              		.thumb
 2874              		.thumb_func
 2876              	lv_indev_get_scroll_obj:
 2877              	.LVL250:
 2878              	.LFB175:
 249:lvgl/src/core/lv_indev.c ****     if(indev == NULL) return NULL;
 2879              		.loc 1 249 1 is_stmt 1 view -0
 2880              		.cfi_startproc
 2881              		@ args = 0, pretend = 0, frame = 0
 2882              		@ frame_needed = 0, uses_anonymous_args = 0
 2883              		@ link register save eliminated.
 250:lvgl/src/core/lv_indev.c ****     if(indev->driver->type != LV_INDEV_TYPE_POINTER && indev->driver->type != LV_INDEV_TYPE_BUTTON)
 2884              		.loc 1 250 5 view .LVU889
 250:lvgl/src/core/lv_indev.c ****     if(indev->driver->type != LV_INDEV_TYPE_POINTER && indev->driver->type != LV_INDEV_TYPE_BUTTON)
 2885              		.loc 1 250 7 is_stmt 0 view .LVU890
 2886 0000 38B1     		cbz	r0, .L221
 251:lvgl/src/core/lv_indev.c ****     return indev->proc.types.pointer.scroll_obj;
 2887              		.loc 1 251 5 is_stmt 1 view .LVU891
 251:lvgl/src/core/lv_indev.c ****     return indev->proc.types.pointer.scroll_obj;
 2888              		.loc 1 251 13 is_stmt 0 view .LVU892
 2889 0002 0268     		ldr	r2, [r0]
 251:lvgl/src/core/lv_indev.c ****     return indev->proc.types.pointer.scroll_obj;
 2890              		.loc 1 251 21 view .LVU893
 2891 0004 1278     		ldrb	r2, [r2]	@ zero_extendqisi2
 251:lvgl/src/core/lv_indev.c ****     return indev->proc.types.pointer.scroll_obj;
 2892              		.loc 1 251 7 view .LVU894
 2893 0006 012A     		cmp	r2, #1
 2894 0008 18BF     		it	ne
 2895 000a 032A     		cmpne	r2, #3
 2896 000c 02D1     		bne	.L222
 252:lvgl/src/core/lv_indev.c **** }
 2897              		.loc 1 252 5 is_stmt 1 view .LVU895
 252:lvgl/src/core/lv_indev.c **** }
 2898              		.loc 1 252 37 is_stmt 0 view .LVU896
 2899 000e C06A     		ldr	r0, [r0, #44]
 2900              	.LVL251:
 252:lvgl/src/core/lv_indev.c **** }
 2901              		.loc 1 252 37 view .LVU897
 2902 0010 7047     		bx	lr
 2903              	.LVL252:
 2904              	.L221:
 252:lvgl/src/core/lv_indev.c **** }
 2905              		.loc 1 252 37 view .LVU898
ARM GAS  C:\usertemp\ccMJcN2s.s 			page 86


 2906 0012 7047     		bx	lr
 2907              	.L222:
 251:lvgl/src/core/lv_indev.c ****     return indev->proc.types.pointer.scroll_obj;
 2908              		.loc 1 251 108 discriminator 1 view .LVU899
 2909 0014 0020     		movs	r0, #0
 2910              	.LVL253:
 253:lvgl/src/core/lv_indev.c **** 
 2911              		.loc 1 253 1 view .LVU900
 2912 0016 7047     		bx	lr
 2913              		.cfi_endproc
 2914              	.LFE175:
 2916              		.section	.text.lv_indev_get_vect,"ax",%progbits
 2917              		.align	1
 2918              		.global	lv_indev_get_vect
 2919              		.syntax unified
 2920              		.thumb
 2921              		.thumb_func
 2923              	lv_indev_get_vect:
 2924              	.LVL254:
 2925              	.LFB176:
 256:lvgl/src/core/lv_indev.c ****     point->x = 0;
 2926              		.loc 1 256 1 is_stmt 1 view -0
 2927              		.cfi_startproc
 2928              		@ args = 0, pretend = 0, frame = 0
 2929              		@ frame_needed = 0, uses_anonymous_args = 0
 2930              		@ link register save eliminated.
 257:lvgl/src/core/lv_indev.c ****     point->y = 0;
 2931              		.loc 1 257 5 view .LVU902
 257:lvgl/src/core/lv_indev.c ****     point->y = 0;
 2932              		.loc 1 257 14 is_stmt 0 view .LVU903
 2933 0000 0023     		movs	r3, #0
 2934 0002 0B80     		strh	r3, [r1]	@ movhi
 258:lvgl/src/core/lv_indev.c **** 
 2935              		.loc 1 258 5 is_stmt 1 view .LVU904
 258:lvgl/src/core/lv_indev.c **** 
 2936              		.loc 1 258 14 is_stmt 0 view .LVU905
 2937 0004 4B80     		strh	r3, [r1, #2]	@ movhi
 260:lvgl/src/core/lv_indev.c **** 
 2938              		.loc 1 260 5 is_stmt 1 view .LVU906
 260:lvgl/src/core/lv_indev.c **** 
 2939              		.loc 1 260 7 is_stmt 0 view .LVU907
 2940 0006 58B1     		cbz	r0, .L223
 262:lvgl/src/core/lv_indev.c ****         point->x = indev->proc.types.pointer.vect.x;
 2941              		.loc 1 262 5 is_stmt 1 view .LVU908
 262:lvgl/src/core/lv_indev.c ****         point->x = indev->proc.types.pointer.vect.x;
 2942              		.loc 1 262 13 is_stmt 0 view .LVU909
 2943 0008 0268     		ldr	r2, [r0]
 262:lvgl/src/core/lv_indev.c ****         point->x = indev->proc.types.pointer.vect.x;
 2944              		.loc 1 262 21 view .LVU910
 2945 000a 1278     		ldrb	r2, [r2]	@ zero_extendqisi2
 262:lvgl/src/core/lv_indev.c ****         point->x = indev->proc.types.pointer.vect.x;
 2946              		.loc 1 262 7 view .LVU911
 2947 000c 032A     		cmp	r2, #3
 2948 000e 18BF     		it	ne
 2949 0010 012A     		cmpne	r2, #1
 2950 0012 05D1     		bne	.L223
 263:lvgl/src/core/lv_indev.c ****         point->y = indev->proc.types.pointer.vect.y;
ARM GAS  C:\usertemp\ccMJcN2s.s 			page 87


 2951              		.loc 1 263 9 is_stmt 1 view .LVU912
 263:lvgl/src/core/lv_indev.c ****         point->y = indev->proc.types.pointer.vect.y;
 2952              		.loc 1 263 50 is_stmt 0 view .LVU913
 2953 0014 B0F91420 		ldrsh	r2, [r0, #20]
 263:lvgl/src/core/lv_indev.c ****         point->y = indev->proc.types.pointer.vect.y;
 2954              		.loc 1 263 18 view .LVU914
 2955 0018 0A80     		strh	r2, [r1]	@ movhi
 264:lvgl/src/core/lv_indev.c ****     }
 2956              		.loc 1 264 9 is_stmt 1 view .LVU915
 264:lvgl/src/core/lv_indev.c ****     }
 2957              		.loc 1 264 50 is_stmt 0 view .LVU916
 2958 001a B0F91630 		ldrsh	r3, [r0, #22]
 264:lvgl/src/core/lv_indev.c ****     }
 2959              		.loc 1 264 18 view .LVU917
 2960 001e 4B80     		strh	r3, [r1, #2]	@ movhi
 2961              	.L223:
 266:lvgl/src/core/lv_indev.c **** 
 2962              		.loc 1 266 1 view .LVU918
 2963 0020 7047     		bx	lr
 2964              		.cfi_endproc
 2965              	.LFE176:
 2967              		.section	.text.lv_indev_wait_release,"ax",%progbits
 2968              		.align	1
 2969              		.global	lv_indev_wait_release
 2970              		.syntax unified
 2971              		.thumb
 2972              		.thumb_func
 2974              	lv_indev_wait_release:
 2975              	.LVL255:
 2976              	.LFB177:
 269:lvgl/src/core/lv_indev.c ****     if(indev == NULL)return;
 2977              		.loc 1 269 1 is_stmt 1 view -0
 2978              		.cfi_startproc
 2979              		@ args = 0, pretend = 0, frame = 0
 2980              		@ frame_needed = 0, uses_anonymous_args = 0
 2981              		@ link register save eliminated.
 270:lvgl/src/core/lv_indev.c ****     indev->proc.wait_until_release = 1;
 2982              		.loc 1 270 5 view .LVU920
 270:lvgl/src/core/lv_indev.c ****     indev->proc.wait_until_release = 1;
 2983              		.loc 1 270 7 is_stmt 0 view .LVU921
 2984 0000 18B1     		cbz	r0, .L225
 271:lvgl/src/core/lv_indev.c **** }
 2985              		.loc 1 271 5 is_stmt 1 view .LVU922
 271:lvgl/src/core/lv_indev.c **** }
 2986              		.loc 1 271 36 is_stmt 0 view .LVU923
 2987 0002 4379     		ldrb	r3, [r0, #5]	@ zero_extendqisi2
 2988 0004 43F00803 		orr	r3, r3, #8
 2989 0008 4371     		strb	r3, [r0, #5]
 2990              	.L225:
 272:lvgl/src/core/lv_indev.c **** 
 2991              		.loc 1 272 1 view .LVU924
 2992 000a 7047     		bx	lr
 2993              		.cfi_endproc
 2994              	.LFE177:
 2996              		.section	.text.lv_indev_get_obj_act,"ax",%progbits
 2997              		.align	1
 2998              		.global	lv_indev_get_obj_act
ARM GAS  C:\usertemp\ccMJcN2s.s 			page 88


 2999              		.syntax unified
 3000              		.thumb
 3001              		.thumb_func
 3003              	lv_indev_get_obj_act:
 3004              	.LFB178:
 275:lvgl/src/core/lv_indev.c ****     return indev_obj_act;
 3005              		.loc 1 275 1 is_stmt 1 view -0
 3006              		.cfi_startproc
 3007              		@ args = 0, pretend = 0, frame = 0
 3008              		@ frame_needed = 0, uses_anonymous_args = 0
 3009              		@ link register save eliminated.
 276:lvgl/src/core/lv_indev.c **** }
 3010              		.loc 1 276 5 view .LVU926
 277:lvgl/src/core/lv_indev.c **** 
 3011              		.loc 1 277 1 is_stmt 0 view .LVU927
 3012 0000 014B     		ldr	r3, .L228
 3013 0002 1868     		ldr	r0, [r3]
 3014 0004 7047     		bx	lr
 3015              	.L229:
 3016 0006 00BF     		.align	2
 3017              	.L228:
 3018 0008 00000000 		.word	indev_obj_act
 3019              		.cfi_endproc
 3020              	.LFE178:
 3022              		.section	.text.lv_indev_get_read_timer,"ax",%progbits
 3023              		.align	1
 3024              		.global	lv_indev_get_read_timer
 3025              		.syntax unified
 3026              		.thumb
 3027              		.thumb_func
 3029              	lv_indev_get_read_timer:
 3030              	.LVL256:
 3031              	.LFB179:
 280:lvgl/src/core/lv_indev.c ****     if(!indev) {
 3032              		.loc 1 280 1 is_stmt 1 view -0
 3033              		.cfi_startproc
 3034              		@ args = 0, pretend = 0, frame = 0
 3035              		@ frame_needed = 0, uses_anonymous_args = 0
 3036              		@ link register save eliminated.
 281:lvgl/src/core/lv_indev.c ****         LV_LOG_WARN("lv_indev_get_read_timer: indev was NULL");
 3037              		.loc 1 281 5 view .LVU929
 281:lvgl/src/core/lv_indev.c ****         LV_LOG_WARN("lv_indev_get_read_timer: indev was NULL");
 3038              		.loc 1 281 7 is_stmt 0 view .LVU930
 3039 0000 08B1     		cbz	r0, .L232
 286:lvgl/src/core/lv_indev.c **** }
 3040              		.loc 1 286 5 is_stmt 1 view .LVU931
 286:lvgl/src/core/lv_indev.c **** }
 3041              		.loc 1 286 17 is_stmt 0 view .LVU932
 3042 0002 4068     		ldr	r0, [r0, #4]
 3043              	.LVL257:
 286:lvgl/src/core/lv_indev.c **** }
 3044              		.loc 1 286 17 view .LVU933
 3045 0004 7047     		bx	lr
 3046              	.LVL258:
 3047              	.L232:
 287:lvgl/src/core/lv_indev.c **** 
 3048              		.loc 1 287 1 view .LVU934
ARM GAS  C:\usertemp\ccMJcN2s.s 			page 89


 3049 0006 7047     		bx	lr
 3050              		.cfi_endproc
 3051              	.LFE179:
 3053              		.section	.text.lv_indev_search_obj,"ax",%progbits
 3054              		.align	1
 3055              		.global	lv_indev_search_obj
 3056              		.syntax unified
 3057              		.thumb
 3058              		.thumb_func
 3060              	lv_indev_search_obj:
 3061              	.LVL259:
 3062              	.LFB180:
 290:lvgl/src/core/lv_indev.c ****     lv_obj_t * found_p = NULL;
 3063              		.loc 1 290 1 is_stmt 1 view -0
 3064              		.cfi_startproc
 3065              		@ args = 0, pretend = 0, frame = 0
 3066              		@ frame_needed = 0, uses_anonymous_args = 0
 290:lvgl/src/core/lv_indev.c ****     lv_obj_t * found_p = NULL;
 3067              		.loc 1 290 1 is_stmt 0 view .LVU936
 3068 0000 F8B5     		push	{r3, r4, r5, r6, r7, lr}
 3069              	.LCFI8:
 3070              		.cfi_def_cfa_offset 24
 3071              		.cfi_offset 3, -24
 3072              		.cfi_offset 4, -20
 3073              		.cfi_offset 5, -16
 3074              		.cfi_offset 6, -12
 3075              		.cfi_offset 7, -8
 3076              		.cfi_offset 14, -4
 3077 0002 0546     		mov	r5, r0
 3078 0004 0E46     		mov	r6, r1
 291:lvgl/src/core/lv_indev.c **** 
 3079              		.loc 1 291 5 is_stmt 1 view .LVU937
 3080              	.LVL260:
 294:lvgl/src/core/lv_indev.c **** 
 3081              		.loc 1 294 5 view .LVU938
 294:lvgl/src/core/lv_indev.c **** 
 3082              		.loc 1 294 8 is_stmt 0 view .LVU939
 3083 0006 0121     		movs	r1, #1
 3084              	.LVL261:
 294:lvgl/src/core/lv_indev.c **** 
 3085              		.loc 1 294 8 view .LVU940
 3086 0008 FFF7FEFF 		bl	lv_obj_has_flag
 3087              	.LVL262:
 294:lvgl/src/core/lv_indev.c **** 
 3088              		.loc 1 294 7 discriminator 1 view .LVU941
 3089 000c 30BB     		cbnz	r0, .L239
 296:lvgl/src/core/lv_indev.c **** 
 3090              		.loc 1 296 5 is_stmt 1 view .LVU942
 296:lvgl/src/core/lv_indev.c **** 
 3091              		.loc 1 296 24 is_stmt 0 view .LVU943
 3092 000e 3146     		mov	r1, r6
 3093 0010 2846     		mov	r0, r5
 3094 0012 FFF7FEFF 		bl	lv_obj_hit_test
 3095              	.LVL263:
 3096 0016 0746     		mov	r7, r0
 3097              	.LVL264:
 299:lvgl/src/core/lv_indev.c ****         int32_t i;
ARM GAS  C:\usertemp\ccMJcN2s.s 			page 90


 3098              		.loc 1 299 5 is_stmt 1 view .LVU944
 299:lvgl/src/core/lv_indev.c ****         int32_t i;
 3099              		.loc 1 299 8 is_stmt 0 view .LVU945
 3100 0018 0022     		movs	r2, #0
 3101 001a 3146     		mov	r1, r6
 3102 001c 05F11400 		add	r0, r5, #20
 3103 0020 FFF7FEFF 		bl	_lv_area_is_point_on
 3104              	.LVL265:
 299:lvgl/src/core/lv_indev.c ****         int32_t i;
 3105              		.loc 1 299 7 discriminator 1 view .LVU946
 3106 0024 28B9     		cbnz	r0, .L235
 299:lvgl/src/core/lv_indev.c ****         int32_t i;
 3107              		.loc 1 299 56 discriminator 1 view .LVU947
 3108 0026 4FF40021 		mov	r1, #524288
 3109 002a 2846     		mov	r0, r5
 3110 002c FFF7FEFF 		bl	lv_obj_has_flag
 3111              	.LVL266:
 299:lvgl/src/core/lv_indev.c ****         int32_t i;
 3112              		.loc 1 299 53 discriminator 1 view .LVU948
 3113 0030 88B1     		cbz	r0, .L236
 3114              	.L235:
 3115              	.LBB8:
 300:lvgl/src/core/lv_indev.c ****         uint32_t child_cnt = lv_obj_get_child_cnt(obj);
 3116              		.loc 1 300 9 is_stmt 1 view .LVU949
 301:lvgl/src/core/lv_indev.c ****         /*If a child matches use it*/
 3117              		.loc 1 301 9 view .LVU950
 301:lvgl/src/core/lv_indev.c ****         /*If a child matches use it*/
 3118              		.loc 1 301 30 is_stmt 0 view .LVU951
 3119 0032 2846     		mov	r0, r5
 3120 0034 FFF7FEFF 		bl	lv_obj_get_child_cnt
 3121              	.LVL267:
 303:lvgl/src/core/lv_indev.c ****             lv_obj_t * child = obj->spec_attr->children[i];
 3122              		.loc 1 303 9 is_stmt 1 view .LVU952
 303:lvgl/src/core/lv_indev.c ****             lv_obj_t * child = obj->spec_attr->children[i];
 3123              		.loc 1 303 27 is_stmt 0 view .LVU953
 3124 0038 441E     		subs	r4, r0, #1
 3125              	.LVL268:
 303:lvgl/src/core/lv_indev.c ****             lv_obj_t * child = obj->spec_attr->children[i];
 3126              		.loc 1 303 9 view .LVU954
 3127 003a 00E0     		b	.L237
 3128              	.LVL269:
 3129              	.L242:
 303:lvgl/src/core/lv_indev.c ****             lv_obj_t * child = obj->spec_attr->children[i];
 3130              		.loc 1 303 41 is_stmt 1 discriminator 2 view .LVU955
 3131 003c 013C     		subs	r4, r4, #1
 3132              	.LVL270:
 3133              	.L237:
 303:lvgl/src/core/lv_indev.c ****             lv_obj_t * child = obj->spec_attr->children[i];
 3134              		.loc 1 303 34 discriminator 1 view .LVU956
 3135 003e 002C     		cmp	r4, #0
 3136 0040 09DB     		blt	.L236
 3137              	.LBB9:
 304:lvgl/src/core/lv_indev.c ****             found_p = lv_indev_search_obj(child, point);
 3138              		.loc 1 304 13 view .LVU957
 304:lvgl/src/core/lv_indev.c ****             found_p = lv_indev_search_obj(child, point);
 3139              		.loc 1 304 35 is_stmt 0 view .LVU958
 3140 0042 AB68     		ldr	r3, [r5, #8]
ARM GAS  C:\usertemp\ccMJcN2s.s 			page 91


 304:lvgl/src/core/lv_indev.c ****             found_p = lv_indev_search_obj(child, point);
 3141              		.loc 1 304 46 view .LVU959
 3142 0044 1B68     		ldr	r3, [r3]
 3143              	.LVL271:
 305:lvgl/src/core/lv_indev.c ****             if(found_p) return found_p;
 3144              		.loc 1 305 13 is_stmt 1 view .LVU960
 305:lvgl/src/core/lv_indev.c ****             if(found_p) return found_p;
 3145              		.loc 1 305 23 is_stmt 0 view .LVU961
 3146 0046 3146     		mov	r1, r6
 3147 0048 53F82400 		ldr	r0, [r3, r4, lsl #2]
 3148 004c FFF7FEFF 		bl	lv_indev_search_obj
 3149              	.LVL272:
 306:lvgl/src/core/lv_indev.c ****         }
 3150              		.loc 1 306 13 is_stmt 1 view .LVU962
 306:lvgl/src/core/lv_indev.c ****         }
 3151              		.loc 1 306 15 is_stmt 0 view .LVU963
 3152 0050 0028     		cmp	r0, #0
 3153 0052 F3D0     		beq	.L242
 3154 0054 01E0     		b	.L233
 3155              	.LVL273:
 3156              	.L236:
 306:lvgl/src/core/lv_indev.c ****         }
 3157              		.loc 1 306 15 view .LVU964
 3158              	.LBE9:
 3159              	.LBE8:
 312:lvgl/src/core/lv_indev.c ****     else return NULL;
 3160              		.loc 1 312 5 is_stmt 1 view .LVU965
 312:lvgl/src/core/lv_indev.c ****     else return NULL;
 3161              		.loc 1 312 7 is_stmt 0 view .LVU966
 3162 0056 1FB1     		cbz	r7, .L240
 312:lvgl/src/core/lv_indev.c ****     else return NULL;
 3163              		.loc 1 312 28 discriminator 1 view .LVU967
 3164 0058 2846     		mov	r0, r5
 3165              	.LVL274:
 3166              	.L233:
 314:lvgl/src/core/lv_indev.c **** 
 3167              		.loc 1 314 1 view .LVU968
 3168 005a F8BD     		pop	{r3, r4, r5, r6, r7, pc}
 3169              	.LVL275:
 3170              	.L239:
 294:lvgl/src/core/lv_indev.c **** 
 3171              		.loc 1 294 57 discriminator 1 view .LVU969
 3172 005c 0020     		movs	r0, #0
 3173 005e FCE7     		b	.L233
 3174              	.LVL276:
 3175              	.L240:
 313:lvgl/src/core/lv_indev.c **** }
 3176              		.loc 1 313 17 view .LVU970
 3177 0060 0020     		movs	r0, #0
 3178 0062 FAE7     		b	.L233
 3179              		.cfi_endproc
 3180              	.LFE180:
 3182              		.section	.text.indev_proc_press,"ax",%progbits
 3183              		.align	1
 3184              		.syntax unified
 3185              		.thumb
 3186              		.thumb_func
ARM GAS  C:\usertemp\ccMJcN2s.s 			page 92


 3188              	indev_proc_press:
 3189              	.LVL277:
 3190              	.LFB185:
 782:lvgl/src/core/lv_indev.c ****     LV_LOG_INFO("pressed at x:%d y:%d", proc->types.pointer.act_point.x, proc->types.pointer.act_po
 3191              		.loc 1 782 1 is_stmt 1 view -0
 3192              		.cfi_startproc
 3193              		@ args = 0, pretend = 0, frame = 0
 3194              		@ frame_needed = 0, uses_anonymous_args = 0
 782:lvgl/src/core/lv_indev.c ****     LV_LOG_INFO("pressed at x:%d y:%d", proc->types.pointer.act_point.x, proc->types.pointer.act_po
 3195              		.loc 1 782 1 is_stmt 0 view .LVU972
 3196 0000 70B5     		push	{r4, r5, r6, lr}
 3197              	.LCFI9:
 3198              		.cfi_def_cfa_offset 16
 3199              		.cfi_offset 4, -16
 3200              		.cfi_offset 5, -12
 3201              		.cfi_offset 6, -8
 3202              		.cfi_offset 14, -4
 3203 0002 0446     		mov	r4, r0
 783:lvgl/src/core/lv_indev.c ****     indev_obj_act = proc->types.pointer.act_obj;
 3204              		.loc 1 783 5 is_stmt 1 view .LVU973
 783:lvgl/src/core/lv_indev.c ****     indev_obj_act = proc->types.pointer.act_obj;
 3205              		.loc 1 783 5 view .LVU974
 783:lvgl/src/core/lv_indev.c ****     indev_obj_act = proc->types.pointer.act_obj;
 3206              		.loc 1 783 5 view .LVU975
 784:lvgl/src/core/lv_indev.c **** 
 3207              		.loc 1 784 5 view .LVU976
 784:lvgl/src/core/lv_indev.c **** 
 3208              		.loc 1 784 40 is_stmt 0 view .LVU977
 3209 0004 006A     		ldr	r0, [r0, #32]
 3210              	.LVL278:
 784:lvgl/src/core/lv_indev.c **** 
 3211              		.loc 1 784 19 view .LVU978
 3212 0006 9F4B     		ldr	r3, .L261
 3213 0008 1860     		str	r0, [r3]
 786:lvgl/src/core/lv_indev.c **** 
 3214              		.loc 1 786 5 is_stmt 1 view .LVU979
 786:lvgl/src/core/lv_indev.c **** 
 3215              		.loc 1 786 33 is_stmt 0 view .LVU980
 3216 000a 6378     		ldrb	r3, [r4, #1]	@ zero_extendqisi2
 786:lvgl/src/core/lv_indev.c **** 
 3217              		.loc 1 786 7 view .LVU981
 3218 000c 13F0080F 		tst	r3, #8
 3219 0010 40F08E80 		bne	.L243
 788:lvgl/src/core/lv_indev.c ****     bool new_obj_searched = false;
 3220              		.loc 1 788 5 is_stmt 1 view .LVU982
 788:lvgl/src/core/lv_indev.c ****     bool new_obj_searched = false;
 3221              		.loc 1 788 33 is_stmt 0 view .LVU983
 3222 0014 9C4B     		ldr	r3, .L261+4
 3223 0016 1B68     		ldr	r3, [r3]
 3224 0018 1B68     		ldr	r3, [r3]
 788:lvgl/src/core/lv_indev.c ****     bool new_obj_searched = false;
 3225              		.loc 1 788 17 view .LVU984
 3226 001a 1D69     		ldr	r5, [r3, #16]
 3227              	.LVL279:
 789:lvgl/src/core/lv_indev.c **** 
 3228              		.loc 1 789 5 is_stmt 1 view .LVU985
 792:lvgl/src/core/lv_indev.c ****         indev_obj_act = lv_indev_search_obj(lv_disp_get_layer_sys(disp), &proc->types.pointer.act_p
ARM GAS  C:\usertemp\ccMJcN2s.s 			page 93


 3229              		.loc 1 792 5 view .LVU986
 792:lvgl/src/core/lv_indev.c ****         indev_obj_act = lv_indev_search_obj(lv_disp_get_layer_sys(disp), &proc->types.pointer.act_p
 3230              		.loc 1 792 7 is_stmt 0 view .LVU987
 3231 001c 0028     		cmp	r0, #0
 3232 001e 00F08880 		beq	.L254
 801:lvgl/src/core/lv_indev.c ****             lv_obj_has_flag(indev_obj_act, LV_OBJ_FLAG_PRESS_LOCK) == false) {
 3233              		.loc 1 801 10 is_stmt 1 view .LVU988
 801:lvgl/src/core/lv_indev.c ****             lv_obj_has_flag(indev_obj_act, LV_OBJ_FLAG_PRESS_LOCK) == false) {
 3234              		.loc 1 801 32 is_stmt 0 view .LVU989
 3235 0022 A36A     		ldr	r3, [r4, #40]
 801:lvgl/src/core/lv_indev.c ****             lv_obj_has_flag(indev_obj_act, LV_OBJ_FLAG_PRESS_LOCK) == false) {
 3236              		.loc 1 801 12 view .LVU990
 3237 0024 002B     		cmp	r3, #0
 3238 0026 00F0B480 		beq	.L255
 3239              	.LVL280:
 3240              	.L248:
 820:lvgl/src/core/lv_indev.c ****         proc->types.pointer.last_point.x = proc->types.pointer.act_point.x;
 3241              		.loc 1 820 5 is_stmt 1 view .LVU991
 820:lvgl/src/core/lv_indev.c ****         proc->types.pointer.last_point.x = proc->types.pointer.act_point.x;
 3242              		.loc 1 820 44 is_stmt 0 view .LVU992
 3243 002a 206A     		ldr	r0, [r4, #32]
 820:lvgl/src/core/lv_indev.c ****         proc->types.pointer.last_point.x = proc->types.pointer.act_point.x;
 3244              		.loc 1 820 22 view .LVU993
 3245 002c 954B     		ldr	r3, .L261
 3246 002e 1B68     		ldr	r3, [r3]
 820:lvgl/src/core/lv_indev.c ****         proc->types.pointer.last_point.x = proc->types.pointer.act_point.x;
 3247              		.loc 1 820 7 view .LVU994
 3248 0030 9842     		cmp	r0, r3
 3249 0032 4FD0     		beq	.L250
 821:lvgl/src/core/lv_indev.c ****         proc->types.pointer.last_point.y = proc->types.pointer.act_point.y;
 3250              		.loc 1 821 9 is_stmt 1 view .LVU995
 821:lvgl/src/core/lv_indev.c ****         proc->types.pointer.last_point.y = proc->types.pointer.act_point.y;
 3251              		.loc 1 821 73 is_stmt 0 view .LVU996
 3252 0034 B4F90430 		ldrsh	r3, [r4, #4]
 821:lvgl/src/core/lv_indev.c ****         proc->types.pointer.last_point.y = proc->types.pointer.act_point.y;
 3253              		.loc 1 821 42 view .LVU997
 3254 0038 2381     		strh	r3, [r4, #8]	@ movhi
 822:lvgl/src/core/lv_indev.c **** 
 3255              		.loc 1 822 9 is_stmt 1 view .LVU998
 822:lvgl/src/core/lv_indev.c **** 
 3256              		.loc 1 822 73 is_stmt 0 view .LVU999
 3257 003a B4F90630 		ldrsh	r3, [r4, #6]
 822:lvgl/src/core/lv_indev.c **** 
 3258              		.loc 1 822 42 view .LVU1000
 3259 003e 6381     		strh	r3, [r4, #10]	@ movhi
 825:lvgl/src/core/lv_indev.c ****             /*Save the obj because in special cases `act_obj` can change in the Call the ancestor's
 3260              		.loc 1 825 9 is_stmt 1 view .LVU1001
 825:lvgl/src/core/lv_indev.c ****             /*Save the obj because in special cases `act_obj` can change in the Call the ancestor's
 3261              		.loc 1 825 11 is_stmt 0 view .LVU1002
 3262 0040 48B1     		cbz	r0, .L251
 3263              	.LBB10:
 827:lvgl/src/core/lv_indev.c **** 
 3264              		.loc 1 827 13 is_stmt 1 view .LVU1003
 3265              	.LVL281:
 829:lvgl/src/core/lv_indev.c ****             if(indev_reset_check(proc)) return;
 3266              		.loc 1 829 13 view .LVU1004
 3267 0042 914B     		ldr	r3, .L261+4
ARM GAS  C:\usertemp\ccMJcN2s.s 			page 94


 3268 0044 1A68     		ldr	r2, [r3]
 3269 0046 0321     		movs	r1, #3
 3270 0048 FFF7FEFF 		bl	lv_event_send
 3271              	.LVL282:
 830:lvgl/src/core/lv_indev.c ****         }
 3272              		.loc 1 830 13 view .LVU1005
 830:lvgl/src/core/lv_indev.c ****         }
 3273              		.loc 1 830 16 is_stmt 0 view .LVU1006
 3274 004c 2046     		mov	r0, r4
 3275 004e FFF7FEFF 		bl	indev_reset_check
 3276              	.LVL283:
 830:lvgl/src/core/lv_indev.c ****         }
 3277              		.loc 1 830 15 discriminator 1 view .LVU1007
 3278 0052 0028     		cmp	r0, #0
 3279 0054 6CD1     		bne	.L243
 3280              	.LVL284:
 3281              	.L251:
 830:lvgl/src/core/lv_indev.c ****         }
 3282              		.loc 1 830 15 discriminator 1 view .LVU1008
 3283              	.LBE10:
 833:lvgl/src/core/lv_indev.c ****         proc->types.pointer.last_obj = indev_obj_act;
 3284              		.loc 1 833 9 is_stmt 1 view .LVU1009
 833:lvgl/src/core/lv_indev.c ****         proc->types.pointer.last_obj = indev_obj_act;
 3285              		.loc 1 833 38 is_stmt 0 view .LVU1010
 3286 0056 8B4B     		ldr	r3, .L261
 3287 0058 1B68     		ldr	r3, [r3]
 3288 005a 2362     		str	r3, [r4, #32]
 834:lvgl/src/core/lv_indev.c **** 
 3289              		.loc 1 834 9 is_stmt 1 view .LVU1011
 834:lvgl/src/core/lv_indev.c **** 
 3290              		.loc 1 834 38 is_stmt 0 view .LVU1012
 3291 005c 6362     		str	r3, [r4, #36]
 836:lvgl/src/core/lv_indev.c ****             /*Save the time when the obj pressed to count long press time.*/
 3292              		.loc 1 836 9 is_stmt 1 view .LVU1013
 836:lvgl/src/core/lv_indev.c ****             /*Save the time when the obj pressed to count long press time.*/
 3293              		.loc 1 836 11 is_stmt 0 view .LVU1014
 3294 005e 002B     		cmp	r3, #0
 3295 0060 38D0     		beq	.L250
 838:lvgl/src/core/lv_indev.c ****             proc->long_pr_sent                 = 0;
 3296              		.loc 1 838 13 is_stmt 1 view .LVU1015
 838:lvgl/src/core/lv_indev.c ****             proc->long_pr_sent                 = 0;
 3297              		.loc 1 838 50 is_stmt 0 view .LVU1016
 3298 0062 FFF7FEFF 		bl	lv_tick_get
 3299              	.LVL285:
 838:lvgl/src/core/lv_indev.c ****             proc->long_pr_sent                 = 0;
 3300              		.loc 1 838 48 discriminator 1 view .LVU1017
 3301 0066 2064     		str	r0, [r4, #64]
 839:lvgl/src/core/lv_indev.c ****             proc->types.pointer.scroll_sum.x     = 0;
 3302              		.loc 1 839 13 is_stmt 1 view .LVU1018
 839:lvgl/src/core/lv_indev.c ****             proc->types.pointer.scroll_sum.x     = 0;
 3303              		.loc 1 839 48 is_stmt 0 view .LVU1019
 3304 0068 6378     		ldrb	r3, [r4, #1]	@ zero_extendqisi2
 3305 006a 23F00103 		bic	r3, r3, #1
 3306 006e 6370     		strb	r3, [r4, #1]
 840:lvgl/src/core/lv_indev.c ****             proc->types.pointer.scroll_sum.y     = 0;
 3307              		.loc 1 840 13 is_stmt 1 view .LVU1020
 840:lvgl/src/core/lv_indev.c ****             proc->types.pointer.scroll_sum.y     = 0;
ARM GAS  C:\usertemp\ccMJcN2s.s 			page 95


 3308              		.loc 1 840 50 is_stmt 0 view .LVU1021
 3309 0070 0023     		movs	r3, #0
 3310 0072 A382     		strh	r3, [r4, #20]	@ movhi
 841:lvgl/src/core/lv_indev.c ****             proc->types.pointer.scroll_dir = LV_DIR_NONE;
 3311              		.loc 1 841 13 is_stmt 1 view .LVU1022
 841:lvgl/src/core/lv_indev.c ****             proc->types.pointer.scroll_dir = LV_DIR_NONE;
 3312              		.loc 1 841 50 is_stmt 0 view .LVU1023
 3313 0074 E382     		strh	r3, [r4, #22]	@ movhi
 842:lvgl/src/core/lv_indev.c ****             proc->types.pointer.gesture_dir = LV_DIR_NONE;
 3314              		.loc 1 842 13 is_stmt 1 view .LVU1024
 842:lvgl/src/core/lv_indev.c ****             proc->types.pointer.gesture_dir = LV_DIR_NONE;
 3315              		.loc 1 842 44 is_stmt 0 view .LVU1025
 3316 0076 94F83C20 		ldrb	r2, [r4, #60]	@ zero_extendqisi2
 3317 007a 63F30302 		bfi	r2, r3, #0, #4
 3318 007e 84F83C20 		strb	r2, [r4, #60]
 843:lvgl/src/core/lv_indev.c ****             proc->types.pointer.gesture_sent   = 0;
 3319              		.loc 1 843 13 is_stmt 1 view .LVU1026
 843:lvgl/src/core/lv_indev.c ****             proc->types.pointer.gesture_sent   = 0;
 3320              		.loc 1 843 45 is_stmt 0 view .LVU1027
 3321 0082 D2B2     		uxtb	r2, r2
 3322 0084 63F30712 		bfi	r2, r3, #4, #4
 3323 0088 84F83C20 		strb	r2, [r4, #60]
 844:lvgl/src/core/lv_indev.c ****             proc->types.pointer.gesture_sum.x  = 0;
 3324              		.loc 1 844 13 is_stmt 1 view .LVU1028
 844:lvgl/src/core/lv_indev.c ****             proc->types.pointer.gesture_sum.x  = 0;
 3325              		.loc 1 844 48 is_stmt 0 view .LVU1029
 3326 008c 94F83D20 		ldrb	r2, [r4, #61]	@ zero_extendqisi2
 3327 0090 63F30002 		bfi	r2, r3, #0, #1
 3328 0094 84F83D20 		strb	r2, [r4, #61]
 845:lvgl/src/core/lv_indev.c ****             proc->types.pointer.gesture_sum.y  = 0;
 3329              		.loc 1 845 13 is_stmt 1 view .LVU1030
 845:lvgl/src/core/lv_indev.c ****             proc->types.pointer.gesture_sum.y  = 0;
 3330              		.loc 1 845 48 is_stmt 0 view .LVU1031
 3331 0098 2387     		strh	r3, [r4, #56]	@ movhi
 846:lvgl/src/core/lv_indev.c ****             proc->types.pointer.vect.x         = 0;
 3332              		.loc 1 846 13 is_stmt 1 view .LVU1032
 846:lvgl/src/core/lv_indev.c ****             proc->types.pointer.vect.x         = 0;
 3333              		.loc 1 846 48 is_stmt 0 view .LVU1033
 3334 009a 6387     		strh	r3, [r4, #58]	@ movhi
 847:lvgl/src/core/lv_indev.c ****             proc->types.pointer.vect.y         = 0;
 3335              		.loc 1 847 13 is_stmt 1 view .LVU1034
 847:lvgl/src/core/lv_indev.c ****             proc->types.pointer.vect.y         = 0;
 3336              		.loc 1 847 48 is_stmt 0 view .LVU1035
 3337 009c 2382     		strh	r3, [r4, #16]	@ movhi
 848:lvgl/src/core/lv_indev.c **** 
 3338              		.loc 1 848 13 is_stmt 1 view .LVU1036
 848:lvgl/src/core/lv_indev.c **** 
 3339              		.loc 1 848 48 is_stmt 0 view .LVU1037
 3340 009e 6382     		strh	r3, [r4, #18]	@ movhi
 851:lvgl/src/core/lv_indev.c ****             if(indev_reset_check(proc)) return;
 3341              		.loc 1 851 13 is_stmt 1 view .LVU1038
 3342 00a0 794B     		ldr	r3, .L261+4
 3343 00a2 1A68     		ldr	r2, [r3]
 3344 00a4 0121     		movs	r1, #1
 3345 00a6 774B     		ldr	r3, .L261
 3346 00a8 1868     		ldr	r0, [r3]
 3347 00aa FFF7FEFF 		bl	lv_event_send
ARM GAS  C:\usertemp\ccMJcN2s.s 			page 96


 3348              	.LVL286:
 852:lvgl/src/core/lv_indev.c **** 
 3349              		.loc 1 852 13 view .LVU1039
 852:lvgl/src/core/lv_indev.c **** 
 3350              		.loc 1 852 16 is_stmt 0 view .LVU1040
 3351 00ae 2046     		mov	r0, r4
 3352 00b0 FFF7FEFF 		bl	indev_reset_check
 3353              	.LVL287:
 852:lvgl/src/core/lv_indev.c **** 
 3354              		.loc 1 852 15 discriminator 1 view .LVU1041
 3355 00b4 0028     		cmp	r0, #0
 3356 00b6 3BD1     		bne	.L243
 854:lvgl/src/core/lv_indev.c **** 
 3357              		.loc 1 854 13 is_stmt 1 view .LVU1042
 854:lvgl/src/core/lv_indev.c **** 
 3358              		.loc 1 854 25 is_stmt 0 view .LVU1043
 3359 00b8 734B     		ldr	r3, .L261+4
 3360 00ba 1868     		ldr	r0, [r3]
 854:lvgl/src/core/lv_indev.c **** 
 3361              		.loc 1 854 16 view .LVU1044
 3362 00bc 4379     		ldrb	r3, [r0, #5]	@ zero_extendqisi2
 854:lvgl/src/core/lv_indev.c **** 
 3363              		.loc 1 854 15 view .LVU1045
 3364 00be 13F0080F 		tst	r3, #8
 3365 00c2 35D1     		bne	.L243
 857:lvgl/src/core/lv_indev.c ****             if(indev_reset_check(proc)) return;
 3366              		.loc 1 857 13 is_stmt 1 view .LVU1046
 3367 00c4 0430     		adds	r0, r0, #4
 3368 00c6 FFF7FEFF 		bl	indev_click_focus
 3369              	.LVL288:
 858:lvgl/src/core/lv_indev.c **** 
 3370              		.loc 1 858 13 view .LVU1047
 858:lvgl/src/core/lv_indev.c **** 
 3371              		.loc 1 858 16 is_stmt 0 view .LVU1048
 3372 00ca 2046     		mov	r0, r4
 3373 00cc FFF7FEFF 		bl	indev_reset_check
 3374              	.LVL289:
 858:lvgl/src/core/lv_indev.c **** 
 3375              		.loc 1 858 15 discriminator 1 view .LVU1049
 3376 00d0 0028     		cmp	r0, #0
 3377 00d2 2DD1     		bne	.L243
 3378              	.L250:
 864:lvgl/src/core/lv_indev.c ****     proc->types.pointer.vect.y = proc->types.pointer.act_point.y - proc->types.pointer.last_point.y
 3379              		.loc 1 864 5 is_stmt 1 view .LVU1050
 864:lvgl/src/core/lv_indev.c ****     proc->types.pointer.vect.y = proc->types.pointer.act_point.y - proc->types.pointer.last_point.y
 3380              		.loc 1 864 63 is_stmt 0 view .LVU1051
 3381 00d4 A288     		ldrh	r2, [r4, #4]
 864:lvgl/src/core/lv_indev.c ****     proc->types.pointer.vect.y = proc->types.pointer.act_point.y - proc->types.pointer.last_point.y
 3382              		.loc 1 864 98 view .LVU1052
 3383 00d6 2389     		ldrh	r3, [r4, #8]
 864:lvgl/src/core/lv_indev.c ****     proc->types.pointer.vect.y = proc->types.pointer.act_point.y - proc->types.pointer.last_point.y
 3384              		.loc 1 864 66 view .LVU1053
 3385 00d8 D21A     		subs	r2, r2, r3
 3386 00da 12B2     		sxth	r2, r2
 864:lvgl/src/core/lv_indev.c ****     proc->types.pointer.vect.y = proc->types.pointer.act_point.y - proc->types.pointer.last_point.y
 3387              		.loc 1 864 32 view .LVU1054
 3388 00dc 2282     		strh	r2, [r4, #16]	@ movhi
ARM GAS  C:\usertemp\ccMJcN2s.s 			page 97


 865:lvgl/src/core/lv_indev.c **** 
 3389              		.loc 1 865 5 is_stmt 1 view .LVU1055
 865:lvgl/src/core/lv_indev.c **** 
 3390              		.loc 1 865 63 is_stmt 0 view .LVU1056
 3391 00de E388     		ldrh	r3, [r4, #6]
 865:lvgl/src/core/lv_indev.c **** 
 3392              		.loc 1 865 98 view .LVU1057
 3393 00e0 6189     		ldrh	r1, [r4, #10]
 865:lvgl/src/core/lv_indev.c **** 
 3394              		.loc 1 865 66 view .LVU1058
 3395 00e2 5B1A     		subs	r3, r3, r1
 3396 00e4 1BB2     		sxth	r3, r3
 865:lvgl/src/core/lv_indev.c **** 
 3397              		.loc 1 865 32 view .LVU1059
 3398 00e6 6382     		strh	r3, [r4, #18]	@ movhi
 867:lvgl/src/core/lv_indev.c ****     proc->types.pointer.scroll_throw_vect.y = (proc->types.pointer.scroll_throw_vect.y * 4) >> 3;
 3399              		.loc 1 867 5 is_stmt 1 view .LVU1060
 867:lvgl/src/core/lv_indev.c ****     proc->types.pointer.scroll_throw_vect.y = (proc->types.pointer.scroll_throw_vect.y * 4) >> 3;
 3400              		.loc 1 867 85 is_stmt 0 view .LVU1061
 3401 00e8 B4F91800 		ldrsh	r0, [r4, #24]
 867:lvgl/src/core/lv_indev.c ****     proc->types.pointer.scroll_throw_vect.y = (proc->types.pointer.scroll_throw_vect.y * 4) >> 3;
 3402              		.loc 1 867 93 view .LVU1062
 3403 00ec 4010     		asrs	r0, r0, #1
 867:lvgl/src/core/lv_indev.c ****     proc->types.pointer.scroll_throw_vect.y = (proc->types.pointer.scroll_throw_vect.y * 4) >> 3;
 3404              		.loc 1 867 45 view .LVU1063
 3405 00ee 2083     		strh	r0, [r4, #24]	@ movhi
 868:lvgl/src/core/lv_indev.c **** 
 3406              		.loc 1 868 5 is_stmt 1 view .LVU1064
 868:lvgl/src/core/lv_indev.c **** 
 3407              		.loc 1 868 85 is_stmt 0 view .LVU1065
 3408 00f0 B4F91A10 		ldrsh	r1, [r4, #26]
 868:lvgl/src/core/lv_indev.c **** 
 3409              		.loc 1 868 93 view .LVU1066
 3410 00f4 4910     		asrs	r1, r1, #1
 868:lvgl/src/core/lv_indev.c **** 
 3411              		.loc 1 868 45 view .LVU1067
 3412 00f6 6183     		strh	r1, [r4, #26]	@ movhi
 870:lvgl/src/core/lv_indev.c ****     proc->types.pointer.scroll_throw_vect.y += (proc->types.pointer.vect.y * 4) >> 3;
 3413              		.loc 1 870 5 is_stmt 1 view .LVU1068
 870:lvgl/src/core/lv_indev.c ****     proc->types.pointer.scroll_throw_vect.y += (proc->types.pointer.vect.y * 4) >> 3;
 3414              		.loc 1 870 81 is_stmt 0 view .LVU1069
 3415 00f8 5210     		asrs	r2, r2, #1
 870:lvgl/src/core/lv_indev.c ****     proc->types.pointer.scroll_throw_vect.y += (proc->types.pointer.vect.y * 4) >> 3;
 3416              		.loc 1 870 45 view .LVU1070
 3417 00fa 12FA80F0 		uxtah	r0, r2, r0
 3418 00fe 2083     		strh	r0, [r4, #24]	@ movhi
 871:lvgl/src/core/lv_indev.c **** 
 3419              		.loc 1 871 5 is_stmt 1 view .LVU1071
 871:lvgl/src/core/lv_indev.c **** 
 3420              		.loc 1 871 81 is_stmt 0 view .LVU1072
 3421 0100 5B10     		asrs	r3, r3, #1
 871:lvgl/src/core/lv_indev.c **** 
 3422              		.loc 1 871 45 view .LVU1073
 3423 0102 13FA81F1 		uxtah	r1, r3, r1
 3424 0106 6183     		strh	r1, [r4, #26]	@ movhi
 873:lvgl/src/core/lv_indev.c **** 
 3425              		.loc 1 873 5 is_stmt 1 view .LVU1074
ARM GAS  C:\usertemp\ccMJcN2s.s 			page 98


 873:lvgl/src/core/lv_indev.c **** 
 3426              		.loc 1 873 47 is_stmt 0 view .LVU1075
 3427 0108 A369     		ldr	r3, [r4, #24]
 3428 010a E361     		str	r3, [r4, #28]
 875:lvgl/src/core/lv_indev.c ****         lv_event_send(indev_obj_act, LV_EVENT_PRESSING, indev_act);
 3429              		.loc 1 875 5 is_stmt 1 view .LVU1076
 875:lvgl/src/core/lv_indev.c ****         lv_event_send(indev_obj_act, LV_EVENT_PRESSING, indev_act);
 3430              		.loc 1 875 8 is_stmt 0 view .LVU1077
 3431 010c 5D4B     		ldr	r3, .L261
 3432 010e 1868     		ldr	r0, [r3]
 875:lvgl/src/core/lv_indev.c ****         lv_event_send(indev_obj_act, LV_EVENT_PRESSING, indev_act);
 3433              		.loc 1 875 7 view .LVU1078
 3434 0110 70B1     		cbz	r0, .L243
 876:lvgl/src/core/lv_indev.c ****         if(indev_reset_check(proc)) return;
 3435              		.loc 1 876 9 is_stmt 1 view .LVU1079
 3436 0112 5D4B     		ldr	r3, .L261+4
 3437 0114 1A68     		ldr	r2, [r3]
 3438 0116 0221     		movs	r1, #2
 3439 0118 FFF7FEFF 		bl	lv_event_send
 3440              	.LVL290:
 877:lvgl/src/core/lv_indev.c **** 
 3441              		.loc 1 877 9 view .LVU1080
 877:lvgl/src/core/lv_indev.c **** 
 3442              		.loc 1 877 12 is_stmt 0 view .LVU1081
 3443 011c 2046     		mov	r0, r4
 3444 011e FFF7FEFF 		bl	indev_reset_check
 3445              	.LVL291:
 877:lvgl/src/core/lv_indev.c **** 
 3446              		.loc 1 877 11 discriminator 1 view .LVU1082
 3447 0122 28B9     		cbnz	r0, .L243
 879:lvgl/src/core/lv_indev.c **** 
 3448              		.loc 1 879 9 is_stmt 1 view .LVU1083
 879:lvgl/src/core/lv_indev.c **** 
 3449              		.loc 1 879 21 is_stmt 0 view .LVU1084
 3450 0124 584B     		ldr	r3, .L261+4
 3451 0126 1B68     		ldr	r3, [r3]
 879:lvgl/src/core/lv_indev.c **** 
 3452              		.loc 1 879 12 view .LVU1085
 3453 0128 5B79     		ldrb	r3, [r3, #5]	@ zero_extendqisi2
 879:lvgl/src/core/lv_indev.c **** 
 3454              		.loc 1 879 11 view .LVU1086
 3455 012a 13F0080F 		tst	r3, #8
 3456 012e 57D0     		beq	.L256
 3457              	.LVL292:
 3458              	.L243:
 911:lvgl/src/core/lv_indev.c **** 
 3459              		.loc 1 911 1 view .LVU1087
 3460 0130 70BD     		pop	{r4, r5, r6, pc}
 3461              	.LVL293:
 3462              	.L254:
 793:lvgl/src/core/lv_indev.c ****         if(indev_obj_act == NULL) indev_obj_act = lv_indev_search_obj(lv_disp_get_layer_top(disp),
 3463              		.loc 1 793 9 is_stmt 1 view .LVU1088
 793:lvgl/src/core/lv_indev.c ****         if(indev_obj_act == NULL) indev_obj_act = lv_indev_search_obj(lv_disp_get_layer_top(disp),
 3464              		.loc 1 793 25 is_stmt 0 view .LVU1089
 3465 0132 2846     		mov	r0, r5
 3466 0134 FFF7FEFF 		bl	lv_disp_get_layer_sys
 3467              	.LVL294:
ARM GAS  C:\usertemp\ccMJcN2s.s 			page 99


 793:lvgl/src/core/lv_indev.c ****         if(indev_obj_act == NULL) indev_obj_act = lv_indev_search_obj(lv_disp_get_layer_top(disp),
 3468              		.loc 1 793 25 discriminator 1 view .LVU1090
 3469 0138 261D     		adds	r6, r4, #4
 3470 013a 3146     		mov	r1, r6
 3471 013c FFF7FEFF 		bl	lv_indev_search_obj
 3472              	.LVL295:
 793:lvgl/src/core/lv_indev.c ****         if(indev_obj_act == NULL) indev_obj_act = lv_indev_search_obj(lv_disp_get_layer_top(disp),
 3473              		.loc 1 793 23 discriminator 2 view .LVU1091
 3474 0140 504B     		ldr	r3, .L261
 3475 0142 1860     		str	r0, [r3]
 794:lvgl/src/core/lv_indev.c ****                                                                           &proc->types.pointer.act_
 3476              		.loc 1 794 9 is_stmt 1 view .LVU1092
 794:lvgl/src/core/lv_indev.c ****                                                                           &proc->types.pointer.act_
 3477              		.loc 1 794 11 is_stmt 0 view .LVU1093
 3478 0144 98B1     		cbz	r0, .L257
 3479              	.L246:
 796:lvgl/src/core/lv_indev.c ****                                                                           &proc->types.pointer.act_
 3480              		.loc 1 796 9 is_stmt 1 view .LVU1094
 796:lvgl/src/core/lv_indev.c ****                                                                           &proc->types.pointer.act_
 3481              		.loc 1 796 26 is_stmt 0 view .LVU1095
 3482 0146 4F4B     		ldr	r3, .L261
 3483 0148 1B68     		ldr	r3, [r3]
 796:lvgl/src/core/lv_indev.c ****                                                                           &proc->types.pointer.act_
 3484              		.loc 1 796 11 view .LVU1096
 3485 014a CBB1     		cbz	r3, .L258
 3486              	.L247:
 3487              	.LVL296:
 812:lvgl/src/core/lv_indev.c ****         proc->types.pointer.scroll_throw_vect.x = 0;
 3488              		.loc 1 812 47 discriminator 1 view .LVU1097
 3489 014c 636A     		ldr	r3, [r4, #36]
 812:lvgl/src/core/lv_indev.c ****         proc->types.pointer.scroll_throw_vect.x = 0;
 3490              		.loc 1 812 25 discriminator 1 view .LVU1098
 3491 014e 002B     		cmp	r3, #0
 3492 0150 3FF46BAF 		beq	.L248
 813:lvgl/src/core/lv_indev.c ****         proc->types.pointer.scroll_throw_vect.y = 0;
 3493              		.loc 1 813 9 is_stmt 1 view .LVU1099
 813:lvgl/src/core/lv_indev.c ****         proc->types.pointer.scroll_throw_vect.y = 0;
 3494              		.loc 1 813 49 is_stmt 0 view .LVU1100
 3495 0154 0023     		movs	r3, #0
 3496 0156 2383     		strh	r3, [r4, #24]	@ movhi
 814:lvgl/src/core/lv_indev.c ****         _lv_indev_scroll_throw_handler(proc);
 3497              		.loc 1 814 9 is_stmt 1 view .LVU1101
 814:lvgl/src/core/lv_indev.c ****         _lv_indev_scroll_throw_handler(proc);
 3498              		.loc 1 814 49 is_stmt 0 view .LVU1102
 3499 0158 6383     		strh	r3, [r4, #26]	@ movhi
 815:lvgl/src/core/lv_indev.c ****         if(indev_reset_check(proc)) return;
 3500              		.loc 1 815 9 is_stmt 1 view .LVU1103
 3501 015a 2046     		mov	r0, r4
 3502 015c FFF7FEFF 		bl	_lv_indev_scroll_throw_handler
 3503              	.LVL297:
 816:lvgl/src/core/lv_indev.c ****     }
 3504              		.loc 1 816 9 view .LVU1104
 816:lvgl/src/core/lv_indev.c ****     }
 3505              		.loc 1 816 12 is_stmt 0 view .LVU1105
 3506 0160 2046     		mov	r0, r4
 3507 0162 FFF7FEFF 		bl	indev_reset_check
 3508              	.LVL298:
ARM GAS  C:\usertemp\ccMJcN2s.s 			page 100


 816:lvgl/src/core/lv_indev.c ****     }
 3509              		.loc 1 816 11 discriminator 1 view .LVU1106
 3510 0166 0028     		cmp	r0, #0
 3511 0168 3FF45FAF 		beq	.L248
 3512 016c E0E7     		b	.L243
 3513              	.LVL299:
 3514              	.L257:
 794:lvgl/src/core/lv_indev.c ****                                                                           &proc->types.pointer.act_
 3515              		.loc 1 794 35 is_stmt 1 discriminator 1 view .LVU1107
 794:lvgl/src/core/lv_indev.c ****                                                                           &proc->types.pointer.act_
 3516              		.loc 1 794 51 is_stmt 0 discriminator 1 view .LVU1108
 3517 016e 2846     		mov	r0, r5
 3518 0170 FFF7FEFF 		bl	lv_disp_get_layer_top
 3519              	.LVL300:
 3520 0174 3146     		mov	r1, r6
 3521 0176 FFF7FEFF 		bl	lv_indev_search_obj
 3522              	.LVL301:
 794:lvgl/src/core/lv_indev.c ****                                                                           &proc->types.pointer.act_
 3523              		.loc 1 794 49 discriminator 2 view .LVU1109
 3524 017a 424B     		ldr	r3, .L261
 3525 017c 1860     		str	r0, [r3]
 3526 017e E2E7     		b	.L246
 3527              	.L258:
 796:lvgl/src/core/lv_indev.c ****                                                                           &proc->types.pointer.act_
 3528              		.loc 1 796 35 is_stmt 1 discriminator 1 view .LVU1110
 796:lvgl/src/core/lv_indev.c ****                                                                           &proc->types.pointer.act_
 3529              		.loc 1 796 51 is_stmt 0 discriminator 1 view .LVU1111
 3530 0180 2846     		mov	r0, r5
 3531 0182 FFF7FEFF 		bl	lv_disp_get_scr_act
 3532              	.LVL302:
 3533 0186 3146     		mov	r1, r6
 3534 0188 FFF7FEFF 		bl	lv_indev_search_obj
 3535              	.LVL303:
 796:lvgl/src/core/lv_indev.c ****                                                                           &proc->types.pointer.act_
 3536              		.loc 1 796 49 discriminator 2 view .LVU1112
 3537 018c 3D4B     		ldr	r3, .L261
 3538 018e 1860     		str	r0, [r3]
 3539 0190 DCE7     		b	.L247
 3540              	.L255:
 802:lvgl/src/core/lv_indev.c ****         indev_obj_act = lv_indev_search_obj(lv_disp_get_layer_sys(disp), &proc->types.pointer.act_p
 3541              		.loc 1 802 13 view .LVU1113
 3542 0192 4FF40051 		mov	r1, #8192
 3543 0196 FFF7FEFF 		bl	lv_obj_has_flag
 3544              	.LVL304:
 801:lvgl/src/core/lv_indev.c ****             lv_obj_has_flag(indev_obj_act, LV_OBJ_FLAG_PRESS_LOCK) == false) {
 3545              		.loc 1 801 52 discriminator 1 view .LVU1114
 3546 019a 0028     		cmp	r0, #0
 3547 019c 7FF445AF 		bne	.L248
 803:lvgl/src/core/lv_indev.c ****         if(indev_obj_act == NULL) indev_obj_act = lv_indev_search_obj(lv_disp_get_layer_top(disp),
 3548              		.loc 1 803 9 is_stmt 1 view .LVU1115
 803:lvgl/src/core/lv_indev.c ****         if(indev_obj_act == NULL) indev_obj_act = lv_indev_search_obj(lv_disp_get_layer_top(disp),
 3549              		.loc 1 803 25 is_stmt 0 view .LVU1116
 3550 01a0 2846     		mov	r0, r5
 3551 01a2 FFF7FEFF 		bl	lv_disp_get_layer_sys
 3552              	.LVL305:
 803:lvgl/src/core/lv_indev.c ****         if(indev_obj_act == NULL) indev_obj_act = lv_indev_search_obj(lv_disp_get_layer_top(disp),
 3553              		.loc 1 803 25 discriminator 1 view .LVU1117
ARM GAS  C:\usertemp\ccMJcN2s.s 			page 101


 3554 01a6 261D     		adds	r6, r4, #4
 3555 01a8 3146     		mov	r1, r6
 3556 01aa FFF7FEFF 		bl	lv_indev_search_obj
 3557              	.LVL306:
 803:lvgl/src/core/lv_indev.c ****         if(indev_obj_act == NULL) indev_obj_act = lv_indev_search_obj(lv_disp_get_layer_top(disp),
 3558              		.loc 1 803 23 discriminator 2 view .LVU1118
 3559 01ae 354B     		ldr	r3, .L261
 3560 01b0 1860     		str	r0, [r3]
 804:lvgl/src/core/lv_indev.c ****                                                                           &proc->types.pointer.act_
 3561              		.loc 1 804 9 is_stmt 1 view .LVU1119
 804:lvgl/src/core/lv_indev.c ****                                                                           &proc->types.pointer.act_
 3562              		.loc 1 804 11 is_stmt 0 view .LVU1120
 3563 01b2 60B1     		cbz	r0, .L259
 3564              	.L249:
 806:lvgl/src/core/lv_indev.c ****                                                                           &proc->types.pointer.act_
 3565              		.loc 1 806 9 is_stmt 1 view .LVU1121
 806:lvgl/src/core/lv_indev.c ****                                                                           &proc->types.pointer.act_
 3566              		.loc 1 806 26 is_stmt 0 view .LVU1122
 3567 01b4 334B     		ldr	r3, .L261
 3568 01b6 1B68     		ldr	r3, [r3]
 806:lvgl/src/core/lv_indev.c ****                                                                           &proc->types.pointer.act_
 3569              		.loc 1 806 11 view .LVU1123
 3570 01b8 002B     		cmp	r3, #0
 3571 01ba C7D1     		bne	.L247
 806:lvgl/src/core/lv_indev.c ****                                                                           &proc->types.pointer.act_
 3572              		.loc 1 806 35 is_stmt 1 discriminator 1 view .LVU1124
 806:lvgl/src/core/lv_indev.c ****                                                                           &proc->types.pointer.act_
 3573              		.loc 1 806 51 is_stmt 0 discriminator 1 view .LVU1125
 3574 01bc 2846     		mov	r0, r5
 3575 01be FFF7FEFF 		bl	lv_disp_get_scr_act
 3576              	.LVL307:
 3577 01c2 3146     		mov	r1, r6
 3578 01c4 FFF7FEFF 		bl	lv_indev_search_obj
 3579              	.LVL308:
 806:lvgl/src/core/lv_indev.c ****                                                                           &proc->types.pointer.act_
 3580              		.loc 1 806 49 discriminator 2 view .LVU1126
 3581 01c8 2E4B     		ldr	r3, .L261
 3582 01ca 1860     		str	r0, [r3]
 3583 01cc BEE7     		b	.L247
 3584              	.L259:
 804:lvgl/src/core/lv_indev.c ****                                                                           &proc->types.pointer.act_
 3585              		.loc 1 804 35 is_stmt 1 discriminator 1 view .LVU1127
 804:lvgl/src/core/lv_indev.c ****                                                                           &proc->types.pointer.act_
 3586              		.loc 1 804 51 is_stmt 0 discriminator 1 view .LVU1128
 3587 01ce 2846     		mov	r0, r5
 3588 01d0 FFF7FEFF 		bl	lv_disp_get_layer_top
 3589              	.LVL309:
 3590 01d4 3146     		mov	r1, r6
 3591 01d6 FFF7FEFF 		bl	lv_indev_search_obj
 3592              	.LVL310:
 804:lvgl/src/core/lv_indev.c ****                                                                           &proc->types.pointer.act_
 3593              		.loc 1 804 49 discriminator 2 view .LVU1129
 3594 01da 2A4B     		ldr	r3, .L261
 3595 01dc 1860     		str	r0, [r3]
 3596 01de E9E7     		b	.L249
 3597              	.LVL311:
 3598              	.L256:
ARM GAS  C:\usertemp\ccMJcN2s.s 			page 102


 881:lvgl/src/core/lv_indev.c ****         if(indev_reset_check(proc)) return;
 3599              		.loc 1 881 9 is_stmt 1 view .LVU1130
 3600 01e0 2046     		mov	r0, r4
 3601 01e2 FFF7FEFF 		bl	_lv_indev_scroll_handler
 3602              	.LVL312:
 882:lvgl/src/core/lv_indev.c ****         indev_gesture(proc);
 3603              		.loc 1 882 9 view .LVU1131
 882:lvgl/src/core/lv_indev.c ****         indev_gesture(proc);
 3604              		.loc 1 882 12 is_stmt 0 view .LVU1132
 3605 01e6 2046     		mov	r0, r4
 3606 01e8 FFF7FEFF 		bl	indev_reset_check
 3607              	.LVL313:
 882:lvgl/src/core/lv_indev.c ****         indev_gesture(proc);
 3608              		.loc 1 882 11 discriminator 1 view .LVU1133
 3609 01ec 0028     		cmp	r0, #0
 3610 01ee 9FD1     		bne	.L243
 883:lvgl/src/core/lv_indev.c ****         if(indev_reset_check(proc)) return;
 3611              		.loc 1 883 9 is_stmt 1 view .LVU1134
 3612 01f0 2046     		mov	r0, r4
 3613 01f2 FFF7FEFF 		bl	indev_gesture
 3614              	.LVL314:
 884:lvgl/src/core/lv_indev.c **** 
 3615              		.loc 1 884 9 view .LVU1135
 884:lvgl/src/core/lv_indev.c **** 
 3616              		.loc 1 884 12 is_stmt 0 view .LVU1136
 3617 01f6 2046     		mov	r0, r4
 3618 01f8 FFF7FEFF 		bl	indev_reset_check
 3619              	.LVL315:
 884:lvgl/src/core/lv_indev.c **** 
 3620              		.loc 1 884 11 discriminator 1 view .LVU1137
 3621 01fc 0028     		cmp	r0, #0
 3622 01fe 97D1     		bne	.L243
 887:lvgl/src/core/lv_indev.c ****             /*Call the ancestor's event handler about the long press if enough time elapsed*/
 3623              		.loc 1 887 9 is_stmt 1 view .LVU1138
 887:lvgl/src/core/lv_indev.c ****             /*Call the ancestor's event handler about the long press if enough time elapsed*/
 3624              		.loc 1 887 31 is_stmt 0 view .LVU1139
 3625 0200 A36A     		ldr	r3, [r4, #40]
 887:lvgl/src/core/lv_indev.c ****             /*Call the ancestor's event handler about the long press if enough time elapsed*/
 3626              		.loc 1 887 11 view .LVU1140
 3627 0202 F3B1     		cbz	r3, .L260
 3628              	.L252:
 902:lvgl/src/core/lv_indev.c ****             /*Call the ancestor's event handler about the long press repeat if enough time elapsed*
 3629              		.loc 1 902 9 is_stmt 1 view .LVU1141
 902:lvgl/src/core/lv_indev.c ****             /*Call the ancestor's event handler about the long press repeat if enough time elapsed*
 3630              		.loc 1 902 31 is_stmt 0 view .LVU1142
 3631 0204 A36A     		ldr	r3, [r4, #40]
 902:lvgl/src/core/lv_indev.c ****             /*Call the ancestor's event handler about the long press repeat if enough time elapsed*
 3632              		.loc 1 902 11 view .LVU1143
 3633 0206 002B     		cmp	r3, #0
 3634 0208 92D1     		bne	.L243
 902:lvgl/src/core/lv_indev.c ****             /*Call the ancestor's event handler about the long press repeat if enough time elapsed*
 3635              		.loc 1 902 73 discriminator 1 view .LVU1144
 3636 020a 6378     		ldrb	r3, [r4, #1]	@ zero_extendqisi2
 902:lvgl/src/core/lv_indev.c ****             /*Call the ancestor's event handler about the long press repeat if enough time elapsed*
 3637              		.loc 1 902 51 discriminator 1 view .LVU1145
 3638 020c 13F0010F 		tst	r3, #1
 3639 0210 8ED0     		beq	.L243
ARM GAS  C:\usertemp\ccMJcN2s.s 			page 103


 904:lvgl/src/core/lv_indev.c ****                 lv_event_send(indev_obj_act, LV_EVENT_LONG_PRESSED_REPEAT, indev_act);
 3640              		.loc 1 904 13 is_stmt 1 view .LVU1146
 904:lvgl/src/core/lv_indev.c ****                 lv_event_send(indev_obj_act, LV_EVENT_LONG_PRESSED_REPEAT, indev_act);
 3641              		.loc 1 904 16 is_stmt 0 view .LVU1147
 3642 0212 606C     		ldr	r0, [r4, #68]
 3643 0214 FFF7FEFF 		bl	lv_tick_elaps
 3644              	.LVL316:
 904:lvgl/src/core/lv_indev.c ****                 lv_event_send(indev_obj_act, LV_EVENT_LONG_PRESSED_REPEAT, indev_act);
 3645              		.loc 1 904 69 discriminator 1 view .LVU1148
 3646 0218 1B4B     		ldr	r3, .L261+4
 3647 021a 1A68     		ldr	r2, [r3]
 3648 021c 1368     		ldr	r3, [r2]
 904:lvgl/src/core/lv_indev.c ****                 lv_event_send(indev_obj_act, LV_EVENT_LONG_PRESSED_REPEAT, indev_act);
 3649              		.loc 1 904 77 discriminator 1 view .LVU1149
 3650 021e DB8B     		ldrh	r3, [r3, #30]
 904:lvgl/src/core/lv_indev.c ****                 lv_event_send(indev_obj_act, LV_EVENT_LONG_PRESSED_REPEAT, indev_act);
 3651              		.loc 1 904 15 discriminator 1 view .LVU1150
 3652 0220 9842     		cmp	r0, r3
 3653 0222 85D9     		bls	.L243
 905:lvgl/src/core/lv_indev.c ****                 if(indev_reset_check(proc)) return;
 3654              		.loc 1 905 17 is_stmt 1 view .LVU1151
 3655 0224 0621     		movs	r1, #6
 3656 0226 174B     		ldr	r3, .L261
 3657 0228 1868     		ldr	r0, [r3]
 3658 022a FFF7FEFF 		bl	lv_event_send
 3659              	.LVL317:
 906:lvgl/src/core/lv_indev.c ****                 proc->longpr_rep_timestamp = lv_tick_get();
 3660              		.loc 1 906 17 view .LVU1152
 906:lvgl/src/core/lv_indev.c ****                 proc->longpr_rep_timestamp = lv_tick_get();
 3661              		.loc 1 906 20 is_stmt 0 view .LVU1153
 3662 022e 2046     		mov	r0, r4
 3663 0230 FFF7FEFF 		bl	indev_reset_check
 3664              	.LVL318:
 906:lvgl/src/core/lv_indev.c ****                 proc->longpr_rep_timestamp = lv_tick_get();
 3665              		.loc 1 906 19 discriminator 1 view .LVU1154
 3666 0234 0028     		cmp	r0, #0
 3667 0236 7FF47BAF 		bne	.L243
 907:lvgl/src/core/lv_indev.c ****             }
 3668              		.loc 1 907 17 is_stmt 1 view .LVU1155
 907:lvgl/src/core/lv_indev.c ****             }
 3669              		.loc 1 907 46 is_stmt 0 view .LVU1156
 3670 023a FFF7FEFF 		bl	lv_tick_get
 3671              	.LVL319:
 907:lvgl/src/core/lv_indev.c ****             }
 3672              		.loc 1 907 44 discriminator 1 view .LVU1157
 3673 023e 6064     		str	r0, [r4, #68]
 3674 0240 76E7     		b	.L243
 3675              	.L260:
 887:lvgl/src/core/lv_indev.c ****             /*Call the ancestor's event handler about the long press if enough time elapsed*/
 3676              		.loc 1 887 73 discriminator 1 view .LVU1158
 3677 0242 6378     		ldrb	r3, [r4, #1]	@ zero_extendqisi2
 887:lvgl/src/core/lv_indev.c ****             /*Call the ancestor's event handler about the long press if enough time elapsed*/
 3678              		.loc 1 887 51 discriminator 1 view .LVU1159
 3679 0244 13F0010F 		tst	r3, #1
 3680 0248 DCD1     		bne	.L252
 889:lvgl/src/core/lv_indev.c ****                 lv_event_send(indev_obj_act, LV_EVENT_LONG_PRESSED, indev_act);
 3681              		.loc 1 889 13 is_stmt 1 view .LVU1160
ARM GAS  C:\usertemp\ccMJcN2s.s 			page 104


 889:lvgl/src/core/lv_indev.c ****                 lv_event_send(indev_obj_act, LV_EVENT_LONG_PRESSED, indev_act);
 3682              		.loc 1 889 16 is_stmt 0 view .LVU1161
 3683 024a 206C     		ldr	r0, [r4, #64]
 3684 024c FFF7FEFF 		bl	lv_tick_elaps
 3685              	.LVL320:
 889:lvgl/src/core/lv_indev.c ****                 lv_event_send(indev_obj_act, LV_EVENT_LONG_PRESSED, indev_act);
 3686              		.loc 1 889 61 discriminator 1 view .LVU1162
 3687 0250 0D4B     		ldr	r3, .L261+4
 3688 0252 1A68     		ldr	r2, [r3]
 3689 0254 1368     		ldr	r3, [r2]
 889:lvgl/src/core/lv_indev.c ****                 lv_event_send(indev_obj_act, LV_EVENT_LONG_PRESSED, indev_act);
 3690              		.loc 1 889 69 discriminator 1 view .LVU1163
 3691 0256 9B8B     		ldrh	r3, [r3, #28]
 889:lvgl/src/core/lv_indev.c ****                 lv_event_send(indev_obj_act, LV_EVENT_LONG_PRESSED, indev_act);
 3692              		.loc 1 889 15 discriminator 1 view .LVU1164
 3693 0258 9842     		cmp	r0, r3
 3694 025a D3D9     		bls	.L252
 890:lvgl/src/core/lv_indev.c ****                 if(indev_reset_check(proc)) return;
 3695              		.loc 1 890 17 is_stmt 1 view .LVU1165
 3696 025c 0521     		movs	r1, #5
 3697 025e 094B     		ldr	r3, .L261
 3698 0260 1868     		ldr	r0, [r3]
 3699 0262 FFF7FEFF 		bl	lv_event_send
 3700              	.LVL321:
 891:lvgl/src/core/lv_indev.c **** 
 3701              		.loc 1 891 17 view .LVU1166
 891:lvgl/src/core/lv_indev.c **** 
 3702              		.loc 1 891 20 is_stmt 0 view .LVU1167
 3703 0266 2046     		mov	r0, r4
 3704 0268 FFF7FEFF 		bl	indev_reset_check
 3705              	.LVL322:
 891:lvgl/src/core/lv_indev.c **** 
 3706              		.loc 1 891 19 discriminator 1 view .LVU1168
 3707 026c 0028     		cmp	r0, #0
 3708 026e 7FF45FAF 		bne	.L243
 894:lvgl/src/core/lv_indev.c **** 
 3709              		.loc 1 894 17 is_stmt 1 view .LVU1169
 894:lvgl/src/core/lv_indev.c **** 
 3710              		.loc 1 894 36 is_stmt 0 view .LVU1170
 3711 0272 6378     		ldrb	r3, [r4, #1]	@ zero_extendqisi2
 3712 0274 43F00103 		orr	r3, r3, #1
 3713 0278 6370     		strb	r3, [r4, #1]
 897:lvgl/src/core/lv_indev.c ****             }
 3714              		.loc 1 897 17 is_stmt 1 view .LVU1171
 897:lvgl/src/core/lv_indev.c ****             }
 3715              		.loc 1 897 46 is_stmt 0 view .LVU1172
 3716 027a FFF7FEFF 		bl	lv_tick_get
 3717              	.LVL323:
 897:lvgl/src/core/lv_indev.c ****             }
 3718              		.loc 1 897 44 discriminator 1 view .LVU1173
 3719 027e 6064     		str	r0, [r4, #68]
 3720 0280 C0E7     		b	.L252
 3721              	.L262:
 3722 0282 00BF     		.align	2
 3723              	.L261:
 3724 0284 00000000 		.word	indev_obj_act
 3725 0288 00000000 		.word	indev_act
ARM GAS  C:\usertemp\ccMJcN2s.s 			page 105


 3726              		.cfi_endproc
 3727              	.LFE185:
 3729              		.section	.text.indev_pointer_proc,"ax",%progbits
 3730              		.align	1
 3731              		.syntax unified
 3732              		.thumb
 3733              		.thumb_func
 3735              	indev_pointer_proc:
 3736              	.LVL324:
 3737              	.LFB181:
 326:lvgl/src/core/lv_indev.c ****     lv_disp_t * disp = i->driver->disp;
 3738              		.loc 1 326 1 is_stmt 1 view -0
 3739              		.cfi_startproc
 3740              		@ args = 0, pretend = 0, frame = 0
 3741              		@ frame_needed = 0, uses_anonymous_args = 0
 326:lvgl/src/core/lv_indev.c ****     lv_disp_t * disp = i->driver->disp;
 3742              		.loc 1 326 1 is_stmt 0 view .LVU1175
 3743 0000 38B5     		push	{r3, r4, r5, lr}
 3744              	.LCFI10:
 3745              		.cfi_def_cfa_offset 16
 3746              		.cfi_offset 3, -16
 3747              		.cfi_offset 4, -12
 3748              		.cfi_offset 5, -8
 3749              		.cfi_offset 14, -4
 3750 0002 0446     		mov	r4, r0
 3751 0004 0D46     		mov	r5, r1
 327:lvgl/src/core/lv_indev.c ****     /*Save the raw points so they can be used again in _lv_indev_read*/
 3752              		.loc 1 327 5 is_stmt 1 view .LVU1176
 327:lvgl/src/core/lv_indev.c ****     /*Save the raw points so they can be used again in _lv_indev_read*/
 3753              		.loc 1 327 25 is_stmt 0 view .LVU1177
 3754 0006 0368     		ldr	r3, [r0]
 327:lvgl/src/core/lv_indev.c ****     /*Save the raw points so they can be used again in _lv_indev_read*/
 3755              		.loc 1 327 17 view .LVU1178
 3756 0008 1A69     		ldr	r2, [r3, #16]
 3757              	.LVL325:
 329:lvgl/src/core/lv_indev.c ****     i->proc.types.pointer.last_raw_point.y = data->point.y;
 3758              		.loc 1 329 5 is_stmt 1 view .LVU1179
 329:lvgl/src/core/lv_indev.c ****     i->proc.types.pointer.last_raw_point.y = data->point.y;
 3759              		.loc 1 329 57 is_stmt 0 view .LVU1180
 3760 000a B1F90030 		ldrsh	r3, [r1]
 329:lvgl/src/core/lv_indev.c ****     i->proc.types.pointer.last_raw_point.y = data->point.y;
 3761              		.loc 1 329 44 view .LVU1181
 3762 000e 0382     		strh	r3, [r0, #16]	@ movhi
 330:lvgl/src/core/lv_indev.c **** 
 3763              		.loc 1 330 5 is_stmt 1 view .LVU1182
 330:lvgl/src/core/lv_indev.c **** 
 3764              		.loc 1 330 57 is_stmt 0 view .LVU1183
 3765 0010 B1F90210 		ldrsh	r1, [r1, #2]
 3766              	.LVL326:
 330:lvgl/src/core/lv_indev.c **** 
 3767              		.loc 1 330 44 view .LVU1184
 3768 0014 4182     		strh	r1, [r0, #18]	@ movhi
 332:lvgl/src/core/lv_indev.c ****         data->point.x = disp->driver->hor_res - data->point.x - 1;
 3769              		.loc 1 332 5 is_stmt 1 view .LVU1185
 332:lvgl/src/core/lv_indev.c ****         data->point.x = disp->driver->hor_res - data->point.x - 1;
 3770              		.loc 1 332 12 is_stmt 0 view .LVU1186
 3771 0016 1068     		ldr	r0, [r2]
ARM GAS  C:\usertemp\ccMJcN2s.s 			page 106


 3772              	.LVL327:
 332:lvgl/src/core/lv_indev.c ****         data->point.x = disp->driver->hor_res - data->point.x - 1;
 3773              		.loc 1 332 30 view .LVU1187
 3774 0018 037C     		ldrb	r3, [r0, #16]	@ zero_extendqisi2
 332:lvgl/src/core/lv_indev.c ****         data->point.x = disp->driver->hor_res - data->point.x - 1;
 3775              		.loc 1 332 49 view .LVU1188
 3776 001a 03F03003 		and	r3, r3, #48
 332:lvgl/src/core/lv_indev.c ****         data->point.x = disp->driver->hor_res - data->point.x - 1;
 3777              		.loc 1 332 7 view .LVU1189
 3778 001e 302B     		cmp	r3, #48
 3779 0020 18BF     		it	ne
 3780 0022 202B     		cmpne	r3, #32
 3781 0024 0CD1     		bne	.L264
 333:lvgl/src/core/lv_indev.c ****         data->point.y = disp->driver->ver_res - data->point.y - 1;
 3782              		.loc 1 333 9 is_stmt 1 view .LVU1190
 333:lvgl/src/core/lv_indev.c ****         data->point.y = disp->driver->ver_res - data->point.y - 1;
 3783              		.loc 1 333 37 is_stmt 0 view .LVU1191
 3784 0026 0388     		ldrh	r3, [r0]
 333:lvgl/src/core/lv_indev.c ****         data->point.y = disp->driver->ver_res - data->point.y - 1;
 3785              		.loc 1 333 60 view .LVU1192
 3786 0028 2888     		ldrh	r0, [r5]
 333:lvgl/src/core/lv_indev.c ****         data->point.y = disp->driver->ver_res - data->point.y - 1;
 3787              		.loc 1 333 47 view .LVU1193
 3788 002a 1B1A     		subs	r3, r3, r0
 3789 002c 9BB2     		uxth	r3, r3
 333:lvgl/src/core/lv_indev.c ****         data->point.y = disp->driver->ver_res - data->point.y - 1;
 3790              		.loc 1 333 63 view .LVU1194
 3791 002e 013B     		subs	r3, r3, #1
 333:lvgl/src/core/lv_indev.c ****         data->point.y = disp->driver->ver_res - data->point.y - 1;
 3792              		.loc 1 333 23 view .LVU1195
 3793 0030 2B80     		strh	r3, [r5]	@ movhi
 334:lvgl/src/core/lv_indev.c ****     }
 3794              		.loc 1 334 9 is_stmt 1 view .LVU1196
 334:lvgl/src/core/lv_indev.c ****     }
 3795              		.loc 1 334 29 is_stmt 0 view .LVU1197
 3796 0032 1368     		ldr	r3, [r2]
 334:lvgl/src/core/lv_indev.c ****     }
 3797              		.loc 1 334 37 view .LVU1198
 3798 0034 5B88     		ldrh	r3, [r3, #2]
 334:lvgl/src/core/lv_indev.c ****     }
 3799              		.loc 1 334 60 view .LVU1199
 3800 0036 89B2     		uxth	r1, r1
 334:lvgl/src/core/lv_indev.c ****     }
 3801              		.loc 1 334 47 view .LVU1200
 3802 0038 5B1A     		subs	r3, r3, r1
 3803 003a 9BB2     		uxth	r3, r3
 334:lvgl/src/core/lv_indev.c ****     }
 3804              		.loc 1 334 63 view .LVU1201
 3805 003c 013B     		subs	r3, r3, #1
 334:lvgl/src/core/lv_indev.c ****     }
 3806              		.loc 1 334 23 view .LVU1202
 3807 003e 6B80     		strh	r3, [r5, #2]	@ movhi
 3808              	.L264:
 336:lvgl/src/core/lv_indev.c ****         lv_coord_t tmp = data->point.y;
 3809              		.loc 1 336 5 is_stmt 1 view .LVU1203
 336:lvgl/src/core/lv_indev.c ****         lv_coord_t tmp = data->point.y;
 3810              		.loc 1 336 12 is_stmt 0 view .LVU1204
ARM GAS  C:\usertemp\ccMJcN2s.s 			page 107


 3811 0040 1368     		ldr	r3, [r2]
 336:lvgl/src/core/lv_indev.c ****         lv_coord_t tmp = data->point.y;
 3812              		.loc 1 336 30 view .LVU1205
 3813 0042 1B7C     		ldrb	r3, [r3, #16]	@ zero_extendqisi2
 336:lvgl/src/core/lv_indev.c ****         lv_coord_t tmp = data->point.y;
 3814              		.loc 1 336 48 view .LVU1206
 3815 0044 03F03003 		and	r3, r3, #48
 336:lvgl/src/core/lv_indev.c ****         lv_coord_t tmp = data->point.y;
 3816              		.loc 1 336 7 view .LVU1207
 3817 0048 302B     		cmp	r3, #48
 3818 004a 18BF     		it	ne
 3819 004c 102B     		cmpne	r3, #16
 3820 004e 0AD1     		bne	.L265
 3821              	.LBB11:
 337:lvgl/src/core/lv_indev.c ****         data->point.y = data->point.x;
 3822              		.loc 1 337 9 is_stmt 1 view .LVU1208
 337:lvgl/src/core/lv_indev.c ****         data->point.y = data->point.x;
 3823              		.loc 1 337 20 is_stmt 0 view .LVU1209
 3824 0050 B5F90210 		ldrsh	r1, [r5, #2]
 3825              	.LVL328:
 338:lvgl/src/core/lv_indev.c ****         data->point.x = disp->driver->ver_res - tmp - 1;
 3826              		.loc 1 338 9 is_stmt 1 view .LVU1210
 338:lvgl/src/core/lv_indev.c ****         data->point.x = disp->driver->ver_res - tmp - 1;
 3827              		.loc 1 338 36 is_stmt 0 view .LVU1211
 3828 0054 B5F90030 		ldrsh	r3, [r5]
 338:lvgl/src/core/lv_indev.c ****         data->point.x = disp->driver->ver_res - tmp - 1;
 3829              		.loc 1 338 23 view .LVU1212
 3830 0058 6B80     		strh	r3, [r5, #2]	@ movhi
 3831              	.LVL329:
 339:lvgl/src/core/lv_indev.c ****     }
 3832              		.loc 1 339 9 is_stmt 1 view .LVU1213
 339:lvgl/src/core/lv_indev.c ****     }
 3833              		.loc 1 339 29 is_stmt 0 view .LVU1214
 3834 005a 1368     		ldr	r3, [r2]
 339:lvgl/src/core/lv_indev.c ****     }
 3835              		.loc 1 339 37 view .LVU1215
 3836 005c 5B88     		ldrh	r3, [r3, #2]
 339:lvgl/src/core/lv_indev.c ****     }
 3837              		.loc 1 339 47 view .LVU1216
 3838 005e 5B1A     		subs	r3, r3, r1
 3839 0060 9BB2     		uxth	r3, r3
 339:lvgl/src/core/lv_indev.c ****     }
 3840              		.loc 1 339 53 view .LVU1217
 3841 0062 013B     		subs	r3, r3, #1
 339:lvgl/src/core/lv_indev.c ****     }
 3842              		.loc 1 339 23 view .LVU1218
 3843 0064 2B80     		strh	r3, [r5]	@ movhi
 3844              	.LVL330:
 3845              	.L265:
 339:lvgl/src/core/lv_indev.c ****     }
 3846              		.loc 1 339 23 view .LVU1219
 3847              	.LBE11:
 343:lvgl/src/core/lv_indev.c ****         LV_LOG_WARN("X is %d which is smaller than zero", data->point.x);
 3848              		.loc 1 343 5 is_stmt 1 view .LVU1220
 344:lvgl/src/core/lv_indev.c ****     }
 3849              		.loc 1 344 9 view .LVU1221
 344:lvgl/src/core/lv_indev.c ****     }
ARM GAS  C:\usertemp\ccMJcN2s.s 			page 108


 3850              		.loc 1 344 9 view .LVU1222
 344:lvgl/src/core/lv_indev.c ****     }
 3851              		.loc 1 344 9 view .LVU1223
 346:lvgl/src/core/lv_indev.c ****         LV_LOG_WARN("X is %d which is greater than hor. res", data->point.x);
 3852              		.loc 1 346 5 view .LVU1224
 346:lvgl/src/core/lv_indev.c ****         LV_LOG_WARN("X is %d which is greater than hor. res", data->point.x);
 3853              		.loc 1 346 46 is_stmt 0 view .LVU1225
 3854 0066 2368     		ldr	r3, [r4]
 346:lvgl/src/core/lv_indev.c ****         LV_LOG_WARN("X is %d which is greater than hor. res", data->point.x);
 3855              		.loc 1 346 25 view .LVU1226
 3856 0068 1869     		ldr	r0, [r3, #16]
 3857 006a FFF7FEFF 		bl	lv_disp_get_hor_res
 3858              	.LVL331:
 347:lvgl/src/core/lv_indev.c ****     }
 3859              		.loc 1 347 9 is_stmt 1 view .LVU1227
 347:lvgl/src/core/lv_indev.c ****     }
 3860              		.loc 1 347 9 view .LVU1228
 347:lvgl/src/core/lv_indev.c ****     }
 3861              		.loc 1 347 9 view .LVU1229
 349:lvgl/src/core/lv_indev.c ****         LV_LOG_WARN("Y is %d which is smaller than zero", data->point.y);
 3862              		.loc 1 349 5 view .LVU1230
 350:lvgl/src/core/lv_indev.c ****     }
 3863              		.loc 1 350 9 view .LVU1231
 350:lvgl/src/core/lv_indev.c ****     }
 3864              		.loc 1 350 9 view .LVU1232
 350:lvgl/src/core/lv_indev.c ****     }
 3865              		.loc 1 350 9 view .LVU1233
 352:lvgl/src/core/lv_indev.c ****         LV_LOG_WARN("Y is %d which is greater than ver. res", data->point.y);
 3866              		.loc 1 352 5 view .LVU1234
 352:lvgl/src/core/lv_indev.c ****         LV_LOG_WARN("Y is %d which is greater than ver. res", data->point.y);
 3867              		.loc 1 352 46 is_stmt 0 view .LVU1235
 3868 006e 2368     		ldr	r3, [r4]
 352:lvgl/src/core/lv_indev.c ****         LV_LOG_WARN("Y is %d which is greater than ver. res", data->point.y);
 3869              		.loc 1 352 25 view .LVU1236
 3870 0070 1869     		ldr	r0, [r3, #16]
 3871 0072 FFF7FEFF 		bl	lv_disp_get_ver_res
 3872              	.LVL332:
 353:lvgl/src/core/lv_indev.c ****     }
 3873              		.loc 1 353 9 is_stmt 1 view .LVU1237
 353:lvgl/src/core/lv_indev.c ****     }
 3874              		.loc 1 353 9 view .LVU1238
 353:lvgl/src/core/lv_indev.c ****     }
 3875              		.loc 1 353 9 view .LVU1239
 357:lvgl/src/core/lv_indev.c ****        (i->proc.types.pointer.last_point.x != data->point.x || i->proc.types.pointer.last_point.y !
 3876              		.loc 1 357 5 view .LVU1240
 357:lvgl/src/core/lv_indev.c ****        (i->proc.types.pointer.last_point.x != data->point.x || i->proc.types.pointer.last_point.y !
 3877              		.loc 1 357 9 is_stmt 0 view .LVU1241
 3878 0076 E06C     		ldr	r0, [r4, #76]
 357:lvgl/src/core/lv_indev.c ****        (i->proc.types.pointer.last_point.x != data->point.x || i->proc.types.pointer.last_point.y !
 3879              		.loc 1 357 7 view .LVU1242
 3880 0078 18B1     		cbz	r0, .L266
 358:lvgl/src/core/lv_indev.c ****         lv_obj_set_pos(i->cursor, data->point.x, data->point.y);
 3881              		.loc 1 358 61 view .LVU1243
 3882 007a E268     		ldr	r2, [r4, #12]
 3883 007c 2B68     		ldr	r3, [r5]
 357:lvgl/src/core/lv_indev.c ****        (i->proc.types.pointer.last_point.x != data->point.x || i->proc.types.pointer.last_point.y !
 3884              		.loc 1 357 26 discriminator 1 view .LVU1244
ARM GAS  C:\usertemp\ccMJcN2s.s 			page 109


 3885 007e 9A42     		cmp	r2, r3
 3886 0080 12D1     		bne	.L270
 3887              	.L266:
 362:lvgl/src/core/lv_indev.c ****     i->proc.types.pointer.act_point.y = data->point.y;
 3888              		.loc 1 362 5 is_stmt 1 view .LVU1245
 362:lvgl/src/core/lv_indev.c ****     i->proc.types.pointer.act_point.y = data->point.y;
 3889              		.loc 1 362 52 is_stmt 0 view .LVU1246
 3890 0082 B5F90030 		ldrsh	r3, [r5]
 362:lvgl/src/core/lv_indev.c ****     i->proc.types.pointer.act_point.y = data->point.y;
 3891              		.loc 1 362 39 view .LVU1247
 3892 0086 2381     		strh	r3, [r4, #8]	@ movhi
 363:lvgl/src/core/lv_indev.c **** 
 3893              		.loc 1 363 5 is_stmt 1 view .LVU1248
 363:lvgl/src/core/lv_indev.c **** 
 3894              		.loc 1 363 52 is_stmt 0 view .LVU1249
 3895 0088 B5F90230 		ldrsh	r3, [r5, #2]
 363:lvgl/src/core/lv_indev.c **** 
 3896              		.loc 1 363 39 view .LVU1250
 3897 008c 6381     		strh	r3, [r4, #10]	@ movhi
 365:lvgl/src/core/lv_indev.c ****         indev_proc_press(&i->proc);
 3898              		.loc 1 365 5 is_stmt 1 view .LVU1251
 365:lvgl/src/core/lv_indev.c ****         indev_proc_press(&i->proc);
 3899              		.loc 1 365 15 is_stmt 0 view .LVU1252
 3900 008e 2379     		ldrb	r3, [r4, #4]	@ zero_extendqisi2
 365:lvgl/src/core/lv_indev.c ****         indev_proc_press(&i->proc);
 3901              		.loc 1 365 7 view .LVU1253
 3902 0090 012B     		cmp	r3, #1
 3903 0092 10D0     		beq	.L271
 369:lvgl/src/core/lv_indev.c ****     }
 3904              		.loc 1 369 9 is_stmt 1 view .LVU1254
 3905 0094 201D     		adds	r0, r4, #4
 3906 0096 FFF7FEFF 		bl	indev_proc_release
 3907              	.LVL333:
 3908              	.L268:
 372:lvgl/src/core/lv_indev.c ****     i->proc.types.pointer.last_point.y = i->proc.types.pointer.act_point.y;
 3909              		.loc 1 372 5 view .LVU1255
 372:lvgl/src/core/lv_indev.c ****     i->proc.types.pointer.last_point.y = i->proc.types.pointer.act_point.y;
 3910              		.loc 1 372 73 is_stmt 0 view .LVU1256
 3911 009a B4F90830 		ldrsh	r3, [r4, #8]
 372:lvgl/src/core/lv_indev.c ****     i->proc.types.pointer.last_point.y = i->proc.types.pointer.act_point.y;
 3912              		.loc 1 372 40 view .LVU1257
 3913 009e A381     		strh	r3, [r4, #12]	@ movhi
 373:lvgl/src/core/lv_indev.c **** }
 3914              		.loc 1 373 5 is_stmt 1 view .LVU1258
 373:lvgl/src/core/lv_indev.c **** }
 3915              		.loc 1 373 73 is_stmt 0 view .LVU1259
 3916 00a0 B4F90A30 		ldrsh	r3, [r4, #10]
 373:lvgl/src/core/lv_indev.c **** }
 3917              		.loc 1 373 40 view .LVU1260
 3918 00a4 E381     		strh	r3, [r4, #14]	@ movhi
 374:lvgl/src/core/lv_indev.c **** 
 3919              		.loc 1 374 1 view .LVU1261
 3920 00a6 38BD     		pop	{r3, r4, r5, pc}
 3921              	.LVL334:
 3922              	.L270:
 359:lvgl/src/core/lv_indev.c ****     }
 3923              		.loc 1 359 9 is_stmt 1 view .LVU1262
ARM GAS  C:\usertemp\ccMJcN2s.s 			page 110


 3924 00a8 B5F90220 		ldrsh	r2, [r5, #2]
 3925 00ac B5F90010 		ldrsh	r1, [r5]
 3926 00b0 FFF7FEFF 		bl	lv_obj_set_pos
 3927              	.LVL335:
 3928 00b4 E5E7     		b	.L266
 3929              	.L271:
 366:lvgl/src/core/lv_indev.c ****     }
 3930              		.loc 1 366 9 view .LVU1263
 3931 00b6 201D     		adds	r0, r4, #4
 3932 00b8 FFF7FEFF 		bl	indev_proc_press
 3933              	.LVL336:
 3934 00bc EDE7     		b	.L268
 3935              		.cfi_endproc
 3936              	.LFE181:
 3938              		.section	.text.indev_button_proc,"ax",%progbits
 3939              		.align	1
 3940              		.syntax unified
 3941              		.thumb
 3942              		.thumb_func
 3944              	indev_button_proc:
 3945              	.LVL337:
 3946              	.LFB184:
 733:lvgl/src/core/lv_indev.c ****     /*Die gracefully if i->btn_points is NULL*/
 3947              		.loc 1 733 1 view -0
 3948              		.cfi_startproc
 3949              		@ args = 0, pretend = 0, frame = 0
 3950              		@ frame_needed = 0, uses_anonymous_args = 0
 735:lvgl/src/core/lv_indev.c ****         LV_LOG_WARN("btn_points is NULL");
 3951              		.loc 1 735 5 view .LVU1265
 735:lvgl/src/core/lv_indev.c ****         LV_LOG_WARN("btn_points is NULL");
 3952              		.loc 1 735 9 is_stmt 0 view .LVU1266
 3953 0000 436D     		ldr	r3, [r0, #84]
 735:lvgl/src/core/lv_indev.c ****         LV_LOG_WARN("btn_points is NULL");
 3954              		.loc 1 735 7 view .LVU1267
 3955 0002 BBB3     		cbz	r3, .L279
 733:lvgl/src/core/lv_indev.c ****     /*Die gracefully if i->btn_points is NULL*/
 3956              		.loc 1 733 1 view .LVU1268
 3957 0004 2DE9F041 		push	{r4, r5, r6, r7, r8, lr}
 3958              	.LCFI11:
 3959              		.cfi_def_cfa_offset 24
 3960              		.cfi_offset 4, -24
 3961              		.cfi_offset 5, -20
 3962              		.cfi_offset 6, -16
 3963              		.cfi_offset 7, -12
 3964              		.cfi_offset 8, -8
 3965              		.cfi_offset 14, -4
 3966 0008 0446     		mov	r4, r0
 3967 000a 0D46     		mov	r5, r1
 740:lvgl/src/core/lv_indev.c ****     lv_coord_t y = i->btn_points[data->btn_id].y;
 3968              		.loc 1 740 5 is_stmt 1 view .LVU1269
 740:lvgl/src/core/lv_indev.c ****     lv_coord_t y = i->btn_points[data->btn_id].y;
 3969              		.loc 1 740 38 is_stmt 0 view .LVU1270
 3970 000c 8A68     		ldr	r2, [r1, #8]
 740:lvgl/src/core/lv_indev.c ****     lv_coord_t y = i->btn_points[data->btn_id].y;
 3971              		.loc 1 740 33 view .LVU1271
 3972 000e 03EB8201 		add	r1, r3, r2, lsl #2
 3973              	.LVL338:
ARM GAS  C:\usertemp\ccMJcN2s.s 			page 111


 740:lvgl/src/core/lv_indev.c ****     lv_coord_t y = i->btn_points[data->btn_id].y;
 3974              		.loc 1 740 16 view .LVU1272
 3975 0012 33F92270 		ldrsh	r7, [r3, r2, lsl #2]
 3976              	.LVL339:
 741:lvgl/src/core/lv_indev.c **** 
 3977              		.loc 1 741 5 is_stmt 1 view .LVU1273
 741:lvgl/src/core/lv_indev.c **** 
 3978              		.loc 1 741 16 is_stmt 0 view .LVU1274
 3979 0016 B1F90280 		ldrsh	r8, [r1, #2]
 3980              	.LVL340:
 743:lvgl/src/core/lv_indev.c ****     if(prev_state != data->state) {
 3981              		.loc 1 743 5 is_stmt 1 view .LVU1275
 744:lvgl/src/core/lv_indev.c ****         if(data->state == LV_INDEV_STATE_PRESSED) {
 3982              		.loc 1 744 5 view .LVU1276
 744:lvgl/src/core/lv_indev.c ****         if(data->state == LV_INDEV_STATE_PRESSED) {
 3983              		.loc 1 744 26 is_stmt 0 view .LVU1277
 3984 001a AB7B     		ldrb	r3, [r5, #14]	@ zero_extendqisi2
 745:lvgl/src/core/lv_indev.c ****             LV_LOG_INFO("button %d is pressed (x:%d y:%d)", data->btn_id, x, y);
 3985              		.loc 1 745 9 is_stmt 1 view .LVU1278
 746:lvgl/src/core/lv_indev.c ****         }
 3986              		.loc 1 746 13 view .LVU1279
 746:lvgl/src/core/lv_indev.c ****         }
 3987              		.loc 1 746 13 view .LVU1280
 746:lvgl/src/core/lv_indev.c ****         }
 3988              		.loc 1 746 13 view .LVU1281
 749:lvgl/src/core/lv_indev.c ****         }
 3989              		.loc 1 749 13 view .LVU1282
 749:lvgl/src/core/lv_indev.c ****         }
 3990              		.loc 1 749 13 view .LVU1283
 749:lvgl/src/core/lv_indev.c ****         }
 3991              		.loc 1 749 13 view .LVU1284
 754:lvgl/src/core/lv_indev.c ****         if(i->proc.types.pointer.last_point.x != x ||
 3992              		.loc 1 754 5 view .LVU1285
 754:lvgl/src/core/lv_indev.c ****         if(i->proc.types.pointer.last_point.x != x ||
 3993              		.loc 1 754 7 is_stmt 0 view .LVU1286
 3994 001c 012B     		cmp	r3, #1
 3995 001e 19D0     		beq	.L282
 3996              	.LVL341:
 3997              	.L274:
 761:lvgl/src/core/lv_indev.c **** 
 3998              		.loc 1 761 5 is_stmt 1 view .LVU1287
 761:lvgl/src/core/lv_indev.c **** 
 3999              		.loc 1 761 8 is_stmt 0 view .LVU1288
 4000 0020 261D     		adds	r6, r4, #4
 4001 0022 3046     		mov	r0, r6
 4002 0024 FFF7FEFF 		bl	indev_reset_check
 4003              	.LVL342:
 761:lvgl/src/core/lv_indev.c **** 
 4004              		.loc 1 761 7 discriminator 1 view .LVU1289
 4005 0028 90B9     		cbnz	r0, .L272
 764:lvgl/src/core/lv_indev.c ****     i->proc.types.pointer.act_point.y = y;
 4006              		.loc 1 764 5 is_stmt 1 view .LVU1290
 764:lvgl/src/core/lv_indev.c ****     i->proc.types.pointer.act_point.y = y;
 4007              		.loc 1 764 39 is_stmt 0 view .LVU1291
 4008 002a 2781     		strh	r7, [r4, #8]	@ movhi
 765:lvgl/src/core/lv_indev.c **** 
 4009              		.loc 1 765 5 is_stmt 1 view .LVU1292
ARM GAS  C:\usertemp\ccMJcN2s.s 			page 112


 765:lvgl/src/core/lv_indev.c **** 
 4010              		.loc 1 765 39 is_stmt 0 view .LVU1293
 4011 002c A4F80A80 		strh	r8, [r4, #10]	@ movhi
 767:lvgl/src/core/lv_indev.c ****     else indev_proc_release(&i->proc);
 4012              		.loc 1 767 5 is_stmt 1 view .LVU1294
 767:lvgl/src/core/lv_indev.c ****     else indev_proc_release(&i->proc);
 4013              		.loc 1 767 12 is_stmt 0 view .LVU1295
 4014 0030 AB7B     		ldrb	r3, [r5, #14]	@ zero_extendqisi2
 767:lvgl/src/core/lv_indev.c ****     else indev_proc_release(&i->proc);
 4015              		.loc 1 767 7 view .LVU1296
 4016 0032 012B     		cmp	r3, #1
 4017 0034 1AD0     		beq	.L283
 768:lvgl/src/core/lv_indev.c **** 
 4018              		.loc 1 768 10 is_stmt 1 view .LVU1297
 4019 0036 3046     		mov	r0, r6
 4020 0038 FFF7FEFF 		bl	indev_proc_release
 4021              	.LVL343:
 4022              	.L277:
 770:lvgl/src/core/lv_indev.c **** 
 4023              		.loc 1 770 5 view .LVU1298
 770:lvgl/src/core/lv_indev.c **** 
 4024              		.loc 1 770 8 is_stmt 0 view .LVU1299
 4025 003c 3046     		mov	r0, r6
 4026 003e FFF7FEFF 		bl	indev_reset_check
 4027              	.LVL344:
 770:lvgl/src/core/lv_indev.c **** 
 4028              		.loc 1 770 7 discriminator 1 view .LVU1300
 4029 0042 28B9     		cbnz	r0, .L272
 772:lvgl/src/core/lv_indev.c ****     i->proc.types.pointer.last_point.y = i->proc.types.pointer.act_point.y;
 4030              		.loc 1 772 5 is_stmt 1 view .LVU1301
 772:lvgl/src/core/lv_indev.c ****     i->proc.types.pointer.last_point.y = i->proc.types.pointer.act_point.y;
 4031              		.loc 1 772 73 is_stmt 0 view .LVU1302
 4032 0044 B4F90830 		ldrsh	r3, [r4, #8]
 772:lvgl/src/core/lv_indev.c ****     i->proc.types.pointer.last_point.y = i->proc.types.pointer.act_point.y;
 4033              		.loc 1 772 40 view .LVU1303
 4034 0048 A381     		strh	r3, [r4, #12]	@ movhi
 773:lvgl/src/core/lv_indev.c **** }
 4035              		.loc 1 773 5 is_stmt 1 view .LVU1304
 773:lvgl/src/core/lv_indev.c **** }
 4036              		.loc 1 773 73 is_stmt 0 view .LVU1305
 4037 004a B4F90A30 		ldrsh	r3, [r4, #10]
 773:lvgl/src/core/lv_indev.c **** }
 4038              		.loc 1 773 40 view .LVU1306
 4039 004e E381     		strh	r3, [r4, #14]	@ movhi
 4040              	.L272:
 774:lvgl/src/core/lv_indev.c **** 
 4041              		.loc 1 774 1 view .LVU1307
 4042 0050 BDE8F081 		pop	{r4, r5, r6, r7, r8, pc}
 4043              	.LVL345:
 4044              	.L282:
 755:lvgl/src/core/lv_indev.c ****            i->proc.types.pointer.last_point.y != y) {
 4045              		.loc 1 755 9 is_stmt 1 view .LVU1308
 755:lvgl/src/core/lv_indev.c ****            i->proc.types.pointer.last_point.y != y) {
 4046              		.loc 1 755 44 is_stmt 0 view .LVU1309
 4047 0054 B0F90C30 		ldrsh	r3, [r0, #12]
 755:lvgl/src/core/lv_indev.c ****            i->proc.types.pointer.last_point.y != y) {
 4048              		.loc 1 755 11 view .LVU1310
ARM GAS  C:\usertemp\ccMJcN2s.s 			page 113


 4049 0058 BB42     		cmp	r3, r7
 4050 005a 03D1     		bne	.L275
 756:lvgl/src/core/lv_indev.c ****             indev_proc_release(&i->proc);
 4051              		.loc 1 756 44 view .LVU1311
 4052 005c B0F90E30 		ldrsh	r3, [r0, #14]
 755:lvgl/src/core/lv_indev.c ****            i->proc.types.pointer.last_point.y != y) {
 4053              		.loc 1 755 52 discriminator 1 view .LVU1312
 4054 0060 4345     		cmp	r3, r8
 4055 0062 DDD0     		beq	.L274
 4056              	.L275:
 757:lvgl/src/core/lv_indev.c ****         }
 4057              		.loc 1 757 13 is_stmt 1 view .LVU1313
 4058 0064 201D     		adds	r0, r4, #4
 4059              	.LVL346:
 757:lvgl/src/core/lv_indev.c ****         }
 4060              		.loc 1 757 13 is_stmt 0 view .LVU1314
 4061 0066 FFF7FEFF 		bl	indev_proc_release
 4062              	.LVL347:
 4063 006a D9E7     		b	.L274
 4064              	.L283:
 767:lvgl/src/core/lv_indev.c ****     else indev_proc_release(&i->proc);
 4065              		.loc 1 767 47 is_stmt 1 discriminator 1 view .LVU1315
 4066 006c 3046     		mov	r0, r6
 4067 006e FFF7FEFF 		bl	indev_proc_press
 4068              	.LVL348:
 4069 0072 E3E7     		b	.L277
 4070              	.LVL349:
 4071              	.L279:
 4072              	.LCFI12:
 4073              		.cfi_def_cfa_offset 0
 4074              		.cfi_restore 4
 4075              		.cfi_restore 5
 4076              		.cfi_restore 6
 4077              		.cfi_restore 7
 4078              		.cfi_restore 8
 4079              		.cfi_restore 14
 767:lvgl/src/core/lv_indev.c ****     else indev_proc_release(&i->proc);
 4080              		.loc 1 767 47 is_stmt 0 discriminator 1 view .LVU1316
 4081 0074 7047     		bx	lr
 4082              		.cfi_endproc
 4083              	.LFE184:
 4085              		.section	.text.lv_indev_read_timer_cb,"ax",%progbits
 4086              		.align	1
 4087              		.global	lv_indev_read_timer_cb
 4088              		.syntax unified
 4089              		.thumb
 4090              		.thumb_func
 4092              	lv_indev_read_timer_cb:
 4093              	.LVL350:
 4094              	.LFB162:
  65:lvgl/src/core/lv_indev.c ****     INDEV_TRACE("begin");
 4095              		.loc 1 65 1 is_stmt 1 view -0
 4096              		.cfi_startproc
 4097              		@ args = 0, pretend = 0, frame = 16
 4098              		@ frame_needed = 0, uses_anonymous_args = 0
  66:lvgl/src/core/lv_indev.c **** 
 4099              		.loc 1 66 5 view .LVU1318
ARM GAS  C:\usertemp\ccMJcN2s.s 			page 114


  66:lvgl/src/core/lv_indev.c **** 
 4100              		.loc 1 66 5 view .LVU1319
  66:lvgl/src/core/lv_indev.c **** 
 4101              		.loc 1 66 5 view .LVU1320
  68:lvgl/src/core/lv_indev.c **** 
 4102              		.loc 1 68 5 view .LVU1321
  70:lvgl/src/core/lv_indev.c **** 
 4103              		.loc 1 70 5 view .LVU1322
  70:lvgl/src/core/lv_indev.c **** 
 4104              		.loc 1 70 22 is_stmt 0 view .LVU1323
 4105 0000 C068     		ldr	r0, [r0, #12]
 4106              	.LVL351:
  70:lvgl/src/core/lv_indev.c **** 
 4107              		.loc 1 70 15 view .LVU1324
 4108 0002 334B     		ldr	r3, .L304
 4109 0004 1860     		str	r0, [r3]
  73:lvgl/src/core/lv_indev.c **** 
 4110              		.loc 1 73 5 is_stmt 1 view .LVU1325
  73:lvgl/src/core/lv_indev.c **** 
 4111              		.loc 1 73 17 is_stmt 0 view .LVU1326
 4112 0006 0368     		ldr	r3, [r0]
  73:lvgl/src/core/lv_indev.c **** 
 4113              		.loc 1 73 25 view .LVU1327
 4114 0008 1B69     		ldr	r3, [r3, #16]
  73:lvgl/src/core/lv_indev.c **** 
 4115              		.loc 1 73 7 view .LVU1328
 4116 000a 002B     		cmp	r3, #0
 4117 000c 5FD0     		beq	.L298
  65:lvgl/src/core/lv_indev.c ****     INDEV_TRACE("begin");
 4118              		.loc 1 65 1 view .LVU1329
 4119 000e 30B5     		push	{r4, r5, lr}
 4120              	.LCFI13:
 4121              		.cfi_def_cfa_offset 12
 4122              		.cfi_offset 4, -12
 4123              		.cfi_offset 5, -8
 4124              		.cfi_offset 14, -4
 4125 0010 85B0     		sub	sp, sp, #20
 4126              	.LCFI14:
 4127              		.cfi_def_cfa_offset 32
  76:lvgl/src/core/lv_indev.c **** 
 4128              		.loc 1 76 5 is_stmt 1 view .LVU1330
 4129 0012 FFF7FEFF 		bl	indev_proc_reset_query_handler
 4130              	.LVL352:
  78:lvgl/src/core/lv_indev.c ****     bool continue_reading;
 4131              		.loc 1 78 5 view .LVU1331
  78:lvgl/src/core/lv_indev.c ****     bool continue_reading;
 4132              		.loc 1 78 17 is_stmt 0 view .LVU1332
 4133 0016 2E4B     		ldr	r3, .L304
 4134 0018 1B68     		ldr	r3, [r3]
  78:lvgl/src/core/lv_indev.c ****     bool continue_reading;
 4135              		.loc 1 78 8 view .LVU1333
 4136 001a 5B79     		ldrb	r3, [r3, #5]	@ zero_extendqisi2
  78:lvgl/src/core/lv_indev.c ****     bool continue_reading;
 4137              		.loc 1 78 7 view .LVU1334
 4138 001c 13F0040F 		tst	r3, #4
 4139 0020 19D0     		beq	.L294
 4140 0022 52E0     		b	.L284
ARM GAS  C:\usertemp\ccMJcN2s.s 			page 115


 4141              	.LVL353:
 4142              	.L302:
  93:lvgl/src/core/lv_indev.c ****         }
 4143              		.loc 1 93 13 is_stmt 1 view .LVU1335
  93:lvgl/src/core/lv_indev.c ****         }
 4144              		.loc 1 93 22 is_stmt 0 view .LVU1336
 4145 0024 1368     		ldr	r3, [r2]
  93:lvgl/src/core/lv_indev.c ****         }
 4146              		.loc 1 93 30 view .LVU1337
 4147 0026 1C69     		ldr	r4, [r3, #16]
  93:lvgl/src/core/lv_indev.c ****         }
 4148              		.loc 1 93 59 view .LVU1338
 4149 0028 FFF7FEFF 		bl	lv_tick_get
 4150              	.LVL354:
  93:lvgl/src/core/lv_indev.c ****         }
 4151              		.loc 1 93 57 discriminator 1 view .LVU1339
 4152 002c C4F85401 		str	r0, [r4, #340]
 4153 0030 28E0     		b	.L287
 4154              	.L303:
  95:lvgl/src/core/lv_indev.c ****             indev_act->driver->disp->last_activity_time = lv_tick_get();
 4155              		.loc 1 95 73 discriminator 1 view .LVU1340
 4156 0032 BDF90C20 		ldrsh	r2, [sp, #12]
  95:lvgl/src/core/lv_indev.c ****             indev_act->driver->disp->last_activity_time = lv_tick_get();
 4157              		.loc 1 95 66 discriminator 1 view .LVU1341
 4158 0036 2AB3     		cbz	r2, .L287
  96:lvgl/src/core/lv_indev.c ****         }
 4159              		.loc 1 96 13 is_stmt 1 view .LVU1342
  96:lvgl/src/core/lv_indev.c ****         }
 4160              		.loc 1 96 30 is_stmt 0 view .LVU1343
 4161 0038 1C69     		ldr	r4, [r3, #16]
  96:lvgl/src/core/lv_indev.c ****         }
 4162              		.loc 1 96 59 view .LVU1344
 4163 003a FFF7FEFF 		bl	lv_tick_get
 4164              	.LVL355:
  96:lvgl/src/core/lv_indev.c ****         }
 4165              		.loc 1 96 57 discriminator 1 view .LVU1345
 4166 003e C4F85401 		str	r0, [r4, #340]
 4167 0042 1FE0     		b	.L287
 4168              	.L293:
 100:lvgl/src/core/lv_indev.c ****         }
 4169              		.loc 1 100 13 is_stmt 1 view .LVU1346
 4170 0044 6946     		mov	r1, sp
 4171 0046 FFF7FEFF 		bl	indev_pointer_proc
 4172              	.LVL356:
 4173              	.L288:
 112:lvgl/src/core/lv_indev.c ****     } while(continue_reading);
 4174              		.loc 1 112 9 view .LVU1347
 4175 004a 214B     		ldr	r3, .L304
 4176 004c 1868     		ldr	r0, [r3]
 4177 004e FFF7FEFF 		bl	indev_proc_reset_query_handler
 4178              	.LVL357:
 113:lvgl/src/core/lv_indev.c **** 
 4179              		.loc 1 113 13 view .LVU1348
 4180 0052 002D     		cmp	r5, #0
 4181 0054 34D0     		beq	.L301
 4182              	.LVL358:
 4183              	.L294:
ARM GAS  C:\usertemp\ccMJcN2s.s 			page 116


  79:lvgl/src/core/lv_indev.c ****     do {
 4184              		.loc 1 79 5 view .LVU1349
  80:lvgl/src/core/lv_indev.c ****         /*Read the data*/
 4185              		.loc 1 80 5 view .LVU1350
  82:lvgl/src/core/lv_indev.c ****         continue_reading = data.continue_reading;
 4186              		.loc 1 82 9 view .LVU1351
 4187 0056 1E4C     		ldr	r4, .L304
 4188 0058 6946     		mov	r1, sp
 4189 005a 2068     		ldr	r0, [r4]
 4190 005c FFF7FEFF 		bl	_lv_indev_read
 4191              	.LVL359:
  83:lvgl/src/core/lv_indev.c **** 
 4192              		.loc 1 83 9 view .LVU1352
  83:lvgl/src/core/lv_indev.c **** 
 4193              		.loc 1 83 26 is_stmt 0 view .LVU1353
 4194 0060 9DF80F50 		ldrb	r5, [sp, #15]	@ zero_extendqisi2
 4195              	.LVL360:
  86:lvgl/src/core/lv_indev.c ****         indev_obj_act = NULL;
 4196              		.loc 1 86 9 is_stmt 1 view .LVU1354
 4197 0064 2068     		ldr	r0, [r4]
 4198 0066 FFF7FEFF 		bl	indev_proc_reset_query_handler
 4199              	.LVL361:
  87:lvgl/src/core/lv_indev.c **** 
 4200              		.loc 1 87 9 view .LVU1355
  87:lvgl/src/core/lv_indev.c **** 
 4201              		.loc 1 87 23 is_stmt 0 view .LVU1356
 4202 006a 1A4B     		ldr	r3, .L304+4
 4203 006c 0022     		movs	r2, #0
 4204 006e 1A60     		str	r2, [r3]
  89:lvgl/src/core/lv_indev.c **** 
 4205              		.loc 1 89 9 is_stmt 1 view .LVU1357
  89:lvgl/src/core/lv_indev.c **** 
 4206              		.loc 1 89 18 is_stmt 0 view .LVU1358
 4207 0070 2268     		ldr	r2, [r4]
  89:lvgl/src/core/lv_indev.c **** 
 4208              		.loc 1 89 37 view .LVU1359
 4209 0072 9DF80E30 		ldrb	r3, [sp, #14]	@ zero_extendqisi2
  89:lvgl/src/core/lv_indev.c **** 
 4210              		.loc 1 89 31 view .LVU1360
 4211 0076 1371     		strb	r3, [r2, #4]
  92:lvgl/src/core/lv_indev.c ****             indev_act->driver->disp->last_activity_time = lv_tick_get();
 4212              		.loc 1 92 9 is_stmt 1 view .LVU1361
  92:lvgl/src/core/lv_indev.c ****             indev_act->driver->disp->last_activity_time = lv_tick_get();
 4213              		.loc 1 92 11 is_stmt 0 view .LVU1362
 4214 0078 012B     		cmp	r3, #1
 4215 007a D3D0     		beq	.L302
  95:lvgl/src/core/lv_indev.c ****             indev_act->driver->disp->last_activity_time = lv_tick_get();
 4216              		.loc 1 95 14 is_stmt 1 view .LVU1363
  95:lvgl/src/core/lv_indev.c ****             indev_act->driver->disp->last_activity_time = lv_tick_get();
 4217              		.loc 1 95 26 is_stmt 0 view .LVU1364
 4218 007c 1368     		ldr	r3, [r2]
  95:lvgl/src/core/lv_indev.c ****             indev_act->driver->disp->last_activity_time = lv_tick_get();
 4219              		.loc 1 95 34 view .LVU1365
 4220 007e 1A78     		ldrb	r2, [r3]	@ zero_extendqisi2
  95:lvgl/src/core/lv_indev.c ****             indev_act->driver->disp->last_activity_time = lv_tick_get();
 4221              		.loc 1 95 16 view .LVU1366
 4222 0080 042A     		cmp	r2, #4
ARM GAS  C:\usertemp\ccMJcN2s.s 			page 117


 4223 0082 D6D0     		beq	.L303
 4224              	.L287:
  99:lvgl/src/core/lv_indev.c ****             indev_pointer_proc(indev_act, &data);
 4225              		.loc 1 99 9 is_stmt 1 view .LVU1367
  99:lvgl/src/core/lv_indev.c ****             indev_pointer_proc(indev_act, &data);
 4226              		.loc 1 99 21 is_stmt 0 view .LVU1368
 4227 0084 124B     		ldr	r3, .L304
 4228 0086 1868     		ldr	r0, [r3]
 4229 0088 0368     		ldr	r3, [r0]
  99:lvgl/src/core/lv_indev.c ****             indev_pointer_proc(indev_act, &data);
 4230              		.loc 1 99 29 view .LVU1369
 4231 008a 1B78     		ldrb	r3, [r3]	@ zero_extendqisi2
 4232 008c 013B     		subs	r3, r3, #1
 4233 008e 032B     		cmp	r3, #3
 4234 0090 DBD8     		bhi	.L288
 4235 0092 01A2     		adr	r2, .L290
 4236 0094 52F823F0 		ldr	pc, [r2, r3, lsl #2]
 4237              		.p2align 2
 4238              	.L290:
 4239 0098 45000000 		.word	.L293+1
 4240 009c A9000000 		.word	.L292+1
 4241 00a0 B9000000 		.word	.L291+1
 4242 00a4 B1000000 		.word	.L289+1
 4243              		.p2align 1
 4244              	.L292:
 103:lvgl/src/core/lv_indev.c ****         }
 4245              		.loc 1 103 13 is_stmt 1 view .LVU1370
 4246 00a8 6946     		mov	r1, sp
 4247 00aa FFF7FEFF 		bl	indev_keypad_proc
 4248              	.LVL362:
 4249 00ae CCE7     		b	.L288
 4250              	.L289:
 106:lvgl/src/core/lv_indev.c ****         }
 4251              		.loc 1 106 13 view .LVU1371
 4252 00b0 6946     		mov	r1, sp
 4253 00b2 FFF7FEFF 		bl	indev_encoder_proc
 4254              	.LVL363:
 4255 00b6 C8E7     		b	.L288
 4256              	.L291:
 109:lvgl/src/core/lv_indev.c ****         }
 4257              		.loc 1 109 13 view .LVU1372
 4258 00b8 6946     		mov	r1, sp
 4259 00ba FFF7FEFF 		bl	indev_button_proc
 4260              	.LVL364:
 4261 00be C4E7     		b	.L288
 4262              	.L301:
 116:lvgl/src/core/lv_indev.c ****     indev_obj_act = NULL;
 4263              		.loc 1 116 5 view .LVU1373
 116:lvgl/src/core/lv_indev.c ****     indev_obj_act = NULL;
 4264              		.loc 1 116 19 is_stmt 0 view .LVU1374
 4265 00c0 0023     		movs	r3, #0
 4266 00c2 034A     		ldr	r2, .L304
 4267 00c4 1360     		str	r3, [r2]
 117:lvgl/src/core/lv_indev.c **** 
 4268              		.loc 1 117 5 is_stmt 1 view .LVU1375
 117:lvgl/src/core/lv_indev.c **** 
 4269              		.loc 1 117 19 is_stmt 0 view .LVU1376
ARM GAS  C:\usertemp\ccMJcN2s.s 			page 118


 4270 00c6 034A     		ldr	r2, .L304+4
 4271 00c8 1360     		str	r3, [r2]
 119:lvgl/src/core/lv_indev.c **** }
 4272              		.loc 1 119 5 is_stmt 1 view .LVU1377
 119:lvgl/src/core/lv_indev.c **** }
 4273              		.loc 1 119 5 view .LVU1378
 119:lvgl/src/core/lv_indev.c **** }
 4274              		.loc 1 119 5 view .LVU1379
 4275              	.LVL365:
 4276              	.L284:
 120:lvgl/src/core/lv_indev.c **** 
 4277              		.loc 1 120 1 is_stmt 0 view .LVU1380
 4278 00ca 05B0     		add	sp, sp, #20
 4279              	.LCFI15:
 4280              		.cfi_def_cfa_offset 12
 4281              		@ sp needed
 4282 00cc 30BD     		pop	{r4, r5, pc}
 4283              	.L298:
 4284              	.LCFI16:
 4285              		.cfi_def_cfa_offset 0
 4286              		.cfi_restore 4
 4287              		.cfi_restore 5
 4288              		.cfi_restore 14
 4289 00ce 7047     		bx	lr
 4290              	.L305:
 4291              		.align	2
 4292              	.L304:
 4293 00d0 00000000 		.word	indev_act
 4294 00d4 00000000 		.word	indev_obj_act
 4295              		.cfi_endproc
 4296              	.LFE162:
 4298              		.section	.bss.indev_obj_act,"aw",%nobits
 4299              		.align	2
 4302              	indev_obj_act:
 4303 0000 00000000 		.space	4
 4304              		.section	.bss.indev_act,"aw",%nobits
 4305              		.align	2
 4308              	indev_act:
 4309 0000 00000000 		.space	4
 4310              		.text
 4311              	.Letext0:
 4312              		.file 2 "D:/armtoolchain/arm-gnu-toolchain-13.3.rel1-mingw-w64-i686-arm-none-eabi/arm-none-eabi/in
 4313              		.file 3 "D:/armtoolchain/arm-gnu-toolchain-13.3.rel1-mingw-w64-i686-arm-none-eabi/arm-none-eabi/in
 4314              		.file 4 "D:/armtoolchain/arm-gnu-toolchain-13.3.rel1-mingw-w64-i686-arm-none-eabi/lib/gcc/arm-none
 4315              		.file 5 "lvgl/src/core/../misc/../font/../misc/lv_area.h"
 4316              		.file 6 "lvgl/src/core/../misc/../font/lv_font.h"
 4317              		.file 7 "lvgl/src/core/../misc/lv_types.h"
 4318              		.file 8 "lvgl/src/core/../misc/lv_color.h"
 4319              		.file 9 "lvgl/src/core/../misc/lv_txt.h"
 4320              		.file 10 "lvgl/src/core/../misc/lv_bidi.h"
 4321              		.file 11 "lvgl/src/core/../misc/lv_style.h"
 4322              		.file 12 "lvgl/src/core/../hal/../draw/lv_img_buf.h"
 4323              		.file 13 "lvgl/src/core/lv_obj.h"
 4324              		.file 14 "lvgl/src/core/../hal/../draw/lv_draw_rect.h"
 4325              		.file 15 "lvgl/src/core/../hal/../draw/lv_draw_label.h"
 4326              		.file 16 "lvgl/src/core/../hal/../draw/lv_draw_img.h"
 4327              		.file 17 "lvgl/src/core/../hal/../draw/lv_draw_line.h"
ARM GAS  C:\usertemp\ccMJcN2s.s 			page 119


 4328              		.file 18 "lvgl/src/core/../hal/../draw/lv_draw_arc.h"
 4329              		.file 19 "lvgl/src/core/../hal/../draw/lv_draw.h"
 4330              		.file 20 "lvgl/src/core/../hal/../misc/lv_ll.h"
 4331              		.file 21 "lvgl/src/core/../hal/../misc/lv_timer.h"
 4332              		.file 22 "lvgl/src/core/../hal/lv_hal_disp.h"
 4333              		.file 23 "lvgl/src/core/lv_theme.h"
 4334              		.file 24 "lvgl/src/core/../hal/lv_hal_indev.h"
 4335              		.file 25 "lvgl/src/core/lv_group.h"
 4336              		.file 26 "lvgl/src/core/lv_obj_scroll.h"
 4337              		.file 27 "lvgl/src/core/lv_obj_style.h"
 4338              		.file 28 "lvgl/src/core/lv_obj_class.h"
 4339              		.file 29 "lvgl/src/core/lv_event.h"
 4340              		.file 30 "lvgl/src/core/lv_obj_tree.h"
 4341              		.file 31 "lvgl/src/core/../hal/../draw/sw/../../core/lv_obj_pos.h"
 4342              		.file 32 "lvgl/src/core/../hal/lv_hal_tick.h"
 4343              		.file 33 "lvgl/src/core/lv_indev_scroll.h"
 4344              		.file 34 "lvgl/src/core/lv_disp.h"
ARM GAS  C:\usertemp\ccMJcN2s.s 			page 120


DEFINED SYMBOLS
                            *ABS*:00000000 lv_indev.c
C:\usertemp\ccMJcN2s.s:20     .text.indev_proc_reset_query_handler:00000000 $t
C:\usertemp\ccMJcN2s.s:25     .text.indev_proc_reset_query_handler:00000000 indev_proc_reset_query_handler
C:\usertemp\ccMJcN2s.s:98     .text.indev_proc_reset_query_handler:00000044 $d
C:\usertemp\ccMJcN2s.s:4302   .bss.indev_obj_act:00000000 indev_obj_act
C:\usertemp\ccMJcN2s.s:103    .text.indev_reset_check:00000000 $t
C:\usertemp\ccMJcN2s.s:108    .text.indev_reset_check:00000000 indev_reset_check
C:\usertemp\ccMJcN2s.s:136    .text.indev_reset_check:00000014 $d
C:\usertemp\ccMJcN2s.s:141    .text.indev_proc_release:00000000 $t
C:\usertemp\ccMJcN2s.s:146    .text.indev_proc_release:00000000 indev_proc_release
C:\usertemp\ccMJcN2s.s:293    .text.indev_proc_release:00000090 $d
C:\usertemp\ccMJcN2s.s:4308   .bss.indev_act:00000000 indev_act
C:\usertemp\ccMJcN2s.s:299    .text.indev_click_focus:00000000 $t
C:\usertemp\ccMJcN2s.s:304    .text.indev_click_focus:00000000 indev_click_focus
C:\usertemp\ccMJcN2s.s:543    .text.indev_click_focus:00000100 $d
C:\usertemp\ccMJcN2s.s:549    .text.indev_gesture:00000000 $t
C:\usertemp\ccMJcN2s.s:554    .text.indev_gesture:00000000 indev_gesture
C:\usertemp\ccMJcN2s.s:752    .text.indev_gesture:00000110 $d
C:\usertemp\ccMJcN2s.s:757    .text.indev_keypad_proc:00000000 $t
C:\usertemp\ccMJcN2s.s:762    .text.indev_keypad_proc:00000000 indev_keypad_proc
C:\usertemp\ccMJcN2s.s:904    .text.indev_keypad_proc:00000080 $d
C:\usertemp\ccMJcN2s.s:1297   .text.indev_keypad_proc:00000278 $d
C:\usertemp\ccMJcN2s.s:1303   .text.indev_encoder_proc:00000000 $t
C:\usertemp\ccMJcN2s.s:1308   .text.indev_encoder_proc:00000000 indev_encoder_proc
C:\usertemp\ccMJcN2s.s:1477   .text.indev_encoder_proc:0000009e $d
C:\usertemp\ccMJcN2s.s:1495   .text.indev_encoder_proc:000000b0 $t
C:\usertemp\ccMJcN2s.s:1902   .text.indev_encoder_proc:000002a0 $d
C:\usertemp\ccMJcN2s.s:1907   .text.indev_encoder_proc:000002a8 $t
C:\usertemp\ccMJcN2s.s:2184   .text.indev_encoder_proc:000003e8 $d
C:\usertemp\ccMJcN2s.s:2191   .text.lv_indev_enable:00000000 $t
C:\usertemp\ccMJcN2s.s:2197   .text.lv_indev_enable:00000000 lv_indev_enable
C:\usertemp\ccMJcN2s.s:2224   .text.lv_indev_get_act:00000000 $t
C:\usertemp\ccMJcN2s.s:2230   .text.lv_indev_get_act:00000000 lv_indev_get_act
C:\usertemp\ccMJcN2s.s:2245   .text.lv_indev_get_act:00000008 $d
C:\usertemp\ccMJcN2s.s:2250   .text.lv_indev_get_type:00000000 $t
C:\usertemp\ccMJcN2s.s:2256   .text.lv_indev_get_type:00000000 lv_indev_get_type
C:\usertemp\ccMJcN2s.s:2286   .text.lv_indev_reset:00000000 $t
C:\usertemp\ccMJcN2s.s:2292   .text.lv_indev_reset:00000000 lv_indev_reset
C:\usertemp\ccMJcN2s.s:2498   .text.lv_indev_reset:000000b4 $d
C:\usertemp\ccMJcN2s.s:2504   .text.lv_indev_reset_long_press:00000000 $t
C:\usertemp\ccMJcN2s.s:2510   .text.lv_indev_reset_long_press:00000000 lv_indev_reset_long_press
C:\usertemp\ccMJcN2s.s:2548   .text.lv_indev_set_cursor:00000000 $t
C:\usertemp\ccMJcN2s.s:2554   .text.lv_indev_set_cursor:00000000 lv_indev_set_cursor
C:\usertemp\ccMJcN2s.s:2623   .text.lv_indev_set_group:00000000 $t
C:\usertemp\ccMJcN2s.s:2629   .text.lv_indev_set_group:00000000 lv_indev_set_group
C:\usertemp\ccMJcN2s.s:2657   .text.lv_indev_set_button_points:00000000 $t
C:\usertemp\ccMJcN2s.s:2663   .text.lv_indev_set_button_points:00000000 lv_indev_set_button_points
C:\usertemp\ccMJcN2s.s:2692   .text.lv_indev_get_point:00000000 $t
C:\usertemp\ccMJcN2s.s:2698   .text.lv_indev_get_point:00000000 lv_indev_get_point
C:\usertemp\ccMJcN2s.s:2754   .text.lv_indev_get_gesture_dir:00000000 $t
C:\usertemp\ccMJcN2s.s:2760   .text.lv_indev_get_gesture_dir:00000000 lv_indev_get_gesture_dir
C:\usertemp\ccMJcN2s.s:2779   .text.lv_indev_get_key:00000000 $t
C:\usertemp\ccMJcN2s.s:2785   .text.lv_indev_get_key:00000000 lv_indev_get_key
C:\usertemp\ccMJcN2s.s:2818   .text.lv_indev_get_scroll_dir:00000000 $t
C:\usertemp\ccMJcN2s.s:2824   .text.lv_indev_get_scroll_dir:00000000 lv_indev_get_scroll_dir
C:\usertemp\ccMJcN2s.s:2870   .text.lv_indev_get_scroll_obj:00000000 $t
ARM GAS  C:\usertemp\ccMJcN2s.s 			page 121


C:\usertemp\ccMJcN2s.s:2876   .text.lv_indev_get_scroll_obj:00000000 lv_indev_get_scroll_obj
C:\usertemp\ccMJcN2s.s:2917   .text.lv_indev_get_vect:00000000 $t
C:\usertemp\ccMJcN2s.s:2923   .text.lv_indev_get_vect:00000000 lv_indev_get_vect
C:\usertemp\ccMJcN2s.s:2968   .text.lv_indev_wait_release:00000000 $t
C:\usertemp\ccMJcN2s.s:2974   .text.lv_indev_wait_release:00000000 lv_indev_wait_release
C:\usertemp\ccMJcN2s.s:2997   .text.lv_indev_get_obj_act:00000000 $t
C:\usertemp\ccMJcN2s.s:3003   .text.lv_indev_get_obj_act:00000000 lv_indev_get_obj_act
C:\usertemp\ccMJcN2s.s:3018   .text.lv_indev_get_obj_act:00000008 $d
C:\usertemp\ccMJcN2s.s:3023   .text.lv_indev_get_read_timer:00000000 $t
C:\usertemp\ccMJcN2s.s:3029   .text.lv_indev_get_read_timer:00000000 lv_indev_get_read_timer
C:\usertemp\ccMJcN2s.s:3054   .text.lv_indev_search_obj:00000000 $t
C:\usertemp\ccMJcN2s.s:3060   .text.lv_indev_search_obj:00000000 lv_indev_search_obj
C:\usertemp\ccMJcN2s.s:3183   .text.indev_proc_press:00000000 $t
C:\usertemp\ccMJcN2s.s:3188   .text.indev_proc_press:00000000 indev_proc_press
C:\usertemp\ccMJcN2s.s:3724   .text.indev_proc_press:00000284 $d
C:\usertemp\ccMJcN2s.s:3730   .text.indev_pointer_proc:00000000 $t
C:\usertemp\ccMJcN2s.s:3735   .text.indev_pointer_proc:00000000 indev_pointer_proc
C:\usertemp\ccMJcN2s.s:3939   .text.indev_button_proc:00000000 $t
C:\usertemp\ccMJcN2s.s:3944   .text.indev_button_proc:00000000 indev_button_proc
C:\usertemp\ccMJcN2s.s:4086   .text.lv_indev_read_timer_cb:00000000 $t
C:\usertemp\ccMJcN2s.s:4092   .text.lv_indev_read_timer_cb:00000000 lv_indev_read_timer_cb
C:\usertemp\ccMJcN2s.s:4239   .text.lv_indev_read_timer_cb:00000098 $d
C:\usertemp\ccMJcN2s.s:4243   .text.lv_indev_read_timer_cb:000000a8 $t
C:\usertemp\ccMJcN2s.s:4293   .text.lv_indev_read_timer_cb:000000d0 $d
C:\usertemp\ccMJcN2s.s:4299   .bss.indev_obj_act:00000000 $d
C:\usertemp\ccMJcN2s.s:4305   .bss.indev_act:00000000 $d
C:\usertemp\ccMJcN2s.s:923    .text.indev_keypad_proc:00000093 $d
C:\usertemp\ccMJcN2s.s:923    .text.indev_keypad_proc:00000094 $t

UNDEFINED SYMBOLS
lv_event_send
_lv_indev_scroll_throw_handler
lv_obj_has_flag
lv_obj_get_group
lv_group_focus_obj
lv_obj_get_parent
lv_group_get_focused
lv_tick_get
lv_group_send_data
lv_group_set_editing
lv_group_focus_next
lv_group_focus_prev
lv_tick_elaps
lv_obj_is_editable
lv_group_get_editing
lv_group_get_obj_count
lv_obj_clear_state
lv_indev_get_next
lv_disp_get_layer_sys
lv_obj_set_parent
lv_obj_set_pos
lv_obj_clear_flag
lv_obj_add_flag
lv_obj_hit_test
_lv_area_is_point_on
lv_obj_get_child_cnt
lv_disp_get_layer_top
ARM GAS  C:\usertemp\ccMJcN2s.s 			page 122


lv_disp_get_scr_act
_lv_indev_scroll_handler
lv_disp_get_hor_res
lv_disp_get_ver_res
_lv_indev_read
