ARM GAS  C:\usertemp\ccn6dI0u.s 			page 1


   1              		.cpu cortex-m7
   2              		.arch armv7e-m
   3              		.fpu fpv5-d16
   4              		.eabi_attribute 28, 1
   5              		.eabi_attribute 20, 1
   6              		.eabi_attribute 21, 1
   7              		.eabi_attribute 23, 3
   8              		.eabi_attribute 24, 1
   9              		.eabi_attribute 25, 1
  10              		.eabi_attribute 26, 1
  11              		.eabi_attribute 30, 1
  12              		.eabi_attribute 34, 1
  13              		.eabi_attribute 18, 4
  14              		.file	"lv_list.c"
  15              		.text
  16              	.Ltext0:
  17              		.cfi_sections	.debug_frame
  18              		.file 1 "lvgl/src/extra/widgets/list/lv_list.c"
  19              		.section	.text.lv_list_create,"ax",%progbits
  20              		.align	1
  21              		.global	lv_list_create
  22              		.syntax unified
  23              		.thumb
  24              		.thumb_func
  26              	lv_list_create:
  27              	.LVL0:
  28              	.LFB167:
   1:lvgl/src/extra/widgets/list/lv_list.c **** /**
   2:lvgl/src/extra/widgets/list/lv_list.c ****  * @file lv_list.c
   3:lvgl/src/extra/widgets/list/lv_list.c ****  *
   4:lvgl/src/extra/widgets/list/lv_list.c ****  */
   5:lvgl/src/extra/widgets/list/lv_list.c **** 
   6:lvgl/src/extra/widgets/list/lv_list.c **** /*********************
   7:lvgl/src/extra/widgets/list/lv_list.c ****  *      INCLUDES
   8:lvgl/src/extra/widgets/list/lv_list.c ****  *********************/
   9:lvgl/src/extra/widgets/list/lv_list.c **** #include "lv_list.h"
  10:lvgl/src/extra/widgets/list/lv_list.c **** #include "../../../core/lv_disp.h"
  11:lvgl/src/extra/widgets/list/lv_list.c **** #include "../../../widgets/lv_label.h"
  12:lvgl/src/extra/widgets/list/lv_list.c **** #include "../../../widgets/lv_img.h"
  13:lvgl/src/extra/widgets/list/lv_list.c **** #include "../../../widgets/lv_btn.h"
  14:lvgl/src/extra/widgets/list/lv_list.c **** 
  15:lvgl/src/extra/widgets/list/lv_list.c **** #if LV_USE_LIST
  16:lvgl/src/extra/widgets/list/lv_list.c **** 
  17:lvgl/src/extra/widgets/list/lv_list.c **** /*********************
  18:lvgl/src/extra/widgets/list/lv_list.c ****  *      DEFINES
  19:lvgl/src/extra/widgets/list/lv_list.c ****  *********************/
  20:lvgl/src/extra/widgets/list/lv_list.c **** #define MV_CLASS &lv_list
  21:lvgl/src/extra/widgets/list/lv_list.c **** 
  22:lvgl/src/extra/widgets/list/lv_list.c **** /**********************
  23:lvgl/src/extra/widgets/list/lv_list.c ****  *      TYPEDEFS
  24:lvgl/src/extra/widgets/list/lv_list.c ****  **********************/
  25:lvgl/src/extra/widgets/list/lv_list.c **** 
  26:lvgl/src/extra/widgets/list/lv_list.c **** /**********************
  27:lvgl/src/extra/widgets/list/lv_list.c ****  *  STATIC PROTOTYPES
  28:lvgl/src/extra/widgets/list/lv_list.c ****  **********************/
  29:lvgl/src/extra/widgets/list/lv_list.c **** 
  30:lvgl/src/extra/widgets/list/lv_list.c **** const lv_obj_class_t lv_list_class = {
ARM GAS  C:\usertemp\ccn6dI0u.s 			page 2


  31:lvgl/src/extra/widgets/list/lv_list.c ****     .base_class = &lv_obj_class,
  32:lvgl/src/extra/widgets/list/lv_list.c ****     .width_def = (LV_DPI_DEF * 3) / 2,
  33:lvgl/src/extra/widgets/list/lv_list.c ****     .height_def = LV_DPI_DEF * 2
  34:lvgl/src/extra/widgets/list/lv_list.c **** };
  35:lvgl/src/extra/widgets/list/lv_list.c **** 
  36:lvgl/src/extra/widgets/list/lv_list.c **** const lv_obj_class_t lv_list_btn_class = {
  37:lvgl/src/extra/widgets/list/lv_list.c ****     .base_class = &lv_btn_class,
  38:lvgl/src/extra/widgets/list/lv_list.c **** };
  39:lvgl/src/extra/widgets/list/lv_list.c **** 
  40:lvgl/src/extra/widgets/list/lv_list.c **** const lv_obj_class_t lv_list_text_class = {
  41:lvgl/src/extra/widgets/list/lv_list.c ****     .base_class = &lv_label_class,
  42:lvgl/src/extra/widgets/list/lv_list.c **** };
  43:lvgl/src/extra/widgets/list/lv_list.c **** 
  44:lvgl/src/extra/widgets/list/lv_list.c **** /**********************
  45:lvgl/src/extra/widgets/list/lv_list.c ****  *  STATIC VARIABLES
  46:lvgl/src/extra/widgets/list/lv_list.c ****  **********************/
  47:lvgl/src/extra/widgets/list/lv_list.c **** 
  48:lvgl/src/extra/widgets/list/lv_list.c **** /**********************
  49:lvgl/src/extra/widgets/list/lv_list.c ****  *      MACROS
  50:lvgl/src/extra/widgets/list/lv_list.c ****  **********************/
  51:lvgl/src/extra/widgets/list/lv_list.c **** 
  52:lvgl/src/extra/widgets/list/lv_list.c **** /**********************
  53:lvgl/src/extra/widgets/list/lv_list.c ****  *   GLOBAL FUNCTIONS
  54:lvgl/src/extra/widgets/list/lv_list.c ****  **********************/
  55:lvgl/src/extra/widgets/list/lv_list.c **** 
  56:lvgl/src/extra/widgets/list/lv_list.c **** lv_obj_t * lv_list_create(lv_obj_t * parent)
  57:lvgl/src/extra/widgets/list/lv_list.c **** {
  29              		.loc 1 57 1 view -0
  30              		.cfi_startproc
  31              		@ args = 0, pretend = 0, frame = 0
  32              		@ frame_needed = 0, uses_anonymous_args = 0
  33              		.loc 1 57 1 is_stmt 0 view .LVU1
  34 0000 10B5     		push	{r4, lr}
  35              	.LCFI0:
  36              		.cfi_def_cfa_offset 8
  37              		.cfi_offset 4, -8
  38              		.cfi_offset 14, -4
  39 0002 0146     		mov	r1, r0
  58:lvgl/src/extra/widgets/list/lv_list.c ****     LV_LOG_INFO("begin");
  40              		.loc 1 58 5 is_stmt 1 view .LVU2
  41              		.loc 1 58 5 view .LVU3
  42              		.loc 1 58 5 view .LVU4
  59:lvgl/src/extra/widgets/list/lv_list.c ****     lv_obj_t * obj = lv_obj_class_create_obj(&lv_list_class, parent);
  43              		.loc 1 59 5 view .LVU5
  44              		.loc 1 59 22 is_stmt 0 view .LVU6
  45 0004 0548     		ldr	r0, .L3
  46              	.LVL1:
  47              		.loc 1 59 22 view .LVU7
  48 0006 FFF7FEFF 		bl	lv_obj_class_create_obj
  49              	.LVL2:
  50              		.loc 1 59 22 view .LVU8
  51 000a 0446     		mov	r4, r0
  52              	.LVL3:
  60:lvgl/src/extra/widgets/list/lv_list.c ****     lv_obj_class_init_obj(obj);
  53              		.loc 1 60 5 is_stmt 1 view .LVU9
  54 000c FFF7FEFF 		bl	lv_obj_class_init_obj
  55              	.LVL4:
ARM GAS  C:\usertemp\ccn6dI0u.s 			page 3


  61:lvgl/src/extra/widgets/list/lv_list.c ****     lv_obj_set_flex_flow(obj, LV_FLEX_FLOW_COLUMN);
  56              		.loc 1 61 5 view .LVU10
  57 0010 0121     		movs	r1, #1
  58 0012 2046     		mov	r0, r4
  59 0014 FFF7FEFF 		bl	lv_obj_set_flex_flow
  60              	.LVL5:
  62:lvgl/src/extra/widgets/list/lv_list.c ****     return obj;
  61              		.loc 1 62 5 view .LVU11
  63:lvgl/src/extra/widgets/list/lv_list.c **** }
  62              		.loc 1 63 1 is_stmt 0 view .LVU12
  63 0018 2046     		mov	r0, r4
  64 001a 10BD     		pop	{r4, pc}
  65              	.LVL6:
  66              	.L4:
  67              		.loc 1 63 1 view .LVU13
  68              		.align	2
  69              	.L3:
  70 001c 00000000 		.word	lv_list_class
  71              		.cfi_endproc
  72              	.LFE167:
  74              		.section	.text.lv_list_add_text,"ax",%progbits
  75              		.align	1
  76              		.global	lv_list_add_text
  77              		.syntax unified
  78              		.thumb
  79              		.thumb_func
  81              	lv_list_add_text:
  82              	.LVL7:
  83              	.LFB168:
  64:lvgl/src/extra/widgets/list/lv_list.c **** 
  65:lvgl/src/extra/widgets/list/lv_list.c **** lv_obj_t * lv_list_add_text(lv_obj_t * list, const char * txt)
  66:lvgl/src/extra/widgets/list/lv_list.c **** {
  84              		.loc 1 66 1 is_stmt 1 view -0
  85              		.cfi_startproc
  86              		@ args = 0, pretend = 0, frame = 0
  87              		@ frame_needed = 0, uses_anonymous_args = 0
  88              		.loc 1 66 1 is_stmt 0 view .LVU15
  89 0000 38B5     		push	{r3, r4, r5, lr}
  90              	.LCFI1:
  91              		.cfi_def_cfa_offset 16
  92              		.cfi_offset 3, -16
  93              		.cfi_offset 4, -12
  94              		.cfi_offset 5, -8
  95              		.cfi_offset 14, -4
  96 0002 0D46     		mov	r5, r1
  67:lvgl/src/extra/widgets/list/lv_list.c ****     LV_LOG_INFO("begin");
  97              		.loc 1 67 5 is_stmt 1 view .LVU16
  98              		.loc 1 67 5 view .LVU17
  99              		.loc 1 67 5 view .LVU18
  68:lvgl/src/extra/widgets/list/lv_list.c ****     lv_obj_t * obj = lv_obj_class_create_obj(&lv_list_text_class, list);
 100              		.loc 1 68 5 view .LVU19
 101              		.loc 1 68 22 is_stmt 0 view .LVU20
 102 0004 0146     		mov	r1, r0
 103              	.LVL8:
 104              		.loc 1 68 22 view .LVU21
 105 0006 0A48     		ldr	r0, .L7
 106              	.LVL9:
ARM GAS  C:\usertemp\ccn6dI0u.s 			page 4


 107              		.loc 1 68 22 view .LVU22
 108 0008 FFF7FEFF 		bl	lv_obj_class_create_obj
 109              	.LVL10:
 110              		.loc 1 68 22 view .LVU23
 111 000c 0446     		mov	r4, r0
 112              	.LVL11:
  69:lvgl/src/extra/widgets/list/lv_list.c ****     lv_obj_class_init_obj(obj);
 113              		.loc 1 69 5 is_stmt 1 view .LVU24
 114 000e FFF7FEFF 		bl	lv_obj_class_init_obj
 115              	.LVL12:
  70:lvgl/src/extra/widgets/list/lv_list.c ****     lv_label_set_text(obj, txt);
 116              		.loc 1 70 5 view .LVU25
 117 0012 2946     		mov	r1, r5
 118 0014 2046     		mov	r0, r4
 119 0016 FFF7FEFF 		bl	lv_label_set_text
 120              	.LVL13:
  71:lvgl/src/extra/widgets/list/lv_list.c ****     lv_label_set_long_mode(obj, LV_LABEL_LONG_SCROLL_CIRCULAR);
 121              		.loc 1 71 5 view .LVU26
 122 001a 0321     		movs	r1, #3
 123 001c 2046     		mov	r0, r4
 124 001e FFF7FEFF 		bl	lv_label_set_long_mode
 125              	.LVL14:
  72:lvgl/src/extra/widgets/list/lv_list.c ****     lv_obj_set_width(obj, LV_PCT(100));
 126              		.loc 1 72 5 view .LVU27
 127 0022 42F26401 		movw	r1, #8292
 128 0026 2046     		mov	r0, r4
 129 0028 FFF7FEFF 		bl	lv_obj_set_width
 130              	.LVL15:
  73:lvgl/src/extra/widgets/list/lv_list.c ****     return obj;
 131              		.loc 1 73 5 view .LVU28
  74:lvgl/src/extra/widgets/list/lv_list.c **** }
 132              		.loc 1 74 1 is_stmt 0 view .LVU29
 133 002c 2046     		mov	r0, r4
 134 002e 38BD     		pop	{r3, r4, r5, pc}
 135              	.LVL16:
 136              	.L8:
 137              		.loc 1 74 1 view .LVU30
 138              		.align	2
 139              	.L7:
 140 0030 00000000 		.word	lv_list_text_class
 141              		.cfi_endproc
 142              	.LFE168:
 144              		.section	.text.lv_list_add_btn,"ax",%progbits
 145              		.align	1
 146              		.global	lv_list_add_btn
 147              		.syntax unified
 148              		.thumb
 149              		.thumb_func
 151              	lv_list_add_btn:
 152              	.LVL17:
 153              	.LFB169:
  75:lvgl/src/extra/widgets/list/lv_list.c **** 
  76:lvgl/src/extra/widgets/list/lv_list.c **** lv_obj_t * lv_list_add_btn(lv_obj_t * list, const void * icon, const char * txt)
  77:lvgl/src/extra/widgets/list/lv_list.c **** {
 154              		.loc 1 77 1 is_stmt 1 view -0
 155              		.cfi_startproc
 156              		@ args = 0, pretend = 0, frame = 0
ARM GAS  C:\usertemp\ccn6dI0u.s 			page 5


 157              		@ frame_needed = 0, uses_anonymous_args = 0
 158              		.loc 1 77 1 is_stmt 0 view .LVU32
 159 0000 70B5     		push	{r4, r5, r6, lr}
 160              	.LCFI2:
 161              		.cfi_def_cfa_offset 16
 162              		.cfi_offset 4, -16
 163              		.cfi_offset 5, -12
 164              		.cfi_offset 6, -8
 165              		.cfi_offset 14, -4
 166 0002 0E46     		mov	r6, r1
 167 0004 1546     		mov	r5, r2
  78:lvgl/src/extra/widgets/list/lv_list.c ****     LV_LOG_INFO("begin");
 168              		.loc 1 78 5 is_stmt 1 view .LVU33
 169              		.loc 1 78 5 view .LVU34
 170              		.loc 1 78 5 view .LVU35
  79:lvgl/src/extra/widgets/list/lv_list.c ****     lv_obj_t * obj = lv_obj_class_create_obj(&lv_list_btn_class, list);
 171              		.loc 1 79 5 view .LVU36
 172              		.loc 1 79 22 is_stmt 0 view .LVU37
 173 0006 0146     		mov	r1, r0
 174              	.LVL18:
 175              		.loc 1 79 22 view .LVU38
 176 0008 1448     		ldr	r0, .L13
 177              	.LVL19:
 178              		.loc 1 79 22 view .LVU39
 179 000a FFF7FEFF 		bl	lv_obj_class_create_obj
 180              	.LVL20:
 181              		.loc 1 79 22 view .LVU40
 182 000e 0446     		mov	r4, r0
 183              	.LVL21:
  80:lvgl/src/extra/widgets/list/lv_list.c ****     lv_obj_class_init_obj(obj);
 184              		.loc 1 80 5 is_stmt 1 view .LVU41
 185 0010 FFF7FEFF 		bl	lv_obj_class_init_obj
 186              	.LVL22:
  81:lvgl/src/extra/widgets/list/lv_list.c ****     lv_obj_set_size(obj, LV_PCT(100), LV_SIZE_CONTENT);
 187              		.loc 1 81 5 view .LVU42
 188 0014 42F2D172 		movw	r2, #10193
 189 0018 42F26401 		movw	r1, #8292
 190 001c 2046     		mov	r0, r4
 191 001e FFF7FEFF 		bl	lv_obj_set_size
 192              	.LVL23:
  82:lvgl/src/extra/widgets/list/lv_list.c ****     lv_obj_set_flex_flow(obj, LV_FLEX_FLOW_ROW);
 193              		.loc 1 82 5 view .LVU43
 194 0022 0021     		movs	r1, #0
 195 0024 2046     		mov	r0, r4
 196 0026 FFF7FEFF 		bl	lv_obj_set_flex_flow
 197              	.LVL24:
  83:lvgl/src/extra/widgets/list/lv_list.c **** 
  84:lvgl/src/extra/widgets/list/lv_list.c **** #if LV_USE_IMG == 1
  85:lvgl/src/extra/widgets/list/lv_list.c ****     if(icon) {
 198              		.loc 1 85 5 view .LVU44
 199              		.loc 1 85 7 is_stmt 0 view .LVU45
 200 002a 2EB1     		cbz	r6, .L10
 201              	.LBB2:
  86:lvgl/src/extra/widgets/list/lv_list.c ****         lv_obj_t * img = lv_img_create(obj);
 202              		.loc 1 86 9 is_stmt 1 view .LVU46
 203              		.loc 1 86 26 is_stmt 0 view .LVU47
 204 002c 2046     		mov	r0, r4
ARM GAS  C:\usertemp\ccn6dI0u.s 			page 6


 205 002e FFF7FEFF 		bl	lv_img_create
 206              	.LVL25:
  87:lvgl/src/extra/widgets/list/lv_list.c ****         lv_img_set_src(img, icon);
 207              		.loc 1 87 9 is_stmt 1 view .LVU48
 208 0032 3146     		mov	r1, r6
 209 0034 FFF7FEFF 		bl	lv_img_set_src
 210              	.LVL26:
 211              	.L10:
 212              		.loc 1 87 9 is_stmt 0 view .LVU49
 213              	.LBE2:
  88:lvgl/src/extra/widgets/list/lv_list.c ****     }
  89:lvgl/src/extra/widgets/list/lv_list.c **** #endif
  90:lvgl/src/extra/widgets/list/lv_list.c **** 
  91:lvgl/src/extra/widgets/list/lv_list.c ****     if(txt) {
 214              		.loc 1 91 5 is_stmt 1 view .LVU50
 215              		.loc 1 91 7 is_stmt 0 view .LVU51
 216 0038 75B1     		cbz	r5, .L9
 217              	.LBB3:
  92:lvgl/src/extra/widgets/list/lv_list.c ****         lv_obj_t * label = lv_label_create(obj);
 218              		.loc 1 92 9 is_stmt 1 view .LVU52
 219              		.loc 1 92 28 is_stmt 0 view .LVU53
 220 003a 2046     		mov	r0, r4
 221 003c FFF7FEFF 		bl	lv_label_create
 222              	.LVL27:
 223 0040 0646     		mov	r6, r0
 224              	.LVL28:
  93:lvgl/src/extra/widgets/list/lv_list.c ****         lv_label_set_text(label, txt);
 225              		.loc 1 93 9 is_stmt 1 view .LVU54
 226 0042 2946     		mov	r1, r5
 227 0044 FFF7FEFF 		bl	lv_label_set_text
 228              	.LVL29:
  94:lvgl/src/extra/widgets/list/lv_list.c ****         lv_label_set_long_mode(label, LV_LABEL_LONG_SCROLL_CIRCULAR);
 229              		.loc 1 94 9 view .LVU55
 230 0048 0321     		movs	r1, #3
 231 004a 3046     		mov	r0, r6
 232 004c FFF7FEFF 		bl	lv_label_set_long_mode
 233              	.LVL30:
  95:lvgl/src/extra/widgets/list/lv_list.c ****         lv_obj_set_flex_grow(label, 1);
 234              		.loc 1 95 9 view .LVU56
 235 0050 0121     		movs	r1, #1
 236 0052 3046     		mov	r0, r6
 237 0054 FFF7FEFF 		bl	lv_obj_set_flex_grow
 238              	.LVL31:
 239              	.LBE3:
  96:lvgl/src/extra/widgets/list/lv_list.c ****     }
  97:lvgl/src/extra/widgets/list/lv_list.c **** 
  98:lvgl/src/extra/widgets/list/lv_list.c ****     return obj;
 240              		.loc 1 98 5 view .LVU57
 241              	.L9:
  99:lvgl/src/extra/widgets/list/lv_list.c **** }
 242              		.loc 1 99 1 is_stmt 0 view .LVU58
 243 0058 2046     		mov	r0, r4
 244 005a 70BD     		pop	{r4, r5, r6, pc}
 245              	.LVL32:
 246              	.L14:
 247              		.loc 1 99 1 view .LVU59
 248              		.align	2
ARM GAS  C:\usertemp\ccn6dI0u.s 			page 7


 249              	.L13:
 250 005c 00000000 		.word	lv_list_btn_class
 251              		.cfi_endproc
 252              	.LFE169:
 254              		.section	.rodata.lv_list_get_btn_text.str1.4,"aMS",%progbits,1
 255              		.align	2
 256              	.LC0:
 257 0000 00       		.ascii	"\000"
 258              		.section	.text.lv_list_get_btn_text,"ax",%progbits
 259              		.align	1
 260              		.global	lv_list_get_btn_text
 261              		.syntax unified
 262              		.thumb
 263              		.thumb_func
 265              	lv_list_get_btn_text:
 266              	.LVL33:
 267              	.LFB170:
 100:lvgl/src/extra/widgets/list/lv_list.c **** 
 101:lvgl/src/extra/widgets/list/lv_list.c **** const char * lv_list_get_btn_text(lv_obj_t * list, lv_obj_t * btn)
 102:lvgl/src/extra/widgets/list/lv_list.c **** {
 268              		.loc 1 102 1 is_stmt 1 view -0
 269              		.cfi_startproc
 270              		@ args = 0, pretend = 0, frame = 0
 271              		@ frame_needed = 0, uses_anonymous_args = 0
 272              		.loc 1 102 1 is_stmt 0 view .LVU61
 273 0000 70B5     		push	{r4, r5, r6, lr}
 274              	.LCFI3:
 275              		.cfi_def_cfa_offset 16
 276              		.cfi_offset 4, -16
 277              		.cfi_offset 5, -12
 278              		.cfi_offset 6, -8
 279              		.cfi_offset 14, -4
 280 0002 0E46     		mov	r6, r1
 103:lvgl/src/extra/widgets/list/lv_list.c ****     LV_UNUSED(list);
 281              		.loc 1 103 5 is_stmt 1 view .LVU62
 104:lvgl/src/extra/widgets/list/lv_list.c ****     uint32_t i;
 282              		.loc 1 104 5 view .LVU63
 105:lvgl/src/extra/widgets/list/lv_list.c ****     for(i = 0; i < lv_obj_get_child_cnt(btn); i++) {
 283              		.loc 1 105 5 view .LVU64
 284              	.LVL34:
 285              		.loc 1 105 11 is_stmt 0 view .LVU65
 286 0004 0024     		movs	r4, #0
 287              		.loc 1 105 5 view .LVU66
 288 0006 00E0     		b	.L16
 289              	.LVL35:
 290              	.L17:
 291              		.loc 1 105 48 is_stmt 1 discriminator 2 view .LVU67
 292 0008 0134     		adds	r4, r4, #1
 293              	.LVL36:
 294              	.L16:
 295              		.loc 1 105 18 discriminator 1 view .LVU68
 296              		.loc 1 105 20 is_stmt 0 discriminator 1 view .LVU69
 297 000a 3046     		mov	r0, r6
 298 000c FFF7FEFF 		bl	lv_obj_get_child_cnt
 299              	.LVL37:
 300              		.loc 1 105 18 discriminator 1 view .LVU70
 301 0010 A042     		cmp	r0, r4
ARM GAS  C:\usertemp\ccn6dI0u.s 			page 8


 302 0012 0DD9     		bls	.L21
 303              	.LBB4:
 106:lvgl/src/extra/widgets/list/lv_list.c ****         lv_obj_t * child = lv_obj_get_child(btn, i);
 304              		.loc 1 106 9 is_stmt 1 view .LVU71
 305              		.loc 1 106 28 is_stmt 0 view .LVU72
 306 0014 2146     		mov	r1, r4
 307 0016 3046     		mov	r0, r6
 308 0018 FFF7FEFF 		bl	lv_obj_get_child
 309              	.LVL38:
 310 001c 0546     		mov	r5, r0
 311              	.LVL39:
 107:lvgl/src/extra/widgets/list/lv_list.c ****         if(lv_obj_check_type(child, &lv_label_class)) {
 312              		.loc 1 107 9 is_stmt 1 view .LVU73
 313              		.loc 1 107 12 is_stmt 0 view .LVU74
 314 001e 0549     		ldr	r1, .L22
 315 0020 FFF7FEFF 		bl	lv_obj_check_type
 316              	.LVL40:
 317              		.loc 1 107 11 discriminator 1 view .LVU75
 318 0024 0028     		cmp	r0, #0
 319 0026 EFD0     		beq	.L17
 108:lvgl/src/extra/widgets/list/lv_list.c ****             return lv_label_get_text(child);
 320              		.loc 1 108 13 is_stmt 1 view .LVU76
 321              		.loc 1 108 20 is_stmt 0 view .LVU77
 322 0028 2846     		mov	r0, r5
 323 002a FFF7FEFF 		bl	lv_label_get_text
 324              	.LVL41:
 325 002e 00E0     		b	.L15
 326              	.LVL42:
 327              	.L21:
 328              		.loc 1 108 20 view .LVU78
 329              	.LBE4:
 109:lvgl/src/extra/widgets/list/lv_list.c ****         }
 110:lvgl/src/extra/widgets/list/lv_list.c **** 
 111:lvgl/src/extra/widgets/list/lv_list.c ****     }
 112:lvgl/src/extra/widgets/list/lv_list.c **** 
 113:lvgl/src/extra/widgets/list/lv_list.c ****     return "";
 330              		.loc 1 113 12 view .LVU79
 331 0030 0148     		ldr	r0, .L22+4
 332              	.L15:
 114:lvgl/src/extra/widgets/list/lv_list.c **** }
 333              		.loc 1 114 1 view .LVU80
 334 0032 70BD     		pop	{r4, r5, r6, pc}
 335              	.LVL43:
 336              	.L23:
 337              		.loc 1 114 1 view .LVU81
 338              		.align	2
 339              	.L22:
 340 0034 00000000 		.word	lv_label_class
 341 0038 00000000 		.word	.LC0
 342              		.cfi_endproc
 343              	.LFE170:
 345              		.global	lv_list_text_class
 346              		.section	.rodata.lv_list_text_class,"a"
 347              		.align	2
 350              	lv_list_text_class:
 351 0000 00000000 		.word	lv_label_class
 352 0004 00000000 		.space	24
ARM GAS  C:\usertemp\ccn6dI0u.s 			page 9


 352      00000000 
 352      00000000 
 352      00000000 
 352      00000000 
 353              		.global	lv_list_btn_class
 354              		.section	.rodata.lv_list_btn_class,"a"
 355              		.align	2
 358              	lv_list_btn_class:
 359 0000 00000000 		.word	lv_btn_class
 360 0004 00000000 		.space	24
 360      00000000 
 360      00000000 
 360      00000000 
 360      00000000 
 361              		.global	lv_list_class
 362              		.section	.rodata.lv_list_class,"a"
 363              		.align	2
 366              	lv_list_class:
 367 0000 00000000 		.word	lv_obj_class
 368 0004 00000000 		.space	16
 368      00000000 
 368      00000000 
 368      00000000 
 369 0014 C300     		.short	195
 370 0016 0401     		.short	260
 371 0018 00000000 		.space	4
 372              		.text
 373              	.Letext0:
 374              		.file 2 "D:/armtoolchain/arm-gnu-toolchain-13.3.rel1-mingw-w64-i686-arm-none-eabi/arm-none-eabi/in
 375              		.file 3 "D:/armtoolchain/arm-gnu-toolchain-13.3.rel1-mingw-w64-i686-arm-none-eabi/arm-none-eabi/in
 376              		.file 4 "D:/update_2024EL/changeform/743zit6/lvgl/src/misc/lv_area.h"
 377              		.file 5 "lvgl/src/extra/widgets/list/../../../core/../misc/lv_color.h"
 378              		.file 6 "lvgl/src/extra/widgets/list/../../../core/../misc/lv_style.h"
 379              		.file 7 "lvgl/src/extra/widgets/list/../../../core/lv_obj.h"
 380              		.file 8 "D:/update_2024EL/changeform/743zit6/lvgl/src/misc/lv_ll.h"
 381              		.file 9 "lvgl/src/extra/widgets/list/../../../core/lv_group.h"
 382              		.file 10 "lvgl/src/extra/widgets/list/../../../core/lv_obj_scroll.h"
 383              		.file 11 "lvgl/src/extra/widgets/list/../../../core/lv_obj_style.h"
 384              		.file 12 "lvgl/src/extra/widgets/list/../../../core/lv_obj_class.h"
 385              		.file 13 "lvgl/src/extra/widgets/list/../../../core/lv_event.h"
 386              		.file 14 "lvgl/src/extra/widgets/list/../../layouts/flex/lv_flex.h"
 387              		.file 15 "lvgl/src/extra/widgets/list/lv_list.h"
 388              		.file 16 "lvgl/src/extra/widgets/list/../../../widgets/lv_label.h"
 389              		.file 17 "lvgl/src/extra/widgets/list/../../../widgets/lv_btn.h"
 390              		.file 18 "lvgl/src/extra/widgets/list/../../../core/lv_obj_tree.h"
 391              		.file 19 "lvgl/src/extra/widgets/list/../../../widgets/lv_img.h"
 392              		.file 20 "D:/update_2024EL/changeform/743zit6/lvgl/src/core/lv_obj_pos.h"
ARM GAS  C:\usertemp\ccn6dI0u.s 			page 10

