ARM GAS  C:\usertemp\ccHgR6sE.s 			page 1


   1              		.cpu cortex-m7
   2              		.arch armv7e-m
   3              		.fpu fpv5-d16
   4              		.eabi_attribute 28, 1
   5              		.eabi_attribute 20, 1
   6              		.eabi_attribute 21, 1
   7              		.eabi_attribute 23, 3
   8              		.eabi_attribute 24, 1
   9              		.eabi_attribute 25, 1
  10              		.eabi_attribute 26, 1
  11              		.eabi_attribute 30, 1
  12              		.eabi_attribute 34, 1
  13              		.eabi_attribute 18, 4
  14              		.file	"lv_lru.c"
  15              		.text
  16              	.Ltext0:
  17              		.cfi_sections	.debug_frame
  18              		.file 1 "lvgl/src/misc/lv_lru.c"
  19              		.section	.text.lv_lru_hash,"ax",%progbits
  20              		.align	1
  21              		.syntax unified
  22              		.thumb
  23              		.thumb_func
  25              	lv_lru_hash:
  26              	.LVL0:
  27              	.LFB7:
   1:lvgl/src/misc/lv_lru.c **** /**
   2:lvgl/src/misc/lv_lru.c ****  * @file lv_lru.c
   3:lvgl/src/misc/lv_lru.c ****  *
   4:lvgl/src/misc/lv_lru.c ****  * @see https://github.com/willcannings/C-LRU-Cache
   5:lvgl/src/misc/lv_lru.c ****  */
   6:lvgl/src/misc/lv_lru.c **** 
   7:lvgl/src/misc/lv_lru.c **** /*********************
   8:lvgl/src/misc/lv_lru.c ****  *      INCLUDES
   9:lvgl/src/misc/lv_lru.c ****  *********************/
  10:lvgl/src/misc/lv_lru.c **** 
  11:lvgl/src/misc/lv_lru.c **** #include "lv_lru.h"
  12:lvgl/src/misc/lv_lru.c **** #include "lv_math.h"
  13:lvgl/src/misc/lv_lru.c **** #include "lv_mem.h"
  14:lvgl/src/misc/lv_lru.c **** #include "lv_assert.h"
  15:lvgl/src/misc/lv_lru.c **** #include "lv_log.h"
  16:lvgl/src/misc/lv_lru.c **** 
  17:lvgl/src/misc/lv_lru.c **** /*********************
  18:lvgl/src/misc/lv_lru.c ****  *      DEFINES
  19:lvgl/src/misc/lv_lru.c ****  *********************/
  20:lvgl/src/misc/lv_lru.c **** 
  21:lvgl/src/misc/lv_lru.c **** /**********************
  22:lvgl/src/misc/lv_lru.c ****  *      TYPEDEFS
  23:lvgl/src/misc/lv_lru.c ****  **********************/
  24:lvgl/src/misc/lv_lru.c **** 
  25:lvgl/src/misc/lv_lru.c **** struct _lv_lru_item_t {
  26:lvgl/src/misc/lv_lru.c ****     void * value;
  27:lvgl/src/misc/lv_lru.c ****     void * key;
  28:lvgl/src/misc/lv_lru.c ****     size_t value_length;
  29:lvgl/src/misc/lv_lru.c ****     size_t key_length;
  30:lvgl/src/misc/lv_lru.c ****     uint64_t access_count;
  31:lvgl/src/misc/lv_lru.c ****     struct _lv_lru_item_t * next;
ARM GAS  C:\usertemp\ccHgR6sE.s 			page 2


  32:lvgl/src/misc/lv_lru.c **** };
  33:lvgl/src/misc/lv_lru.c **** 
  34:lvgl/src/misc/lv_lru.c **** /**********************
  35:lvgl/src/misc/lv_lru.c ****  *  STATIC PROTOTYPES
  36:lvgl/src/misc/lv_lru.c ****  **********************/
  37:lvgl/src/misc/lv_lru.c **** 
  38:lvgl/src/misc/lv_lru.c **** /**
  39:lvgl/src/misc/lv_lru.c ****  * MurmurHash2
  40:lvgl/src/misc/lv_lru.c ****  * @author Austin Appleby
  41:lvgl/src/misc/lv_lru.c ****  * @see http://sites.google.com/site/murmurhash/
  42:lvgl/src/misc/lv_lru.c ****  */
  43:lvgl/src/misc/lv_lru.c **** static uint32_t lv_lru_hash(lv_lru_t * cache, const void * key, uint32_t key_length);
  44:lvgl/src/misc/lv_lru.c **** 
  45:lvgl/src/misc/lv_lru.c **** /** compare a key against an existing item's key */
  46:lvgl/src/misc/lv_lru.c **** static int lv_lru_cmp_keys(lv_lru_item_t * item, const void * key, uint32_t key_length);
  47:lvgl/src/misc/lv_lru.c **** 
  48:lvgl/src/misc/lv_lru.c **** /** remove an item and push it to the free items queue */
  49:lvgl/src/misc/lv_lru.c **** static void lv_lru_remove_item(lv_lru_t * cache, lv_lru_item_t * prev, lv_lru_item_t * item, uint32
  50:lvgl/src/misc/lv_lru.c **** 
  51:lvgl/src/misc/lv_lru.c **** /**
  52:lvgl/src/misc/lv_lru.c ****  * remove the least recently used item
  53:lvgl/src/misc/lv_lru.c ****  *
  54:lvgl/src/misc/lv_lru.c ****  * @todo we can optimise this by finding the n lru items, where n = required_space / average_length
  55:lvgl/src/misc/lv_lru.c ****  */
  56:lvgl/src/misc/lv_lru.c **** static void lv_lru_remove_lru_item(lv_lru_t * cache);
  57:lvgl/src/misc/lv_lru.c **** 
  58:lvgl/src/misc/lv_lru.c **** /** pop an existing item off the free queue, or create a new one */
  59:lvgl/src/misc/lv_lru.c **** static lv_lru_item_t * lv_lru_pop_or_create_item(lv_lru_t * cache);
  60:lvgl/src/misc/lv_lru.c **** 
  61:lvgl/src/misc/lv_lru.c **** /**********************
  62:lvgl/src/misc/lv_lru.c ****  *  STATIC VARIABLES
  63:lvgl/src/misc/lv_lru.c ****  **********************/
  64:lvgl/src/misc/lv_lru.c **** 
  65:lvgl/src/misc/lv_lru.c **** /**********************
  66:lvgl/src/misc/lv_lru.c ****  *      MACROS
  67:lvgl/src/misc/lv_lru.c ****  **********************/
  68:lvgl/src/misc/lv_lru.c **** 
  69:lvgl/src/misc/lv_lru.c **** /* error helpers */
  70:lvgl/src/misc/lv_lru.c **** #define error_for(conditions, error)  if(conditions) {return error;}
  71:lvgl/src/misc/lv_lru.c **** #define test_for_missing_cache()      error_for(!cache, LV_LRU_MISSING_CACHE)
  72:lvgl/src/misc/lv_lru.c **** #define test_for_missing_key()        error_for(!key, LV_LRU_MISSING_KEY)
  73:lvgl/src/misc/lv_lru.c **** #define test_for_missing_value()      error_for(!value || value_length == 0, LV_LRU_MISSING_VALUE)
  74:lvgl/src/misc/lv_lru.c **** #define test_for_value_too_large()    error_for(value_length > cache->total_memory, LV_LRU_VALUE_TO
  75:lvgl/src/misc/lv_lru.c **** 
  76:lvgl/src/misc/lv_lru.c **** /**********************
  77:lvgl/src/misc/lv_lru.c ****  *   GLOBAL FUNCTIONS
  78:lvgl/src/misc/lv_lru.c ****  **********************/
  79:lvgl/src/misc/lv_lru.c **** 
  80:lvgl/src/misc/lv_lru.c **** lv_lru_t * lv_lru_create(size_t cache_size, size_t average_length, lv_lru_free_t * value_free,
  81:lvgl/src/misc/lv_lru.c ****                          lv_lru_free_t * key_free)
  82:lvgl/src/misc/lv_lru.c **** {
  83:lvgl/src/misc/lv_lru.c ****     // create the cache
  84:lvgl/src/misc/lv_lru.c ****     lv_lru_t * cache = (lv_lru_t *) lv_mem_alloc(sizeof(lv_lru_t));
  85:lvgl/src/misc/lv_lru.c ****     lv_memset_00(cache, sizeof(lv_lru_t));
  86:lvgl/src/misc/lv_lru.c ****     if(!cache) {
  87:lvgl/src/misc/lv_lru.c ****         LV_LOG_WARN("LRU Cache unable to create cache object");
  88:lvgl/src/misc/lv_lru.c ****         return NULL;
ARM GAS  C:\usertemp\ccHgR6sE.s 			page 3


  89:lvgl/src/misc/lv_lru.c ****     }
  90:lvgl/src/misc/lv_lru.c ****     cache->hash_table_size = cache_size / average_length;
  91:lvgl/src/misc/lv_lru.c ****     cache->average_item_length = average_length;
  92:lvgl/src/misc/lv_lru.c ****     cache->free_memory = cache_size;
  93:lvgl/src/misc/lv_lru.c ****     cache->total_memory = cache_size;
  94:lvgl/src/misc/lv_lru.c ****     cache->seed = lv_rand(1, UINT32_MAX);
  95:lvgl/src/misc/lv_lru.c ****     cache->value_free = value_free ? value_free : lv_mem_free;
  96:lvgl/src/misc/lv_lru.c ****     cache->key_free = key_free ? key_free : lv_mem_free;
  97:lvgl/src/misc/lv_lru.c **** 
  98:lvgl/src/misc/lv_lru.c ****     // size the hash table to a guestimate of the number of slots required (assuming a perfect hash
  99:lvgl/src/misc/lv_lru.c ****     cache->items = (lv_lru_item_t **) lv_mem_alloc(sizeof(lv_lru_item_t *) * cache->hash_table_size
 100:lvgl/src/misc/lv_lru.c ****     lv_memset_00(cache->items, sizeof(lv_lru_item_t *) * cache->hash_table_size);
 101:lvgl/src/misc/lv_lru.c ****     if(!cache->items) {
 102:lvgl/src/misc/lv_lru.c ****         LV_LOG_WARN("LRU Cache unable to create cache hash table");
 103:lvgl/src/misc/lv_lru.c ****         lv_mem_free(cache);
 104:lvgl/src/misc/lv_lru.c ****         return NULL;
 105:lvgl/src/misc/lv_lru.c ****     }
 106:lvgl/src/misc/lv_lru.c ****     return cache;
 107:lvgl/src/misc/lv_lru.c **** }
 108:lvgl/src/misc/lv_lru.c **** 
 109:lvgl/src/misc/lv_lru.c **** 
 110:lvgl/src/misc/lv_lru.c **** void lv_lru_del(lv_lru_t * cache)
 111:lvgl/src/misc/lv_lru.c **** {
 112:lvgl/src/misc/lv_lru.c ****     LV_ASSERT_NULL(cache);
 113:lvgl/src/misc/lv_lru.c **** 
 114:lvgl/src/misc/lv_lru.c ****     // free each of the cached items, and the hash table
 115:lvgl/src/misc/lv_lru.c ****     lv_lru_item_t * item = NULL, *next = NULL;
 116:lvgl/src/misc/lv_lru.c ****     uint32_t i = 0;
 117:lvgl/src/misc/lv_lru.c ****     if(cache->items) {
 118:lvgl/src/misc/lv_lru.c ****         for(; i < cache->hash_table_size; i++) {
 119:lvgl/src/misc/lv_lru.c ****             item = cache->items[i];
 120:lvgl/src/misc/lv_lru.c ****             while(item) {
 121:lvgl/src/misc/lv_lru.c ****                 next = (lv_lru_item_t *) item->next;
 122:lvgl/src/misc/lv_lru.c ****                 cache->value_free(item->value);
 123:lvgl/src/misc/lv_lru.c ****                 cache->key_free(item->key);
 124:lvgl/src/misc/lv_lru.c ****                 cache->free_memory += item->value_length;
 125:lvgl/src/misc/lv_lru.c ****                 lv_mem_free(item);
 126:lvgl/src/misc/lv_lru.c ****                 item = next;
 127:lvgl/src/misc/lv_lru.c ****             }
 128:lvgl/src/misc/lv_lru.c ****         }
 129:lvgl/src/misc/lv_lru.c ****         lv_mem_free(cache->items);
 130:lvgl/src/misc/lv_lru.c ****     }
 131:lvgl/src/misc/lv_lru.c **** 
 132:lvgl/src/misc/lv_lru.c ****     if(cache->free_items) {
 133:lvgl/src/misc/lv_lru.c ****         item = cache->free_items;
 134:lvgl/src/misc/lv_lru.c ****         while(item) {
 135:lvgl/src/misc/lv_lru.c ****             next = (lv_lru_item_t *) item->next;
 136:lvgl/src/misc/lv_lru.c ****             lv_mem_free(item);
 137:lvgl/src/misc/lv_lru.c ****             item = next;
 138:lvgl/src/misc/lv_lru.c ****         }
 139:lvgl/src/misc/lv_lru.c ****     }
 140:lvgl/src/misc/lv_lru.c **** 
 141:lvgl/src/misc/lv_lru.c ****     // free the cache
 142:lvgl/src/misc/lv_lru.c ****     lv_mem_free(cache);
 143:lvgl/src/misc/lv_lru.c **** }
 144:lvgl/src/misc/lv_lru.c **** 
 145:lvgl/src/misc/lv_lru.c **** 
ARM GAS  C:\usertemp\ccHgR6sE.s 			page 4


 146:lvgl/src/misc/lv_lru.c **** lv_lru_res_t lv_lru_set(lv_lru_t * cache, const void * key, size_t key_length, void * value, size_t
 147:lvgl/src/misc/lv_lru.c **** {
 148:lvgl/src/misc/lv_lru.c ****     test_for_missing_cache();
 149:lvgl/src/misc/lv_lru.c ****     test_for_missing_key();
 150:lvgl/src/misc/lv_lru.c ****     test_for_missing_value();
 151:lvgl/src/misc/lv_lru.c ****     test_for_value_too_large();
 152:lvgl/src/misc/lv_lru.c **** 
 153:lvgl/src/misc/lv_lru.c ****     // see if the key already exists
 154:lvgl/src/misc/lv_lru.c ****     uint32_t hash_index = lv_lru_hash(cache, key, key_length);
 155:lvgl/src/misc/lv_lru.c ****     size_t required = 0;
 156:lvgl/src/misc/lv_lru.c ****     lv_lru_item_t * item = NULL, *prev = NULL;
 157:lvgl/src/misc/lv_lru.c ****     item = cache->items[hash_index];
 158:lvgl/src/misc/lv_lru.c **** 
 159:lvgl/src/misc/lv_lru.c ****     while(item && lv_lru_cmp_keys(item, key, key_length)) {
 160:lvgl/src/misc/lv_lru.c ****         prev = item;
 161:lvgl/src/misc/lv_lru.c ****         item = (lv_lru_item_t *) item->next;
 162:lvgl/src/misc/lv_lru.c ****     }
 163:lvgl/src/misc/lv_lru.c **** 
 164:lvgl/src/misc/lv_lru.c ****     if(item) {
 165:lvgl/src/misc/lv_lru.c ****         // update the value and value_lengths
 166:lvgl/src/misc/lv_lru.c ****         required = (size_t)(value_length - item->value_length);
 167:lvgl/src/misc/lv_lru.c ****         cache->value_free(item->value);
 168:lvgl/src/misc/lv_lru.c ****         item->value = value;
 169:lvgl/src/misc/lv_lru.c ****         item->value_length = value_length;
 170:lvgl/src/misc/lv_lru.c **** 
 171:lvgl/src/misc/lv_lru.c ****     }
 172:lvgl/src/misc/lv_lru.c ****     else {
 173:lvgl/src/misc/lv_lru.c ****         // insert a new item
 174:lvgl/src/misc/lv_lru.c ****         item = lv_lru_pop_or_create_item(cache);
 175:lvgl/src/misc/lv_lru.c ****         item->value = value;
 176:lvgl/src/misc/lv_lru.c ****         item->key = lv_mem_alloc(key_length);
 177:lvgl/src/misc/lv_lru.c ****         memcpy(item->key, key, key_length);
 178:lvgl/src/misc/lv_lru.c ****         item->value_length = value_length;
 179:lvgl/src/misc/lv_lru.c ****         item->key_length = key_length;
 180:lvgl/src/misc/lv_lru.c ****         required = (size_t) value_length;
 181:lvgl/src/misc/lv_lru.c **** 
 182:lvgl/src/misc/lv_lru.c ****         if(prev)
 183:lvgl/src/misc/lv_lru.c ****             prev->next = item;
 184:lvgl/src/misc/lv_lru.c ****         else
 185:lvgl/src/misc/lv_lru.c ****             cache->items[hash_index] = item;
 186:lvgl/src/misc/lv_lru.c ****     }
 187:lvgl/src/misc/lv_lru.c ****     item->access_count = ++cache->access_count;
 188:lvgl/src/misc/lv_lru.c **** 
 189:lvgl/src/misc/lv_lru.c ****     // remove as many items as necessary to free enough space
 190:lvgl/src/misc/lv_lru.c ****     if(required > 0 && (size_t) required > cache->free_memory) {
 191:lvgl/src/misc/lv_lru.c ****         while(cache->free_memory < (size_t) required)
 192:lvgl/src/misc/lv_lru.c ****             lv_lru_remove_lru_item(cache);
 193:lvgl/src/misc/lv_lru.c ****     }
 194:lvgl/src/misc/lv_lru.c ****     cache->free_memory -= required;
 195:lvgl/src/misc/lv_lru.c ****     return LV_LRU_OK;
 196:lvgl/src/misc/lv_lru.c **** }
 197:lvgl/src/misc/lv_lru.c **** 
 198:lvgl/src/misc/lv_lru.c **** 
 199:lvgl/src/misc/lv_lru.c **** lv_lru_res_t lv_lru_get(lv_lru_t * cache, const void * key, size_t key_size, void ** value)
 200:lvgl/src/misc/lv_lru.c **** {
 201:lvgl/src/misc/lv_lru.c ****     test_for_missing_cache();
 202:lvgl/src/misc/lv_lru.c ****     test_for_missing_key();
ARM GAS  C:\usertemp\ccHgR6sE.s 			page 5


 203:lvgl/src/misc/lv_lru.c **** 
 204:lvgl/src/misc/lv_lru.c ****     // loop until we find the item, or hit the end of a chain
 205:lvgl/src/misc/lv_lru.c ****     uint32_t hash_index = lv_lru_hash(cache, key, key_size);
 206:lvgl/src/misc/lv_lru.c ****     lv_lru_item_t * item = cache->items[hash_index];
 207:lvgl/src/misc/lv_lru.c **** 
 208:lvgl/src/misc/lv_lru.c ****     while(item && lv_lru_cmp_keys(item, key, key_size))
 209:lvgl/src/misc/lv_lru.c ****         item = (lv_lru_item_t *) item->next;
 210:lvgl/src/misc/lv_lru.c **** 
 211:lvgl/src/misc/lv_lru.c ****     if(item) {
 212:lvgl/src/misc/lv_lru.c ****         *value = item->value;
 213:lvgl/src/misc/lv_lru.c ****         item->access_count = ++cache->access_count;
 214:lvgl/src/misc/lv_lru.c ****     }
 215:lvgl/src/misc/lv_lru.c ****     else {
 216:lvgl/src/misc/lv_lru.c ****         *value = NULL;
 217:lvgl/src/misc/lv_lru.c ****     }
 218:lvgl/src/misc/lv_lru.c **** 
 219:lvgl/src/misc/lv_lru.c ****     return LV_LRU_OK;
 220:lvgl/src/misc/lv_lru.c **** }
 221:lvgl/src/misc/lv_lru.c **** 
 222:lvgl/src/misc/lv_lru.c **** lv_lru_res_t lv_lru_remove(lv_lru_t * cache, const void * key, size_t key_size)
 223:lvgl/src/misc/lv_lru.c **** {
 224:lvgl/src/misc/lv_lru.c ****     test_for_missing_cache();
 225:lvgl/src/misc/lv_lru.c ****     test_for_missing_key();
 226:lvgl/src/misc/lv_lru.c **** 
 227:lvgl/src/misc/lv_lru.c ****     // loop until we find the item, or hit the end of a chain
 228:lvgl/src/misc/lv_lru.c ****     lv_lru_item_t * item = NULL, *prev = NULL;
 229:lvgl/src/misc/lv_lru.c ****     uint32_t hash_index = lv_lru_hash(cache, key, key_size);
 230:lvgl/src/misc/lv_lru.c ****     item = cache->items[hash_index];
 231:lvgl/src/misc/lv_lru.c **** 
 232:lvgl/src/misc/lv_lru.c ****     while(item && lv_lru_cmp_keys(item, key, key_size)) {
 233:lvgl/src/misc/lv_lru.c ****         prev = item;
 234:lvgl/src/misc/lv_lru.c ****         item = (lv_lru_item_t *) item->next;
 235:lvgl/src/misc/lv_lru.c ****     }
 236:lvgl/src/misc/lv_lru.c **** 
 237:lvgl/src/misc/lv_lru.c ****     if(item) {
 238:lvgl/src/misc/lv_lru.c ****         lv_lru_remove_item(cache, prev, item, hash_index);
 239:lvgl/src/misc/lv_lru.c ****     }
 240:lvgl/src/misc/lv_lru.c **** 
 241:lvgl/src/misc/lv_lru.c ****     return LV_LRU_OK;
 242:lvgl/src/misc/lv_lru.c **** }
 243:lvgl/src/misc/lv_lru.c **** 
 244:lvgl/src/misc/lv_lru.c **** /**********************
 245:lvgl/src/misc/lv_lru.c ****  *   STATIC FUNCTIONS
 246:lvgl/src/misc/lv_lru.c ****  **********************/
 247:lvgl/src/misc/lv_lru.c **** 
 248:lvgl/src/misc/lv_lru.c **** static uint32_t lv_lru_hash(lv_lru_t * cache, const void * key, uint32_t key_length)
 249:lvgl/src/misc/lv_lru.c **** {
  28              		.loc 1 249 1 view -0
  29              		.cfi_startproc
  30              		@ args = 0, pretend = 0, frame = 0
  31              		@ frame_needed = 0, uses_anonymous_args = 0
  32              		@ link register save eliminated.
  33              		.loc 1 249 1 is_stmt 0 view .LVU1
  34 0000 10B4     		push	{r4}
  35              	.LCFI0:
  36              		.cfi_def_cfa_offset 4
  37              		.cfi_offset 4, -4
ARM GAS  C:\usertemp\ccHgR6sE.s 			page 6


 250:lvgl/src/misc/lv_lru.c ****     uint32_t m = 0x5bd1e995;
  38              		.loc 1 250 5 is_stmt 1 view .LVU2
  39              	.LVL1:
 251:lvgl/src/misc/lv_lru.c ****     uint32_t r = 24;
  40              		.loc 1 251 5 view .LVU3
 252:lvgl/src/misc/lv_lru.c ****     uint32_t h = cache->seed ^ key_length;
  41              		.loc 1 252 5 view .LVU4
  42              		.loc 1 252 23 is_stmt 0 view .LVU5
  43 0002 036A     		ldr	r3, [r0, #32]
  44              		.loc 1 252 14 view .LVU6
  45 0004 83EA020C 		eor	ip, r3, r2
  46              	.LVL2:
 253:lvgl/src/misc/lv_lru.c ****     char * data = (char *) key;
  47              		.loc 1 253 5 is_stmt 1 view .LVU7
 254:lvgl/src/misc/lv_lru.c **** 
 255:lvgl/src/misc/lv_lru.c ****     while(key_length >= 4) {
  48              		.loc 1 255 5 view .LVU8
  49              		.loc 1 255 10 is_stmt 0 view .LVU9
  50 0008 0DE0     		b	.L2
  51              	.LVL3:
  52              	.L3:
  53              	.LBB2:
 256:lvgl/src/misc/lv_lru.c ****         uint32_t k = *(uint32_t *) data;
  54              		.loc 1 256 9 is_stmt 1 view .LVU10
  55              		.loc 1 256 18 is_stmt 0 view .LVU11
  56 000a 51F8043B 		ldr	r3, [r1], #4
  57              	.LVL4:
 257:lvgl/src/misc/lv_lru.c ****         k *= m;
  58              		.loc 1 257 9 is_stmt 1 view .LVU12
  59              		.loc 1 257 11 is_stmt 0 view .LVU13
  60 000e 174C     		ldr	r4, .L8
  61 0010 04FB03F3 		mul	r3, r4, r3
  62              	.LVL5:
 258:lvgl/src/misc/lv_lru.c ****         k ^= k >> r;
  63              		.loc 1 258 9 is_stmt 1 view .LVU14
  64              		.loc 1 258 11 is_stmt 0 view .LVU15
  65 0014 83EA1363 		eor	r3, r3, r3, lsr #24
  66              	.LVL6:
 259:lvgl/src/misc/lv_lru.c ****         k *= m;
  67              		.loc 1 259 9 is_stmt 1 view .LVU16
  68              		.loc 1 259 11 is_stmt 0 view .LVU17
  69 0018 04FB03F3 		mul	r3, r4, r3
  70              	.LVL7:
 260:lvgl/src/misc/lv_lru.c ****         h *= m;
  71              		.loc 1 260 9 is_stmt 1 view .LVU18
  72              		.loc 1 260 11 is_stmt 0 view .LVU19
  73 001c 04FB0CFC 		mul	ip, r4, ip
  74              	.LVL8:
 261:lvgl/src/misc/lv_lru.c ****         h ^= k;
  75              		.loc 1 261 9 is_stmt 1 view .LVU20
  76              		.loc 1 261 11 is_stmt 0 view .LVU21
  77 0020 83EA0C0C 		eor	ip, r3, ip
  78              	.LVL9:
 262:lvgl/src/misc/lv_lru.c ****         data += 4;
  79              		.loc 1 262 9 is_stmt 1 view .LVU22
 263:lvgl/src/misc/lv_lru.c ****         key_length -= 4;
  80              		.loc 1 263 9 view .LVU23
ARM GAS  C:\usertemp\ccHgR6sE.s 			page 7


  81              		.loc 1 263 20 is_stmt 0 view .LVU24
  82 0024 043A     		subs	r2, r2, #4
  83              	.LVL10:
  84              	.L2:
  85              		.loc 1 263 20 view .LVU25
  86              	.LBE2:
 255:lvgl/src/misc/lv_lru.c ****         uint32_t k = *(uint32_t *) data;
  87              		.loc 1 255 22 is_stmt 1 view .LVU26
  88 0026 032A     		cmp	r2, #3
  89 0028 EFD8     		bhi	.L3
 264:lvgl/src/misc/lv_lru.c ****     }
 265:lvgl/src/misc/lv_lru.c **** 
 266:lvgl/src/misc/lv_lru.c ****     if(key_length >= 3) {
  90              		.loc 1 266 5 view .LVU27
  91              		.loc 1 266 7 is_stmt 0 view .LVU28
  92 002a 022A     		cmp	r2, #2
  93 002c 02D9     		bls	.L4
 267:lvgl/src/misc/lv_lru.c ****         h ^= data[2] << 16;
  94              		.loc 1 267 9 is_stmt 1 view .LVU29
  95              		.loc 1 267 18 is_stmt 0 view .LVU30
  96 002e 8B78     		ldrb	r3, [r1, #2]	@ zero_extendqisi2
  97              		.loc 1 267 11 view .LVU31
  98 0030 8CEA034C 		eor	ip, ip, r3, lsl #16
  99              	.LVL11:
 100              	.L4:
 268:lvgl/src/misc/lv_lru.c ****     }
 269:lvgl/src/misc/lv_lru.c ****     if(key_length >= 2) {
 101              		.loc 1 269 5 is_stmt 1 view .LVU32
 102              		.loc 1 269 7 is_stmt 0 view .LVU33
 103 0034 012A     		cmp	r2, #1
 104 0036 02D9     		bls	.L5
 270:lvgl/src/misc/lv_lru.c ****         h ^= data[1] << 8;
 105              		.loc 1 270 9 is_stmt 1 view .LVU34
 106              		.loc 1 270 18 is_stmt 0 view .LVU35
 107 0038 4B78     		ldrb	r3, [r1, #1]	@ zero_extendqisi2
 108              		.loc 1 270 11 view .LVU36
 109 003a 8CEA032C 		eor	ip, ip, r3, lsl #8
 110              	.LVL12:
 111              	.L5:
 271:lvgl/src/misc/lv_lru.c ****     }
 272:lvgl/src/misc/lv_lru.c ****     if(key_length >= 1) {
 112              		.loc 1 272 5 is_stmt 1 view .LVU37
 113              		.loc 1 272 7 is_stmt 0 view .LVU38
 114 003e 2AB1     		cbz	r2, .L6
 273:lvgl/src/misc/lv_lru.c ****         h ^= data[0];
 115              		.loc 1 273 9 is_stmt 1 view .LVU39
 116              		.loc 1 273 18 is_stmt 0 view .LVU40
 117 0040 0B78     		ldrb	r3, [r1]	@ zero_extendqisi2
 118              		.loc 1 273 11 view .LVU41
 119 0042 83EA0C0C 		eor	ip, r3, ip
 120              	.LVL13:
 274:lvgl/src/misc/lv_lru.c ****         h *= m;
 121              		.loc 1 274 9 is_stmt 1 view .LVU42
 122              		.loc 1 274 11 is_stmt 0 view .LVU43
 123 0046 094B     		ldr	r3, .L8
 124 0048 03FB0CFC 		mul	ip, r3, ip
 125              	.LVL14:
ARM GAS  C:\usertemp\ccHgR6sE.s 			page 8


 126              	.L6:
 275:lvgl/src/misc/lv_lru.c ****     }
 276:lvgl/src/misc/lv_lru.c **** 
 277:lvgl/src/misc/lv_lru.c ****     h ^= h >> 13;
 127              		.loc 1 277 5 is_stmt 1 view .LVU44
 128              		.loc 1 277 7 is_stmt 0 view .LVU45
 129 004c 8CEA5C3C 		eor	ip, ip, ip, lsr #13
 130              	.LVL15:
 278:lvgl/src/misc/lv_lru.c ****     h *= m;
 131              		.loc 1 278 5 is_stmt 1 view .LVU46
 132              		.loc 1 278 7 is_stmt 0 view .LVU47
 133 0050 064B     		ldr	r3, .L8
 134 0052 03FB0CFC 		mul	ip, r3, ip
 135              	.LVL16:
 279:lvgl/src/misc/lv_lru.c ****     h ^= h >> 15;
 136              		.loc 1 279 5 is_stmt 1 view .LVU48
 137              		.loc 1 279 7 is_stmt 0 view .LVU49
 138 0056 8CEADC3C 		eor	ip, ip, ip, lsr #15
 139              	.LVL17:
 280:lvgl/src/misc/lv_lru.c ****     return h % cache->hash_table_size;
 140              		.loc 1 280 5 is_stmt 1 view .LVU50
 141              		.loc 1 280 21 is_stmt 0 view .LVU51
 142 005a C369     		ldr	r3, [r0, #28]
 143              		.loc 1 280 14 view .LVU52
 144 005c BCFBF3F0 		udiv	r0, ip, r3
 145              	.LVL18:
 281:lvgl/src/misc/lv_lru.c **** }
 146              		.loc 1 281 1 view .LVU53
 147 0060 03FB10C0 		mls	r0, r3, r0, ip
 148 0064 5DF8044B 		ldr	r4, [sp], #4
 149              	.LCFI1:
 150              		.cfi_restore 4
 151              		.cfi_def_cfa_offset 0
 152 0068 7047     		bx	lr
 153              	.L9:
 154 006a 00BF     		.align	2
 155              	.L8:
 156 006c 95E9D15B 		.word	1540483477
 157              		.cfi_endproc
 158              	.LFE7:
 160              		.section	.text.lv_lru_pop_or_create_item,"ax",%progbits
 161              		.align	1
 162              		.syntax unified
 163              		.thumb
 164              		.thumb_func
 166              	lv_lru_pop_or_create_item:
 167              	.LVL19:
 168              	.LFB11:
 282:lvgl/src/misc/lv_lru.c **** 
 283:lvgl/src/misc/lv_lru.c **** static int lv_lru_cmp_keys(lv_lru_item_t * item, const void * key, uint32_t key_length)
 284:lvgl/src/misc/lv_lru.c **** {
 285:lvgl/src/misc/lv_lru.c ****     if(key_length != item->key_length)
 286:lvgl/src/misc/lv_lru.c ****         return 1;
 287:lvgl/src/misc/lv_lru.c ****     else
 288:lvgl/src/misc/lv_lru.c ****         return memcmp(key, item->key, key_length);
 289:lvgl/src/misc/lv_lru.c **** }
 290:lvgl/src/misc/lv_lru.c **** 
ARM GAS  C:\usertemp\ccHgR6sE.s 			page 9


 291:lvgl/src/misc/lv_lru.c **** static void lv_lru_remove_item(lv_lru_t * cache, lv_lru_item_t * prev, lv_lru_item_t * item, uint32
 292:lvgl/src/misc/lv_lru.c **** {
 293:lvgl/src/misc/lv_lru.c ****     if(prev)
 294:lvgl/src/misc/lv_lru.c ****         prev->next = item->next;
 295:lvgl/src/misc/lv_lru.c ****     else
 296:lvgl/src/misc/lv_lru.c ****         cache->items[hash_index] = (lv_lru_item_t *) item->next;
 297:lvgl/src/misc/lv_lru.c **** 
 298:lvgl/src/misc/lv_lru.c ****     // free memory and update the free memory counter
 299:lvgl/src/misc/lv_lru.c ****     cache->free_memory += item->value_length;
 300:lvgl/src/misc/lv_lru.c ****     cache->value_free(item->value);
 301:lvgl/src/misc/lv_lru.c ****     cache->key_free(item->key);
 302:lvgl/src/misc/lv_lru.c **** 
 303:lvgl/src/misc/lv_lru.c ****     // push the item to the free items queue
 304:lvgl/src/misc/lv_lru.c ****     lv_memset_00(item, sizeof(lv_lru_item_t));
 305:lvgl/src/misc/lv_lru.c ****     item->next = cache->free_items;
 306:lvgl/src/misc/lv_lru.c ****     cache->free_items = item;
 307:lvgl/src/misc/lv_lru.c **** }
 308:lvgl/src/misc/lv_lru.c **** 
 309:lvgl/src/misc/lv_lru.c **** static void lv_lru_remove_lru_item(lv_lru_t * cache)
 310:lvgl/src/misc/lv_lru.c **** {
 311:lvgl/src/misc/lv_lru.c ****     lv_lru_item_t * min_item = NULL, *min_prev = NULL;
 312:lvgl/src/misc/lv_lru.c ****     lv_lru_item_t * item = NULL, *prev = NULL;
 313:lvgl/src/misc/lv_lru.c ****     uint32_t i = 0, min_index = -1;
 314:lvgl/src/misc/lv_lru.c ****     uint64_t min_access_count = -1;
 315:lvgl/src/misc/lv_lru.c **** 
 316:lvgl/src/misc/lv_lru.c ****     for(; i < cache->hash_table_size; i++) {
 317:lvgl/src/misc/lv_lru.c ****         item = cache->items[i];
 318:lvgl/src/misc/lv_lru.c ****         prev = NULL;
 319:lvgl/src/misc/lv_lru.c **** 
 320:lvgl/src/misc/lv_lru.c ****         while(item) {
 321:lvgl/src/misc/lv_lru.c ****             if(item->access_count < min_access_count || (int64_t) min_access_count == -1) {
 322:lvgl/src/misc/lv_lru.c ****                 min_access_count = item->access_count;
 323:lvgl/src/misc/lv_lru.c ****                 min_item = item;
 324:lvgl/src/misc/lv_lru.c ****                 min_prev = prev;
 325:lvgl/src/misc/lv_lru.c ****                 min_index = i;
 326:lvgl/src/misc/lv_lru.c ****             }
 327:lvgl/src/misc/lv_lru.c ****             prev = item;
 328:lvgl/src/misc/lv_lru.c ****             item = item->next;
 329:lvgl/src/misc/lv_lru.c ****         }
 330:lvgl/src/misc/lv_lru.c ****     }
 331:lvgl/src/misc/lv_lru.c **** 
 332:lvgl/src/misc/lv_lru.c ****     if(min_item)
 333:lvgl/src/misc/lv_lru.c ****         lv_lru_remove_item(cache, min_prev, min_item, min_index);
 334:lvgl/src/misc/lv_lru.c **** }
 335:lvgl/src/misc/lv_lru.c **** 
 336:lvgl/src/misc/lv_lru.c **** static lv_lru_item_t * lv_lru_pop_or_create_item(lv_lru_t * cache)
 337:lvgl/src/misc/lv_lru.c **** {
 169              		.loc 1 337 1 is_stmt 1 view -0
 170              		.cfi_startproc
 171              		@ args = 0, pretend = 0, frame = 0
 172              		@ frame_needed = 0, uses_anonymous_args = 0
 173              		.loc 1 337 1 is_stmt 0 view .LVU55
 174 0000 10B5     		push	{r4, lr}
 175              	.LCFI2:
 176              		.cfi_def_cfa_offset 8
 177              		.cfi_offset 4, -8
 178              		.cfi_offset 14, -4
ARM GAS  C:\usertemp\ccHgR6sE.s 			page 10


 338:lvgl/src/misc/lv_lru.c ****     lv_lru_item_t * item = NULL;
 179              		.loc 1 338 5 is_stmt 1 view .LVU56
 180              	.LVL20:
 339:lvgl/src/misc/lv_lru.c **** 
 340:lvgl/src/misc/lv_lru.c ****     if(cache->free_items) {
 181              		.loc 1 340 5 view .LVU57
 182              		.loc 1 340 13 is_stmt 0 view .LVU58
 183 0002 C46A     		ldr	r4, [r0, #44]
 184              		.loc 1 340 7 view .LVU59
 185 0004 3CB1     		cbz	r4, .L11
 341:lvgl/src/misc/lv_lru.c ****         item = cache->free_items;
 186              		.loc 1 341 9 is_stmt 1 view .LVU60
 187              	.LVL21:
 342:lvgl/src/misc/lv_lru.c ****         cache->free_items = item->next;
 188              		.loc 1 342 9 view .LVU61
 189              		.loc 1 342 33 is_stmt 0 view .LVU62
 190 0006 A369     		ldr	r3, [r4, #24]
 191              		.loc 1 342 27 view .LVU63
 192 0008 C362     		str	r3, [r0, #44]
 343:lvgl/src/misc/lv_lru.c ****         lv_memset_00(item, sizeof(lv_lru_item_t));
 193              		.loc 1 343 9 is_stmt 1 view .LVU64
 194 000a 2021     		movs	r1, #32
 195 000c 2046     		mov	r0, r4
 196              	.LVL22:
 197              		.loc 1 343 9 is_stmt 0 view .LVU65
 198 000e FFF7FEFF 		bl	lv_memset_00
 199              	.LVL23:
 200              	.L10:
 344:lvgl/src/misc/lv_lru.c ****     }
 345:lvgl/src/misc/lv_lru.c ****     else {
 346:lvgl/src/misc/lv_lru.c ****         item = (lv_lru_item_t *) lv_mem_alloc(sizeof(lv_lru_item_t));
 347:lvgl/src/misc/lv_lru.c ****         lv_memset_00(item, sizeof(lv_lru_item_t));
 348:lvgl/src/misc/lv_lru.c ****     }
 349:lvgl/src/misc/lv_lru.c **** 
 350:lvgl/src/misc/lv_lru.c ****     return item;
 351:lvgl/src/misc/lv_lru.c **** }
 201              		.loc 1 351 1 view .LVU66
 202 0012 2046     		mov	r0, r4
 203 0014 10BD     		pop	{r4, pc}
 204              	.LVL24:
 205              	.L11:
 346:lvgl/src/misc/lv_lru.c ****         lv_memset_00(item, sizeof(lv_lru_item_t));
 206              		.loc 1 346 9 is_stmt 1 view .LVU67
 346:lvgl/src/misc/lv_lru.c ****         lv_memset_00(item, sizeof(lv_lru_item_t));
 207              		.loc 1 346 34 is_stmt 0 view .LVU68
 208 0016 2020     		movs	r0, #32
 209              	.LVL25:
 346:lvgl/src/misc/lv_lru.c ****         lv_memset_00(item, sizeof(lv_lru_item_t));
 210              		.loc 1 346 34 view .LVU69
 211 0018 FFF7FEFF 		bl	lv_mem_alloc
 212              	.LVL26:
 213 001c 0446     		mov	r4, r0
 214              	.LVL27:
 347:lvgl/src/misc/lv_lru.c ****     }
 215              		.loc 1 347 9 is_stmt 1 view .LVU70
 216 001e 2021     		movs	r1, #32
 217 0020 FFF7FEFF 		bl	lv_memset_00
ARM GAS  C:\usertemp\ccHgR6sE.s 			page 11


 218              	.LVL28:
 350:lvgl/src/misc/lv_lru.c **** }
 219              		.loc 1 350 5 view .LVU71
 350:lvgl/src/misc/lv_lru.c **** }
 220              		.loc 1 350 12 is_stmt 0 view .LVU72
 221 0024 F5E7     		b	.L10
 222              		.cfi_endproc
 223              	.LFE11:
 225              		.section	.text.lv_lru_remove_item,"ax",%progbits
 226              		.align	1
 227              		.syntax unified
 228              		.thumb
 229              		.thumb_func
 231              	lv_lru_remove_item:
 232              	.LVL29:
 233              	.LFB9:
 292:lvgl/src/misc/lv_lru.c ****     if(prev)
 234              		.loc 1 292 1 is_stmt 1 view -0
 235              		.cfi_startproc
 236              		@ args = 0, pretend = 0, frame = 0
 237              		@ frame_needed = 0, uses_anonymous_args = 0
 292:lvgl/src/misc/lv_lru.c ****     if(prev)
 238              		.loc 1 292 1 is_stmt 0 view .LVU74
 239 0000 38B5     		push	{r3, r4, r5, lr}
 240              	.LCFI3:
 241              		.cfi_def_cfa_offset 16
 242              		.cfi_offset 3, -16
 243              		.cfi_offset 4, -12
 244              		.cfi_offset 5, -8
 245              		.cfi_offset 14, -4
 246 0002 0546     		mov	r5, r0
 247 0004 1446     		mov	r4, r2
 293:lvgl/src/misc/lv_lru.c ****         prev->next = item->next;
 248              		.loc 1 293 5 is_stmt 1 view .LVU75
 293:lvgl/src/misc/lv_lru.c ****         prev->next = item->next;
 249              		.loc 1 293 7 is_stmt 0 view .LVU76
 250 0006 99B1     		cbz	r1, .L15
 294:lvgl/src/misc/lv_lru.c ****     else
 251              		.loc 1 294 9 is_stmt 1 view .LVU77
 294:lvgl/src/misc/lv_lru.c ****     else
 252              		.loc 1 294 26 is_stmt 0 view .LVU78
 253 0008 A369     		ldr	r3, [r4, #24]
 254              	.LVL30:
 294:lvgl/src/misc/lv_lru.c ****     else
 255              		.loc 1 294 20 view .LVU79
 256 000a 8B61     		str	r3, [r1, #24]
 257              	.LVL31:
 258              	.L16:
 299:lvgl/src/misc/lv_lru.c ****     cache->value_free(item->value);
 259              		.loc 1 299 5 is_stmt 1 view .LVU80
 299:lvgl/src/misc/lv_lru.c ****     cache->value_free(item->value);
 260              		.loc 1 299 10 is_stmt 0 view .LVU81
 261 000c 2B69     		ldr	r3, [r5, #16]
 299:lvgl/src/misc/lv_lru.c ****     cache->value_free(item->value);
 262              		.loc 1 299 31 view .LVU82
 263 000e A268     		ldr	r2, [r4, #8]
 299:lvgl/src/misc/lv_lru.c ****     cache->value_free(item->value);
ARM GAS  C:\usertemp\ccHgR6sE.s 			page 12


 264              		.loc 1 299 24 view .LVU83
 265 0010 1344     		add	r3, r3, r2
 266 0012 2B61     		str	r3, [r5, #16]
 300:lvgl/src/misc/lv_lru.c ****     cache->key_free(item->key);
 267              		.loc 1 300 5 is_stmt 1 view .LVU84
 300:lvgl/src/misc/lv_lru.c ****     cache->key_free(item->key);
 268              		.loc 1 300 10 is_stmt 0 view .LVU85
 269 0014 6B6A     		ldr	r3, [r5, #36]
 300:lvgl/src/misc/lv_lru.c ****     cache->key_free(item->key);
 270              		.loc 1 300 5 view .LVU86
 271 0016 2068     		ldr	r0, [r4]
 272              	.LVL32:
 300:lvgl/src/misc/lv_lru.c ****     cache->key_free(item->key);
 273              		.loc 1 300 5 view .LVU87
 274 0018 9847     		blx	r3
 275              	.LVL33:
 301:lvgl/src/misc/lv_lru.c **** 
 276              		.loc 1 301 5 is_stmt 1 view .LVU88
 301:lvgl/src/misc/lv_lru.c **** 
 277              		.loc 1 301 10 is_stmt 0 view .LVU89
 278 001a AB6A     		ldr	r3, [r5, #40]
 301:lvgl/src/misc/lv_lru.c **** 
 279              		.loc 1 301 5 view .LVU90
 280 001c 6068     		ldr	r0, [r4, #4]
 281 001e 9847     		blx	r3
 282              	.LVL34:
 304:lvgl/src/misc/lv_lru.c ****     item->next = cache->free_items;
 283              		.loc 1 304 5 is_stmt 1 view .LVU91
 284 0020 2021     		movs	r1, #32
 285 0022 2046     		mov	r0, r4
 286 0024 FFF7FEFF 		bl	lv_memset_00
 287              	.LVL35:
 305:lvgl/src/misc/lv_lru.c ****     cache->free_items = item;
 288              		.loc 1 305 5 view .LVU92
 305:lvgl/src/misc/lv_lru.c ****     cache->free_items = item;
 289              		.loc 1 305 23 is_stmt 0 view .LVU93
 290 0028 EB6A     		ldr	r3, [r5, #44]
 305:lvgl/src/misc/lv_lru.c ****     cache->free_items = item;
 291              		.loc 1 305 16 view .LVU94
 292 002a A361     		str	r3, [r4, #24]
 306:lvgl/src/misc/lv_lru.c **** }
 293              		.loc 1 306 5 is_stmt 1 view .LVU95
 306:lvgl/src/misc/lv_lru.c **** }
 294              		.loc 1 306 23 is_stmt 0 view .LVU96
 295 002c EC62     		str	r4, [r5, #44]
 307:lvgl/src/misc/lv_lru.c **** 
 296              		.loc 1 307 1 view .LVU97
 297 002e 38BD     		pop	{r3, r4, r5, pc}
 298              	.LVL36:
 299              	.L15:
 296:lvgl/src/misc/lv_lru.c **** 
 300              		.loc 1 296 9 is_stmt 1 view .LVU98
 296:lvgl/src/misc/lv_lru.c **** 
 301              		.loc 1 296 14 is_stmt 0 view .LVU99
 302 0030 0268     		ldr	r2, [r0]
 303              	.LVL37:
 296:lvgl/src/misc/lv_lru.c **** 
ARM GAS  C:\usertemp\ccHgR6sE.s 			page 13


 304              		.loc 1 296 58 view .LVU100
 305 0032 A169     		ldr	r1, [r4, #24]
 306              	.LVL38:
 296:lvgl/src/misc/lv_lru.c **** 
 307              		.loc 1 296 34 view .LVU101
 308 0034 42F82310 		str	r1, [r2, r3, lsl #2]
 309 0038 E8E7     		b	.L16
 310              		.cfi_endproc
 311              	.LFE9:
 313              		.section	.text.lv_lru_remove_lru_item,"ax",%progbits
 314              		.align	1
 315              		.syntax unified
 316              		.thumb
 317              		.thumb_func
 319              	lv_lru_remove_lru_item:
 320              	.LVL39:
 321              	.LFB10:
 310:lvgl/src/misc/lv_lru.c ****     lv_lru_item_t * min_item = NULL, *min_prev = NULL;
 322              		.loc 1 310 1 is_stmt 1 view -0
 323              		.cfi_startproc
 324              		@ args = 0, pretend = 0, frame = 0
 325              		@ frame_needed = 0, uses_anonymous_args = 0
 310:lvgl/src/misc/lv_lru.c ****     lv_lru_item_t * min_item = NULL, *min_prev = NULL;
 326              		.loc 1 310 1 is_stmt 0 view .LVU103
 327 0000 2DE9F843 		push	{r3, r4, r5, r6, r7, r8, r9, lr}
 328              	.LCFI4:
 329              		.cfi_def_cfa_offset 32
 330              		.cfi_offset 3, -32
 331              		.cfi_offset 4, -28
 332              		.cfi_offset 5, -24
 333              		.cfi_offset 6, -20
 334              		.cfi_offset 7, -16
 335              		.cfi_offset 8, -12
 336              		.cfi_offset 9, -8
 337              		.cfi_offset 14, -4
 311:lvgl/src/misc/lv_lru.c ****     lv_lru_item_t * item = NULL, *prev = NULL;
 338              		.loc 1 311 5 is_stmt 1 view .LVU104
 339              	.LVL40:
 312:lvgl/src/misc/lv_lru.c ****     uint32_t i = 0, min_index = -1;
 340              		.loc 1 312 5 view .LVU105
 313:lvgl/src/misc/lv_lru.c ****     uint64_t min_access_count = -1;
 341              		.loc 1 313 5 view .LVU106
 314:lvgl/src/misc/lv_lru.c **** 
 342              		.loc 1 314 5 view .LVU107
 316:lvgl/src/misc/lv_lru.c ****         item = cache->items[i];
 343              		.loc 1 316 5 view .LVU108
 314:lvgl/src/misc/lv_lru.c **** 
 344              		.loc 1 314 14 is_stmt 0 view .LVU109
 345 0004 4FF0FF3C 		mov	ip, #-1
 346 0008 E646     		mov	lr, ip
 313:lvgl/src/misc/lv_lru.c ****     uint64_t min_access_count = -1;
 347              		.loc 1 313 21 view .LVU110
 348 000a 6346     		mov	r3, ip
 313:lvgl/src/misc/lv_lru.c ****     uint64_t min_access_count = -1;
 349              		.loc 1 313 14 view .LVU111
 350 000c 4FF00008 		mov	r8, #0
 311:lvgl/src/misc/lv_lru.c ****     lv_lru_item_t * item = NULL, *prev = NULL;
ARM GAS  C:\usertemp\ccHgR6sE.s 			page 14


 351              		.loc 1 311 39 view .LVU112
 352 0010 4146     		mov	r1, r8
 311:lvgl/src/misc/lv_lru.c ****     lv_lru_item_t * item = NULL, *prev = NULL;
 353              		.loc 1 311 21 view .LVU113
 354 0012 4246     		mov	r2, r8
 316:lvgl/src/misc/lv_lru.c ****         item = cache->items[i];
 355              		.loc 1 316 5 view .LVU114
 356 0014 1CE0     		b	.L19
 357              	.LVL41:
 358              	.L25:
 325:lvgl/src/misc/lv_lru.c ****             }
 359              		.loc 1 325 27 view .LVU115
 360 0016 4346     		mov	r3, r8
 361              	.LVL42:
 323:lvgl/src/misc/lv_lru.c ****                 min_prev = prev;
 362              		.loc 1 323 26 view .LVU116
 363 0018 2246     		mov	r2, r4
 364              	.LVL43:
 365              	.L21:
 327:lvgl/src/misc/lv_lru.c ****             item = item->next;
 366              		.loc 1 327 13 is_stmt 1 view .LVU117
 328:lvgl/src/misc/lv_lru.c ****         }
 367              		.loc 1 328 13 view .LVU118
 328:lvgl/src/misc/lv_lru.c ****         }
 368              		.loc 1 328 18 is_stmt 0 view .LVU119
 369 001a B446     		mov	ip, r6
 370 001c AE46     		mov	lr, r5
 371 001e 3946     		mov	r1, r7
 327:lvgl/src/misc/lv_lru.c ****             item = item->next;
 372              		.loc 1 327 18 view .LVU120
 373 0020 2746     		mov	r7, r4
 374              	.LVL44:
 328:lvgl/src/misc/lv_lru.c ****         }
 375              		.loc 1 328 18 view .LVU121
 376 0022 A469     		ldr	r4, [r4, #24]
 377              	.LVL45:
 378              	.L20:
 320:lvgl/src/misc/lv_lru.c ****             if(item->access_count < min_access_count || (int64_t) min_access_count == -1) {
 379              		.loc 1 320 15 is_stmt 1 view .LVU122
 380 0024 94B1     		cbz	r4, .L28
 321:lvgl/src/misc/lv_lru.c ****                 min_access_count = item->access_count;
 381              		.loc 1 321 13 view .LVU123
 321:lvgl/src/misc/lv_lru.c ****                 min_access_count = item->access_count;
 382              		.loc 1 321 20 is_stmt 0 view .LVU124
 383 0026 2669     		ldr	r6, [r4, #16]
 384 0028 6569     		ldr	r5, [r4, #20]
 321:lvgl/src/misc/lv_lru.c ****                 min_access_count = item->access_count;
 385              		.loc 1 321 15 view .LVU125
 386 002a 6645     		cmp	r6, ip
 387 002c 75EB0E09 		sbcs	r9, r5, lr
 388 0030 F1D3     		bcc	.L25
 321:lvgl/src/misc/lv_lru.c ****                 min_access_count = item->access_count;
 389              		.loc 1 321 54 discriminator 1 view .LVU126
 390 0032 BEF1FF3F 		cmp	lr, #-1
 391 0036 08BF     		it	eq
 392 0038 BCF1FF3F 		cmpeq	ip, #-1
 393 003c 03D0     		beq	.L26
ARM GAS  C:\usertemp\ccHgR6sE.s 			page 15


 394 003e 6646     		mov	r6, ip
 395 0040 7546     		mov	r5, lr
 396 0042 0F46     		mov	r7, r1
 397              	.LVL46:
 321:lvgl/src/misc/lv_lru.c ****                 min_access_count = item->access_count;
 398              		.loc 1 321 54 discriminator 1 view .LVU127
 399 0044 E9E7     		b	.L21
 400              	.LVL47:
 401              	.L26:
 325:lvgl/src/misc/lv_lru.c ****             }
 402              		.loc 1 325 27 view .LVU128
 403 0046 4346     		mov	r3, r8
 404              	.LVL48:
 323:lvgl/src/misc/lv_lru.c ****                 min_prev = prev;
 405              		.loc 1 323 26 view .LVU129
 406 0048 2246     		mov	r2, r4
 407              	.LVL49:
 323:lvgl/src/misc/lv_lru.c ****                 min_prev = prev;
 408              		.loc 1 323 26 view .LVU130
 409 004a E6E7     		b	.L21
 410              	.LVL50:
 411              	.L28:
 316:lvgl/src/misc/lv_lru.c ****         item = cache->items[i];
 412              		.loc 1 316 40 is_stmt 1 view .LVU131
 413 004c 08F10108 		add	r8, r8, #1
 414              	.LVL51:
 415              	.L19:
 316:lvgl/src/misc/lv_lru.c ****         item = cache->items[i];
 416              		.loc 1 316 13 discriminator 1 view .LVU132
 316:lvgl/src/misc/lv_lru.c ****         item = cache->items[i];
 417              		.loc 1 316 20 is_stmt 0 discriminator 1 view .LVU133
 418 0050 C469     		ldr	r4, [r0, #28]
 316:lvgl/src/misc/lv_lru.c ****         item = cache->items[i];
 419              		.loc 1 316 13 discriminator 1 view .LVU134
 420 0052 4445     		cmp	r4, r8
 421 0054 04D9     		bls	.L29
 317:lvgl/src/misc/lv_lru.c ****         prev = NULL;
 422              		.loc 1 317 9 is_stmt 1 view .LVU135
 317:lvgl/src/misc/lv_lru.c ****         prev = NULL;
 423              		.loc 1 317 21 is_stmt 0 view .LVU136
 424 0056 0468     		ldr	r4, [r0]
 317:lvgl/src/misc/lv_lru.c ****         prev = NULL;
 425              		.loc 1 317 14 view .LVU137
 426 0058 54F82840 		ldr	r4, [r4, r8, lsl #2]
 427              	.LVL52:
 318:lvgl/src/misc/lv_lru.c **** 
 428              		.loc 1 318 9 is_stmt 1 view .LVU138
 320:lvgl/src/misc/lv_lru.c ****             if(item->access_count < min_access_count || (int64_t) min_access_count == -1) {
 429              		.loc 1 320 9 view .LVU139
 318:lvgl/src/misc/lv_lru.c **** 
 430              		.loc 1 318 14 is_stmt 0 view .LVU140
 431 005c 0027     		movs	r7, #0
 320:lvgl/src/misc/lv_lru.c ****             if(item->access_count < min_access_count || (int64_t) min_access_count == -1) {
 432              		.loc 1 320 14 view .LVU141
 433 005e E1E7     		b	.L20
 434              	.LVL53:
 435              	.L29:
ARM GAS  C:\usertemp\ccHgR6sE.s 			page 16


 332:lvgl/src/misc/lv_lru.c ****         lv_lru_remove_item(cache, min_prev, min_item, min_index);
 436              		.loc 1 332 5 is_stmt 1 view .LVU142
 332:lvgl/src/misc/lv_lru.c ****         lv_lru_remove_item(cache, min_prev, min_item, min_index);
 437              		.loc 1 332 7 is_stmt 0 view .LVU143
 438 0060 0AB1     		cbz	r2, .L18
 333:lvgl/src/misc/lv_lru.c **** }
 439              		.loc 1 333 9 is_stmt 1 view .LVU144
 440 0062 FFF7FEFF 		bl	lv_lru_remove_item
 441              	.LVL54:
 442              	.L18:
 334:lvgl/src/misc/lv_lru.c **** 
 443              		.loc 1 334 1 is_stmt 0 view .LVU145
 444 0066 BDE8F883 		pop	{r3, r4, r5, r6, r7, r8, r9, pc}
 334:lvgl/src/misc/lv_lru.c **** 
 445              		.loc 1 334 1 view .LVU146
 446              		.cfi_endproc
 447              	.LFE10:
 449              		.section	.text.lv_lru_cmp_keys,"ax",%progbits
 450              		.align	1
 451              		.syntax unified
 452              		.thumb
 453              		.thumb_func
 455              	lv_lru_cmp_keys:
 456              	.LVL55:
 457              	.LFB8:
 284:lvgl/src/misc/lv_lru.c ****     if(key_length != item->key_length)
 458              		.loc 1 284 1 is_stmt 1 view -0
 459              		.cfi_startproc
 460              		@ args = 0, pretend = 0, frame = 0
 461              		@ frame_needed = 0, uses_anonymous_args = 0
 284:lvgl/src/misc/lv_lru.c ****     if(key_length != item->key_length)
 462              		.loc 1 284 1 is_stmt 0 view .LVU148
 463 0000 08B5     		push	{r3, lr}
 464              	.LCFI5:
 465              		.cfi_def_cfa_offset 8
 466              		.cfi_offset 3, -8
 467              		.cfi_offset 14, -4
 468 0002 0346     		mov	r3, r0
 469 0004 0846     		mov	r0, r1
 470              	.LVL56:
 285:lvgl/src/misc/lv_lru.c ****         return 1;
 471              		.loc 1 285 5 is_stmt 1 view .LVU149
 285:lvgl/src/misc/lv_lru.c ****         return 1;
 472              		.loc 1 285 26 is_stmt 0 view .LVU150
 473 0006 D968     		ldr	r1, [r3, #12]
 474              	.LVL57:
 285:lvgl/src/misc/lv_lru.c ****         return 1;
 475              		.loc 1 285 7 view .LVU151
 476 0008 9142     		cmp	r1, r2
 477 000a 01D0     		beq	.L34
 286:lvgl/src/misc/lv_lru.c ****     else
 478              		.loc 1 286 16 view .LVU152
 479 000c 0120     		movs	r0, #1
 480              	.LVL58:
 481              	.L30:
 289:lvgl/src/misc/lv_lru.c **** 
 482              		.loc 1 289 1 view .LVU153
ARM GAS  C:\usertemp\ccHgR6sE.s 			page 17


 483 000e 08BD     		pop	{r3, pc}
 484              	.LVL59:
 485              	.L34:
 288:lvgl/src/misc/lv_lru.c **** }
 486              		.loc 1 288 9 is_stmt 1 view .LVU154
 288:lvgl/src/misc/lv_lru.c **** }
 487              		.loc 1 288 16 is_stmt 0 view .LVU155
 488 0010 5968     		ldr	r1, [r3, #4]
 489 0012 FFF7FEFF 		bl	memcmp
 490              	.LVL60:
 288:lvgl/src/misc/lv_lru.c **** }
 491              		.loc 1 288 16 view .LVU156
 492 0016 FAE7     		b	.L30
 493              		.cfi_endproc
 494              	.LFE8:
 496              		.section	.text.lv_lru_create,"ax",%progbits
 497              		.align	1
 498              		.global	lv_lru_create
 499              		.syntax unified
 500              		.thumb
 501              		.thumb_func
 503              	lv_lru_create:
 504              	.LVL61:
 505              	.LFB2:
  82:lvgl/src/misc/lv_lru.c ****     // create the cache
 506              		.loc 1 82 1 is_stmt 1 view -0
 507              		.cfi_startproc
 508              		@ args = 0, pretend = 0, frame = 0
 509              		@ frame_needed = 0, uses_anonymous_args = 0
  82:lvgl/src/misc/lv_lru.c ****     // create the cache
 510              		.loc 1 82 1 is_stmt 0 view .LVU158
 511 0000 2DE9F041 		push	{r4, r5, r6, r7, r8, lr}
 512              	.LCFI6:
 513              		.cfi_def_cfa_offset 24
 514              		.cfi_offset 4, -24
 515              		.cfi_offset 5, -20
 516              		.cfi_offset 6, -16
 517              		.cfi_offset 7, -12
 518              		.cfi_offset 8, -8
 519              		.cfi_offset 14, -4
 520 0004 0746     		mov	r7, r0
 521 0006 8846     		mov	r8, r1
 522 0008 1646     		mov	r6, r2
 523 000a 1D46     		mov	r5, r3
  84:lvgl/src/misc/lv_lru.c ****     lv_memset_00(cache, sizeof(lv_lru_t));
 524              		.loc 1 84 5 is_stmt 1 view .LVU159
  84:lvgl/src/misc/lv_lru.c ****     lv_memset_00(cache, sizeof(lv_lru_t));
 525              		.loc 1 84 37 is_stmt 0 view .LVU160
 526 000c 3020     		movs	r0, #48
 527              	.LVL62:
  84:lvgl/src/misc/lv_lru.c ****     lv_memset_00(cache, sizeof(lv_lru_t));
 528              		.loc 1 84 37 view .LVU161
 529 000e FFF7FEFF 		bl	lv_mem_alloc
 530              	.LVL63:
  84:lvgl/src/misc/lv_lru.c ****     lv_memset_00(cache, sizeof(lv_lru_t));
 531              		.loc 1 84 37 view .LVU162
 532 0012 0446     		mov	r4, r0
ARM GAS  C:\usertemp\ccHgR6sE.s 			page 18


 533              	.LVL64:
  85:lvgl/src/misc/lv_lru.c ****     if(!cache) {
 534              		.loc 1 85 5 is_stmt 1 view .LVU163
 535 0014 3021     		movs	r1, #48
 536 0016 FFF7FEFF 		bl	lv_memset_00
 537              	.LVL65:
  86:lvgl/src/misc/lv_lru.c ****         LV_LOG_WARN("LRU Cache unable to create cache object");
 538              		.loc 1 86 5 view .LVU164
  86:lvgl/src/misc/lv_lru.c ****         LV_LOG_WARN("LRU Cache unable to create cache object");
 539              		.loc 1 86 7 is_stmt 0 view .LVU165
 540 001a DCB1     		cbz	r4, .L35
  90:lvgl/src/misc/lv_lru.c ****     cache->average_item_length = average_length;
 541              		.loc 1 90 5 is_stmt 1 view .LVU166
  90:lvgl/src/misc/lv_lru.c ****     cache->average_item_length = average_length;
 542              		.loc 1 90 41 is_stmt 0 view .LVU167
 543 001c B7FBF8F3 		udiv	r3, r7, r8
  90:lvgl/src/misc/lv_lru.c ****     cache->average_item_length = average_length;
 544              		.loc 1 90 28 view .LVU168
 545 0020 E361     		str	r3, [r4, #28]
  91:lvgl/src/misc/lv_lru.c ****     cache->free_memory = cache_size;
 546              		.loc 1 91 5 is_stmt 1 view .LVU169
  91:lvgl/src/misc/lv_lru.c ****     cache->free_memory = cache_size;
 547              		.loc 1 91 32 is_stmt 0 view .LVU170
 548 0022 C4F81880 		str	r8, [r4, #24]
  92:lvgl/src/misc/lv_lru.c ****     cache->total_memory = cache_size;
 549              		.loc 1 92 5 is_stmt 1 view .LVU171
  92:lvgl/src/misc/lv_lru.c ****     cache->total_memory = cache_size;
 550              		.loc 1 92 24 is_stmt 0 view .LVU172
 551 0026 2761     		str	r7, [r4, #16]
  93:lvgl/src/misc/lv_lru.c ****     cache->seed = lv_rand(1, UINT32_MAX);
 552              		.loc 1 93 5 is_stmt 1 view .LVU173
  93:lvgl/src/misc/lv_lru.c ****     cache->seed = lv_rand(1, UINT32_MAX);
 553              		.loc 1 93 25 is_stmt 0 view .LVU174
 554 0028 6761     		str	r7, [r4, #20]
  94:lvgl/src/misc/lv_lru.c ****     cache->value_free = value_free ? value_free : lv_mem_free;
 555              		.loc 1 94 5 is_stmt 1 view .LVU175
  94:lvgl/src/misc/lv_lru.c ****     cache->value_free = value_free ? value_free : lv_mem_free;
 556              		.loc 1 94 19 is_stmt 0 view .LVU176
 557 002a 4FF0FF31 		mov	r1, #-1
 558 002e 0120     		movs	r0, #1
 559 0030 FFF7FEFF 		bl	lv_rand
 560              	.LVL66:
  94:lvgl/src/misc/lv_lru.c ****     cache->value_free = value_free ? value_free : lv_mem_free;
 561              		.loc 1 94 17 discriminator 1 view .LVU177
 562 0034 2062     		str	r0, [r4, #32]
  95:lvgl/src/misc/lv_lru.c ****     cache->key_free = key_free ? key_free : lv_mem_free;
 563              		.loc 1 95 5 is_stmt 1 view .LVU178
  95:lvgl/src/misc/lv_lru.c ****     cache->key_free = key_free ? key_free : lv_mem_free;
 564              		.loc 1 95 49 is_stmt 0 view .LVU179
 565 0036 86B1     		cbz	r6, .L42
 566              	.LVL67:
 567              	.L37:
  95:lvgl/src/misc/lv_lru.c ****     cache->key_free = key_free ? key_free : lv_mem_free;
 568              		.loc 1 95 23 discriminator 4 view .LVU180
 569 0038 6662     		str	r6, [r4, #36]
  96:lvgl/src/misc/lv_lru.c **** 
 570              		.loc 1 96 5 is_stmt 1 view .LVU181
ARM GAS  C:\usertemp\ccHgR6sE.s 			page 19


  96:lvgl/src/misc/lv_lru.c **** 
 571              		.loc 1 96 43 is_stmt 0 view .LVU182
 572 003a 85B1     		cbz	r5, .L43
 573              	.LVL68:
 574              	.L38:
  96:lvgl/src/misc/lv_lru.c **** 
 575              		.loc 1 96 21 discriminator 4 view .LVU183
 576 003c A562     		str	r5, [r4, #40]
  99:lvgl/src/misc/lv_lru.c ****     lv_memset_00(cache->items, sizeof(lv_lru_item_t *) * cache->hash_table_size);
 577              		.loc 1 99 5 is_stmt 1 view .LVU184
  99:lvgl/src/misc/lv_lru.c ****     lv_memset_00(cache->items, sizeof(lv_lru_item_t *) * cache->hash_table_size);
 578              		.loc 1 99 83 is_stmt 0 view .LVU185
 579 003e E069     		ldr	r0, [r4, #28]
  99:lvgl/src/misc/lv_lru.c ****     lv_memset_00(cache->items, sizeof(lv_lru_item_t *) * cache->hash_table_size);
 580              		.loc 1 99 39 view .LVU186
 581 0040 8000     		lsls	r0, r0, #2
 582 0042 FFF7FEFF 		bl	lv_mem_alloc
 583              	.LVL69:
  99:lvgl/src/misc/lv_lru.c ****     lv_memset_00(cache->items, sizeof(lv_lru_item_t *) * cache->hash_table_size);
 584              		.loc 1 99 18 discriminator 1 view .LVU187
 585 0046 2060     		str	r0, [r4]
 100:lvgl/src/misc/lv_lru.c ****     if(!cache->items) {
 586              		.loc 1 100 5 is_stmt 1 view .LVU188
 100:lvgl/src/misc/lv_lru.c ****     if(!cache->items) {
 587              		.loc 1 100 63 is_stmt 0 view .LVU189
 588 0048 E169     		ldr	r1, [r4, #28]
 100:lvgl/src/misc/lv_lru.c ****     if(!cache->items) {
 589              		.loc 1 100 5 view .LVU190
 590 004a 8900     		lsls	r1, r1, #2
 591 004c FFF7FEFF 		bl	lv_memset_00
 592              	.LVL70:
 101:lvgl/src/misc/lv_lru.c ****         LV_LOG_WARN("LRU Cache unable to create cache hash table");
 593              		.loc 1 101 5 is_stmt 1 view .LVU191
 101:lvgl/src/misc/lv_lru.c ****         LV_LOG_WARN("LRU Cache unable to create cache hash table");
 594              		.loc 1 101 14 is_stmt 0 view .LVU192
 595 0050 2568     		ldr	r5, [r4]
 101:lvgl/src/misc/lv_lru.c ****         LV_LOG_WARN("LRU Cache unable to create cache hash table");
 596              		.loc 1 101 7 view .LVU193
 597 0052 35B1     		cbz	r5, .L44
 598              	.LVL71:
 599              	.L35:
 107:lvgl/src/misc/lv_lru.c **** 
 600              		.loc 1 107 1 view .LVU194
 601 0054 2046     		mov	r0, r4
 602 0056 BDE8F081 		pop	{r4, r5, r6, r7, r8, pc}
 603              	.LVL72:
 604              	.L42:
  95:lvgl/src/misc/lv_lru.c ****     cache->key_free = key_free ? key_free : lv_mem_free;
 605              		.loc 1 95 49 discriminator 2 view .LVU195
 606 005a 044E     		ldr	r6, .L45
 607              	.LVL73:
  95:lvgl/src/misc/lv_lru.c ****     cache->key_free = key_free ? key_free : lv_mem_free;
 608              		.loc 1 95 49 discriminator 2 view .LVU196
 609 005c ECE7     		b	.L37
 610              	.L43:
  96:lvgl/src/misc/lv_lru.c **** 
 611              		.loc 1 96 43 discriminator 2 view .LVU197
ARM GAS  C:\usertemp\ccHgR6sE.s 			page 20


 612 005e 034D     		ldr	r5, .L45
 613              	.LVL74:
  96:lvgl/src/misc/lv_lru.c **** 
 614              		.loc 1 96 43 discriminator 2 view .LVU198
 615 0060 ECE7     		b	.L38
 616              	.L44:
 102:lvgl/src/misc/lv_lru.c ****         lv_mem_free(cache);
 617              		.loc 1 102 9 is_stmt 1 view .LVU199
 102:lvgl/src/misc/lv_lru.c ****         lv_mem_free(cache);
 618              		.loc 1 102 9 view .LVU200
 102:lvgl/src/misc/lv_lru.c ****         lv_mem_free(cache);
 619              		.loc 1 102 9 view .LVU201
 103:lvgl/src/misc/lv_lru.c ****         return NULL;
 620              		.loc 1 103 9 view .LVU202
 621 0062 2046     		mov	r0, r4
 622 0064 FFF7FEFF 		bl	lv_mem_free
 623              	.LVL75:
 104:lvgl/src/misc/lv_lru.c ****     }
 624              		.loc 1 104 9 view .LVU203
 104:lvgl/src/misc/lv_lru.c ****     }
 625              		.loc 1 104 16 is_stmt 0 view .LVU204
 626 0068 2C46     		mov	r4, r5
 627              	.LVL76:
 104:lvgl/src/misc/lv_lru.c ****     }
 628              		.loc 1 104 16 view .LVU205
 629 006a F3E7     		b	.L35
 630              	.L46:
 631              		.align	2
 632              	.L45:
 633 006c 00000000 		.word	lv_mem_free
 634              		.cfi_endproc
 635              	.LFE2:
 637              		.section	.text.lv_lru_del,"ax",%progbits
 638              		.align	1
 639              		.global	lv_lru_del
 640              		.syntax unified
 641              		.thumb
 642              		.thumb_func
 644              	lv_lru_del:
 645              	.LVL77:
 646              	.LFB3:
 111:lvgl/src/misc/lv_lru.c ****     LV_ASSERT_NULL(cache);
 647              		.loc 1 111 1 is_stmt 1 view -0
 648              		.cfi_startproc
 649              		@ args = 0, pretend = 0, frame = 0
 650              		@ frame_needed = 0, uses_anonymous_args = 0
 112:lvgl/src/misc/lv_lru.c **** 
 651              		.loc 1 112 5 view .LVU207
 112:lvgl/src/misc/lv_lru.c **** 
 652              		.loc 1 112 5 view .LVU208
 653 0000 28B1     		cbz	r0, .L49
 111:lvgl/src/misc/lv_lru.c ****     LV_ASSERT_NULL(cache);
 654              		.loc 1 111 1 is_stmt 0 view .LVU209
 655 0002 F8B5     		push	{r3, r4, r5, r6, r7, lr}
 656              	.LCFI7:
 657              		.cfi_def_cfa_offset 24
 658              		.cfi_offset 3, -24
ARM GAS  C:\usertemp\ccHgR6sE.s 			page 21


 659              		.cfi_offset 4, -20
 660              		.cfi_offset 5, -16
 661              		.cfi_offset 6, -12
 662              		.cfi_offset 7, -8
 663              		.cfi_offset 14, -4
 664 0004 0546     		mov	r5, r0
 112:lvgl/src/misc/lv_lru.c **** 
 665              		.loc 1 112 5 is_stmt 1 discriminator 2 view .LVU210
 112:lvgl/src/misc/lv_lru.c **** 
 666              		.loc 1 112 26 discriminator 2 view .LVU211
 115:lvgl/src/misc/lv_lru.c ****     uint32_t i = 0;
 667              		.loc 1 115 5 view .LVU212
 668              	.LVL78:
 116:lvgl/src/misc/lv_lru.c ****     if(cache->items) {
 669              		.loc 1 116 5 view .LVU213
 117:lvgl/src/misc/lv_lru.c ****         for(; i < cache->hash_table_size; i++) {
 670              		.loc 1 117 5 view .LVU214
 117:lvgl/src/misc/lv_lru.c ****         for(; i < cache->hash_table_size; i++) {
 671              		.loc 1 117 13 is_stmt 0 view .LVU215
 672 0006 0368     		ldr	r3, [r0]
 117:lvgl/src/misc/lv_lru.c ****         for(; i < cache->hash_table_size; i++) {
 673              		.loc 1 117 7 view .LVU216
 674 0008 F3B1     		cbz	r3, .L51
 116:lvgl/src/misc/lv_lru.c ****     if(cache->items) {
 675              		.loc 1 116 14 view .LVU217
 676 000a 0027     		movs	r7, #0
 677 000c 12E0     		b	.L50
 678              	.LVL79:
 679              	.L49:
 680              	.LCFI8:
 681              		.cfi_def_cfa_offset 0
 682              		.cfi_restore 3
 683              		.cfi_restore 4
 684              		.cfi_restore 5
 685              		.cfi_restore 6
 686              		.cfi_restore 7
 687              		.cfi_restore 14
 112:lvgl/src/misc/lv_lru.c **** 
 688              		.loc 1 112 5 is_stmt 1 discriminator 1 view .LVU218
 112:lvgl/src/misc/lv_lru.c **** 
 689              		.loc 1 112 5 discriminator 1 view .LVU219
 112:lvgl/src/misc/lv_lru.c **** 
 690              		.loc 1 112 5 discriminator 1 view .LVU220
 112:lvgl/src/misc/lv_lru.c **** 
 691              		.loc 1 112 5 discriminator 1 view .LVU221
 112:lvgl/src/misc/lv_lru.c **** 
 692              		.loc 1 112 5 discriminator 1 view .LVU222
 693 000e FEE7     		b	.L49
 694              	.LVL80:
 695              	.L53:
 696              	.LCFI9:
 697              		.cfi_def_cfa_offset 24
 698              		.cfi_offset 3, -24
 699              		.cfi_offset 4, -20
 700              		.cfi_offset 5, -16
 701              		.cfi_offset 6, -12
 702              		.cfi_offset 7, -8
ARM GAS  C:\usertemp\ccHgR6sE.s 			page 22


 703              		.cfi_offset 14, -4
 121:lvgl/src/misc/lv_lru.c ****                 cache->value_free(item->value);
 704              		.loc 1 121 17 view .LVU223
 121:lvgl/src/misc/lv_lru.c ****                 cache->value_free(item->value);
 705              		.loc 1 121 22 is_stmt 0 view .LVU224
 706 0010 A669     		ldr	r6, [r4, #24]
 707              	.LVL81:
 122:lvgl/src/misc/lv_lru.c ****                 cache->key_free(item->key);
 708              		.loc 1 122 17 is_stmt 1 view .LVU225
 122:lvgl/src/misc/lv_lru.c ****                 cache->key_free(item->key);
 709              		.loc 1 122 22 is_stmt 0 view .LVU226
 710 0012 6B6A     		ldr	r3, [r5, #36]
 122:lvgl/src/misc/lv_lru.c ****                 cache->key_free(item->key);
 711              		.loc 1 122 17 view .LVU227
 712 0014 2068     		ldr	r0, [r4]
 713 0016 9847     		blx	r3
 714              	.LVL82:
 123:lvgl/src/misc/lv_lru.c ****                 cache->free_memory += item->value_length;
 715              		.loc 1 123 17 is_stmt 1 view .LVU228
 123:lvgl/src/misc/lv_lru.c ****                 cache->free_memory += item->value_length;
 716              		.loc 1 123 22 is_stmt 0 view .LVU229
 717 0018 AB6A     		ldr	r3, [r5, #40]
 123:lvgl/src/misc/lv_lru.c ****                 cache->free_memory += item->value_length;
 718              		.loc 1 123 17 view .LVU230
 719 001a 6068     		ldr	r0, [r4, #4]
 720 001c 9847     		blx	r3
 721              	.LVL83:
 124:lvgl/src/misc/lv_lru.c ****                 lv_mem_free(item);
 722              		.loc 1 124 17 is_stmt 1 view .LVU231
 124:lvgl/src/misc/lv_lru.c ****                 lv_mem_free(item);
 723              		.loc 1 124 22 is_stmt 0 view .LVU232
 724 001e 2B69     		ldr	r3, [r5, #16]
 124:lvgl/src/misc/lv_lru.c ****                 lv_mem_free(item);
 725              		.loc 1 124 43 view .LVU233
 726 0020 A268     		ldr	r2, [r4, #8]
 124:lvgl/src/misc/lv_lru.c ****                 lv_mem_free(item);
 727              		.loc 1 124 36 view .LVU234
 728 0022 1344     		add	r3, r3, r2
 729 0024 2B61     		str	r3, [r5, #16]
 125:lvgl/src/misc/lv_lru.c ****                 item = next;
 730              		.loc 1 125 17 is_stmt 1 view .LVU235
 731 0026 2046     		mov	r0, r4
 732 0028 FFF7FEFF 		bl	lv_mem_free
 733              	.LVL84:
 126:lvgl/src/misc/lv_lru.c ****             }
 734              		.loc 1 126 17 view .LVU236
 126:lvgl/src/misc/lv_lru.c ****             }
 735              		.loc 1 126 22 is_stmt 0 view .LVU237
 736 002c 3446     		mov	r4, r6
 737              	.LVL85:
 738              	.L52:
 120:lvgl/src/misc/lv_lru.c ****                 next = (lv_lru_item_t *) item->next;
 739              		.loc 1 120 19 is_stmt 1 view .LVU238
 740 002e 002C     		cmp	r4, #0
 741 0030 EED1     		bne	.L53
 118:lvgl/src/misc/lv_lru.c ****             item = cache->items[i];
 742              		.loc 1 118 44 view .LVU239
ARM GAS  C:\usertemp\ccHgR6sE.s 			page 23


 743 0032 0137     		adds	r7, r7, #1
 744              	.LVL86:
 745              	.L50:
 118:lvgl/src/misc/lv_lru.c ****             item = cache->items[i];
 746              		.loc 1 118 17 discriminator 1 view .LVU240
 118:lvgl/src/misc/lv_lru.c ****             item = cache->items[i];
 747              		.loc 1 118 24 is_stmt 0 discriminator 1 view .LVU241
 748 0034 EB69     		ldr	r3, [r5, #28]
 118:lvgl/src/misc/lv_lru.c ****             item = cache->items[i];
 749              		.loc 1 118 17 discriminator 1 view .LVU242
 750 0036 BB42     		cmp	r3, r7
 751 0038 03D9     		bls	.L61
 119:lvgl/src/misc/lv_lru.c ****             while(item) {
 752              		.loc 1 119 13 is_stmt 1 view .LVU243
 119:lvgl/src/misc/lv_lru.c ****             while(item) {
 753              		.loc 1 119 25 is_stmt 0 view .LVU244
 754 003a 2B68     		ldr	r3, [r5]
 119:lvgl/src/misc/lv_lru.c ****             while(item) {
 755              		.loc 1 119 18 view .LVU245
 756 003c 53F82740 		ldr	r4, [r3, r7, lsl #2]
 757              	.LVL87:
 120:lvgl/src/misc/lv_lru.c ****                 next = (lv_lru_item_t *) item->next;
 758              		.loc 1 120 13 is_stmt 1 view .LVU246
 120:lvgl/src/misc/lv_lru.c ****                 next = (lv_lru_item_t *) item->next;
 759              		.loc 1 120 18 is_stmt 0 view .LVU247
 760 0040 F5E7     		b	.L52
 761              	.LVL88:
 762              	.L61:
 129:lvgl/src/misc/lv_lru.c ****     }
 763              		.loc 1 129 9 is_stmt 1 view .LVU248
 764 0042 2868     		ldr	r0, [r5]
 765 0044 FFF7FEFF 		bl	lv_mem_free
 766              	.LVL89:
 767              	.L51:
 132:lvgl/src/misc/lv_lru.c ****         item = cache->free_items;
 768              		.loc 1 132 5 view .LVU249
 132:lvgl/src/misc/lv_lru.c ****         item = cache->free_items;
 769              		.loc 1 132 13 is_stmt 0 view .LVU250
 770 0048 E86A     		ldr	r0, [r5, #44]
 132:lvgl/src/misc/lv_lru.c ****         item = cache->free_items;
 771              		.loc 1 132 7 view .LVU251
 772 004a 20B9     		cbnz	r0, .L55
 773 004c 05E0     		b	.L56
 774              	.LVL90:
 775              	.L57:
 135:lvgl/src/misc/lv_lru.c ****             lv_mem_free(item);
 776              		.loc 1 135 13 is_stmt 1 view .LVU252
 135:lvgl/src/misc/lv_lru.c ****             lv_mem_free(item);
 777              		.loc 1 135 18 is_stmt 0 view .LVU253
 778 004e 8469     		ldr	r4, [r0, #24]
 779              	.LVL91:
 136:lvgl/src/misc/lv_lru.c ****             item = next;
 780              		.loc 1 136 13 is_stmt 1 view .LVU254
 781 0050 FFF7FEFF 		bl	lv_mem_free
 782              	.LVL92:
 137:lvgl/src/misc/lv_lru.c ****         }
 783              		.loc 1 137 13 view .LVU255
ARM GAS  C:\usertemp\ccHgR6sE.s 			page 24


 137:lvgl/src/misc/lv_lru.c ****         }
 784              		.loc 1 137 18 is_stmt 0 view .LVU256
 785 0054 2046     		mov	r0, r4
 786              	.LVL93:
 787              	.L55:
 134:lvgl/src/misc/lv_lru.c ****             next = (lv_lru_item_t *) item->next;
 788              		.loc 1 134 15 is_stmt 1 view .LVU257
 789 0056 0028     		cmp	r0, #0
 790 0058 F9D1     		bne	.L57
 791              	.LVL94:
 792              	.L56:
 142:lvgl/src/misc/lv_lru.c **** }
 793              		.loc 1 142 5 view .LVU258
 794 005a 2846     		mov	r0, r5
 795 005c FFF7FEFF 		bl	lv_mem_free
 796              	.LVL95:
 143:lvgl/src/misc/lv_lru.c **** 
 797              		.loc 1 143 1 is_stmt 0 view .LVU259
 798 0060 F8BD     		pop	{r3, r4, r5, r6, r7, pc}
 143:lvgl/src/misc/lv_lru.c **** 
 799              		.loc 1 143 1 view .LVU260
 800              		.cfi_endproc
 801              	.LFE3:
 803              		.section	.text.lv_lru_set,"ax",%progbits
 804              		.align	1
 805              		.global	lv_lru_set
 806              		.syntax unified
 807              		.thumb
 808              		.thumb_func
 810              	lv_lru_set:
 811              	.LVL96:
 812              	.LFB4:
 147:lvgl/src/misc/lv_lru.c ****     test_for_missing_cache();
 813              		.loc 1 147 1 is_stmt 1 view -0
 814              		.cfi_startproc
 815              		@ args = 4, pretend = 0, frame = 0
 816              		@ frame_needed = 0, uses_anonymous_args = 0
 147:lvgl/src/misc/lv_lru.c ****     test_for_missing_cache();
 817              		.loc 1 147 1 is_stmt 0 view .LVU262
 818 0000 2DE9F84F 		push	{r3, r4, r5, r6, r7, r8, r9, r10, fp, lr}
 819              	.LCFI10:
 820              		.cfi_def_cfa_offset 40
 821              		.cfi_offset 3, -40
 822              		.cfi_offset 4, -36
 823              		.cfi_offset 5, -32
 824              		.cfi_offset 6, -28
 825              		.cfi_offset 7, -24
 826              		.cfi_offset 8, -20
 827              		.cfi_offset 9, -16
 828              		.cfi_offset 10, -12
 829              		.cfi_offset 11, -8
 830              		.cfi_offset 14, -4
 831 0004 DDF828A0 		ldr	r10, [sp, #40]
 148:lvgl/src/misc/lv_lru.c ****     test_for_missing_key();
 832              		.loc 1 148 5 is_stmt 1 view .LVU263
 833 0008 0028     		cmp	r0, #0
 834 000a 62D0     		beq	.L73
ARM GAS  C:\usertemp\ccHgR6sE.s 			page 25


 835 000c 0D46     		mov	r5, r1
 836 000e 1746     		mov	r7, r2
 837 0010 9946     		mov	r9, r3
 838 0012 0646     		mov	r6, r0
 148:lvgl/src/misc/lv_lru.c ****     test_for_missing_key();
 839              		.loc 1 148 29 discriminator 2 view .LVU264
 149:lvgl/src/misc/lv_lru.c ****     test_for_missing_value();
 840              		.loc 1 149 5 view .LVU265
 841 0014 0029     		cmp	r1, #0
 842 0016 5ED0     		beq	.L74
 149:lvgl/src/misc/lv_lru.c ****     test_for_missing_value();
 843              		.loc 1 149 27 discriminator 2 view .LVU266
 150:lvgl/src/misc/lv_lru.c ****     test_for_value_too_large();
 844              		.loc 1 150 5 view .LVU267
 845 0018 BAF1000F 		cmp	r10, #0
 846 001c 18BF     		it	ne
 847 001e 002B     		cmpne	r3, #0
 848 0020 5BD0     		beq	.L75
 150:lvgl/src/misc/lv_lru.c ****     test_for_value_too_large();
 849              		.loc 1 150 29 discriminator 2 view .LVU268
 151:lvgl/src/misc/lv_lru.c **** 
 850              		.loc 1 151 5 view .LVU269
 851 0022 4369     		ldr	r3, [r0, #20]
 852              	.LVL97:
 151:lvgl/src/misc/lv_lru.c **** 
 853              		.loc 1 151 5 is_stmt 0 view .LVU270
 854 0024 5345     		cmp	r3, r10
 855 0026 5AD3     		bcc	.L76
 151:lvgl/src/misc/lv_lru.c **** 
 856              		.loc 1 151 31 is_stmt 1 discriminator 2 view .LVU271
 154:lvgl/src/misc/lv_lru.c ****     size_t required = 0;
 857              		.loc 1 154 5 view .LVU272
 154:lvgl/src/misc/lv_lru.c ****     size_t required = 0;
 858              		.loc 1 154 27 is_stmt 0 view .LVU273
 859 0028 FFF7FEFF 		bl	lv_lru_hash
 860              	.LVL98:
 154:lvgl/src/misc/lv_lru.c ****     size_t required = 0;
 861              		.loc 1 154 27 view .LVU274
 862 002c 8346     		mov	fp, r0
 863              	.LVL99:
 155:lvgl/src/misc/lv_lru.c ****     lv_lru_item_t * item = NULL, *prev = NULL;
 864              		.loc 1 155 5 is_stmt 1 view .LVU275
 156:lvgl/src/misc/lv_lru.c ****     item = cache->items[hash_index];
 865              		.loc 1 156 5 view .LVU276
 157:lvgl/src/misc/lv_lru.c **** 
 866              		.loc 1 157 5 view .LVU277
 157:lvgl/src/misc/lv_lru.c **** 
 867              		.loc 1 157 17 is_stmt 0 view .LVU278
 868 002e 3368     		ldr	r3, [r6]
 157:lvgl/src/misc/lv_lru.c **** 
 869              		.loc 1 157 10 view .LVU279
 870 0030 53F82040 		ldr	r4, [r3, r0, lsl #2]
 871              	.LVL100:
 159:lvgl/src/misc/lv_lru.c ****         prev = item;
 872              		.loc 1 159 5 is_stmt 1 view .LVU280
 156:lvgl/src/misc/lv_lru.c ****     item = cache->items[hash_index];
 873              		.loc 1 156 35 is_stmt 0 view .LVU281
ARM GAS  C:\usertemp\ccHgR6sE.s 			page 26


 874 0034 4FF00008 		mov	r8, #0
 159:lvgl/src/misc/lv_lru.c ****         prev = item;
 875              		.loc 1 159 10 view .LVU282
 876 0038 01E0     		b	.L64
 877              	.LVL101:
 878              	.L66:
 160:lvgl/src/misc/lv_lru.c ****         item = (lv_lru_item_t *) item->next;
 879              		.loc 1 160 9 is_stmt 1 view .LVU283
 161:lvgl/src/misc/lv_lru.c ****     }
 880              		.loc 1 161 9 view .LVU284
 160:lvgl/src/misc/lv_lru.c ****         item = (lv_lru_item_t *) item->next;
 881              		.loc 1 160 14 is_stmt 0 view .LVU285
 882 003a A046     		mov	r8, r4
 161:lvgl/src/misc/lv_lru.c ****     }
 883              		.loc 1 161 14 view .LVU286
 884 003c A469     		ldr	r4, [r4, #24]
 885              	.LVL102:
 886              	.L64:
 159:lvgl/src/misc/lv_lru.c ****         prev = item;
 887              		.loc 1 159 16 is_stmt 1 view .LVU287
 888 003e 34B1     		cbz	r4, .L65
 159:lvgl/src/misc/lv_lru.c ****         prev = item;
 889              		.loc 1 159 19 is_stmt 0 discriminator 1 view .LVU288
 890 0040 3A46     		mov	r2, r7
 891 0042 2946     		mov	r1, r5
 892 0044 2046     		mov	r0, r4
 893 0046 FFF7FEFF 		bl	lv_lru_cmp_keys
 894              	.LVL103:
 159:lvgl/src/misc/lv_lru.c ****         prev = item;
 895              		.loc 1 159 16 discriminator 1 view .LVU289
 896 004a 0028     		cmp	r0, #0
 897 004c F5D1     		bne	.L66
 898              	.L65:
 164:lvgl/src/misc/lv_lru.c ****         // update the value and value_lengths
 899              		.loc 1 164 5 is_stmt 1 view .LVU290
 164:lvgl/src/misc/lv_lru.c ****         // update the value and value_lengths
 900              		.loc 1 164 7 is_stmt 0 view .LVU291
 901 004e E4B1     		cbz	r4, .L67
 166:lvgl/src/misc/lv_lru.c ****         cache->value_free(item->value);
 902              		.loc 1 166 9 is_stmt 1 view .LVU292
 166:lvgl/src/misc/lv_lru.c ****         cache->value_free(item->value);
 903              		.loc 1 166 48 is_stmt 0 view .LVU293
 904 0050 A568     		ldr	r5, [r4, #8]
 905              	.LVL104:
 166:lvgl/src/misc/lv_lru.c ****         cache->value_free(item->value);
 906              		.loc 1 166 18 view .LVU294
 907 0052 AAEB0505 		sub	r5, r10, r5
 908              	.LVL105:
 167:lvgl/src/misc/lv_lru.c ****         item->value = value;
 909              		.loc 1 167 9 is_stmt 1 view .LVU295
 167:lvgl/src/misc/lv_lru.c ****         item->value = value;
 910              		.loc 1 167 14 is_stmt 0 view .LVU296
 911 0056 736A     		ldr	r3, [r6, #36]
 167:lvgl/src/misc/lv_lru.c ****         item->value = value;
 912              		.loc 1 167 9 view .LVU297
 913 0058 2068     		ldr	r0, [r4]
 914 005a 9847     		blx	r3
ARM GAS  C:\usertemp\ccHgR6sE.s 			page 27


 915              	.LVL106:
 168:lvgl/src/misc/lv_lru.c ****         item->value_length = value_length;
 916              		.loc 1 168 9 is_stmt 1 view .LVU298
 168:lvgl/src/misc/lv_lru.c ****         item->value_length = value_length;
 917              		.loc 1 168 21 is_stmt 0 view .LVU299
 918 005c C4F80090 		str	r9, [r4]
 169:lvgl/src/misc/lv_lru.c **** 
 919              		.loc 1 169 9 is_stmt 1 view .LVU300
 169:lvgl/src/misc/lv_lru.c **** 
 920              		.loc 1 169 28 is_stmt 0 view .LVU301
 921 0060 C4F808A0 		str	r10, [r4, #8]
 922              	.L68:
 187:lvgl/src/misc/lv_lru.c **** 
 923              		.loc 1 187 5 is_stmt 1 view .LVU302
 187:lvgl/src/misc/lv_lru.c **** 
 924              		.loc 1 187 33 is_stmt 0 view .LVU303
 925 0064 B368     		ldr	r3, [r6, #8]
 926 0066 F268     		ldr	r2, [r6, #12]
 187:lvgl/src/misc/lv_lru.c **** 
 927              		.loc 1 187 26 view .LVU304
 928 0068 0133     		adds	r3, r3, #1
 929 006a 42F10002 		adc	r2, r2, #0
 187:lvgl/src/misc/lv_lru.c **** 
 930              		.loc 1 187 24 view .LVU305
 931 006e B360     		str	r3, [r6, #8]
 932 0070 F260     		str	r2, [r6, #12]
 933 0072 2361     		str	r3, [r4, #16]
 934 0074 6261     		str	r2, [r4, #20]
 190:lvgl/src/misc/lv_lru.c ****         while(cache->free_memory < (size_t) required)
 935              		.loc 1 190 5 is_stmt 1 view .LVU306
 190:lvgl/src/misc/lv_lru.c ****         while(cache->free_memory < (size_t) required)
 936              		.loc 1 190 7 is_stmt 0 view .LVU307
 937 0076 15B1     		cbz	r5, .L70
 190:lvgl/src/misc/lv_lru.c ****         while(cache->free_memory < (size_t) required)
 938              		.loc 1 190 49 discriminator 1 view .LVU308
 939 0078 3369     		ldr	r3, [r6, #16]
 190:lvgl/src/misc/lv_lru.c ****         while(cache->free_memory < (size_t) required)
 940              		.loc 1 190 21 discriminator 1 view .LVU309
 941 007a AB42     		cmp	r3, r5
 942 007c 25D3     		bcc	.L71
 943              	.L70:
 194:lvgl/src/misc/lv_lru.c ****     return LV_LRU_OK;
 944              		.loc 1 194 5 is_stmt 1 view .LVU310
 194:lvgl/src/misc/lv_lru.c ****     return LV_LRU_OK;
 945              		.loc 1 194 10 is_stmt 0 view .LVU311
 946 007e 3369     		ldr	r3, [r6, #16]
 194:lvgl/src/misc/lv_lru.c ****     return LV_LRU_OK;
 947              		.loc 1 194 24 view .LVU312
 948 0080 5B1B     		subs	r3, r3, r5
 949 0082 3361     		str	r3, [r6, #16]
 195:lvgl/src/misc/lv_lru.c **** }
 950              		.loc 1 195 5 is_stmt 1 view .LVU313
 195:lvgl/src/misc/lv_lru.c **** }
 951              		.loc 1 195 12 is_stmt 0 view .LVU314
 952 0084 0020     		movs	r0, #0
 953              	.LVL107:
 954              	.L63:
ARM GAS  C:\usertemp\ccHgR6sE.s 			page 28


 196:lvgl/src/misc/lv_lru.c **** 
 955              		.loc 1 196 1 view .LVU315
 956 0086 BDE8F88F 		pop	{r3, r4, r5, r6, r7, r8, r9, r10, fp, pc}
 957              	.LVL108:
 958              	.L67:
 174:lvgl/src/misc/lv_lru.c ****         item->value = value;
 959              		.loc 1 174 9 is_stmt 1 view .LVU316
 174:lvgl/src/misc/lv_lru.c ****         item->value = value;
 960              		.loc 1 174 16 is_stmt 0 view .LVU317
 961 008a 3046     		mov	r0, r6
 962 008c FFF7FEFF 		bl	lv_lru_pop_or_create_item
 963              	.LVL109:
 964 0090 0446     		mov	r4, r0
 965              	.LVL110:
 175:lvgl/src/misc/lv_lru.c ****         item->key = lv_mem_alloc(key_length);
 966              		.loc 1 175 9 is_stmt 1 view .LVU318
 175:lvgl/src/misc/lv_lru.c ****         item->key = lv_mem_alloc(key_length);
 967              		.loc 1 175 21 is_stmt 0 view .LVU319
 968 0092 C0F80090 		str	r9, [r0]
 176:lvgl/src/misc/lv_lru.c ****         memcpy(item->key, key, key_length);
 969              		.loc 1 176 9 is_stmt 1 view .LVU320
 176:lvgl/src/misc/lv_lru.c ****         memcpy(item->key, key, key_length);
 970              		.loc 1 176 21 is_stmt 0 view .LVU321
 971 0096 3846     		mov	r0, r7
 972              	.LVL111:
 176:lvgl/src/misc/lv_lru.c ****         memcpy(item->key, key, key_length);
 973              		.loc 1 176 21 view .LVU322
 974 0098 FFF7FEFF 		bl	lv_mem_alloc
 975              	.LVL112:
 176:lvgl/src/misc/lv_lru.c ****         memcpy(item->key, key, key_length);
 976              		.loc 1 176 19 discriminator 1 view .LVU323
 977 009c 6060     		str	r0, [r4, #4]
 177:lvgl/src/misc/lv_lru.c ****         item->value_length = value_length;
 978              		.loc 1 177 9 is_stmt 1 view .LVU324
 979 009e 3A46     		mov	r2, r7
 980 00a0 2946     		mov	r1, r5
 981 00a2 FFF7FEFF 		bl	memcpy
 982              	.LVL113:
 178:lvgl/src/misc/lv_lru.c ****         item->key_length = key_length;
 983              		.loc 1 178 9 view .LVU325
 178:lvgl/src/misc/lv_lru.c ****         item->key_length = key_length;
 984              		.loc 1 178 28 is_stmt 0 view .LVU326
 985 00a6 C4F808A0 		str	r10, [r4, #8]
 179:lvgl/src/misc/lv_lru.c ****         required = (size_t) value_length;
 986              		.loc 1 179 9 is_stmt 1 view .LVU327
 179:lvgl/src/misc/lv_lru.c ****         required = (size_t) value_length;
 987              		.loc 1 179 26 is_stmt 0 view .LVU328
 988 00aa E760     		str	r7, [r4, #12]
 180:lvgl/src/misc/lv_lru.c **** 
 989              		.loc 1 180 9 is_stmt 1 view .LVU329
 990              	.LVL114:
 182:lvgl/src/misc/lv_lru.c ****             prev->next = item;
 991              		.loc 1 182 9 view .LVU330
 182:lvgl/src/misc/lv_lru.c ****             prev->next = item;
 992              		.loc 1 182 11 is_stmt 0 view .LVU331
 993 00ac B8F1000F 		cmp	r8, #0
 994 00b0 03D0     		beq	.L69
ARM GAS  C:\usertemp\ccHgR6sE.s 			page 29


 995              	.LVL115:
 183:lvgl/src/misc/lv_lru.c ****         else
 996              		.loc 1 183 13 is_stmt 1 view .LVU332
 183:lvgl/src/misc/lv_lru.c ****         else
 997              		.loc 1 183 24 is_stmt 0 view .LVU333
 998 00b2 C8F81840 		str	r4, [r8, #24]
 180:lvgl/src/misc/lv_lru.c **** 
 999              		.loc 1 180 18 view .LVU334
 1000 00b6 5546     		mov	r5, r10
 1001              	.LVL116:
 180:lvgl/src/misc/lv_lru.c **** 
 1002              		.loc 1 180 18 view .LVU335
 1003 00b8 D4E7     		b	.L68
 1004              	.LVL117:
 1005              	.L69:
 185:lvgl/src/misc/lv_lru.c ****     }
 1006              		.loc 1 185 13 is_stmt 1 view .LVU336
 185:lvgl/src/misc/lv_lru.c ****     }
 1007              		.loc 1 185 18 is_stmt 0 view .LVU337
 1008 00ba 3368     		ldr	r3, [r6]
 185:lvgl/src/misc/lv_lru.c ****     }
 1009              		.loc 1 185 38 view .LVU338
 1010 00bc 43F82B40 		str	r4, [r3, fp, lsl #2]
 180:lvgl/src/misc/lv_lru.c **** 
 1011              		.loc 1 180 18 view .LVU339
 1012 00c0 5546     		mov	r5, r10
 1013              	.LVL118:
 180:lvgl/src/misc/lv_lru.c **** 
 1014              		.loc 1 180 18 view .LVU340
 1015 00c2 CFE7     		b	.L68
 1016              	.LVL119:
 1017              	.L72:
 192:lvgl/src/misc/lv_lru.c ****     }
 1018              		.loc 1 192 13 is_stmt 1 view .LVU341
 1019 00c4 3046     		mov	r0, r6
 1020 00c6 FFF7FEFF 		bl	lv_lru_remove_lru_item
 1021              	.LVL120:
 1022              	.L71:
 191:lvgl/src/misc/lv_lru.c ****             lv_lru_remove_lru_item(cache);
 1023              		.loc 1 191 34 view .LVU342
 191:lvgl/src/misc/lv_lru.c ****             lv_lru_remove_lru_item(cache);
 1024              		.loc 1 191 20 is_stmt 0 view .LVU343
 1025 00ca 3369     		ldr	r3, [r6, #16]
 191:lvgl/src/misc/lv_lru.c ****             lv_lru_remove_lru_item(cache);
 1026              		.loc 1 191 34 view .LVU344
 1027 00cc AB42     		cmp	r3, r5
 1028 00ce F9D3     		bcc	.L72
 1029 00d0 D5E7     		b	.L70
 1030              	.LVL121:
 1031              	.L73:
 148:lvgl/src/misc/lv_lru.c ****     test_for_missing_key();
 1032              		.loc 1 148 5 discriminator 1 view .LVU345
 1033 00d2 0120     		movs	r0, #1
 1034              	.LVL122:
 148:lvgl/src/misc/lv_lru.c ****     test_for_missing_key();
 1035              		.loc 1 148 5 discriminator 1 view .LVU346
 1036 00d4 D7E7     		b	.L63
ARM GAS  C:\usertemp\ccHgR6sE.s 			page 30


 1037              	.LVL123:
 1038              	.L74:
 149:lvgl/src/misc/lv_lru.c ****     test_for_missing_value();
 1039              		.loc 1 149 5 discriminator 1 view .LVU347
 1040 00d6 0220     		movs	r0, #2
 1041              	.LVL124:
 149:lvgl/src/misc/lv_lru.c ****     test_for_missing_value();
 1042              		.loc 1 149 5 discriminator 1 view .LVU348
 1043 00d8 D5E7     		b	.L63
 1044              	.LVL125:
 1045              	.L75:
 150:lvgl/src/misc/lv_lru.c ****     test_for_value_too_large();
 1046              		.loc 1 150 5 discriminator 1 view .LVU349
 1047 00da 0320     		movs	r0, #3
 1048              	.LVL126:
 150:lvgl/src/misc/lv_lru.c ****     test_for_value_too_large();
 1049              		.loc 1 150 5 discriminator 1 view .LVU350
 1050 00dc D3E7     		b	.L63
 1051              	.LVL127:
 1052              	.L76:
 151:lvgl/src/misc/lv_lru.c **** 
 1053              		.loc 1 151 5 discriminator 1 view .LVU351
 1054 00de 0520     		movs	r0, #5
 1055              	.LVL128:
 151:lvgl/src/misc/lv_lru.c **** 
 1056              		.loc 1 151 5 discriminator 1 view .LVU352
 1057 00e0 D1E7     		b	.L63
 1058              		.cfi_endproc
 1059              	.LFE4:
 1061              		.section	.text.lv_lru_get,"ax",%progbits
 1062              		.align	1
 1063              		.global	lv_lru_get
 1064              		.syntax unified
 1065              		.thumb
 1066              		.thumb_func
 1068              	lv_lru_get:
 1069              	.LVL129:
 1070              	.LFB5:
 200:lvgl/src/misc/lv_lru.c ****     test_for_missing_cache();
 1071              		.loc 1 200 1 is_stmt 1 view -0
 1072              		.cfi_startproc
 1073              		@ args = 0, pretend = 0, frame = 0
 1074              		@ frame_needed = 0, uses_anonymous_args = 0
 201:lvgl/src/misc/lv_lru.c ****     test_for_missing_key();
 1075              		.loc 1 201 5 view .LVU354
 1076 0000 48B3     		cbz	r0, .L84
 200:lvgl/src/misc/lv_lru.c ****     test_for_missing_cache();
 1077              		.loc 1 200 1 is_stmt 0 view .LVU355
 1078 0002 2DE9F041 		push	{r4, r5, r6, r7, r8, lr}
 1079              	.LCFI11:
 1080              		.cfi_def_cfa_offset 24
 1081              		.cfi_offset 4, -24
 1082              		.cfi_offset 5, -20
 1083              		.cfi_offset 6, -16
 1084              		.cfi_offset 7, -12
 1085              		.cfi_offset 8, -8
 1086              		.cfi_offset 14, -4
ARM GAS  C:\usertemp\ccHgR6sE.s 			page 31


 1087 0006 0D46     		mov	r5, r1
 1088 0008 1646     		mov	r6, r2
 1089 000a 9846     		mov	r8, r3
 1090 000c 0746     		mov	r7, r0
 201:lvgl/src/misc/lv_lru.c ****     test_for_missing_key();
 1091              		.loc 1 201 29 is_stmt 1 discriminator 2 view .LVU356
 202:lvgl/src/misc/lv_lru.c **** 
 1092              		.loc 1 202 5 view .LVU357
 1093 000e 21B3     		cbz	r1, .L85
 202:lvgl/src/misc/lv_lru.c **** 
 1094              		.loc 1 202 27 discriminator 2 view .LVU358
 205:lvgl/src/misc/lv_lru.c ****     lv_lru_item_t * item = cache->items[hash_index];
 1095              		.loc 1 205 5 view .LVU359
 205:lvgl/src/misc/lv_lru.c ****     lv_lru_item_t * item = cache->items[hash_index];
 1096              		.loc 1 205 27 is_stmt 0 view .LVU360
 1097 0010 FFF7FEFF 		bl	lv_lru_hash
 1098              	.LVL130:
 206:lvgl/src/misc/lv_lru.c **** 
 1099              		.loc 1 206 5 is_stmt 1 view .LVU361
 206:lvgl/src/misc/lv_lru.c **** 
 1100              		.loc 1 206 33 is_stmt 0 view .LVU362
 1101 0014 3B68     		ldr	r3, [r7]
 206:lvgl/src/misc/lv_lru.c **** 
 1102              		.loc 1 206 21 view .LVU363
 1103 0016 53F82040 		ldr	r4, [r3, r0, lsl #2]
 1104              	.LVL131:
 208:lvgl/src/misc/lv_lru.c ****         item = (lv_lru_item_t *) item->next;
 1105              		.loc 1 208 5 is_stmt 1 view .LVU364
 208:lvgl/src/misc/lv_lru.c ****         item = (lv_lru_item_t *) item->next;
 1106              		.loc 1 208 10 is_stmt 0 view .LVU365
 1107 001a 00E0     		b	.L80
 1108              	.LVL132:
 1109              	.L82:
 209:lvgl/src/misc/lv_lru.c **** 
 1110              		.loc 1 209 9 is_stmt 1 view .LVU366
 209:lvgl/src/misc/lv_lru.c **** 
 1111              		.loc 1 209 14 is_stmt 0 view .LVU367
 1112 001c A469     		ldr	r4, [r4, #24]
 1113              	.LVL133:
 1114              	.L80:
 208:lvgl/src/misc/lv_lru.c ****         item = (lv_lru_item_t *) item->next;
 1115              		.loc 1 208 16 is_stmt 1 view .LVU368
 1116 001e 34B1     		cbz	r4, .L81
 208:lvgl/src/misc/lv_lru.c ****         item = (lv_lru_item_t *) item->next;
 1117              		.loc 1 208 19 is_stmt 0 discriminator 1 view .LVU369
 1118 0020 3246     		mov	r2, r6
 1119 0022 2946     		mov	r1, r5
 1120 0024 2046     		mov	r0, r4
 1121 0026 FFF7FEFF 		bl	lv_lru_cmp_keys
 1122              	.LVL134:
 208:lvgl/src/misc/lv_lru.c ****         item = (lv_lru_item_t *) item->next;
 1123              		.loc 1 208 16 discriminator 1 view .LVU370
 1124 002a 0028     		cmp	r0, #0
 1125 002c F6D1     		bne	.L82
 1126              	.L81:
 211:lvgl/src/misc/lv_lru.c ****         *value = item->value;
 1127              		.loc 1 211 5 is_stmt 1 view .LVU371
ARM GAS  C:\usertemp\ccHgR6sE.s 			page 32


 211:lvgl/src/misc/lv_lru.c ****         *value = item->value;
 1128              		.loc 1 211 7 is_stmt 0 view .LVU372
 1129 002e 74B1     		cbz	r4, .L83
 212:lvgl/src/misc/lv_lru.c ****         item->access_count = ++cache->access_count;
 1130              		.loc 1 212 9 is_stmt 1 view .LVU373
 212:lvgl/src/misc/lv_lru.c ****         item->access_count = ++cache->access_count;
 1131              		.loc 1 212 22 is_stmt 0 view .LVU374
 1132 0030 2368     		ldr	r3, [r4]
 212:lvgl/src/misc/lv_lru.c ****         item->access_count = ++cache->access_count;
 1133              		.loc 1 212 16 view .LVU375
 1134 0032 C8F80030 		str	r3, [r8]
 213:lvgl/src/misc/lv_lru.c ****     }
 1135              		.loc 1 213 9 is_stmt 1 view .LVU376
 213:lvgl/src/misc/lv_lru.c ****     }
 1136              		.loc 1 213 37 is_stmt 0 view .LVU377
 1137 0036 BB68     		ldr	r3, [r7, #8]
 1138 0038 FA68     		ldr	r2, [r7, #12]
 213:lvgl/src/misc/lv_lru.c ****     }
 1139              		.loc 1 213 30 view .LVU378
 1140 003a 0133     		adds	r3, r3, #1
 1141 003c 42F10002 		adc	r2, r2, #0
 213:lvgl/src/misc/lv_lru.c ****     }
 1142              		.loc 1 213 28 view .LVU379
 1143 0040 BB60     		str	r3, [r7, #8]
 1144 0042 FA60     		str	r2, [r7, #12]
 1145 0044 2361     		str	r3, [r4, #16]
 1146 0046 6261     		str	r2, [r4, #20]
 219:lvgl/src/misc/lv_lru.c **** }
 1147              		.loc 1 219 12 view .LVU380
 1148 0048 0020     		movs	r0, #0
 1149              	.LVL135:
 1150              	.L79:
 220:lvgl/src/misc/lv_lru.c **** 
 1151              		.loc 1 220 1 view .LVU381
 1152 004a BDE8F081 		pop	{r4, r5, r6, r7, r8, pc}
 1153              	.LVL136:
 1154              	.L83:
 216:lvgl/src/misc/lv_lru.c ****     }
 1155              		.loc 1 216 9 is_stmt 1 view .LVU382
 216:lvgl/src/misc/lv_lru.c ****     }
 1156              		.loc 1 216 16 is_stmt 0 view .LVU383
 1157 004e 0020     		movs	r0, #0
 1158 0050 C8F80000 		str	r0, [r8]
 1159 0054 F9E7     		b	.L79
 1160              	.LVL137:
 1161              	.L84:
 1162              	.LCFI12:
 1163              		.cfi_def_cfa_offset 0
 1164              		.cfi_restore 4
 1165              		.cfi_restore 5
 1166              		.cfi_restore 6
 1167              		.cfi_restore 7
 1168              		.cfi_restore 8
 1169              		.cfi_restore 14
 201:lvgl/src/misc/lv_lru.c ****     test_for_missing_key();
 1170              		.loc 1 201 5 discriminator 1 view .LVU384
 1171 0056 0120     		movs	r0, #1
ARM GAS  C:\usertemp\ccHgR6sE.s 			page 33


 1172              	.LVL138:
 220:lvgl/src/misc/lv_lru.c **** 
 1173              		.loc 1 220 1 view .LVU385
 1174 0058 7047     		bx	lr
 1175              	.LVL139:
 1176              	.L85:
 1177              	.LCFI13:
 1178              		.cfi_def_cfa_offset 24
 1179              		.cfi_offset 4, -24
 1180              		.cfi_offset 5, -20
 1181              		.cfi_offset 6, -16
 1182              		.cfi_offset 7, -12
 1183              		.cfi_offset 8, -8
 1184              		.cfi_offset 14, -4
 202:lvgl/src/misc/lv_lru.c **** 
 1185              		.loc 1 202 5 discriminator 1 view .LVU386
 1186 005a 0220     		movs	r0, #2
 1187              	.LVL140:
 202:lvgl/src/misc/lv_lru.c **** 
 1188              		.loc 1 202 5 discriminator 1 view .LVU387
 1189 005c F5E7     		b	.L79
 1190              		.cfi_endproc
 1191              	.LFE5:
 1193              		.section	.text.lv_lru_remove,"ax",%progbits
 1194              		.align	1
 1195              		.global	lv_lru_remove
 1196              		.syntax unified
 1197              		.thumb
 1198              		.thumb_func
 1200              	lv_lru_remove:
 1201              	.LVL141:
 1202              	.LFB6:
 223:lvgl/src/misc/lv_lru.c ****     test_for_missing_cache();
 1203              		.loc 1 223 1 is_stmt 1 view -0
 1204              		.cfi_startproc
 1205              		@ args = 0, pretend = 0, frame = 0
 1206              		@ frame_needed = 0, uses_anonymous_args = 0
 224:lvgl/src/misc/lv_lru.c ****     test_for_missing_key();
 1207              		.loc 1 224 5 view .LVU389
 1208 0000 10B3     		cbz	r0, .L95
 223:lvgl/src/misc/lv_lru.c ****     test_for_missing_cache();
 1209              		.loc 1 223 1 is_stmt 0 view .LVU390
 1210 0002 2DE9F843 		push	{r3, r4, r5, r6, r7, r8, r9, lr}
 1211              	.LCFI14:
 1212              		.cfi_def_cfa_offset 32
 1213              		.cfi_offset 3, -32
 1214              		.cfi_offset 4, -28
 1215              		.cfi_offset 5, -24
 1216              		.cfi_offset 6, -20
 1217              		.cfi_offset 7, -16
 1218              		.cfi_offset 8, -12
 1219              		.cfi_offset 9, -8
 1220              		.cfi_offset 14, -4
 1221 0006 0D46     		mov	r5, r1
 1222 0008 1646     		mov	r6, r2
 1223 000a 8146     		mov	r9, r0
 224:lvgl/src/misc/lv_lru.c ****     test_for_missing_key();
ARM GAS  C:\usertemp\ccHgR6sE.s 			page 34


 1224              		.loc 1 224 29 is_stmt 1 discriminator 2 view .LVU391
 225:lvgl/src/misc/lv_lru.c **** 
 1225              		.loc 1 225 5 view .LVU392
 1226 000c F1B1     		cbz	r1, .L96
 225:lvgl/src/misc/lv_lru.c **** 
 1227              		.loc 1 225 27 discriminator 2 view .LVU393
 228:lvgl/src/misc/lv_lru.c ****     uint32_t hash_index = lv_lru_hash(cache, key, key_size);
 1228              		.loc 1 228 5 view .LVU394
 1229              	.LVL142:
 229:lvgl/src/misc/lv_lru.c ****     item = cache->items[hash_index];
 1230              		.loc 1 229 5 view .LVU395
 229:lvgl/src/misc/lv_lru.c ****     item = cache->items[hash_index];
 1231              		.loc 1 229 27 is_stmt 0 view .LVU396
 1232 000e FFF7FEFF 		bl	lv_lru_hash
 1233              	.LVL143:
 229:lvgl/src/misc/lv_lru.c ****     item = cache->items[hash_index];
 1234              		.loc 1 229 27 view .LVU397
 1235 0012 8046     		mov	r8, r0
 1236              	.LVL144:
 230:lvgl/src/misc/lv_lru.c **** 
 1237              		.loc 1 230 5 is_stmt 1 view .LVU398
 230:lvgl/src/misc/lv_lru.c **** 
 1238              		.loc 1 230 17 is_stmt 0 view .LVU399
 1239 0014 D9F80030 		ldr	r3, [r9]
 230:lvgl/src/misc/lv_lru.c **** 
 1240              		.loc 1 230 10 view .LVU400
 1241 0018 53F82040 		ldr	r4, [r3, r0, lsl #2]
 1242              	.LVL145:
 232:lvgl/src/misc/lv_lru.c ****         prev = item;
 1243              		.loc 1 232 5 is_stmt 1 view .LVU401
 228:lvgl/src/misc/lv_lru.c ****     uint32_t hash_index = lv_lru_hash(cache, key, key_size);
 1244              		.loc 1 228 35 is_stmt 0 view .LVU402
 1245 001c 0027     		movs	r7, #0
 232:lvgl/src/misc/lv_lru.c ****         prev = item;
 1246              		.loc 1 232 10 view .LVU403
 1247 001e 01E0     		b	.L92
 1248              	.LVL146:
 1249              	.L94:
 233:lvgl/src/misc/lv_lru.c ****         item = (lv_lru_item_t *) item->next;
 1250              		.loc 1 233 9 is_stmt 1 view .LVU404
 234:lvgl/src/misc/lv_lru.c ****     }
 1251              		.loc 1 234 9 view .LVU405
 233:lvgl/src/misc/lv_lru.c ****         item = (lv_lru_item_t *) item->next;
 1252              		.loc 1 233 14 is_stmt 0 view .LVU406
 1253 0020 2746     		mov	r7, r4
 234:lvgl/src/misc/lv_lru.c ****     }
 1254              		.loc 1 234 14 view .LVU407
 1255 0022 A469     		ldr	r4, [r4, #24]
 1256              	.LVL147:
 1257              	.L92:
 232:lvgl/src/misc/lv_lru.c ****         prev = item;
 1258              		.loc 1 232 16 is_stmt 1 view .LVU408
 1259 0024 34B1     		cbz	r4, .L93
 232:lvgl/src/misc/lv_lru.c ****         prev = item;
 1260              		.loc 1 232 19 is_stmt 0 discriminator 1 view .LVU409
 1261 0026 3246     		mov	r2, r6
 1262 0028 2946     		mov	r1, r5
ARM GAS  C:\usertemp\ccHgR6sE.s 			page 35


 1263 002a 2046     		mov	r0, r4
 1264 002c FFF7FEFF 		bl	lv_lru_cmp_keys
 1265              	.LVL148:
 232:lvgl/src/misc/lv_lru.c ****         prev = item;
 1266              		.loc 1 232 16 discriminator 1 view .LVU410
 1267 0030 0028     		cmp	r0, #0
 1268 0032 F5D1     		bne	.L94
 1269              	.L93:
 237:lvgl/src/misc/lv_lru.c ****         lv_lru_remove_item(cache, prev, item, hash_index);
 1270              		.loc 1 237 5 is_stmt 1 view .LVU411
 237:lvgl/src/misc/lv_lru.c ****         lv_lru_remove_item(cache, prev, item, hash_index);
 1271              		.loc 1 237 7 is_stmt 0 view .LVU412
 1272 0034 64B1     		cbz	r4, .L97
 238:lvgl/src/misc/lv_lru.c ****     }
 1273              		.loc 1 238 9 is_stmt 1 view .LVU413
 1274 0036 4346     		mov	r3, r8
 1275 0038 2246     		mov	r2, r4
 1276 003a 3946     		mov	r1, r7
 1277 003c 4846     		mov	r0, r9
 1278 003e FFF7FEFF 		bl	lv_lru_remove_item
 1279              	.LVL149:
 241:lvgl/src/misc/lv_lru.c **** }
 1280              		.loc 1 241 12 is_stmt 0 view .LVU414
 1281 0042 0020     		movs	r0, #0
 1282              	.LVL150:
 1283              	.L91:
 242:lvgl/src/misc/lv_lru.c **** 
 1284              		.loc 1 242 1 view .LVU415
 1285 0044 BDE8F883 		pop	{r3, r4, r5, r6, r7, r8, r9, pc}
 1286              	.LVL151:
 1287              	.L95:
 1288              	.LCFI15:
 1289              		.cfi_def_cfa_offset 0
 1290              		.cfi_restore 3
 1291              		.cfi_restore 4
 1292              		.cfi_restore 5
 1293              		.cfi_restore 6
 1294              		.cfi_restore 7
 1295              		.cfi_restore 8
 1296              		.cfi_restore 9
 1297              		.cfi_restore 14
 224:lvgl/src/misc/lv_lru.c ****     test_for_missing_key();
 1298              		.loc 1 224 5 discriminator 1 view .LVU416
 1299 0048 0120     		movs	r0, #1
 1300              	.LVL152:
 242:lvgl/src/misc/lv_lru.c **** 
 1301              		.loc 1 242 1 view .LVU417
 1302 004a 7047     		bx	lr
 1303              	.LVL153:
 1304              	.L96:
 1305              	.LCFI16:
 1306              		.cfi_def_cfa_offset 32
 1307              		.cfi_offset 3, -32
 1308              		.cfi_offset 4, -28
 1309              		.cfi_offset 5, -24
 1310              		.cfi_offset 6, -20
 1311              		.cfi_offset 7, -16
ARM GAS  C:\usertemp\ccHgR6sE.s 			page 36


 1312              		.cfi_offset 8, -12
 1313              		.cfi_offset 9, -8
 1314              		.cfi_offset 14, -4
 225:lvgl/src/misc/lv_lru.c **** 
 1315              		.loc 1 225 5 discriminator 1 view .LVU418
 1316 004c 0220     		movs	r0, #2
 1317              	.LVL154:
 225:lvgl/src/misc/lv_lru.c **** 
 1318              		.loc 1 225 5 discriminator 1 view .LVU419
 1319 004e F9E7     		b	.L91
 1320              	.LVL155:
 1321              	.L97:
 241:lvgl/src/misc/lv_lru.c **** }
 1322              		.loc 1 241 12 view .LVU420
 1323 0050 0020     		movs	r0, #0
 1324 0052 F7E7     		b	.L91
 1325              		.cfi_endproc
 1326              	.LFE6:
 1328              		.text
 1329              	.Letext0:
 1330              		.file 2 "D:/armtoolchain/arm-gnu-toolchain-13.3.rel1-mingw-w64-i686-arm-none-eabi/arm-none-eabi/in
 1331              		.file 3 "D:/armtoolchain/arm-gnu-toolchain-13.3.rel1-mingw-w64-i686-arm-none-eabi/arm-none-eabi/in
 1332              		.file 4 "D:/armtoolchain/arm-gnu-toolchain-13.3.rel1-mingw-w64-i686-arm-none-eabi/lib/gcc/arm-none
 1333              		.file 5 "lvgl/src/misc/lv_lru.h"
 1334              		.file 6 "D:/armtoolchain/arm-gnu-toolchain-13.3.rel1-mingw-w64-i686-arm-none-eabi/arm-none-eabi/in
 1335              		.file 7 "lvgl/src/misc/lv_math.h"
 1336              		.file 8 "lvgl/src/misc/lv_mem.h"
 1337              		.file 9 "<built-in>"
ARM GAS  C:\usertemp\ccHgR6sE.s 			page 37

