ARM GAS  C:\usertemp\cc5ZvGn0.s 			page 1


   1              		.cpu cortex-m7
   2              		.arch armv7e-m
   3              		.fpu fpv5-d16
   4              		.eabi_attribute 28, 1
   5              		.eabi_attribute 20, 1
   6              		.eabi_attribute 21, 1
   7              		.eabi_attribute 23, 3
   8              		.eabi_attribute 24, 1
   9              		.eabi_attribute 25, 1
  10              		.eabi_attribute 26, 1
  11              		.eabi_attribute 30, 1
  12              		.eabi_attribute 34, 1
  13              		.eabi_attribute 18, 4
  14              		.file	"lv_menu.c"
  15              		.text
  16              	.Ltext0:
  17              		.cfi_sections	.debug_frame
  18              		.file 1 "lvgl/src/extra/widgets/menu/lv_menu.c"
  19              		.section	.text.lv_menu_destructor,"ax",%progbits
  20              		.align	1
  21              		.syntax unified
  22              		.thumb
  23              		.thumb_func
  25              	lv_menu_destructor:
  26              	.LVL0:
  27              	.LFB181:
   1:lvgl/src/extra/widgets/menu/lv_menu.c **** /**
   2:lvgl/src/extra/widgets/menu/lv_menu.c ****  * @file lv_menu.c
   3:lvgl/src/extra/widgets/menu/lv_menu.c ****  *
   4:lvgl/src/extra/widgets/menu/lv_menu.c ****  */
   5:lvgl/src/extra/widgets/menu/lv_menu.c **** 
   6:lvgl/src/extra/widgets/menu/lv_menu.c **** /*********************
   7:lvgl/src/extra/widgets/menu/lv_menu.c ****  *      INCLUDES
   8:lvgl/src/extra/widgets/menu/lv_menu.c ****  *********************/
   9:lvgl/src/extra/widgets/menu/lv_menu.c **** #include "lv_menu.h"
  10:lvgl/src/extra/widgets/menu/lv_menu.c **** 
  11:lvgl/src/extra/widgets/menu/lv_menu.c **** #if LV_USE_MENU
  12:lvgl/src/extra/widgets/menu/lv_menu.c **** 
  13:lvgl/src/extra/widgets/menu/lv_menu.c **** /*********************
  14:lvgl/src/extra/widgets/menu/lv_menu.c ****  *      DEFINES
  15:lvgl/src/extra/widgets/menu/lv_menu.c ****  *********************/
  16:lvgl/src/extra/widgets/menu/lv_menu.c **** #define MY_CLASS &lv_menu_class
  17:lvgl/src/extra/widgets/menu/lv_menu.c **** 
  18:lvgl/src/extra/widgets/menu/lv_menu.c **** #include "../../../core/lv_obj.h"
  19:lvgl/src/extra/widgets/menu/lv_menu.c **** #include "../../layouts/flex/lv_flex.h"
  20:lvgl/src/extra/widgets/menu/lv_menu.c **** #include "../../../widgets/lv_label.h"
  21:lvgl/src/extra/widgets/menu/lv_menu.c **** #include "../../../widgets/lv_btn.h"
  22:lvgl/src/extra/widgets/menu/lv_menu.c **** #include "../../../widgets/lv_img.h"
  23:lvgl/src/extra/widgets/menu/lv_menu.c **** 
  24:lvgl/src/extra/widgets/menu/lv_menu.c **** /**********************
  25:lvgl/src/extra/widgets/menu/lv_menu.c ****  *      TYPEDEFS
  26:lvgl/src/extra/widgets/menu/lv_menu.c ****  **********************/
  27:lvgl/src/extra/widgets/menu/lv_menu.c **** 
  28:lvgl/src/extra/widgets/menu/lv_menu.c **** /**********************
  29:lvgl/src/extra/widgets/menu/lv_menu.c ****  *  STATIC PROTOTYPES
  30:lvgl/src/extra/widgets/menu/lv_menu.c ****  **********************/
  31:lvgl/src/extra/widgets/menu/lv_menu.c **** static void lv_menu_constructor(const lv_obj_class_t * class_p, lv_obj_t * obj);
ARM GAS  C:\usertemp\cc5ZvGn0.s 			page 2


  32:lvgl/src/extra/widgets/menu/lv_menu.c **** static void lv_menu_destructor(const lv_obj_class_t * class_p, lv_obj_t * obj);
  33:lvgl/src/extra/widgets/menu/lv_menu.c **** static void lv_menu_page_constructor(const lv_obj_class_t * class_p, lv_obj_t * obj);
  34:lvgl/src/extra/widgets/menu/lv_menu.c **** static void lv_menu_page_destructor(const lv_obj_class_t * class_p, lv_obj_t * obj);
  35:lvgl/src/extra/widgets/menu/lv_menu.c **** static void lv_menu_cont_constructor(const lv_obj_class_t * class_p, lv_obj_t * obj);
  36:lvgl/src/extra/widgets/menu/lv_menu.c **** static void lv_menu_section_constructor(const lv_obj_class_t * class_p, lv_obj_t * obj);
  37:lvgl/src/extra/widgets/menu/lv_menu.c **** 
  38:lvgl/src/extra/widgets/menu/lv_menu.c **** const lv_obj_class_t lv_menu_class = {
  39:lvgl/src/extra/widgets/menu/lv_menu.c ****     .constructor_cb = lv_menu_constructor,
  40:lvgl/src/extra/widgets/menu/lv_menu.c ****     .destructor_cb = lv_menu_destructor,
  41:lvgl/src/extra/widgets/menu/lv_menu.c ****     .base_class = &lv_obj_class,
  42:lvgl/src/extra/widgets/menu/lv_menu.c ****     .width_def = (LV_DPI_DEF * 3) / 2,
  43:lvgl/src/extra/widgets/menu/lv_menu.c ****     .height_def = LV_DPI_DEF * 2,
  44:lvgl/src/extra/widgets/menu/lv_menu.c ****     .instance_size = sizeof(lv_menu_t)
  45:lvgl/src/extra/widgets/menu/lv_menu.c **** };
  46:lvgl/src/extra/widgets/menu/lv_menu.c **** const lv_obj_class_t lv_menu_page_class = {
  47:lvgl/src/extra/widgets/menu/lv_menu.c ****     .constructor_cb = lv_menu_page_constructor,
  48:lvgl/src/extra/widgets/menu/lv_menu.c ****     .destructor_cb = lv_menu_page_destructor,
  49:lvgl/src/extra/widgets/menu/lv_menu.c ****     .base_class = &lv_obj_class,
  50:lvgl/src/extra/widgets/menu/lv_menu.c ****     .width_def = LV_PCT(100),
  51:lvgl/src/extra/widgets/menu/lv_menu.c ****     .height_def = LV_SIZE_CONTENT,
  52:lvgl/src/extra/widgets/menu/lv_menu.c ****     .instance_size = sizeof(lv_menu_page_t)
  53:lvgl/src/extra/widgets/menu/lv_menu.c **** };
  54:lvgl/src/extra/widgets/menu/lv_menu.c **** 
  55:lvgl/src/extra/widgets/menu/lv_menu.c **** const lv_obj_class_t lv_menu_cont_class = {
  56:lvgl/src/extra/widgets/menu/lv_menu.c ****     .constructor_cb = lv_menu_cont_constructor,
  57:lvgl/src/extra/widgets/menu/lv_menu.c ****     .base_class = &lv_obj_class,
  58:lvgl/src/extra/widgets/menu/lv_menu.c ****     .width_def = LV_PCT(100),
  59:lvgl/src/extra/widgets/menu/lv_menu.c ****     .height_def = LV_SIZE_CONTENT
  60:lvgl/src/extra/widgets/menu/lv_menu.c **** };
  61:lvgl/src/extra/widgets/menu/lv_menu.c **** 
  62:lvgl/src/extra/widgets/menu/lv_menu.c **** const lv_obj_class_t lv_menu_section_class = {
  63:lvgl/src/extra/widgets/menu/lv_menu.c ****     .constructor_cb = lv_menu_section_constructor,
  64:lvgl/src/extra/widgets/menu/lv_menu.c ****     .base_class = &lv_obj_class,
  65:lvgl/src/extra/widgets/menu/lv_menu.c ****     .width_def = LV_PCT(100),
  66:lvgl/src/extra/widgets/menu/lv_menu.c ****     .height_def = LV_SIZE_CONTENT
  67:lvgl/src/extra/widgets/menu/lv_menu.c **** };
  68:lvgl/src/extra/widgets/menu/lv_menu.c **** 
  69:lvgl/src/extra/widgets/menu/lv_menu.c **** const lv_obj_class_t lv_menu_separator_class = {
  70:lvgl/src/extra/widgets/menu/lv_menu.c ****     .base_class = &lv_obj_class,
  71:lvgl/src/extra/widgets/menu/lv_menu.c ****     .width_def = LV_SIZE_CONTENT,
  72:lvgl/src/extra/widgets/menu/lv_menu.c ****     .height_def = LV_SIZE_CONTENT
  73:lvgl/src/extra/widgets/menu/lv_menu.c **** };
  74:lvgl/src/extra/widgets/menu/lv_menu.c **** 
  75:lvgl/src/extra/widgets/menu/lv_menu.c **** const lv_obj_class_t lv_menu_sidebar_cont_class = {
  76:lvgl/src/extra/widgets/menu/lv_menu.c ****     .base_class = &lv_obj_class
  77:lvgl/src/extra/widgets/menu/lv_menu.c **** };
  78:lvgl/src/extra/widgets/menu/lv_menu.c **** 
  79:lvgl/src/extra/widgets/menu/lv_menu.c **** const lv_obj_class_t lv_menu_main_cont_class = {
  80:lvgl/src/extra/widgets/menu/lv_menu.c ****     .base_class = &lv_obj_class
  81:lvgl/src/extra/widgets/menu/lv_menu.c **** };
  82:lvgl/src/extra/widgets/menu/lv_menu.c **** 
  83:lvgl/src/extra/widgets/menu/lv_menu.c **** const lv_obj_class_t lv_menu_main_header_cont_class = {
  84:lvgl/src/extra/widgets/menu/lv_menu.c ****     .base_class = &lv_obj_class
  85:lvgl/src/extra/widgets/menu/lv_menu.c **** };
  86:lvgl/src/extra/widgets/menu/lv_menu.c **** 
  87:lvgl/src/extra/widgets/menu/lv_menu.c **** const lv_obj_class_t lv_menu_sidebar_header_cont_class = {
  88:lvgl/src/extra/widgets/menu/lv_menu.c ****     .base_class = &lv_obj_class
ARM GAS  C:\usertemp\cc5ZvGn0.s 			page 3


  89:lvgl/src/extra/widgets/menu/lv_menu.c **** };
  90:lvgl/src/extra/widgets/menu/lv_menu.c **** 
  91:lvgl/src/extra/widgets/menu/lv_menu.c **** static void lv_menu_refr(lv_obj_t * obj);
  92:lvgl/src/extra/widgets/menu/lv_menu.c **** static void lv_menu_refr_sidebar_header_mode(lv_obj_t * obj);
  93:lvgl/src/extra/widgets/menu/lv_menu.c **** static void lv_menu_refr_main_header_mode(lv_obj_t * obj);
  94:lvgl/src/extra/widgets/menu/lv_menu.c **** static void lv_menu_load_page_event_cb(lv_event_t * e);
  95:lvgl/src/extra/widgets/menu/lv_menu.c **** static void lv_menu_obj_del_event_cb(lv_event_t * e);
  96:lvgl/src/extra/widgets/menu/lv_menu.c **** static void lv_menu_back_event_cb(lv_event_t * e);
  97:lvgl/src/extra/widgets/menu/lv_menu.c **** static void lv_menu_value_changed_event_cb(lv_event_t * e);
  98:lvgl/src/extra/widgets/menu/lv_menu.c **** /**********************
  99:lvgl/src/extra/widgets/menu/lv_menu.c ****  *  STATIC VARIABLES
 100:lvgl/src/extra/widgets/menu/lv_menu.c ****  **********************/
 101:lvgl/src/extra/widgets/menu/lv_menu.c **** 
 102:lvgl/src/extra/widgets/menu/lv_menu.c **** /**********************
 103:lvgl/src/extra/widgets/menu/lv_menu.c ****  *      MACROS
 104:lvgl/src/extra/widgets/menu/lv_menu.c ****  **********************/
 105:lvgl/src/extra/widgets/menu/lv_menu.c **** 
 106:lvgl/src/extra/widgets/menu/lv_menu.c **** /**********************
 107:lvgl/src/extra/widgets/menu/lv_menu.c ****  *   GLOBAL FUNCTIONS
 108:lvgl/src/extra/widgets/menu/lv_menu.c ****  **********************/
 109:lvgl/src/extra/widgets/menu/lv_menu.c **** bool lv_menu_item_back_btn_is_root(lv_obj_t * menu, lv_obj_t * obj);
 110:lvgl/src/extra/widgets/menu/lv_menu.c **** void lv_menu_clear_history(lv_obj_t * obj);
 111:lvgl/src/extra/widgets/menu/lv_menu.c **** 
 112:lvgl/src/extra/widgets/menu/lv_menu.c **** lv_obj_t * lv_menu_create(lv_obj_t * parent)
 113:lvgl/src/extra/widgets/menu/lv_menu.c **** {
 114:lvgl/src/extra/widgets/menu/lv_menu.c ****     LV_LOG_INFO("begin");
 115:lvgl/src/extra/widgets/menu/lv_menu.c ****     lv_obj_t * obj = lv_obj_class_create_obj(MY_CLASS, parent);
 116:lvgl/src/extra/widgets/menu/lv_menu.c ****     lv_obj_class_init_obj(obj);
 117:lvgl/src/extra/widgets/menu/lv_menu.c ****     return obj;
 118:lvgl/src/extra/widgets/menu/lv_menu.c **** }
 119:lvgl/src/extra/widgets/menu/lv_menu.c **** 
 120:lvgl/src/extra/widgets/menu/lv_menu.c **** lv_obj_t * lv_menu_page_create(lv_obj_t * parent, char * title)
 121:lvgl/src/extra/widgets/menu/lv_menu.c **** {
 122:lvgl/src/extra/widgets/menu/lv_menu.c ****     LV_LOG_INFO("begin");
 123:lvgl/src/extra/widgets/menu/lv_menu.c ****     lv_obj_t * obj = lv_obj_class_create_obj(&lv_menu_page_class, parent);
 124:lvgl/src/extra/widgets/menu/lv_menu.c ****     lv_obj_class_init_obj(obj);
 125:lvgl/src/extra/widgets/menu/lv_menu.c **** 
 126:lvgl/src/extra/widgets/menu/lv_menu.c ****     lv_menu_page_t * page = (lv_menu_page_t *)obj;
 127:lvgl/src/extra/widgets/menu/lv_menu.c ****     if(title) {
 128:lvgl/src/extra/widgets/menu/lv_menu.c ****         page->title = lv_mem_alloc(strlen(title) + 1);
 129:lvgl/src/extra/widgets/menu/lv_menu.c ****         LV_ASSERT_MALLOC(page->title);
 130:lvgl/src/extra/widgets/menu/lv_menu.c ****         if(page->title == NULL) return NULL;
 131:lvgl/src/extra/widgets/menu/lv_menu.c ****         strcpy(page->title, title);
 132:lvgl/src/extra/widgets/menu/lv_menu.c ****     }
 133:lvgl/src/extra/widgets/menu/lv_menu.c ****     else {
 134:lvgl/src/extra/widgets/menu/lv_menu.c ****         page->title = NULL;
 135:lvgl/src/extra/widgets/menu/lv_menu.c ****     }
 136:lvgl/src/extra/widgets/menu/lv_menu.c **** 
 137:lvgl/src/extra/widgets/menu/lv_menu.c ****     return obj;
 138:lvgl/src/extra/widgets/menu/lv_menu.c **** }
 139:lvgl/src/extra/widgets/menu/lv_menu.c **** 
 140:lvgl/src/extra/widgets/menu/lv_menu.c **** lv_obj_t * lv_menu_cont_create(lv_obj_t * parent)
 141:lvgl/src/extra/widgets/menu/lv_menu.c **** {
 142:lvgl/src/extra/widgets/menu/lv_menu.c ****     LV_LOG_INFO("begin");
 143:lvgl/src/extra/widgets/menu/lv_menu.c ****     lv_obj_t * obj = lv_obj_class_create_obj(&lv_menu_cont_class, parent);
 144:lvgl/src/extra/widgets/menu/lv_menu.c ****     lv_obj_class_init_obj(obj);
 145:lvgl/src/extra/widgets/menu/lv_menu.c ****     return obj;
ARM GAS  C:\usertemp\cc5ZvGn0.s 			page 4


 146:lvgl/src/extra/widgets/menu/lv_menu.c **** }
 147:lvgl/src/extra/widgets/menu/lv_menu.c **** 
 148:lvgl/src/extra/widgets/menu/lv_menu.c **** lv_obj_t * lv_menu_section_create(lv_obj_t * parent)
 149:lvgl/src/extra/widgets/menu/lv_menu.c **** {
 150:lvgl/src/extra/widgets/menu/lv_menu.c ****     LV_LOG_INFO("begin");
 151:lvgl/src/extra/widgets/menu/lv_menu.c ****     lv_obj_t * obj = lv_obj_class_create_obj(&lv_menu_section_class, parent);
 152:lvgl/src/extra/widgets/menu/lv_menu.c ****     lv_obj_class_init_obj(obj);
 153:lvgl/src/extra/widgets/menu/lv_menu.c ****     return obj;
 154:lvgl/src/extra/widgets/menu/lv_menu.c **** }
 155:lvgl/src/extra/widgets/menu/lv_menu.c **** 
 156:lvgl/src/extra/widgets/menu/lv_menu.c **** lv_obj_t * lv_menu_separator_create(lv_obj_t * parent)
 157:lvgl/src/extra/widgets/menu/lv_menu.c **** {
 158:lvgl/src/extra/widgets/menu/lv_menu.c ****     LV_LOG_INFO("begin");
 159:lvgl/src/extra/widgets/menu/lv_menu.c ****     lv_obj_t * obj = lv_obj_class_create_obj(&lv_menu_separator_class, parent);
 160:lvgl/src/extra/widgets/menu/lv_menu.c ****     lv_obj_class_init_obj(obj);
 161:lvgl/src/extra/widgets/menu/lv_menu.c ****     return obj;
 162:lvgl/src/extra/widgets/menu/lv_menu.c **** }
 163:lvgl/src/extra/widgets/menu/lv_menu.c **** 
 164:lvgl/src/extra/widgets/menu/lv_menu.c **** void lv_menu_refr(lv_obj_t * obj)
 165:lvgl/src/extra/widgets/menu/lv_menu.c **** {
 166:lvgl/src/extra/widgets/menu/lv_menu.c ****     LV_ASSERT_OBJ(obj, MY_CLASS);
 167:lvgl/src/extra/widgets/menu/lv_menu.c **** 
 168:lvgl/src/extra/widgets/menu/lv_menu.c ****     lv_menu_t * menu = (lv_menu_t *)obj;
 169:lvgl/src/extra/widgets/menu/lv_menu.c ****     lv_ll_t * history_ll = &(menu->history_ll);
 170:lvgl/src/extra/widgets/menu/lv_menu.c **** 
 171:lvgl/src/extra/widgets/menu/lv_menu.c ****     /* The current menu */
 172:lvgl/src/extra/widgets/menu/lv_menu.c ****     lv_menu_history_t * act_hist = _lv_ll_get_head(history_ll);
 173:lvgl/src/extra/widgets/menu/lv_menu.c **** 
 174:lvgl/src/extra/widgets/menu/lv_menu.c ****     lv_obj_t * page = NULL;
 175:lvgl/src/extra/widgets/menu/lv_menu.c **** 
 176:lvgl/src/extra/widgets/menu/lv_menu.c ****     if(act_hist != NULL) {
 177:lvgl/src/extra/widgets/menu/lv_menu.c ****         page = act_hist->page;
 178:lvgl/src/extra/widgets/menu/lv_menu.c ****         /* Delete the current item from the history */
 179:lvgl/src/extra/widgets/menu/lv_menu.c ****         _lv_ll_remove(history_ll, act_hist);
 180:lvgl/src/extra/widgets/menu/lv_menu.c ****         lv_mem_free(act_hist);
 181:lvgl/src/extra/widgets/menu/lv_menu.c ****         menu->cur_depth--;
 182:lvgl/src/extra/widgets/menu/lv_menu.c ****     }
 183:lvgl/src/extra/widgets/menu/lv_menu.c **** 
 184:lvgl/src/extra/widgets/menu/lv_menu.c ****     /* Set it */
 185:lvgl/src/extra/widgets/menu/lv_menu.c ****     lv_menu_set_page(obj, page);
 186:lvgl/src/extra/widgets/menu/lv_menu.c **** }
 187:lvgl/src/extra/widgets/menu/lv_menu.c **** 
 188:lvgl/src/extra/widgets/menu/lv_menu.c **** /*=====================
 189:lvgl/src/extra/widgets/menu/lv_menu.c ****  * Setter functions
 190:lvgl/src/extra/widgets/menu/lv_menu.c ****  *====================*/
 191:lvgl/src/extra/widgets/menu/lv_menu.c **** 
 192:lvgl/src/extra/widgets/menu/lv_menu.c **** void lv_menu_set_page(lv_obj_t * obj, lv_obj_t * page)
 193:lvgl/src/extra/widgets/menu/lv_menu.c **** {
 194:lvgl/src/extra/widgets/menu/lv_menu.c ****     LV_ASSERT_OBJ(obj, MY_CLASS);
 195:lvgl/src/extra/widgets/menu/lv_menu.c **** 
 196:lvgl/src/extra/widgets/menu/lv_menu.c ****     lv_menu_t * menu = (lv_menu_t *)obj;
 197:lvgl/src/extra/widgets/menu/lv_menu.c **** 
 198:lvgl/src/extra/widgets/menu/lv_menu.c ****     /* Hide previous page */
 199:lvgl/src/extra/widgets/menu/lv_menu.c ****     if(menu->main_page != NULL) {
 200:lvgl/src/extra/widgets/menu/lv_menu.c ****         lv_obj_set_parent(menu->main_page, menu->storage);
 201:lvgl/src/extra/widgets/menu/lv_menu.c ****     }
 202:lvgl/src/extra/widgets/menu/lv_menu.c **** 
ARM GAS  C:\usertemp\cc5ZvGn0.s 			page 5


 203:lvgl/src/extra/widgets/menu/lv_menu.c ****     if(page != NULL) {
 204:lvgl/src/extra/widgets/menu/lv_menu.c ****         /* Add a new node */
 205:lvgl/src/extra/widgets/menu/lv_menu.c ****         lv_ll_t * history_ll = &(menu->history_ll);
 206:lvgl/src/extra/widgets/menu/lv_menu.c ****         lv_menu_history_t * new_node = _lv_ll_ins_head(history_ll);
 207:lvgl/src/extra/widgets/menu/lv_menu.c ****         new_node->page = page;
 208:lvgl/src/extra/widgets/menu/lv_menu.c ****         menu->cur_depth++;
 209:lvgl/src/extra/widgets/menu/lv_menu.c **** 
 210:lvgl/src/extra/widgets/menu/lv_menu.c ****         /* Place page in main */
 211:lvgl/src/extra/widgets/menu/lv_menu.c ****         lv_obj_set_parent(page, menu->main);
 212:lvgl/src/extra/widgets/menu/lv_menu.c ****     }
 213:lvgl/src/extra/widgets/menu/lv_menu.c ****     else {
 214:lvgl/src/extra/widgets/menu/lv_menu.c ****         /* Empty page, clear history */
 215:lvgl/src/extra/widgets/menu/lv_menu.c ****         lv_menu_clear_history(obj);
 216:lvgl/src/extra/widgets/menu/lv_menu.c ****     }
 217:lvgl/src/extra/widgets/menu/lv_menu.c **** 
 218:lvgl/src/extra/widgets/menu/lv_menu.c ****     menu->main_page = page;
 219:lvgl/src/extra/widgets/menu/lv_menu.c **** 
 220:lvgl/src/extra/widgets/menu/lv_menu.c ****     /* If there is a selected tab, update checked state */
 221:lvgl/src/extra/widgets/menu/lv_menu.c ****     if(menu->selected_tab != NULL) {
 222:lvgl/src/extra/widgets/menu/lv_menu.c ****         if(menu->sidebar_page != NULL) {
 223:lvgl/src/extra/widgets/menu/lv_menu.c ****             lv_obj_add_state(menu->selected_tab, LV_STATE_CHECKED);
 224:lvgl/src/extra/widgets/menu/lv_menu.c ****         }
 225:lvgl/src/extra/widgets/menu/lv_menu.c ****         else {
 226:lvgl/src/extra/widgets/menu/lv_menu.c ****             lv_obj_clear_state(menu->selected_tab, LV_STATE_CHECKED);
 227:lvgl/src/extra/widgets/menu/lv_menu.c ****         }
 228:lvgl/src/extra/widgets/menu/lv_menu.c ****     }
 229:lvgl/src/extra/widgets/menu/lv_menu.c **** 
 230:lvgl/src/extra/widgets/menu/lv_menu.c ****     /* Back btn management */
 231:lvgl/src/extra/widgets/menu/lv_menu.c ****     if(menu->sidebar_page != NULL) {
 232:lvgl/src/extra/widgets/menu/lv_menu.c ****         /* With sidebar enabled */
 233:lvgl/src/extra/widgets/menu/lv_menu.c ****         if(menu->sidebar_generated) {
 234:lvgl/src/extra/widgets/menu/lv_menu.c ****             if(menu->mode_root_back_btn == LV_MENU_ROOT_BACK_BTN_ENABLED) {
 235:lvgl/src/extra/widgets/menu/lv_menu.c ****                 /* Root back btn is always shown if enabled*/
 236:lvgl/src/extra/widgets/menu/lv_menu.c ****                 lv_obj_clear_flag(menu->sidebar_header_back_btn, LV_OBJ_FLAG_HIDDEN);
 237:lvgl/src/extra/widgets/menu/lv_menu.c ****                 lv_obj_add_flag(menu->sidebar_header_back_btn, LV_OBJ_FLAG_CLICKABLE);
 238:lvgl/src/extra/widgets/menu/lv_menu.c ****             }
 239:lvgl/src/extra/widgets/menu/lv_menu.c ****             else {
 240:lvgl/src/extra/widgets/menu/lv_menu.c ****                 lv_obj_add_flag(menu->sidebar_header_back_btn, LV_OBJ_FLAG_HIDDEN);
 241:lvgl/src/extra/widgets/menu/lv_menu.c ****                 lv_obj_clear_flag(menu->sidebar_header_back_btn, LV_OBJ_FLAG_CLICKABLE);
 242:lvgl/src/extra/widgets/menu/lv_menu.c ****             }
 243:lvgl/src/extra/widgets/menu/lv_menu.c ****         }
 244:lvgl/src/extra/widgets/menu/lv_menu.c **** 
 245:lvgl/src/extra/widgets/menu/lv_menu.c ****         if(menu->cur_depth >= 2) {
 246:lvgl/src/extra/widgets/menu/lv_menu.c ****             lv_obj_clear_flag(menu->main_header_back_btn, LV_OBJ_FLAG_HIDDEN);
 247:lvgl/src/extra/widgets/menu/lv_menu.c ****             lv_obj_add_flag(menu->main_header_back_btn, LV_OBJ_FLAG_CLICKABLE);
 248:lvgl/src/extra/widgets/menu/lv_menu.c ****         }
 249:lvgl/src/extra/widgets/menu/lv_menu.c ****         else {
 250:lvgl/src/extra/widgets/menu/lv_menu.c ****             lv_obj_add_flag(menu->main_header_back_btn, LV_OBJ_FLAG_HIDDEN);
 251:lvgl/src/extra/widgets/menu/lv_menu.c ****             lv_obj_clear_flag(menu->main_header_back_btn, LV_OBJ_FLAG_CLICKABLE);
 252:lvgl/src/extra/widgets/menu/lv_menu.c ****         }
 253:lvgl/src/extra/widgets/menu/lv_menu.c ****     }
 254:lvgl/src/extra/widgets/menu/lv_menu.c ****     else {
 255:lvgl/src/extra/widgets/menu/lv_menu.c ****         /* With sidebar disabled */
 256:lvgl/src/extra/widgets/menu/lv_menu.c ****         if(menu->cur_depth >= 2 || menu->mode_root_back_btn == LV_MENU_ROOT_BACK_BTN_ENABLED) {
 257:lvgl/src/extra/widgets/menu/lv_menu.c ****             lv_obj_clear_flag(menu->main_header_back_btn, LV_OBJ_FLAG_HIDDEN);
 258:lvgl/src/extra/widgets/menu/lv_menu.c ****             lv_obj_add_flag(menu->main_header_back_btn, LV_OBJ_FLAG_CLICKABLE);
 259:lvgl/src/extra/widgets/menu/lv_menu.c ****         }
ARM GAS  C:\usertemp\cc5ZvGn0.s 			page 6


 260:lvgl/src/extra/widgets/menu/lv_menu.c ****         else {
 261:lvgl/src/extra/widgets/menu/lv_menu.c ****             lv_obj_add_flag(menu->main_header_back_btn, LV_OBJ_FLAG_HIDDEN);
 262:lvgl/src/extra/widgets/menu/lv_menu.c ****             lv_obj_clear_flag(menu->main_header_back_btn, LV_OBJ_FLAG_CLICKABLE);
 263:lvgl/src/extra/widgets/menu/lv_menu.c ****         }
 264:lvgl/src/extra/widgets/menu/lv_menu.c ****     }
 265:lvgl/src/extra/widgets/menu/lv_menu.c **** 
 266:lvgl/src/extra/widgets/menu/lv_menu.c ****     lv_event_send((lv_obj_t *)menu, LV_EVENT_VALUE_CHANGED, NULL);
 267:lvgl/src/extra/widgets/menu/lv_menu.c **** 
 268:lvgl/src/extra/widgets/menu/lv_menu.c ****     lv_menu_refr_main_header_mode(obj);
 269:lvgl/src/extra/widgets/menu/lv_menu.c **** }
 270:lvgl/src/extra/widgets/menu/lv_menu.c **** 
 271:lvgl/src/extra/widgets/menu/lv_menu.c **** void lv_menu_set_sidebar_page(lv_obj_t * obj, lv_obj_t * page)
 272:lvgl/src/extra/widgets/menu/lv_menu.c **** {
 273:lvgl/src/extra/widgets/menu/lv_menu.c ****     LV_ASSERT_OBJ(obj, MY_CLASS);
 274:lvgl/src/extra/widgets/menu/lv_menu.c **** 
 275:lvgl/src/extra/widgets/menu/lv_menu.c ****     lv_menu_t * menu = (lv_menu_t *)obj;
 276:lvgl/src/extra/widgets/menu/lv_menu.c **** 
 277:lvgl/src/extra/widgets/menu/lv_menu.c ****     /* Sidebar management*/
 278:lvgl/src/extra/widgets/menu/lv_menu.c ****     if(page != NULL) {
 279:lvgl/src/extra/widgets/menu/lv_menu.c ****         /* Sidebar should be enabled */
 280:lvgl/src/extra/widgets/menu/lv_menu.c ****         if(!menu->sidebar_generated) {
 281:lvgl/src/extra/widgets/menu/lv_menu.c ****             /* Create sidebar */
 282:lvgl/src/extra/widgets/menu/lv_menu.c ****             lv_obj_t * sidebar_cont = lv_obj_class_create_obj(&lv_menu_sidebar_cont_class, obj);
 283:lvgl/src/extra/widgets/menu/lv_menu.c ****             lv_obj_class_init_obj(sidebar_cont);
 284:lvgl/src/extra/widgets/menu/lv_menu.c ****             lv_obj_move_to_index(sidebar_cont, 1);
 285:lvgl/src/extra/widgets/menu/lv_menu.c ****             lv_obj_set_size(sidebar_cont, LV_PCT(30), LV_PCT(100));
 286:lvgl/src/extra/widgets/menu/lv_menu.c ****             lv_obj_set_flex_flow(sidebar_cont, LV_FLEX_FLOW_COLUMN);
 287:lvgl/src/extra/widgets/menu/lv_menu.c ****             lv_obj_add_flag(sidebar_cont, LV_OBJ_FLAG_EVENT_BUBBLE);
 288:lvgl/src/extra/widgets/menu/lv_menu.c ****             lv_obj_clear_flag(sidebar_cont, LV_OBJ_FLAG_CLICKABLE);
 289:lvgl/src/extra/widgets/menu/lv_menu.c ****             menu->sidebar = sidebar_cont;
 290:lvgl/src/extra/widgets/menu/lv_menu.c **** 
 291:lvgl/src/extra/widgets/menu/lv_menu.c ****             lv_obj_t * sidebar_header = lv_obj_class_create_obj(&lv_menu_sidebar_header_cont_class,
 292:lvgl/src/extra/widgets/menu/lv_menu.c ****             lv_obj_class_init_obj(sidebar_header);
 293:lvgl/src/extra/widgets/menu/lv_menu.c ****             lv_obj_set_size(sidebar_header, LV_PCT(100), LV_SIZE_CONTENT);
 294:lvgl/src/extra/widgets/menu/lv_menu.c ****             lv_obj_set_flex_flow(sidebar_header, LV_FLEX_FLOW_ROW);
 295:lvgl/src/extra/widgets/menu/lv_menu.c ****             lv_obj_set_flex_align(sidebar_header, LV_FLEX_ALIGN_START, LV_FLEX_ALIGN_CENTER, LV_FLE
 296:lvgl/src/extra/widgets/menu/lv_menu.c ****             lv_obj_clear_flag(sidebar_header, LV_OBJ_FLAG_CLICKABLE);
 297:lvgl/src/extra/widgets/menu/lv_menu.c ****             lv_obj_add_flag(sidebar_header, LV_OBJ_FLAG_EVENT_BUBBLE);
 298:lvgl/src/extra/widgets/menu/lv_menu.c ****             menu->sidebar_header = sidebar_header;
 299:lvgl/src/extra/widgets/menu/lv_menu.c **** 
 300:lvgl/src/extra/widgets/menu/lv_menu.c ****             lv_obj_t * sidebar_header_back_btn = lv_btn_create(menu->sidebar_header);
 301:lvgl/src/extra/widgets/menu/lv_menu.c ****             lv_obj_add_event_cb(sidebar_header_back_btn, lv_menu_back_event_cb, LV_EVENT_CLICKED, m
 302:lvgl/src/extra/widgets/menu/lv_menu.c ****             lv_obj_add_flag(sidebar_header_back_btn, LV_OBJ_FLAG_EVENT_BUBBLE);
 303:lvgl/src/extra/widgets/menu/lv_menu.c ****             lv_obj_set_flex_flow(sidebar_header_back_btn, LV_FLEX_FLOW_ROW);
 304:lvgl/src/extra/widgets/menu/lv_menu.c ****             menu->sidebar_header_back_btn = sidebar_header_back_btn;
 305:lvgl/src/extra/widgets/menu/lv_menu.c **** 
 306:lvgl/src/extra/widgets/menu/lv_menu.c ****             lv_obj_t * sidebar_header_back_icon = lv_img_create(menu->sidebar_header_back_btn);
 307:lvgl/src/extra/widgets/menu/lv_menu.c ****             lv_img_set_src(sidebar_header_back_icon, LV_SYMBOL_LEFT);
 308:lvgl/src/extra/widgets/menu/lv_menu.c **** 
 309:lvgl/src/extra/widgets/menu/lv_menu.c ****             lv_obj_t * sidebar_header_title = lv_label_create(menu->sidebar_header);
 310:lvgl/src/extra/widgets/menu/lv_menu.c ****             lv_obj_add_flag(sidebar_header_title, LV_OBJ_FLAG_HIDDEN);
 311:lvgl/src/extra/widgets/menu/lv_menu.c ****             menu->sidebar_header_title = sidebar_header_title;
 312:lvgl/src/extra/widgets/menu/lv_menu.c **** 
 313:lvgl/src/extra/widgets/menu/lv_menu.c ****             menu->sidebar_generated = true;
 314:lvgl/src/extra/widgets/menu/lv_menu.c ****         }
 315:lvgl/src/extra/widgets/menu/lv_menu.c **** 
 316:lvgl/src/extra/widgets/menu/lv_menu.c ****         lv_obj_set_parent(page, menu->sidebar);
ARM GAS  C:\usertemp\cc5ZvGn0.s 			page 7


 317:lvgl/src/extra/widgets/menu/lv_menu.c **** 
 318:lvgl/src/extra/widgets/menu/lv_menu.c ****         lv_menu_refr_sidebar_header_mode(obj);
 319:lvgl/src/extra/widgets/menu/lv_menu.c ****     }
 320:lvgl/src/extra/widgets/menu/lv_menu.c ****     else {
 321:lvgl/src/extra/widgets/menu/lv_menu.c ****         /* Sidebar should be disabled */
 322:lvgl/src/extra/widgets/menu/lv_menu.c ****         if(menu->sidebar_generated) {
 323:lvgl/src/extra/widgets/menu/lv_menu.c ****             lv_obj_set_parent(menu->sidebar_page, menu->storage);
 324:lvgl/src/extra/widgets/menu/lv_menu.c ****             lv_obj_del(menu->sidebar);
 325:lvgl/src/extra/widgets/menu/lv_menu.c **** 
 326:lvgl/src/extra/widgets/menu/lv_menu.c ****             menu->sidebar_generated = false;
 327:lvgl/src/extra/widgets/menu/lv_menu.c ****         }
 328:lvgl/src/extra/widgets/menu/lv_menu.c ****     }
 329:lvgl/src/extra/widgets/menu/lv_menu.c **** 
 330:lvgl/src/extra/widgets/menu/lv_menu.c ****     menu->sidebar_page = page;
 331:lvgl/src/extra/widgets/menu/lv_menu.c ****     lv_menu_refr(obj);
 332:lvgl/src/extra/widgets/menu/lv_menu.c **** }
 333:lvgl/src/extra/widgets/menu/lv_menu.c **** 
 334:lvgl/src/extra/widgets/menu/lv_menu.c **** void lv_menu_set_mode_header(lv_obj_t * obj, lv_menu_mode_header_t mode_header)
 335:lvgl/src/extra/widgets/menu/lv_menu.c **** {
 336:lvgl/src/extra/widgets/menu/lv_menu.c ****     LV_ASSERT_OBJ(obj, MY_CLASS);
 337:lvgl/src/extra/widgets/menu/lv_menu.c **** 
 338:lvgl/src/extra/widgets/menu/lv_menu.c ****     lv_menu_t * menu = (lv_menu_t *)obj;
 339:lvgl/src/extra/widgets/menu/lv_menu.c **** 
 340:lvgl/src/extra/widgets/menu/lv_menu.c ****     if(menu->mode_header != mode_header) {
 341:lvgl/src/extra/widgets/menu/lv_menu.c ****         menu->mode_header = mode_header;
 342:lvgl/src/extra/widgets/menu/lv_menu.c ****         lv_menu_refr_main_header_mode(obj);
 343:lvgl/src/extra/widgets/menu/lv_menu.c ****         if(menu->sidebar_generated) lv_menu_refr_sidebar_header_mode(obj);
 344:lvgl/src/extra/widgets/menu/lv_menu.c ****     }
 345:lvgl/src/extra/widgets/menu/lv_menu.c **** }
 346:lvgl/src/extra/widgets/menu/lv_menu.c **** 
 347:lvgl/src/extra/widgets/menu/lv_menu.c **** void lv_menu_set_mode_root_back_btn(lv_obj_t * obj, lv_menu_mode_root_back_btn_t mode_root_back_btn
 348:lvgl/src/extra/widgets/menu/lv_menu.c **** {
 349:lvgl/src/extra/widgets/menu/lv_menu.c ****     LV_ASSERT_OBJ(obj, MY_CLASS);
 350:lvgl/src/extra/widgets/menu/lv_menu.c **** 
 351:lvgl/src/extra/widgets/menu/lv_menu.c ****     lv_menu_t * menu = (lv_menu_t *)obj;
 352:lvgl/src/extra/widgets/menu/lv_menu.c **** 
 353:lvgl/src/extra/widgets/menu/lv_menu.c ****     if(menu->mode_root_back_btn != mode_root_back_btn) {
 354:lvgl/src/extra/widgets/menu/lv_menu.c ****         menu->mode_root_back_btn = mode_root_back_btn;
 355:lvgl/src/extra/widgets/menu/lv_menu.c ****         lv_menu_refr(obj);
 356:lvgl/src/extra/widgets/menu/lv_menu.c ****     }
 357:lvgl/src/extra/widgets/menu/lv_menu.c **** }
 358:lvgl/src/extra/widgets/menu/lv_menu.c **** 
 359:lvgl/src/extra/widgets/menu/lv_menu.c **** void lv_menu_set_load_page_event(lv_obj_t * menu, lv_obj_t * obj, lv_obj_t * page)
 360:lvgl/src/extra/widgets/menu/lv_menu.c **** {
 361:lvgl/src/extra/widgets/menu/lv_menu.c ****     LV_ASSERT_OBJ(menu, MY_CLASS);
 362:lvgl/src/extra/widgets/menu/lv_menu.c **** 
 363:lvgl/src/extra/widgets/menu/lv_menu.c ****     /* Make the object clickable */
 364:lvgl/src/extra/widgets/menu/lv_menu.c ****     lv_obj_add_flag(obj, LV_OBJ_FLAG_CLICKABLE);
 365:lvgl/src/extra/widgets/menu/lv_menu.c **** 
 366:lvgl/src/extra/widgets/menu/lv_menu.c ****     /* Remove old event */
 367:lvgl/src/extra/widgets/menu/lv_menu.c ****     if(lv_obj_remove_event_cb(obj, lv_menu_load_page_event_cb)) {
 368:lvgl/src/extra/widgets/menu/lv_menu.c ****         lv_event_send(obj, LV_EVENT_DELETE, NULL);
 369:lvgl/src/extra/widgets/menu/lv_menu.c ****         lv_obj_remove_event_cb(obj, lv_menu_obj_del_event_cb);
 370:lvgl/src/extra/widgets/menu/lv_menu.c ****     }
 371:lvgl/src/extra/widgets/menu/lv_menu.c **** 
 372:lvgl/src/extra/widgets/menu/lv_menu.c ****     lv_menu_load_page_event_data_t * event_data = lv_mem_alloc(sizeof(lv_menu_load_page_event_data_
 373:lvgl/src/extra/widgets/menu/lv_menu.c ****     event_data->menu = menu;
ARM GAS  C:\usertemp\cc5ZvGn0.s 			page 8


 374:lvgl/src/extra/widgets/menu/lv_menu.c ****     event_data->page = page;
 375:lvgl/src/extra/widgets/menu/lv_menu.c **** 
 376:lvgl/src/extra/widgets/menu/lv_menu.c ****     lv_obj_add_event_cb(obj, lv_menu_load_page_event_cb, LV_EVENT_CLICKED, event_data);
 377:lvgl/src/extra/widgets/menu/lv_menu.c ****     lv_obj_add_event_cb(obj, lv_menu_obj_del_event_cb, LV_EVENT_DELETE, event_data);
 378:lvgl/src/extra/widgets/menu/lv_menu.c **** }
 379:lvgl/src/extra/widgets/menu/lv_menu.c **** 
 380:lvgl/src/extra/widgets/menu/lv_menu.c **** /*=====================
 381:lvgl/src/extra/widgets/menu/lv_menu.c ****  * Getter functions
 382:lvgl/src/extra/widgets/menu/lv_menu.c ****  *====================*/
 383:lvgl/src/extra/widgets/menu/lv_menu.c **** lv_obj_t * lv_menu_get_cur_main_page(lv_obj_t * obj)
 384:lvgl/src/extra/widgets/menu/lv_menu.c **** {
 385:lvgl/src/extra/widgets/menu/lv_menu.c ****     LV_ASSERT_OBJ(obj, MY_CLASS);
 386:lvgl/src/extra/widgets/menu/lv_menu.c **** 
 387:lvgl/src/extra/widgets/menu/lv_menu.c ****     lv_menu_t * menu = (lv_menu_t *)obj;
 388:lvgl/src/extra/widgets/menu/lv_menu.c ****     return menu->main_page;
 389:lvgl/src/extra/widgets/menu/lv_menu.c **** }
 390:lvgl/src/extra/widgets/menu/lv_menu.c **** 
 391:lvgl/src/extra/widgets/menu/lv_menu.c **** lv_obj_t * lv_menu_get_cur_sidebar_page(lv_obj_t * obj)
 392:lvgl/src/extra/widgets/menu/lv_menu.c **** {
 393:lvgl/src/extra/widgets/menu/lv_menu.c ****     LV_ASSERT_OBJ(obj, MY_CLASS);
 394:lvgl/src/extra/widgets/menu/lv_menu.c **** 
 395:lvgl/src/extra/widgets/menu/lv_menu.c ****     lv_menu_t * menu = (lv_menu_t *)obj;
 396:lvgl/src/extra/widgets/menu/lv_menu.c ****     return menu->sidebar_page;
 397:lvgl/src/extra/widgets/menu/lv_menu.c **** }
 398:lvgl/src/extra/widgets/menu/lv_menu.c **** 
 399:lvgl/src/extra/widgets/menu/lv_menu.c **** lv_obj_t * lv_menu_get_main_header(lv_obj_t * obj)
 400:lvgl/src/extra/widgets/menu/lv_menu.c **** {
 401:lvgl/src/extra/widgets/menu/lv_menu.c ****     LV_ASSERT_OBJ(obj, MY_CLASS);
 402:lvgl/src/extra/widgets/menu/lv_menu.c **** 
 403:lvgl/src/extra/widgets/menu/lv_menu.c ****     lv_menu_t * menu = (lv_menu_t *)obj;
 404:lvgl/src/extra/widgets/menu/lv_menu.c ****     return menu->main_header;
 405:lvgl/src/extra/widgets/menu/lv_menu.c **** }
 406:lvgl/src/extra/widgets/menu/lv_menu.c **** 
 407:lvgl/src/extra/widgets/menu/lv_menu.c **** lv_obj_t * lv_menu_get_main_header_back_btn(lv_obj_t * obj)
 408:lvgl/src/extra/widgets/menu/lv_menu.c **** {
 409:lvgl/src/extra/widgets/menu/lv_menu.c ****     LV_ASSERT_OBJ(obj, MY_CLASS);
 410:lvgl/src/extra/widgets/menu/lv_menu.c **** 
 411:lvgl/src/extra/widgets/menu/lv_menu.c ****     lv_menu_t * menu = (lv_menu_t *)obj;
 412:lvgl/src/extra/widgets/menu/lv_menu.c ****     return menu->main_header_back_btn;
 413:lvgl/src/extra/widgets/menu/lv_menu.c **** }
 414:lvgl/src/extra/widgets/menu/lv_menu.c **** 
 415:lvgl/src/extra/widgets/menu/lv_menu.c **** lv_obj_t * lv_menu_get_sidebar_header(lv_obj_t * obj)
 416:lvgl/src/extra/widgets/menu/lv_menu.c **** {
 417:lvgl/src/extra/widgets/menu/lv_menu.c ****     LV_ASSERT_OBJ(obj, MY_CLASS);
 418:lvgl/src/extra/widgets/menu/lv_menu.c **** 
 419:lvgl/src/extra/widgets/menu/lv_menu.c ****     lv_menu_t * menu = (lv_menu_t *)obj;
 420:lvgl/src/extra/widgets/menu/lv_menu.c ****     return menu->sidebar_header;
 421:lvgl/src/extra/widgets/menu/lv_menu.c **** }
 422:lvgl/src/extra/widgets/menu/lv_menu.c **** 
 423:lvgl/src/extra/widgets/menu/lv_menu.c **** lv_obj_t * lv_menu_get_sidebar_header_back_btn(lv_obj_t * obj)
 424:lvgl/src/extra/widgets/menu/lv_menu.c **** {
 425:lvgl/src/extra/widgets/menu/lv_menu.c ****     LV_ASSERT_OBJ(obj, MY_CLASS);
 426:lvgl/src/extra/widgets/menu/lv_menu.c **** 
 427:lvgl/src/extra/widgets/menu/lv_menu.c ****     lv_menu_t * menu = (lv_menu_t *)obj;
 428:lvgl/src/extra/widgets/menu/lv_menu.c ****     return menu->sidebar_header_back_btn;
 429:lvgl/src/extra/widgets/menu/lv_menu.c **** }
 430:lvgl/src/extra/widgets/menu/lv_menu.c **** 
ARM GAS  C:\usertemp\cc5ZvGn0.s 			page 9


 431:lvgl/src/extra/widgets/menu/lv_menu.c **** bool lv_menu_back_btn_is_root(lv_obj_t * menu, lv_obj_t * obj)
 432:lvgl/src/extra/widgets/menu/lv_menu.c **** {
 433:lvgl/src/extra/widgets/menu/lv_menu.c ****     LV_ASSERT_OBJ(menu, MY_CLASS);
 434:lvgl/src/extra/widgets/menu/lv_menu.c **** 
 435:lvgl/src/extra/widgets/menu/lv_menu.c ****     if(obj == ((lv_menu_t *)menu)->sidebar_header_back_btn) {
 436:lvgl/src/extra/widgets/menu/lv_menu.c ****         return true;
 437:lvgl/src/extra/widgets/menu/lv_menu.c ****     }
 438:lvgl/src/extra/widgets/menu/lv_menu.c **** 
 439:lvgl/src/extra/widgets/menu/lv_menu.c ****     if(obj == ((lv_menu_t *)menu)->main_header_back_btn && ((lv_menu_t *)menu)->prev_depth <= 1) {
 440:lvgl/src/extra/widgets/menu/lv_menu.c ****         return true;
 441:lvgl/src/extra/widgets/menu/lv_menu.c ****     }
 442:lvgl/src/extra/widgets/menu/lv_menu.c **** 
 443:lvgl/src/extra/widgets/menu/lv_menu.c ****     return false;
 444:lvgl/src/extra/widgets/menu/lv_menu.c **** }
 445:lvgl/src/extra/widgets/menu/lv_menu.c **** 
 446:lvgl/src/extra/widgets/menu/lv_menu.c **** void lv_menu_clear_history(lv_obj_t * obj)
 447:lvgl/src/extra/widgets/menu/lv_menu.c **** {
 448:lvgl/src/extra/widgets/menu/lv_menu.c ****     LV_ASSERT_OBJ(obj, MY_CLASS);
 449:lvgl/src/extra/widgets/menu/lv_menu.c **** 
 450:lvgl/src/extra/widgets/menu/lv_menu.c ****     lv_menu_t * menu = (lv_menu_t *)obj;
 451:lvgl/src/extra/widgets/menu/lv_menu.c ****     lv_ll_t * history_ll = &(menu->history_ll);
 452:lvgl/src/extra/widgets/menu/lv_menu.c **** 
 453:lvgl/src/extra/widgets/menu/lv_menu.c ****     _lv_ll_clear(history_ll);
 454:lvgl/src/extra/widgets/menu/lv_menu.c **** 
 455:lvgl/src/extra/widgets/menu/lv_menu.c ****     menu->cur_depth = 0;
 456:lvgl/src/extra/widgets/menu/lv_menu.c **** }
 457:lvgl/src/extra/widgets/menu/lv_menu.c **** 
 458:lvgl/src/extra/widgets/menu/lv_menu.c **** /**********************
 459:lvgl/src/extra/widgets/menu/lv_menu.c ****  *   STATIC FUNCTIONS
 460:lvgl/src/extra/widgets/menu/lv_menu.c ****  **********************/
 461:lvgl/src/extra/widgets/menu/lv_menu.c **** 
 462:lvgl/src/extra/widgets/menu/lv_menu.c **** static void lv_menu_constructor(const lv_obj_class_t * class_p, lv_obj_t * obj)
 463:lvgl/src/extra/widgets/menu/lv_menu.c **** {
 464:lvgl/src/extra/widgets/menu/lv_menu.c ****     LV_UNUSED(class_p);
 465:lvgl/src/extra/widgets/menu/lv_menu.c ****     LV_TRACE_OBJ_CREATE("begin");
 466:lvgl/src/extra/widgets/menu/lv_menu.c **** 
 467:lvgl/src/extra/widgets/menu/lv_menu.c ****     lv_obj_set_layout(obj, LV_LAYOUT_FLEX);
 468:lvgl/src/extra/widgets/menu/lv_menu.c ****     lv_obj_set_flex_flow(obj, LV_FLEX_FLOW_ROW);
 469:lvgl/src/extra/widgets/menu/lv_menu.c **** 
 470:lvgl/src/extra/widgets/menu/lv_menu.c ****     lv_menu_t * menu = (lv_menu_t *)obj;
 471:lvgl/src/extra/widgets/menu/lv_menu.c **** 
 472:lvgl/src/extra/widgets/menu/lv_menu.c ****     menu->mode_header = LV_MENU_HEADER_TOP_FIXED;
 473:lvgl/src/extra/widgets/menu/lv_menu.c ****     menu->mode_root_back_btn = LV_MENU_ROOT_BACK_BTN_DISABLED;
 474:lvgl/src/extra/widgets/menu/lv_menu.c ****     menu->cur_depth = 0;
 475:lvgl/src/extra/widgets/menu/lv_menu.c ****     menu->prev_depth = 0;
 476:lvgl/src/extra/widgets/menu/lv_menu.c ****     menu->sidebar_generated = false;
 477:lvgl/src/extra/widgets/menu/lv_menu.c **** 
 478:lvgl/src/extra/widgets/menu/lv_menu.c ****     _lv_ll_init(&(menu->history_ll), sizeof(lv_menu_history_t));
 479:lvgl/src/extra/widgets/menu/lv_menu.c **** 
 480:lvgl/src/extra/widgets/menu/lv_menu.c ****     menu->storage = lv_obj_create(obj);
 481:lvgl/src/extra/widgets/menu/lv_menu.c ****     lv_obj_add_flag(menu->storage, LV_OBJ_FLAG_HIDDEN);
 482:lvgl/src/extra/widgets/menu/lv_menu.c **** 
 483:lvgl/src/extra/widgets/menu/lv_menu.c ****     menu->sidebar = NULL;
 484:lvgl/src/extra/widgets/menu/lv_menu.c ****     menu->sidebar_header = NULL;
 485:lvgl/src/extra/widgets/menu/lv_menu.c ****     menu->sidebar_header_back_btn = NULL;
 486:lvgl/src/extra/widgets/menu/lv_menu.c ****     menu->sidebar_header_title = NULL;
 487:lvgl/src/extra/widgets/menu/lv_menu.c ****     menu->sidebar_page = NULL;
ARM GAS  C:\usertemp\cc5ZvGn0.s 			page 10


 488:lvgl/src/extra/widgets/menu/lv_menu.c **** 
 489:lvgl/src/extra/widgets/menu/lv_menu.c ****     lv_obj_t * main_cont = lv_obj_class_create_obj(&lv_menu_main_cont_class, obj);
 490:lvgl/src/extra/widgets/menu/lv_menu.c ****     lv_obj_class_init_obj(main_cont);
 491:lvgl/src/extra/widgets/menu/lv_menu.c ****     lv_obj_set_height(main_cont, LV_PCT(100));
 492:lvgl/src/extra/widgets/menu/lv_menu.c ****     lv_obj_set_flex_grow(main_cont, 1);
 493:lvgl/src/extra/widgets/menu/lv_menu.c ****     lv_obj_set_flex_flow(main_cont, LV_FLEX_FLOW_COLUMN);
 494:lvgl/src/extra/widgets/menu/lv_menu.c ****     lv_obj_add_flag(main_cont, LV_OBJ_FLAG_EVENT_BUBBLE);
 495:lvgl/src/extra/widgets/menu/lv_menu.c ****     lv_obj_clear_flag(main_cont, LV_OBJ_FLAG_CLICKABLE);
 496:lvgl/src/extra/widgets/menu/lv_menu.c ****     menu->main = main_cont;
 497:lvgl/src/extra/widgets/menu/lv_menu.c **** 
 498:lvgl/src/extra/widgets/menu/lv_menu.c ****     lv_obj_t * main_header = lv_obj_class_create_obj(&lv_menu_main_header_cont_class, main_cont);
 499:lvgl/src/extra/widgets/menu/lv_menu.c ****     lv_obj_class_init_obj(main_header);
 500:lvgl/src/extra/widgets/menu/lv_menu.c ****     lv_obj_set_size(main_header, LV_PCT(100), LV_SIZE_CONTENT);
 501:lvgl/src/extra/widgets/menu/lv_menu.c ****     lv_obj_set_flex_flow(main_header, LV_FLEX_FLOW_ROW);
 502:lvgl/src/extra/widgets/menu/lv_menu.c ****     lv_obj_set_flex_align(main_header, LV_FLEX_ALIGN_START, LV_FLEX_ALIGN_CENTER, LV_FLEX_ALIGN_CEN
 503:lvgl/src/extra/widgets/menu/lv_menu.c ****     lv_obj_clear_flag(main_header, LV_OBJ_FLAG_CLICKABLE);
 504:lvgl/src/extra/widgets/menu/lv_menu.c ****     lv_obj_add_flag(main_header, LV_OBJ_FLAG_EVENT_BUBBLE);
 505:lvgl/src/extra/widgets/menu/lv_menu.c ****     menu->main_header = main_header;
 506:lvgl/src/extra/widgets/menu/lv_menu.c **** 
 507:lvgl/src/extra/widgets/menu/lv_menu.c ****     /* Create the default simple back btn and title */
 508:lvgl/src/extra/widgets/menu/lv_menu.c ****     lv_obj_t * main_header_back_btn = lv_btn_create(menu->main_header);
 509:lvgl/src/extra/widgets/menu/lv_menu.c ****     lv_obj_add_event_cb(main_header_back_btn, lv_menu_back_event_cb, LV_EVENT_CLICKED, menu);
 510:lvgl/src/extra/widgets/menu/lv_menu.c ****     lv_obj_add_flag(main_header_back_btn, LV_OBJ_FLAG_EVENT_BUBBLE);
 511:lvgl/src/extra/widgets/menu/lv_menu.c ****     lv_obj_set_flex_flow(main_header_back_btn, LV_FLEX_FLOW_ROW);
 512:lvgl/src/extra/widgets/menu/lv_menu.c ****     menu->main_header_back_btn = main_header_back_btn;
 513:lvgl/src/extra/widgets/menu/lv_menu.c **** 
 514:lvgl/src/extra/widgets/menu/lv_menu.c ****     lv_obj_t * main_header_back_icon = lv_img_create(menu->main_header_back_btn);
 515:lvgl/src/extra/widgets/menu/lv_menu.c ****     lv_img_set_src(main_header_back_icon, LV_SYMBOL_LEFT);
 516:lvgl/src/extra/widgets/menu/lv_menu.c **** 
 517:lvgl/src/extra/widgets/menu/lv_menu.c ****     lv_obj_t * main_header_title = lv_label_create(menu->main_header);
 518:lvgl/src/extra/widgets/menu/lv_menu.c ****     lv_obj_add_flag(main_header_title, LV_OBJ_FLAG_HIDDEN);
 519:lvgl/src/extra/widgets/menu/lv_menu.c ****     menu->main_header_title = main_header_title;
 520:lvgl/src/extra/widgets/menu/lv_menu.c **** 
 521:lvgl/src/extra/widgets/menu/lv_menu.c ****     menu->main_page = NULL;
 522:lvgl/src/extra/widgets/menu/lv_menu.c ****     menu->selected_tab = NULL;
 523:lvgl/src/extra/widgets/menu/lv_menu.c **** 
 524:lvgl/src/extra/widgets/menu/lv_menu.c ****     lv_obj_add_event_cb(obj, lv_menu_value_changed_event_cb, LV_EVENT_VALUE_CHANGED, menu);
 525:lvgl/src/extra/widgets/menu/lv_menu.c **** 
 526:lvgl/src/extra/widgets/menu/lv_menu.c ****     LV_TRACE_OBJ_CREATE("finished");
 527:lvgl/src/extra/widgets/menu/lv_menu.c **** }
 528:lvgl/src/extra/widgets/menu/lv_menu.c **** 
 529:lvgl/src/extra/widgets/menu/lv_menu.c **** static void lv_menu_destructor(const lv_obj_class_t * class_p, lv_obj_t * obj)
 530:lvgl/src/extra/widgets/menu/lv_menu.c **** {
  28              		.loc 1 530 1 view -0
  29              		.cfi_startproc
  30              		@ args = 0, pretend = 0, frame = 0
  31              		@ frame_needed = 0, uses_anonymous_args = 0
  32              		.loc 1 530 1 is_stmt 0 view .LVU1
  33 0000 08B5     		push	{r3, lr}
  34              	.LCFI0:
  35              		.cfi_def_cfa_offset 8
  36              		.cfi_offset 3, -8
  37              		.cfi_offset 14, -4
 531:lvgl/src/extra/widgets/menu/lv_menu.c ****     LV_UNUSED(class_p);
  38              		.loc 1 531 5 is_stmt 1 view .LVU2
 532:lvgl/src/extra/widgets/menu/lv_menu.c ****     LV_TRACE_OBJ_CREATE("begin");
  39              		.loc 1 532 5 view .LVU3
ARM GAS  C:\usertemp\cc5ZvGn0.s 			page 11


  40              		.loc 1 532 5 view .LVU4
  41              		.loc 1 532 5 view .LVU5
 533:lvgl/src/extra/widgets/menu/lv_menu.c **** 
 534:lvgl/src/extra/widgets/menu/lv_menu.c ****     lv_menu_t * menu = (lv_menu_t *)obj;
  42              		.loc 1 534 5 view .LVU6
  43              	.LVL1:
 535:lvgl/src/extra/widgets/menu/lv_menu.c ****     lv_ll_t * history_ll = &(menu->history_ll);
  44              		.loc 1 535 5 view .LVU7
 536:lvgl/src/extra/widgets/menu/lv_menu.c **** 
 537:lvgl/src/extra/widgets/menu/lv_menu.c ****     _lv_ll_clear(history_ll);
  45              		.loc 1 537 5 view .LVU8
  46 0002 01F15400 		add	r0, r1, #84
  47              	.LVL2:
  48              		.loc 1 537 5 is_stmt 0 view .LVU9
  49 0006 FFF7FEFF 		bl	_lv_ll_clear
  50              	.LVL3:
 538:lvgl/src/extra/widgets/menu/lv_menu.c **** 
 539:lvgl/src/extra/widgets/menu/lv_menu.c ****     LV_TRACE_OBJ_CREATE("finished");
  51              		.loc 1 539 5 is_stmt 1 view .LVU10
  52              		.loc 1 539 5 view .LVU11
  53              		.loc 1 539 5 view .LVU12
 540:lvgl/src/extra/widgets/menu/lv_menu.c **** }
  54              		.loc 1 540 1 is_stmt 0 view .LVU13
  55 000a 08BD     		pop	{r3, pc}
  56              		.cfi_endproc
  57              	.LFE181:
  59              		.section	.text.lv_menu_section_constructor,"ax",%progbits
  60              		.align	1
  61              		.syntax unified
  62              		.thumb
  63              		.thumb_func
  65              	lv_menu_section_constructor:
  66              	.LVL4:
  67              	.LFB185:
 541:lvgl/src/extra/widgets/menu/lv_menu.c **** 
 542:lvgl/src/extra/widgets/menu/lv_menu.c **** static void lv_menu_page_constructor(const lv_obj_class_t * class_p, lv_obj_t * obj)
 543:lvgl/src/extra/widgets/menu/lv_menu.c **** {
 544:lvgl/src/extra/widgets/menu/lv_menu.c ****     LV_UNUSED(class_p);
 545:lvgl/src/extra/widgets/menu/lv_menu.c **** 
 546:lvgl/src/extra/widgets/menu/lv_menu.c ****     lv_menu_t * menu = (lv_menu_t *)lv_obj_get_parent(obj);
 547:lvgl/src/extra/widgets/menu/lv_menu.c **** 
 548:lvgl/src/extra/widgets/menu/lv_menu.c ****     lv_obj_set_parent(obj, ((lv_menu_t *)menu)->storage);
 549:lvgl/src/extra/widgets/menu/lv_menu.c ****     lv_obj_set_flex_flow(obj, LV_FLEX_FLOW_COLUMN);
 550:lvgl/src/extra/widgets/menu/lv_menu.c ****     lv_obj_set_flex_align(obj, LV_FLEX_ALIGN_START, LV_FLEX_ALIGN_CENTER, LV_FLEX_ALIGN_CENTER);
 551:lvgl/src/extra/widgets/menu/lv_menu.c ****     lv_obj_add_flag(obj, LV_OBJ_FLAG_EVENT_BUBBLE);
 552:lvgl/src/extra/widgets/menu/lv_menu.c **** }
 553:lvgl/src/extra/widgets/menu/lv_menu.c **** 
 554:lvgl/src/extra/widgets/menu/lv_menu.c **** static void lv_menu_page_destructor(const lv_obj_class_t * class_p, lv_obj_t * obj)
 555:lvgl/src/extra/widgets/menu/lv_menu.c **** {
 556:lvgl/src/extra/widgets/menu/lv_menu.c ****     LV_UNUSED(class_p);
 557:lvgl/src/extra/widgets/menu/lv_menu.c **** 
 558:lvgl/src/extra/widgets/menu/lv_menu.c ****     lv_menu_page_t * page = (lv_menu_page_t *)obj;
 559:lvgl/src/extra/widgets/menu/lv_menu.c **** 
 560:lvgl/src/extra/widgets/menu/lv_menu.c ****     if(page->title != NULL) {
 561:lvgl/src/extra/widgets/menu/lv_menu.c ****         lv_mem_free(page->title);
 562:lvgl/src/extra/widgets/menu/lv_menu.c ****         page->title = NULL;
 563:lvgl/src/extra/widgets/menu/lv_menu.c ****     }
ARM GAS  C:\usertemp\cc5ZvGn0.s 			page 12


 564:lvgl/src/extra/widgets/menu/lv_menu.c **** }
 565:lvgl/src/extra/widgets/menu/lv_menu.c **** 
 566:lvgl/src/extra/widgets/menu/lv_menu.c **** static void lv_menu_cont_constructor(const lv_obj_class_t * class_p, lv_obj_t * obj)
 567:lvgl/src/extra/widgets/menu/lv_menu.c **** {
 568:lvgl/src/extra/widgets/menu/lv_menu.c ****     LV_UNUSED(class_p);
 569:lvgl/src/extra/widgets/menu/lv_menu.c ****     lv_obj_set_flex_flow(obj, LV_FLEX_FLOW_ROW);
 570:lvgl/src/extra/widgets/menu/lv_menu.c ****     lv_obj_set_flex_align(obj, LV_FLEX_ALIGN_START, LV_FLEX_ALIGN_CENTER, LV_FLEX_ALIGN_CENTER);
 571:lvgl/src/extra/widgets/menu/lv_menu.c ****     lv_obj_clear_flag(obj, LV_OBJ_FLAG_CLICKABLE);
 572:lvgl/src/extra/widgets/menu/lv_menu.c **** }
 573:lvgl/src/extra/widgets/menu/lv_menu.c **** 
 574:lvgl/src/extra/widgets/menu/lv_menu.c **** static void lv_menu_section_constructor(const lv_obj_class_t * class_p, lv_obj_t * obj)
 575:lvgl/src/extra/widgets/menu/lv_menu.c **** {
  68              		.loc 1 575 1 is_stmt 1 view -0
  69              		.cfi_startproc
  70              		@ args = 0, pretend = 0, frame = 0
  71              		@ frame_needed = 0, uses_anonymous_args = 0
  72              		.loc 1 575 1 is_stmt 0 view .LVU15
  73 0000 10B5     		push	{r4, lr}
  74              	.LCFI1:
  75              		.cfi_def_cfa_offset 8
  76              		.cfi_offset 4, -8
  77              		.cfi_offset 14, -4
  78 0002 0C46     		mov	r4, r1
 576:lvgl/src/extra/widgets/menu/lv_menu.c ****     LV_UNUSED(class_p);
  79              		.loc 1 576 5 is_stmt 1 view .LVU16
 577:lvgl/src/extra/widgets/menu/lv_menu.c ****     lv_obj_set_flex_flow(obj, LV_FLEX_FLOW_COLUMN);
  80              		.loc 1 577 5 view .LVU17
  81 0004 0121     		movs	r1, #1
  82              	.LVL5:
  83              		.loc 1 577 5 is_stmt 0 view .LVU18
  84 0006 2046     		mov	r0, r4
  85              	.LVL6:
  86              		.loc 1 577 5 view .LVU19
  87 0008 FFF7FEFF 		bl	lv_obj_set_flex_flow
  88              	.LVL7:
 578:lvgl/src/extra/widgets/menu/lv_menu.c ****     lv_obj_clear_flag(obj, LV_OBJ_FLAG_CLICKABLE);
  89              		.loc 1 578 5 is_stmt 1 view .LVU20
  90 000c 0221     		movs	r1, #2
  91 000e 2046     		mov	r0, r4
  92 0010 FFF7FEFF 		bl	lv_obj_clear_flag
  93              	.LVL8:
 579:lvgl/src/extra/widgets/menu/lv_menu.c **** }
  94              		.loc 1 579 1 is_stmt 0 view .LVU21
  95 0014 10BD     		pop	{r4, pc}
  96              		.loc 1 579 1 view .LVU22
  97              		.cfi_endproc
  98              	.LFE185:
 100              		.section	.text.lv_menu_cont_constructor,"ax",%progbits
 101              		.align	1
 102              		.syntax unified
 103              		.thumb
 104              		.thumb_func
 106              	lv_menu_cont_constructor:
 107              	.LVL9:
 108              	.LFB184:
 567:lvgl/src/extra/widgets/menu/lv_menu.c ****     LV_UNUSED(class_p);
 109              		.loc 1 567 1 is_stmt 1 view -0
ARM GAS  C:\usertemp\cc5ZvGn0.s 			page 13


 110              		.cfi_startproc
 111              		@ args = 0, pretend = 0, frame = 0
 112              		@ frame_needed = 0, uses_anonymous_args = 0
 567:lvgl/src/extra/widgets/menu/lv_menu.c ****     LV_UNUSED(class_p);
 113              		.loc 1 567 1 is_stmt 0 view .LVU24
 114 0000 10B5     		push	{r4, lr}
 115              	.LCFI2:
 116              		.cfi_def_cfa_offset 8
 117              		.cfi_offset 4, -8
 118              		.cfi_offset 14, -4
 119 0002 0C46     		mov	r4, r1
 568:lvgl/src/extra/widgets/menu/lv_menu.c ****     lv_obj_set_flex_flow(obj, LV_FLEX_FLOW_ROW);
 120              		.loc 1 568 5 is_stmt 1 view .LVU25
 569:lvgl/src/extra/widgets/menu/lv_menu.c ****     lv_obj_set_flex_align(obj, LV_FLEX_ALIGN_START, LV_FLEX_ALIGN_CENTER, LV_FLEX_ALIGN_CENTER);
 121              		.loc 1 569 5 view .LVU26
 122 0004 0021     		movs	r1, #0
 123              	.LVL10:
 569:lvgl/src/extra/widgets/menu/lv_menu.c ****     lv_obj_set_flex_align(obj, LV_FLEX_ALIGN_START, LV_FLEX_ALIGN_CENTER, LV_FLEX_ALIGN_CENTER);
 124              		.loc 1 569 5 is_stmt 0 view .LVU27
 125 0006 2046     		mov	r0, r4
 126              	.LVL11:
 569:lvgl/src/extra/widgets/menu/lv_menu.c ****     lv_obj_set_flex_align(obj, LV_FLEX_ALIGN_START, LV_FLEX_ALIGN_CENTER, LV_FLEX_ALIGN_CENTER);
 127              		.loc 1 569 5 view .LVU28
 128 0008 FFF7FEFF 		bl	lv_obj_set_flex_flow
 129              	.LVL12:
 570:lvgl/src/extra/widgets/menu/lv_menu.c ****     lv_obj_clear_flag(obj, LV_OBJ_FLAG_CLICKABLE);
 130              		.loc 1 570 5 is_stmt 1 view .LVU29
 131 000c 0223     		movs	r3, #2
 132 000e 1A46     		mov	r2, r3
 133 0010 0021     		movs	r1, #0
 134 0012 2046     		mov	r0, r4
 135 0014 FFF7FEFF 		bl	lv_obj_set_flex_align
 136              	.LVL13:
 571:lvgl/src/extra/widgets/menu/lv_menu.c **** }
 137              		.loc 1 571 5 view .LVU30
 138 0018 0221     		movs	r1, #2
 139 001a 2046     		mov	r0, r4
 140 001c FFF7FEFF 		bl	lv_obj_clear_flag
 141              	.LVL14:
 572:lvgl/src/extra/widgets/menu/lv_menu.c **** 
 142              		.loc 1 572 1 is_stmt 0 view .LVU31
 143 0020 10BD     		pop	{r4, pc}
 572:lvgl/src/extra/widgets/menu/lv_menu.c **** 
 144              		.loc 1 572 1 view .LVU32
 145              		.cfi_endproc
 146              	.LFE184:
 148              		.section	.rodata.lv_menu_constructor.str1.4,"aMS",%progbits,1
 149              		.align	2
 150              	.LC0:
 151 0000 EF819300 		.ascii	"\357\201\223\000"
 152              		.section	.text.lv_menu_constructor,"ax",%progbits
 153              		.align	1
 154              		.syntax unified
 155              		.thumb
 156              		.thumb_func
 158              	lv_menu_constructor:
 159              	.LVL15:
ARM GAS  C:\usertemp\cc5ZvGn0.s 			page 14


 160              	.LFB180:
 463:lvgl/src/extra/widgets/menu/lv_menu.c ****     LV_UNUSED(class_p);
 161              		.loc 1 463 1 is_stmt 1 view -0
 162              		.cfi_startproc
 163              		@ args = 0, pretend = 0, frame = 0
 164              		@ frame_needed = 0, uses_anonymous_args = 0
 463:lvgl/src/extra/widgets/menu/lv_menu.c ****     LV_UNUSED(class_p);
 165              		.loc 1 463 1 is_stmt 0 view .LVU34
 166 0000 70B5     		push	{r4, r5, r6, lr}
 167              	.LCFI3:
 168              		.cfi_def_cfa_offset 16
 169              		.cfi_offset 4, -16
 170              		.cfi_offset 5, -12
 171              		.cfi_offset 6, -8
 172              		.cfi_offset 14, -4
 173 0002 0C46     		mov	r4, r1
 464:lvgl/src/extra/widgets/menu/lv_menu.c ****     LV_TRACE_OBJ_CREATE("begin");
 174              		.loc 1 464 5 is_stmt 1 view .LVU35
 465:lvgl/src/extra/widgets/menu/lv_menu.c **** 
 175              		.loc 1 465 5 view .LVU36
 465:lvgl/src/extra/widgets/menu/lv_menu.c **** 
 176              		.loc 1 465 5 view .LVU37
 465:lvgl/src/extra/widgets/menu/lv_menu.c **** 
 177              		.loc 1 465 5 view .LVU38
 467:lvgl/src/extra/widgets/menu/lv_menu.c ****     lv_obj_set_flex_flow(obj, LV_FLEX_FLOW_ROW);
 178              		.loc 1 467 5 view .LVU39
 179 0004 4C4B     		ldr	r3, .L9
 180 0006 1968     		ldr	r1, [r3]
 181              	.LVL16:
 467:lvgl/src/extra/widgets/menu/lv_menu.c ****     lv_obj_set_flex_flow(obj, LV_FLEX_FLOW_ROW);
 182              		.loc 1 467 5 is_stmt 0 view .LVU40
 183 0008 2046     		mov	r0, r4
 184              	.LVL17:
 467:lvgl/src/extra/widgets/menu/lv_menu.c ****     lv_obj_set_flex_flow(obj, LV_FLEX_FLOW_ROW);
 185              		.loc 1 467 5 view .LVU41
 186 000a FFF7FEFF 		bl	lv_obj_set_layout
 187              	.LVL18:
 468:lvgl/src/extra/widgets/menu/lv_menu.c **** 
 188              		.loc 1 468 5 is_stmt 1 view .LVU42
 189 000e 0021     		movs	r1, #0
 190 0010 2046     		mov	r0, r4
 191 0012 FFF7FEFF 		bl	lv_obj_set_flex_flow
 192              	.LVL19:
 470:lvgl/src/extra/widgets/menu/lv_menu.c **** 
 193              		.loc 1 470 5 view .LVU43
 472:lvgl/src/extra/widgets/menu/lv_menu.c ****     menu->mode_root_back_btn = LV_MENU_ROOT_BACK_BTN_DISABLED;
 194              		.loc 1 472 5 view .LVU44
 472:lvgl/src/extra/widgets/menu/lv_menu.c ****     menu->mode_root_back_btn = LV_MENU_ROOT_BACK_BTN_DISABLED;
 195              		.loc 1 472 23 is_stmt 0 view .LVU45
 196 0016 94F86230 		ldrb	r3, [r4, #98]	@ zero_extendqisi2
 197 001a 23F00603 		bic	r3, r3, #6
 198 001e 84F86230 		strb	r3, [r4, #98]
 473:lvgl/src/extra/widgets/menu/lv_menu.c ****     menu->cur_depth = 0;
 199              		.loc 1 473 5 is_stmt 1 view .LVU46
 473:lvgl/src/extra/widgets/menu/lv_menu.c ****     menu->cur_depth = 0;
 200              		.loc 1 473 30 is_stmt 0 view .LVU47
 201 0022 DBB2     		uxtb	r3, r3
ARM GAS  C:\usertemp\cc5ZvGn0.s 			page 15


 202 0024 23F00803 		bic	r3, r3, #8
 203 0028 84F86230 		strb	r3, [r4, #98]
 474:lvgl/src/extra/widgets/menu/lv_menu.c ****     menu->prev_depth = 0;
 204              		.loc 1 474 5 is_stmt 1 view .LVU48
 474:lvgl/src/extra/widgets/menu/lv_menu.c ****     menu->prev_depth = 0;
 205              		.loc 1 474 21 is_stmt 0 view .LVU49
 206 002c 0025     		movs	r5, #0
 207 002e 84F86050 		strb	r5, [r4, #96]
 475:lvgl/src/extra/widgets/menu/lv_menu.c ****     menu->sidebar_generated = false;
 208              		.loc 1 475 5 is_stmt 1 view .LVU50
 475:lvgl/src/extra/widgets/menu/lv_menu.c ****     menu->sidebar_generated = false;
 209              		.loc 1 475 22 is_stmt 0 view .LVU51
 210 0032 84F86150 		strb	r5, [r4, #97]
 476:lvgl/src/extra/widgets/menu/lv_menu.c **** 
 211              		.loc 1 476 5 is_stmt 1 view .LVU52
 476:lvgl/src/extra/widgets/menu/lv_menu.c **** 
 212              		.loc 1 476 29 is_stmt 0 view .LVU53
 213 0036 DBB2     		uxtb	r3, r3
 214 0038 65F30003 		bfi	r3, r5, #0, #1
 215 003c 84F86230 		strb	r3, [r4, #98]
 478:lvgl/src/extra/widgets/menu/lv_menu.c **** 
 216              		.loc 1 478 5 is_stmt 1 view .LVU54
 217 0040 0421     		movs	r1, #4
 218 0042 04F15400 		add	r0, r4, #84
 219 0046 FFF7FEFF 		bl	_lv_ll_init
 220              	.LVL20:
 480:lvgl/src/extra/widgets/menu/lv_menu.c ****     lv_obj_add_flag(menu->storage, LV_OBJ_FLAG_HIDDEN);
 221              		.loc 1 480 5 view .LVU55
 480:lvgl/src/extra/widgets/menu/lv_menu.c ****     lv_obj_add_flag(menu->storage, LV_OBJ_FLAG_HIDDEN);
 222              		.loc 1 480 21 is_stmt 0 view .LVU56
 223 004a 2046     		mov	r0, r4
 224 004c FFF7FEFF 		bl	lv_obj_create
 225              	.LVL21:
 480:lvgl/src/extra/widgets/menu/lv_menu.c ****     lv_obj_add_flag(menu->storage, LV_OBJ_FLAG_HIDDEN);
 226              		.loc 1 480 19 discriminator 1 view .LVU57
 227 0050 6062     		str	r0, [r4, #36]
 481:lvgl/src/extra/widgets/menu/lv_menu.c **** 
 228              		.loc 1 481 5 is_stmt 1 view .LVU58
 229 0052 0121     		movs	r1, #1
 230 0054 FFF7FEFF 		bl	lv_obj_add_flag
 231              	.LVL22:
 483:lvgl/src/extra/widgets/menu/lv_menu.c ****     menu->sidebar_header = NULL;
 232              		.loc 1 483 5 view .LVU59
 483:lvgl/src/extra/widgets/menu/lv_menu.c ****     menu->sidebar_header = NULL;
 233              		.loc 1 483 19 is_stmt 0 view .LVU60
 234 0058 E563     		str	r5, [r4, #60]
 484:lvgl/src/extra/widgets/menu/lv_menu.c ****     menu->sidebar_header_back_btn = NULL;
 235              		.loc 1 484 5 is_stmt 1 view .LVU61
 484:lvgl/src/extra/widgets/menu/lv_menu.c ****     menu->sidebar_header_back_btn = NULL;
 236              		.loc 1 484 26 is_stmt 0 view .LVU62
 237 005a 6564     		str	r5, [r4, #68]
 485:lvgl/src/extra/widgets/menu/lv_menu.c ****     menu->sidebar_header_title = NULL;
 238              		.loc 1 485 5 is_stmt 1 view .LVU63
 485:lvgl/src/extra/widgets/menu/lv_menu.c ****     menu->sidebar_header_title = NULL;
 239              		.loc 1 485 35 is_stmt 0 view .LVU64
 240 005c A564     		str	r5, [r4, #72]
 486:lvgl/src/extra/widgets/menu/lv_menu.c ****     menu->sidebar_page = NULL;
ARM GAS  C:\usertemp\cc5ZvGn0.s 			page 16


 241              		.loc 1 486 5 is_stmt 1 view .LVU65
 486:lvgl/src/extra/widgets/menu/lv_menu.c ****     menu->sidebar_page = NULL;
 242              		.loc 1 486 32 is_stmt 0 view .LVU66
 243 005e E564     		str	r5, [r4, #76]
 487:lvgl/src/extra/widgets/menu/lv_menu.c **** 
 244              		.loc 1 487 5 is_stmt 1 view .LVU67
 487:lvgl/src/extra/widgets/menu/lv_menu.c **** 
 245              		.loc 1 487 24 is_stmt 0 view .LVU68
 246 0060 2564     		str	r5, [r4, #64]
 489:lvgl/src/extra/widgets/menu/lv_menu.c ****     lv_obj_class_init_obj(main_cont);
 247              		.loc 1 489 5 is_stmt 1 view .LVU69
 489:lvgl/src/extra/widgets/menu/lv_menu.c ****     lv_obj_class_init_obj(main_cont);
 248              		.loc 1 489 28 is_stmt 0 view .LVU70
 249 0062 2146     		mov	r1, r4
 250 0064 3548     		ldr	r0, .L9+4
 251 0066 FFF7FEFF 		bl	lv_obj_class_create_obj
 252              	.LVL23:
 253 006a 0646     		mov	r6, r0
 254              	.LVL24:
 490:lvgl/src/extra/widgets/menu/lv_menu.c ****     lv_obj_set_height(main_cont, LV_PCT(100));
 255              		.loc 1 490 5 is_stmt 1 view .LVU71
 256 006c FFF7FEFF 		bl	lv_obj_class_init_obj
 257              	.LVL25:
 491:lvgl/src/extra/widgets/menu/lv_menu.c ****     lv_obj_set_flex_grow(main_cont, 1);
 258              		.loc 1 491 5 view .LVU72
 259 0070 42F26401 		movw	r1, #8292
 260 0074 3046     		mov	r0, r6
 261 0076 FFF7FEFF 		bl	lv_obj_set_height
 262              	.LVL26:
 492:lvgl/src/extra/widgets/menu/lv_menu.c ****     lv_obj_set_flex_flow(main_cont, LV_FLEX_FLOW_COLUMN);
 263              		.loc 1 492 5 view .LVU73
 264 007a 0121     		movs	r1, #1
 265 007c 3046     		mov	r0, r6
 266 007e FFF7FEFF 		bl	lv_obj_set_flex_grow
 267              	.LVL27:
 493:lvgl/src/extra/widgets/menu/lv_menu.c ****     lv_obj_add_flag(main_cont, LV_OBJ_FLAG_EVENT_BUBBLE);
 268              		.loc 1 493 5 view .LVU74
 269 0082 0121     		movs	r1, #1
 270 0084 3046     		mov	r0, r6
 271 0086 FFF7FEFF 		bl	lv_obj_set_flex_flow
 272              	.LVL28:
 494:lvgl/src/extra/widgets/menu/lv_menu.c ****     lv_obj_clear_flag(main_cont, LV_OBJ_FLAG_CLICKABLE);
 273              		.loc 1 494 5 view .LVU75
 274 008a 4FF48041 		mov	r1, #16384
 275 008e 3046     		mov	r0, r6
 276 0090 FFF7FEFF 		bl	lv_obj_add_flag
 277              	.LVL29:
 495:lvgl/src/extra/widgets/menu/lv_menu.c ****     menu->main = main_cont;
 278              		.loc 1 495 5 view .LVU76
 279 0094 0221     		movs	r1, #2
 280 0096 3046     		mov	r0, r6
 281 0098 FFF7FEFF 		bl	lv_obj_clear_flag
 282              	.LVL30:
 496:lvgl/src/extra/widgets/menu/lv_menu.c **** 
 283              		.loc 1 496 5 view .LVU77
 496:lvgl/src/extra/widgets/menu/lv_menu.c **** 
 284              		.loc 1 496 16 is_stmt 0 view .LVU78
ARM GAS  C:\usertemp\cc5ZvGn0.s 			page 17


 285 009c A662     		str	r6, [r4, #40]
 498:lvgl/src/extra/widgets/menu/lv_menu.c ****     lv_obj_class_init_obj(main_header);
 286              		.loc 1 498 5 is_stmt 1 view .LVU79
 498:lvgl/src/extra/widgets/menu/lv_menu.c ****     lv_obj_class_init_obj(main_header);
 287              		.loc 1 498 30 is_stmt 0 view .LVU80
 288 009e 3146     		mov	r1, r6
 289 00a0 2748     		ldr	r0, .L9+8
 290 00a2 FFF7FEFF 		bl	lv_obj_class_create_obj
 291              	.LVL31:
 292 00a6 0646     		mov	r6, r0
 293              	.LVL32:
 499:lvgl/src/extra/widgets/menu/lv_menu.c ****     lv_obj_set_size(main_header, LV_PCT(100), LV_SIZE_CONTENT);
 294              		.loc 1 499 5 is_stmt 1 view .LVU81
 295 00a8 FFF7FEFF 		bl	lv_obj_class_init_obj
 296              	.LVL33:
 500:lvgl/src/extra/widgets/menu/lv_menu.c ****     lv_obj_set_flex_flow(main_header, LV_FLEX_FLOW_ROW);
 297              		.loc 1 500 5 view .LVU82
 298 00ac 42F2D172 		movw	r2, #10193
 299 00b0 42F26401 		movw	r1, #8292
 300 00b4 3046     		mov	r0, r6
 301 00b6 FFF7FEFF 		bl	lv_obj_set_size
 302              	.LVL34:
 501:lvgl/src/extra/widgets/menu/lv_menu.c ****     lv_obj_set_flex_align(main_header, LV_FLEX_ALIGN_START, LV_FLEX_ALIGN_CENTER, LV_FLEX_ALIGN_CEN
 303              		.loc 1 501 5 view .LVU83
 304 00ba 2946     		mov	r1, r5
 305 00bc 3046     		mov	r0, r6
 306 00be FFF7FEFF 		bl	lv_obj_set_flex_flow
 307              	.LVL35:
 502:lvgl/src/extra/widgets/menu/lv_menu.c ****     lv_obj_clear_flag(main_header, LV_OBJ_FLAG_CLICKABLE);
 308              		.loc 1 502 5 view .LVU84
 309 00c2 0223     		movs	r3, #2
 310 00c4 1A46     		mov	r2, r3
 311 00c6 2946     		mov	r1, r5
 312 00c8 3046     		mov	r0, r6
 313 00ca FFF7FEFF 		bl	lv_obj_set_flex_align
 314              	.LVL36:
 503:lvgl/src/extra/widgets/menu/lv_menu.c ****     lv_obj_add_flag(main_header, LV_OBJ_FLAG_EVENT_BUBBLE);
 315              		.loc 1 503 5 view .LVU85
 316 00ce 0221     		movs	r1, #2
 317 00d0 3046     		mov	r0, r6
 318 00d2 FFF7FEFF 		bl	lv_obj_clear_flag
 319              	.LVL37:
 504:lvgl/src/extra/widgets/menu/lv_menu.c ****     menu->main_header = main_header;
 320              		.loc 1 504 5 view .LVU86
 321 00d6 4FF48041 		mov	r1, #16384
 322 00da 3046     		mov	r0, r6
 323 00dc FFF7FEFF 		bl	lv_obj_add_flag
 324              	.LVL38:
 505:lvgl/src/extra/widgets/menu/lv_menu.c **** 
 325              		.loc 1 505 5 view .LVU87
 505:lvgl/src/extra/widgets/menu/lv_menu.c **** 
 326              		.loc 1 505 23 is_stmt 0 view .LVU88
 327 00e0 2663     		str	r6, [r4, #48]
 508:lvgl/src/extra/widgets/menu/lv_menu.c ****     lv_obj_add_event_cb(main_header_back_btn, lv_menu_back_event_cb, LV_EVENT_CLICKED, menu);
 328              		.loc 1 508 5 is_stmt 1 view .LVU89
 508:lvgl/src/extra/widgets/menu/lv_menu.c ****     lv_obj_add_event_cb(main_header_back_btn, lv_menu_back_event_cb, LV_EVENT_CLICKED, menu);
 329              		.loc 1 508 39 is_stmt 0 view .LVU90
ARM GAS  C:\usertemp\cc5ZvGn0.s 			page 18


 330 00e2 3046     		mov	r0, r6
 331 00e4 FFF7FEFF 		bl	lv_btn_create
 332              	.LVL39:
 333 00e8 0646     		mov	r6, r0
 334              	.LVL40:
 509:lvgl/src/extra/widgets/menu/lv_menu.c ****     lv_obj_add_flag(main_header_back_btn, LV_OBJ_FLAG_EVENT_BUBBLE);
 335              		.loc 1 509 5 is_stmt 1 view .LVU91
 336 00ea 2346     		mov	r3, r4
 337 00ec 0722     		movs	r2, #7
 338 00ee 1549     		ldr	r1, .L9+12
 339 00f0 FFF7FEFF 		bl	lv_obj_add_event_cb
 340              	.LVL41:
 510:lvgl/src/extra/widgets/menu/lv_menu.c ****     lv_obj_set_flex_flow(main_header_back_btn, LV_FLEX_FLOW_ROW);
 341              		.loc 1 510 5 view .LVU92
 342 00f4 4FF48041 		mov	r1, #16384
 343 00f8 3046     		mov	r0, r6
 344 00fa FFF7FEFF 		bl	lv_obj_add_flag
 345              	.LVL42:
 511:lvgl/src/extra/widgets/menu/lv_menu.c ****     menu->main_header_back_btn = main_header_back_btn;
 346              		.loc 1 511 5 view .LVU93
 347 00fe 2946     		mov	r1, r5
 348 0100 3046     		mov	r0, r6
 349 0102 FFF7FEFF 		bl	lv_obj_set_flex_flow
 350              	.LVL43:
 512:lvgl/src/extra/widgets/menu/lv_menu.c **** 
 351              		.loc 1 512 5 view .LVU94
 512:lvgl/src/extra/widgets/menu/lv_menu.c **** 
 352              		.loc 1 512 32 is_stmt 0 view .LVU95
 353 0106 6663     		str	r6, [r4, #52]
 514:lvgl/src/extra/widgets/menu/lv_menu.c ****     lv_img_set_src(main_header_back_icon, LV_SYMBOL_LEFT);
 354              		.loc 1 514 5 is_stmt 1 view .LVU96
 514:lvgl/src/extra/widgets/menu/lv_menu.c ****     lv_img_set_src(main_header_back_icon, LV_SYMBOL_LEFT);
 355              		.loc 1 514 40 is_stmt 0 view .LVU97
 356 0108 3046     		mov	r0, r6
 357 010a FFF7FEFF 		bl	lv_img_create
 358              	.LVL44:
 515:lvgl/src/extra/widgets/menu/lv_menu.c **** 
 359              		.loc 1 515 5 is_stmt 1 view .LVU98
 360 010e 0E49     		ldr	r1, .L9+16
 361 0110 FFF7FEFF 		bl	lv_img_set_src
 362              	.LVL45:
 517:lvgl/src/extra/widgets/menu/lv_menu.c ****     lv_obj_add_flag(main_header_title, LV_OBJ_FLAG_HIDDEN);
 363              		.loc 1 517 5 view .LVU99
 517:lvgl/src/extra/widgets/menu/lv_menu.c ****     lv_obj_add_flag(main_header_title, LV_OBJ_FLAG_HIDDEN);
 364              		.loc 1 517 36 is_stmt 0 view .LVU100
 365 0114 206B     		ldr	r0, [r4, #48]
 366 0116 FFF7FEFF 		bl	lv_label_create
 367              	.LVL46:
 368 011a 0646     		mov	r6, r0
 369              	.LVL47:
 518:lvgl/src/extra/widgets/menu/lv_menu.c ****     menu->main_header_title = main_header_title;
 370              		.loc 1 518 5 is_stmt 1 view .LVU101
 371 011c 0121     		movs	r1, #1
 372 011e FFF7FEFF 		bl	lv_obj_add_flag
 373              	.LVL48:
 519:lvgl/src/extra/widgets/menu/lv_menu.c **** 
 374              		.loc 1 519 5 view .LVU102
ARM GAS  C:\usertemp\cc5ZvGn0.s 			page 19


 519:lvgl/src/extra/widgets/menu/lv_menu.c **** 
 375              		.loc 1 519 29 is_stmt 0 view .LVU103
 376 0122 A663     		str	r6, [r4, #56]
 521:lvgl/src/extra/widgets/menu/lv_menu.c ****     menu->selected_tab = NULL;
 377              		.loc 1 521 5 is_stmt 1 view .LVU104
 521:lvgl/src/extra/widgets/menu/lv_menu.c ****     menu->selected_tab = NULL;
 378              		.loc 1 521 21 is_stmt 0 view .LVU105
 379 0124 E562     		str	r5, [r4, #44]
 522:lvgl/src/extra/widgets/menu/lv_menu.c **** 
 380              		.loc 1 522 5 is_stmt 1 view .LVU106
 522:lvgl/src/extra/widgets/menu/lv_menu.c **** 
 381              		.loc 1 522 24 is_stmt 0 view .LVU107
 382 0126 2565     		str	r5, [r4, #80]
 524:lvgl/src/extra/widgets/menu/lv_menu.c **** 
 383              		.loc 1 524 5 is_stmt 1 view .LVU108
 384 0128 2346     		mov	r3, r4
 385 012a 1C22     		movs	r2, #28
 386 012c 0749     		ldr	r1, .L9+20
 387 012e 2046     		mov	r0, r4
 388 0130 FFF7FEFF 		bl	lv_obj_add_event_cb
 389              	.LVL49:
 526:lvgl/src/extra/widgets/menu/lv_menu.c **** }
 390              		.loc 1 526 5 view .LVU109
 526:lvgl/src/extra/widgets/menu/lv_menu.c **** }
 391              		.loc 1 526 5 view .LVU110
 526:lvgl/src/extra/widgets/menu/lv_menu.c **** }
 392              		.loc 1 526 5 view .LVU111
 527:lvgl/src/extra/widgets/menu/lv_menu.c **** 
 393              		.loc 1 527 1 is_stmt 0 view .LVU112
 394 0134 70BD     		pop	{r4, r5, r6, pc}
 395              	.LVL50:
 396              	.L10:
 527:lvgl/src/extra/widgets/menu/lv_menu.c **** 
 397              		.loc 1 527 1 view .LVU113
 398 0136 00BF     		.align	2
 399              	.L9:
 400 0138 00000000 		.word	LV_LAYOUT_FLEX
 401 013c 00000000 		.word	lv_menu_main_cont_class
 402 0140 00000000 		.word	lv_menu_main_header_cont_class
 403 0144 00000000 		.word	lv_menu_back_event_cb
 404 0148 00000000 		.word	.LC0
 405 014c 00000000 		.word	lv_menu_value_changed_event_cb
 406              		.cfi_endproc
 407              	.LFE180:
 409              		.section	.text.lv_menu_page_destructor,"ax",%progbits
 410              		.align	1
 411              		.syntax unified
 412              		.thumb
 413              		.thumb_func
 415              	lv_menu_page_destructor:
 416              	.LVL51:
 417              	.LFB183:
 555:lvgl/src/extra/widgets/menu/lv_menu.c ****     LV_UNUSED(class_p);
 418              		.loc 1 555 1 is_stmt 1 view -0
 419              		.cfi_startproc
 420              		@ args = 0, pretend = 0, frame = 0
 421              		@ frame_needed = 0, uses_anonymous_args = 0
ARM GAS  C:\usertemp\cc5ZvGn0.s 			page 20


 556:lvgl/src/extra/widgets/menu/lv_menu.c **** 
 422              		.loc 1 556 5 view .LVU115
 558:lvgl/src/extra/widgets/menu/lv_menu.c **** 
 423              		.loc 1 558 5 view .LVU116
 560:lvgl/src/extra/widgets/menu/lv_menu.c ****         lv_mem_free(page->title);
 424              		.loc 1 560 5 view .LVU117
 560:lvgl/src/extra/widgets/menu/lv_menu.c ****         lv_mem_free(page->title);
 425              		.loc 1 560 12 is_stmt 0 view .LVU118
 426 0000 486A     		ldr	r0, [r1, #36]
 427              	.LVL52:
 560:lvgl/src/extra/widgets/menu/lv_menu.c ****         lv_mem_free(page->title);
 428              		.loc 1 560 7 view .LVU119
 429 0002 30B1     		cbz	r0, .L14
 555:lvgl/src/extra/widgets/menu/lv_menu.c ****     LV_UNUSED(class_p);
 430              		.loc 1 555 1 view .LVU120
 431 0004 10B5     		push	{r4, lr}
 432              	.LCFI4:
 433              		.cfi_def_cfa_offset 8
 434              		.cfi_offset 4, -8
 435              		.cfi_offset 14, -4
 436 0006 0C46     		mov	r4, r1
 561:lvgl/src/extra/widgets/menu/lv_menu.c ****         page->title = NULL;
 437              		.loc 1 561 9 is_stmt 1 view .LVU121
 438 0008 FFF7FEFF 		bl	lv_mem_free
 439              	.LVL53:
 562:lvgl/src/extra/widgets/menu/lv_menu.c ****     }
 440              		.loc 1 562 9 view .LVU122
 562:lvgl/src/extra/widgets/menu/lv_menu.c ****     }
 441              		.loc 1 562 21 is_stmt 0 view .LVU123
 442 000c 0023     		movs	r3, #0
 443 000e 6362     		str	r3, [r4, #36]
 564:lvgl/src/extra/widgets/menu/lv_menu.c **** 
 444              		.loc 1 564 1 view .LVU124
 445 0010 10BD     		pop	{r4, pc}
 446              	.LVL54:
 447              	.L14:
 448              	.LCFI5:
 449              		.cfi_def_cfa_offset 0
 450              		.cfi_restore 4
 451              		.cfi_restore 14
 564:lvgl/src/extra/widgets/menu/lv_menu.c **** 
 452              		.loc 1 564 1 view .LVU125
 453 0012 7047     		bx	lr
 454              		.cfi_endproc
 455              	.LFE183:
 457              		.section	.text.lv_menu_obj_del_event_cb,"ax",%progbits
 458              		.align	1
 459              		.syntax unified
 460              		.thumb
 461              		.thumb_func
 463              	lv_menu_obj_del_event_cb:
 464              	.LVL55:
 465              	.LFB189:
 580:lvgl/src/extra/widgets/menu/lv_menu.c **** 
 581:lvgl/src/extra/widgets/menu/lv_menu.c **** static void lv_menu_refr_sidebar_header_mode(lv_obj_t * obj)
 582:lvgl/src/extra/widgets/menu/lv_menu.c **** {
 583:lvgl/src/extra/widgets/menu/lv_menu.c ****     LV_ASSERT_OBJ(obj, MY_CLASS);
ARM GAS  C:\usertemp\cc5ZvGn0.s 			page 21


 584:lvgl/src/extra/widgets/menu/lv_menu.c **** 
 585:lvgl/src/extra/widgets/menu/lv_menu.c ****     lv_menu_t * menu = (lv_menu_t *)obj;
 586:lvgl/src/extra/widgets/menu/lv_menu.c **** 
 587:lvgl/src/extra/widgets/menu/lv_menu.c ****     if(menu->sidebar_header == NULL || menu->sidebar_page == NULL) return;
 588:lvgl/src/extra/widgets/menu/lv_menu.c **** 
 589:lvgl/src/extra/widgets/menu/lv_menu.c ****     switch(menu->mode_header) {
 590:lvgl/src/extra/widgets/menu/lv_menu.c ****         case LV_MENU_HEADER_TOP_FIXED:
 591:lvgl/src/extra/widgets/menu/lv_menu.c ****             /* Content should fill the remaining space */
 592:lvgl/src/extra/widgets/menu/lv_menu.c ****             lv_obj_move_to_index(menu->sidebar_header, 0);
 593:lvgl/src/extra/widgets/menu/lv_menu.c ****             lv_obj_set_flex_grow(menu->sidebar_page, 1);
 594:lvgl/src/extra/widgets/menu/lv_menu.c ****             break;
 595:lvgl/src/extra/widgets/menu/lv_menu.c ****         case LV_MENU_HEADER_TOP_UNFIXED:
 596:lvgl/src/extra/widgets/menu/lv_menu.c ****             lv_obj_move_to_index(menu->sidebar_header, 0);
 597:lvgl/src/extra/widgets/menu/lv_menu.c ****             lv_obj_set_flex_grow(menu->sidebar_page, 0);
 598:lvgl/src/extra/widgets/menu/lv_menu.c ****             break;
 599:lvgl/src/extra/widgets/menu/lv_menu.c ****         case LV_MENU_HEADER_BOTTOM_FIXED:
 600:lvgl/src/extra/widgets/menu/lv_menu.c ****             lv_obj_move_to_index(menu->sidebar_header, 1);
 601:lvgl/src/extra/widgets/menu/lv_menu.c ****             lv_obj_set_flex_grow(menu->sidebar_page, 1);
 602:lvgl/src/extra/widgets/menu/lv_menu.c ****             break;
 603:lvgl/src/extra/widgets/menu/lv_menu.c ****     }
 604:lvgl/src/extra/widgets/menu/lv_menu.c **** 
 605:lvgl/src/extra/widgets/menu/lv_menu.c ****     lv_obj_refr_size(menu->sidebar_header);
 606:lvgl/src/extra/widgets/menu/lv_menu.c ****     lv_obj_refr_size(menu->sidebar_page);
 607:lvgl/src/extra/widgets/menu/lv_menu.c **** 
 608:lvgl/src/extra/widgets/menu/lv_menu.c ****     if(lv_obj_get_content_height(menu->sidebar_header) == 0) {
 609:lvgl/src/extra/widgets/menu/lv_menu.c ****         lv_obj_add_flag(menu->sidebar_header, LV_OBJ_FLAG_HIDDEN);
 610:lvgl/src/extra/widgets/menu/lv_menu.c ****     }
 611:lvgl/src/extra/widgets/menu/lv_menu.c ****     else {
 612:lvgl/src/extra/widgets/menu/lv_menu.c ****         lv_obj_clear_flag(menu->sidebar_header, LV_OBJ_FLAG_HIDDEN);
 613:lvgl/src/extra/widgets/menu/lv_menu.c ****     }
 614:lvgl/src/extra/widgets/menu/lv_menu.c **** }
 615:lvgl/src/extra/widgets/menu/lv_menu.c **** 
 616:lvgl/src/extra/widgets/menu/lv_menu.c **** static void lv_menu_refr_main_header_mode(lv_obj_t * obj)
 617:lvgl/src/extra/widgets/menu/lv_menu.c **** {
 618:lvgl/src/extra/widgets/menu/lv_menu.c ****     LV_ASSERT_OBJ(obj, MY_CLASS);
 619:lvgl/src/extra/widgets/menu/lv_menu.c **** 
 620:lvgl/src/extra/widgets/menu/lv_menu.c ****     lv_menu_t * menu = (lv_menu_t *)obj;
 621:lvgl/src/extra/widgets/menu/lv_menu.c **** 
 622:lvgl/src/extra/widgets/menu/lv_menu.c ****     if(menu->main_header == NULL || menu->main_page == NULL) return;
 623:lvgl/src/extra/widgets/menu/lv_menu.c **** 
 624:lvgl/src/extra/widgets/menu/lv_menu.c ****     switch(menu->mode_header) {
 625:lvgl/src/extra/widgets/menu/lv_menu.c ****         case LV_MENU_HEADER_TOP_FIXED:
 626:lvgl/src/extra/widgets/menu/lv_menu.c ****             /* Content should fill the remaining space */
 627:lvgl/src/extra/widgets/menu/lv_menu.c ****             lv_obj_move_to_index(menu->main_header, 0);
 628:lvgl/src/extra/widgets/menu/lv_menu.c ****             lv_obj_set_flex_grow(menu->main_page, 1);
 629:lvgl/src/extra/widgets/menu/lv_menu.c ****             break;
 630:lvgl/src/extra/widgets/menu/lv_menu.c ****         case LV_MENU_HEADER_TOP_UNFIXED:
 631:lvgl/src/extra/widgets/menu/lv_menu.c ****             lv_obj_move_to_index(menu->main_header, 0);
 632:lvgl/src/extra/widgets/menu/lv_menu.c ****             lv_obj_set_flex_grow(menu->main_page, 0);
 633:lvgl/src/extra/widgets/menu/lv_menu.c ****             break;
 634:lvgl/src/extra/widgets/menu/lv_menu.c ****         case LV_MENU_HEADER_BOTTOM_FIXED:
 635:lvgl/src/extra/widgets/menu/lv_menu.c ****             lv_obj_move_to_index(menu->main_header, 1);
 636:lvgl/src/extra/widgets/menu/lv_menu.c ****             lv_obj_set_flex_grow(menu->main_page, 1);
 637:lvgl/src/extra/widgets/menu/lv_menu.c ****             break;
 638:lvgl/src/extra/widgets/menu/lv_menu.c ****     }
 639:lvgl/src/extra/widgets/menu/lv_menu.c **** 
 640:lvgl/src/extra/widgets/menu/lv_menu.c ****     lv_obj_refr_size(menu->main_header);
ARM GAS  C:\usertemp\cc5ZvGn0.s 			page 22


 641:lvgl/src/extra/widgets/menu/lv_menu.c ****     lv_obj_refr_size(menu->main_page);
 642:lvgl/src/extra/widgets/menu/lv_menu.c ****     lv_obj_update_layout(menu->main_header);
 643:lvgl/src/extra/widgets/menu/lv_menu.c **** 
 644:lvgl/src/extra/widgets/menu/lv_menu.c ****     if(lv_obj_get_content_height(menu->main_header) == 0) {
 645:lvgl/src/extra/widgets/menu/lv_menu.c ****         lv_obj_add_flag(menu->main_header, LV_OBJ_FLAG_HIDDEN);
 646:lvgl/src/extra/widgets/menu/lv_menu.c ****     }
 647:lvgl/src/extra/widgets/menu/lv_menu.c ****     else {
 648:lvgl/src/extra/widgets/menu/lv_menu.c ****         lv_obj_clear_flag(menu->main_header, LV_OBJ_FLAG_HIDDEN);
 649:lvgl/src/extra/widgets/menu/lv_menu.c ****     }
 650:lvgl/src/extra/widgets/menu/lv_menu.c **** }
 651:lvgl/src/extra/widgets/menu/lv_menu.c **** 
 652:lvgl/src/extra/widgets/menu/lv_menu.c **** static void lv_menu_load_page_event_cb(lv_event_t * e)
 653:lvgl/src/extra/widgets/menu/lv_menu.c **** {
 654:lvgl/src/extra/widgets/menu/lv_menu.c ****     lv_obj_t * obj = lv_event_get_target(e);
 655:lvgl/src/extra/widgets/menu/lv_menu.c ****     lv_menu_load_page_event_data_t * event_data = lv_event_get_user_data(e);
 656:lvgl/src/extra/widgets/menu/lv_menu.c ****     lv_menu_t * menu = (lv_menu_t *)(event_data->menu);
 657:lvgl/src/extra/widgets/menu/lv_menu.c ****     lv_obj_t * page = event_data->page;
 658:lvgl/src/extra/widgets/menu/lv_menu.c **** 
 659:lvgl/src/extra/widgets/menu/lv_menu.c ****     if(menu->sidebar_page != NULL) {
 660:lvgl/src/extra/widgets/menu/lv_menu.c ****         /* Check if clicked obj is in the sidebar */
 661:lvgl/src/extra/widgets/menu/lv_menu.c ****         bool sidebar = false;
 662:lvgl/src/extra/widgets/menu/lv_menu.c ****         lv_obj_t * parent = obj;
 663:lvgl/src/extra/widgets/menu/lv_menu.c **** 
 664:lvgl/src/extra/widgets/menu/lv_menu.c ****         while(parent) {
 665:lvgl/src/extra/widgets/menu/lv_menu.c ****             if(parent == (lv_obj_t *)menu) break;
 666:lvgl/src/extra/widgets/menu/lv_menu.c ****             if(parent == menu->sidebar) {
 667:lvgl/src/extra/widgets/menu/lv_menu.c ****                 sidebar = true;
 668:lvgl/src/extra/widgets/menu/lv_menu.c ****                 break;
 669:lvgl/src/extra/widgets/menu/lv_menu.c ****             }
 670:lvgl/src/extra/widgets/menu/lv_menu.c ****             parent = lv_obj_get_parent(parent);
 671:lvgl/src/extra/widgets/menu/lv_menu.c ****         }
 672:lvgl/src/extra/widgets/menu/lv_menu.c **** 
 673:lvgl/src/extra/widgets/menu/lv_menu.c ****         if(sidebar) {
 674:lvgl/src/extra/widgets/menu/lv_menu.c ****             /* Clear checked state of previous obj */
 675:lvgl/src/extra/widgets/menu/lv_menu.c ****             if(menu->selected_tab != obj && menu->selected_tab != NULL) {
 676:lvgl/src/extra/widgets/menu/lv_menu.c ****                 lv_obj_clear_state(menu->selected_tab, LV_STATE_CHECKED);
 677:lvgl/src/extra/widgets/menu/lv_menu.c ****             }
 678:lvgl/src/extra/widgets/menu/lv_menu.c **** 
 679:lvgl/src/extra/widgets/menu/lv_menu.c ****             lv_menu_clear_history((lv_obj_t *)menu);
 680:lvgl/src/extra/widgets/menu/lv_menu.c **** 
 681:lvgl/src/extra/widgets/menu/lv_menu.c ****             menu->selected_tab = obj;
 682:lvgl/src/extra/widgets/menu/lv_menu.c ****         }
 683:lvgl/src/extra/widgets/menu/lv_menu.c ****     }
 684:lvgl/src/extra/widgets/menu/lv_menu.c **** 
 685:lvgl/src/extra/widgets/menu/lv_menu.c ****     lv_menu_set_page((lv_obj_t *)menu, page);
 686:lvgl/src/extra/widgets/menu/lv_menu.c **** }
 687:lvgl/src/extra/widgets/menu/lv_menu.c **** 
 688:lvgl/src/extra/widgets/menu/lv_menu.c **** static void lv_menu_obj_del_event_cb(lv_event_t * e)
 689:lvgl/src/extra/widgets/menu/lv_menu.c **** {
 466              		.loc 1 689 1 is_stmt 1 view -0
 467              		.cfi_startproc
 468              		@ args = 0, pretend = 0, frame = 0
 469              		@ frame_needed = 0, uses_anonymous_args = 0
 470              		.loc 1 689 1 is_stmt 0 view .LVU127
 471 0000 08B5     		push	{r3, lr}
 472              	.LCFI6:
 473              		.cfi_def_cfa_offset 8
ARM GAS  C:\usertemp\cc5ZvGn0.s 			page 23


 474              		.cfi_offset 3, -8
 475              		.cfi_offset 14, -4
 690:lvgl/src/extra/widgets/menu/lv_menu.c ****     lv_menu_load_page_event_data_t * event_data = lv_event_get_user_data(e);
 476              		.loc 1 690 5 is_stmt 1 view .LVU128
 477              		.loc 1 690 51 is_stmt 0 view .LVU129
 478 0002 FFF7FEFF 		bl	lv_event_get_user_data
 479              	.LVL56:
 691:lvgl/src/extra/widgets/menu/lv_menu.c ****     lv_mem_free(event_data);
 480              		.loc 1 691 5 is_stmt 1 view .LVU130
 481 0006 FFF7FEFF 		bl	lv_mem_free
 482              	.LVL57:
 692:lvgl/src/extra/widgets/menu/lv_menu.c **** }
 483              		.loc 1 692 1 is_stmt 0 view .LVU131
 484 000a 08BD     		pop	{r3, pc}
 485              		.cfi_endproc
 486              	.LFE189:
 488              		.section	.text.lv_menu_page_constructor,"ax",%progbits
 489              		.align	1
 490              		.syntax unified
 491              		.thumb
 492              		.thumb_func
 494              	lv_menu_page_constructor:
 495              	.LVL58:
 496              	.LFB182:
 543:lvgl/src/extra/widgets/menu/lv_menu.c ****     LV_UNUSED(class_p);
 497              		.loc 1 543 1 is_stmt 1 view -0
 498              		.cfi_startproc
 499              		@ args = 0, pretend = 0, frame = 0
 500              		@ frame_needed = 0, uses_anonymous_args = 0
 543:lvgl/src/extra/widgets/menu/lv_menu.c ****     LV_UNUSED(class_p);
 501              		.loc 1 543 1 is_stmt 0 view .LVU133
 502 0000 10B5     		push	{r4, lr}
 503              	.LCFI7:
 504              		.cfi_def_cfa_offset 8
 505              		.cfi_offset 4, -8
 506              		.cfi_offset 14, -4
 507 0002 0C46     		mov	r4, r1
 544:lvgl/src/extra/widgets/menu/lv_menu.c **** 
 508              		.loc 1 544 5 is_stmt 1 view .LVU134
 546:lvgl/src/extra/widgets/menu/lv_menu.c **** 
 509              		.loc 1 546 5 view .LVU135
 546:lvgl/src/extra/widgets/menu/lv_menu.c **** 
 510              		.loc 1 546 37 is_stmt 0 view .LVU136
 511 0004 0846     		mov	r0, r1
 512              	.LVL59:
 546:lvgl/src/extra/widgets/menu/lv_menu.c **** 
 513              		.loc 1 546 37 view .LVU137
 514 0006 FFF7FEFF 		bl	lv_obj_get_parent
 515              	.LVL60:
 548:lvgl/src/extra/widgets/menu/lv_menu.c ****     lv_obj_set_flex_flow(obj, LV_FLEX_FLOW_COLUMN);
 516              		.loc 1 548 5 is_stmt 1 view .LVU138
 517 000a 416A     		ldr	r1, [r0, #36]
 518 000c 2046     		mov	r0, r4
 519              	.LVL61:
 548:lvgl/src/extra/widgets/menu/lv_menu.c ****     lv_obj_set_flex_flow(obj, LV_FLEX_FLOW_COLUMN);
 520              		.loc 1 548 5 is_stmt 0 view .LVU139
 521 000e FFF7FEFF 		bl	lv_obj_set_parent
ARM GAS  C:\usertemp\cc5ZvGn0.s 			page 24


 522              	.LVL62:
 549:lvgl/src/extra/widgets/menu/lv_menu.c ****     lv_obj_set_flex_align(obj, LV_FLEX_ALIGN_START, LV_FLEX_ALIGN_CENTER, LV_FLEX_ALIGN_CENTER);
 523              		.loc 1 549 5 is_stmt 1 view .LVU140
 524 0012 0121     		movs	r1, #1
 525 0014 2046     		mov	r0, r4
 526 0016 FFF7FEFF 		bl	lv_obj_set_flex_flow
 527              	.LVL63:
 550:lvgl/src/extra/widgets/menu/lv_menu.c ****     lv_obj_add_flag(obj, LV_OBJ_FLAG_EVENT_BUBBLE);
 528              		.loc 1 550 5 view .LVU141
 529 001a 0223     		movs	r3, #2
 530 001c 1A46     		mov	r2, r3
 531 001e 0021     		movs	r1, #0
 532 0020 2046     		mov	r0, r4
 533 0022 FFF7FEFF 		bl	lv_obj_set_flex_align
 534              	.LVL64:
 551:lvgl/src/extra/widgets/menu/lv_menu.c **** }
 535              		.loc 1 551 5 view .LVU142
 536 0026 4FF48041 		mov	r1, #16384
 537 002a 2046     		mov	r0, r4
 538 002c FFF7FEFF 		bl	lv_obj_add_flag
 539              	.LVL65:
 552:lvgl/src/extra/widgets/menu/lv_menu.c **** 
 540              		.loc 1 552 1 is_stmt 0 view .LVU143
 541 0030 10BD     		pop	{r4, pc}
 552:lvgl/src/extra/widgets/menu/lv_menu.c **** 
 542              		.loc 1 552 1 view .LVU144
 543              		.cfi_endproc
 544              	.LFE182:
 546              		.section	.text.lv_menu_refr_main_header_mode,"ax",%progbits
 547              		.align	1
 548              		.syntax unified
 549              		.thumb
 550              		.thumb_func
 552              	lv_menu_refr_main_header_mode:
 553              	.LVL66:
 554              	.LFB187:
 617:lvgl/src/extra/widgets/menu/lv_menu.c ****     LV_ASSERT_OBJ(obj, MY_CLASS);
 555              		.loc 1 617 1 is_stmt 1 view -0
 556              		.cfi_startproc
 557              		@ args = 0, pretend = 0, frame = 0
 558              		@ frame_needed = 0, uses_anonymous_args = 0
 617:lvgl/src/extra/widgets/menu/lv_menu.c ****     LV_ASSERT_OBJ(obj, MY_CLASS);
 559              		.loc 1 617 1 is_stmt 0 view .LVU146
 560 0000 10B5     		push	{r4, lr}
 561              	.LCFI8:
 562              		.cfi_def_cfa_offset 8
 563              		.cfi_offset 4, -8
 564              		.cfi_offset 14, -4
 565 0002 0446     		mov	r4, r0
 618:lvgl/src/extra/widgets/menu/lv_menu.c **** 
 566              		.loc 1 618 5 is_stmt 1 view .LVU147
 618:lvgl/src/extra/widgets/menu/lv_menu.c **** 
 567              		.loc 1 618 5 view .LVU148
 618:lvgl/src/extra/widgets/menu/lv_menu.c **** 
 568              		.loc 1 618 5 view .LVU149
 620:lvgl/src/extra/widgets/menu/lv_menu.c **** 
 569              		.loc 1 620 5 view .LVU150
ARM GAS  C:\usertemp\cc5ZvGn0.s 			page 25


 570              	.LVL67:
 622:lvgl/src/extra/widgets/menu/lv_menu.c **** 
 571              		.loc 1 622 5 view .LVU151
 622:lvgl/src/extra/widgets/menu/lv_menu.c **** 
 572              		.loc 1 622 12 is_stmt 0 view .LVU152
 573 0004 006B     		ldr	r0, [r0, #48]
 574              	.LVL68:
 622:lvgl/src/extra/widgets/menu/lv_menu.c **** 
 575              		.loc 1 622 7 view .LVU153
 576 0006 10B3     		cbz	r0, .L21
 622:lvgl/src/extra/widgets/menu/lv_menu.c **** 
 577              		.loc 1 622 41 discriminator 2 view .LVU154
 578 0008 E36A     		ldr	r3, [r4, #44]
 622:lvgl/src/extra/widgets/menu/lv_menu.c **** 
 579              		.loc 1 622 34 discriminator 2 view .LVU155
 580 000a 03B3     		cbz	r3, .L21
 624:lvgl/src/extra/widgets/menu/lv_menu.c ****         case LV_MENU_HEADER_TOP_FIXED:
 581              		.loc 1 624 5 is_stmt 1 view .LVU156
 624:lvgl/src/extra/widgets/menu/lv_menu.c ****         case LV_MENU_HEADER_TOP_FIXED:
 582              		.loc 1 624 16 is_stmt 0 view .LVU157
 583 000c 94F86230 		ldrb	r3, [r4, #98]	@ zero_extendqisi2
 584 0010 C3F34103 		ubfx	r3, r3, #1, #2
 624:lvgl/src/extra/widgets/menu/lv_menu.c ****         case LV_MENU_HEADER_TOP_FIXED:
 585              		.loc 1 624 5 view .LVU158
 586 0014 012B     		cmp	r3, #1
 587 0016 1BD0     		beq	.L23
 588 0018 022B     		cmp	r3, #2
 589 001a 21D0     		beq	.L24
 590 001c 33B9     		cbnz	r3, .L25
 627:lvgl/src/extra/widgets/menu/lv_menu.c ****             lv_obj_set_flex_grow(menu->main_page, 1);
 591              		.loc 1 627 13 is_stmt 1 view .LVU159
 592 001e 0021     		movs	r1, #0
 593 0020 FFF7FEFF 		bl	lv_obj_move_to_index
 594              	.LVL69:
 628:lvgl/src/extra/widgets/menu/lv_menu.c ****             break;
 595              		.loc 1 628 13 view .LVU160
 596 0024 0121     		movs	r1, #1
 597 0026 E06A     		ldr	r0, [r4, #44]
 598 0028 FFF7FEFF 		bl	lv_obj_set_flex_grow
 599              	.LVL70:
 629:lvgl/src/extra/widgets/menu/lv_menu.c ****         case LV_MENU_HEADER_TOP_UNFIXED:
 600              		.loc 1 629 13 view .LVU161
 601              	.L25:
 640:lvgl/src/extra/widgets/menu/lv_menu.c ****     lv_obj_refr_size(menu->main_page);
 602              		.loc 1 640 5 view .LVU162
 603 002c 206B     		ldr	r0, [r4, #48]
 604 002e FFF7FEFF 		bl	lv_obj_refr_size
 605              	.LVL71:
 641:lvgl/src/extra/widgets/menu/lv_menu.c ****     lv_obj_update_layout(menu->main_header);
 606              		.loc 1 641 5 view .LVU163
 607 0032 E06A     		ldr	r0, [r4, #44]
 608 0034 FFF7FEFF 		bl	lv_obj_refr_size
 609              	.LVL72:
 642:lvgl/src/extra/widgets/menu/lv_menu.c **** 
 610              		.loc 1 642 5 view .LVU164
 611 0038 206B     		ldr	r0, [r4, #48]
 612 003a FFF7FEFF 		bl	lv_obj_update_layout
ARM GAS  C:\usertemp\cc5ZvGn0.s 			page 26


 613              	.LVL73:
 644:lvgl/src/extra/widgets/menu/lv_menu.c ****         lv_obj_add_flag(menu->main_header, LV_OBJ_FLAG_HIDDEN);
 614              		.loc 1 644 5 view .LVU165
 644:lvgl/src/extra/widgets/menu/lv_menu.c ****         lv_obj_add_flag(menu->main_header, LV_OBJ_FLAG_HIDDEN);
 615              		.loc 1 644 8 is_stmt 0 view .LVU166
 616 003e 206B     		ldr	r0, [r4, #48]
 617 0040 FFF7FEFF 		bl	lv_obj_get_content_height
 618              	.LVL74:
 644:lvgl/src/extra/widgets/menu/lv_menu.c ****         lv_obj_add_flag(menu->main_header, LV_OBJ_FLAG_HIDDEN);
 619              		.loc 1 644 7 discriminator 1 view .LVU167
 620 0044 A0B9     		cbnz	r0, .L26
 645:lvgl/src/extra/widgets/menu/lv_menu.c ****     }
 621              		.loc 1 645 9 is_stmt 1 view .LVU168
 622 0046 0121     		movs	r1, #1
 623 0048 206B     		ldr	r0, [r4, #48]
 624 004a FFF7FEFF 		bl	lv_obj_add_flag
 625              	.LVL75:
 626              	.L21:
 650:lvgl/src/extra/widgets/menu/lv_menu.c **** 
 627              		.loc 1 650 1 is_stmt 0 view .LVU169
 628 004e 10BD     		pop	{r4, pc}
 629              	.LVL76:
 630              	.L23:
 631:lvgl/src/extra/widgets/menu/lv_menu.c ****             lv_obj_set_flex_grow(menu->main_page, 0);
 631              		.loc 1 631 13 is_stmt 1 view .LVU170
 632 0050 0021     		movs	r1, #0
 633 0052 FFF7FEFF 		bl	lv_obj_move_to_index
 634              	.LVL77:
 632:lvgl/src/extra/widgets/menu/lv_menu.c ****             break;
 635              		.loc 1 632 13 view .LVU171
 636 0056 0021     		movs	r1, #0
 637 0058 E06A     		ldr	r0, [r4, #44]
 638 005a FFF7FEFF 		bl	lv_obj_set_flex_grow
 639              	.LVL78:
 633:lvgl/src/extra/widgets/menu/lv_menu.c ****         case LV_MENU_HEADER_BOTTOM_FIXED:
 640              		.loc 1 633 13 view .LVU172
 641 005e E5E7     		b	.L25
 642              	.L24:
 635:lvgl/src/extra/widgets/menu/lv_menu.c ****             lv_obj_set_flex_grow(menu->main_page, 1);
 643              		.loc 1 635 13 view .LVU173
 644 0060 0121     		movs	r1, #1
 645 0062 FFF7FEFF 		bl	lv_obj_move_to_index
 646              	.LVL79:
 636:lvgl/src/extra/widgets/menu/lv_menu.c ****             break;
 647              		.loc 1 636 13 view .LVU174
 648 0066 0121     		movs	r1, #1
 649 0068 E06A     		ldr	r0, [r4, #44]
 650 006a FFF7FEFF 		bl	lv_obj_set_flex_grow
 651              	.LVL80:
 637:lvgl/src/extra/widgets/menu/lv_menu.c ****     }
 652              		.loc 1 637 13 view .LVU175
 653 006e DDE7     		b	.L25
 654              	.L26:
 648:lvgl/src/extra/widgets/menu/lv_menu.c ****     }
 655              		.loc 1 648 9 view .LVU176
 656 0070 0121     		movs	r1, #1
 657 0072 206B     		ldr	r0, [r4, #48]
ARM GAS  C:\usertemp\cc5ZvGn0.s 			page 27


 658 0074 FFF7FEFF 		bl	lv_obj_clear_flag
 659              	.LVL81:
 660 0078 E9E7     		b	.L21
 661              		.cfi_endproc
 662              	.LFE187:
 664              		.section	.text.lv_menu_refr_sidebar_header_mode,"ax",%progbits
 665              		.align	1
 666              		.syntax unified
 667              		.thumb
 668              		.thumb_func
 670              	lv_menu_refr_sidebar_header_mode:
 671              	.LVL82:
 672              	.LFB186:
 582:lvgl/src/extra/widgets/menu/lv_menu.c ****     LV_ASSERT_OBJ(obj, MY_CLASS);
 673              		.loc 1 582 1 view -0
 674              		.cfi_startproc
 675              		@ args = 0, pretend = 0, frame = 0
 676              		@ frame_needed = 0, uses_anonymous_args = 0
 582:lvgl/src/extra/widgets/menu/lv_menu.c ****     LV_ASSERT_OBJ(obj, MY_CLASS);
 677              		.loc 1 582 1 is_stmt 0 view .LVU178
 678 0000 10B5     		push	{r4, lr}
 679              	.LCFI9:
 680              		.cfi_def_cfa_offset 8
 681              		.cfi_offset 4, -8
 682              		.cfi_offset 14, -4
 683 0002 0446     		mov	r4, r0
 583:lvgl/src/extra/widgets/menu/lv_menu.c **** 
 684              		.loc 1 583 5 is_stmt 1 view .LVU179
 583:lvgl/src/extra/widgets/menu/lv_menu.c **** 
 685              		.loc 1 583 5 view .LVU180
 583:lvgl/src/extra/widgets/menu/lv_menu.c **** 
 686              		.loc 1 583 5 view .LVU181
 585:lvgl/src/extra/widgets/menu/lv_menu.c **** 
 687              		.loc 1 585 5 view .LVU182
 688              	.LVL83:
 587:lvgl/src/extra/widgets/menu/lv_menu.c **** 
 689              		.loc 1 587 5 view .LVU183
 587:lvgl/src/extra/widgets/menu/lv_menu.c **** 
 690              		.loc 1 587 12 is_stmt 0 view .LVU184
 691 0004 406C     		ldr	r0, [r0, #68]
 692              	.LVL84:
 587:lvgl/src/extra/widgets/menu/lv_menu.c **** 
 693              		.loc 1 587 7 view .LVU185
 694 0006 F8B1     		cbz	r0, .L28
 587:lvgl/src/extra/widgets/menu/lv_menu.c **** 
 695              		.loc 1 587 44 discriminator 2 view .LVU186
 696 0008 236C     		ldr	r3, [r4, #64]
 587:lvgl/src/extra/widgets/menu/lv_menu.c **** 
 697              		.loc 1 587 37 discriminator 2 view .LVU187
 698 000a EBB1     		cbz	r3, .L28
 589:lvgl/src/extra/widgets/menu/lv_menu.c ****         case LV_MENU_HEADER_TOP_FIXED:
 699              		.loc 1 589 5 is_stmt 1 view .LVU188
 589:lvgl/src/extra/widgets/menu/lv_menu.c ****         case LV_MENU_HEADER_TOP_FIXED:
 700              		.loc 1 589 16 is_stmt 0 view .LVU189
 701 000c 94F86230 		ldrb	r3, [r4, #98]	@ zero_extendqisi2
 702 0010 C3F34103 		ubfx	r3, r3, #1, #2
 589:lvgl/src/extra/widgets/menu/lv_menu.c ****         case LV_MENU_HEADER_TOP_FIXED:
ARM GAS  C:\usertemp\cc5ZvGn0.s 			page 28


 703              		.loc 1 589 5 view .LVU190
 704 0014 012B     		cmp	r3, #1
 705 0016 18D0     		beq	.L30
 706 0018 022B     		cmp	r3, #2
 707 001a 1ED0     		beq	.L31
 708 001c 33B9     		cbnz	r3, .L32
 592:lvgl/src/extra/widgets/menu/lv_menu.c ****             lv_obj_set_flex_grow(menu->sidebar_page, 1);
 709              		.loc 1 592 13 is_stmt 1 view .LVU191
 710 001e 0021     		movs	r1, #0
 711 0020 FFF7FEFF 		bl	lv_obj_move_to_index
 712              	.LVL85:
 593:lvgl/src/extra/widgets/menu/lv_menu.c ****             break;
 713              		.loc 1 593 13 view .LVU192
 714 0024 0121     		movs	r1, #1
 715 0026 206C     		ldr	r0, [r4, #64]
 716 0028 FFF7FEFF 		bl	lv_obj_set_flex_grow
 717              	.LVL86:
 594:lvgl/src/extra/widgets/menu/lv_menu.c ****         case LV_MENU_HEADER_TOP_UNFIXED:
 718              		.loc 1 594 13 view .LVU193
 719              	.L32:
 605:lvgl/src/extra/widgets/menu/lv_menu.c ****     lv_obj_refr_size(menu->sidebar_page);
 720              		.loc 1 605 5 view .LVU194
 721 002c 606C     		ldr	r0, [r4, #68]
 722 002e FFF7FEFF 		bl	lv_obj_refr_size
 723              	.LVL87:
 606:lvgl/src/extra/widgets/menu/lv_menu.c **** 
 724              		.loc 1 606 5 view .LVU195
 725 0032 206C     		ldr	r0, [r4, #64]
 726 0034 FFF7FEFF 		bl	lv_obj_refr_size
 727              	.LVL88:
 608:lvgl/src/extra/widgets/menu/lv_menu.c ****         lv_obj_add_flag(menu->sidebar_header, LV_OBJ_FLAG_HIDDEN);
 728              		.loc 1 608 5 view .LVU196
 608:lvgl/src/extra/widgets/menu/lv_menu.c ****         lv_obj_add_flag(menu->sidebar_header, LV_OBJ_FLAG_HIDDEN);
 729              		.loc 1 608 8 is_stmt 0 view .LVU197
 730 0038 606C     		ldr	r0, [r4, #68]
 731 003a FFF7FEFF 		bl	lv_obj_get_content_height
 732              	.LVL89:
 608:lvgl/src/extra/widgets/menu/lv_menu.c ****         lv_obj_add_flag(menu->sidebar_header, LV_OBJ_FLAG_HIDDEN);
 733              		.loc 1 608 7 discriminator 1 view .LVU198
 734 003e A0B9     		cbnz	r0, .L33
 609:lvgl/src/extra/widgets/menu/lv_menu.c ****     }
 735              		.loc 1 609 9 is_stmt 1 view .LVU199
 736 0040 0121     		movs	r1, #1
 737 0042 606C     		ldr	r0, [r4, #68]
 738 0044 FFF7FEFF 		bl	lv_obj_add_flag
 739              	.LVL90:
 740              	.L28:
 614:lvgl/src/extra/widgets/menu/lv_menu.c **** 
 741              		.loc 1 614 1 is_stmt 0 view .LVU200
 742 0048 10BD     		pop	{r4, pc}
 743              	.LVL91:
 744              	.L30:
 596:lvgl/src/extra/widgets/menu/lv_menu.c ****             lv_obj_set_flex_grow(menu->sidebar_page, 0);
 745              		.loc 1 596 13 is_stmt 1 view .LVU201
 746 004a 0021     		movs	r1, #0
 747 004c FFF7FEFF 		bl	lv_obj_move_to_index
 748              	.LVL92:
ARM GAS  C:\usertemp\cc5ZvGn0.s 			page 29


 597:lvgl/src/extra/widgets/menu/lv_menu.c ****             break;
 749              		.loc 1 597 13 view .LVU202
 750 0050 0021     		movs	r1, #0
 751 0052 206C     		ldr	r0, [r4, #64]
 752 0054 FFF7FEFF 		bl	lv_obj_set_flex_grow
 753              	.LVL93:
 598:lvgl/src/extra/widgets/menu/lv_menu.c ****         case LV_MENU_HEADER_BOTTOM_FIXED:
 754              		.loc 1 598 13 view .LVU203
 755 0058 E8E7     		b	.L32
 756              	.L31:
 600:lvgl/src/extra/widgets/menu/lv_menu.c ****             lv_obj_set_flex_grow(menu->sidebar_page, 1);
 757              		.loc 1 600 13 view .LVU204
 758 005a 0121     		movs	r1, #1
 759 005c FFF7FEFF 		bl	lv_obj_move_to_index
 760              	.LVL94:
 601:lvgl/src/extra/widgets/menu/lv_menu.c ****             break;
 761              		.loc 1 601 13 view .LVU205
 762 0060 0121     		movs	r1, #1
 763 0062 206C     		ldr	r0, [r4, #64]
 764 0064 FFF7FEFF 		bl	lv_obj_set_flex_grow
 765              	.LVL95:
 602:lvgl/src/extra/widgets/menu/lv_menu.c ****     }
 766              		.loc 1 602 13 view .LVU206
 767 0068 E0E7     		b	.L32
 768              	.L33:
 612:lvgl/src/extra/widgets/menu/lv_menu.c ****     }
 769              		.loc 1 612 9 view .LVU207
 770 006a 0121     		movs	r1, #1
 771 006c 606C     		ldr	r0, [r4, #68]
 772 006e FFF7FEFF 		bl	lv_obj_clear_flag
 773              	.LVL96:
 774 0072 E9E7     		b	.L28
 775              		.cfi_endproc
 776              	.LFE186:
 778              		.section	.text.lv_menu_create,"ax",%progbits
 779              		.align	1
 780              		.global	lv_menu_create
 781              		.syntax unified
 782              		.thumb
 783              		.thumb_func
 785              	lv_menu_create:
 786              	.LVL97:
 787              	.LFB161:
 113:lvgl/src/extra/widgets/menu/lv_menu.c ****     LV_LOG_INFO("begin");
 788              		.loc 1 113 1 view -0
 789              		.cfi_startproc
 790              		@ args = 0, pretend = 0, frame = 0
 791              		@ frame_needed = 0, uses_anonymous_args = 0
 113:lvgl/src/extra/widgets/menu/lv_menu.c ****     LV_LOG_INFO("begin");
 792              		.loc 1 113 1 is_stmt 0 view .LVU209
 793 0000 10B5     		push	{r4, lr}
 794              	.LCFI10:
 795              		.cfi_def_cfa_offset 8
 796              		.cfi_offset 4, -8
 797              		.cfi_offset 14, -4
 798 0002 0146     		mov	r1, r0
 114:lvgl/src/extra/widgets/menu/lv_menu.c ****     lv_obj_t * obj = lv_obj_class_create_obj(MY_CLASS, parent);
ARM GAS  C:\usertemp\cc5ZvGn0.s 			page 30


 799              		.loc 1 114 5 is_stmt 1 view .LVU210
 114:lvgl/src/extra/widgets/menu/lv_menu.c ****     lv_obj_t * obj = lv_obj_class_create_obj(MY_CLASS, parent);
 800              		.loc 1 114 5 view .LVU211
 114:lvgl/src/extra/widgets/menu/lv_menu.c ****     lv_obj_t * obj = lv_obj_class_create_obj(MY_CLASS, parent);
 801              		.loc 1 114 5 view .LVU212
 115:lvgl/src/extra/widgets/menu/lv_menu.c ****     lv_obj_class_init_obj(obj);
 802              		.loc 1 115 5 view .LVU213
 115:lvgl/src/extra/widgets/menu/lv_menu.c ****     lv_obj_class_init_obj(obj);
 803              		.loc 1 115 22 is_stmt 0 view .LVU214
 804 0004 0348     		ldr	r0, .L37
 805              	.LVL98:
 115:lvgl/src/extra/widgets/menu/lv_menu.c ****     lv_obj_class_init_obj(obj);
 806              		.loc 1 115 22 view .LVU215
 807 0006 FFF7FEFF 		bl	lv_obj_class_create_obj
 808              	.LVL99:
 115:lvgl/src/extra/widgets/menu/lv_menu.c ****     lv_obj_class_init_obj(obj);
 809              		.loc 1 115 22 view .LVU216
 810 000a 0446     		mov	r4, r0
 811              	.LVL100:
 116:lvgl/src/extra/widgets/menu/lv_menu.c ****     return obj;
 812              		.loc 1 116 5 is_stmt 1 view .LVU217
 813 000c FFF7FEFF 		bl	lv_obj_class_init_obj
 814              	.LVL101:
 117:lvgl/src/extra/widgets/menu/lv_menu.c **** }
 815              		.loc 1 117 5 view .LVU218
 118:lvgl/src/extra/widgets/menu/lv_menu.c **** 
 816              		.loc 1 118 1 is_stmt 0 view .LVU219
 817 0010 2046     		mov	r0, r4
 818 0012 10BD     		pop	{r4, pc}
 819              	.LVL102:
 820              	.L38:
 118:lvgl/src/extra/widgets/menu/lv_menu.c **** 
 821              		.loc 1 118 1 view .LVU220
 822              		.align	2
 823              	.L37:
 824 0014 00000000 		.word	lv_menu_class
 825              		.cfi_endproc
 826              	.LFE161:
 828              		.section	.text.lv_menu_page_create,"ax",%progbits
 829              		.align	1
 830              		.global	lv_menu_page_create
 831              		.syntax unified
 832              		.thumb
 833              		.thumb_func
 835              	lv_menu_page_create:
 836              	.LVL103:
 837              	.LFB162:
 121:lvgl/src/extra/widgets/menu/lv_menu.c ****     LV_LOG_INFO("begin");
 838              		.loc 1 121 1 is_stmt 1 view -0
 839              		.cfi_startproc
 840              		@ args = 0, pretend = 0, frame = 0
 841              		@ frame_needed = 0, uses_anonymous_args = 0
 121:lvgl/src/extra/widgets/menu/lv_menu.c ****     LV_LOG_INFO("begin");
 842              		.loc 1 121 1 is_stmt 0 view .LVU222
 843 0000 38B5     		push	{r3, r4, r5, lr}
 844              	.LCFI11:
 845              		.cfi_def_cfa_offset 16
ARM GAS  C:\usertemp\cc5ZvGn0.s 			page 31


 846              		.cfi_offset 3, -16
 847              		.cfi_offset 4, -12
 848              		.cfi_offset 5, -8
 849              		.cfi_offset 14, -4
 850 0002 0C46     		mov	r4, r1
 122:lvgl/src/extra/widgets/menu/lv_menu.c ****     lv_obj_t * obj = lv_obj_class_create_obj(&lv_menu_page_class, parent);
 851              		.loc 1 122 5 is_stmt 1 view .LVU223
 122:lvgl/src/extra/widgets/menu/lv_menu.c ****     lv_obj_t * obj = lv_obj_class_create_obj(&lv_menu_page_class, parent);
 852              		.loc 1 122 5 view .LVU224
 122:lvgl/src/extra/widgets/menu/lv_menu.c ****     lv_obj_t * obj = lv_obj_class_create_obj(&lv_menu_page_class, parent);
 853              		.loc 1 122 5 view .LVU225
 123:lvgl/src/extra/widgets/menu/lv_menu.c ****     lv_obj_class_init_obj(obj);
 854              		.loc 1 123 5 view .LVU226
 123:lvgl/src/extra/widgets/menu/lv_menu.c ****     lv_obj_class_init_obj(obj);
 855              		.loc 1 123 22 is_stmt 0 view .LVU227
 856 0004 0146     		mov	r1, r0
 857              	.LVL104:
 123:lvgl/src/extra/widgets/menu/lv_menu.c ****     lv_obj_class_init_obj(obj);
 858              		.loc 1 123 22 view .LVU228
 859 0006 0C48     		ldr	r0, .L45
 860              	.LVL105:
 123:lvgl/src/extra/widgets/menu/lv_menu.c ****     lv_obj_class_init_obj(obj);
 861              		.loc 1 123 22 view .LVU229
 862 0008 FFF7FEFF 		bl	lv_obj_class_create_obj
 863              	.LVL106:
 123:lvgl/src/extra/widgets/menu/lv_menu.c ****     lv_obj_class_init_obj(obj);
 864              		.loc 1 123 22 view .LVU230
 865 000c 0546     		mov	r5, r0
 866              	.LVL107:
 124:lvgl/src/extra/widgets/menu/lv_menu.c **** 
 867              		.loc 1 124 5 is_stmt 1 view .LVU231
 868 000e FFF7FEFF 		bl	lv_obj_class_init_obj
 869              	.LVL108:
 126:lvgl/src/extra/widgets/menu/lv_menu.c ****     if(title) {
 870              		.loc 1 126 5 view .LVU232
 127:lvgl/src/extra/widgets/menu/lv_menu.c ****         page->title = lv_mem_alloc(strlen(title) + 1);
 871              		.loc 1 127 5 view .LVU233
 127:lvgl/src/extra/widgets/menu/lv_menu.c ****         page->title = lv_mem_alloc(strlen(title) + 1);
 872              		.loc 1 127 7 is_stmt 0 view .LVU234
 873 0012 64B1     		cbz	r4, .L40
 128:lvgl/src/extra/widgets/menu/lv_menu.c ****         LV_ASSERT_MALLOC(page->title);
 874              		.loc 1 128 9 is_stmt 1 view .LVU235
 128:lvgl/src/extra/widgets/menu/lv_menu.c ****         LV_ASSERT_MALLOC(page->title);
 875              		.loc 1 128 36 is_stmt 0 view .LVU236
 876 0014 2046     		mov	r0, r4
 877 0016 FFF7FEFF 		bl	strlen
 878              	.LVL109:
 128:lvgl/src/extra/widgets/menu/lv_menu.c ****         LV_ASSERT_MALLOC(page->title);
 879              		.loc 1 128 23 discriminator 1 view .LVU237
 880 001a 0130     		adds	r0, r0, #1
 881 001c FFF7FEFF 		bl	lv_mem_alloc
 882              	.LVL110:
 128:lvgl/src/extra/widgets/menu/lv_menu.c ****         LV_ASSERT_MALLOC(page->title);
 883              		.loc 1 128 21 discriminator 2 view .LVU238
 884 0020 6862     		str	r0, [r5, #36]
 129:lvgl/src/extra/widgets/menu/lv_menu.c ****         if(page->title == NULL) return NULL;
 885              		.loc 1 129 9 is_stmt 1 view .LVU239
ARM GAS  C:\usertemp\cc5ZvGn0.s 			page 32


 129:lvgl/src/extra/widgets/menu/lv_menu.c ****         if(page->title == NULL) return NULL;
 886              		.loc 1 129 9 view .LVU240
 887 0022 18B1     		cbz	r0, .L42
 129:lvgl/src/extra/widgets/menu/lv_menu.c ****         if(page->title == NULL) return NULL;
 888              		.loc 1 129 9 discriminator 2 view .LVU241
 129:lvgl/src/extra/widgets/menu/lv_menu.c ****         if(page->title == NULL) return NULL;
 889              		.loc 1 129 38 discriminator 2 view .LVU242
 130:lvgl/src/extra/widgets/menu/lv_menu.c ****         strcpy(page->title, title);
 890              		.loc 1 130 9 view .LVU243
 131:lvgl/src/extra/widgets/menu/lv_menu.c ****     }
 891              		.loc 1 131 9 view .LVU244
 892 0024 2146     		mov	r1, r4
 893 0026 FFF7FEFF 		bl	strcpy
 894              	.LVL111:
 895 002a 02E0     		b	.L39
 896              	.L42:
 129:lvgl/src/extra/widgets/menu/lv_menu.c ****         if(page->title == NULL) return NULL;
 897              		.loc 1 129 9 discriminator 1 view .LVU245
 129:lvgl/src/extra/widgets/menu/lv_menu.c ****         if(page->title == NULL) return NULL;
 898              		.loc 1 129 9 discriminator 1 view .LVU246
 129:lvgl/src/extra/widgets/menu/lv_menu.c ****         if(page->title == NULL) return NULL;
 899              		.loc 1 129 9 discriminator 1 view .LVU247
 129:lvgl/src/extra/widgets/menu/lv_menu.c ****         if(page->title == NULL) return NULL;
 900              		.loc 1 129 9 discriminator 1 view .LVU248
 129:lvgl/src/extra/widgets/menu/lv_menu.c ****         if(page->title == NULL) return NULL;
 901              		.loc 1 129 9 discriminator 1 view .LVU249
 902 002c FEE7     		b	.L42
 903              	.L40:
 134:lvgl/src/extra/widgets/menu/lv_menu.c ****     }
 904              		.loc 1 134 9 view .LVU250
 134:lvgl/src/extra/widgets/menu/lv_menu.c ****     }
 905              		.loc 1 134 21 is_stmt 0 view .LVU251
 906 002e 0023     		movs	r3, #0
 907 0030 6B62     		str	r3, [r5, #36]
 137:lvgl/src/extra/widgets/menu/lv_menu.c **** }
 908              		.loc 1 137 5 is_stmt 1 view .LVU252
 909              	.L39:
 138:lvgl/src/extra/widgets/menu/lv_menu.c **** 
 910              		.loc 1 138 1 is_stmt 0 view .LVU253
 911 0032 2846     		mov	r0, r5
 912 0034 38BD     		pop	{r3, r4, r5, pc}
 913              	.LVL112:
 914              	.L46:
 138:lvgl/src/extra/widgets/menu/lv_menu.c **** 
 915              		.loc 1 138 1 view .LVU254
 916 0036 00BF     		.align	2
 917              	.L45:
 918 0038 00000000 		.word	lv_menu_page_class
 919              		.cfi_endproc
 920              	.LFE162:
 922              		.section	.text.lv_menu_cont_create,"ax",%progbits
 923              		.align	1
 924              		.global	lv_menu_cont_create
 925              		.syntax unified
 926              		.thumb
 927              		.thumb_func
 929              	lv_menu_cont_create:
ARM GAS  C:\usertemp\cc5ZvGn0.s 			page 33


 930              	.LVL113:
 931              	.LFB163:
 141:lvgl/src/extra/widgets/menu/lv_menu.c ****     LV_LOG_INFO("begin");
 932              		.loc 1 141 1 is_stmt 1 view -0
 933              		.cfi_startproc
 934              		@ args = 0, pretend = 0, frame = 0
 935              		@ frame_needed = 0, uses_anonymous_args = 0
 141:lvgl/src/extra/widgets/menu/lv_menu.c ****     LV_LOG_INFO("begin");
 936              		.loc 1 141 1 is_stmt 0 view .LVU256
 937 0000 10B5     		push	{r4, lr}
 938              	.LCFI12:
 939              		.cfi_def_cfa_offset 8
 940              		.cfi_offset 4, -8
 941              		.cfi_offset 14, -4
 942 0002 0146     		mov	r1, r0
 142:lvgl/src/extra/widgets/menu/lv_menu.c ****     lv_obj_t * obj = lv_obj_class_create_obj(&lv_menu_cont_class, parent);
 943              		.loc 1 142 5 is_stmt 1 view .LVU257
 142:lvgl/src/extra/widgets/menu/lv_menu.c ****     lv_obj_t * obj = lv_obj_class_create_obj(&lv_menu_cont_class, parent);
 944              		.loc 1 142 5 view .LVU258
 142:lvgl/src/extra/widgets/menu/lv_menu.c ****     lv_obj_t * obj = lv_obj_class_create_obj(&lv_menu_cont_class, parent);
 945              		.loc 1 142 5 view .LVU259
 143:lvgl/src/extra/widgets/menu/lv_menu.c ****     lv_obj_class_init_obj(obj);
 946              		.loc 1 143 5 view .LVU260
 143:lvgl/src/extra/widgets/menu/lv_menu.c ****     lv_obj_class_init_obj(obj);
 947              		.loc 1 143 22 is_stmt 0 view .LVU261
 948 0004 0348     		ldr	r0, .L49
 949              	.LVL114:
 143:lvgl/src/extra/widgets/menu/lv_menu.c ****     lv_obj_class_init_obj(obj);
 950              		.loc 1 143 22 view .LVU262
 951 0006 FFF7FEFF 		bl	lv_obj_class_create_obj
 952              	.LVL115:
 143:lvgl/src/extra/widgets/menu/lv_menu.c ****     lv_obj_class_init_obj(obj);
 953              		.loc 1 143 22 view .LVU263
 954 000a 0446     		mov	r4, r0
 955              	.LVL116:
 144:lvgl/src/extra/widgets/menu/lv_menu.c ****     return obj;
 956              		.loc 1 144 5 is_stmt 1 view .LVU264
 957 000c FFF7FEFF 		bl	lv_obj_class_init_obj
 958              	.LVL117:
 145:lvgl/src/extra/widgets/menu/lv_menu.c **** }
 959              		.loc 1 145 5 view .LVU265
 146:lvgl/src/extra/widgets/menu/lv_menu.c **** 
 960              		.loc 1 146 1 is_stmt 0 view .LVU266
 961 0010 2046     		mov	r0, r4
 962 0012 10BD     		pop	{r4, pc}
 963              	.LVL118:
 964              	.L50:
 146:lvgl/src/extra/widgets/menu/lv_menu.c **** 
 965              		.loc 1 146 1 view .LVU267
 966              		.align	2
 967              	.L49:
 968 0014 00000000 		.word	lv_menu_cont_class
 969              		.cfi_endproc
 970              	.LFE163:
 972              		.section	.text.lv_menu_section_create,"ax",%progbits
 973              		.align	1
 974              		.global	lv_menu_section_create
ARM GAS  C:\usertemp\cc5ZvGn0.s 			page 34


 975              		.syntax unified
 976              		.thumb
 977              		.thumb_func
 979              	lv_menu_section_create:
 980              	.LVL119:
 981              	.LFB164:
 149:lvgl/src/extra/widgets/menu/lv_menu.c ****     LV_LOG_INFO("begin");
 982              		.loc 1 149 1 is_stmt 1 view -0
 983              		.cfi_startproc
 984              		@ args = 0, pretend = 0, frame = 0
 985              		@ frame_needed = 0, uses_anonymous_args = 0
 149:lvgl/src/extra/widgets/menu/lv_menu.c ****     LV_LOG_INFO("begin");
 986              		.loc 1 149 1 is_stmt 0 view .LVU269
 987 0000 10B5     		push	{r4, lr}
 988              	.LCFI13:
 989              		.cfi_def_cfa_offset 8
 990              		.cfi_offset 4, -8
 991              		.cfi_offset 14, -4
 992 0002 0146     		mov	r1, r0
 150:lvgl/src/extra/widgets/menu/lv_menu.c ****     lv_obj_t * obj = lv_obj_class_create_obj(&lv_menu_section_class, parent);
 993              		.loc 1 150 5 is_stmt 1 view .LVU270
 150:lvgl/src/extra/widgets/menu/lv_menu.c ****     lv_obj_t * obj = lv_obj_class_create_obj(&lv_menu_section_class, parent);
 994              		.loc 1 150 5 view .LVU271
 150:lvgl/src/extra/widgets/menu/lv_menu.c ****     lv_obj_t * obj = lv_obj_class_create_obj(&lv_menu_section_class, parent);
 995              		.loc 1 150 5 view .LVU272
 151:lvgl/src/extra/widgets/menu/lv_menu.c ****     lv_obj_class_init_obj(obj);
 996              		.loc 1 151 5 view .LVU273
 151:lvgl/src/extra/widgets/menu/lv_menu.c ****     lv_obj_class_init_obj(obj);
 997              		.loc 1 151 22 is_stmt 0 view .LVU274
 998 0004 0348     		ldr	r0, .L53
 999              	.LVL120:
 151:lvgl/src/extra/widgets/menu/lv_menu.c ****     lv_obj_class_init_obj(obj);
 1000              		.loc 1 151 22 view .LVU275
 1001 0006 FFF7FEFF 		bl	lv_obj_class_create_obj
 1002              	.LVL121:
 151:lvgl/src/extra/widgets/menu/lv_menu.c ****     lv_obj_class_init_obj(obj);
 1003              		.loc 1 151 22 view .LVU276
 1004 000a 0446     		mov	r4, r0
 1005              	.LVL122:
 152:lvgl/src/extra/widgets/menu/lv_menu.c ****     return obj;
 1006              		.loc 1 152 5 is_stmt 1 view .LVU277
 1007 000c FFF7FEFF 		bl	lv_obj_class_init_obj
 1008              	.LVL123:
 153:lvgl/src/extra/widgets/menu/lv_menu.c **** }
 1009              		.loc 1 153 5 view .LVU278
 154:lvgl/src/extra/widgets/menu/lv_menu.c **** 
 1010              		.loc 1 154 1 is_stmt 0 view .LVU279
 1011 0010 2046     		mov	r0, r4
 1012 0012 10BD     		pop	{r4, pc}
 1013              	.LVL124:
 1014              	.L54:
 154:lvgl/src/extra/widgets/menu/lv_menu.c **** 
 1015              		.loc 1 154 1 view .LVU280
 1016              		.align	2
 1017              	.L53:
 1018 0014 00000000 		.word	lv_menu_section_class
 1019              		.cfi_endproc
ARM GAS  C:\usertemp\cc5ZvGn0.s 			page 35


 1020              	.LFE164:
 1022              		.section	.text.lv_menu_separator_create,"ax",%progbits
 1023              		.align	1
 1024              		.global	lv_menu_separator_create
 1025              		.syntax unified
 1026              		.thumb
 1027              		.thumb_func
 1029              	lv_menu_separator_create:
 1030              	.LVL125:
 1031              	.LFB165:
 157:lvgl/src/extra/widgets/menu/lv_menu.c ****     LV_LOG_INFO("begin");
 1032              		.loc 1 157 1 is_stmt 1 view -0
 1033              		.cfi_startproc
 1034              		@ args = 0, pretend = 0, frame = 0
 1035              		@ frame_needed = 0, uses_anonymous_args = 0
 157:lvgl/src/extra/widgets/menu/lv_menu.c ****     LV_LOG_INFO("begin");
 1036              		.loc 1 157 1 is_stmt 0 view .LVU282
 1037 0000 10B5     		push	{r4, lr}
 1038              	.LCFI14:
 1039              		.cfi_def_cfa_offset 8
 1040              		.cfi_offset 4, -8
 1041              		.cfi_offset 14, -4
 1042 0002 0146     		mov	r1, r0
 158:lvgl/src/extra/widgets/menu/lv_menu.c ****     lv_obj_t * obj = lv_obj_class_create_obj(&lv_menu_separator_class, parent);
 1043              		.loc 1 158 5 is_stmt 1 view .LVU283
 158:lvgl/src/extra/widgets/menu/lv_menu.c ****     lv_obj_t * obj = lv_obj_class_create_obj(&lv_menu_separator_class, parent);
 1044              		.loc 1 158 5 view .LVU284
 158:lvgl/src/extra/widgets/menu/lv_menu.c ****     lv_obj_t * obj = lv_obj_class_create_obj(&lv_menu_separator_class, parent);
 1045              		.loc 1 158 5 view .LVU285
 159:lvgl/src/extra/widgets/menu/lv_menu.c ****     lv_obj_class_init_obj(obj);
 1046              		.loc 1 159 5 view .LVU286
 159:lvgl/src/extra/widgets/menu/lv_menu.c ****     lv_obj_class_init_obj(obj);
 1047              		.loc 1 159 22 is_stmt 0 view .LVU287
 1048 0004 0348     		ldr	r0, .L57
 1049              	.LVL126:
 159:lvgl/src/extra/widgets/menu/lv_menu.c ****     lv_obj_class_init_obj(obj);
 1050              		.loc 1 159 22 view .LVU288
 1051 0006 FFF7FEFF 		bl	lv_obj_class_create_obj
 1052              	.LVL127:
 159:lvgl/src/extra/widgets/menu/lv_menu.c ****     lv_obj_class_init_obj(obj);
 1053              		.loc 1 159 22 view .LVU289
 1054 000a 0446     		mov	r4, r0
 1055              	.LVL128:
 160:lvgl/src/extra/widgets/menu/lv_menu.c ****     return obj;
 1056              		.loc 1 160 5 is_stmt 1 view .LVU290
 1057 000c FFF7FEFF 		bl	lv_obj_class_init_obj
 1058              	.LVL129:
 161:lvgl/src/extra/widgets/menu/lv_menu.c **** }
 1059              		.loc 1 161 5 view .LVU291
 162:lvgl/src/extra/widgets/menu/lv_menu.c **** 
 1060              		.loc 1 162 1 is_stmt 0 view .LVU292
 1061 0010 2046     		mov	r0, r4
 1062 0012 10BD     		pop	{r4, pc}
 1063              	.LVL130:
 1064              	.L58:
 162:lvgl/src/extra/widgets/menu/lv_menu.c **** 
 1065              		.loc 1 162 1 view .LVU293
ARM GAS  C:\usertemp\cc5ZvGn0.s 			page 36


 1066              		.align	2
 1067              	.L57:
 1068 0014 00000000 		.word	lv_menu_separator_class
 1069              		.cfi_endproc
 1070              	.LFE165:
 1072              		.section	.text.lv_menu_set_mode_header,"ax",%progbits
 1073              		.align	1
 1074              		.global	lv_menu_set_mode_header
 1075              		.syntax unified
 1076              		.thumb
 1077              		.thumb_func
 1079              	lv_menu_set_mode_header:
 1080              	.LVL131:
 1081              	.LFB169:
 335:lvgl/src/extra/widgets/menu/lv_menu.c ****     LV_ASSERT_OBJ(obj, MY_CLASS);
 1082              		.loc 1 335 1 is_stmt 1 view -0
 1083              		.cfi_startproc
 1084              		@ args = 0, pretend = 0, frame = 0
 1085              		@ frame_needed = 0, uses_anonymous_args = 0
 336:lvgl/src/extra/widgets/menu/lv_menu.c **** 
 1086              		.loc 1 336 5 view .LVU295
 336:lvgl/src/extra/widgets/menu/lv_menu.c **** 
 1087              		.loc 1 336 5 view .LVU296
 336:lvgl/src/extra/widgets/menu/lv_menu.c **** 
 1088              		.loc 1 336 5 view .LVU297
 338:lvgl/src/extra/widgets/menu/lv_menu.c **** 
 1089              		.loc 1 338 5 view .LVU298
 340:lvgl/src/extra/widgets/menu/lv_menu.c ****         menu->mode_header = mode_header;
 1090              		.loc 1 340 5 view .LVU299
 340:lvgl/src/extra/widgets/menu/lv_menu.c ****         menu->mode_header = mode_header;
 1091              		.loc 1 340 12 is_stmt 0 view .LVU300
 1092 0000 90F86230 		ldrb	r3, [r0, #98]	@ zero_extendqisi2
 1093 0004 C3F34103 		ubfx	r3, r3, #1, #2
 340:lvgl/src/extra/widgets/menu/lv_menu.c ****         menu->mode_header = mode_header;
 1094              		.loc 1 340 7 view .LVU301
 1095 0008 8B42     		cmp	r3, r1
 1096 000a 00D1     		bne	.L65
 1097 000c 7047     		bx	lr
 1098              	.L65:
 335:lvgl/src/extra/widgets/menu/lv_menu.c ****     LV_ASSERT_OBJ(obj, MY_CLASS);
 1099              		.loc 1 335 1 view .LVU302
 1100 000e 10B5     		push	{r4, lr}
 1101              	.LCFI15:
 1102              		.cfi_def_cfa_offset 8
 1103              		.cfi_offset 4, -8
 1104              		.cfi_offset 14, -4
 1105 0010 0446     		mov	r4, r0
 341:lvgl/src/extra/widgets/menu/lv_menu.c ****         lv_menu_refr_main_header_mode(obj);
 1106              		.loc 1 341 9 is_stmt 1 view .LVU303
 341:lvgl/src/extra/widgets/menu/lv_menu.c ****         lv_menu_refr_main_header_mode(obj);
 1107              		.loc 1 341 27 is_stmt 0 view .LVU304
 1108 0012 90F86230 		ldrb	r3, [r0, #98]	@ zero_extendqisi2
 1109 0016 61F34203 		bfi	r3, r1, #1, #2
 1110 001a 80F86230 		strb	r3, [r0, #98]
 342:lvgl/src/extra/widgets/menu/lv_menu.c ****         if(menu->sidebar_generated) lv_menu_refr_sidebar_header_mode(obj);
 1111              		.loc 1 342 9 is_stmt 1 view .LVU305
 1112 001e FFF7FEFF 		bl	lv_menu_refr_main_header_mode
ARM GAS  C:\usertemp\cc5ZvGn0.s 			page 37


 1113              	.LVL132:
 343:lvgl/src/extra/widgets/menu/lv_menu.c ****     }
 1114              		.loc 1 343 9 view .LVU306
 343:lvgl/src/extra/widgets/menu/lv_menu.c ****     }
 1115              		.loc 1 343 12 is_stmt 0 view .LVU307
 1116 0022 94F86230 		ldrb	r3, [r4, #98]	@ zero_extendqisi2
 343:lvgl/src/extra/widgets/menu/lv_menu.c ****     }
 1117              		.loc 1 343 11 view .LVU308
 1118 0026 13F0010F 		tst	r3, #1
 1119 002a 00D1     		bne	.L66
 1120              	.L59:
 345:lvgl/src/extra/widgets/menu/lv_menu.c **** 
 1121              		.loc 1 345 1 view .LVU309
 1122 002c 10BD     		pop	{r4, pc}
 1123              	.LVL133:
 1124              	.L66:
 343:lvgl/src/extra/widgets/menu/lv_menu.c ****     }
 1125              		.loc 1 343 37 is_stmt 1 discriminator 1 view .LVU310
 1126 002e 2046     		mov	r0, r4
 1127 0030 FFF7FEFF 		bl	lv_menu_refr_sidebar_header_mode
 1128              	.LVL134:
 345:lvgl/src/extra/widgets/menu/lv_menu.c **** 
 1129              		.loc 1 345 1 is_stmt 0 view .LVU311
 1130 0034 FAE7     		b	.L59
 1131              		.cfi_endproc
 1132              	.LFE169:
 1134              		.section	.text.lv_menu_set_load_page_event,"ax",%progbits
 1135              		.align	1
 1136              		.global	lv_menu_set_load_page_event
 1137              		.syntax unified
 1138              		.thumb
 1139              		.thumb_func
 1141              	lv_menu_set_load_page_event:
 1142              	.LVL135:
 1143              	.LFB171:
 360:lvgl/src/extra/widgets/menu/lv_menu.c ****     LV_ASSERT_OBJ(menu, MY_CLASS);
 1144              		.loc 1 360 1 is_stmt 1 view -0
 1145              		.cfi_startproc
 1146              		@ args = 0, pretend = 0, frame = 0
 1147              		@ frame_needed = 0, uses_anonymous_args = 0
 360:lvgl/src/extra/widgets/menu/lv_menu.c ****     LV_ASSERT_OBJ(menu, MY_CLASS);
 1148              		.loc 1 360 1 is_stmt 0 view .LVU313
 1149 0000 F8B5     		push	{r3, r4, r5, r6, r7, lr}
 1150              	.LCFI16:
 1151              		.cfi_def_cfa_offset 24
 1152              		.cfi_offset 3, -24
 1153              		.cfi_offset 4, -20
 1154              		.cfi_offset 5, -16
 1155              		.cfi_offset 6, -12
 1156              		.cfi_offset 7, -8
 1157              		.cfi_offset 14, -4
 1158 0002 0746     		mov	r7, r0
 1159 0004 0C46     		mov	r4, r1
 1160 0006 1646     		mov	r6, r2
 361:lvgl/src/extra/widgets/menu/lv_menu.c **** 
 1161              		.loc 1 361 5 is_stmt 1 view .LVU314
 361:lvgl/src/extra/widgets/menu/lv_menu.c **** 
ARM GAS  C:\usertemp\cc5ZvGn0.s 			page 38


 1162              		.loc 1 361 5 view .LVU315
 361:lvgl/src/extra/widgets/menu/lv_menu.c **** 
 1163              		.loc 1 361 5 view .LVU316
 364:lvgl/src/extra/widgets/menu/lv_menu.c **** 
 1164              		.loc 1 364 5 view .LVU317
 1165 0008 0221     		movs	r1, #2
 1166              	.LVL136:
 364:lvgl/src/extra/widgets/menu/lv_menu.c **** 
 1167              		.loc 1 364 5 is_stmt 0 view .LVU318
 1168 000a 2046     		mov	r0, r4
 1169              	.LVL137:
 364:lvgl/src/extra/widgets/menu/lv_menu.c **** 
 1170              		.loc 1 364 5 view .LVU319
 1171 000c FFF7FEFF 		bl	lv_obj_add_flag
 1172              	.LVL138:
 367:lvgl/src/extra/widgets/menu/lv_menu.c ****         lv_event_send(obj, LV_EVENT_DELETE, NULL);
 1173              		.loc 1 367 5 is_stmt 1 view .LVU320
 367:lvgl/src/extra/widgets/menu/lv_menu.c ****         lv_event_send(obj, LV_EVENT_DELETE, NULL);
 1174              		.loc 1 367 8 is_stmt 0 view .LVU321
 1175 0010 1049     		ldr	r1, .L71
 1176 0012 2046     		mov	r0, r4
 1177 0014 FFF7FEFF 		bl	lv_obj_remove_event_cb
 1178              	.LVL139:
 367:lvgl/src/extra/widgets/menu/lv_menu.c ****         lv_event_send(obj, LV_EVENT_DELETE, NULL);
 1179              		.loc 1 367 7 discriminator 1 view .LVU322
 1180 0018 90B9     		cbnz	r0, .L70
 1181              	.L68:
 372:lvgl/src/extra/widgets/menu/lv_menu.c ****     event_data->menu = menu;
 1182              		.loc 1 372 5 is_stmt 1 view .LVU323
 372:lvgl/src/extra/widgets/menu/lv_menu.c ****     event_data->menu = menu;
 1183              		.loc 1 372 51 is_stmt 0 view .LVU324
 1184 001a 0820     		movs	r0, #8
 1185 001c FFF7FEFF 		bl	lv_mem_alloc
 1186              	.LVL140:
 1187 0020 0546     		mov	r5, r0
 1188              	.LVL141:
 373:lvgl/src/extra/widgets/menu/lv_menu.c ****     event_data->page = page;
 1189              		.loc 1 373 5 is_stmt 1 view .LVU325
 373:lvgl/src/extra/widgets/menu/lv_menu.c ****     event_data->page = page;
 1190              		.loc 1 373 22 is_stmt 0 view .LVU326
 1191 0022 0760     		str	r7, [r0]
 374:lvgl/src/extra/widgets/menu/lv_menu.c **** 
 1192              		.loc 1 374 5 is_stmt 1 view .LVU327
 374:lvgl/src/extra/widgets/menu/lv_menu.c **** 
 1193              		.loc 1 374 22 is_stmt 0 view .LVU328
 1194 0024 4660     		str	r6, [r0, #4]
 376:lvgl/src/extra/widgets/menu/lv_menu.c ****     lv_obj_add_event_cb(obj, lv_menu_obj_del_event_cb, LV_EVENT_DELETE, event_data);
 1195              		.loc 1 376 5 is_stmt 1 view .LVU329
 1196 0026 0346     		mov	r3, r0
 1197 0028 0722     		movs	r2, #7
 1198 002a 0A49     		ldr	r1, .L71
 1199 002c 2046     		mov	r0, r4
 1200              	.LVL142:
 376:lvgl/src/extra/widgets/menu/lv_menu.c ****     lv_obj_add_event_cb(obj, lv_menu_obj_del_event_cb, LV_EVENT_DELETE, event_data);
 1201              		.loc 1 376 5 is_stmt 0 view .LVU330
 1202 002e FFF7FEFF 		bl	lv_obj_add_event_cb
 1203              	.LVL143:
ARM GAS  C:\usertemp\cc5ZvGn0.s 			page 39


 377:lvgl/src/extra/widgets/menu/lv_menu.c **** }
 1204              		.loc 1 377 5 is_stmt 1 view .LVU331
 1205 0032 2B46     		mov	r3, r5
 1206 0034 2122     		movs	r2, #33
 1207 0036 0849     		ldr	r1, .L71+4
 1208 0038 2046     		mov	r0, r4
 1209 003a FFF7FEFF 		bl	lv_obj_add_event_cb
 1210              	.LVL144:
 378:lvgl/src/extra/widgets/menu/lv_menu.c **** 
 1211              		.loc 1 378 1 is_stmt 0 view .LVU332
 1212 003e F8BD     		pop	{r3, r4, r5, r6, r7, pc}
 1213              	.LVL145:
 1214              	.L70:
 368:lvgl/src/extra/widgets/menu/lv_menu.c ****         lv_obj_remove_event_cb(obj, lv_menu_obj_del_event_cb);
 1215              		.loc 1 368 9 is_stmt 1 view .LVU333
 1216 0040 0022     		movs	r2, #0
 1217 0042 2121     		movs	r1, #33
 1218 0044 2046     		mov	r0, r4
 1219 0046 FFF7FEFF 		bl	lv_event_send
 1220              	.LVL146:
 369:lvgl/src/extra/widgets/menu/lv_menu.c ****     }
 1221              		.loc 1 369 9 view .LVU334
 1222 004a 0349     		ldr	r1, .L71+4
 1223 004c 2046     		mov	r0, r4
 1224 004e FFF7FEFF 		bl	lv_obj_remove_event_cb
 1225              	.LVL147:
 1226 0052 E2E7     		b	.L68
 1227              	.L72:
 1228              		.align	2
 1229              	.L71:
 1230 0054 00000000 		.word	lv_menu_load_page_event_cb
 1231 0058 00000000 		.word	lv_menu_obj_del_event_cb
 1232              		.cfi_endproc
 1233              	.LFE171:
 1235              		.section	.text.lv_menu_get_cur_main_page,"ax",%progbits
 1236              		.align	1
 1237              		.global	lv_menu_get_cur_main_page
 1238              		.syntax unified
 1239              		.thumb
 1240              		.thumb_func
 1242              	lv_menu_get_cur_main_page:
 1243              	.LVL148:
 1244              	.LFB172:
 384:lvgl/src/extra/widgets/menu/lv_menu.c ****     LV_ASSERT_OBJ(obj, MY_CLASS);
 1245              		.loc 1 384 1 view -0
 1246              		.cfi_startproc
 1247              		@ args = 0, pretend = 0, frame = 0
 1248              		@ frame_needed = 0, uses_anonymous_args = 0
 1249              		@ link register save eliminated.
 385:lvgl/src/extra/widgets/menu/lv_menu.c **** 
 1250              		.loc 1 385 5 view .LVU336
 385:lvgl/src/extra/widgets/menu/lv_menu.c **** 
 1251              		.loc 1 385 5 view .LVU337
 385:lvgl/src/extra/widgets/menu/lv_menu.c **** 
 1252              		.loc 1 385 5 view .LVU338
 387:lvgl/src/extra/widgets/menu/lv_menu.c ****     return menu->main_page;
 1253              		.loc 1 387 5 view .LVU339
ARM GAS  C:\usertemp\cc5ZvGn0.s 			page 40


 388:lvgl/src/extra/widgets/menu/lv_menu.c **** }
 1254              		.loc 1 388 5 view .LVU340
 389:lvgl/src/extra/widgets/menu/lv_menu.c **** 
 1255              		.loc 1 389 1 is_stmt 0 view .LVU341
 1256 0000 C06A     		ldr	r0, [r0, #44]
 1257              	.LVL149:
 389:lvgl/src/extra/widgets/menu/lv_menu.c **** 
 1258              		.loc 1 389 1 view .LVU342
 1259 0002 7047     		bx	lr
 1260              		.cfi_endproc
 1261              	.LFE172:
 1263              		.section	.text.lv_menu_get_cur_sidebar_page,"ax",%progbits
 1264              		.align	1
 1265              		.global	lv_menu_get_cur_sidebar_page
 1266              		.syntax unified
 1267              		.thumb
 1268              		.thumb_func
 1270              	lv_menu_get_cur_sidebar_page:
 1271              	.LVL150:
 1272              	.LFB173:
 392:lvgl/src/extra/widgets/menu/lv_menu.c ****     LV_ASSERT_OBJ(obj, MY_CLASS);
 1273              		.loc 1 392 1 is_stmt 1 view -0
 1274              		.cfi_startproc
 1275              		@ args = 0, pretend = 0, frame = 0
 1276              		@ frame_needed = 0, uses_anonymous_args = 0
 1277              		@ link register save eliminated.
 393:lvgl/src/extra/widgets/menu/lv_menu.c **** 
 1278              		.loc 1 393 5 view .LVU344
 393:lvgl/src/extra/widgets/menu/lv_menu.c **** 
 1279              		.loc 1 393 5 view .LVU345
 393:lvgl/src/extra/widgets/menu/lv_menu.c **** 
 1280              		.loc 1 393 5 view .LVU346
 395:lvgl/src/extra/widgets/menu/lv_menu.c ****     return menu->sidebar_page;
 1281              		.loc 1 395 5 view .LVU347
 396:lvgl/src/extra/widgets/menu/lv_menu.c **** }
 1282              		.loc 1 396 5 view .LVU348
 397:lvgl/src/extra/widgets/menu/lv_menu.c **** 
 1283              		.loc 1 397 1 is_stmt 0 view .LVU349
 1284 0000 006C     		ldr	r0, [r0, #64]
 1285              	.LVL151:
 397:lvgl/src/extra/widgets/menu/lv_menu.c **** 
 1286              		.loc 1 397 1 view .LVU350
 1287 0002 7047     		bx	lr
 1288              		.cfi_endproc
 1289              	.LFE173:
 1291              		.section	.text.lv_menu_value_changed_event_cb,"ax",%progbits
 1292              		.align	1
 1293              		.syntax unified
 1294              		.thumb
 1295              		.thumb_func
 1297              	lv_menu_value_changed_event_cb:
 1298              	.LVL152:
 1299              	.LFB191:
 693:lvgl/src/extra/widgets/menu/lv_menu.c **** 
 694:lvgl/src/extra/widgets/menu/lv_menu.c **** static void lv_menu_back_event_cb(lv_event_t * e)
 695:lvgl/src/extra/widgets/menu/lv_menu.c **** {
 696:lvgl/src/extra/widgets/menu/lv_menu.c ****     lv_event_code_t code = lv_event_get_code(e);
ARM GAS  C:\usertemp\cc5ZvGn0.s 			page 41


 697:lvgl/src/extra/widgets/menu/lv_menu.c ****     /* LV_EVENT_CLICKED */
 698:lvgl/src/extra/widgets/menu/lv_menu.c ****     if(code == LV_EVENT_CLICKED) {
 699:lvgl/src/extra/widgets/menu/lv_menu.c ****         lv_obj_t * obj = lv_event_get_target(e);
 700:lvgl/src/extra/widgets/menu/lv_menu.c ****         lv_menu_t * menu = (lv_menu_t *)lv_event_get_user_data(e);
 701:lvgl/src/extra/widgets/menu/lv_menu.c **** 
 702:lvgl/src/extra/widgets/menu/lv_menu.c ****         if(!(obj == menu->main_header_back_btn || obj == menu->sidebar_header_back_btn)) return;
 703:lvgl/src/extra/widgets/menu/lv_menu.c **** 
 704:lvgl/src/extra/widgets/menu/lv_menu.c ****         menu->prev_depth = menu->cur_depth; /* Save the previous value for user event handler */
 705:lvgl/src/extra/widgets/menu/lv_menu.c **** 
 706:lvgl/src/extra/widgets/menu/lv_menu.c ****         if(lv_menu_back_btn_is_root((lv_obj_t *)menu, obj)) return;
 707:lvgl/src/extra/widgets/menu/lv_menu.c **** 
 708:lvgl/src/extra/widgets/menu/lv_menu.c ****         lv_ll_t * history_ll = &(menu->history_ll);
 709:lvgl/src/extra/widgets/menu/lv_menu.c **** 
 710:lvgl/src/extra/widgets/menu/lv_menu.c ****         /* The current menu */
 711:lvgl/src/extra/widgets/menu/lv_menu.c ****         lv_menu_history_t * act_hist = _lv_ll_get_head(history_ll);
 712:lvgl/src/extra/widgets/menu/lv_menu.c **** 
 713:lvgl/src/extra/widgets/menu/lv_menu.c ****         /* The previous menu */
 714:lvgl/src/extra/widgets/menu/lv_menu.c ****         lv_menu_history_t * prev_hist = _lv_ll_get_next(history_ll, act_hist);
 715:lvgl/src/extra/widgets/menu/lv_menu.c **** 
 716:lvgl/src/extra/widgets/menu/lv_menu.c ****         if(prev_hist != NULL) {
 717:lvgl/src/extra/widgets/menu/lv_menu.c ****             /* Previous menu exists */
 718:lvgl/src/extra/widgets/menu/lv_menu.c ****             /* Delete the current item from the history */
 719:lvgl/src/extra/widgets/menu/lv_menu.c ****             _lv_ll_remove(history_ll, act_hist);
 720:lvgl/src/extra/widgets/menu/lv_menu.c ****             lv_mem_free(act_hist);
 721:lvgl/src/extra/widgets/menu/lv_menu.c ****             menu->cur_depth--;
 722:lvgl/src/extra/widgets/menu/lv_menu.c ****             /* Create the previous menu.
 723:lvgl/src/extra/widgets/menu/lv_menu.c ****             *  Remove it from the history because `lv_menu_set_page` will add it again */
 724:lvgl/src/extra/widgets/menu/lv_menu.c ****             _lv_ll_remove(history_ll, prev_hist);
 725:lvgl/src/extra/widgets/menu/lv_menu.c ****             menu->cur_depth--;
 726:lvgl/src/extra/widgets/menu/lv_menu.c ****             lv_menu_set_page(&(menu->obj), prev_hist->page);
 727:lvgl/src/extra/widgets/menu/lv_menu.c **** 
 728:lvgl/src/extra/widgets/menu/lv_menu.c ****             lv_mem_free(prev_hist);
 729:lvgl/src/extra/widgets/menu/lv_menu.c ****         }
 730:lvgl/src/extra/widgets/menu/lv_menu.c ****     }
 731:lvgl/src/extra/widgets/menu/lv_menu.c **** }
 732:lvgl/src/extra/widgets/menu/lv_menu.c **** 
 733:lvgl/src/extra/widgets/menu/lv_menu.c **** static void lv_menu_value_changed_event_cb(lv_event_t * e)
 734:lvgl/src/extra/widgets/menu/lv_menu.c **** {
 1300              		.loc 1 734 1 is_stmt 1 view -0
 1301              		.cfi_startproc
 1302              		@ args = 0, pretend = 0, frame = 0
 1303              		@ frame_needed = 0, uses_anonymous_args = 0
 1304              		.loc 1 734 1 is_stmt 0 view .LVU352
 1305 0000 10B5     		push	{r4, lr}
 1306              	.LCFI17:
 1307              		.cfi_def_cfa_offset 8
 1308              		.cfi_offset 4, -8
 1309              		.cfi_offset 14, -4
 735:lvgl/src/extra/widgets/menu/lv_menu.c ****     lv_obj_t * obj = lv_event_get_user_data(e);
 1310              		.loc 1 735 5 is_stmt 1 view .LVU353
 1311              		.loc 1 735 22 is_stmt 0 view .LVU354
 1312 0002 FFF7FEFF 		bl	lv_event_get_user_data
 1313              	.LVL153:
 1314              		.loc 1 735 22 view .LVU355
 1315 0006 0446     		mov	r4, r0
 1316              	.LVL154:
 736:lvgl/src/extra/widgets/menu/lv_menu.c ****     lv_menu_t * menu = (lv_menu_t *)obj;
ARM GAS  C:\usertemp\cc5ZvGn0.s 			page 42


 1317              		.loc 1 736 5 is_stmt 1 view .LVU356
 737:lvgl/src/extra/widgets/menu/lv_menu.c **** 
 738:lvgl/src/extra/widgets/menu/lv_menu.c ****     lv_menu_page_t * main_page = (lv_menu_page_t *)lv_menu_get_cur_main_page(obj);
 1318              		.loc 1 738 5 view .LVU357
 1319              		.loc 1 738 52 is_stmt 0 view .LVU358
 1320 0008 FFF7FEFF 		bl	lv_menu_get_cur_main_page
 1321              	.LVL155:
 739:lvgl/src/extra/widgets/menu/lv_menu.c ****     if(main_page != NULL && menu->main_header_title != NULL) {
 1322              		.loc 1 739 5 is_stmt 1 view .LVU359
 1323              		.loc 1 739 7 is_stmt 0 view .LVU360
 1324 000c 50B1     		cbz	r0, .L76
 1325 000e 0346     		mov	r3, r0
 1326              		.loc 1 739 33 discriminator 1 view .LVU361
 1327 0010 A06B     		ldr	r0, [r4, #56]
 1328              	.LVL156:
 1329              		.loc 1 739 26 discriminator 1 view .LVU362
 1330 0012 38B1     		cbz	r0, .L76
 740:lvgl/src/extra/widgets/menu/lv_menu.c ****         if(main_page->title != NULL) {
 1331              		.loc 1 740 9 is_stmt 1 view .LVU363
 1332              		.loc 1 740 21 is_stmt 0 view .LVU364
 1333 0014 596A     		ldr	r1, [r3, #36]
 1334              		.loc 1 740 11 view .LVU365
 1335 0016 A9B1     		cbz	r1, .L77
 741:lvgl/src/extra/widgets/menu/lv_menu.c ****             lv_label_set_text(menu->main_header_title, main_page->title);
 1336              		.loc 1 741 13 is_stmt 1 view .LVU366
 1337 0018 FFF7FEFF 		bl	lv_label_set_text
 1338              	.LVL157:
 742:lvgl/src/extra/widgets/menu/lv_menu.c ****             lv_obj_clear_flag(menu->main_header_title, LV_OBJ_FLAG_HIDDEN);
 1339              		.loc 1 742 13 view .LVU367
 1340 001c 0121     		movs	r1, #1
 1341 001e A06B     		ldr	r0, [r4, #56]
 1342 0020 FFF7FEFF 		bl	lv_obj_clear_flag
 1343              	.LVL158:
 1344              	.L76:
 743:lvgl/src/extra/widgets/menu/lv_menu.c ****         }
 744:lvgl/src/extra/widgets/menu/lv_menu.c ****         else {
 745:lvgl/src/extra/widgets/menu/lv_menu.c ****             lv_obj_add_flag(menu->main_header_title, LV_OBJ_FLAG_HIDDEN);
 746:lvgl/src/extra/widgets/menu/lv_menu.c ****         }
 747:lvgl/src/extra/widgets/menu/lv_menu.c ****     }
 748:lvgl/src/extra/widgets/menu/lv_menu.c **** 
 749:lvgl/src/extra/widgets/menu/lv_menu.c ****     lv_menu_page_t * sidebar_page = (lv_menu_page_t *)lv_menu_get_cur_sidebar_page(obj);
 1345              		.loc 1 749 5 view .LVU368
 1346              		.loc 1 749 55 is_stmt 0 view .LVU369
 1347 0024 2046     		mov	r0, r4
 1348 0026 FFF7FEFF 		bl	lv_menu_get_cur_sidebar_page
 1349              	.LVL159:
 750:lvgl/src/extra/widgets/menu/lv_menu.c ****     if(sidebar_page != NULL && menu->sidebar_header_title != NULL) {
 1350              		.loc 1 750 5 is_stmt 1 view .LVU370
 1351              		.loc 1 750 7 is_stmt 0 view .LVU371
 1352 002a 0346     		mov	r3, r0
 1353 002c 48B1     		cbz	r0, .L75
 1354              		.loc 1 750 36 discriminator 1 view .LVU372
 1355 002e E06C     		ldr	r0, [r4, #76]
 1356              	.LVL160:
 1357              		.loc 1 750 29 discriminator 1 view .LVU373
 1358 0030 38B1     		cbz	r0, .L75
 751:lvgl/src/extra/widgets/menu/lv_menu.c ****         if(sidebar_page->title != NULL) {
ARM GAS  C:\usertemp\cc5ZvGn0.s 			page 43


 1359              		.loc 1 751 9 is_stmt 1 view .LVU374
 1360              		.loc 1 751 24 is_stmt 0 view .LVU375
 1361 0032 596A     		ldr	r1, [r3, #36]
 1362              		.loc 1 751 11 view .LVU376
 1363 0034 51B1     		cbz	r1, .L79
 752:lvgl/src/extra/widgets/menu/lv_menu.c ****             lv_label_set_text(menu->sidebar_header_title, sidebar_page->title);
 1364              		.loc 1 752 13 is_stmt 1 view .LVU377
 1365 0036 FFF7FEFF 		bl	lv_label_set_text
 1366              	.LVL161:
 753:lvgl/src/extra/widgets/menu/lv_menu.c ****             lv_obj_clear_flag(menu->sidebar_header_title, LV_OBJ_FLAG_HIDDEN);
 1367              		.loc 1 753 13 view .LVU378
 1368 003a 0121     		movs	r1, #1
 1369 003c E06C     		ldr	r0, [r4, #76]
 1370 003e FFF7FEFF 		bl	lv_obj_clear_flag
 1371              	.LVL162:
 1372              	.L75:
 754:lvgl/src/extra/widgets/menu/lv_menu.c ****         }
 755:lvgl/src/extra/widgets/menu/lv_menu.c ****         else {
 756:lvgl/src/extra/widgets/menu/lv_menu.c ****             lv_obj_add_flag(menu->sidebar_header_title, LV_OBJ_FLAG_HIDDEN);
 757:lvgl/src/extra/widgets/menu/lv_menu.c ****         }
 758:lvgl/src/extra/widgets/menu/lv_menu.c ****     }
 759:lvgl/src/extra/widgets/menu/lv_menu.c **** }
 1373              		.loc 1 759 1 is_stmt 0 view .LVU379
 1374 0042 10BD     		pop	{r4, pc}
 1375              	.LVL163:
 1376              	.L77:
 745:lvgl/src/extra/widgets/menu/lv_menu.c ****         }
 1377              		.loc 1 745 13 is_stmt 1 view .LVU380
 1378 0044 0121     		movs	r1, #1
 1379 0046 FFF7FEFF 		bl	lv_obj_add_flag
 1380              	.LVL164:
 745:lvgl/src/extra/widgets/menu/lv_menu.c ****         }
 1381              		.loc 1 745 13 is_stmt 0 view .LVU381
 1382 004a EBE7     		b	.L76
 1383              	.LVL165:
 1384              	.L79:
 756:lvgl/src/extra/widgets/menu/lv_menu.c ****         }
 1385              		.loc 1 756 13 is_stmt 1 view .LVU382
 1386 004c 0121     		movs	r1, #1
 1387 004e FFF7FEFF 		bl	lv_obj_add_flag
 1388              	.LVL166:
 1389              		.loc 1 759 1 is_stmt 0 view .LVU383
 1390 0052 F6E7     		b	.L75
 1391              		.cfi_endproc
 1392              	.LFE191:
 1394              		.section	.text.lv_menu_get_main_header,"ax",%progbits
 1395              		.align	1
 1396              		.global	lv_menu_get_main_header
 1397              		.syntax unified
 1398              		.thumb
 1399              		.thumb_func
 1401              	lv_menu_get_main_header:
 1402              	.LVL167:
 1403              	.LFB174:
 400:lvgl/src/extra/widgets/menu/lv_menu.c ****     LV_ASSERT_OBJ(obj, MY_CLASS);
 1404              		.loc 1 400 1 is_stmt 1 view -0
 1405              		.cfi_startproc
ARM GAS  C:\usertemp\cc5ZvGn0.s 			page 44


 1406              		@ args = 0, pretend = 0, frame = 0
 1407              		@ frame_needed = 0, uses_anonymous_args = 0
 1408              		@ link register save eliminated.
 401:lvgl/src/extra/widgets/menu/lv_menu.c **** 
 1409              		.loc 1 401 5 view .LVU385
 401:lvgl/src/extra/widgets/menu/lv_menu.c **** 
 1410              		.loc 1 401 5 view .LVU386
 401:lvgl/src/extra/widgets/menu/lv_menu.c **** 
 1411              		.loc 1 401 5 view .LVU387
 403:lvgl/src/extra/widgets/menu/lv_menu.c ****     return menu->main_header;
 1412              		.loc 1 403 5 view .LVU388
 404:lvgl/src/extra/widgets/menu/lv_menu.c **** }
 1413              		.loc 1 404 5 view .LVU389
 405:lvgl/src/extra/widgets/menu/lv_menu.c **** 
 1414              		.loc 1 405 1 is_stmt 0 view .LVU390
 1415 0000 006B     		ldr	r0, [r0, #48]
 1416              	.LVL168:
 405:lvgl/src/extra/widgets/menu/lv_menu.c **** 
 1417              		.loc 1 405 1 view .LVU391
 1418 0002 7047     		bx	lr
 1419              		.cfi_endproc
 1420              	.LFE174:
 1422              		.section	.text.lv_menu_get_main_header_back_btn,"ax",%progbits
 1423              		.align	1
 1424              		.global	lv_menu_get_main_header_back_btn
 1425              		.syntax unified
 1426              		.thumb
 1427              		.thumb_func
 1429              	lv_menu_get_main_header_back_btn:
 1430              	.LVL169:
 1431              	.LFB175:
 408:lvgl/src/extra/widgets/menu/lv_menu.c ****     LV_ASSERT_OBJ(obj, MY_CLASS);
 1432              		.loc 1 408 1 is_stmt 1 view -0
 1433              		.cfi_startproc
 1434              		@ args = 0, pretend = 0, frame = 0
 1435              		@ frame_needed = 0, uses_anonymous_args = 0
 1436              		@ link register save eliminated.
 409:lvgl/src/extra/widgets/menu/lv_menu.c **** 
 1437              		.loc 1 409 5 view .LVU393
 409:lvgl/src/extra/widgets/menu/lv_menu.c **** 
 1438              		.loc 1 409 5 view .LVU394
 409:lvgl/src/extra/widgets/menu/lv_menu.c **** 
 1439              		.loc 1 409 5 view .LVU395
 411:lvgl/src/extra/widgets/menu/lv_menu.c ****     return menu->main_header_back_btn;
 1440              		.loc 1 411 5 view .LVU396
 412:lvgl/src/extra/widgets/menu/lv_menu.c **** }
 1441              		.loc 1 412 5 view .LVU397
 413:lvgl/src/extra/widgets/menu/lv_menu.c **** 
 1442              		.loc 1 413 1 is_stmt 0 view .LVU398
 1443 0000 406B     		ldr	r0, [r0, #52]
 1444              	.LVL170:
 413:lvgl/src/extra/widgets/menu/lv_menu.c **** 
 1445              		.loc 1 413 1 view .LVU399
 1446 0002 7047     		bx	lr
 1447              		.cfi_endproc
 1448              	.LFE175:
 1450              		.section	.text.lv_menu_get_sidebar_header,"ax",%progbits
ARM GAS  C:\usertemp\cc5ZvGn0.s 			page 45


 1451              		.align	1
 1452              		.global	lv_menu_get_sidebar_header
 1453              		.syntax unified
 1454              		.thumb
 1455              		.thumb_func
 1457              	lv_menu_get_sidebar_header:
 1458              	.LVL171:
 1459              	.LFB176:
 416:lvgl/src/extra/widgets/menu/lv_menu.c ****     LV_ASSERT_OBJ(obj, MY_CLASS);
 1460              		.loc 1 416 1 is_stmt 1 view -0
 1461              		.cfi_startproc
 1462              		@ args = 0, pretend = 0, frame = 0
 1463              		@ frame_needed = 0, uses_anonymous_args = 0
 1464              		@ link register save eliminated.
 417:lvgl/src/extra/widgets/menu/lv_menu.c **** 
 1465              		.loc 1 417 5 view .LVU401
 417:lvgl/src/extra/widgets/menu/lv_menu.c **** 
 1466              		.loc 1 417 5 view .LVU402
 417:lvgl/src/extra/widgets/menu/lv_menu.c **** 
 1467              		.loc 1 417 5 view .LVU403
 419:lvgl/src/extra/widgets/menu/lv_menu.c ****     return menu->sidebar_header;
 1468              		.loc 1 419 5 view .LVU404
 420:lvgl/src/extra/widgets/menu/lv_menu.c **** }
 1469              		.loc 1 420 5 view .LVU405
 421:lvgl/src/extra/widgets/menu/lv_menu.c **** 
 1470              		.loc 1 421 1 is_stmt 0 view .LVU406
 1471 0000 406C     		ldr	r0, [r0, #68]
 1472              	.LVL172:
 421:lvgl/src/extra/widgets/menu/lv_menu.c **** 
 1473              		.loc 1 421 1 view .LVU407
 1474 0002 7047     		bx	lr
 1475              		.cfi_endproc
 1476              	.LFE176:
 1478              		.section	.text.lv_menu_get_sidebar_header_back_btn,"ax",%progbits
 1479              		.align	1
 1480              		.global	lv_menu_get_sidebar_header_back_btn
 1481              		.syntax unified
 1482              		.thumb
 1483              		.thumb_func
 1485              	lv_menu_get_sidebar_header_back_btn:
 1486              	.LVL173:
 1487              	.LFB177:
 424:lvgl/src/extra/widgets/menu/lv_menu.c ****     LV_ASSERT_OBJ(obj, MY_CLASS);
 1488              		.loc 1 424 1 is_stmt 1 view -0
 1489              		.cfi_startproc
 1490              		@ args = 0, pretend = 0, frame = 0
 1491              		@ frame_needed = 0, uses_anonymous_args = 0
 1492              		@ link register save eliminated.
 425:lvgl/src/extra/widgets/menu/lv_menu.c **** 
 1493              		.loc 1 425 5 view .LVU409
 425:lvgl/src/extra/widgets/menu/lv_menu.c **** 
 1494              		.loc 1 425 5 view .LVU410
 425:lvgl/src/extra/widgets/menu/lv_menu.c **** 
 1495              		.loc 1 425 5 view .LVU411
 427:lvgl/src/extra/widgets/menu/lv_menu.c ****     return menu->sidebar_header_back_btn;
 1496              		.loc 1 427 5 view .LVU412
 428:lvgl/src/extra/widgets/menu/lv_menu.c **** }
ARM GAS  C:\usertemp\cc5ZvGn0.s 			page 46


 1497              		.loc 1 428 5 view .LVU413
 429:lvgl/src/extra/widgets/menu/lv_menu.c **** 
 1498              		.loc 1 429 1 is_stmt 0 view .LVU414
 1499 0000 806C     		ldr	r0, [r0, #72]
 1500              	.LVL174:
 429:lvgl/src/extra/widgets/menu/lv_menu.c **** 
 1501              		.loc 1 429 1 view .LVU415
 1502 0002 7047     		bx	lr
 1503              		.cfi_endproc
 1504              	.LFE177:
 1506              		.section	.text.lv_menu_back_btn_is_root,"ax",%progbits
 1507              		.align	1
 1508              		.global	lv_menu_back_btn_is_root
 1509              		.syntax unified
 1510              		.thumb
 1511              		.thumb_func
 1513              	lv_menu_back_btn_is_root:
 1514              	.LVL175:
 1515              	.LFB178:
 432:lvgl/src/extra/widgets/menu/lv_menu.c ****     LV_ASSERT_OBJ(menu, MY_CLASS);
 1516              		.loc 1 432 1 is_stmt 1 view -0
 1517              		.cfi_startproc
 1518              		@ args = 0, pretend = 0, frame = 0
 1519              		@ frame_needed = 0, uses_anonymous_args = 0
 1520              		@ link register save eliminated.
 433:lvgl/src/extra/widgets/menu/lv_menu.c **** 
 1521              		.loc 1 433 5 view .LVU417
 433:lvgl/src/extra/widgets/menu/lv_menu.c **** 
 1522              		.loc 1 433 5 view .LVU418
 433:lvgl/src/extra/widgets/menu/lv_menu.c **** 
 1523              		.loc 1 433 5 view .LVU419
 435:lvgl/src/extra/widgets/menu/lv_menu.c ****         return true;
 1524              		.loc 1 435 5 view .LVU420
 435:lvgl/src/extra/widgets/menu/lv_menu.c ****         return true;
 1525              		.loc 1 435 34 is_stmt 0 view .LVU421
 1526 0000 836C     		ldr	r3, [r0, #72]
 435:lvgl/src/extra/widgets/menu/lv_menu.c ****         return true;
 1527              		.loc 1 435 7 view .LVU422
 1528 0002 8B42     		cmp	r3, r1
 1529 0004 0AD0     		beq	.L87
 439:lvgl/src/extra/widgets/menu/lv_menu.c ****         return true;
 1530              		.loc 1 439 5 is_stmt 1 view .LVU423
 439:lvgl/src/extra/widgets/menu/lv_menu.c ****         return true;
 1531              		.loc 1 439 34 is_stmt 0 view .LVU424
 1532 0006 436B     		ldr	r3, [r0, #52]
 439:lvgl/src/extra/widgets/menu/lv_menu.c ****         return true;
 1533              		.loc 1 439 7 view .LVU425
 1534 0008 8B42     		cmp	r3, r1
 1535 000a 01D0     		beq	.L90
 443:lvgl/src/extra/widgets/menu/lv_menu.c **** }
 1536              		.loc 1 443 12 view .LVU426
 1537 000c 0020     		movs	r0, #0
 1538              	.LVL176:
 443:lvgl/src/extra/widgets/menu/lv_menu.c **** }
 1539              		.loc 1 443 12 view .LVU427
 1540 000e 7047     		bx	lr
 1541              	.LVL177:
ARM GAS  C:\usertemp\cc5ZvGn0.s 			page 47


 1542              	.L90:
 439:lvgl/src/extra/widgets/menu/lv_menu.c ****         return true;
 1543              		.loc 1 439 79 discriminator 1 view .LVU428
 1544 0010 90F86130 		ldrb	r3, [r0, #97]	@ zero_extendqisi2
 439:lvgl/src/extra/widgets/menu/lv_menu.c ****         return true;
 1545              		.loc 1 439 57 discriminator 1 view .LVU429
 1546 0014 012B     		cmp	r3, #1
 1547 0016 03D9     		bls	.L89
 443:lvgl/src/extra/widgets/menu/lv_menu.c **** }
 1548              		.loc 1 443 12 view .LVU430
 1549 0018 0020     		movs	r0, #0
 1550              	.LVL178:
 443:lvgl/src/extra/widgets/menu/lv_menu.c **** }
 1551              		.loc 1 443 12 view .LVU431
 1552 001a 7047     		bx	lr
 1553              	.LVL179:
 1554              	.L87:
 436:lvgl/src/extra/widgets/menu/lv_menu.c ****     }
 1555              		.loc 1 436 16 view .LVU432
 1556 001c 0120     		movs	r0, #1
 1557              	.LVL180:
 436:lvgl/src/extra/widgets/menu/lv_menu.c ****     }
 1558              		.loc 1 436 16 view .LVU433
 1559 001e 7047     		bx	lr
 1560              	.LVL181:
 1561              	.L89:
 440:lvgl/src/extra/widgets/menu/lv_menu.c ****     }
 1562              		.loc 1 440 16 view .LVU434
 1563 0020 0120     		movs	r0, #1
 1564              	.LVL182:
 444:lvgl/src/extra/widgets/menu/lv_menu.c **** 
 1565              		.loc 1 444 1 view .LVU435
 1566 0022 7047     		bx	lr
 1567              		.cfi_endproc
 1568              	.LFE178:
 1570              		.section	.text.lv_menu_clear_history,"ax",%progbits
 1571              		.align	1
 1572              		.global	lv_menu_clear_history
 1573              		.syntax unified
 1574              		.thumb
 1575              		.thumb_func
 1577              	lv_menu_clear_history:
 1578              	.LVL183:
 1579              	.LFB179:
 447:lvgl/src/extra/widgets/menu/lv_menu.c ****     LV_ASSERT_OBJ(obj, MY_CLASS);
 1580              		.loc 1 447 1 is_stmt 1 view -0
 1581              		.cfi_startproc
 1582              		@ args = 0, pretend = 0, frame = 0
 1583              		@ frame_needed = 0, uses_anonymous_args = 0
 447:lvgl/src/extra/widgets/menu/lv_menu.c ****     LV_ASSERT_OBJ(obj, MY_CLASS);
 1584              		.loc 1 447 1 is_stmt 0 view .LVU437
 1585 0000 10B5     		push	{r4, lr}
 1586              	.LCFI18:
 1587              		.cfi_def_cfa_offset 8
 1588              		.cfi_offset 4, -8
 1589              		.cfi_offset 14, -4
 1590 0002 0446     		mov	r4, r0
ARM GAS  C:\usertemp\cc5ZvGn0.s 			page 48


 448:lvgl/src/extra/widgets/menu/lv_menu.c **** 
 1591              		.loc 1 448 5 is_stmt 1 view .LVU438
 448:lvgl/src/extra/widgets/menu/lv_menu.c **** 
 1592              		.loc 1 448 5 view .LVU439
 448:lvgl/src/extra/widgets/menu/lv_menu.c **** 
 1593              		.loc 1 448 5 view .LVU440
 450:lvgl/src/extra/widgets/menu/lv_menu.c ****     lv_ll_t * history_ll = &(menu->history_ll);
 1594              		.loc 1 450 5 view .LVU441
 1595              	.LVL184:
 451:lvgl/src/extra/widgets/menu/lv_menu.c **** 
 1596              		.loc 1 451 5 view .LVU442
 453:lvgl/src/extra/widgets/menu/lv_menu.c **** 
 1597              		.loc 1 453 5 view .LVU443
 1598 0004 5430     		adds	r0, r0, #84
 1599              	.LVL185:
 453:lvgl/src/extra/widgets/menu/lv_menu.c **** 
 1600              		.loc 1 453 5 is_stmt 0 view .LVU444
 1601 0006 FFF7FEFF 		bl	_lv_ll_clear
 1602              	.LVL186:
 455:lvgl/src/extra/widgets/menu/lv_menu.c **** }
 1603              		.loc 1 455 5 is_stmt 1 view .LVU445
 455:lvgl/src/extra/widgets/menu/lv_menu.c **** }
 1604              		.loc 1 455 21 is_stmt 0 view .LVU446
 1605 000a 0023     		movs	r3, #0
 1606 000c 84F86030 		strb	r3, [r4, #96]
 456:lvgl/src/extra/widgets/menu/lv_menu.c **** 
 1607              		.loc 1 456 1 view .LVU447
 1608 0010 10BD     		pop	{r4, pc}
 456:lvgl/src/extra/widgets/menu/lv_menu.c **** 
 1609              		.loc 1 456 1 view .LVU448
 1610              		.cfi_endproc
 1611              	.LFE179:
 1613              		.section	.text.lv_menu_set_page,"ax",%progbits
 1614              		.align	1
 1615              		.global	lv_menu_set_page
 1616              		.syntax unified
 1617              		.thumb
 1618              		.thumb_func
 1620              	lv_menu_set_page:
 1621              	.LVL187:
 1622              	.LFB167:
 193:lvgl/src/extra/widgets/menu/lv_menu.c ****     LV_ASSERT_OBJ(obj, MY_CLASS);
 1623              		.loc 1 193 1 is_stmt 1 view -0
 1624              		.cfi_startproc
 1625              		@ args = 0, pretend = 0, frame = 0
 1626              		@ frame_needed = 0, uses_anonymous_args = 0
 193:lvgl/src/extra/widgets/menu/lv_menu.c ****     LV_ASSERT_OBJ(obj, MY_CLASS);
 1627              		.loc 1 193 1 is_stmt 0 view .LVU450
 1628 0000 38B5     		push	{r3, r4, r5, lr}
 1629              	.LCFI19:
 1630              		.cfi_def_cfa_offset 16
 1631              		.cfi_offset 3, -16
 1632              		.cfi_offset 4, -12
 1633              		.cfi_offset 5, -8
 1634              		.cfi_offset 14, -4
 1635 0002 0446     		mov	r4, r0
 1636 0004 0D46     		mov	r5, r1
ARM GAS  C:\usertemp\cc5ZvGn0.s 			page 49


 194:lvgl/src/extra/widgets/menu/lv_menu.c **** 
 1637              		.loc 1 194 5 is_stmt 1 view .LVU451
 194:lvgl/src/extra/widgets/menu/lv_menu.c **** 
 1638              		.loc 1 194 5 view .LVU452
 194:lvgl/src/extra/widgets/menu/lv_menu.c **** 
 1639              		.loc 1 194 5 view .LVU453
 196:lvgl/src/extra/widgets/menu/lv_menu.c **** 
 1640              		.loc 1 196 5 view .LVU454
 1641              	.LVL188:
 199:lvgl/src/extra/widgets/menu/lv_menu.c ****         lv_obj_set_parent(menu->main_page, menu->storage);
 1642              		.loc 1 199 5 view .LVU455
 199:lvgl/src/extra/widgets/menu/lv_menu.c ****         lv_obj_set_parent(menu->main_page, menu->storage);
 1643              		.loc 1 199 12 is_stmt 0 view .LVU456
 1644 0006 C06A     		ldr	r0, [r0, #44]
 1645              	.LVL189:
 199:lvgl/src/extra/widgets/menu/lv_menu.c ****         lv_obj_set_parent(menu->main_page, menu->storage);
 1646              		.loc 1 199 7 view .LVU457
 1647 0008 10B1     		cbz	r0, .L94
 200:lvgl/src/extra/widgets/menu/lv_menu.c ****     }
 1648              		.loc 1 200 9 is_stmt 1 view .LVU458
 1649 000a 616A     		ldr	r1, [r4, #36]
 1650              	.LVL190:
 200:lvgl/src/extra/widgets/menu/lv_menu.c ****     }
 1651              		.loc 1 200 9 is_stmt 0 view .LVU459
 1652 000c FFF7FEFF 		bl	lv_obj_set_parent
 1653              	.LVL191:
 1654              	.L94:
 203:lvgl/src/extra/widgets/menu/lv_menu.c ****         /* Add a new node */
 1655              		.loc 1 203 5 is_stmt 1 view .LVU460
 203:lvgl/src/extra/widgets/menu/lv_menu.c ****         /* Add a new node */
 1656              		.loc 1 203 7 is_stmt 0 view .LVU461
 1657 0010 002D     		cmp	r5, #0
 1658 0012 3DD0     		beq	.L95
 1659              	.LBB2:
 205:lvgl/src/extra/widgets/menu/lv_menu.c ****         lv_menu_history_t * new_node = _lv_ll_ins_head(history_ll);
 1660              		.loc 1 205 9 is_stmt 1 view .LVU462
 1661              	.LVL192:
 206:lvgl/src/extra/widgets/menu/lv_menu.c ****         new_node->page = page;
 1662              		.loc 1 206 9 view .LVU463
 206:lvgl/src/extra/widgets/menu/lv_menu.c ****         new_node->page = page;
 1663              		.loc 1 206 40 is_stmt 0 view .LVU464
 1664 0014 04F15400 		add	r0, r4, #84
 1665              	.LVL193:
 206:lvgl/src/extra/widgets/menu/lv_menu.c ****         new_node->page = page;
 1666              		.loc 1 206 40 view .LVU465
 1667 0018 FFF7FEFF 		bl	_lv_ll_ins_head
 1668              	.LVL194:
 207:lvgl/src/extra/widgets/menu/lv_menu.c ****         menu->cur_depth++;
 1669              		.loc 1 207 9 is_stmt 1 view .LVU466
 207:lvgl/src/extra/widgets/menu/lv_menu.c ****         menu->cur_depth++;
 1670              		.loc 1 207 24 is_stmt 0 view .LVU467
 1671 001c 0560     		str	r5, [r0]
 208:lvgl/src/extra/widgets/menu/lv_menu.c **** 
 1672              		.loc 1 208 9 is_stmt 1 view .LVU468
 208:lvgl/src/extra/widgets/menu/lv_menu.c **** 
 1673              		.loc 1 208 13 is_stmt 0 view .LVU469
 1674 001e 94F86030 		ldrb	r3, [r4, #96]	@ zero_extendqisi2
ARM GAS  C:\usertemp\cc5ZvGn0.s 			page 50


 208:lvgl/src/extra/widgets/menu/lv_menu.c **** 
 1675              		.loc 1 208 24 view .LVU470
 1676 0022 0133     		adds	r3, r3, #1
 1677 0024 84F86030 		strb	r3, [r4, #96]
 211:lvgl/src/extra/widgets/menu/lv_menu.c ****     }
 1678              		.loc 1 211 9 is_stmt 1 view .LVU471
 1679 0028 A16A     		ldr	r1, [r4, #40]
 1680 002a 2846     		mov	r0, r5
 1681              	.LVL195:
 211:lvgl/src/extra/widgets/menu/lv_menu.c ****     }
 1682              		.loc 1 211 9 is_stmt 0 view .LVU472
 1683 002c FFF7FEFF 		bl	lv_obj_set_parent
 1684              	.LVL196:
 1685              	.L96:
 211:lvgl/src/extra/widgets/menu/lv_menu.c ****     }
 1686              		.loc 1 211 9 view .LVU473
 1687              	.LBE2:
 218:lvgl/src/extra/widgets/menu/lv_menu.c **** 
 1688              		.loc 1 218 5 is_stmt 1 view .LVU474
 218:lvgl/src/extra/widgets/menu/lv_menu.c **** 
 1689              		.loc 1 218 21 is_stmt 0 view .LVU475
 1690 0030 E562     		str	r5, [r4, #44]
 221:lvgl/src/extra/widgets/menu/lv_menu.c ****         if(menu->sidebar_page != NULL) {
 1691              		.loc 1 221 5 is_stmt 1 view .LVU476
 221:lvgl/src/extra/widgets/menu/lv_menu.c ****         if(menu->sidebar_page != NULL) {
 1692              		.loc 1 221 12 is_stmt 0 view .LVU477
 1693 0032 206D     		ldr	r0, [r4, #80]
 221:lvgl/src/extra/widgets/menu/lv_menu.c ****         if(menu->sidebar_page != NULL) {
 1694              		.loc 1 221 7 view .LVU478
 1695 0034 20B1     		cbz	r0, .L97
 222:lvgl/src/extra/widgets/menu/lv_menu.c ****             lv_obj_add_state(menu->selected_tab, LV_STATE_CHECKED);
 1696              		.loc 1 222 9 is_stmt 1 view .LVU479
 222:lvgl/src/extra/widgets/menu/lv_menu.c ****             lv_obj_add_state(menu->selected_tab, LV_STATE_CHECKED);
 1697              		.loc 1 222 16 is_stmt 0 view .LVU480
 1698 0036 236C     		ldr	r3, [r4, #64]
 222:lvgl/src/extra/widgets/menu/lv_menu.c ****             lv_obj_add_state(menu->selected_tab, LV_STATE_CHECKED);
 1699              		.loc 1 222 11 view .LVU481
 1700 0038 73B3     		cbz	r3, .L98
 223:lvgl/src/extra/widgets/menu/lv_menu.c ****         }
 1701              		.loc 1 223 13 is_stmt 1 view .LVU482
 1702 003a 0121     		movs	r1, #1
 1703 003c FFF7FEFF 		bl	lv_obj_add_state
 1704              	.LVL197:
 1705              	.L97:
 231:lvgl/src/extra/widgets/menu/lv_menu.c ****         /* With sidebar enabled */
 1706              		.loc 1 231 5 view .LVU483
 231:lvgl/src/extra/widgets/menu/lv_menu.c ****         /* With sidebar enabled */
 1707              		.loc 1 231 12 is_stmt 0 view .LVU484
 1708 0040 236C     		ldr	r3, [r4, #64]
 231:lvgl/src/extra/widgets/menu/lv_menu.c ****         /* With sidebar enabled */
 1709              		.loc 1 231 7 view .LVU485
 1710 0042 002B     		cmp	r3, #0
 1711 0044 3ED0     		beq	.L99
 233:lvgl/src/extra/widgets/menu/lv_menu.c ****             if(menu->mode_root_back_btn == LV_MENU_ROOT_BACK_BTN_ENABLED) {
 1712              		.loc 1 233 9 is_stmt 1 view .LVU486
 233:lvgl/src/extra/widgets/menu/lv_menu.c ****             if(menu->mode_root_back_btn == LV_MENU_ROOT_BACK_BTN_ENABLED) {
 1713              		.loc 1 233 12 is_stmt 0 view .LVU487
ARM GAS  C:\usertemp\cc5ZvGn0.s 			page 51


 1714 0046 94F86230 		ldrb	r3, [r4, #98]	@ zero_extendqisi2
 233:lvgl/src/extra/widgets/menu/lv_menu.c ****             if(menu->mode_root_back_btn == LV_MENU_ROOT_BACK_BTN_ENABLED) {
 1715              		.loc 1 233 11 view .LVU488
 1716 004a 13F0010F 		tst	r3, #1
 1717 004e 0AD0     		beq	.L100
 234:lvgl/src/extra/widgets/menu/lv_menu.c ****                 /* Root back btn is always shown if enabled*/
 1718              		.loc 1 234 13 is_stmt 1 view .LVU489
 234:lvgl/src/extra/widgets/menu/lv_menu.c ****                 /* Root back btn is always shown if enabled*/
 1719              		.loc 1 234 15 is_stmt 0 view .LVU490
 1720 0050 13F0080F 		tst	r3, #8
 1721 0054 24D0     		beq	.L101
 236:lvgl/src/extra/widgets/menu/lv_menu.c ****                 lv_obj_add_flag(menu->sidebar_header_back_btn, LV_OBJ_FLAG_CLICKABLE);
 1722              		.loc 1 236 17 is_stmt 1 view .LVU491
 1723 0056 0121     		movs	r1, #1
 1724 0058 A06C     		ldr	r0, [r4, #72]
 1725 005a FFF7FEFF 		bl	lv_obj_clear_flag
 1726              	.LVL198:
 237:lvgl/src/extra/widgets/menu/lv_menu.c ****             }
 1727              		.loc 1 237 17 view .LVU492
 1728 005e 0221     		movs	r1, #2
 1729 0060 A06C     		ldr	r0, [r4, #72]
 1730 0062 FFF7FEFF 		bl	lv_obj_add_flag
 1731              	.LVL199:
 1732              	.L100:
 245:lvgl/src/extra/widgets/menu/lv_menu.c ****             lv_obj_clear_flag(menu->main_header_back_btn, LV_OBJ_FLAG_HIDDEN);
 1733              		.loc 1 245 9 view .LVU493
 245:lvgl/src/extra/widgets/menu/lv_menu.c ****             lv_obj_clear_flag(menu->main_header_back_btn, LV_OBJ_FLAG_HIDDEN);
 1734              		.loc 1 245 16 is_stmt 0 view .LVU494
 1735 0066 94F86030 		ldrb	r3, [r4, #96]	@ zero_extendqisi2
 245:lvgl/src/extra/widgets/menu/lv_menu.c ****             lv_obj_clear_flag(menu->main_header_back_btn, LV_OBJ_FLAG_HIDDEN);
 1736              		.loc 1 245 11 view .LVU495
 1737 006a 012B     		cmp	r3, #1
 1738 006c 21D9     		bls	.L102
 246:lvgl/src/extra/widgets/menu/lv_menu.c ****             lv_obj_add_flag(menu->main_header_back_btn, LV_OBJ_FLAG_CLICKABLE);
 1739              		.loc 1 246 13 is_stmt 1 view .LVU496
 1740 006e 0121     		movs	r1, #1
 1741 0070 606B     		ldr	r0, [r4, #52]
 1742 0072 FFF7FEFF 		bl	lv_obj_clear_flag
 1743              	.LVL200:
 247:lvgl/src/extra/widgets/menu/lv_menu.c ****         }
 1744              		.loc 1 247 13 view .LVU497
 1745 0076 0221     		movs	r1, #2
 1746 0078 606B     		ldr	r0, [r4, #52]
 1747 007a FFF7FEFF 		bl	lv_obj_add_flag
 1748              	.LVL201:
 1749              	.L103:
 266:lvgl/src/extra/widgets/menu/lv_menu.c **** 
 1750              		.loc 1 266 5 view .LVU498
 1751 007e 0022     		movs	r2, #0
 1752 0080 1C21     		movs	r1, #28
 1753 0082 2046     		mov	r0, r4
 1754 0084 FFF7FEFF 		bl	lv_event_send
 1755              	.LVL202:
 268:lvgl/src/extra/widgets/menu/lv_menu.c **** }
 1756              		.loc 1 268 5 view .LVU499
 1757 0088 2046     		mov	r0, r4
 1758 008a FFF7FEFF 		bl	lv_menu_refr_main_header_mode
ARM GAS  C:\usertemp\cc5ZvGn0.s 			page 52


 1759              	.LVL203:
 269:lvgl/src/extra/widgets/menu/lv_menu.c **** 
 1760              		.loc 1 269 1 is_stmt 0 view .LVU500
 1761 008e 38BD     		pop	{r3, r4, r5, pc}
 1762              	.LVL204:
 1763              	.L95:
 215:lvgl/src/extra/widgets/menu/lv_menu.c ****     }
 1764              		.loc 1 215 9 is_stmt 1 view .LVU501
 1765 0090 2046     		mov	r0, r4
 1766 0092 FFF7FEFF 		bl	lv_menu_clear_history
 1767              	.LVL205:
 1768 0096 CBE7     		b	.L96
 1769              	.L98:
 226:lvgl/src/extra/widgets/menu/lv_menu.c ****         }
 1770              		.loc 1 226 13 view .LVU502
 1771 0098 0121     		movs	r1, #1
 1772 009a FFF7FEFF 		bl	lv_obj_clear_state
 1773              	.LVL206:
 1774 009e CFE7     		b	.L97
 1775              	.L101:
 240:lvgl/src/extra/widgets/menu/lv_menu.c ****                 lv_obj_clear_flag(menu->sidebar_header_back_btn, LV_OBJ_FLAG_CLICKABLE);
 1776              		.loc 1 240 17 view .LVU503
 1777 00a0 0121     		movs	r1, #1
 1778 00a2 A06C     		ldr	r0, [r4, #72]
 1779 00a4 FFF7FEFF 		bl	lv_obj_add_flag
 1780              	.LVL207:
 241:lvgl/src/extra/widgets/menu/lv_menu.c ****             }
 1781              		.loc 1 241 17 view .LVU504
 1782 00a8 0221     		movs	r1, #2
 1783 00aa A06C     		ldr	r0, [r4, #72]
 1784 00ac FFF7FEFF 		bl	lv_obj_clear_flag
 1785              	.LVL208:
 1786 00b0 D9E7     		b	.L100
 1787              	.L102:
 250:lvgl/src/extra/widgets/menu/lv_menu.c ****             lv_obj_clear_flag(menu->main_header_back_btn, LV_OBJ_FLAG_CLICKABLE);
 1788              		.loc 1 250 13 view .LVU505
 1789 00b2 0121     		movs	r1, #1
 1790 00b4 606B     		ldr	r0, [r4, #52]
 1791 00b6 FFF7FEFF 		bl	lv_obj_add_flag
 1792              	.LVL209:
 251:lvgl/src/extra/widgets/menu/lv_menu.c ****         }
 1793              		.loc 1 251 13 view .LVU506
 1794 00ba 0221     		movs	r1, #2
 1795 00bc 606B     		ldr	r0, [r4, #52]
 1796 00be FFF7FEFF 		bl	lv_obj_clear_flag
 1797              	.LVL210:
 1798 00c2 DCE7     		b	.L103
 1799              	.L99:
 256:lvgl/src/extra/widgets/menu/lv_menu.c ****             lv_obj_clear_flag(menu->main_header_back_btn, LV_OBJ_FLAG_HIDDEN);
 1800              		.loc 1 256 9 view .LVU507
 256:lvgl/src/extra/widgets/menu/lv_menu.c ****             lv_obj_clear_flag(menu->main_header_back_btn, LV_OBJ_FLAG_HIDDEN);
 1801              		.loc 1 256 16 is_stmt 0 view .LVU508
 1802 00c4 94F86030 		ldrb	r3, [r4, #96]	@ zero_extendqisi2
 256:lvgl/src/extra/widgets/menu/lv_menu.c ****             lv_obj_clear_flag(menu->main_header_back_btn, LV_OBJ_FLAG_HIDDEN);
 1803              		.loc 1 256 11 view .LVU509
 1804 00c8 012B     		cmp	r3, #1
 1805 00ca 04D8     		bhi	.L104
ARM GAS  C:\usertemp\cc5ZvGn0.s 			page 53


 256:lvgl/src/extra/widgets/menu/lv_menu.c ****             lv_obj_clear_flag(menu->main_header_back_btn, LV_OBJ_FLAG_HIDDEN);
 1806              		.loc 1 256 61 discriminator 1 view .LVU510
 1807 00cc 94F86230 		ldrb	r3, [r4, #98]	@ zero_extendqisi2
 256:lvgl/src/extra/widgets/menu/lv_menu.c ****             lv_obj_clear_flag(menu->main_header_back_btn, LV_OBJ_FLAG_HIDDEN);
 1808              		.loc 1 256 33 discriminator 1 view .LVU511
 1809 00d0 13F0080F 		tst	r3, #8
 1810 00d4 08D0     		beq	.L105
 1811              	.L104:
 257:lvgl/src/extra/widgets/menu/lv_menu.c ****             lv_obj_add_flag(menu->main_header_back_btn, LV_OBJ_FLAG_CLICKABLE);
 1812              		.loc 1 257 13 is_stmt 1 view .LVU512
 1813 00d6 0121     		movs	r1, #1
 1814 00d8 606B     		ldr	r0, [r4, #52]
 1815 00da FFF7FEFF 		bl	lv_obj_clear_flag
 1816              	.LVL211:
 258:lvgl/src/extra/widgets/menu/lv_menu.c ****         }
 1817              		.loc 1 258 13 view .LVU513
 1818 00de 0221     		movs	r1, #2
 1819 00e0 606B     		ldr	r0, [r4, #52]
 1820 00e2 FFF7FEFF 		bl	lv_obj_add_flag
 1821              	.LVL212:
 1822 00e6 CAE7     		b	.L103
 1823              	.L105:
 261:lvgl/src/extra/widgets/menu/lv_menu.c ****             lv_obj_clear_flag(menu->main_header_back_btn, LV_OBJ_FLAG_CLICKABLE);
 1824              		.loc 1 261 13 view .LVU514
 1825 00e8 0121     		movs	r1, #1
 1826 00ea 606B     		ldr	r0, [r4, #52]
 1827 00ec FFF7FEFF 		bl	lv_obj_add_flag
 1828              	.LVL213:
 262:lvgl/src/extra/widgets/menu/lv_menu.c ****         }
 1829              		.loc 1 262 13 view .LVU515
 1830 00f0 0221     		movs	r1, #2
 1831 00f2 606B     		ldr	r0, [r4, #52]
 1832 00f4 FFF7FEFF 		bl	lv_obj_clear_flag
 1833              	.LVL214:
 1834 00f8 C1E7     		b	.L103
 1835              		.cfi_endproc
 1836              	.LFE167:
 1838              		.section	.text.lv_menu_back_event_cb,"ax",%progbits
 1839              		.align	1
 1840              		.syntax unified
 1841              		.thumb
 1842              		.thumb_func
 1844              	lv_menu_back_event_cb:
 1845              	.LVL215:
 1846              	.LFB190:
 695:lvgl/src/extra/widgets/menu/lv_menu.c ****     lv_event_code_t code = lv_event_get_code(e);
 1847              		.loc 1 695 1 view -0
 1848              		.cfi_startproc
 1849              		@ args = 0, pretend = 0, frame = 0
 1850              		@ frame_needed = 0, uses_anonymous_args = 0
 695:lvgl/src/extra/widgets/menu/lv_menu.c ****     lv_event_code_t code = lv_event_get_code(e);
 1851              		.loc 1 695 1 is_stmt 0 view .LVU517
 1852 0000 F8B5     		push	{r3, r4, r5, r6, r7, lr}
 1853              	.LCFI20:
 1854              		.cfi_def_cfa_offset 24
 1855              		.cfi_offset 3, -24
 1856              		.cfi_offset 4, -20
ARM GAS  C:\usertemp\cc5ZvGn0.s 			page 54


 1857              		.cfi_offset 5, -16
 1858              		.cfi_offset 6, -12
 1859              		.cfi_offset 7, -8
 1860              		.cfi_offset 14, -4
 1861 0002 0446     		mov	r4, r0
 696:lvgl/src/extra/widgets/menu/lv_menu.c ****     /* LV_EVENT_CLICKED */
 1862              		.loc 1 696 5 is_stmt 1 view .LVU518
 696:lvgl/src/extra/widgets/menu/lv_menu.c ****     /* LV_EVENT_CLICKED */
 1863              		.loc 1 696 28 is_stmt 0 view .LVU519
 1864 0004 FFF7FEFF 		bl	lv_event_get_code
 1865              	.LVL216:
 698:lvgl/src/extra/widgets/menu/lv_menu.c ****         lv_obj_t * obj = lv_event_get_target(e);
 1866              		.loc 1 698 5 is_stmt 1 view .LVU520
 698:lvgl/src/extra/widgets/menu/lv_menu.c ****         lv_obj_t * obj = lv_event_get_target(e);
 1867              		.loc 1 698 7 is_stmt 0 view .LVU521
 1868 0008 0728     		cmp	r0, #7
 1869 000a 00D0     		beq	.L111
 1870              	.LVL217:
 1871              	.L107:
 731:lvgl/src/extra/widgets/menu/lv_menu.c **** 
 1872              		.loc 1 731 1 view .LVU522
 1873 000c F8BD     		pop	{r3, r4, r5, r6, r7, pc}
 1874              	.LVL218:
 1875              	.L111:
 1876              	.LBB3:
 699:lvgl/src/extra/widgets/menu/lv_menu.c ****         lv_menu_t * menu = (lv_menu_t *)lv_event_get_user_data(e);
 1877              		.loc 1 699 9 is_stmt 1 view .LVU523
 699:lvgl/src/extra/widgets/menu/lv_menu.c ****         lv_menu_t * menu = (lv_menu_t *)lv_event_get_user_data(e);
 1878              		.loc 1 699 26 is_stmt 0 view .LVU524
 1879 000e 2046     		mov	r0, r4
 1880              	.LVL219:
 699:lvgl/src/extra/widgets/menu/lv_menu.c ****         lv_menu_t * menu = (lv_menu_t *)lv_event_get_user_data(e);
 1881              		.loc 1 699 26 view .LVU525
 1882 0010 FFF7FEFF 		bl	lv_event_get_target
 1883              	.LVL220:
 1884 0014 0546     		mov	r5, r0
 1885              	.LVL221:
 700:lvgl/src/extra/widgets/menu/lv_menu.c **** 
 1886              		.loc 1 700 9 is_stmt 1 view .LVU526
 700:lvgl/src/extra/widgets/menu/lv_menu.c **** 
 1887              		.loc 1 700 41 is_stmt 0 view .LVU527
 1888 0016 2046     		mov	r0, r4
 1889              	.LVL222:
 700:lvgl/src/extra/widgets/menu/lv_menu.c **** 
 1890              		.loc 1 700 41 view .LVU528
 1891 0018 FFF7FEFF 		bl	lv_event_get_user_data
 1892              	.LVL223:
 1893 001c 0446     		mov	r4, r0
 1894              	.LVL224:
 702:lvgl/src/extra/widgets/menu/lv_menu.c **** 
 1895              		.loc 1 702 9 is_stmt 1 view .LVU529
 702:lvgl/src/extra/widgets/menu/lv_menu.c **** 
 1896              		.loc 1 702 25 is_stmt 0 view .LVU530
 1897 001e 436B     		ldr	r3, [r0, #52]
 702:lvgl/src/extra/widgets/menu/lv_menu.c **** 
 1898              		.loc 1 702 11 view .LVU531
 1899 0020 AB42     		cmp	r3, r5
ARM GAS  C:\usertemp\cc5ZvGn0.s 			page 55


 1900 0022 02D0     		beq	.L109
 702:lvgl/src/extra/widgets/menu/lv_menu.c **** 
 1901              		.loc 1 702 62 discriminator 1 view .LVU532
 1902 0024 836C     		ldr	r3, [r0, #72]
 702:lvgl/src/extra/widgets/menu/lv_menu.c **** 
 1903              		.loc 1 702 12 discriminator 1 view .LVU533
 1904 0026 AB42     		cmp	r3, r5
 1905 0028 F0D1     		bne	.L107
 1906              	.L109:
 704:lvgl/src/extra/widgets/menu/lv_menu.c **** 
 1907              		.loc 1 704 9 is_stmt 1 view .LVU534
 704:lvgl/src/extra/widgets/menu/lv_menu.c **** 
 1908              		.loc 1 704 32 is_stmt 0 view .LVU535
 1909 002a 94F86030 		ldrb	r3, [r4, #96]	@ zero_extendqisi2
 704:lvgl/src/extra/widgets/menu/lv_menu.c **** 
 1910              		.loc 1 704 26 view .LVU536
 1911 002e 84F86130 		strb	r3, [r4, #97]
 706:lvgl/src/extra/widgets/menu/lv_menu.c **** 
 1912              		.loc 1 706 9 is_stmt 1 view .LVU537
 706:lvgl/src/extra/widgets/menu/lv_menu.c **** 
 1913              		.loc 1 706 12 is_stmt 0 view .LVU538
 1914 0032 2946     		mov	r1, r5
 1915 0034 2046     		mov	r0, r4
 1916              	.LVL225:
 706:lvgl/src/extra/widgets/menu/lv_menu.c **** 
 1917              		.loc 1 706 12 view .LVU539
 1918 0036 FFF7FEFF 		bl	lv_menu_back_btn_is_root
 1919              	.LVL226:
 706:lvgl/src/extra/widgets/menu/lv_menu.c **** 
 1920              		.loc 1 706 11 discriminator 1 view .LVU540
 1921 003a 0028     		cmp	r0, #0
 1922 003c E6D1     		bne	.L107
 708:lvgl/src/extra/widgets/menu/lv_menu.c **** 
 1923              		.loc 1 708 9 is_stmt 1 view .LVU541
 708:lvgl/src/extra/widgets/menu/lv_menu.c **** 
 1924              		.loc 1 708 19 is_stmt 0 view .LVU542
 1925 003e 04F15406 		add	r6, r4, #84
 1926              	.LVL227:
 711:lvgl/src/extra/widgets/menu/lv_menu.c **** 
 1927              		.loc 1 711 9 is_stmt 1 view .LVU543
 711:lvgl/src/extra/widgets/menu/lv_menu.c **** 
 1928              		.loc 1 711 40 is_stmt 0 view .LVU544
 1929 0042 3046     		mov	r0, r6
 1930 0044 FFF7FEFF 		bl	_lv_ll_get_head
 1931              	.LVL228:
 1932 0048 0546     		mov	r5, r0
 1933              	.LVL229:
 714:lvgl/src/extra/widgets/menu/lv_menu.c **** 
 1934              		.loc 1 714 9 is_stmt 1 view .LVU545
 714:lvgl/src/extra/widgets/menu/lv_menu.c **** 
 1935              		.loc 1 714 41 is_stmt 0 view .LVU546
 1936 004a 0146     		mov	r1, r0
 1937 004c 3046     		mov	r0, r6
 1938              	.LVL230:
 714:lvgl/src/extra/widgets/menu/lv_menu.c **** 
 1939              		.loc 1 714 41 view .LVU547
 1940 004e FFF7FEFF 		bl	_lv_ll_get_next
ARM GAS  C:\usertemp\cc5ZvGn0.s 			page 56


 1941              	.LVL231:
 716:lvgl/src/extra/widgets/menu/lv_menu.c ****             /* Previous menu exists */
 1942              		.loc 1 716 9 is_stmt 1 view .LVU548
 716:lvgl/src/extra/widgets/menu/lv_menu.c ****             /* Previous menu exists */
 1943              		.loc 1 716 11 is_stmt 0 view .LVU549
 1944 0052 0746     		mov	r7, r0
 1945 0054 0028     		cmp	r0, #0
 1946 0056 D9D0     		beq	.L107
 719:lvgl/src/extra/widgets/menu/lv_menu.c ****             lv_mem_free(act_hist);
 1947              		.loc 1 719 13 is_stmt 1 view .LVU550
 1948 0058 2946     		mov	r1, r5
 1949 005a 3046     		mov	r0, r6
 1950              	.LVL232:
 719:lvgl/src/extra/widgets/menu/lv_menu.c ****             lv_mem_free(act_hist);
 1951              		.loc 1 719 13 is_stmt 0 view .LVU551
 1952 005c FFF7FEFF 		bl	_lv_ll_remove
 1953              	.LVL233:
 720:lvgl/src/extra/widgets/menu/lv_menu.c ****             menu->cur_depth--;
 1954              		.loc 1 720 13 is_stmt 1 view .LVU552
 1955 0060 2846     		mov	r0, r5
 1956 0062 FFF7FEFF 		bl	lv_mem_free
 1957              	.LVL234:
 721:lvgl/src/extra/widgets/menu/lv_menu.c ****             /* Create the previous menu.
 1958              		.loc 1 721 13 view .LVU553
 721:lvgl/src/extra/widgets/menu/lv_menu.c ****             /* Create the previous menu.
 1959              		.loc 1 721 17 is_stmt 0 view .LVU554
 1960 0066 94F86030 		ldrb	r3, [r4, #96]	@ zero_extendqisi2
 721:lvgl/src/extra/widgets/menu/lv_menu.c ****             /* Create the previous menu.
 1961              		.loc 1 721 28 view .LVU555
 1962 006a 013B     		subs	r3, r3, #1
 1963 006c 84F86030 		strb	r3, [r4, #96]
 724:lvgl/src/extra/widgets/menu/lv_menu.c ****             menu->cur_depth--;
 1964              		.loc 1 724 13 is_stmt 1 view .LVU556
 1965 0070 3946     		mov	r1, r7
 1966 0072 3046     		mov	r0, r6
 1967 0074 FFF7FEFF 		bl	_lv_ll_remove
 1968              	.LVL235:
 725:lvgl/src/extra/widgets/menu/lv_menu.c ****             lv_menu_set_page(&(menu->obj), prev_hist->page);
 1969              		.loc 1 725 13 view .LVU557
 725:lvgl/src/extra/widgets/menu/lv_menu.c ****             lv_menu_set_page(&(menu->obj), prev_hist->page);
 1970              		.loc 1 725 17 is_stmt 0 view .LVU558
 1971 0078 94F86030 		ldrb	r3, [r4, #96]	@ zero_extendqisi2
 725:lvgl/src/extra/widgets/menu/lv_menu.c ****             lv_menu_set_page(&(menu->obj), prev_hist->page);
 1972              		.loc 1 725 28 view .LVU559
 1973 007c 013B     		subs	r3, r3, #1
 1974 007e 84F86030 		strb	r3, [r4, #96]
 726:lvgl/src/extra/widgets/menu/lv_menu.c **** 
 1975              		.loc 1 726 13 is_stmt 1 view .LVU560
 1976 0082 3968     		ldr	r1, [r7]
 1977 0084 2046     		mov	r0, r4
 1978 0086 FFF7FEFF 		bl	lv_menu_set_page
 1979              	.LVL236:
 728:lvgl/src/extra/widgets/menu/lv_menu.c ****         }
 1980              		.loc 1 728 13 view .LVU561
 1981 008a 3846     		mov	r0, r7
 1982 008c FFF7FEFF 		bl	lv_mem_free
 1983              	.LVL237:
ARM GAS  C:\usertemp\cc5ZvGn0.s 			page 57


 1984 0090 BCE7     		b	.L107
 1985              	.LBE3:
 1986              		.cfi_endproc
 1987              	.LFE190:
 1989              		.section	.text.lv_menu_refr,"ax",%progbits
 1990              		.align	1
 1991              		.syntax unified
 1992              		.thumb
 1993              		.thumb_func
 1995              	lv_menu_refr:
 1996              	.LVL238:
 1997              	.LFB166:
 165:lvgl/src/extra/widgets/menu/lv_menu.c ****     LV_ASSERT_OBJ(obj, MY_CLASS);
 1998              		.loc 1 165 1 view -0
 1999              		.cfi_startproc
 2000              		@ args = 0, pretend = 0, frame = 0
 2001              		@ frame_needed = 0, uses_anonymous_args = 0
 165:lvgl/src/extra/widgets/menu/lv_menu.c ****     LV_ASSERT_OBJ(obj, MY_CLASS);
 2002              		.loc 1 165 1 is_stmt 0 view .LVU563
 2003 0000 F8B5     		push	{r3, r4, r5, r6, r7, lr}
 2004              	.LCFI21:
 2005              		.cfi_def_cfa_offset 24
 2006              		.cfi_offset 3, -24
 2007              		.cfi_offset 4, -20
 2008              		.cfi_offset 5, -16
 2009              		.cfi_offset 6, -12
 2010              		.cfi_offset 7, -8
 2011              		.cfi_offset 14, -4
 2012 0002 0446     		mov	r4, r0
 166:lvgl/src/extra/widgets/menu/lv_menu.c **** 
 2013              		.loc 1 166 5 is_stmt 1 view .LVU564
 166:lvgl/src/extra/widgets/menu/lv_menu.c **** 
 2014              		.loc 1 166 5 view .LVU565
 166:lvgl/src/extra/widgets/menu/lv_menu.c **** 
 2015              		.loc 1 166 5 view .LVU566
 168:lvgl/src/extra/widgets/menu/lv_menu.c ****     lv_ll_t * history_ll = &(menu->history_ll);
 2016              		.loc 1 168 5 view .LVU567
 2017              	.LVL239:
 169:lvgl/src/extra/widgets/menu/lv_menu.c **** 
 2018              		.loc 1 169 5 view .LVU568
 169:lvgl/src/extra/widgets/menu/lv_menu.c **** 
 2019              		.loc 1 169 15 is_stmt 0 view .LVU569
 2020 0004 00F15406 		add	r6, r0, #84
 2021              	.LVL240:
 172:lvgl/src/extra/widgets/menu/lv_menu.c **** 
 2022              		.loc 1 172 5 is_stmt 1 view .LVU570
 172:lvgl/src/extra/widgets/menu/lv_menu.c **** 
 2023              		.loc 1 172 36 is_stmt 0 view .LVU571
 2024 0008 3046     		mov	r0, r6
 2025              	.LVL241:
 172:lvgl/src/extra/widgets/menu/lv_menu.c **** 
 2026              		.loc 1 172 36 view .LVU572
 2027 000a FFF7FEFF 		bl	_lv_ll_get_head
 2028              	.LVL242:
 174:lvgl/src/extra/widgets/menu/lv_menu.c **** 
 2029              		.loc 1 174 5 is_stmt 1 view .LVU573
 176:lvgl/src/extra/widgets/menu/lv_menu.c ****         page = act_hist->page;
ARM GAS  C:\usertemp\cc5ZvGn0.s 			page 58


 2030              		.loc 1 176 5 view .LVU574
 176:lvgl/src/extra/widgets/menu/lv_menu.c ****         page = act_hist->page;
 2031              		.loc 1 176 7 is_stmt 0 view .LVU575
 2032 000e 0546     		mov	r5, r0
 2033 0010 68B1     		cbz	r0, .L113
 177:lvgl/src/extra/widgets/menu/lv_menu.c ****         /* Delete the current item from the history */
 2034              		.loc 1 177 9 is_stmt 1 view .LVU576
 177:lvgl/src/extra/widgets/menu/lv_menu.c ****         /* Delete the current item from the history */
 2035              		.loc 1 177 14 is_stmt 0 view .LVU577
 2036 0012 0768     		ldr	r7, [r0]
 2037              	.LVL243:
 179:lvgl/src/extra/widgets/menu/lv_menu.c ****         lv_mem_free(act_hist);
 2038              		.loc 1 179 9 is_stmt 1 view .LVU578
 2039 0014 0146     		mov	r1, r0
 2040 0016 3046     		mov	r0, r6
 2041              	.LVL244:
 179:lvgl/src/extra/widgets/menu/lv_menu.c ****         lv_mem_free(act_hist);
 2042              		.loc 1 179 9 is_stmt 0 view .LVU579
 2043 0018 FFF7FEFF 		bl	_lv_ll_remove
 2044              	.LVL245:
 180:lvgl/src/extra/widgets/menu/lv_menu.c ****         menu->cur_depth--;
 2045              		.loc 1 180 9 is_stmt 1 view .LVU580
 2046 001c 2846     		mov	r0, r5
 2047 001e FFF7FEFF 		bl	lv_mem_free
 2048              	.LVL246:
 181:lvgl/src/extra/widgets/menu/lv_menu.c ****     }
 2049              		.loc 1 181 9 view .LVU581
 181:lvgl/src/extra/widgets/menu/lv_menu.c ****     }
 2050              		.loc 1 181 13 is_stmt 0 view .LVU582
 2051 0022 94F86030 		ldrb	r3, [r4, #96]	@ zero_extendqisi2
 181:lvgl/src/extra/widgets/menu/lv_menu.c ****     }
 2052              		.loc 1 181 24 view .LVU583
 2053 0026 013B     		subs	r3, r3, #1
 2054 0028 84F86030 		strb	r3, [r4, #96]
 177:lvgl/src/extra/widgets/menu/lv_menu.c ****         /* Delete the current item from the history */
 2055              		.loc 1 177 14 view .LVU584
 2056 002c 3D46     		mov	r5, r7
 2057              	.LVL247:
 2058              	.L113:
 185:lvgl/src/extra/widgets/menu/lv_menu.c **** }
 2059              		.loc 1 185 5 is_stmt 1 view .LVU585
 2060 002e 2946     		mov	r1, r5
 2061 0030 2046     		mov	r0, r4
 2062 0032 FFF7FEFF 		bl	lv_menu_set_page
 2063              	.LVL248:
 186:lvgl/src/extra/widgets/menu/lv_menu.c **** 
 2064              		.loc 1 186 1 is_stmt 0 view .LVU586
 2065 0036 F8BD     		pop	{r3, r4, r5, r6, r7, pc}
 186:lvgl/src/extra/widgets/menu/lv_menu.c **** 
 2066              		.loc 1 186 1 view .LVU587
 2067              		.cfi_endproc
 2068              	.LFE166:
 2070              		.section	.text.lv_menu_set_sidebar_page,"ax",%progbits
 2071              		.align	1
 2072              		.global	lv_menu_set_sidebar_page
 2073              		.syntax unified
 2074              		.thumb
ARM GAS  C:\usertemp\cc5ZvGn0.s 			page 59


 2075              		.thumb_func
 2077              	lv_menu_set_sidebar_page:
 2078              	.LVL249:
 2079              	.LFB168:
 272:lvgl/src/extra/widgets/menu/lv_menu.c ****     LV_ASSERT_OBJ(obj, MY_CLASS);
 2080              		.loc 1 272 1 is_stmt 1 view -0
 2081              		.cfi_startproc
 2082              		@ args = 0, pretend = 0, frame = 0
 2083              		@ frame_needed = 0, uses_anonymous_args = 0
 272:lvgl/src/extra/widgets/menu/lv_menu.c ****     LV_ASSERT_OBJ(obj, MY_CLASS);
 2084              		.loc 1 272 1 is_stmt 0 view .LVU589
 2085 0000 70B5     		push	{r4, r5, r6, lr}
 2086              	.LCFI22:
 2087              		.cfi_def_cfa_offset 16
 2088              		.cfi_offset 4, -16
 2089              		.cfi_offset 5, -12
 2090              		.cfi_offset 6, -8
 2091              		.cfi_offset 14, -4
 2092 0002 0446     		mov	r4, r0
 273:lvgl/src/extra/widgets/menu/lv_menu.c **** 
 2093              		.loc 1 273 5 is_stmt 1 view .LVU590
 273:lvgl/src/extra/widgets/menu/lv_menu.c **** 
 2094              		.loc 1 273 5 view .LVU591
 273:lvgl/src/extra/widgets/menu/lv_menu.c **** 
 2095              		.loc 1 273 5 view .LVU592
 275:lvgl/src/extra/widgets/menu/lv_menu.c **** 
 2096              		.loc 1 275 5 view .LVU593
 2097              	.LVL250:
 278:lvgl/src/extra/widgets/menu/lv_menu.c ****         /* Sidebar should be enabled */
 2098              		.loc 1 278 5 view .LVU594
 278:lvgl/src/extra/widgets/menu/lv_menu.c ****         /* Sidebar should be enabled */
 2099              		.loc 1 278 7 is_stmt 0 view .LVU595
 2100 0004 0E46     		mov	r6, r1
 2101 0006 0029     		cmp	r1, #0
 2102 0008 7AD0     		beq	.L116
 280:lvgl/src/extra/widgets/menu/lv_menu.c ****             /* Create sidebar */
 2103              		.loc 1 280 9 is_stmt 1 view .LVU596
 280:lvgl/src/extra/widgets/menu/lv_menu.c ****             /* Create sidebar */
 2104              		.loc 1 280 12 is_stmt 0 view .LVU597
 2105 000a 90F86230 		ldrb	r3, [r0, #98]	@ zero_extendqisi2
 280:lvgl/src/extra/widgets/menu/lv_menu.c ****             /* Create sidebar */
 2106              		.loc 1 280 11 view .LVU598
 2107 000e 13F0010F 		tst	r3, #1
 2108 0012 0BD0     		beq	.L120
 2109              	.LVL251:
 2110              	.L117:
 316:lvgl/src/extra/widgets/menu/lv_menu.c **** 
 2111              		.loc 1 316 9 is_stmt 1 view .LVU599
 2112 0014 E16B     		ldr	r1, [r4, #60]
 2113 0016 3046     		mov	r0, r6
 2114 0018 FFF7FEFF 		bl	lv_obj_set_parent
 2115              	.LVL252:
 318:lvgl/src/extra/widgets/menu/lv_menu.c ****     }
 2116              		.loc 1 318 9 view .LVU600
 2117 001c 2046     		mov	r0, r4
 2118 001e FFF7FEFF 		bl	lv_menu_refr_sidebar_header_mode
 2119              	.LVL253:
ARM GAS  C:\usertemp\cc5ZvGn0.s 			page 60


 2120              	.L118:
 330:lvgl/src/extra/widgets/menu/lv_menu.c ****     lv_menu_refr(obj);
 2121              		.loc 1 330 5 view .LVU601
 330:lvgl/src/extra/widgets/menu/lv_menu.c ****     lv_menu_refr(obj);
 2122              		.loc 1 330 24 is_stmt 0 view .LVU602
 2123 0022 2664     		str	r6, [r4, #64]
 331:lvgl/src/extra/widgets/menu/lv_menu.c **** }
 2124              		.loc 1 331 5 is_stmt 1 view .LVU603
 2125 0024 2046     		mov	r0, r4
 2126 0026 FFF7FEFF 		bl	lv_menu_refr
 2127              	.LVL254:
 332:lvgl/src/extra/widgets/menu/lv_menu.c **** 
 2128              		.loc 1 332 1 is_stmt 0 view .LVU604
 2129 002a 70BD     		pop	{r4, r5, r6, pc}
 2130              	.LVL255:
 2131              	.L120:
 2132              	.LBB4:
 282:lvgl/src/extra/widgets/menu/lv_menu.c ****             lv_obj_class_init_obj(sidebar_cont);
 2133              		.loc 1 282 13 is_stmt 1 view .LVU605
 282:lvgl/src/extra/widgets/menu/lv_menu.c ****             lv_obj_class_init_obj(sidebar_cont);
 2134              		.loc 1 282 39 is_stmt 0 view .LVU606
 2135 002c 0146     		mov	r1, r0
 2136              	.LVL256:
 282:lvgl/src/extra/widgets/menu/lv_menu.c ****             lv_obj_class_init_obj(sidebar_cont);
 2137              		.loc 1 282 39 view .LVU607
 2138 002e 3E48     		ldr	r0, .L121
 2139              	.LVL257:
 282:lvgl/src/extra/widgets/menu/lv_menu.c ****             lv_obj_class_init_obj(sidebar_cont);
 2140              		.loc 1 282 39 view .LVU608
 2141 0030 FFF7FEFF 		bl	lv_obj_class_create_obj
 2142              	.LVL258:
 2143 0034 0546     		mov	r5, r0
 2144              	.LVL259:
 283:lvgl/src/extra/widgets/menu/lv_menu.c ****             lv_obj_move_to_index(sidebar_cont, 1);
 2145              		.loc 1 283 13 is_stmt 1 view .LVU609
 2146 0036 FFF7FEFF 		bl	lv_obj_class_init_obj
 2147              	.LVL260:
 284:lvgl/src/extra/widgets/menu/lv_menu.c ****             lv_obj_set_size(sidebar_cont, LV_PCT(30), LV_PCT(100));
 2148              		.loc 1 284 13 view .LVU610
 2149 003a 0121     		movs	r1, #1
 2150 003c 2846     		mov	r0, r5
 2151 003e FFF7FEFF 		bl	lv_obj_move_to_index
 2152              	.LVL261:
 285:lvgl/src/extra/widgets/menu/lv_menu.c ****             lv_obj_set_flex_flow(sidebar_cont, LV_FLEX_FLOW_COLUMN);
 2153              		.loc 1 285 13 view .LVU611
 2154 0042 42F26402 		movw	r2, #8292
 2155 0046 42F21E01 		movw	r1, #8222
 2156 004a 2846     		mov	r0, r5
 2157 004c FFF7FEFF 		bl	lv_obj_set_size
 2158              	.LVL262:
 286:lvgl/src/extra/widgets/menu/lv_menu.c ****             lv_obj_add_flag(sidebar_cont, LV_OBJ_FLAG_EVENT_BUBBLE);
 2159              		.loc 1 286 13 view .LVU612
 2160 0050 0121     		movs	r1, #1
 2161 0052 2846     		mov	r0, r5
 2162 0054 FFF7FEFF 		bl	lv_obj_set_flex_flow
 2163              	.LVL263:
 287:lvgl/src/extra/widgets/menu/lv_menu.c ****             lv_obj_clear_flag(sidebar_cont, LV_OBJ_FLAG_CLICKABLE);
ARM GAS  C:\usertemp\cc5ZvGn0.s 			page 61


 2164              		.loc 1 287 13 view .LVU613
 2165 0058 4FF48041 		mov	r1, #16384
 2166 005c 2846     		mov	r0, r5
 2167 005e FFF7FEFF 		bl	lv_obj_add_flag
 2168              	.LVL264:
 288:lvgl/src/extra/widgets/menu/lv_menu.c ****             menu->sidebar = sidebar_cont;
 2169              		.loc 1 288 13 view .LVU614
 2170 0062 0221     		movs	r1, #2
 2171 0064 2846     		mov	r0, r5
 2172 0066 FFF7FEFF 		bl	lv_obj_clear_flag
 2173              	.LVL265:
 289:lvgl/src/extra/widgets/menu/lv_menu.c **** 
 2174              		.loc 1 289 13 view .LVU615
 289:lvgl/src/extra/widgets/menu/lv_menu.c **** 
 2175              		.loc 1 289 27 is_stmt 0 view .LVU616
 2176 006a E563     		str	r5, [r4, #60]
 291:lvgl/src/extra/widgets/menu/lv_menu.c ****             lv_obj_class_init_obj(sidebar_header);
 2177              		.loc 1 291 13 is_stmt 1 view .LVU617
 291:lvgl/src/extra/widgets/menu/lv_menu.c ****             lv_obj_class_init_obj(sidebar_header);
 2178              		.loc 1 291 41 is_stmt 0 view .LVU618
 2179 006c 2946     		mov	r1, r5
 2180 006e 2F48     		ldr	r0, .L121+4
 2181 0070 FFF7FEFF 		bl	lv_obj_class_create_obj
 2182              	.LVL266:
 2183 0074 0546     		mov	r5, r0
 2184              	.LVL267:
 292:lvgl/src/extra/widgets/menu/lv_menu.c ****             lv_obj_set_size(sidebar_header, LV_PCT(100), LV_SIZE_CONTENT);
 2185              		.loc 1 292 13 is_stmt 1 view .LVU619
 2186 0076 FFF7FEFF 		bl	lv_obj_class_init_obj
 2187              	.LVL268:
 293:lvgl/src/extra/widgets/menu/lv_menu.c ****             lv_obj_set_flex_flow(sidebar_header, LV_FLEX_FLOW_ROW);
 2188              		.loc 1 293 13 view .LVU620
 2189 007a 42F2D172 		movw	r2, #10193
 2190 007e 42F26401 		movw	r1, #8292
 2191 0082 2846     		mov	r0, r5
 2192 0084 FFF7FEFF 		bl	lv_obj_set_size
 2193              	.LVL269:
 294:lvgl/src/extra/widgets/menu/lv_menu.c ****             lv_obj_set_flex_align(sidebar_header, LV_FLEX_ALIGN_START, LV_FLEX_ALIGN_CENTER, LV_FLE
 2194              		.loc 1 294 13 view .LVU621
 2195 0088 0021     		movs	r1, #0
 2196 008a 2846     		mov	r0, r5
 2197 008c FFF7FEFF 		bl	lv_obj_set_flex_flow
 2198              	.LVL270:
 295:lvgl/src/extra/widgets/menu/lv_menu.c ****             lv_obj_clear_flag(sidebar_header, LV_OBJ_FLAG_CLICKABLE);
 2199              		.loc 1 295 13 view .LVU622
 2200 0090 0223     		movs	r3, #2
 2201 0092 1A46     		mov	r2, r3
 2202 0094 0021     		movs	r1, #0
 2203 0096 2846     		mov	r0, r5
 2204 0098 FFF7FEFF 		bl	lv_obj_set_flex_align
 2205              	.LVL271:
 296:lvgl/src/extra/widgets/menu/lv_menu.c ****             lv_obj_add_flag(sidebar_header, LV_OBJ_FLAG_EVENT_BUBBLE);
 2206              		.loc 1 296 13 view .LVU623
 2207 009c 0221     		movs	r1, #2
 2208 009e 2846     		mov	r0, r5
 2209 00a0 FFF7FEFF 		bl	lv_obj_clear_flag
 2210              	.LVL272:
ARM GAS  C:\usertemp\cc5ZvGn0.s 			page 62


 297:lvgl/src/extra/widgets/menu/lv_menu.c ****             menu->sidebar_header = sidebar_header;
 2211              		.loc 1 297 13 view .LVU624
 2212 00a4 4FF48041 		mov	r1, #16384
 2213 00a8 2846     		mov	r0, r5
 2214 00aa FFF7FEFF 		bl	lv_obj_add_flag
 2215              	.LVL273:
 298:lvgl/src/extra/widgets/menu/lv_menu.c **** 
 2216              		.loc 1 298 13 view .LVU625
 298:lvgl/src/extra/widgets/menu/lv_menu.c **** 
 2217              		.loc 1 298 34 is_stmt 0 view .LVU626
 2218 00ae 6564     		str	r5, [r4, #68]
 300:lvgl/src/extra/widgets/menu/lv_menu.c ****             lv_obj_add_event_cb(sidebar_header_back_btn, lv_menu_back_event_cb, LV_EVENT_CLICKED, m
 2219              		.loc 1 300 13 is_stmt 1 view .LVU627
 300:lvgl/src/extra/widgets/menu/lv_menu.c ****             lv_obj_add_event_cb(sidebar_header_back_btn, lv_menu_back_event_cb, LV_EVENT_CLICKED, m
 2220              		.loc 1 300 50 is_stmt 0 view .LVU628
 2221 00b0 2846     		mov	r0, r5
 2222 00b2 FFF7FEFF 		bl	lv_btn_create
 2223              	.LVL274:
 2224 00b6 0546     		mov	r5, r0
 2225              	.LVL275:
 301:lvgl/src/extra/widgets/menu/lv_menu.c ****             lv_obj_add_flag(sidebar_header_back_btn, LV_OBJ_FLAG_EVENT_BUBBLE);
 2226              		.loc 1 301 13 is_stmt 1 view .LVU629
 2227 00b8 2346     		mov	r3, r4
 2228 00ba 0722     		movs	r2, #7
 2229 00bc 1C49     		ldr	r1, .L121+8
 2230 00be FFF7FEFF 		bl	lv_obj_add_event_cb
 2231              	.LVL276:
 302:lvgl/src/extra/widgets/menu/lv_menu.c ****             lv_obj_set_flex_flow(sidebar_header_back_btn, LV_FLEX_FLOW_ROW);
 2232              		.loc 1 302 13 view .LVU630
 2233 00c2 4FF48041 		mov	r1, #16384
 2234 00c6 2846     		mov	r0, r5
 2235 00c8 FFF7FEFF 		bl	lv_obj_add_flag
 2236              	.LVL277:
 303:lvgl/src/extra/widgets/menu/lv_menu.c ****             menu->sidebar_header_back_btn = sidebar_header_back_btn;
 2237              		.loc 1 303 13 view .LVU631
 2238 00cc 0021     		movs	r1, #0
 2239 00ce 2846     		mov	r0, r5
 2240 00d0 FFF7FEFF 		bl	lv_obj_set_flex_flow
 2241              	.LVL278:
 304:lvgl/src/extra/widgets/menu/lv_menu.c **** 
 2242              		.loc 1 304 13 view .LVU632
 304:lvgl/src/extra/widgets/menu/lv_menu.c **** 
 2243              		.loc 1 304 43 is_stmt 0 view .LVU633
 2244 00d4 A564     		str	r5, [r4, #72]
 306:lvgl/src/extra/widgets/menu/lv_menu.c ****             lv_img_set_src(sidebar_header_back_icon, LV_SYMBOL_LEFT);
 2245              		.loc 1 306 13 is_stmt 1 view .LVU634
 306:lvgl/src/extra/widgets/menu/lv_menu.c ****             lv_img_set_src(sidebar_header_back_icon, LV_SYMBOL_LEFT);
 2246              		.loc 1 306 51 is_stmt 0 view .LVU635
 2247 00d6 2846     		mov	r0, r5
 2248 00d8 FFF7FEFF 		bl	lv_img_create
 2249              	.LVL279:
 307:lvgl/src/extra/widgets/menu/lv_menu.c **** 
 2250              		.loc 1 307 13 is_stmt 1 view .LVU636
 2251 00dc 1549     		ldr	r1, .L121+12
 2252 00de FFF7FEFF 		bl	lv_img_set_src
 2253              	.LVL280:
 309:lvgl/src/extra/widgets/menu/lv_menu.c ****             lv_obj_add_flag(sidebar_header_title, LV_OBJ_FLAG_HIDDEN);
ARM GAS  C:\usertemp\cc5ZvGn0.s 			page 63


 2254              		.loc 1 309 13 view .LVU637
 309:lvgl/src/extra/widgets/menu/lv_menu.c ****             lv_obj_add_flag(sidebar_header_title, LV_OBJ_FLAG_HIDDEN);
 2255              		.loc 1 309 47 is_stmt 0 view .LVU638
 2256 00e2 606C     		ldr	r0, [r4, #68]
 2257 00e4 FFF7FEFF 		bl	lv_label_create
 2258              	.LVL281:
 2259 00e8 0546     		mov	r5, r0
 2260              	.LVL282:
 310:lvgl/src/extra/widgets/menu/lv_menu.c ****             menu->sidebar_header_title = sidebar_header_title;
 2261              		.loc 1 310 13 is_stmt 1 view .LVU639
 2262 00ea 0121     		movs	r1, #1
 2263 00ec FFF7FEFF 		bl	lv_obj_add_flag
 2264              	.LVL283:
 311:lvgl/src/extra/widgets/menu/lv_menu.c **** 
 2265              		.loc 1 311 13 view .LVU640
 311:lvgl/src/extra/widgets/menu/lv_menu.c **** 
 2266              		.loc 1 311 40 is_stmt 0 view .LVU641
 2267 00f0 E564     		str	r5, [r4, #76]
 313:lvgl/src/extra/widgets/menu/lv_menu.c ****         }
 2268              		.loc 1 313 13 is_stmt 1 view .LVU642
 313:lvgl/src/extra/widgets/menu/lv_menu.c ****         }
 2269              		.loc 1 313 37 is_stmt 0 view .LVU643
 2270 00f2 94F86230 		ldrb	r3, [r4, #98]	@ zero_extendqisi2
 2271 00f6 43F00103 		orr	r3, r3, #1
 2272 00fa 84F86230 		strb	r3, [r4, #98]
 2273 00fe 89E7     		b	.L117
 2274              	.LVL284:
 2275              	.L116:
 313:lvgl/src/extra/widgets/menu/lv_menu.c ****         }
 2276              		.loc 1 313 37 view .LVU644
 2277              	.LBE4:
 322:lvgl/src/extra/widgets/menu/lv_menu.c ****             lv_obj_set_parent(menu->sidebar_page, menu->storage);
 2278              		.loc 1 322 9 is_stmt 1 view .LVU645
 322:lvgl/src/extra/widgets/menu/lv_menu.c ****             lv_obj_set_parent(menu->sidebar_page, menu->storage);
 2279              		.loc 1 322 12 is_stmt 0 view .LVU646
 2280 0100 90F86230 		ldrb	r3, [r0, #98]	@ zero_extendqisi2
 322:lvgl/src/extra/widgets/menu/lv_menu.c ****             lv_obj_set_parent(menu->sidebar_page, menu->storage);
 2281              		.loc 1 322 11 view .LVU647
 2282 0104 13F0010F 		tst	r3, #1
 2283 0108 8BD0     		beq	.L118
 323:lvgl/src/extra/widgets/menu/lv_menu.c ****             lv_obj_del(menu->sidebar);
 2284              		.loc 1 323 13 is_stmt 1 view .LVU648
 2285 010a 416A     		ldr	r1, [r0, #36]
 2286              	.LVL285:
 323:lvgl/src/extra/widgets/menu/lv_menu.c ****             lv_obj_del(menu->sidebar);
 2287              		.loc 1 323 13 is_stmt 0 view .LVU649
 2288 010c 006C     		ldr	r0, [r0, #64]
 2289              	.LVL286:
 323:lvgl/src/extra/widgets/menu/lv_menu.c ****             lv_obj_del(menu->sidebar);
 2290              		.loc 1 323 13 view .LVU650
 2291 010e FFF7FEFF 		bl	lv_obj_set_parent
 2292              	.LVL287:
 324:lvgl/src/extra/widgets/menu/lv_menu.c **** 
 2293              		.loc 1 324 13 is_stmt 1 view .LVU651
 2294 0112 E06B     		ldr	r0, [r4, #60]
 2295 0114 FFF7FEFF 		bl	lv_obj_del
 2296              	.LVL288:
ARM GAS  C:\usertemp\cc5ZvGn0.s 			page 64


 326:lvgl/src/extra/widgets/menu/lv_menu.c ****         }
 2297              		.loc 1 326 13 view .LVU652
 326:lvgl/src/extra/widgets/menu/lv_menu.c ****         }
 2298              		.loc 1 326 37 is_stmt 0 view .LVU653
 2299 0118 94F86230 		ldrb	r3, [r4, #98]	@ zero_extendqisi2
 2300 011c 23F00103 		bic	r3, r3, #1
 2301 0120 84F86230 		strb	r3, [r4, #98]
 2302 0124 7DE7     		b	.L118
 2303              	.L122:
 2304 0126 00BF     		.align	2
 2305              	.L121:
 2306 0128 00000000 		.word	lv_menu_sidebar_cont_class
 2307 012c 00000000 		.word	lv_menu_sidebar_header_cont_class
 2308 0130 00000000 		.word	lv_menu_back_event_cb
 2309 0134 00000000 		.word	.LC0
 2310              		.cfi_endproc
 2311              	.LFE168:
 2313              		.section	.text.lv_menu_set_mode_root_back_btn,"ax",%progbits
 2314              		.align	1
 2315              		.global	lv_menu_set_mode_root_back_btn
 2316              		.syntax unified
 2317              		.thumb
 2318              		.thumb_func
 2320              	lv_menu_set_mode_root_back_btn:
 2321              	.LVL289:
 2322              	.LFB170:
 348:lvgl/src/extra/widgets/menu/lv_menu.c ****     LV_ASSERT_OBJ(obj, MY_CLASS);
 2323              		.loc 1 348 1 is_stmt 1 view -0
 2324              		.cfi_startproc
 2325              		@ args = 0, pretend = 0, frame = 0
 2326              		@ frame_needed = 0, uses_anonymous_args = 0
 348:lvgl/src/extra/widgets/menu/lv_menu.c ****     LV_ASSERT_OBJ(obj, MY_CLASS);
 2327              		.loc 1 348 1 is_stmt 0 view .LVU655
 2328 0000 08B5     		push	{r3, lr}
 2329              	.LCFI23:
 2330              		.cfi_def_cfa_offset 8
 2331              		.cfi_offset 3, -8
 2332              		.cfi_offset 14, -4
 349:lvgl/src/extra/widgets/menu/lv_menu.c **** 
 2333              		.loc 1 349 5 is_stmt 1 view .LVU656
 349:lvgl/src/extra/widgets/menu/lv_menu.c **** 
 2334              		.loc 1 349 5 view .LVU657
 349:lvgl/src/extra/widgets/menu/lv_menu.c **** 
 2335              		.loc 1 349 5 view .LVU658
 351:lvgl/src/extra/widgets/menu/lv_menu.c **** 
 2336              		.loc 1 351 5 view .LVU659
 2337              	.LVL290:
 353:lvgl/src/extra/widgets/menu/lv_menu.c ****         menu->mode_root_back_btn = mode_root_back_btn;
 2338              		.loc 1 353 5 view .LVU660
 353:lvgl/src/extra/widgets/menu/lv_menu.c ****         menu->mode_root_back_btn = mode_root_back_btn;
 2339              		.loc 1 353 12 is_stmt 0 view .LVU661
 2340 0002 90F86230 		ldrb	r3, [r0, #98]	@ zero_extendqisi2
 2341 0006 C3F3C003 		ubfx	r3, r3, #3, #1
 353:lvgl/src/extra/widgets/menu/lv_menu.c ****         menu->mode_root_back_btn = mode_root_back_btn;
 2342              		.loc 1 353 7 view .LVU662
 2343 000a 8B42     		cmp	r3, r1
 2344 000c 00D1     		bne	.L126
ARM GAS  C:\usertemp\cc5ZvGn0.s 			page 65


 2345              	.LVL291:
 2346              	.L123:
 357:lvgl/src/extra/widgets/menu/lv_menu.c **** 
 2347              		.loc 1 357 1 view .LVU663
 2348 000e 08BD     		pop	{r3, pc}
 2349              	.LVL292:
 2350              	.L126:
 354:lvgl/src/extra/widgets/menu/lv_menu.c ****         lv_menu_refr(obj);
 2351              		.loc 1 354 9 is_stmt 1 view .LVU664
 354:lvgl/src/extra/widgets/menu/lv_menu.c ****         lv_menu_refr(obj);
 2352              		.loc 1 354 34 is_stmt 0 view .LVU665
 2353 0010 90F86230 		ldrb	r3, [r0, #98]	@ zero_extendqisi2
 2354 0014 61F3C303 		bfi	r3, r1, #3, #1
 2355 0018 80F86230 		strb	r3, [r0, #98]
 355:lvgl/src/extra/widgets/menu/lv_menu.c ****     }
 2356              		.loc 1 355 9 is_stmt 1 view .LVU666
 2357 001c FFF7FEFF 		bl	lv_menu_refr
 2358              	.LVL293:
 357:lvgl/src/extra/widgets/menu/lv_menu.c **** 
 2359              		.loc 1 357 1 is_stmt 0 view .LVU667
 2360 0020 F5E7     		b	.L123
 2361              		.cfi_endproc
 2362              	.LFE170:
 2364              		.section	.text.lv_menu_load_page_event_cb,"ax",%progbits
 2365              		.align	1
 2366              		.syntax unified
 2367              		.thumb
 2368              		.thumb_func
 2370              	lv_menu_load_page_event_cb:
 2371              	.LVL294:
 2372              	.LFB188:
 653:lvgl/src/extra/widgets/menu/lv_menu.c ****     lv_obj_t * obj = lv_event_get_target(e);
 2373              		.loc 1 653 1 is_stmt 1 view -0
 2374              		.cfi_startproc
 2375              		@ args = 0, pretend = 0, frame = 0
 2376              		@ frame_needed = 0, uses_anonymous_args = 0
 653:lvgl/src/extra/widgets/menu/lv_menu.c ****     lv_obj_t * obj = lv_event_get_target(e);
 2377              		.loc 1 653 1 is_stmt 0 view .LVU669
 2378 0000 70B5     		push	{r4, r5, r6, lr}
 2379              	.LCFI24:
 2380              		.cfi_def_cfa_offset 16
 2381              		.cfi_offset 4, -16
 2382              		.cfi_offset 5, -12
 2383              		.cfi_offset 6, -8
 2384              		.cfi_offset 14, -4
 2385 0002 0446     		mov	r4, r0
 654:lvgl/src/extra/widgets/menu/lv_menu.c ****     lv_menu_load_page_event_data_t * event_data = lv_event_get_user_data(e);
 2386              		.loc 1 654 5 is_stmt 1 view .LVU670
 654:lvgl/src/extra/widgets/menu/lv_menu.c ****     lv_menu_load_page_event_data_t * event_data = lv_event_get_user_data(e);
 2387              		.loc 1 654 22 is_stmt 0 view .LVU671
 2388 0004 FFF7FEFF 		bl	lv_event_get_target
 2389              	.LVL295:
 654:lvgl/src/extra/widgets/menu/lv_menu.c ****     lv_menu_load_page_event_data_t * event_data = lv_event_get_user_data(e);
 2390              		.loc 1 654 22 view .LVU672
 2391 0008 0546     		mov	r5, r0
 2392              	.LVL296:
 655:lvgl/src/extra/widgets/menu/lv_menu.c ****     lv_menu_t * menu = (lv_menu_t *)(event_data->menu);
ARM GAS  C:\usertemp\cc5ZvGn0.s 			page 66


 2393              		.loc 1 655 5 is_stmt 1 view .LVU673
 655:lvgl/src/extra/widgets/menu/lv_menu.c ****     lv_menu_t * menu = (lv_menu_t *)(event_data->menu);
 2394              		.loc 1 655 51 is_stmt 0 view .LVU674
 2395 000a 2046     		mov	r0, r4
 2396              	.LVL297:
 655:lvgl/src/extra/widgets/menu/lv_menu.c ****     lv_menu_t * menu = (lv_menu_t *)(event_data->menu);
 2397              		.loc 1 655 51 view .LVU675
 2398 000c FFF7FEFF 		bl	lv_event_get_user_data
 2399              	.LVL298:
 656:lvgl/src/extra/widgets/menu/lv_menu.c ****     lv_obj_t * page = event_data->page;
 2400              		.loc 1 656 5 is_stmt 1 view .LVU676
 656:lvgl/src/extra/widgets/menu/lv_menu.c ****     lv_obj_t * page = event_data->page;
 2401              		.loc 1 656 17 is_stmt 0 view .LVU677
 2402 0010 0468     		ldr	r4, [r0]
 2403              	.LVL299:
 657:lvgl/src/extra/widgets/menu/lv_menu.c **** 
 2404              		.loc 1 657 5 is_stmt 1 view .LVU678
 657:lvgl/src/extra/widgets/menu/lv_menu.c **** 
 2405              		.loc 1 657 16 is_stmt 0 view .LVU679
 2406 0012 4668     		ldr	r6, [r0, #4]
 2407              	.LVL300:
 659:lvgl/src/extra/widgets/menu/lv_menu.c ****         /* Check if clicked obj is in the sidebar */
 2408              		.loc 1 659 5 is_stmt 1 view .LVU680
 659:lvgl/src/extra/widgets/menu/lv_menu.c ****         /* Check if clicked obj is in the sidebar */
 2409              		.loc 1 659 12 is_stmt 0 view .LVU681
 2410 0014 236C     		ldr	r3, [r4, #64]
 659:lvgl/src/extra/widgets/menu/lv_menu.c ****         /* Check if clicked obj is in the sidebar */
 2411              		.loc 1 659 7 view .LVU682
 2412 0016 C3B1     		cbz	r3, .L129
 2413              	.LBB5:
 662:lvgl/src/extra/widgets/menu/lv_menu.c **** 
 2414              		.loc 1 662 20 view .LVU683
 2415 0018 2846     		mov	r0, r5
 2416              	.LVL301:
 662:lvgl/src/extra/widgets/menu/lv_menu.c **** 
 2417              		.loc 1 662 20 view .LVU684
 2418 001a 01E0     		b	.L128
 2419              	.LVL302:
 2420              	.L138:
 670:lvgl/src/extra/widgets/menu/lv_menu.c ****         }
 2421              		.loc 1 670 13 is_stmt 1 view .LVU685
 670:lvgl/src/extra/widgets/menu/lv_menu.c ****         }
 2422              		.loc 1 670 22 is_stmt 0 view .LVU686
 2423 001c FFF7FEFF 		bl	lv_obj_get_parent
 2424              	.LVL303:
 2425              	.L128:
 664:lvgl/src/extra/widgets/menu/lv_menu.c ****             if(parent == (lv_obj_t *)menu) break;
 2426              		.loc 1 664 15 is_stmt 1 view .LVU687
 2427 0020 30B1     		cbz	r0, .L137
 665:lvgl/src/extra/widgets/menu/lv_menu.c ****             if(parent == menu->sidebar) {
 2428              		.loc 1 665 13 view .LVU688
 665:lvgl/src/extra/widgets/menu/lv_menu.c ****             if(parent == menu->sidebar) {
 2429              		.loc 1 665 15 is_stmt 0 view .LVU689
 2430 0022 A042     		cmp	r0, r4
 2431 0024 16D0     		beq	.L134
 666:lvgl/src/extra/widgets/menu/lv_menu.c ****                 sidebar = true;
 2432              		.loc 1 666 13 is_stmt 1 view .LVU690
ARM GAS  C:\usertemp\cc5ZvGn0.s 			page 67


 666:lvgl/src/extra/widgets/menu/lv_menu.c ****                 sidebar = true;
 2433              		.loc 1 666 30 is_stmt 0 view .LVU691
 2434 0026 E36B     		ldr	r3, [r4, #60]
 666:lvgl/src/extra/widgets/menu/lv_menu.c ****                 sidebar = true;
 2435              		.loc 1 666 15 view .LVU692
 2436 0028 8342     		cmp	r3, r0
 2437 002a F7D1     		bne	.L138
 667:lvgl/src/extra/widgets/menu/lv_menu.c ****                 break;
 2438              		.loc 1 667 25 view .LVU693
 2439 002c 0123     		movs	r3, #1
 2440 002e 00E0     		b	.L130
 2441              	.L137:
 661:lvgl/src/extra/widgets/menu/lv_menu.c ****         lv_obj_t * parent = obj;
 2442              		.loc 1 661 14 view .LVU694
 2443 0030 0023     		movs	r3, #0
 2444              	.L130:
 2445              	.LVL304:
 673:lvgl/src/extra/widgets/menu/lv_menu.c ****             /* Clear checked state of previous obj */
 2446              		.loc 1 673 9 is_stmt 1 view .LVU695
 673:lvgl/src/extra/widgets/menu/lv_menu.c ****             /* Clear checked state of previous obj */
 2447              		.loc 1 673 11 is_stmt 0 view .LVU696
 2448 0032 53B1     		cbz	r3, .L129
 675:lvgl/src/extra/widgets/menu/lv_menu.c ****                 lv_obj_clear_state(menu->selected_tab, LV_STATE_CHECKED);
 2449              		.loc 1 675 13 is_stmt 1 view .LVU697
 675:lvgl/src/extra/widgets/menu/lv_menu.c ****                 lv_obj_clear_state(menu->selected_tab, LV_STATE_CHECKED);
 2450              		.loc 1 675 20 is_stmt 0 view .LVU698
 2451 0034 206D     		ldr	r0, [r4, #80]
 2452              	.LVL305:
 675:lvgl/src/extra/widgets/menu/lv_menu.c ****                 lv_obj_clear_state(menu->selected_tab, LV_STATE_CHECKED);
 2453              		.loc 1 675 15 view .LVU699
 2454 0036 A842     		cmp	r0, r5
 2455 0038 03D0     		beq	.L132
 675:lvgl/src/extra/widgets/menu/lv_menu.c ****                 lv_obj_clear_state(menu->selected_tab, LV_STATE_CHECKED);
 2456              		.loc 1 675 42 discriminator 1 view .LVU700
 2457 003a 10B1     		cbz	r0, .L132
 676:lvgl/src/extra/widgets/menu/lv_menu.c ****             }
 2458              		.loc 1 676 17 is_stmt 1 view .LVU701
 2459 003c 0121     		movs	r1, #1
 2460 003e FFF7FEFF 		bl	lv_obj_clear_state
 2461              	.LVL306:
 2462              	.L132:
 679:lvgl/src/extra/widgets/menu/lv_menu.c **** 
 2463              		.loc 1 679 13 view .LVU702
 2464 0042 2046     		mov	r0, r4
 2465 0044 FFF7FEFF 		bl	lv_menu_clear_history
 2466              	.LVL307:
 681:lvgl/src/extra/widgets/menu/lv_menu.c ****         }
 2467              		.loc 1 681 13 view .LVU703
 681:lvgl/src/extra/widgets/menu/lv_menu.c ****         }
 2468              		.loc 1 681 32 is_stmt 0 view .LVU704
 2469 0048 2565     		str	r5, [r4, #80]
 2470              	.LVL308:
 2471              	.L129:
 681:lvgl/src/extra/widgets/menu/lv_menu.c ****         }
 2472              		.loc 1 681 32 view .LVU705
 2473              	.LBE5:
 685:lvgl/src/extra/widgets/menu/lv_menu.c **** }
ARM GAS  C:\usertemp\cc5ZvGn0.s 			page 68


 2474              		.loc 1 685 5 is_stmt 1 view .LVU706
 2475 004a 3146     		mov	r1, r6
 2476 004c 2046     		mov	r0, r4
 2477 004e FFF7FEFF 		bl	lv_menu_set_page
 2478              	.LVL309:
 686:lvgl/src/extra/widgets/menu/lv_menu.c **** 
 2479              		.loc 1 686 1 is_stmt 0 view .LVU707
 2480 0052 70BD     		pop	{r4, r5, r6, pc}
 2481              	.LVL310:
 2482              	.L134:
 2483              	.LBB6:
 661:lvgl/src/extra/widgets/menu/lv_menu.c ****         lv_obj_t * parent = obj;
 2484              		.loc 1 661 14 view .LVU708
 2485 0054 0023     		movs	r3, #0
 2486 0056 ECE7     		b	.L130
 2487              	.LBE6:
 2488              		.cfi_endproc
 2489              	.LFE188:
 2491              		.global	lv_menu_sidebar_header_cont_class
 2492              		.section	.rodata.lv_menu_sidebar_header_cont_class,"a"
 2493              		.align	2
 2496              	lv_menu_sidebar_header_cont_class:
 2497 0000 00000000 		.word	lv_obj_class
 2498 0004 00000000 		.space	24
 2498      00000000 
 2498      00000000 
 2498      00000000 
 2498      00000000 
 2499              		.global	lv_menu_main_header_cont_class
 2500              		.section	.rodata.lv_menu_main_header_cont_class,"a"
 2501              		.align	2
 2504              	lv_menu_main_header_cont_class:
 2505 0000 00000000 		.word	lv_obj_class
 2506 0004 00000000 		.space	24
 2506      00000000 
 2506      00000000 
 2506      00000000 
 2506      00000000 
 2507              		.global	lv_menu_main_cont_class
 2508              		.section	.rodata.lv_menu_main_cont_class,"a"
 2509              		.align	2
 2512              	lv_menu_main_cont_class:
 2513 0000 00000000 		.word	lv_obj_class
 2514 0004 00000000 		.space	24
 2514      00000000 
 2514      00000000 
 2514      00000000 
 2514      00000000 
 2515              		.global	lv_menu_sidebar_cont_class
 2516              		.section	.rodata.lv_menu_sidebar_cont_class,"a"
 2517              		.align	2
 2520              	lv_menu_sidebar_cont_class:
 2521 0000 00000000 		.word	lv_obj_class
 2522 0004 00000000 		.space	24
 2522      00000000 
 2522      00000000 
 2522      00000000 
ARM GAS  C:\usertemp\cc5ZvGn0.s 			page 69


 2522      00000000 
 2523              		.global	lv_menu_separator_class
 2524              		.section	.rodata.lv_menu_separator_class,"a"
 2525              		.align	2
 2528              	lv_menu_separator_class:
 2529 0000 00000000 		.word	lv_obj_class
 2530 0004 00000000 		.space	16
 2530      00000000 
 2530      00000000 
 2530      00000000 
 2531 0014 D127     		.short	10193
 2532 0016 D127     		.short	10193
 2533 0018 00000000 		.space	4
 2534              		.global	lv_menu_section_class
 2535              		.section	.rodata.lv_menu_section_class,"a"
 2536              		.align	2
 2539              	lv_menu_section_class:
 2540 0000 00000000 		.word	lv_obj_class
 2541 0004 00000000 		.word	lv_menu_section_constructor
 2542 0008 00000000 		.space	12
 2542      00000000 
 2542      00000000 
 2543 0014 6420     		.short	8292
 2544 0016 D127     		.short	10193
 2545 0018 00000000 		.space	4
 2546              		.global	lv_menu_cont_class
 2547              		.section	.rodata.lv_menu_cont_class,"a"
 2548              		.align	2
 2551              	lv_menu_cont_class:
 2552 0000 00000000 		.word	lv_obj_class
 2553 0004 00000000 		.word	lv_menu_cont_constructor
 2554 0008 00000000 		.space	12
 2554      00000000 
 2554      00000000 
 2555 0014 6420     		.short	8292
 2556 0016 D127     		.short	10193
 2557 0018 00000000 		.space	4
 2558              		.global	lv_menu_page_class
 2559              		.section	.rodata.lv_menu_page_class,"a"
 2560              		.align	2
 2563              	lv_menu_page_class:
 2564 0000 00000000 		.word	lv_obj_class
 2565 0004 00000000 		.word	lv_menu_page_constructor
 2566 0008 00000000 		.word	lv_menu_page_destructor
 2567 000c 00000000 		.space	8
 2567      00000000 
 2568 0014 6420     		.short	8292
 2569 0016 D127     		.short	10193
 2570 0018 80       		.byte	128
 2571 0019 02       		.byte	2
 2572 001a 00       		.byte	0
 2573 001b 00       		.space	1
 2574              		.global	lv_menu_class
 2575              		.section	.rodata.lv_menu_class,"a"
 2576              		.align	2
 2579              	lv_menu_class:
 2580 0000 00000000 		.word	lv_obj_class
ARM GAS  C:\usertemp\cc5ZvGn0.s 			page 70


 2581 0004 00000000 		.word	lv_menu_constructor
 2582 0008 00000000 		.word	lv_menu_destructor
 2583 000c 00000000 		.space	8
 2583      00000000 
 2584 0014 C300     		.short	195
 2585 0016 0401     		.short	260
 2586 0018 40       		.byte	64
 2587 0019 06       		.byte	6
 2588 001a 00       		.byte	0
 2589 001b 00       		.space	1
 2590              		.text
 2591              	.Letext0:
 2592              		.file 2 "D:/armtoolchain/arm-gnu-toolchain-13.3.rel1-mingw-w64-i686-arm-none-eabi/arm-none-eabi/in
 2593              		.file 3 "D:/armtoolchain/arm-gnu-toolchain-13.3.rel1-mingw-w64-i686-arm-none-eabi/arm-none-eabi/in
 2594              		.file 4 "D:/armtoolchain/arm-gnu-toolchain-13.3.rel1-mingw-w64-i686-arm-none-eabi/lib/gcc/arm-none
 2595              		.file 5 "D:/update_2024EL/changeform/743zit6/lvgl/src/misc/lv_area.h"
 2596              		.file 6 "lvgl/src/extra/widgets/menu/../../../core/../misc/lv_types.h"
 2597              		.file 7 "lvgl/src/extra/widgets/menu/../../../core/../misc/lv_color.h"
 2598              		.file 8 "lvgl/src/extra/widgets/menu/../../../core/../misc/lv_style.h"
 2599              		.file 9 "lvgl/src/extra/widgets/menu/../../../core/lv_obj.h"
 2600              		.file 10 "D:/update_2024EL/changeform/743zit6/lvgl/src/misc/lv_ll.h"
 2601              		.file 11 "lvgl/src/extra/widgets/menu/../../../core/lv_group.h"
 2602              		.file 12 "lvgl/src/extra/widgets/menu/../../../core/lv_obj_scroll.h"
 2603              		.file 13 "lvgl/src/extra/widgets/menu/../../../core/lv_obj_style.h"
 2604              		.file 14 "lvgl/src/extra/widgets/menu/../../../core/lv_obj_class.h"
 2605              		.file 15 "lvgl/src/extra/widgets/menu/../../../core/lv_event.h"
 2606              		.file 16 "lvgl/src/extra/widgets/menu/lv_menu.h"
 2607              		.file 17 "lvgl/src/extra/widgets/menu/../../layouts/flex/lv_flex.h"
 2608              		.file 18 "D:/update_2024EL/changeform/743zit6/lvgl/src/core/lv_obj_pos.h"
 2609              		.file 19 "lvgl/src/extra/widgets/menu/../../../core/lv_obj_tree.h"
 2610              		.file 20 "D:/armtoolchain/arm-gnu-toolchain-13.3.rel1-mingw-w64-i686-arm-none-eabi/arm-none-eabi/i
 2611              		.file 21 "lvgl/src/extra/widgets/menu/../../../core/../misc/lv_mem.h"
 2612              		.file 22 "lvgl/src/extra/widgets/menu/../../../widgets/lv_label.h"
 2613              		.file 23 "lvgl/src/extra/widgets/menu/../../../widgets/lv_img.h"
 2614              		.file 24 "lvgl/src/extra/widgets/menu/../../../widgets/lv_btn.h"
ARM GAS  C:\usertemp\cc5ZvGn0.s 			page 71

