ARM GAS  C:\usertemp\ccXAVGrP.s 			page 1


   1              		.cpu cortex-m7
   2              		.arch armv7e-m
   3              		.fpu fpv5-d16
   4              		.eabi_attribute 28, 1
   5              		.eabi_attribute 20, 1
   6              		.eabi_attribute 21, 1
   7              		.eabi_attribute 23, 3
   8              		.eabi_attribute 24, 1
   9              		.eabi_attribute 25, 1
  10              		.eabi_attribute 26, 1
  11              		.eabi_attribute 30, 1
  12              		.eabi_attribute 34, 1
  13              		.eabi_attribute 18, 4
  14              		.file	"lv_meter.c"
  15              		.text
  16              	.Ltext0:
  17              		.cfi_sections	.debug_frame
  18              		.file 1 "lvgl/src/extra/widgets/meter/lv_meter.c"
  19              		.section	.text.lv_color_mix,"ax",%progbits
  20              		.align	1
  21              		.syntax unified
  22              		.thumb
  23              		.thumb_func
  25              	lv_color_mix:
  26              	.LVL0:
  27              	.LFB12:
  28              		.file 2 "D:/update_2024EL/changeform/743zit6/lvgl/src/misc/lv_color.h"
   1:D:/update_2024EL/changeform/743zit6/lvgl/src/misc\lv_color.h **** /**
   2:D:/update_2024EL/changeform/743zit6/lvgl/src/misc\lv_color.h ****  * @file lv_color.h
   3:D:/update_2024EL/changeform/743zit6/lvgl/src/misc\lv_color.h ****  *
   4:D:/update_2024EL/changeform/743zit6/lvgl/src/misc\lv_color.h ****  */
   5:D:/update_2024EL/changeform/743zit6/lvgl/src/misc\lv_color.h **** 
   6:D:/update_2024EL/changeform/743zit6/lvgl/src/misc\lv_color.h **** #ifndef LV_COLOR_H
   7:D:/update_2024EL/changeform/743zit6/lvgl/src/misc\lv_color.h **** #define LV_COLOR_H
   8:D:/update_2024EL/changeform/743zit6/lvgl/src/misc\lv_color.h **** 
   9:D:/update_2024EL/changeform/743zit6/lvgl/src/misc\lv_color.h **** #ifdef __cplusplus
  10:D:/update_2024EL/changeform/743zit6/lvgl/src/misc\lv_color.h **** extern "C" {
  11:D:/update_2024EL/changeform/743zit6/lvgl/src/misc\lv_color.h **** #endif
  12:D:/update_2024EL/changeform/743zit6/lvgl/src/misc\lv_color.h **** 
  13:D:/update_2024EL/changeform/743zit6/lvgl/src/misc\lv_color.h **** /*********************
  14:D:/update_2024EL/changeform/743zit6/lvgl/src/misc\lv_color.h ****  *      INCLUDES
  15:D:/update_2024EL/changeform/743zit6/lvgl/src/misc\lv_color.h ****  *********************/
  16:D:/update_2024EL/changeform/743zit6/lvgl/src/misc\lv_color.h **** #include "../lv_conf_internal.h"
  17:D:/update_2024EL/changeform/743zit6/lvgl/src/misc\lv_color.h **** #include "lv_assert.h"
  18:D:/update_2024EL/changeform/743zit6/lvgl/src/misc\lv_color.h **** #include "lv_math.h"
  19:D:/update_2024EL/changeform/743zit6/lvgl/src/misc\lv_color.h **** #include "lv_types.h"
  20:D:/update_2024EL/changeform/743zit6/lvgl/src/misc\lv_color.h **** 
  21:D:/update_2024EL/changeform/743zit6/lvgl/src/misc\lv_color.h **** /*Error checking*/
  22:D:/update_2024EL/changeform/743zit6/lvgl/src/misc\lv_color.h **** #if LV_COLOR_DEPTH == 24
  23:D:/update_2024EL/changeform/743zit6/lvgl/src/misc\lv_color.h **** #error "LV_COLOR_DEPTH 24 is deprecated. Use LV_COLOR_DEPTH 32 instead (lv_conf.h)"
  24:D:/update_2024EL/changeform/743zit6/lvgl/src/misc\lv_color.h **** #endif
  25:D:/update_2024EL/changeform/743zit6/lvgl/src/misc\lv_color.h **** 
  26:D:/update_2024EL/changeform/743zit6/lvgl/src/misc\lv_color.h **** #if LV_COLOR_DEPTH != 32 && LV_COLOR_SCREEN_TRANSP != 0
  27:D:/update_2024EL/changeform/743zit6/lvgl/src/misc\lv_color.h **** #error "LV_COLOR_SCREEN_TRANSP requires LV_COLOR_DEPTH == 32. Set it in lv_conf.h"
  28:D:/update_2024EL/changeform/743zit6/lvgl/src/misc\lv_color.h **** #endif
  29:D:/update_2024EL/changeform/743zit6/lvgl/src/misc\lv_color.h **** 
  30:D:/update_2024EL/changeform/743zit6/lvgl/src/misc\lv_color.h **** #if LV_COLOR_DEPTH != 16 && LV_COLOR_16_SWAP != 0
ARM GAS  C:\usertemp\ccXAVGrP.s 			page 2


  31:D:/update_2024EL/changeform/743zit6/lvgl/src/misc\lv_color.h **** #error "LV_COLOR_16_SWAP requires LV_COLOR_DEPTH == 16. Set it in lv_conf.h"
  32:D:/update_2024EL/changeform/743zit6/lvgl/src/misc\lv_color.h **** #endif
  33:D:/update_2024EL/changeform/743zit6/lvgl/src/misc\lv_color.h **** 
  34:D:/update_2024EL/changeform/743zit6/lvgl/src/misc\lv_color.h **** #include <stdint.h>
  35:D:/update_2024EL/changeform/743zit6/lvgl/src/misc\lv_color.h **** 
  36:D:/update_2024EL/changeform/743zit6/lvgl/src/misc\lv_color.h **** /*********************
  37:D:/update_2024EL/changeform/743zit6/lvgl/src/misc\lv_color.h ****  *      DEFINES
  38:D:/update_2024EL/changeform/743zit6/lvgl/src/misc\lv_color.h ****  *********************/
  39:D:/update_2024EL/changeform/743zit6/lvgl/src/misc\lv_color.h **** LV_EXPORT_CONST_INT(LV_COLOR_DEPTH);
  40:D:/update_2024EL/changeform/743zit6/lvgl/src/misc\lv_color.h **** LV_EXPORT_CONST_INT(LV_COLOR_16_SWAP);
  41:D:/update_2024EL/changeform/743zit6/lvgl/src/misc\lv_color.h **** 
  42:D:/update_2024EL/changeform/743zit6/lvgl/src/misc\lv_color.h **** /**
  43:D:/update_2024EL/changeform/743zit6/lvgl/src/misc\lv_color.h ****  * Opacity percentages.
  44:D:/update_2024EL/changeform/743zit6/lvgl/src/misc\lv_color.h ****  */
  45:D:/update_2024EL/changeform/743zit6/lvgl/src/misc\lv_color.h **** enum {
  46:D:/update_2024EL/changeform/743zit6/lvgl/src/misc\lv_color.h ****     LV_OPA_TRANSP = 0,
  47:D:/update_2024EL/changeform/743zit6/lvgl/src/misc\lv_color.h ****     LV_OPA_0      = 0,
  48:D:/update_2024EL/changeform/743zit6/lvgl/src/misc\lv_color.h ****     LV_OPA_10     = 25,
  49:D:/update_2024EL/changeform/743zit6/lvgl/src/misc\lv_color.h ****     LV_OPA_20     = 51,
  50:D:/update_2024EL/changeform/743zit6/lvgl/src/misc\lv_color.h ****     LV_OPA_30     = 76,
  51:D:/update_2024EL/changeform/743zit6/lvgl/src/misc\lv_color.h ****     LV_OPA_40     = 102,
  52:D:/update_2024EL/changeform/743zit6/lvgl/src/misc\lv_color.h ****     LV_OPA_50     = 127,
  53:D:/update_2024EL/changeform/743zit6/lvgl/src/misc\lv_color.h ****     LV_OPA_60     = 153,
  54:D:/update_2024EL/changeform/743zit6/lvgl/src/misc\lv_color.h ****     LV_OPA_70     = 178,
  55:D:/update_2024EL/changeform/743zit6/lvgl/src/misc\lv_color.h ****     LV_OPA_80     = 204,
  56:D:/update_2024EL/changeform/743zit6/lvgl/src/misc\lv_color.h ****     LV_OPA_90     = 229,
  57:D:/update_2024EL/changeform/743zit6/lvgl/src/misc\lv_color.h ****     LV_OPA_100    = 255,
  58:D:/update_2024EL/changeform/743zit6/lvgl/src/misc\lv_color.h ****     LV_OPA_COVER  = 255,
  59:D:/update_2024EL/changeform/743zit6/lvgl/src/misc\lv_color.h **** };
  60:D:/update_2024EL/changeform/743zit6/lvgl/src/misc\lv_color.h **** 
  61:D:/update_2024EL/changeform/743zit6/lvgl/src/misc\lv_color.h **** #define LV_OPA_MIN 2    /*Opacities below this will be transparent*/
  62:D:/update_2024EL/changeform/743zit6/lvgl/src/misc\lv_color.h **** #define LV_OPA_MAX 253  /*Opacities above this will fully cover*/
  63:D:/update_2024EL/changeform/743zit6/lvgl/src/misc\lv_color.h **** 
  64:D:/update_2024EL/changeform/743zit6/lvgl/src/misc\lv_color.h **** #if LV_COLOR_DEPTH == 1
  65:D:/update_2024EL/changeform/743zit6/lvgl/src/misc\lv_color.h **** #define LV_COLOR_SIZE 8
  66:D:/update_2024EL/changeform/743zit6/lvgl/src/misc\lv_color.h **** #elif LV_COLOR_DEPTH == 8
  67:D:/update_2024EL/changeform/743zit6/lvgl/src/misc\lv_color.h **** #define LV_COLOR_SIZE 8
  68:D:/update_2024EL/changeform/743zit6/lvgl/src/misc\lv_color.h **** #elif LV_COLOR_DEPTH == 16
  69:D:/update_2024EL/changeform/743zit6/lvgl/src/misc\lv_color.h **** #define LV_COLOR_SIZE 16
  70:D:/update_2024EL/changeform/743zit6/lvgl/src/misc\lv_color.h **** #elif LV_COLOR_DEPTH == 32
  71:D:/update_2024EL/changeform/743zit6/lvgl/src/misc\lv_color.h **** #define LV_COLOR_SIZE 32
  72:D:/update_2024EL/changeform/743zit6/lvgl/src/misc\lv_color.h **** #else
  73:D:/update_2024EL/changeform/743zit6/lvgl/src/misc\lv_color.h **** #error "Invalid LV_COLOR_DEPTH in lv_conf.h! Set it to 1, 8, 16 or 32!"
  74:D:/update_2024EL/changeform/743zit6/lvgl/src/misc\lv_color.h **** #endif
  75:D:/update_2024EL/changeform/743zit6/lvgl/src/misc\lv_color.h **** 
  76:D:/update_2024EL/changeform/743zit6/lvgl/src/misc\lv_color.h **** #if defined(__cplusplus) && !defined(_LV_COLOR_HAS_MODERN_CPP)
  77:D:/update_2024EL/changeform/743zit6/lvgl/src/misc\lv_color.h **** /**
  78:D:/update_2024EL/changeform/743zit6/lvgl/src/misc\lv_color.h **** * MSVC compiler's definition of the __cplusplus indicating 199711L regardless to C++ standard versi
  79:D:/update_2024EL/changeform/743zit6/lvgl/src/misc\lv_color.h **** * see https://devblogs.microsoft.com/cppblog/msvc-now-correctly-reports-cplusplus
  80:D:/update_2024EL/changeform/743zit6/lvgl/src/misc\lv_color.h **** * so we use _MSC_VER macro instead of __cplusplus
  81:D:/update_2024EL/changeform/743zit6/lvgl/src/misc\lv_color.h **** */
  82:D:/update_2024EL/changeform/743zit6/lvgl/src/misc\lv_color.h **** #ifdef _MSC_VER
  83:D:/update_2024EL/changeform/743zit6/lvgl/src/misc\lv_color.h **** #if _MSC_VER >= 1900 /*Visual Studio 2015*/
  84:D:/update_2024EL/changeform/743zit6/lvgl/src/misc\lv_color.h **** #define _LV_COLOR_HAS_MODERN_CPP 1
  85:D:/update_2024EL/changeform/743zit6/lvgl/src/misc\lv_color.h **** #endif
  86:D:/update_2024EL/changeform/743zit6/lvgl/src/misc\lv_color.h **** #else
  87:D:/update_2024EL/changeform/743zit6/lvgl/src/misc\lv_color.h **** #if __cplusplus >= 201103L
ARM GAS  C:\usertemp\ccXAVGrP.s 			page 3


  88:D:/update_2024EL/changeform/743zit6/lvgl/src/misc\lv_color.h **** #define _LV_COLOR_HAS_MODERN_CPP 1
  89:D:/update_2024EL/changeform/743zit6/lvgl/src/misc\lv_color.h **** #endif
  90:D:/update_2024EL/changeform/743zit6/lvgl/src/misc\lv_color.h **** #endif
  91:D:/update_2024EL/changeform/743zit6/lvgl/src/misc\lv_color.h **** #endif /*__cplusplus*/
  92:D:/update_2024EL/changeform/743zit6/lvgl/src/misc\lv_color.h **** 
  93:D:/update_2024EL/changeform/743zit6/lvgl/src/misc\lv_color.h **** #ifndef _LV_COLOR_HAS_MODERN_CPP
  94:D:/update_2024EL/changeform/743zit6/lvgl/src/misc\lv_color.h **** #define _LV_COLOR_HAS_MODERN_CPP 0
  95:D:/update_2024EL/changeform/743zit6/lvgl/src/misc\lv_color.h **** #endif
  96:D:/update_2024EL/changeform/743zit6/lvgl/src/misc\lv_color.h **** 
  97:D:/update_2024EL/changeform/743zit6/lvgl/src/misc\lv_color.h **** #if _LV_COLOR_HAS_MODERN_CPP
  98:D:/update_2024EL/changeform/743zit6/lvgl/src/misc\lv_color.h **** /*Fix msvc compiler error C4576 inside C++ code*/
  99:D:/update_2024EL/changeform/743zit6/lvgl/src/misc\lv_color.h **** #define _LV_COLOR_MAKE_TYPE_HELPER lv_color_t
 100:D:/update_2024EL/changeform/743zit6/lvgl/src/misc\lv_color.h **** #else
 101:D:/update_2024EL/changeform/743zit6/lvgl/src/misc\lv_color.h **** #define _LV_COLOR_MAKE_TYPE_HELPER (lv_color_t)
 102:D:/update_2024EL/changeform/743zit6/lvgl/src/misc\lv_color.h **** #endif
 103:D:/update_2024EL/changeform/743zit6/lvgl/src/misc\lv_color.h **** 
 104:D:/update_2024EL/changeform/743zit6/lvgl/src/misc\lv_color.h **** /*---------------------------------------
 105:D:/update_2024EL/changeform/743zit6/lvgl/src/misc\lv_color.h ****  * Macros for all existing color depths
 106:D:/update_2024EL/changeform/743zit6/lvgl/src/misc\lv_color.h ****  * to set/get values of the color channels
 107:D:/update_2024EL/changeform/743zit6/lvgl/src/misc\lv_color.h ****  *------------------------------------------*/
 108:D:/update_2024EL/changeform/743zit6/lvgl/src/misc\lv_color.h **** # define LV_COLOR_SET_R1(c, v) (c).ch.red = (uint8_t)((v) & 0x1)
 109:D:/update_2024EL/changeform/743zit6/lvgl/src/misc\lv_color.h **** # define LV_COLOR_SET_G1(c, v) (c).ch.green = (uint8_t)((v) & 0x1)
 110:D:/update_2024EL/changeform/743zit6/lvgl/src/misc\lv_color.h **** # define LV_COLOR_SET_B1(c, v) (c).ch.blue = (uint8_t)((v) & 0x1)
 111:D:/update_2024EL/changeform/743zit6/lvgl/src/misc\lv_color.h **** # define LV_COLOR_SET_A1(c, v) do {} while(0)
 112:D:/update_2024EL/changeform/743zit6/lvgl/src/misc\lv_color.h **** 
 113:D:/update_2024EL/changeform/743zit6/lvgl/src/misc\lv_color.h **** # define LV_COLOR_GET_R1(c) (c).ch.red
 114:D:/update_2024EL/changeform/743zit6/lvgl/src/misc\lv_color.h **** # define LV_COLOR_GET_G1(c) (c).ch.green
 115:D:/update_2024EL/changeform/743zit6/lvgl/src/misc\lv_color.h **** # define LV_COLOR_GET_B1(c) (c).ch.blue
 116:D:/update_2024EL/changeform/743zit6/lvgl/src/misc\lv_color.h **** # define LV_COLOR_GET_A1(c) 0xFF
 117:D:/update_2024EL/changeform/743zit6/lvgl/src/misc\lv_color.h **** 
 118:D:/update_2024EL/changeform/743zit6/lvgl/src/misc\lv_color.h **** # define _LV_COLOR_ZERO_INITIALIZER1 {0x00}
 119:D:/update_2024EL/changeform/743zit6/lvgl/src/misc\lv_color.h **** # define LV_COLOR_MAKE1(r8, g8, b8)  {(uint8_t)((b8 >> 7) | (g8 >> 7) | (r8 >> 7))}
 120:D:/update_2024EL/changeform/743zit6/lvgl/src/misc\lv_color.h **** 
 121:D:/update_2024EL/changeform/743zit6/lvgl/src/misc\lv_color.h **** # define LV_COLOR_SET_R8(c, v) (c).ch.red = (uint8_t)((v) & 0x7U)
 122:D:/update_2024EL/changeform/743zit6/lvgl/src/misc\lv_color.h **** # define LV_COLOR_SET_G8(c, v) (c).ch.green = (uint8_t)((v) & 0x7U)
 123:D:/update_2024EL/changeform/743zit6/lvgl/src/misc\lv_color.h **** # define LV_COLOR_SET_B8(c, v) (c).ch.blue = (uint8_t)((v) & 0x3U)
 124:D:/update_2024EL/changeform/743zit6/lvgl/src/misc\lv_color.h **** # define LV_COLOR_SET_A8(c, v) do {} while(0)
 125:D:/update_2024EL/changeform/743zit6/lvgl/src/misc\lv_color.h **** 
 126:D:/update_2024EL/changeform/743zit6/lvgl/src/misc\lv_color.h **** # define LV_COLOR_GET_R8(c) (c).ch.red
 127:D:/update_2024EL/changeform/743zit6/lvgl/src/misc\lv_color.h **** # define LV_COLOR_GET_G8(c) (c).ch.green
 128:D:/update_2024EL/changeform/743zit6/lvgl/src/misc\lv_color.h **** # define LV_COLOR_GET_B8(c) (c).ch.blue
 129:D:/update_2024EL/changeform/743zit6/lvgl/src/misc\lv_color.h **** # define LV_COLOR_GET_A8(c) 0xFF
 130:D:/update_2024EL/changeform/743zit6/lvgl/src/misc\lv_color.h **** 
 131:D:/update_2024EL/changeform/743zit6/lvgl/src/misc\lv_color.h **** # define _LV_COLOR_ZERO_INITIALIZER8 {{0x00, 0x00, 0x00}}
 132:D:/update_2024EL/changeform/743zit6/lvgl/src/misc\lv_color.h **** # define LV_COLOR_MAKE8(r8, g8, b8) {{(uint8_t)((b8 >> 6) & 0x3U), (uint8_t)((g8 >> 5) & 0x7U), (ui
 133:D:/update_2024EL/changeform/743zit6/lvgl/src/misc\lv_color.h **** 
 134:D:/update_2024EL/changeform/743zit6/lvgl/src/misc\lv_color.h **** # define LV_COLOR_SET_R16(c, v) (c).ch.red = (uint8_t)((v) & 0x1FU)
 135:D:/update_2024EL/changeform/743zit6/lvgl/src/misc\lv_color.h **** #if LV_COLOR_16_SWAP == 0
 136:D:/update_2024EL/changeform/743zit6/lvgl/src/misc\lv_color.h **** # define LV_COLOR_SET_G16(c, v) (c).ch.green = (uint8_t)((v) & 0x3FU)
 137:D:/update_2024EL/changeform/743zit6/lvgl/src/misc\lv_color.h **** #else
 138:D:/update_2024EL/changeform/743zit6/lvgl/src/misc\lv_color.h **** # define LV_COLOR_SET_G16(c, v) {(c).ch.green_h = (uint8_t)(((v) >> 3) & 0x7); (c).ch.green_l = (ui
 139:D:/update_2024EL/changeform/743zit6/lvgl/src/misc\lv_color.h **** #endif
 140:D:/update_2024EL/changeform/743zit6/lvgl/src/misc\lv_color.h **** # define LV_COLOR_SET_B16(c, v) (c).ch.blue = (uint8_t)((v) & 0x1FU)
 141:D:/update_2024EL/changeform/743zit6/lvgl/src/misc\lv_color.h **** # define LV_COLOR_SET_A16(c, v) do {} while(0)
 142:D:/update_2024EL/changeform/743zit6/lvgl/src/misc\lv_color.h **** 
 143:D:/update_2024EL/changeform/743zit6/lvgl/src/misc\lv_color.h **** # define LV_COLOR_GET_R16(c) (c).ch.red
 144:D:/update_2024EL/changeform/743zit6/lvgl/src/misc\lv_color.h **** #if LV_COLOR_16_SWAP == 0
ARM GAS  C:\usertemp\ccXAVGrP.s 			page 4


 145:D:/update_2024EL/changeform/743zit6/lvgl/src/misc\lv_color.h **** # define LV_COLOR_GET_G16(c) (c).ch.green
 146:D:/update_2024EL/changeform/743zit6/lvgl/src/misc\lv_color.h **** #else
 147:D:/update_2024EL/changeform/743zit6/lvgl/src/misc\lv_color.h **** # define LV_COLOR_GET_G16(c) (((c).ch.green_h << 3) + (c).ch.green_l)
 148:D:/update_2024EL/changeform/743zit6/lvgl/src/misc\lv_color.h **** #endif
 149:D:/update_2024EL/changeform/743zit6/lvgl/src/misc\lv_color.h **** # define LV_COLOR_GET_B16(c) (c).ch.blue
 150:D:/update_2024EL/changeform/743zit6/lvgl/src/misc\lv_color.h **** # define LV_COLOR_GET_A16(c) 0xFF
 151:D:/update_2024EL/changeform/743zit6/lvgl/src/misc\lv_color.h **** 
 152:D:/update_2024EL/changeform/743zit6/lvgl/src/misc\lv_color.h **** #if LV_COLOR_16_SWAP == 0
 153:D:/update_2024EL/changeform/743zit6/lvgl/src/misc\lv_color.h **** # define _LV_COLOR_ZERO_INITIALIZER16  {{0x00, 0x00, 0x00}}
 154:D:/update_2024EL/changeform/743zit6/lvgl/src/misc\lv_color.h **** # define LV_COLOR_MAKE16(r8, g8, b8) {{(uint8_t)((b8 >> 3) & 0x1FU), (uint8_t)((g8 >> 2) & 0x3FU), 
 155:D:/update_2024EL/changeform/743zit6/lvgl/src/misc\lv_color.h **** #else
 156:D:/update_2024EL/changeform/743zit6/lvgl/src/misc\lv_color.h **** # define _LV_COLOR_ZERO_INITIALIZER16 {{0x00, 0x00, 0x00, 0x00}}
 157:D:/update_2024EL/changeform/743zit6/lvgl/src/misc\lv_color.h **** # define LV_COLOR_MAKE16(r8, g8, b8) {{(uint8_t)((g8 >> 5) & 0x7U), (uint8_t)((r8 >> 3) & 0x1FU), (
 158:D:/update_2024EL/changeform/743zit6/lvgl/src/misc\lv_color.h **** #endif
 159:D:/update_2024EL/changeform/743zit6/lvgl/src/misc\lv_color.h **** 
 160:D:/update_2024EL/changeform/743zit6/lvgl/src/misc\lv_color.h **** # define LV_COLOR_SET_R32(c, v) (c).ch.red = (uint8_t)((v) & 0xFF)
 161:D:/update_2024EL/changeform/743zit6/lvgl/src/misc\lv_color.h **** # define LV_COLOR_SET_G32(c, v) (c).ch.green = (uint8_t)((v) & 0xFF)
 162:D:/update_2024EL/changeform/743zit6/lvgl/src/misc\lv_color.h **** # define LV_COLOR_SET_B32(c, v) (c).ch.blue = (uint8_t)((v) & 0xFF)
 163:D:/update_2024EL/changeform/743zit6/lvgl/src/misc\lv_color.h **** # define LV_COLOR_SET_A32(c, v) (c).ch.alpha = (uint8_t)((v) & 0xFF)
 164:D:/update_2024EL/changeform/743zit6/lvgl/src/misc\lv_color.h **** 
 165:D:/update_2024EL/changeform/743zit6/lvgl/src/misc\lv_color.h **** # define LV_COLOR_GET_R32(c) (c).ch.red
 166:D:/update_2024EL/changeform/743zit6/lvgl/src/misc\lv_color.h **** # define LV_COLOR_GET_G32(c) (c).ch.green
 167:D:/update_2024EL/changeform/743zit6/lvgl/src/misc\lv_color.h **** # define LV_COLOR_GET_B32(c) (c).ch.blue
 168:D:/update_2024EL/changeform/743zit6/lvgl/src/misc\lv_color.h **** # define LV_COLOR_GET_A32(c) (c).ch.alpha
 169:D:/update_2024EL/changeform/743zit6/lvgl/src/misc\lv_color.h **** 
 170:D:/update_2024EL/changeform/743zit6/lvgl/src/misc\lv_color.h **** # define _LV_COLOR_ZERO_INITIALIZER32  {{0x00, 0x00, 0x00, 0x00}}
 171:D:/update_2024EL/changeform/743zit6/lvgl/src/misc\lv_color.h **** # define LV_COLOR_MAKE32(r8, g8, b8) {{b8, g8, r8, 0xff}} /*Fix 0xff alpha*/
 172:D:/update_2024EL/changeform/743zit6/lvgl/src/misc\lv_color.h **** 
 173:D:/update_2024EL/changeform/743zit6/lvgl/src/misc\lv_color.h **** /*---------------------------------------
 174:D:/update_2024EL/changeform/743zit6/lvgl/src/misc\lv_color.h ****  * Macros for the current color depth
 175:D:/update_2024EL/changeform/743zit6/lvgl/src/misc\lv_color.h ****  * to set/get values of the color channels
 176:D:/update_2024EL/changeform/743zit6/lvgl/src/misc\lv_color.h ****  *------------------------------------------*/
 177:D:/update_2024EL/changeform/743zit6/lvgl/src/misc\lv_color.h **** #define LV_COLOR_SET_R(c, v) LV_CONCAT(LV_COLOR_SET_R, LV_COLOR_DEPTH)(c, v)
 178:D:/update_2024EL/changeform/743zit6/lvgl/src/misc\lv_color.h **** #define LV_COLOR_SET_G(c, v) LV_CONCAT(LV_COLOR_SET_G, LV_COLOR_DEPTH)(c, v)
 179:D:/update_2024EL/changeform/743zit6/lvgl/src/misc\lv_color.h **** #define LV_COLOR_SET_B(c, v) LV_CONCAT(LV_COLOR_SET_B, LV_COLOR_DEPTH)(c, v)
 180:D:/update_2024EL/changeform/743zit6/lvgl/src/misc\lv_color.h **** #define LV_COLOR_SET_A(c, v) LV_CONCAT(LV_COLOR_SET_A, LV_COLOR_DEPTH)(c, v)
 181:D:/update_2024EL/changeform/743zit6/lvgl/src/misc\lv_color.h **** 
 182:D:/update_2024EL/changeform/743zit6/lvgl/src/misc\lv_color.h **** #define LV_COLOR_GET_R(c) LV_CONCAT(LV_COLOR_GET_R, LV_COLOR_DEPTH)(c)
 183:D:/update_2024EL/changeform/743zit6/lvgl/src/misc\lv_color.h **** #define LV_COLOR_GET_G(c) LV_CONCAT(LV_COLOR_GET_G, LV_COLOR_DEPTH)(c)
 184:D:/update_2024EL/changeform/743zit6/lvgl/src/misc\lv_color.h **** #define LV_COLOR_GET_B(c) LV_CONCAT(LV_COLOR_GET_B, LV_COLOR_DEPTH)(c)
 185:D:/update_2024EL/changeform/743zit6/lvgl/src/misc\lv_color.h **** #define LV_COLOR_GET_A(c) LV_CONCAT(LV_COLOR_GET_A, LV_COLOR_DEPTH)(c)
 186:D:/update_2024EL/changeform/743zit6/lvgl/src/misc\lv_color.h **** 
 187:D:/update_2024EL/changeform/743zit6/lvgl/src/misc\lv_color.h **** #define _LV_COLOR_ZERO_INITIALIZER LV_CONCAT(_LV_COLOR_ZERO_INITIALIZER, LV_COLOR_DEPTH)
 188:D:/update_2024EL/changeform/743zit6/lvgl/src/misc\lv_color.h **** #define LV_COLOR_MAKE(r8, g8, b8) LV_CONCAT(LV_COLOR_MAKE, LV_COLOR_DEPTH)(r8, g8, b8)
 189:D:/update_2024EL/changeform/743zit6/lvgl/src/misc\lv_color.h **** 
 190:D:/update_2024EL/changeform/743zit6/lvgl/src/misc\lv_color.h **** /**********************
 191:D:/update_2024EL/changeform/743zit6/lvgl/src/misc\lv_color.h ****  *      TYPEDEFS
 192:D:/update_2024EL/changeform/743zit6/lvgl/src/misc\lv_color.h ****  **********************/
 193:D:/update_2024EL/changeform/743zit6/lvgl/src/misc\lv_color.h **** 
 194:D:/update_2024EL/changeform/743zit6/lvgl/src/misc\lv_color.h **** typedef union {
 195:D:/update_2024EL/changeform/743zit6/lvgl/src/misc\lv_color.h ****     uint8_t full; /*must be declared first to set all bits of byte via initializer list*/
 196:D:/update_2024EL/changeform/743zit6/lvgl/src/misc\lv_color.h ****     union {
 197:D:/update_2024EL/changeform/743zit6/lvgl/src/misc\lv_color.h ****         uint8_t blue : 1;
 198:D:/update_2024EL/changeform/743zit6/lvgl/src/misc\lv_color.h ****         uint8_t green : 1;
 199:D:/update_2024EL/changeform/743zit6/lvgl/src/misc\lv_color.h ****         uint8_t red : 1;
 200:D:/update_2024EL/changeform/743zit6/lvgl/src/misc\lv_color.h ****     } ch;
 201:D:/update_2024EL/changeform/743zit6/lvgl/src/misc\lv_color.h **** } lv_color1_t;
ARM GAS  C:\usertemp\ccXAVGrP.s 			page 5


 202:D:/update_2024EL/changeform/743zit6/lvgl/src/misc\lv_color.h **** 
 203:D:/update_2024EL/changeform/743zit6/lvgl/src/misc\lv_color.h **** typedef union {
 204:D:/update_2024EL/changeform/743zit6/lvgl/src/misc\lv_color.h ****     struct {
 205:D:/update_2024EL/changeform/743zit6/lvgl/src/misc\lv_color.h ****         uint8_t blue : 2;
 206:D:/update_2024EL/changeform/743zit6/lvgl/src/misc\lv_color.h ****         uint8_t green : 3;
 207:D:/update_2024EL/changeform/743zit6/lvgl/src/misc\lv_color.h ****         uint8_t red : 3;
 208:D:/update_2024EL/changeform/743zit6/lvgl/src/misc\lv_color.h ****     } ch;
 209:D:/update_2024EL/changeform/743zit6/lvgl/src/misc\lv_color.h ****     uint8_t full;
 210:D:/update_2024EL/changeform/743zit6/lvgl/src/misc\lv_color.h **** } lv_color8_t;
 211:D:/update_2024EL/changeform/743zit6/lvgl/src/misc\lv_color.h **** 
 212:D:/update_2024EL/changeform/743zit6/lvgl/src/misc\lv_color.h **** typedef union {
 213:D:/update_2024EL/changeform/743zit6/lvgl/src/misc\lv_color.h ****     struct {
 214:D:/update_2024EL/changeform/743zit6/lvgl/src/misc\lv_color.h **** #if LV_COLOR_16_SWAP == 0
 215:D:/update_2024EL/changeform/743zit6/lvgl/src/misc\lv_color.h ****         uint16_t blue : 5;
 216:D:/update_2024EL/changeform/743zit6/lvgl/src/misc\lv_color.h ****         uint16_t green : 6;
 217:D:/update_2024EL/changeform/743zit6/lvgl/src/misc\lv_color.h ****         uint16_t red : 5;
 218:D:/update_2024EL/changeform/743zit6/lvgl/src/misc\lv_color.h **** #else
 219:D:/update_2024EL/changeform/743zit6/lvgl/src/misc\lv_color.h ****         uint16_t green_h : 3;
 220:D:/update_2024EL/changeform/743zit6/lvgl/src/misc\lv_color.h ****         uint16_t red : 5;
 221:D:/update_2024EL/changeform/743zit6/lvgl/src/misc\lv_color.h ****         uint16_t blue : 5;
 222:D:/update_2024EL/changeform/743zit6/lvgl/src/misc\lv_color.h ****         uint16_t green_l : 3;
 223:D:/update_2024EL/changeform/743zit6/lvgl/src/misc\lv_color.h **** #endif
 224:D:/update_2024EL/changeform/743zit6/lvgl/src/misc\lv_color.h ****     } ch;
 225:D:/update_2024EL/changeform/743zit6/lvgl/src/misc\lv_color.h ****     uint16_t full;
 226:D:/update_2024EL/changeform/743zit6/lvgl/src/misc\lv_color.h **** } lv_color16_t;
 227:D:/update_2024EL/changeform/743zit6/lvgl/src/misc\lv_color.h **** 
 228:D:/update_2024EL/changeform/743zit6/lvgl/src/misc\lv_color.h **** typedef union {
 229:D:/update_2024EL/changeform/743zit6/lvgl/src/misc\lv_color.h ****     struct {
 230:D:/update_2024EL/changeform/743zit6/lvgl/src/misc\lv_color.h ****         uint8_t blue;
 231:D:/update_2024EL/changeform/743zit6/lvgl/src/misc\lv_color.h ****         uint8_t green;
 232:D:/update_2024EL/changeform/743zit6/lvgl/src/misc\lv_color.h ****         uint8_t red;
 233:D:/update_2024EL/changeform/743zit6/lvgl/src/misc\lv_color.h ****         uint8_t alpha;
 234:D:/update_2024EL/changeform/743zit6/lvgl/src/misc\lv_color.h ****     } ch;
 235:D:/update_2024EL/changeform/743zit6/lvgl/src/misc\lv_color.h ****     uint32_t full;
 236:D:/update_2024EL/changeform/743zit6/lvgl/src/misc\lv_color.h **** } lv_color32_t;
 237:D:/update_2024EL/changeform/743zit6/lvgl/src/misc\lv_color.h **** 
 238:D:/update_2024EL/changeform/743zit6/lvgl/src/misc\lv_color.h **** typedef LV_CONCAT3(uint, LV_COLOR_SIZE, _t) lv_color_int_t;
 239:D:/update_2024EL/changeform/743zit6/lvgl/src/misc\lv_color.h **** typedef LV_CONCAT3(lv_color, LV_COLOR_DEPTH, _t) lv_color_t;
 240:D:/update_2024EL/changeform/743zit6/lvgl/src/misc\lv_color.h **** 
 241:D:/update_2024EL/changeform/743zit6/lvgl/src/misc\lv_color.h **** typedef struct {
 242:D:/update_2024EL/changeform/743zit6/lvgl/src/misc\lv_color.h ****     uint16_t h;
 243:D:/update_2024EL/changeform/743zit6/lvgl/src/misc\lv_color.h ****     uint8_t s;
 244:D:/update_2024EL/changeform/743zit6/lvgl/src/misc\lv_color.h ****     uint8_t v;
 245:D:/update_2024EL/changeform/743zit6/lvgl/src/misc\lv_color.h **** } lv_color_hsv_t;
 246:D:/update_2024EL/changeform/743zit6/lvgl/src/misc\lv_color.h **** 
 247:D:/update_2024EL/changeform/743zit6/lvgl/src/misc\lv_color.h **** //! @cond Doxygen_Suppress
 248:D:/update_2024EL/changeform/743zit6/lvgl/src/misc\lv_color.h **** /*No idea where the guard is required but else throws warnings in the docs*/
 249:D:/update_2024EL/changeform/743zit6/lvgl/src/misc\lv_color.h **** typedef uint8_t lv_opa_t;
 250:D:/update_2024EL/changeform/743zit6/lvgl/src/misc\lv_color.h **** //! @endcond
 251:D:/update_2024EL/changeform/743zit6/lvgl/src/misc\lv_color.h **** 
 252:D:/update_2024EL/changeform/743zit6/lvgl/src/misc\lv_color.h **** struct _lv_color_filter_dsc_t;
 253:D:/update_2024EL/changeform/743zit6/lvgl/src/misc\lv_color.h **** 
 254:D:/update_2024EL/changeform/743zit6/lvgl/src/misc\lv_color.h **** typedef lv_color_t (*lv_color_filter_cb_t)(const struct _lv_color_filter_dsc_t *, lv_color_t, lv_op
 255:D:/update_2024EL/changeform/743zit6/lvgl/src/misc\lv_color.h **** 
 256:D:/update_2024EL/changeform/743zit6/lvgl/src/misc\lv_color.h **** typedef struct _lv_color_filter_dsc_t {
 257:D:/update_2024EL/changeform/743zit6/lvgl/src/misc\lv_color.h ****     lv_color_filter_cb_t filter_cb;
 258:D:/update_2024EL/changeform/743zit6/lvgl/src/misc\lv_color.h ****     void * user_data;
ARM GAS  C:\usertemp\ccXAVGrP.s 			page 6


 259:D:/update_2024EL/changeform/743zit6/lvgl/src/misc\lv_color.h **** } lv_color_filter_dsc_t;
 260:D:/update_2024EL/changeform/743zit6/lvgl/src/misc\lv_color.h **** 
 261:D:/update_2024EL/changeform/743zit6/lvgl/src/misc\lv_color.h **** 
 262:D:/update_2024EL/changeform/743zit6/lvgl/src/misc\lv_color.h **** typedef enum {
 263:D:/update_2024EL/changeform/743zit6/lvgl/src/misc\lv_color.h ****     LV_PALETTE_RED,
 264:D:/update_2024EL/changeform/743zit6/lvgl/src/misc\lv_color.h ****     LV_PALETTE_PINK,
 265:D:/update_2024EL/changeform/743zit6/lvgl/src/misc\lv_color.h ****     LV_PALETTE_PURPLE,
 266:D:/update_2024EL/changeform/743zit6/lvgl/src/misc\lv_color.h ****     LV_PALETTE_DEEP_PURPLE,
 267:D:/update_2024EL/changeform/743zit6/lvgl/src/misc\lv_color.h ****     LV_PALETTE_INDIGO,
 268:D:/update_2024EL/changeform/743zit6/lvgl/src/misc\lv_color.h ****     LV_PALETTE_BLUE,
 269:D:/update_2024EL/changeform/743zit6/lvgl/src/misc\lv_color.h ****     LV_PALETTE_LIGHT_BLUE,
 270:D:/update_2024EL/changeform/743zit6/lvgl/src/misc\lv_color.h ****     LV_PALETTE_CYAN,
 271:D:/update_2024EL/changeform/743zit6/lvgl/src/misc\lv_color.h ****     LV_PALETTE_TEAL,
 272:D:/update_2024EL/changeform/743zit6/lvgl/src/misc\lv_color.h ****     LV_PALETTE_GREEN,
 273:D:/update_2024EL/changeform/743zit6/lvgl/src/misc\lv_color.h ****     LV_PALETTE_LIGHT_GREEN,
 274:D:/update_2024EL/changeform/743zit6/lvgl/src/misc\lv_color.h ****     LV_PALETTE_LIME,
 275:D:/update_2024EL/changeform/743zit6/lvgl/src/misc\lv_color.h ****     LV_PALETTE_YELLOW,
 276:D:/update_2024EL/changeform/743zit6/lvgl/src/misc\lv_color.h ****     LV_PALETTE_AMBER,
 277:D:/update_2024EL/changeform/743zit6/lvgl/src/misc\lv_color.h ****     LV_PALETTE_ORANGE,
 278:D:/update_2024EL/changeform/743zit6/lvgl/src/misc\lv_color.h ****     LV_PALETTE_DEEP_ORANGE,
 279:D:/update_2024EL/changeform/743zit6/lvgl/src/misc\lv_color.h ****     LV_PALETTE_BROWN,
 280:D:/update_2024EL/changeform/743zit6/lvgl/src/misc\lv_color.h ****     LV_PALETTE_BLUE_GREY,
 281:D:/update_2024EL/changeform/743zit6/lvgl/src/misc\lv_color.h ****     LV_PALETTE_GREY,
 282:D:/update_2024EL/changeform/743zit6/lvgl/src/misc\lv_color.h ****     _LV_PALETTE_LAST,
 283:D:/update_2024EL/changeform/743zit6/lvgl/src/misc\lv_color.h ****     LV_PALETTE_NONE = 0xff,
 284:D:/update_2024EL/changeform/743zit6/lvgl/src/misc\lv_color.h **** } lv_palette_t;
 285:D:/update_2024EL/changeform/743zit6/lvgl/src/misc\lv_color.h **** 
 286:D:/update_2024EL/changeform/743zit6/lvgl/src/misc\lv_color.h **** /**********************
 287:D:/update_2024EL/changeform/743zit6/lvgl/src/misc\lv_color.h ****  * GLOBAL PROTOTYPES
 288:D:/update_2024EL/changeform/743zit6/lvgl/src/misc\lv_color.h ****  **********************/
 289:D:/update_2024EL/changeform/743zit6/lvgl/src/misc\lv_color.h **** 
 290:D:/update_2024EL/changeform/743zit6/lvgl/src/misc\lv_color.h **** /*In color conversations:
 291:D:/update_2024EL/changeform/743zit6/lvgl/src/misc\lv_color.h ****  * - When converting to bigger color type the LSB weight of 1 LSB is calculated
 292:D:/update_2024EL/changeform/743zit6/lvgl/src/misc\lv_color.h ****  *   E.g. 16 bit Red has 5 bits
 293:D:/update_2024EL/changeform/743zit6/lvgl/src/misc\lv_color.h ****  *         8 bit Red has 3 bits
 294:D:/update_2024EL/changeform/743zit6/lvgl/src/misc\lv_color.h ****  *        ----------------------
 295:D:/update_2024EL/changeform/743zit6/lvgl/src/misc\lv_color.h ****  *        8 bit red LSB = (2^5 - 1) / (2^3 - 1) = 31 / 7 = 4
 296:D:/update_2024EL/changeform/743zit6/lvgl/src/misc\lv_color.h ****  *
 297:D:/update_2024EL/changeform/743zit6/lvgl/src/misc\lv_color.h ****  * - When calculating to smaller color type simply shift out the LSBs
 298:D:/update_2024EL/changeform/743zit6/lvgl/src/misc\lv_color.h ****  *   E.g.  8 bit Red has 3 bits
 299:D:/update_2024EL/changeform/743zit6/lvgl/src/misc\lv_color.h ****  *        16 bit Red has 5 bits
 300:D:/update_2024EL/changeform/743zit6/lvgl/src/misc\lv_color.h ****  *        ----------------------
 301:D:/update_2024EL/changeform/743zit6/lvgl/src/misc\lv_color.h ****  *         Shift right with 5 - 3 = 2
 302:D:/update_2024EL/changeform/743zit6/lvgl/src/misc\lv_color.h ****  */
 303:D:/update_2024EL/changeform/743zit6/lvgl/src/misc\lv_color.h **** static inline uint8_t lv_color_to1(lv_color_t color)
 304:D:/update_2024EL/changeform/743zit6/lvgl/src/misc\lv_color.h **** {
 305:D:/update_2024EL/changeform/743zit6/lvgl/src/misc\lv_color.h **** #if LV_COLOR_DEPTH == 1
 306:D:/update_2024EL/changeform/743zit6/lvgl/src/misc\lv_color.h ****     return color.full;
 307:D:/update_2024EL/changeform/743zit6/lvgl/src/misc\lv_color.h **** #elif LV_COLOR_DEPTH == 8
 308:D:/update_2024EL/changeform/743zit6/lvgl/src/misc\lv_color.h ****     if((LV_COLOR_GET_R(color) & 0x4) || (LV_COLOR_GET_G(color) & 0x4) || (LV_COLOR_GET_B(color) & 0
 309:D:/update_2024EL/changeform/743zit6/lvgl/src/misc\lv_color.h ****         return 1;
 310:D:/update_2024EL/changeform/743zit6/lvgl/src/misc\lv_color.h ****     }
 311:D:/update_2024EL/changeform/743zit6/lvgl/src/misc\lv_color.h ****     else {
 312:D:/update_2024EL/changeform/743zit6/lvgl/src/misc\lv_color.h ****         return 0;
 313:D:/update_2024EL/changeform/743zit6/lvgl/src/misc\lv_color.h ****     }
 314:D:/update_2024EL/changeform/743zit6/lvgl/src/misc\lv_color.h **** #elif LV_COLOR_DEPTH == 16
 315:D:/update_2024EL/changeform/743zit6/lvgl/src/misc\lv_color.h ****     if((LV_COLOR_GET_R(color) & 0x10) || (LV_COLOR_GET_G(color) & 0x20) || (LV_COLOR_GET_B(color) &
ARM GAS  C:\usertemp\ccXAVGrP.s 			page 7


 316:D:/update_2024EL/changeform/743zit6/lvgl/src/misc\lv_color.h ****         return 1;
 317:D:/update_2024EL/changeform/743zit6/lvgl/src/misc\lv_color.h ****     }
 318:D:/update_2024EL/changeform/743zit6/lvgl/src/misc\lv_color.h ****     else {
 319:D:/update_2024EL/changeform/743zit6/lvgl/src/misc\lv_color.h ****         return 0;
 320:D:/update_2024EL/changeform/743zit6/lvgl/src/misc\lv_color.h ****     }
 321:D:/update_2024EL/changeform/743zit6/lvgl/src/misc\lv_color.h **** #elif LV_COLOR_DEPTH == 32
 322:D:/update_2024EL/changeform/743zit6/lvgl/src/misc\lv_color.h ****     if((LV_COLOR_GET_R(color) & 0x80) || (LV_COLOR_GET_G(color) & 0x80) || (LV_COLOR_GET_B(color) &
 323:D:/update_2024EL/changeform/743zit6/lvgl/src/misc\lv_color.h ****         return 1;
 324:D:/update_2024EL/changeform/743zit6/lvgl/src/misc\lv_color.h ****     }
 325:D:/update_2024EL/changeform/743zit6/lvgl/src/misc\lv_color.h ****     else {
 326:D:/update_2024EL/changeform/743zit6/lvgl/src/misc\lv_color.h ****         return 0;
 327:D:/update_2024EL/changeform/743zit6/lvgl/src/misc\lv_color.h ****     }
 328:D:/update_2024EL/changeform/743zit6/lvgl/src/misc\lv_color.h **** #endif
 329:D:/update_2024EL/changeform/743zit6/lvgl/src/misc\lv_color.h **** }
 330:D:/update_2024EL/changeform/743zit6/lvgl/src/misc\lv_color.h **** 
 331:D:/update_2024EL/changeform/743zit6/lvgl/src/misc\lv_color.h **** static inline uint8_t lv_color_to8(lv_color_t color)
 332:D:/update_2024EL/changeform/743zit6/lvgl/src/misc\lv_color.h **** {
 333:D:/update_2024EL/changeform/743zit6/lvgl/src/misc\lv_color.h **** #if LV_COLOR_DEPTH == 1
 334:D:/update_2024EL/changeform/743zit6/lvgl/src/misc\lv_color.h ****     if(color.full == 0)
 335:D:/update_2024EL/changeform/743zit6/lvgl/src/misc\lv_color.h ****         return 0;
 336:D:/update_2024EL/changeform/743zit6/lvgl/src/misc\lv_color.h ****     else
 337:D:/update_2024EL/changeform/743zit6/lvgl/src/misc\lv_color.h ****         return 0xFF;
 338:D:/update_2024EL/changeform/743zit6/lvgl/src/misc\lv_color.h **** #elif LV_COLOR_DEPTH == 8
 339:D:/update_2024EL/changeform/743zit6/lvgl/src/misc\lv_color.h ****     return color.full;
 340:D:/update_2024EL/changeform/743zit6/lvgl/src/misc\lv_color.h **** #elif LV_COLOR_DEPTH == 16
 341:D:/update_2024EL/changeform/743zit6/lvgl/src/misc\lv_color.h ****     lv_color8_t ret;
 342:D:/update_2024EL/changeform/743zit6/lvgl/src/misc\lv_color.h ****     LV_COLOR_SET_R8(ret, LV_COLOR_GET_R(color) >> 2); /*5 - 3  = 2*/
 343:D:/update_2024EL/changeform/743zit6/lvgl/src/misc\lv_color.h ****     LV_COLOR_SET_G8(ret, LV_COLOR_GET_G(color) >> 3); /*6 - 3  = 3*/
 344:D:/update_2024EL/changeform/743zit6/lvgl/src/misc\lv_color.h ****     LV_COLOR_SET_B8(ret, LV_COLOR_GET_B(color) >> 3); /*5 - 2  = 3*/
 345:D:/update_2024EL/changeform/743zit6/lvgl/src/misc\lv_color.h ****     return ret.full;
 346:D:/update_2024EL/changeform/743zit6/lvgl/src/misc\lv_color.h **** #elif LV_COLOR_DEPTH == 32
 347:D:/update_2024EL/changeform/743zit6/lvgl/src/misc\lv_color.h ****     lv_color8_t ret;
 348:D:/update_2024EL/changeform/743zit6/lvgl/src/misc\lv_color.h ****     LV_COLOR_SET_R8(ret, LV_COLOR_GET_R(color) >> 5); /*8 - 3  = 5*/
 349:D:/update_2024EL/changeform/743zit6/lvgl/src/misc\lv_color.h ****     LV_COLOR_SET_G8(ret, LV_COLOR_GET_G(color) >> 5); /*8 - 3  = 5*/
 350:D:/update_2024EL/changeform/743zit6/lvgl/src/misc\lv_color.h ****     LV_COLOR_SET_B8(ret, LV_COLOR_GET_B(color) >> 6); /*8 - 2  = 6*/
 351:D:/update_2024EL/changeform/743zit6/lvgl/src/misc\lv_color.h ****     return ret.full;
 352:D:/update_2024EL/changeform/743zit6/lvgl/src/misc\lv_color.h **** #endif
 353:D:/update_2024EL/changeform/743zit6/lvgl/src/misc\lv_color.h **** }
 354:D:/update_2024EL/changeform/743zit6/lvgl/src/misc\lv_color.h **** 
 355:D:/update_2024EL/changeform/743zit6/lvgl/src/misc\lv_color.h **** static inline uint16_t lv_color_to16(lv_color_t color)
 356:D:/update_2024EL/changeform/743zit6/lvgl/src/misc\lv_color.h **** {
 357:D:/update_2024EL/changeform/743zit6/lvgl/src/misc\lv_color.h **** #if LV_COLOR_DEPTH == 1
 358:D:/update_2024EL/changeform/743zit6/lvgl/src/misc\lv_color.h ****     if(color.full == 0)
 359:D:/update_2024EL/changeform/743zit6/lvgl/src/misc\lv_color.h ****         return 0;
 360:D:/update_2024EL/changeform/743zit6/lvgl/src/misc\lv_color.h ****     else
 361:D:/update_2024EL/changeform/743zit6/lvgl/src/misc\lv_color.h ****         return 0xFFFF;
 362:D:/update_2024EL/changeform/743zit6/lvgl/src/misc\lv_color.h **** #elif LV_COLOR_DEPTH == 8
 363:D:/update_2024EL/changeform/743zit6/lvgl/src/misc\lv_color.h ****     lv_color16_t ret;
 364:D:/update_2024EL/changeform/743zit6/lvgl/src/misc\lv_color.h ****     LV_COLOR_SET_R16(ret, LV_COLOR_GET_R(color) * 4);  /*(2^5 - 1)/(2^3 - 1) = 31/7 = 4*/
 365:D:/update_2024EL/changeform/743zit6/lvgl/src/misc\lv_color.h ****     LV_COLOR_SET_G16(ret, LV_COLOR_GET_G(color) * 9);  /*(2^6 - 1)/(2^3 - 1) = 63/7 = 9*/
 366:D:/update_2024EL/changeform/743zit6/lvgl/src/misc\lv_color.h ****     LV_COLOR_SET_B16(ret, LV_COLOR_GET_B(color) * 10); /*(2^5 - 1)/(2^2 - 1) = 31/3 = 10*/
 367:D:/update_2024EL/changeform/743zit6/lvgl/src/misc\lv_color.h ****     return ret.full;
 368:D:/update_2024EL/changeform/743zit6/lvgl/src/misc\lv_color.h **** #elif LV_COLOR_DEPTH == 16
 369:D:/update_2024EL/changeform/743zit6/lvgl/src/misc\lv_color.h ****     return color.full;
 370:D:/update_2024EL/changeform/743zit6/lvgl/src/misc\lv_color.h **** #elif LV_COLOR_DEPTH == 32
 371:D:/update_2024EL/changeform/743zit6/lvgl/src/misc\lv_color.h ****     lv_color16_t ret;
 372:D:/update_2024EL/changeform/743zit6/lvgl/src/misc\lv_color.h ****     LV_COLOR_SET_R16(ret, LV_COLOR_GET_R(color) >> 3); /*8 - 5  = 3*/
ARM GAS  C:\usertemp\ccXAVGrP.s 			page 8


 373:D:/update_2024EL/changeform/743zit6/lvgl/src/misc\lv_color.h ****     LV_COLOR_SET_G16(ret, LV_COLOR_GET_G(color) >> 2); /*8 - 6  = 2*/
 374:D:/update_2024EL/changeform/743zit6/lvgl/src/misc\lv_color.h ****     LV_COLOR_SET_B16(ret, LV_COLOR_GET_B(color) >> 3); /*8 - 5  = 3*/
 375:D:/update_2024EL/changeform/743zit6/lvgl/src/misc\lv_color.h ****     return ret.full;
 376:D:/update_2024EL/changeform/743zit6/lvgl/src/misc\lv_color.h **** #endif
 377:D:/update_2024EL/changeform/743zit6/lvgl/src/misc\lv_color.h **** }
 378:D:/update_2024EL/changeform/743zit6/lvgl/src/misc\lv_color.h **** 
 379:D:/update_2024EL/changeform/743zit6/lvgl/src/misc\lv_color.h **** static inline uint32_t lv_color_to32(lv_color_t color)
 380:D:/update_2024EL/changeform/743zit6/lvgl/src/misc\lv_color.h **** {
 381:D:/update_2024EL/changeform/743zit6/lvgl/src/misc\lv_color.h **** #if LV_COLOR_DEPTH == 1
 382:D:/update_2024EL/changeform/743zit6/lvgl/src/misc\lv_color.h ****     if(color.full == 0)
 383:D:/update_2024EL/changeform/743zit6/lvgl/src/misc\lv_color.h ****         return 0xFF000000;
 384:D:/update_2024EL/changeform/743zit6/lvgl/src/misc\lv_color.h ****     else
 385:D:/update_2024EL/changeform/743zit6/lvgl/src/misc\lv_color.h ****         return 0xFFFFFFFF;
 386:D:/update_2024EL/changeform/743zit6/lvgl/src/misc\lv_color.h **** #elif LV_COLOR_DEPTH == 8
 387:D:/update_2024EL/changeform/743zit6/lvgl/src/misc\lv_color.h ****     lv_color32_t ret;
 388:D:/update_2024EL/changeform/743zit6/lvgl/src/misc\lv_color.h ****     LV_COLOR_SET_R32(ret, LV_COLOR_GET_R(color) * 36); /*(2^8 - 1)/(2^3 - 1) = 255/7 = 36*/
 389:D:/update_2024EL/changeform/743zit6/lvgl/src/misc\lv_color.h ****     LV_COLOR_SET_G32(ret, LV_COLOR_GET_G(color) * 36); /*(2^8 - 1)/(2^3 - 1) = 255/7 = 36*/
 390:D:/update_2024EL/changeform/743zit6/lvgl/src/misc\lv_color.h ****     LV_COLOR_SET_B32(ret, LV_COLOR_GET_B(color) * 85); /*(2^8 - 1)/(2^2 - 1) = 255/3 = 85*/
 391:D:/update_2024EL/changeform/743zit6/lvgl/src/misc\lv_color.h ****     LV_COLOR_SET_A32(ret, 0xFF);
 392:D:/update_2024EL/changeform/743zit6/lvgl/src/misc\lv_color.h ****     return ret.full;
 393:D:/update_2024EL/changeform/743zit6/lvgl/src/misc\lv_color.h **** #elif LV_COLOR_DEPTH == 16
 394:D:/update_2024EL/changeform/743zit6/lvgl/src/misc\lv_color.h ****     /**
 395:D:/update_2024EL/changeform/743zit6/lvgl/src/misc\lv_color.h ****      * The floating point math for conversion is:
 396:D:/update_2024EL/changeform/743zit6/lvgl/src/misc\lv_color.h ****      *  valueto = valuefrom * ( (2^bitsto - 1) / (float)(2^bitsfrom - 1) )
 397:D:/update_2024EL/changeform/743zit6/lvgl/src/misc\lv_color.h ****      * The faster integer math for conversion is:
 398:D:/update_2024EL/changeform/743zit6/lvgl/src/misc\lv_color.h ****      *  valueto = ( valuefrom * multiplier + adder ) >> divisor
 399:D:/update_2024EL/changeform/743zit6/lvgl/src/misc\lv_color.h ****      *   multiplier = FLOOR( ( (2^bitsto - 1) << divisor ) / (float)(2^bitsfrom - 1) )
 400:D:/update_2024EL/changeform/743zit6/lvgl/src/misc\lv_color.h ****      *
 401:D:/update_2024EL/changeform/743zit6/lvgl/src/misc\lv_color.h ****      * Find the first divisor where ( adder >> divisor ) <= 0
 402:D:/update_2024EL/changeform/743zit6/lvgl/src/misc\lv_color.h ****      *
 403:D:/update_2024EL/changeform/743zit6/lvgl/src/misc\lv_color.h ****      * 5-bit to 8-bit: ( 31 * multiplier + adder ) >> divisor = 255
 404:D:/update_2024EL/changeform/743zit6/lvgl/src/misc\lv_color.h ****      * divisor  multiplier  adder  min (0)  max (31)
 405:D:/update_2024EL/changeform/743zit6/lvgl/src/misc\lv_color.h ****      *       0           8      7        7       255
 406:D:/update_2024EL/changeform/743zit6/lvgl/src/misc\lv_color.h ****      *       1          16     14        7       255
 407:D:/update_2024EL/changeform/743zit6/lvgl/src/misc\lv_color.h ****      *       2          32     28        7       255
 408:D:/update_2024EL/changeform/743zit6/lvgl/src/misc\lv_color.h ****      *       3          65     25        3       255
 409:D:/update_2024EL/changeform/743zit6/lvgl/src/misc\lv_color.h ****      *       4         131     19        1       255
 410:D:/update_2024EL/changeform/743zit6/lvgl/src/misc\lv_color.h ****      *       5         263      7        0       255
 411:D:/update_2024EL/changeform/743zit6/lvgl/src/misc\lv_color.h ****      *
 412:D:/update_2024EL/changeform/743zit6/lvgl/src/misc\lv_color.h ****      * 6-bit to 8-bit: 255 = ( 63 * multiplier + adder ) >> divisor
 413:D:/update_2024EL/changeform/743zit6/lvgl/src/misc\lv_color.h ****      * divisor  multiplier  adder  min (0)  max (63)
 414:D:/update_2024EL/changeform/743zit6/lvgl/src/misc\lv_color.h ****      *       0           4      3        3       255
 415:D:/update_2024EL/changeform/743zit6/lvgl/src/misc\lv_color.h ****      *       1           8      6        3       255
 416:D:/update_2024EL/changeform/743zit6/lvgl/src/misc\lv_color.h ****      *       2          16     12        3       255
 417:D:/update_2024EL/changeform/743zit6/lvgl/src/misc\lv_color.h ****      *       3          32     24        3       255
 418:D:/update_2024EL/changeform/743zit6/lvgl/src/misc\lv_color.h ****      *       4          64     48        3       255
 419:D:/update_2024EL/changeform/743zit6/lvgl/src/misc\lv_color.h ****      *       5         129     33        1       255
 420:D:/update_2024EL/changeform/743zit6/lvgl/src/misc\lv_color.h ****      *       6         259      3        0       255
 421:D:/update_2024EL/changeform/743zit6/lvgl/src/misc\lv_color.h ****      */
 422:D:/update_2024EL/changeform/743zit6/lvgl/src/misc\lv_color.h **** 
 423:D:/update_2024EL/changeform/743zit6/lvgl/src/misc\lv_color.h ****     lv_color32_t ret;
 424:D:/update_2024EL/changeform/743zit6/lvgl/src/misc\lv_color.h ****     LV_COLOR_SET_R32(ret, (LV_COLOR_GET_R(color) * 263 + 7) >> 5);
 425:D:/update_2024EL/changeform/743zit6/lvgl/src/misc\lv_color.h ****     LV_COLOR_SET_G32(ret, (LV_COLOR_GET_G(color) * 259 + 3) >> 6);
 426:D:/update_2024EL/changeform/743zit6/lvgl/src/misc\lv_color.h ****     LV_COLOR_SET_B32(ret, (LV_COLOR_GET_B(color) * 263 + 7) >> 5);
 427:D:/update_2024EL/changeform/743zit6/lvgl/src/misc\lv_color.h ****     LV_COLOR_SET_A32(ret, 0xFF);
 428:D:/update_2024EL/changeform/743zit6/lvgl/src/misc\lv_color.h ****     return ret.full;
 429:D:/update_2024EL/changeform/743zit6/lvgl/src/misc\lv_color.h **** #elif LV_COLOR_DEPTH == 32
ARM GAS  C:\usertemp\ccXAVGrP.s 			page 9


 430:D:/update_2024EL/changeform/743zit6/lvgl/src/misc\lv_color.h ****     return color.full;
 431:D:/update_2024EL/changeform/743zit6/lvgl/src/misc\lv_color.h **** #endif
 432:D:/update_2024EL/changeform/743zit6/lvgl/src/misc\lv_color.h **** }
 433:D:/update_2024EL/changeform/743zit6/lvgl/src/misc\lv_color.h **** 
 434:D:/update_2024EL/changeform/743zit6/lvgl/src/misc\lv_color.h **** //! @cond Doxygen_Suppress
 435:D:/update_2024EL/changeform/743zit6/lvgl/src/misc\lv_color.h **** 
 436:D:/update_2024EL/changeform/743zit6/lvgl/src/misc\lv_color.h **** /**
 437:D:/update_2024EL/changeform/743zit6/lvgl/src/misc\lv_color.h ****  * Mix two colors with a given ratio.
 438:D:/update_2024EL/changeform/743zit6/lvgl/src/misc\lv_color.h ****  * @param c1 the first color to mix (usually the foreground)
 439:D:/update_2024EL/changeform/743zit6/lvgl/src/misc\lv_color.h ****  * @param c2 the second color to mix (usually the background)
 440:D:/update_2024EL/changeform/743zit6/lvgl/src/misc\lv_color.h ****  * @param mix The ratio of the colors. 0: full `c2`, 255: full `c1`, 127: half `c1` and half`c2`
 441:D:/update_2024EL/changeform/743zit6/lvgl/src/misc\lv_color.h ****  * @return the mixed color
 442:D:/update_2024EL/changeform/743zit6/lvgl/src/misc\lv_color.h ****  */
 443:D:/update_2024EL/changeform/743zit6/lvgl/src/misc\lv_color.h **** LV_ATTRIBUTE_FAST_MEM static inline lv_color_t lv_color_mix(lv_color_t c1, lv_color_t c2, uint8_t m
 444:D:/update_2024EL/changeform/743zit6/lvgl/src/misc\lv_color.h **** {
  29              		.loc 2 444 1 view -0
  30              		.cfi_startproc
  31              		@ args = 0, pretend = 0, frame = 0
  32              		@ frame_needed = 0, uses_anonymous_args = 0
  33              		@ link register save eliminated.
 445:D:/update_2024EL/changeform/743zit6/lvgl/src/misc\lv_color.h ****     lv_color_t ret;
  34              		.loc 2 445 5 view .LVU1
 446:D:/update_2024EL/changeform/743zit6/lvgl/src/misc\lv_color.h **** 
 447:D:/update_2024EL/changeform/743zit6/lvgl/src/misc\lv_color.h **** #if LV_COLOR_DEPTH == 16 && LV_COLOR_16_SWAP == 0
 448:D:/update_2024EL/changeform/743zit6/lvgl/src/misc\lv_color.h ****     /*Source: https://stackoverflow.com/a/50012418/1999969*/
 449:D:/update_2024EL/changeform/743zit6/lvgl/src/misc\lv_color.h ****     mix = (mix + 4) >> 3;
  35              		.loc 2 449 5 view .LVU2
  36              		.loc 2 449 16 is_stmt 0 view .LVU3
  37 0000 0432     		adds	r2, r2, #4
  38              	.LVL1:
 450:D:/update_2024EL/changeform/743zit6/lvgl/src/misc\lv_color.h ****     uint32_t bg = (uint32_t)((uint32_t)c2.full | ((uint32_t)c2.full << 16)) &
  39              		.loc 2 450 5 is_stmt 1 view .LVU4
  40              		.loc 2 450 19 is_stmt 0 view .LVU5
  41 0002 0B04     		lsls	r3, r1, #16
  42 0004 13FA81F1 		uxtah	r1, r3, r1
  43              	.LVL2:
  44              		.loc 2 450 14 view .LVU6
  45 0008 084B     		ldr	r3, .L2
  46 000a 1940     		ands	r1, r1, r3
  47              	.LVL3:
 451:D:/update_2024EL/changeform/743zit6/lvgl/src/misc\lv_color.h ****                   0x7E0F81F; /*0b00000111111000001111100000011111*/
 452:D:/update_2024EL/changeform/743zit6/lvgl/src/misc\lv_color.h ****     uint32_t fg = (uint32_t)((uint32_t)c1.full | ((uint32_t)c1.full << 16)) & 0x7E0F81F;
  48              		.loc 2 452 5 is_stmt 1 view .LVU7
  49              		.loc 2 452 19 is_stmt 0 view .LVU8
  50 000c 4FEA004C 		lsl	ip, r0, #16
  51 0010 1CFA80F0 		uxtah	r0, ip, r0
  52              	.LVL4:
  53              		.loc 2 452 14 view .LVU9
  54 0014 1840     		ands	r0, r0, r3
  55              	.LVL5:
 453:D:/update_2024EL/changeform/743zit6/lvgl/src/misc\lv_color.h ****     uint32_t result = ((((fg - bg) * mix) >> 5) + bg) & 0x7E0F81F;
  56              		.loc 2 453 5 is_stmt 1 view .LVU10
  57              		.loc 2 453 30 is_stmt 0 view .LVU11
  58 0016 401A     		subs	r0, r0, r1
  59              	.LVL6:
  60              		.loc 2 453 36 view .LVU12
  61 0018 D208     		lsrs	r2, r2, #3
ARM GAS  C:\usertemp\ccXAVGrP.s 			page 10


  62              	.LVL7:
  63              		.loc 2 453 36 view .LVU13
  64 001a 00FB02F2 		mul	r2, r0, r2
  65              		.loc 2 453 49 view .LVU14
  66 001e 01EB5211 		add	r1, r1, r2, lsr #5
  67              	.LVL8:
  68              		.loc 2 453 14 view .LVU15
  69 0022 01EA0300 		and	r0, r1, r3
  70              	.LVL9:
 454:D:/update_2024EL/changeform/743zit6/lvgl/src/misc\lv_color.h ****     ret.full = (uint16_t)((result >> 16) | result);
  71              		.loc 2 454 5 is_stmt 1 view .LVU16
 455:D:/update_2024EL/changeform/743zit6/lvgl/src/misc\lv_color.h **** #elif LV_COLOR_DEPTH != 1
 456:D:/update_2024EL/changeform/743zit6/lvgl/src/misc\lv_color.h ****     /*LV_COLOR_DEPTH == 8, 16 or 32*/
 457:D:/update_2024EL/changeform/743zit6/lvgl/src/misc\lv_color.h ****     LV_COLOR_SET_R(ret, LV_UDIV255((uint16_t)LV_COLOR_GET_R(c1) * mix + LV_COLOR_GET_R(c2) *
 458:D:/update_2024EL/changeform/743zit6/lvgl/src/misc\lv_color.h ****                                    (255 - mix) + LV_COLOR_MIX_ROUND_OFS));
 459:D:/update_2024EL/changeform/743zit6/lvgl/src/misc\lv_color.h ****     LV_COLOR_SET_G(ret, LV_UDIV255((uint16_t)LV_COLOR_GET_G(c1) * mix + LV_COLOR_GET_G(c2) *
 460:D:/update_2024EL/changeform/743zit6/lvgl/src/misc\lv_color.h ****                                    (255 - mix) + LV_COLOR_MIX_ROUND_OFS));
 461:D:/update_2024EL/changeform/743zit6/lvgl/src/misc\lv_color.h ****     LV_COLOR_SET_B(ret, LV_UDIV255((uint16_t)LV_COLOR_GET_B(c1) * mix + LV_COLOR_GET_B(c2) *
 462:D:/update_2024EL/changeform/743zit6/lvgl/src/misc\lv_color.h ****                                    (255 - mix) + LV_COLOR_MIX_ROUND_OFS));
 463:D:/update_2024EL/changeform/743zit6/lvgl/src/misc\lv_color.h ****     LV_COLOR_SET_A(ret, 0xFF);
 464:D:/update_2024EL/changeform/743zit6/lvgl/src/misc\lv_color.h **** #else
 465:D:/update_2024EL/changeform/743zit6/lvgl/src/misc\lv_color.h ****     /*LV_COLOR_DEPTH == 1*/
 466:D:/update_2024EL/changeform/743zit6/lvgl/src/misc\lv_color.h ****     ret.full = mix > LV_OPA_50 ? c1.full : c2.full;
 467:D:/update_2024EL/changeform/743zit6/lvgl/src/misc\lv_color.h **** #endif
 468:D:/update_2024EL/changeform/743zit6/lvgl/src/misc\lv_color.h **** 
 469:D:/update_2024EL/changeform/743zit6/lvgl/src/misc\lv_color.h ****     return ret;
  72              		.loc 2 469 5 view .LVU17
 470:D:/update_2024EL/changeform/743zit6/lvgl/src/misc\lv_color.h **** }
  73              		.loc 2 470 1 is_stmt 0 view .LVU18
  74 0026 40EA1040 		orr	r0, r0, r0, lsr #16
  75              	.LVL10:
  76              		.loc 2 470 1 view .LVU19
  77 002a 7047     		bx	lr
  78              	.L3:
  79              		.align	2
  80              	.L2:
  81 002c 1FF8E007 		.word	132184095
  82              		.cfi_endproc
  83              	.LFE12:
  85              		.section	.text.draw_arcs,"ax",%progbits
  86              		.align	1
  87              		.syntax unified
  88              		.thumb
  89              		.thumb_func
  91              	draw_arcs:
  92              	.LVL11:
  93              	.LFB211:
   1:lvgl/src/extra/widgets/meter/lv_meter.c **** /**
   2:lvgl/src/extra/widgets/meter/lv_meter.c ****  * @file lv_meter.c
   3:lvgl/src/extra/widgets/meter/lv_meter.c ****  *
   4:lvgl/src/extra/widgets/meter/lv_meter.c ****  */
   5:lvgl/src/extra/widgets/meter/lv_meter.c **** 
   6:lvgl/src/extra/widgets/meter/lv_meter.c **** /*********************
   7:lvgl/src/extra/widgets/meter/lv_meter.c ****  *      INCLUDES
   8:lvgl/src/extra/widgets/meter/lv_meter.c ****  *********************/
   9:lvgl/src/extra/widgets/meter/lv_meter.c **** #include "lv_meter.h"
  10:lvgl/src/extra/widgets/meter/lv_meter.c **** #if LV_USE_METER != 0
ARM GAS  C:\usertemp\ccXAVGrP.s 			page 11


  11:lvgl/src/extra/widgets/meter/lv_meter.c **** 
  12:lvgl/src/extra/widgets/meter/lv_meter.c **** #include "../../../misc/lv_assert.h"
  13:lvgl/src/extra/widgets/meter/lv_meter.c **** 
  14:lvgl/src/extra/widgets/meter/lv_meter.c **** /*********************
  15:lvgl/src/extra/widgets/meter/lv_meter.c ****  *      DEFINES
  16:lvgl/src/extra/widgets/meter/lv_meter.c ****  *********************/
  17:lvgl/src/extra/widgets/meter/lv_meter.c **** #define MY_CLASS &lv_meter_class
  18:lvgl/src/extra/widgets/meter/lv_meter.c **** 
  19:lvgl/src/extra/widgets/meter/lv_meter.c **** /**********************
  20:lvgl/src/extra/widgets/meter/lv_meter.c ****  *      TYPEDEFS
  21:lvgl/src/extra/widgets/meter/lv_meter.c ****  **********************/
  22:lvgl/src/extra/widgets/meter/lv_meter.c **** 
  23:lvgl/src/extra/widgets/meter/lv_meter.c **** /**********************
  24:lvgl/src/extra/widgets/meter/lv_meter.c ****  *  STATIC PROTOTYPES
  25:lvgl/src/extra/widgets/meter/lv_meter.c ****  **********************/
  26:lvgl/src/extra/widgets/meter/lv_meter.c **** static void lv_meter_constructor(const lv_obj_class_t * class_p, lv_obj_t * obj);
  27:lvgl/src/extra/widgets/meter/lv_meter.c **** static void lv_meter_destructor(const lv_obj_class_t * class_p, lv_obj_t * obj);
  28:lvgl/src/extra/widgets/meter/lv_meter.c **** static void lv_meter_event(const lv_obj_class_t * class_p, lv_event_t * e);
  29:lvgl/src/extra/widgets/meter/lv_meter.c **** static void draw_arcs(lv_obj_t * obj, lv_draw_ctx_t * draw_ctx, const lv_area_t * scale_area);
  30:lvgl/src/extra/widgets/meter/lv_meter.c **** static void draw_ticks_and_labels(lv_obj_t * obj, lv_draw_ctx_t * draw_ctx, const lv_area_t * scale
  31:lvgl/src/extra/widgets/meter/lv_meter.c **** static void draw_needles(lv_obj_t * obj, lv_draw_ctx_t * draw_ctx, const lv_area_t * scale_area);
  32:lvgl/src/extra/widgets/meter/lv_meter.c **** static void inv_arc(lv_obj_t * obj, lv_meter_indicator_t * indic, int32_t old_value, int32_t new_va
  33:lvgl/src/extra/widgets/meter/lv_meter.c **** static void inv_line(lv_obj_t * obj, lv_meter_indicator_t * indic, int32_t value);
  34:lvgl/src/extra/widgets/meter/lv_meter.c **** 
  35:lvgl/src/extra/widgets/meter/lv_meter.c **** /**********************
  36:lvgl/src/extra/widgets/meter/lv_meter.c ****  *  STATIC VARIABLES
  37:lvgl/src/extra/widgets/meter/lv_meter.c ****  **********************/
  38:lvgl/src/extra/widgets/meter/lv_meter.c **** const lv_obj_class_t lv_meter_class = {
  39:lvgl/src/extra/widgets/meter/lv_meter.c ****     .constructor_cb = lv_meter_constructor,
  40:lvgl/src/extra/widgets/meter/lv_meter.c ****     .destructor_cb = lv_meter_destructor,
  41:lvgl/src/extra/widgets/meter/lv_meter.c ****     .event_cb = lv_meter_event,
  42:lvgl/src/extra/widgets/meter/lv_meter.c ****     .instance_size = sizeof(lv_meter_t),
  43:lvgl/src/extra/widgets/meter/lv_meter.c ****     .base_class = &lv_obj_class
  44:lvgl/src/extra/widgets/meter/lv_meter.c **** };
  45:lvgl/src/extra/widgets/meter/lv_meter.c **** 
  46:lvgl/src/extra/widgets/meter/lv_meter.c **** /**********************
  47:lvgl/src/extra/widgets/meter/lv_meter.c ****  *      MACROS
  48:lvgl/src/extra/widgets/meter/lv_meter.c ****  **********************/
  49:lvgl/src/extra/widgets/meter/lv_meter.c **** 
  50:lvgl/src/extra/widgets/meter/lv_meter.c **** /**********************
  51:lvgl/src/extra/widgets/meter/lv_meter.c ****  *   GLOBAL FUNCTIONS
  52:lvgl/src/extra/widgets/meter/lv_meter.c ****  **********************/
  53:lvgl/src/extra/widgets/meter/lv_meter.c **** 
  54:lvgl/src/extra/widgets/meter/lv_meter.c **** lv_obj_t * lv_meter_create(lv_obj_t * parent)
  55:lvgl/src/extra/widgets/meter/lv_meter.c **** {
  56:lvgl/src/extra/widgets/meter/lv_meter.c ****     LV_LOG_INFO("begin");
  57:lvgl/src/extra/widgets/meter/lv_meter.c ****     lv_obj_t * obj = lv_obj_class_create_obj(MY_CLASS, parent);
  58:lvgl/src/extra/widgets/meter/lv_meter.c ****     lv_obj_class_init_obj(obj);
  59:lvgl/src/extra/widgets/meter/lv_meter.c ****     return obj;
  60:lvgl/src/extra/widgets/meter/lv_meter.c **** }
  61:lvgl/src/extra/widgets/meter/lv_meter.c **** 
  62:lvgl/src/extra/widgets/meter/lv_meter.c **** /*=====================
  63:lvgl/src/extra/widgets/meter/lv_meter.c ****  * Add scale
  64:lvgl/src/extra/widgets/meter/lv_meter.c ****  *====================*/
  65:lvgl/src/extra/widgets/meter/lv_meter.c **** 
  66:lvgl/src/extra/widgets/meter/lv_meter.c **** lv_meter_scale_t * lv_meter_add_scale(lv_obj_t * obj)
  67:lvgl/src/extra/widgets/meter/lv_meter.c **** {
ARM GAS  C:\usertemp\ccXAVGrP.s 			page 12


  68:lvgl/src/extra/widgets/meter/lv_meter.c ****     LV_ASSERT_OBJ(obj, MY_CLASS);
  69:lvgl/src/extra/widgets/meter/lv_meter.c ****     lv_meter_t * meter = (lv_meter_t *)obj;
  70:lvgl/src/extra/widgets/meter/lv_meter.c **** 
  71:lvgl/src/extra/widgets/meter/lv_meter.c ****     lv_meter_scale_t * scale = _lv_ll_ins_head(&meter->scale_ll);
  72:lvgl/src/extra/widgets/meter/lv_meter.c ****     LV_ASSERT_MALLOC(scale);
  73:lvgl/src/extra/widgets/meter/lv_meter.c ****     lv_memset_00(scale, sizeof(lv_meter_scale_t));
  74:lvgl/src/extra/widgets/meter/lv_meter.c **** 
  75:lvgl/src/extra/widgets/meter/lv_meter.c ****     scale->angle_range = 270;
  76:lvgl/src/extra/widgets/meter/lv_meter.c ****     scale->rotation = 90 + (360 - scale->angle_range) / 2;
  77:lvgl/src/extra/widgets/meter/lv_meter.c ****     scale->min = 0;
  78:lvgl/src/extra/widgets/meter/lv_meter.c ****     scale->max = 100;
  79:lvgl/src/extra/widgets/meter/lv_meter.c ****     scale->tick_cnt = 6;
  80:lvgl/src/extra/widgets/meter/lv_meter.c ****     scale->tick_length = 8;
  81:lvgl/src/extra/widgets/meter/lv_meter.c ****     scale->tick_width = 2;
  82:lvgl/src/extra/widgets/meter/lv_meter.c ****     scale->label_gap = 2;
  83:lvgl/src/extra/widgets/meter/lv_meter.c **** 
  84:lvgl/src/extra/widgets/meter/lv_meter.c ****     return scale;
  85:lvgl/src/extra/widgets/meter/lv_meter.c **** }
  86:lvgl/src/extra/widgets/meter/lv_meter.c **** 
  87:lvgl/src/extra/widgets/meter/lv_meter.c **** void lv_meter_set_scale_ticks(lv_obj_t * obj, lv_meter_scale_t * scale, uint16_t cnt, uint16_t widt
  88:lvgl/src/extra/widgets/meter/lv_meter.c ****                               lv_color_t color)
  89:lvgl/src/extra/widgets/meter/lv_meter.c **** {
  90:lvgl/src/extra/widgets/meter/lv_meter.c ****     scale->tick_cnt = cnt;
  91:lvgl/src/extra/widgets/meter/lv_meter.c ****     scale->tick_width = width;
  92:lvgl/src/extra/widgets/meter/lv_meter.c ****     scale->tick_length = len;
  93:lvgl/src/extra/widgets/meter/lv_meter.c ****     scale->tick_color = color;
  94:lvgl/src/extra/widgets/meter/lv_meter.c ****     lv_obj_invalidate(obj);
  95:lvgl/src/extra/widgets/meter/lv_meter.c **** }
  96:lvgl/src/extra/widgets/meter/lv_meter.c **** 
  97:lvgl/src/extra/widgets/meter/lv_meter.c **** void lv_meter_set_scale_major_ticks(lv_obj_t * obj, lv_meter_scale_t * scale, uint16_t nth, uint16_
  98:lvgl/src/extra/widgets/meter/lv_meter.c ****                                     uint16_t len, lv_color_t color, int16_t label_gap)
  99:lvgl/src/extra/widgets/meter/lv_meter.c **** {
 100:lvgl/src/extra/widgets/meter/lv_meter.c ****     scale->tick_major_nth = nth;
 101:lvgl/src/extra/widgets/meter/lv_meter.c ****     scale->tick_major_width = width;
 102:lvgl/src/extra/widgets/meter/lv_meter.c ****     scale->tick_major_length = len;
 103:lvgl/src/extra/widgets/meter/lv_meter.c ****     scale->tick_major_color = color;
 104:lvgl/src/extra/widgets/meter/lv_meter.c ****     scale->label_gap = label_gap;
 105:lvgl/src/extra/widgets/meter/lv_meter.c ****     lv_obj_invalidate(obj);
 106:lvgl/src/extra/widgets/meter/lv_meter.c **** }
 107:lvgl/src/extra/widgets/meter/lv_meter.c **** 
 108:lvgl/src/extra/widgets/meter/lv_meter.c **** void lv_meter_set_scale_range(lv_obj_t * obj, lv_meter_scale_t * scale, int32_t min, int32_t max, u
 109:lvgl/src/extra/widgets/meter/lv_meter.c ****                               uint32_t rotation)
 110:lvgl/src/extra/widgets/meter/lv_meter.c **** {
 111:lvgl/src/extra/widgets/meter/lv_meter.c ****     scale->min = min;
 112:lvgl/src/extra/widgets/meter/lv_meter.c ****     scale->max = max;
 113:lvgl/src/extra/widgets/meter/lv_meter.c ****     scale->angle_range = angle_range;
 114:lvgl/src/extra/widgets/meter/lv_meter.c ****     scale->rotation = rotation;
 115:lvgl/src/extra/widgets/meter/lv_meter.c ****     lv_obj_invalidate(obj);
 116:lvgl/src/extra/widgets/meter/lv_meter.c **** }
 117:lvgl/src/extra/widgets/meter/lv_meter.c **** 
 118:lvgl/src/extra/widgets/meter/lv_meter.c **** /*=====================
 119:lvgl/src/extra/widgets/meter/lv_meter.c ****  * Add indicator
 120:lvgl/src/extra/widgets/meter/lv_meter.c ****  *====================*/
 121:lvgl/src/extra/widgets/meter/lv_meter.c **** 
 122:lvgl/src/extra/widgets/meter/lv_meter.c **** lv_meter_indicator_t * lv_meter_add_needle_line(lv_obj_t * obj, lv_meter_scale_t * scale, uint16_t 
 123:lvgl/src/extra/widgets/meter/lv_meter.c ****                                                 lv_color_t color, int16_t r_mod)
 124:lvgl/src/extra/widgets/meter/lv_meter.c **** {
ARM GAS  C:\usertemp\ccXAVGrP.s 			page 13


 125:lvgl/src/extra/widgets/meter/lv_meter.c ****     LV_ASSERT_OBJ(obj, MY_CLASS);
 126:lvgl/src/extra/widgets/meter/lv_meter.c ****     lv_meter_t * meter = (lv_meter_t *)obj;
 127:lvgl/src/extra/widgets/meter/lv_meter.c ****     lv_meter_indicator_t * indic = _lv_ll_ins_head(&meter->indicator_ll);
 128:lvgl/src/extra/widgets/meter/lv_meter.c ****     LV_ASSERT_MALLOC(indic);
 129:lvgl/src/extra/widgets/meter/lv_meter.c ****     lv_memset_00(indic, sizeof(lv_meter_indicator_t));
 130:lvgl/src/extra/widgets/meter/lv_meter.c ****     indic->scale = scale;
 131:lvgl/src/extra/widgets/meter/lv_meter.c ****     indic->opa = LV_OPA_COVER;
 132:lvgl/src/extra/widgets/meter/lv_meter.c **** 
 133:lvgl/src/extra/widgets/meter/lv_meter.c ****     indic->type = LV_METER_INDICATOR_TYPE_NEEDLE_LINE;
 134:lvgl/src/extra/widgets/meter/lv_meter.c ****     indic->type_data.needle_line.width = width;
 135:lvgl/src/extra/widgets/meter/lv_meter.c ****     indic->type_data.needle_line.color = color;
 136:lvgl/src/extra/widgets/meter/lv_meter.c ****     indic->type_data.needle_line.r_mod = r_mod;
 137:lvgl/src/extra/widgets/meter/lv_meter.c ****     lv_obj_invalidate(obj);
 138:lvgl/src/extra/widgets/meter/lv_meter.c **** 
 139:lvgl/src/extra/widgets/meter/lv_meter.c ****     return indic;
 140:lvgl/src/extra/widgets/meter/lv_meter.c **** }
 141:lvgl/src/extra/widgets/meter/lv_meter.c **** 
 142:lvgl/src/extra/widgets/meter/lv_meter.c **** lv_meter_indicator_t * lv_meter_add_needle_img(lv_obj_t * obj, lv_meter_scale_t * scale, const void
 143:lvgl/src/extra/widgets/meter/lv_meter.c ****                                                lv_coord_t pivot_x, lv_coord_t pivot_y)
 144:lvgl/src/extra/widgets/meter/lv_meter.c **** {
 145:lvgl/src/extra/widgets/meter/lv_meter.c ****     LV_ASSERT_OBJ(obj, MY_CLASS);
 146:lvgl/src/extra/widgets/meter/lv_meter.c ****     lv_meter_t * meter = (lv_meter_t *)obj;
 147:lvgl/src/extra/widgets/meter/lv_meter.c ****     lv_meter_indicator_t * indic = _lv_ll_ins_head(&meter->indicator_ll);
 148:lvgl/src/extra/widgets/meter/lv_meter.c ****     LV_ASSERT_MALLOC(indic);
 149:lvgl/src/extra/widgets/meter/lv_meter.c ****     lv_memset_00(indic, sizeof(lv_meter_indicator_t));
 150:lvgl/src/extra/widgets/meter/lv_meter.c ****     indic->scale = scale;
 151:lvgl/src/extra/widgets/meter/lv_meter.c ****     indic->opa = LV_OPA_COVER;
 152:lvgl/src/extra/widgets/meter/lv_meter.c **** 
 153:lvgl/src/extra/widgets/meter/lv_meter.c ****     indic->type = LV_METER_INDICATOR_TYPE_NEEDLE_IMG;
 154:lvgl/src/extra/widgets/meter/lv_meter.c ****     indic->type_data.needle_img.src = src;
 155:lvgl/src/extra/widgets/meter/lv_meter.c ****     indic->type_data.needle_img.pivot.x = pivot_x;
 156:lvgl/src/extra/widgets/meter/lv_meter.c ****     indic->type_data.needle_img.pivot.y = pivot_y;
 157:lvgl/src/extra/widgets/meter/lv_meter.c ****     lv_obj_invalidate(obj);
 158:lvgl/src/extra/widgets/meter/lv_meter.c **** 
 159:lvgl/src/extra/widgets/meter/lv_meter.c ****     return indic;
 160:lvgl/src/extra/widgets/meter/lv_meter.c **** }
 161:lvgl/src/extra/widgets/meter/lv_meter.c **** 
 162:lvgl/src/extra/widgets/meter/lv_meter.c **** lv_meter_indicator_t * lv_meter_add_arc(lv_obj_t * obj, lv_meter_scale_t * scale, uint16_t width, l
 163:lvgl/src/extra/widgets/meter/lv_meter.c ****                                         int16_t r_mod)
 164:lvgl/src/extra/widgets/meter/lv_meter.c **** {
 165:lvgl/src/extra/widgets/meter/lv_meter.c ****     LV_ASSERT_OBJ(obj, MY_CLASS);
 166:lvgl/src/extra/widgets/meter/lv_meter.c ****     lv_meter_t * meter = (lv_meter_t *)obj;
 167:lvgl/src/extra/widgets/meter/lv_meter.c ****     lv_meter_indicator_t * indic = _lv_ll_ins_head(&meter->indicator_ll);
 168:lvgl/src/extra/widgets/meter/lv_meter.c ****     LV_ASSERT_MALLOC(indic);
 169:lvgl/src/extra/widgets/meter/lv_meter.c ****     lv_memset_00(indic, sizeof(lv_meter_indicator_t));
 170:lvgl/src/extra/widgets/meter/lv_meter.c ****     indic->scale = scale;
 171:lvgl/src/extra/widgets/meter/lv_meter.c ****     indic->opa = LV_OPA_COVER;
 172:lvgl/src/extra/widgets/meter/lv_meter.c **** 
 173:lvgl/src/extra/widgets/meter/lv_meter.c ****     indic->type = LV_METER_INDICATOR_TYPE_ARC;
 174:lvgl/src/extra/widgets/meter/lv_meter.c ****     indic->type_data.arc.width = width;
 175:lvgl/src/extra/widgets/meter/lv_meter.c ****     indic->type_data.arc.color = color;
 176:lvgl/src/extra/widgets/meter/lv_meter.c ****     indic->type_data.arc.r_mod = r_mod;
 177:lvgl/src/extra/widgets/meter/lv_meter.c **** 
 178:lvgl/src/extra/widgets/meter/lv_meter.c ****     lv_obj_invalidate(obj);
 179:lvgl/src/extra/widgets/meter/lv_meter.c ****     return indic;
 180:lvgl/src/extra/widgets/meter/lv_meter.c **** }
 181:lvgl/src/extra/widgets/meter/lv_meter.c **** 
ARM GAS  C:\usertemp\ccXAVGrP.s 			page 14


 182:lvgl/src/extra/widgets/meter/lv_meter.c **** lv_meter_indicator_t * lv_meter_add_scale_lines(lv_obj_t * obj, lv_meter_scale_t * scale, lv_color_
 183:lvgl/src/extra/widgets/meter/lv_meter.c ****                                                 lv_color_t color_end, bool local, int16_t width_mod
 184:lvgl/src/extra/widgets/meter/lv_meter.c **** {
 185:lvgl/src/extra/widgets/meter/lv_meter.c ****     LV_ASSERT_OBJ(obj, MY_CLASS);
 186:lvgl/src/extra/widgets/meter/lv_meter.c ****     lv_meter_t * meter = (lv_meter_t *)obj;
 187:lvgl/src/extra/widgets/meter/lv_meter.c ****     lv_meter_indicator_t * indic = _lv_ll_ins_head(&meter->indicator_ll);
 188:lvgl/src/extra/widgets/meter/lv_meter.c ****     LV_ASSERT_MALLOC(indic);
 189:lvgl/src/extra/widgets/meter/lv_meter.c ****     lv_memset_00(indic, sizeof(lv_meter_indicator_t));
 190:lvgl/src/extra/widgets/meter/lv_meter.c ****     indic->scale = scale;
 191:lvgl/src/extra/widgets/meter/lv_meter.c ****     indic->opa = LV_OPA_COVER;
 192:lvgl/src/extra/widgets/meter/lv_meter.c **** 
 193:lvgl/src/extra/widgets/meter/lv_meter.c ****     indic->type = LV_METER_INDICATOR_TYPE_SCALE_LINES;
 194:lvgl/src/extra/widgets/meter/lv_meter.c ****     indic->type_data.scale_lines.color_start = color_start;
 195:lvgl/src/extra/widgets/meter/lv_meter.c ****     indic->type_data.scale_lines.color_end = color_end;
 196:lvgl/src/extra/widgets/meter/lv_meter.c ****     indic->type_data.scale_lines.local_grad = local;
 197:lvgl/src/extra/widgets/meter/lv_meter.c ****     indic->type_data.scale_lines.width_mod = width_mod;
 198:lvgl/src/extra/widgets/meter/lv_meter.c **** 
 199:lvgl/src/extra/widgets/meter/lv_meter.c ****     lv_obj_invalidate(obj);
 200:lvgl/src/extra/widgets/meter/lv_meter.c ****     return indic;
 201:lvgl/src/extra/widgets/meter/lv_meter.c **** }
 202:lvgl/src/extra/widgets/meter/lv_meter.c **** 
 203:lvgl/src/extra/widgets/meter/lv_meter.c **** /*=====================
 204:lvgl/src/extra/widgets/meter/lv_meter.c ****  * Set indicator value
 205:lvgl/src/extra/widgets/meter/lv_meter.c ****  *====================*/
 206:lvgl/src/extra/widgets/meter/lv_meter.c **** 
 207:lvgl/src/extra/widgets/meter/lv_meter.c **** void lv_meter_set_indicator_value(lv_obj_t * obj, lv_meter_indicator_t * indic, int32_t value)
 208:lvgl/src/extra/widgets/meter/lv_meter.c **** {
 209:lvgl/src/extra/widgets/meter/lv_meter.c ****     int32_t old_start = indic->start_value;
 210:lvgl/src/extra/widgets/meter/lv_meter.c ****     int32_t old_end = indic->end_value;
 211:lvgl/src/extra/widgets/meter/lv_meter.c ****     indic->start_value = value;
 212:lvgl/src/extra/widgets/meter/lv_meter.c ****     indic->end_value = value;
 213:lvgl/src/extra/widgets/meter/lv_meter.c **** 
 214:lvgl/src/extra/widgets/meter/lv_meter.c ****     if(indic->type == LV_METER_INDICATOR_TYPE_ARC) {
 215:lvgl/src/extra/widgets/meter/lv_meter.c ****         inv_arc(obj, indic, old_start, value);
 216:lvgl/src/extra/widgets/meter/lv_meter.c ****         inv_arc(obj, indic, old_end, value);
 217:lvgl/src/extra/widgets/meter/lv_meter.c ****     }
 218:lvgl/src/extra/widgets/meter/lv_meter.c ****     else if(indic->type == LV_METER_INDICATOR_TYPE_NEEDLE_IMG || indic->type == LV_METER_INDICATOR_
 219:lvgl/src/extra/widgets/meter/lv_meter.c ****         inv_line(obj, indic, old_start);
 220:lvgl/src/extra/widgets/meter/lv_meter.c ****         inv_line(obj, indic, old_end);
 221:lvgl/src/extra/widgets/meter/lv_meter.c ****         inv_line(obj, indic, value);
 222:lvgl/src/extra/widgets/meter/lv_meter.c ****     }
 223:lvgl/src/extra/widgets/meter/lv_meter.c ****     else {
 224:lvgl/src/extra/widgets/meter/lv_meter.c ****         lv_obj_invalidate(obj);
 225:lvgl/src/extra/widgets/meter/lv_meter.c ****     }
 226:lvgl/src/extra/widgets/meter/lv_meter.c **** }
 227:lvgl/src/extra/widgets/meter/lv_meter.c **** 
 228:lvgl/src/extra/widgets/meter/lv_meter.c **** void lv_meter_set_indicator_start_value(lv_obj_t * obj, lv_meter_indicator_t * indic, int32_t value
 229:lvgl/src/extra/widgets/meter/lv_meter.c **** {
 230:lvgl/src/extra/widgets/meter/lv_meter.c ****     int32_t old_value = indic->start_value;
 231:lvgl/src/extra/widgets/meter/lv_meter.c ****     indic->start_value = value;
 232:lvgl/src/extra/widgets/meter/lv_meter.c **** 
 233:lvgl/src/extra/widgets/meter/lv_meter.c ****     if(indic->type == LV_METER_INDICATOR_TYPE_ARC) {
 234:lvgl/src/extra/widgets/meter/lv_meter.c ****         inv_arc(obj, indic, old_value, value);
 235:lvgl/src/extra/widgets/meter/lv_meter.c ****     }
 236:lvgl/src/extra/widgets/meter/lv_meter.c ****     else if(indic->type == LV_METER_INDICATOR_TYPE_NEEDLE_IMG || indic->type == LV_METER_INDICATOR_
 237:lvgl/src/extra/widgets/meter/lv_meter.c ****         inv_line(obj, indic, old_value);
 238:lvgl/src/extra/widgets/meter/lv_meter.c ****         inv_line(obj, indic, value);
ARM GAS  C:\usertemp\ccXAVGrP.s 			page 15


 239:lvgl/src/extra/widgets/meter/lv_meter.c ****     }
 240:lvgl/src/extra/widgets/meter/lv_meter.c ****     else {
 241:lvgl/src/extra/widgets/meter/lv_meter.c ****         lv_obj_invalidate(obj);
 242:lvgl/src/extra/widgets/meter/lv_meter.c ****     }
 243:lvgl/src/extra/widgets/meter/lv_meter.c **** }
 244:lvgl/src/extra/widgets/meter/lv_meter.c **** 
 245:lvgl/src/extra/widgets/meter/lv_meter.c **** void lv_meter_set_indicator_end_value(lv_obj_t * obj, lv_meter_indicator_t * indic, int32_t value)
 246:lvgl/src/extra/widgets/meter/lv_meter.c **** {
 247:lvgl/src/extra/widgets/meter/lv_meter.c ****     int32_t old_value = indic->end_value;
 248:lvgl/src/extra/widgets/meter/lv_meter.c ****     indic->end_value = value;
 249:lvgl/src/extra/widgets/meter/lv_meter.c **** 
 250:lvgl/src/extra/widgets/meter/lv_meter.c ****     if(indic->type == LV_METER_INDICATOR_TYPE_ARC) {
 251:lvgl/src/extra/widgets/meter/lv_meter.c ****         inv_arc(obj, indic, old_value, value);
 252:lvgl/src/extra/widgets/meter/lv_meter.c ****     }
 253:lvgl/src/extra/widgets/meter/lv_meter.c ****     else if(indic->type == LV_METER_INDICATOR_TYPE_NEEDLE_IMG || indic->type == LV_METER_INDICATOR_
 254:lvgl/src/extra/widgets/meter/lv_meter.c ****         inv_line(obj, indic, old_value);
 255:lvgl/src/extra/widgets/meter/lv_meter.c ****         inv_line(obj, indic, value);
 256:lvgl/src/extra/widgets/meter/lv_meter.c ****     }
 257:lvgl/src/extra/widgets/meter/lv_meter.c ****     else {
 258:lvgl/src/extra/widgets/meter/lv_meter.c ****         lv_obj_invalidate(obj);
 259:lvgl/src/extra/widgets/meter/lv_meter.c ****     }
 260:lvgl/src/extra/widgets/meter/lv_meter.c **** }
 261:lvgl/src/extra/widgets/meter/lv_meter.c **** 
 262:lvgl/src/extra/widgets/meter/lv_meter.c **** /**********************
 263:lvgl/src/extra/widgets/meter/lv_meter.c ****  *   STATIC FUNCTIONS
 264:lvgl/src/extra/widgets/meter/lv_meter.c ****  **********************/
 265:lvgl/src/extra/widgets/meter/lv_meter.c **** 
 266:lvgl/src/extra/widgets/meter/lv_meter.c **** static void lv_meter_constructor(const lv_obj_class_t * class_p, lv_obj_t * obj)
 267:lvgl/src/extra/widgets/meter/lv_meter.c **** {
 268:lvgl/src/extra/widgets/meter/lv_meter.c ****     LV_UNUSED(class_p);
 269:lvgl/src/extra/widgets/meter/lv_meter.c ****     LV_TRACE_OBJ_CREATE("begin");
 270:lvgl/src/extra/widgets/meter/lv_meter.c **** 
 271:lvgl/src/extra/widgets/meter/lv_meter.c ****     lv_meter_t * meter = (lv_meter_t *)obj;
 272:lvgl/src/extra/widgets/meter/lv_meter.c **** 
 273:lvgl/src/extra/widgets/meter/lv_meter.c ****     _lv_ll_init(&meter->scale_ll, sizeof(lv_meter_scale_t));
 274:lvgl/src/extra/widgets/meter/lv_meter.c ****     _lv_ll_init(&meter->indicator_ll, sizeof(lv_meter_indicator_t));
 275:lvgl/src/extra/widgets/meter/lv_meter.c **** 
 276:lvgl/src/extra/widgets/meter/lv_meter.c ****     LV_TRACE_OBJ_CREATE("finished");
 277:lvgl/src/extra/widgets/meter/lv_meter.c **** }
 278:lvgl/src/extra/widgets/meter/lv_meter.c **** 
 279:lvgl/src/extra/widgets/meter/lv_meter.c **** static void lv_meter_destructor(const lv_obj_class_t * class_p, lv_obj_t * obj)
 280:lvgl/src/extra/widgets/meter/lv_meter.c **** {
 281:lvgl/src/extra/widgets/meter/lv_meter.c ****     LV_UNUSED(class_p);
 282:lvgl/src/extra/widgets/meter/lv_meter.c ****     LV_ASSERT_OBJ(obj, MY_CLASS);
 283:lvgl/src/extra/widgets/meter/lv_meter.c ****     lv_meter_t * meter = (lv_meter_t *)obj;
 284:lvgl/src/extra/widgets/meter/lv_meter.c ****     _lv_ll_clear(&meter->indicator_ll);
 285:lvgl/src/extra/widgets/meter/lv_meter.c ****     _lv_ll_clear(&meter->scale_ll);
 286:lvgl/src/extra/widgets/meter/lv_meter.c **** 
 287:lvgl/src/extra/widgets/meter/lv_meter.c **** }
 288:lvgl/src/extra/widgets/meter/lv_meter.c **** 
 289:lvgl/src/extra/widgets/meter/lv_meter.c **** static void lv_meter_event(const lv_obj_class_t * class_p, lv_event_t * e)
 290:lvgl/src/extra/widgets/meter/lv_meter.c **** {
 291:lvgl/src/extra/widgets/meter/lv_meter.c ****     LV_UNUSED(class_p);
 292:lvgl/src/extra/widgets/meter/lv_meter.c **** 
 293:lvgl/src/extra/widgets/meter/lv_meter.c ****     lv_res_t res = lv_obj_event_base(MY_CLASS, e);
 294:lvgl/src/extra/widgets/meter/lv_meter.c ****     if(res != LV_RES_OK) return;
 295:lvgl/src/extra/widgets/meter/lv_meter.c **** 
ARM GAS  C:\usertemp\ccXAVGrP.s 			page 16


 296:lvgl/src/extra/widgets/meter/lv_meter.c ****     lv_event_code_t code = lv_event_get_code(e);
 297:lvgl/src/extra/widgets/meter/lv_meter.c ****     lv_obj_t * obj = lv_event_get_target(e);
 298:lvgl/src/extra/widgets/meter/lv_meter.c ****     if(code == LV_EVENT_DRAW_MAIN) {
 299:lvgl/src/extra/widgets/meter/lv_meter.c ****         lv_draw_ctx_t * draw_ctx = lv_event_get_draw_ctx(e);
 300:lvgl/src/extra/widgets/meter/lv_meter.c ****         lv_area_t scale_area;
 301:lvgl/src/extra/widgets/meter/lv_meter.c ****         lv_obj_get_content_coords(obj, &scale_area);
 302:lvgl/src/extra/widgets/meter/lv_meter.c **** 
 303:lvgl/src/extra/widgets/meter/lv_meter.c ****         draw_arcs(obj, draw_ctx, &scale_area);
 304:lvgl/src/extra/widgets/meter/lv_meter.c ****         draw_ticks_and_labels(obj, draw_ctx, &scale_area);
 305:lvgl/src/extra/widgets/meter/lv_meter.c ****         draw_needles(obj, draw_ctx, &scale_area);
 306:lvgl/src/extra/widgets/meter/lv_meter.c **** 
 307:lvgl/src/extra/widgets/meter/lv_meter.c ****         lv_coord_t r_edge = lv_area_get_width(&scale_area) / 2;
 308:lvgl/src/extra/widgets/meter/lv_meter.c ****         lv_point_t scale_center;
 309:lvgl/src/extra/widgets/meter/lv_meter.c ****         scale_center.x = scale_area.x1 + r_edge;
 310:lvgl/src/extra/widgets/meter/lv_meter.c ****         scale_center.y = scale_area.y1 + r_edge;
 311:lvgl/src/extra/widgets/meter/lv_meter.c **** 
 312:lvgl/src/extra/widgets/meter/lv_meter.c ****         lv_draw_rect_dsc_t mid_dsc;
 313:lvgl/src/extra/widgets/meter/lv_meter.c ****         lv_draw_rect_dsc_init(&mid_dsc);
 314:lvgl/src/extra/widgets/meter/lv_meter.c ****         lv_obj_init_draw_rect_dsc(obj, LV_PART_INDICATOR, &mid_dsc);
 315:lvgl/src/extra/widgets/meter/lv_meter.c ****         lv_coord_t w = lv_obj_get_style_width(obj, LV_PART_INDICATOR) / 2;
 316:lvgl/src/extra/widgets/meter/lv_meter.c ****         lv_coord_t h = lv_obj_get_style_height(obj, LV_PART_INDICATOR) / 2;
 317:lvgl/src/extra/widgets/meter/lv_meter.c ****         lv_area_t nm_cord;
 318:lvgl/src/extra/widgets/meter/lv_meter.c ****         nm_cord.x1 = scale_center.x - w;
 319:lvgl/src/extra/widgets/meter/lv_meter.c ****         nm_cord.y1 = scale_center.y - h;
 320:lvgl/src/extra/widgets/meter/lv_meter.c ****         nm_cord.x2 = scale_center.x + w;
 321:lvgl/src/extra/widgets/meter/lv_meter.c ****         nm_cord.y2 = scale_center.y + h;
 322:lvgl/src/extra/widgets/meter/lv_meter.c ****         lv_draw_rect(draw_ctx, &mid_dsc, &nm_cord);
 323:lvgl/src/extra/widgets/meter/lv_meter.c ****     }
 324:lvgl/src/extra/widgets/meter/lv_meter.c **** }
 325:lvgl/src/extra/widgets/meter/lv_meter.c **** 
 326:lvgl/src/extra/widgets/meter/lv_meter.c **** static void draw_arcs(lv_obj_t * obj, lv_draw_ctx_t * draw_ctx, const lv_area_t * scale_area)
 327:lvgl/src/extra/widgets/meter/lv_meter.c **** {
  94              		.loc 1 327 1 is_stmt 1 view -0
  95              		.cfi_startproc
  96              		@ args = 0, pretend = 0, frame = 104
  97              		@ frame_needed = 0, uses_anonymous_args = 0
  98              		.loc 1 327 1 is_stmt 0 view .LVU21
  99 0000 2DE9F04F 		push	{r4, r5, r6, r7, r8, r9, r10, fp, lr}
 100              	.LCFI0:
 101              		.cfi_def_cfa_offset 36
 102              		.cfi_offset 4, -36
 103              		.cfi_offset 5, -32
 104              		.cfi_offset 6, -28
 105              		.cfi_offset 7, -24
 106              		.cfi_offset 8, -20
 107              		.cfi_offset 9, -16
 108              		.cfi_offset 10, -12
 109              		.cfi_offset 11, -8
 110              		.cfi_offset 14, -4
 111 0004 9DB0     		sub	sp, sp, #116
 112              	.LCFI1:
 113              		.cfi_def_cfa_offset 152
 114 0006 8046     		mov	r8, r0
 115 0008 8B46     		mov	fp, r1
 116 000a 1446     		mov	r4, r2
 328:lvgl/src/extra/widgets/meter/lv_meter.c ****     lv_meter_t * meter = (lv_meter_t *)obj;
 117              		.loc 1 328 5 is_stmt 1 view .LVU22
ARM GAS  C:\usertemp\ccXAVGrP.s 			page 17


 118              	.LVL12:
 329:lvgl/src/extra/widgets/meter/lv_meter.c **** 
 330:lvgl/src/extra/widgets/meter/lv_meter.c ****     lv_draw_arc_dsc_t arc_dsc;
 119              		.loc 1 330 5 view .LVU23
 331:lvgl/src/extra/widgets/meter/lv_meter.c ****     lv_draw_arc_dsc_init(&arc_dsc);
 120              		.loc 1 331 5 view .LVU24
 121 000c 18A8     		add	r0, sp, #96
 122              	.LVL13:
 123              		.loc 1 331 5 is_stmt 0 view .LVU25
 124 000e FFF7FEFF 		bl	lv_draw_arc_dsc_init
 125              	.LVL14:
 332:lvgl/src/extra/widgets/meter/lv_meter.c ****     arc_dsc.rounded = lv_obj_get_style_arc_rounded(obj, LV_PART_ITEMS);
 126              		.loc 1 332 5 is_stmt 1 view .LVU26
 127              	.LBB51:
 128              	.LBI51:
 129              		.file 3 "lvgl/src/extra/widgets/meter/../../../../src/core/lv_obj_style_gen.h"
   1:lvgl/src/extra/widgets/meter/../../../../src/core/lv_obj_style_gen.h **** static inline lv_coord_t lv_obj_get_style_width(const struct _lv_obj_t * obj, uint32_t part)
   2:lvgl/src/extra/widgets/meter/../../../../src/core/lv_obj_style_gen.h **** {
   3:lvgl/src/extra/widgets/meter/../../../../src/core/lv_obj_style_gen.h ****     lv_style_value_t v = lv_obj_get_style_prop(obj, part, LV_STYLE_WIDTH);
   4:lvgl/src/extra/widgets/meter/../../../../src/core/lv_obj_style_gen.h ****     return (lv_coord_t)v.num;
   5:lvgl/src/extra/widgets/meter/../../../../src/core/lv_obj_style_gen.h **** }
   6:lvgl/src/extra/widgets/meter/../../../../src/core/lv_obj_style_gen.h **** 
   7:lvgl/src/extra/widgets/meter/../../../../src/core/lv_obj_style_gen.h **** static inline lv_coord_t lv_obj_get_style_min_width(const struct _lv_obj_t * obj, uint32_t part)
   8:lvgl/src/extra/widgets/meter/../../../../src/core/lv_obj_style_gen.h **** {
   9:lvgl/src/extra/widgets/meter/../../../../src/core/lv_obj_style_gen.h ****     lv_style_value_t v = lv_obj_get_style_prop(obj, part, LV_STYLE_MIN_WIDTH);
  10:lvgl/src/extra/widgets/meter/../../../../src/core/lv_obj_style_gen.h ****     return (lv_coord_t)v.num;
  11:lvgl/src/extra/widgets/meter/../../../../src/core/lv_obj_style_gen.h **** }
  12:lvgl/src/extra/widgets/meter/../../../../src/core/lv_obj_style_gen.h **** 
  13:lvgl/src/extra/widgets/meter/../../../../src/core/lv_obj_style_gen.h **** static inline lv_coord_t lv_obj_get_style_max_width(const struct _lv_obj_t * obj, uint32_t part)
  14:lvgl/src/extra/widgets/meter/../../../../src/core/lv_obj_style_gen.h **** {
  15:lvgl/src/extra/widgets/meter/../../../../src/core/lv_obj_style_gen.h ****     lv_style_value_t v = lv_obj_get_style_prop(obj, part, LV_STYLE_MAX_WIDTH);
  16:lvgl/src/extra/widgets/meter/../../../../src/core/lv_obj_style_gen.h ****     return (lv_coord_t)v.num;
  17:lvgl/src/extra/widgets/meter/../../../../src/core/lv_obj_style_gen.h **** }
  18:lvgl/src/extra/widgets/meter/../../../../src/core/lv_obj_style_gen.h **** 
  19:lvgl/src/extra/widgets/meter/../../../../src/core/lv_obj_style_gen.h **** static inline lv_coord_t lv_obj_get_style_height(const struct _lv_obj_t * obj, uint32_t part)
  20:lvgl/src/extra/widgets/meter/../../../../src/core/lv_obj_style_gen.h **** {
  21:lvgl/src/extra/widgets/meter/../../../../src/core/lv_obj_style_gen.h ****     lv_style_value_t v = lv_obj_get_style_prop(obj, part, LV_STYLE_HEIGHT);
  22:lvgl/src/extra/widgets/meter/../../../../src/core/lv_obj_style_gen.h ****     return (lv_coord_t)v.num;
  23:lvgl/src/extra/widgets/meter/../../../../src/core/lv_obj_style_gen.h **** }
  24:lvgl/src/extra/widgets/meter/../../../../src/core/lv_obj_style_gen.h **** 
  25:lvgl/src/extra/widgets/meter/../../../../src/core/lv_obj_style_gen.h **** static inline lv_coord_t lv_obj_get_style_min_height(const struct _lv_obj_t * obj, uint32_t part)
  26:lvgl/src/extra/widgets/meter/../../../../src/core/lv_obj_style_gen.h **** {
  27:lvgl/src/extra/widgets/meter/../../../../src/core/lv_obj_style_gen.h ****     lv_style_value_t v = lv_obj_get_style_prop(obj, part, LV_STYLE_MIN_HEIGHT);
  28:lvgl/src/extra/widgets/meter/../../../../src/core/lv_obj_style_gen.h ****     return (lv_coord_t)v.num;
  29:lvgl/src/extra/widgets/meter/../../../../src/core/lv_obj_style_gen.h **** }
  30:lvgl/src/extra/widgets/meter/../../../../src/core/lv_obj_style_gen.h **** 
  31:lvgl/src/extra/widgets/meter/../../../../src/core/lv_obj_style_gen.h **** static inline lv_coord_t lv_obj_get_style_max_height(const struct _lv_obj_t * obj, uint32_t part)
  32:lvgl/src/extra/widgets/meter/../../../../src/core/lv_obj_style_gen.h **** {
  33:lvgl/src/extra/widgets/meter/../../../../src/core/lv_obj_style_gen.h ****     lv_style_value_t v = lv_obj_get_style_prop(obj, part, LV_STYLE_MAX_HEIGHT);
  34:lvgl/src/extra/widgets/meter/../../../../src/core/lv_obj_style_gen.h ****     return (lv_coord_t)v.num;
  35:lvgl/src/extra/widgets/meter/../../../../src/core/lv_obj_style_gen.h **** }
  36:lvgl/src/extra/widgets/meter/../../../../src/core/lv_obj_style_gen.h **** 
  37:lvgl/src/extra/widgets/meter/../../../../src/core/lv_obj_style_gen.h **** static inline lv_coord_t lv_obj_get_style_x(const struct _lv_obj_t * obj, uint32_t part)
  38:lvgl/src/extra/widgets/meter/../../../../src/core/lv_obj_style_gen.h **** {
  39:lvgl/src/extra/widgets/meter/../../../../src/core/lv_obj_style_gen.h ****     lv_style_value_t v = lv_obj_get_style_prop(obj, part, LV_STYLE_X);
  40:lvgl/src/extra/widgets/meter/../../../../src/core/lv_obj_style_gen.h ****     return (lv_coord_t)v.num;
  41:lvgl/src/extra/widgets/meter/../../../../src/core/lv_obj_style_gen.h **** }
ARM GAS  C:\usertemp\ccXAVGrP.s 			page 18


  42:lvgl/src/extra/widgets/meter/../../../../src/core/lv_obj_style_gen.h **** 
  43:lvgl/src/extra/widgets/meter/../../../../src/core/lv_obj_style_gen.h **** static inline lv_coord_t lv_obj_get_style_y(const struct _lv_obj_t * obj, uint32_t part)
  44:lvgl/src/extra/widgets/meter/../../../../src/core/lv_obj_style_gen.h **** {
  45:lvgl/src/extra/widgets/meter/../../../../src/core/lv_obj_style_gen.h ****     lv_style_value_t v = lv_obj_get_style_prop(obj, part, LV_STYLE_Y);
  46:lvgl/src/extra/widgets/meter/../../../../src/core/lv_obj_style_gen.h ****     return (lv_coord_t)v.num;
  47:lvgl/src/extra/widgets/meter/../../../../src/core/lv_obj_style_gen.h **** }
  48:lvgl/src/extra/widgets/meter/../../../../src/core/lv_obj_style_gen.h **** 
  49:lvgl/src/extra/widgets/meter/../../../../src/core/lv_obj_style_gen.h **** static inline lv_align_t lv_obj_get_style_align(const struct _lv_obj_t * obj, uint32_t part)
  50:lvgl/src/extra/widgets/meter/../../../../src/core/lv_obj_style_gen.h **** {
  51:lvgl/src/extra/widgets/meter/../../../../src/core/lv_obj_style_gen.h ****     lv_style_value_t v = lv_obj_get_style_prop(obj, part, LV_STYLE_ALIGN);
  52:lvgl/src/extra/widgets/meter/../../../../src/core/lv_obj_style_gen.h ****     return (lv_align_t)v.num;
  53:lvgl/src/extra/widgets/meter/../../../../src/core/lv_obj_style_gen.h **** }
  54:lvgl/src/extra/widgets/meter/../../../../src/core/lv_obj_style_gen.h **** 
  55:lvgl/src/extra/widgets/meter/../../../../src/core/lv_obj_style_gen.h **** static inline lv_coord_t lv_obj_get_style_transform_width(const struct _lv_obj_t * obj, uint32_t pa
  56:lvgl/src/extra/widgets/meter/../../../../src/core/lv_obj_style_gen.h **** {
  57:lvgl/src/extra/widgets/meter/../../../../src/core/lv_obj_style_gen.h ****     lv_style_value_t v = lv_obj_get_style_prop(obj, part, LV_STYLE_TRANSFORM_WIDTH);
  58:lvgl/src/extra/widgets/meter/../../../../src/core/lv_obj_style_gen.h ****     return (lv_coord_t)v.num;
  59:lvgl/src/extra/widgets/meter/../../../../src/core/lv_obj_style_gen.h **** }
  60:lvgl/src/extra/widgets/meter/../../../../src/core/lv_obj_style_gen.h **** 
  61:lvgl/src/extra/widgets/meter/../../../../src/core/lv_obj_style_gen.h **** static inline lv_coord_t lv_obj_get_style_transform_height(const struct _lv_obj_t * obj, uint32_t p
  62:lvgl/src/extra/widgets/meter/../../../../src/core/lv_obj_style_gen.h **** {
  63:lvgl/src/extra/widgets/meter/../../../../src/core/lv_obj_style_gen.h ****     lv_style_value_t v = lv_obj_get_style_prop(obj, part, LV_STYLE_TRANSFORM_HEIGHT);
  64:lvgl/src/extra/widgets/meter/../../../../src/core/lv_obj_style_gen.h ****     return (lv_coord_t)v.num;
  65:lvgl/src/extra/widgets/meter/../../../../src/core/lv_obj_style_gen.h **** }
  66:lvgl/src/extra/widgets/meter/../../../../src/core/lv_obj_style_gen.h **** 
  67:lvgl/src/extra/widgets/meter/../../../../src/core/lv_obj_style_gen.h **** static inline lv_coord_t lv_obj_get_style_translate_x(const struct _lv_obj_t * obj, uint32_t part)
  68:lvgl/src/extra/widgets/meter/../../../../src/core/lv_obj_style_gen.h **** {
  69:lvgl/src/extra/widgets/meter/../../../../src/core/lv_obj_style_gen.h ****     lv_style_value_t v = lv_obj_get_style_prop(obj, part, LV_STYLE_TRANSLATE_X);
  70:lvgl/src/extra/widgets/meter/../../../../src/core/lv_obj_style_gen.h ****     return (lv_coord_t)v.num;
  71:lvgl/src/extra/widgets/meter/../../../../src/core/lv_obj_style_gen.h **** }
  72:lvgl/src/extra/widgets/meter/../../../../src/core/lv_obj_style_gen.h **** 
  73:lvgl/src/extra/widgets/meter/../../../../src/core/lv_obj_style_gen.h **** static inline lv_coord_t lv_obj_get_style_translate_y(const struct _lv_obj_t * obj, uint32_t part)
  74:lvgl/src/extra/widgets/meter/../../../../src/core/lv_obj_style_gen.h **** {
  75:lvgl/src/extra/widgets/meter/../../../../src/core/lv_obj_style_gen.h ****     lv_style_value_t v = lv_obj_get_style_prop(obj, part, LV_STYLE_TRANSLATE_Y);
  76:lvgl/src/extra/widgets/meter/../../../../src/core/lv_obj_style_gen.h ****     return (lv_coord_t)v.num;
  77:lvgl/src/extra/widgets/meter/../../../../src/core/lv_obj_style_gen.h **** }
  78:lvgl/src/extra/widgets/meter/../../../../src/core/lv_obj_style_gen.h **** 
  79:lvgl/src/extra/widgets/meter/../../../../src/core/lv_obj_style_gen.h **** static inline lv_coord_t lv_obj_get_style_transform_zoom(const struct _lv_obj_t * obj, uint32_t par
  80:lvgl/src/extra/widgets/meter/../../../../src/core/lv_obj_style_gen.h **** {
  81:lvgl/src/extra/widgets/meter/../../../../src/core/lv_obj_style_gen.h ****     lv_style_value_t v = lv_obj_get_style_prop(obj, part, LV_STYLE_TRANSFORM_ZOOM);
  82:lvgl/src/extra/widgets/meter/../../../../src/core/lv_obj_style_gen.h ****     return (lv_coord_t)v.num;
  83:lvgl/src/extra/widgets/meter/../../../../src/core/lv_obj_style_gen.h **** }
  84:lvgl/src/extra/widgets/meter/../../../../src/core/lv_obj_style_gen.h **** 
  85:lvgl/src/extra/widgets/meter/../../../../src/core/lv_obj_style_gen.h **** static inline lv_coord_t lv_obj_get_style_transform_angle(const struct _lv_obj_t * obj, uint32_t pa
  86:lvgl/src/extra/widgets/meter/../../../../src/core/lv_obj_style_gen.h **** {
  87:lvgl/src/extra/widgets/meter/../../../../src/core/lv_obj_style_gen.h ****     lv_style_value_t v = lv_obj_get_style_prop(obj, part, LV_STYLE_TRANSFORM_ANGLE);
  88:lvgl/src/extra/widgets/meter/../../../../src/core/lv_obj_style_gen.h ****     return (lv_coord_t)v.num;
  89:lvgl/src/extra/widgets/meter/../../../../src/core/lv_obj_style_gen.h **** }
  90:lvgl/src/extra/widgets/meter/../../../../src/core/lv_obj_style_gen.h **** 
  91:lvgl/src/extra/widgets/meter/../../../../src/core/lv_obj_style_gen.h **** static inline lv_coord_t lv_obj_get_style_pad_top(const struct _lv_obj_t * obj, uint32_t part)
  92:lvgl/src/extra/widgets/meter/../../../../src/core/lv_obj_style_gen.h **** {
  93:lvgl/src/extra/widgets/meter/../../../../src/core/lv_obj_style_gen.h ****     lv_style_value_t v = lv_obj_get_style_prop(obj, part, LV_STYLE_PAD_TOP);
  94:lvgl/src/extra/widgets/meter/../../../../src/core/lv_obj_style_gen.h ****     return (lv_coord_t)v.num;
  95:lvgl/src/extra/widgets/meter/../../../../src/core/lv_obj_style_gen.h **** }
  96:lvgl/src/extra/widgets/meter/../../../../src/core/lv_obj_style_gen.h **** 
  97:lvgl/src/extra/widgets/meter/../../../../src/core/lv_obj_style_gen.h **** static inline lv_coord_t lv_obj_get_style_pad_bottom(const struct _lv_obj_t * obj, uint32_t part)
  98:lvgl/src/extra/widgets/meter/../../../../src/core/lv_obj_style_gen.h **** {
ARM GAS  C:\usertemp\ccXAVGrP.s 			page 19


  99:lvgl/src/extra/widgets/meter/../../../../src/core/lv_obj_style_gen.h ****     lv_style_value_t v = lv_obj_get_style_prop(obj, part, LV_STYLE_PAD_BOTTOM);
 100:lvgl/src/extra/widgets/meter/../../../../src/core/lv_obj_style_gen.h ****     return (lv_coord_t)v.num;
 101:lvgl/src/extra/widgets/meter/../../../../src/core/lv_obj_style_gen.h **** }
 102:lvgl/src/extra/widgets/meter/../../../../src/core/lv_obj_style_gen.h **** 
 103:lvgl/src/extra/widgets/meter/../../../../src/core/lv_obj_style_gen.h **** static inline lv_coord_t lv_obj_get_style_pad_left(const struct _lv_obj_t * obj, uint32_t part)
 104:lvgl/src/extra/widgets/meter/../../../../src/core/lv_obj_style_gen.h **** {
 105:lvgl/src/extra/widgets/meter/../../../../src/core/lv_obj_style_gen.h ****     lv_style_value_t v = lv_obj_get_style_prop(obj, part, LV_STYLE_PAD_LEFT);
 106:lvgl/src/extra/widgets/meter/../../../../src/core/lv_obj_style_gen.h ****     return (lv_coord_t)v.num;
 107:lvgl/src/extra/widgets/meter/../../../../src/core/lv_obj_style_gen.h **** }
 108:lvgl/src/extra/widgets/meter/../../../../src/core/lv_obj_style_gen.h **** 
 109:lvgl/src/extra/widgets/meter/../../../../src/core/lv_obj_style_gen.h **** static inline lv_coord_t lv_obj_get_style_pad_right(const struct _lv_obj_t * obj, uint32_t part)
 110:lvgl/src/extra/widgets/meter/../../../../src/core/lv_obj_style_gen.h **** {
 111:lvgl/src/extra/widgets/meter/../../../../src/core/lv_obj_style_gen.h ****     lv_style_value_t v = lv_obj_get_style_prop(obj, part, LV_STYLE_PAD_RIGHT);
 112:lvgl/src/extra/widgets/meter/../../../../src/core/lv_obj_style_gen.h ****     return (lv_coord_t)v.num;
 113:lvgl/src/extra/widgets/meter/../../../../src/core/lv_obj_style_gen.h **** }
 114:lvgl/src/extra/widgets/meter/../../../../src/core/lv_obj_style_gen.h **** 
 115:lvgl/src/extra/widgets/meter/../../../../src/core/lv_obj_style_gen.h **** static inline lv_coord_t lv_obj_get_style_pad_row(const struct _lv_obj_t * obj, uint32_t part)
 116:lvgl/src/extra/widgets/meter/../../../../src/core/lv_obj_style_gen.h **** {
 117:lvgl/src/extra/widgets/meter/../../../../src/core/lv_obj_style_gen.h ****     lv_style_value_t v = lv_obj_get_style_prop(obj, part, LV_STYLE_PAD_ROW);
 118:lvgl/src/extra/widgets/meter/../../../../src/core/lv_obj_style_gen.h ****     return (lv_coord_t)v.num;
 119:lvgl/src/extra/widgets/meter/../../../../src/core/lv_obj_style_gen.h **** }
 120:lvgl/src/extra/widgets/meter/../../../../src/core/lv_obj_style_gen.h **** 
 121:lvgl/src/extra/widgets/meter/../../../../src/core/lv_obj_style_gen.h **** static inline lv_coord_t lv_obj_get_style_pad_column(const struct _lv_obj_t * obj, uint32_t part)
 122:lvgl/src/extra/widgets/meter/../../../../src/core/lv_obj_style_gen.h **** {
 123:lvgl/src/extra/widgets/meter/../../../../src/core/lv_obj_style_gen.h ****     lv_style_value_t v = lv_obj_get_style_prop(obj, part, LV_STYLE_PAD_COLUMN);
 124:lvgl/src/extra/widgets/meter/../../../../src/core/lv_obj_style_gen.h ****     return (lv_coord_t)v.num;
 125:lvgl/src/extra/widgets/meter/../../../../src/core/lv_obj_style_gen.h **** }
 126:lvgl/src/extra/widgets/meter/../../../../src/core/lv_obj_style_gen.h **** 
 127:lvgl/src/extra/widgets/meter/../../../../src/core/lv_obj_style_gen.h **** static inline lv_color_t lv_obj_get_style_bg_color(const struct _lv_obj_t * obj, uint32_t part)
 128:lvgl/src/extra/widgets/meter/../../../../src/core/lv_obj_style_gen.h **** {
 129:lvgl/src/extra/widgets/meter/../../../../src/core/lv_obj_style_gen.h ****     lv_style_value_t v = lv_obj_get_style_prop(obj, part, LV_STYLE_BG_COLOR);
 130:lvgl/src/extra/widgets/meter/../../../../src/core/lv_obj_style_gen.h ****     return v.color;
 131:lvgl/src/extra/widgets/meter/../../../../src/core/lv_obj_style_gen.h **** }
 132:lvgl/src/extra/widgets/meter/../../../../src/core/lv_obj_style_gen.h **** 
 133:lvgl/src/extra/widgets/meter/../../../../src/core/lv_obj_style_gen.h **** static inline lv_color_t lv_obj_get_style_bg_color_filtered(const struct _lv_obj_t * obj, uint32_t 
 134:lvgl/src/extra/widgets/meter/../../../../src/core/lv_obj_style_gen.h **** {
 135:lvgl/src/extra/widgets/meter/../../../../src/core/lv_obj_style_gen.h ****     lv_style_value_t v = lv_obj_get_style_prop(obj, part, LV_STYLE_BG_COLOR_FILTERED);
 136:lvgl/src/extra/widgets/meter/../../../../src/core/lv_obj_style_gen.h ****     return v.color;
 137:lvgl/src/extra/widgets/meter/../../../../src/core/lv_obj_style_gen.h **** }
 138:lvgl/src/extra/widgets/meter/../../../../src/core/lv_obj_style_gen.h **** 
 139:lvgl/src/extra/widgets/meter/../../../../src/core/lv_obj_style_gen.h **** static inline lv_opa_t lv_obj_get_style_bg_opa(const struct _lv_obj_t * obj, uint32_t part)
 140:lvgl/src/extra/widgets/meter/../../../../src/core/lv_obj_style_gen.h **** {
 141:lvgl/src/extra/widgets/meter/../../../../src/core/lv_obj_style_gen.h ****     lv_style_value_t v = lv_obj_get_style_prop(obj, part, LV_STYLE_BG_OPA);
 142:lvgl/src/extra/widgets/meter/../../../../src/core/lv_obj_style_gen.h ****     return (lv_opa_t)v.num;
 143:lvgl/src/extra/widgets/meter/../../../../src/core/lv_obj_style_gen.h **** }
 144:lvgl/src/extra/widgets/meter/../../../../src/core/lv_obj_style_gen.h **** 
 145:lvgl/src/extra/widgets/meter/../../../../src/core/lv_obj_style_gen.h **** static inline lv_color_t lv_obj_get_style_bg_grad_color(const struct _lv_obj_t * obj, uint32_t part
 146:lvgl/src/extra/widgets/meter/../../../../src/core/lv_obj_style_gen.h **** {
 147:lvgl/src/extra/widgets/meter/../../../../src/core/lv_obj_style_gen.h ****     lv_style_value_t v = lv_obj_get_style_prop(obj, part, LV_STYLE_BG_GRAD_COLOR);
 148:lvgl/src/extra/widgets/meter/../../../../src/core/lv_obj_style_gen.h ****     return v.color;
 149:lvgl/src/extra/widgets/meter/../../../../src/core/lv_obj_style_gen.h **** }
 150:lvgl/src/extra/widgets/meter/../../../../src/core/lv_obj_style_gen.h **** 
 151:lvgl/src/extra/widgets/meter/../../../../src/core/lv_obj_style_gen.h **** static inline lv_color_t lv_obj_get_style_bg_grad_color_filtered(const struct _lv_obj_t * obj, uint
 152:lvgl/src/extra/widgets/meter/../../../../src/core/lv_obj_style_gen.h **** {
 153:lvgl/src/extra/widgets/meter/../../../../src/core/lv_obj_style_gen.h ****     lv_style_value_t v = lv_obj_get_style_prop(obj, part, LV_STYLE_BG_GRAD_COLOR_FILTERED);
 154:lvgl/src/extra/widgets/meter/../../../../src/core/lv_obj_style_gen.h ****     return v.color;
 155:lvgl/src/extra/widgets/meter/../../../../src/core/lv_obj_style_gen.h **** }
ARM GAS  C:\usertemp\ccXAVGrP.s 			page 20


 156:lvgl/src/extra/widgets/meter/../../../../src/core/lv_obj_style_gen.h **** 
 157:lvgl/src/extra/widgets/meter/../../../../src/core/lv_obj_style_gen.h **** static inline lv_grad_dir_t lv_obj_get_style_bg_grad_dir(const struct _lv_obj_t * obj, uint32_t par
 158:lvgl/src/extra/widgets/meter/../../../../src/core/lv_obj_style_gen.h **** {
 159:lvgl/src/extra/widgets/meter/../../../../src/core/lv_obj_style_gen.h ****     lv_style_value_t v = lv_obj_get_style_prop(obj, part, LV_STYLE_BG_GRAD_DIR);
 160:lvgl/src/extra/widgets/meter/../../../../src/core/lv_obj_style_gen.h ****     return (lv_grad_dir_t)v.num;
 161:lvgl/src/extra/widgets/meter/../../../../src/core/lv_obj_style_gen.h **** }
 162:lvgl/src/extra/widgets/meter/../../../../src/core/lv_obj_style_gen.h **** 
 163:lvgl/src/extra/widgets/meter/../../../../src/core/lv_obj_style_gen.h **** static inline lv_coord_t lv_obj_get_style_bg_main_stop(const struct _lv_obj_t * obj, uint32_t part)
 164:lvgl/src/extra/widgets/meter/../../../../src/core/lv_obj_style_gen.h **** {
 165:lvgl/src/extra/widgets/meter/../../../../src/core/lv_obj_style_gen.h ****     lv_style_value_t v = lv_obj_get_style_prop(obj, part, LV_STYLE_BG_MAIN_STOP);
 166:lvgl/src/extra/widgets/meter/../../../../src/core/lv_obj_style_gen.h ****     return (lv_coord_t)v.num;
 167:lvgl/src/extra/widgets/meter/../../../../src/core/lv_obj_style_gen.h **** }
 168:lvgl/src/extra/widgets/meter/../../../../src/core/lv_obj_style_gen.h **** 
 169:lvgl/src/extra/widgets/meter/../../../../src/core/lv_obj_style_gen.h **** static inline lv_coord_t lv_obj_get_style_bg_grad_stop(const struct _lv_obj_t * obj, uint32_t part)
 170:lvgl/src/extra/widgets/meter/../../../../src/core/lv_obj_style_gen.h **** {
 171:lvgl/src/extra/widgets/meter/../../../../src/core/lv_obj_style_gen.h ****     lv_style_value_t v = lv_obj_get_style_prop(obj, part, LV_STYLE_BG_GRAD_STOP);
 172:lvgl/src/extra/widgets/meter/../../../../src/core/lv_obj_style_gen.h ****     return (lv_coord_t)v.num;
 173:lvgl/src/extra/widgets/meter/../../../../src/core/lv_obj_style_gen.h **** }
 174:lvgl/src/extra/widgets/meter/../../../../src/core/lv_obj_style_gen.h **** 
 175:lvgl/src/extra/widgets/meter/../../../../src/core/lv_obj_style_gen.h **** static inline const lv_grad_dsc_t * lv_obj_get_style_bg_grad(const struct _lv_obj_t * obj, uint32_t
 176:lvgl/src/extra/widgets/meter/../../../../src/core/lv_obj_style_gen.h **** {
 177:lvgl/src/extra/widgets/meter/../../../../src/core/lv_obj_style_gen.h ****     lv_style_value_t v = lv_obj_get_style_prop(obj, part, LV_STYLE_BG_GRAD);
 178:lvgl/src/extra/widgets/meter/../../../../src/core/lv_obj_style_gen.h ****     return (const lv_grad_dsc_t *)v.ptr;
 179:lvgl/src/extra/widgets/meter/../../../../src/core/lv_obj_style_gen.h **** }
 180:lvgl/src/extra/widgets/meter/../../../../src/core/lv_obj_style_gen.h **** 
 181:lvgl/src/extra/widgets/meter/../../../../src/core/lv_obj_style_gen.h **** static inline lv_dither_mode_t lv_obj_get_style_bg_dither_mode(const struct _lv_obj_t * obj, uint32
 182:lvgl/src/extra/widgets/meter/../../../../src/core/lv_obj_style_gen.h **** {
 183:lvgl/src/extra/widgets/meter/../../../../src/core/lv_obj_style_gen.h ****     lv_style_value_t v = lv_obj_get_style_prop(obj, part, LV_STYLE_BG_DITHER_MODE);
 184:lvgl/src/extra/widgets/meter/../../../../src/core/lv_obj_style_gen.h ****     return (lv_dither_mode_t)v.num;
 185:lvgl/src/extra/widgets/meter/../../../../src/core/lv_obj_style_gen.h **** }
 186:lvgl/src/extra/widgets/meter/../../../../src/core/lv_obj_style_gen.h **** 
 187:lvgl/src/extra/widgets/meter/../../../../src/core/lv_obj_style_gen.h **** static inline const void * lv_obj_get_style_bg_img_src(const struct _lv_obj_t * obj, uint32_t part)
 188:lvgl/src/extra/widgets/meter/../../../../src/core/lv_obj_style_gen.h **** {
 189:lvgl/src/extra/widgets/meter/../../../../src/core/lv_obj_style_gen.h ****     lv_style_value_t v = lv_obj_get_style_prop(obj, part, LV_STYLE_BG_IMG_SRC);
 190:lvgl/src/extra/widgets/meter/../../../../src/core/lv_obj_style_gen.h ****     return (const void *)v.ptr;
 191:lvgl/src/extra/widgets/meter/../../../../src/core/lv_obj_style_gen.h **** }
 192:lvgl/src/extra/widgets/meter/../../../../src/core/lv_obj_style_gen.h **** 
 193:lvgl/src/extra/widgets/meter/../../../../src/core/lv_obj_style_gen.h **** static inline lv_opa_t lv_obj_get_style_bg_img_opa(const struct _lv_obj_t * obj, uint32_t part)
 194:lvgl/src/extra/widgets/meter/../../../../src/core/lv_obj_style_gen.h **** {
 195:lvgl/src/extra/widgets/meter/../../../../src/core/lv_obj_style_gen.h ****     lv_style_value_t v = lv_obj_get_style_prop(obj, part, LV_STYLE_BG_IMG_OPA);
 196:lvgl/src/extra/widgets/meter/../../../../src/core/lv_obj_style_gen.h ****     return (lv_opa_t)v.num;
 197:lvgl/src/extra/widgets/meter/../../../../src/core/lv_obj_style_gen.h **** }
 198:lvgl/src/extra/widgets/meter/../../../../src/core/lv_obj_style_gen.h **** 
 199:lvgl/src/extra/widgets/meter/../../../../src/core/lv_obj_style_gen.h **** static inline lv_color_t lv_obj_get_style_bg_img_recolor(const struct _lv_obj_t * obj, uint32_t par
 200:lvgl/src/extra/widgets/meter/../../../../src/core/lv_obj_style_gen.h **** {
 201:lvgl/src/extra/widgets/meter/../../../../src/core/lv_obj_style_gen.h ****     lv_style_value_t v = lv_obj_get_style_prop(obj, part, LV_STYLE_BG_IMG_RECOLOR);
 202:lvgl/src/extra/widgets/meter/../../../../src/core/lv_obj_style_gen.h ****     return v.color;
 203:lvgl/src/extra/widgets/meter/../../../../src/core/lv_obj_style_gen.h **** }
 204:lvgl/src/extra/widgets/meter/../../../../src/core/lv_obj_style_gen.h **** 
 205:lvgl/src/extra/widgets/meter/../../../../src/core/lv_obj_style_gen.h **** static inline lv_color_t lv_obj_get_style_bg_img_recolor_filtered(const struct _lv_obj_t * obj, uin
 206:lvgl/src/extra/widgets/meter/../../../../src/core/lv_obj_style_gen.h **** {
 207:lvgl/src/extra/widgets/meter/../../../../src/core/lv_obj_style_gen.h ****     lv_style_value_t v = lv_obj_get_style_prop(obj, part, LV_STYLE_BG_IMG_RECOLOR_FILTERED);
 208:lvgl/src/extra/widgets/meter/../../../../src/core/lv_obj_style_gen.h ****     return v.color;
 209:lvgl/src/extra/widgets/meter/../../../../src/core/lv_obj_style_gen.h **** }
 210:lvgl/src/extra/widgets/meter/../../../../src/core/lv_obj_style_gen.h **** 
 211:lvgl/src/extra/widgets/meter/../../../../src/core/lv_obj_style_gen.h **** static inline lv_opa_t lv_obj_get_style_bg_img_recolor_opa(const struct _lv_obj_t * obj, uint32_t p
 212:lvgl/src/extra/widgets/meter/../../../../src/core/lv_obj_style_gen.h **** {
ARM GAS  C:\usertemp\ccXAVGrP.s 			page 21


 213:lvgl/src/extra/widgets/meter/../../../../src/core/lv_obj_style_gen.h ****     lv_style_value_t v = lv_obj_get_style_prop(obj, part, LV_STYLE_BG_IMG_RECOLOR_OPA);
 214:lvgl/src/extra/widgets/meter/../../../../src/core/lv_obj_style_gen.h ****     return (lv_opa_t)v.num;
 215:lvgl/src/extra/widgets/meter/../../../../src/core/lv_obj_style_gen.h **** }
 216:lvgl/src/extra/widgets/meter/../../../../src/core/lv_obj_style_gen.h **** 
 217:lvgl/src/extra/widgets/meter/../../../../src/core/lv_obj_style_gen.h **** static inline bool lv_obj_get_style_bg_img_tiled(const struct _lv_obj_t * obj, uint32_t part)
 218:lvgl/src/extra/widgets/meter/../../../../src/core/lv_obj_style_gen.h **** {
 219:lvgl/src/extra/widgets/meter/../../../../src/core/lv_obj_style_gen.h ****     lv_style_value_t v = lv_obj_get_style_prop(obj, part, LV_STYLE_BG_IMG_TILED);
 220:lvgl/src/extra/widgets/meter/../../../../src/core/lv_obj_style_gen.h ****     return (bool)v.num;
 221:lvgl/src/extra/widgets/meter/../../../../src/core/lv_obj_style_gen.h **** }
 222:lvgl/src/extra/widgets/meter/../../../../src/core/lv_obj_style_gen.h **** 
 223:lvgl/src/extra/widgets/meter/../../../../src/core/lv_obj_style_gen.h **** static inline lv_color_t lv_obj_get_style_border_color(const struct _lv_obj_t * obj, uint32_t part)
 224:lvgl/src/extra/widgets/meter/../../../../src/core/lv_obj_style_gen.h **** {
 225:lvgl/src/extra/widgets/meter/../../../../src/core/lv_obj_style_gen.h ****     lv_style_value_t v = lv_obj_get_style_prop(obj, part, LV_STYLE_BORDER_COLOR);
 226:lvgl/src/extra/widgets/meter/../../../../src/core/lv_obj_style_gen.h ****     return v.color;
 227:lvgl/src/extra/widgets/meter/../../../../src/core/lv_obj_style_gen.h **** }
 228:lvgl/src/extra/widgets/meter/../../../../src/core/lv_obj_style_gen.h **** 
 229:lvgl/src/extra/widgets/meter/../../../../src/core/lv_obj_style_gen.h **** static inline lv_color_t lv_obj_get_style_border_color_filtered(const struct _lv_obj_t * obj, uint3
 230:lvgl/src/extra/widgets/meter/../../../../src/core/lv_obj_style_gen.h **** {
 231:lvgl/src/extra/widgets/meter/../../../../src/core/lv_obj_style_gen.h ****     lv_style_value_t v = lv_obj_get_style_prop(obj, part, LV_STYLE_BORDER_COLOR_FILTERED);
 232:lvgl/src/extra/widgets/meter/../../../../src/core/lv_obj_style_gen.h ****     return v.color;
 233:lvgl/src/extra/widgets/meter/../../../../src/core/lv_obj_style_gen.h **** }
 234:lvgl/src/extra/widgets/meter/../../../../src/core/lv_obj_style_gen.h **** 
 235:lvgl/src/extra/widgets/meter/../../../../src/core/lv_obj_style_gen.h **** static inline lv_opa_t lv_obj_get_style_border_opa(const struct _lv_obj_t * obj, uint32_t part)
 236:lvgl/src/extra/widgets/meter/../../../../src/core/lv_obj_style_gen.h **** {
 237:lvgl/src/extra/widgets/meter/../../../../src/core/lv_obj_style_gen.h ****     lv_style_value_t v = lv_obj_get_style_prop(obj, part, LV_STYLE_BORDER_OPA);
 238:lvgl/src/extra/widgets/meter/../../../../src/core/lv_obj_style_gen.h ****     return (lv_opa_t)v.num;
 239:lvgl/src/extra/widgets/meter/../../../../src/core/lv_obj_style_gen.h **** }
 240:lvgl/src/extra/widgets/meter/../../../../src/core/lv_obj_style_gen.h **** 
 241:lvgl/src/extra/widgets/meter/../../../../src/core/lv_obj_style_gen.h **** static inline lv_coord_t lv_obj_get_style_border_width(const struct _lv_obj_t * obj, uint32_t part)
 242:lvgl/src/extra/widgets/meter/../../../../src/core/lv_obj_style_gen.h **** {
 243:lvgl/src/extra/widgets/meter/../../../../src/core/lv_obj_style_gen.h ****     lv_style_value_t v = lv_obj_get_style_prop(obj, part, LV_STYLE_BORDER_WIDTH);
 244:lvgl/src/extra/widgets/meter/../../../../src/core/lv_obj_style_gen.h ****     return (lv_coord_t)v.num;
 245:lvgl/src/extra/widgets/meter/../../../../src/core/lv_obj_style_gen.h **** }
 246:lvgl/src/extra/widgets/meter/../../../../src/core/lv_obj_style_gen.h **** 
 247:lvgl/src/extra/widgets/meter/../../../../src/core/lv_obj_style_gen.h **** static inline lv_border_side_t lv_obj_get_style_border_side(const struct _lv_obj_t * obj, uint32_t 
 248:lvgl/src/extra/widgets/meter/../../../../src/core/lv_obj_style_gen.h **** {
 249:lvgl/src/extra/widgets/meter/../../../../src/core/lv_obj_style_gen.h ****     lv_style_value_t v = lv_obj_get_style_prop(obj, part, LV_STYLE_BORDER_SIDE);
 250:lvgl/src/extra/widgets/meter/../../../../src/core/lv_obj_style_gen.h ****     return (lv_border_side_t)v.num;
 251:lvgl/src/extra/widgets/meter/../../../../src/core/lv_obj_style_gen.h **** }
 252:lvgl/src/extra/widgets/meter/../../../../src/core/lv_obj_style_gen.h **** 
 253:lvgl/src/extra/widgets/meter/../../../../src/core/lv_obj_style_gen.h **** static inline bool lv_obj_get_style_border_post(const struct _lv_obj_t * obj, uint32_t part)
 254:lvgl/src/extra/widgets/meter/../../../../src/core/lv_obj_style_gen.h **** {
 255:lvgl/src/extra/widgets/meter/../../../../src/core/lv_obj_style_gen.h ****     lv_style_value_t v = lv_obj_get_style_prop(obj, part, LV_STYLE_BORDER_POST);
 256:lvgl/src/extra/widgets/meter/../../../../src/core/lv_obj_style_gen.h ****     return (bool)v.num;
 257:lvgl/src/extra/widgets/meter/../../../../src/core/lv_obj_style_gen.h **** }
 258:lvgl/src/extra/widgets/meter/../../../../src/core/lv_obj_style_gen.h **** 
 259:lvgl/src/extra/widgets/meter/../../../../src/core/lv_obj_style_gen.h **** static inline lv_coord_t lv_obj_get_style_outline_width(const struct _lv_obj_t * obj, uint32_t part
 260:lvgl/src/extra/widgets/meter/../../../../src/core/lv_obj_style_gen.h **** {
 261:lvgl/src/extra/widgets/meter/../../../../src/core/lv_obj_style_gen.h ****     lv_style_value_t v = lv_obj_get_style_prop(obj, part, LV_STYLE_OUTLINE_WIDTH);
 262:lvgl/src/extra/widgets/meter/../../../../src/core/lv_obj_style_gen.h ****     return (lv_coord_t)v.num;
 263:lvgl/src/extra/widgets/meter/../../../../src/core/lv_obj_style_gen.h **** }
 264:lvgl/src/extra/widgets/meter/../../../../src/core/lv_obj_style_gen.h **** 
 265:lvgl/src/extra/widgets/meter/../../../../src/core/lv_obj_style_gen.h **** static inline lv_color_t lv_obj_get_style_outline_color(const struct _lv_obj_t * obj, uint32_t part
 266:lvgl/src/extra/widgets/meter/../../../../src/core/lv_obj_style_gen.h **** {
 267:lvgl/src/extra/widgets/meter/../../../../src/core/lv_obj_style_gen.h ****     lv_style_value_t v = lv_obj_get_style_prop(obj, part, LV_STYLE_OUTLINE_COLOR);
 268:lvgl/src/extra/widgets/meter/../../../../src/core/lv_obj_style_gen.h ****     return v.color;
 269:lvgl/src/extra/widgets/meter/../../../../src/core/lv_obj_style_gen.h **** }
ARM GAS  C:\usertemp\ccXAVGrP.s 			page 22


 270:lvgl/src/extra/widgets/meter/../../../../src/core/lv_obj_style_gen.h **** 
 271:lvgl/src/extra/widgets/meter/../../../../src/core/lv_obj_style_gen.h **** static inline lv_color_t lv_obj_get_style_outline_color_filtered(const struct _lv_obj_t * obj, uint
 272:lvgl/src/extra/widgets/meter/../../../../src/core/lv_obj_style_gen.h **** {
 273:lvgl/src/extra/widgets/meter/../../../../src/core/lv_obj_style_gen.h ****     lv_style_value_t v = lv_obj_get_style_prop(obj, part, LV_STYLE_OUTLINE_COLOR_FILTERED);
 274:lvgl/src/extra/widgets/meter/../../../../src/core/lv_obj_style_gen.h ****     return v.color;
 275:lvgl/src/extra/widgets/meter/../../../../src/core/lv_obj_style_gen.h **** }
 276:lvgl/src/extra/widgets/meter/../../../../src/core/lv_obj_style_gen.h **** 
 277:lvgl/src/extra/widgets/meter/../../../../src/core/lv_obj_style_gen.h **** static inline lv_opa_t lv_obj_get_style_outline_opa(const struct _lv_obj_t * obj, uint32_t part)
 278:lvgl/src/extra/widgets/meter/../../../../src/core/lv_obj_style_gen.h **** {
 279:lvgl/src/extra/widgets/meter/../../../../src/core/lv_obj_style_gen.h ****     lv_style_value_t v = lv_obj_get_style_prop(obj, part, LV_STYLE_OUTLINE_OPA);
 280:lvgl/src/extra/widgets/meter/../../../../src/core/lv_obj_style_gen.h ****     return (lv_opa_t)v.num;
 281:lvgl/src/extra/widgets/meter/../../../../src/core/lv_obj_style_gen.h **** }
 282:lvgl/src/extra/widgets/meter/../../../../src/core/lv_obj_style_gen.h **** 
 283:lvgl/src/extra/widgets/meter/../../../../src/core/lv_obj_style_gen.h **** static inline lv_coord_t lv_obj_get_style_outline_pad(const struct _lv_obj_t * obj, uint32_t part)
 284:lvgl/src/extra/widgets/meter/../../../../src/core/lv_obj_style_gen.h **** {
 285:lvgl/src/extra/widgets/meter/../../../../src/core/lv_obj_style_gen.h ****     lv_style_value_t v = lv_obj_get_style_prop(obj, part, LV_STYLE_OUTLINE_PAD);
 286:lvgl/src/extra/widgets/meter/../../../../src/core/lv_obj_style_gen.h ****     return (lv_coord_t)v.num;
 287:lvgl/src/extra/widgets/meter/../../../../src/core/lv_obj_style_gen.h **** }
 288:lvgl/src/extra/widgets/meter/../../../../src/core/lv_obj_style_gen.h **** 
 289:lvgl/src/extra/widgets/meter/../../../../src/core/lv_obj_style_gen.h **** static inline lv_coord_t lv_obj_get_style_shadow_width(const struct _lv_obj_t * obj, uint32_t part)
 290:lvgl/src/extra/widgets/meter/../../../../src/core/lv_obj_style_gen.h **** {
 291:lvgl/src/extra/widgets/meter/../../../../src/core/lv_obj_style_gen.h ****     lv_style_value_t v = lv_obj_get_style_prop(obj, part, LV_STYLE_SHADOW_WIDTH);
 292:lvgl/src/extra/widgets/meter/../../../../src/core/lv_obj_style_gen.h ****     return (lv_coord_t)v.num;
 293:lvgl/src/extra/widgets/meter/../../../../src/core/lv_obj_style_gen.h **** }
 294:lvgl/src/extra/widgets/meter/../../../../src/core/lv_obj_style_gen.h **** 
 295:lvgl/src/extra/widgets/meter/../../../../src/core/lv_obj_style_gen.h **** static inline lv_coord_t lv_obj_get_style_shadow_ofs_x(const struct _lv_obj_t * obj, uint32_t part)
 296:lvgl/src/extra/widgets/meter/../../../../src/core/lv_obj_style_gen.h **** {
 297:lvgl/src/extra/widgets/meter/../../../../src/core/lv_obj_style_gen.h ****     lv_style_value_t v = lv_obj_get_style_prop(obj, part, LV_STYLE_SHADOW_OFS_X);
 298:lvgl/src/extra/widgets/meter/../../../../src/core/lv_obj_style_gen.h ****     return (lv_coord_t)v.num;
 299:lvgl/src/extra/widgets/meter/../../../../src/core/lv_obj_style_gen.h **** }
 300:lvgl/src/extra/widgets/meter/../../../../src/core/lv_obj_style_gen.h **** 
 301:lvgl/src/extra/widgets/meter/../../../../src/core/lv_obj_style_gen.h **** static inline lv_coord_t lv_obj_get_style_shadow_ofs_y(const struct _lv_obj_t * obj, uint32_t part)
 302:lvgl/src/extra/widgets/meter/../../../../src/core/lv_obj_style_gen.h **** {
 303:lvgl/src/extra/widgets/meter/../../../../src/core/lv_obj_style_gen.h ****     lv_style_value_t v = lv_obj_get_style_prop(obj, part, LV_STYLE_SHADOW_OFS_Y);
 304:lvgl/src/extra/widgets/meter/../../../../src/core/lv_obj_style_gen.h ****     return (lv_coord_t)v.num;
 305:lvgl/src/extra/widgets/meter/../../../../src/core/lv_obj_style_gen.h **** }
 306:lvgl/src/extra/widgets/meter/../../../../src/core/lv_obj_style_gen.h **** 
 307:lvgl/src/extra/widgets/meter/../../../../src/core/lv_obj_style_gen.h **** static inline lv_coord_t lv_obj_get_style_shadow_spread(const struct _lv_obj_t * obj, uint32_t part
 308:lvgl/src/extra/widgets/meter/../../../../src/core/lv_obj_style_gen.h **** {
 309:lvgl/src/extra/widgets/meter/../../../../src/core/lv_obj_style_gen.h ****     lv_style_value_t v = lv_obj_get_style_prop(obj, part, LV_STYLE_SHADOW_SPREAD);
 310:lvgl/src/extra/widgets/meter/../../../../src/core/lv_obj_style_gen.h ****     return (lv_coord_t)v.num;
 311:lvgl/src/extra/widgets/meter/../../../../src/core/lv_obj_style_gen.h **** }
 312:lvgl/src/extra/widgets/meter/../../../../src/core/lv_obj_style_gen.h **** 
 313:lvgl/src/extra/widgets/meter/../../../../src/core/lv_obj_style_gen.h **** static inline lv_color_t lv_obj_get_style_shadow_color(const struct _lv_obj_t * obj, uint32_t part)
 314:lvgl/src/extra/widgets/meter/../../../../src/core/lv_obj_style_gen.h **** {
 315:lvgl/src/extra/widgets/meter/../../../../src/core/lv_obj_style_gen.h ****     lv_style_value_t v = lv_obj_get_style_prop(obj, part, LV_STYLE_SHADOW_COLOR);
 316:lvgl/src/extra/widgets/meter/../../../../src/core/lv_obj_style_gen.h ****     return v.color;
 317:lvgl/src/extra/widgets/meter/../../../../src/core/lv_obj_style_gen.h **** }
 318:lvgl/src/extra/widgets/meter/../../../../src/core/lv_obj_style_gen.h **** 
 319:lvgl/src/extra/widgets/meter/../../../../src/core/lv_obj_style_gen.h **** static inline lv_color_t lv_obj_get_style_shadow_color_filtered(const struct _lv_obj_t * obj, uint3
 320:lvgl/src/extra/widgets/meter/../../../../src/core/lv_obj_style_gen.h **** {
 321:lvgl/src/extra/widgets/meter/../../../../src/core/lv_obj_style_gen.h ****     lv_style_value_t v = lv_obj_get_style_prop(obj, part, LV_STYLE_SHADOW_COLOR_FILTERED);
 322:lvgl/src/extra/widgets/meter/../../../../src/core/lv_obj_style_gen.h ****     return v.color;
 323:lvgl/src/extra/widgets/meter/../../../../src/core/lv_obj_style_gen.h **** }
 324:lvgl/src/extra/widgets/meter/../../../../src/core/lv_obj_style_gen.h **** 
 325:lvgl/src/extra/widgets/meter/../../../../src/core/lv_obj_style_gen.h **** static inline lv_opa_t lv_obj_get_style_shadow_opa(const struct _lv_obj_t * obj, uint32_t part)
 326:lvgl/src/extra/widgets/meter/../../../../src/core/lv_obj_style_gen.h **** {
ARM GAS  C:\usertemp\ccXAVGrP.s 			page 23


 327:lvgl/src/extra/widgets/meter/../../../../src/core/lv_obj_style_gen.h ****     lv_style_value_t v = lv_obj_get_style_prop(obj, part, LV_STYLE_SHADOW_OPA);
 328:lvgl/src/extra/widgets/meter/../../../../src/core/lv_obj_style_gen.h ****     return (lv_opa_t)v.num;
 329:lvgl/src/extra/widgets/meter/../../../../src/core/lv_obj_style_gen.h **** }
 330:lvgl/src/extra/widgets/meter/../../../../src/core/lv_obj_style_gen.h **** 
 331:lvgl/src/extra/widgets/meter/../../../../src/core/lv_obj_style_gen.h **** static inline lv_opa_t lv_obj_get_style_img_opa(const struct _lv_obj_t * obj, uint32_t part)
 332:lvgl/src/extra/widgets/meter/../../../../src/core/lv_obj_style_gen.h **** {
 333:lvgl/src/extra/widgets/meter/../../../../src/core/lv_obj_style_gen.h ****     lv_style_value_t v = lv_obj_get_style_prop(obj, part, LV_STYLE_IMG_OPA);
 334:lvgl/src/extra/widgets/meter/../../../../src/core/lv_obj_style_gen.h ****     return (lv_opa_t)v.num;
 335:lvgl/src/extra/widgets/meter/../../../../src/core/lv_obj_style_gen.h **** }
 336:lvgl/src/extra/widgets/meter/../../../../src/core/lv_obj_style_gen.h **** 
 337:lvgl/src/extra/widgets/meter/../../../../src/core/lv_obj_style_gen.h **** static inline lv_color_t lv_obj_get_style_img_recolor(const struct _lv_obj_t * obj, uint32_t part)
 338:lvgl/src/extra/widgets/meter/../../../../src/core/lv_obj_style_gen.h **** {
 339:lvgl/src/extra/widgets/meter/../../../../src/core/lv_obj_style_gen.h ****     lv_style_value_t v = lv_obj_get_style_prop(obj, part, LV_STYLE_IMG_RECOLOR);
 340:lvgl/src/extra/widgets/meter/../../../../src/core/lv_obj_style_gen.h ****     return v.color;
 341:lvgl/src/extra/widgets/meter/../../../../src/core/lv_obj_style_gen.h **** }
 342:lvgl/src/extra/widgets/meter/../../../../src/core/lv_obj_style_gen.h **** 
 343:lvgl/src/extra/widgets/meter/../../../../src/core/lv_obj_style_gen.h **** static inline lv_color_t lv_obj_get_style_img_recolor_filtered(const struct _lv_obj_t * obj, uint32
 344:lvgl/src/extra/widgets/meter/../../../../src/core/lv_obj_style_gen.h **** {
 345:lvgl/src/extra/widgets/meter/../../../../src/core/lv_obj_style_gen.h ****     lv_style_value_t v = lv_obj_get_style_prop(obj, part, LV_STYLE_IMG_RECOLOR_FILTERED);
 346:lvgl/src/extra/widgets/meter/../../../../src/core/lv_obj_style_gen.h ****     return v.color;
 347:lvgl/src/extra/widgets/meter/../../../../src/core/lv_obj_style_gen.h **** }
 348:lvgl/src/extra/widgets/meter/../../../../src/core/lv_obj_style_gen.h **** 
 349:lvgl/src/extra/widgets/meter/../../../../src/core/lv_obj_style_gen.h **** static inline lv_opa_t lv_obj_get_style_img_recolor_opa(const struct _lv_obj_t * obj, uint32_t part
 350:lvgl/src/extra/widgets/meter/../../../../src/core/lv_obj_style_gen.h **** {
 351:lvgl/src/extra/widgets/meter/../../../../src/core/lv_obj_style_gen.h ****     lv_style_value_t v = lv_obj_get_style_prop(obj, part, LV_STYLE_IMG_RECOLOR_OPA);
 352:lvgl/src/extra/widgets/meter/../../../../src/core/lv_obj_style_gen.h ****     return (lv_opa_t)v.num;
 353:lvgl/src/extra/widgets/meter/../../../../src/core/lv_obj_style_gen.h **** }
 354:lvgl/src/extra/widgets/meter/../../../../src/core/lv_obj_style_gen.h **** 
 355:lvgl/src/extra/widgets/meter/../../../../src/core/lv_obj_style_gen.h **** static inline lv_coord_t lv_obj_get_style_line_width(const struct _lv_obj_t * obj, uint32_t part)
 356:lvgl/src/extra/widgets/meter/../../../../src/core/lv_obj_style_gen.h **** {
 357:lvgl/src/extra/widgets/meter/../../../../src/core/lv_obj_style_gen.h ****     lv_style_value_t v = lv_obj_get_style_prop(obj, part, LV_STYLE_LINE_WIDTH);
 358:lvgl/src/extra/widgets/meter/../../../../src/core/lv_obj_style_gen.h ****     return (lv_coord_t)v.num;
 359:lvgl/src/extra/widgets/meter/../../../../src/core/lv_obj_style_gen.h **** }
 360:lvgl/src/extra/widgets/meter/../../../../src/core/lv_obj_style_gen.h **** 
 361:lvgl/src/extra/widgets/meter/../../../../src/core/lv_obj_style_gen.h **** static inline lv_coord_t lv_obj_get_style_line_dash_width(const struct _lv_obj_t * obj, uint32_t pa
 362:lvgl/src/extra/widgets/meter/../../../../src/core/lv_obj_style_gen.h **** {
 363:lvgl/src/extra/widgets/meter/../../../../src/core/lv_obj_style_gen.h ****     lv_style_value_t v = lv_obj_get_style_prop(obj, part, LV_STYLE_LINE_DASH_WIDTH);
 364:lvgl/src/extra/widgets/meter/../../../../src/core/lv_obj_style_gen.h ****     return (lv_coord_t)v.num;
 365:lvgl/src/extra/widgets/meter/../../../../src/core/lv_obj_style_gen.h **** }
 366:lvgl/src/extra/widgets/meter/../../../../src/core/lv_obj_style_gen.h **** 
 367:lvgl/src/extra/widgets/meter/../../../../src/core/lv_obj_style_gen.h **** static inline lv_coord_t lv_obj_get_style_line_dash_gap(const struct _lv_obj_t * obj, uint32_t part
 368:lvgl/src/extra/widgets/meter/../../../../src/core/lv_obj_style_gen.h **** {
 369:lvgl/src/extra/widgets/meter/../../../../src/core/lv_obj_style_gen.h ****     lv_style_value_t v = lv_obj_get_style_prop(obj, part, LV_STYLE_LINE_DASH_GAP);
 370:lvgl/src/extra/widgets/meter/../../../../src/core/lv_obj_style_gen.h ****     return (lv_coord_t)v.num;
 371:lvgl/src/extra/widgets/meter/../../../../src/core/lv_obj_style_gen.h **** }
 372:lvgl/src/extra/widgets/meter/../../../../src/core/lv_obj_style_gen.h **** 
 373:lvgl/src/extra/widgets/meter/../../../../src/core/lv_obj_style_gen.h **** static inline bool lv_obj_get_style_line_rounded(const struct _lv_obj_t * obj, uint32_t part)
 374:lvgl/src/extra/widgets/meter/../../../../src/core/lv_obj_style_gen.h **** {
 375:lvgl/src/extra/widgets/meter/../../../../src/core/lv_obj_style_gen.h ****     lv_style_value_t v = lv_obj_get_style_prop(obj, part, LV_STYLE_LINE_ROUNDED);
 376:lvgl/src/extra/widgets/meter/../../../../src/core/lv_obj_style_gen.h ****     return (bool)v.num;
 377:lvgl/src/extra/widgets/meter/../../../../src/core/lv_obj_style_gen.h **** }
 378:lvgl/src/extra/widgets/meter/../../../../src/core/lv_obj_style_gen.h **** 
 379:lvgl/src/extra/widgets/meter/../../../../src/core/lv_obj_style_gen.h **** static inline lv_color_t lv_obj_get_style_line_color(const struct _lv_obj_t * obj, uint32_t part)
 380:lvgl/src/extra/widgets/meter/../../../../src/core/lv_obj_style_gen.h **** {
 381:lvgl/src/extra/widgets/meter/../../../../src/core/lv_obj_style_gen.h ****     lv_style_value_t v = lv_obj_get_style_prop(obj, part, LV_STYLE_LINE_COLOR);
 382:lvgl/src/extra/widgets/meter/../../../../src/core/lv_obj_style_gen.h ****     return v.color;
 383:lvgl/src/extra/widgets/meter/../../../../src/core/lv_obj_style_gen.h **** }
ARM GAS  C:\usertemp\ccXAVGrP.s 			page 24


 384:lvgl/src/extra/widgets/meter/../../../../src/core/lv_obj_style_gen.h **** 
 385:lvgl/src/extra/widgets/meter/../../../../src/core/lv_obj_style_gen.h **** static inline lv_color_t lv_obj_get_style_line_color_filtered(const struct _lv_obj_t * obj, uint32_
 386:lvgl/src/extra/widgets/meter/../../../../src/core/lv_obj_style_gen.h **** {
 387:lvgl/src/extra/widgets/meter/../../../../src/core/lv_obj_style_gen.h ****     lv_style_value_t v = lv_obj_get_style_prop(obj, part, LV_STYLE_LINE_COLOR_FILTERED);
 388:lvgl/src/extra/widgets/meter/../../../../src/core/lv_obj_style_gen.h ****     return v.color;
 389:lvgl/src/extra/widgets/meter/../../../../src/core/lv_obj_style_gen.h **** }
 390:lvgl/src/extra/widgets/meter/../../../../src/core/lv_obj_style_gen.h **** 
 391:lvgl/src/extra/widgets/meter/../../../../src/core/lv_obj_style_gen.h **** static inline lv_opa_t lv_obj_get_style_line_opa(const struct _lv_obj_t * obj, uint32_t part)
 392:lvgl/src/extra/widgets/meter/../../../../src/core/lv_obj_style_gen.h **** {
 393:lvgl/src/extra/widgets/meter/../../../../src/core/lv_obj_style_gen.h ****     lv_style_value_t v = lv_obj_get_style_prop(obj, part, LV_STYLE_LINE_OPA);
 394:lvgl/src/extra/widgets/meter/../../../../src/core/lv_obj_style_gen.h ****     return (lv_opa_t)v.num;
 395:lvgl/src/extra/widgets/meter/../../../../src/core/lv_obj_style_gen.h **** }
 396:lvgl/src/extra/widgets/meter/../../../../src/core/lv_obj_style_gen.h **** 
 397:lvgl/src/extra/widgets/meter/../../../../src/core/lv_obj_style_gen.h **** static inline lv_coord_t lv_obj_get_style_arc_width(const struct _lv_obj_t * obj, uint32_t part)
 398:lvgl/src/extra/widgets/meter/../../../../src/core/lv_obj_style_gen.h **** {
 399:lvgl/src/extra/widgets/meter/../../../../src/core/lv_obj_style_gen.h ****     lv_style_value_t v = lv_obj_get_style_prop(obj, part, LV_STYLE_ARC_WIDTH);
 400:lvgl/src/extra/widgets/meter/../../../../src/core/lv_obj_style_gen.h ****     return (lv_coord_t)v.num;
 401:lvgl/src/extra/widgets/meter/../../../../src/core/lv_obj_style_gen.h **** }
 402:lvgl/src/extra/widgets/meter/../../../../src/core/lv_obj_style_gen.h **** 
 403:lvgl/src/extra/widgets/meter/../../../../src/core/lv_obj_style_gen.h **** static inline bool lv_obj_get_style_arc_rounded(const struct _lv_obj_t * obj, uint32_t part)
 130              		.loc 3 403 20 view .LVU27
 131              	.LBB52:
 404:lvgl/src/extra/widgets/meter/../../../../src/core/lv_obj_style_gen.h **** {
 405:lvgl/src/extra/widgets/meter/../../../../src/core/lv_obj_style_gen.h ****     lv_style_value_t v = lv_obj_get_style_prop(obj, part, LV_STYLE_ARC_ROUNDED);
 132              		.loc 3 405 5 view .LVU28
 133              		.loc 3 405 26 is_stmt 0 view .LVU29
 134 0012 5122     		movs	r2, #81
 135 0014 4FF4A021 		mov	r1, #327680
 136 0018 4046     		mov	r0, r8
 137 001a FFF7FEFF 		bl	lv_obj_get_style_prop
 138              	.LVL15:
 406:lvgl/src/extra/widgets/meter/../../../../src/core/lv_obj_style_gen.h ****     return (bool)v.num;
 139              		.loc 3 406 5 is_stmt 1 view .LVU30
 140              		.loc 3 406 12 is_stmt 0 view .LVU31
 141 001e 0038     		subs	r0, r0, #0
 142 0020 18BF     		it	ne
 143 0022 0120     		movne	r0, #1
 144              	.LVL16:
 145              		.loc 3 406 12 view .LVU32
 146              	.LBE52:
 147              	.LBE51:
 148              		.loc 1 332 21 discriminator 1 view .LVU33
 149 0024 9DF86D30 		ldrb	r3, [sp, #109]	@ zero_extendqisi2
 150 0028 60F38203 		bfi	r3, r0, #2, #1
 151 002c 8DF86D30 		strb	r3, [sp, #109]
 333:lvgl/src/extra/widgets/meter/lv_meter.c **** 
 334:lvgl/src/extra/widgets/meter/lv_meter.c ****     lv_coord_t r_out = lv_area_get_width(scale_area) / 2 ;
 152              		.loc 1 334 5 is_stmt 1 view .LVU34
 153              	.LVL17:
 154              	.LBB53:
 155              	.LBI53:
 156              		.file 4 "D:/update_2024EL/changeform/743zit6/lvgl/src/misc/lv_area.h"
   1:D:/update_2024EL/changeform/743zit6/lvgl/src/misc\lv_area.h **** /**
   2:D:/update_2024EL/changeform/743zit6/lvgl/src/misc\lv_area.h ****  * @file lv_area.h
   3:D:/update_2024EL/changeform/743zit6/lvgl/src/misc\lv_area.h ****  *
   4:D:/update_2024EL/changeform/743zit6/lvgl/src/misc\lv_area.h ****  */
   5:D:/update_2024EL/changeform/743zit6/lvgl/src/misc\lv_area.h **** 
ARM GAS  C:\usertemp\ccXAVGrP.s 			page 25


   6:D:/update_2024EL/changeform/743zit6/lvgl/src/misc\lv_area.h **** #ifndef LV_AREA_H
   7:D:/update_2024EL/changeform/743zit6/lvgl/src/misc\lv_area.h **** #define LV_AREA_H
   8:D:/update_2024EL/changeform/743zit6/lvgl/src/misc\lv_area.h **** 
   9:D:/update_2024EL/changeform/743zit6/lvgl/src/misc\lv_area.h **** #ifdef __cplusplus
  10:D:/update_2024EL/changeform/743zit6/lvgl/src/misc\lv_area.h **** extern "C" {
  11:D:/update_2024EL/changeform/743zit6/lvgl/src/misc\lv_area.h **** #endif
  12:D:/update_2024EL/changeform/743zit6/lvgl/src/misc\lv_area.h **** 
  13:D:/update_2024EL/changeform/743zit6/lvgl/src/misc\lv_area.h **** /*********************
  14:D:/update_2024EL/changeform/743zit6/lvgl/src/misc\lv_area.h ****  *      INCLUDES
  15:D:/update_2024EL/changeform/743zit6/lvgl/src/misc\lv_area.h ****  *********************/
  16:D:/update_2024EL/changeform/743zit6/lvgl/src/misc\lv_area.h **** #include "../lv_conf_internal.h"
  17:D:/update_2024EL/changeform/743zit6/lvgl/src/misc\lv_area.h **** #include <stdbool.h>
  18:D:/update_2024EL/changeform/743zit6/lvgl/src/misc\lv_area.h **** #include <stdint.h>
  19:D:/update_2024EL/changeform/743zit6/lvgl/src/misc\lv_area.h **** 
  20:D:/update_2024EL/changeform/743zit6/lvgl/src/misc\lv_area.h **** /*********************
  21:D:/update_2024EL/changeform/743zit6/lvgl/src/misc\lv_area.h ****  *      DEFINES
  22:D:/update_2024EL/changeform/743zit6/lvgl/src/misc\lv_area.h ****  *********************/
  23:D:/update_2024EL/changeform/743zit6/lvgl/src/misc\lv_area.h **** 
  24:D:/update_2024EL/changeform/743zit6/lvgl/src/misc\lv_area.h **** #if LV_USE_LARGE_COORD
  25:D:/update_2024EL/changeform/743zit6/lvgl/src/misc\lv_area.h **** typedef int32_t lv_coord_t;
  26:D:/update_2024EL/changeform/743zit6/lvgl/src/misc\lv_area.h **** #else
  27:D:/update_2024EL/changeform/743zit6/lvgl/src/misc\lv_area.h **** typedef int16_t lv_coord_t;
  28:D:/update_2024EL/changeform/743zit6/lvgl/src/misc\lv_area.h **** #endif
  29:D:/update_2024EL/changeform/743zit6/lvgl/src/misc\lv_area.h **** 
  30:D:/update_2024EL/changeform/743zit6/lvgl/src/misc\lv_area.h **** /**********************
  31:D:/update_2024EL/changeform/743zit6/lvgl/src/misc\lv_area.h ****  *      TYPEDEFS
  32:D:/update_2024EL/changeform/743zit6/lvgl/src/misc\lv_area.h ****  **********************/
  33:D:/update_2024EL/changeform/743zit6/lvgl/src/misc\lv_area.h **** 
  34:D:/update_2024EL/changeform/743zit6/lvgl/src/misc\lv_area.h **** /**
  35:D:/update_2024EL/changeform/743zit6/lvgl/src/misc\lv_area.h ****  * Represents a point on the screen.
  36:D:/update_2024EL/changeform/743zit6/lvgl/src/misc\lv_area.h ****  */
  37:D:/update_2024EL/changeform/743zit6/lvgl/src/misc\lv_area.h **** typedef struct {
  38:D:/update_2024EL/changeform/743zit6/lvgl/src/misc\lv_area.h ****     lv_coord_t x;
  39:D:/update_2024EL/changeform/743zit6/lvgl/src/misc\lv_area.h ****     lv_coord_t y;
  40:D:/update_2024EL/changeform/743zit6/lvgl/src/misc\lv_area.h **** } lv_point_t;
  41:D:/update_2024EL/changeform/743zit6/lvgl/src/misc\lv_area.h **** 
  42:D:/update_2024EL/changeform/743zit6/lvgl/src/misc\lv_area.h **** /** Represents an area of the screen.*/
  43:D:/update_2024EL/changeform/743zit6/lvgl/src/misc\lv_area.h **** typedef struct {
  44:D:/update_2024EL/changeform/743zit6/lvgl/src/misc\lv_area.h ****     lv_coord_t x1;
  45:D:/update_2024EL/changeform/743zit6/lvgl/src/misc\lv_area.h ****     lv_coord_t y1;
  46:D:/update_2024EL/changeform/743zit6/lvgl/src/misc\lv_area.h ****     lv_coord_t x2;
  47:D:/update_2024EL/changeform/743zit6/lvgl/src/misc\lv_area.h ****     lv_coord_t y2;
  48:D:/update_2024EL/changeform/743zit6/lvgl/src/misc\lv_area.h **** } lv_area_t;
  49:D:/update_2024EL/changeform/743zit6/lvgl/src/misc\lv_area.h **** 
  50:D:/update_2024EL/changeform/743zit6/lvgl/src/misc\lv_area.h **** /** Alignments*/
  51:D:/update_2024EL/changeform/743zit6/lvgl/src/misc\lv_area.h **** enum {
  52:D:/update_2024EL/changeform/743zit6/lvgl/src/misc\lv_area.h ****     LV_ALIGN_DEFAULT = 0,
  53:D:/update_2024EL/changeform/743zit6/lvgl/src/misc\lv_area.h ****     LV_ALIGN_TOP_LEFT,
  54:D:/update_2024EL/changeform/743zit6/lvgl/src/misc\lv_area.h ****     LV_ALIGN_TOP_MID,
  55:D:/update_2024EL/changeform/743zit6/lvgl/src/misc\lv_area.h ****     LV_ALIGN_TOP_RIGHT,
  56:D:/update_2024EL/changeform/743zit6/lvgl/src/misc\lv_area.h ****     LV_ALIGN_BOTTOM_LEFT,
  57:D:/update_2024EL/changeform/743zit6/lvgl/src/misc\lv_area.h ****     LV_ALIGN_BOTTOM_MID,
  58:D:/update_2024EL/changeform/743zit6/lvgl/src/misc\lv_area.h ****     LV_ALIGN_BOTTOM_RIGHT,
  59:D:/update_2024EL/changeform/743zit6/lvgl/src/misc\lv_area.h ****     LV_ALIGN_LEFT_MID,
  60:D:/update_2024EL/changeform/743zit6/lvgl/src/misc\lv_area.h ****     LV_ALIGN_RIGHT_MID,
  61:D:/update_2024EL/changeform/743zit6/lvgl/src/misc\lv_area.h ****     LV_ALIGN_CENTER,
  62:D:/update_2024EL/changeform/743zit6/lvgl/src/misc\lv_area.h **** 
ARM GAS  C:\usertemp\ccXAVGrP.s 			page 26


  63:D:/update_2024EL/changeform/743zit6/lvgl/src/misc\lv_area.h ****     LV_ALIGN_OUT_TOP_LEFT,
  64:D:/update_2024EL/changeform/743zit6/lvgl/src/misc\lv_area.h ****     LV_ALIGN_OUT_TOP_MID,
  65:D:/update_2024EL/changeform/743zit6/lvgl/src/misc\lv_area.h ****     LV_ALIGN_OUT_TOP_RIGHT,
  66:D:/update_2024EL/changeform/743zit6/lvgl/src/misc\lv_area.h ****     LV_ALIGN_OUT_BOTTOM_LEFT,
  67:D:/update_2024EL/changeform/743zit6/lvgl/src/misc\lv_area.h ****     LV_ALIGN_OUT_BOTTOM_MID,
  68:D:/update_2024EL/changeform/743zit6/lvgl/src/misc\lv_area.h ****     LV_ALIGN_OUT_BOTTOM_RIGHT,
  69:D:/update_2024EL/changeform/743zit6/lvgl/src/misc\lv_area.h ****     LV_ALIGN_OUT_LEFT_TOP,
  70:D:/update_2024EL/changeform/743zit6/lvgl/src/misc\lv_area.h ****     LV_ALIGN_OUT_LEFT_MID,
  71:D:/update_2024EL/changeform/743zit6/lvgl/src/misc\lv_area.h ****     LV_ALIGN_OUT_LEFT_BOTTOM,
  72:D:/update_2024EL/changeform/743zit6/lvgl/src/misc\lv_area.h ****     LV_ALIGN_OUT_RIGHT_TOP,
  73:D:/update_2024EL/changeform/743zit6/lvgl/src/misc\lv_area.h ****     LV_ALIGN_OUT_RIGHT_MID,
  74:D:/update_2024EL/changeform/743zit6/lvgl/src/misc\lv_area.h ****     LV_ALIGN_OUT_RIGHT_BOTTOM,
  75:D:/update_2024EL/changeform/743zit6/lvgl/src/misc\lv_area.h **** };
  76:D:/update_2024EL/changeform/743zit6/lvgl/src/misc\lv_area.h **** typedef uint8_t lv_align_t;
  77:D:/update_2024EL/changeform/743zit6/lvgl/src/misc\lv_area.h **** 
  78:D:/update_2024EL/changeform/743zit6/lvgl/src/misc\lv_area.h **** enum {
  79:D:/update_2024EL/changeform/743zit6/lvgl/src/misc\lv_area.h ****     LV_DIR_NONE     = 0x00,
  80:D:/update_2024EL/changeform/743zit6/lvgl/src/misc\lv_area.h ****     LV_DIR_LEFT     = (1 << 0),
  81:D:/update_2024EL/changeform/743zit6/lvgl/src/misc\lv_area.h ****     LV_DIR_RIGHT    = (1 << 1),
  82:D:/update_2024EL/changeform/743zit6/lvgl/src/misc\lv_area.h ****     LV_DIR_TOP      = (1 << 2),
  83:D:/update_2024EL/changeform/743zit6/lvgl/src/misc\lv_area.h ****     LV_DIR_BOTTOM   = (1 << 3),
  84:D:/update_2024EL/changeform/743zit6/lvgl/src/misc\lv_area.h ****     LV_DIR_HOR      = LV_DIR_LEFT | LV_DIR_RIGHT,
  85:D:/update_2024EL/changeform/743zit6/lvgl/src/misc\lv_area.h ****     LV_DIR_VER      = LV_DIR_TOP | LV_DIR_BOTTOM,
  86:D:/update_2024EL/changeform/743zit6/lvgl/src/misc\lv_area.h ****     LV_DIR_ALL      = LV_DIR_HOR | LV_DIR_VER,
  87:D:/update_2024EL/changeform/743zit6/lvgl/src/misc\lv_area.h **** };
  88:D:/update_2024EL/changeform/743zit6/lvgl/src/misc\lv_area.h **** 
  89:D:/update_2024EL/changeform/743zit6/lvgl/src/misc\lv_area.h **** typedef uint8_t lv_dir_t;
  90:D:/update_2024EL/changeform/743zit6/lvgl/src/misc\lv_area.h **** 
  91:D:/update_2024EL/changeform/743zit6/lvgl/src/misc\lv_area.h **** /**********************
  92:D:/update_2024EL/changeform/743zit6/lvgl/src/misc\lv_area.h ****  * GLOBAL PROTOTYPES
  93:D:/update_2024EL/changeform/743zit6/lvgl/src/misc\lv_area.h ****  **********************/
  94:D:/update_2024EL/changeform/743zit6/lvgl/src/misc\lv_area.h **** 
  95:D:/update_2024EL/changeform/743zit6/lvgl/src/misc\lv_area.h **** /**
  96:D:/update_2024EL/changeform/743zit6/lvgl/src/misc\lv_area.h ****  * Initialize an area
  97:D:/update_2024EL/changeform/743zit6/lvgl/src/misc\lv_area.h ****  * @param area_p pointer to an area
  98:D:/update_2024EL/changeform/743zit6/lvgl/src/misc\lv_area.h ****  * @param x1 left coordinate of the area
  99:D:/update_2024EL/changeform/743zit6/lvgl/src/misc\lv_area.h ****  * @param y1 top coordinate of the area
 100:D:/update_2024EL/changeform/743zit6/lvgl/src/misc\lv_area.h ****  * @param x2 right coordinate of the area
 101:D:/update_2024EL/changeform/743zit6/lvgl/src/misc\lv_area.h ****  * @param y2 bottom coordinate of the area
 102:D:/update_2024EL/changeform/743zit6/lvgl/src/misc\lv_area.h ****  */
 103:D:/update_2024EL/changeform/743zit6/lvgl/src/misc\lv_area.h **** void lv_area_set(lv_area_t * area_p, lv_coord_t x1, lv_coord_t y1, lv_coord_t x2, lv_coord_t y2);
 104:D:/update_2024EL/changeform/743zit6/lvgl/src/misc\lv_area.h **** 
 105:D:/update_2024EL/changeform/743zit6/lvgl/src/misc\lv_area.h **** /**
 106:D:/update_2024EL/changeform/743zit6/lvgl/src/misc\lv_area.h ****  * Copy an area
 107:D:/update_2024EL/changeform/743zit6/lvgl/src/misc\lv_area.h ****  * @param dest pointer to the destination area
 108:D:/update_2024EL/changeform/743zit6/lvgl/src/misc\lv_area.h ****  * @param src pointer to the source area
 109:D:/update_2024EL/changeform/743zit6/lvgl/src/misc\lv_area.h ****  */
 110:D:/update_2024EL/changeform/743zit6/lvgl/src/misc\lv_area.h **** inline static void lv_area_copy(lv_area_t * dest, const lv_area_t * src)
 111:D:/update_2024EL/changeform/743zit6/lvgl/src/misc\lv_area.h **** {
 112:D:/update_2024EL/changeform/743zit6/lvgl/src/misc\lv_area.h ****     dest->x1 = src->x1;
 113:D:/update_2024EL/changeform/743zit6/lvgl/src/misc\lv_area.h ****     dest->y1 = src->y1;
 114:D:/update_2024EL/changeform/743zit6/lvgl/src/misc\lv_area.h ****     dest->x2 = src->x2;
 115:D:/update_2024EL/changeform/743zit6/lvgl/src/misc\lv_area.h ****     dest->y2 = src->y2;
 116:D:/update_2024EL/changeform/743zit6/lvgl/src/misc\lv_area.h **** }
 117:D:/update_2024EL/changeform/743zit6/lvgl/src/misc\lv_area.h **** 
 118:D:/update_2024EL/changeform/743zit6/lvgl/src/misc\lv_area.h **** /**
 119:D:/update_2024EL/changeform/743zit6/lvgl/src/misc\lv_area.h ****  * Get the width of an area
ARM GAS  C:\usertemp\ccXAVGrP.s 			page 27


 120:D:/update_2024EL/changeform/743zit6/lvgl/src/misc\lv_area.h ****  * @param area_p pointer to an area
 121:D:/update_2024EL/changeform/743zit6/lvgl/src/misc\lv_area.h ****  * @return the width of the area (if x1 == x2 -> width = 1)
 122:D:/update_2024EL/changeform/743zit6/lvgl/src/misc\lv_area.h ****  */
 123:D:/update_2024EL/changeform/743zit6/lvgl/src/misc\lv_area.h **** static inline lv_coord_t lv_area_get_width(const lv_area_t * area_p)
 157              		.loc 4 123 26 view .LVU35
 158              	.LBB54:
 124:D:/update_2024EL/changeform/743zit6/lvgl/src/misc\lv_area.h **** {
 125:D:/update_2024EL/changeform/743zit6/lvgl/src/misc\lv_area.h ****     return (lv_coord_t)(area_p->x2 - area_p->x1 + 1);
 159              		.loc 4 125 5 view .LVU36
 160              		.loc 4 125 31 is_stmt 0 view .LVU37
 161 0030 A788     		ldrh	r7, [r4, #4]
 162              		.loc 4 125 44 view .LVU38
 163 0032 2388     		ldrh	r3, [r4]
 164              		.loc 4 125 36 view .LVU39
 165 0034 FF1A     		subs	r7, r7, r3
 166 0036 BFB2     		uxth	r7, r7
 167              		.loc 4 125 49 view .LVU40
 168 0038 0137     		adds	r7, r7, #1
 169              		.loc 4 125 12 view .LVU41
 170 003a 3FB2     		sxth	r7, r7
 171              	.LVL18:
 172              		.loc 4 125 12 view .LVU42
 173              	.LBE54:
 174              	.LBE53:
 175              		.loc 1 334 16 discriminator 1 view .LVU43
 176 003c 002F     		cmp	r7, #0
 177 003e 25DB     		blt	.L12
 178              	.L5:
 179              	.LVL19:
 335:lvgl/src/extra/widgets/meter/lv_meter.c ****     lv_point_t scale_center;
 180              		.loc 1 335 5 is_stmt 1 view .LVU44
 336:lvgl/src/extra/widgets/meter/lv_meter.c ****     scale_center.x = scale_area->x1 + r_out;
 181              		.loc 1 336 5 view .LVU45
 182              		.loc 1 336 37 is_stmt 0 view .LVU46
 183 0040 C7F34F07 		ubfx	r7, r7, #1, #16
 184              	.LVL20:
 185              		.loc 1 336 37 view .LVU47
 186 0044 3B44     		add	r3, r3, r7
 187              		.loc 1 336 20 view .LVU48
 188 0046 ADF85C30 		strh	r3, [sp, #92]	@ movhi
 337:lvgl/src/extra/widgets/meter/lv_meter.c ****     scale_center.y = scale_area->y1 + r_out;
 189              		.loc 1 337 5 is_stmt 1 view .LVU49
 190              		.loc 1 337 32 is_stmt 0 view .LVU50
 191 004a 6388     		ldrh	r3, [r4, #2]
 192              		.loc 1 337 37 view .LVU51
 193 004c 3B44     		add	r3, r3, r7
 194              		.loc 1 337 20 view .LVU52
 195 004e ADF85E30 		strh	r3, [sp, #94]	@ movhi
 338:lvgl/src/extra/widgets/meter/lv_meter.c **** 
 339:lvgl/src/extra/widgets/meter/lv_meter.c ****     lv_opa_t opa_main = lv_obj_get_style_opa(obj, LV_PART_MAIN);
 196              		.loc 1 339 5 is_stmt 1 view .LVU53
 197              	.LVL21:
 198              	.LBB55:
 199              	.LBI55:
 407:lvgl/src/extra/widgets/meter/../../../../src/core/lv_obj_style_gen.h **** }
 408:lvgl/src/extra/widgets/meter/../../../../src/core/lv_obj_style_gen.h **** 
 409:lvgl/src/extra/widgets/meter/../../../../src/core/lv_obj_style_gen.h **** static inline lv_color_t lv_obj_get_style_arc_color(const struct _lv_obj_t * obj, uint32_t part)
ARM GAS  C:\usertemp\ccXAVGrP.s 			page 28


 410:lvgl/src/extra/widgets/meter/../../../../src/core/lv_obj_style_gen.h **** {
 411:lvgl/src/extra/widgets/meter/../../../../src/core/lv_obj_style_gen.h ****     lv_style_value_t v = lv_obj_get_style_prop(obj, part, LV_STYLE_ARC_COLOR);
 412:lvgl/src/extra/widgets/meter/../../../../src/core/lv_obj_style_gen.h ****     return v.color;
 413:lvgl/src/extra/widgets/meter/../../../../src/core/lv_obj_style_gen.h **** }
 414:lvgl/src/extra/widgets/meter/../../../../src/core/lv_obj_style_gen.h **** 
 415:lvgl/src/extra/widgets/meter/../../../../src/core/lv_obj_style_gen.h **** static inline lv_color_t lv_obj_get_style_arc_color_filtered(const struct _lv_obj_t * obj, uint32_t
 416:lvgl/src/extra/widgets/meter/../../../../src/core/lv_obj_style_gen.h **** {
 417:lvgl/src/extra/widgets/meter/../../../../src/core/lv_obj_style_gen.h ****     lv_style_value_t v = lv_obj_get_style_prop(obj, part, LV_STYLE_ARC_COLOR_FILTERED);
 418:lvgl/src/extra/widgets/meter/../../../../src/core/lv_obj_style_gen.h ****     return v.color;
 419:lvgl/src/extra/widgets/meter/../../../../src/core/lv_obj_style_gen.h **** }
 420:lvgl/src/extra/widgets/meter/../../../../src/core/lv_obj_style_gen.h **** 
 421:lvgl/src/extra/widgets/meter/../../../../src/core/lv_obj_style_gen.h **** static inline lv_opa_t lv_obj_get_style_arc_opa(const struct _lv_obj_t * obj, uint32_t part)
 422:lvgl/src/extra/widgets/meter/../../../../src/core/lv_obj_style_gen.h **** {
 423:lvgl/src/extra/widgets/meter/../../../../src/core/lv_obj_style_gen.h ****     lv_style_value_t v = lv_obj_get_style_prop(obj, part, LV_STYLE_ARC_OPA);
 424:lvgl/src/extra/widgets/meter/../../../../src/core/lv_obj_style_gen.h ****     return (lv_opa_t)v.num;
 425:lvgl/src/extra/widgets/meter/../../../../src/core/lv_obj_style_gen.h **** }
 426:lvgl/src/extra/widgets/meter/../../../../src/core/lv_obj_style_gen.h **** 
 427:lvgl/src/extra/widgets/meter/../../../../src/core/lv_obj_style_gen.h **** static inline const void * lv_obj_get_style_arc_img_src(const struct _lv_obj_t * obj, uint32_t part
 428:lvgl/src/extra/widgets/meter/../../../../src/core/lv_obj_style_gen.h **** {
 429:lvgl/src/extra/widgets/meter/../../../../src/core/lv_obj_style_gen.h ****     lv_style_value_t v = lv_obj_get_style_prop(obj, part, LV_STYLE_ARC_IMG_SRC);
 430:lvgl/src/extra/widgets/meter/../../../../src/core/lv_obj_style_gen.h ****     return (const void *)v.ptr;
 431:lvgl/src/extra/widgets/meter/../../../../src/core/lv_obj_style_gen.h **** }
 432:lvgl/src/extra/widgets/meter/../../../../src/core/lv_obj_style_gen.h **** 
 433:lvgl/src/extra/widgets/meter/../../../../src/core/lv_obj_style_gen.h **** static inline lv_color_t lv_obj_get_style_text_color(const struct _lv_obj_t * obj, uint32_t part)
 434:lvgl/src/extra/widgets/meter/../../../../src/core/lv_obj_style_gen.h **** {
 435:lvgl/src/extra/widgets/meter/../../../../src/core/lv_obj_style_gen.h ****     lv_style_value_t v = lv_obj_get_style_prop(obj, part, LV_STYLE_TEXT_COLOR);
 436:lvgl/src/extra/widgets/meter/../../../../src/core/lv_obj_style_gen.h ****     return v.color;
 437:lvgl/src/extra/widgets/meter/../../../../src/core/lv_obj_style_gen.h **** }
 438:lvgl/src/extra/widgets/meter/../../../../src/core/lv_obj_style_gen.h **** 
 439:lvgl/src/extra/widgets/meter/../../../../src/core/lv_obj_style_gen.h **** static inline lv_color_t lv_obj_get_style_text_color_filtered(const struct _lv_obj_t * obj, uint32_
 440:lvgl/src/extra/widgets/meter/../../../../src/core/lv_obj_style_gen.h **** {
 441:lvgl/src/extra/widgets/meter/../../../../src/core/lv_obj_style_gen.h ****     lv_style_value_t v = lv_obj_get_style_prop(obj, part, LV_STYLE_TEXT_COLOR_FILTERED);
 442:lvgl/src/extra/widgets/meter/../../../../src/core/lv_obj_style_gen.h ****     return v.color;
 443:lvgl/src/extra/widgets/meter/../../../../src/core/lv_obj_style_gen.h **** }
 444:lvgl/src/extra/widgets/meter/../../../../src/core/lv_obj_style_gen.h **** 
 445:lvgl/src/extra/widgets/meter/../../../../src/core/lv_obj_style_gen.h **** static inline lv_opa_t lv_obj_get_style_text_opa(const struct _lv_obj_t * obj, uint32_t part)
 446:lvgl/src/extra/widgets/meter/../../../../src/core/lv_obj_style_gen.h **** {
 447:lvgl/src/extra/widgets/meter/../../../../src/core/lv_obj_style_gen.h ****     lv_style_value_t v = lv_obj_get_style_prop(obj, part, LV_STYLE_TEXT_OPA);
 448:lvgl/src/extra/widgets/meter/../../../../src/core/lv_obj_style_gen.h ****     return (lv_opa_t)v.num;
 449:lvgl/src/extra/widgets/meter/../../../../src/core/lv_obj_style_gen.h **** }
 450:lvgl/src/extra/widgets/meter/../../../../src/core/lv_obj_style_gen.h **** 
 451:lvgl/src/extra/widgets/meter/../../../../src/core/lv_obj_style_gen.h **** static inline const lv_font_t * lv_obj_get_style_text_font(const struct _lv_obj_t * obj, uint32_t p
 452:lvgl/src/extra/widgets/meter/../../../../src/core/lv_obj_style_gen.h **** {
 453:lvgl/src/extra/widgets/meter/../../../../src/core/lv_obj_style_gen.h ****     lv_style_value_t v = lv_obj_get_style_prop(obj, part, LV_STYLE_TEXT_FONT);
 454:lvgl/src/extra/widgets/meter/../../../../src/core/lv_obj_style_gen.h ****     return (const lv_font_t *)v.ptr;
 455:lvgl/src/extra/widgets/meter/../../../../src/core/lv_obj_style_gen.h **** }
 456:lvgl/src/extra/widgets/meter/../../../../src/core/lv_obj_style_gen.h **** 
 457:lvgl/src/extra/widgets/meter/../../../../src/core/lv_obj_style_gen.h **** static inline lv_coord_t lv_obj_get_style_text_letter_space(const struct _lv_obj_t * obj, uint32_t 
 458:lvgl/src/extra/widgets/meter/../../../../src/core/lv_obj_style_gen.h **** {
 459:lvgl/src/extra/widgets/meter/../../../../src/core/lv_obj_style_gen.h ****     lv_style_value_t v = lv_obj_get_style_prop(obj, part, LV_STYLE_TEXT_LETTER_SPACE);
 460:lvgl/src/extra/widgets/meter/../../../../src/core/lv_obj_style_gen.h ****     return (lv_coord_t)v.num;
 461:lvgl/src/extra/widgets/meter/../../../../src/core/lv_obj_style_gen.h **** }
 462:lvgl/src/extra/widgets/meter/../../../../src/core/lv_obj_style_gen.h **** 
 463:lvgl/src/extra/widgets/meter/../../../../src/core/lv_obj_style_gen.h **** static inline lv_coord_t lv_obj_get_style_text_line_space(const struct _lv_obj_t * obj, uint32_t pa
 464:lvgl/src/extra/widgets/meter/../../../../src/core/lv_obj_style_gen.h **** {
 465:lvgl/src/extra/widgets/meter/../../../../src/core/lv_obj_style_gen.h ****     lv_style_value_t v = lv_obj_get_style_prop(obj, part, LV_STYLE_TEXT_LINE_SPACE);
 466:lvgl/src/extra/widgets/meter/../../../../src/core/lv_obj_style_gen.h ****     return (lv_coord_t)v.num;
ARM GAS  C:\usertemp\ccXAVGrP.s 			page 29


 467:lvgl/src/extra/widgets/meter/../../../../src/core/lv_obj_style_gen.h **** }
 468:lvgl/src/extra/widgets/meter/../../../../src/core/lv_obj_style_gen.h **** 
 469:lvgl/src/extra/widgets/meter/../../../../src/core/lv_obj_style_gen.h **** static inline lv_text_decor_t lv_obj_get_style_text_decor(const struct _lv_obj_t * obj, uint32_t pa
 470:lvgl/src/extra/widgets/meter/../../../../src/core/lv_obj_style_gen.h **** {
 471:lvgl/src/extra/widgets/meter/../../../../src/core/lv_obj_style_gen.h ****     lv_style_value_t v = lv_obj_get_style_prop(obj, part, LV_STYLE_TEXT_DECOR);
 472:lvgl/src/extra/widgets/meter/../../../../src/core/lv_obj_style_gen.h ****     return (lv_text_decor_t)v.num;
 473:lvgl/src/extra/widgets/meter/../../../../src/core/lv_obj_style_gen.h **** }
 474:lvgl/src/extra/widgets/meter/../../../../src/core/lv_obj_style_gen.h **** 
 475:lvgl/src/extra/widgets/meter/../../../../src/core/lv_obj_style_gen.h **** static inline lv_text_align_t lv_obj_get_style_text_align(const struct _lv_obj_t * obj, uint32_t pa
 476:lvgl/src/extra/widgets/meter/../../../../src/core/lv_obj_style_gen.h **** {
 477:lvgl/src/extra/widgets/meter/../../../../src/core/lv_obj_style_gen.h ****     lv_style_value_t v = lv_obj_get_style_prop(obj, part, LV_STYLE_TEXT_ALIGN);
 478:lvgl/src/extra/widgets/meter/../../../../src/core/lv_obj_style_gen.h ****     return (lv_text_align_t)v.num;
 479:lvgl/src/extra/widgets/meter/../../../../src/core/lv_obj_style_gen.h **** }
 480:lvgl/src/extra/widgets/meter/../../../../src/core/lv_obj_style_gen.h **** 
 481:lvgl/src/extra/widgets/meter/../../../../src/core/lv_obj_style_gen.h **** static inline lv_coord_t lv_obj_get_style_radius(const struct _lv_obj_t * obj, uint32_t part)
 482:lvgl/src/extra/widgets/meter/../../../../src/core/lv_obj_style_gen.h **** {
 483:lvgl/src/extra/widgets/meter/../../../../src/core/lv_obj_style_gen.h ****     lv_style_value_t v = lv_obj_get_style_prop(obj, part, LV_STYLE_RADIUS);
 484:lvgl/src/extra/widgets/meter/../../../../src/core/lv_obj_style_gen.h ****     return (lv_coord_t)v.num;
 485:lvgl/src/extra/widgets/meter/../../../../src/core/lv_obj_style_gen.h **** }
 486:lvgl/src/extra/widgets/meter/../../../../src/core/lv_obj_style_gen.h **** 
 487:lvgl/src/extra/widgets/meter/../../../../src/core/lv_obj_style_gen.h **** static inline bool lv_obj_get_style_clip_corner(const struct _lv_obj_t * obj, uint32_t part)
 488:lvgl/src/extra/widgets/meter/../../../../src/core/lv_obj_style_gen.h **** {
 489:lvgl/src/extra/widgets/meter/../../../../src/core/lv_obj_style_gen.h ****     lv_style_value_t v = lv_obj_get_style_prop(obj, part, LV_STYLE_CLIP_CORNER);
 490:lvgl/src/extra/widgets/meter/../../../../src/core/lv_obj_style_gen.h ****     return (bool)v.num;
 491:lvgl/src/extra/widgets/meter/../../../../src/core/lv_obj_style_gen.h **** }
 492:lvgl/src/extra/widgets/meter/../../../../src/core/lv_obj_style_gen.h **** 
 493:lvgl/src/extra/widgets/meter/../../../../src/core/lv_obj_style_gen.h **** static inline lv_opa_t lv_obj_get_style_opa(const struct _lv_obj_t * obj, uint32_t part)
 200              		.loc 3 493 24 view .LVU54
 201              	.LBB56:
 494:lvgl/src/extra/widgets/meter/../../../../src/core/lv_obj_style_gen.h **** {
 495:lvgl/src/extra/widgets/meter/../../../../src/core/lv_obj_style_gen.h ****     lv_style_value_t v = lv_obj_get_style_prop(obj, part, LV_STYLE_OPA);
 202              		.loc 3 495 5 view .LVU55
 203              		.loc 3 495 26 is_stmt 0 view .LVU56
 204 0052 40F26242 		movw	r2, #1122
 205 0056 0021     		movs	r1, #0
 206 0058 4046     		mov	r0, r8
 207 005a FFF7FEFF 		bl	lv_obj_get_style_prop
 208              	.LVL22:
 209 005e 0290     		str	r0, [sp, #8]
 496:lvgl/src/extra/widgets/meter/../../../../src/core/lv_obj_style_gen.h ****     return (lv_opa_t)v.num;
 210              		.loc 3 496 5 is_stmt 1 view .LVU57
 211              		.loc 3 496 12 is_stmt 0 view .LVU58
 212 0060 C3B2     		uxtb	r3, r0
 213 0062 0393     		str	r3, [sp, #12]
 214              	.LVL23:
 215              		.loc 3 496 12 view .LVU59
 216              	.LBE56:
 217              	.LBE55:
 340:lvgl/src/extra/widgets/meter/lv_meter.c ****     lv_meter_indicator_t * indic;
 218              		.loc 1 340 5 is_stmt 1 view .LVU60
 341:lvgl/src/extra/widgets/meter/lv_meter.c **** 
 342:lvgl/src/extra/widgets/meter/lv_meter.c ****     lv_obj_draw_part_dsc_t part_draw_dsc;
 219              		.loc 1 342 5 view .LVU61
 343:lvgl/src/extra/widgets/meter/lv_meter.c ****     lv_obj_draw_dsc_init(&part_draw_dsc, draw_ctx);
 220              		.loc 1 343 5 view .LVU62
 221 0064 5946     		mov	r1, fp
 222 0066 05A8     		add	r0, sp, #20
ARM GAS  C:\usertemp\ccXAVGrP.s 			page 30


 223 0068 FFF7FEFF 		bl	lv_obj_draw_dsc_init
 224              	.LVL24:
 344:lvgl/src/extra/widgets/meter/lv_meter.c ****     part_draw_dsc.arc_dsc = &arc_dsc;
 225              		.loc 1 344 5 view .LVU63
 226              		.loc 1 344 27 is_stmt 0 view .LVU64
 227 006c 18AB     		add	r3, sp, #96
 228 006e 0D93     		str	r3, [sp, #52]
 345:lvgl/src/extra/widgets/meter/lv_meter.c ****     part_draw_dsc.part = LV_PART_INDICATOR;
 229              		.loc 1 345 5 is_stmt 1 view .LVU65
 230              		.loc 1 345 24 is_stmt 0 view .LVU66
 231 0070 4FF40033 		mov	r3, #131072
 232 0074 1293     		str	r3, [sp, #72]
 346:lvgl/src/extra/widgets/meter/lv_meter.c ****     part_draw_dsc.class_p = MY_CLASS;
 233              		.loc 1 346 5 is_stmt 1 view .LVU67
 234              		.loc 1 346 27 is_stmt 0 view .LVU68
 235 0076 324B     		ldr	r3, .L14
 236 0078 0693     		str	r3, [sp, #24]
 347:lvgl/src/extra/widgets/meter/lv_meter.c ****     part_draw_dsc.type = LV_METER_DRAW_PART_ARC;
 237              		.loc 1 347 5 is_stmt 1 view .LVU69
 238              		.loc 1 347 24 is_stmt 0 view .LVU70
 239 007a 0023     		movs	r3, #0
 240 007c 0793     		str	r3, [sp, #28]
 348:lvgl/src/extra/widgets/meter/lv_meter.c **** 
 349:lvgl/src/extra/widgets/meter/lv_meter.c ****     _LV_LL_READ_BACK(&meter->indicator_ll, indic) {
 241              		.loc 1 349 5 is_stmt 1 view .LVU71
 242 007e 08F1300A 		add	r10, r8, #48
 243 0082 5046     		mov	r0, r10
 244 0084 FFF7FEFF 		bl	_lv_ll_get_tail
 245              	.LVL25:
 246 0088 0446     		mov	r4, r0
 247              	.LVL26:
 248              		.loc 1 349 5 is_stmt 0 view .LVU72
 249 008a 41E0     		b	.L6
 250              	.LVL27:
 251              	.L12:
 334:lvgl/src/extra/widgets/meter/lv_meter.c ****     lv_point_t scale_center;
 252              		.loc 1 334 16 discriminator 1 view .LVU73
 253 008c 0137     		adds	r7, r7, #1
 254 008e D7E7     		b	.L5
 255              	.LVL28:
 256              	.L10:
 257              	.LBB57:
 350:lvgl/src/extra/widgets/meter/lv_meter.c ****         if(indic->type != LV_METER_INDICATOR_TYPE_ARC) continue;
 351:lvgl/src/extra/widgets/meter/lv_meter.c **** 
 352:lvgl/src/extra/widgets/meter/lv_meter.c ****         arc_dsc.color = indic->type_data.arc.color;
 353:lvgl/src/extra/widgets/meter/lv_meter.c ****         arc_dsc.width = indic->type_data.arc.width;
 354:lvgl/src/extra/widgets/meter/lv_meter.c ****         arc_dsc.opa = indic->opa > LV_OPA_MAX ? opa_main : (opa_main * indic->opa) >> 8;
 258              		.loc 1 354 21 discriminator 2 view .LVU74
 259 0090 039B     		ldr	r3, [sp, #12]
 260              	.L8:
 261              		.loc 1 354 21 discriminator 4 view .LVU75
 262 0092 8DF86C30 		strb	r3, [sp, #108]
 355:lvgl/src/extra/widgets/meter/lv_meter.c **** 
 356:lvgl/src/extra/widgets/meter/lv_meter.c ****         lv_meter_scale_t * scale = indic->scale;
 263              		.loc 1 356 9 is_stmt 1 view .LVU76
 264              		.loc 1 356 28 is_stmt 0 view .LVU77
 265 0096 2568     		ldr	r5, [r4]
ARM GAS  C:\usertemp\ccXAVGrP.s 			page 31


 266              	.LVL29:
 357:lvgl/src/extra/widgets/meter/lv_meter.c **** 
 358:lvgl/src/extra/widgets/meter/lv_meter.c ****         int32_t start_angle = lv_map(indic->start_value, scale->min, scale->max, scale->rotation,
 267              		.loc 1 358 9 is_stmt 1 view .LVU78
 268              		.loc 1 358 87 is_stmt 0 view .LVU79
 269 0098 B5F92030 		ldrsh	r3, [r5, #32]
 359:lvgl/src/extra/widgets/meter/lv_meter.c ****                                      scale->rotation + scale->angle_range);
 270              		.loc 1 359 61 view .LVU80
 271 009c EE8B     		ldrh	r6, [r5, #30]
 272              		.loc 1 359 54 view .LVU81
 273 009e 1E44     		add	r6, r6, r3
 358:lvgl/src/extra/widgets/meter/lv_meter.c ****                                      scale->rotation + scale->angle_range);
 274              		.loc 1 358 31 view .LVU82
 275 00a0 AA69     		ldr	r2, [r5, #24]
 276 00a2 6969     		ldr	r1, [r5, #20]
 277 00a4 A068     		ldr	r0, [r4, #8]
 278              	.LVL30:
 358:lvgl/src/extra/widgets/meter/lv_meter.c ****                                      scale->rotation + scale->angle_range);
 279              		.loc 1 358 31 view .LVU83
 280 00a6 0096     		str	r6, [sp]
 281 00a8 FFF7FEFF 		bl	lv_map
 282              	.LVL31:
 283 00ac 0646     		mov	r6, r0
 284              	.LVL32:
 360:lvgl/src/extra/widgets/meter/lv_meter.c ****         int32_t end_angle = lv_map(indic->end_value, scale->min, scale->max, scale->rotation,
 285              		.loc 1 360 9 is_stmt 1 view .LVU84
 286              		.loc 1 360 83 is_stmt 0 view .LVU85
 287 00ae B5F92030 		ldrsh	r3, [r5, #32]
 361:lvgl/src/extra/widgets/meter/lv_meter.c ****                                    scale->rotation + scale->angle_range);
 288              		.loc 1 361 59 view .LVU86
 289 00b2 B5F81EC0 		ldrh	ip, [r5, #30]
 290              		.loc 1 361 52 view .LVU87
 291 00b6 9C44     		add	ip, ip, r3
 360:lvgl/src/extra/widgets/meter/lv_meter.c ****         int32_t end_angle = lv_map(indic->end_value, scale->min, scale->max, scale->rotation,
 292              		.loc 1 360 29 view .LVU88
 293 00b8 AA69     		ldr	r2, [r5, #24]
 294 00ba 6969     		ldr	r1, [r5, #20]
 295 00bc E068     		ldr	r0, [r4, #12]
 296              	.LVL33:
 360:lvgl/src/extra/widgets/meter/lv_meter.c ****         int32_t end_angle = lv_map(indic->end_value, scale->min, scale->max, scale->rotation,
 297              		.loc 1 360 29 view .LVU89
 298 00be CDF800C0 		str	ip, [sp]
 299 00c2 FFF7FEFF 		bl	lv_map
 300              	.LVL34:
 301 00c6 0546     		mov	r5, r0
 302              	.LVL35:
 362:lvgl/src/extra/widgets/meter/lv_meter.c **** 
 363:lvgl/src/extra/widgets/meter/lv_meter.c ****         part_draw_dsc.radius = r_out + indic->type_data.arc.r_mod;
 303              		.loc 1 363 9 is_stmt 1 view .LVU90
 304              		.loc 1 363 60 is_stmt 0 view .LVU91
 305 00c8 638B     		ldrh	r3, [r4, #26]
 306              		.loc 1 363 38 view .LVU92
 307 00ca 3B44     		add	r3, r3, r7
 308              		.loc 1 363 30 view .LVU93
 309 00cc ADF85030 		strh	r3, [sp, #80]	@ movhi
 364:lvgl/src/extra/widgets/meter/lv_meter.c ****         part_draw_dsc.sub_part_ptr = indic;
 310              		.loc 1 364 9 is_stmt 1 view .LVU94
ARM GAS  C:\usertemp\ccXAVGrP.s 			page 32


 311              		.loc 1 364 36 is_stmt 0 view .LVU95
 312 00d0 1694     		str	r4, [sp, #88]
 365:lvgl/src/extra/widgets/meter/lv_meter.c ****         part_draw_dsc.p1 = &scale_center;
 313              		.loc 1 365 9 is_stmt 1 view .LVU96
 314              		.loc 1 365 26 is_stmt 0 view .LVU97
 315 00d2 0DF15C09 		add	r9, sp, #92
 316 00d6 CDF83890 		str	r9, [sp, #56]
 366:lvgl/src/extra/widgets/meter/lv_meter.c **** 
 367:lvgl/src/extra/widgets/meter/lv_meter.c ****         lv_event_send(obj, LV_EVENT_DRAW_PART_BEGIN, &part_draw_dsc);
 317              		.loc 1 367 9 is_stmt 1 view .LVU98
 318 00da 05AA     		add	r2, sp, #20
 319 00dc 1A21     		movs	r1, #26
 320 00de 4046     		mov	r0, r8
 321              	.LVL36:
 322              		.loc 1 367 9 is_stmt 0 view .LVU99
 323 00e0 FFF7FEFF 		bl	lv_event_send
 324              	.LVL37:
 368:lvgl/src/extra/widgets/meter/lv_meter.c ****         lv_draw_arc(draw_ctx, &arc_dsc, &scale_center, part_draw_dsc.radius, start_angle, end_angle
 325              		.loc 1 368 9 is_stmt 1 view .LVU100
 326              		.loc 1 368 69 is_stmt 0 view .LVU101
 327 00e4 BDF95030 		ldrsh	r3, [sp, #80]
 328              		.loc 1 368 9 view .LVU102
 329 00e8 ADB2     		uxth	r5, r5
 330              	.LVL38:
 331              		.loc 1 368 9 view .LVU103
 332 00ea 0195     		str	r5, [sp, #4]
 333 00ec B6B2     		uxth	r6, r6
 334              	.LVL39:
 335              		.loc 1 368 9 view .LVU104
 336 00ee 0096     		str	r6, [sp]
 337 00f0 9BB2     		uxth	r3, r3
 338 00f2 4A46     		mov	r2, r9
 339 00f4 18A9     		add	r1, sp, #96
 340 00f6 5846     		mov	r0, fp
 341 00f8 FFF7FEFF 		bl	lv_draw_arc
 342              	.LVL40:
 369:lvgl/src/extra/widgets/meter/lv_meter.c ****         lv_event_send(obj, LV_EVENT_DRAW_PART_END, &part_draw_dsc);
 343              		.loc 1 369 9 is_stmt 1 view .LVU105
 344 00fc 05AA     		add	r2, sp, #20
 345 00fe 1B21     		movs	r1, #27
 346 0100 4046     		mov	r0, r8
 347 0102 FFF7FEFF 		bl	lv_event_send
 348              	.LVL41:
 349              	.L7:
 350              		.loc 1 369 9 is_stmt 0 view .LVU106
 351              	.LBE57:
 349:lvgl/src/extra/widgets/meter/lv_meter.c ****         if(indic->type != LV_METER_INDICATOR_TYPE_ARC) continue;
 352              		.loc 1 349 5 is_stmt 1 discriminator 2 view .LVU107
 353 0106 2146     		mov	r1, r4
 354 0108 5046     		mov	r0, r10
 355 010a FFF7FEFF 		bl	_lv_ll_get_prev
 356              	.LVL42:
 357 010e 0446     		mov	r4, r0
 358              	.LVL43:
 359              	.L6:
 349:lvgl/src/extra/widgets/meter/lv_meter.c ****         if(indic->type != LV_METER_INDICATOR_TYPE_ARC) continue;
 360              		.loc 1 349 5 discriminator 1 view .LVU108
ARM GAS  C:\usertemp\ccXAVGrP.s 			page 33


 361 0110 94B1     		cbz	r4, .L13
 362              	.LBB58:
 350:lvgl/src/extra/widgets/meter/lv_meter.c **** 
 363              		.loc 1 350 9 view .LVU109
 350:lvgl/src/extra/widgets/meter/lv_meter.c **** 
 364              		.loc 1 350 17 is_stmt 0 view .LVU110
 365 0112 2379     		ldrb	r3, [r4, #4]	@ zero_extendqisi2
 350:lvgl/src/extra/widgets/meter/lv_meter.c **** 
 366              		.loc 1 350 11 view .LVU111
 367 0114 032B     		cmp	r3, #3
 368 0116 F6D1     		bne	.L7
 352:lvgl/src/extra/widgets/meter/lv_meter.c ****         arc_dsc.width = indic->type_data.arc.width;
 369              		.loc 1 352 9 is_stmt 1 view .LVU112
 352:lvgl/src/extra/widgets/meter/lv_meter.c ****         arc_dsc.width = indic->type_data.arc.width;
 370              		.loc 1 352 23 is_stmt 0 view .LVU113
 371 0118 238B     		ldrh	r3, [r4, #24]
 372 011a ADF86030 		strh	r3, [sp, #96]	@ movhi
 353:lvgl/src/extra/widgets/meter/lv_meter.c ****         arc_dsc.opa = indic->opa > LV_OPA_MAX ? opa_main : (opa_main * indic->opa) >> 8;
 373              		.loc 1 353 9 is_stmt 1 view .LVU114
 353:lvgl/src/extra/widgets/meter/lv_meter.c ****         arc_dsc.opa = indic->opa > LV_OPA_MAX ? opa_main : (opa_main * indic->opa) >> 8;
 374              		.loc 1 353 45 is_stmt 0 view .LVU115
 375 011e B4F91030 		ldrsh	r3, [r4, #16]
 353:lvgl/src/extra/widgets/meter/lv_meter.c ****         arc_dsc.opa = indic->opa > LV_OPA_MAX ? opa_main : (opa_main * indic->opa) >> 8;
 376              		.loc 1 353 23 view .LVU116
 377 0122 ADF86230 		strh	r3, [sp, #98]	@ movhi
 354:lvgl/src/extra/widgets/meter/lv_meter.c **** 
 378              		.loc 1 354 9 is_stmt 1 view .LVU117
 354:lvgl/src/extra/widgets/meter/lv_meter.c **** 
 379              		.loc 1 354 28 is_stmt 0 view .LVU118
 380 0126 6279     		ldrb	r2, [r4, #5]	@ zero_extendqisi2
 354:lvgl/src/extra/widgets/meter/lv_meter.c **** 
 381              		.loc 1 354 21 view .LVU119
 382 0128 FD2A     		cmp	r2, #253
 383 012a B1D8     		bhi	.L10
 354:lvgl/src/extra/widgets/meter/lv_meter.c **** 
 384              		.loc 1 354 70 discriminator 1 view .LVU120
 385 012c 9DF80830 		ldrb	r3, [sp, #8]	@ zero_extendqisi2
 386 0130 02FB03F3 		mul	r3, r2, r3
 354:lvgl/src/extra/widgets/meter/lv_meter.c **** 
 387              		.loc 1 354 21 discriminator 1 view .LVU121
 388 0134 1B0A     		lsrs	r3, r3, #8
 389 0136 ACE7     		b	.L8
 390              	.L13:
 391              	.LBE58:
 370:lvgl/src/extra/widgets/meter/lv_meter.c ****     }
 371:lvgl/src/extra/widgets/meter/lv_meter.c **** }
 392              		.loc 1 371 1 view .LVU122
 393 0138 1DB0     		add	sp, sp, #116
 394              	.LCFI2:
 395              		.cfi_def_cfa_offset 36
 396              		@ sp needed
 397 013a BDE8F08F 		pop	{r4, r5, r6, r7, r8, r9, r10, fp, pc}
 398              	.LVL44:
 399              	.L15:
 400              		.loc 1 371 1 view .LVU123
 401 013e 00BF     		.align	2
 402              	.L14:
ARM GAS  C:\usertemp\ccXAVGrP.s 			page 34


 403 0140 00000000 		.word	lv_meter_class
 404              		.cfi_endproc
 405              	.LFE211:
 407              		.section	.rodata.draw_ticks_and_labels.str1.4,"aMS",%progbits,1
 408              		.align	2
 409              	.LC0:
 410 0000 256C6400 		.ascii	"%ld\000"
 411              		.section	.text.draw_ticks_and_labels,"ax",%progbits
 412              		.align	1
 413              		.syntax unified
 414              		.thumb
 415              		.thumb_func
 417              	draw_ticks_and_labels:
 418              	.LVL45:
 419              	.LFB212:
 372:lvgl/src/extra/widgets/meter/lv_meter.c **** 
 373:lvgl/src/extra/widgets/meter/lv_meter.c **** static void draw_ticks_and_labels(lv_obj_t * obj, lv_draw_ctx_t * draw_ctx, const lv_area_t * scale
 374:lvgl/src/extra/widgets/meter/lv_meter.c **** {
 420              		.loc 1 374 1 is_stmt 1 view -0
 421              		.cfi_startproc
 422              		@ args = 0, pretend = 0, frame = 336
 423              		@ frame_needed = 0, uses_anonymous_args = 0
 424              		.loc 1 374 1 is_stmt 0 view .LVU125
 425 0000 2DE9F04F 		push	{r4, r5, r6, r7, r8, r9, r10, fp, lr}
 426              	.LCFI3:
 427              		.cfi_def_cfa_offset 36
 428              		.cfi_offset 4, -36
 429              		.cfi_offset 5, -32
 430              		.cfi_offset 6, -28
 431              		.cfi_offset 7, -24
 432              		.cfi_offset 8, -20
 433              		.cfi_offset 9, -16
 434              		.cfi_offset 10, -12
 435              		.cfi_offset 11, -8
 436              		.cfi_offset 14, -4
 437 0004 D9B0     		sub	sp, sp, #356
 438              	.LCFI4:
 439              		.cfi_def_cfa_offset 392
 440 0006 0590     		str	r0, [sp, #20]
 441 0008 0A91     		str	r1, [sp, #40]
 442 000a 1046     		mov	r0, r2
 443              	.LVL46:
 375:lvgl/src/extra/widgets/meter/lv_meter.c ****     lv_meter_t * meter    = (lv_meter_t *)obj;
 444              		.loc 1 375 5 is_stmt 1 view .LVU126
 376:lvgl/src/extra/widgets/meter/lv_meter.c **** 
 377:lvgl/src/extra/widgets/meter/lv_meter.c ****     lv_point_t p_center;
 445              		.loc 1 377 5 view .LVU127
 378:lvgl/src/extra/widgets/meter/lv_meter.c ****     lv_coord_t r_edge = LV_MIN(lv_area_get_width(scale_area) / 2, lv_area_get_height(scale_area) / 
 446              		.loc 1 378 5 view .LVU128
 447              	.LBB59:
 448              	.LBI59:
 123:D:/update_2024EL/changeform/743zit6/lvgl/src/misc\lv_area.h **** {
 449              		.loc 4 123 26 view .LVU129
 450              	.LBB60:
 451              		.loc 4 125 5 view .LVU130
 452              		.loc 4 125 31 is_stmt 0 view .LVU131
 453 000c 9388     		ldrh	r3, [r2, #4]
ARM GAS  C:\usertemp\ccXAVGrP.s 			page 35


 454              		.loc 4 125 44 view .LVU132
 455 000e 1188     		ldrh	r1, [r2]
 456              	.LVL47:
 457              		.loc 4 125 36 view .LVU133
 458 0010 5B1A     		subs	r3, r3, r1
 459 0012 9BB2     		uxth	r3, r3
 460              		.loc 4 125 49 view .LVU134
 461 0014 0133     		adds	r3, r3, #1
 462              		.loc 4 125 12 view .LVU135
 463 0016 1BB2     		sxth	r3, r3
 464              	.LVL48:
 465              		.loc 4 125 12 view .LVU136
 466              	.LBE60:
 467              	.LBE59:
 468              		.loc 1 378 25 discriminator 1 view .LVU137
 469 0018 002B     		cmp	r3, #0
 470 001a 45DB     		blt	.L45
 471              	.L17:
 472 001c 5B10     		asrs	r3, r3, #1
 473              	.LVL49:
 474              	.LBB61:
 475              	.LBI61:
 126:D:/update_2024EL/changeform/743zit6/lvgl/src/misc\lv_area.h **** }
 127:D:/update_2024EL/changeform/743zit6/lvgl/src/misc\lv_area.h **** 
 128:D:/update_2024EL/changeform/743zit6/lvgl/src/misc\lv_area.h **** /**
 129:D:/update_2024EL/changeform/743zit6/lvgl/src/misc\lv_area.h ****  * Get the height of an area
 130:D:/update_2024EL/changeform/743zit6/lvgl/src/misc\lv_area.h ****  * @param area_p pointer to an area
 131:D:/update_2024EL/changeform/743zit6/lvgl/src/misc\lv_area.h ****  * @return the height of the area (if y1 == y2 -> height = 1)
 132:D:/update_2024EL/changeform/743zit6/lvgl/src/misc\lv_area.h ****  */
 133:D:/update_2024EL/changeform/743zit6/lvgl/src/misc\lv_area.h **** static inline lv_coord_t lv_area_get_height(const lv_area_t * area_p)
 476              		.loc 4 133 26 is_stmt 1 view .LVU138
 477              	.LBB62:
 134:D:/update_2024EL/changeform/743zit6/lvgl/src/misc\lv_area.h **** {
 135:D:/update_2024EL/changeform/743zit6/lvgl/src/misc\lv_area.h ****     return (lv_coord_t)(area_p->y2 - area_p->y1 + 1);
 478              		.loc 4 135 5 view .LVU139
 479              		.loc 4 135 31 is_stmt 0 view .LVU140
 480 001e C288     		ldrh	r2, [r0, #6]
 481              	.LVL50:
 482              		.loc 4 135 44 view .LVU141
 483 0020 4088     		ldrh	r0, [r0, #2]
 484              	.LVL51:
 485              		.loc 4 135 36 view .LVU142
 486 0022 121A     		subs	r2, r2, r0
 487 0024 92B2     		uxth	r2, r2
 488              		.loc 4 135 49 view .LVU143
 489 0026 0132     		adds	r2, r2, #1
 490              		.loc 4 135 12 view .LVU144
 491 0028 12B2     		sxth	r2, r2
 492              	.LVL52:
 493              		.loc 4 135 12 view .LVU145
 494              	.LBE62:
 495              	.LBE61:
 496              		.loc 1 378 25 discriminator 2 view .LVU146
 497 002a 002A     		cmp	r2, #0
 498 002c 3EDB     		blt	.L46
 499              	.L18:
 500 002e 5410     		asrs	r4, r2, #1
ARM GAS  C:\usertemp\ccXAVGrP.s 			page 36


 501              		.loc 1 378 16 discriminator 2 view .LVU147
 502 0030 B3EB620F 		cmp	r3, r2, asr #1
 503 0034 00DA     		bge	.L19
 504              		.loc 1 378 16 discriminator 1 view .LVU148
 505 0036 1C46     		mov	r4, r3
 506              	.L19:
 507              	.LVL53:
 379:lvgl/src/extra/widgets/meter/lv_meter.c ****     p_center.x = scale_area->x1 + r_edge;
 508              		.loc 1 379 5 is_stmt 1 view .LVU149
 509              		.loc 1 379 33 is_stmt 0 view .LVU150
 510 0038 1FFA84F8 		uxth	r8, r4
 511 003c 4144     		add	r1, r1, r8
 512              		.loc 1 379 16 view .LVU151
 513 003e ADF85C11 		strh	r1, [sp, #348]	@ movhi
 380:lvgl/src/extra/widgets/meter/lv_meter.c ****     p_center.y = scale_area->y1 + r_edge;
 514              		.loc 1 380 5 is_stmt 1 view .LVU152
 515              		.loc 1 380 33 is_stmt 0 view .LVU153
 516 0042 4044     		add	r0, r0, r8
 517              		.loc 1 380 16 view .LVU154
 518 0044 ADF85E01 		strh	r0, [sp, #350]	@ movhi
 381:lvgl/src/extra/widgets/meter/lv_meter.c **** 
 382:lvgl/src/extra/widgets/meter/lv_meter.c ****     uint8_t i;
 519              		.loc 1 382 5 is_stmt 1 view .LVU155
 383:lvgl/src/extra/widgets/meter/lv_meter.c **** 
 384:lvgl/src/extra/widgets/meter/lv_meter.c ****     lv_draw_line_dsc_t line_dsc;
 520              		.loc 1 384 5 view .LVU156
 385:lvgl/src/extra/widgets/meter/lv_meter.c ****     lv_draw_line_dsc_init(&line_dsc);
 521              		.loc 1 385 5 view .LVU157
 522 0048 54AC     		add	r4, sp, #336
 523              	.LVL54:
 524              		.loc 1 385 5 is_stmt 0 view .LVU158
 525 004a 2046     		mov	r0, r4
 526 004c FFF7FEFF 		bl	lv_draw_line_dsc_init
 527              	.LVL55:
 386:lvgl/src/extra/widgets/meter/lv_meter.c ****     lv_obj_init_draw_line_dsc(obj, LV_PART_TICKS, &line_dsc);
 528              		.loc 1 386 5 is_stmt 1 view .LVU159
 529 0050 2246     		mov	r2, r4
 530 0052 4FF4C021 		mov	r1, #393216
 531 0056 059D     		ldr	r5, [sp, #20]
 532 0058 2846     		mov	r0, r5
 533 005a FFF7FEFF 		bl	lv_obj_init_draw_line_dsc
 534              	.LVL56:
 387:lvgl/src/extra/widgets/meter/lv_meter.c ****     line_dsc.raw_end = 1;
 535              		.loc 1 387 5 view .LVU160
 536              		.loc 1 387 22 is_stmt 0 view .LVU161
 537 005e 9DF85931 		ldrb	r3, [sp, #345]	@ zero_extendqisi2
 538 0062 43F01003 		orr	r3, r3, #16
 539 0066 8DF85931 		strb	r3, [sp, #345]
 388:lvgl/src/extra/widgets/meter/lv_meter.c **** 
 389:lvgl/src/extra/widgets/meter/lv_meter.c ****     lv_draw_label_dsc_t label_dsc;
 540              		.loc 1 389 5 is_stmt 1 view .LVU162
 390:lvgl/src/extra/widgets/meter/lv_meter.c ****     lv_draw_label_dsc_init(&label_dsc);
 541              		.loc 1 390 5 view .LVU163
 542 006a 4CA8     		add	r0, sp, #304
 543 006c FFF7FEFF 		bl	lv_draw_label_dsc_init
 544              	.LVL57:
 391:lvgl/src/extra/widgets/meter/lv_meter.c ****     lv_obj_init_draw_label_dsc(obj, LV_PART_TICKS, &label_dsc);
ARM GAS  C:\usertemp\ccXAVGrP.s 			page 37


 545              		.loc 1 391 5 view .LVU164
 546 0070 4CAA     		add	r2, sp, #304
 547 0072 4FF4C021 		mov	r1, #393216
 548 0076 2846     		mov	r0, r5
 549 0078 FFF7FEFF 		bl	lv_obj_init_draw_label_dsc
 550              	.LVL58:
 392:lvgl/src/extra/widgets/meter/lv_meter.c **** 
 393:lvgl/src/extra/widgets/meter/lv_meter.c ****     lv_meter_scale_t * scale;
 551              		.loc 1 393 5 view .LVU165
 394:lvgl/src/extra/widgets/meter/lv_meter.c **** 
 395:lvgl/src/extra/widgets/meter/lv_meter.c ****     lv_draw_mask_radius_param_t inner_minor_mask;
 552              		.loc 1 395 5 view .LVU166
 396:lvgl/src/extra/widgets/meter/lv_meter.c ****     lv_draw_mask_radius_param_t inner_major_mask;
 553              		.loc 1 396 5 view .LVU167
 397:lvgl/src/extra/widgets/meter/lv_meter.c ****     lv_draw_mask_radius_param_t outer_mask;
 554              		.loc 1 397 5 view .LVU168
 398:lvgl/src/extra/widgets/meter/lv_meter.c **** 
 399:lvgl/src/extra/widgets/meter/lv_meter.c ****     lv_obj_draw_part_dsc_t part_draw_dsc;
 555              		.loc 1 399 5 view .LVU169
 400:lvgl/src/extra/widgets/meter/lv_meter.c ****     lv_obj_draw_dsc_init(&part_draw_dsc, draw_ctx);
 556              		.loc 1 400 5 view .LVU170
 557 007c 0A99     		ldr	r1, [sp, #40]
 558 007e 28A8     		add	r0, sp, #160
 559 0080 FFF7FEFF 		bl	lv_obj_draw_dsc_init
 560              	.LVL59:
 401:lvgl/src/extra/widgets/meter/lv_meter.c ****     part_draw_dsc.class_p = MY_CLASS;
 561              		.loc 1 401 5 view .LVU171
 562              		.loc 1 401 27 is_stmt 0 view .LVU172
 563 0084 C04B     		ldr	r3, .L53
 564 0086 2993     		str	r3, [sp, #164]
 402:lvgl/src/extra/widgets/meter/lv_meter.c ****     part_draw_dsc.part = LV_PART_TICKS;
 565              		.loc 1 402 5 is_stmt 1 view .LVU173
 566              		.loc 1 402 24 is_stmt 0 view .LVU174
 567 0088 4FF4C023 		mov	r3, #393216
 568 008c 3593     		str	r3, [sp, #212]
 403:lvgl/src/extra/widgets/meter/lv_meter.c ****     part_draw_dsc.type = LV_METER_DRAW_PART_TICK;
 569              		.loc 1 403 5 is_stmt 1 view .LVU175
 570              		.loc 1 403 24 is_stmt 0 view .LVU176
 571 008e 0323     		movs	r3, #3
 572 0090 2A93     		str	r3, [sp, #168]
 404:lvgl/src/extra/widgets/meter/lv_meter.c ****     part_draw_dsc.line_dsc = &line_dsc;
 573              		.loc 1 404 5 is_stmt 1 view .LVU177
 574              		.loc 1 404 28 is_stmt 0 view .LVU178
 575 0092 2E94     		str	r4, [sp, #184]
 405:lvgl/src/extra/widgets/meter/lv_meter.c **** 
 406:lvgl/src/extra/widgets/meter/lv_meter.c ****     _LV_LL_READ_BACK(&meter->scale_ll, scale) {
 576              		.loc 1 406 5 is_stmt 1 view .LVU179
 577 0094 2B46     		mov	r3, r5
 578 0096 2433     		adds	r3, r3, #36
 579 0098 0E93     		str	r3, [sp, #56]
 580 009a 1846     		mov	r0, r3
 581 009c FFF7FEFF 		bl	_lv_ll_get_tail
 582              	.LVL60:
 583              		.loc 1 406 5 is_stmt 0 view .LVU180
 584 00a0 CDF83C80 		str	r8, [sp, #60]
 585 00a4 8146     		mov	r9, r0
 586 00a6 99E1     		b	.L20
ARM GAS  C:\usertemp\ccXAVGrP.s 			page 38


 587              	.LVL61:
 588              	.L45:
 378:lvgl/src/extra/widgets/meter/lv_meter.c ****     p_center.x = scale_area->x1 + r_edge;
 589              		.loc 1 378 25 discriminator 1 view .LVU181
 590 00a8 0133     		adds	r3, r3, #1
 591 00aa B7E7     		b	.L17
 592              	.LVL62:
 593              	.L46:
 378:lvgl/src/extra/widgets/meter/lv_meter.c ****     p_center.x = scale_area->x1 + r_edge;
 594              		.loc 1 378 25 discriminator 2 view .LVU182
 595 00ac 0132     		adds	r2, r2, #1
 596 00ae BEE7     		b	.L18
 597              	.LVL63:
 598              	.L42:
 599              	.LBB63:
 600              	.LBB64:
 407:lvgl/src/extra/widgets/meter/lv_meter.c ****         part_draw_dsc.sub_part_ptr = scale;
 408:lvgl/src/extra/widgets/meter/lv_meter.c **** 
 409:lvgl/src/extra/widgets/meter/lv_meter.c ****         lv_coord_t r_out = r_edge + scale->r_mod;
 410:lvgl/src/extra/widgets/meter/lv_meter.c ****         lv_coord_t r_in_minor = r_out - scale->tick_length;
 411:lvgl/src/extra/widgets/meter/lv_meter.c ****         lv_coord_t r_in_major = r_out - scale->tick_major_length;
 412:lvgl/src/extra/widgets/meter/lv_meter.c **** 
 413:lvgl/src/extra/widgets/meter/lv_meter.c ****         lv_area_t area_inner_minor;
 414:lvgl/src/extra/widgets/meter/lv_meter.c ****         area_inner_minor.x1 = p_center.x - r_in_minor;
 415:lvgl/src/extra/widgets/meter/lv_meter.c ****         area_inner_minor.y1 = p_center.y - r_in_minor;
 416:lvgl/src/extra/widgets/meter/lv_meter.c ****         area_inner_minor.x2 = p_center.x + r_in_minor;
 417:lvgl/src/extra/widgets/meter/lv_meter.c ****         area_inner_minor.y2 = p_center.y + r_in_minor;
 418:lvgl/src/extra/widgets/meter/lv_meter.c ****         lv_draw_mask_radius_init(&inner_minor_mask, &area_inner_minor, LV_RADIUS_CIRCLE, true);
 419:lvgl/src/extra/widgets/meter/lv_meter.c **** 
 420:lvgl/src/extra/widgets/meter/lv_meter.c ****         lv_area_t area_inner_major;
 421:lvgl/src/extra/widgets/meter/lv_meter.c ****         area_inner_major.x1 = p_center.x - r_in_major;
 422:lvgl/src/extra/widgets/meter/lv_meter.c ****         area_inner_major.y1 = p_center.y - r_in_major;
 423:lvgl/src/extra/widgets/meter/lv_meter.c ****         area_inner_major.x2 = p_center.x + r_in_major - 1;
 424:lvgl/src/extra/widgets/meter/lv_meter.c ****         area_inner_major.y2 = p_center.y + r_in_major - 1;
 425:lvgl/src/extra/widgets/meter/lv_meter.c ****         lv_draw_mask_radius_init(&inner_major_mask, &area_inner_major, LV_RADIUS_CIRCLE, true);
 426:lvgl/src/extra/widgets/meter/lv_meter.c **** 
 427:lvgl/src/extra/widgets/meter/lv_meter.c ****         lv_area_t area_outer;
 428:lvgl/src/extra/widgets/meter/lv_meter.c ****         area_outer.x1 = p_center.x - r_out;
 429:lvgl/src/extra/widgets/meter/lv_meter.c ****         area_outer.y1 = p_center.y - r_out;
 430:lvgl/src/extra/widgets/meter/lv_meter.c ****         area_outer.x2 = p_center.x + r_out - 1;
 431:lvgl/src/extra/widgets/meter/lv_meter.c ****         area_outer.y2 = p_center.y + r_out - 1;
 432:lvgl/src/extra/widgets/meter/lv_meter.c ****         lv_draw_mask_radius_init(&outer_mask, &area_outer, LV_RADIUS_CIRCLE, false);
 433:lvgl/src/extra/widgets/meter/lv_meter.c ****         int16_t outer_mask_id = lv_draw_mask_add(&outer_mask, NULL);
 434:lvgl/src/extra/widgets/meter/lv_meter.c **** 
 435:lvgl/src/extra/widgets/meter/lv_meter.c ****         int16_t inner_act_mask_id = LV_MASK_ID_INV; /*Will be added later*/
 436:lvgl/src/extra/widgets/meter/lv_meter.c **** 
 437:lvgl/src/extra/widgets/meter/lv_meter.c ****         uint32_t minor_cnt = scale->tick_major_nth ? scale->tick_major_nth - 1 : 0xFFFF;
 438:lvgl/src/extra/widgets/meter/lv_meter.c ****         for(i = 0; i < scale->tick_cnt; i++) {
 439:lvgl/src/extra/widgets/meter/lv_meter.c ****             minor_cnt++;
 440:lvgl/src/extra/widgets/meter/lv_meter.c ****             bool major = false;
 441:lvgl/src/extra/widgets/meter/lv_meter.c ****             if(minor_cnt == scale->tick_major_nth) {
 442:lvgl/src/extra/widgets/meter/lv_meter.c ****                 minor_cnt = 0;
 443:lvgl/src/extra/widgets/meter/lv_meter.c ****                 major = true;
 601              		.loc 1 443 23 view .LVU183
 602 00b0 0123     		movs	r3, #1
 603 00b2 0493     		str	r3, [sp, #16]
 442:lvgl/src/extra/widgets/meter/lv_meter.c ****                 major = true;
ARM GAS  C:\usertemp\ccXAVGrP.s 			page 39


 604              		.loc 1 442 27 view .LVU184
 605 00b4 0023     		movs	r3, #0
 606 00b6 0793     		str	r3, [sp, #28]
 607 00b8 3DE1     		b	.L22
 608              	.LVL64:
 609              	.L23:
 444:lvgl/src/extra/widgets/meter/lv_meter.c ****             }
 445:lvgl/src/extra/widgets/meter/lv_meter.c **** 
 446:lvgl/src/extra/widgets/meter/lv_meter.c ****             int32_t value_of_line = lv_map(i, 0, scale->tick_cnt - 1, scale->min, scale->max);
 447:lvgl/src/extra/widgets/meter/lv_meter.c ****             part_draw_dsc.value = value_of_line;
 448:lvgl/src/extra/widgets/meter/lv_meter.c **** 
 449:lvgl/src/extra/widgets/meter/lv_meter.c ****             lv_color_t line_color = major ? scale->tick_major_color : scale->tick_color;
 610              		.loc 1 449 24 discriminator 2 view .LVU185
 611 00ba B9F80030 		ldrh	r3, [r9]
 612              	.LVL65:
 613              		.loc 1 449 24 discriminator 2 view .LVU186
 614 00be ADF82430 		strh	r3, [sp, #36]	@ movhi
 615 00c2 4DE1     		b	.L24
 616              	.LVL66:
 617              	.L25:
 450:lvgl/src/extra/widgets/meter/lv_meter.c ****             lv_color_t line_color_ori = line_color;
 451:lvgl/src/extra/widgets/meter/lv_meter.c **** 
 452:lvgl/src/extra/widgets/meter/lv_meter.c ****             lv_coord_t line_width_ori = major ? scale->tick_major_width : scale->tick_width;
 618              		.loc 1 452 24 discriminator 2 view .LVU187
 619 00c4 B9F90630 		ldrsh	r3, [r9, #6]
 620 00c8 0693     		str	r3, [sp, #24]
 621 00ca 54E1     		b	.L26
 622              	.LVL67:
 623              	.L48:
 453:lvgl/src/extra/widgets/meter/lv_meter.c ****             lv_coord_t line_width = line_width_ori;
 454:lvgl/src/extra/widgets/meter/lv_meter.c **** 
 455:lvgl/src/extra/widgets/meter/lv_meter.c ****             lv_meter_indicator_t * indic;
 456:lvgl/src/extra/widgets/meter/lv_meter.c ****             _LV_LL_READ_BACK(&meter->indicator_ll, indic) {
 457:lvgl/src/extra/widgets/meter/lv_meter.c ****                 if(indic->type != LV_METER_INDICATOR_TYPE_SCALE_LINES) continue;
 458:lvgl/src/extra/widgets/meter/lv_meter.c ****                 if(value_of_line >= indic->start_value && value_of_line <= indic->end_value) {
 459:lvgl/src/extra/widgets/meter/lv_meter.c ****                     line_width += indic->type_data.scale_lines.width_mod;
 460:lvgl/src/extra/widgets/meter/lv_meter.c **** 
 461:lvgl/src/extra/widgets/meter/lv_meter.c ****                     if(indic->type_data.scale_lines.color_start.full == indic->type_data.scale_line
 462:lvgl/src/extra/widgets/meter/lv_meter.c ****                         line_color = indic->type_data.scale_lines.color_start;
 624              		.loc 1 462 25 is_stmt 1 view .LVU188
 625              		.loc 1 462 36 is_stmt 0 view .LVU189
 626 00cc 638A     		ldrh	r3, [r4, #18]
 627              	.LVL68:
 628              		.loc 1 462 36 view .LVU190
 629 00ce ADF82430 		strh	r3, [sp, #36]	@ movhi
 630 00d2 10E0     		b	.L28
 631              	.LVL69:
 632              	.L30:
 633              	.LBB65:
 463:lvgl/src/extra/widgets/meter/lv_meter.c ****                     }
 464:lvgl/src/extra/widgets/meter/lv_meter.c ****                     else {
 465:lvgl/src/extra/widgets/meter/lv_meter.c ****                         lv_opa_t ratio;
 466:lvgl/src/extra/widgets/meter/lv_meter.c ****                         if(indic->type_data.scale_lines.local_grad) {
 467:lvgl/src/extra/widgets/meter/lv_meter.c ****                             ratio = lv_map(value_of_line, indic->start_value, indic->end_value, LV_
 468:lvgl/src/extra/widgets/meter/lv_meter.c ****                         }
 469:lvgl/src/extra/widgets/meter/lv_meter.c ****                         else {
 470:lvgl/src/extra/widgets/meter/lv_meter.c ****                             ratio = lv_map(value_of_line, scale->min, scale->max, LV_OPA_TRANSP, LV
ARM GAS  C:\usertemp\ccXAVGrP.s 			page 40


 634              		.loc 1 470 29 is_stmt 1 view .LVU191
 635              		.loc 1 470 37 is_stmt 0 view .LVU192
 636 00d4 D9F81820 		ldr	r2, [r9, #24]
 637 00d8 D9F81410 		ldr	r1, [r9, #20]
 638 00dc FF23     		movs	r3, #255
 639 00de 0093     		str	r3, [sp]
 640 00e0 0023     		movs	r3, #0
 641 00e2 3846     		mov	r0, r7
 642 00e4 FFF7FEFF 		bl	lv_map
 643              	.LVL70:
 644              		.loc 1 470 35 discriminator 1 view .LVU193
 645 00e8 C2B2     		uxtb	r2, r0
 646              	.LVL71:
 647              	.L31:
 471:lvgl/src/extra/widgets/meter/lv_meter.c ****                         }
 472:lvgl/src/extra/widgets/meter/lv_meter.c ****                         line_color = lv_color_mix(indic->type_data.scale_lines.color_end, indic->ty
 648              		.loc 1 472 25 is_stmt 1 view .LVU194
 649              		.loc 1 472 38 is_stmt 0 view .LVU195
 650 00ea 618A     		ldrh	r1, [r4, #18]
 651 00ec A08A     		ldrh	r0, [r4, #20]
 652 00ee FFF7FEFF 		bl	lv_color_mix
 653              	.LVL72:
 654              		.loc 1 472 38 view .LVU196
 655 00f2 ADF82400 		strh	r0, [sp, #36]	@ movhi
 656              	.LVL73:
 657              	.L28:
 658              		.loc 1 472 38 view .LVU197
 659              	.LBE65:
 456:lvgl/src/extra/widgets/meter/lv_meter.c ****                 if(indic->type != LV_METER_INDICATOR_TYPE_SCALE_LINES) continue;
 660              		.loc 1 456 13 is_stmt 1 discriminator 2 view .LVU198
 661 00f6 2146     		mov	r1, r4
 662 00f8 3046     		mov	r0, r6
 663 00fa FFF7FEFF 		bl	_lv_ll_get_prev
 664              	.LVL74:
 456:lvgl/src/extra/widgets/meter/lv_meter.c ****                 if(indic->type != LV_METER_INDICATOR_TYPE_SCALE_LINES) continue;
 665              		.loc 1 456 13 is_stmt 0 discriminator 2 view .LVU199
 666 00fe 0446     		mov	r4, r0
 667              	.LVL75:
 668              	.L27:
 456:lvgl/src/extra/widgets/meter/lv_meter.c ****                 if(indic->type != LV_METER_INDICATOR_TYPE_SCALE_LINES) continue;
 669              		.loc 1 456 13 is_stmt 1 discriminator 1 view .LVU200
 670 0100 DCB1     		cbz	r4, .L47
 457:lvgl/src/extra/widgets/meter/lv_meter.c ****                 if(value_of_line >= indic->start_value && value_of_line <= indic->end_value) {
 671              		.loc 1 457 17 view .LVU201
 457:lvgl/src/extra/widgets/meter/lv_meter.c ****                 if(value_of_line >= indic->start_value && value_of_line <= indic->end_value) {
 672              		.loc 1 457 25 is_stmt 0 view .LVU202
 673 0102 2379     		ldrb	r3, [r4, #4]	@ zero_extendqisi2
 457:lvgl/src/extra/widgets/meter/lv_meter.c ****                 if(value_of_line >= indic->start_value && value_of_line <= indic->end_value) {
 674              		.loc 1 457 19 view .LVU203
 675 0104 022B     		cmp	r3, #2
 676 0106 F6D1     		bne	.L28
 458:lvgl/src/extra/widgets/meter/lv_meter.c ****                     line_width += indic->type_data.scale_lines.width_mod;
 677              		.loc 1 458 17 is_stmt 1 view .LVU204
 458:lvgl/src/extra/widgets/meter/lv_meter.c ****                     line_width += indic->type_data.scale_lines.width_mod;
 678              		.loc 1 458 42 is_stmt 0 view .LVU205
 679 0108 A168     		ldr	r1, [r4, #8]
 458:lvgl/src/extra/widgets/meter/lv_meter.c ****                     line_width += indic->type_data.scale_lines.width_mod;
ARM GAS  C:\usertemp\ccXAVGrP.s 			page 41


 680              		.loc 1 458 19 view .LVU206
 681 010a B942     		cmp	r1, r7
 682 010c F3DC     		bgt	.L28
 458:lvgl/src/extra/widgets/meter/lv_meter.c ****                     line_width += indic->type_data.scale_lines.width_mod;
 683              		.loc 1 458 81 discriminator 1 view .LVU207
 684 010e E268     		ldr	r2, [r4, #12]
 458:lvgl/src/extra/widgets/meter/lv_meter.c ****                     line_width += indic->type_data.scale_lines.width_mod;
 685              		.loc 1 458 56 discriminator 1 view .LVU208
 686 0110 BA42     		cmp	r2, r7
 687 0112 F0DB     		blt	.L28
 459:lvgl/src/extra/widgets/meter/lv_meter.c **** 
 688              		.loc 1 459 21 is_stmt 1 view .LVU209
 459:lvgl/src/extra/widgets/meter/lv_meter.c **** 
 689              		.loc 1 459 63 is_stmt 0 view .LVU210
 690 0114 238A     		ldrh	r3, [r4, #16]
 459:lvgl/src/extra/widgets/meter/lv_meter.c **** 
 691              		.loc 1 459 32 view .LVU211
 692 0116 2B44     		add	r3, r3, r5
 693 0118 1DB2     		sxth	r5, r3
 694              	.LVL76:
 461:lvgl/src/extra/widgets/meter/lv_meter.c ****                         line_color = indic->type_data.scale_lines.color_start;
 695              		.loc 1 461 21 is_stmt 1 view .LVU212
 461:lvgl/src/extra/widgets/meter/lv_meter.c ****                         line_color = indic->type_data.scale_lines.color_start;
 696              		.loc 1 461 64 is_stmt 0 view .LVU213
 697 011a 608A     		ldrh	r0, [r4, #18]
 698              	.LVL77:
 461:lvgl/src/extra/widgets/meter/lv_meter.c ****                         line_color = indic->type_data.scale_lines.color_start;
 699              		.loc 1 461 111 view .LVU214
 700 011c A38A     		ldrh	r3, [r4, #20]
 461:lvgl/src/extra/widgets/meter/lv_meter.c ****                         line_color = indic->type_data.scale_lines.color_start;
 701              		.loc 1 461 23 view .LVU215
 702 011e 9842     		cmp	r0, r3
 703 0120 D4D0     		beq	.L48
 704              	.LBB66:
 465:lvgl/src/extra/widgets/meter/lv_meter.c ****                         if(indic->type_data.scale_lines.local_grad) {
 705              		.loc 1 465 25 is_stmt 1 view .LVU216
 466:lvgl/src/extra/widgets/meter/lv_meter.c ****                             ratio = lv_map(value_of_line, indic->start_value, indic->end_value, LV_
 706              		.loc 1 466 25 view .LVU217
 466:lvgl/src/extra/widgets/meter/lv_meter.c ****                             ratio = lv_map(value_of_line, indic->start_value, indic->end_value, LV_
 707              		.loc 1 466 28 is_stmt 0 view .LVU218
 708 0122 A37D     		ldrb	r3, [r4, #22]	@ zero_extendqisi2
 466:lvgl/src/extra/widgets/meter/lv_meter.c ****                             ratio = lv_map(value_of_line, indic->start_value, indic->end_value, LV_
 709              		.loc 1 466 27 view .LVU219
 710 0124 13F0010F 		tst	r3, #1
 711 0128 D4D0     		beq	.L30
 467:lvgl/src/extra/widgets/meter/lv_meter.c ****                         }
 712              		.loc 1 467 29 is_stmt 1 view .LVU220
 467:lvgl/src/extra/widgets/meter/lv_meter.c ****                         }
 713              		.loc 1 467 37 is_stmt 0 view .LVU221
 714 012a FF23     		movs	r3, #255
 715 012c 0093     		str	r3, [sp]
 716 012e 0023     		movs	r3, #0
 717 0130 3846     		mov	r0, r7
 718 0132 FFF7FEFF 		bl	lv_map
 719              	.LVL78:
 467:lvgl/src/extra/widgets/meter/lv_meter.c ****                         }
 720              		.loc 1 467 35 discriminator 1 view .LVU222
ARM GAS  C:\usertemp\ccXAVGrP.s 			page 42


 721 0136 C2B2     		uxtb	r2, r0
 722              	.LVL79:
 467:lvgl/src/extra/widgets/meter/lv_meter.c ****                         }
 723              		.loc 1 467 35 discriminator 1 view .LVU223
 724 0138 D7E7     		b	.L31
 725              	.LVL80:
 726              	.L47:
 467:lvgl/src/extra/widgets/meter/lv_meter.c ****                         }
 727              		.loc 1 467 35 discriminator 1 view .LVU224
 728              	.LBE66:
 473:lvgl/src/extra/widgets/meter/lv_meter.c ****                     }
 474:lvgl/src/extra/widgets/meter/lv_meter.c ****                 }
 475:lvgl/src/extra/widgets/meter/lv_meter.c ****             }
 476:lvgl/src/extra/widgets/meter/lv_meter.c **** 
 477:lvgl/src/extra/widgets/meter/lv_meter.c ****             /*`* 256` for extra precision*/
 478:lvgl/src/extra/widgets/meter/lv_meter.c ****             int32_t angle_upscale = ((i * scale->angle_range) << 8) / (scale->tick_cnt - 1);
 729              		.loc 1 478 13 is_stmt 1 view .LVU225
 730              		.loc 1 478 48 is_stmt 0 view .LVU226
 731 013a B9F81E30 		ldrh	r3, [r9, #30]
 732              		.loc 1 478 41 view .LVU227
 733 013e 03FB08F4 		mul	r4, r3, r8
 734              		.loc 1 478 63 view .LVU228
 735 0142 2402     		lsls	r4, r4, #8
 736              		.loc 1 478 77 view .LVU229
 737 0144 B9F80230 		ldrh	r3, [r9, #2]
 738              		.loc 1 478 88 view .LVU230
 739 0148 013B     		subs	r3, r3, #1
 740              		.loc 1 478 21 view .LVU231
 741 014a 94FBF3F4 		sdiv	r4, r4, r3
 742              	.LVL81:
 479:lvgl/src/extra/widgets/meter/lv_meter.c **** 
 480:lvgl/src/extra/widgets/meter/lv_meter.c ****             int32_t angle_low = (angle_upscale >> 8);
 743              		.loc 1 480 13 is_stmt 1 view .LVU232
 744              		.loc 1 480 21 is_stmt 0 view .LVU233
 745 014e 2612     		asrs	r6, r4, #8
 746              	.LVL82:
 481:lvgl/src/extra/widgets/meter/lv_meter.c ****             int32_t angle_high = angle_low + 1;
 747              		.loc 1 481 13 is_stmt 1 view .LVU234
 748              		.loc 1 481 21 is_stmt 0 view .LVU235
 749 0150 06F10108 		add	r8, r6, #1
 750              	.LVL83:
 482:lvgl/src/extra/widgets/meter/lv_meter.c ****             int32_t angle_rem = angle_upscale & 0xFF;
 751              		.loc 1 482 13 is_stmt 1 view .LVU236
 752              		.loc 1 482 21 is_stmt 0 view .LVU237
 753 0154 E4B2     		uxtb	r4, r4
 754              	.LVL84:
 483:lvgl/src/extra/widgets/meter/lv_meter.c **** 
 484:lvgl/src/extra/widgets/meter/lv_meter.c ****             /*Interpolate sine and cos*/
 485:lvgl/src/extra/widgets/meter/lv_meter.c ****             int32_t sin_low = lv_trigo_sin(angle_low + scale->rotation);
 755              		.loc 1 485 13 is_stmt 1 view .LVU238
 756              		.loc 1 485 61 is_stmt 0 view .LVU239
 757 0156 B9F82000 		ldrh	r0, [r9, #32]
 758              	.LVL85:
 759              		.loc 1 485 54 view .LVU240
 760 015a B6B2     		uxth	r6, r6
 761              	.LVL86:
 762              		.loc 1 485 54 view .LVU241
ARM GAS  C:\usertemp\ccXAVGrP.s 			page 43


 763 015c 3044     		add	r0, r0, r6
 764              		.loc 1 485 31 view .LVU242
 765 015e 00B2     		sxth	r0, r0
 766 0160 FFF7FEFF 		bl	lv_trigo_sin
 767              	.LVL87:
 768              		.loc 1 485 31 view .LVU243
 769 0164 8246     		mov	r10, r0
 770              	.LVL88:
 486:lvgl/src/extra/widgets/meter/lv_meter.c ****             int32_t sin_high = lv_trigo_sin(angle_high + scale->rotation);
 771              		.loc 1 486 13 is_stmt 1 view .LVU244
 772              		.loc 1 486 63 is_stmt 0 view .LVU245
 773 0166 B9F82000 		ldrh	r0, [r9, #32]
 774              	.LVL89:
 775              		.loc 1 486 56 view .LVU246
 776 016a 1FFA88F8 		uxth	r8, r8
 777              	.LVL90:
 778              		.loc 1 486 56 view .LVU247
 779 016e 4044     		add	r0, r0, r8
 780              		.loc 1 486 32 view .LVU248
 781 0170 00B2     		sxth	r0, r0
 782 0172 FFF7FEFF 		bl	lv_trigo_sin
 783              	.LVL91:
 487:lvgl/src/extra/widgets/meter/lv_meter.c ****             int32_t sin_mid = (sin_low * (256 - angle_rem) + sin_high * angle_rem) >> 8;
 784              		.loc 1 487 13 is_stmt 1 view .LVU249
 785              		.loc 1 487 47 is_stmt 0 view .LVU250
 786 0176 C4F58073 		rsb	r3, r4, #256
 787              		.loc 1 487 71 view .LVU251
 788 017a 04FB00F0 		mul	r0, r4, r0
 789              	.LVL92:
 790              		.loc 1 487 60 view .LVU252
 791 017e 0893     		str	r3, [sp, #32]
 792 0180 0AFB030A 		mla	r10, r10, r3, r0
 793              	.LVL93:
 794              		.loc 1 487 21 view .LVU253
 795 0184 4FEA2A2A 		asr	r10, r10, #8
 796              	.LVL94:
 488:lvgl/src/extra/widgets/meter/lv_meter.c **** 
 489:lvgl/src/extra/widgets/meter/lv_meter.c ****             int32_t cos_low = lv_trigo_cos(angle_low + scale->rotation);
 797              		.loc 1 489 13 is_stmt 1 view .LVU254
 798              		.loc 1 489 61 is_stmt 0 view .LVU255
 799 0188 B9F82030 		ldrh	r3, [r9, #32]
 800              		.loc 1 489 54 view .LVU256
 801 018c F018     		adds	r0, r6, r3
 802 018e 80B2     		uxth	r0, r0
 803              	.LVL95:
 804              	.LBB67:
 805              	.LBI67:
 806              		.file 5 "lvgl/src/extra/widgets/meter/../../../../src/misc/lv_math.h"
   1:lvgl/src/extra/widgets/meter/../../../../src/misc/lv_math.h **** /**
   2:lvgl/src/extra/widgets/meter/../../../../src/misc/lv_math.h ****  * @file lv_math.h
   3:lvgl/src/extra/widgets/meter/../../../../src/misc/lv_math.h ****  *
   4:lvgl/src/extra/widgets/meter/../../../../src/misc/lv_math.h ****  */
   5:lvgl/src/extra/widgets/meter/../../../../src/misc/lv_math.h **** 
   6:lvgl/src/extra/widgets/meter/../../../../src/misc/lv_math.h **** #ifndef LV_MATH_H
   7:lvgl/src/extra/widgets/meter/../../../../src/misc/lv_math.h **** #define LV_MATH_H
   8:lvgl/src/extra/widgets/meter/../../../../src/misc/lv_math.h **** 
   9:lvgl/src/extra/widgets/meter/../../../../src/misc/lv_math.h **** #ifdef __cplusplus
ARM GAS  C:\usertemp\ccXAVGrP.s 			page 44


  10:lvgl/src/extra/widgets/meter/../../../../src/misc/lv_math.h **** extern "C" {
  11:lvgl/src/extra/widgets/meter/../../../../src/misc/lv_math.h **** #endif
  12:lvgl/src/extra/widgets/meter/../../../../src/misc/lv_math.h **** 
  13:lvgl/src/extra/widgets/meter/../../../../src/misc/lv_math.h **** /*********************
  14:lvgl/src/extra/widgets/meter/../../../../src/misc/lv_math.h ****  *      INCLUDES
  15:lvgl/src/extra/widgets/meter/../../../../src/misc/lv_math.h ****  *********************/
  16:lvgl/src/extra/widgets/meter/../../../../src/misc/lv_math.h **** #include "../lv_conf_internal.h"
  17:lvgl/src/extra/widgets/meter/../../../../src/misc/lv_math.h **** #include <stdint.h>
  18:lvgl/src/extra/widgets/meter/../../../../src/misc/lv_math.h **** 
  19:lvgl/src/extra/widgets/meter/../../../../src/misc/lv_math.h **** /*********************
  20:lvgl/src/extra/widgets/meter/../../../../src/misc/lv_math.h ****  *      DEFINES
  21:lvgl/src/extra/widgets/meter/../../../../src/misc/lv_math.h ****  *********************/
  22:lvgl/src/extra/widgets/meter/../../../../src/misc/lv_math.h **** #define LV_TRIGO_SIN_MAX 32767
  23:lvgl/src/extra/widgets/meter/../../../../src/misc/lv_math.h **** #define LV_TRIGO_SHIFT 15 /**<  >> LV_TRIGO_SHIFT to normalize*/
  24:lvgl/src/extra/widgets/meter/../../../../src/misc/lv_math.h **** 
  25:lvgl/src/extra/widgets/meter/../../../../src/misc/lv_math.h **** #define LV_BEZIER_VAL_MAX 1024 /**< Max time in Bezier functions (not [0..1] to use integers)*/
  26:lvgl/src/extra/widgets/meter/../../../../src/misc/lv_math.h **** #define LV_BEZIER_VAL_SHIFT 10 /**< log2(LV_BEZIER_VAL_MAX): used to normalize up scaled values*/
  27:lvgl/src/extra/widgets/meter/../../../../src/misc/lv_math.h **** 
  28:lvgl/src/extra/widgets/meter/../../../../src/misc/lv_math.h **** /**********************
  29:lvgl/src/extra/widgets/meter/../../../../src/misc/lv_math.h ****  *      TYPEDEFS
  30:lvgl/src/extra/widgets/meter/../../../../src/misc/lv_math.h ****  **********************/
  31:lvgl/src/extra/widgets/meter/../../../../src/misc/lv_math.h **** 
  32:lvgl/src/extra/widgets/meter/../../../../src/misc/lv_math.h **** typedef struct {
  33:lvgl/src/extra/widgets/meter/../../../../src/misc/lv_math.h ****     uint16_t i;
  34:lvgl/src/extra/widgets/meter/../../../../src/misc/lv_math.h ****     uint16_t f;
  35:lvgl/src/extra/widgets/meter/../../../../src/misc/lv_math.h **** } lv_sqrt_res_t;
  36:lvgl/src/extra/widgets/meter/../../../../src/misc/lv_math.h **** 
  37:lvgl/src/extra/widgets/meter/../../../../src/misc/lv_math.h **** /**********************
  38:lvgl/src/extra/widgets/meter/../../../../src/misc/lv_math.h ****  * GLOBAL PROTOTYPES
  39:lvgl/src/extra/widgets/meter/../../../../src/misc/lv_math.h ****  **********************/
  40:lvgl/src/extra/widgets/meter/../../../../src/misc/lv_math.h **** 
  41:lvgl/src/extra/widgets/meter/../../../../src/misc/lv_math.h **** //! @cond Doxygen_Suppress
  42:lvgl/src/extra/widgets/meter/../../../../src/misc/lv_math.h **** /**
  43:lvgl/src/extra/widgets/meter/../../../../src/misc/lv_math.h ****  * Return with sinus of an angle
  44:lvgl/src/extra/widgets/meter/../../../../src/misc/lv_math.h ****  * @param angle
  45:lvgl/src/extra/widgets/meter/../../../../src/misc/lv_math.h ****  * @return sinus of 'angle'. sin(-90) = -32767, sin(90) = 32767
  46:lvgl/src/extra/widgets/meter/../../../../src/misc/lv_math.h ****  */
  47:lvgl/src/extra/widgets/meter/../../../../src/misc/lv_math.h **** LV_ATTRIBUTE_FAST_MEM int16_t lv_trigo_sin(int16_t angle);
  48:lvgl/src/extra/widgets/meter/../../../../src/misc/lv_math.h **** 
  49:lvgl/src/extra/widgets/meter/../../../../src/misc/lv_math.h **** static inline LV_ATTRIBUTE_FAST_MEM int16_t lv_trigo_cos(int16_t angle)
 807              		.loc 5 49 45 is_stmt 1 view .LVU257
 808              	.LBB68:
  50:lvgl/src/extra/widgets/meter/../../../../src/misc/lv_math.h **** {
  51:lvgl/src/extra/widgets/meter/../../../../src/misc/lv_math.h ****     return lv_trigo_sin(angle + 90);
 809              		.loc 5 51 5 view .LVU258
 810              		.loc 5 51 31 is_stmt 0 view .LVU259
 811 0190 5A30     		adds	r0, r0, #90
 812              	.LVL96:
 813              		.loc 5 51 12 view .LVU260
 814 0192 00B2     		sxth	r0, r0
 815              	.LVL97:
 816              		.loc 5 51 12 view .LVU261
 817 0194 FFF7FEFF 		bl	lv_trigo_sin
 818              	.LVL98:
 819              		.loc 5 51 12 view .LVU262
 820 0198 0646     		mov	r6, r0
 821              	.LVL99:
ARM GAS  C:\usertemp\ccXAVGrP.s 			page 45


 822              		.loc 5 51 12 view .LVU263
 823              	.LBE68:
 824              	.LBE67:
 490:lvgl/src/extra/widgets/meter/lv_meter.c ****             int32_t cos_high = lv_trigo_cos(angle_high + scale->rotation);
 825              		.loc 1 490 13 is_stmt 1 view .LVU264
 826              		.loc 1 490 63 is_stmt 0 view .LVU265
 827 019a B9F82030 		ldrh	r3, [r9, #32]
 828              		.loc 1 490 56 view .LVU266
 829 019e 08EB0300 		add	r0, r8, r3
 830              	.LVL100:
 831              		.loc 1 490 56 view .LVU267
 832 01a2 80B2     		uxth	r0, r0
 833              	.LVL101:
 834              	.LBB69:
 835              	.LBI69:
  49:lvgl/src/extra/widgets/meter/../../../../src/misc/lv_math.h **** {
 836              		.loc 5 49 45 is_stmt 1 view .LVU268
 837              	.LBB70:
 838              		.loc 5 51 5 view .LVU269
 839              		.loc 5 51 31 is_stmt 0 view .LVU270
 840 01a4 5A30     		adds	r0, r0, #90
 841              	.LVL102:
 842              		.loc 5 51 12 view .LVU271
 843 01a6 00B2     		sxth	r0, r0
 844              	.LVL103:
 845              		.loc 5 51 12 view .LVU272
 846 01a8 FFF7FEFF 		bl	lv_trigo_sin
 847              	.LVL104:
 848              		.loc 5 51 12 view .LVU273
 849              	.LBE70:
 850              	.LBE69:
 491:lvgl/src/extra/widgets/meter/lv_meter.c ****             int32_t cos_mid = (cos_low * (256 - angle_rem) + cos_high * angle_rem) >> 8;
 851              		.loc 1 491 13 is_stmt 1 view .LVU274
 852              		.loc 1 491 71 is_stmt 0 view .LVU275
 853 01ac 00FB04F4 		mul	r4, r0, r4
 854              	.LVL105:
 855              		.loc 1 491 60 view .LVU276
 856 01b0 089B     		ldr	r3, [sp, #32]
 857 01b2 06FB0344 		mla	r4, r6, r3, r4
 858              		.loc 1 491 21 view .LVU277
 859 01b6 2412     		asrs	r4, r4, #8
 860              	.LVL106:
 492:lvgl/src/extra/widgets/meter/lv_meter.c **** 
 493:lvgl/src/extra/widgets/meter/lv_meter.c ****             line_dsc.color = line_color;
 861              		.loc 1 493 13 is_stmt 1 view .LVU278
 862              		.loc 1 493 28 is_stmt 0 view .LVU279
 863 01b8 BDF82430 		ldrh	r3, [sp, #36]
 864              	.LVL107:
 865              		.loc 1 493 28 view .LVU280
 866 01bc ADF85031 		strh	r3, [sp, #336]	@ movhi
 494:lvgl/src/extra/widgets/meter/lv_meter.c ****             line_dsc.width = line_width;
 867              		.loc 1 494 13 is_stmt 1 view .LVU281
 868              		.loc 1 494 28 is_stmt 0 view .LVU282
 869 01c0 ADF85251 		strh	r5, [sp, #338]	@ movhi
 495:lvgl/src/extra/widgets/meter/lv_meter.c ****             /*Use the interpolated angle to get the outer x and y coordinates.
 496:lvgl/src/extra/widgets/meter/lv_meter.c ****              *Draw a little bit longer lines to be sure the mask will clip them correctly*/
 497:lvgl/src/extra/widgets/meter/lv_meter.c ****             lv_point_t p_outer;
ARM GAS  C:\usertemp\ccXAVGrP.s 			page 46


 870              		.loc 1 497 13 is_stmt 1 view .LVU283
 498:lvgl/src/extra/widgets/meter/lv_meter.c ****             p_outer.x = (int32_t)(((int32_t)cos_mid * (r_out + line_width) + 127) >> (LV_TRIGO_SHIF
 871              		.loc 1 498 13 view .LVU284
 872              		.loc 1 498 62 is_stmt 0 view .LVU285
 873 01c4 0C9B     		ldr	r3, [sp, #48]
 874              	.LVL108:
 875              		.loc 1 498 62 view .LVU286
 876 01c6 1D44     		add	r5, r5, r3
 877              	.LVL109:
 878              		.loc 1 498 53 view .LVU287
 879 01c8 04FB05F3 		mul	r3, r4, r5
 880              		.loc 1 498 76 view .LVU288
 881 01cc 7F33     		adds	r3, r3, #127
 882              		.loc 1 498 114 view .LVU289
 883 01ce BDF85C21 		ldrh	r2, [sp, #348]
 884              		.loc 1 498 104 view .LVU290
 885 01d2 02EBE332 		add	r2, r2, r3, asr #15
 886              		.loc 1 498 23 view .LVU291
 887 01d6 11AB     		add	r3, sp, #68
 888 01d8 ADF84420 		strh	r2, [sp, #68]	@ movhi
 499:lvgl/src/extra/widgets/meter/lv_meter.c ****             p_outer.y = (int32_t)(((int32_t)sin_mid * (r_out + line_width) + 127) >> (LV_TRIGO_SHIF
 889              		.loc 1 499 13 is_stmt 1 view .LVU292
 890              		.loc 1 499 53 is_stmt 0 view .LVU293
 891 01dc 0AFB05F5 		mul	r5, r10, r5
 892              		.loc 1 499 76 view .LVU294
 893 01e0 7F35     		adds	r5, r5, #127
 894              		.loc 1 499 114 view .LVU295
 895 01e2 BDF85E21 		ldrh	r2, [sp, #350]
 896              		.loc 1 499 104 view .LVU296
 897 01e6 02EBE532 		add	r2, r2, r5, asr #15
 898              		.loc 1 499 23 view .LVU297
 899 01ea ADF84620 		strh	r2, [sp, #70]	@ movhi
 500:lvgl/src/extra/widgets/meter/lv_meter.c **** 
 501:lvgl/src/extra/widgets/meter/lv_meter.c ****             part_draw_dsc.p1 = &p_outer;
 900              		.loc 1 501 13 is_stmt 1 view .LVU298
 901              		.loc 1 501 30 is_stmt 0 view .LVU299
 902 01ee 3193     		str	r3, [sp, #196]
 502:lvgl/src/extra/widgets/meter/lv_meter.c ****             part_draw_dsc.p1 = &p_center;
 903              		.loc 1 502 13 is_stmt 1 view .LVU300
 904              		.loc 1 502 30 is_stmt 0 view .LVU301
 905 01f0 57AB     		add	r3, sp, #348
 906 01f2 3193     		str	r3, [sp, #196]
 503:lvgl/src/extra/widgets/meter/lv_meter.c ****             part_draw_dsc.id = i;
 907              		.loc 1 503 13 is_stmt 1 view .LVU302
 908              		.loc 1 503 30 is_stmt 0 view .LVU303
 909 01f4 CDF8D8B0 		str	fp, [sp, #216]
 504:lvgl/src/extra/widgets/meter/lv_meter.c ****             part_draw_dsc.label_dsc = &label_dsc;
 910              		.loc 1 504 13 is_stmt 1 view .LVU304
 911              		.loc 1 504 37 is_stmt 0 view .LVU305
 912 01f8 4CAB     		add	r3, sp, #304
 913 01fa 2D93     		str	r3, [sp, #180]
 505:lvgl/src/extra/widgets/meter/lv_meter.c **** 
 506:lvgl/src/extra/widgets/meter/lv_meter.c ****             /*Draw the text*/
 507:lvgl/src/extra/widgets/meter/lv_meter.c ****             if(major) {
 914              		.loc 1 507 13 is_stmt 1 view .LVU306
 915              		.loc 1 507 15 is_stmt 0 view .LVU307
 916 01fc 049B     		ldr	r3, [sp, #16]
ARM GAS  C:\usertemp\ccXAVGrP.s 			page 47


 917 01fe 002B     		cmp	r3, #0
 918 0200 00F0CA80 		beq	.L33
 919              	.LBB71:
 508:lvgl/src/extra/widgets/meter/lv_meter.c ****                 lv_draw_mask_remove_id(outer_mask_id);
 920              		.loc 1 508 17 is_stmt 1 view .LVU308
 921 0204 0B98     		ldr	r0, [sp, #44]
 922              	.LVL110:
 923              		.loc 1 508 17 is_stmt 0 view .LVU309
 924 0206 FFF7FEFF 		bl	lv_draw_mask_remove_id
 925              	.LVL111:
 509:lvgl/src/extra/widgets/meter/lv_meter.c ****                 uint32_t r_text = r_in_major - scale->label_gap;
 926              		.loc 1 509 17 is_stmt 1 view .LVU310
 927              		.loc 1 509 53 is_stmt 0 view .LVU311
 928 020a B9F91030 		ldrsh	r3, [r9, #16]
 929              		.loc 1 509 46 view .LVU312
 930 020e 0D9A     		ldr	r2, [sp, #52]
 931 0210 D31A     		subs	r3, r2, r3
 932              	.LVL112:
 510:lvgl/src/extra/widgets/meter/lv_meter.c ****                 lv_point_t p;
 933              		.loc 1 510 17 is_stmt 1 view .LVU313
 511:lvgl/src/extra/widgets/meter/lv_meter.c ****                 p.x = (int32_t)((int32_t)((int32_t)cos_mid * r_text + 127) >> LV_TRIGO_SHIFT) + p_c
 934              		.loc 1 511 17 view .LVU314
 935              		.loc 1 511 60 is_stmt 0 view .LVU315
 936 0212 03FB04F4 		mul	r4, r3, r4
 937              	.LVL113:
 938              		.loc 1 511 69 view .LVU316
 939 0216 7F34     		adds	r4, r4, #127
 940              		.loc 1 511 105 view .LVU317
 941 0218 BDF85C21 		ldrh	r2, [sp, #348]
 942              		.loc 1 511 95 view .LVU318
 943 021c 02EBE432 		add	r2, r2, r4, asr #15
 944 0220 95B2     		uxth	r5, r2
 945              		.loc 1 511 21 view .LVU319
 946 0222 ADF84820 		strh	r2, [sp, #72]	@ movhi
 512:lvgl/src/extra/widgets/meter/lv_meter.c ****                 p.y = (int32_t)((int32_t)((int32_t)sin_mid * r_text + 127) >> LV_TRIGO_SHIFT) + p_c
 947              		.loc 1 512 17 is_stmt 1 view .LVU320
 948              		.loc 1 512 60 is_stmt 0 view .LVU321
 949 0226 03FB0AFA 		mul	r10, r3, r10
 950              	.LVL114:
 951              		.loc 1 512 69 view .LVU322
 952 022a 0AF17F0A 		add	r10, r10, #127
 953              		.loc 1 512 105 view .LVU323
 954 022e BDF85E31 		ldrh	r3, [sp, #350]
 955              	.LVL115:
 956              		.loc 1 512 95 view .LVU324
 957 0232 03EBEA33 		add	r3, r3, r10, asr #15
 958 0236 9CB2     		uxth	r4, r3
 959              		.loc 1 512 21 view .LVU325
 960 0238 ADF84A30 		strh	r3, [sp, #74]	@ movhi
 513:lvgl/src/extra/widgets/meter/lv_meter.c **** 
 514:lvgl/src/extra/widgets/meter/lv_meter.c ****                 lv_draw_label_dsc_t label_dsc_tmp;
 961              		.loc 1 514 17 is_stmt 1 view .LVU326
 515:lvgl/src/extra/widgets/meter/lv_meter.c ****                 lv_memcpy(&label_dsc_tmp, &label_dsc, sizeof(label_dsc_tmp));
 962              		.loc 1 515 17 view .LVU327
 963 023c 20AE     		add	r6, sp, #128
 964              	.LVL116:
 965              		.loc 1 515 17 is_stmt 0 view .LVU328
ARM GAS  C:\usertemp\ccXAVGrP.s 			page 48


 966 023e 2022     		movs	r2, #32
 967 0240 4CA9     		add	r1, sp, #304
 968 0242 3046     		mov	r0, r6
 969 0244 FFF7FEFF 		bl	lv_memcpy
 970              	.LVL117:
 516:lvgl/src/extra/widgets/meter/lv_meter.c **** 
 517:lvgl/src/extra/widgets/meter/lv_meter.c ****                 part_draw_dsc.label_dsc = &label_dsc_tmp;
 971              		.loc 1 517 17 is_stmt 1 view .LVU329
 972              		.loc 1 517 41 is_stmt 0 view .LVU330
 973 0248 2D96     		str	r6, [sp, #180]
 518:lvgl/src/extra/widgets/meter/lv_meter.c ****                 char buf[16];
 974              		.loc 1 518 17 is_stmt 1 view .LVU331
 519:lvgl/src/extra/widgets/meter/lv_meter.c **** 
 520:lvgl/src/extra/widgets/meter/lv_meter.c ****                 lv_snprintf(buf, sizeof(buf), "%" LV_PRId32, value_of_line);
 975              		.loc 1 520 17 view .LVU332
 976 024a 1CAE     		add	r6, sp, #112
 977 024c 3B46     		mov	r3, r7
 978 024e 4F4A     		ldr	r2, .L53+4
 979 0250 1021     		movs	r1, #16
 980 0252 3046     		mov	r0, r6
 981 0254 FFF7FEFF 		bl	snprintf
 982              	.LVL118:
 521:lvgl/src/extra/widgets/meter/lv_meter.c ****                 part_draw_dsc.text = buf;
 983              		.loc 1 521 17 view .LVU333
 984              		.loc 1 521 36 is_stmt 0 view .LVU334
 985 0258 3396     		str	r6, [sp, #204]
 522:lvgl/src/extra/widgets/meter/lv_meter.c **** 
 523:lvgl/src/extra/widgets/meter/lv_meter.c ****                 lv_event_send(obj, LV_EVENT_DRAW_PART_BEGIN, &part_draw_dsc);
 986              		.loc 1 523 17 is_stmt 1 view .LVU335
 987 025a 28AA     		add	r2, sp, #160
 988 025c 1A21     		movs	r1, #26
 989 025e 0598     		ldr	r0, [sp, #20]
 990 0260 FFF7FEFF 		bl	lv_event_send
 991              	.LVL119:
 524:lvgl/src/extra/widgets/meter/lv_meter.c **** 
 525:lvgl/src/extra/widgets/meter/lv_meter.c ****                 lv_point_t label_size;
 992              		.loc 1 525 17 view .LVU336
 526:lvgl/src/extra/widgets/meter/lv_meter.c ****                 lv_txt_get_size(&label_size, part_draw_dsc.text, label_dsc.font, label_dsc.letter_s
 993              		.loc 1 526 17 view .LVU337
 994 0264 0023     		movs	r3, #0
 995 0266 0293     		str	r3, [sp, #8]
 996 0268 41F6FF73 		movw	r3, #8191
 997 026c 0193     		str	r3, [sp, #4]
 998 026e BDF94231 		ldrsh	r3, [sp, #322]
 999 0272 0093     		str	r3, [sp]
 1000 0274 BDF94431 		ldrsh	r3, [sp, #324]
 1001 0278 4C9A     		ldr	r2, [sp, #304]
 1002 027a 3399     		ldr	r1, [sp, #204]
 1003 027c 13A8     		add	r0, sp, #76
 1004 027e FFF7FEFF 		bl	lv_txt_get_size
 1005              	.LVL120:
 527:lvgl/src/extra/widgets/meter/lv_meter.c ****                                 LV_COORD_MAX, LV_TEXT_FLAG_NONE);
 528:lvgl/src/extra/widgets/meter/lv_meter.c **** 
 529:lvgl/src/extra/widgets/meter/lv_meter.c ****                 lv_area_t label_cord;
 1006              		.loc 1 529 17 view .LVU338
 530:lvgl/src/extra/widgets/meter/lv_meter.c ****                 label_cord.x1 = p.x - label_size.x / 2;
 1007              		.loc 1 530 17 view .LVU339
ARM GAS  C:\usertemp\ccXAVGrP.s 			page 49


 1008              		.loc 1 530 49 is_stmt 0 view .LVU340
 1009 0282 BDF94C20 		ldrsh	r2, [sp, #76]
 1010              		.loc 1 530 37 view .LVU341
 1011 0286 1346     		mov	r3, r2
 1012 0288 002A     		cmp	r2, #0
 1013 028a C0F28180 		blt	.L49
 1014              	.L34:
 1015              		.loc 1 530 37 view .LVU342
 1016 028e A5EB6305 		sub	r5, r5, r3, asr #1
 1017 0292 A8B2     		uxth	r0, r5
 1018              		.loc 1 530 31 view .LVU343
 1019 0294 ADF86850 		strh	r5, [sp, #104]	@ movhi
 531:lvgl/src/extra/widgets/meter/lv_meter.c ****                 label_cord.y1 = p.y - label_size.y / 2;
 1020              		.loc 1 531 17 is_stmt 1 view .LVU344
 1021              		.loc 1 531 49 is_stmt 0 view .LVU345
 1022 0298 BDF94E30 		ldrsh	r3, [sp, #78]
 1023              		.loc 1 531 37 view .LVU346
 1024 029c 1946     		mov	r1, r3
 1025 029e 002B     		cmp	r3, #0
 1026 02a0 78DB     		blt	.L50
 1027              	.L35:
 1028 02a2 A4EB6104 		sub	r4, r4, r1, asr #1
 1029              		.loc 1 531 31 view .LVU347
 1030 02a6 ADF86A40 		strh	r4, [sp, #106]	@ movhi
 532:lvgl/src/extra/widgets/meter/lv_meter.c ****                 label_cord.x2 = label_cord.x1 + label_size.x;
 1031              		.loc 1 532 17 is_stmt 1 view .LVU348
 1032              		.loc 1 532 47 is_stmt 0 view .LVU349
 1033 02aa 10FA82F2 		uxtah	r2, r0, r2
 1034              		.loc 1 532 31 view .LVU350
 1035 02ae ADF86C20 		strh	r2, [sp, #108]	@ movhi
 533:lvgl/src/extra/widgets/meter/lv_meter.c ****                 label_cord.y2 = label_cord.y1 + label_size.y;
 1036              		.loc 1 533 17 is_stmt 1 view .LVU351
 1037              		.loc 1 533 59 is_stmt 0 view .LVU352
 1038 02b2 9BB2     		uxth	r3, r3
 1039              		.loc 1 533 47 view .LVU353
 1040 02b4 13FA84F4 		uxtah	r4, r3, r4
 1041              		.loc 1 533 31 view .LVU354
 1042 02b8 ADF86E40 		strh	r4, [sp, #110]	@ movhi
 534:lvgl/src/extra/widgets/meter/lv_meter.c **** 
 535:lvgl/src/extra/widgets/meter/lv_meter.c ****                 lv_draw_label(draw_ctx, part_draw_dsc.label_dsc, &label_cord, part_draw_dsc.text, N
 1043              		.loc 1 535 17 is_stmt 1 view .LVU355
 1044 02bc 0024     		movs	r4, #0
 1045 02be 0094     		str	r4, [sp]
 1046 02c0 339B     		ldr	r3, [sp, #204]
 1047 02c2 1AAA     		add	r2, sp, #104
 1048 02c4 2D99     		ldr	r1, [sp, #180]
 1049 02c6 0A98     		ldr	r0, [sp, #40]
 1050 02c8 FFF7FEFF 		bl	lv_draw_label
 1051              	.LVL121:
 536:lvgl/src/extra/widgets/meter/lv_meter.c **** 
 537:lvgl/src/extra/widgets/meter/lv_meter.c ****                 outer_mask_id = lv_draw_mask_add(&outer_mask, NULL);
 1052              		.loc 1 537 17 view .LVU356
 1053              		.loc 1 537 33 is_stmt 0 view .LVU357
 1054 02cc 2146     		mov	r1, r4
 1055 02ce 3AA8     		add	r0, sp, #232
 1056 02d0 FFF7FEFF 		bl	lv_draw_mask_add
 1057              	.LVL122:
ARM GAS  C:\usertemp\ccXAVGrP.s 			page 50


 1058 02d4 0B90     		str	r0, [sp, #44]
 1059              	.LVL123:
 1060              	.L36:
 1061              		.loc 1 537 33 view .LVU358
 1062              	.LBE71:
 538:lvgl/src/extra/widgets/meter/lv_meter.c ****             }
 539:lvgl/src/extra/widgets/meter/lv_meter.c ****             else {
 540:lvgl/src/extra/widgets/meter/lv_meter.c ****                 part_draw_dsc.label_dsc = NULL;
 541:lvgl/src/extra/widgets/meter/lv_meter.c ****                 part_draw_dsc.text = NULL;
 542:lvgl/src/extra/widgets/meter/lv_meter.c ****                 lv_event_send(obj, LV_EVENT_DRAW_PART_BEGIN, &part_draw_dsc);
 543:lvgl/src/extra/widgets/meter/lv_meter.c ****             }
 544:lvgl/src/extra/widgets/meter/lv_meter.c **** 
 545:lvgl/src/extra/widgets/meter/lv_meter.c ****             inner_act_mask_id = lv_draw_mask_add(major ? &inner_major_mask : &inner_minor_mask, NUL
 1063              		.loc 1 545 13 is_stmt 1 view .LVU359
 1064              		.loc 1 545 33 is_stmt 0 view .LVU360
 1065 02d6 049B     		ldr	r3, [sp, #16]
 1066 02d8 002B     		cmp	r3, #0
 1067 02da 66D0     		beq	.L43
 1068              		.loc 1 545 33 discriminator 1 view .LVU361
 1069 02dc 40A8     		add	r0, sp, #256
 1070              	.L37:
 1071              		.loc 1 545 33 discriminator 4 view .LVU362
 1072 02de 0021     		movs	r1, #0
 1073 02e0 FFF7FEFF 		bl	lv_draw_mask_add
 1074              	.LVL124:
 1075 02e4 0446     		mov	r4, r0
 1076              	.LVL125:
 546:lvgl/src/extra/widgets/meter/lv_meter.c ****             lv_draw_line(draw_ctx, &line_dsc, &p_outer, &p_center);
 1077              		.loc 1 546 13 is_stmt 1 view .LVU363
 1078 02e6 57AB     		add	r3, sp, #348
 1079 02e8 11AA     		add	r2, sp, #68
 1080 02ea 54A9     		add	r1, sp, #336
 1081 02ec 0A98     		ldr	r0, [sp, #40]
 1082 02ee FFF7FEFF 		bl	lv_draw_line
 1083              	.LVL126:
 547:lvgl/src/extra/widgets/meter/lv_meter.c ****             lv_draw_mask_remove_id(inner_act_mask_id);
 1084              		.loc 1 547 13 view .LVU364
 1085 02f2 2046     		mov	r0, r4
 1086 02f4 FFF7FEFF 		bl	lv_draw_mask_remove_id
 1087              	.LVL127:
 548:lvgl/src/extra/widgets/meter/lv_meter.c ****             lv_event_send(obj, LV_EVENT_DRAW_MAIN_END, &part_draw_dsc);
 1088              		.loc 1 548 13 view .LVU365
 1089 02f8 28AA     		add	r2, sp, #160
 1090 02fa 1621     		movs	r1, #22
 1091 02fc 0598     		ldr	r0, [sp, #20]
 1092 02fe FFF7FEFF 		bl	lv_event_send
 1093              	.LVL128:
 549:lvgl/src/extra/widgets/meter/lv_meter.c **** 
 550:lvgl/src/extra/widgets/meter/lv_meter.c ****             line_dsc.color = line_color_ori;
 1094              		.loc 1 550 13 view .LVU366
 1095              		.loc 1 550 28 is_stmt 0 view .LVU367
 1096 0302 BDF82630 		ldrh	r3, [sp, #38]
 1097              	.LVL129:
 1098              		.loc 1 550 28 view .LVU368
 1099 0306 ADF85031 		strh	r3, [sp, #336]	@ movhi
 551:lvgl/src/extra/widgets/meter/lv_meter.c ****             line_dsc.width = line_width_ori;
 1100              		.loc 1 551 13 is_stmt 1 view .LVU369
ARM GAS  C:\usertemp\ccXAVGrP.s 			page 51


 1101              		.loc 1 551 28 is_stmt 0 view .LVU370
 1102 030a 069B     		ldr	r3, [sp, #24]
 1103              	.LVL130:
 1104              		.loc 1 551 28 view .LVU371
 1105 030c ADF85231 		strh	r3, [sp, #338]	@ movhi
 1106              	.LBE64:
 438:lvgl/src/extra/widgets/meter/lv_meter.c ****             minor_cnt++;
 1107              		.loc 1 438 42 is_stmt 1 discriminator 2 view .LVU372
 1108 0310 0BF10103 		add	r3, fp, #1
 1109 0314 5FFA83FB 		uxtb	fp, r3
 1110              	.LVL131:
 1111              	.L38:
 438:lvgl/src/extra/widgets/meter/lv_meter.c ****             minor_cnt++;
 1112              		.loc 1 438 22 discriminator 1 view .LVU373
 438:lvgl/src/extra/widgets/meter/lv_meter.c ****             minor_cnt++;
 1113              		.loc 1 438 29 is_stmt 0 discriminator 1 view .LVU374
 1114 0318 B9F80220 		ldrh	r2, [r9, #2]
 438:lvgl/src/extra/widgets/meter/lv_meter.c ****             minor_cnt++;
 1115              		.loc 1 438 22 discriminator 1 view .LVU375
 1116 031c 9345     		cmp	fp, r2
 1117 031e 4CD2     		bcs	.L51
 1118              	.LBB73:
 439:lvgl/src/extra/widgets/meter/lv_meter.c ****             bool major = false;
 1119              		.loc 1 439 13 is_stmt 1 view .LVU376
 439:lvgl/src/extra/widgets/meter/lv_meter.c ****             bool major = false;
 1120              		.loc 1 439 22 is_stmt 0 view .LVU377
 1121 0320 079B     		ldr	r3, [sp, #28]
 1122 0322 0133     		adds	r3, r3, #1
 1123 0324 1946     		mov	r1, r3
 1124 0326 0793     		str	r3, [sp, #28]
 1125              	.LVL132:
 440:lvgl/src/extra/widgets/meter/lv_meter.c ****             if(minor_cnt == scale->tick_major_nth) {
 1126              		.loc 1 440 13 is_stmt 1 view .LVU378
 441:lvgl/src/extra/widgets/meter/lv_meter.c ****                 minor_cnt = 0;
 1127              		.loc 1 441 13 view .LVU379
 441:lvgl/src/extra/widgets/meter/lv_meter.c ****                 minor_cnt = 0;
 1128              		.loc 1 441 34 is_stmt 0 view .LVU380
 1129 0328 B9F80A30 		ldrh	r3, [r9, #10]
 441:lvgl/src/extra/widgets/meter/lv_meter.c ****                 minor_cnt = 0;
 1130              		.loc 1 441 15 view .LVU381
 1131 032c 8B42     		cmp	r3, r1
 1132 032e 3FF4BFAE 		beq	.L42
 440:lvgl/src/extra/widgets/meter/lv_meter.c ****             if(minor_cnt == scale->tick_major_nth) {
 1133              		.loc 1 440 18 view .LVU382
 1134 0332 0023     		movs	r3, #0
 1135 0334 0493     		str	r3, [sp, #16]
 1136              	.L22:
 1137              	.LVL133:
 446:lvgl/src/extra/widgets/meter/lv_meter.c ****             part_draw_dsc.value = value_of_line;
 1138              		.loc 1 446 13 is_stmt 1 view .LVU383
 446:lvgl/src/extra/widgets/meter/lv_meter.c ****             part_draw_dsc.value = value_of_line;
 1139              		.loc 1 446 37 is_stmt 0 view .LVU384
 1140 0336 D846     		mov	r8, fp
 1141 0338 D9F81430 		ldr	r3, [r9, #20]
 1142 033c D9F81810 		ldr	r1, [r9, #24]
 1143 0340 0091     		str	r1, [sp]
 1144 0342 013A     		subs	r2, r2, #1
ARM GAS  C:\usertemp\ccXAVGrP.s 			page 52


 1145 0344 0021     		movs	r1, #0
 1146 0346 5846     		mov	r0, fp
 1147 0348 FFF7FEFF 		bl	lv_map
 1148              	.LVL134:
 1149 034c 0746     		mov	r7, r0
 1150              	.LVL135:
 447:lvgl/src/extra/widgets/meter/lv_meter.c **** 
 1151              		.loc 1 447 13 is_stmt 1 view .LVU385
 447:lvgl/src/extra/widgets/meter/lv_meter.c **** 
 1152              		.loc 1 447 33 is_stmt 0 view .LVU386
 1153 034e 3890     		str	r0, [sp, #224]
 449:lvgl/src/extra/widgets/meter/lv_meter.c ****             lv_color_t line_color_ori = line_color;
 1154              		.loc 1 449 13 is_stmt 1 view .LVU387
 449:lvgl/src/extra/widgets/meter/lv_meter.c ****             lv_color_t line_color_ori = line_color;
 1155              		.loc 1 449 69 is_stmt 0 view .LVU388
 1156 0350 049B     		ldr	r3, [sp, #16]
 1157 0352 002B     		cmp	r3, #0
 1158 0354 3FF4B1AE 		beq	.L23
 449:lvgl/src/extra/widgets/meter/lv_meter.c ****             lv_color_t line_color_ori = line_color;
 1159              		.loc 1 449 24 discriminator 1 view .LVU389
 1160 0358 B9F80830 		ldrh	r3, [r9, #8]
 1161              	.LVL136:
 449:lvgl/src/extra/widgets/meter/lv_meter.c ****             lv_color_t line_color_ori = line_color;
 1162              		.loc 1 449 24 discriminator 1 view .LVU390
 1163 035c ADF82430 		strh	r3, [sp, #36]	@ movhi
 1164              	.L24:
 450:lvgl/src/extra/widgets/meter/lv_meter.c **** 
 1165              		.loc 1 450 13 is_stmt 1 view .LVU391
 450:lvgl/src/extra/widgets/meter/lv_meter.c **** 
 1166              		.loc 1 450 24 is_stmt 0 view .LVU392
 1167 0360 BDF82430 		ldrh	r3, [sp, #36]
 1168              	.LVL137:
 450:lvgl/src/extra/widgets/meter/lv_meter.c **** 
 1169              		.loc 1 450 24 view .LVU393
 1170 0364 ADF82630 		strh	r3, [sp, #38]	@ movhi
 452:lvgl/src/extra/widgets/meter/lv_meter.c ****             lv_coord_t line_width = line_width_ori;
 1171              		.loc 1 452 13 is_stmt 1 view .LVU394
 452:lvgl/src/extra/widgets/meter/lv_meter.c ****             lv_coord_t line_width = line_width_ori;
 1172              		.loc 1 452 24 is_stmt 0 view .LVU395
 1173 0368 049B     		ldr	r3, [sp, #16]
 1174              	.LVL138:
 452:lvgl/src/extra/widgets/meter/lv_meter.c ****             lv_coord_t line_width = line_width_ori;
 1175              		.loc 1 452 24 view .LVU396
 1176 036a 002B     		cmp	r3, #0
 1177 036c 3FF4AAAE 		beq	.L25
 452:lvgl/src/extra/widgets/meter/lv_meter.c ****             lv_coord_t line_width = line_width_ori;
 1178              		.loc 1 452 24 discriminator 1 view .LVU397
 1179 0370 B9F90E30 		ldrsh	r3, [r9, #14]
 1180 0374 0693     		str	r3, [sp, #24]
 1181              	.L26:
 1182              	.LVL139:
 453:lvgl/src/extra/widgets/meter/lv_meter.c **** 
 1183              		.loc 1 453 13 is_stmt 1 view .LVU398
 455:lvgl/src/extra/widgets/meter/lv_meter.c ****             _LV_LL_READ_BACK(&meter->indicator_ll, indic) {
 1184              		.loc 1 455 13 view .LVU399
 456:lvgl/src/extra/widgets/meter/lv_meter.c ****                 if(indic->type != LV_METER_INDICATOR_TYPE_SCALE_LINES) continue;
 1185              		.loc 1 456 13 view .LVU400
ARM GAS  C:\usertemp\ccXAVGrP.s 			page 53


 1186 0376 059B     		ldr	r3, [sp, #20]
 1187 0378 03F13006 		add	r6, r3, #48
 1188 037c 3046     		mov	r0, r6
 1189              	.LVL140:
 456:lvgl/src/extra/widgets/meter/lv_meter.c ****                 if(indic->type != LV_METER_INDICATOR_TYPE_SCALE_LINES) continue;
 1190              		.loc 1 456 13 is_stmt 0 view .LVU401
 1191 037e FFF7FEFF 		bl	_lv_ll_get_tail
 1192              	.LVL141:
 1193 0382 0446     		mov	r4, r0
 1194              	.LVL142:
 453:lvgl/src/extra/widgets/meter/lv_meter.c **** 
 1195              		.loc 1 453 24 view .LVU402
 1196 0384 069D     		ldr	r5, [sp, #24]
 456:lvgl/src/extra/widgets/meter/lv_meter.c ****                 if(indic->type != LV_METER_INDICATOR_TYPE_SCALE_LINES) continue;
 1197              		.loc 1 456 13 view .LVU403
 1198 0386 BBE6     		b	.L27
 1199              	.L54:
 1200              		.align	2
 1201              	.L53:
 1202 0388 00000000 		.word	lv_meter_class
 1203 038c 00000000 		.word	.LC0
 1204              	.LVL143:
 1205              	.L49:
 1206              	.LBB72:
 530:lvgl/src/extra/widgets/meter/lv_meter.c ****                 label_cord.y1 = p.y - label_size.y / 2;
 1207              		.loc 1 530 37 view .LVU404
 1208 0390 531C     		adds	r3, r2, #1
 1209 0392 7CE7     		b	.L34
 1210              	.L50:
 531:lvgl/src/extra/widgets/meter/lv_meter.c ****                 label_cord.x2 = label_cord.x1 + label_size.x;
 1211              		.loc 1 531 37 view .LVU405
 1212 0394 591C     		adds	r1, r3, #1
 1213 0396 84E7     		b	.L35
 1214              	.LVL144:
 1215              	.L33:
 531:lvgl/src/extra/widgets/meter/lv_meter.c ****                 label_cord.x2 = label_cord.x1 + label_size.x;
 1216              		.loc 1 531 37 view .LVU406
 1217              	.LBE72:
 540:lvgl/src/extra/widgets/meter/lv_meter.c ****                 part_draw_dsc.text = NULL;
 1218              		.loc 1 540 17 is_stmt 1 view .LVU407
 540:lvgl/src/extra/widgets/meter/lv_meter.c ****                 part_draw_dsc.text = NULL;
 1219              		.loc 1 540 41 is_stmt 0 view .LVU408
 1220 0398 0023     		movs	r3, #0
 1221 039a 2D93     		str	r3, [sp, #180]
 541:lvgl/src/extra/widgets/meter/lv_meter.c ****                 lv_event_send(obj, LV_EVENT_DRAW_PART_BEGIN, &part_draw_dsc);
 1222              		.loc 1 541 17 is_stmt 1 view .LVU409
 541:lvgl/src/extra/widgets/meter/lv_meter.c ****                 lv_event_send(obj, LV_EVENT_DRAW_PART_BEGIN, &part_draw_dsc);
 1223              		.loc 1 541 36 is_stmt 0 view .LVU410
 1224 039c 3393     		str	r3, [sp, #204]
 542:lvgl/src/extra/widgets/meter/lv_meter.c ****             }
 1225              		.loc 1 542 17 is_stmt 1 view .LVU411
 1226 039e 28AA     		add	r2, sp, #160
 1227 03a0 1A21     		movs	r1, #26
 1228 03a2 0598     		ldr	r0, [sp, #20]
 1229              	.LVL145:
 542:lvgl/src/extra/widgets/meter/lv_meter.c ****             }
 1230              		.loc 1 542 17 is_stmt 0 view .LVU412
ARM GAS  C:\usertemp\ccXAVGrP.s 			page 54


 1231 03a4 FFF7FEFF 		bl	lv_event_send
 1232              	.LVL146:
 542:lvgl/src/extra/widgets/meter/lv_meter.c ****             }
 1233              		.loc 1 542 17 view .LVU413
 1234 03a8 95E7     		b	.L36
 1235              	.LVL147:
 1236              	.L43:
 545:lvgl/src/extra/widgets/meter/lv_meter.c ****             lv_draw_line(draw_ctx, &line_dsc, &p_outer, &p_center);
 1237              		.loc 1 545 33 discriminator 2 view .LVU414
 1238 03aa 46A8     		add	r0, sp, #280
 1239 03ac 97E7     		b	.L37
 1240              	.LVL148:
 1241              	.L41:
 545:lvgl/src/extra/widgets/meter/lv_meter.c ****             lv_draw_line(draw_ctx, &line_dsc, &p_outer, &p_center);
 1242              		.loc 1 545 33 discriminator 2 view .LVU415
 1243              	.LBE73:
 437:lvgl/src/extra/widgets/meter/lv_meter.c ****         for(i = 0; i < scale->tick_cnt; i++) {
 1244              		.loc 1 437 80 discriminator 2 view .LVU416
 1245 03ae 4FF6FF73 		movw	r3, #65535
 1246 03b2 0793     		str	r3, [sp, #28]
 1247              	.L21:
 1248 03b4 4FF0000B 		mov	fp, #0
 1249 03b8 AEE7     		b	.L38
 1250              	.LVL149:
 1251              	.L51:
 552:lvgl/src/extra/widgets/meter/lv_meter.c **** 
 553:lvgl/src/extra/widgets/meter/lv_meter.c ****         }
 554:lvgl/src/extra/widgets/meter/lv_meter.c ****         lv_draw_mask_free_param(&inner_minor_mask);
 1252              		.loc 1 554 9 is_stmt 1 view .LVU417
 1253 03ba 46A8     		add	r0, sp, #280
 1254 03bc FFF7FEFF 		bl	lv_draw_mask_free_param
 1255              	.LVL150:
 555:lvgl/src/extra/widgets/meter/lv_meter.c ****         lv_draw_mask_free_param(&inner_major_mask);
 1256              		.loc 1 555 9 view .LVU418
 1257 03c0 40A8     		add	r0, sp, #256
 1258 03c2 FFF7FEFF 		bl	lv_draw_mask_free_param
 1259              	.LVL151:
 556:lvgl/src/extra/widgets/meter/lv_meter.c ****         lv_draw_mask_free_param(&outer_mask);
 1260              		.loc 1 556 9 view .LVU419
 1261 03c6 3AA8     		add	r0, sp, #232
 1262 03c8 FFF7FEFF 		bl	lv_draw_mask_free_param
 1263              	.LVL152:
 557:lvgl/src/extra/widgets/meter/lv_meter.c ****         lv_draw_mask_remove_id(outer_mask_id);
 1264              		.loc 1 557 9 view .LVU420
 1265 03cc 0B98     		ldr	r0, [sp, #44]
 1266 03ce FFF7FEFF 		bl	lv_draw_mask_remove_id
 1267              	.LVL153:
 1268              	.LBE63:
 406:lvgl/src/extra/widgets/meter/lv_meter.c ****         part_draw_dsc.sub_part_ptr = scale;
 1269              		.loc 1 406 5 discriminator 2 view .LVU421
 1270 03d2 4946     		mov	r1, r9
 1271 03d4 0E98     		ldr	r0, [sp, #56]
 1272 03d6 FFF7FEFF 		bl	_lv_ll_get_prev
 1273              	.LVL154:
 1274 03da 8146     		mov	r9, r0
 1275              	.LVL155:
 1276              	.L20:
ARM GAS  C:\usertemp\ccXAVGrP.s 			page 55


 406:lvgl/src/extra/widgets/meter/lv_meter.c ****         part_draw_dsc.sub_part_ptr = scale;
 1277              		.loc 1 406 5 discriminator 1 view .LVU422
 1278 03dc B9F1000F 		cmp	r9, #0
 1279 03e0 70D0     		beq	.L52
 1280              	.LBB74:
 407:lvgl/src/extra/widgets/meter/lv_meter.c **** 
 1281              		.loc 1 407 9 view .LVU423
 407:lvgl/src/extra/widgets/meter/lv_meter.c **** 
 1282              		.loc 1 407 36 is_stmt 0 view .LVU424
 1283 03e2 CDF8E490 		str	r9, [sp, #228]
 409:lvgl/src/extra/widgets/meter/lv_meter.c ****         lv_coord_t r_in_minor = r_out - scale->tick_length;
 1284              		.loc 1 409 9 is_stmt 1 view .LVU425
 409:lvgl/src/extra/widgets/meter/lv_meter.c ****         lv_coord_t r_in_minor = r_out - scale->tick_length;
 1285              		.loc 1 409 42 is_stmt 0 view .LVU426
 1286 03e6 B9F81C30 		ldrh	r3, [r9, #28]
 409:lvgl/src/extra/widgets/meter/lv_meter.c ****         lv_coord_t r_in_minor = r_out - scale->tick_length;
 1287              		.loc 1 409 35 view .LVU427
 1288 03ea 0F9A     		ldr	r2, [sp, #60]
 1289 03ec 1344     		add	r3, r3, r2
 1290 03ee 9CB2     		uxth	r4, r3
 409:lvgl/src/extra/widgets/meter/lv_meter.c ****         lv_coord_t r_in_minor = r_out - scale->tick_length;
 1291              		.loc 1 409 20 view .LVU428
 1292 03f0 1BB2     		sxth	r3, r3
 1293 03f2 0C93     		str	r3, [sp, #48]
 1294              	.LVL156:
 410:lvgl/src/extra/widgets/meter/lv_meter.c ****         lv_coord_t r_in_major = r_out - scale->tick_major_length;
 1295              		.loc 1 410 9 is_stmt 1 view .LVU429
 410:lvgl/src/extra/widgets/meter/lv_meter.c ****         lv_coord_t r_in_major = r_out - scale->tick_major_length;
 1296              		.loc 1 410 46 is_stmt 0 view .LVU430
 1297 03f4 B9F80430 		ldrh	r3, [r9, #4]
 410:lvgl/src/extra/widgets/meter/lv_meter.c ****         lv_coord_t r_in_major = r_out - scale->tick_major_length;
 1298              		.loc 1 410 39 view .LVU431
 1299 03f8 E21A     		subs	r2, r4, r3
 1300 03fa 92B2     		uxth	r2, r2
 1301              	.LVL157:
 411:lvgl/src/extra/widgets/meter/lv_meter.c **** 
 1302              		.loc 1 411 9 is_stmt 1 view .LVU432
 411:lvgl/src/extra/widgets/meter/lv_meter.c **** 
 1303              		.loc 1 411 46 is_stmt 0 view .LVU433
 1304 03fc B9F80C50 		ldrh	r5, [r9, #12]
 411:lvgl/src/extra/widgets/meter/lv_meter.c **** 
 1305              		.loc 1 411 39 view .LVU434
 1306 0400 611B     		subs	r1, r4, r5
 1307 0402 8EB2     		uxth	r6, r1
 411:lvgl/src/extra/widgets/meter/lv_meter.c **** 
 1308              		.loc 1 411 20 view .LVU435
 1309 0404 09B2     		sxth	r1, r1
 1310 0406 0D91     		str	r1, [sp, #52]
 1311              	.LVL158:
 413:lvgl/src/extra/widgets/meter/lv_meter.c ****         area_inner_minor.x1 = p_center.x - r_in_minor;
 1312              		.loc 1 413 9 is_stmt 1 view .LVU436
 414:lvgl/src/extra/widgets/meter/lv_meter.c ****         area_inner_minor.y1 = p_center.y - r_in_minor;
 1313              		.loc 1 414 9 view .LVU437
 414:lvgl/src/extra/widgets/meter/lv_meter.c ****         area_inner_minor.y1 = p_center.y - r_in_minor;
 1314              		.loc 1 414 39 is_stmt 0 view .LVU438
 1315 0408 BDF85C11 		ldrh	r1, [sp, #348]
 1316 040c 1B1B     		subs	r3, r3, r4
ARM GAS  C:\usertemp\ccXAVGrP.s 			page 56


 1317 040e 9BB2     		uxth	r3, r3
 414:lvgl/src/extra/widgets/meter/lv_meter.c ****         area_inner_minor.y1 = p_center.y - r_in_minor;
 1318              		.loc 1 414 42 view .LVU439
 1319 0410 C818     		adds	r0, r1, r3
 1320              	.LVL159:
 414:lvgl/src/extra/widgets/meter/lv_meter.c ****         area_inner_minor.y1 = p_center.y - r_in_minor;
 1321              		.loc 1 414 29 view .LVU440
 1322 0412 ADF85000 		strh	r0, [sp, #80]	@ movhi
 415:lvgl/src/extra/widgets/meter/lv_meter.c ****         area_inner_minor.x2 = p_center.x + r_in_minor;
 1323              		.loc 1 415 9 is_stmt 1 view .LVU441
 415:lvgl/src/extra/widgets/meter/lv_meter.c ****         area_inner_minor.x2 = p_center.x + r_in_minor;
 1324              		.loc 1 415 39 is_stmt 0 view .LVU442
 1325 0416 BDF85E01 		ldrh	r0, [sp, #350]
 415:lvgl/src/extra/widgets/meter/lv_meter.c ****         area_inner_minor.x2 = p_center.x + r_in_minor;
 1326              		.loc 1 415 42 view .LVU443
 1327 041a 0344     		add	r3, r3, r0
 415:lvgl/src/extra/widgets/meter/lv_meter.c ****         area_inner_minor.x2 = p_center.x + r_in_minor;
 1328              		.loc 1 415 29 view .LVU444
 1329 041c ADF85230 		strh	r3, [sp, #82]	@ movhi
 416:lvgl/src/extra/widgets/meter/lv_meter.c ****         area_inner_minor.y2 = p_center.y + r_in_minor;
 1330              		.loc 1 416 9 is_stmt 1 view .LVU445
 416:lvgl/src/extra/widgets/meter/lv_meter.c ****         area_inner_minor.y2 = p_center.y + r_in_minor;
 1331              		.loc 1 416 42 is_stmt 0 view .LVU446
 1332 0420 1144     		add	r1, r1, r2
 416:lvgl/src/extra/widgets/meter/lv_meter.c ****         area_inner_minor.y2 = p_center.y + r_in_minor;
 1333              		.loc 1 416 29 view .LVU447
 1334 0422 ADF85410 		strh	r1, [sp, #84]	@ movhi
 417:lvgl/src/extra/widgets/meter/lv_meter.c ****         lv_draw_mask_radius_init(&inner_minor_mask, &area_inner_minor, LV_RADIUS_CIRCLE, true);
 1335              		.loc 1 417 9 is_stmt 1 view .LVU448
 417:lvgl/src/extra/widgets/meter/lv_meter.c ****         lv_draw_mask_radius_init(&inner_minor_mask, &area_inner_minor, LV_RADIUS_CIRCLE, true);
 1336              		.loc 1 417 42 is_stmt 0 view .LVU449
 1337 0426 0244     		add	r2, r2, r0
 1338              	.LVL160:
 417:lvgl/src/extra/widgets/meter/lv_meter.c ****         lv_draw_mask_radius_init(&inner_minor_mask, &area_inner_minor, LV_RADIUS_CIRCLE, true);
 1339              		.loc 1 417 29 view .LVU450
 1340 0428 ADF85620 		strh	r2, [sp, #86]	@ movhi
 418:lvgl/src/extra/widgets/meter/lv_meter.c **** 
 1341              		.loc 1 418 9 is_stmt 1 view .LVU451
 1342 042c 0123     		movs	r3, #1
 1343 042e 47F6FF72 		movw	r2, #32767
 1344 0432 14A9     		add	r1, sp, #80
 1345 0434 46A8     		add	r0, sp, #280
 1346 0436 FFF7FEFF 		bl	lv_draw_mask_radius_init
 1347              	.LVL161:
 420:lvgl/src/extra/widgets/meter/lv_meter.c ****         area_inner_major.x1 = p_center.x - r_in_major;
 1348              		.loc 1 420 9 view .LVU452
 421:lvgl/src/extra/widgets/meter/lv_meter.c ****         area_inner_major.y1 = p_center.y - r_in_major;
 1349              		.loc 1 421 9 view .LVU453
 421:lvgl/src/extra/widgets/meter/lv_meter.c ****         area_inner_major.y1 = p_center.y - r_in_major;
 1350              		.loc 1 421 39 is_stmt 0 view .LVU454
 1351 043a BDF85C21 		ldrh	r2, [sp, #348]
 1352 043e 2B1B     		subs	r3, r5, r4
 1353 0440 9BB2     		uxth	r3, r3
 421:lvgl/src/extra/widgets/meter/lv_meter.c ****         area_inner_major.y1 = p_center.y - r_in_major;
 1354              		.loc 1 421 42 view .LVU455
 1355 0442 9918     		adds	r1, r3, r2
 421:lvgl/src/extra/widgets/meter/lv_meter.c ****         area_inner_major.y1 = p_center.y - r_in_major;
ARM GAS  C:\usertemp\ccXAVGrP.s 			page 57


 1356              		.loc 1 421 29 view .LVU456
 1357 0444 ADF85810 		strh	r1, [sp, #88]	@ movhi
 422:lvgl/src/extra/widgets/meter/lv_meter.c ****         area_inner_major.x2 = p_center.x + r_in_major - 1;
 1358              		.loc 1 422 9 is_stmt 1 view .LVU457
 422:lvgl/src/extra/widgets/meter/lv_meter.c ****         area_inner_major.x2 = p_center.x + r_in_major - 1;
 1359              		.loc 1 422 39 is_stmt 0 view .LVU458
 1360 0448 BDF85E11 		ldrh	r1, [sp, #350]
 422:lvgl/src/extra/widgets/meter/lv_meter.c ****         area_inner_major.x2 = p_center.x + r_in_major - 1;
 1361              		.loc 1 422 42 view .LVU459
 1362 044c 0B44     		add	r3, r3, r1
 422:lvgl/src/extra/widgets/meter/lv_meter.c ****         area_inner_major.x2 = p_center.x + r_in_major - 1;
 1363              		.loc 1 422 29 view .LVU460
 1364 044e ADF85A30 		strh	r3, [sp, #90]	@ movhi
 423:lvgl/src/extra/widgets/meter/lv_meter.c ****         area_inner_major.y2 = p_center.y + r_in_major - 1;
 1365              		.loc 1 423 9 is_stmt 1 view .LVU461
 423:lvgl/src/extra/widgets/meter/lv_meter.c ****         area_inner_major.y2 = p_center.y + r_in_major - 1;
 1366              		.loc 1 423 42 is_stmt 0 view .LVU462
 1367 0452 B318     		adds	r3, r6, r2
 1368 0454 9BB2     		uxth	r3, r3
 423:lvgl/src/extra/widgets/meter/lv_meter.c ****         area_inner_major.y2 = p_center.y + r_in_major - 1;
 1369              		.loc 1 423 55 view .LVU463
 1370 0456 013B     		subs	r3, r3, #1
 423:lvgl/src/extra/widgets/meter/lv_meter.c ****         area_inner_major.y2 = p_center.y + r_in_major - 1;
 1371              		.loc 1 423 29 view .LVU464
 1372 0458 ADF85C30 		strh	r3, [sp, #92]	@ movhi
 424:lvgl/src/extra/widgets/meter/lv_meter.c ****         lv_draw_mask_radius_init(&inner_major_mask, &area_inner_major, LV_RADIUS_CIRCLE, true);
 1373              		.loc 1 424 9 is_stmt 1 view .LVU465
 424:lvgl/src/extra/widgets/meter/lv_meter.c ****         lv_draw_mask_radius_init(&inner_major_mask, &area_inner_major, LV_RADIUS_CIRCLE, true);
 1374              		.loc 1 424 42 is_stmt 0 view .LVU466
 1375 045c 7318     		adds	r3, r6, r1
 1376 045e 9BB2     		uxth	r3, r3
 424:lvgl/src/extra/widgets/meter/lv_meter.c ****         lv_draw_mask_radius_init(&inner_major_mask, &area_inner_major, LV_RADIUS_CIRCLE, true);
 1377              		.loc 1 424 55 view .LVU467
 1378 0460 013B     		subs	r3, r3, #1
 424:lvgl/src/extra/widgets/meter/lv_meter.c ****         lv_draw_mask_radius_init(&inner_major_mask, &area_inner_major, LV_RADIUS_CIRCLE, true);
 1379              		.loc 1 424 29 view .LVU468
 1380 0462 ADF85E30 		strh	r3, [sp, #94]	@ movhi
 425:lvgl/src/extra/widgets/meter/lv_meter.c **** 
 1381              		.loc 1 425 9 is_stmt 1 view .LVU469
 1382 0466 0123     		movs	r3, #1
 1383 0468 47F6FF72 		movw	r2, #32767
 1384 046c 16A9     		add	r1, sp, #88
 1385 046e 40A8     		add	r0, sp, #256
 1386 0470 FFF7FEFF 		bl	lv_draw_mask_radius_init
 1387              	.LVL162:
 427:lvgl/src/extra/widgets/meter/lv_meter.c ****         area_outer.x1 = p_center.x - r_out;
 1388              		.loc 1 427 9 view .LVU470
 428:lvgl/src/extra/widgets/meter/lv_meter.c ****         area_outer.y1 = p_center.y - r_out;
 1389              		.loc 1 428 9 view .LVU471
 428:lvgl/src/extra/widgets/meter/lv_meter.c ****         area_outer.y1 = p_center.y - r_out;
 1390              		.loc 1 428 33 is_stmt 0 view .LVU472
 1391 0474 BDF85C31 		ldrh	r3, [sp, #348]
 428:lvgl/src/extra/widgets/meter/lv_meter.c ****         area_outer.y1 = p_center.y - r_out;
 1392              		.loc 1 428 36 view .LVU473
 1393 0478 1A1B     		subs	r2, r3, r4
 428:lvgl/src/extra/widgets/meter/lv_meter.c ****         area_outer.y1 = p_center.y - r_out;
 1394              		.loc 1 428 23 view .LVU474
ARM GAS  C:\usertemp\ccXAVGrP.s 			page 58


 1395 047a ADF86020 		strh	r2, [sp, #96]	@ movhi
 429:lvgl/src/extra/widgets/meter/lv_meter.c ****         area_outer.x2 = p_center.x + r_out - 1;
 1396              		.loc 1 429 9 is_stmt 1 view .LVU475
 429:lvgl/src/extra/widgets/meter/lv_meter.c ****         area_outer.x2 = p_center.x + r_out - 1;
 1397              		.loc 1 429 33 is_stmt 0 view .LVU476
 1398 047e BDF85E21 		ldrh	r2, [sp, #350]
 429:lvgl/src/extra/widgets/meter/lv_meter.c ****         area_outer.x2 = p_center.x + r_out - 1;
 1399              		.loc 1 429 36 view .LVU477
 1400 0482 111B     		subs	r1, r2, r4
 429:lvgl/src/extra/widgets/meter/lv_meter.c ****         area_outer.x2 = p_center.x + r_out - 1;
 1401              		.loc 1 429 23 view .LVU478
 1402 0484 ADF86210 		strh	r1, [sp, #98]	@ movhi
 430:lvgl/src/extra/widgets/meter/lv_meter.c ****         area_outer.y2 = p_center.y + r_out - 1;
 1403              		.loc 1 430 9 is_stmt 1 view .LVU479
 430:lvgl/src/extra/widgets/meter/lv_meter.c ****         area_outer.y2 = p_center.y + r_out - 1;
 1404              		.loc 1 430 36 is_stmt 0 view .LVU480
 1405 0488 2344     		add	r3, r3, r4
 1406 048a 9BB2     		uxth	r3, r3
 430:lvgl/src/extra/widgets/meter/lv_meter.c ****         area_outer.y2 = p_center.y + r_out - 1;
 1407              		.loc 1 430 44 view .LVU481
 1408 048c 013B     		subs	r3, r3, #1
 430:lvgl/src/extra/widgets/meter/lv_meter.c ****         area_outer.y2 = p_center.y + r_out - 1;
 1409              		.loc 1 430 23 view .LVU482
 1410 048e ADF86430 		strh	r3, [sp, #100]	@ movhi
 431:lvgl/src/extra/widgets/meter/lv_meter.c ****         lv_draw_mask_radius_init(&outer_mask, &area_outer, LV_RADIUS_CIRCLE, false);
 1411              		.loc 1 431 9 is_stmt 1 view .LVU483
 431:lvgl/src/extra/widgets/meter/lv_meter.c ****         lv_draw_mask_radius_init(&outer_mask, &area_outer, LV_RADIUS_CIRCLE, false);
 1412              		.loc 1 431 36 is_stmt 0 view .LVU484
 1413 0492 A318     		adds	r3, r4, r2
 1414 0494 9BB2     		uxth	r3, r3
 431:lvgl/src/extra/widgets/meter/lv_meter.c ****         lv_draw_mask_radius_init(&outer_mask, &area_outer, LV_RADIUS_CIRCLE, false);
 1415              		.loc 1 431 44 view .LVU485
 1416 0496 013B     		subs	r3, r3, #1
 431:lvgl/src/extra/widgets/meter/lv_meter.c ****         lv_draw_mask_radius_init(&outer_mask, &area_outer, LV_RADIUS_CIRCLE, false);
 1417              		.loc 1 431 23 view .LVU486
 1418 0498 ADF86630 		strh	r3, [sp, #102]	@ movhi
 432:lvgl/src/extra/widgets/meter/lv_meter.c ****         int16_t outer_mask_id = lv_draw_mask_add(&outer_mask, NULL);
 1419              		.loc 1 432 9 is_stmt 1 view .LVU487
 1420 049c 0023     		movs	r3, #0
 1421 049e 47F6FF72 		movw	r2, #32767
 1422 04a2 18A9     		add	r1, sp, #96
 1423 04a4 3AA8     		add	r0, sp, #232
 1424 04a6 FFF7FEFF 		bl	lv_draw_mask_radius_init
 1425              	.LVL163:
 433:lvgl/src/extra/widgets/meter/lv_meter.c **** 
 1426              		.loc 1 433 9 view .LVU488
 433:lvgl/src/extra/widgets/meter/lv_meter.c **** 
 1427              		.loc 1 433 33 is_stmt 0 view .LVU489
 1428 04aa 0021     		movs	r1, #0
 1429 04ac 3AA8     		add	r0, sp, #232
 1430 04ae FFF7FEFF 		bl	lv_draw_mask_add
 1431              	.LVL164:
 1432 04b2 0B90     		str	r0, [sp, #44]
 1433              	.LVL165:
 435:lvgl/src/extra/widgets/meter/lv_meter.c **** 
 1434              		.loc 1 435 9 is_stmt 1 view .LVU490
 437:lvgl/src/extra/widgets/meter/lv_meter.c ****         for(i = 0; i < scale->tick_cnt; i++) {
ARM GAS  C:\usertemp\ccXAVGrP.s 			page 59


 1435              		.loc 1 437 9 view .LVU491
 437:lvgl/src/extra/widgets/meter/lv_meter.c ****         for(i = 0; i < scale->tick_cnt; i++) {
 1436              		.loc 1 437 35 is_stmt 0 view .LVU492
 1437 04b4 B9F80A30 		ldrh	r3, [r9, #10]
 437:lvgl/src/extra/widgets/meter/lv_meter.c ****         for(i = 0; i < scale->tick_cnt; i++) {
 1438              		.loc 1 437 80 view .LVU493
 1439 04b8 002B     		cmp	r3, #0
 1440 04ba 3FF478AF 		beq	.L41
 437:lvgl/src/extra/widgets/meter/lv_meter.c ****         for(i = 0; i < scale->tick_cnt; i++) {
 1441              		.loc 1 437 76 discriminator 1 view .LVU494
 1442 04be 013B     		subs	r3, r3, #1
 1443 04c0 0793     		str	r3, [sp, #28]
 1444 04c2 77E7     		b	.L21
 1445              	.LVL166:
 1446              	.L52:
 437:lvgl/src/extra/widgets/meter/lv_meter.c ****         for(i = 0; i < scale->tick_cnt; i++) {
 1447              		.loc 1 437 76 discriminator 1 view .LVU495
 1448              	.LBE74:
 558:lvgl/src/extra/widgets/meter/lv_meter.c ****     }
 559:lvgl/src/extra/widgets/meter/lv_meter.c **** }
 1449              		.loc 1 559 1 view .LVU496
 1450 04c4 59B0     		add	sp, sp, #356
 1451              	.LCFI5:
 1452              		.cfi_def_cfa_offset 36
 1453              		@ sp needed
 1454 04c6 BDE8F08F 		pop	{r4, r5, r6, r7, r8, r9, r10, fp, pc}
 1455              		.loc 1 559 1 view .LVU497
 1456              		.cfi_endproc
 1457              	.LFE212:
 1459 04ca 00BF     		.section	.text.draw_needles,"ax",%progbits
 1460              		.align	1
 1461              		.syntax unified
 1462              		.thumb
 1463              		.thumb_func
 1465              	draw_needles:
 1466              	.LVL167:
 1467              	.LFB213:
 560:lvgl/src/extra/widgets/meter/lv_meter.c **** 
 561:lvgl/src/extra/widgets/meter/lv_meter.c **** 
 562:lvgl/src/extra/widgets/meter/lv_meter.c **** static void draw_needles(lv_obj_t * obj, lv_draw_ctx_t * draw_ctx, const lv_area_t * scale_area)
 563:lvgl/src/extra/widgets/meter/lv_meter.c **** {
 1468              		.loc 1 563 1 is_stmt 1 view -0
 1469              		.cfi_startproc
 1470              		@ args = 0, pretend = 0, frame = 136
 1471              		@ frame_needed = 0, uses_anonymous_args = 0
 1472              		.loc 1 563 1 is_stmt 0 view .LVU499
 1473 0000 2DE9F04F 		push	{r4, r5, r6, r7, r8, r9, r10, fp, lr}
 1474              	.LCFI6:
 1475              		.cfi_def_cfa_offset 36
 1476              		.cfi_offset 4, -36
 1477              		.cfi_offset 5, -32
 1478              		.cfi_offset 6, -28
 1479              		.cfi_offset 7, -24
 1480              		.cfi_offset 8, -20
 1481              		.cfi_offset 9, -16
 1482              		.cfi_offset 10, -12
 1483              		.cfi_offset 11, -8
ARM GAS  C:\usertemp\ccXAVGrP.s 			page 60


 1484              		.cfi_offset 14, -4
 1485 0004 A5B0     		sub	sp, sp, #148
 1486              	.LCFI7:
 1487              		.cfi_def_cfa_offset 184
 1488 0006 0746     		mov	r7, r0
 1489 0008 8B46     		mov	fp, r1
 564:lvgl/src/extra/widgets/meter/lv_meter.c ****     lv_meter_t * meter = (lv_meter_t *)obj;
 1490              		.loc 1 564 5 is_stmt 1 view .LVU500
 1491              	.LVL168:
 565:lvgl/src/extra/widgets/meter/lv_meter.c **** 
 566:lvgl/src/extra/widgets/meter/lv_meter.c ****     lv_coord_t r_edge = lv_area_get_width(scale_area) / 2;
 1492              		.loc 1 566 5 view .LVU501
 1493              	.LBB75:
 1494              	.LBI75:
 123:D:/update_2024EL/changeform/743zit6/lvgl/src/misc\lv_area.h **** {
 1495              		.loc 4 123 26 view .LVU502
 1496              	.LBB76:
 125:D:/update_2024EL/changeform/743zit6/lvgl/src/misc\lv_area.h **** }
 1497              		.loc 4 125 5 view .LVU503
 125:D:/update_2024EL/changeform/743zit6/lvgl/src/misc\lv_area.h **** }
 1498              		.loc 4 125 31 is_stmt 0 view .LVU504
 1499 000a 9688     		ldrh	r6, [r2, #4]
 125:D:/update_2024EL/changeform/743zit6/lvgl/src/misc\lv_area.h **** }
 1500              		.loc 4 125 44 view .LVU505
 1501 000c 1388     		ldrh	r3, [r2]
 125:D:/update_2024EL/changeform/743zit6/lvgl/src/misc\lv_area.h **** }
 1502              		.loc 4 125 36 view .LVU506
 1503 000e F61A     		subs	r6, r6, r3
 1504 0010 B6B2     		uxth	r6, r6
 125:D:/update_2024EL/changeform/743zit6/lvgl/src/misc\lv_area.h **** }
 1505              		.loc 4 125 49 view .LVU507
 1506 0012 0136     		adds	r6, r6, #1
 125:D:/update_2024EL/changeform/743zit6/lvgl/src/misc\lv_area.h **** }
 1507              		.loc 4 125 12 view .LVU508
 1508 0014 36B2     		sxth	r6, r6
 1509              	.LVL169:
 125:D:/update_2024EL/changeform/743zit6/lvgl/src/misc\lv_area.h **** }
 1510              		.loc 4 125 12 view .LVU509
 1511              	.LBE76:
 1512              	.LBE75:
 1513              		.loc 1 566 16 discriminator 1 view .LVU510
 1514 0016 002E     		cmp	r6, #0
 1515 0018 32DB     		blt	.L68
 1516              	.L56:
 1517              	.LVL170:
 567:lvgl/src/extra/widgets/meter/lv_meter.c ****     lv_point_t scale_center;
 1518              		.loc 1 567 5 is_stmt 1 view .LVU511
 568:lvgl/src/extra/widgets/meter/lv_meter.c ****     scale_center.x = scale_area->x1 + r_edge;
 1519              		.loc 1 568 5 view .LVU512
 1520              		.loc 1 568 37 is_stmt 0 view .LVU513
 1521 001a C6F34F06 		ubfx	r6, r6, #1, #16
 1522              	.LVL171:
 1523              		.loc 1 568 37 view .LVU514
 1524 001e 3344     		add	r3, r3, r6
 1525              		.loc 1 568 20 view .LVU515
 1526 0020 ADF88C30 		strh	r3, [sp, #140]	@ movhi
 569:lvgl/src/extra/widgets/meter/lv_meter.c ****     scale_center.y = scale_area->y1 + r_edge;
ARM GAS  C:\usertemp\ccXAVGrP.s 			page 61


 1527              		.loc 1 569 5 is_stmt 1 view .LVU516
 1528              		.loc 1 569 32 is_stmt 0 view .LVU517
 1529 0024 5388     		ldrh	r3, [r2, #2]
 1530              		.loc 1 569 37 view .LVU518
 1531 0026 3344     		add	r3, r3, r6
 1532              		.loc 1 569 20 view .LVU519
 1533 0028 ADF88E30 		strh	r3, [sp, #142]	@ movhi
 570:lvgl/src/extra/widgets/meter/lv_meter.c **** 
 571:lvgl/src/extra/widgets/meter/lv_meter.c ****     lv_draw_line_dsc_t line_dsc;
 1534              		.loc 1 571 5 is_stmt 1 view .LVU520
 572:lvgl/src/extra/widgets/meter/lv_meter.c ****     lv_draw_line_dsc_init(&line_dsc);
 1535              		.loc 1 572 5 view .LVU521
 1536 002c 20A8     		add	r0, sp, #128
 1537              	.LVL172:
 1538              		.loc 1 572 5 is_stmt 0 view .LVU522
 1539 002e FFF7FEFF 		bl	lv_draw_line_dsc_init
 1540              	.LVL173:
 573:lvgl/src/extra/widgets/meter/lv_meter.c ****     lv_obj_init_draw_line_dsc(obj, LV_PART_ITEMS, &line_dsc);
 1541              		.loc 1 573 5 is_stmt 1 view .LVU523
 1542 0032 20AA     		add	r2, sp, #128
 1543 0034 4FF4A021 		mov	r1, #327680
 1544 0038 3846     		mov	r0, r7
 1545 003a FFF7FEFF 		bl	lv_obj_init_draw_line_dsc
 1546              	.LVL174:
 574:lvgl/src/extra/widgets/meter/lv_meter.c **** 
 575:lvgl/src/extra/widgets/meter/lv_meter.c ****     lv_draw_img_dsc_t img_dsc;
 1547              		.loc 1 575 5 view .LVU524
 576:lvgl/src/extra/widgets/meter/lv_meter.c ****     lv_draw_img_dsc_init(&img_dsc);
 1548              		.loc 1 576 5 view .LVU525
 1549 003e 1AA8     		add	r0, sp, #104
 1550 0040 FFF7FEFF 		bl	lv_draw_img_dsc_init
 1551              	.LVL175:
 577:lvgl/src/extra/widgets/meter/lv_meter.c ****     lv_obj_init_draw_img_dsc(obj, LV_PART_ITEMS, &img_dsc);
 1552              		.loc 1 577 5 view .LVU526
 1553 0044 1AAA     		add	r2, sp, #104
 1554 0046 4FF4A021 		mov	r1, #327680
 1555 004a 3846     		mov	r0, r7
 1556 004c FFF7FEFF 		bl	lv_obj_init_draw_img_dsc
 1557              	.LVL176:
 578:lvgl/src/extra/widgets/meter/lv_meter.c ****     lv_opa_t opa_main = lv_obj_get_style_opa(obj, LV_PART_MAIN);
 1558              		.loc 1 578 5 view .LVU527
 1559              	.LBB77:
 1560              	.LBI77:
 493:lvgl/src/extra/widgets/meter/../../../../src/core/lv_obj_style_gen.h **** {
 1561              		.loc 3 493 24 view .LVU528
 1562              	.LBB78:
 495:lvgl/src/extra/widgets/meter/../../../../src/core/lv_obj_style_gen.h ****     return (lv_opa_t)v.num;
 1563              		.loc 3 495 5 view .LVU529
 495:lvgl/src/extra/widgets/meter/../../../../src/core/lv_obj_style_gen.h ****     return (lv_opa_t)v.num;
 1564              		.loc 3 495 26 is_stmt 0 view .LVU530
 1565 0050 40F26242 		movw	r2, #1122
 1566 0054 0021     		movs	r1, #0
 1567 0056 3846     		mov	r0, r7
 1568 0058 FFF7FEFF 		bl	lv_obj_get_style_prop
 1569              	.LVL177:
 1570 005c 0290     		str	r0, [sp, #8]
 1571              		.loc 3 496 5 is_stmt 1 view .LVU531
ARM GAS  C:\usertemp\ccXAVGrP.s 			page 62


 1572              		.loc 3 496 12 is_stmt 0 view .LVU532
 1573 005e C3B2     		uxtb	r3, r0
 1574 0060 0393     		str	r3, [sp, #12]
 1575              	.LVL178:
 1576              		.loc 3 496 12 view .LVU533
 1577              	.LBE78:
 1578              	.LBE77:
 579:lvgl/src/extra/widgets/meter/lv_meter.c **** 
 580:lvgl/src/extra/widgets/meter/lv_meter.c ****     lv_obj_draw_part_dsc_t part_draw_dsc;
 1579              		.loc 1 580 5 is_stmt 1 view .LVU534
 581:lvgl/src/extra/widgets/meter/lv_meter.c ****     lv_obj_draw_dsc_init(&part_draw_dsc, draw_ctx);
 1580              		.loc 1 581 5 view .LVU535
 1581 0062 5946     		mov	r1, fp
 1582 0064 08A8     		add	r0, sp, #32
 1583 0066 FFF7FEFF 		bl	lv_obj_draw_dsc_init
 1584              	.LVL179:
 582:lvgl/src/extra/widgets/meter/lv_meter.c ****     part_draw_dsc.class_p = MY_CLASS;
 1585              		.loc 1 582 5 view .LVU536
 1586              		.loc 1 582 27 is_stmt 0 view .LVU537
 1587 006a 744B     		ldr	r3, .L71
 1588 006c 0993     		str	r3, [sp, #36]
 583:lvgl/src/extra/widgets/meter/lv_meter.c ****     part_draw_dsc.p1 = &scale_center;
 1589              		.loc 1 583 5 is_stmt 1 view .LVU538
 1590              		.loc 1 583 22 is_stmt 0 view .LVU539
 1591 006e 23AB     		add	r3, sp, #140
 1592 0070 1193     		str	r3, [sp, #68]
 584:lvgl/src/extra/widgets/meter/lv_meter.c **** 
 585:lvgl/src/extra/widgets/meter/lv_meter.c ****     lv_meter_indicator_t * indic;
 1593              		.loc 1 585 5 is_stmt 1 view .LVU540
 586:lvgl/src/extra/widgets/meter/lv_meter.c ****     _LV_LL_READ_BACK(&meter->indicator_ll, indic) {
 1594              		.loc 1 586 5 view .LVU541
 1595 0072 07F1300A 		add	r10, r7, #48
 1596 0076 5046     		mov	r0, r10
 1597 0078 FFF7FEFF 		bl	_lv_ll_get_tail
 1598              	.LVL180:
 1599 007c 0446     		mov	r4, r0
 1600              	.LVL181:
 1601              		.loc 1 586 5 is_stmt 0 view .LVU542
 1602 007e 7FE0     		b	.L57
 1603              	.LVL182:
 1604              	.L68:
 566:lvgl/src/extra/widgets/meter/lv_meter.c ****     lv_point_t scale_center;
 1605              		.loc 1 566 16 discriminator 1 view .LVU543
 1606 0080 0136     		adds	r6, r6, #1
 1607 0082 CAE7     		b	.L56
 1608              	.LVL183:
 1609              	.L70:
 1610              	.LBB79:
 1611              	.LBB80:
 587:lvgl/src/extra/widgets/meter/lv_meter.c ****         lv_meter_scale_t * scale = indic->scale;
 588:lvgl/src/extra/widgets/meter/lv_meter.c ****         part_draw_dsc.sub_part_ptr = indic;
 589:lvgl/src/extra/widgets/meter/lv_meter.c **** 
 590:lvgl/src/extra/widgets/meter/lv_meter.c ****         if(indic->type == LV_METER_INDICATOR_TYPE_NEEDLE_LINE) {
 591:lvgl/src/extra/widgets/meter/lv_meter.c ****             int32_t angle = lv_map(indic->end_value, scale->min, scale->max, scale->rotation, scale
 1612              		.loc 1 591 13 is_stmt 1 view .LVU544
 1613              		.loc 1 591 83 is_stmt 0 view .LVU545
 1614 0084 B5F92030 		ldrsh	r3, [r5, #32]
ARM GAS  C:\usertemp\ccXAVGrP.s 			page 63


 1615              		.loc 1 591 118 view .LVU546
 1616 0088 B5F81EC0 		ldrh	ip, [r5, #30]
 1617              		.loc 1 591 111 view .LVU547
 1618 008c 9C44     		add	ip, ip, r3
 1619              		.loc 1 591 29 view .LVU548
 1620 008e AA69     		ldr	r2, [r5, #24]
 1621 0090 6969     		ldr	r1, [r5, #20]
 1622 0092 E068     		ldr	r0, [r4, #12]
 1623              	.LVL184:
 1624              		.loc 1 591 29 view .LVU549
 1625 0094 CDF800C0 		str	ip, [sp]
 1626 0098 FFF7FEFF 		bl	lv_map
 1627              	.LVL185:
 1628 009c 8146     		mov	r9, r0
 1629              	.LVL186:
 592:lvgl/src/extra/widgets/meter/lv_meter.c ****             lv_coord_t r_out = r_edge + scale->r_mod + indic->type_data.needle_line.r_mod;
 1630              		.loc 1 592 13 is_stmt 1 view .LVU550
 1631              		.loc 1 592 46 is_stmt 0 view .LVU551
 1632 009e AD8B     		ldrh	r5, [r5, #28]
 1633              	.LVL187:
 1634              		.loc 1 592 39 view .LVU552
 1635 00a0 3544     		add	r5, r5, r6
 1636              		.loc 1 592 84 view .LVU553
 1637 00a2 638A     		ldrh	r3, [r4, #18]
 1638              		.loc 1 592 54 view .LVU554
 1639 00a4 13FA85F5 		uxtah	r5, r3, r5
 1640              		.loc 1 592 24 view .LVU555
 1641 00a8 2DB2     		sxth	r5, r5
 1642              	.LVL188:
 593:lvgl/src/extra/widgets/meter/lv_meter.c ****             lv_point_t p_end;
 1643              		.loc 1 593 13 is_stmt 1 view .LVU556
 594:lvgl/src/extra/widgets/meter/lv_meter.c ****             p_end.y = (lv_trigo_sin(angle) * (r_out)) / LV_TRIGO_SIN_MAX + scale_center.y;
 1644              		.loc 1 594 13 view .LVU557
 1645              		.loc 1 594 24 is_stmt 0 view .LVU558
 1646 00aa 00B2     		sxth	r0, r0
 1647              	.LVL189:
 1648              		.loc 1 594 24 view .LVU559
 1649 00ac FFF7FEFF 		bl	lv_trigo_sin
 1650              	.LVL190:
 1651              		.loc 1 594 44 discriminator 1 view .LVU560
 1652 00b0 05FB00F0 		mul	r0, r5, r0
 1653              		.loc 1 594 55 discriminator 1 view .LVU561
 1654 00b4 DFF88881 		ldr	r8, .L71+4
 1655 00b8 88FB0023 		smull	r2, r3, r8, r0
 1656 00bc 0344     		add	r3, r3, r0
 1657 00be C017     		asrs	r0, r0, #31
 1658 00c0 C0EBA330 		rsb	r0, r0, r3, asr #14
 1659              		.loc 1 594 88 discriminator 1 view .LVU562
 1660 00c4 BDF88E30 		ldrh	r3, [sp, #142]
 1661              		.loc 1 594 74 discriminator 1 view .LVU563
 1662 00c8 0344     		add	r3, r3, r0
 1663              		.loc 1 594 21 discriminator 1 view .LVU564
 1664 00ca ADF81A30 		strh	r3, [sp, #26]	@ movhi
 595:lvgl/src/extra/widgets/meter/lv_meter.c ****             p_end.x = (lv_trigo_cos(angle) * (r_out)) / LV_TRIGO_SIN_MAX + scale_center.x;
 1665              		.loc 1 595 13 is_stmt 1 view .LVU565
 1666              	.LVL191:
 1667              	.LBB81:
ARM GAS  C:\usertemp\ccXAVGrP.s 			page 64


 1668              	.LBI81:
  49:lvgl/src/extra/widgets/meter/../../../../src/misc/lv_math.h **** {
 1669              		.loc 5 49 45 view .LVU566
 1670              	.LBB82:
 1671              		.loc 5 51 5 view .LVU567
 1672              		.loc 5 51 31 is_stmt 0 view .LVU568
 1673 00ce 09F15A00 		add	r0, r9, #90
 1674              		.loc 5 51 12 view .LVU569
 1675 00d2 00B2     		sxth	r0, r0
 1676 00d4 FFF7FEFF 		bl	lv_trigo_sin
 1677              	.LVL192:
 1678              		.loc 5 51 12 view .LVU570
 1679              	.LBE82:
 1680              	.LBE81:
 1681              		.loc 1 595 44 discriminator 1 view .LVU571
 1682 00d8 00FB05F5 		mul	r5, r0, r5
 1683              	.LVL193:
 1684              		.loc 1 595 55 discriminator 1 view .LVU572
 1685 00dc 88FB0538 		smull	r3, r8, r8, r5
 1686 00e0 A844     		add	r8, r8, r5
 1687 00e2 ED17     		asrs	r5, r5, #31
 1688 00e4 C5EBA835 		rsb	r5, r5, r8, asr #14
 1689              		.loc 1 595 88 discriminator 1 view .LVU573
 1690 00e8 BDF88C30 		ldrh	r3, [sp, #140]
 1691              		.loc 1 595 74 discriminator 1 view .LVU574
 1692 00ec 2B44     		add	r3, r3, r5
 1693              		.loc 1 595 21 discriminator 1 view .LVU575
 1694 00ee ADF81830 		strh	r3, [sp, #24]	@ movhi
 596:lvgl/src/extra/widgets/meter/lv_meter.c ****             line_dsc.color = indic->type_data.needle_line.color;
 1695              		.loc 1 596 13 is_stmt 1 view .LVU576
 1696              		.loc 1 596 28 is_stmt 0 view .LVU577
 1697 00f2 A38A     		ldrh	r3, [r4, #20]
 1698 00f4 ADF88030 		strh	r3, [sp, #128]	@ movhi
 597:lvgl/src/extra/widgets/meter/lv_meter.c ****             line_dsc.width = indic->type_data.needle_line.width;
 1699              		.loc 1 597 13 is_stmt 1 view .LVU578
 1700              		.loc 1 597 58 is_stmt 0 view .LVU579
 1701 00f8 B4F91030 		ldrsh	r3, [r4, #16]
 1702              		.loc 1 597 28 view .LVU580
 1703 00fc ADF88230 		strh	r3, [sp, #130]	@ movhi
 598:lvgl/src/extra/widgets/meter/lv_meter.c ****             line_dsc.opa = indic->opa > LV_OPA_MAX ? opa_main : (opa_main * indic->opa) >> 8;
 1704              		.loc 1 598 13 is_stmt 1 view .LVU581
 1705              		.loc 1 598 33 is_stmt 0 view .LVU582
 1706 0100 6279     		ldrb	r2, [r4, #5]	@ zero_extendqisi2
 1707              		.loc 1 598 26 view .LVU583
 1708 0102 FD2A     		cmp	r2, #253
 1709 0104 1FD8     		bhi	.L65
 1710              		.loc 1 598 75 discriminator 1 view .LVU584
 1711 0106 9DF80830 		ldrb	r3, [sp, #8]	@ zero_extendqisi2
 1712 010a 02FB03F3 		mul	r3, r2, r3
 1713              		.loc 1 598 26 discriminator 1 view .LVU585
 1714 010e 1B0A     		lsrs	r3, r3, #8
 1715              	.L59:
 1716              		.loc 1 598 26 discriminator 4 view .LVU586
 1717 0110 8DF88830 		strb	r3, [sp, #136]
 599:lvgl/src/extra/widgets/meter/lv_meter.c **** 
 600:lvgl/src/extra/widgets/meter/lv_meter.c ****             part_draw_dsc.id = LV_METER_DRAW_PART_NEEDLE_LINE;
 1718              		.loc 1 600 13 is_stmt 1 view .LVU587
ARM GAS  C:\usertemp\ccXAVGrP.s 			page 65


 1719              		.loc 1 600 30 is_stmt 0 view .LVU588
 1720 0114 0123     		movs	r3, #1
 1721 0116 1693     		str	r3, [sp, #88]
 601:lvgl/src/extra/widgets/meter/lv_meter.c ****             part_draw_dsc.line_dsc = &line_dsc;
 1722              		.loc 1 601 13 is_stmt 1 view .LVU589
 1723              		.loc 1 601 36 is_stmt 0 view .LVU590
 1724 0118 20AD     		add	r5, sp, #128
 1725 011a 0E95     		str	r5, [sp, #56]
 602:lvgl/src/extra/widgets/meter/lv_meter.c ****             part_draw_dsc.p2 = &p_end;
 1726              		.loc 1 602 13 is_stmt 1 view .LVU591
 1727              		.loc 1 602 30 is_stmt 0 view .LVU592
 1728 011c 0DF11808 		add	r8, sp, #24
 1729 0120 CDF84880 		str	r8, [sp, #72]
 603:lvgl/src/extra/widgets/meter/lv_meter.c **** 
 604:lvgl/src/extra/widgets/meter/lv_meter.c ****             lv_event_send(obj, LV_EVENT_DRAW_PART_BEGIN, &part_draw_dsc);
 1730              		.loc 1 604 13 is_stmt 1 view .LVU593
 1731 0124 08AA     		add	r2, sp, #32
 1732 0126 1A21     		movs	r1, #26
 1733 0128 3846     		mov	r0, r7
 1734 012a FFF7FEFF 		bl	lv_event_send
 1735              	.LVL194:
 605:lvgl/src/extra/widgets/meter/lv_meter.c ****             lv_draw_line(draw_ctx, &line_dsc, &scale_center, &p_end);
 1736              		.loc 1 605 13 view .LVU594
 1737 012e 4346     		mov	r3, r8
 1738 0130 23AA     		add	r2, sp, #140
 1739 0132 2946     		mov	r1, r5
 1740 0134 5846     		mov	r0, fp
 1741 0136 FFF7FEFF 		bl	lv_draw_line
 1742              	.LVL195:
 606:lvgl/src/extra/widgets/meter/lv_meter.c ****             lv_event_send(obj, LV_EVENT_DRAW_PART_END, &part_draw_dsc);
 1743              		.loc 1 606 13 view .LVU595
 1744 013a 08AA     		add	r2, sp, #32
 1745 013c 1B21     		movs	r1, #27
 1746 013e 3846     		mov	r0, r7
 1747 0140 FFF7FEFF 		bl	lv_event_send
 1748              	.LVL196:
 1749              	.LBE80:
 1750 0144 17E0     		b	.L60
 1751              	.L65:
 1752              	.LBB83:
 598:lvgl/src/extra/widgets/meter/lv_meter.c **** 
 1753              		.loc 1 598 26 is_stmt 0 discriminator 2 view .LVU596
 1754 0146 039B     		ldr	r3, [sp, #12]
 1755 0148 E2E7     		b	.L59
 1756              	.LVL197:
 1757              	.L66:
 598:lvgl/src/extra/widgets/meter/lv_meter.c **** 
 1758              		.loc 1 598 26 discriminator 2 view .LVU597
 1759              	.LBE83:
 1760              	.LBB84:
 607:lvgl/src/extra/widgets/meter/lv_meter.c ****         }
 608:lvgl/src/extra/widgets/meter/lv_meter.c ****         else if(indic->type == LV_METER_INDICATOR_TYPE_NEEDLE_IMG) {
 609:lvgl/src/extra/widgets/meter/lv_meter.c ****             if(indic->type_data.needle_img.src == NULL) continue;
 610:lvgl/src/extra/widgets/meter/lv_meter.c **** 
 611:lvgl/src/extra/widgets/meter/lv_meter.c ****             int32_t angle = lv_map(indic->end_value, scale->min, scale->max, scale->rotation, scale
 612:lvgl/src/extra/widgets/meter/lv_meter.c ****             lv_img_header_t info;
 613:lvgl/src/extra/widgets/meter/lv_meter.c ****             lv_img_decoder_get_info(indic->type_data.needle_img.src, &info);
ARM GAS  C:\usertemp\ccXAVGrP.s 			page 66


 614:lvgl/src/extra/widgets/meter/lv_meter.c ****             lv_area_t a;
 615:lvgl/src/extra/widgets/meter/lv_meter.c ****             a.x1 = scale_center.x - indic->type_data.needle_img.pivot.x;
 616:lvgl/src/extra/widgets/meter/lv_meter.c ****             a.y1 = scale_center.y - indic->type_data.needle_img.pivot.y;
 617:lvgl/src/extra/widgets/meter/lv_meter.c ****             a.x2 = a.x1 + info.w - 1;
 618:lvgl/src/extra/widgets/meter/lv_meter.c ****             a.y2 = a.y1 + info.h - 1;
 619:lvgl/src/extra/widgets/meter/lv_meter.c **** 
 620:lvgl/src/extra/widgets/meter/lv_meter.c ****             img_dsc.opa = indic->opa > LV_OPA_MAX ? opa_main : (opa_main * indic->opa) >> 8;
 1761              		.loc 1 620 25 discriminator 2 view .LVU598
 1762 014a 039B     		ldr	r3, [sp, #12]
 1763 014c 62E0     		b	.L62
 1764              	.LVL198:
 1765              	.L63:
 621:lvgl/src/extra/widgets/meter/lv_meter.c ****             img_dsc.pivot.x = indic->type_data.needle_img.pivot.x;
 622:lvgl/src/extra/widgets/meter/lv_meter.c ****             img_dsc.pivot.y = indic->type_data.needle_img.pivot.y;
 623:lvgl/src/extra/widgets/meter/lv_meter.c ****             angle = angle * 10;
 624:lvgl/src/extra/widgets/meter/lv_meter.c ****             if(angle > 3600) angle -= 3600;
 625:lvgl/src/extra/widgets/meter/lv_meter.c ****             img_dsc.angle = angle;
 1766              		.loc 1 625 13 is_stmt 1 view .LVU599
 1767              		.loc 1 625 27 is_stmt 0 view .LVU600
 1768 014e ADF86830 		strh	r3, [sp, #104]	@ movhi
 626:lvgl/src/extra/widgets/meter/lv_meter.c **** 
 627:lvgl/src/extra/widgets/meter/lv_meter.c ****             part_draw_dsc.img_dsc = &img_dsc;
 1769              		.loc 1 627 13 is_stmt 1 view .LVU601
 1770              		.loc 1 627 35 is_stmt 0 view .LVU602
 1771 0152 1AAD     		add	r5, sp, #104
 1772 0154 0F95     		str	r5, [sp, #60]
 628:lvgl/src/extra/widgets/meter/lv_meter.c **** 
 629:lvgl/src/extra/widgets/meter/lv_meter.c ****             lv_event_send(obj, LV_EVENT_DRAW_PART_BEGIN, &part_draw_dsc);
 1773              		.loc 1 629 13 is_stmt 1 view .LVU603
 1774 0156 08AA     		add	r2, sp, #32
 1775 0158 1A21     		movs	r1, #26
 1776 015a 3846     		mov	r0, r7
 1777 015c FFF7FEFF 		bl	lv_event_send
 1778              	.LVL199:
 630:lvgl/src/extra/widgets/meter/lv_meter.c ****             lv_draw_img(draw_ctx, &img_dsc, &a, indic->type_data.needle_img.src);
 1779              		.loc 1 630 13 view .LVU604
 1780 0160 2369     		ldr	r3, [r4, #16]
 1781 0162 06AA     		add	r2, sp, #24
 1782 0164 2946     		mov	r1, r5
 1783 0166 5846     		mov	r0, fp
 1784 0168 FFF7FEFF 		bl	lv_draw_img
 1785              	.LVL200:
 631:lvgl/src/extra/widgets/meter/lv_meter.c ****             lv_event_send(obj, LV_EVENT_DRAW_PART_END, &part_draw_dsc);
 1786              		.loc 1 631 13 view .LVU605
 1787 016c 08AA     		add	r2, sp, #32
 1788 016e 1B21     		movs	r1, #27
 1789 0170 3846     		mov	r0, r7
 1790 0172 FFF7FEFF 		bl	lv_event_send
 1791              	.LVL201:
 1792              	.L60:
 1793              		.loc 1 631 13 is_stmt 0 view .LVU606
 1794              	.LBE84:
 1795              	.LBE79:
 586:lvgl/src/extra/widgets/meter/lv_meter.c ****         lv_meter_scale_t * scale = indic->scale;
 1796              		.loc 1 586 5 is_stmt 1 discriminator 2 view .LVU607
 1797 0176 2146     		mov	r1, r4
 1798 0178 5046     		mov	r0, r10
ARM GAS  C:\usertemp\ccXAVGrP.s 			page 67


 1799 017a FFF7FEFF 		bl	_lv_ll_get_prev
 1800              	.LVL202:
 1801 017e 0446     		mov	r4, r0
 1802              	.LVL203:
 1803              	.L57:
 586:lvgl/src/extra/widgets/meter/lv_meter.c ****         lv_meter_scale_t * scale = indic->scale;
 1804              		.loc 1 586 5 discriminator 1 view .LVU608
 1805 0180 002C     		cmp	r4, #0
 1806 0182 57D0     		beq	.L69
 1807              	.LBB86:
 587:lvgl/src/extra/widgets/meter/lv_meter.c ****         part_draw_dsc.sub_part_ptr = indic;
 1808              		.loc 1 587 9 view .LVU609
 587:lvgl/src/extra/widgets/meter/lv_meter.c ****         part_draw_dsc.sub_part_ptr = indic;
 1809              		.loc 1 587 28 is_stmt 0 view .LVU610
 1810 0184 2568     		ldr	r5, [r4]
 1811              	.LVL204:
 588:lvgl/src/extra/widgets/meter/lv_meter.c **** 
 1812              		.loc 1 588 9 is_stmt 1 view .LVU611
 588:lvgl/src/extra/widgets/meter/lv_meter.c **** 
 1813              		.loc 1 588 36 is_stmt 0 view .LVU612
 1814 0186 1994     		str	r4, [sp, #100]
 590:lvgl/src/extra/widgets/meter/lv_meter.c ****             int32_t angle = lv_map(indic->end_value, scale->min, scale->max, scale->rotation, scale
 1815              		.loc 1 590 9 is_stmt 1 view .LVU613
 590:lvgl/src/extra/widgets/meter/lv_meter.c ****             int32_t angle = lv_map(indic->end_value, scale->min, scale->max, scale->rotation, scale
 1816              		.loc 1 590 17 is_stmt 0 view .LVU614
 1817 0188 2379     		ldrb	r3, [r4, #4]	@ zero_extendqisi2
 590:lvgl/src/extra/widgets/meter/lv_meter.c ****             int32_t angle = lv_map(indic->end_value, scale->min, scale->max, scale->rotation, scale
 1818              		.loc 1 590 11 view .LVU615
 1819 018a 012B     		cmp	r3, #1
 1820 018c 3FF47AAF 		beq	.L70
 608:lvgl/src/extra/widgets/meter/lv_meter.c ****             if(indic->type_data.needle_img.src == NULL) continue;
 1821              		.loc 1 608 14 is_stmt 1 view .LVU616
 608:lvgl/src/extra/widgets/meter/lv_meter.c ****             if(indic->type_data.needle_img.src == NULL) continue;
 1822              		.loc 1 608 16 is_stmt 0 view .LVU617
 1823 0190 002B     		cmp	r3, #0
 1824 0192 F0D1     		bne	.L60
 1825              	.LBB85:
 609:lvgl/src/extra/widgets/meter/lv_meter.c **** 
 1826              		.loc 1 609 13 is_stmt 1 view .LVU618
 609:lvgl/src/extra/widgets/meter/lv_meter.c **** 
 1827              		.loc 1 609 43 is_stmt 0 view .LVU619
 1828 0194 2369     		ldr	r3, [r4, #16]
 609:lvgl/src/extra/widgets/meter/lv_meter.c **** 
 1829              		.loc 1 609 15 view .LVU620
 1830 0196 002B     		cmp	r3, #0
 1831 0198 EDD0     		beq	.L60
 611:lvgl/src/extra/widgets/meter/lv_meter.c ****             lv_img_header_t info;
 1832              		.loc 1 611 13 is_stmt 1 view .LVU621
 611:lvgl/src/extra/widgets/meter/lv_meter.c ****             lv_img_header_t info;
 1833              		.loc 1 611 83 is_stmt 0 view .LVU622
 1834 019a B5F92030 		ldrsh	r3, [r5, #32]
 611:lvgl/src/extra/widgets/meter/lv_meter.c ****             lv_img_header_t info;
 1835              		.loc 1 611 118 view .LVU623
 1836 019e B5F81EC0 		ldrh	ip, [r5, #30]
 611:lvgl/src/extra/widgets/meter/lv_meter.c ****             lv_img_header_t info;
 1837              		.loc 1 611 111 view .LVU624
 1838 01a2 9C44     		add	ip, ip, r3
ARM GAS  C:\usertemp\ccXAVGrP.s 			page 68


 611:lvgl/src/extra/widgets/meter/lv_meter.c ****             lv_img_header_t info;
 1839              		.loc 1 611 29 view .LVU625
 1840 01a4 AA69     		ldr	r2, [r5, #24]
 1841 01a6 6969     		ldr	r1, [r5, #20]
 1842 01a8 E068     		ldr	r0, [r4, #12]
 1843              	.LVL205:
 611:lvgl/src/extra/widgets/meter/lv_meter.c ****             lv_img_header_t info;
 1844              		.loc 1 611 29 view .LVU626
 1845 01aa CDF800C0 		str	ip, [sp]
 1846 01ae FFF7FEFF 		bl	lv_map
 1847              	.LVL206:
 1848 01b2 0546     		mov	r5, r0
 1849              	.LVL207:
 612:lvgl/src/extra/widgets/meter/lv_meter.c ****             lv_img_decoder_get_info(indic->type_data.needle_img.src, &info);
 1850              		.loc 1 612 13 is_stmt 1 view .LVU627
 613:lvgl/src/extra/widgets/meter/lv_meter.c ****             lv_area_t a;
 1851              		.loc 1 613 13 view .LVU628
 1852 01b4 05A9     		add	r1, sp, #20
 1853 01b6 2069     		ldr	r0, [r4, #16]
 1854              	.LVL208:
 613:lvgl/src/extra/widgets/meter/lv_meter.c ****             lv_area_t a;
 1855              		.loc 1 613 13 is_stmt 0 view .LVU629
 1856 01b8 FFF7FEFF 		bl	lv_img_decoder_get_info
 1857              	.LVL209:
 614:lvgl/src/extra/widgets/meter/lv_meter.c ****             a.x1 = scale_center.x - indic->type_data.needle_img.pivot.x;
 1858              		.loc 1 614 13 is_stmt 1 view .LVU630
 615:lvgl/src/extra/widgets/meter/lv_meter.c ****             a.y1 = scale_center.y - indic->type_data.needle_img.pivot.y;
 1859              		.loc 1 615 13 view .LVU631
 615:lvgl/src/extra/widgets/meter/lv_meter.c ****             a.y1 = scale_center.y - indic->type_data.needle_img.pivot.y;
 1860              		.loc 1 615 32 is_stmt 0 view .LVU632
 1861 01bc BDF88C20 		ldrh	r2, [sp, #140]
 615:lvgl/src/extra/widgets/meter/lv_meter.c ****             a.y1 = scale_center.y - indic->type_data.needle_img.pivot.y;
 1862              		.loc 1 615 70 view .LVU633
 1863 01c0 B4F914C0 		ldrsh	ip, [r4, #20]
 1864 01c4 1FFA8CF3 		uxth	r3, ip
 615:lvgl/src/extra/widgets/meter/lv_meter.c ****             a.y1 = scale_center.y - indic->type_data.needle_img.pivot.y;
 1865              		.loc 1 615 35 view .LVU634
 1866 01c8 D21A     		subs	r2, r2, r3
 615:lvgl/src/extra/widgets/meter/lv_meter.c ****             a.y1 = scale_center.y - indic->type_data.needle_img.pivot.y;
 1867              		.loc 1 615 18 view .LVU635
 1868 01ca ADF81820 		strh	r2, [sp, #24]	@ movhi
 616:lvgl/src/extra/widgets/meter/lv_meter.c ****             a.x2 = a.x1 + info.w - 1;
 1869              		.loc 1 616 13 is_stmt 1 view .LVU636
 616:lvgl/src/extra/widgets/meter/lv_meter.c ****             a.x2 = a.x1 + info.w - 1;
 1870              		.loc 1 616 32 is_stmt 0 view .LVU637
 1871 01ce BDF88E30 		ldrh	r3, [sp, #142]
 616:lvgl/src/extra/widgets/meter/lv_meter.c ****             a.x2 = a.x1 + info.w - 1;
 1872              		.loc 1 616 70 view .LVU638
 1873 01d2 B4F91600 		ldrsh	r0, [r4, #22]
 1874 01d6 81B2     		uxth	r1, r0
 616:lvgl/src/extra/widgets/meter/lv_meter.c ****             a.x2 = a.x1 + info.w - 1;
 1875              		.loc 1 616 35 view .LVU639
 1876 01d8 5B1A     		subs	r3, r3, r1
 616:lvgl/src/extra/widgets/meter/lv_meter.c ****             a.x2 = a.x1 + info.w - 1;
 1877              		.loc 1 616 18 view .LVU640
 1878 01da ADF81A30 		strh	r3, [sp, #26]	@ movhi
 617:lvgl/src/extra/widgets/meter/lv_meter.c ****             a.y2 = a.y1 + info.h - 1;
ARM GAS  C:\usertemp\ccXAVGrP.s 			page 69


 1879              		.loc 1 617 13 is_stmt 1 view .LVU641
 617:lvgl/src/extra/widgets/meter/lv_meter.c ****             a.y2 = a.y1 + info.h - 1;
 1880              		.loc 1 617 31 is_stmt 0 view .LVU642
 1881 01de 0599     		ldr	r1, [sp, #20]
 1882 01e0 C1F38A21 		ubfx	r1, r1, #10, #11
 617:lvgl/src/extra/widgets/meter/lv_meter.c ****             a.y2 = a.y1 + info.h - 1;
 1883              		.loc 1 617 25 view .LVU643
 1884 01e4 11FA82F2 		uxtah	r2, r1, r2
 1885 01e8 92B2     		uxth	r2, r2
 617:lvgl/src/extra/widgets/meter/lv_meter.c ****             a.y2 = a.y1 + info.h - 1;
 1886              		.loc 1 617 34 view .LVU644
 1887 01ea 013A     		subs	r2, r2, #1
 617:lvgl/src/extra/widgets/meter/lv_meter.c ****             a.y2 = a.y1 + info.h - 1;
 1888              		.loc 1 617 18 view .LVU645
 1889 01ec ADF81C20 		strh	r2, [sp, #28]	@ movhi
 618:lvgl/src/extra/widgets/meter/lv_meter.c **** 
 1890              		.loc 1 618 13 is_stmt 1 view .LVU646
 618:lvgl/src/extra/widgets/meter/lv_meter.c **** 
 1891              		.loc 1 618 31 is_stmt 0 view .LVU647
 1892 01f0 BDF81620 		ldrh	r2, [sp, #22]
 1893 01f4 C2F34A12 		ubfx	r2, r2, #5, #11
 618:lvgl/src/extra/widgets/meter/lv_meter.c **** 
 1894              		.loc 1 618 25 view .LVU648
 1895 01f8 12FA83F3 		uxtah	r3, r2, r3
 1896 01fc 9BB2     		uxth	r3, r3
 618:lvgl/src/extra/widgets/meter/lv_meter.c **** 
 1897              		.loc 1 618 34 view .LVU649
 1898 01fe 013B     		subs	r3, r3, #1
 618:lvgl/src/extra/widgets/meter/lv_meter.c **** 
 1899              		.loc 1 618 18 view .LVU650
 1900 0200 ADF81E30 		strh	r3, [sp, #30]	@ movhi
 620:lvgl/src/extra/widgets/meter/lv_meter.c ****             img_dsc.pivot.x = indic->type_data.needle_img.pivot.x;
 1901              		.loc 1 620 13 is_stmt 1 view .LVU651
 620:lvgl/src/extra/widgets/meter/lv_meter.c ****             img_dsc.pivot.x = indic->type_data.needle_img.pivot.x;
 1902              		.loc 1 620 32 is_stmt 0 view .LVU652
 1903 0204 6279     		ldrb	r2, [r4, #5]	@ zero_extendqisi2
 620:lvgl/src/extra/widgets/meter/lv_meter.c ****             img_dsc.pivot.x = indic->type_data.needle_img.pivot.x;
 1904              		.loc 1 620 25 view .LVU653
 1905 0206 FD2A     		cmp	r2, #253
 1906 0208 9FD8     		bhi	.L66
 620:lvgl/src/extra/widgets/meter/lv_meter.c ****             img_dsc.pivot.x = indic->type_data.needle_img.pivot.x;
 1907              		.loc 1 620 74 discriminator 1 view .LVU654
 1908 020a 9DF80830 		ldrb	r3, [sp, #8]	@ zero_extendqisi2
 1909 020e 02FB03F3 		mul	r3, r2, r3
 620:lvgl/src/extra/widgets/meter/lv_meter.c ****             img_dsc.pivot.x = indic->type_data.needle_img.pivot.x;
 1910              		.loc 1 620 25 discriminator 1 view .LVU655
 1911 0212 1B0A     		lsrs	r3, r3, #8
 1912              	.L62:
 620:lvgl/src/extra/widgets/meter/lv_meter.c ****             img_dsc.pivot.x = indic->type_data.needle_img.pivot.x;
 1913              		.loc 1 620 25 discriminator 4 view .LVU656
 1914 0214 8DF87330 		strb	r3, [sp, #115]
 621:lvgl/src/extra/widgets/meter/lv_meter.c ****             img_dsc.pivot.y = indic->type_data.needle_img.pivot.y;
 1915              		.loc 1 621 13 is_stmt 1 view .LVU657
 621:lvgl/src/extra/widgets/meter/lv_meter.c ****             img_dsc.pivot.y = indic->type_data.needle_img.pivot.y;
 1916              		.loc 1 621 29 is_stmt 0 view .LVU658
 1917 0218 ADF86CC0 		strh	ip, [sp, #108]	@ movhi
 622:lvgl/src/extra/widgets/meter/lv_meter.c ****             angle = angle * 10;
ARM GAS  C:\usertemp\ccXAVGrP.s 			page 70


 1918              		.loc 1 622 13 is_stmt 1 view .LVU659
 622:lvgl/src/extra/widgets/meter/lv_meter.c ****             angle = angle * 10;
 1919              		.loc 1 622 29 is_stmt 0 view .LVU660
 1920 021c ADF86E00 		strh	r0, [sp, #110]	@ movhi
 623:lvgl/src/extra/widgets/meter/lv_meter.c ****             if(angle > 3600) angle -= 3600;
 1921              		.loc 1 623 13 is_stmt 1 view .LVU661
 623:lvgl/src/extra/widgets/meter/lv_meter.c ****             if(angle > 3600) angle -= 3600;
 1922              		.loc 1 623 19 is_stmt 0 view .LVU662
 1923 0220 05EB8505 		add	r5, r5, r5, lsl #2
 1924              	.LVL210:
 623:lvgl/src/extra/widgets/meter/lv_meter.c ****             if(angle > 3600) angle -= 3600;
 1925              		.loc 1 623 19 view .LVU663
 1926 0224 6D00     		lsls	r5, r5, #1
 1927 0226 2B46     		mov	r3, r5
 1928              	.LVL211:
 624:lvgl/src/extra/widgets/meter/lv_meter.c ****             img_dsc.angle = angle;
 1929              		.loc 1 624 13 is_stmt 1 view .LVU664
 624:lvgl/src/extra/widgets/meter/lv_meter.c ****             img_dsc.angle = angle;
 1930              		.loc 1 624 15 is_stmt 0 view .LVU665
 1931 0228 B5F5616F 		cmp	r5, #3600
 1932 022c 8FDD     		ble	.L63
 624:lvgl/src/extra/widgets/meter/lv_meter.c ****             img_dsc.angle = angle;
 1933              		.loc 1 624 30 is_stmt 1 discriminator 1 view .LVU666
 624:lvgl/src/extra/widgets/meter/lv_meter.c ****             img_dsc.angle = angle;
 1934              		.loc 1 624 36 is_stmt 0 discriminator 1 view .LVU667
 1935 022e A5F56163 		sub	r3, r5, #3600
 1936              	.LVL212:
 624:lvgl/src/extra/widgets/meter/lv_meter.c ****             img_dsc.angle = angle;
 1937              		.loc 1 624 36 discriminator 1 view .LVU668
 1938 0232 8CE7     		b	.L63
 1939              	.LVL213:
 1940              	.L69:
 624:lvgl/src/extra/widgets/meter/lv_meter.c ****             img_dsc.angle = angle;
 1941              		.loc 1 624 36 discriminator 1 view .LVU669
 1942              	.LBE85:
 1943              	.LBE86:
 632:lvgl/src/extra/widgets/meter/lv_meter.c ****         }
 633:lvgl/src/extra/widgets/meter/lv_meter.c ****     }
 634:lvgl/src/extra/widgets/meter/lv_meter.c **** }
 1944              		.loc 1 634 1 view .LVU670
 1945 0234 25B0     		add	sp, sp, #148
 1946              	.LCFI8:
 1947              		.cfi_def_cfa_offset 36
 1948              		@ sp needed
 1949 0236 BDE8F08F 		pop	{r4, r5, r6, r7, r8, r9, r10, fp, pc}
 1950              	.LVL214:
 1951              	.L72:
 1952              		.loc 1 634 1 view .LVU671
 1953 023a 00BF     		.align	2
 1954              	.L71:
 1955 023c 00000000 		.word	lv_meter_class
 1956 0240 03000180 		.word	-2147418109
 1957              		.cfi_endproc
 1958              	.LFE213:
 1960              		.section	.text.lv_meter_event,"ax",%progbits
 1961              		.align	1
 1962              		.syntax unified
ARM GAS  C:\usertemp\ccXAVGrP.s 			page 71


 1963              		.thumb
 1964              		.thumb_func
 1966              	lv_meter_event:
 1967              	.LVL215:
 1968              	.LFB210:
 290:lvgl/src/extra/widgets/meter/lv_meter.c ****     LV_UNUSED(class_p);
 1969              		.loc 1 290 1 is_stmt 1 view -0
 1970              		.cfi_startproc
 1971              		@ args = 0, pretend = 0, frame = 80
 1972              		@ frame_needed = 0, uses_anonymous_args = 0
 290:lvgl/src/extra/widgets/meter/lv_meter.c ****     LV_UNUSED(class_p);
 1973              		.loc 1 290 1 is_stmt 0 view .LVU673
 1974 0000 2DE9F041 		push	{r4, r5, r6, r7, r8, lr}
 1975              	.LCFI9:
 1976              		.cfi_def_cfa_offset 24
 1977              		.cfi_offset 4, -24
 1978              		.cfi_offset 5, -20
 1979              		.cfi_offset 6, -16
 1980              		.cfi_offset 7, -12
 1981              		.cfi_offset 8, -8
 1982              		.cfi_offset 14, -4
 1983 0004 94B0     		sub	sp, sp, #80
 1984              	.LCFI10:
 1985              		.cfi_def_cfa_offset 104
 1986 0006 0C46     		mov	r4, r1
 291:lvgl/src/extra/widgets/meter/lv_meter.c **** 
 1987              		.loc 1 291 5 is_stmt 1 view .LVU674
 293:lvgl/src/extra/widgets/meter/lv_meter.c ****     if(res != LV_RES_OK) return;
 1988              		.loc 1 293 5 view .LVU675
 293:lvgl/src/extra/widgets/meter/lv_meter.c ****     if(res != LV_RES_OK) return;
 1989              		.loc 1 293 20 is_stmt 0 view .LVU676
 1990 0008 3C48     		ldr	r0, .L83
 1991              	.LVL216:
 293:lvgl/src/extra/widgets/meter/lv_meter.c ****     if(res != LV_RES_OK) return;
 1992              		.loc 1 293 20 view .LVU677
 1993 000a FFF7FEFF 		bl	lv_obj_event_base
 1994              	.LVL217:
 294:lvgl/src/extra/widgets/meter/lv_meter.c **** 
 1995              		.loc 1 294 5 is_stmt 1 view .LVU678
 294:lvgl/src/extra/widgets/meter/lv_meter.c **** 
 1996              		.loc 1 294 7 is_stmt 0 view .LVU679
 1997 000e 0128     		cmp	r0, #1
 1998 0010 02D0     		beq	.L79
 1999              	.LVL218:
 2000              	.L73:
 324:lvgl/src/extra/widgets/meter/lv_meter.c **** 
 2001              		.loc 1 324 1 view .LVU680
 2002 0012 14B0     		add	sp, sp, #80
 2003              	.LCFI11:
 2004              		.cfi_remember_state
 2005              		.cfi_def_cfa_offset 24
 2006              		@ sp needed
 2007 0014 BDE8F081 		pop	{r4, r5, r6, r7, r8, pc}
 2008              	.LVL219:
 2009              	.L79:
 2010              	.LCFI12:
 2011              		.cfi_restore_state
ARM GAS  C:\usertemp\ccXAVGrP.s 			page 72


 296:lvgl/src/extra/widgets/meter/lv_meter.c ****     lv_obj_t * obj = lv_event_get_target(e);
 2012              		.loc 1 296 5 is_stmt 1 view .LVU681
 296:lvgl/src/extra/widgets/meter/lv_meter.c ****     lv_obj_t * obj = lv_event_get_target(e);
 2013              		.loc 1 296 28 is_stmt 0 view .LVU682
 2014 0018 2046     		mov	r0, r4
 2015              	.LVL220:
 296:lvgl/src/extra/widgets/meter/lv_meter.c ****     lv_obj_t * obj = lv_event_get_target(e);
 2016              		.loc 1 296 28 view .LVU683
 2017 001a FFF7FEFF 		bl	lv_event_get_code
 2018              	.LVL221:
 2019 001e 0646     		mov	r6, r0
 2020              	.LVL222:
 297:lvgl/src/extra/widgets/meter/lv_meter.c ****     if(code == LV_EVENT_DRAW_MAIN) {
 2021              		.loc 1 297 5 is_stmt 1 view .LVU684
 297:lvgl/src/extra/widgets/meter/lv_meter.c ****     if(code == LV_EVENT_DRAW_MAIN) {
 2022              		.loc 1 297 22 is_stmt 0 view .LVU685
 2023 0020 2046     		mov	r0, r4
 2024 0022 FFF7FEFF 		bl	lv_event_get_target
 2025              	.LVL223:
 2026 0026 0546     		mov	r5, r0
 2027              	.LVL224:
 298:lvgl/src/extra/widgets/meter/lv_meter.c ****         lv_draw_ctx_t * draw_ctx = lv_event_get_draw_ctx(e);
 2028              		.loc 1 298 5 is_stmt 1 view .LVU686
 298:lvgl/src/extra/widgets/meter/lv_meter.c ****         lv_draw_ctx_t * draw_ctx = lv_event_get_draw_ctx(e);
 2029              		.loc 1 298 7 is_stmt 0 view .LVU687
 2030 0028 152E     		cmp	r6, #21
 2031 002a F2D1     		bne	.L73
 2032              	.LBB87:
 299:lvgl/src/extra/widgets/meter/lv_meter.c ****         lv_area_t scale_area;
 2033              		.loc 1 299 9 is_stmt 1 view .LVU688
 299:lvgl/src/extra/widgets/meter/lv_meter.c ****         lv_area_t scale_area;
 2034              		.loc 1 299 36 is_stmt 0 view .LVU689
 2035 002c 2046     		mov	r0, r4
 2036              	.LVL225:
 299:lvgl/src/extra/widgets/meter/lv_meter.c ****         lv_area_t scale_area;
 2037              		.loc 1 299 36 view .LVU690
 2038 002e FFF7FEFF 		bl	lv_event_get_draw_ctx
 2039              	.LVL226:
 2040 0032 0446     		mov	r4, r0
 2041              	.LVL227:
 300:lvgl/src/extra/widgets/meter/lv_meter.c ****         lv_obj_get_content_coords(obj, &scale_area);
 2042              		.loc 1 300 9 is_stmt 1 view .LVU691
 301:lvgl/src/extra/widgets/meter/lv_meter.c **** 
 2043              		.loc 1 301 9 view .LVU692
 2044 0034 02A9     		add	r1, sp, #8
 2045 0036 2846     		mov	r0, r5
 2046              	.LVL228:
 301:lvgl/src/extra/widgets/meter/lv_meter.c **** 
 2047              		.loc 1 301 9 is_stmt 0 view .LVU693
 2048 0038 FFF7FEFF 		bl	lv_obj_get_content_coords
 2049              	.LVL229:
 303:lvgl/src/extra/widgets/meter/lv_meter.c ****         draw_ticks_and_labels(obj, draw_ctx, &scale_area);
 2050              		.loc 1 303 9 is_stmt 1 view .LVU694
 2051 003c 02AA     		add	r2, sp, #8
 2052 003e 2146     		mov	r1, r4
 2053 0040 2846     		mov	r0, r5
 2054 0042 FFF7FEFF 		bl	draw_arcs
ARM GAS  C:\usertemp\ccXAVGrP.s 			page 73


 2055              	.LVL230:
 304:lvgl/src/extra/widgets/meter/lv_meter.c ****         draw_needles(obj, draw_ctx, &scale_area);
 2056              		.loc 1 304 9 view .LVU695
 2057 0046 02AA     		add	r2, sp, #8
 2058 0048 2146     		mov	r1, r4
 2059 004a 2846     		mov	r0, r5
 2060 004c FFF7FEFF 		bl	draw_ticks_and_labels
 2061              	.LVL231:
 305:lvgl/src/extra/widgets/meter/lv_meter.c **** 
 2062              		.loc 1 305 9 view .LVU696
 2063 0050 02AA     		add	r2, sp, #8
 2064 0052 2146     		mov	r1, r4
 2065 0054 2846     		mov	r0, r5
 2066 0056 FFF7FEFF 		bl	draw_needles
 2067              	.LVL232:
 307:lvgl/src/extra/widgets/meter/lv_meter.c ****         lv_point_t scale_center;
 2068              		.loc 1 307 9 view .LVU697
 2069              	.LBB88:
 2070              	.LBI88:
 123:D:/update_2024EL/changeform/743zit6/lvgl/src/misc\lv_area.h **** {
 2071              		.loc 4 123 26 view .LVU698
 2072              	.LBB89:
 125:D:/update_2024EL/changeform/743zit6/lvgl/src/misc\lv_area.h **** }
 2073              		.loc 4 125 5 view .LVU699
 125:D:/update_2024EL/changeform/743zit6/lvgl/src/misc\lv_area.h **** }
 2074              		.loc 4 125 31 is_stmt 0 view .LVU700
 2075 005a BDF80C30 		ldrh	r3, [sp, #12]
 125:D:/update_2024EL/changeform/743zit6/lvgl/src/misc\lv_area.h **** }
 2076              		.loc 4 125 44 view .LVU701
 2077 005e BDF80820 		ldrh	r2, [sp, #8]
 125:D:/update_2024EL/changeform/743zit6/lvgl/src/misc\lv_area.h **** }
 2078              		.loc 4 125 36 view .LVU702
 2079 0062 9B1A     		subs	r3, r3, r2
 2080 0064 9BB2     		uxth	r3, r3
 125:D:/update_2024EL/changeform/743zit6/lvgl/src/misc\lv_area.h **** }
 2081              		.loc 4 125 49 view .LVU703
 2082 0066 0133     		adds	r3, r3, #1
 125:D:/update_2024EL/changeform/743zit6/lvgl/src/misc\lv_area.h **** }
 2083              		.loc 4 125 12 view .LVU704
 2084 0068 1BB2     		sxth	r3, r3
 2085              	.LVL233:
 125:D:/update_2024EL/changeform/743zit6/lvgl/src/misc\lv_area.h **** }
 2086              		.loc 4 125 12 view .LVU705
 2087              	.LBE89:
 2088              	.LBE88:
 307:lvgl/src/extra/widgets/meter/lv_meter.c ****         lv_point_t scale_center;
 2089              		.loc 1 307 20 discriminator 1 view .LVU706
 2090 006a 002B     		cmp	r3, #0
 2091 006c 40DB     		blt	.L80
 2092              	.L75:
 2093              	.LVL234:
 308:lvgl/src/extra/widgets/meter/lv_meter.c ****         scale_center.x = scale_area.x1 + r_edge;
 2094              		.loc 1 308 9 is_stmt 1 view .LVU707
 309:lvgl/src/extra/widgets/meter/lv_meter.c ****         scale_center.y = scale_area.y1 + r_edge;
 2095              		.loc 1 309 9 view .LVU708
 309:lvgl/src/extra/widgets/meter/lv_meter.c ****         scale_center.y = scale_area.y1 + r_edge;
 2096              		.loc 1 309 40 is_stmt 0 view .LVU709
ARM GAS  C:\usertemp\ccXAVGrP.s 			page 74


 2097 006e C3F34F03 		ubfx	r3, r3, #1, #16
 2098              	.LVL235:
 309:lvgl/src/extra/widgets/meter/lv_meter.c ****         scale_center.y = scale_area.y1 + r_edge;
 2099              		.loc 1 309 40 view .LVU710
 2100 0072 1A44     		add	r2, r2, r3
 2101 0074 97B2     		uxth	r7, r2
 309:lvgl/src/extra/widgets/meter/lv_meter.c ****         scale_center.y = scale_area.y1 + r_edge;
 2102              		.loc 1 309 24 view .LVU711
 2103 0076 ADF80420 		strh	r2, [sp, #4]	@ movhi
 310:lvgl/src/extra/widgets/meter/lv_meter.c **** 
 2104              		.loc 1 310 9 is_stmt 1 view .LVU712
 310:lvgl/src/extra/widgets/meter/lv_meter.c **** 
 2105              		.loc 1 310 36 is_stmt 0 view .LVU713
 2106 007a BDF80A20 		ldrh	r2, [sp, #10]
 310:lvgl/src/extra/widgets/meter/lv_meter.c **** 
 2107              		.loc 1 310 40 view .LVU714
 2108 007e 1344     		add	r3, r3, r2
 2109 0080 1FFA83F8 		uxth	r8, r3
 310:lvgl/src/extra/widgets/meter/lv_meter.c **** 
 2110              		.loc 1 310 24 view .LVU715
 2111 0084 ADF80630 		strh	r3, [sp, #6]	@ movhi
 312:lvgl/src/extra/widgets/meter/lv_meter.c ****         lv_draw_rect_dsc_init(&mid_dsc);
 2112              		.loc 1 312 9 is_stmt 1 view .LVU716
 313:lvgl/src/extra/widgets/meter/lv_meter.c ****         lv_obj_init_draw_rect_dsc(obj, LV_PART_INDICATOR, &mid_dsc);
 2113              		.loc 1 313 9 view .LVU717
 2114 0088 06A8     		add	r0, sp, #24
 2115 008a FFF7FEFF 		bl	lv_draw_rect_dsc_init
 2116              	.LVL236:
 314:lvgl/src/extra/widgets/meter/lv_meter.c ****         lv_coord_t w = lv_obj_get_style_width(obj, LV_PART_INDICATOR) / 2;
 2117              		.loc 1 314 9 view .LVU718
 2118 008e 06AA     		add	r2, sp, #24
 2119 0090 4FF40031 		mov	r1, #131072
 2120 0094 2846     		mov	r0, r5
 2121 0096 FFF7FEFF 		bl	lv_obj_init_draw_rect_dsc
 2122              	.LVL237:
 315:lvgl/src/extra/widgets/meter/lv_meter.c ****         lv_coord_t h = lv_obj_get_style_height(obj, LV_PART_INDICATOR) / 2;
 2123              		.loc 1 315 9 view .LVU719
 2124              	.LBB90:
 2125              	.LBI90:
   1:lvgl/src/extra/widgets/meter/../../../../src/core/lv_obj_style_gen.h **** {
 2126              		.loc 3 1 26 view .LVU720
 2127              	.LBB91:
   3:lvgl/src/extra/widgets/meter/../../../../src/core/lv_obj_style_gen.h ****     return (lv_coord_t)v.num;
 2128              		.loc 3 3 5 view .LVU721
   3:lvgl/src/extra/widgets/meter/../../../../src/core/lv_obj_style_gen.h ****     return (lv_coord_t)v.num;
 2129              		.loc 3 3 26 is_stmt 0 view .LVU722
 2130 009a 41F20102 		movw	r2, #4097
 2131 009e 4FF40031 		mov	r1, #131072
 2132 00a2 2846     		mov	r0, r5
 2133 00a4 FFF7FEFF 		bl	lv_obj_get_style_prop
 2134              	.LVL238:
   4:lvgl/src/extra/widgets/meter/../../../../src/core/lv_obj_style_gen.h **** }
 2135              		.loc 3 4 5 is_stmt 1 view .LVU723
   4:lvgl/src/extra/widgets/meter/../../../../src/core/lv_obj_style_gen.h **** }
 2136              		.loc 3 4 12 is_stmt 0 view .LVU724
 2137 00a8 00B2     		sxth	r0, r0
 2138              	.LVL239:
ARM GAS  C:\usertemp\ccXAVGrP.s 			page 75


   4:lvgl/src/extra/widgets/meter/../../../../src/core/lv_obj_style_gen.h **** }
 2139              		.loc 3 4 12 view .LVU725
 2140              	.LBE91:
 2141              	.LBE90:
 315:lvgl/src/extra/widgets/meter/lv_meter.c ****         lv_coord_t h = lv_obj_get_style_height(obj, LV_PART_INDICATOR) / 2;
 2142              		.loc 1 315 20 discriminator 1 view .LVU726
 2143 00aa 0028     		cmp	r0, #0
 2144 00ac 22DB     		blt	.L81
 2145              	.L76:
 2146 00ae 4610     		asrs	r6, r0, #1
 2147              	.LVL240:
 316:lvgl/src/extra/widgets/meter/lv_meter.c ****         lv_area_t nm_cord;
 2148              		.loc 1 316 9 is_stmt 1 view .LVU727
 2149              	.LBB92:
 2150              	.LBI92:
  19:lvgl/src/extra/widgets/meter/../../../../src/core/lv_obj_style_gen.h **** {
 2151              		.loc 3 19 26 view .LVU728
 2152              	.LBB93:
  21:lvgl/src/extra/widgets/meter/../../../../src/core/lv_obj_style_gen.h ****     return (lv_coord_t)v.num;
 2153              		.loc 3 21 5 view .LVU729
  21:lvgl/src/extra/widgets/meter/../../../../src/core/lv_obj_style_gen.h ****     return (lv_coord_t)v.num;
 2154              		.loc 3 21 26 is_stmt 0 view .LVU730
 2155 00b0 41F20402 		movw	r2, #4100
 2156 00b4 4FF40031 		mov	r1, #131072
 2157 00b8 2846     		mov	r0, r5
 2158 00ba FFF7FEFF 		bl	lv_obj_get_style_prop
 2159              	.LVL241:
  22:lvgl/src/extra/widgets/meter/../../../../src/core/lv_obj_style_gen.h **** }
 2160              		.loc 3 22 5 is_stmt 1 view .LVU731
  22:lvgl/src/extra/widgets/meter/../../../../src/core/lv_obj_style_gen.h **** }
 2161              		.loc 3 22 12 is_stmt 0 view .LVU732
 2162 00be 00B2     		sxth	r0, r0
 2163              	.LVL242:
  22:lvgl/src/extra/widgets/meter/../../../../src/core/lv_obj_style_gen.h **** }
 2164              		.loc 3 22 12 view .LVU733
 2165              	.LBE93:
 2166              	.LBE92:
 316:lvgl/src/extra/widgets/meter/lv_meter.c ****         lv_area_t nm_cord;
 2167              		.loc 1 316 20 discriminator 1 view .LVU734
 2168 00c0 0028     		cmp	r0, #0
 2169 00c2 19DB     		blt	.L82
 2170              	.L77:
 2171              	.LVL243:
 317:lvgl/src/extra/widgets/meter/lv_meter.c ****         nm_cord.x1 = scale_center.x - w;
 2172              		.loc 1 317 9 is_stmt 1 view .LVU735
 318:lvgl/src/extra/widgets/meter/lv_meter.c ****         nm_cord.y1 = scale_center.y - h;
 2173              		.loc 1 318 9 view .LVU736
 318:lvgl/src/extra/widgets/meter/lv_meter.c ****         nm_cord.y1 = scale_center.y - h;
 2174              		.loc 1 318 37 is_stmt 0 view .LVU737
 2175 00c4 B3B2     		uxth	r3, r6
 2176 00c6 FA1A     		subs	r2, r7, r3
 318:lvgl/src/extra/widgets/meter/lv_meter.c ****         nm_cord.y1 = scale_center.y - h;
 2177              		.loc 1 318 20 view .LVU738
 2178 00c8 ADF81020 		strh	r2, [sp, #16]	@ movhi
 319:lvgl/src/extra/widgets/meter/lv_meter.c ****         nm_cord.x2 = scale_center.x + w;
 2179              		.loc 1 319 9 is_stmt 1 view .LVU739
 319:lvgl/src/extra/widgets/meter/lv_meter.c ****         nm_cord.x2 = scale_center.x + w;
ARM GAS  C:\usertemp\ccXAVGrP.s 			page 76


 2180              		.loc 1 319 37 is_stmt 0 view .LVU740
 2181 00cc C0F34F00 		ubfx	r0, r0, #1, #16
 2182              	.LVL244:
 319:lvgl/src/extra/widgets/meter/lv_meter.c ****         nm_cord.x2 = scale_center.x + w;
 2183              		.loc 1 319 37 view .LVU741
 2184 00d0 A8EB0002 		sub	r2, r8, r0
 319:lvgl/src/extra/widgets/meter/lv_meter.c ****         nm_cord.x2 = scale_center.x + w;
 2185              		.loc 1 319 20 view .LVU742
 2186 00d4 ADF81220 		strh	r2, [sp, #18]	@ movhi
 320:lvgl/src/extra/widgets/meter/lv_meter.c ****         nm_cord.y2 = scale_center.y + h;
 2187              		.loc 1 320 9 is_stmt 1 view .LVU743
 320:lvgl/src/extra/widgets/meter/lv_meter.c ****         nm_cord.y2 = scale_center.y + h;
 2188              		.loc 1 320 37 is_stmt 0 view .LVU744
 2189 00d8 1F44     		add	r7, r7, r3
 320:lvgl/src/extra/widgets/meter/lv_meter.c ****         nm_cord.y2 = scale_center.y + h;
 2190              		.loc 1 320 20 view .LVU745
 2191 00da ADF81470 		strh	r7, [sp, #20]	@ movhi
 321:lvgl/src/extra/widgets/meter/lv_meter.c ****         lv_draw_rect(draw_ctx, &mid_dsc, &nm_cord);
 2192              		.loc 1 321 9 is_stmt 1 view .LVU746
 321:lvgl/src/extra/widgets/meter/lv_meter.c ****         lv_draw_rect(draw_ctx, &mid_dsc, &nm_cord);
 2193              		.loc 1 321 37 is_stmt 0 view .LVU747
 2194 00de 8044     		add	r8, r8, r0
 321:lvgl/src/extra/widgets/meter/lv_meter.c ****         lv_draw_rect(draw_ctx, &mid_dsc, &nm_cord);
 2195              		.loc 1 321 20 view .LVU748
 2196 00e0 ADF81680 		strh	r8, [sp, #22]	@ movhi
 322:lvgl/src/extra/widgets/meter/lv_meter.c ****     }
 2197              		.loc 1 322 9 is_stmt 1 view .LVU749
 2198 00e4 04AA     		add	r2, sp, #16
 2199 00e6 06A9     		add	r1, sp, #24
 2200 00e8 2046     		mov	r0, r4
 2201 00ea FFF7FEFF 		bl	lv_draw_rect
 2202              	.LVL245:
 2203 00ee 90E7     		b	.L73
 2204              	.LVL246:
 2205              	.L80:
 307:lvgl/src/extra/widgets/meter/lv_meter.c ****         lv_point_t scale_center;
 2206              		.loc 1 307 20 is_stmt 0 discriminator 1 view .LVU750
 2207 00f0 0133     		adds	r3, r3, #1
 2208 00f2 BCE7     		b	.L75
 2209              	.LVL247:
 2210              	.L81:
 315:lvgl/src/extra/widgets/meter/lv_meter.c ****         lv_coord_t h = lv_obj_get_style_height(obj, LV_PART_INDICATOR) / 2;
 2211              		.loc 1 315 20 discriminator 1 view .LVU751
 2212 00f4 0130     		adds	r0, r0, #1
 2213 00f6 DAE7     		b	.L76
 2214              	.LVL248:
 2215              	.L82:
 316:lvgl/src/extra/widgets/meter/lv_meter.c ****         lv_area_t nm_cord;
 2216              		.loc 1 316 20 discriminator 1 view .LVU752
 2217 00f8 0130     		adds	r0, r0, #1
 2218 00fa E3E7     		b	.L77
 2219              	.L84:
 2220              		.align	2
 2221              	.L83:
 2222 00fc 00000000 		.word	lv_meter_class
 2223              	.LBE87:
 2224              		.cfi_endproc
ARM GAS  C:\usertemp\ccXAVGrP.s 			page 77


 2225              	.LFE210:
 2227              		.section	.text.lv_meter_destructor,"ax",%progbits
 2228              		.align	1
 2229              		.syntax unified
 2230              		.thumb
 2231              		.thumb_func
 2233              	lv_meter_destructor:
 2234              	.LVL249:
 2235              	.LFB209:
 280:lvgl/src/extra/widgets/meter/lv_meter.c ****     LV_UNUSED(class_p);
 2236              		.loc 1 280 1 is_stmt 1 view -0
 2237              		.cfi_startproc
 2238              		@ args = 0, pretend = 0, frame = 0
 2239              		@ frame_needed = 0, uses_anonymous_args = 0
 280:lvgl/src/extra/widgets/meter/lv_meter.c ****     LV_UNUSED(class_p);
 2240              		.loc 1 280 1 is_stmt 0 view .LVU754
 2241 0000 10B5     		push	{r4, lr}
 2242              	.LCFI13:
 2243              		.cfi_def_cfa_offset 8
 2244              		.cfi_offset 4, -8
 2245              		.cfi_offset 14, -4
 2246 0002 0C46     		mov	r4, r1
 281:lvgl/src/extra/widgets/meter/lv_meter.c ****     LV_ASSERT_OBJ(obj, MY_CLASS);
 2247              		.loc 1 281 5 is_stmt 1 view .LVU755
 282:lvgl/src/extra/widgets/meter/lv_meter.c ****     lv_meter_t * meter = (lv_meter_t *)obj;
 2248              		.loc 1 282 5 view .LVU756
 282:lvgl/src/extra/widgets/meter/lv_meter.c ****     lv_meter_t * meter = (lv_meter_t *)obj;
 2249              		.loc 1 282 5 view .LVU757
 282:lvgl/src/extra/widgets/meter/lv_meter.c ****     lv_meter_t * meter = (lv_meter_t *)obj;
 2250              		.loc 1 282 5 view .LVU758
 283:lvgl/src/extra/widgets/meter/lv_meter.c ****     _lv_ll_clear(&meter->indicator_ll);
 2251              		.loc 1 283 5 view .LVU759
 2252              	.LVL250:
 284:lvgl/src/extra/widgets/meter/lv_meter.c ****     _lv_ll_clear(&meter->scale_ll);
 2253              		.loc 1 284 5 view .LVU760
 2254 0004 01F13000 		add	r0, r1, #48
 2255              	.LVL251:
 284:lvgl/src/extra/widgets/meter/lv_meter.c ****     _lv_ll_clear(&meter->scale_ll);
 2256              		.loc 1 284 5 is_stmt 0 view .LVU761
 2257 0008 FFF7FEFF 		bl	_lv_ll_clear
 2258              	.LVL252:
 285:lvgl/src/extra/widgets/meter/lv_meter.c **** 
 2259              		.loc 1 285 5 is_stmt 1 view .LVU762
 2260 000c 04F12400 		add	r0, r4, #36
 2261 0010 FFF7FEFF 		bl	_lv_ll_clear
 2262              	.LVL253:
 287:lvgl/src/extra/widgets/meter/lv_meter.c **** 
 2263              		.loc 1 287 1 is_stmt 0 view .LVU763
 2264 0014 10BD     		pop	{r4, pc}
 287:lvgl/src/extra/widgets/meter/lv_meter.c **** 
 2265              		.loc 1 287 1 view .LVU764
 2266              		.cfi_endproc
 2267              	.LFE209:
 2269              		.section	.text.lv_meter_constructor,"ax",%progbits
 2270              		.align	1
 2271              		.syntax unified
 2272              		.thumb
ARM GAS  C:\usertemp\ccXAVGrP.s 			page 78


 2273              		.thumb_func
 2275              	lv_meter_constructor:
 2276              	.LVL254:
 2277              	.LFB208:
 267:lvgl/src/extra/widgets/meter/lv_meter.c ****     LV_UNUSED(class_p);
 2278              		.loc 1 267 1 is_stmt 1 view -0
 2279              		.cfi_startproc
 2280              		@ args = 0, pretend = 0, frame = 0
 2281              		@ frame_needed = 0, uses_anonymous_args = 0
 267:lvgl/src/extra/widgets/meter/lv_meter.c ****     LV_UNUSED(class_p);
 2282              		.loc 1 267 1 is_stmt 0 view .LVU766
 2283 0000 10B5     		push	{r4, lr}
 2284              	.LCFI14:
 2285              		.cfi_def_cfa_offset 8
 2286              		.cfi_offset 4, -8
 2287              		.cfi_offset 14, -4
 2288 0002 0C46     		mov	r4, r1
 268:lvgl/src/extra/widgets/meter/lv_meter.c ****     LV_TRACE_OBJ_CREATE("begin");
 2289              		.loc 1 268 5 is_stmt 1 view .LVU767
 269:lvgl/src/extra/widgets/meter/lv_meter.c **** 
 2290              		.loc 1 269 5 view .LVU768
 269:lvgl/src/extra/widgets/meter/lv_meter.c **** 
 2291              		.loc 1 269 5 view .LVU769
 269:lvgl/src/extra/widgets/meter/lv_meter.c **** 
 2292              		.loc 1 269 5 view .LVU770
 271:lvgl/src/extra/widgets/meter/lv_meter.c **** 
 2293              		.loc 1 271 5 view .LVU771
 2294              	.LVL255:
 273:lvgl/src/extra/widgets/meter/lv_meter.c ****     _lv_ll_init(&meter->indicator_ll, sizeof(lv_meter_indicator_t));
 2295              		.loc 1 273 5 view .LVU772
 2296 0004 2421     		movs	r1, #36
 2297              	.LVL256:
 273:lvgl/src/extra/widgets/meter/lv_meter.c ****     _lv_ll_init(&meter->indicator_ll, sizeof(lv_meter_indicator_t));
 2298              		.loc 1 273 5 is_stmt 0 view .LVU773
 2299 0006 6018     		adds	r0, r4, r1
 2300              	.LVL257:
 273:lvgl/src/extra/widgets/meter/lv_meter.c ****     _lv_ll_init(&meter->indicator_ll, sizeof(lv_meter_indicator_t));
 2301              		.loc 1 273 5 view .LVU774
 2302 0008 FFF7FEFF 		bl	_lv_ll_init
 2303              	.LVL258:
 274:lvgl/src/extra/widgets/meter/lv_meter.c **** 
 2304              		.loc 1 274 5 is_stmt 1 view .LVU775
 2305 000c 1C21     		movs	r1, #28
 2306 000e 04F13000 		add	r0, r4, #48
 2307 0012 FFF7FEFF 		bl	_lv_ll_init
 2308              	.LVL259:
 276:lvgl/src/extra/widgets/meter/lv_meter.c **** }
 2309              		.loc 1 276 5 view .LVU776
 276:lvgl/src/extra/widgets/meter/lv_meter.c **** }
 2310              		.loc 1 276 5 view .LVU777
 276:lvgl/src/extra/widgets/meter/lv_meter.c **** }
 2311              		.loc 1 276 5 view .LVU778
 277:lvgl/src/extra/widgets/meter/lv_meter.c **** 
 2312              		.loc 1 277 1 is_stmt 0 view .LVU779
 2313 0016 10BD     		pop	{r4, pc}
 277:lvgl/src/extra/widgets/meter/lv_meter.c **** 
 2314              		.loc 1 277 1 view .LVU780
ARM GAS  C:\usertemp\ccXAVGrP.s 			page 79


 2315              		.cfi_endproc
 2316              	.LFE208:
 2318              		.section	.text.inv_arc,"ax",%progbits
 2319              		.align	1
 2320              		.syntax unified
 2321              		.thumb
 2322              		.thumb_func
 2324              	inv_arc:
 2325              	.LVL260:
 2326              	.LFB214:
 635:lvgl/src/extra/widgets/meter/lv_meter.c **** 
 636:lvgl/src/extra/widgets/meter/lv_meter.c **** static void inv_arc(lv_obj_t * obj, lv_meter_indicator_t * indic, int32_t old_value, int32_t new_va
 637:lvgl/src/extra/widgets/meter/lv_meter.c **** {
 2327              		.loc 1 637 1 is_stmt 1 view -0
 2328              		.cfi_startproc
 2329              		@ args = 0, pretend = 0, frame = 32
 2330              		@ frame_needed = 0, uses_anonymous_args = 0
 2331              		.loc 1 637 1 is_stmt 0 view .LVU782
 2332 0000 2DE9F04F 		push	{r4, r5, r6, r7, r8, r9, r10, fp, lr}
 2333              	.LCFI15:
 2334              		.cfi_def_cfa_offset 36
 2335              		.cfi_offset 4, -36
 2336              		.cfi_offset 5, -32
 2337              		.cfi_offset 6, -28
 2338              		.cfi_offset 7, -24
 2339              		.cfi_offset 8, -20
 2340              		.cfi_offset 9, -16
 2341              		.cfi_offset 10, -12
 2342              		.cfi_offset 11, -8
 2343              		.cfi_offset 14, -4
 2344 0004 8DB0     		sub	sp, sp, #52
 2345              	.LCFI16:
 2346              		.cfi_def_cfa_offset 88
 2347 0006 8246     		mov	r10, r0
 2348 0008 8946     		mov	r9, r1
 2349 000a 1546     		mov	r5, r2
 2350 000c 0593     		str	r3, [sp, #20]
 638:lvgl/src/extra/widgets/meter/lv_meter.c ****     bool rounded = lv_obj_get_style_arc_rounded(obj, LV_PART_ITEMS);
 2351              		.loc 1 638 5 is_stmt 1 view .LVU783
 2352              	.LVL261:
 2353              	.LBB94:
 2354              	.LBI94:
 403:lvgl/src/extra/widgets/meter/../../../../src/core/lv_obj_style_gen.h **** {
 2355              		.loc 3 403 20 view .LVU784
 2356              	.LBB95:
 405:lvgl/src/extra/widgets/meter/../../../../src/core/lv_obj_style_gen.h ****     return (bool)v.num;
 2357              		.loc 3 405 5 view .LVU785
 405:lvgl/src/extra/widgets/meter/../../../../src/core/lv_obj_style_gen.h ****     return (bool)v.num;
 2358              		.loc 3 405 26 is_stmt 0 view .LVU786
 2359 000e 5122     		movs	r2, #81
 2360              	.LVL262:
 405:lvgl/src/extra/widgets/meter/../../../../src/core/lv_obj_style_gen.h ****     return (bool)v.num;
 2361              		.loc 3 405 26 view .LVU787
 2362 0010 4FF4A021 		mov	r1, #327680
 2363              	.LVL263:
 405:lvgl/src/extra/widgets/meter/../../../../src/core/lv_obj_style_gen.h ****     return (bool)v.num;
 2364              		.loc 3 405 26 view .LVU788
ARM GAS  C:\usertemp\ccXAVGrP.s 			page 80


 2365 0014 FFF7FEFF 		bl	lv_obj_get_style_prop
 2366              	.LVL264:
 406:lvgl/src/extra/widgets/meter/../../../../src/core/lv_obj_style_gen.h **** }
 2367              		.loc 3 406 5 is_stmt 1 view .LVU789
 406:lvgl/src/extra/widgets/meter/../../../../src/core/lv_obj_style_gen.h **** }
 2368              		.loc 3 406 12 is_stmt 0 view .LVU790
 2369 0018 B0F1000B 		subs	fp, r0, #0
 2370 001c 18BF     		it	ne
 2371 001e 4FF0010B 		movne	fp, #1
 2372              	.LVL265:
 406:lvgl/src/extra/widgets/meter/../../../../src/core/lv_obj_style_gen.h **** }
 2373              		.loc 3 406 12 view .LVU791
 2374              	.LBE95:
 2375              	.LBE94:
 639:lvgl/src/extra/widgets/meter/lv_meter.c **** 
 640:lvgl/src/extra/widgets/meter/lv_meter.c ****     lv_area_t scale_area;
 2376              		.loc 1 640 5 is_stmt 1 view .LVU792
 641:lvgl/src/extra/widgets/meter/lv_meter.c ****     lv_obj_get_content_coords(obj, &scale_area);
 2377              		.loc 1 641 5 view .LVU793
 2378 0022 0AA9     		add	r1, sp, #40
 2379 0024 5046     		mov	r0, r10
 2380 0026 FFF7FEFF 		bl	lv_obj_get_content_coords
 2381              	.LVL266:
 642:lvgl/src/extra/widgets/meter/lv_meter.c **** 
 643:lvgl/src/extra/widgets/meter/lv_meter.c ****     lv_coord_t r_out = lv_area_get_width(&scale_area) / 2;
 2382              		.loc 1 643 5 view .LVU794
 2383              	.LBB96:
 2384              	.LBI96:
 123:D:/update_2024EL/changeform/743zit6/lvgl/src/misc\lv_area.h **** {
 2385              		.loc 4 123 26 view .LVU795
 2386              	.LBB97:
 125:D:/update_2024EL/changeform/743zit6/lvgl/src/misc\lv_area.h **** }
 2387              		.loc 4 125 5 view .LVU796
 125:D:/update_2024EL/changeform/743zit6/lvgl/src/misc\lv_area.h **** }
 2388              		.loc 4 125 31 is_stmt 0 view .LVU797
 2389 002a BDF82C40 		ldrh	r4, [sp, #44]
 125:D:/update_2024EL/changeform/743zit6/lvgl/src/misc\lv_area.h **** }
 2390              		.loc 4 125 44 view .LVU798
 2391 002e BDF82870 		ldrh	r7, [sp, #40]
 125:D:/update_2024EL/changeform/743zit6/lvgl/src/misc\lv_area.h **** }
 2392              		.loc 4 125 36 view .LVU799
 2393 0032 E41B     		subs	r4, r4, r7
 2394 0034 A4B2     		uxth	r4, r4
 125:D:/update_2024EL/changeform/743zit6/lvgl/src/misc\lv_area.h **** }
 2395              		.loc 4 125 49 view .LVU800
 2396 0036 0134     		adds	r4, r4, #1
 125:D:/update_2024EL/changeform/743zit6/lvgl/src/misc\lv_area.h **** }
 2397              		.loc 4 125 12 view .LVU801
 2398 0038 24B2     		sxth	r4, r4
 2399              	.LVL267:
 125:D:/update_2024EL/changeform/743zit6/lvgl/src/misc\lv_area.h **** }
 2400              		.loc 4 125 12 view .LVU802
 2401              	.LBE97:
 2402              	.LBE96:
 2403              		.loc 1 643 16 discriminator 1 view .LVU803
 2404 003a 002C     		cmp	r4, #0
 2405 003c 44DB     		blt	.L92
ARM GAS  C:\usertemp\ccXAVGrP.s 			page 81


 2406              	.L90:
 2407              	.LVL268:
 644:lvgl/src/extra/widgets/meter/lv_meter.c ****     lv_point_t scale_center;
 2408              		.loc 1 644 5 is_stmt 1 view .LVU804
 645:lvgl/src/extra/widgets/meter/lv_meter.c ****     scale_center.x = scale_area.x1 + r_out;
 2409              		.loc 1 645 5 view .LVU805
 2410              		.loc 1 645 36 is_stmt 0 view .LVU806
 2411 003e C4F34F04 		ubfx	r4, r4, #1, #16
 2412              	.LVL269:
 2413              		.loc 1 645 36 view .LVU807
 2414 0042 2744     		add	r7, r7, r4
 2415 0044 3FB2     		sxth	r7, r7
 2416              		.loc 1 645 20 view .LVU808
 2417 0046 ADF82470 		strh	r7, [sp, #36]	@ movhi
 646:lvgl/src/extra/widgets/meter/lv_meter.c ****     scale_center.y = scale_area.y1 + r_out;
 2418              		.loc 1 646 5 is_stmt 1 view .LVU809
 2419              		.loc 1 646 32 is_stmt 0 view .LVU810
 2420 004a BDF82A80 		ldrh	r8, [sp, #42]
 2421              		.loc 1 646 36 view .LVU811
 2422 004e A044     		add	r8, r8, r4
 2423 0050 0FFA88F8 		sxth	r8, r8
 2424              		.loc 1 646 20 view .LVU812
 2425 0054 ADF82680 		strh	r8, [sp, #38]	@ movhi
 647:lvgl/src/extra/widgets/meter/lv_meter.c **** 
 648:lvgl/src/extra/widgets/meter/lv_meter.c ****     r_out += indic->type_data.arc.r_mod;
 2426              		.loc 1 648 5 is_stmt 1 view .LVU813
 2427              		.loc 1 648 34 is_stmt 0 view .LVU814
 2428 0058 B9F81A30 		ldrh	r3, [r9, #26]
 2429              		.loc 1 648 11 view .LVU815
 2430 005c 1C44     		add	r4, r4, r3
 2431 005e A4B2     		uxth	r4, r4
 2432              	.LVL270:
 649:lvgl/src/extra/widgets/meter/lv_meter.c **** 
 650:lvgl/src/extra/widgets/meter/lv_meter.c ****     lv_meter_scale_t * scale = indic->scale;
 2433              		.loc 1 650 5 is_stmt 1 view .LVU816
 2434              		.loc 1 650 24 is_stmt 0 view .LVU817
 2435 0060 D9F80060 		ldr	r6, [r9]
 2436              	.LVL271:
 651:lvgl/src/extra/widgets/meter/lv_meter.c **** 
 652:lvgl/src/extra/widgets/meter/lv_meter.c ****     int32_t start_angle = lv_map(old_value, scale->min, scale->max, scale->rotation, scale->angle_r
 2437              		.loc 1 652 5 is_stmt 1 view .LVU818
 2438              		.loc 1 652 74 is_stmt 0 view .LVU819
 2439 0064 B6F92030 		ldrsh	r3, [r6, #32]
 2440              		.loc 1 652 91 view .LVU820
 2441 0068 F08B     		ldrh	r0, [r6, #30]
 2442              		.loc 1 652 105 view .LVU821
 2443 006a 1844     		add	r0, r0, r3
 2444              		.loc 1 652 27 view .LVU822
 2445 006c B269     		ldr	r2, [r6, #24]
 2446 006e 7169     		ldr	r1, [r6, #20]
 2447 0070 0090     		str	r0, [sp]
 2448 0072 2846     		mov	r0, r5
 2449 0074 FFF7FEFF 		bl	lv_map
 2450              	.LVL272:
 2451 0078 0546     		mov	r5, r0
 2452              	.LVL273:
 653:lvgl/src/extra/widgets/meter/lv_meter.c ****     int32_t end_angle = lv_map(new_value, scale->min, scale->max, scale->rotation, scale->angle_ran
ARM GAS  C:\usertemp\ccXAVGrP.s 			page 82


 2453              		.loc 1 653 5 is_stmt 1 view .LVU823
 2454              		.loc 1 653 72 is_stmt 0 view .LVU824
 2455 007a B6F92030 		ldrsh	r3, [r6, #32]
 2456              		.loc 1 653 89 view .LVU825
 2457 007e F08B     		ldrh	r0, [r6, #30]
 2458              	.LVL274:
 2459              		.loc 1 653 103 view .LVU826
 2460 0080 1844     		add	r0, r0, r3
 2461              		.loc 1 653 25 view .LVU827
 2462 0082 B269     		ldr	r2, [r6, #24]
 2463 0084 7169     		ldr	r1, [r6, #20]
 2464 0086 0090     		str	r0, [sp]
 2465 0088 0598     		ldr	r0, [sp, #20]
 2466 008a FFF7FEFF 		bl	lv_map
 2467              	.LVL275:
 654:lvgl/src/extra/widgets/meter/lv_meter.c **** 
 655:lvgl/src/extra/widgets/meter/lv_meter.c ****     lv_area_t a;
 2468              		.loc 1 655 5 is_stmt 1 view .LVU828
 656:lvgl/src/extra/widgets/meter/lv_meter.c ****     lv_draw_arc_get_area(scale_center.x, scale_center.y, r_out, LV_MIN(start_angle, end_angle), LV_
 2469              		.loc 1 656 5 view .LVU829
 2470              		.loc 1 656 65 is_stmt 0 view .LVU830
 2471 008e 2B46     		mov	r3, r5
 2472 0090 8542     		cmp	r5, r0
 2473 0092 A8BF     		it	ge
 2474 0094 0346     		movge	r3, r0
 2475              		.loc 1 656 97 view .LVU831
 2476 0096 8542     		cmp	r5, r0
 2477 0098 B8BF     		it	lt
 2478 009a 0546     		movlt	r5, r0
 2479              	.LVL276:
 2480              		.loc 1 656 5 view .LVU832
 2481 009c 07AE     		add	r6, sp, #28
 2482              	.LVL277:
 2483              		.loc 1 656 5 view .LVU833
 2484 009e 0396     		str	r6, [sp, #12]
 2485 00a0 CDF808B0 		str	fp, [sp, #8]
 2486 00a4 B9F91020 		ldrsh	r2, [r9, #16]
 2487 00a8 0192     		str	r2, [sp, #4]
 2488 00aa ADB2     		uxth	r5, r5
 2489 00ac 0095     		str	r5, [sp]
 2490 00ae 9BB2     		uxth	r3, r3
 2491 00b0 2246     		mov	r2, r4
 2492 00b2 4146     		mov	r1, r8
 2493 00b4 3846     		mov	r0, r7
 2494              	.LVL278:
 2495              		.loc 1 656 5 view .LVU834
 2496 00b6 FFF7FEFF 		bl	lv_draw_arc_get_area
 2497              	.LVL279:
 657:lvgl/src/extra/widgets/meter/lv_meter.c ****                                                                                                    
 658:lvgl/src/extra/widgets/meter/lv_meter.c ****     lv_obj_invalidate_area(obj, &a);
 2498              		.loc 1 658 5 is_stmt 1 view .LVU835
 2499 00ba 3146     		mov	r1, r6
 2500 00bc 5046     		mov	r0, r10
 2501 00be FFF7FEFF 		bl	lv_obj_invalidate_area
 2502              	.LVL280:
 659:lvgl/src/extra/widgets/meter/lv_meter.c **** }
 2503              		.loc 1 659 1 is_stmt 0 view .LVU836
ARM GAS  C:\usertemp\ccXAVGrP.s 			page 83


 2504 00c2 0DB0     		add	sp, sp, #52
 2505              	.LCFI17:
 2506              		.cfi_remember_state
 2507              		.cfi_def_cfa_offset 36
 2508              		@ sp needed
 2509 00c4 BDE8F08F 		pop	{r4, r5, r6, r7, r8, r9, r10, fp, pc}
 2510              	.LVL281:
 2511              	.L92:
 2512              	.LCFI18:
 2513              		.cfi_restore_state
 643:lvgl/src/extra/widgets/meter/lv_meter.c ****     lv_point_t scale_center;
 2514              		.loc 1 643 16 discriminator 1 view .LVU837
 2515 00c8 0134     		adds	r4, r4, #1
 2516 00ca B8E7     		b	.L90
 2517              		.cfi_endproc
 2518              	.LFE214:
 2520              		.section	.text.inv_line,"ax",%progbits
 2521              		.align	1
 2522              		.syntax unified
 2523              		.thumb
 2524              		.thumb_func
 2526              	inv_line:
 2527              	.LVL282:
 2528              	.LFB215:
 660:lvgl/src/extra/widgets/meter/lv_meter.c **** 
 661:lvgl/src/extra/widgets/meter/lv_meter.c **** 
 662:lvgl/src/extra/widgets/meter/lv_meter.c **** static void inv_line(lv_obj_t * obj, lv_meter_indicator_t * indic, int32_t value)
 663:lvgl/src/extra/widgets/meter/lv_meter.c **** {
 2529              		.loc 1 663 1 is_stmt 1 view -0
 2530              		.cfi_startproc
 2531              		@ args = 0, pretend = 0, frame = 32
 2532              		@ frame_needed = 0, uses_anonymous_args = 0
 2533              		.loc 1 663 1 is_stmt 0 view .LVU839
 2534 0000 2DE9F04F 		push	{r4, r5, r6, r7, r8, r9, r10, fp, lr}
 2535              	.LCFI19:
 2536              		.cfi_def_cfa_offset 36
 2537              		.cfi_offset 4, -36
 2538              		.cfi_offset 5, -32
 2539              		.cfi_offset 6, -28
 2540              		.cfi_offset 7, -24
 2541              		.cfi_offset 8, -20
 2542              		.cfi_offset 9, -16
 2543              		.cfi_offset 10, -12
 2544              		.cfi_offset 11, -8
 2545              		.cfi_offset 14, -4
 2546 0004 8BB0     		sub	sp, sp, #44
 2547              	.LCFI20:
 2548              		.cfi_def_cfa_offset 80
 2549 0006 0390     		str	r0, [sp, #12]
 2550 0008 0F46     		mov	r7, r1
 2551 000a 9246     		mov	r10, r2
 664:lvgl/src/extra/widgets/meter/lv_meter.c ****     lv_area_t scale_area;
 2552              		.loc 1 664 5 is_stmt 1 view .LVU840
 665:lvgl/src/extra/widgets/meter/lv_meter.c ****     lv_obj_get_content_coords(obj, &scale_area);
 2553              		.loc 1 665 5 view .LVU841
 2554 000c 08A9     		add	r1, sp, #32
 2555              	.LVL283:
ARM GAS  C:\usertemp\ccXAVGrP.s 			page 84


 2556              		.loc 1 665 5 is_stmt 0 view .LVU842
 2557 000e FFF7FEFF 		bl	lv_obj_get_content_coords
 2558              	.LVL284:
 666:lvgl/src/extra/widgets/meter/lv_meter.c **** 
 667:lvgl/src/extra/widgets/meter/lv_meter.c ****     lv_coord_t r_out = lv_area_get_width(&scale_area) / 2;
 2559              		.loc 1 667 5 is_stmt 1 view .LVU843
 2560              	.LBB98:
 2561              	.LBI98:
 123:D:/update_2024EL/changeform/743zit6/lvgl/src/misc\lv_area.h **** {
 2562              		.loc 4 123 26 view .LVU844
 2563              	.LBB99:
 125:D:/update_2024EL/changeform/743zit6/lvgl/src/misc\lv_area.h **** }
 2564              		.loc 4 125 5 view .LVU845
 125:D:/update_2024EL/changeform/743zit6/lvgl/src/misc\lv_area.h **** }
 2565              		.loc 4 125 31 is_stmt 0 view .LVU846
 2566 0012 BDF82440 		ldrh	r4, [sp, #36]
 125:D:/update_2024EL/changeform/743zit6/lvgl/src/misc\lv_area.h **** }
 2567              		.loc 4 125 44 view .LVU847
 2568 0016 BDF82050 		ldrh	r5, [sp, #32]
 125:D:/update_2024EL/changeform/743zit6/lvgl/src/misc\lv_area.h **** }
 2569              		.loc 4 125 36 view .LVU848
 2570 001a 641B     		subs	r4, r4, r5
 2571 001c A4B2     		uxth	r4, r4
 125:D:/update_2024EL/changeform/743zit6/lvgl/src/misc\lv_area.h **** }
 2572              		.loc 4 125 49 view .LVU849
 2573 001e 0134     		adds	r4, r4, #1
 125:D:/update_2024EL/changeform/743zit6/lvgl/src/misc\lv_area.h **** }
 2574              		.loc 4 125 12 view .LVU850
 2575 0020 24B2     		sxth	r4, r4
 2576              	.LVL285:
 125:D:/update_2024EL/changeform/743zit6/lvgl/src/misc\lv_area.h **** }
 2577              		.loc 4 125 12 view .LVU851
 2578              	.LBE99:
 2579              	.LBE98:
 2580              		.loc 1 667 16 discriminator 1 view .LVU852
 2581 0022 002C     		cmp	r4, #0
 2582 0024 19DB     		blt	.L99
 2583              	.L94:
 2584              	.LVL286:
 668:lvgl/src/extra/widgets/meter/lv_meter.c ****     lv_point_t scale_center;
 2585              		.loc 1 668 5 is_stmt 1 view .LVU853
 669:lvgl/src/extra/widgets/meter/lv_meter.c ****     scale_center.x = scale_area.x1 + r_out;
 2586              		.loc 1 669 5 view .LVU854
 2587              		.loc 1 669 36 is_stmt 0 view .LVU855
 2588 0026 C4F34F04 		ubfx	r4, r4, #1, #16
 2589              	.LVL287:
 2590              		.loc 1 669 36 view .LVU856
 2591 002a 2544     		add	r5, r5, r4
 2592 002c 1FFA85F9 		uxth	r9, r5
 2593 0030 2DB2     		sxth	r5, r5
 2594              		.loc 1 669 20 view .LVU857
 2595 0032 ADF81C50 		strh	r5, [sp, #28]	@ movhi
 670:lvgl/src/extra/widgets/meter/lv_meter.c ****     scale_center.y = scale_area.y1 + r_out;
 2596              		.loc 1 670 5 is_stmt 1 view .LVU858
 2597              		.loc 1 670 32 is_stmt 0 view .LVU859
 2598 0036 BDF82260 		ldrh	r6, [sp, #34]
 2599              		.loc 1 670 36 view .LVU860
ARM GAS  C:\usertemp\ccXAVGrP.s 			page 85


 2600 003a 2644     		add	r6, r6, r4
 2601 003c 1FFA86F8 		uxth	r8, r6
 2602 0040 36B2     		sxth	r6, r6
 2603              		.loc 1 670 20 view .LVU861
 2604 0042 ADF81E60 		strh	r6, [sp, #30]	@ movhi
 671:lvgl/src/extra/widgets/meter/lv_meter.c **** 
 672:lvgl/src/extra/widgets/meter/lv_meter.c ****     lv_meter_scale_t * scale = indic->scale;
 2605              		.loc 1 672 5 is_stmt 1 view .LVU862
 2606              		.loc 1 672 24 is_stmt 0 view .LVU863
 2607 0046 D7F800B0 		ldr	fp, [r7]
 2608              	.LVL288:
 673:lvgl/src/extra/widgets/meter/lv_meter.c **** 
 674:lvgl/src/extra/widgets/meter/lv_meter.c ****     if(indic->type == LV_METER_INDICATOR_TYPE_NEEDLE_LINE) {
 2609              		.loc 1 674 5 is_stmt 1 view .LVU864
 2610              		.loc 1 674 13 is_stmt 0 view .LVU865
 2611 004a 3B79     		ldrb	r3, [r7, #4]	@ zero_extendqisi2
 2612              		.loc 1 674 7 view .LVU866
 2613 004c 012B     		cmp	r3, #1
 2614 004e 06D0     		beq	.L100
 675:lvgl/src/extra/widgets/meter/lv_meter.c ****         int32_t angle = lv_map(value, scale->min, scale->max, scale->rotation, scale->rotation + sc
 676:lvgl/src/extra/widgets/meter/lv_meter.c ****         r_out += scale->r_mod + indic->type_data.needle_line.r_mod;
 677:lvgl/src/extra/widgets/meter/lv_meter.c ****         lv_point_t p_end;
 678:lvgl/src/extra/widgets/meter/lv_meter.c ****         p_end.y = (lv_trigo_sin(angle) * (r_out)) / LV_TRIGO_SIN_MAX + scale_center.y;
 679:lvgl/src/extra/widgets/meter/lv_meter.c ****         p_end.x = (lv_trigo_cos(angle) * (r_out)) / LV_TRIGO_SIN_MAX + scale_center.x;
 680:lvgl/src/extra/widgets/meter/lv_meter.c **** 
 681:lvgl/src/extra/widgets/meter/lv_meter.c ****         lv_area_t a;
 682:lvgl/src/extra/widgets/meter/lv_meter.c ****         a.x1 = LV_MIN(scale_center.x, p_end.x) - indic->type_data.needle_line.width - 2;
 683:lvgl/src/extra/widgets/meter/lv_meter.c ****         a.y1 = LV_MIN(scale_center.y, p_end.y) - indic->type_data.needle_line.width - 2;
 684:lvgl/src/extra/widgets/meter/lv_meter.c ****         a.x2 = LV_MAX(scale_center.x, p_end.x) + indic->type_data.needle_line.width + 2;
 685:lvgl/src/extra/widgets/meter/lv_meter.c ****         a.y2 = LV_MAX(scale_center.y, p_end.y) + indic->type_data.needle_line.width + 2;
 686:lvgl/src/extra/widgets/meter/lv_meter.c **** 
 687:lvgl/src/extra/widgets/meter/lv_meter.c ****         lv_obj_invalidate_area(obj, &a);
 688:lvgl/src/extra/widgets/meter/lv_meter.c ****     }
 689:lvgl/src/extra/widgets/meter/lv_meter.c ****     else if(indic->type == LV_METER_INDICATOR_TYPE_NEEDLE_IMG) {
 2615              		.loc 1 689 10 is_stmt 1 view .LVU867
 2616              		.loc 1 689 12 is_stmt 0 view .LVU868
 2617 0050 002B     		cmp	r3, #0
 2618 0052 68D0     		beq	.L101
 2619              	.LVL289:
 2620              	.L93:
 690:lvgl/src/extra/widgets/meter/lv_meter.c ****         int32_t angle = lv_map(value, scale->min, scale->max, scale->rotation, scale->rotation + sc
 691:lvgl/src/extra/widgets/meter/lv_meter.c ****         lv_img_header_t info;
 692:lvgl/src/extra/widgets/meter/lv_meter.c ****         lv_img_decoder_get_info(indic->type_data.needle_img.src, &info);
 693:lvgl/src/extra/widgets/meter/lv_meter.c **** 
 694:lvgl/src/extra/widgets/meter/lv_meter.c ****         angle = angle * 10;
 695:lvgl/src/extra/widgets/meter/lv_meter.c ****         if(angle > 3600) angle -= 3600;
 696:lvgl/src/extra/widgets/meter/lv_meter.c **** 
 697:lvgl/src/extra/widgets/meter/lv_meter.c ****         scale_center.x -= indic->type_data.needle_img.pivot.x;
 698:lvgl/src/extra/widgets/meter/lv_meter.c ****         scale_center.y -= indic->type_data.needle_img.pivot.y;
 699:lvgl/src/extra/widgets/meter/lv_meter.c ****         lv_area_t a;
 700:lvgl/src/extra/widgets/meter/lv_meter.c ****         _lv_img_buf_get_transformed_area(&a, info.w, info.h, angle, LV_IMG_ZOOM_NONE, &indic->type_
 701:lvgl/src/extra/widgets/meter/lv_meter.c ****         a.x1 += scale_center.x - 2;
 702:lvgl/src/extra/widgets/meter/lv_meter.c ****         a.y1 += scale_center.y - 2;
 703:lvgl/src/extra/widgets/meter/lv_meter.c ****         a.x2 += scale_center.x + 2;
 704:lvgl/src/extra/widgets/meter/lv_meter.c ****         a.y2 += scale_center.y + 2;
 705:lvgl/src/extra/widgets/meter/lv_meter.c **** 
 706:lvgl/src/extra/widgets/meter/lv_meter.c ****         lv_obj_invalidate_area(obj, &a);
ARM GAS  C:\usertemp\ccXAVGrP.s 			page 86


 707:lvgl/src/extra/widgets/meter/lv_meter.c ****     }
 708:lvgl/src/extra/widgets/meter/lv_meter.c **** }
 2621              		.loc 1 708 1 view .LVU869
 2622 0054 0BB0     		add	sp, sp, #44
 2623              	.LCFI21:
 2624              		.cfi_remember_state
 2625              		.cfi_def_cfa_offset 36
 2626              		@ sp needed
 2627 0056 BDE8F08F 		pop	{r4, r5, r6, r7, r8, r9, r10, fp, pc}
 2628              	.LVL290:
 2629              	.L99:
 2630              	.LCFI22:
 2631              		.cfi_restore_state
 667:lvgl/src/extra/widgets/meter/lv_meter.c ****     lv_point_t scale_center;
 2632              		.loc 1 667 16 discriminator 1 view .LVU870
 2633 005a 0134     		adds	r4, r4, #1
 2634 005c E3E7     		b	.L94
 2635              	.LVL291:
 2636              	.L100:
 2637              	.LBB100:
 675:lvgl/src/extra/widgets/meter/lv_meter.c ****         int32_t angle = lv_map(value, scale->min, scale->max, scale->rotation, scale->rotation + sc
 2638              		.loc 1 675 9 is_stmt 1 view .LVU871
 675:lvgl/src/extra/widgets/meter/lv_meter.c ****         int32_t angle = lv_map(value, scale->min, scale->max, scale->rotation, scale->rotation + sc
 2639              		.loc 1 675 68 is_stmt 0 view .LVU872
 2640 005e BBF92030 		ldrsh	r3, [fp, #32]
 675:lvgl/src/extra/widgets/meter/lv_meter.c ****         int32_t angle = lv_map(value, scale->min, scale->max, scale->rotation, scale->rotation + sc
 2641              		.loc 1 675 103 view .LVU873
 2642 0062 BBF81E00 		ldrh	r0, [fp, #30]
 675:lvgl/src/extra/widgets/meter/lv_meter.c ****         int32_t angle = lv_map(value, scale->min, scale->max, scale->rotation, scale->rotation + sc
 2643              		.loc 1 675 96 view .LVU874
 2644 0066 1844     		add	r0, r0, r3
 675:lvgl/src/extra/widgets/meter/lv_meter.c ****         int32_t angle = lv_map(value, scale->min, scale->max, scale->rotation, scale->rotation + sc
 2645              		.loc 1 675 25 view .LVU875
 2646 0068 DBF81820 		ldr	r2, [fp, #24]
 2647 006c DBF81410 		ldr	r1, [fp, #20]
 2648 0070 0090     		str	r0, [sp]
 2649 0072 5046     		mov	r0, r10
 2650 0074 FFF7FEFF 		bl	lv_map
 2651              	.LVL292:
 676:lvgl/src/extra/widgets/meter/lv_meter.c ****         lv_point_t p_end;
 2652              		.loc 1 676 9 is_stmt 1 view .LVU876
 676:lvgl/src/extra/widgets/meter/lv_meter.c ****         lv_point_t p_end;
 2653              		.loc 1 676 23 is_stmt 0 view .LVU877
 2654 0078 BBF81C30 		ldrh	r3, [fp, #28]
 676:lvgl/src/extra/widgets/meter/lv_meter.c ****         lv_point_t p_end;
 2655              		.loc 1 676 61 view .LVU878
 2656 007c 7A8A     		ldrh	r2, [r7, #18]
 676:lvgl/src/extra/widgets/meter/lv_meter.c ****         lv_point_t p_end;
 2657              		.loc 1 676 31 view .LVU879
 2658 007e 1344     		add	r3, r3, r2
 676:lvgl/src/extra/widgets/meter/lv_meter.c ****         lv_point_t p_end;
 2659              		.loc 1 676 15 view .LVU880
 2660 0080 14FA83F4 		uxtah	r4, r4, r3
 2661 0084 24B2     		sxth	r4, r4
 2662              	.LVL293:
 677:lvgl/src/extra/widgets/meter/lv_meter.c ****         p_end.y = (lv_trigo_sin(angle) * (r_out)) / LV_TRIGO_SIN_MAX + scale_center.y;
 2663              		.loc 1 677 9 is_stmt 1 view .LVU881
ARM GAS  C:\usertemp\ccXAVGrP.s 			page 87


 678:lvgl/src/extra/widgets/meter/lv_meter.c ****         p_end.x = (lv_trigo_cos(angle) * (r_out)) / LV_TRIGO_SIN_MAX + scale_center.x;
 2664              		.loc 1 678 9 view .LVU882
 678:lvgl/src/extra/widgets/meter/lv_meter.c ****         p_end.x = (lv_trigo_cos(angle) * (r_out)) / LV_TRIGO_SIN_MAX + scale_center.x;
 2665              		.loc 1 678 20 is_stmt 0 view .LVU883
 2666 0086 8346     		mov	fp, r0
 2667              	.LVL294:
 678:lvgl/src/extra/widgets/meter/lv_meter.c ****         p_end.x = (lv_trigo_cos(angle) * (r_out)) / LV_TRIGO_SIN_MAX + scale_center.x;
 2668              		.loc 1 678 20 view .LVU884
 2669 0088 00B2     		sxth	r0, r0
 2670              	.LVL295:
 678:lvgl/src/extra/widgets/meter/lv_meter.c ****         p_end.x = (lv_trigo_cos(angle) * (r_out)) / LV_TRIGO_SIN_MAX + scale_center.x;
 2671              		.loc 1 678 20 view .LVU885
 2672 008a FFF7FEFF 		bl	lv_trigo_sin
 2673              	.LVL296:
 678:lvgl/src/extra/widgets/meter/lv_meter.c ****         p_end.x = (lv_trigo_cos(angle) * (r_out)) / LV_TRIGO_SIN_MAX + scale_center.x;
 2674              		.loc 1 678 40 discriminator 1 view .LVU886
 2675 008e 04FB00F0 		mul	r0, r4, r0
 678:lvgl/src/extra/widgets/meter/lv_meter.c ****         p_end.x = (lv_trigo_cos(angle) * (r_out)) / LV_TRIGO_SIN_MAX + scale_center.x;
 2676              		.loc 1 678 51 discriminator 1 view .LVU887
 2677 0092 DFF844A1 		ldr	r10, .L102
 2678              	.LVL297:
 678:lvgl/src/extra/widgets/meter/lv_meter.c ****         p_end.x = (lv_trigo_cos(angle) * (r_out)) / LV_TRIGO_SIN_MAX + scale_center.x;
 2679              		.loc 1 678 51 discriminator 1 view .LVU888
 2680 0096 8AFB0023 		smull	r2, r3, r10, r0
 2681 009a 0344     		add	r3, r3, r0
 2682 009c C017     		asrs	r0, r0, #31
 2683 009e C0EBA330 		rsb	r0, r0, r3, asr #14
 678:lvgl/src/extra/widgets/meter/lv_meter.c ****         p_end.x = (lv_trigo_cos(angle) * (r_out)) / LV_TRIGO_SIN_MAX + scale_center.x;
 2684              		.loc 1 678 70 discriminator 1 view .LVU889
 2685 00a2 8044     		add	r8, r8, r0
 2686 00a4 0FFA88F8 		sxth	r8, r8
 678:lvgl/src/extra/widgets/meter/lv_meter.c ****         p_end.x = (lv_trigo_cos(angle) * (r_out)) / LV_TRIGO_SIN_MAX + scale_center.x;
 2687              		.loc 1 678 17 discriminator 1 view .LVU890
 2688 00a8 ADF81280 		strh	r8, [sp, #18]	@ movhi
 679:lvgl/src/extra/widgets/meter/lv_meter.c **** 
 2689              		.loc 1 679 9 is_stmt 1 view .LVU891
 2690              	.LVL298:
 2691              	.LBB101:
 2692              	.LBI101:
  49:lvgl/src/extra/widgets/meter/../../../../src/misc/lv_math.h **** {
 2693              		.loc 5 49 45 view .LVU892
 2694              	.LBB102:
 2695              		.loc 5 51 5 view .LVU893
 2696              		.loc 5 51 31 is_stmt 0 view .LVU894
 2697 00ac 5846     		mov	r0, fp
 2698 00ae 5A30     		adds	r0, r0, #90
 2699              		.loc 5 51 12 view .LVU895
 2700 00b0 00B2     		sxth	r0, r0
 2701 00b2 FFF7FEFF 		bl	lv_trigo_sin
 2702              	.LVL299:
 2703              		.loc 5 51 12 view .LVU896
 2704              	.LBE102:
 2705              	.LBE101:
 679:lvgl/src/extra/widgets/meter/lv_meter.c **** 
 2706              		.loc 1 679 40 discriminator 1 view .LVU897
 2707 00b6 00FB04F4 		mul	r4, r0, r4
 2708              	.LVL300:
ARM GAS  C:\usertemp\ccXAVGrP.s 			page 88


 679:lvgl/src/extra/widgets/meter/lv_meter.c **** 
 2709              		.loc 1 679 51 discriminator 1 view .LVU898
 2710 00ba 8AFB043A 		smull	r3, r10, r10, r4
 2711 00be A244     		add	r10, r10, r4
 2712 00c0 E417     		asrs	r4, r4, #31
 2713 00c2 C4EBAA34 		rsb	r4, r4, r10, asr #14
 679:lvgl/src/extra/widgets/meter/lv_meter.c **** 
 2714              		.loc 1 679 70 discriminator 1 view .LVU899
 2715 00c6 4C44     		add	r4, r4, r9
 2716 00c8 24B2     		sxth	r4, r4
 679:lvgl/src/extra/widgets/meter/lv_meter.c **** 
 2717              		.loc 1 679 17 discriminator 1 view .LVU900
 2718 00ca ADF81040 		strh	r4, [sp, #16]	@ movhi
 681:lvgl/src/extra/widgets/meter/lv_meter.c ****         a.x1 = LV_MIN(scale_center.x, p_end.x) - indic->type_data.needle_line.width - 2;
 2719              		.loc 1 681 9 is_stmt 1 view .LVU901
 682:lvgl/src/extra/widgets/meter/lv_meter.c ****         a.y1 = LV_MIN(scale_center.y, p_end.y) - indic->type_data.needle_line.width - 2;
 2720              		.loc 1 682 9 view .LVU902
 682:lvgl/src/extra/widgets/meter/lv_meter.c ****         a.y1 = LV_MIN(scale_center.y, p_end.y) - indic->type_data.needle_line.width - 2;
 2721              		.loc 1 682 16 is_stmt 0 view .LVU903
 2722 00ce 2B46     		mov	r3, r5
 2723 00d0 A542     		cmp	r5, r4
 2724 00d2 A8BF     		it	ge
 2725 00d4 2346     		movge	r3, r4
 2726 00d6 9BB2     		uxth	r3, r3
 682:lvgl/src/extra/widgets/meter/lv_meter.c ****         a.y1 = LV_MIN(scale_center.y, p_end.y) - indic->type_data.needle_line.width - 2;
 2727              		.loc 1 682 78 view .LVU904
 2728 00d8 3A8A     		ldrh	r2, [r7, #16]
 682:lvgl/src/extra/widgets/meter/lv_meter.c ****         a.y1 = LV_MIN(scale_center.y, p_end.y) - indic->type_data.needle_line.width - 2;
 2729              		.loc 1 682 48 view .LVU905
 2730 00da 9B1A     		subs	r3, r3, r2
 2731 00dc 9BB2     		uxth	r3, r3
 682:lvgl/src/extra/widgets/meter/lv_meter.c ****         a.y1 = LV_MIN(scale_center.y, p_end.y) - indic->type_data.needle_line.width - 2;
 2732              		.loc 1 682 85 view .LVU906
 2733 00de 023B     		subs	r3, r3, #2
 682:lvgl/src/extra/widgets/meter/lv_meter.c ****         a.y1 = LV_MIN(scale_center.y, p_end.y) - indic->type_data.needle_line.width - 2;
 2734              		.loc 1 682 14 view .LVU907
 2735 00e0 ADF81430 		strh	r3, [sp, #20]	@ movhi
 683:lvgl/src/extra/widgets/meter/lv_meter.c ****         a.x2 = LV_MAX(scale_center.x, p_end.x) + indic->type_data.needle_line.width + 2;
 2736              		.loc 1 683 9 is_stmt 1 view .LVU908
 683:lvgl/src/extra/widgets/meter/lv_meter.c ****         a.x2 = LV_MAX(scale_center.x, p_end.x) + indic->type_data.needle_line.width + 2;
 2737              		.loc 1 683 16 is_stmt 0 view .LVU909
 2738 00e4 3346     		mov	r3, r6
 2739 00e6 4645     		cmp	r6, r8
 2740 00e8 A8BF     		it	ge
 2741 00ea 4346     		movge	r3, r8
 2742 00ec 9BB2     		uxth	r3, r3
 683:lvgl/src/extra/widgets/meter/lv_meter.c ****         a.x2 = LV_MAX(scale_center.x, p_end.x) + indic->type_data.needle_line.width + 2;
 2743              		.loc 1 683 48 view .LVU910
 2744 00ee 9B1A     		subs	r3, r3, r2
 2745 00f0 9BB2     		uxth	r3, r3
 683:lvgl/src/extra/widgets/meter/lv_meter.c ****         a.x2 = LV_MAX(scale_center.x, p_end.x) + indic->type_data.needle_line.width + 2;
 2746              		.loc 1 683 85 view .LVU911
 2747 00f2 023B     		subs	r3, r3, #2
 683:lvgl/src/extra/widgets/meter/lv_meter.c ****         a.x2 = LV_MAX(scale_center.x, p_end.x) + indic->type_data.needle_line.width + 2;
 2748              		.loc 1 683 14 view .LVU912
 2749 00f4 ADF81630 		strh	r3, [sp, #22]	@ movhi
 684:lvgl/src/extra/widgets/meter/lv_meter.c ****         a.y2 = LV_MAX(scale_center.y, p_end.y) + indic->type_data.needle_line.width + 2;
ARM GAS  C:\usertemp\ccXAVGrP.s 			page 89


 2750              		.loc 1 684 9 is_stmt 1 view .LVU913
 684:lvgl/src/extra/widgets/meter/lv_meter.c ****         a.y2 = LV_MAX(scale_center.y, p_end.y) + indic->type_data.needle_line.width + 2;
 2751              		.loc 1 684 16 is_stmt 0 view .LVU914
 2752 00f8 A542     		cmp	r5, r4
 2753 00fa B8BF     		it	lt
 2754 00fc 2546     		movlt	r5, r4
 684:lvgl/src/extra/widgets/meter/lv_meter.c ****         a.y2 = LV_MAX(scale_center.y, p_end.y) + indic->type_data.needle_line.width + 2;
 2755              		.loc 1 684 48 view .LVU915
 2756 00fe 12FA85F3 		uxtah	r3, r2, r5
 2757 0102 9BB2     		uxth	r3, r3
 684:lvgl/src/extra/widgets/meter/lv_meter.c ****         a.y2 = LV_MAX(scale_center.y, p_end.y) + indic->type_data.needle_line.width + 2;
 2758              		.loc 1 684 85 view .LVU916
 2759 0104 0233     		adds	r3, r3, #2
 684:lvgl/src/extra/widgets/meter/lv_meter.c ****         a.y2 = LV_MAX(scale_center.y, p_end.y) + indic->type_data.needle_line.width + 2;
 2760              		.loc 1 684 14 view .LVU917
 2761 0106 ADF81830 		strh	r3, [sp, #24]	@ movhi
 685:lvgl/src/extra/widgets/meter/lv_meter.c **** 
 2762              		.loc 1 685 9 is_stmt 1 view .LVU918
 685:lvgl/src/extra/widgets/meter/lv_meter.c **** 
 2763              		.loc 1 685 16 is_stmt 0 view .LVU919
 2764 010a 4645     		cmp	r6, r8
 2765 010c B8BF     		it	lt
 2766 010e 4646     		movlt	r6, r8
 685:lvgl/src/extra/widgets/meter/lv_meter.c **** 
 2767              		.loc 1 685 48 view .LVU920
 2768 0110 12FA86F3 		uxtah	r3, r2, r6
 2769 0114 9BB2     		uxth	r3, r3
 685:lvgl/src/extra/widgets/meter/lv_meter.c **** 
 2770              		.loc 1 685 85 view .LVU921
 2771 0116 0233     		adds	r3, r3, #2
 685:lvgl/src/extra/widgets/meter/lv_meter.c **** 
 2772              		.loc 1 685 14 view .LVU922
 2773 0118 ADF81A30 		strh	r3, [sp, #26]	@ movhi
 687:lvgl/src/extra/widgets/meter/lv_meter.c ****     }
 2774              		.loc 1 687 9 is_stmt 1 view .LVU923
 2775 011c 05A9     		add	r1, sp, #20
 2776 011e 0398     		ldr	r0, [sp, #12]
 2777 0120 FFF7FEFF 		bl	lv_obj_invalidate_area
 2778              	.LVL301:
 2779              	.LBE100:
 2780 0124 96E7     		b	.L93
 2781              	.LVL302:
 2782              	.L101:
 2783              	.LBB103:
 690:lvgl/src/extra/widgets/meter/lv_meter.c ****         lv_img_header_t info;
 2784              		.loc 1 690 9 view .LVU924
 690:lvgl/src/extra/widgets/meter/lv_meter.c ****         lv_img_header_t info;
 2785              		.loc 1 690 68 is_stmt 0 view .LVU925
 2786 0126 BBF92030 		ldrsh	r3, [fp, #32]
 690:lvgl/src/extra/widgets/meter/lv_meter.c ****         lv_img_header_t info;
 2787              		.loc 1 690 103 view .LVU926
 2788 012a BBF81E00 		ldrh	r0, [fp, #30]
 690:lvgl/src/extra/widgets/meter/lv_meter.c ****         lv_img_header_t info;
 2789              		.loc 1 690 96 view .LVU927
 2790 012e 1844     		add	r0, r0, r3
 690:lvgl/src/extra/widgets/meter/lv_meter.c ****         lv_img_header_t info;
 2791              		.loc 1 690 25 view .LVU928
ARM GAS  C:\usertemp\ccXAVGrP.s 			page 90


 2792 0130 DBF81820 		ldr	r2, [fp, #24]
 2793 0134 DBF81410 		ldr	r1, [fp, #20]
 2794 0138 0090     		str	r0, [sp]
 2795 013a 5046     		mov	r0, r10
 2796 013c FFF7FEFF 		bl	lv_map
 2797              	.LVL303:
 2798 0140 0446     		mov	r4, r0
 2799              	.LVL304:
 691:lvgl/src/extra/widgets/meter/lv_meter.c ****         lv_img_decoder_get_info(indic->type_data.needle_img.src, &info);
 2800              		.loc 1 691 9 is_stmt 1 view .LVU929
 692:lvgl/src/extra/widgets/meter/lv_meter.c **** 
 2801              		.loc 1 692 9 view .LVU930
 2802 0142 04A9     		add	r1, sp, #16
 2803 0144 3869     		ldr	r0, [r7, #16]
 2804              	.LVL305:
 692:lvgl/src/extra/widgets/meter/lv_meter.c **** 
 2805              		.loc 1 692 9 is_stmt 0 view .LVU931
 2806 0146 FFF7FEFF 		bl	lv_img_decoder_get_info
 2807              	.LVL306:
 694:lvgl/src/extra/widgets/meter/lv_meter.c ****         if(angle > 3600) angle -= 3600;
 2808              		.loc 1 694 9 is_stmt 1 view .LVU932
 694:lvgl/src/extra/widgets/meter/lv_meter.c ****         if(angle > 3600) angle -= 3600;
 2809              		.loc 1 694 15 is_stmt 0 view .LVU933
 2810 014a 04EB8400 		add	r0, r4, r4, lsl #2
 2811 014e 4000     		lsls	r0, r0, #1
 2812 0150 0346     		mov	r3, r0
 2813              	.LVL307:
 695:lvgl/src/extra/widgets/meter/lv_meter.c **** 
 2814              		.loc 1 695 9 is_stmt 1 view .LVU934
 695:lvgl/src/extra/widgets/meter/lv_meter.c **** 
 2815              		.loc 1 695 11 is_stmt 0 view .LVU935
 2816 0152 B0F5616F 		cmp	r0, #3600
 2817 0156 01DD     		ble	.L97
 695:lvgl/src/extra/widgets/meter/lv_meter.c **** 
 2818              		.loc 1 695 26 is_stmt 1 discriminator 1 view .LVU936
 695:lvgl/src/extra/widgets/meter/lv_meter.c **** 
 2819              		.loc 1 695 32 is_stmt 0 discriminator 1 view .LVU937
 2820 0158 A0F56163 		sub	r3, r0, #3600
 2821              	.LVL308:
 2822              	.L97:
 697:lvgl/src/extra/widgets/meter/lv_meter.c ****         scale_center.y -= indic->type_data.needle_img.pivot.y;
 2823              		.loc 1 697 9 is_stmt 1 view .LVU938
 697:lvgl/src/extra/widgets/meter/lv_meter.c ****         scale_center.y -= indic->type_data.needle_img.pivot.y;
 2824              		.loc 1 697 60 is_stmt 0 view .LVU939
 2825 015c BA8A     		ldrh	r2, [r7, #20]
 697:lvgl/src/extra/widgets/meter/lv_meter.c ****         scale_center.y -= indic->type_data.needle_img.pivot.y;
 2826              		.loc 1 697 24 view .LVU940
 2827 015e A9EB0209 		sub	r9, r9, r2
 2828 0162 1FFA89F9 		uxth	r9, r9
 2829 0166 ADF81C90 		strh	r9, [sp, #28]	@ movhi
 698:lvgl/src/extra/widgets/meter/lv_meter.c ****         lv_area_t a;
 2830              		.loc 1 698 9 is_stmt 1 view .LVU941
 698:lvgl/src/extra/widgets/meter/lv_meter.c ****         lv_area_t a;
 2831              		.loc 1 698 60 is_stmt 0 view .LVU942
 2832 016a FA8A     		ldrh	r2, [r7, #22]
 698:lvgl/src/extra/widgets/meter/lv_meter.c ****         lv_area_t a;
 2833              		.loc 1 698 24 view .LVU943
ARM GAS  C:\usertemp\ccXAVGrP.s 			page 91


 2834 016c A8EB0208 		sub	r8, r8, r2
 2835 0170 1FFA88F8 		uxth	r8, r8
 2836 0174 ADF81E80 		strh	r8, [sp, #30]	@ movhi
 699:lvgl/src/extra/widgets/meter/lv_meter.c ****         _lv_img_buf_get_transformed_area(&a, info.w, info.h, angle, LV_IMG_ZOOM_NONE, &indic->type_
 2837              		.loc 1 699 9 is_stmt 1 view .LVU944
 700:lvgl/src/extra/widgets/meter/lv_meter.c ****         a.x1 += scale_center.x - 2;
 2838              		.loc 1 700 9 view .LVU945
 700:lvgl/src/extra/widgets/meter/lv_meter.c ****         a.x1 += scale_center.x - 2;
 2839              		.loc 1 700 58 is_stmt 0 view .LVU946
 2840 0178 BDF81220 		ldrh	r2, [sp, #18]
 700:lvgl/src/extra/widgets/meter/lv_meter.c ****         a.x1 += scale_center.x - 2;
 2841              		.loc 1 700 87 view .LVU947
 2842 017c 1437     		adds	r7, r7, #20
 2843              	.LVL309:
 700:lvgl/src/extra/widgets/meter/lv_meter.c ****         a.x1 += scale_center.x - 2;
 2844              		.loc 1 700 9 view .LVU948
 2845 017e 0197     		str	r7, [sp, #4]
 2846 0180 4FF48071 		mov	r1, #256
 2847 0184 0091     		str	r1, [sp]
 2848 0186 1BB2     		sxth	r3, r3
 2849              	.LVL310:
 700:lvgl/src/extra/widgets/meter/lv_meter.c ****         a.x1 += scale_center.x - 2;
 2850              		.loc 1 700 9 view .LVU949
 2851 0188 C2F34A12 		ubfx	r2, r2, #5, #11
 2852 018c 0499     		ldr	r1, [sp, #16]
 2853 018e C1F38A21 		ubfx	r1, r1, #10, #11
 2854 0192 05A8     		add	r0, sp, #20
 2855 0194 FFF7FEFF 		bl	_lv_img_buf_get_transformed_area
 2856              	.LVL311:
 701:lvgl/src/extra/widgets/meter/lv_meter.c ****         a.y1 += scale_center.y - 2;
 2857              		.loc 1 701 9 is_stmt 1 view .LVU950
 701:lvgl/src/extra/widgets/meter/lv_meter.c ****         a.y1 += scale_center.y - 2;
 2858              		.loc 1 701 10 is_stmt 0 view .LVU951
 2859 0198 BDF91430 		ldrsh	r3, [sp, #20]
 701:lvgl/src/extra/widgets/meter/lv_meter.c ****         a.y1 += scale_center.y - 2;
 2860              		.loc 1 701 14 view .LVU952
 2861 019c 4B44     		add	r3, r3, r9
 2862 019e 023B     		subs	r3, r3, #2
 2863 01a0 ADF81430 		strh	r3, [sp, #20]	@ movhi
 702:lvgl/src/extra/widgets/meter/lv_meter.c ****         a.x2 += scale_center.x + 2;
 2864              		.loc 1 702 9 is_stmt 1 view .LVU953
 702:lvgl/src/extra/widgets/meter/lv_meter.c ****         a.x2 += scale_center.x + 2;
 2865              		.loc 1 702 10 is_stmt 0 view .LVU954
 2866 01a4 BDF91630 		ldrsh	r3, [sp, #22]
 702:lvgl/src/extra/widgets/meter/lv_meter.c ****         a.x2 += scale_center.x + 2;
 2867              		.loc 1 702 14 view .LVU955
 2868 01a8 4344     		add	r3, r3, r8
 2869 01aa 023B     		subs	r3, r3, #2
 2870 01ac ADF81630 		strh	r3, [sp, #22]	@ movhi
 703:lvgl/src/extra/widgets/meter/lv_meter.c ****         a.y2 += scale_center.y + 2;
 2871              		.loc 1 703 9 is_stmt 1 view .LVU956
 703:lvgl/src/extra/widgets/meter/lv_meter.c ****         a.y2 += scale_center.y + 2;
 2872              		.loc 1 703 10 is_stmt 0 view .LVU957
 2873 01b0 BDF91830 		ldrsh	r3, [sp, #24]
 703:lvgl/src/extra/widgets/meter/lv_meter.c ****         a.y2 += scale_center.y + 2;
 2874              		.loc 1 703 14 view .LVU958
 2875 01b4 9944     		add	r9, r9, r3
ARM GAS  C:\usertemp\ccXAVGrP.s 			page 92


 2876 01b6 09F10209 		add	r9, r9, #2
 2877 01ba ADF81890 		strh	r9, [sp, #24]	@ movhi
 704:lvgl/src/extra/widgets/meter/lv_meter.c **** 
 2878              		.loc 1 704 9 is_stmt 1 view .LVU959
 704:lvgl/src/extra/widgets/meter/lv_meter.c **** 
 2879              		.loc 1 704 10 is_stmt 0 view .LVU960
 2880 01be BDF91A30 		ldrsh	r3, [sp, #26]
 704:lvgl/src/extra/widgets/meter/lv_meter.c **** 
 2881              		.loc 1 704 14 view .LVU961
 2882 01c2 9844     		add	r8, r8, r3
 2883 01c4 08F10208 		add	r8, r8, #2
 2884 01c8 ADF81A80 		strh	r8, [sp, #26]	@ movhi
 706:lvgl/src/extra/widgets/meter/lv_meter.c ****     }
 2885              		.loc 1 706 9 is_stmt 1 view .LVU962
 2886 01cc 05A9     		add	r1, sp, #20
 2887 01ce 0398     		ldr	r0, [sp, #12]
 2888 01d0 FFF7FEFF 		bl	lv_obj_invalidate_area
 2889              	.LVL312:
 2890              	.LBE103:
 2891              		.loc 1 708 1 is_stmt 0 view .LVU963
 2892 01d4 3EE7     		b	.L93
 2893              	.L103:
 2894 01d6 00BF     		.align	2
 2895              	.L102:
 2896 01d8 03000180 		.word	-2147418109
 2897              		.cfi_endproc
 2898              	.LFE215:
 2900              		.section	.text.lv_meter_create,"ax",%progbits
 2901              		.align	1
 2902              		.global	lv_meter_create
 2903              		.syntax unified
 2904              		.thumb
 2905              		.thumb_func
 2907              	lv_meter_create:
 2908              	.LVL313:
 2909              	.LFB196:
  55:lvgl/src/extra/widgets/meter/lv_meter.c ****     LV_LOG_INFO("begin");
 2910              		.loc 1 55 1 is_stmt 1 view -0
 2911              		.cfi_startproc
 2912              		@ args = 0, pretend = 0, frame = 0
 2913              		@ frame_needed = 0, uses_anonymous_args = 0
  55:lvgl/src/extra/widgets/meter/lv_meter.c ****     LV_LOG_INFO("begin");
 2914              		.loc 1 55 1 is_stmt 0 view .LVU965
 2915 0000 10B5     		push	{r4, lr}
 2916              	.LCFI23:
 2917              		.cfi_def_cfa_offset 8
 2918              		.cfi_offset 4, -8
 2919              		.cfi_offset 14, -4
 2920 0002 0146     		mov	r1, r0
  56:lvgl/src/extra/widgets/meter/lv_meter.c ****     lv_obj_t * obj = lv_obj_class_create_obj(MY_CLASS, parent);
 2921              		.loc 1 56 5 is_stmt 1 view .LVU966
  56:lvgl/src/extra/widgets/meter/lv_meter.c ****     lv_obj_t * obj = lv_obj_class_create_obj(MY_CLASS, parent);
 2922              		.loc 1 56 5 view .LVU967
  56:lvgl/src/extra/widgets/meter/lv_meter.c ****     lv_obj_t * obj = lv_obj_class_create_obj(MY_CLASS, parent);
 2923              		.loc 1 56 5 view .LVU968
  57:lvgl/src/extra/widgets/meter/lv_meter.c ****     lv_obj_class_init_obj(obj);
 2924              		.loc 1 57 5 view .LVU969
ARM GAS  C:\usertemp\ccXAVGrP.s 			page 93


  57:lvgl/src/extra/widgets/meter/lv_meter.c ****     lv_obj_class_init_obj(obj);
 2925              		.loc 1 57 22 is_stmt 0 view .LVU970
 2926 0004 0348     		ldr	r0, .L106
 2927              	.LVL314:
  57:lvgl/src/extra/widgets/meter/lv_meter.c ****     lv_obj_class_init_obj(obj);
 2928              		.loc 1 57 22 view .LVU971
 2929 0006 FFF7FEFF 		bl	lv_obj_class_create_obj
 2930              	.LVL315:
  57:lvgl/src/extra/widgets/meter/lv_meter.c ****     lv_obj_class_init_obj(obj);
 2931              		.loc 1 57 22 view .LVU972
 2932 000a 0446     		mov	r4, r0
 2933              	.LVL316:
  58:lvgl/src/extra/widgets/meter/lv_meter.c ****     return obj;
 2934              		.loc 1 58 5 is_stmt 1 view .LVU973
 2935 000c FFF7FEFF 		bl	lv_obj_class_init_obj
 2936              	.LVL317:
  59:lvgl/src/extra/widgets/meter/lv_meter.c **** }
 2937              		.loc 1 59 5 view .LVU974
  60:lvgl/src/extra/widgets/meter/lv_meter.c **** 
 2938              		.loc 1 60 1 is_stmt 0 view .LVU975
 2939 0010 2046     		mov	r0, r4
 2940 0012 10BD     		pop	{r4, pc}
 2941              	.LVL318:
 2942              	.L107:
  60:lvgl/src/extra/widgets/meter/lv_meter.c **** 
 2943              		.loc 1 60 1 view .LVU976
 2944              		.align	2
 2945              	.L106:
 2946 0014 00000000 		.word	lv_meter_class
 2947              		.cfi_endproc
 2948              	.LFE196:
 2950              		.section	.text.lv_meter_add_scale,"ax",%progbits
 2951              		.align	1
 2952              		.global	lv_meter_add_scale
 2953              		.syntax unified
 2954              		.thumb
 2955              		.thumb_func
 2957              	lv_meter_add_scale:
 2958              	.LVL319:
 2959              	.LFB197:
  67:lvgl/src/extra/widgets/meter/lv_meter.c ****     LV_ASSERT_OBJ(obj, MY_CLASS);
 2960              		.loc 1 67 1 is_stmt 1 view -0
 2961              		.cfi_startproc
 2962              		@ args = 0, pretend = 0, frame = 0
 2963              		@ frame_needed = 0, uses_anonymous_args = 0
  67:lvgl/src/extra/widgets/meter/lv_meter.c ****     LV_ASSERT_OBJ(obj, MY_CLASS);
 2964              		.loc 1 67 1 is_stmt 0 view .LVU978
 2965 0000 10B5     		push	{r4, lr}
 2966              	.LCFI24:
 2967              		.cfi_def_cfa_offset 8
 2968              		.cfi_offset 4, -8
 2969              		.cfi_offset 14, -4
  68:lvgl/src/extra/widgets/meter/lv_meter.c ****     lv_meter_t * meter = (lv_meter_t *)obj;
 2970              		.loc 1 68 5 is_stmt 1 view .LVU979
  68:lvgl/src/extra/widgets/meter/lv_meter.c ****     lv_meter_t * meter = (lv_meter_t *)obj;
 2971              		.loc 1 68 5 view .LVU980
  68:lvgl/src/extra/widgets/meter/lv_meter.c ****     lv_meter_t * meter = (lv_meter_t *)obj;
ARM GAS  C:\usertemp\ccXAVGrP.s 			page 94


 2972              		.loc 1 68 5 view .LVU981
  69:lvgl/src/extra/widgets/meter/lv_meter.c **** 
 2973              		.loc 1 69 5 view .LVU982
 2974              	.LVL320:
  71:lvgl/src/extra/widgets/meter/lv_meter.c ****     LV_ASSERT_MALLOC(scale);
 2975              		.loc 1 71 5 view .LVU983
  71:lvgl/src/extra/widgets/meter/lv_meter.c ****     LV_ASSERT_MALLOC(scale);
 2976              		.loc 1 71 32 is_stmt 0 view .LVU984
 2977 0002 2430     		adds	r0, r0, #36
 2978              	.LVL321:
  71:lvgl/src/extra/widgets/meter/lv_meter.c ****     LV_ASSERT_MALLOC(scale);
 2979              		.loc 1 71 32 view .LVU985
 2980 0004 FFF7FEFF 		bl	_lv_ll_ins_head
 2981              	.LVL322:
  72:lvgl/src/extra/widgets/meter/lv_meter.c ****     lv_memset_00(scale, sizeof(lv_meter_scale_t));
 2982              		.loc 1 72 5 is_stmt 1 view .LVU986
  72:lvgl/src/extra/widgets/meter/lv_meter.c ****     lv_memset_00(scale, sizeof(lv_meter_scale_t));
 2983              		.loc 1 72 5 view .LVU987
 2984 0008 A8B1     		cbz	r0, .L110
 2985 000a 0446     		mov	r4, r0
  72:lvgl/src/extra/widgets/meter/lv_meter.c ****     lv_memset_00(scale, sizeof(lv_meter_scale_t));
 2986              		.loc 1 72 5 discriminator 2 view .LVU988
  72:lvgl/src/extra/widgets/meter/lv_meter.c ****     lv_memset_00(scale, sizeof(lv_meter_scale_t));
 2987              		.loc 1 72 28 discriminator 2 view .LVU989
  73:lvgl/src/extra/widgets/meter/lv_meter.c **** 
 2988              		.loc 1 73 5 view .LVU990
 2989 000c 2421     		movs	r1, #36
 2990 000e FFF7FEFF 		bl	lv_memset_00
 2991              	.LVL323:
  75:lvgl/src/extra/widgets/meter/lv_meter.c ****     scale->rotation = 90 + (360 - scale->angle_range) / 2;
 2992              		.loc 1 75 5 view .LVU991
  75:lvgl/src/extra/widgets/meter/lv_meter.c ****     scale->rotation = 90 + (360 - scale->angle_range) / 2;
 2993              		.loc 1 75 24 is_stmt 0 view .LVU992
 2994 0012 4FF48773 		mov	r3, #270
 2995 0016 E383     		strh	r3, [r4, #30]	@ movhi
  76:lvgl/src/extra/widgets/meter/lv_meter.c ****     scale->min = 0;
 2996              		.loc 1 76 5 is_stmt 1 view .LVU993
  76:lvgl/src/extra/widgets/meter/lv_meter.c ****     scale->min = 0;
 2997              		.loc 1 76 21 is_stmt 0 view .LVU994
 2998 0018 8723     		movs	r3, #135
 2999 001a 2384     		strh	r3, [r4, #32]	@ movhi
  77:lvgl/src/extra/widgets/meter/lv_meter.c ****     scale->max = 100;
 3000              		.loc 1 77 5 is_stmt 1 view .LVU995
  77:lvgl/src/extra/widgets/meter/lv_meter.c ****     scale->max = 100;
 3001              		.loc 1 77 16 is_stmt 0 view .LVU996
 3002 001c 0023     		movs	r3, #0
 3003 001e 6361     		str	r3, [r4, #20]
  78:lvgl/src/extra/widgets/meter/lv_meter.c ****     scale->tick_cnt = 6;
 3004              		.loc 1 78 5 is_stmt 1 view .LVU997
  78:lvgl/src/extra/widgets/meter/lv_meter.c ****     scale->tick_cnt = 6;
 3005              		.loc 1 78 16 is_stmt 0 view .LVU998
 3006 0020 6423     		movs	r3, #100
 3007 0022 A361     		str	r3, [r4, #24]
  79:lvgl/src/extra/widgets/meter/lv_meter.c ****     scale->tick_length = 8;
 3008              		.loc 1 79 5 is_stmt 1 view .LVU999
  79:lvgl/src/extra/widgets/meter/lv_meter.c ****     scale->tick_length = 8;
 3009              		.loc 1 79 21 is_stmt 0 view .LVU1000
ARM GAS  C:\usertemp\ccXAVGrP.s 			page 95


 3010 0024 0623     		movs	r3, #6
 3011 0026 6380     		strh	r3, [r4, #2]	@ movhi
  80:lvgl/src/extra/widgets/meter/lv_meter.c ****     scale->tick_width = 2;
 3012              		.loc 1 80 5 is_stmt 1 view .LVU1001
  80:lvgl/src/extra/widgets/meter/lv_meter.c ****     scale->tick_width = 2;
 3013              		.loc 1 80 24 is_stmt 0 view .LVU1002
 3014 0028 0823     		movs	r3, #8
 3015 002a A380     		strh	r3, [r4, #4]	@ movhi
  81:lvgl/src/extra/widgets/meter/lv_meter.c ****     scale->label_gap = 2;
 3016              		.loc 1 81 5 is_stmt 1 view .LVU1003
  81:lvgl/src/extra/widgets/meter/lv_meter.c ****     scale->label_gap = 2;
 3017              		.loc 1 81 23 is_stmt 0 view .LVU1004
 3018 002c 0223     		movs	r3, #2
 3019 002e E380     		strh	r3, [r4, #6]	@ movhi
  82:lvgl/src/extra/widgets/meter/lv_meter.c **** 
 3020              		.loc 1 82 5 is_stmt 1 view .LVU1005
  82:lvgl/src/extra/widgets/meter/lv_meter.c **** 
 3021              		.loc 1 82 22 is_stmt 0 view .LVU1006
 3022 0030 2382     		strh	r3, [r4, #16]	@ movhi
  84:lvgl/src/extra/widgets/meter/lv_meter.c **** }
 3023              		.loc 1 84 5 is_stmt 1 view .LVU1007
  85:lvgl/src/extra/widgets/meter/lv_meter.c **** 
 3024              		.loc 1 85 1 is_stmt 0 view .LVU1008
 3025 0032 2046     		mov	r0, r4
 3026 0034 10BD     		pop	{r4, pc}
 3027              	.LVL324:
 3028              	.L110:
  72:lvgl/src/extra/widgets/meter/lv_meter.c ****     lv_memset_00(scale, sizeof(lv_meter_scale_t));
 3029              		.loc 1 72 5 is_stmt 1 discriminator 1 view .LVU1009
  72:lvgl/src/extra/widgets/meter/lv_meter.c ****     lv_memset_00(scale, sizeof(lv_meter_scale_t));
 3030              		.loc 1 72 5 discriminator 1 view .LVU1010
  72:lvgl/src/extra/widgets/meter/lv_meter.c ****     lv_memset_00(scale, sizeof(lv_meter_scale_t));
 3031              		.loc 1 72 5 discriminator 1 view .LVU1011
  72:lvgl/src/extra/widgets/meter/lv_meter.c ****     lv_memset_00(scale, sizeof(lv_meter_scale_t));
 3032              		.loc 1 72 5 discriminator 1 view .LVU1012
  72:lvgl/src/extra/widgets/meter/lv_meter.c ****     lv_memset_00(scale, sizeof(lv_meter_scale_t));
 3033              		.loc 1 72 5 discriminator 1 view .LVU1013
 3034 0036 FEE7     		b	.L110
 3035              		.cfi_endproc
 3036              	.LFE197:
 3038              		.section	.text.lv_meter_set_scale_ticks,"ax",%progbits
 3039              		.align	1
 3040              		.global	lv_meter_set_scale_ticks
 3041              		.syntax unified
 3042              		.thumb
 3043              		.thumb_func
 3045              	lv_meter_set_scale_ticks:
 3046              	.LVL325:
 3047              	.LFB198:
  89:lvgl/src/extra/widgets/meter/lv_meter.c ****     scale->tick_cnt = cnt;
 3048              		.loc 1 89 1 view -0
 3049              		.cfi_startproc
 3050              		@ args = 8, pretend = 0, frame = 0
 3051              		@ frame_needed = 0, uses_anonymous_args = 0
  89:lvgl/src/extra/widgets/meter/lv_meter.c ****     scale->tick_cnt = cnt;
 3052              		.loc 1 89 1 is_stmt 0 view .LVU1015
 3053 0000 08B5     		push	{r3, lr}
ARM GAS  C:\usertemp\ccXAVGrP.s 			page 96


 3054              	.LCFI25:
 3055              		.cfi_def_cfa_offset 8
 3056              		.cfi_offset 3, -8
 3057              		.cfi_offset 14, -4
  90:lvgl/src/extra/widgets/meter/lv_meter.c ****     scale->tick_width = width;
 3058              		.loc 1 90 5 is_stmt 1 view .LVU1016
  90:lvgl/src/extra/widgets/meter/lv_meter.c ****     scale->tick_width = width;
 3059              		.loc 1 90 21 is_stmt 0 view .LVU1017
 3060 0002 4A80     		strh	r2, [r1, #2]	@ movhi
  91:lvgl/src/extra/widgets/meter/lv_meter.c ****     scale->tick_length = len;
 3061              		.loc 1 91 5 is_stmt 1 view .LVU1018
  91:lvgl/src/extra/widgets/meter/lv_meter.c ****     scale->tick_length = len;
 3062              		.loc 1 91 23 is_stmt 0 view .LVU1019
 3063 0004 CB80     		strh	r3, [r1, #6]	@ movhi
  92:lvgl/src/extra/widgets/meter/lv_meter.c ****     scale->tick_color = color;
 3064              		.loc 1 92 5 is_stmt 1 view .LVU1020
  92:lvgl/src/extra/widgets/meter/lv_meter.c ****     scale->tick_color = color;
 3065              		.loc 1 92 24 is_stmt 0 view .LVU1021
 3066 0006 BDF80830 		ldrh	r3, [sp, #8]
 3067              	.LVL326:
  92:lvgl/src/extra/widgets/meter/lv_meter.c ****     scale->tick_color = color;
 3068              		.loc 1 92 24 view .LVU1022
 3069 000a 8B80     		strh	r3, [r1, #4]	@ movhi
  93:lvgl/src/extra/widgets/meter/lv_meter.c ****     lv_obj_invalidate(obj);
 3070              		.loc 1 93 5 is_stmt 1 view .LVU1023
  93:lvgl/src/extra/widgets/meter/lv_meter.c ****     lv_obj_invalidate(obj);
 3071              		.loc 1 93 23 is_stmt 0 view .LVU1024
 3072 000c BDF80C30 		ldrh	r3, [sp, #12]
 3073 0010 0B80     		strh	r3, [r1]	@ movhi
  94:lvgl/src/extra/widgets/meter/lv_meter.c **** }
 3074              		.loc 1 94 5 is_stmt 1 view .LVU1025
 3075 0012 FFF7FEFF 		bl	lv_obj_invalidate
 3076              	.LVL327:
  95:lvgl/src/extra/widgets/meter/lv_meter.c **** 
 3077              		.loc 1 95 1 is_stmt 0 view .LVU1026
 3078 0016 08BD     		pop	{r3, pc}
  95:lvgl/src/extra/widgets/meter/lv_meter.c **** 
 3079              		.loc 1 95 1 view .LVU1027
 3080              		.cfi_endproc
 3081              	.LFE198:
 3083              		.section	.text.lv_meter_set_scale_major_ticks,"ax",%progbits
 3084              		.align	1
 3085              		.global	lv_meter_set_scale_major_ticks
 3086              		.syntax unified
 3087              		.thumb
 3088              		.thumb_func
 3090              	lv_meter_set_scale_major_ticks:
 3091              	.LVL328:
 3092              	.LFB199:
  99:lvgl/src/extra/widgets/meter/lv_meter.c ****     scale->tick_major_nth = nth;
 3093              		.loc 1 99 1 is_stmt 1 view -0
 3094              		.cfi_startproc
 3095              		@ args = 12, pretend = 0, frame = 0
 3096              		@ frame_needed = 0, uses_anonymous_args = 0
  99:lvgl/src/extra/widgets/meter/lv_meter.c ****     scale->tick_major_nth = nth;
 3097              		.loc 1 99 1 is_stmt 0 view .LVU1029
 3098 0000 08B5     		push	{r3, lr}
ARM GAS  C:\usertemp\ccXAVGrP.s 			page 97


 3099              	.LCFI26:
 3100              		.cfi_def_cfa_offset 8
 3101              		.cfi_offset 3, -8
 3102              		.cfi_offset 14, -4
 100:lvgl/src/extra/widgets/meter/lv_meter.c ****     scale->tick_major_width = width;
 3103              		.loc 1 100 5 is_stmt 1 view .LVU1030
 100:lvgl/src/extra/widgets/meter/lv_meter.c ****     scale->tick_major_width = width;
 3104              		.loc 1 100 27 is_stmt 0 view .LVU1031
 3105 0002 4A81     		strh	r2, [r1, #10]	@ movhi
 101:lvgl/src/extra/widgets/meter/lv_meter.c ****     scale->tick_major_length = len;
 3106              		.loc 1 101 5 is_stmt 1 view .LVU1032
 101:lvgl/src/extra/widgets/meter/lv_meter.c ****     scale->tick_major_length = len;
 3107              		.loc 1 101 29 is_stmt 0 view .LVU1033
 3108 0004 CB81     		strh	r3, [r1, #14]	@ movhi
 102:lvgl/src/extra/widgets/meter/lv_meter.c ****     scale->tick_major_color = color;
 3109              		.loc 1 102 5 is_stmt 1 view .LVU1034
 102:lvgl/src/extra/widgets/meter/lv_meter.c ****     scale->tick_major_color = color;
 3110              		.loc 1 102 30 is_stmt 0 view .LVU1035
 3111 0006 BDF80830 		ldrh	r3, [sp, #8]
 3112              	.LVL329:
 102:lvgl/src/extra/widgets/meter/lv_meter.c ****     scale->tick_major_color = color;
 3113              		.loc 1 102 30 view .LVU1036
 3114 000a 8B81     		strh	r3, [r1, #12]	@ movhi
 103:lvgl/src/extra/widgets/meter/lv_meter.c ****     scale->label_gap = label_gap;
 3115              		.loc 1 103 5 is_stmt 1 view .LVU1037
 103:lvgl/src/extra/widgets/meter/lv_meter.c ****     scale->label_gap = label_gap;
 3116              		.loc 1 103 29 is_stmt 0 view .LVU1038
 3117 000c BDF80C30 		ldrh	r3, [sp, #12]
 3118 0010 0B81     		strh	r3, [r1, #8]	@ movhi
 104:lvgl/src/extra/widgets/meter/lv_meter.c ****     lv_obj_invalidate(obj);
 3119              		.loc 1 104 5 is_stmt 1 view .LVU1039
 104:lvgl/src/extra/widgets/meter/lv_meter.c ****     lv_obj_invalidate(obj);
 3120              		.loc 1 104 22 is_stmt 0 view .LVU1040
 3121 0012 BDF91030 		ldrsh	r3, [sp, #16]
 3122 0016 0B82     		strh	r3, [r1, #16]	@ movhi
 105:lvgl/src/extra/widgets/meter/lv_meter.c **** }
 3123              		.loc 1 105 5 is_stmt 1 view .LVU1041
 3124 0018 FFF7FEFF 		bl	lv_obj_invalidate
 3125              	.LVL330:
 106:lvgl/src/extra/widgets/meter/lv_meter.c **** 
 3126              		.loc 1 106 1 is_stmt 0 view .LVU1042
 3127 001c 08BD     		pop	{r3, pc}
 106:lvgl/src/extra/widgets/meter/lv_meter.c **** 
 3128              		.loc 1 106 1 view .LVU1043
 3129              		.cfi_endproc
 3130              	.LFE199:
 3132              		.section	.text.lv_meter_set_scale_range,"ax",%progbits
 3133              		.align	1
 3134              		.global	lv_meter_set_scale_range
 3135              		.syntax unified
 3136              		.thumb
 3137              		.thumb_func
 3139              	lv_meter_set_scale_range:
 3140              	.LVL331:
 3141              	.LFB200:
 110:lvgl/src/extra/widgets/meter/lv_meter.c ****     scale->min = min;
 3142              		.loc 1 110 1 is_stmt 1 view -0
ARM GAS  C:\usertemp\ccXAVGrP.s 			page 98


 3143              		.cfi_startproc
 3144              		@ args = 8, pretend = 0, frame = 0
 3145              		@ frame_needed = 0, uses_anonymous_args = 0
 110:lvgl/src/extra/widgets/meter/lv_meter.c ****     scale->min = min;
 3146              		.loc 1 110 1 is_stmt 0 view .LVU1045
 3147 0000 08B5     		push	{r3, lr}
 3148              	.LCFI27:
 3149              		.cfi_def_cfa_offset 8
 3150              		.cfi_offset 3, -8
 3151              		.cfi_offset 14, -4
 111:lvgl/src/extra/widgets/meter/lv_meter.c ****     scale->max = max;
 3152              		.loc 1 111 5 is_stmt 1 view .LVU1046
 111:lvgl/src/extra/widgets/meter/lv_meter.c ****     scale->max = max;
 3153              		.loc 1 111 16 is_stmt 0 view .LVU1047
 3154 0002 4A61     		str	r2, [r1, #20]
 112:lvgl/src/extra/widgets/meter/lv_meter.c ****     scale->angle_range = angle_range;
 3155              		.loc 1 112 5 is_stmt 1 view .LVU1048
 112:lvgl/src/extra/widgets/meter/lv_meter.c ****     scale->angle_range = angle_range;
 3156              		.loc 1 112 16 is_stmt 0 view .LVU1049
 3157 0004 8B61     		str	r3, [r1, #24]
 113:lvgl/src/extra/widgets/meter/lv_meter.c ****     scale->rotation = rotation;
 3158              		.loc 1 113 5 is_stmt 1 view .LVU1050
 113:lvgl/src/extra/widgets/meter/lv_meter.c ****     scale->rotation = rotation;
 3159              		.loc 1 113 24 is_stmt 0 view .LVU1051
 3160 0006 029B     		ldr	r3, [sp, #8]
 3161              	.LVL332:
 113:lvgl/src/extra/widgets/meter/lv_meter.c ****     scale->rotation = rotation;
 3162              		.loc 1 113 24 view .LVU1052
 3163 0008 CB83     		strh	r3, [r1, #30]	@ movhi
 114:lvgl/src/extra/widgets/meter/lv_meter.c ****     lv_obj_invalidate(obj);
 3164              		.loc 1 114 5 is_stmt 1 view .LVU1053
 114:lvgl/src/extra/widgets/meter/lv_meter.c ****     lv_obj_invalidate(obj);
 3165              		.loc 1 114 21 is_stmt 0 view .LVU1054
 3166 000a 039B     		ldr	r3, [sp, #12]
 3167 000c 0B84     		strh	r3, [r1, #32]	@ movhi
 115:lvgl/src/extra/widgets/meter/lv_meter.c **** }
 3168              		.loc 1 115 5 is_stmt 1 view .LVU1055
 3169 000e FFF7FEFF 		bl	lv_obj_invalidate
 3170              	.LVL333:
 116:lvgl/src/extra/widgets/meter/lv_meter.c **** 
 3171              		.loc 1 116 1 is_stmt 0 view .LVU1056
 3172 0012 08BD     		pop	{r3, pc}
 116:lvgl/src/extra/widgets/meter/lv_meter.c **** 
 3173              		.loc 1 116 1 view .LVU1057
 3174              		.cfi_endproc
 3175              	.LFE200:
 3177              		.section	.text.lv_meter_add_needle_line,"ax",%progbits
 3178              		.align	1
 3179              		.global	lv_meter_add_needle_line
 3180              		.syntax unified
 3181              		.thumb
 3182              		.thumb_func
 3184              	lv_meter_add_needle_line:
 3185              	.LVL334:
 3186              	.LFB201:
 124:lvgl/src/extra/widgets/meter/lv_meter.c ****     LV_ASSERT_OBJ(obj, MY_CLASS);
 3187              		.loc 1 124 1 is_stmt 1 view -0
ARM GAS  C:\usertemp\ccXAVGrP.s 			page 99


 3188              		.cfi_startproc
 3189              		@ args = 4, pretend = 0, frame = 0
 3190              		@ frame_needed = 0, uses_anonymous_args = 0
 124:lvgl/src/extra/widgets/meter/lv_meter.c ****     LV_ASSERT_OBJ(obj, MY_CLASS);
 3191              		.loc 1 124 1 is_stmt 0 view .LVU1059
 3192 0000 2DE9F041 		push	{r4, r5, r6, r7, r8, lr}
 3193              	.LCFI28:
 3194              		.cfi_def_cfa_offset 24
 3195              		.cfi_offset 4, -24
 3196              		.cfi_offset 5, -20
 3197              		.cfi_offset 6, -16
 3198              		.cfi_offset 7, -12
 3199              		.cfi_offset 8, -8
 3200              		.cfi_offset 14, -4
 3201 0004 0546     		mov	r5, r0
 3202 0006 0F46     		mov	r7, r1
 3203 0008 9046     		mov	r8, r2
 3204 000a 1E46     		mov	r6, r3	@ movhi
 3205              	.LVL335:
 125:lvgl/src/extra/widgets/meter/lv_meter.c ****     lv_meter_t * meter = (lv_meter_t *)obj;
 3206              		.loc 1 125 5 is_stmt 1 view .LVU1060
 125:lvgl/src/extra/widgets/meter/lv_meter.c ****     lv_meter_t * meter = (lv_meter_t *)obj;
 3207              		.loc 1 125 5 view .LVU1061
 125:lvgl/src/extra/widgets/meter/lv_meter.c ****     lv_meter_t * meter = (lv_meter_t *)obj;
 3208              		.loc 1 125 5 view .LVU1062
 126:lvgl/src/extra/widgets/meter/lv_meter.c ****     lv_meter_indicator_t * indic = _lv_ll_ins_head(&meter->indicator_ll);
 3209              		.loc 1 126 5 view .LVU1063
 127:lvgl/src/extra/widgets/meter/lv_meter.c ****     LV_ASSERT_MALLOC(indic);
 3210              		.loc 1 127 5 view .LVU1064
 127:lvgl/src/extra/widgets/meter/lv_meter.c ****     LV_ASSERT_MALLOC(indic);
 3211              		.loc 1 127 36 is_stmt 0 view .LVU1065
 3212 000c 3030     		adds	r0, r0, #48
 3213              	.LVL336:
 127:lvgl/src/extra/widgets/meter/lv_meter.c ****     LV_ASSERT_MALLOC(indic);
 3214              		.loc 1 127 36 view .LVU1066
 3215 000e FFF7FEFF 		bl	_lv_ll_ins_head
 3216              	.LVL337:
 128:lvgl/src/extra/widgets/meter/lv_meter.c ****     lv_memset_00(indic, sizeof(lv_meter_indicator_t));
 3217              		.loc 1 128 5 is_stmt 1 view .LVU1067
 128:lvgl/src/extra/widgets/meter/lv_meter.c ****     lv_memset_00(indic, sizeof(lv_meter_indicator_t));
 3218              		.loc 1 128 5 view .LVU1068
 3219 0012 A0B1     		cbz	r0, .L120
 3220 0014 0446     		mov	r4, r0
 128:lvgl/src/extra/widgets/meter/lv_meter.c ****     lv_memset_00(indic, sizeof(lv_meter_indicator_t));
 3221              		.loc 1 128 5 discriminator 2 view .LVU1069
 128:lvgl/src/extra/widgets/meter/lv_meter.c ****     lv_memset_00(indic, sizeof(lv_meter_indicator_t));
 3222              		.loc 1 128 28 discriminator 2 view .LVU1070
 129:lvgl/src/extra/widgets/meter/lv_meter.c ****     indic->scale = scale;
 3223              		.loc 1 129 5 view .LVU1071
 3224 0016 1C21     		movs	r1, #28
 3225 0018 FFF7FEFF 		bl	lv_memset_00
 3226              	.LVL338:
 130:lvgl/src/extra/widgets/meter/lv_meter.c ****     indic->opa = LV_OPA_COVER;
 3227              		.loc 1 130 5 view .LVU1072
 130:lvgl/src/extra/widgets/meter/lv_meter.c ****     indic->opa = LV_OPA_COVER;
 3228              		.loc 1 130 18 is_stmt 0 view .LVU1073
 3229 001c 2760     		str	r7, [r4]
ARM GAS  C:\usertemp\ccXAVGrP.s 			page 100


 131:lvgl/src/extra/widgets/meter/lv_meter.c **** 
 3230              		.loc 1 131 5 is_stmt 1 view .LVU1074
 131:lvgl/src/extra/widgets/meter/lv_meter.c **** 
 3231              		.loc 1 131 16 is_stmt 0 view .LVU1075
 3232 001e FF23     		movs	r3, #255
 3233 0020 6371     		strb	r3, [r4, #5]
 133:lvgl/src/extra/widgets/meter/lv_meter.c ****     indic->type_data.needle_line.width = width;
 3234              		.loc 1 133 5 is_stmt 1 view .LVU1076
 133:lvgl/src/extra/widgets/meter/lv_meter.c ****     indic->type_data.needle_line.width = width;
 3235              		.loc 1 133 17 is_stmt 0 view .LVU1077
 3236 0022 0123     		movs	r3, #1
 3237 0024 2371     		strb	r3, [r4, #4]
 134:lvgl/src/extra/widgets/meter/lv_meter.c ****     indic->type_data.needle_line.color = color;
 3238              		.loc 1 134 5 is_stmt 1 view .LVU1078
 134:lvgl/src/extra/widgets/meter/lv_meter.c ****     indic->type_data.needle_line.color = color;
 3239              		.loc 1 134 40 is_stmt 0 view .LVU1079
 3240 0026 A4F81080 		strh	r8, [r4, #16]	@ movhi
 135:lvgl/src/extra/widgets/meter/lv_meter.c ****     indic->type_data.needle_line.r_mod = r_mod;
 3241              		.loc 1 135 5 is_stmt 1 view .LVU1080
 3242              	.LVL339:
 135:lvgl/src/extra/widgets/meter/lv_meter.c ****     indic->type_data.needle_line.r_mod = r_mod;
 3243              		.loc 1 135 40 is_stmt 0 view .LVU1081
 3244 002a A682     		strh	r6, [r4, #20]	@ movhi
 136:lvgl/src/extra/widgets/meter/lv_meter.c ****     lv_obj_invalidate(obj);
 3245              		.loc 1 136 5 is_stmt 1 view .LVU1082
 136:lvgl/src/extra/widgets/meter/lv_meter.c ****     lv_obj_invalidate(obj);
 3246              		.loc 1 136 40 is_stmt 0 view .LVU1083
 3247 002c BDF91830 		ldrsh	r3, [sp, #24]
 3248 0030 6382     		strh	r3, [r4, #18]	@ movhi
 137:lvgl/src/extra/widgets/meter/lv_meter.c **** 
 3249              		.loc 1 137 5 is_stmt 1 view .LVU1084
 3250 0032 2846     		mov	r0, r5
 3251 0034 FFF7FEFF 		bl	lv_obj_invalidate
 3252              	.LVL340:
 139:lvgl/src/extra/widgets/meter/lv_meter.c **** }
 3253              		.loc 1 139 5 view .LVU1085
 140:lvgl/src/extra/widgets/meter/lv_meter.c **** 
 3254              		.loc 1 140 1 is_stmt 0 view .LVU1086
 3255 0038 2046     		mov	r0, r4
 3256 003a BDE8F081 		pop	{r4, r5, r6, r7, r8, pc}
 3257              	.LVL341:
 3258              	.L120:
 128:lvgl/src/extra/widgets/meter/lv_meter.c ****     lv_memset_00(indic, sizeof(lv_meter_indicator_t));
 3259              		.loc 1 128 5 is_stmt 1 discriminator 1 view .LVU1087
 128:lvgl/src/extra/widgets/meter/lv_meter.c ****     lv_memset_00(indic, sizeof(lv_meter_indicator_t));
 3260              		.loc 1 128 5 discriminator 1 view .LVU1088
 128:lvgl/src/extra/widgets/meter/lv_meter.c ****     lv_memset_00(indic, sizeof(lv_meter_indicator_t));
 3261              		.loc 1 128 5 discriminator 1 view .LVU1089
 128:lvgl/src/extra/widgets/meter/lv_meter.c ****     lv_memset_00(indic, sizeof(lv_meter_indicator_t));
 3262              		.loc 1 128 5 discriminator 1 view .LVU1090
 128:lvgl/src/extra/widgets/meter/lv_meter.c ****     lv_memset_00(indic, sizeof(lv_meter_indicator_t));
 3263              		.loc 1 128 5 discriminator 1 view .LVU1091
 3264 003e FEE7     		b	.L120
 3265              		.cfi_endproc
 3266              	.LFE201:
 3268              		.section	.text.lv_meter_add_needle_img,"ax",%progbits
 3269              		.align	1
ARM GAS  C:\usertemp\ccXAVGrP.s 			page 101


 3270              		.global	lv_meter_add_needle_img
 3271              		.syntax unified
 3272              		.thumb
 3273              		.thumb_func
 3275              	lv_meter_add_needle_img:
 3276              	.LVL342:
 3277              	.LFB202:
 144:lvgl/src/extra/widgets/meter/lv_meter.c ****     LV_ASSERT_OBJ(obj, MY_CLASS);
 3278              		.loc 1 144 1 view -0
 3279              		.cfi_startproc
 3280              		@ args = 4, pretend = 0, frame = 0
 3281              		@ frame_needed = 0, uses_anonymous_args = 0
 144:lvgl/src/extra/widgets/meter/lv_meter.c ****     LV_ASSERT_OBJ(obj, MY_CLASS);
 3282              		.loc 1 144 1 is_stmt 0 view .LVU1093
 3283 0000 2DE9F041 		push	{r4, r5, r6, r7, r8, lr}
 3284              	.LCFI29:
 3285              		.cfi_def_cfa_offset 24
 3286              		.cfi_offset 4, -24
 3287              		.cfi_offset 5, -20
 3288              		.cfi_offset 6, -16
 3289              		.cfi_offset 7, -12
 3290              		.cfi_offset 8, -8
 3291              		.cfi_offset 14, -4
 3292 0004 0546     		mov	r5, r0
 3293 0006 0F46     		mov	r7, r1
 3294 0008 9046     		mov	r8, r2
 3295 000a 1E46     		mov	r6, r3
 145:lvgl/src/extra/widgets/meter/lv_meter.c ****     lv_meter_t * meter = (lv_meter_t *)obj;
 3296              		.loc 1 145 5 is_stmt 1 view .LVU1094
 145:lvgl/src/extra/widgets/meter/lv_meter.c ****     lv_meter_t * meter = (lv_meter_t *)obj;
 3297              		.loc 1 145 5 view .LVU1095
 145:lvgl/src/extra/widgets/meter/lv_meter.c ****     lv_meter_t * meter = (lv_meter_t *)obj;
 3298              		.loc 1 145 5 view .LVU1096
 146:lvgl/src/extra/widgets/meter/lv_meter.c ****     lv_meter_indicator_t * indic = _lv_ll_ins_head(&meter->indicator_ll);
 3299              		.loc 1 146 5 view .LVU1097
 3300              	.LVL343:
 147:lvgl/src/extra/widgets/meter/lv_meter.c ****     LV_ASSERT_MALLOC(indic);
 3301              		.loc 1 147 5 view .LVU1098
 147:lvgl/src/extra/widgets/meter/lv_meter.c ****     LV_ASSERT_MALLOC(indic);
 3302              		.loc 1 147 36 is_stmt 0 view .LVU1099
 3303 000c 3030     		adds	r0, r0, #48
 3304              	.LVL344:
 147:lvgl/src/extra/widgets/meter/lv_meter.c ****     LV_ASSERT_MALLOC(indic);
 3305              		.loc 1 147 36 view .LVU1100
 3306 000e FFF7FEFF 		bl	_lv_ll_ins_head
 3307              	.LVL345:
 148:lvgl/src/extra/widgets/meter/lv_meter.c ****     lv_memset_00(indic, sizeof(lv_meter_indicator_t));
 3308              		.loc 1 148 5 is_stmt 1 view .LVU1101
 148:lvgl/src/extra/widgets/meter/lv_meter.c ****     lv_memset_00(indic, sizeof(lv_meter_indicator_t));
 3309              		.loc 1 148 5 view .LVU1102
 3310 0012 A0B1     		cbz	r0, .L124
 3311 0014 0446     		mov	r4, r0
 148:lvgl/src/extra/widgets/meter/lv_meter.c ****     lv_memset_00(indic, sizeof(lv_meter_indicator_t));
 3312              		.loc 1 148 5 discriminator 2 view .LVU1103
 148:lvgl/src/extra/widgets/meter/lv_meter.c ****     lv_memset_00(indic, sizeof(lv_meter_indicator_t));
 3313              		.loc 1 148 28 discriminator 2 view .LVU1104
 149:lvgl/src/extra/widgets/meter/lv_meter.c ****     indic->scale = scale;
ARM GAS  C:\usertemp\ccXAVGrP.s 			page 102


 3314              		.loc 1 149 5 view .LVU1105
 3315 0016 1C21     		movs	r1, #28
 3316 0018 FFF7FEFF 		bl	lv_memset_00
 3317              	.LVL346:
 150:lvgl/src/extra/widgets/meter/lv_meter.c ****     indic->opa = LV_OPA_COVER;
 3318              		.loc 1 150 5 view .LVU1106
 150:lvgl/src/extra/widgets/meter/lv_meter.c ****     indic->opa = LV_OPA_COVER;
 3319              		.loc 1 150 18 is_stmt 0 view .LVU1107
 3320 001c 2760     		str	r7, [r4]
 151:lvgl/src/extra/widgets/meter/lv_meter.c **** 
 3321              		.loc 1 151 5 is_stmt 1 view .LVU1108
 151:lvgl/src/extra/widgets/meter/lv_meter.c **** 
 3322              		.loc 1 151 16 is_stmt 0 view .LVU1109
 3323 001e FF23     		movs	r3, #255
 3324 0020 6371     		strb	r3, [r4, #5]
 153:lvgl/src/extra/widgets/meter/lv_meter.c ****     indic->type_data.needle_img.src = src;
 3325              		.loc 1 153 5 is_stmt 1 view .LVU1110
 153:lvgl/src/extra/widgets/meter/lv_meter.c ****     indic->type_data.needle_img.src = src;
 3326              		.loc 1 153 17 is_stmt 0 view .LVU1111
 3327 0022 0023     		movs	r3, #0
 3328 0024 2371     		strb	r3, [r4, #4]
 154:lvgl/src/extra/widgets/meter/lv_meter.c ****     indic->type_data.needle_img.pivot.x = pivot_x;
 3329              		.loc 1 154 5 is_stmt 1 view .LVU1112
 154:lvgl/src/extra/widgets/meter/lv_meter.c ****     indic->type_data.needle_img.pivot.x = pivot_x;
 3330              		.loc 1 154 37 is_stmt 0 view .LVU1113
 3331 0026 C4F81080 		str	r8, [r4, #16]
 155:lvgl/src/extra/widgets/meter/lv_meter.c ****     indic->type_data.needle_img.pivot.y = pivot_y;
 3332              		.loc 1 155 5 is_stmt 1 view .LVU1114
 155:lvgl/src/extra/widgets/meter/lv_meter.c ****     indic->type_data.needle_img.pivot.y = pivot_y;
 3333              		.loc 1 155 41 is_stmt 0 view .LVU1115
 3334 002a A682     		strh	r6, [r4, #20]	@ movhi
 156:lvgl/src/extra/widgets/meter/lv_meter.c ****     lv_obj_invalidate(obj);
 3335              		.loc 1 156 5 is_stmt 1 view .LVU1116
 156:lvgl/src/extra/widgets/meter/lv_meter.c ****     lv_obj_invalidate(obj);
 3336              		.loc 1 156 41 is_stmt 0 view .LVU1117
 3337 002c BDF91830 		ldrsh	r3, [sp, #24]
 3338 0030 E382     		strh	r3, [r4, #22]	@ movhi
 157:lvgl/src/extra/widgets/meter/lv_meter.c **** 
 3339              		.loc 1 157 5 is_stmt 1 view .LVU1118
 3340 0032 2846     		mov	r0, r5
 3341 0034 FFF7FEFF 		bl	lv_obj_invalidate
 3342              	.LVL347:
 159:lvgl/src/extra/widgets/meter/lv_meter.c **** }
 3343              		.loc 1 159 5 view .LVU1119
 160:lvgl/src/extra/widgets/meter/lv_meter.c **** 
 3344              		.loc 1 160 1 is_stmt 0 view .LVU1120
 3345 0038 2046     		mov	r0, r4
 3346 003a BDE8F081 		pop	{r4, r5, r6, r7, r8, pc}
 3347              	.LVL348:
 3348              	.L124:
 148:lvgl/src/extra/widgets/meter/lv_meter.c ****     lv_memset_00(indic, sizeof(lv_meter_indicator_t));
 3349              		.loc 1 148 5 is_stmt 1 discriminator 1 view .LVU1121
 148:lvgl/src/extra/widgets/meter/lv_meter.c ****     lv_memset_00(indic, sizeof(lv_meter_indicator_t));
 3350              		.loc 1 148 5 discriminator 1 view .LVU1122
 148:lvgl/src/extra/widgets/meter/lv_meter.c ****     lv_memset_00(indic, sizeof(lv_meter_indicator_t));
 3351              		.loc 1 148 5 discriminator 1 view .LVU1123
 148:lvgl/src/extra/widgets/meter/lv_meter.c ****     lv_memset_00(indic, sizeof(lv_meter_indicator_t));
ARM GAS  C:\usertemp\ccXAVGrP.s 			page 103


 3352              		.loc 1 148 5 discriminator 1 view .LVU1124
 148:lvgl/src/extra/widgets/meter/lv_meter.c ****     lv_memset_00(indic, sizeof(lv_meter_indicator_t));
 3353              		.loc 1 148 5 discriminator 1 view .LVU1125
 3354 003e FEE7     		b	.L124
 3355              		.cfi_endproc
 3356              	.LFE202:
 3358              		.section	.text.lv_meter_add_arc,"ax",%progbits
 3359              		.align	1
 3360              		.global	lv_meter_add_arc
 3361              		.syntax unified
 3362              		.thumb
 3363              		.thumb_func
 3365              	lv_meter_add_arc:
 3366              	.LVL349:
 3367              	.LFB203:
 164:lvgl/src/extra/widgets/meter/lv_meter.c ****     LV_ASSERT_OBJ(obj, MY_CLASS);
 3368              		.loc 1 164 1 view -0
 3369              		.cfi_startproc
 3370              		@ args = 4, pretend = 0, frame = 0
 3371              		@ frame_needed = 0, uses_anonymous_args = 0
 164:lvgl/src/extra/widgets/meter/lv_meter.c ****     LV_ASSERT_OBJ(obj, MY_CLASS);
 3372              		.loc 1 164 1 is_stmt 0 view .LVU1127
 3373 0000 2DE9F041 		push	{r4, r5, r6, r7, r8, lr}
 3374              	.LCFI30:
 3375              		.cfi_def_cfa_offset 24
 3376              		.cfi_offset 4, -24
 3377              		.cfi_offset 5, -20
 3378              		.cfi_offset 6, -16
 3379              		.cfi_offset 7, -12
 3380              		.cfi_offset 8, -8
 3381              		.cfi_offset 14, -4
 3382 0004 0546     		mov	r5, r0
 3383 0006 0F46     		mov	r7, r1
 3384 0008 9046     		mov	r8, r2
 3385 000a 1E46     		mov	r6, r3	@ movhi
 3386              	.LVL350:
 165:lvgl/src/extra/widgets/meter/lv_meter.c ****     lv_meter_t * meter = (lv_meter_t *)obj;
 3387              		.loc 1 165 5 is_stmt 1 view .LVU1128
 165:lvgl/src/extra/widgets/meter/lv_meter.c ****     lv_meter_t * meter = (lv_meter_t *)obj;
 3388              		.loc 1 165 5 view .LVU1129
 165:lvgl/src/extra/widgets/meter/lv_meter.c ****     lv_meter_t * meter = (lv_meter_t *)obj;
 3389              		.loc 1 165 5 view .LVU1130
 166:lvgl/src/extra/widgets/meter/lv_meter.c ****     lv_meter_indicator_t * indic = _lv_ll_ins_head(&meter->indicator_ll);
 3390              		.loc 1 166 5 view .LVU1131
 167:lvgl/src/extra/widgets/meter/lv_meter.c ****     LV_ASSERT_MALLOC(indic);
 3391              		.loc 1 167 5 view .LVU1132
 167:lvgl/src/extra/widgets/meter/lv_meter.c ****     LV_ASSERT_MALLOC(indic);
 3392              		.loc 1 167 36 is_stmt 0 view .LVU1133
 3393 000c 3030     		adds	r0, r0, #48
 3394              	.LVL351:
 167:lvgl/src/extra/widgets/meter/lv_meter.c ****     LV_ASSERT_MALLOC(indic);
 3395              		.loc 1 167 36 view .LVU1134
 3396 000e FFF7FEFF 		bl	_lv_ll_ins_head
 3397              	.LVL352:
 168:lvgl/src/extra/widgets/meter/lv_meter.c ****     lv_memset_00(indic, sizeof(lv_meter_indicator_t));
 3398              		.loc 1 168 5 is_stmt 1 view .LVU1135
 168:lvgl/src/extra/widgets/meter/lv_meter.c ****     lv_memset_00(indic, sizeof(lv_meter_indicator_t));
ARM GAS  C:\usertemp\ccXAVGrP.s 			page 104


 3399              		.loc 1 168 5 view .LVU1136
 3400 0012 A0B1     		cbz	r0, .L128
 3401 0014 0446     		mov	r4, r0
 168:lvgl/src/extra/widgets/meter/lv_meter.c ****     lv_memset_00(indic, sizeof(lv_meter_indicator_t));
 3402              		.loc 1 168 5 discriminator 2 view .LVU1137
 168:lvgl/src/extra/widgets/meter/lv_meter.c ****     lv_memset_00(indic, sizeof(lv_meter_indicator_t));
 3403              		.loc 1 168 28 discriminator 2 view .LVU1138
 169:lvgl/src/extra/widgets/meter/lv_meter.c ****     indic->scale = scale;
 3404              		.loc 1 169 5 view .LVU1139
 3405 0016 1C21     		movs	r1, #28
 3406 0018 FFF7FEFF 		bl	lv_memset_00
 3407              	.LVL353:
 170:lvgl/src/extra/widgets/meter/lv_meter.c ****     indic->opa = LV_OPA_COVER;
 3408              		.loc 1 170 5 view .LVU1140
 170:lvgl/src/extra/widgets/meter/lv_meter.c ****     indic->opa = LV_OPA_COVER;
 3409              		.loc 1 170 18 is_stmt 0 view .LVU1141
 3410 001c 2760     		str	r7, [r4]
 171:lvgl/src/extra/widgets/meter/lv_meter.c **** 
 3411              		.loc 1 171 5 is_stmt 1 view .LVU1142
 171:lvgl/src/extra/widgets/meter/lv_meter.c **** 
 3412              		.loc 1 171 16 is_stmt 0 view .LVU1143
 3413 001e FF23     		movs	r3, #255
 3414 0020 6371     		strb	r3, [r4, #5]
 173:lvgl/src/extra/widgets/meter/lv_meter.c ****     indic->type_data.arc.width = width;
 3415              		.loc 1 173 5 is_stmt 1 view .LVU1144
 173:lvgl/src/extra/widgets/meter/lv_meter.c ****     indic->type_data.arc.width = width;
 3416              		.loc 1 173 17 is_stmt 0 view .LVU1145
 3417 0022 0323     		movs	r3, #3
 3418 0024 2371     		strb	r3, [r4, #4]
 174:lvgl/src/extra/widgets/meter/lv_meter.c ****     indic->type_data.arc.color = color;
 3419              		.loc 1 174 5 is_stmt 1 view .LVU1146
 174:lvgl/src/extra/widgets/meter/lv_meter.c ****     indic->type_data.arc.color = color;
 3420              		.loc 1 174 32 is_stmt 0 view .LVU1147
 3421 0026 A4F81080 		strh	r8, [r4, #16]	@ movhi
 175:lvgl/src/extra/widgets/meter/lv_meter.c ****     indic->type_data.arc.r_mod = r_mod;
 3422              		.loc 1 175 5 is_stmt 1 view .LVU1148
 3423              	.LVL354:
 175:lvgl/src/extra/widgets/meter/lv_meter.c ****     indic->type_data.arc.r_mod = r_mod;
 3424              		.loc 1 175 32 is_stmt 0 view .LVU1149
 3425 002a 2683     		strh	r6, [r4, #24]	@ movhi
 176:lvgl/src/extra/widgets/meter/lv_meter.c **** 
 3426              		.loc 1 176 5 is_stmt 1 view .LVU1150
 176:lvgl/src/extra/widgets/meter/lv_meter.c **** 
 3427              		.loc 1 176 32 is_stmt 0 view .LVU1151
 3428 002c BDF91830 		ldrsh	r3, [sp, #24]
 3429 0030 6383     		strh	r3, [r4, #26]	@ movhi
 178:lvgl/src/extra/widgets/meter/lv_meter.c ****     return indic;
 3430              		.loc 1 178 5 is_stmt 1 view .LVU1152
 3431 0032 2846     		mov	r0, r5
 3432 0034 FFF7FEFF 		bl	lv_obj_invalidate
 3433              	.LVL355:
 179:lvgl/src/extra/widgets/meter/lv_meter.c **** }
 3434              		.loc 1 179 5 view .LVU1153
 180:lvgl/src/extra/widgets/meter/lv_meter.c **** 
 3435              		.loc 1 180 1 is_stmt 0 view .LVU1154
 3436 0038 2046     		mov	r0, r4
 3437 003a BDE8F081 		pop	{r4, r5, r6, r7, r8, pc}
ARM GAS  C:\usertemp\ccXAVGrP.s 			page 105


 3438              	.LVL356:
 3439              	.L128:
 168:lvgl/src/extra/widgets/meter/lv_meter.c ****     lv_memset_00(indic, sizeof(lv_meter_indicator_t));
 3440              		.loc 1 168 5 is_stmt 1 discriminator 1 view .LVU1155
 168:lvgl/src/extra/widgets/meter/lv_meter.c ****     lv_memset_00(indic, sizeof(lv_meter_indicator_t));
 3441              		.loc 1 168 5 discriminator 1 view .LVU1156
 168:lvgl/src/extra/widgets/meter/lv_meter.c ****     lv_memset_00(indic, sizeof(lv_meter_indicator_t));
 3442              		.loc 1 168 5 discriminator 1 view .LVU1157
 168:lvgl/src/extra/widgets/meter/lv_meter.c ****     lv_memset_00(indic, sizeof(lv_meter_indicator_t));
 3443              		.loc 1 168 5 discriminator 1 view .LVU1158
 168:lvgl/src/extra/widgets/meter/lv_meter.c ****     lv_memset_00(indic, sizeof(lv_meter_indicator_t));
 3444              		.loc 1 168 5 discriminator 1 view .LVU1159
 3445 003e FEE7     		b	.L128
 3446              		.cfi_endproc
 3447              	.LFE203:
 3449              		.section	.text.lv_meter_add_scale_lines,"ax",%progbits
 3450              		.align	1
 3451              		.global	lv_meter_add_scale_lines
 3452              		.syntax unified
 3453              		.thumb
 3454              		.thumb_func
 3456              	lv_meter_add_scale_lines:
 3457              	.LVL357:
 3458              	.LFB204:
 184:lvgl/src/extra/widgets/meter/lv_meter.c ****     LV_ASSERT_OBJ(obj, MY_CLASS);
 3459              		.loc 1 184 1 view -0
 3460              		.cfi_startproc
 3461              		@ args = 8, pretend = 0, frame = 0
 3462              		@ frame_needed = 0, uses_anonymous_args = 0
 184:lvgl/src/extra/widgets/meter/lv_meter.c ****     LV_ASSERT_OBJ(obj, MY_CLASS);
 3463              		.loc 1 184 1 is_stmt 0 view .LVU1161
 3464 0000 2DE9F041 		push	{r4, r5, r6, r7, r8, lr}
 3465              	.LCFI31:
 3466              		.cfi_def_cfa_offset 24
 3467              		.cfi_offset 4, -24
 3468              		.cfi_offset 5, -20
 3469              		.cfi_offset 6, -16
 3470              		.cfi_offset 7, -12
 3471              		.cfi_offset 8, -8
 3472              		.cfi_offset 14, -4
 3473 0004 0546     		mov	r5, r0
 3474 0006 0F46     		mov	r7, r1
 3475 0008 9046     		mov	r8, r2	@ movhi
 3476              	.LVL358:
 184:lvgl/src/extra/widgets/meter/lv_meter.c ****     LV_ASSERT_OBJ(obj, MY_CLASS);
 3477              		.loc 1 184 1 view .LVU1162
 3478 000a 1E46     		mov	r6, r3	@ movhi
 3479              	.LVL359:
 185:lvgl/src/extra/widgets/meter/lv_meter.c ****     lv_meter_t * meter = (lv_meter_t *)obj;
 3480              		.loc 1 185 5 is_stmt 1 view .LVU1163
 185:lvgl/src/extra/widgets/meter/lv_meter.c ****     lv_meter_t * meter = (lv_meter_t *)obj;
 3481              		.loc 1 185 5 view .LVU1164
 185:lvgl/src/extra/widgets/meter/lv_meter.c ****     lv_meter_t * meter = (lv_meter_t *)obj;
 3482              		.loc 1 185 5 view .LVU1165
 186:lvgl/src/extra/widgets/meter/lv_meter.c ****     lv_meter_indicator_t * indic = _lv_ll_ins_head(&meter->indicator_ll);
 3483              		.loc 1 186 5 view .LVU1166
 187:lvgl/src/extra/widgets/meter/lv_meter.c ****     LV_ASSERT_MALLOC(indic);
ARM GAS  C:\usertemp\ccXAVGrP.s 			page 106


 3484              		.loc 1 187 5 view .LVU1167
 187:lvgl/src/extra/widgets/meter/lv_meter.c ****     LV_ASSERT_MALLOC(indic);
 3485              		.loc 1 187 36 is_stmt 0 view .LVU1168
 3486 000c 3030     		adds	r0, r0, #48
 3487              	.LVL360:
 187:lvgl/src/extra/widgets/meter/lv_meter.c ****     LV_ASSERT_MALLOC(indic);
 3488              		.loc 1 187 36 view .LVU1169
 3489 000e FFF7FEFF 		bl	_lv_ll_ins_head
 3490              	.LVL361:
 188:lvgl/src/extra/widgets/meter/lv_meter.c ****     lv_memset_00(indic, sizeof(lv_meter_indicator_t));
 3491              		.loc 1 188 5 is_stmt 1 view .LVU1170
 188:lvgl/src/extra/widgets/meter/lv_meter.c ****     lv_memset_00(indic, sizeof(lv_meter_indicator_t));
 3492              		.loc 1 188 5 view .LVU1171
 3493 0012 D0B1     		cbz	r0, .L132
 3494 0014 0446     		mov	r4, r0
 188:lvgl/src/extra/widgets/meter/lv_meter.c ****     lv_memset_00(indic, sizeof(lv_meter_indicator_t));
 3495              		.loc 1 188 5 discriminator 2 view .LVU1172
 188:lvgl/src/extra/widgets/meter/lv_meter.c ****     lv_memset_00(indic, sizeof(lv_meter_indicator_t));
 3496              		.loc 1 188 28 discriminator 2 view .LVU1173
 189:lvgl/src/extra/widgets/meter/lv_meter.c ****     indic->scale = scale;
 3497              		.loc 1 189 5 view .LVU1174
 3498 0016 1C21     		movs	r1, #28
 3499 0018 FFF7FEFF 		bl	lv_memset_00
 3500              	.LVL362:
 190:lvgl/src/extra/widgets/meter/lv_meter.c ****     indic->opa = LV_OPA_COVER;
 3501              		.loc 1 190 5 view .LVU1175
 190:lvgl/src/extra/widgets/meter/lv_meter.c ****     indic->opa = LV_OPA_COVER;
 3502              		.loc 1 190 18 is_stmt 0 view .LVU1176
 3503 001c 2760     		str	r7, [r4]
 191:lvgl/src/extra/widgets/meter/lv_meter.c **** 
 3504              		.loc 1 191 5 is_stmt 1 view .LVU1177
 191:lvgl/src/extra/widgets/meter/lv_meter.c **** 
 3505              		.loc 1 191 16 is_stmt 0 view .LVU1178
 3506 001e FF23     		movs	r3, #255
 3507 0020 6371     		strb	r3, [r4, #5]
 193:lvgl/src/extra/widgets/meter/lv_meter.c ****     indic->type_data.scale_lines.color_start = color_start;
 3508              		.loc 1 193 5 is_stmt 1 view .LVU1179
 193:lvgl/src/extra/widgets/meter/lv_meter.c ****     indic->type_data.scale_lines.color_start = color_start;
 3509              		.loc 1 193 17 is_stmt 0 view .LVU1180
 3510 0022 0223     		movs	r3, #2
 3511 0024 2371     		strb	r3, [r4, #4]
 194:lvgl/src/extra/widgets/meter/lv_meter.c ****     indic->type_data.scale_lines.color_end = color_end;
 3512              		.loc 1 194 5 is_stmt 1 view .LVU1181
 3513              	.LVL363:
 194:lvgl/src/extra/widgets/meter/lv_meter.c ****     indic->type_data.scale_lines.color_end = color_end;
 3514              		.loc 1 194 46 is_stmt 0 view .LVU1182
 3515 0026 A4F81280 		strh	r8, [r4, #18]	@ movhi
 195:lvgl/src/extra/widgets/meter/lv_meter.c ****     indic->type_data.scale_lines.local_grad = local;
 3516              		.loc 1 195 5 is_stmt 1 view .LVU1183
 3517              	.LVL364:
 195:lvgl/src/extra/widgets/meter/lv_meter.c ****     indic->type_data.scale_lines.local_grad = local;
 3518              		.loc 1 195 44 is_stmt 0 view .LVU1184
 3519 002a A682     		strh	r6, [r4, #20]	@ movhi
 196:lvgl/src/extra/widgets/meter/lv_meter.c ****     indic->type_data.scale_lines.width_mod = width_mod;
 3520              		.loc 1 196 5 is_stmt 1 view .LVU1185
 196:lvgl/src/extra/widgets/meter/lv_meter.c ****     indic->type_data.scale_lines.width_mod = width_mod;
 3521              		.loc 1 196 45 is_stmt 0 view .LVU1186
ARM GAS  C:\usertemp\ccXAVGrP.s 			page 107


 3522 002c A37D     		ldrb	r3, [r4, #22]	@ zero_extendqisi2
 3523 002e 9DF81820 		ldrb	r2, [sp, #24]	@ zero_extendqisi2
 3524 0032 62F30003 		bfi	r3, r2, #0, #1
 3525 0036 A375     		strb	r3, [r4, #22]
 197:lvgl/src/extra/widgets/meter/lv_meter.c **** 
 3526              		.loc 1 197 5 is_stmt 1 view .LVU1187
 197:lvgl/src/extra/widgets/meter/lv_meter.c **** 
 3527              		.loc 1 197 44 is_stmt 0 view .LVU1188
 3528 0038 BDF91C30 		ldrsh	r3, [sp, #28]
 3529 003c 2382     		strh	r3, [r4, #16]	@ movhi
 199:lvgl/src/extra/widgets/meter/lv_meter.c ****     return indic;
 3530              		.loc 1 199 5 is_stmt 1 view .LVU1189
 3531 003e 2846     		mov	r0, r5
 3532 0040 FFF7FEFF 		bl	lv_obj_invalidate
 3533              	.LVL365:
 200:lvgl/src/extra/widgets/meter/lv_meter.c **** }
 3534              		.loc 1 200 5 view .LVU1190
 201:lvgl/src/extra/widgets/meter/lv_meter.c **** 
 3535              		.loc 1 201 1 is_stmt 0 view .LVU1191
 3536 0044 2046     		mov	r0, r4
 3537 0046 BDE8F081 		pop	{r4, r5, r6, r7, r8, pc}
 3538              	.LVL366:
 3539              	.L132:
 188:lvgl/src/extra/widgets/meter/lv_meter.c ****     lv_memset_00(indic, sizeof(lv_meter_indicator_t));
 3540              		.loc 1 188 5 is_stmt 1 discriminator 1 view .LVU1192
 188:lvgl/src/extra/widgets/meter/lv_meter.c ****     lv_memset_00(indic, sizeof(lv_meter_indicator_t));
 3541              		.loc 1 188 5 discriminator 1 view .LVU1193
 188:lvgl/src/extra/widgets/meter/lv_meter.c ****     lv_memset_00(indic, sizeof(lv_meter_indicator_t));
 3542              		.loc 1 188 5 discriminator 1 view .LVU1194
 188:lvgl/src/extra/widgets/meter/lv_meter.c ****     lv_memset_00(indic, sizeof(lv_meter_indicator_t));
 3543              		.loc 1 188 5 discriminator 1 view .LVU1195
 188:lvgl/src/extra/widgets/meter/lv_meter.c ****     lv_memset_00(indic, sizeof(lv_meter_indicator_t));
 3544              		.loc 1 188 5 discriminator 1 view .LVU1196
 3545 004a FEE7     		b	.L132
 3546              		.cfi_endproc
 3547              	.LFE204:
 3549              		.section	.text.lv_meter_set_indicator_value,"ax",%progbits
 3550              		.align	1
 3551              		.global	lv_meter_set_indicator_value
 3552              		.syntax unified
 3553              		.thumb
 3554              		.thumb_func
 3556              	lv_meter_set_indicator_value:
 3557              	.LVL367:
 3558              	.LFB205:
 208:lvgl/src/extra/widgets/meter/lv_meter.c ****     int32_t old_start = indic->start_value;
 3559              		.loc 1 208 1 view -0
 3560              		.cfi_startproc
 3561              		@ args = 0, pretend = 0, frame = 0
 3562              		@ frame_needed = 0, uses_anonymous_args = 0
 208:lvgl/src/extra/widgets/meter/lv_meter.c ****     int32_t old_start = indic->start_value;
 3563              		.loc 1 208 1 is_stmt 0 view .LVU1198
 3564 0000 F8B5     		push	{r3, r4, r5, r6, r7, lr}
 3565              	.LCFI32:
 3566              		.cfi_def_cfa_offset 24
 3567              		.cfi_offset 3, -24
 3568              		.cfi_offset 4, -20
ARM GAS  C:\usertemp\ccXAVGrP.s 			page 108


 3569              		.cfi_offset 5, -16
 3570              		.cfi_offset 6, -12
 3571              		.cfi_offset 7, -8
 3572              		.cfi_offset 14, -4
 3573 0002 0646     		mov	r6, r0
 3574 0004 0C46     		mov	r4, r1
 3575 0006 1546     		mov	r5, r2
 209:lvgl/src/extra/widgets/meter/lv_meter.c ****     int32_t old_end = indic->end_value;
 3576              		.loc 1 209 5 is_stmt 1 view .LVU1199
 209:lvgl/src/extra/widgets/meter/lv_meter.c ****     int32_t old_end = indic->end_value;
 3577              		.loc 1 209 13 is_stmt 0 view .LVU1200
 3578 0008 8A68     		ldr	r2, [r1, #8]
 3579              	.LVL368:
 210:lvgl/src/extra/widgets/meter/lv_meter.c ****     indic->start_value = value;
 3580              		.loc 1 210 5 is_stmt 1 view .LVU1201
 210:lvgl/src/extra/widgets/meter/lv_meter.c ****     indic->start_value = value;
 3581              		.loc 1 210 13 is_stmt 0 view .LVU1202
 3582 000a CF68     		ldr	r7, [r1, #12]
 3583              	.LVL369:
 211:lvgl/src/extra/widgets/meter/lv_meter.c ****     indic->end_value = value;
 3584              		.loc 1 211 5 is_stmt 1 view .LVU1203
 211:lvgl/src/extra/widgets/meter/lv_meter.c ****     indic->end_value = value;
 3585              		.loc 1 211 24 is_stmt 0 view .LVU1204
 3586 000c 8D60     		str	r5, [r1, #8]
 212:lvgl/src/extra/widgets/meter/lv_meter.c **** 
 3587              		.loc 1 212 5 is_stmt 1 view .LVU1205
 212:lvgl/src/extra/widgets/meter/lv_meter.c **** 
 3588              		.loc 1 212 22 is_stmt 0 view .LVU1206
 3589 000e CD60     		str	r5, [r1, #12]
 214:lvgl/src/extra/widgets/meter/lv_meter.c ****         inv_arc(obj, indic, old_start, value);
 3590              		.loc 1 214 5 is_stmt 1 view .LVU1207
 214:lvgl/src/extra/widgets/meter/lv_meter.c ****         inv_arc(obj, indic, old_start, value);
 3591              		.loc 1 214 13 is_stmt 0 view .LVU1208
 3592 0010 0B79     		ldrb	r3, [r1, #4]	@ zero_extendqisi2
 214:lvgl/src/extra/widgets/meter/lv_meter.c ****         inv_arc(obj, indic, old_start, value);
 3593              		.loc 1 214 7 view .LVU1209
 3594 0012 032B     		cmp	r3, #3
 3595 0014 04D0     		beq	.L139
 218:lvgl/src/extra/widgets/meter/lv_meter.c ****         inv_line(obj, indic, old_start);
 3596              		.loc 1 218 10 is_stmt 1 view .LVU1210
 218:lvgl/src/extra/widgets/meter/lv_meter.c ****         inv_line(obj, indic, old_start);
 3597              		.loc 1 218 12 is_stmt 0 view .LVU1211
 3598 0016 012B     		cmp	r3, #1
 3599 0018 0CD9     		bls	.L140
 224:lvgl/src/extra/widgets/meter/lv_meter.c ****     }
 3600              		.loc 1 224 9 is_stmt 1 view .LVU1212
 3601 001a FFF7FEFF 		bl	lv_obj_invalidate
 3602              	.LVL370:
 3603              	.L134:
 226:lvgl/src/extra/widgets/meter/lv_meter.c **** 
 3604              		.loc 1 226 1 is_stmt 0 view .LVU1213
 3605 001e F8BD     		pop	{r3, r4, r5, r6, r7, pc}
 3606              	.LVL371:
 3607              	.L139:
 215:lvgl/src/extra/widgets/meter/lv_meter.c ****         inv_arc(obj, indic, old_end, value);
 3608              		.loc 1 215 9 is_stmt 1 view .LVU1214
 3609 0020 2B46     		mov	r3, r5
ARM GAS  C:\usertemp\ccXAVGrP.s 			page 109


 3610 0022 FFF7FEFF 		bl	inv_arc
 3611              	.LVL372:
 216:lvgl/src/extra/widgets/meter/lv_meter.c ****     }
 3612              		.loc 1 216 9 view .LVU1215
 3613 0026 2B46     		mov	r3, r5
 3614 0028 3A46     		mov	r2, r7
 3615 002a 2146     		mov	r1, r4
 3616 002c 3046     		mov	r0, r6
 3617 002e FFF7FEFF 		bl	inv_arc
 3618              	.LVL373:
 3619 0032 F4E7     		b	.L134
 3620              	.LVL374:
 3621              	.L140:
 219:lvgl/src/extra/widgets/meter/lv_meter.c ****         inv_line(obj, indic, old_end);
 3622              		.loc 1 219 9 view .LVU1216
 3623 0034 FFF7FEFF 		bl	inv_line
 3624              	.LVL375:
 220:lvgl/src/extra/widgets/meter/lv_meter.c ****         inv_line(obj, indic, value);
 3625              		.loc 1 220 9 view .LVU1217
 3626 0038 3A46     		mov	r2, r7
 3627 003a 2146     		mov	r1, r4
 3628 003c 3046     		mov	r0, r6
 3629 003e FFF7FEFF 		bl	inv_line
 3630              	.LVL376:
 221:lvgl/src/extra/widgets/meter/lv_meter.c ****     }
 3631              		.loc 1 221 9 view .LVU1218
 3632 0042 2A46     		mov	r2, r5
 3633 0044 2146     		mov	r1, r4
 3634 0046 3046     		mov	r0, r6
 3635 0048 FFF7FEFF 		bl	inv_line
 3636              	.LVL377:
 3637 004c E7E7     		b	.L134
 3638              		.cfi_endproc
 3639              	.LFE205:
 3641              		.section	.text.lv_meter_set_indicator_start_value,"ax",%progbits
 3642              		.align	1
 3643              		.global	lv_meter_set_indicator_start_value
 3644              		.syntax unified
 3645              		.thumb
 3646              		.thumb_func
 3648              	lv_meter_set_indicator_start_value:
 3649              	.LVL378:
 3650              	.LFB206:
 229:lvgl/src/extra/widgets/meter/lv_meter.c ****     int32_t old_value = indic->start_value;
 3651              		.loc 1 229 1 view -0
 3652              		.cfi_startproc
 3653              		@ args = 0, pretend = 0, frame = 0
 3654              		@ frame_needed = 0, uses_anonymous_args = 0
 229:lvgl/src/extra/widgets/meter/lv_meter.c ****     int32_t old_value = indic->start_value;
 3655              		.loc 1 229 1 is_stmt 0 view .LVU1220
 3656 0000 70B5     		push	{r4, r5, r6, lr}
 3657              	.LCFI33:
 3658              		.cfi_def_cfa_offset 16
 3659              		.cfi_offset 4, -16
 3660              		.cfi_offset 5, -12
 3661              		.cfi_offset 6, -8
 3662              		.cfi_offset 14, -4
ARM GAS  C:\usertemp\ccXAVGrP.s 			page 110


 3663 0002 0646     		mov	r6, r0
 3664 0004 0C46     		mov	r4, r1
 3665 0006 1546     		mov	r5, r2
 230:lvgl/src/extra/widgets/meter/lv_meter.c ****     indic->start_value = value;
 3666              		.loc 1 230 5 is_stmt 1 view .LVU1221
 230:lvgl/src/extra/widgets/meter/lv_meter.c ****     indic->start_value = value;
 3667              		.loc 1 230 13 is_stmt 0 view .LVU1222
 3668 0008 8A68     		ldr	r2, [r1, #8]
 3669              	.LVL379:
 231:lvgl/src/extra/widgets/meter/lv_meter.c **** 
 3670              		.loc 1 231 5 is_stmt 1 view .LVU1223
 231:lvgl/src/extra/widgets/meter/lv_meter.c **** 
 3671              		.loc 1 231 24 is_stmt 0 view .LVU1224
 3672 000a 8D60     		str	r5, [r1, #8]
 233:lvgl/src/extra/widgets/meter/lv_meter.c ****         inv_arc(obj, indic, old_value, value);
 3673              		.loc 1 233 5 is_stmt 1 view .LVU1225
 233:lvgl/src/extra/widgets/meter/lv_meter.c ****         inv_arc(obj, indic, old_value, value);
 3674              		.loc 1 233 13 is_stmt 0 view .LVU1226
 3675 000c 0B79     		ldrb	r3, [r1, #4]	@ zero_extendqisi2
 233:lvgl/src/extra/widgets/meter/lv_meter.c ****         inv_arc(obj, indic, old_value, value);
 3676              		.loc 1 233 7 view .LVU1227
 3677 000e 032B     		cmp	r3, #3
 3678 0010 04D0     		beq	.L146
 236:lvgl/src/extra/widgets/meter/lv_meter.c ****         inv_line(obj, indic, old_value);
 3679              		.loc 1 236 10 is_stmt 1 view .LVU1228
 236:lvgl/src/extra/widgets/meter/lv_meter.c ****         inv_line(obj, indic, old_value);
 3680              		.loc 1 236 12 is_stmt 0 view .LVU1229
 3681 0012 012B     		cmp	r3, #1
 3682 0014 06D9     		bls	.L147
 241:lvgl/src/extra/widgets/meter/lv_meter.c ****     }
 3683              		.loc 1 241 9 is_stmt 1 view .LVU1230
 3684 0016 FFF7FEFF 		bl	lv_obj_invalidate
 3685              	.LVL380:
 3686              	.L141:
 243:lvgl/src/extra/widgets/meter/lv_meter.c **** 
 3687              		.loc 1 243 1 is_stmt 0 view .LVU1231
 3688 001a 70BD     		pop	{r4, r5, r6, pc}
 3689              	.LVL381:
 3690              	.L146:
 234:lvgl/src/extra/widgets/meter/lv_meter.c ****     }
 3691              		.loc 1 234 9 is_stmt 1 view .LVU1232
 3692 001c 2B46     		mov	r3, r5
 3693 001e FFF7FEFF 		bl	inv_arc
 3694              	.LVL382:
 234:lvgl/src/extra/widgets/meter/lv_meter.c ****     }
 3695              		.loc 1 234 9 is_stmt 0 view .LVU1233
 3696 0022 FAE7     		b	.L141
 3697              	.LVL383:
 3698              	.L147:
 237:lvgl/src/extra/widgets/meter/lv_meter.c ****         inv_line(obj, indic, value);
 3699              		.loc 1 237 9 is_stmt 1 view .LVU1234
 3700 0024 FFF7FEFF 		bl	inv_line
 3701              	.LVL384:
 238:lvgl/src/extra/widgets/meter/lv_meter.c ****     }
 3702              		.loc 1 238 9 view .LVU1235
 3703 0028 2A46     		mov	r2, r5
 3704 002a 2146     		mov	r1, r4
ARM GAS  C:\usertemp\ccXAVGrP.s 			page 111


 3705 002c 3046     		mov	r0, r6
 3706 002e FFF7FEFF 		bl	inv_line
 3707              	.LVL385:
 3708 0032 F2E7     		b	.L141
 3709              		.cfi_endproc
 3710              	.LFE206:
 3712              		.section	.text.lv_meter_set_indicator_end_value,"ax",%progbits
 3713              		.align	1
 3714              		.global	lv_meter_set_indicator_end_value
 3715              		.syntax unified
 3716              		.thumb
 3717              		.thumb_func
 3719              	lv_meter_set_indicator_end_value:
 3720              	.LVL386:
 3721              	.LFB207:
 246:lvgl/src/extra/widgets/meter/lv_meter.c ****     int32_t old_value = indic->end_value;
 3722              		.loc 1 246 1 view -0
 3723              		.cfi_startproc
 3724              		@ args = 0, pretend = 0, frame = 0
 3725              		@ frame_needed = 0, uses_anonymous_args = 0
 246:lvgl/src/extra/widgets/meter/lv_meter.c ****     int32_t old_value = indic->end_value;
 3726              		.loc 1 246 1 is_stmt 0 view .LVU1237
 3727 0000 70B5     		push	{r4, r5, r6, lr}
 3728              	.LCFI34:
 3729              		.cfi_def_cfa_offset 16
 3730              		.cfi_offset 4, -16
 3731              		.cfi_offset 5, -12
 3732              		.cfi_offset 6, -8
 3733              		.cfi_offset 14, -4
 3734 0002 0646     		mov	r6, r0
 3735 0004 0C46     		mov	r4, r1
 3736 0006 1546     		mov	r5, r2
 247:lvgl/src/extra/widgets/meter/lv_meter.c ****     indic->end_value = value;
 3737              		.loc 1 247 5 is_stmt 1 view .LVU1238
 247:lvgl/src/extra/widgets/meter/lv_meter.c ****     indic->end_value = value;
 3738              		.loc 1 247 13 is_stmt 0 view .LVU1239
 3739 0008 CA68     		ldr	r2, [r1, #12]
 3740              	.LVL387:
 248:lvgl/src/extra/widgets/meter/lv_meter.c **** 
 3741              		.loc 1 248 5 is_stmt 1 view .LVU1240
 248:lvgl/src/extra/widgets/meter/lv_meter.c **** 
 3742              		.loc 1 248 22 is_stmt 0 view .LVU1241
 3743 000a CD60     		str	r5, [r1, #12]
 250:lvgl/src/extra/widgets/meter/lv_meter.c ****         inv_arc(obj, indic, old_value, value);
 3744              		.loc 1 250 5 is_stmt 1 view .LVU1242
 250:lvgl/src/extra/widgets/meter/lv_meter.c ****         inv_arc(obj, indic, old_value, value);
 3745              		.loc 1 250 13 is_stmt 0 view .LVU1243
 3746 000c 0B79     		ldrb	r3, [r1, #4]	@ zero_extendqisi2
 250:lvgl/src/extra/widgets/meter/lv_meter.c ****         inv_arc(obj, indic, old_value, value);
 3747              		.loc 1 250 7 view .LVU1244
 3748 000e 032B     		cmp	r3, #3
 3749 0010 04D0     		beq	.L153
 253:lvgl/src/extra/widgets/meter/lv_meter.c ****         inv_line(obj, indic, old_value);
 3750              		.loc 1 253 10 is_stmt 1 view .LVU1245
 253:lvgl/src/extra/widgets/meter/lv_meter.c ****         inv_line(obj, indic, old_value);
 3751              		.loc 1 253 12 is_stmt 0 view .LVU1246
 3752 0012 012B     		cmp	r3, #1
ARM GAS  C:\usertemp\ccXAVGrP.s 			page 112


 3753 0014 06D9     		bls	.L154
 258:lvgl/src/extra/widgets/meter/lv_meter.c ****     }
 3754              		.loc 1 258 9 is_stmt 1 view .LVU1247
 3755 0016 FFF7FEFF 		bl	lv_obj_invalidate
 3756              	.LVL388:
 3757              	.L148:
 260:lvgl/src/extra/widgets/meter/lv_meter.c **** 
 3758              		.loc 1 260 1 is_stmt 0 view .LVU1248
 3759 001a 70BD     		pop	{r4, r5, r6, pc}
 3760              	.LVL389:
 3761              	.L153:
 251:lvgl/src/extra/widgets/meter/lv_meter.c ****     }
 3762              		.loc 1 251 9 is_stmt 1 view .LVU1249
 3763 001c 2B46     		mov	r3, r5
 3764 001e FFF7FEFF 		bl	inv_arc
 3765              	.LVL390:
 251:lvgl/src/extra/widgets/meter/lv_meter.c ****     }
 3766              		.loc 1 251 9 is_stmt 0 view .LVU1250
 3767 0022 FAE7     		b	.L148
 3768              	.LVL391:
 3769              	.L154:
 254:lvgl/src/extra/widgets/meter/lv_meter.c ****         inv_line(obj, indic, value);
 3770              		.loc 1 254 9 is_stmt 1 view .LVU1251
 3771 0024 FFF7FEFF 		bl	inv_line
 3772              	.LVL392:
 255:lvgl/src/extra/widgets/meter/lv_meter.c ****     }
 3773              		.loc 1 255 9 view .LVU1252
 3774 0028 2A46     		mov	r2, r5
 3775 002a 2146     		mov	r1, r4
 3776 002c 3046     		mov	r0, r6
 3777 002e FFF7FEFF 		bl	inv_line
 3778              	.LVL393:
 3779 0032 F2E7     		b	.L148
 3780              		.cfi_endproc
 3781              	.LFE207:
 3783              		.global	lv_meter_class
 3784              		.section	.rodata.lv_meter_class,"a"
 3785              		.align	2
 3788              	lv_meter_class:
 3789 0000 00000000 		.word	lv_obj_class
 3790 0004 00000000 		.word	lv_meter_constructor
 3791 0008 00000000 		.word	lv_meter_destructor
 3792 000c 00000000 		.space	4
 3793 0010 00000000 		.word	lv_meter_event
 3794 0014 00000000 		.space	4
 3795 0018 C0       		.byte	192
 3796 0019 03       		.byte	3
 3797 001a 00       		.byte	0
 3798 001b 00       		.space	1
 3799              		.text
 3800              	.Letext0:
 3801              		.file 6 "D:/armtoolchain/arm-gnu-toolchain-13.3.rel1-mingw-w64-i686-arm-none-eabi/arm-none-eabi/in
 3802              		.file 7 "D:/armtoolchain/arm-gnu-toolchain-13.3.rel1-mingw-w64-i686-arm-none-eabi/arm-none-eabi/in
 3803              		.file 8 "lvgl/src/extra/widgets/meter/../../../../src/misc/lv_types.h"
 3804              		.file 9 "D:/armtoolchain/arm-gnu-toolchain-13.3.rel1-mingw-w64-i686-arm-none-eabi/lib/gcc/arm-none
 3805              		.file 10 "D:/update_2024EL/changeform/743zit6/lvgl/src/font/lv_font.h"
 3806              		.file 11 "D:/update_2024EL/changeform/743zit6/lvgl/src/misc/lv_txt.h"
ARM GAS  C:\usertemp\ccXAVGrP.s 			page 113


 3807              		.file 12 "D:/update_2024EL/changeform/743zit6/lvgl/src/misc/lv_bidi.h"
 3808              		.file 13 "D:/update_2024EL/changeform/743zit6/lvgl/src/misc/lv_style.h"
 3809              		.file 14 "D:/update_2024EL/changeform/743zit6/lvgl/src/draw/lv_img_buf.h"
 3810              		.file 15 "lvgl/src/extra/widgets/meter/../../../../src/core/lv_obj.h"
 3811              		.file 16 "D:/update_2024EL/changeform/743zit6/lvgl/src/draw/lv_draw_rect.h"
 3812              		.file 17 "D:/update_2024EL/changeform/743zit6/lvgl/src/draw/lv_draw_label.h"
 3813              		.file 18 "D:/update_2024EL/changeform/743zit6/lvgl/src/draw/lv_draw_img.h"
 3814              		.file 19 "D:/update_2024EL/changeform/743zit6/lvgl/src/draw/lv_draw_line.h"
 3815              		.file 20 "D:/update_2024EL/changeform/743zit6/lvgl/src/draw/lv_draw_arc.h"
 3816              		.file 21 "D:/update_2024EL/changeform/743zit6/lvgl/src/draw/lv_draw_mask.h"
 3817              		.file 22 "D:/update_2024EL/changeform/743zit6/lvgl/src/draw/lv_draw.h"
 3818              		.file 23 "D:/update_2024EL/changeform/743zit6/lvgl/src/misc/lv_ll.h"
 3819              		.file 24 "lvgl/src/extra/widgets/meter/../../../../src/core/lv_group.h"
 3820              		.file 25 "lvgl/src/extra/widgets/meter/../../../../src/core/lv_obj_scroll.h"
 3821              		.file 26 "lvgl/src/extra/widgets/meter/../../../../src/core/lv_obj_style.h"
 3822              		.file 27 "lvgl/src/extra/widgets/meter/../../../../src/core/lv_obj_draw.h"
 3823              		.file 28 "lvgl/src/extra/widgets/meter/../../../../src/core/lv_obj_class.h"
 3824              		.file 29 "lvgl/src/extra/widgets/meter/../../../../src/core/lv_event.h"
 3825              		.file 30 "lvgl/src/extra/widgets/meter/../../../../src/widgets/lv_bar.h"
 3826              		.file 31 "lvgl/src/extra/widgets/meter/../../../../src/extra/widgets/imgbtn/lv_imgbtn.h"
 3827              		.file 32 "lvgl/src/extra/widgets/meter/lv_meter.h"
 3828              		.file 33 "D:/update_2024EL/changeform/743zit6/lvgl/src/core/lv_obj_pos.h"
 3829              		.file 34 "D:/update_2024EL/changeform/743zit6/lvgl/src/misc/lv_mem.h"
 3830              		.file 35 "D:/update_2024EL/changeform/743zit6/lvgl/src/draw/lv_img_decoder.h"
 3831              		.file 36 "D:/armtoolchain/arm-gnu-toolchain-13.3.rel1-mingw-w64-i686-arm-none-eabi/arm-none-eabi/i
ARM GAS  C:\usertemp\ccXAVGrP.s 			page 114


DEFINED SYMBOLS
                            *ABS*:00000000 lv_meter.c
C:\usertemp\ccXAVGrP.s:20     .text.lv_color_mix:00000000 $t
C:\usertemp\ccXAVGrP.s:25     .text.lv_color_mix:00000000 lv_color_mix
C:\usertemp\ccXAVGrP.s:81     .text.lv_color_mix:0000002c $d
C:\usertemp\ccXAVGrP.s:86     .text.draw_arcs:00000000 $t
C:\usertemp\ccXAVGrP.s:91     .text.draw_arcs:00000000 draw_arcs
C:\usertemp\ccXAVGrP.s:403    .text.draw_arcs:00000140 $d
C:\usertemp\ccXAVGrP.s:3788   .rodata.lv_meter_class:00000000 lv_meter_class
C:\usertemp\ccXAVGrP.s:408    .rodata.draw_ticks_and_labels.str1.4:00000000 $d
C:\usertemp\ccXAVGrP.s:412    .text.draw_ticks_and_labels:00000000 $t
C:\usertemp\ccXAVGrP.s:417    .text.draw_ticks_and_labels:00000000 draw_ticks_and_labels
C:\usertemp\ccXAVGrP.s:1202   .text.draw_ticks_and_labels:00000388 $d
C:\usertemp\ccXAVGrP.s:1208   .text.draw_ticks_and_labels:00000390 $t
C:\usertemp\ccXAVGrP.s:1460   .text.draw_needles:00000000 $t
C:\usertemp\ccXAVGrP.s:1465   .text.draw_needles:00000000 draw_needles
C:\usertemp\ccXAVGrP.s:1955   .text.draw_needles:0000023c $d
C:\usertemp\ccXAVGrP.s:1961   .text.lv_meter_event:00000000 $t
C:\usertemp\ccXAVGrP.s:1966   .text.lv_meter_event:00000000 lv_meter_event
C:\usertemp\ccXAVGrP.s:2222   .text.lv_meter_event:000000fc $d
C:\usertemp\ccXAVGrP.s:2228   .text.lv_meter_destructor:00000000 $t
C:\usertemp\ccXAVGrP.s:2233   .text.lv_meter_destructor:00000000 lv_meter_destructor
C:\usertemp\ccXAVGrP.s:2270   .text.lv_meter_constructor:00000000 $t
C:\usertemp\ccXAVGrP.s:2275   .text.lv_meter_constructor:00000000 lv_meter_constructor
C:\usertemp\ccXAVGrP.s:2319   .text.inv_arc:00000000 $t
C:\usertemp\ccXAVGrP.s:2324   .text.inv_arc:00000000 inv_arc
C:\usertemp\ccXAVGrP.s:2521   .text.inv_line:00000000 $t
C:\usertemp\ccXAVGrP.s:2526   .text.inv_line:00000000 inv_line
C:\usertemp\ccXAVGrP.s:2896   .text.inv_line:000001d8 $d
C:\usertemp\ccXAVGrP.s:2901   .text.lv_meter_create:00000000 $t
C:\usertemp\ccXAVGrP.s:2907   .text.lv_meter_create:00000000 lv_meter_create
C:\usertemp\ccXAVGrP.s:2946   .text.lv_meter_create:00000014 $d
C:\usertemp\ccXAVGrP.s:2951   .text.lv_meter_add_scale:00000000 $t
C:\usertemp\ccXAVGrP.s:2957   .text.lv_meter_add_scale:00000000 lv_meter_add_scale
C:\usertemp\ccXAVGrP.s:3039   .text.lv_meter_set_scale_ticks:00000000 $t
C:\usertemp\ccXAVGrP.s:3045   .text.lv_meter_set_scale_ticks:00000000 lv_meter_set_scale_ticks
C:\usertemp\ccXAVGrP.s:3084   .text.lv_meter_set_scale_major_ticks:00000000 $t
C:\usertemp\ccXAVGrP.s:3090   .text.lv_meter_set_scale_major_ticks:00000000 lv_meter_set_scale_major_ticks
C:\usertemp\ccXAVGrP.s:3133   .text.lv_meter_set_scale_range:00000000 $t
C:\usertemp\ccXAVGrP.s:3139   .text.lv_meter_set_scale_range:00000000 lv_meter_set_scale_range
C:\usertemp\ccXAVGrP.s:3178   .text.lv_meter_add_needle_line:00000000 $t
C:\usertemp\ccXAVGrP.s:3184   .text.lv_meter_add_needle_line:00000000 lv_meter_add_needle_line
C:\usertemp\ccXAVGrP.s:3269   .text.lv_meter_add_needle_img:00000000 $t
C:\usertemp\ccXAVGrP.s:3275   .text.lv_meter_add_needle_img:00000000 lv_meter_add_needle_img
C:\usertemp\ccXAVGrP.s:3359   .text.lv_meter_add_arc:00000000 $t
C:\usertemp\ccXAVGrP.s:3365   .text.lv_meter_add_arc:00000000 lv_meter_add_arc
C:\usertemp\ccXAVGrP.s:3450   .text.lv_meter_add_scale_lines:00000000 $t
C:\usertemp\ccXAVGrP.s:3456   .text.lv_meter_add_scale_lines:00000000 lv_meter_add_scale_lines
C:\usertemp\ccXAVGrP.s:3550   .text.lv_meter_set_indicator_value:00000000 $t
C:\usertemp\ccXAVGrP.s:3556   .text.lv_meter_set_indicator_value:00000000 lv_meter_set_indicator_value
C:\usertemp\ccXAVGrP.s:3642   .text.lv_meter_set_indicator_start_value:00000000 $t
C:\usertemp\ccXAVGrP.s:3648   .text.lv_meter_set_indicator_start_value:00000000 lv_meter_set_indicator_start_value
C:\usertemp\ccXAVGrP.s:3713   .text.lv_meter_set_indicator_end_value:00000000 $t
C:\usertemp\ccXAVGrP.s:3719   .text.lv_meter_set_indicator_end_value:00000000 lv_meter_set_indicator_end_value
C:\usertemp\ccXAVGrP.s:3785   .rodata.lv_meter_class:00000000 $d

UNDEFINED SYMBOLS
ARM GAS  C:\usertemp\ccXAVGrP.s 			page 115


lv_draw_arc_dsc_init
lv_obj_get_style_prop
lv_obj_draw_dsc_init
_lv_ll_get_tail
lv_map
lv_event_send
lv_draw_arc
_lv_ll_get_prev
lv_draw_line_dsc_init
lv_obj_init_draw_line_dsc
lv_draw_label_dsc_init
lv_obj_init_draw_label_dsc
lv_trigo_sin
lv_draw_mask_remove_id
lv_memcpy
snprintf
lv_txt_get_size
lv_draw_label
lv_draw_mask_add
lv_draw_line
lv_draw_mask_free_param
lv_draw_mask_radius_init
lv_draw_img_dsc_init
lv_obj_init_draw_img_dsc
lv_draw_img
lv_img_decoder_get_info
lv_obj_event_base
lv_event_get_code
lv_event_get_target
lv_event_get_draw_ctx
lv_obj_get_content_coords
lv_draw_rect_dsc_init
lv_obj_init_draw_rect_dsc
lv_draw_rect
_lv_ll_clear
_lv_ll_init
lv_draw_arc_get_area
lv_obj_invalidate_area
_lv_img_buf_get_transformed_area
lv_obj_class_create_obj
lv_obj_class_init_obj
_lv_ll_ins_head
lv_memset_00
lv_obj_invalidate
lv_obj_class
