ARM GAS  C:\usertemp\ccBZVumh.s 			page 1


   1              		.cpu cortex-m7
   2              		.arch armv7e-m
   3              		.fpu fpv5-d16
   4              		.eabi_attribute 28, 1
   5              		.eabi_attribute 20, 1
   6              		.eabi_attribute 21, 1
   7              		.eabi_attribute 23, 3
   8              		.eabi_attribute 24, 1
   9              		.eabi_attribute 25, 1
  10              		.eabi_attribute 26, 1
  11              		.eabi_attribute 30, 1
  12              		.eabi_attribute 34, 1
  13              		.eabi_attribute 18, 4
  14              		.file	"lv_obj_scroll.c"
  15              		.text
  16              	.Ltext0:
  17              		.cfi_sections	.debug_frame
  18              		.file 1 "lvgl/src/core/lv_obj_scroll.c"
  19              		.section	.text.scroll_by_raw,"ax",%progbits
  20              		.align	1
  21              		.syntax unified
  22              		.thumb
  23              		.thumb_func
  25              	scroll_by_raw:
  26              	.LVL0:
  27              	.LFB189:
   1:lvgl/src/core/lv_obj_scroll.c **** /**
   2:lvgl/src/core/lv_obj_scroll.c ****  * @file lv_obj_scroll.c
   3:lvgl/src/core/lv_obj_scroll.c ****  *
   4:lvgl/src/core/lv_obj_scroll.c ****  */
   5:lvgl/src/core/lv_obj_scroll.c **** 
   6:lvgl/src/core/lv_obj_scroll.c **** /*********************
   7:lvgl/src/core/lv_obj_scroll.c ****  *      INCLUDES
   8:lvgl/src/core/lv_obj_scroll.c ****  *********************/
   9:lvgl/src/core/lv_obj_scroll.c **** #include "lv_obj_scroll.h"
  10:lvgl/src/core/lv_obj_scroll.c **** #include "lv_obj.h"
  11:lvgl/src/core/lv_obj_scroll.c **** #include "lv_indev.h"
  12:lvgl/src/core/lv_obj_scroll.c **** #include "lv_disp.h"
  13:lvgl/src/core/lv_obj_scroll.c **** #include "lv_indev_scroll.h"
  14:lvgl/src/core/lv_obj_scroll.c **** 
  15:lvgl/src/core/lv_obj_scroll.c **** /*********************
  16:lvgl/src/core/lv_obj_scroll.c ****  *      DEFINES
  17:lvgl/src/core/lv_obj_scroll.c ****  *********************/
  18:lvgl/src/core/lv_obj_scroll.c **** #define MY_CLASS &lv_obj_class
  19:lvgl/src/core/lv_obj_scroll.c **** #define SCROLL_ANIM_TIME_MIN    200    /*ms*/
  20:lvgl/src/core/lv_obj_scroll.c **** #define SCROLL_ANIM_TIME_MAX    400    /*ms*/
  21:lvgl/src/core/lv_obj_scroll.c **** #define SCROLLBAR_MIN_SIZE      (LV_DPX(10))
  22:lvgl/src/core/lv_obj_scroll.c **** 
  23:lvgl/src/core/lv_obj_scroll.c **** /**********************
  24:lvgl/src/core/lv_obj_scroll.c ****  *      TYPEDEFS
  25:lvgl/src/core/lv_obj_scroll.c ****  **********************/
  26:lvgl/src/core/lv_obj_scroll.c **** 
  27:lvgl/src/core/lv_obj_scroll.c **** /**********************
  28:lvgl/src/core/lv_obj_scroll.c ****  *  GLOBAL PROTOTYPES
  29:lvgl/src/core/lv_obj_scroll.c ****  **********************/
  30:lvgl/src/core/lv_obj_scroll.c **** 
  31:lvgl/src/core/lv_obj_scroll.c **** /**********************
ARM GAS  C:\usertemp\ccBZVumh.s 			page 2


  32:lvgl/src/core/lv_obj_scroll.c ****  *  STATIC PROTOTYPES
  33:lvgl/src/core/lv_obj_scroll.c ****  **********************/
  34:lvgl/src/core/lv_obj_scroll.c **** static void scroll_by_raw(lv_obj_t * obj, lv_coord_t x, lv_coord_t y);
  35:lvgl/src/core/lv_obj_scroll.c **** static void scroll_x_anim(void * obj, int32_t v);
  36:lvgl/src/core/lv_obj_scroll.c **** static void scroll_y_anim(void * obj, int32_t v);
  37:lvgl/src/core/lv_obj_scroll.c **** static void scroll_anim_ready_cb(lv_anim_t * a);
  38:lvgl/src/core/lv_obj_scroll.c **** static void scroll_area_into_view(const lv_area_t * area, lv_obj_t * child, lv_point_t * scroll_val
  39:lvgl/src/core/lv_obj_scroll.c ****                                   lv_anim_enable_t anim_en);
  40:lvgl/src/core/lv_obj_scroll.c **** 
  41:lvgl/src/core/lv_obj_scroll.c **** /**********************
  42:lvgl/src/core/lv_obj_scroll.c ****  *  STATIC VARIABLES
  43:lvgl/src/core/lv_obj_scroll.c ****  **********************/
  44:lvgl/src/core/lv_obj_scroll.c **** 
  45:lvgl/src/core/lv_obj_scroll.c **** /**********************
  46:lvgl/src/core/lv_obj_scroll.c ****  *      MACROS
  47:lvgl/src/core/lv_obj_scroll.c ****  **********************/
  48:lvgl/src/core/lv_obj_scroll.c **** 
  49:lvgl/src/core/lv_obj_scroll.c **** /**********************
  50:lvgl/src/core/lv_obj_scroll.c ****  *   GLOBAL FUNCTIONS
  51:lvgl/src/core/lv_obj_scroll.c ****  **********************/
  52:lvgl/src/core/lv_obj_scroll.c **** 
  53:lvgl/src/core/lv_obj_scroll.c **** /*=====================
  54:lvgl/src/core/lv_obj_scroll.c ****  * Setter functions
  55:lvgl/src/core/lv_obj_scroll.c ****  *====================*/
  56:lvgl/src/core/lv_obj_scroll.c **** 
  57:lvgl/src/core/lv_obj_scroll.c **** void lv_obj_set_scrollbar_mode(lv_obj_t * obj, lv_scrollbar_mode_t mode)
  58:lvgl/src/core/lv_obj_scroll.c **** {
  59:lvgl/src/core/lv_obj_scroll.c ****     LV_ASSERT_OBJ(obj, MY_CLASS);
  60:lvgl/src/core/lv_obj_scroll.c **** 
  61:lvgl/src/core/lv_obj_scroll.c ****     lv_obj_allocate_spec_attr(obj);
  62:lvgl/src/core/lv_obj_scroll.c **** 
  63:lvgl/src/core/lv_obj_scroll.c ****     if(obj->spec_attr->scrollbar_mode == mode) return;
  64:lvgl/src/core/lv_obj_scroll.c ****     obj->spec_attr->scrollbar_mode = mode;
  65:lvgl/src/core/lv_obj_scroll.c ****     lv_obj_invalidate(obj);
  66:lvgl/src/core/lv_obj_scroll.c **** }
  67:lvgl/src/core/lv_obj_scroll.c **** 
  68:lvgl/src/core/lv_obj_scroll.c **** void lv_obj_set_scroll_dir(lv_obj_t * obj, lv_dir_t dir)
  69:lvgl/src/core/lv_obj_scroll.c **** {
  70:lvgl/src/core/lv_obj_scroll.c ****     lv_obj_allocate_spec_attr(obj);
  71:lvgl/src/core/lv_obj_scroll.c **** 
  72:lvgl/src/core/lv_obj_scroll.c ****     if(dir != obj->spec_attr->scroll_dir) {
  73:lvgl/src/core/lv_obj_scroll.c ****         obj->spec_attr->scroll_dir = dir;
  74:lvgl/src/core/lv_obj_scroll.c ****     }
  75:lvgl/src/core/lv_obj_scroll.c **** }
  76:lvgl/src/core/lv_obj_scroll.c **** 
  77:lvgl/src/core/lv_obj_scroll.c **** void lv_obj_set_scroll_snap_x(lv_obj_t * obj, lv_scroll_snap_t align)
  78:lvgl/src/core/lv_obj_scroll.c **** {
  79:lvgl/src/core/lv_obj_scroll.c ****     lv_obj_allocate_spec_attr(obj);
  80:lvgl/src/core/lv_obj_scroll.c ****     obj->spec_attr->scroll_snap_x = align;
  81:lvgl/src/core/lv_obj_scroll.c **** }
  82:lvgl/src/core/lv_obj_scroll.c **** 
  83:lvgl/src/core/lv_obj_scroll.c **** void lv_obj_set_scroll_snap_y(lv_obj_t * obj, lv_scroll_snap_t align)
  84:lvgl/src/core/lv_obj_scroll.c **** {
  85:lvgl/src/core/lv_obj_scroll.c ****     lv_obj_allocate_spec_attr(obj);
  86:lvgl/src/core/lv_obj_scroll.c ****     obj->spec_attr->scroll_snap_y = align;
  87:lvgl/src/core/lv_obj_scroll.c **** }
  88:lvgl/src/core/lv_obj_scroll.c **** 
ARM GAS  C:\usertemp\ccBZVumh.s 			page 3


  89:lvgl/src/core/lv_obj_scroll.c **** /*=====================
  90:lvgl/src/core/lv_obj_scroll.c ****  * Getter functions
  91:lvgl/src/core/lv_obj_scroll.c ****  *====================*/
  92:lvgl/src/core/lv_obj_scroll.c **** 
  93:lvgl/src/core/lv_obj_scroll.c **** lv_scrollbar_mode_t lv_obj_get_scrollbar_mode(const lv_obj_t * obj)
  94:lvgl/src/core/lv_obj_scroll.c **** {
  95:lvgl/src/core/lv_obj_scroll.c ****     if(obj->spec_attr) return obj->spec_attr->scrollbar_mode;
  96:lvgl/src/core/lv_obj_scroll.c ****     else return LV_SCROLLBAR_MODE_AUTO;
  97:lvgl/src/core/lv_obj_scroll.c **** }
  98:lvgl/src/core/lv_obj_scroll.c **** 
  99:lvgl/src/core/lv_obj_scroll.c **** lv_dir_t lv_obj_get_scroll_dir(const lv_obj_t * obj)
 100:lvgl/src/core/lv_obj_scroll.c **** {
 101:lvgl/src/core/lv_obj_scroll.c ****     if(obj->spec_attr) return obj->spec_attr->scroll_dir;
 102:lvgl/src/core/lv_obj_scroll.c ****     else return LV_DIR_ALL;
 103:lvgl/src/core/lv_obj_scroll.c **** }
 104:lvgl/src/core/lv_obj_scroll.c **** 
 105:lvgl/src/core/lv_obj_scroll.c **** lv_scroll_snap_t lv_obj_get_scroll_snap_x(const lv_obj_t * obj)
 106:lvgl/src/core/lv_obj_scroll.c **** {
 107:lvgl/src/core/lv_obj_scroll.c ****     if(obj->spec_attr) return obj->spec_attr->scroll_snap_x;
 108:lvgl/src/core/lv_obj_scroll.c ****     else return LV_SCROLL_SNAP_NONE;
 109:lvgl/src/core/lv_obj_scroll.c **** }
 110:lvgl/src/core/lv_obj_scroll.c **** 
 111:lvgl/src/core/lv_obj_scroll.c **** lv_scroll_snap_t lv_obj_get_scroll_snap_y(const lv_obj_t * obj)
 112:lvgl/src/core/lv_obj_scroll.c **** {
 113:lvgl/src/core/lv_obj_scroll.c ****     if(obj->spec_attr) return obj->spec_attr->scroll_snap_y;
 114:lvgl/src/core/lv_obj_scroll.c ****     else return LV_SCROLL_SNAP_NONE;
 115:lvgl/src/core/lv_obj_scroll.c **** }
 116:lvgl/src/core/lv_obj_scroll.c **** 
 117:lvgl/src/core/lv_obj_scroll.c **** lv_coord_t lv_obj_get_scroll_x(const lv_obj_t * obj)
 118:lvgl/src/core/lv_obj_scroll.c **** {
 119:lvgl/src/core/lv_obj_scroll.c ****     if(obj->spec_attr == NULL) return 0;
 120:lvgl/src/core/lv_obj_scroll.c ****     return -obj->spec_attr->scroll.x;
 121:lvgl/src/core/lv_obj_scroll.c **** }
 122:lvgl/src/core/lv_obj_scroll.c **** 
 123:lvgl/src/core/lv_obj_scroll.c **** lv_coord_t lv_obj_get_scroll_y(const lv_obj_t * obj)
 124:lvgl/src/core/lv_obj_scroll.c **** {
 125:lvgl/src/core/lv_obj_scroll.c ****     if(obj->spec_attr == NULL) return 0;
 126:lvgl/src/core/lv_obj_scroll.c ****     return -obj->spec_attr->scroll.y;
 127:lvgl/src/core/lv_obj_scroll.c **** }
 128:lvgl/src/core/lv_obj_scroll.c **** 
 129:lvgl/src/core/lv_obj_scroll.c **** lv_coord_t lv_obj_get_scroll_top(lv_obj_t * obj)
 130:lvgl/src/core/lv_obj_scroll.c **** {
 131:lvgl/src/core/lv_obj_scroll.c ****     if(obj->spec_attr == NULL) return 0;
 132:lvgl/src/core/lv_obj_scroll.c ****     return -obj->spec_attr->scroll.y;
 133:lvgl/src/core/lv_obj_scroll.c **** }
 134:lvgl/src/core/lv_obj_scroll.c **** 
 135:lvgl/src/core/lv_obj_scroll.c **** lv_coord_t lv_obj_get_scroll_bottom(lv_obj_t * obj)
 136:lvgl/src/core/lv_obj_scroll.c **** {
 137:lvgl/src/core/lv_obj_scroll.c ****     LV_ASSERT_OBJ(obj, MY_CLASS);
 138:lvgl/src/core/lv_obj_scroll.c **** 
 139:lvgl/src/core/lv_obj_scroll.c ****     lv_coord_t child_res = LV_COORD_MIN;
 140:lvgl/src/core/lv_obj_scroll.c ****     uint32_t i;
 141:lvgl/src/core/lv_obj_scroll.c ****     uint32_t child_cnt = lv_obj_get_child_cnt(obj);
 142:lvgl/src/core/lv_obj_scroll.c ****     for(i = 0; i < child_cnt; i++) {
 143:lvgl/src/core/lv_obj_scroll.c ****         lv_obj_t * child = obj->spec_attr->children[i];
 144:lvgl/src/core/lv_obj_scroll.c ****         if(lv_obj_has_flag_any(child,  LV_OBJ_FLAG_HIDDEN | LV_OBJ_FLAG_FLOATING)) continue;
 145:lvgl/src/core/lv_obj_scroll.c ****         child_res = LV_MAX(child_res, child->coords.y2);
ARM GAS  C:\usertemp\ccBZVumh.s 			page 4


 146:lvgl/src/core/lv_obj_scroll.c ****     }
 147:lvgl/src/core/lv_obj_scroll.c **** 
 148:lvgl/src/core/lv_obj_scroll.c ****     lv_coord_t pad_top = lv_obj_get_style_pad_top(obj, LV_PART_MAIN);
 149:lvgl/src/core/lv_obj_scroll.c ****     lv_coord_t pad_bottom = lv_obj_get_style_pad_bottom(obj, LV_PART_MAIN);
 150:lvgl/src/core/lv_obj_scroll.c ****     lv_coord_t border_width = lv_obj_get_style_border_width(obj, LV_PART_MAIN);
 151:lvgl/src/core/lv_obj_scroll.c **** 
 152:lvgl/src/core/lv_obj_scroll.c ****     if(child_res != LV_COORD_MIN) {
 153:lvgl/src/core/lv_obj_scroll.c ****         child_res -= (obj->coords.y2 - pad_bottom - border_width);
 154:lvgl/src/core/lv_obj_scroll.c ****     }
 155:lvgl/src/core/lv_obj_scroll.c **** 
 156:lvgl/src/core/lv_obj_scroll.c ****     lv_coord_t self_h = lv_obj_get_self_height(obj);
 157:lvgl/src/core/lv_obj_scroll.c ****     self_h = self_h - (lv_obj_get_height(obj) - pad_top - pad_bottom - 2 * border_width);
 158:lvgl/src/core/lv_obj_scroll.c ****     self_h -= lv_obj_get_scroll_y(obj);
 159:lvgl/src/core/lv_obj_scroll.c ****     return LV_MAX(child_res, self_h);
 160:lvgl/src/core/lv_obj_scroll.c **** }
 161:lvgl/src/core/lv_obj_scroll.c **** 
 162:lvgl/src/core/lv_obj_scroll.c **** lv_coord_t lv_obj_get_scroll_left(lv_obj_t * obj)
 163:lvgl/src/core/lv_obj_scroll.c **** {
 164:lvgl/src/core/lv_obj_scroll.c ****     LV_ASSERT_OBJ(obj, MY_CLASS);
 165:lvgl/src/core/lv_obj_scroll.c **** 
 166:lvgl/src/core/lv_obj_scroll.c ****     /*Normally can't scroll the object out on the left.
 167:lvgl/src/core/lv_obj_scroll.c ****      *So simply use the current scroll position as "left size"*/
 168:lvgl/src/core/lv_obj_scroll.c ****     if(lv_obj_get_style_base_dir(obj, LV_PART_MAIN) != LV_BASE_DIR_RTL) {
 169:lvgl/src/core/lv_obj_scroll.c ****         if(obj->spec_attr == NULL) return 0;
 170:lvgl/src/core/lv_obj_scroll.c ****         return -obj->spec_attr->scroll.x;
 171:lvgl/src/core/lv_obj_scroll.c ****     }
 172:lvgl/src/core/lv_obj_scroll.c **** 
 173:lvgl/src/core/lv_obj_scroll.c ****     /*With RTL base direction scrolling the left is normal so find the left most coordinate*/
 174:lvgl/src/core/lv_obj_scroll.c ****     lv_coord_t pad_right = lv_obj_get_style_pad_right(obj, LV_PART_MAIN);
 175:lvgl/src/core/lv_obj_scroll.c ****     lv_coord_t pad_left = lv_obj_get_style_pad_left(obj, LV_PART_MAIN);
 176:lvgl/src/core/lv_obj_scroll.c ****     lv_coord_t border_width = lv_obj_get_style_border_width(obj, LV_PART_MAIN);
 177:lvgl/src/core/lv_obj_scroll.c **** 
 178:lvgl/src/core/lv_obj_scroll.c ****     lv_coord_t child_res = 0;
 179:lvgl/src/core/lv_obj_scroll.c **** 
 180:lvgl/src/core/lv_obj_scroll.c ****     uint32_t i;
 181:lvgl/src/core/lv_obj_scroll.c ****     lv_coord_t x1 = LV_COORD_MAX;
 182:lvgl/src/core/lv_obj_scroll.c ****     uint32_t child_cnt = lv_obj_get_child_cnt(obj);
 183:lvgl/src/core/lv_obj_scroll.c ****     for(i = 0; i < child_cnt; i++) {
 184:lvgl/src/core/lv_obj_scroll.c ****         lv_obj_t * child = obj->spec_attr->children[i];
 185:lvgl/src/core/lv_obj_scroll.c ****         if(lv_obj_has_flag_any(child,  LV_OBJ_FLAG_HIDDEN | LV_OBJ_FLAG_FLOATING)) continue;
 186:lvgl/src/core/lv_obj_scroll.c ****         x1 = LV_MIN(x1, child->coords.x1);
 187:lvgl/src/core/lv_obj_scroll.c **** 
 188:lvgl/src/core/lv_obj_scroll.c ****     }
 189:lvgl/src/core/lv_obj_scroll.c **** 
 190:lvgl/src/core/lv_obj_scroll.c ****     if(x1 != LV_COORD_MAX) {
 191:lvgl/src/core/lv_obj_scroll.c ****         child_res = x1;
 192:lvgl/src/core/lv_obj_scroll.c ****         child_res = (obj->coords.x1 + pad_left + border_width) - child_res;
 193:lvgl/src/core/lv_obj_scroll.c ****     }
 194:lvgl/src/core/lv_obj_scroll.c ****     else {
 195:lvgl/src/core/lv_obj_scroll.c ****         child_res = LV_COORD_MIN;
 196:lvgl/src/core/lv_obj_scroll.c ****     }
 197:lvgl/src/core/lv_obj_scroll.c **** 
 198:lvgl/src/core/lv_obj_scroll.c ****     lv_coord_t self_w = lv_obj_get_self_width(obj);
 199:lvgl/src/core/lv_obj_scroll.c ****     self_w = self_w - (lv_obj_get_width(obj) - pad_right - pad_left - 2 * border_width);
 200:lvgl/src/core/lv_obj_scroll.c ****     self_w += lv_obj_get_scroll_x(obj);
 201:lvgl/src/core/lv_obj_scroll.c **** 
 202:lvgl/src/core/lv_obj_scroll.c ****     return LV_MAX(child_res, self_w);
ARM GAS  C:\usertemp\ccBZVumh.s 			page 5


 203:lvgl/src/core/lv_obj_scroll.c **** }
 204:lvgl/src/core/lv_obj_scroll.c **** 
 205:lvgl/src/core/lv_obj_scroll.c **** lv_coord_t lv_obj_get_scroll_right(lv_obj_t * obj)
 206:lvgl/src/core/lv_obj_scroll.c **** {
 207:lvgl/src/core/lv_obj_scroll.c ****     LV_ASSERT_OBJ(obj, MY_CLASS);
 208:lvgl/src/core/lv_obj_scroll.c **** 
 209:lvgl/src/core/lv_obj_scroll.c ****     /*With RTL base dir can't scroll to the object out on the right.
 210:lvgl/src/core/lv_obj_scroll.c ****      *So simply use the current scroll position as "right size"*/
 211:lvgl/src/core/lv_obj_scroll.c ****     if(lv_obj_get_style_base_dir(obj, LV_PART_MAIN) == LV_BASE_DIR_RTL) {
 212:lvgl/src/core/lv_obj_scroll.c ****         if(obj->spec_attr == NULL) return 0;
 213:lvgl/src/core/lv_obj_scroll.c ****         return obj->spec_attr->scroll.x;
 214:lvgl/src/core/lv_obj_scroll.c ****     }
 215:lvgl/src/core/lv_obj_scroll.c **** 
 216:lvgl/src/core/lv_obj_scroll.c ****     /*With other base direction (LTR) scrolling to the right is normal so find the right most coord
 217:lvgl/src/core/lv_obj_scroll.c ****     lv_coord_t child_res = LV_COORD_MIN;
 218:lvgl/src/core/lv_obj_scroll.c ****     uint32_t i;
 219:lvgl/src/core/lv_obj_scroll.c ****     uint32_t child_cnt = lv_obj_get_child_cnt(obj);
 220:lvgl/src/core/lv_obj_scroll.c ****     for(i = 0; i < child_cnt; i++) {
 221:lvgl/src/core/lv_obj_scroll.c ****         lv_obj_t * child = obj->spec_attr->children[i];
 222:lvgl/src/core/lv_obj_scroll.c ****         if(lv_obj_has_flag_any(child,  LV_OBJ_FLAG_HIDDEN | LV_OBJ_FLAG_FLOATING)) continue;
 223:lvgl/src/core/lv_obj_scroll.c ****         child_res = LV_MAX(child_res, child->coords.x2);
 224:lvgl/src/core/lv_obj_scroll.c ****     }
 225:lvgl/src/core/lv_obj_scroll.c **** 
 226:lvgl/src/core/lv_obj_scroll.c ****     lv_coord_t pad_right = lv_obj_get_style_pad_right(obj, LV_PART_MAIN);
 227:lvgl/src/core/lv_obj_scroll.c ****     lv_coord_t pad_left = lv_obj_get_style_pad_left(obj, LV_PART_MAIN);
 228:lvgl/src/core/lv_obj_scroll.c ****     lv_coord_t border_width = lv_obj_get_style_border_width(obj, LV_PART_MAIN);
 229:lvgl/src/core/lv_obj_scroll.c **** 
 230:lvgl/src/core/lv_obj_scroll.c ****     if(child_res != LV_COORD_MIN) {
 231:lvgl/src/core/lv_obj_scroll.c ****         child_res -= (obj->coords.x2 - pad_right - border_width);
 232:lvgl/src/core/lv_obj_scroll.c ****     }
 233:lvgl/src/core/lv_obj_scroll.c **** 
 234:lvgl/src/core/lv_obj_scroll.c ****     lv_coord_t self_w;
 235:lvgl/src/core/lv_obj_scroll.c ****     self_w = lv_obj_get_self_width(obj);
 236:lvgl/src/core/lv_obj_scroll.c ****     self_w = self_w - (lv_obj_get_width(obj) - pad_right - pad_left - 2 * border_width);
 237:lvgl/src/core/lv_obj_scroll.c ****     self_w -= lv_obj_get_scroll_x(obj);
 238:lvgl/src/core/lv_obj_scroll.c ****     return LV_MAX(child_res, self_w);
 239:lvgl/src/core/lv_obj_scroll.c **** }
 240:lvgl/src/core/lv_obj_scroll.c **** 
 241:lvgl/src/core/lv_obj_scroll.c **** void lv_obj_get_scroll_end(struct _lv_obj_t  * obj, lv_point_t * end)
 242:lvgl/src/core/lv_obj_scroll.c **** {
 243:lvgl/src/core/lv_obj_scroll.c ****     lv_anim_t * a;
 244:lvgl/src/core/lv_obj_scroll.c ****     a = lv_anim_get(obj, scroll_x_anim);
 245:lvgl/src/core/lv_obj_scroll.c ****     end->x = a ? -a->end_value : lv_obj_get_scroll_x(obj);
 246:lvgl/src/core/lv_obj_scroll.c **** 
 247:lvgl/src/core/lv_obj_scroll.c ****     a = lv_anim_get(obj, scroll_y_anim);
 248:lvgl/src/core/lv_obj_scroll.c ****     end->y = a ? -a->end_value : lv_obj_get_scroll_y(obj);
 249:lvgl/src/core/lv_obj_scroll.c **** }
 250:lvgl/src/core/lv_obj_scroll.c **** 
 251:lvgl/src/core/lv_obj_scroll.c **** /*=====================
 252:lvgl/src/core/lv_obj_scroll.c ****  * Other functions
 253:lvgl/src/core/lv_obj_scroll.c ****  *====================*/
 254:lvgl/src/core/lv_obj_scroll.c **** 
 255:lvgl/src/core/lv_obj_scroll.c **** void lv_obj_scroll_by_bounded(lv_obj_t * obj, lv_coord_t dx, lv_coord_t dy, lv_anim_enable_t anim_e
 256:lvgl/src/core/lv_obj_scroll.c **** {
 257:lvgl/src/core/lv_obj_scroll.c ****     if(dx == 0 && dy == 0) return;
 258:lvgl/src/core/lv_obj_scroll.c **** 
 259:lvgl/src/core/lv_obj_scroll.c ****     /*We need to know the final sizes for bound check*/
ARM GAS  C:\usertemp\ccBZVumh.s 			page 6


 260:lvgl/src/core/lv_obj_scroll.c ****     lv_obj_update_layout(obj);
 261:lvgl/src/core/lv_obj_scroll.c **** 
 262:lvgl/src/core/lv_obj_scroll.c ****     /*Don't let scroll more then naturally possible by the size of the content*/
 263:lvgl/src/core/lv_obj_scroll.c ****     lv_coord_t x_current = -lv_obj_get_scroll_x(obj);
 264:lvgl/src/core/lv_obj_scroll.c ****     lv_coord_t x_bounded = x_current + dx;
 265:lvgl/src/core/lv_obj_scroll.c **** 
 266:lvgl/src/core/lv_obj_scroll.c ****     if(lv_obj_get_style_base_dir(obj, LV_PART_MAIN) != LV_BASE_DIR_RTL) {
 267:lvgl/src/core/lv_obj_scroll.c ****         if(x_bounded > 0) x_bounded = 0;
 268:lvgl/src/core/lv_obj_scroll.c ****         if(x_bounded < 0) {
 269:lvgl/src/core/lv_obj_scroll.c ****             lv_coord_t  scroll_max = lv_obj_get_scroll_left(obj) + lv_obj_get_scroll_right(obj);
 270:lvgl/src/core/lv_obj_scroll.c ****             if(scroll_max < 0) scroll_max = 0;
 271:lvgl/src/core/lv_obj_scroll.c **** 
 272:lvgl/src/core/lv_obj_scroll.c ****             if(x_bounded < -scroll_max) x_bounded = -scroll_max;
 273:lvgl/src/core/lv_obj_scroll.c ****         }
 274:lvgl/src/core/lv_obj_scroll.c ****     }
 275:lvgl/src/core/lv_obj_scroll.c ****     else {
 276:lvgl/src/core/lv_obj_scroll.c ****         if(x_bounded < 0) x_bounded = 0;
 277:lvgl/src/core/lv_obj_scroll.c ****         if(x_bounded > 0) {
 278:lvgl/src/core/lv_obj_scroll.c ****             lv_coord_t  scroll_max = lv_obj_get_scroll_left(obj) + lv_obj_get_scroll_right(obj);
 279:lvgl/src/core/lv_obj_scroll.c ****             if(scroll_max < 0) scroll_max = 0;
 280:lvgl/src/core/lv_obj_scroll.c **** 
 281:lvgl/src/core/lv_obj_scroll.c ****             if(x_bounded > scroll_max) x_bounded = scroll_max;
 282:lvgl/src/core/lv_obj_scroll.c ****         }
 283:lvgl/src/core/lv_obj_scroll.c ****     }
 284:lvgl/src/core/lv_obj_scroll.c **** 
 285:lvgl/src/core/lv_obj_scroll.c ****     /*Don't let scroll more then naturally possible by the size of the content*/
 286:lvgl/src/core/lv_obj_scroll.c ****     lv_coord_t y_current = -lv_obj_get_scroll_y(obj);
 287:lvgl/src/core/lv_obj_scroll.c ****     lv_coord_t y_bounded = y_current + dy;
 288:lvgl/src/core/lv_obj_scroll.c **** 
 289:lvgl/src/core/lv_obj_scroll.c ****     if(y_bounded > 0) y_bounded = 0;
 290:lvgl/src/core/lv_obj_scroll.c ****     if(y_bounded < 0) {
 291:lvgl/src/core/lv_obj_scroll.c ****         lv_coord_t  scroll_max = lv_obj_get_scroll_top(obj) + lv_obj_get_scroll_bottom(obj);
 292:lvgl/src/core/lv_obj_scroll.c ****         if(scroll_max < 0) scroll_max = 0;
 293:lvgl/src/core/lv_obj_scroll.c ****         if(y_bounded < -scroll_max) y_bounded = -scroll_max;
 294:lvgl/src/core/lv_obj_scroll.c ****     }
 295:lvgl/src/core/lv_obj_scroll.c **** 
 296:lvgl/src/core/lv_obj_scroll.c ****     dx = x_bounded - x_current;
 297:lvgl/src/core/lv_obj_scroll.c ****     dy = y_bounded - y_current;
 298:lvgl/src/core/lv_obj_scroll.c ****     if(dx || dy) {
 299:lvgl/src/core/lv_obj_scroll.c ****         lv_obj_scroll_by(obj, dx, dy, anim_en);
 300:lvgl/src/core/lv_obj_scroll.c ****     }
 301:lvgl/src/core/lv_obj_scroll.c **** }
 302:lvgl/src/core/lv_obj_scroll.c **** 
 303:lvgl/src/core/lv_obj_scroll.c **** 
 304:lvgl/src/core/lv_obj_scroll.c **** void lv_obj_scroll_by(lv_obj_t * obj, lv_coord_t dx, lv_coord_t dy, lv_anim_enable_t anim_en)
 305:lvgl/src/core/lv_obj_scroll.c **** {
 306:lvgl/src/core/lv_obj_scroll.c ****     if(dx == 0 && dy == 0) return;
 307:lvgl/src/core/lv_obj_scroll.c ****     if(anim_en == LV_ANIM_ON) {
 308:lvgl/src/core/lv_obj_scroll.c ****         lv_disp_t * d = lv_obj_get_disp(obj);
 309:lvgl/src/core/lv_obj_scroll.c ****         lv_anim_t a;
 310:lvgl/src/core/lv_obj_scroll.c ****         lv_anim_init(&a);
 311:lvgl/src/core/lv_obj_scroll.c ****         lv_anim_set_var(&a, obj);
 312:lvgl/src/core/lv_obj_scroll.c ****         lv_anim_set_ready_cb(&a, scroll_anim_ready_cb);
 313:lvgl/src/core/lv_obj_scroll.c **** 
 314:lvgl/src/core/lv_obj_scroll.c ****         if(dx) {
 315:lvgl/src/core/lv_obj_scroll.c ****             uint32_t t = lv_anim_speed_to_time((lv_disp_get_hor_res(d) * 2) >> 2, 0, dx);
 316:lvgl/src/core/lv_obj_scroll.c ****             if(t < SCROLL_ANIM_TIME_MIN) t = SCROLL_ANIM_TIME_MIN;
ARM GAS  C:\usertemp\ccBZVumh.s 			page 7


 317:lvgl/src/core/lv_obj_scroll.c ****             if(t > SCROLL_ANIM_TIME_MAX) t = SCROLL_ANIM_TIME_MAX;
 318:lvgl/src/core/lv_obj_scroll.c ****             lv_anim_set_time(&a, t);
 319:lvgl/src/core/lv_obj_scroll.c ****             lv_coord_t sx = lv_obj_get_scroll_x(obj);
 320:lvgl/src/core/lv_obj_scroll.c ****             lv_anim_set_values(&a, -sx, -sx + dx);
 321:lvgl/src/core/lv_obj_scroll.c ****             lv_anim_set_exec_cb(&a, scroll_x_anim);
 322:lvgl/src/core/lv_obj_scroll.c ****             lv_anim_set_path_cb(&a, lv_anim_path_ease_out);
 323:lvgl/src/core/lv_obj_scroll.c **** 
 324:lvgl/src/core/lv_obj_scroll.c ****             lv_res_t res;
 325:lvgl/src/core/lv_obj_scroll.c ****             res = lv_event_send(obj, LV_EVENT_SCROLL_BEGIN, &a);
 326:lvgl/src/core/lv_obj_scroll.c ****             if(res != LV_RES_OK) return;
 327:lvgl/src/core/lv_obj_scroll.c ****             lv_anim_start(&a);
 328:lvgl/src/core/lv_obj_scroll.c ****         }
 329:lvgl/src/core/lv_obj_scroll.c **** 
 330:lvgl/src/core/lv_obj_scroll.c ****         if(dy) {
 331:lvgl/src/core/lv_obj_scroll.c ****             uint32_t t = lv_anim_speed_to_time((lv_disp_get_ver_res(d) * 2) >> 2, 0, dy);
 332:lvgl/src/core/lv_obj_scroll.c ****             if(t < SCROLL_ANIM_TIME_MIN) t = SCROLL_ANIM_TIME_MIN;
 333:lvgl/src/core/lv_obj_scroll.c ****             if(t > SCROLL_ANIM_TIME_MAX) t = SCROLL_ANIM_TIME_MAX;
 334:lvgl/src/core/lv_obj_scroll.c ****             lv_anim_set_time(&a, t);
 335:lvgl/src/core/lv_obj_scroll.c ****             lv_coord_t sy = lv_obj_get_scroll_y(obj);
 336:lvgl/src/core/lv_obj_scroll.c ****             lv_anim_set_values(&a, -sy, -sy + dy);
 337:lvgl/src/core/lv_obj_scroll.c ****             lv_anim_set_exec_cb(&a,  scroll_y_anim);
 338:lvgl/src/core/lv_obj_scroll.c ****             lv_anim_set_path_cb(&a, lv_anim_path_ease_out);
 339:lvgl/src/core/lv_obj_scroll.c **** 
 340:lvgl/src/core/lv_obj_scroll.c ****             lv_res_t res;
 341:lvgl/src/core/lv_obj_scroll.c ****             res = lv_event_send(obj, LV_EVENT_SCROLL_BEGIN, &a);
 342:lvgl/src/core/lv_obj_scroll.c ****             if(res != LV_RES_OK) return;
 343:lvgl/src/core/lv_obj_scroll.c ****             lv_anim_start(&a);
 344:lvgl/src/core/lv_obj_scroll.c ****         }
 345:lvgl/src/core/lv_obj_scroll.c ****     }
 346:lvgl/src/core/lv_obj_scroll.c ****     else {
 347:lvgl/src/core/lv_obj_scroll.c ****         /*Remove pending animations*/
 348:lvgl/src/core/lv_obj_scroll.c ****         bool y_del = lv_anim_del(obj, scroll_y_anim);
 349:lvgl/src/core/lv_obj_scroll.c ****         bool x_del = lv_anim_del(obj, scroll_x_anim);
 350:lvgl/src/core/lv_obj_scroll.c ****         scroll_by_raw(obj, dx, dy);
 351:lvgl/src/core/lv_obj_scroll.c ****         if(y_del || x_del) {
 352:lvgl/src/core/lv_obj_scroll.c ****             lv_res_t res;
 353:lvgl/src/core/lv_obj_scroll.c ****             res = lv_event_send(obj, LV_EVENT_SCROLL_END, NULL);
 354:lvgl/src/core/lv_obj_scroll.c ****             if(res != LV_RES_OK) return;
 355:lvgl/src/core/lv_obj_scroll.c ****         }
 356:lvgl/src/core/lv_obj_scroll.c ****     }
 357:lvgl/src/core/lv_obj_scroll.c **** }
 358:lvgl/src/core/lv_obj_scroll.c **** 
 359:lvgl/src/core/lv_obj_scroll.c **** void lv_obj_scroll_to(lv_obj_t * obj, lv_coord_t x, lv_coord_t y, lv_anim_enable_t anim_en)
 360:lvgl/src/core/lv_obj_scroll.c **** {
 361:lvgl/src/core/lv_obj_scroll.c ****     lv_obj_scroll_to_x(obj, x, anim_en);
 362:lvgl/src/core/lv_obj_scroll.c ****     lv_obj_scroll_to_y(obj, y, anim_en);
 363:lvgl/src/core/lv_obj_scroll.c **** }
 364:lvgl/src/core/lv_obj_scroll.c **** 
 365:lvgl/src/core/lv_obj_scroll.c **** void lv_obj_scroll_to_x(lv_obj_t * obj, lv_coord_t x, lv_anim_enable_t anim_en)
 366:lvgl/src/core/lv_obj_scroll.c **** {
 367:lvgl/src/core/lv_obj_scroll.c ****     lv_anim_del(obj, scroll_x_anim);
 368:lvgl/src/core/lv_obj_scroll.c **** 
 369:lvgl/src/core/lv_obj_scroll.c ****     lv_coord_t scroll_x = lv_obj_get_scroll_x(obj);
 370:lvgl/src/core/lv_obj_scroll.c ****     lv_coord_t diff = -x + scroll_x;
 371:lvgl/src/core/lv_obj_scroll.c **** 
 372:lvgl/src/core/lv_obj_scroll.c ****     lv_obj_scroll_by_bounded(obj, diff, 0, anim_en);
 373:lvgl/src/core/lv_obj_scroll.c **** }
ARM GAS  C:\usertemp\ccBZVumh.s 			page 8


 374:lvgl/src/core/lv_obj_scroll.c **** 
 375:lvgl/src/core/lv_obj_scroll.c **** void lv_obj_scroll_to_y(lv_obj_t * obj, lv_coord_t y, lv_anim_enable_t anim_en)
 376:lvgl/src/core/lv_obj_scroll.c **** {
 377:lvgl/src/core/lv_obj_scroll.c ****     lv_anim_del(obj, scroll_y_anim);
 378:lvgl/src/core/lv_obj_scroll.c **** 
 379:lvgl/src/core/lv_obj_scroll.c ****     lv_coord_t scroll_y = lv_obj_get_scroll_y(obj);
 380:lvgl/src/core/lv_obj_scroll.c ****     lv_coord_t diff = -y + scroll_y;
 381:lvgl/src/core/lv_obj_scroll.c **** 
 382:lvgl/src/core/lv_obj_scroll.c ****     lv_obj_scroll_by_bounded(obj, 0, diff, anim_en);
 383:lvgl/src/core/lv_obj_scroll.c **** }
 384:lvgl/src/core/lv_obj_scroll.c **** 
 385:lvgl/src/core/lv_obj_scroll.c **** void lv_obj_scroll_to_view(lv_obj_t * obj, lv_anim_enable_t anim_en)
 386:lvgl/src/core/lv_obj_scroll.c **** {
 387:lvgl/src/core/lv_obj_scroll.c ****     /*Be sure the screens layout is correct*/
 388:lvgl/src/core/lv_obj_scroll.c ****     lv_obj_update_layout(obj);
 389:lvgl/src/core/lv_obj_scroll.c **** 
 390:lvgl/src/core/lv_obj_scroll.c ****     lv_point_t p = {0, 0};
 391:lvgl/src/core/lv_obj_scroll.c ****     scroll_area_into_view(&obj->coords, obj, &p, anim_en);
 392:lvgl/src/core/lv_obj_scroll.c **** }
 393:lvgl/src/core/lv_obj_scroll.c **** 
 394:lvgl/src/core/lv_obj_scroll.c **** void lv_obj_scroll_to_view_recursive(lv_obj_t * obj, lv_anim_enable_t anim_en)
 395:lvgl/src/core/lv_obj_scroll.c **** {
 396:lvgl/src/core/lv_obj_scroll.c ****     /*Be sure the screens layout is correct*/
 397:lvgl/src/core/lv_obj_scroll.c ****     lv_obj_update_layout(obj);
 398:lvgl/src/core/lv_obj_scroll.c **** 
 399:lvgl/src/core/lv_obj_scroll.c ****     lv_point_t p = {0, 0};
 400:lvgl/src/core/lv_obj_scroll.c ****     lv_obj_t * child = obj;
 401:lvgl/src/core/lv_obj_scroll.c ****     lv_obj_t * parent = lv_obj_get_parent(child);
 402:lvgl/src/core/lv_obj_scroll.c ****     while(parent) {
 403:lvgl/src/core/lv_obj_scroll.c ****         scroll_area_into_view(&obj->coords, child, &p, anim_en);
 404:lvgl/src/core/lv_obj_scroll.c ****         child = parent;
 405:lvgl/src/core/lv_obj_scroll.c ****         parent = lv_obj_get_parent(parent);
 406:lvgl/src/core/lv_obj_scroll.c ****     }
 407:lvgl/src/core/lv_obj_scroll.c **** }
 408:lvgl/src/core/lv_obj_scroll.c **** 
 409:lvgl/src/core/lv_obj_scroll.c **** bool lv_obj_is_scrolling(const lv_obj_t * obj)
 410:lvgl/src/core/lv_obj_scroll.c **** {
 411:lvgl/src/core/lv_obj_scroll.c ****     lv_indev_t * indev = lv_indev_get_next(NULL);
 412:lvgl/src/core/lv_obj_scroll.c ****     while(indev) {
 413:lvgl/src/core/lv_obj_scroll.c ****         if(lv_indev_get_scroll_obj(indev) == obj) return true;
 414:lvgl/src/core/lv_obj_scroll.c ****         indev = lv_indev_get_next(indev);
 415:lvgl/src/core/lv_obj_scroll.c ****     }
 416:lvgl/src/core/lv_obj_scroll.c **** 
 417:lvgl/src/core/lv_obj_scroll.c ****     return false;
 418:lvgl/src/core/lv_obj_scroll.c **** }
 419:lvgl/src/core/lv_obj_scroll.c **** 
 420:lvgl/src/core/lv_obj_scroll.c **** void lv_obj_update_snap(lv_obj_t * obj, lv_anim_enable_t anim_en)
 421:lvgl/src/core/lv_obj_scroll.c **** {
 422:lvgl/src/core/lv_obj_scroll.c ****     lv_obj_update_layout(obj);
 423:lvgl/src/core/lv_obj_scroll.c ****     lv_point_t p;
 424:lvgl/src/core/lv_obj_scroll.c ****     lv_indev_scroll_get_snap_dist(obj, &p);
 425:lvgl/src/core/lv_obj_scroll.c ****     lv_obj_scroll_by(obj, p.x, p.y, anim_en);
 426:lvgl/src/core/lv_obj_scroll.c **** }
 427:lvgl/src/core/lv_obj_scroll.c **** 
 428:lvgl/src/core/lv_obj_scroll.c **** void lv_obj_get_scrollbar_area(lv_obj_t * obj, lv_area_t * hor_area, lv_area_t * ver_area)
 429:lvgl/src/core/lv_obj_scroll.c **** {
 430:lvgl/src/core/lv_obj_scroll.c ****     lv_area_set(hor_area, 0, 0, -1, -1);
ARM GAS  C:\usertemp\ccBZVumh.s 			page 9


 431:lvgl/src/core/lv_obj_scroll.c ****     lv_area_set(ver_area, 0, 0, -1, -1);
 432:lvgl/src/core/lv_obj_scroll.c **** 
 433:lvgl/src/core/lv_obj_scroll.c ****     if(lv_obj_has_flag(obj, LV_OBJ_FLAG_SCROLLABLE) == false) return;
 434:lvgl/src/core/lv_obj_scroll.c **** 
 435:lvgl/src/core/lv_obj_scroll.c ****     lv_dir_t sm = lv_obj_get_scrollbar_mode(obj);
 436:lvgl/src/core/lv_obj_scroll.c ****     if(sm == LV_SCROLLBAR_MODE_OFF)  return;
 437:lvgl/src/core/lv_obj_scroll.c **** 
 438:lvgl/src/core/lv_obj_scroll.c ****     /*If there is no indev scrolling this object but `mode==active` return*/
 439:lvgl/src/core/lv_obj_scroll.c ****     lv_indev_t * indev = lv_indev_get_next(NULL);
 440:lvgl/src/core/lv_obj_scroll.c ****     if(sm == LV_SCROLLBAR_MODE_ACTIVE) {
 441:lvgl/src/core/lv_obj_scroll.c ****         while(indev) {
 442:lvgl/src/core/lv_obj_scroll.c ****             if(lv_indev_get_scroll_obj(indev) == obj) break;
 443:lvgl/src/core/lv_obj_scroll.c ****             indev = lv_indev_get_next(indev);
 444:lvgl/src/core/lv_obj_scroll.c ****         }
 445:lvgl/src/core/lv_obj_scroll.c ****         if(indev == NULL)  return;
 446:lvgl/src/core/lv_obj_scroll.c ****     }
 447:lvgl/src/core/lv_obj_scroll.c **** 
 448:lvgl/src/core/lv_obj_scroll.c ****     lv_coord_t st = lv_obj_get_scroll_top(obj);
 449:lvgl/src/core/lv_obj_scroll.c ****     lv_coord_t sb = lv_obj_get_scroll_bottom(obj);
 450:lvgl/src/core/lv_obj_scroll.c ****     lv_coord_t sl = lv_obj_get_scroll_left(obj);
 451:lvgl/src/core/lv_obj_scroll.c ****     lv_coord_t sr = lv_obj_get_scroll_right(obj);
 452:lvgl/src/core/lv_obj_scroll.c **** 
 453:lvgl/src/core/lv_obj_scroll.c ****     lv_dir_t dir = lv_obj_get_scroll_dir(obj);
 454:lvgl/src/core/lv_obj_scroll.c **** 
 455:lvgl/src/core/lv_obj_scroll.c ****     bool ver_draw = false;
 456:lvgl/src/core/lv_obj_scroll.c ****     if((dir & LV_DIR_VER) &&
 457:lvgl/src/core/lv_obj_scroll.c ****        ((sm == LV_SCROLLBAR_MODE_ON) ||
 458:lvgl/src/core/lv_obj_scroll.c ****         (sm == LV_SCROLLBAR_MODE_AUTO && (st > 0 || sb > 0)) ||
 459:lvgl/src/core/lv_obj_scroll.c ****         (sm == LV_SCROLLBAR_MODE_ACTIVE && lv_indev_get_scroll_dir(indev) == LV_DIR_VER))) {
 460:lvgl/src/core/lv_obj_scroll.c ****         ver_draw = true;
 461:lvgl/src/core/lv_obj_scroll.c ****     }
 462:lvgl/src/core/lv_obj_scroll.c **** 
 463:lvgl/src/core/lv_obj_scroll.c **** 
 464:lvgl/src/core/lv_obj_scroll.c ****     bool hor_draw = false;
 465:lvgl/src/core/lv_obj_scroll.c ****     if((dir & LV_DIR_HOR) &&
 466:lvgl/src/core/lv_obj_scroll.c ****        ((sm == LV_SCROLLBAR_MODE_ON) ||
 467:lvgl/src/core/lv_obj_scroll.c ****         (sm == LV_SCROLLBAR_MODE_AUTO && (sl > 0 || sr > 0)) ||
 468:lvgl/src/core/lv_obj_scroll.c ****         (sm == LV_SCROLLBAR_MODE_ACTIVE && lv_indev_get_scroll_dir(indev) == LV_DIR_HOR))) {
 469:lvgl/src/core/lv_obj_scroll.c ****         hor_draw = true;
 470:lvgl/src/core/lv_obj_scroll.c ****     }
 471:lvgl/src/core/lv_obj_scroll.c **** 
 472:lvgl/src/core/lv_obj_scroll.c ****     if(!hor_draw && !ver_draw) return;
 473:lvgl/src/core/lv_obj_scroll.c **** 
 474:lvgl/src/core/lv_obj_scroll.c ****     bool rtl = lv_obj_get_style_base_dir(obj, LV_PART_SCROLLBAR) == LV_BASE_DIR_RTL ? true : false;
 475:lvgl/src/core/lv_obj_scroll.c **** 
 476:lvgl/src/core/lv_obj_scroll.c ****     lv_coord_t top_space = lv_obj_get_style_pad_top(obj, LV_PART_SCROLLBAR);
 477:lvgl/src/core/lv_obj_scroll.c ****     lv_coord_t bottom_space = lv_obj_get_style_pad_bottom(obj, LV_PART_SCROLLBAR);
 478:lvgl/src/core/lv_obj_scroll.c ****     lv_coord_t left_space = lv_obj_get_style_pad_left(obj, LV_PART_SCROLLBAR);
 479:lvgl/src/core/lv_obj_scroll.c ****     lv_coord_t right_space = lv_obj_get_style_pad_right(obj, LV_PART_SCROLLBAR);
 480:lvgl/src/core/lv_obj_scroll.c ****     lv_coord_t tickness = lv_obj_get_style_width(obj, LV_PART_SCROLLBAR);
 481:lvgl/src/core/lv_obj_scroll.c **** 
 482:lvgl/src/core/lv_obj_scroll.c ****     lv_coord_t obj_h = lv_obj_get_height(obj);
 483:lvgl/src/core/lv_obj_scroll.c ****     lv_coord_t obj_w = lv_obj_get_width(obj);
 484:lvgl/src/core/lv_obj_scroll.c **** 
 485:lvgl/src/core/lv_obj_scroll.c ****     /*Space required for the vertical and horizontal scrollbars*/
 486:lvgl/src/core/lv_obj_scroll.c ****     lv_coord_t ver_reg_space = ver_draw ? tickness : 0;
 487:lvgl/src/core/lv_obj_scroll.c ****     lv_coord_t hor_req_space = hor_draw ? tickness : 0;
ARM GAS  C:\usertemp\ccBZVumh.s 			page 10


 488:lvgl/src/core/lv_obj_scroll.c ****     lv_coord_t rem;
 489:lvgl/src/core/lv_obj_scroll.c **** 
 490:lvgl/src/core/lv_obj_scroll.c ****     if(lv_obj_get_style_bg_opa(obj, LV_PART_SCROLLBAR) < LV_OPA_MIN &&
 491:lvgl/src/core/lv_obj_scroll.c ****        lv_obj_get_style_border_opa(obj, LV_PART_SCROLLBAR) < LV_OPA_MIN) {
 492:lvgl/src/core/lv_obj_scroll.c ****         return;
 493:lvgl/src/core/lv_obj_scroll.c ****     }
 494:lvgl/src/core/lv_obj_scroll.c **** 
 495:lvgl/src/core/lv_obj_scroll.c ****     /*Draw vertical scrollbar if the mode is ON or can be scrolled in this direction*/
 496:lvgl/src/core/lv_obj_scroll.c ****     lv_coord_t content_h = obj_h + st + sb;
 497:lvgl/src/core/lv_obj_scroll.c ****     if(ver_draw && content_h) {
 498:lvgl/src/core/lv_obj_scroll.c ****         ver_area->y1 = obj->coords.y1;
 499:lvgl/src/core/lv_obj_scroll.c ****         ver_area->y2 = obj->coords.y2;
 500:lvgl/src/core/lv_obj_scroll.c ****         if(rtl) {
 501:lvgl/src/core/lv_obj_scroll.c ****             ver_area->x1 = obj->coords.x1 + left_space;
 502:lvgl/src/core/lv_obj_scroll.c ****             ver_area->x2 = ver_area->x1 + tickness - 1;
 503:lvgl/src/core/lv_obj_scroll.c ****         }
 504:lvgl/src/core/lv_obj_scroll.c ****         else {
 505:lvgl/src/core/lv_obj_scroll.c ****             ver_area->x2 = obj->coords.x2 - right_space;
 506:lvgl/src/core/lv_obj_scroll.c ****             ver_area->x1 = ver_area->x2 - tickness + 1;
 507:lvgl/src/core/lv_obj_scroll.c ****         }
 508:lvgl/src/core/lv_obj_scroll.c **** 
 509:lvgl/src/core/lv_obj_scroll.c ****         lv_coord_t sb_h = ((obj_h - top_space - bottom_space - hor_req_space) * obj_h) / content_h;
 510:lvgl/src/core/lv_obj_scroll.c ****         sb_h = LV_MAX(sb_h, SCROLLBAR_MIN_SIZE);
 511:lvgl/src/core/lv_obj_scroll.c ****         rem = (obj_h - top_space - bottom_space - hor_req_space) -
 512:lvgl/src/core/lv_obj_scroll.c ****               sb_h;  /*Remaining size from the scrollbar track that is not the scrollbar itself*/
 513:lvgl/src/core/lv_obj_scroll.c ****         lv_coord_t scroll_h = content_h - obj_h; /*The size of the content which can be really scro
 514:lvgl/src/core/lv_obj_scroll.c ****         if(scroll_h <= 0) {
 515:lvgl/src/core/lv_obj_scroll.c ****             ver_area->y1 = obj->coords.y1 + top_space;
 516:lvgl/src/core/lv_obj_scroll.c ****             ver_area->y2 = obj->coords.y2 - bottom_space - hor_req_space - 1;
 517:lvgl/src/core/lv_obj_scroll.c ****         }
 518:lvgl/src/core/lv_obj_scroll.c ****         else {
 519:lvgl/src/core/lv_obj_scroll.c ****             lv_coord_t sb_y = (rem * sb) / scroll_h;
 520:lvgl/src/core/lv_obj_scroll.c ****             sb_y = rem - sb_y;
 521:lvgl/src/core/lv_obj_scroll.c **** 
 522:lvgl/src/core/lv_obj_scroll.c ****             ver_area->y1 = obj->coords.y1 + sb_y + top_space;
 523:lvgl/src/core/lv_obj_scroll.c ****             ver_area->y2 = ver_area->y1 + sb_h - 1;
 524:lvgl/src/core/lv_obj_scroll.c ****             if(ver_area->y1 < obj->coords.y1 + top_space) {
 525:lvgl/src/core/lv_obj_scroll.c ****                 ver_area->y1 = obj->coords.y1 + top_space;
 526:lvgl/src/core/lv_obj_scroll.c ****                 if(ver_area->y1 + SCROLLBAR_MIN_SIZE > ver_area->y2) {
 527:lvgl/src/core/lv_obj_scroll.c ****                     ver_area->y2 = ver_area->y1 + SCROLLBAR_MIN_SIZE;
 528:lvgl/src/core/lv_obj_scroll.c ****                 }
 529:lvgl/src/core/lv_obj_scroll.c ****             }
 530:lvgl/src/core/lv_obj_scroll.c ****             if(ver_area->y2 > obj->coords.y2 - hor_req_space - bottom_space) {
 531:lvgl/src/core/lv_obj_scroll.c ****                 ver_area->y2 = obj->coords.y2 - hor_req_space - bottom_space;
 532:lvgl/src/core/lv_obj_scroll.c ****                 if(ver_area->y2 - SCROLLBAR_MIN_SIZE < ver_area->y1) {
 533:lvgl/src/core/lv_obj_scroll.c ****                     ver_area->y1 = ver_area->y2 - SCROLLBAR_MIN_SIZE;
 534:lvgl/src/core/lv_obj_scroll.c ****                 }
 535:lvgl/src/core/lv_obj_scroll.c ****             }
 536:lvgl/src/core/lv_obj_scroll.c ****         }
 537:lvgl/src/core/lv_obj_scroll.c ****     }
 538:lvgl/src/core/lv_obj_scroll.c **** 
 539:lvgl/src/core/lv_obj_scroll.c ****     /*Draw horizontal scrollbar if the mode is ON or can be scrolled in this direction*/
 540:lvgl/src/core/lv_obj_scroll.c ****     lv_coord_t content_w = obj_w + sl + sr;
 541:lvgl/src/core/lv_obj_scroll.c ****     if(hor_draw && content_w) {
 542:lvgl/src/core/lv_obj_scroll.c ****         hor_area->y2 = obj->coords.y2 - bottom_space;
 543:lvgl/src/core/lv_obj_scroll.c ****         hor_area->y1 = hor_area->y2 - tickness + 1;
 544:lvgl/src/core/lv_obj_scroll.c ****         hor_area->x1 = obj->coords.x1;
ARM GAS  C:\usertemp\ccBZVumh.s 			page 11


 545:lvgl/src/core/lv_obj_scroll.c ****         hor_area->x2 = obj->coords.x2;
 546:lvgl/src/core/lv_obj_scroll.c **** 
 547:lvgl/src/core/lv_obj_scroll.c ****         lv_coord_t sb_w = ((obj_w - left_space - right_space - ver_reg_space) * obj_w) / content_w;
 548:lvgl/src/core/lv_obj_scroll.c ****         sb_w = LV_MAX(sb_w, SCROLLBAR_MIN_SIZE);
 549:lvgl/src/core/lv_obj_scroll.c ****         rem = (obj_w - left_space - right_space - ver_reg_space) -
 550:lvgl/src/core/lv_obj_scroll.c ****               sb_w;  /*Remaining size from the scrollbar track that is not the scrollbar itself*/
 551:lvgl/src/core/lv_obj_scroll.c ****         lv_coord_t scroll_w = content_w - obj_w; /*The size of the content which can be really scro
 552:lvgl/src/core/lv_obj_scroll.c ****         if(scroll_w <= 0) {
 553:lvgl/src/core/lv_obj_scroll.c ****             if(rtl) {
 554:lvgl/src/core/lv_obj_scroll.c ****                 hor_area->x1 = obj->coords.x1 + left_space + ver_reg_space - 1;
 555:lvgl/src/core/lv_obj_scroll.c ****                 hor_area->x2 = obj->coords.x2 - right_space;
 556:lvgl/src/core/lv_obj_scroll.c ****             }
 557:lvgl/src/core/lv_obj_scroll.c ****             else {
 558:lvgl/src/core/lv_obj_scroll.c ****                 hor_area->x1 = obj->coords.x1 + left_space;
 559:lvgl/src/core/lv_obj_scroll.c ****                 hor_area->x2 = obj->coords.x2 - right_space - ver_reg_space - 1;
 560:lvgl/src/core/lv_obj_scroll.c ****             }
 561:lvgl/src/core/lv_obj_scroll.c ****         }
 562:lvgl/src/core/lv_obj_scroll.c ****         else {
 563:lvgl/src/core/lv_obj_scroll.c ****             lv_coord_t sb_x = (rem * sr) / scroll_w;
 564:lvgl/src/core/lv_obj_scroll.c ****             sb_x = rem - sb_x;
 565:lvgl/src/core/lv_obj_scroll.c **** 
 566:lvgl/src/core/lv_obj_scroll.c ****             if(rtl) {
 567:lvgl/src/core/lv_obj_scroll.c ****                 hor_area->x1 = obj->coords.x1 + sb_x + left_space + ver_reg_space;
 568:lvgl/src/core/lv_obj_scroll.c ****                 hor_area->x2 = hor_area->x1 + sb_w - 1;
 569:lvgl/src/core/lv_obj_scroll.c ****                 if(hor_area->x1 < obj->coords.x1 + left_space + ver_reg_space) {
 570:lvgl/src/core/lv_obj_scroll.c ****                     hor_area->x1 = obj->coords.x1 + left_space + ver_reg_space;
 571:lvgl/src/core/lv_obj_scroll.c ****                     if(hor_area->x1 + SCROLLBAR_MIN_SIZE > hor_area->x2) {
 572:lvgl/src/core/lv_obj_scroll.c ****                         hor_area->x2 = hor_area->x1 + SCROLLBAR_MIN_SIZE;
 573:lvgl/src/core/lv_obj_scroll.c ****                     }
 574:lvgl/src/core/lv_obj_scroll.c ****                 }
 575:lvgl/src/core/lv_obj_scroll.c ****                 if(hor_area->x2 > obj->coords.x2 - right_space) {
 576:lvgl/src/core/lv_obj_scroll.c ****                     hor_area->x2 = obj->coords.x2 - right_space;
 577:lvgl/src/core/lv_obj_scroll.c ****                     if(hor_area->x2 - SCROLLBAR_MIN_SIZE < hor_area->x1) {
 578:lvgl/src/core/lv_obj_scroll.c ****                         hor_area->x1 = hor_area->x2 - SCROLLBAR_MIN_SIZE;
 579:lvgl/src/core/lv_obj_scroll.c ****                     }
 580:lvgl/src/core/lv_obj_scroll.c ****                 }
 581:lvgl/src/core/lv_obj_scroll.c ****             }
 582:lvgl/src/core/lv_obj_scroll.c ****             else {
 583:lvgl/src/core/lv_obj_scroll.c ****                 hor_area->x1 = obj->coords.x1 + sb_x + left_space;
 584:lvgl/src/core/lv_obj_scroll.c ****                 hor_area->x2 = hor_area->x1 + sb_w - 1;
 585:lvgl/src/core/lv_obj_scroll.c ****                 if(hor_area->x1 < obj->coords.x1 + left_space) {
 586:lvgl/src/core/lv_obj_scroll.c ****                     hor_area->x1 = obj->coords.x1 + left_space;
 587:lvgl/src/core/lv_obj_scroll.c ****                     if(hor_area->x1 + SCROLLBAR_MIN_SIZE > hor_area->x2) {
 588:lvgl/src/core/lv_obj_scroll.c ****                         hor_area->x2 = hor_area->x1 + SCROLLBAR_MIN_SIZE;
 589:lvgl/src/core/lv_obj_scroll.c ****                     }
 590:lvgl/src/core/lv_obj_scroll.c ****                 }
 591:lvgl/src/core/lv_obj_scroll.c ****                 if(hor_area->x2 > obj->coords.x2 - ver_reg_space - right_space) {
 592:lvgl/src/core/lv_obj_scroll.c ****                     hor_area->x2 = obj->coords.x2 - ver_reg_space - right_space;
 593:lvgl/src/core/lv_obj_scroll.c ****                     if(hor_area->x2 - SCROLLBAR_MIN_SIZE < hor_area->x1) {
 594:lvgl/src/core/lv_obj_scroll.c ****                         hor_area->x1 = hor_area->x2 - SCROLLBAR_MIN_SIZE;
 595:lvgl/src/core/lv_obj_scroll.c ****                     }
 596:lvgl/src/core/lv_obj_scroll.c ****                 }
 597:lvgl/src/core/lv_obj_scroll.c ****             }
 598:lvgl/src/core/lv_obj_scroll.c ****         }
 599:lvgl/src/core/lv_obj_scroll.c ****     }
 600:lvgl/src/core/lv_obj_scroll.c **** }
 601:lvgl/src/core/lv_obj_scroll.c **** 
ARM GAS  C:\usertemp\ccBZVumh.s 			page 12


 602:lvgl/src/core/lv_obj_scroll.c **** void lv_obj_scrollbar_invalidate(lv_obj_t * obj)
 603:lvgl/src/core/lv_obj_scroll.c **** {
 604:lvgl/src/core/lv_obj_scroll.c ****     lv_area_t hor_area;
 605:lvgl/src/core/lv_obj_scroll.c ****     lv_area_t ver_area;
 606:lvgl/src/core/lv_obj_scroll.c ****     lv_obj_get_scrollbar_area(obj, &hor_area, &ver_area);
 607:lvgl/src/core/lv_obj_scroll.c **** 
 608:lvgl/src/core/lv_obj_scroll.c ****     if(lv_area_get_size(&hor_area) <= 0 && lv_area_get_size(&ver_area) <= 0) return;
 609:lvgl/src/core/lv_obj_scroll.c **** 
 610:lvgl/src/core/lv_obj_scroll.c ****     if(lv_area_get_size(&hor_area) > 0) lv_obj_invalidate_area(obj, &hor_area);
 611:lvgl/src/core/lv_obj_scroll.c ****     if(lv_area_get_size(&ver_area) > 0) lv_obj_invalidate_area(obj, &ver_area);
 612:lvgl/src/core/lv_obj_scroll.c **** }
 613:lvgl/src/core/lv_obj_scroll.c **** 
 614:lvgl/src/core/lv_obj_scroll.c **** void lv_obj_readjust_scroll(lv_obj_t * obj, lv_anim_enable_t anim_en)
 615:lvgl/src/core/lv_obj_scroll.c **** {
 616:lvgl/src/core/lv_obj_scroll.c ****     /*Be sure the bottom side is not remains scrolled in*/
 617:lvgl/src/core/lv_obj_scroll.c ****     /*With snapping the content can't be scrolled in*/
 618:lvgl/src/core/lv_obj_scroll.c ****     if(lv_obj_get_scroll_snap_y(obj) == LV_SCROLL_SNAP_NONE) {
 619:lvgl/src/core/lv_obj_scroll.c ****         lv_coord_t st = lv_obj_get_scroll_top(obj);
 620:lvgl/src/core/lv_obj_scroll.c ****         lv_coord_t sb = lv_obj_get_scroll_bottom(obj);
 621:lvgl/src/core/lv_obj_scroll.c ****         if(sb < 0 && st > 0) {
 622:lvgl/src/core/lv_obj_scroll.c ****             sb = LV_MIN(st, -sb);
 623:lvgl/src/core/lv_obj_scroll.c ****             lv_obj_scroll_by(obj, 0, sb, anim_en);
 624:lvgl/src/core/lv_obj_scroll.c ****         }
 625:lvgl/src/core/lv_obj_scroll.c ****     }
 626:lvgl/src/core/lv_obj_scroll.c **** 
 627:lvgl/src/core/lv_obj_scroll.c ****     if(lv_obj_get_scroll_snap_x(obj) == LV_SCROLL_SNAP_NONE) {
 628:lvgl/src/core/lv_obj_scroll.c ****         lv_coord_t sl = lv_obj_get_scroll_left(obj);
 629:lvgl/src/core/lv_obj_scroll.c ****         lv_coord_t sr = lv_obj_get_scroll_right(obj);
 630:lvgl/src/core/lv_obj_scroll.c ****         if(lv_obj_get_style_base_dir(obj, LV_PART_MAIN) != LV_BASE_DIR_RTL) {
 631:lvgl/src/core/lv_obj_scroll.c ****             /*Be sure the left side is not remains scrolled in*/
 632:lvgl/src/core/lv_obj_scroll.c ****             if(sr < 0 && sl > 0) {
 633:lvgl/src/core/lv_obj_scroll.c ****                 sr = LV_MIN(sl, -sr);
 634:lvgl/src/core/lv_obj_scroll.c ****                 lv_obj_scroll_by(obj, sr, 0, anim_en);
 635:lvgl/src/core/lv_obj_scroll.c ****             }
 636:lvgl/src/core/lv_obj_scroll.c ****         }
 637:lvgl/src/core/lv_obj_scroll.c ****         else {
 638:lvgl/src/core/lv_obj_scroll.c ****             /*Be sure the right side is not remains scrolled in*/
 639:lvgl/src/core/lv_obj_scroll.c ****             if(sl < 0 && sr > 0) {
 640:lvgl/src/core/lv_obj_scroll.c ****                 sr = LV_MIN(sr, -sl);
 641:lvgl/src/core/lv_obj_scroll.c ****                 lv_obj_scroll_by(obj, sl, 0, anim_en);
 642:lvgl/src/core/lv_obj_scroll.c ****             }
 643:lvgl/src/core/lv_obj_scroll.c ****         }
 644:lvgl/src/core/lv_obj_scroll.c ****     }
 645:lvgl/src/core/lv_obj_scroll.c **** }
 646:lvgl/src/core/lv_obj_scroll.c **** 
 647:lvgl/src/core/lv_obj_scroll.c **** /**********************
 648:lvgl/src/core/lv_obj_scroll.c ****  *   STATIC FUNCTIONS
 649:lvgl/src/core/lv_obj_scroll.c ****  **********************/
 650:lvgl/src/core/lv_obj_scroll.c **** 
 651:lvgl/src/core/lv_obj_scroll.c **** static void scroll_by_raw(lv_obj_t * obj, lv_coord_t x, lv_coord_t y)
 652:lvgl/src/core/lv_obj_scroll.c **** {
  28              		.loc 1 652 1 view -0
  29              		.cfi_startproc
  30              		@ args = 0, pretend = 0, frame = 0
  31              		@ frame_needed = 0, uses_anonymous_args = 0
 653:lvgl/src/core/lv_obj_scroll.c ****     if(x == 0 && y == 0) return;
  32              		.loc 1 653 5 view .LVU1
ARM GAS  C:\usertemp\ccBZVumh.s 			page 13


  33              		.loc 1 653 7 is_stmt 0 view .LVU2
  34 0000 51EA0203 		orrs	r3, r1, r2
  35 0004 00D1     		bne	.L7
  36 0006 7047     		bx	lr
  37              	.L7:
 652:lvgl/src/core/lv_obj_scroll.c ****     if(x == 0 && y == 0) return;
  38              		.loc 1 652 1 view .LVU3
  39 0008 70B5     		push	{r4, r5, r6, lr}
  40              	.LCFI0:
  41              		.cfi_def_cfa_offset 16
  42              		.cfi_offset 4, -16
  43              		.cfi_offset 5, -12
  44              		.cfi_offset 6, -8
  45              		.cfi_offset 14, -4
  46 000a 0446     		mov	r4, r0
  47 000c 0D46     		mov	r5, r1
  48 000e 1646     		mov	r6, r2
 654:lvgl/src/core/lv_obj_scroll.c **** 
 655:lvgl/src/core/lv_obj_scroll.c ****     lv_obj_allocate_spec_attr(obj);
  49              		.loc 1 655 5 is_stmt 1 view .LVU4
  50 0010 FFF7FEFF 		bl	lv_obj_allocate_spec_attr
  51              	.LVL1:
 656:lvgl/src/core/lv_obj_scroll.c **** 
 657:lvgl/src/core/lv_obj_scroll.c ****     obj->spec_attr->scroll.x += x;
  52              		.loc 1 657 5 view .LVU5
  53              		.loc 1 657 8 is_stmt 0 view .LVU6
  54 0014 A268     		ldr	r2, [r4, #8]
  55              		.loc 1 657 27 view .LVU7
  56 0016 138A     		ldrh	r3, [r2, #16]
  57              		.loc 1 657 30 view .LVU8
  58 0018 2B44     		add	r3, r3, r5
  59 001a 1382     		strh	r3, [r2, #16]	@ movhi
 658:lvgl/src/core/lv_obj_scroll.c ****     obj->spec_attr->scroll.y += y;
  60              		.loc 1 658 5 is_stmt 1 view .LVU9
  61              		.loc 1 658 8 is_stmt 0 view .LVU10
  62 001c A268     		ldr	r2, [r4, #8]
  63              		.loc 1 658 27 view .LVU11
  64 001e 538A     		ldrh	r3, [r2, #18]
  65              		.loc 1 658 30 view .LVU12
  66 0020 3344     		add	r3, r3, r6
  67 0022 5382     		strh	r3, [r2, #18]	@ movhi
 659:lvgl/src/core/lv_obj_scroll.c **** 
 660:lvgl/src/core/lv_obj_scroll.c ****     lv_obj_move_children_by(obj, x, y, true);
  68              		.loc 1 660 5 is_stmt 1 view .LVU13
  69 0024 0123     		movs	r3, #1
  70 0026 3246     		mov	r2, r6
  71 0028 2946     		mov	r1, r5
  72 002a 2046     		mov	r0, r4
  73 002c FFF7FEFF 		bl	lv_obj_move_children_by
  74              	.LVL2:
 661:lvgl/src/core/lv_obj_scroll.c ****     lv_res_t res = lv_event_send(obj, LV_EVENT_SCROLL, NULL);
  75              		.loc 1 661 5 view .LVU14
  76              		.loc 1 661 20 is_stmt 0 view .LVU15
  77 0030 0022     		movs	r2, #0
  78 0032 0B21     		movs	r1, #11
  79 0034 2046     		mov	r0, r4
  80 0036 FFF7FEFF 		bl	lv_event_send
ARM GAS  C:\usertemp\ccBZVumh.s 			page 14


  81              	.LVL3:
 662:lvgl/src/core/lv_obj_scroll.c ****     if(res != LV_RES_OK) return;
  82              		.loc 1 662 5 is_stmt 1 view .LVU16
  83              		.loc 1 662 7 is_stmt 0 view .LVU17
  84 003a 0128     		cmp	r0, #1
  85 003c 00D0     		beq	.L8
  86              	.LVL4:
  87              	.L1:
 663:lvgl/src/core/lv_obj_scroll.c ****     lv_obj_invalidate(obj);
 664:lvgl/src/core/lv_obj_scroll.c **** }
  88              		.loc 1 664 1 view .LVU18
  89 003e 70BD     		pop	{r4, r5, r6, pc}
  90              	.LVL5:
  91              	.L8:
 663:lvgl/src/core/lv_obj_scroll.c ****     lv_obj_invalidate(obj);
  92              		.loc 1 663 5 is_stmt 1 view .LVU19
  93 0040 2046     		mov	r0, r4
  94              	.LVL6:
 663:lvgl/src/core/lv_obj_scroll.c ****     lv_obj_invalidate(obj);
  95              		.loc 1 663 5 is_stmt 0 view .LVU20
  96 0042 FFF7FEFF 		bl	lv_obj_invalidate
  97              	.LVL7:
  98 0046 FAE7     		b	.L1
  99              		.cfi_endproc
 100              	.LFE189:
 102              		.section	.text.scroll_anim_ready_cb,"ax",%progbits
 103              		.align	1
 104              		.syntax unified
 105              		.thumb
 106              		.thumb_func
 108              	scroll_anim_ready_cb:
 109              	.LVL8:
 110              	.LFB192:
 665:lvgl/src/core/lv_obj_scroll.c **** 
 666:lvgl/src/core/lv_obj_scroll.c **** static void scroll_x_anim(void * obj, int32_t v)
 667:lvgl/src/core/lv_obj_scroll.c **** {
 668:lvgl/src/core/lv_obj_scroll.c ****     scroll_by_raw(obj, v + lv_obj_get_scroll_x(obj), 0);
 669:lvgl/src/core/lv_obj_scroll.c **** }
 670:lvgl/src/core/lv_obj_scroll.c **** 
 671:lvgl/src/core/lv_obj_scroll.c **** static void scroll_y_anim(void * obj, int32_t v)
 672:lvgl/src/core/lv_obj_scroll.c **** {
 673:lvgl/src/core/lv_obj_scroll.c ****     scroll_by_raw(obj, 0, v + lv_obj_get_scroll_y(obj));
 674:lvgl/src/core/lv_obj_scroll.c **** }
 675:lvgl/src/core/lv_obj_scroll.c **** 
 676:lvgl/src/core/lv_obj_scroll.c **** static void scroll_anim_ready_cb(lv_anim_t * a)
 677:lvgl/src/core/lv_obj_scroll.c **** {
 111              		.loc 1 677 1 is_stmt 1 view -0
 112              		.cfi_startproc
 113              		@ args = 0, pretend = 0, frame = 0
 114              		@ frame_needed = 0, uses_anonymous_args = 0
 115              		.loc 1 677 1 is_stmt 0 view .LVU22
 116 0000 08B5     		push	{r3, lr}
 117              	.LCFI1:
 118              		.cfi_def_cfa_offset 8
 119              		.cfi_offset 3, -8
 120              		.cfi_offset 14, -4
 678:lvgl/src/core/lv_obj_scroll.c ****     lv_event_send(a->var, LV_EVENT_SCROLL_END, NULL);
ARM GAS  C:\usertemp\ccBZVumh.s 			page 15


 121              		.loc 1 678 5 is_stmt 1 view .LVU23
 122 0002 0022     		movs	r2, #0
 123 0004 0A21     		movs	r1, #10
 124 0006 0068     		ldr	r0, [r0]
 125              	.LVL9:
 126              		.loc 1 678 5 is_stmt 0 view .LVU24
 127 0008 FFF7FEFF 		bl	lv_event_send
 128              	.LVL10:
 679:lvgl/src/core/lv_obj_scroll.c **** }
 129              		.loc 1 679 1 view .LVU25
 130 000c 08BD     		pop	{r3, pc}
 131              		.cfi_endproc
 132              	.LFE192:
 134              		.section	.text.lv_obj_set_scrollbar_mode,"ax",%progbits
 135              		.align	1
 136              		.global	lv_obj_set_scrollbar_mode
 137              		.syntax unified
 138              		.thumb
 139              		.thumb_func
 141              	lv_obj_set_scrollbar_mode:
 142              	.LVL11:
 143              	.LFB162:
  58:lvgl/src/core/lv_obj_scroll.c ****     LV_ASSERT_OBJ(obj, MY_CLASS);
 144              		.loc 1 58 1 is_stmt 1 view -0
 145              		.cfi_startproc
 146              		@ args = 0, pretend = 0, frame = 0
 147              		@ frame_needed = 0, uses_anonymous_args = 0
  58:lvgl/src/core/lv_obj_scroll.c ****     LV_ASSERT_OBJ(obj, MY_CLASS);
 148              		.loc 1 58 1 is_stmt 0 view .LVU27
 149 0000 38B5     		push	{r3, r4, r5, lr}
 150              	.LCFI2:
 151              		.cfi_def_cfa_offset 16
 152              		.cfi_offset 3, -16
 153              		.cfi_offset 4, -12
 154              		.cfi_offset 5, -8
 155              		.cfi_offset 14, -4
 156 0002 0446     		mov	r4, r0
 157 0004 0D46     		mov	r5, r1
  59:lvgl/src/core/lv_obj_scroll.c **** 
 158              		.loc 1 59 5 is_stmt 1 view .LVU28
  59:lvgl/src/core/lv_obj_scroll.c **** 
 159              		.loc 1 59 5 view .LVU29
  59:lvgl/src/core/lv_obj_scroll.c **** 
 160              		.loc 1 59 5 view .LVU30
  61:lvgl/src/core/lv_obj_scroll.c **** 
 161              		.loc 1 61 5 view .LVU31
 162 0006 FFF7FEFF 		bl	lv_obj_allocate_spec_attr
 163              	.LVL12:
  63:lvgl/src/core/lv_obj_scroll.c ****     obj->spec_attr->scrollbar_mode = mode;
 164              		.loc 1 63 5 view .LVU32
  63:lvgl/src/core/lv_obj_scroll.c ****     obj->spec_attr->scrollbar_mode = mode;
 165              		.loc 1 63 11 is_stmt 0 view .LVU33
 166 000a A268     		ldr	r2, [r4, #8]
  63:lvgl/src/core/lv_obj_scroll.c ****     obj->spec_attr->scrollbar_mode = mode;
 167              		.loc 1 63 22 view .LVU34
 168 000c 137E     		ldrb	r3, [r2, #24]	@ zero_extendqisi2
 169 000e 03F00303 		and	r3, r3, #3
ARM GAS  C:\usertemp\ccBZVumh.s 			page 16


  63:lvgl/src/core/lv_obj_scroll.c ****     obj->spec_attr->scrollbar_mode = mode;
 170              		.loc 1 63 7 view .LVU35
 171 0012 AB42     		cmp	r3, r5
 172 0014 06D0     		beq	.L11
  64:lvgl/src/core/lv_obj_scroll.c ****     lv_obj_invalidate(obj);
 173              		.loc 1 64 5 is_stmt 1 view .LVU36
  64:lvgl/src/core/lv_obj_scroll.c ****     lv_obj_invalidate(obj);
 174              		.loc 1 64 36 is_stmt 0 view .LVU37
 175 0016 137E     		ldrb	r3, [r2, #24]	@ zero_extendqisi2
 176 0018 65F30103 		bfi	r3, r5, #0, #2
 177 001c 1376     		strb	r3, [r2, #24]
  65:lvgl/src/core/lv_obj_scroll.c **** }
 178              		.loc 1 65 5 is_stmt 1 view .LVU38
 179 001e 2046     		mov	r0, r4
 180 0020 FFF7FEFF 		bl	lv_obj_invalidate
 181              	.LVL13:
 182              	.L11:
  66:lvgl/src/core/lv_obj_scroll.c **** 
 183              		.loc 1 66 1 is_stmt 0 view .LVU39
 184 0024 38BD     		pop	{r3, r4, r5, pc}
  66:lvgl/src/core/lv_obj_scroll.c **** 
 185              		.loc 1 66 1 view .LVU40
 186              		.cfi_endproc
 187              	.LFE162:
 189              		.section	.text.lv_obj_set_scroll_dir,"ax",%progbits
 190              		.align	1
 191              		.global	lv_obj_set_scroll_dir
 192              		.syntax unified
 193              		.thumb
 194              		.thumb_func
 196              	lv_obj_set_scroll_dir:
 197              	.LVL14:
 198              	.LFB163:
  69:lvgl/src/core/lv_obj_scroll.c ****     lv_obj_allocate_spec_attr(obj);
 199              		.loc 1 69 1 is_stmt 1 view -0
 200              		.cfi_startproc
 201              		@ args = 0, pretend = 0, frame = 0
 202              		@ frame_needed = 0, uses_anonymous_args = 0
  69:lvgl/src/core/lv_obj_scroll.c ****     lv_obj_allocate_spec_attr(obj);
 203              		.loc 1 69 1 is_stmt 0 view .LVU42
 204 0000 38B5     		push	{r3, r4, r5, lr}
 205              	.LCFI3:
 206              		.cfi_def_cfa_offset 16
 207              		.cfi_offset 3, -16
 208              		.cfi_offset 4, -12
 209              		.cfi_offset 5, -8
 210              		.cfi_offset 14, -4
 211 0002 0546     		mov	r5, r0
 212 0004 0C46     		mov	r4, r1
  70:lvgl/src/core/lv_obj_scroll.c **** 
 213              		.loc 1 70 5 is_stmt 1 view .LVU43
 214 0006 FFF7FEFF 		bl	lv_obj_allocate_spec_attr
 215              	.LVL15:
  72:lvgl/src/core/lv_obj_scroll.c ****         obj->spec_attr->scroll_dir = dir;
 216              		.loc 1 72 5 view .LVU44
  72:lvgl/src/core/lv_obj_scroll.c ****         obj->spec_attr->scroll_dir = dir;
 217              		.loc 1 72 18 is_stmt 0 view .LVU45
ARM GAS  C:\usertemp\ccBZVumh.s 			page 17


 218 000a AA68     		ldr	r2, [r5, #8]
  72:lvgl/src/core/lv_obj_scroll.c ****         obj->spec_attr->scroll_dir = dir;
 219              		.loc 1 72 29 view .LVU46
 220 000c 537E     		ldrb	r3, [r2, #25]	@ zero_extendqisi2
 221 000e 03F00F03 		and	r3, r3, #15
  72:lvgl/src/core/lv_obj_scroll.c ****         obj->spec_attr->scroll_dir = dir;
 222              		.loc 1 72 7 view .LVU47
 223 0012 A342     		cmp	r3, r4
 224 0014 03D0     		beq	.L14
  73:lvgl/src/core/lv_obj_scroll.c ****     }
 225              		.loc 1 73 9 is_stmt 1 view .LVU48
  73:lvgl/src/core/lv_obj_scroll.c ****     }
 226              		.loc 1 73 36 is_stmt 0 view .LVU49
 227 0016 537E     		ldrb	r3, [r2, #25]	@ zero_extendqisi2
 228 0018 64F30303 		bfi	r3, r4, #0, #4
 229              	.LVL16:
  73:lvgl/src/core/lv_obj_scroll.c ****     }
 230              		.loc 1 73 36 view .LVU50
 231 001c 5376     		strb	r3, [r2, #25]
 232              	.L14:
  75:lvgl/src/core/lv_obj_scroll.c **** 
 233              		.loc 1 75 1 view .LVU51
 234 001e 38BD     		pop	{r3, r4, r5, pc}
  75:lvgl/src/core/lv_obj_scroll.c **** 
 235              		.loc 1 75 1 view .LVU52
 236              		.cfi_endproc
 237              	.LFE163:
 239              		.section	.text.lv_obj_set_scroll_snap_x,"ax",%progbits
 240              		.align	1
 241              		.global	lv_obj_set_scroll_snap_x
 242              		.syntax unified
 243              		.thumb
 244              		.thumb_func
 246              	lv_obj_set_scroll_snap_x:
 247              	.LVL17:
 248              	.LFB164:
  78:lvgl/src/core/lv_obj_scroll.c ****     lv_obj_allocate_spec_attr(obj);
 249              		.loc 1 78 1 is_stmt 1 view -0
 250              		.cfi_startproc
 251              		@ args = 0, pretend = 0, frame = 0
 252              		@ frame_needed = 0, uses_anonymous_args = 0
  78:lvgl/src/core/lv_obj_scroll.c ****     lv_obj_allocate_spec_attr(obj);
 253              		.loc 1 78 1 is_stmt 0 view .LVU54
 254 0000 38B5     		push	{r3, r4, r5, lr}
 255              	.LCFI4:
 256              		.cfi_def_cfa_offset 16
 257              		.cfi_offset 3, -16
 258              		.cfi_offset 4, -12
 259              		.cfi_offset 5, -8
 260              		.cfi_offset 14, -4
 261 0002 0546     		mov	r5, r0
 262 0004 0C46     		mov	r4, r1
  79:lvgl/src/core/lv_obj_scroll.c ****     obj->spec_attr->scroll_snap_x = align;
 263              		.loc 1 79 5 is_stmt 1 view .LVU55
 264 0006 FFF7FEFF 		bl	lv_obj_allocate_spec_attr
 265              	.LVL18:
  80:lvgl/src/core/lv_obj_scroll.c **** }
ARM GAS  C:\usertemp\ccBZVumh.s 			page 18


 266              		.loc 1 80 5 view .LVU56
  80:lvgl/src/core/lv_obj_scroll.c **** }
 267              		.loc 1 80 8 is_stmt 0 view .LVU57
 268 000a AB68     		ldr	r3, [r5, #8]
  80:lvgl/src/core/lv_obj_scroll.c **** }
 269              		.loc 1 80 35 view .LVU58
 270 000c 1A7E     		ldrb	r2, [r3, #24]	@ zero_extendqisi2
 271 000e 64F38302 		bfi	r2, r4, #2, #2
 272 0012 1A76     		strb	r2, [r3, #24]
  81:lvgl/src/core/lv_obj_scroll.c **** 
 273              		.loc 1 81 1 view .LVU59
 274 0014 38BD     		pop	{r3, r4, r5, pc}
  81:lvgl/src/core/lv_obj_scroll.c **** 
 275              		.loc 1 81 1 view .LVU60
 276              		.cfi_endproc
 277              	.LFE164:
 279              		.section	.text.lv_obj_set_scroll_snap_y,"ax",%progbits
 280              		.align	1
 281              		.global	lv_obj_set_scroll_snap_y
 282              		.syntax unified
 283              		.thumb
 284              		.thumb_func
 286              	lv_obj_set_scroll_snap_y:
 287              	.LVL19:
 288              	.LFB165:
  84:lvgl/src/core/lv_obj_scroll.c ****     lv_obj_allocate_spec_attr(obj);
 289              		.loc 1 84 1 is_stmt 1 view -0
 290              		.cfi_startproc
 291              		@ args = 0, pretend = 0, frame = 0
 292              		@ frame_needed = 0, uses_anonymous_args = 0
  84:lvgl/src/core/lv_obj_scroll.c ****     lv_obj_allocate_spec_attr(obj);
 293              		.loc 1 84 1 is_stmt 0 view .LVU62
 294 0000 38B5     		push	{r3, r4, r5, lr}
 295              	.LCFI5:
 296              		.cfi_def_cfa_offset 16
 297              		.cfi_offset 3, -16
 298              		.cfi_offset 4, -12
 299              		.cfi_offset 5, -8
 300              		.cfi_offset 14, -4
 301 0002 0546     		mov	r5, r0
 302 0004 0C46     		mov	r4, r1
  85:lvgl/src/core/lv_obj_scroll.c ****     obj->spec_attr->scroll_snap_y = align;
 303              		.loc 1 85 5 is_stmt 1 view .LVU63
 304 0006 FFF7FEFF 		bl	lv_obj_allocate_spec_attr
 305              	.LVL20:
  86:lvgl/src/core/lv_obj_scroll.c **** }
 306              		.loc 1 86 5 view .LVU64
  86:lvgl/src/core/lv_obj_scroll.c **** }
 307              		.loc 1 86 8 is_stmt 0 view .LVU65
 308 000a AB68     		ldr	r3, [r5, #8]
  86:lvgl/src/core/lv_obj_scroll.c **** }
 309              		.loc 1 86 35 view .LVU66
 310 000c 1A7E     		ldrb	r2, [r3, #24]	@ zero_extendqisi2
 311 000e 64F30512 		bfi	r2, r4, #4, #2
 312 0012 1A76     		strb	r2, [r3, #24]
  87:lvgl/src/core/lv_obj_scroll.c **** 
 313              		.loc 1 87 1 view .LVU67
ARM GAS  C:\usertemp\ccBZVumh.s 			page 19


 314 0014 38BD     		pop	{r3, r4, r5, pc}
  87:lvgl/src/core/lv_obj_scroll.c **** 
 315              		.loc 1 87 1 view .LVU68
 316              		.cfi_endproc
 317              	.LFE165:
 319              		.section	.text.lv_obj_get_scrollbar_mode,"ax",%progbits
 320              		.align	1
 321              		.global	lv_obj_get_scrollbar_mode
 322              		.syntax unified
 323              		.thumb
 324              		.thumb_func
 326              	lv_obj_get_scrollbar_mode:
 327              	.LVL21:
 328              	.LFB166:
  94:lvgl/src/core/lv_obj_scroll.c ****     if(obj->spec_attr) return obj->spec_attr->scrollbar_mode;
 329              		.loc 1 94 1 is_stmt 1 view -0
 330              		.cfi_startproc
 331              		@ args = 0, pretend = 0, frame = 0
 332              		@ frame_needed = 0, uses_anonymous_args = 0
 333              		@ link register save eliminated.
  95:lvgl/src/core/lv_obj_scroll.c ****     else return LV_SCROLLBAR_MODE_AUTO;
 334              		.loc 1 95 5 view .LVU70
  95:lvgl/src/core/lv_obj_scroll.c ****     else return LV_SCROLLBAR_MODE_AUTO;
 335              		.loc 1 95 11 is_stmt 0 view .LVU71
 336 0000 8368     		ldr	r3, [r0, #8]
  95:lvgl/src/core/lv_obj_scroll.c ****     else return LV_SCROLLBAR_MODE_AUTO;
 337              		.loc 1 95 7 view .LVU72
 338 0002 1BB1     		cbz	r3, .L23
  95:lvgl/src/core/lv_obj_scroll.c ****     else return LV_SCROLLBAR_MODE_AUTO;
 339              		.loc 1 95 24 is_stmt 1 discriminator 1 view .LVU73
  95:lvgl/src/core/lv_obj_scroll.c ****     else return LV_SCROLLBAR_MODE_AUTO;
 340              		.loc 1 95 45 is_stmt 0 discriminator 1 view .LVU74
 341 0004 187E     		ldrb	r0, [r3, #24]	@ zero_extendqisi2
 342              	.LVL22:
  95:lvgl/src/core/lv_obj_scroll.c ****     else return LV_SCROLLBAR_MODE_AUTO;
 343              		.loc 1 95 45 discriminator 1 view .LVU75
 344 0006 00F00300 		and	r0, r0, #3
  95:lvgl/src/core/lv_obj_scroll.c ****     else return LV_SCROLLBAR_MODE_AUTO;
 345              		.loc 1 95 45 view .LVU76
 346 000a 7047     		bx	lr
 347              	.LVL23:
 348              	.L23:
  96:lvgl/src/core/lv_obj_scroll.c **** }
 349              		.loc 1 96 17 view .LVU77
 350 000c 0320     		movs	r0, #3
 351              	.LVL24:
  97:lvgl/src/core/lv_obj_scroll.c **** 
 352              		.loc 1 97 1 view .LVU78
 353 000e 7047     		bx	lr
 354              		.cfi_endproc
 355              	.LFE166:
 357              		.section	.text.lv_obj_get_scroll_dir,"ax",%progbits
 358              		.align	1
 359              		.global	lv_obj_get_scroll_dir
 360              		.syntax unified
 361              		.thumb
 362              		.thumb_func
ARM GAS  C:\usertemp\ccBZVumh.s 			page 20


 364              	lv_obj_get_scroll_dir:
 365              	.LVL25:
 366              	.LFB167:
 100:lvgl/src/core/lv_obj_scroll.c ****     if(obj->spec_attr) return obj->spec_attr->scroll_dir;
 367              		.loc 1 100 1 is_stmt 1 view -0
 368              		.cfi_startproc
 369              		@ args = 0, pretend = 0, frame = 0
 370              		@ frame_needed = 0, uses_anonymous_args = 0
 371              		@ link register save eliminated.
 101:lvgl/src/core/lv_obj_scroll.c ****     else return LV_DIR_ALL;
 372              		.loc 1 101 5 view .LVU80
 101:lvgl/src/core/lv_obj_scroll.c ****     else return LV_DIR_ALL;
 373              		.loc 1 101 11 is_stmt 0 view .LVU81
 374 0000 8368     		ldr	r3, [r0, #8]
 101:lvgl/src/core/lv_obj_scroll.c ****     else return LV_DIR_ALL;
 375              		.loc 1 101 7 view .LVU82
 376 0002 1BB1     		cbz	r3, .L26
 101:lvgl/src/core/lv_obj_scroll.c ****     else return LV_DIR_ALL;
 377              		.loc 1 101 24 is_stmt 1 discriminator 1 view .LVU83
 101:lvgl/src/core/lv_obj_scroll.c ****     else return LV_DIR_ALL;
 378              		.loc 1 101 45 is_stmt 0 discriminator 1 view .LVU84
 379 0004 587E     		ldrb	r0, [r3, #25]	@ zero_extendqisi2
 380              	.LVL26:
 101:lvgl/src/core/lv_obj_scroll.c ****     else return LV_DIR_ALL;
 381              		.loc 1 101 45 discriminator 1 view .LVU85
 382 0006 00F00F00 		and	r0, r0, #15
 101:lvgl/src/core/lv_obj_scroll.c ****     else return LV_DIR_ALL;
 383              		.loc 1 101 45 view .LVU86
 384 000a 7047     		bx	lr
 385              	.LVL27:
 386              	.L26:
 102:lvgl/src/core/lv_obj_scroll.c **** }
 387              		.loc 1 102 17 view .LVU87
 388 000c 0F20     		movs	r0, #15
 389              	.LVL28:
 103:lvgl/src/core/lv_obj_scroll.c **** 
 390              		.loc 1 103 1 view .LVU88
 391 000e 7047     		bx	lr
 392              		.cfi_endproc
 393              	.LFE167:
 395              		.section	.text.lv_obj_get_scroll_snap_x,"ax",%progbits
 396              		.align	1
 397              		.global	lv_obj_get_scroll_snap_x
 398              		.syntax unified
 399              		.thumb
 400              		.thumb_func
 402              	lv_obj_get_scroll_snap_x:
 403              	.LVL29:
 404              	.LFB168:
 106:lvgl/src/core/lv_obj_scroll.c ****     if(obj->spec_attr) return obj->spec_attr->scroll_snap_x;
 405              		.loc 1 106 1 is_stmt 1 view -0
 406              		.cfi_startproc
 407              		@ args = 0, pretend = 0, frame = 0
 408              		@ frame_needed = 0, uses_anonymous_args = 0
 409              		@ link register save eliminated.
 107:lvgl/src/core/lv_obj_scroll.c ****     else return LV_SCROLL_SNAP_NONE;
 410              		.loc 1 107 5 view .LVU90
ARM GAS  C:\usertemp\ccBZVumh.s 			page 21


 107:lvgl/src/core/lv_obj_scroll.c ****     else return LV_SCROLL_SNAP_NONE;
 411              		.loc 1 107 11 is_stmt 0 view .LVU91
 412 0000 8368     		ldr	r3, [r0, #8]
 107:lvgl/src/core/lv_obj_scroll.c ****     else return LV_SCROLL_SNAP_NONE;
 413              		.loc 1 107 7 view .LVU92
 414 0002 1BB1     		cbz	r3, .L29
 107:lvgl/src/core/lv_obj_scroll.c ****     else return LV_SCROLL_SNAP_NONE;
 415              		.loc 1 107 24 is_stmt 1 discriminator 1 view .LVU93
 107:lvgl/src/core/lv_obj_scroll.c ****     else return LV_SCROLL_SNAP_NONE;
 416              		.loc 1 107 45 is_stmt 0 discriminator 1 view .LVU94
 417 0004 187E     		ldrb	r0, [r3, #24]	@ zero_extendqisi2
 418              	.LVL30:
 107:lvgl/src/core/lv_obj_scroll.c ****     else return LV_SCROLL_SNAP_NONE;
 419              		.loc 1 107 45 discriminator 1 view .LVU95
 420 0006 C0F38100 		ubfx	r0, r0, #2, #2
 107:lvgl/src/core/lv_obj_scroll.c ****     else return LV_SCROLL_SNAP_NONE;
 421              		.loc 1 107 45 view .LVU96
 422 000a 7047     		bx	lr
 423              	.LVL31:
 424              	.L29:
 108:lvgl/src/core/lv_obj_scroll.c **** }
 425              		.loc 1 108 17 view .LVU97
 426 000c 0020     		movs	r0, #0
 427              	.LVL32:
 109:lvgl/src/core/lv_obj_scroll.c **** 
 428              		.loc 1 109 1 view .LVU98
 429 000e 7047     		bx	lr
 430              		.cfi_endproc
 431              	.LFE168:
 433              		.section	.text.lv_obj_get_scroll_snap_y,"ax",%progbits
 434              		.align	1
 435              		.global	lv_obj_get_scroll_snap_y
 436              		.syntax unified
 437              		.thumb
 438              		.thumb_func
 440              	lv_obj_get_scroll_snap_y:
 441              	.LVL33:
 442              	.LFB169:
 112:lvgl/src/core/lv_obj_scroll.c ****     if(obj->spec_attr) return obj->spec_attr->scroll_snap_y;
 443              		.loc 1 112 1 is_stmt 1 view -0
 444              		.cfi_startproc
 445              		@ args = 0, pretend = 0, frame = 0
 446              		@ frame_needed = 0, uses_anonymous_args = 0
 447              		@ link register save eliminated.
 113:lvgl/src/core/lv_obj_scroll.c ****     else return LV_SCROLL_SNAP_NONE;
 448              		.loc 1 113 5 view .LVU100
 113:lvgl/src/core/lv_obj_scroll.c ****     else return LV_SCROLL_SNAP_NONE;
 449              		.loc 1 113 11 is_stmt 0 view .LVU101
 450 0000 8368     		ldr	r3, [r0, #8]
 113:lvgl/src/core/lv_obj_scroll.c ****     else return LV_SCROLL_SNAP_NONE;
 451              		.loc 1 113 7 view .LVU102
 452 0002 1BB1     		cbz	r3, .L32
 113:lvgl/src/core/lv_obj_scroll.c ****     else return LV_SCROLL_SNAP_NONE;
 453              		.loc 1 113 24 is_stmt 1 discriminator 1 view .LVU103
 113:lvgl/src/core/lv_obj_scroll.c ****     else return LV_SCROLL_SNAP_NONE;
 454              		.loc 1 113 45 is_stmt 0 discriminator 1 view .LVU104
 455 0004 187E     		ldrb	r0, [r3, #24]	@ zero_extendqisi2
ARM GAS  C:\usertemp\ccBZVumh.s 			page 22


 456              	.LVL34:
 113:lvgl/src/core/lv_obj_scroll.c ****     else return LV_SCROLL_SNAP_NONE;
 457              		.loc 1 113 45 discriminator 1 view .LVU105
 458 0006 C0F30110 		ubfx	r0, r0, #4, #2
 113:lvgl/src/core/lv_obj_scroll.c ****     else return LV_SCROLL_SNAP_NONE;
 459              		.loc 1 113 45 view .LVU106
 460 000a 7047     		bx	lr
 461              	.LVL35:
 462              	.L32:
 114:lvgl/src/core/lv_obj_scroll.c **** }
 463              		.loc 1 114 17 view .LVU107
 464 000c 0020     		movs	r0, #0
 465              	.LVL36:
 115:lvgl/src/core/lv_obj_scroll.c **** 
 466              		.loc 1 115 1 view .LVU108
 467 000e 7047     		bx	lr
 468              		.cfi_endproc
 469              	.LFE169:
 471              		.section	.text.lv_obj_get_scroll_x,"ax",%progbits
 472              		.align	1
 473              		.global	lv_obj_get_scroll_x
 474              		.syntax unified
 475              		.thumb
 476              		.thumb_func
 478              	lv_obj_get_scroll_x:
 479              	.LVL37:
 480              	.LFB170:
 118:lvgl/src/core/lv_obj_scroll.c ****     if(obj->spec_attr == NULL) return 0;
 481              		.loc 1 118 1 is_stmt 1 view -0
 482              		.cfi_startproc
 483              		@ args = 0, pretend = 0, frame = 0
 484              		@ frame_needed = 0, uses_anonymous_args = 0
 485              		@ link register save eliminated.
 119:lvgl/src/core/lv_obj_scroll.c ****     return -obj->spec_attr->scroll.x;
 486              		.loc 1 119 5 view .LVU110
 119:lvgl/src/core/lv_obj_scroll.c ****     return -obj->spec_attr->scroll.x;
 487              		.loc 1 119 11 is_stmt 0 view .LVU111
 488 0000 8368     		ldr	r3, [r0, #8]
 119:lvgl/src/core/lv_obj_scroll.c ****     return -obj->spec_attr->scroll.x;
 489              		.loc 1 119 7 view .LVU112
 490 0002 1BB1     		cbz	r3, .L35
 120:lvgl/src/core/lv_obj_scroll.c **** }
 491              		.loc 1 120 5 is_stmt 1 view .LVU113
 120:lvgl/src/core/lv_obj_scroll.c **** }
 492              		.loc 1 120 35 is_stmt 0 view .LVU114
 493 0004 188A     		ldrh	r0, [r3, #16]
 494              	.LVL38:
 120:lvgl/src/core/lv_obj_scroll.c **** }
 495              		.loc 1 120 12 view .LVU115
 496 0006 4042     		rsbs	r0, r0, #0
 497 0008 00B2     		sxth	r0, r0
 498 000a 7047     		bx	lr
 499              	.LVL39:
 500              	.L35:
 119:lvgl/src/core/lv_obj_scroll.c ****     return -obj->spec_attr->scroll.x;
 501              		.loc 1 119 39 discriminator 1 view .LVU116
 502 000c 0020     		movs	r0, #0
ARM GAS  C:\usertemp\ccBZVumh.s 			page 23


 503              	.LVL40:
 121:lvgl/src/core/lv_obj_scroll.c **** 
 504              		.loc 1 121 1 view .LVU117
 505 000e 7047     		bx	lr
 506              		.cfi_endproc
 507              	.LFE170:
 509              		.section	.text.scroll_x_anim,"ax",%progbits
 510              		.align	1
 511              		.syntax unified
 512              		.thumb
 513              		.thumb_func
 515              	scroll_x_anim:
 516              	.LVL41:
 517              	.LFB190:
 667:lvgl/src/core/lv_obj_scroll.c ****     scroll_by_raw(obj, v + lv_obj_get_scroll_x(obj), 0);
 518              		.loc 1 667 1 is_stmt 1 view -0
 519              		.cfi_startproc
 520              		@ args = 0, pretend = 0, frame = 0
 521              		@ frame_needed = 0, uses_anonymous_args = 0
 667:lvgl/src/core/lv_obj_scroll.c ****     scroll_by_raw(obj, v + lv_obj_get_scroll_x(obj), 0);
 522              		.loc 1 667 1 is_stmt 0 view .LVU119
 523 0000 38B5     		push	{r3, r4, r5, lr}
 524              	.LCFI6:
 525              		.cfi_def_cfa_offset 16
 526              		.cfi_offset 3, -16
 527              		.cfi_offset 4, -12
 528              		.cfi_offset 5, -8
 529              		.cfi_offset 14, -4
 530 0002 0446     		mov	r4, r0
 531 0004 0D46     		mov	r5, r1
 668:lvgl/src/core/lv_obj_scroll.c **** }
 532              		.loc 1 668 5 is_stmt 1 view .LVU120
 668:lvgl/src/core/lv_obj_scroll.c **** }
 533              		.loc 1 668 28 is_stmt 0 view .LVU121
 534 0006 FFF7FEFF 		bl	lv_obj_get_scroll_x
 535              	.LVL42:
 668:lvgl/src/core/lv_obj_scroll.c **** }
 536              		.loc 1 668 26 discriminator 1 view .LVU122
 537 000a 15FA80F1 		uxtah	r1, r5, r0
 668:lvgl/src/core/lv_obj_scroll.c **** }
 538              		.loc 1 668 5 discriminator 1 view .LVU123
 539 000e 0022     		movs	r2, #0
 540 0010 09B2     		sxth	r1, r1
 541 0012 2046     		mov	r0, r4
 542 0014 FFF7FEFF 		bl	scroll_by_raw
 543              	.LVL43:
 669:lvgl/src/core/lv_obj_scroll.c **** 
 544              		.loc 1 669 1 view .LVU124
 545 0018 38BD     		pop	{r3, r4, r5, pc}
 669:lvgl/src/core/lv_obj_scroll.c **** 
 546              		.loc 1 669 1 view .LVU125
 547              		.cfi_endproc
 548              	.LFE190:
 550              		.section	.text.lv_obj_get_scroll_y,"ax",%progbits
 551              		.align	1
 552              		.global	lv_obj_get_scroll_y
 553              		.syntax unified
ARM GAS  C:\usertemp\ccBZVumh.s 			page 24


 554              		.thumb
 555              		.thumb_func
 557              	lv_obj_get_scroll_y:
 558              	.LVL44:
 559              	.LFB171:
 124:lvgl/src/core/lv_obj_scroll.c ****     if(obj->spec_attr == NULL) return 0;
 560              		.loc 1 124 1 is_stmt 1 view -0
 561              		.cfi_startproc
 562              		@ args = 0, pretend = 0, frame = 0
 563              		@ frame_needed = 0, uses_anonymous_args = 0
 564              		@ link register save eliminated.
 125:lvgl/src/core/lv_obj_scroll.c ****     return -obj->spec_attr->scroll.y;
 565              		.loc 1 125 5 view .LVU127
 125:lvgl/src/core/lv_obj_scroll.c ****     return -obj->spec_attr->scroll.y;
 566              		.loc 1 125 11 is_stmt 0 view .LVU128
 567 0000 8368     		ldr	r3, [r0, #8]
 125:lvgl/src/core/lv_obj_scroll.c ****     return -obj->spec_attr->scroll.y;
 568              		.loc 1 125 7 view .LVU129
 569 0002 1BB1     		cbz	r3, .L40
 126:lvgl/src/core/lv_obj_scroll.c **** }
 570              		.loc 1 126 5 is_stmt 1 view .LVU130
 126:lvgl/src/core/lv_obj_scroll.c **** }
 571              		.loc 1 126 35 is_stmt 0 view .LVU131
 572 0004 588A     		ldrh	r0, [r3, #18]
 573              	.LVL45:
 126:lvgl/src/core/lv_obj_scroll.c **** }
 574              		.loc 1 126 12 view .LVU132
 575 0006 4042     		rsbs	r0, r0, #0
 576 0008 00B2     		sxth	r0, r0
 577 000a 7047     		bx	lr
 578              	.LVL46:
 579              	.L40:
 125:lvgl/src/core/lv_obj_scroll.c ****     return -obj->spec_attr->scroll.y;
 580              		.loc 1 125 39 discriminator 1 view .LVU133
 581 000c 0020     		movs	r0, #0
 582              	.LVL47:
 127:lvgl/src/core/lv_obj_scroll.c **** 
 583              		.loc 1 127 1 view .LVU134
 584 000e 7047     		bx	lr
 585              		.cfi_endproc
 586              	.LFE171:
 588              		.section	.text.scroll_y_anim,"ax",%progbits
 589              		.align	1
 590              		.syntax unified
 591              		.thumb
 592              		.thumb_func
 594              	scroll_y_anim:
 595              	.LVL48:
 596              	.LFB191:
 672:lvgl/src/core/lv_obj_scroll.c ****     scroll_by_raw(obj, 0, v + lv_obj_get_scroll_y(obj));
 597              		.loc 1 672 1 is_stmt 1 view -0
 598              		.cfi_startproc
 599              		@ args = 0, pretend = 0, frame = 0
 600              		@ frame_needed = 0, uses_anonymous_args = 0
 672:lvgl/src/core/lv_obj_scroll.c ****     scroll_by_raw(obj, 0, v + lv_obj_get_scroll_y(obj));
 601              		.loc 1 672 1 is_stmt 0 view .LVU136
 602 0000 38B5     		push	{r3, r4, r5, lr}
ARM GAS  C:\usertemp\ccBZVumh.s 			page 25


 603              	.LCFI7:
 604              		.cfi_def_cfa_offset 16
 605              		.cfi_offset 3, -16
 606              		.cfi_offset 4, -12
 607              		.cfi_offset 5, -8
 608              		.cfi_offset 14, -4
 609 0002 0446     		mov	r4, r0
 610 0004 0D46     		mov	r5, r1
 673:lvgl/src/core/lv_obj_scroll.c **** }
 611              		.loc 1 673 5 is_stmt 1 view .LVU137
 673:lvgl/src/core/lv_obj_scroll.c **** }
 612              		.loc 1 673 31 is_stmt 0 view .LVU138
 613 0006 FFF7FEFF 		bl	lv_obj_get_scroll_y
 614              	.LVL49:
 673:lvgl/src/core/lv_obj_scroll.c **** }
 615              		.loc 1 673 29 discriminator 1 view .LVU139
 616 000a 15FA80F2 		uxtah	r2, r5, r0
 673:lvgl/src/core/lv_obj_scroll.c **** }
 617              		.loc 1 673 5 discriminator 1 view .LVU140
 618 000e 12B2     		sxth	r2, r2
 619 0010 0021     		movs	r1, #0
 620 0012 2046     		mov	r0, r4
 621 0014 FFF7FEFF 		bl	scroll_by_raw
 622              	.LVL50:
 674:lvgl/src/core/lv_obj_scroll.c **** 
 623              		.loc 1 674 1 view .LVU141
 624 0018 38BD     		pop	{r3, r4, r5, pc}
 674:lvgl/src/core/lv_obj_scroll.c **** 
 625              		.loc 1 674 1 view .LVU142
 626              		.cfi_endproc
 627              	.LFE191:
 629              		.section	.text.lv_obj_get_scroll_top,"ax",%progbits
 630              		.align	1
 631              		.global	lv_obj_get_scroll_top
 632              		.syntax unified
 633              		.thumb
 634              		.thumb_func
 636              	lv_obj_get_scroll_top:
 637              	.LVL51:
 638              	.LFB172:
 130:lvgl/src/core/lv_obj_scroll.c ****     if(obj->spec_attr == NULL) return 0;
 639              		.loc 1 130 1 is_stmt 1 view -0
 640              		.cfi_startproc
 641              		@ args = 0, pretend = 0, frame = 0
 642              		@ frame_needed = 0, uses_anonymous_args = 0
 643              		@ link register save eliminated.
 131:lvgl/src/core/lv_obj_scroll.c ****     return -obj->spec_attr->scroll.y;
 644              		.loc 1 131 5 view .LVU144
 131:lvgl/src/core/lv_obj_scroll.c ****     return -obj->spec_attr->scroll.y;
 645              		.loc 1 131 11 is_stmt 0 view .LVU145
 646 0000 8368     		ldr	r3, [r0, #8]
 131:lvgl/src/core/lv_obj_scroll.c ****     return -obj->spec_attr->scroll.y;
 647              		.loc 1 131 7 view .LVU146
 648 0002 1BB1     		cbz	r3, .L45
 132:lvgl/src/core/lv_obj_scroll.c **** }
 649              		.loc 1 132 5 is_stmt 1 view .LVU147
 132:lvgl/src/core/lv_obj_scroll.c **** }
ARM GAS  C:\usertemp\ccBZVumh.s 			page 26


 650              		.loc 1 132 35 is_stmt 0 view .LVU148
 651 0004 588A     		ldrh	r0, [r3, #18]
 652              	.LVL52:
 132:lvgl/src/core/lv_obj_scroll.c **** }
 653              		.loc 1 132 12 view .LVU149
 654 0006 4042     		rsbs	r0, r0, #0
 655 0008 00B2     		sxth	r0, r0
 656 000a 7047     		bx	lr
 657              	.LVL53:
 658              	.L45:
 131:lvgl/src/core/lv_obj_scroll.c ****     return -obj->spec_attr->scroll.y;
 659              		.loc 1 131 39 discriminator 1 view .LVU150
 660 000c 0020     		movs	r0, #0
 661              	.LVL54:
 133:lvgl/src/core/lv_obj_scroll.c **** 
 662              		.loc 1 133 1 view .LVU151
 663 000e 7047     		bx	lr
 664              		.cfi_endproc
 665              	.LFE172:
 667              		.section	.text.lv_obj_get_scroll_bottom,"ax",%progbits
 668              		.align	1
 669              		.global	lv_obj_get_scroll_bottom
 670              		.syntax unified
 671              		.thumb
 672              		.thumb_func
 674              	lv_obj_get_scroll_bottom:
 675              	.LVL55:
 676              	.LFB173:
 136:lvgl/src/core/lv_obj_scroll.c ****     LV_ASSERT_OBJ(obj, MY_CLASS);
 677              		.loc 1 136 1 is_stmt 1 view -0
 678              		.cfi_startproc
 679              		@ args = 0, pretend = 0, frame = 0
 680              		@ frame_needed = 0, uses_anonymous_args = 0
 136:lvgl/src/core/lv_obj_scroll.c ****     LV_ASSERT_OBJ(obj, MY_CLASS);
 681              		.loc 1 136 1 is_stmt 0 view .LVU153
 682 0000 2DE9F843 		push	{r3, r4, r5, r6, r7, r8, r9, lr}
 683              	.LCFI8:
 684              		.cfi_def_cfa_offset 32
 685              		.cfi_offset 3, -32
 686              		.cfi_offset 4, -28
 687              		.cfi_offset 5, -24
 688              		.cfi_offset 6, -20
 689              		.cfi_offset 7, -16
 690              		.cfi_offset 8, -12
 691              		.cfi_offset 9, -8
 692              		.cfi_offset 14, -4
 693 0004 0646     		mov	r6, r0
 137:lvgl/src/core/lv_obj_scroll.c **** 
 694              		.loc 1 137 5 is_stmt 1 view .LVU154
 137:lvgl/src/core/lv_obj_scroll.c **** 
 695              		.loc 1 137 5 view .LVU155
 137:lvgl/src/core/lv_obj_scroll.c **** 
 696              		.loc 1 137 5 view .LVU156
 139:lvgl/src/core/lv_obj_scroll.c ****     uint32_t i;
 697              		.loc 1 139 5 view .LVU157
 698              	.LVL56:
 140:lvgl/src/core/lv_obj_scroll.c ****     uint32_t child_cnt = lv_obj_get_child_cnt(obj);
ARM GAS  C:\usertemp\ccBZVumh.s 			page 27


 699              		.loc 1 140 5 view .LVU158
 141:lvgl/src/core/lv_obj_scroll.c ****     for(i = 0; i < child_cnt; i++) {
 700              		.loc 1 141 5 view .LVU159
 141:lvgl/src/core/lv_obj_scroll.c ****     for(i = 0; i < child_cnt; i++) {
 701              		.loc 1 141 26 is_stmt 0 view .LVU160
 702 0006 FFF7FEFF 		bl	lv_obj_get_child_cnt
 703              	.LVL57:
 141:lvgl/src/core/lv_obj_scroll.c ****     for(i = 0; i < child_cnt; i++) {
 704              		.loc 1 141 26 view .LVU161
 705 000a 8046     		mov	r8, r0
 706              	.LVL58:
 142:lvgl/src/core/lv_obj_scroll.c ****         lv_obj_t * child = obj->spec_attr->children[i];
 707              		.loc 1 142 5 is_stmt 1 view .LVU162
 142:lvgl/src/core/lv_obj_scroll.c ****         lv_obj_t * child = obj->spec_attr->children[i];
 708              		.loc 1 142 11 is_stmt 0 view .LVU163
 709 000c 0024     		movs	r4, #0
 139:lvgl/src/core/lv_obj_scroll.c ****     uint32_t i;
 710              		.loc 1 139 16 view .LVU164
 711 000e 284F     		ldr	r7, .L54
 142:lvgl/src/core/lv_obj_scroll.c ****         lv_obj_t * child = obj->spec_attr->children[i];
 712              		.loc 1 142 5 view .LVU165
 713 0010 05E0     		b	.L47
 714              	.LVL59:
 715              	.L53:
 716              	.LBB100:
 145:lvgl/src/core/lv_obj_scroll.c ****     }
 717              		.loc 1 145 9 is_stmt 1 view .LVU166
 145:lvgl/src/core/lv_obj_scroll.c ****     }
 718              		.loc 1 145 21 is_stmt 0 view .LVU167
 719 0012 B5F91A30 		ldrsh	r3, [r5, #26]
 145:lvgl/src/core/lv_obj_scroll.c ****     }
 720              		.loc 1 145 19 view .LVU168
 721 0016 9F42     		cmp	r7, r3
 722 0018 B8BF     		it	lt
 723 001a 1F46     		movlt	r7, r3
 724              	.LVL60:
 725              	.L48:
 145:lvgl/src/core/lv_obj_scroll.c ****     }
 726              		.loc 1 145 19 view .LVU169
 727              	.LBE100:
 142:lvgl/src/core/lv_obj_scroll.c ****         lv_obj_t * child = obj->spec_attr->children[i];
 728              		.loc 1 142 32 is_stmt 1 discriminator 2 view .LVU170
 729 001c 0134     		adds	r4, r4, #1
 730              	.LVL61:
 731              	.L47:
 142:lvgl/src/core/lv_obj_scroll.c ****         lv_obj_t * child = obj->spec_attr->children[i];
 732              		.loc 1 142 18 discriminator 1 view .LVU171
 733 001e 4445     		cmp	r4, r8
 734 0020 0AD2     		bcs	.L52
 735              	.LBB101:
 143:lvgl/src/core/lv_obj_scroll.c ****         if(lv_obj_has_flag_any(child,  LV_OBJ_FLAG_HIDDEN | LV_OBJ_FLAG_FLOATING)) continue;
 736              		.loc 1 143 9 view .LVU172
 143:lvgl/src/core/lv_obj_scroll.c ****         if(lv_obj_has_flag_any(child,  LV_OBJ_FLAG_HIDDEN | LV_OBJ_FLAG_FLOATING)) continue;
 737              		.loc 1 143 31 is_stmt 0 view .LVU173
 738 0022 B368     		ldr	r3, [r6, #8]
 143:lvgl/src/core/lv_obj_scroll.c ****         if(lv_obj_has_flag_any(child,  LV_OBJ_FLAG_HIDDEN | LV_OBJ_FLAG_FLOATING)) continue;
 739              		.loc 1 143 42 view .LVU174
ARM GAS  C:\usertemp\ccBZVumh.s 			page 28


 740 0024 1B68     		ldr	r3, [r3]
 143:lvgl/src/core/lv_obj_scroll.c ****         if(lv_obj_has_flag_any(child,  LV_OBJ_FLAG_HIDDEN | LV_OBJ_FLAG_FLOATING)) continue;
 741              		.loc 1 143 20 view .LVU175
 742 0026 53F82450 		ldr	r5, [r3, r4, lsl #2]
 743              	.LVL62:
 144:lvgl/src/core/lv_obj_scroll.c ****         child_res = LV_MAX(child_res, child->coords.y2);
 744              		.loc 1 144 9 is_stmt 1 view .LVU176
 144:lvgl/src/core/lv_obj_scroll.c ****         child_res = LV_MAX(child_res, child->coords.y2);
 745              		.loc 1 144 12 is_stmt 0 view .LVU177
 746 002a 2249     		ldr	r1, .L54+4
 747 002c 2846     		mov	r0, r5
 748 002e FFF7FEFF 		bl	lv_obj_has_flag_any
 749              	.LVL63:
 144:lvgl/src/core/lv_obj_scroll.c ****         child_res = LV_MAX(child_res, child->coords.y2);
 750              		.loc 1 144 11 discriminator 1 view .LVU178
 751 0032 0028     		cmp	r0, #0
 752 0034 EDD0     		beq	.L53
 753 0036 F1E7     		b	.L48
 754              	.LVL64:
 755              	.L52:
 144:lvgl/src/core/lv_obj_scroll.c ****         child_res = LV_MAX(child_res, child->coords.y2);
 756              		.loc 1 144 11 discriminator 1 view .LVU179
 757              	.LBE101:
 148:lvgl/src/core/lv_obj_scroll.c ****     lv_coord_t pad_bottom = lv_obj_get_style_pad_bottom(obj, LV_PART_MAIN);
 758              		.loc 1 148 5 is_stmt 1 view .LVU180
 759              	.LBB102:
 760              	.LBI102:
 761              		.file 2 "lvgl/src/core/lv_obj_style_gen.h"
   1:lvgl/src/core/lv_obj_style_gen.h **** static inline lv_coord_t lv_obj_get_style_width(const struct _lv_obj_t * obj, uint32_t part)
   2:lvgl/src/core/lv_obj_style_gen.h **** {
   3:lvgl/src/core/lv_obj_style_gen.h ****     lv_style_value_t v = lv_obj_get_style_prop(obj, part, LV_STYLE_WIDTH);
   4:lvgl/src/core/lv_obj_style_gen.h ****     return (lv_coord_t)v.num;
   5:lvgl/src/core/lv_obj_style_gen.h **** }
   6:lvgl/src/core/lv_obj_style_gen.h **** 
   7:lvgl/src/core/lv_obj_style_gen.h **** static inline lv_coord_t lv_obj_get_style_min_width(const struct _lv_obj_t * obj, uint32_t part)
   8:lvgl/src/core/lv_obj_style_gen.h **** {
   9:lvgl/src/core/lv_obj_style_gen.h ****     lv_style_value_t v = lv_obj_get_style_prop(obj, part, LV_STYLE_MIN_WIDTH);
  10:lvgl/src/core/lv_obj_style_gen.h ****     return (lv_coord_t)v.num;
  11:lvgl/src/core/lv_obj_style_gen.h **** }
  12:lvgl/src/core/lv_obj_style_gen.h **** 
  13:lvgl/src/core/lv_obj_style_gen.h **** static inline lv_coord_t lv_obj_get_style_max_width(const struct _lv_obj_t * obj, uint32_t part)
  14:lvgl/src/core/lv_obj_style_gen.h **** {
  15:lvgl/src/core/lv_obj_style_gen.h ****     lv_style_value_t v = lv_obj_get_style_prop(obj, part, LV_STYLE_MAX_WIDTH);
  16:lvgl/src/core/lv_obj_style_gen.h ****     return (lv_coord_t)v.num;
  17:lvgl/src/core/lv_obj_style_gen.h **** }
  18:lvgl/src/core/lv_obj_style_gen.h **** 
  19:lvgl/src/core/lv_obj_style_gen.h **** static inline lv_coord_t lv_obj_get_style_height(const struct _lv_obj_t * obj, uint32_t part)
  20:lvgl/src/core/lv_obj_style_gen.h **** {
  21:lvgl/src/core/lv_obj_style_gen.h ****     lv_style_value_t v = lv_obj_get_style_prop(obj, part, LV_STYLE_HEIGHT);
  22:lvgl/src/core/lv_obj_style_gen.h ****     return (lv_coord_t)v.num;
  23:lvgl/src/core/lv_obj_style_gen.h **** }
  24:lvgl/src/core/lv_obj_style_gen.h **** 
  25:lvgl/src/core/lv_obj_style_gen.h **** static inline lv_coord_t lv_obj_get_style_min_height(const struct _lv_obj_t * obj, uint32_t part)
  26:lvgl/src/core/lv_obj_style_gen.h **** {
  27:lvgl/src/core/lv_obj_style_gen.h ****     lv_style_value_t v = lv_obj_get_style_prop(obj, part, LV_STYLE_MIN_HEIGHT);
  28:lvgl/src/core/lv_obj_style_gen.h ****     return (lv_coord_t)v.num;
  29:lvgl/src/core/lv_obj_style_gen.h **** }
ARM GAS  C:\usertemp\ccBZVumh.s 			page 29


  30:lvgl/src/core/lv_obj_style_gen.h **** 
  31:lvgl/src/core/lv_obj_style_gen.h **** static inline lv_coord_t lv_obj_get_style_max_height(const struct _lv_obj_t * obj, uint32_t part)
  32:lvgl/src/core/lv_obj_style_gen.h **** {
  33:lvgl/src/core/lv_obj_style_gen.h ****     lv_style_value_t v = lv_obj_get_style_prop(obj, part, LV_STYLE_MAX_HEIGHT);
  34:lvgl/src/core/lv_obj_style_gen.h ****     return (lv_coord_t)v.num;
  35:lvgl/src/core/lv_obj_style_gen.h **** }
  36:lvgl/src/core/lv_obj_style_gen.h **** 
  37:lvgl/src/core/lv_obj_style_gen.h **** static inline lv_coord_t lv_obj_get_style_x(const struct _lv_obj_t * obj, uint32_t part)
  38:lvgl/src/core/lv_obj_style_gen.h **** {
  39:lvgl/src/core/lv_obj_style_gen.h ****     lv_style_value_t v = lv_obj_get_style_prop(obj, part, LV_STYLE_X);
  40:lvgl/src/core/lv_obj_style_gen.h ****     return (lv_coord_t)v.num;
  41:lvgl/src/core/lv_obj_style_gen.h **** }
  42:lvgl/src/core/lv_obj_style_gen.h **** 
  43:lvgl/src/core/lv_obj_style_gen.h **** static inline lv_coord_t lv_obj_get_style_y(const struct _lv_obj_t * obj, uint32_t part)
  44:lvgl/src/core/lv_obj_style_gen.h **** {
  45:lvgl/src/core/lv_obj_style_gen.h ****     lv_style_value_t v = lv_obj_get_style_prop(obj, part, LV_STYLE_Y);
  46:lvgl/src/core/lv_obj_style_gen.h ****     return (lv_coord_t)v.num;
  47:lvgl/src/core/lv_obj_style_gen.h **** }
  48:lvgl/src/core/lv_obj_style_gen.h **** 
  49:lvgl/src/core/lv_obj_style_gen.h **** static inline lv_align_t lv_obj_get_style_align(const struct _lv_obj_t * obj, uint32_t part)
  50:lvgl/src/core/lv_obj_style_gen.h **** {
  51:lvgl/src/core/lv_obj_style_gen.h ****     lv_style_value_t v = lv_obj_get_style_prop(obj, part, LV_STYLE_ALIGN);
  52:lvgl/src/core/lv_obj_style_gen.h ****     return (lv_align_t)v.num;
  53:lvgl/src/core/lv_obj_style_gen.h **** }
  54:lvgl/src/core/lv_obj_style_gen.h **** 
  55:lvgl/src/core/lv_obj_style_gen.h **** static inline lv_coord_t lv_obj_get_style_transform_width(const struct _lv_obj_t * obj, uint32_t pa
  56:lvgl/src/core/lv_obj_style_gen.h **** {
  57:lvgl/src/core/lv_obj_style_gen.h ****     lv_style_value_t v = lv_obj_get_style_prop(obj, part, LV_STYLE_TRANSFORM_WIDTH);
  58:lvgl/src/core/lv_obj_style_gen.h ****     return (lv_coord_t)v.num;
  59:lvgl/src/core/lv_obj_style_gen.h **** }
  60:lvgl/src/core/lv_obj_style_gen.h **** 
  61:lvgl/src/core/lv_obj_style_gen.h **** static inline lv_coord_t lv_obj_get_style_transform_height(const struct _lv_obj_t * obj, uint32_t p
  62:lvgl/src/core/lv_obj_style_gen.h **** {
  63:lvgl/src/core/lv_obj_style_gen.h ****     lv_style_value_t v = lv_obj_get_style_prop(obj, part, LV_STYLE_TRANSFORM_HEIGHT);
  64:lvgl/src/core/lv_obj_style_gen.h ****     return (lv_coord_t)v.num;
  65:lvgl/src/core/lv_obj_style_gen.h **** }
  66:lvgl/src/core/lv_obj_style_gen.h **** 
  67:lvgl/src/core/lv_obj_style_gen.h **** static inline lv_coord_t lv_obj_get_style_translate_x(const struct _lv_obj_t * obj, uint32_t part)
  68:lvgl/src/core/lv_obj_style_gen.h **** {
  69:lvgl/src/core/lv_obj_style_gen.h ****     lv_style_value_t v = lv_obj_get_style_prop(obj, part, LV_STYLE_TRANSLATE_X);
  70:lvgl/src/core/lv_obj_style_gen.h ****     return (lv_coord_t)v.num;
  71:lvgl/src/core/lv_obj_style_gen.h **** }
  72:lvgl/src/core/lv_obj_style_gen.h **** 
  73:lvgl/src/core/lv_obj_style_gen.h **** static inline lv_coord_t lv_obj_get_style_translate_y(const struct _lv_obj_t * obj, uint32_t part)
  74:lvgl/src/core/lv_obj_style_gen.h **** {
  75:lvgl/src/core/lv_obj_style_gen.h ****     lv_style_value_t v = lv_obj_get_style_prop(obj, part, LV_STYLE_TRANSLATE_Y);
  76:lvgl/src/core/lv_obj_style_gen.h ****     return (lv_coord_t)v.num;
  77:lvgl/src/core/lv_obj_style_gen.h **** }
  78:lvgl/src/core/lv_obj_style_gen.h **** 
  79:lvgl/src/core/lv_obj_style_gen.h **** static inline lv_coord_t lv_obj_get_style_transform_zoom(const struct _lv_obj_t * obj, uint32_t par
  80:lvgl/src/core/lv_obj_style_gen.h **** {
  81:lvgl/src/core/lv_obj_style_gen.h ****     lv_style_value_t v = lv_obj_get_style_prop(obj, part, LV_STYLE_TRANSFORM_ZOOM);
  82:lvgl/src/core/lv_obj_style_gen.h ****     return (lv_coord_t)v.num;
  83:lvgl/src/core/lv_obj_style_gen.h **** }
  84:lvgl/src/core/lv_obj_style_gen.h **** 
  85:lvgl/src/core/lv_obj_style_gen.h **** static inline lv_coord_t lv_obj_get_style_transform_angle(const struct _lv_obj_t * obj, uint32_t pa
  86:lvgl/src/core/lv_obj_style_gen.h **** {
ARM GAS  C:\usertemp\ccBZVumh.s 			page 30


  87:lvgl/src/core/lv_obj_style_gen.h ****     lv_style_value_t v = lv_obj_get_style_prop(obj, part, LV_STYLE_TRANSFORM_ANGLE);
  88:lvgl/src/core/lv_obj_style_gen.h ****     return (lv_coord_t)v.num;
  89:lvgl/src/core/lv_obj_style_gen.h **** }
  90:lvgl/src/core/lv_obj_style_gen.h **** 
  91:lvgl/src/core/lv_obj_style_gen.h **** static inline lv_coord_t lv_obj_get_style_pad_top(const struct _lv_obj_t * obj, uint32_t part)
 762              		.loc 2 91 26 view .LVU181
 763              	.LBB103:
  92:lvgl/src/core/lv_obj_style_gen.h **** {
  93:lvgl/src/core/lv_obj_style_gen.h ****     lv_style_value_t v = lv_obj_get_style_prop(obj, part, LV_STYLE_PAD_TOP);
 764              		.loc 2 93 5 view .LVU182
 765              		.loc 2 93 26 is_stmt 0 view .LVU183
 766 0038 41F61002 		movw	r2, #6160
 767 003c 0021     		movs	r1, #0
 768 003e 3046     		mov	r0, r6
 769 0040 FFF7FEFF 		bl	lv_obj_get_style_prop
 770              	.LVL65:
 771 0044 0446     		mov	r4, r0
 772              	.LVL66:
  94:lvgl/src/core/lv_obj_style_gen.h ****     return (lv_coord_t)v.num;
 773              		.loc 2 94 5 is_stmt 1 view .LVU184
 774              		.loc 2 94 5 is_stmt 0 view .LVU185
 775              	.LBE103:
 776              	.LBE102:
 149:lvgl/src/core/lv_obj_scroll.c ****     lv_coord_t border_width = lv_obj_get_style_border_width(obj, LV_PART_MAIN);
 777              		.loc 1 149 5 is_stmt 1 view .LVU186
 778              	.LBB104:
 779              	.LBI104:
  95:lvgl/src/core/lv_obj_style_gen.h **** }
  96:lvgl/src/core/lv_obj_style_gen.h **** 
  97:lvgl/src/core/lv_obj_style_gen.h **** static inline lv_coord_t lv_obj_get_style_pad_bottom(const struct _lv_obj_t * obj, uint32_t part)
 780              		.loc 2 97 26 view .LVU187
 781              	.LBB105:
  98:lvgl/src/core/lv_obj_style_gen.h **** {
  99:lvgl/src/core/lv_obj_style_gen.h ****     lv_style_value_t v = lv_obj_get_style_prop(obj, part, LV_STYLE_PAD_BOTTOM);
 782              		.loc 2 99 5 view .LVU188
 783              		.loc 2 99 26 is_stmt 0 view .LVU189
 784 0046 41F61102 		movw	r2, #6161
 785 004a 0021     		movs	r1, #0
 786 004c 3046     		mov	r0, r6
 787 004e FFF7FEFF 		bl	lv_obj_get_style_prop
 788              	.LVL67:
 789 0052 8146     		mov	r9, r0
 100:lvgl/src/core/lv_obj_style_gen.h ****     return (lv_coord_t)v.num;
 790              		.loc 2 100 5 is_stmt 1 view .LVU190
 791              	.LVL68:
 792              		.loc 2 100 5 is_stmt 0 view .LVU191
 793              	.LBE105:
 794              	.LBE104:
 150:lvgl/src/core/lv_obj_scroll.c **** 
 795              		.loc 1 150 5 is_stmt 1 view .LVU192
 796              	.LBB106:
 797              	.LBI106:
 101:lvgl/src/core/lv_obj_style_gen.h **** }
 102:lvgl/src/core/lv_obj_style_gen.h **** 
 103:lvgl/src/core/lv_obj_style_gen.h **** static inline lv_coord_t lv_obj_get_style_pad_left(const struct _lv_obj_t * obj, uint32_t part)
 104:lvgl/src/core/lv_obj_style_gen.h **** {
 105:lvgl/src/core/lv_obj_style_gen.h ****     lv_style_value_t v = lv_obj_get_style_prop(obj, part, LV_STYLE_PAD_LEFT);
ARM GAS  C:\usertemp\ccBZVumh.s 			page 31


 106:lvgl/src/core/lv_obj_style_gen.h ****     return (lv_coord_t)v.num;
 107:lvgl/src/core/lv_obj_style_gen.h **** }
 108:lvgl/src/core/lv_obj_style_gen.h **** 
 109:lvgl/src/core/lv_obj_style_gen.h **** static inline lv_coord_t lv_obj_get_style_pad_right(const struct _lv_obj_t * obj, uint32_t part)
 110:lvgl/src/core/lv_obj_style_gen.h **** {
 111:lvgl/src/core/lv_obj_style_gen.h ****     lv_style_value_t v = lv_obj_get_style_prop(obj, part, LV_STYLE_PAD_RIGHT);
 112:lvgl/src/core/lv_obj_style_gen.h ****     return (lv_coord_t)v.num;
 113:lvgl/src/core/lv_obj_style_gen.h **** }
 114:lvgl/src/core/lv_obj_style_gen.h **** 
 115:lvgl/src/core/lv_obj_style_gen.h **** static inline lv_coord_t lv_obj_get_style_pad_row(const struct _lv_obj_t * obj, uint32_t part)
 116:lvgl/src/core/lv_obj_style_gen.h **** {
 117:lvgl/src/core/lv_obj_style_gen.h ****     lv_style_value_t v = lv_obj_get_style_prop(obj, part, LV_STYLE_PAD_ROW);
 118:lvgl/src/core/lv_obj_style_gen.h ****     return (lv_coord_t)v.num;
 119:lvgl/src/core/lv_obj_style_gen.h **** }
 120:lvgl/src/core/lv_obj_style_gen.h **** 
 121:lvgl/src/core/lv_obj_style_gen.h **** static inline lv_coord_t lv_obj_get_style_pad_column(const struct _lv_obj_t * obj, uint32_t part)
 122:lvgl/src/core/lv_obj_style_gen.h **** {
 123:lvgl/src/core/lv_obj_style_gen.h ****     lv_style_value_t v = lv_obj_get_style_prop(obj, part, LV_STYLE_PAD_COLUMN);
 124:lvgl/src/core/lv_obj_style_gen.h ****     return (lv_coord_t)v.num;
 125:lvgl/src/core/lv_obj_style_gen.h **** }
 126:lvgl/src/core/lv_obj_style_gen.h **** 
 127:lvgl/src/core/lv_obj_style_gen.h **** static inline lv_color_t lv_obj_get_style_bg_color(const struct _lv_obj_t * obj, uint32_t part)
 128:lvgl/src/core/lv_obj_style_gen.h **** {
 129:lvgl/src/core/lv_obj_style_gen.h ****     lv_style_value_t v = lv_obj_get_style_prop(obj, part, LV_STYLE_BG_COLOR);
 130:lvgl/src/core/lv_obj_style_gen.h ****     return v.color;
 131:lvgl/src/core/lv_obj_style_gen.h **** }
 132:lvgl/src/core/lv_obj_style_gen.h **** 
 133:lvgl/src/core/lv_obj_style_gen.h **** static inline lv_color_t lv_obj_get_style_bg_color_filtered(const struct _lv_obj_t * obj, uint32_t 
 134:lvgl/src/core/lv_obj_style_gen.h **** {
 135:lvgl/src/core/lv_obj_style_gen.h ****     lv_style_value_t v = lv_obj_get_style_prop(obj, part, LV_STYLE_BG_COLOR_FILTERED);
 136:lvgl/src/core/lv_obj_style_gen.h ****     return v.color;
 137:lvgl/src/core/lv_obj_style_gen.h **** }
 138:lvgl/src/core/lv_obj_style_gen.h **** 
 139:lvgl/src/core/lv_obj_style_gen.h **** static inline lv_opa_t lv_obj_get_style_bg_opa(const struct _lv_obj_t * obj, uint32_t part)
 140:lvgl/src/core/lv_obj_style_gen.h **** {
 141:lvgl/src/core/lv_obj_style_gen.h ****     lv_style_value_t v = lv_obj_get_style_prop(obj, part, LV_STYLE_BG_OPA);
 142:lvgl/src/core/lv_obj_style_gen.h ****     return (lv_opa_t)v.num;
 143:lvgl/src/core/lv_obj_style_gen.h **** }
 144:lvgl/src/core/lv_obj_style_gen.h **** 
 145:lvgl/src/core/lv_obj_style_gen.h **** static inline lv_color_t lv_obj_get_style_bg_grad_color(const struct _lv_obj_t * obj, uint32_t part
 146:lvgl/src/core/lv_obj_style_gen.h **** {
 147:lvgl/src/core/lv_obj_style_gen.h ****     lv_style_value_t v = lv_obj_get_style_prop(obj, part, LV_STYLE_BG_GRAD_COLOR);
 148:lvgl/src/core/lv_obj_style_gen.h ****     return v.color;
 149:lvgl/src/core/lv_obj_style_gen.h **** }
 150:lvgl/src/core/lv_obj_style_gen.h **** 
 151:lvgl/src/core/lv_obj_style_gen.h **** static inline lv_color_t lv_obj_get_style_bg_grad_color_filtered(const struct _lv_obj_t * obj, uint
 152:lvgl/src/core/lv_obj_style_gen.h **** {
 153:lvgl/src/core/lv_obj_style_gen.h ****     lv_style_value_t v = lv_obj_get_style_prop(obj, part, LV_STYLE_BG_GRAD_COLOR_FILTERED);
 154:lvgl/src/core/lv_obj_style_gen.h ****     return v.color;
 155:lvgl/src/core/lv_obj_style_gen.h **** }
 156:lvgl/src/core/lv_obj_style_gen.h **** 
 157:lvgl/src/core/lv_obj_style_gen.h **** static inline lv_grad_dir_t lv_obj_get_style_bg_grad_dir(const struct _lv_obj_t * obj, uint32_t par
 158:lvgl/src/core/lv_obj_style_gen.h **** {
 159:lvgl/src/core/lv_obj_style_gen.h ****     lv_style_value_t v = lv_obj_get_style_prop(obj, part, LV_STYLE_BG_GRAD_DIR);
 160:lvgl/src/core/lv_obj_style_gen.h ****     return (lv_grad_dir_t)v.num;
 161:lvgl/src/core/lv_obj_style_gen.h **** }
 162:lvgl/src/core/lv_obj_style_gen.h **** 
ARM GAS  C:\usertemp\ccBZVumh.s 			page 32


 163:lvgl/src/core/lv_obj_style_gen.h **** static inline lv_coord_t lv_obj_get_style_bg_main_stop(const struct _lv_obj_t * obj, uint32_t part)
 164:lvgl/src/core/lv_obj_style_gen.h **** {
 165:lvgl/src/core/lv_obj_style_gen.h ****     lv_style_value_t v = lv_obj_get_style_prop(obj, part, LV_STYLE_BG_MAIN_STOP);
 166:lvgl/src/core/lv_obj_style_gen.h ****     return (lv_coord_t)v.num;
 167:lvgl/src/core/lv_obj_style_gen.h **** }
 168:lvgl/src/core/lv_obj_style_gen.h **** 
 169:lvgl/src/core/lv_obj_style_gen.h **** static inline lv_coord_t lv_obj_get_style_bg_grad_stop(const struct _lv_obj_t * obj, uint32_t part)
 170:lvgl/src/core/lv_obj_style_gen.h **** {
 171:lvgl/src/core/lv_obj_style_gen.h ****     lv_style_value_t v = lv_obj_get_style_prop(obj, part, LV_STYLE_BG_GRAD_STOP);
 172:lvgl/src/core/lv_obj_style_gen.h ****     return (lv_coord_t)v.num;
 173:lvgl/src/core/lv_obj_style_gen.h **** }
 174:lvgl/src/core/lv_obj_style_gen.h **** 
 175:lvgl/src/core/lv_obj_style_gen.h **** static inline const lv_grad_dsc_t * lv_obj_get_style_bg_grad(const struct _lv_obj_t * obj, uint32_t
 176:lvgl/src/core/lv_obj_style_gen.h **** {
 177:lvgl/src/core/lv_obj_style_gen.h ****     lv_style_value_t v = lv_obj_get_style_prop(obj, part, LV_STYLE_BG_GRAD);
 178:lvgl/src/core/lv_obj_style_gen.h ****     return (const lv_grad_dsc_t *)v.ptr;
 179:lvgl/src/core/lv_obj_style_gen.h **** }
 180:lvgl/src/core/lv_obj_style_gen.h **** 
 181:lvgl/src/core/lv_obj_style_gen.h **** static inline lv_dither_mode_t lv_obj_get_style_bg_dither_mode(const struct _lv_obj_t * obj, uint32
 182:lvgl/src/core/lv_obj_style_gen.h **** {
 183:lvgl/src/core/lv_obj_style_gen.h ****     lv_style_value_t v = lv_obj_get_style_prop(obj, part, LV_STYLE_BG_DITHER_MODE);
 184:lvgl/src/core/lv_obj_style_gen.h ****     return (lv_dither_mode_t)v.num;
 185:lvgl/src/core/lv_obj_style_gen.h **** }
 186:lvgl/src/core/lv_obj_style_gen.h **** 
 187:lvgl/src/core/lv_obj_style_gen.h **** static inline const void * lv_obj_get_style_bg_img_src(const struct _lv_obj_t * obj, uint32_t part)
 188:lvgl/src/core/lv_obj_style_gen.h **** {
 189:lvgl/src/core/lv_obj_style_gen.h ****     lv_style_value_t v = lv_obj_get_style_prop(obj, part, LV_STYLE_BG_IMG_SRC);
 190:lvgl/src/core/lv_obj_style_gen.h ****     return (const void *)v.ptr;
 191:lvgl/src/core/lv_obj_style_gen.h **** }
 192:lvgl/src/core/lv_obj_style_gen.h **** 
 193:lvgl/src/core/lv_obj_style_gen.h **** static inline lv_opa_t lv_obj_get_style_bg_img_opa(const struct _lv_obj_t * obj, uint32_t part)
 194:lvgl/src/core/lv_obj_style_gen.h **** {
 195:lvgl/src/core/lv_obj_style_gen.h ****     lv_style_value_t v = lv_obj_get_style_prop(obj, part, LV_STYLE_BG_IMG_OPA);
 196:lvgl/src/core/lv_obj_style_gen.h ****     return (lv_opa_t)v.num;
 197:lvgl/src/core/lv_obj_style_gen.h **** }
 198:lvgl/src/core/lv_obj_style_gen.h **** 
 199:lvgl/src/core/lv_obj_style_gen.h **** static inline lv_color_t lv_obj_get_style_bg_img_recolor(const struct _lv_obj_t * obj, uint32_t par
 200:lvgl/src/core/lv_obj_style_gen.h **** {
 201:lvgl/src/core/lv_obj_style_gen.h ****     lv_style_value_t v = lv_obj_get_style_prop(obj, part, LV_STYLE_BG_IMG_RECOLOR);
 202:lvgl/src/core/lv_obj_style_gen.h ****     return v.color;
 203:lvgl/src/core/lv_obj_style_gen.h **** }
 204:lvgl/src/core/lv_obj_style_gen.h **** 
 205:lvgl/src/core/lv_obj_style_gen.h **** static inline lv_color_t lv_obj_get_style_bg_img_recolor_filtered(const struct _lv_obj_t * obj, uin
 206:lvgl/src/core/lv_obj_style_gen.h **** {
 207:lvgl/src/core/lv_obj_style_gen.h ****     lv_style_value_t v = lv_obj_get_style_prop(obj, part, LV_STYLE_BG_IMG_RECOLOR_FILTERED);
 208:lvgl/src/core/lv_obj_style_gen.h ****     return v.color;
 209:lvgl/src/core/lv_obj_style_gen.h **** }
 210:lvgl/src/core/lv_obj_style_gen.h **** 
 211:lvgl/src/core/lv_obj_style_gen.h **** static inline lv_opa_t lv_obj_get_style_bg_img_recolor_opa(const struct _lv_obj_t * obj, uint32_t p
 212:lvgl/src/core/lv_obj_style_gen.h **** {
 213:lvgl/src/core/lv_obj_style_gen.h ****     lv_style_value_t v = lv_obj_get_style_prop(obj, part, LV_STYLE_BG_IMG_RECOLOR_OPA);
 214:lvgl/src/core/lv_obj_style_gen.h ****     return (lv_opa_t)v.num;
 215:lvgl/src/core/lv_obj_style_gen.h **** }
 216:lvgl/src/core/lv_obj_style_gen.h **** 
 217:lvgl/src/core/lv_obj_style_gen.h **** static inline bool lv_obj_get_style_bg_img_tiled(const struct _lv_obj_t * obj, uint32_t part)
 218:lvgl/src/core/lv_obj_style_gen.h **** {
 219:lvgl/src/core/lv_obj_style_gen.h ****     lv_style_value_t v = lv_obj_get_style_prop(obj, part, LV_STYLE_BG_IMG_TILED);
ARM GAS  C:\usertemp\ccBZVumh.s 			page 33


 220:lvgl/src/core/lv_obj_style_gen.h ****     return (bool)v.num;
 221:lvgl/src/core/lv_obj_style_gen.h **** }
 222:lvgl/src/core/lv_obj_style_gen.h **** 
 223:lvgl/src/core/lv_obj_style_gen.h **** static inline lv_color_t lv_obj_get_style_border_color(const struct _lv_obj_t * obj, uint32_t part)
 224:lvgl/src/core/lv_obj_style_gen.h **** {
 225:lvgl/src/core/lv_obj_style_gen.h ****     lv_style_value_t v = lv_obj_get_style_prop(obj, part, LV_STYLE_BORDER_COLOR);
 226:lvgl/src/core/lv_obj_style_gen.h ****     return v.color;
 227:lvgl/src/core/lv_obj_style_gen.h **** }
 228:lvgl/src/core/lv_obj_style_gen.h **** 
 229:lvgl/src/core/lv_obj_style_gen.h **** static inline lv_color_t lv_obj_get_style_border_color_filtered(const struct _lv_obj_t * obj, uint3
 230:lvgl/src/core/lv_obj_style_gen.h **** {
 231:lvgl/src/core/lv_obj_style_gen.h ****     lv_style_value_t v = lv_obj_get_style_prop(obj, part, LV_STYLE_BORDER_COLOR_FILTERED);
 232:lvgl/src/core/lv_obj_style_gen.h ****     return v.color;
 233:lvgl/src/core/lv_obj_style_gen.h **** }
 234:lvgl/src/core/lv_obj_style_gen.h **** 
 235:lvgl/src/core/lv_obj_style_gen.h **** static inline lv_opa_t lv_obj_get_style_border_opa(const struct _lv_obj_t * obj, uint32_t part)
 236:lvgl/src/core/lv_obj_style_gen.h **** {
 237:lvgl/src/core/lv_obj_style_gen.h ****     lv_style_value_t v = lv_obj_get_style_prop(obj, part, LV_STYLE_BORDER_OPA);
 238:lvgl/src/core/lv_obj_style_gen.h ****     return (lv_opa_t)v.num;
 239:lvgl/src/core/lv_obj_style_gen.h **** }
 240:lvgl/src/core/lv_obj_style_gen.h **** 
 241:lvgl/src/core/lv_obj_style_gen.h **** static inline lv_coord_t lv_obj_get_style_border_width(const struct _lv_obj_t * obj, uint32_t part)
 798              		.loc 2 241 26 view .LVU193
 799              	.LBB107:
 242:lvgl/src/core/lv_obj_style_gen.h **** {
 243:lvgl/src/core/lv_obj_style_gen.h ****     lv_style_value_t v = lv_obj_get_style_prop(obj, part, LV_STYLE_BORDER_WIDTH);
 800              		.loc 2 243 5 view .LVU194
 801              		.loc 2 243 26 is_stmt 0 view .LVU195
 802 0054 41F23202 		movw	r2, #4146
 803 0058 0021     		movs	r1, #0
 804 005a 3046     		mov	r0, r6
 805 005c FFF7FEFF 		bl	lv_obj_get_style_prop
 806              	.LVL69:
 807 0060 0546     		mov	r5, r0
 244:lvgl/src/core/lv_obj_style_gen.h ****     return (lv_coord_t)v.num;
 808              		.loc 2 244 5 is_stmt 1 view .LVU196
 809              	.LVL70:
 810              		.loc 2 244 5 is_stmt 0 view .LVU197
 811              	.LBE107:
 812              	.LBE106:
 152:lvgl/src/core/lv_obj_scroll.c ****         child_res -= (obj->coords.y2 - pad_bottom - border_width);
 813              		.loc 1 152 5 is_stmt 1 view .LVU198
 152:lvgl/src/core/lv_obj_scroll.c ****         child_res -= (obj->coords.y2 - pad_bottom - border_width);
 814              		.loc 1 152 7 is_stmt 0 view .LVU199
 815 0062 134B     		ldr	r3, .L54
 816 0064 9F42     		cmp	r7, r3
 817 0066 05D0     		beq	.L50
 153:lvgl/src/core/lv_obj_scroll.c ****     }
 818              		.loc 1 153 9 is_stmt 1 view .LVU200
 153:lvgl/src/core/lv_obj_scroll.c ****     }
 819              		.loc 1 153 34 is_stmt 0 view .LVU201
 820 0068 738B     		ldrh	r3, [r6, #26]
 153:lvgl/src/core/lv_obj_scroll.c ****     }
 821              		.loc 1 153 19 view .LVU202
 822 006a A9EB0303 		sub	r3, r9, r3
 823 006e 0344     		add	r3, r3, r0
 824 0070 3B44     		add	r3, r3, r7
ARM GAS  C:\usertemp\ccBZVumh.s 			page 34


 825 0072 1FB2     		sxth	r7, r3
 826              	.LVL71:
 827              	.L50:
 156:lvgl/src/core/lv_obj_scroll.c ****     self_h = self_h - (lv_obj_get_height(obj) - pad_top - pad_bottom - 2 * border_width);
 828              		.loc 1 156 5 is_stmt 1 view .LVU203
 156:lvgl/src/core/lv_obj_scroll.c ****     self_h = self_h - (lv_obj_get_height(obj) - pad_top - pad_bottom - 2 * border_width);
 829              		.loc 1 156 25 is_stmt 0 view .LVU204
 830 0074 3046     		mov	r0, r6
 831              	.LVL72:
 156:lvgl/src/core/lv_obj_scroll.c ****     self_h = self_h - (lv_obj_get_height(obj) - pad_top - pad_bottom - 2 * border_width);
 832              		.loc 1 156 25 view .LVU205
 833 0076 FFF7FEFF 		bl	lv_obj_get_self_height
 834              	.LVL73:
 835 007a 8046     		mov	r8, r0
 836              	.LVL74:
 157:lvgl/src/core/lv_obj_scroll.c ****     self_h -= lv_obj_get_scroll_y(obj);
 837              		.loc 1 157 5 is_stmt 1 view .LVU206
 157:lvgl/src/core/lv_obj_scroll.c ****     self_h -= lv_obj_get_scroll_y(obj);
 838              		.loc 1 157 74 is_stmt 0 view .LVU207
 839 007c 6D00     		lsls	r5, r5, #1
 840 007e ADB2     		uxth	r5, r5
 157:lvgl/src/core/lv_obj_scroll.c ****     self_h -= lv_obj_get_scroll_y(obj);
 841              		.loc 1 157 24 view .LVU208
 842 0080 3046     		mov	r0, r6
 843 0082 FFF7FEFF 		bl	lv_obj_get_height
 844              	.LVL75:
 157:lvgl/src/core/lv_obj_scroll.c ****     self_h -= lv_obj_get_scroll_y(obj);
 845              		.loc 1 157 24 discriminator 1 view .LVU209
 846 0086 80B2     		uxth	r0, r0
 157:lvgl/src/core/lv_obj_scroll.c ****     self_h -= lv_obj_get_scroll_y(obj);
 847              		.loc 1 157 47 discriminator 1 view .LVU210
 848 0088 241A     		subs	r4, r4, r0
 849              	.LVL76:
 157:lvgl/src/core/lv_obj_scroll.c ****     self_h -= lv_obj_get_scroll_y(obj);
 850              		.loc 1 157 57 discriminator 1 view .LVU211
 851 008a 19FA84F4 		uxtah	r4, r9, r4
 157:lvgl/src/core/lv_obj_scroll.c ****     self_h -= lv_obj_get_scroll_y(obj);
 852              		.loc 1 157 70 discriminator 1 view .LVU212
 853 008e 15FA84F4 		uxtah	r4, r5, r4
 157:lvgl/src/core/lv_obj_scroll.c ****     self_h -= lv_obj_get_scroll_y(obj);
 854              		.loc 1 157 21 discriminator 1 view .LVU213
 855 0092 18FA84F4 		uxtah	r4, r8, r4
 856 0096 A4B2     		uxth	r4, r4
 857              	.LVL77:
 158:lvgl/src/core/lv_obj_scroll.c ****     return LV_MAX(child_res, self_h);
 858              		.loc 1 158 5 is_stmt 1 view .LVU214
 158:lvgl/src/core/lv_obj_scroll.c ****     return LV_MAX(child_res, self_h);
 859              		.loc 1 158 15 is_stmt 0 view .LVU215
 860 0098 3046     		mov	r0, r6
 861 009a FFF7FEFF 		bl	lv_obj_get_scroll_y
 862              	.LVL78:
 158:lvgl/src/core/lv_obj_scroll.c ****     return LV_MAX(child_res, self_h);
 863              		.loc 1 158 15 discriminator 1 view .LVU216
 864 009e 80B2     		uxth	r0, r0
 158:lvgl/src/core/lv_obj_scroll.c ****     return LV_MAX(child_res, self_h);
 865              		.loc 1 158 12 discriminator 1 view .LVU217
 866 00a0 201A     		subs	r0, r4, r0
ARM GAS  C:\usertemp\ccBZVumh.s 			page 35


 867 00a2 00B2     		sxth	r0, r0
 868              	.LVL79:
 159:lvgl/src/core/lv_obj_scroll.c **** }
 869              		.loc 1 159 5 is_stmt 1 view .LVU218
 160:lvgl/src/core/lv_obj_scroll.c **** 
 870              		.loc 1 160 1 is_stmt 0 view .LVU219
 871 00a4 B842     		cmp	r0, r7
 872 00a6 B8BF     		it	lt
 873 00a8 3846     		movlt	r0, r7
 874              	.LVL80:
 160:lvgl/src/core/lv_obj_scroll.c **** 
 875              		.loc 1 160 1 view .LVU220
 876 00aa BDE8F883 		pop	{r3, r4, r5, r6, r7, r8, r9, pc}
 877              	.LVL81:
 878              	.L55:
 160:lvgl/src/core/lv_obj_scroll.c **** 
 879              		.loc 1 160 1 view .LVU221
 880 00ae 00BF     		.align	2
 881              	.L54:
 882 00b0 01E0FFFF 		.word	-8191
 883 00b4 01000400 		.word	262145
 884              		.cfi_endproc
 885              	.LFE173:
 887              		.section	.text.lv_obj_get_scroll_left,"ax",%progbits
 888              		.align	1
 889              		.global	lv_obj_get_scroll_left
 890              		.syntax unified
 891              		.thumb
 892              		.thumb_func
 894              	lv_obj_get_scroll_left:
 895              	.LVL82:
 896              	.LFB174:
 163:lvgl/src/core/lv_obj_scroll.c ****     LV_ASSERT_OBJ(obj, MY_CLASS);
 897              		.loc 1 163 1 is_stmt 1 view -0
 898              		.cfi_startproc
 899              		@ args = 0, pretend = 0, frame = 0
 900              		@ frame_needed = 0, uses_anonymous_args = 0
 163:lvgl/src/core/lv_obj_scroll.c ****     LV_ASSERT_OBJ(obj, MY_CLASS);
 901              		.loc 1 163 1 is_stmt 0 view .LVU223
 902 0000 2DE9F84F 		push	{r3, r4, r5, r6, r7, r8, r9, r10, fp, lr}
 903              	.LCFI9:
 904              		.cfi_def_cfa_offset 40
 905              		.cfi_offset 3, -40
 906              		.cfi_offset 4, -36
 907              		.cfi_offset 5, -32
 908              		.cfi_offset 6, -28
 909              		.cfi_offset 7, -24
 910              		.cfi_offset 8, -20
 911              		.cfi_offset 9, -16
 912              		.cfi_offset 10, -12
 913              		.cfi_offset 11, -8
 914              		.cfi_offset 14, -4
 915 0004 0446     		mov	r4, r0
 164:lvgl/src/core/lv_obj_scroll.c **** 
 916              		.loc 1 164 5 is_stmt 1 view .LVU224
 164:lvgl/src/core/lv_obj_scroll.c **** 
 917              		.loc 1 164 5 view .LVU225
ARM GAS  C:\usertemp\ccBZVumh.s 			page 36


 164:lvgl/src/core/lv_obj_scroll.c **** 
 918              		.loc 1 164 5 view .LVU226
 168:lvgl/src/core/lv_obj_scroll.c ****         if(obj->spec_attr == NULL) return 0;
 919              		.loc 1 168 5 view .LVU227
 920              	.LVL83:
 921              	.LBB108:
 922              	.LBI108:
 245:lvgl/src/core/lv_obj_style_gen.h **** }
 246:lvgl/src/core/lv_obj_style_gen.h **** 
 247:lvgl/src/core/lv_obj_style_gen.h **** static inline lv_border_side_t lv_obj_get_style_border_side(const struct _lv_obj_t * obj, uint32_t 
 248:lvgl/src/core/lv_obj_style_gen.h **** {
 249:lvgl/src/core/lv_obj_style_gen.h ****     lv_style_value_t v = lv_obj_get_style_prop(obj, part, LV_STYLE_BORDER_SIDE);
 250:lvgl/src/core/lv_obj_style_gen.h ****     return (lv_border_side_t)v.num;
 251:lvgl/src/core/lv_obj_style_gen.h **** }
 252:lvgl/src/core/lv_obj_style_gen.h **** 
 253:lvgl/src/core/lv_obj_style_gen.h **** static inline bool lv_obj_get_style_border_post(const struct _lv_obj_t * obj, uint32_t part)
 254:lvgl/src/core/lv_obj_style_gen.h **** {
 255:lvgl/src/core/lv_obj_style_gen.h ****     lv_style_value_t v = lv_obj_get_style_prop(obj, part, LV_STYLE_BORDER_POST);
 256:lvgl/src/core/lv_obj_style_gen.h ****     return (bool)v.num;
 257:lvgl/src/core/lv_obj_style_gen.h **** }
 258:lvgl/src/core/lv_obj_style_gen.h **** 
 259:lvgl/src/core/lv_obj_style_gen.h **** static inline lv_coord_t lv_obj_get_style_outline_width(const struct _lv_obj_t * obj, uint32_t part
 260:lvgl/src/core/lv_obj_style_gen.h **** {
 261:lvgl/src/core/lv_obj_style_gen.h ****     lv_style_value_t v = lv_obj_get_style_prop(obj, part, LV_STYLE_OUTLINE_WIDTH);
 262:lvgl/src/core/lv_obj_style_gen.h ****     return (lv_coord_t)v.num;
 263:lvgl/src/core/lv_obj_style_gen.h **** }
 264:lvgl/src/core/lv_obj_style_gen.h **** 
 265:lvgl/src/core/lv_obj_style_gen.h **** static inline lv_color_t lv_obj_get_style_outline_color(const struct _lv_obj_t * obj, uint32_t part
 266:lvgl/src/core/lv_obj_style_gen.h **** {
 267:lvgl/src/core/lv_obj_style_gen.h ****     lv_style_value_t v = lv_obj_get_style_prop(obj, part, LV_STYLE_OUTLINE_COLOR);
 268:lvgl/src/core/lv_obj_style_gen.h ****     return v.color;
 269:lvgl/src/core/lv_obj_style_gen.h **** }
 270:lvgl/src/core/lv_obj_style_gen.h **** 
 271:lvgl/src/core/lv_obj_style_gen.h **** static inline lv_color_t lv_obj_get_style_outline_color_filtered(const struct _lv_obj_t * obj, uint
 272:lvgl/src/core/lv_obj_style_gen.h **** {
 273:lvgl/src/core/lv_obj_style_gen.h ****     lv_style_value_t v = lv_obj_get_style_prop(obj, part, LV_STYLE_OUTLINE_COLOR_FILTERED);
 274:lvgl/src/core/lv_obj_style_gen.h ****     return v.color;
 275:lvgl/src/core/lv_obj_style_gen.h **** }
 276:lvgl/src/core/lv_obj_style_gen.h **** 
 277:lvgl/src/core/lv_obj_style_gen.h **** static inline lv_opa_t lv_obj_get_style_outline_opa(const struct _lv_obj_t * obj, uint32_t part)
 278:lvgl/src/core/lv_obj_style_gen.h **** {
 279:lvgl/src/core/lv_obj_style_gen.h ****     lv_style_value_t v = lv_obj_get_style_prop(obj, part, LV_STYLE_OUTLINE_OPA);
 280:lvgl/src/core/lv_obj_style_gen.h ****     return (lv_opa_t)v.num;
 281:lvgl/src/core/lv_obj_style_gen.h **** }
 282:lvgl/src/core/lv_obj_style_gen.h **** 
 283:lvgl/src/core/lv_obj_style_gen.h **** static inline lv_coord_t lv_obj_get_style_outline_pad(const struct _lv_obj_t * obj, uint32_t part)
 284:lvgl/src/core/lv_obj_style_gen.h **** {
 285:lvgl/src/core/lv_obj_style_gen.h ****     lv_style_value_t v = lv_obj_get_style_prop(obj, part, LV_STYLE_OUTLINE_PAD);
 286:lvgl/src/core/lv_obj_style_gen.h ****     return (lv_coord_t)v.num;
 287:lvgl/src/core/lv_obj_style_gen.h **** }
 288:lvgl/src/core/lv_obj_style_gen.h **** 
 289:lvgl/src/core/lv_obj_style_gen.h **** static inline lv_coord_t lv_obj_get_style_shadow_width(const struct _lv_obj_t * obj, uint32_t part)
 290:lvgl/src/core/lv_obj_style_gen.h **** {
 291:lvgl/src/core/lv_obj_style_gen.h ****     lv_style_value_t v = lv_obj_get_style_prop(obj, part, LV_STYLE_SHADOW_WIDTH);
 292:lvgl/src/core/lv_obj_style_gen.h ****     return (lv_coord_t)v.num;
 293:lvgl/src/core/lv_obj_style_gen.h **** }
 294:lvgl/src/core/lv_obj_style_gen.h **** 
ARM GAS  C:\usertemp\ccBZVumh.s 			page 37


 295:lvgl/src/core/lv_obj_style_gen.h **** static inline lv_coord_t lv_obj_get_style_shadow_ofs_x(const struct _lv_obj_t * obj, uint32_t part)
 296:lvgl/src/core/lv_obj_style_gen.h **** {
 297:lvgl/src/core/lv_obj_style_gen.h ****     lv_style_value_t v = lv_obj_get_style_prop(obj, part, LV_STYLE_SHADOW_OFS_X);
 298:lvgl/src/core/lv_obj_style_gen.h ****     return (lv_coord_t)v.num;
 299:lvgl/src/core/lv_obj_style_gen.h **** }
 300:lvgl/src/core/lv_obj_style_gen.h **** 
 301:lvgl/src/core/lv_obj_style_gen.h **** static inline lv_coord_t lv_obj_get_style_shadow_ofs_y(const struct _lv_obj_t * obj, uint32_t part)
 302:lvgl/src/core/lv_obj_style_gen.h **** {
 303:lvgl/src/core/lv_obj_style_gen.h ****     lv_style_value_t v = lv_obj_get_style_prop(obj, part, LV_STYLE_SHADOW_OFS_Y);
 304:lvgl/src/core/lv_obj_style_gen.h ****     return (lv_coord_t)v.num;
 305:lvgl/src/core/lv_obj_style_gen.h **** }
 306:lvgl/src/core/lv_obj_style_gen.h **** 
 307:lvgl/src/core/lv_obj_style_gen.h **** static inline lv_coord_t lv_obj_get_style_shadow_spread(const struct _lv_obj_t * obj, uint32_t part
 308:lvgl/src/core/lv_obj_style_gen.h **** {
 309:lvgl/src/core/lv_obj_style_gen.h ****     lv_style_value_t v = lv_obj_get_style_prop(obj, part, LV_STYLE_SHADOW_SPREAD);
 310:lvgl/src/core/lv_obj_style_gen.h ****     return (lv_coord_t)v.num;
 311:lvgl/src/core/lv_obj_style_gen.h **** }
 312:lvgl/src/core/lv_obj_style_gen.h **** 
 313:lvgl/src/core/lv_obj_style_gen.h **** static inline lv_color_t lv_obj_get_style_shadow_color(const struct _lv_obj_t * obj, uint32_t part)
 314:lvgl/src/core/lv_obj_style_gen.h **** {
 315:lvgl/src/core/lv_obj_style_gen.h ****     lv_style_value_t v = lv_obj_get_style_prop(obj, part, LV_STYLE_SHADOW_COLOR);
 316:lvgl/src/core/lv_obj_style_gen.h ****     return v.color;
 317:lvgl/src/core/lv_obj_style_gen.h **** }
 318:lvgl/src/core/lv_obj_style_gen.h **** 
 319:lvgl/src/core/lv_obj_style_gen.h **** static inline lv_color_t lv_obj_get_style_shadow_color_filtered(const struct _lv_obj_t * obj, uint3
 320:lvgl/src/core/lv_obj_style_gen.h **** {
 321:lvgl/src/core/lv_obj_style_gen.h ****     lv_style_value_t v = lv_obj_get_style_prop(obj, part, LV_STYLE_SHADOW_COLOR_FILTERED);
 322:lvgl/src/core/lv_obj_style_gen.h ****     return v.color;
 323:lvgl/src/core/lv_obj_style_gen.h **** }
 324:lvgl/src/core/lv_obj_style_gen.h **** 
 325:lvgl/src/core/lv_obj_style_gen.h **** static inline lv_opa_t lv_obj_get_style_shadow_opa(const struct _lv_obj_t * obj, uint32_t part)
 326:lvgl/src/core/lv_obj_style_gen.h **** {
 327:lvgl/src/core/lv_obj_style_gen.h ****     lv_style_value_t v = lv_obj_get_style_prop(obj, part, LV_STYLE_SHADOW_OPA);
 328:lvgl/src/core/lv_obj_style_gen.h ****     return (lv_opa_t)v.num;
 329:lvgl/src/core/lv_obj_style_gen.h **** }
 330:lvgl/src/core/lv_obj_style_gen.h **** 
 331:lvgl/src/core/lv_obj_style_gen.h **** static inline lv_opa_t lv_obj_get_style_img_opa(const struct _lv_obj_t * obj, uint32_t part)
 332:lvgl/src/core/lv_obj_style_gen.h **** {
 333:lvgl/src/core/lv_obj_style_gen.h ****     lv_style_value_t v = lv_obj_get_style_prop(obj, part, LV_STYLE_IMG_OPA);
 334:lvgl/src/core/lv_obj_style_gen.h ****     return (lv_opa_t)v.num;
 335:lvgl/src/core/lv_obj_style_gen.h **** }
 336:lvgl/src/core/lv_obj_style_gen.h **** 
 337:lvgl/src/core/lv_obj_style_gen.h **** static inline lv_color_t lv_obj_get_style_img_recolor(const struct _lv_obj_t * obj, uint32_t part)
 338:lvgl/src/core/lv_obj_style_gen.h **** {
 339:lvgl/src/core/lv_obj_style_gen.h ****     lv_style_value_t v = lv_obj_get_style_prop(obj, part, LV_STYLE_IMG_RECOLOR);
 340:lvgl/src/core/lv_obj_style_gen.h ****     return v.color;
 341:lvgl/src/core/lv_obj_style_gen.h **** }
 342:lvgl/src/core/lv_obj_style_gen.h **** 
 343:lvgl/src/core/lv_obj_style_gen.h **** static inline lv_color_t lv_obj_get_style_img_recolor_filtered(const struct _lv_obj_t * obj, uint32
 344:lvgl/src/core/lv_obj_style_gen.h **** {
 345:lvgl/src/core/lv_obj_style_gen.h ****     lv_style_value_t v = lv_obj_get_style_prop(obj, part, LV_STYLE_IMG_RECOLOR_FILTERED);
 346:lvgl/src/core/lv_obj_style_gen.h ****     return v.color;
 347:lvgl/src/core/lv_obj_style_gen.h **** }
 348:lvgl/src/core/lv_obj_style_gen.h **** 
 349:lvgl/src/core/lv_obj_style_gen.h **** static inline lv_opa_t lv_obj_get_style_img_recolor_opa(const struct _lv_obj_t * obj, uint32_t part
 350:lvgl/src/core/lv_obj_style_gen.h **** {
 351:lvgl/src/core/lv_obj_style_gen.h ****     lv_style_value_t v = lv_obj_get_style_prop(obj, part, LV_STYLE_IMG_RECOLOR_OPA);
ARM GAS  C:\usertemp\ccBZVumh.s 			page 38


 352:lvgl/src/core/lv_obj_style_gen.h ****     return (lv_opa_t)v.num;
 353:lvgl/src/core/lv_obj_style_gen.h **** }
 354:lvgl/src/core/lv_obj_style_gen.h **** 
 355:lvgl/src/core/lv_obj_style_gen.h **** static inline lv_coord_t lv_obj_get_style_line_width(const struct _lv_obj_t * obj, uint32_t part)
 356:lvgl/src/core/lv_obj_style_gen.h **** {
 357:lvgl/src/core/lv_obj_style_gen.h ****     lv_style_value_t v = lv_obj_get_style_prop(obj, part, LV_STYLE_LINE_WIDTH);
 358:lvgl/src/core/lv_obj_style_gen.h ****     return (lv_coord_t)v.num;
 359:lvgl/src/core/lv_obj_style_gen.h **** }
 360:lvgl/src/core/lv_obj_style_gen.h **** 
 361:lvgl/src/core/lv_obj_style_gen.h **** static inline lv_coord_t lv_obj_get_style_line_dash_width(const struct _lv_obj_t * obj, uint32_t pa
 362:lvgl/src/core/lv_obj_style_gen.h **** {
 363:lvgl/src/core/lv_obj_style_gen.h ****     lv_style_value_t v = lv_obj_get_style_prop(obj, part, LV_STYLE_LINE_DASH_WIDTH);
 364:lvgl/src/core/lv_obj_style_gen.h ****     return (lv_coord_t)v.num;
 365:lvgl/src/core/lv_obj_style_gen.h **** }
 366:lvgl/src/core/lv_obj_style_gen.h **** 
 367:lvgl/src/core/lv_obj_style_gen.h **** static inline lv_coord_t lv_obj_get_style_line_dash_gap(const struct _lv_obj_t * obj, uint32_t part
 368:lvgl/src/core/lv_obj_style_gen.h **** {
 369:lvgl/src/core/lv_obj_style_gen.h ****     lv_style_value_t v = lv_obj_get_style_prop(obj, part, LV_STYLE_LINE_DASH_GAP);
 370:lvgl/src/core/lv_obj_style_gen.h ****     return (lv_coord_t)v.num;
 371:lvgl/src/core/lv_obj_style_gen.h **** }
 372:lvgl/src/core/lv_obj_style_gen.h **** 
 373:lvgl/src/core/lv_obj_style_gen.h **** static inline bool lv_obj_get_style_line_rounded(const struct _lv_obj_t * obj, uint32_t part)
 374:lvgl/src/core/lv_obj_style_gen.h **** {
 375:lvgl/src/core/lv_obj_style_gen.h ****     lv_style_value_t v = lv_obj_get_style_prop(obj, part, LV_STYLE_LINE_ROUNDED);
 376:lvgl/src/core/lv_obj_style_gen.h ****     return (bool)v.num;
 377:lvgl/src/core/lv_obj_style_gen.h **** }
 378:lvgl/src/core/lv_obj_style_gen.h **** 
 379:lvgl/src/core/lv_obj_style_gen.h **** static inline lv_color_t lv_obj_get_style_line_color(const struct _lv_obj_t * obj, uint32_t part)
 380:lvgl/src/core/lv_obj_style_gen.h **** {
 381:lvgl/src/core/lv_obj_style_gen.h ****     lv_style_value_t v = lv_obj_get_style_prop(obj, part, LV_STYLE_LINE_COLOR);
 382:lvgl/src/core/lv_obj_style_gen.h ****     return v.color;
 383:lvgl/src/core/lv_obj_style_gen.h **** }
 384:lvgl/src/core/lv_obj_style_gen.h **** 
 385:lvgl/src/core/lv_obj_style_gen.h **** static inline lv_color_t lv_obj_get_style_line_color_filtered(const struct _lv_obj_t * obj, uint32_
 386:lvgl/src/core/lv_obj_style_gen.h **** {
 387:lvgl/src/core/lv_obj_style_gen.h ****     lv_style_value_t v = lv_obj_get_style_prop(obj, part, LV_STYLE_LINE_COLOR_FILTERED);
 388:lvgl/src/core/lv_obj_style_gen.h ****     return v.color;
 389:lvgl/src/core/lv_obj_style_gen.h **** }
 390:lvgl/src/core/lv_obj_style_gen.h **** 
 391:lvgl/src/core/lv_obj_style_gen.h **** static inline lv_opa_t lv_obj_get_style_line_opa(const struct _lv_obj_t * obj, uint32_t part)
 392:lvgl/src/core/lv_obj_style_gen.h **** {
 393:lvgl/src/core/lv_obj_style_gen.h ****     lv_style_value_t v = lv_obj_get_style_prop(obj, part, LV_STYLE_LINE_OPA);
 394:lvgl/src/core/lv_obj_style_gen.h ****     return (lv_opa_t)v.num;
 395:lvgl/src/core/lv_obj_style_gen.h **** }
 396:lvgl/src/core/lv_obj_style_gen.h **** 
 397:lvgl/src/core/lv_obj_style_gen.h **** static inline lv_coord_t lv_obj_get_style_arc_width(const struct _lv_obj_t * obj, uint32_t part)
 398:lvgl/src/core/lv_obj_style_gen.h **** {
 399:lvgl/src/core/lv_obj_style_gen.h ****     lv_style_value_t v = lv_obj_get_style_prop(obj, part, LV_STYLE_ARC_WIDTH);
 400:lvgl/src/core/lv_obj_style_gen.h ****     return (lv_coord_t)v.num;
 401:lvgl/src/core/lv_obj_style_gen.h **** }
 402:lvgl/src/core/lv_obj_style_gen.h **** 
 403:lvgl/src/core/lv_obj_style_gen.h **** static inline bool lv_obj_get_style_arc_rounded(const struct _lv_obj_t * obj, uint32_t part)
 404:lvgl/src/core/lv_obj_style_gen.h **** {
 405:lvgl/src/core/lv_obj_style_gen.h ****     lv_style_value_t v = lv_obj_get_style_prop(obj, part, LV_STYLE_ARC_ROUNDED);
 406:lvgl/src/core/lv_obj_style_gen.h ****     return (bool)v.num;
 407:lvgl/src/core/lv_obj_style_gen.h **** }
 408:lvgl/src/core/lv_obj_style_gen.h **** 
ARM GAS  C:\usertemp\ccBZVumh.s 			page 39


 409:lvgl/src/core/lv_obj_style_gen.h **** static inline lv_color_t lv_obj_get_style_arc_color(const struct _lv_obj_t * obj, uint32_t part)
 410:lvgl/src/core/lv_obj_style_gen.h **** {
 411:lvgl/src/core/lv_obj_style_gen.h ****     lv_style_value_t v = lv_obj_get_style_prop(obj, part, LV_STYLE_ARC_COLOR);
 412:lvgl/src/core/lv_obj_style_gen.h ****     return v.color;
 413:lvgl/src/core/lv_obj_style_gen.h **** }
 414:lvgl/src/core/lv_obj_style_gen.h **** 
 415:lvgl/src/core/lv_obj_style_gen.h **** static inline lv_color_t lv_obj_get_style_arc_color_filtered(const struct _lv_obj_t * obj, uint32_t
 416:lvgl/src/core/lv_obj_style_gen.h **** {
 417:lvgl/src/core/lv_obj_style_gen.h ****     lv_style_value_t v = lv_obj_get_style_prop(obj, part, LV_STYLE_ARC_COLOR_FILTERED);
 418:lvgl/src/core/lv_obj_style_gen.h ****     return v.color;
 419:lvgl/src/core/lv_obj_style_gen.h **** }
 420:lvgl/src/core/lv_obj_style_gen.h **** 
 421:lvgl/src/core/lv_obj_style_gen.h **** static inline lv_opa_t lv_obj_get_style_arc_opa(const struct _lv_obj_t * obj, uint32_t part)
 422:lvgl/src/core/lv_obj_style_gen.h **** {
 423:lvgl/src/core/lv_obj_style_gen.h ****     lv_style_value_t v = lv_obj_get_style_prop(obj, part, LV_STYLE_ARC_OPA);
 424:lvgl/src/core/lv_obj_style_gen.h ****     return (lv_opa_t)v.num;
 425:lvgl/src/core/lv_obj_style_gen.h **** }
 426:lvgl/src/core/lv_obj_style_gen.h **** 
 427:lvgl/src/core/lv_obj_style_gen.h **** static inline const void * lv_obj_get_style_arc_img_src(const struct _lv_obj_t * obj, uint32_t part
 428:lvgl/src/core/lv_obj_style_gen.h **** {
 429:lvgl/src/core/lv_obj_style_gen.h ****     lv_style_value_t v = lv_obj_get_style_prop(obj, part, LV_STYLE_ARC_IMG_SRC);
 430:lvgl/src/core/lv_obj_style_gen.h ****     return (const void *)v.ptr;
 431:lvgl/src/core/lv_obj_style_gen.h **** }
 432:lvgl/src/core/lv_obj_style_gen.h **** 
 433:lvgl/src/core/lv_obj_style_gen.h **** static inline lv_color_t lv_obj_get_style_text_color(const struct _lv_obj_t * obj, uint32_t part)
 434:lvgl/src/core/lv_obj_style_gen.h **** {
 435:lvgl/src/core/lv_obj_style_gen.h ****     lv_style_value_t v = lv_obj_get_style_prop(obj, part, LV_STYLE_TEXT_COLOR);
 436:lvgl/src/core/lv_obj_style_gen.h ****     return v.color;
 437:lvgl/src/core/lv_obj_style_gen.h **** }
 438:lvgl/src/core/lv_obj_style_gen.h **** 
 439:lvgl/src/core/lv_obj_style_gen.h **** static inline lv_color_t lv_obj_get_style_text_color_filtered(const struct _lv_obj_t * obj, uint32_
 440:lvgl/src/core/lv_obj_style_gen.h **** {
 441:lvgl/src/core/lv_obj_style_gen.h ****     lv_style_value_t v = lv_obj_get_style_prop(obj, part, LV_STYLE_TEXT_COLOR_FILTERED);
 442:lvgl/src/core/lv_obj_style_gen.h ****     return v.color;
 443:lvgl/src/core/lv_obj_style_gen.h **** }
 444:lvgl/src/core/lv_obj_style_gen.h **** 
 445:lvgl/src/core/lv_obj_style_gen.h **** static inline lv_opa_t lv_obj_get_style_text_opa(const struct _lv_obj_t * obj, uint32_t part)
 446:lvgl/src/core/lv_obj_style_gen.h **** {
 447:lvgl/src/core/lv_obj_style_gen.h ****     lv_style_value_t v = lv_obj_get_style_prop(obj, part, LV_STYLE_TEXT_OPA);
 448:lvgl/src/core/lv_obj_style_gen.h ****     return (lv_opa_t)v.num;
 449:lvgl/src/core/lv_obj_style_gen.h **** }
 450:lvgl/src/core/lv_obj_style_gen.h **** 
 451:lvgl/src/core/lv_obj_style_gen.h **** static inline const lv_font_t * lv_obj_get_style_text_font(const struct _lv_obj_t * obj, uint32_t p
 452:lvgl/src/core/lv_obj_style_gen.h **** {
 453:lvgl/src/core/lv_obj_style_gen.h ****     lv_style_value_t v = lv_obj_get_style_prop(obj, part, LV_STYLE_TEXT_FONT);
 454:lvgl/src/core/lv_obj_style_gen.h ****     return (const lv_font_t *)v.ptr;
 455:lvgl/src/core/lv_obj_style_gen.h **** }
 456:lvgl/src/core/lv_obj_style_gen.h **** 
 457:lvgl/src/core/lv_obj_style_gen.h **** static inline lv_coord_t lv_obj_get_style_text_letter_space(const struct _lv_obj_t * obj, uint32_t 
 458:lvgl/src/core/lv_obj_style_gen.h **** {
 459:lvgl/src/core/lv_obj_style_gen.h ****     lv_style_value_t v = lv_obj_get_style_prop(obj, part, LV_STYLE_TEXT_LETTER_SPACE);
 460:lvgl/src/core/lv_obj_style_gen.h ****     return (lv_coord_t)v.num;
 461:lvgl/src/core/lv_obj_style_gen.h **** }
 462:lvgl/src/core/lv_obj_style_gen.h **** 
 463:lvgl/src/core/lv_obj_style_gen.h **** static inline lv_coord_t lv_obj_get_style_text_line_space(const struct _lv_obj_t * obj, uint32_t pa
 464:lvgl/src/core/lv_obj_style_gen.h **** {
 465:lvgl/src/core/lv_obj_style_gen.h ****     lv_style_value_t v = lv_obj_get_style_prop(obj, part, LV_STYLE_TEXT_LINE_SPACE);
ARM GAS  C:\usertemp\ccBZVumh.s 			page 40


 466:lvgl/src/core/lv_obj_style_gen.h ****     return (lv_coord_t)v.num;
 467:lvgl/src/core/lv_obj_style_gen.h **** }
 468:lvgl/src/core/lv_obj_style_gen.h **** 
 469:lvgl/src/core/lv_obj_style_gen.h **** static inline lv_text_decor_t lv_obj_get_style_text_decor(const struct _lv_obj_t * obj, uint32_t pa
 470:lvgl/src/core/lv_obj_style_gen.h **** {
 471:lvgl/src/core/lv_obj_style_gen.h ****     lv_style_value_t v = lv_obj_get_style_prop(obj, part, LV_STYLE_TEXT_DECOR);
 472:lvgl/src/core/lv_obj_style_gen.h ****     return (lv_text_decor_t)v.num;
 473:lvgl/src/core/lv_obj_style_gen.h **** }
 474:lvgl/src/core/lv_obj_style_gen.h **** 
 475:lvgl/src/core/lv_obj_style_gen.h **** static inline lv_text_align_t lv_obj_get_style_text_align(const struct _lv_obj_t * obj, uint32_t pa
 476:lvgl/src/core/lv_obj_style_gen.h **** {
 477:lvgl/src/core/lv_obj_style_gen.h ****     lv_style_value_t v = lv_obj_get_style_prop(obj, part, LV_STYLE_TEXT_ALIGN);
 478:lvgl/src/core/lv_obj_style_gen.h ****     return (lv_text_align_t)v.num;
 479:lvgl/src/core/lv_obj_style_gen.h **** }
 480:lvgl/src/core/lv_obj_style_gen.h **** 
 481:lvgl/src/core/lv_obj_style_gen.h **** static inline lv_coord_t lv_obj_get_style_radius(const struct _lv_obj_t * obj, uint32_t part)
 482:lvgl/src/core/lv_obj_style_gen.h **** {
 483:lvgl/src/core/lv_obj_style_gen.h ****     lv_style_value_t v = lv_obj_get_style_prop(obj, part, LV_STYLE_RADIUS);
 484:lvgl/src/core/lv_obj_style_gen.h ****     return (lv_coord_t)v.num;
 485:lvgl/src/core/lv_obj_style_gen.h **** }
 486:lvgl/src/core/lv_obj_style_gen.h **** 
 487:lvgl/src/core/lv_obj_style_gen.h **** static inline bool lv_obj_get_style_clip_corner(const struct _lv_obj_t * obj, uint32_t part)
 488:lvgl/src/core/lv_obj_style_gen.h **** {
 489:lvgl/src/core/lv_obj_style_gen.h ****     lv_style_value_t v = lv_obj_get_style_prop(obj, part, LV_STYLE_CLIP_CORNER);
 490:lvgl/src/core/lv_obj_style_gen.h ****     return (bool)v.num;
 491:lvgl/src/core/lv_obj_style_gen.h **** }
 492:lvgl/src/core/lv_obj_style_gen.h **** 
 493:lvgl/src/core/lv_obj_style_gen.h **** static inline lv_opa_t lv_obj_get_style_opa(const struct _lv_obj_t * obj, uint32_t part)
 494:lvgl/src/core/lv_obj_style_gen.h **** {
 495:lvgl/src/core/lv_obj_style_gen.h ****     lv_style_value_t v = lv_obj_get_style_prop(obj, part, LV_STYLE_OPA);
 496:lvgl/src/core/lv_obj_style_gen.h ****     return (lv_opa_t)v.num;
 497:lvgl/src/core/lv_obj_style_gen.h **** }
 498:lvgl/src/core/lv_obj_style_gen.h **** 
 499:lvgl/src/core/lv_obj_style_gen.h **** static inline const lv_color_filter_dsc_t * lv_obj_get_style_color_filter_dsc(const struct _lv_obj_
 500:lvgl/src/core/lv_obj_style_gen.h ****                                                                               uint32_t part)
 501:lvgl/src/core/lv_obj_style_gen.h **** {
 502:lvgl/src/core/lv_obj_style_gen.h ****     lv_style_value_t v = lv_obj_get_style_prop(obj, part, LV_STYLE_COLOR_FILTER_DSC);
 503:lvgl/src/core/lv_obj_style_gen.h ****     return (const lv_color_filter_dsc_t *)v.ptr;
 504:lvgl/src/core/lv_obj_style_gen.h **** }
 505:lvgl/src/core/lv_obj_style_gen.h **** 
 506:lvgl/src/core/lv_obj_style_gen.h **** static inline lv_opa_t lv_obj_get_style_color_filter_opa(const struct _lv_obj_t * obj, uint32_t par
 507:lvgl/src/core/lv_obj_style_gen.h **** {
 508:lvgl/src/core/lv_obj_style_gen.h ****     lv_style_value_t v = lv_obj_get_style_prop(obj, part, LV_STYLE_COLOR_FILTER_OPA);
 509:lvgl/src/core/lv_obj_style_gen.h ****     return (lv_opa_t)v.num;
 510:lvgl/src/core/lv_obj_style_gen.h **** }
 511:lvgl/src/core/lv_obj_style_gen.h **** 
 512:lvgl/src/core/lv_obj_style_gen.h **** static inline uint32_t lv_obj_get_style_anim_time(const struct _lv_obj_t * obj, uint32_t part)
 513:lvgl/src/core/lv_obj_style_gen.h **** {
 514:lvgl/src/core/lv_obj_style_gen.h ****     lv_style_value_t v = lv_obj_get_style_prop(obj, part, LV_STYLE_ANIM_TIME);
 515:lvgl/src/core/lv_obj_style_gen.h ****     return (uint32_t)v.num;
 516:lvgl/src/core/lv_obj_style_gen.h **** }
 517:lvgl/src/core/lv_obj_style_gen.h **** 
 518:lvgl/src/core/lv_obj_style_gen.h **** static inline uint32_t lv_obj_get_style_anim_speed(const struct _lv_obj_t * obj, uint32_t part)
 519:lvgl/src/core/lv_obj_style_gen.h **** {
 520:lvgl/src/core/lv_obj_style_gen.h ****     lv_style_value_t v = lv_obj_get_style_prop(obj, part, LV_STYLE_ANIM_SPEED);
 521:lvgl/src/core/lv_obj_style_gen.h ****     return (uint32_t)v.num;
 522:lvgl/src/core/lv_obj_style_gen.h **** }
ARM GAS  C:\usertemp\ccBZVumh.s 			page 41


 523:lvgl/src/core/lv_obj_style_gen.h **** 
 524:lvgl/src/core/lv_obj_style_gen.h **** static inline const lv_style_transition_dsc_t * lv_obj_get_style_transition(const struct _lv_obj_t 
 525:lvgl/src/core/lv_obj_style_gen.h **** {
 526:lvgl/src/core/lv_obj_style_gen.h ****     lv_style_value_t v = lv_obj_get_style_prop(obj, part, LV_STYLE_TRANSITION);
 527:lvgl/src/core/lv_obj_style_gen.h ****     return (const lv_style_transition_dsc_t *)v.ptr;
 528:lvgl/src/core/lv_obj_style_gen.h **** }
 529:lvgl/src/core/lv_obj_style_gen.h **** 
 530:lvgl/src/core/lv_obj_style_gen.h **** static inline lv_blend_mode_t lv_obj_get_style_blend_mode(const struct _lv_obj_t * obj, uint32_t pa
 531:lvgl/src/core/lv_obj_style_gen.h **** {
 532:lvgl/src/core/lv_obj_style_gen.h ****     lv_style_value_t v = lv_obj_get_style_prop(obj, part, LV_STYLE_BLEND_MODE);
 533:lvgl/src/core/lv_obj_style_gen.h ****     return (lv_blend_mode_t)v.num;
 534:lvgl/src/core/lv_obj_style_gen.h **** }
 535:lvgl/src/core/lv_obj_style_gen.h **** 
 536:lvgl/src/core/lv_obj_style_gen.h **** static inline uint16_t lv_obj_get_style_layout(const struct _lv_obj_t * obj, uint32_t part)
 537:lvgl/src/core/lv_obj_style_gen.h **** {
 538:lvgl/src/core/lv_obj_style_gen.h ****     lv_style_value_t v = lv_obj_get_style_prop(obj, part, LV_STYLE_LAYOUT);
 539:lvgl/src/core/lv_obj_style_gen.h ****     return (uint16_t)v.num;
 540:lvgl/src/core/lv_obj_style_gen.h **** }
 541:lvgl/src/core/lv_obj_style_gen.h **** 
 542:lvgl/src/core/lv_obj_style_gen.h **** static inline lv_base_dir_t lv_obj_get_style_base_dir(const struct _lv_obj_t * obj, uint32_t part)
 923              		.loc 2 542 29 view .LVU228
 924              	.LBB109:
 543:lvgl/src/core/lv_obj_style_gen.h **** {
 544:lvgl/src/core/lv_obj_style_gen.h ****     lv_style_value_t v = lv_obj_get_style_prop(obj, part, LV_STYLE_BASE_DIR);
 925              		.loc 2 544 5 view .LVU229
 926              		.loc 2 544 26 is_stmt 0 view .LVU230
 927 0006 41F26A42 		movw	r2, #5226
 928 000a 0021     		movs	r1, #0
 929 000c FFF7FEFF 		bl	lv_obj_get_style_prop
 930              	.LVL84:
 545:lvgl/src/core/lv_obj_style_gen.h ****     return (lv_base_dir_t)v.num;
 931              		.loc 2 545 5 is_stmt 1 view .LVU231
 932              		.loc 2 545 12 is_stmt 0 view .LVU232
 933 0010 C0B2     		uxtb	r0, r0
 934              	.LVL85:
 935              		.loc 2 545 12 view .LVU233
 936              	.LBE109:
 937              	.LBE108:
 168:lvgl/src/core/lv_obj_scroll.c ****         if(obj->spec_attr == NULL) return 0;
 938              		.loc 1 168 7 discriminator 1 view .LVU234
 939 0012 0128     		cmp	r0, #1
 940 0014 07D0     		beq	.L57
 169:lvgl/src/core/lv_obj_scroll.c ****         return -obj->spec_attr->scroll.x;
 941              		.loc 1 169 9 is_stmt 1 view .LVU235
 169:lvgl/src/core/lv_obj_scroll.c ****         return -obj->spec_attr->scroll.x;
 942              		.loc 1 169 15 is_stmt 0 view .LVU236
 943 0016 A368     		ldr	r3, [r4, #8]
 169:lvgl/src/core/lv_obj_scroll.c ****         return -obj->spec_attr->scroll.x;
 944              		.loc 1 169 11 view .LVU237
 945 0018 002B     		cmp	r3, #0
 946 001a 60D0     		beq	.L63
 170:lvgl/src/core/lv_obj_scroll.c ****     }
 947              		.loc 1 170 9 is_stmt 1 view .LVU238
 170:lvgl/src/core/lv_obj_scroll.c ****     }
 948              		.loc 1 170 39 is_stmt 0 view .LVU239
 949 001c 188A     		ldrh	r0, [r3, #16]
 170:lvgl/src/core/lv_obj_scroll.c ****     }
ARM GAS  C:\usertemp\ccBZVumh.s 			page 42


 950              		.loc 1 170 16 view .LVU240
 951 001e 4042     		rsbs	r0, r0, #0
 952 0020 00B2     		sxth	r0, r0
 953              	.L58:
 203:lvgl/src/core/lv_obj_scroll.c **** 
 954              		.loc 1 203 1 view .LVU241
 955 0022 BDE8F88F 		pop	{r3, r4, r5, r6, r7, r8, r9, r10, fp, pc}
 956              	.LVL86:
 957              	.L57:
 174:lvgl/src/core/lv_obj_scroll.c ****     lv_coord_t pad_left = lv_obj_get_style_pad_left(obj, LV_PART_MAIN);
 958              		.loc 1 174 5 is_stmt 1 view .LVU242
 959              	.LBB110:
 960              	.LBI110:
 109:lvgl/src/core/lv_obj_style_gen.h **** {
 961              		.loc 2 109 26 view .LVU243
 962              	.LBB111:
 111:lvgl/src/core/lv_obj_style_gen.h ****     return (lv_coord_t)v.num;
 963              		.loc 2 111 5 view .LVU244
 111:lvgl/src/core/lv_obj_style_gen.h ****     return (lv_coord_t)v.num;
 964              		.loc 2 111 26 is_stmt 0 view .LVU245
 965 0026 41F61302 		movw	r2, #6163
 966 002a 0021     		movs	r1, #0
 967 002c 2046     		mov	r0, r4
 968 002e FFF7FEFF 		bl	lv_obj_get_style_prop
 969              	.LVL87:
 970 0032 0746     		mov	r7, r0
 112:lvgl/src/core/lv_obj_style_gen.h **** }
 971              		.loc 2 112 5 is_stmt 1 view .LVU246
 972              	.LVL88:
 112:lvgl/src/core/lv_obj_style_gen.h **** }
 973              		.loc 2 112 5 is_stmt 0 view .LVU247
 974              	.LBE111:
 975              	.LBE110:
 175:lvgl/src/core/lv_obj_scroll.c ****     lv_coord_t border_width = lv_obj_get_style_border_width(obj, LV_PART_MAIN);
 976              		.loc 1 175 5 is_stmt 1 view .LVU248
 977              	.LBB112:
 978              	.LBI112:
 103:lvgl/src/core/lv_obj_style_gen.h **** {
 979              		.loc 2 103 26 view .LVU249
 980              	.LBB113:
 105:lvgl/src/core/lv_obj_style_gen.h ****     return (lv_coord_t)v.num;
 981              		.loc 2 105 5 view .LVU250
 105:lvgl/src/core/lv_obj_style_gen.h ****     return (lv_coord_t)v.num;
 982              		.loc 2 105 26 is_stmt 0 view .LVU251
 983 0034 41F61202 		movw	r2, #6162
 984 0038 0021     		movs	r1, #0
 985 003a 2046     		mov	r0, r4
 986 003c FFF7FEFF 		bl	lv_obj_get_style_prop
 987              	.LVL89:
 988 0040 8346     		mov	fp, r0
 106:lvgl/src/core/lv_obj_style_gen.h **** }
 989              		.loc 2 106 5 is_stmt 1 view .LVU252
 990              	.LVL90:
 106:lvgl/src/core/lv_obj_style_gen.h **** }
 991              		.loc 2 106 5 is_stmt 0 view .LVU253
 992              	.LBE113:
 993              	.LBE112:
ARM GAS  C:\usertemp\ccBZVumh.s 			page 43


 176:lvgl/src/core/lv_obj_scroll.c **** 
 994              		.loc 1 176 5 is_stmt 1 view .LVU254
 995              	.LBB114:
 996              	.LBI114:
 241:lvgl/src/core/lv_obj_style_gen.h **** {
 997              		.loc 2 241 26 view .LVU255
 998              	.LBB115:
 243:lvgl/src/core/lv_obj_style_gen.h ****     return (lv_coord_t)v.num;
 999              		.loc 2 243 5 view .LVU256
 243:lvgl/src/core/lv_obj_style_gen.h ****     return (lv_coord_t)v.num;
 1000              		.loc 2 243 26 is_stmt 0 view .LVU257
 1001 0042 41F23202 		movw	r2, #4146
 1002 0046 0021     		movs	r1, #0
 1003 0048 2046     		mov	r0, r4
 1004 004a FFF7FEFF 		bl	lv_obj_get_style_prop
 1005              	.LVL91:
 1006 004e 8246     		mov	r10, r0
 244:lvgl/src/core/lv_obj_style_gen.h **** }
 1007              		.loc 2 244 5 is_stmt 1 view .LVU258
 1008              	.LVL92:
 244:lvgl/src/core/lv_obj_style_gen.h **** }
 1009              		.loc 2 244 5 is_stmt 0 view .LVU259
 1010              	.LBE115:
 1011              	.LBE114:
 178:lvgl/src/core/lv_obj_scroll.c **** 
 1012              		.loc 1 178 5 is_stmt 1 view .LVU260
 180:lvgl/src/core/lv_obj_scroll.c ****     lv_coord_t x1 = LV_COORD_MAX;
 1013              		.loc 1 180 5 view .LVU261
 181:lvgl/src/core/lv_obj_scroll.c ****     uint32_t child_cnt = lv_obj_get_child_cnt(obj);
 1014              		.loc 1 181 5 view .LVU262
 182:lvgl/src/core/lv_obj_scroll.c ****     for(i = 0; i < child_cnt; i++) {
 1015              		.loc 1 182 5 view .LVU263
 182:lvgl/src/core/lv_obj_scroll.c ****     for(i = 0; i < child_cnt; i++) {
 1016              		.loc 1 182 26 is_stmt 0 view .LVU264
 1017 0050 2046     		mov	r0, r4
 1018 0052 FFF7FEFF 		bl	lv_obj_get_child_cnt
 1019              	.LVL93:
 1020 0056 8146     		mov	r9, r0
 1021              	.LVL94:
 183:lvgl/src/core/lv_obj_scroll.c ****         lv_obj_t * child = obj->spec_attr->children[i];
 1022              		.loc 1 183 5 is_stmt 1 view .LVU265
 181:lvgl/src/core/lv_obj_scroll.c ****     uint32_t child_cnt = lv_obj_get_child_cnt(obj);
 1023              		.loc 1 181 16 is_stmt 0 view .LVU266
 1024 0058 41F6FF78 		movw	r8, #8191
 183:lvgl/src/core/lv_obj_scroll.c ****         lv_obj_t * child = obj->spec_attr->children[i];
 1025              		.loc 1 183 11 view .LVU267
 1026 005c 0025     		movs	r5, #0
 183:lvgl/src/core/lv_obj_scroll.c ****         lv_obj_t * child = obj->spec_attr->children[i];
 1027              		.loc 1 183 5 view .LVU268
 1028 005e 05E0     		b	.L59
 1029              	.LVL95:
 1030              	.L67:
 1031              	.LBB116:
 186:lvgl/src/core/lv_obj_scroll.c **** 
 1032              		.loc 1 186 9 is_stmt 1 view .LVU269
 186:lvgl/src/core/lv_obj_scroll.c **** 
 1033              		.loc 1 186 14 is_stmt 0 view .LVU270
ARM GAS  C:\usertemp\ccBZVumh.s 			page 44


 1034 0060 B6F91430 		ldrsh	r3, [r6, #20]
 186:lvgl/src/core/lv_obj_scroll.c **** 
 1035              		.loc 1 186 12 view .LVU271
 1036 0064 9845     		cmp	r8, r3
 1037 0066 A8BF     		it	ge
 1038 0068 9846     		movge	r8, r3
 1039              	.LVL96:
 1040              	.L60:
 186:lvgl/src/core/lv_obj_scroll.c **** 
 1041              		.loc 1 186 12 view .LVU272
 1042              	.LBE116:
 183:lvgl/src/core/lv_obj_scroll.c ****         lv_obj_t * child = obj->spec_attr->children[i];
 1043              		.loc 1 183 32 is_stmt 1 discriminator 2 view .LVU273
 1044 006a 0135     		adds	r5, r5, #1
 1045              	.LVL97:
 1046              	.L59:
 183:lvgl/src/core/lv_obj_scroll.c ****         lv_obj_t * child = obj->spec_attr->children[i];
 1047              		.loc 1 183 18 discriminator 1 view .LVU274
 1048 006c 4D45     		cmp	r5, r9
 1049 006e 0AD2     		bcs	.L66
 1050              	.LBB117:
 184:lvgl/src/core/lv_obj_scroll.c ****         if(lv_obj_has_flag_any(child,  LV_OBJ_FLAG_HIDDEN | LV_OBJ_FLAG_FLOATING)) continue;
 1051              		.loc 1 184 9 view .LVU275
 184:lvgl/src/core/lv_obj_scroll.c ****         if(lv_obj_has_flag_any(child,  LV_OBJ_FLAG_HIDDEN | LV_OBJ_FLAG_FLOATING)) continue;
 1052              		.loc 1 184 31 is_stmt 0 view .LVU276
 1053 0070 A368     		ldr	r3, [r4, #8]
 184:lvgl/src/core/lv_obj_scroll.c ****         if(lv_obj_has_flag_any(child,  LV_OBJ_FLAG_HIDDEN | LV_OBJ_FLAG_FLOATING)) continue;
 1054              		.loc 1 184 42 view .LVU277
 1055 0072 1B68     		ldr	r3, [r3]
 184:lvgl/src/core/lv_obj_scroll.c ****         if(lv_obj_has_flag_any(child,  LV_OBJ_FLAG_HIDDEN | LV_OBJ_FLAG_FLOATING)) continue;
 1056              		.loc 1 184 20 view .LVU278
 1057 0074 53F82560 		ldr	r6, [r3, r5, lsl #2]
 1058              	.LVL98:
 185:lvgl/src/core/lv_obj_scroll.c ****         x1 = LV_MIN(x1, child->coords.x1);
 1059              		.loc 1 185 9 is_stmt 1 view .LVU279
 185:lvgl/src/core/lv_obj_scroll.c ****         x1 = LV_MIN(x1, child->coords.x1);
 1060              		.loc 1 185 12 is_stmt 0 view .LVU280
 1061 0078 1A49     		ldr	r1, .L68
 1062 007a 3046     		mov	r0, r6
 1063 007c FFF7FEFF 		bl	lv_obj_has_flag_any
 1064              	.LVL99:
 185:lvgl/src/core/lv_obj_scroll.c ****         x1 = LV_MIN(x1, child->coords.x1);
 1065              		.loc 1 185 11 discriminator 1 view .LVU281
 1066 0080 0028     		cmp	r0, #0
 1067 0082 EDD0     		beq	.L67
 1068 0084 F1E7     		b	.L60
 1069              	.LVL100:
 1070              	.L66:
 185:lvgl/src/core/lv_obj_scroll.c ****         x1 = LV_MIN(x1, child->coords.x1);
 1071              		.loc 1 185 11 discriminator 1 view .LVU282
 1072              	.LBE117:
 190:lvgl/src/core/lv_obj_scroll.c ****         child_res = x1;
 1073              		.loc 1 190 5 is_stmt 1 view .LVU283
 190:lvgl/src/core/lv_obj_scroll.c ****         child_res = x1;
 1074              		.loc 1 190 7 is_stmt 0 view .LVU284
 1075 0086 41F6FF73 		movw	r3, #8191
 1076 008a 9845     		cmp	r8, r3
ARM GAS  C:\usertemp\ccBZVumh.s 			page 45


 1077 008c 25D0     		beq	.L64
 191:lvgl/src/core/lv_obj_scroll.c ****         child_res = (obj->coords.x1 + pad_left + border_width) - child_res;
 1078              		.loc 1 191 9 is_stmt 1 view .LVU285
 1079              	.LVL101:
 192:lvgl/src/core/lv_obj_scroll.c ****     }
 1080              		.loc 1 192 9 view .LVU286
 192:lvgl/src/core/lv_obj_scroll.c ****     }
 1081              		.loc 1 192 33 is_stmt 0 view .LVU287
 1082 008e A58A     		ldrh	r5, [r4, #20]
 1083              	.LVL102:
 192:lvgl/src/core/lv_obj_scroll.c ****     }
 1084              		.loc 1 192 37 view .LVU288
 1085 0090 5D44     		add	r5, r5, fp
 192:lvgl/src/core/lv_obj_scroll.c ****     }
 1086              		.loc 1 192 48 view .LVU289
 1087 0092 1AFA85F5 		uxtah	r5, r10, r5
 1088 0096 ADB2     		uxth	r5, r5
 192:lvgl/src/core/lv_obj_scroll.c ****     }
 1089              		.loc 1 192 64 view .LVU290
 1090 0098 A5EB0805 		sub	r5, r5, r8
 192:lvgl/src/core/lv_obj_scroll.c ****     }
 1091              		.loc 1 192 19 view .LVU291
 1092 009c 2DB2     		sxth	r5, r5
 1093              	.LVL103:
 1094              	.L62:
 198:lvgl/src/core/lv_obj_scroll.c ****     self_w = self_w - (lv_obj_get_width(obj) - pad_right - pad_left - 2 * border_width);
 1095              		.loc 1 198 5 is_stmt 1 view .LVU292
 198:lvgl/src/core/lv_obj_scroll.c ****     self_w = self_w - (lv_obj_get_width(obj) - pad_right - pad_left - 2 * border_width);
 1096              		.loc 1 198 25 is_stmt 0 view .LVU293
 1097 009e 2046     		mov	r0, r4
 1098 00a0 FFF7FEFF 		bl	lv_obj_get_self_width
 1099              	.LVL104:
 1100 00a4 8046     		mov	r8, r0
 1101              	.LVL105:
 199:lvgl/src/core/lv_obj_scroll.c ****     self_w += lv_obj_get_scroll_x(obj);
 1102              		.loc 1 199 5 is_stmt 1 view .LVU294
 199:lvgl/src/core/lv_obj_scroll.c ****     self_w += lv_obj_get_scroll_x(obj);
 1103              		.loc 1 199 73 is_stmt 0 view .LVU295
 1104 00a6 4FEA4A0A 		lsl	r10, r10, #1
 1105              	.LVL106:
 199:lvgl/src/core/lv_obj_scroll.c ****     self_w += lv_obj_get_scroll_x(obj);
 1106              		.loc 1 199 73 view .LVU296
 1107 00aa 1FFA8AFA 		uxth	r10, r10
 199:lvgl/src/core/lv_obj_scroll.c ****     self_w += lv_obj_get_scroll_x(obj);
 1108              		.loc 1 199 24 view .LVU297
 1109 00ae 2046     		mov	r0, r4
 1110 00b0 FFF7FEFF 		bl	lv_obj_get_width
 1111              	.LVL107:
 199:lvgl/src/core/lv_obj_scroll.c ****     self_w += lv_obj_get_scroll_x(obj);
 1112              		.loc 1 199 24 discriminator 1 view .LVU298
 1113 00b4 80B2     		uxth	r0, r0
 199:lvgl/src/core/lv_obj_scroll.c ****     self_w += lv_obj_get_scroll_x(obj);
 1114              		.loc 1 199 46 discriminator 1 view .LVU299
 1115 00b6 3E1A     		subs	r6, r7, r0
 199:lvgl/src/core/lv_obj_scroll.c ****     self_w += lv_obj_get_scroll_x(obj);
 1116              		.loc 1 199 58 discriminator 1 view .LVU300
 1117 00b8 1BFA86F6 		uxtah	r6, fp, r6
ARM GAS  C:\usertemp\ccBZVumh.s 			page 46


 199:lvgl/src/core/lv_obj_scroll.c ****     self_w += lv_obj_get_scroll_x(obj);
 1118              		.loc 1 199 69 discriminator 1 view .LVU301
 1119 00bc 1AFA86F6 		uxtah	r6, r10, r6
 199:lvgl/src/core/lv_obj_scroll.c ****     self_w += lv_obj_get_scroll_x(obj);
 1120              		.loc 1 199 21 discriminator 1 view .LVU302
 1121 00c0 18FA86F6 		uxtah	r6, r8, r6
 1122 00c4 B6B2     		uxth	r6, r6
 1123              	.LVL108:
 200:lvgl/src/core/lv_obj_scroll.c **** 
 1124              		.loc 1 200 5 is_stmt 1 view .LVU303
 200:lvgl/src/core/lv_obj_scroll.c **** 
 1125              		.loc 1 200 15 is_stmt 0 view .LVU304
 1126 00c6 2046     		mov	r0, r4
 1127 00c8 FFF7FEFF 		bl	lv_obj_get_scroll_x
 1128              	.LVL109:
 200:lvgl/src/core/lv_obj_scroll.c **** 
 1129              		.loc 1 200 12 discriminator 1 view .LVU305
 1130 00cc 16FA80F0 		uxtah	r0, r6, r0
 1131 00d0 00B2     		sxth	r0, r0
 1132              	.LVL110:
 202:lvgl/src/core/lv_obj_scroll.c **** }
 1133              		.loc 1 202 5 is_stmt 1 view .LVU306
 202:lvgl/src/core/lv_obj_scroll.c **** }
 1134              		.loc 1 202 12 is_stmt 0 view .LVU307
 1135 00d2 A842     		cmp	r0, r5
 1136 00d4 B8BF     		it	lt
 1137 00d6 2846     		movlt	r0, r5
 1138              	.LVL111:
 202:lvgl/src/core/lv_obj_scroll.c **** }
 1139              		.loc 1 202 12 view .LVU308
 1140 00d8 A3E7     		b	.L58
 1141              	.LVL112:
 1142              	.L64:
 195:lvgl/src/core/lv_obj_scroll.c ****     }
 1143              		.loc 1 195 19 view .LVU309
 1144 00da 034D     		ldr	r5, .L68+4
 1145              	.LVL113:
 195:lvgl/src/core/lv_obj_scroll.c ****     }
 1146              		.loc 1 195 19 view .LVU310
 1147 00dc DFE7     		b	.L62
 1148              	.LVL114:
 1149              	.L63:
 169:lvgl/src/core/lv_obj_scroll.c ****         return -obj->spec_attr->scroll.x;
 1150              		.loc 1 169 43 discriminator 1 view .LVU311
 1151 00de 0020     		movs	r0, #0
 1152 00e0 9FE7     		b	.L58
 1153              	.L69:
 1154 00e2 00BF     		.align	2
 1155              	.L68:
 1156 00e4 01000400 		.word	262145
 1157 00e8 01E0FFFF 		.word	-8191
 1158              		.cfi_endproc
 1159              	.LFE174:
 1161              		.section	.text.lv_obj_get_scroll_right,"ax",%progbits
 1162              		.align	1
 1163              		.global	lv_obj_get_scroll_right
 1164              		.syntax unified
ARM GAS  C:\usertemp\ccBZVumh.s 			page 47


 1165              		.thumb
 1166              		.thumb_func
 1168              	lv_obj_get_scroll_right:
 1169              	.LVL115:
 1170              	.LFB175:
 206:lvgl/src/core/lv_obj_scroll.c ****     LV_ASSERT_OBJ(obj, MY_CLASS);
 1171              		.loc 1 206 1 is_stmt 1 view -0
 1172              		.cfi_startproc
 1173              		@ args = 0, pretend = 0, frame = 0
 1174              		@ frame_needed = 0, uses_anonymous_args = 0
 206:lvgl/src/core/lv_obj_scroll.c ****     LV_ASSERT_OBJ(obj, MY_CLASS);
 1175              		.loc 1 206 1 is_stmt 0 view .LVU313
 1176 0000 2DE9F843 		push	{r3, r4, r5, r6, r7, r8, r9, lr}
 1177              	.LCFI10:
 1178              		.cfi_def_cfa_offset 32
 1179              		.cfi_offset 3, -32
 1180              		.cfi_offset 4, -28
 1181              		.cfi_offset 5, -24
 1182              		.cfi_offset 6, -20
 1183              		.cfi_offset 7, -16
 1184              		.cfi_offset 8, -12
 1185              		.cfi_offset 9, -8
 1186              		.cfi_offset 14, -4
 1187 0004 0546     		mov	r5, r0
 207:lvgl/src/core/lv_obj_scroll.c **** 
 1188              		.loc 1 207 5 is_stmt 1 view .LVU314
 207:lvgl/src/core/lv_obj_scroll.c **** 
 1189              		.loc 1 207 5 view .LVU315
 207:lvgl/src/core/lv_obj_scroll.c **** 
 1190              		.loc 1 207 5 view .LVU316
 211:lvgl/src/core/lv_obj_scroll.c ****         if(obj->spec_attr == NULL) return 0;
 1191              		.loc 1 211 5 view .LVU317
 1192              	.LVL116:
 1193              	.LBB118:
 1194              	.LBI118:
 542:lvgl/src/core/lv_obj_style_gen.h **** {
 1195              		.loc 2 542 29 view .LVU318
 1196              	.LBB119:
 544:lvgl/src/core/lv_obj_style_gen.h ****     return (lv_base_dir_t)v.num;
 1197              		.loc 2 544 5 view .LVU319
 544:lvgl/src/core/lv_obj_style_gen.h ****     return (lv_base_dir_t)v.num;
 1198              		.loc 2 544 26 is_stmt 0 view .LVU320
 1199 0006 41F26A42 		movw	r2, #5226
 1200 000a 0021     		movs	r1, #0
 1201 000c FFF7FEFF 		bl	lv_obj_get_style_prop
 1202              	.LVL117:
 1203              		.loc 2 545 5 is_stmt 1 view .LVU321
 1204              		.loc 2 545 12 is_stmt 0 view .LVU322
 1205 0010 C0B2     		uxtb	r0, r0
 1206              	.LVL118:
 1207              		.loc 2 545 12 view .LVU323
 1208              	.LBE119:
 1209              	.LBE118:
 211:lvgl/src/core/lv_obj_scroll.c ****         if(obj->spec_attr == NULL) return 0;
 1210              		.loc 1 211 7 discriminator 1 view .LVU324
 1211 0012 0128     		cmp	r0, #1
 1212 0014 05D1     		bne	.L71
ARM GAS  C:\usertemp\ccBZVumh.s 			page 48


 212:lvgl/src/core/lv_obj_scroll.c ****         return obj->spec_attr->scroll.x;
 1213              		.loc 1 212 9 is_stmt 1 view .LVU325
 212:lvgl/src/core/lv_obj_scroll.c ****         return obj->spec_attr->scroll.x;
 1214              		.loc 1 212 15 is_stmt 0 view .LVU326
 1215 0016 AB68     		ldr	r3, [r5, #8]
 212:lvgl/src/core/lv_obj_scroll.c ****         return obj->spec_attr->scroll.x;
 1216              		.loc 1 212 11 view .LVU327
 1217 0018 002B     		cmp	r3, #0
 1218 001a 56D0     		beq	.L77
 213:lvgl/src/core/lv_obj_scroll.c ****     }
 1219              		.loc 1 213 9 is_stmt 1 view .LVU328
 213:lvgl/src/core/lv_obj_scroll.c ****     }
 1220              		.loc 1 213 38 is_stmt 0 view .LVU329
 1221 001c B3F91000 		ldrsh	r0, [r3, #16]
 1222 0020 51E0     		b	.L72
 1223              	.L71:
 217:lvgl/src/core/lv_obj_scroll.c ****     uint32_t i;
 1224              		.loc 1 217 5 is_stmt 1 view .LVU330
 1225              	.LVL119:
 218:lvgl/src/core/lv_obj_scroll.c ****     uint32_t child_cnt = lv_obj_get_child_cnt(obj);
 1226              		.loc 1 218 5 view .LVU331
 219:lvgl/src/core/lv_obj_scroll.c ****     for(i = 0; i < child_cnt; i++) {
 1227              		.loc 1 219 5 view .LVU332
 219:lvgl/src/core/lv_obj_scroll.c ****     for(i = 0; i < child_cnt; i++) {
 1228              		.loc 1 219 26 is_stmt 0 view .LVU333
 1229 0022 2846     		mov	r0, r5
 1230 0024 FFF7FEFF 		bl	lv_obj_get_child_cnt
 1231              	.LVL120:
 1232 0028 8046     		mov	r8, r0
 1233              	.LVL121:
 220:lvgl/src/core/lv_obj_scroll.c ****         lv_obj_t * child = obj->spec_attr->children[i];
 1234              		.loc 1 220 5 is_stmt 1 view .LVU334
 220:lvgl/src/core/lv_obj_scroll.c ****         lv_obj_t * child = obj->spec_attr->children[i];
 1235              		.loc 1 220 11 is_stmt 0 view .LVU335
 1236 002a 0024     		movs	r4, #0
 217:lvgl/src/core/lv_obj_scroll.c ****     uint32_t i;
 1237              		.loc 1 217 16 view .LVU336
 1238 002c 284F     		ldr	r7, .L81
 220:lvgl/src/core/lv_obj_scroll.c ****         lv_obj_t * child = obj->spec_attr->children[i];
 1239              		.loc 1 220 5 view .LVU337
 1240 002e 05E0     		b	.L73
 1241              	.LVL122:
 1242              	.L80:
 1243              	.LBB120:
 223:lvgl/src/core/lv_obj_scroll.c ****     }
 1244              		.loc 1 223 9 is_stmt 1 view .LVU338
 223:lvgl/src/core/lv_obj_scroll.c ****     }
 1245              		.loc 1 223 21 is_stmt 0 view .LVU339
 1246 0030 B6F91830 		ldrsh	r3, [r6, #24]
 223:lvgl/src/core/lv_obj_scroll.c ****     }
 1247              		.loc 1 223 19 view .LVU340
 1248 0034 9F42     		cmp	r7, r3
 1249 0036 B8BF     		it	lt
 1250 0038 1F46     		movlt	r7, r3
 1251              	.LVL123:
 1252              	.L74:
 223:lvgl/src/core/lv_obj_scroll.c ****     }
ARM GAS  C:\usertemp\ccBZVumh.s 			page 49


 1253              		.loc 1 223 19 view .LVU341
 1254              	.LBE120:
 220:lvgl/src/core/lv_obj_scroll.c ****         lv_obj_t * child = obj->spec_attr->children[i];
 1255              		.loc 1 220 32 is_stmt 1 discriminator 2 view .LVU342
 1256 003a 0134     		adds	r4, r4, #1
 1257              	.LVL124:
 1258              	.L73:
 220:lvgl/src/core/lv_obj_scroll.c ****         lv_obj_t * child = obj->spec_attr->children[i];
 1259              		.loc 1 220 18 discriminator 1 view .LVU343
 1260 003c 4445     		cmp	r4, r8
 1261 003e 0AD2     		bcs	.L79
 1262              	.LBB121:
 221:lvgl/src/core/lv_obj_scroll.c ****         if(lv_obj_has_flag_any(child,  LV_OBJ_FLAG_HIDDEN | LV_OBJ_FLAG_FLOATING)) continue;
 1263              		.loc 1 221 9 view .LVU344
 221:lvgl/src/core/lv_obj_scroll.c ****         if(lv_obj_has_flag_any(child,  LV_OBJ_FLAG_HIDDEN | LV_OBJ_FLAG_FLOATING)) continue;
 1264              		.loc 1 221 31 is_stmt 0 view .LVU345
 1265 0040 AB68     		ldr	r3, [r5, #8]
 221:lvgl/src/core/lv_obj_scroll.c ****         if(lv_obj_has_flag_any(child,  LV_OBJ_FLAG_HIDDEN | LV_OBJ_FLAG_FLOATING)) continue;
 1266              		.loc 1 221 42 view .LVU346
 1267 0042 1B68     		ldr	r3, [r3]
 221:lvgl/src/core/lv_obj_scroll.c ****         if(lv_obj_has_flag_any(child,  LV_OBJ_FLAG_HIDDEN | LV_OBJ_FLAG_FLOATING)) continue;
 1268              		.loc 1 221 20 view .LVU347
 1269 0044 53F82460 		ldr	r6, [r3, r4, lsl #2]
 1270              	.LVL125:
 222:lvgl/src/core/lv_obj_scroll.c ****         child_res = LV_MAX(child_res, child->coords.x2);
 1271              		.loc 1 222 9 is_stmt 1 view .LVU348
 222:lvgl/src/core/lv_obj_scroll.c ****         child_res = LV_MAX(child_res, child->coords.x2);
 1272              		.loc 1 222 12 is_stmt 0 view .LVU349
 1273 0048 2249     		ldr	r1, .L81+4
 1274 004a 3046     		mov	r0, r6
 1275 004c FFF7FEFF 		bl	lv_obj_has_flag_any
 1276              	.LVL126:
 222:lvgl/src/core/lv_obj_scroll.c ****         child_res = LV_MAX(child_res, child->coords.x2);
 1277              		.loc 1 222 11 discriminator 1 view .LVU350
 1278 0050 0028     		cmp	r0, #0
 1279 0052 EDD0     		beq	.L80
 1280 0054 F1E7     		b	.L74
 1281              	.LVL127:
 1282              	.L79:
 222:lvgl/src/core/lv_obj_scroll.c ****         child_res = LV_MAX(child_res, child->coords.x2);
 1283              		.loc 1 222 11 discriminator 1 view .LVU351
 1284              	.LBE121:
 226:lvgl/src/core/lv_obj_scroll.c ****     lv_coord_t pad_left = lv_obj_get_style_pad_left(obj, LV_PART_MAIN);
 1285              		.loc 1 226 5 is_stmt 1 view .LVU352
 1286              	.LBB122:
 1287              	.LBI122:
 109:lvgl/src/core/lv_obj_style_gen.h **** {
 1288              		.loc 2 109 26 view .LVU353
 1289              	.LBB123:
 111:lvgl/src/core/lv_obj_style_gen.h ****     return (lv_coord_t)v.num;
 1290              		.loc 2 111 5 view .LVU354
 111:lvgl/src/core/lv_obj_style_gen.h ****     return (lv_coord_t)v.num;
 1291              		.loc 2 111 26 is_stmt 0 view .LVU355
 1292 0056 41F61302 		movw	r2, #6163
 1293 005a 0021     		movs	r1, #0
 1294 005c 2846     		mov	r0, r5
 1295 005e FFF7FEFF 		bl	lv_obj_get_style_prop
ARM GAS  C:\usertemp\ccBZVumh.s 			page 50


 1296              	.LVL128:
 1297 0062 0446     		mov	r4, r0
 1298              	.LVL129:
 112:lvgl/src/core/lv_obj_style_gen.h **** }
 1299              		.loc 2 112 5 is_stmt 1 view .LVU356
 112:lvgl/src/core/lv_obj_style_gen.h **** }
 1300              		.loc 2 112 5 is_stmt 0 view .LVU357
 1301              	.LBE123:
 1302              	.LBE122:
 227:lvgl/src/core/lv_obj_scroll.c ****     lv_coord_t border_width = lv_obj_get_style_border_width(obj, LV_PART_MAIN);
 1303              		.loc 1 227 5 is_stmt 1 view .LVU358
 1304              	.LBB124:
 1305              	.LBI124:
 103:lvgl/src/core/lv_obj_style_gen.h **** {
 1306              		.loc 2 103 26 view .LVU359
 1307              	.LBB125:
 105:lvgl/src/core/lv_obj_style_gen.h ****     return (lv_coord_t)v.num;
 1308              		.loc 2 105 5 view .LVU360
 105:lvgl/src/core/lv_obj_style_gen.h ****     return (lv_coord_t)v.num;
 1309              		.loc 2 105 26 is_stmt 0 view .LVU361
 1310 0064 41F61202 		movw	r2, #6162
 1311 0068 0021     		movs	r1, #0
 1312 006a 2846     		mov	r0, r5
 1313 006c FFF7FEFF 		bl	lv_obj_get_style_prop
 1314              	.LVL130:
 1315 0070 8146     		mov	r9, r0
 106:lvgl/src/core/lv_obj_style_gen.h **** }
 1316              		.loc 2 106 5 is_stmt 1 view .LVU362
 1317              	.LVL131:
 106:lvgl/src/core/lv_obj_style_gen.h **** }
 1318              		.loc 2 106 5 is_stmt 0 view .LVU363
 1319              	.LBE125:
 1320              	.LBE124:
 228:lvgl/src/core/lv_obj_scroll.c **** 
 1321              		.loc 1 228 5 is_stmt 1 view .LVU364
 1322              	.LBB126:
 1323              	.LBI126:
 241:lvgl/src/core/lv_obj_style_gen.h **** {
 1324              		.loc 2 241 26 view .LVU365
 1325              	.LBB127:
 243:lvgl/src/core/lv_obj_style_gen.h ****     return (lv_coord_t)v.num;
 1326              		.loc 2 243 5 view .LVU366
 243:lvgl/src/core/lv_obj_style_gen.h ****     return (lv_coord_t)v.num;
 1327              		.loc 2 243 26 is_stmt 0 view .LVU367
 1328 0072 41F23202 		movw	r2, #4146
 1329 0076 0021     		movs	r1, #0
 1330 0078 2846     		mov	r0, r5
 1331 007a FFF7FEFF 		bl	lv_obj_get_style_prop
 1332              	.LVL132:
 1333 007e 0646     		mov	r6, r0
 244:lvgl/src/core/lv_obj_style_gen.h **** }
 1334              		.loc 2 244 5 is_stmt 1 view .LVU368
 1335              	.LVL133:
 244:lvgl/src/core/lv_obj_style_gen.h **** }
 1336              		.loc 2 244 5 is_stmt 0 view .LVU369
 1337              	.LBE127:
 1338              	.LBE126:
ARM GAS  C:\usertemp\ccBZVumh.s 			page 51


 230:lvgl/src/core/lv_obj_scroll.c ****         child_res -= (obj->coords.x2 - pad_right - border_width);
 1339              		.loc 1 230 5 is_stmt 1 view .LVU370
 230:lvgl/src/core/lv_obj_scroll.c ****         child_res -= (obj->coords.x2 - pad_right - border_width);
 1340              		.loc 1 230 7 is_stmt 0 view .LVU371
 1341 0080 134B     		ldr	r3, .L81
 1342 0082 9F42     		cmp	r7, r3
 1343 0084 04D0     		beq	.L76
 231:lvgl/src/core/lv_obj_scroll.c ****     }
 1344              		.loc 1 231 9 is_stmt 1 view .LVU372
 231:lvgl/src/core/lv_obj_scroll.c ****     }
 1345              		.loc 1 231 34 is_stmt 0 view .LVU373
 1346 0086 2B8B     		ldrh	r3, [r5, #24]
 231:lvgl/src/core/lv_obj_scroll.c ****     }
 1347              		.loc 1 231 19 view .LVU374
 1348 0088 E31A     		subs	r3, r4, r3
 1349 008a 0344     		add	r3, r3, r0
 1350 008c 3B44     		add	r3, r3, r7
 1351 008e 1FB2     		sxth	r7, r3
 1352              	.LVL134:
 1353              	.L76:
 234:lvgl/src/core/lv_obj_scroll.c ****     self_w = lv_obj_get_self_width(obj);
 1354              		.loc 1 234 5 is_stmt 1 view .LVU375
 235:lvgl/src/core/lv_obj_scroll.c ****     self_w = self_w - (lv_obj_get_width(obj) - pad_right - pad_left - 2 * border_width);
 1355              		.loc 1 235 5 view .LVU376
 235:lvgl/src/core/lv_obj_scroll.c ****     self_w = self_w - (lv_obj_get_width(obj) - pad_right - pad_left - 2 * border_width);
 1356              		.loc 1 235 14 is_stmt 0 view .LVU377
 1357 0090 2846     		mov	r0, r5
 1358              	.LVL135:
 235:lvgl/src/core/lv_obj_scroll.c ****     self_w = self_w - (lv_obj_get_width(obj) - pad_right - pad_left - 2 * border_width);
 1359              		.loc 1 235 14 view .LVU378
 1360 0092 FFF7FEFF 		bl	lv_obj_get_self_width
 1361              	.LVL136:
 1362 0096 8046     		mov	r8, r0
 1363              	.LVL137:
 236:lvgl/src/core/lv_obj_scroll.c ****     self_w -= lv_obj_get_scroll_x(obj);
 1364              		.loc 1 236 5 is_stmt 1 view .LVU379
 236:lvgl/src/core/lv_obj_scroll.c ****     self_w -= lv_obj_get_scroll_x(obj);
 1365              		.loc 1 236 73 is_stmt 0 view .LVU380
 1366 0098 7600     		lsls	r6, r6, #1
 1367 009a B6B2     		uxth	r6, r6
 236:lvgl/src/core/lv_obj_scroll.c ****     self_w -= lv_obj_get_scroll_x(obj);
 1368              		.loc 1 236 24 view .LVU381
 1369 009c 2846     		mov	r0, r5
 1370 009e FFF7FEFF 		bl	lv_obj_get_width
 1371              	.LVL138:
 236:lvgl/src/core/lv_obj_scroll.c ****     self_w -= lv_obj_get_scroll_x(obj);
 1372              		.loc 1 236 24 discriminator 1 view .LVU382
 1373 00a2 80B2     		uxth	r0, r0
 236:lvgl/src/core/lv_obj_scroll.c ****     self_w -= lv_obj_get_scroll_x(obj);
 1374              		.loc 1 236 46 discriminator 1 view .LVU383
 1375 00a4 241A     		subs	r4, r4, r0
 1376              	.LVL139:
 236:lvgl/src/core/lv_obj_scroll.c ****     self_w -= lv_obj_get_scroll_x(obj);
 1377              		.loc 1 236 58 discriminator 1 view .LVU384
 1378 00a6 19FA84F4 		uxtah	r4, r9, r4
 236:lvgl/src/core/lv_obj_scroll.c ****     self_w -= lv_obj_get_scroll_x(obj);
 1379              		.loc 1 236 69 discriminator 1 view .LVU385
ARM GAS  C:\usertemp\ccBZVumh.s 			page 52


 1380 00aa 16FA84F4 		uxtah	r4, r6, r4
 236:lvgl/src/core/lv_obj_scroll.c ****     self_w -= lv_obj_get_scroll_x(obj);
 1381              		.loc 1 236 21 discriminator 1 view .LVU386
 1382 00ae 18FA84F4 		uxtah	r4, r8, r4
 1383 00b2 A4B2     		uxth	r4, r4
 1384              	.LVL140:
 237:lvgl/src/core/lv_obj_scroll.c ****     return LV_MAX(child_res, self_w);
 1385              		.loc 1 237 5 is_stmt 1 view .LVU387
 237:lvgl/src/core/lv_obj_scroll.c ****     return LV_MAX(child_res, self_w);
 1386              		.loc 1 237 15 is_stmt 0 view .LVU388
 1387 00b4 2846     		mov	r0, r5
 1388 00b6 FFF7FEFF 		bl	lv_obj_get_scroll_x
 1389              	.LVL141:
 237:lvgl/src/core/lv_obj_scroll.c ****     return LV_MAX(child_res, self_w);
 1390              		.loc 1 237 15 discriminator 1 view .LVU389
 1391 00ba 80B2     		uxth	r0, r0
 237:lvgl/src/core/lv_obj_scroll.c ****     return LV_MAX(child_res, self_w);
 1392              		.loc 1 237 12 discriminator 1 view .LVU390
 1393 00bc 201A     		subs	r0, r4, r0
 1394 00be 00B2     		sxth	r0, r0
 1395              	.LVL142:
 238:lvgl/src/core/lv_obj_scroll.c **** }
 1396              		.loc 1 238 5 is_stmt 1 view .LVU391
 238:lvgl/src/core/lv_obj_scroll.c **** }
 1397              		.loc 1 238 12 is_stmt 0 view .LVU392
 1398 00c0 B842     		cmp	r0, r7
 1399 00c2 B8BF     		it	lt
 1400 00c4 3846     		movlt	r0, r7
 1401              	.LVL143:
 1402              	.L72:
 239:lvgl/src/core/lv_obj_scroll.c **** 
 1403              		.loc 1 239 1 view .LVU393
 1404 00c6 BDE8F883 		pop	{r3, r4, r5, r6, r7, r8, r9, pc}
 1405              	.LVL144:
 1406              	.L77:
 212:lvgl/src/core/lv_obj_scroll.c ****         return obj->spec_attr->scroll.x;
 1407              		.loc 1 212 43 discriminator 1 view .LVU394
 1408 00ca 0020     		movs	r0, #0
 1409 00cc FBE7     		b	.L72
 1410              	.L82:
 1411 00ce 00BF     		.align	2
 1412              	.L81:
 1413 00d0 01E0FFFF 		.word	-8191
 1414 00d4 01000400 		.word	262145
 1415              		.cfi_endproc
 1416              	.LFE175:
 1418              		.section	.text.lv_obj_get_scroll_end,"ax",%progbits
 1419              		.align	1
 1420              		.global	lv_obj_get_scroll_end
 1421              		.syntax unified
 1422              		.thumb
 1423              		.thumb_func
 1425              	lv_obj_get_scroll_end:
 1426              	.LVL145:
 1427              	.LFB176:
 242:lvgl/src/core/lv_obj_scroll.c ****     lv_anim_t * a;
 1428              		.loc 1 242 1 is_stmt 1 view -0
ARM GAS  C:\usertemp\ccBZVumh.s 			page 53


 1429              		.cfi_startproc
 1430              		@ args = 0, pretend = 0, frame = 0
 1431              		@ frame_needed = 0, uses_anonymous_args = 0
 242:lvgl/src/core/lv_obj_scroll.c ****     lv_anim_t * a;
 1432              		.loc 1 242 1 is_stmt 0 view .LVU396
 1433 0000 38B5     		push	{r3, r4, r5, lr}
 1434              	.LCFI11:
 1435              		.cfi_def_cfa_offset 16
 1436              		.cfi_offset 3, -16
 1437              		.cfi_offset 4, -12
 1438              		.cfi_offset 5, -8
 1439              		.cfi_offset 14, -4
 1440 0002 0546     		mov	r5, r0
 1441 0004 0C46     		mov	r4, r1
 243:lvgl/src/core/lv_obj_scroll.c ****     a = lv_anim_get(obj, scroll_x_anim);
 1442              		.loc 1 243 5 is_stmt 1 view .LVU397
 244:lvgl/src/core/lv_obj_scroll.c ****     end->x = a ? -a->end_value : lv_obj_get_scroll_x(obj);
 1443              		.loc 1 244 5 view .LVU398
 244:lvgl/src/core/lv_obj_scroll.c ****     end->x = a ? -a->end_value : lv_obj_get_scroll_x(obj);
 1444              		.loc 1 244 9 is_stmt 0 view .LVU399
 1445 0006 0D49     		ldr	r1, .L89
 1446              	.LVL146:
 244:lvgl/src/core/lv_obj_scroll.c ****     end->x = a ? -a->end_value : lv_obj_get_scroll_x(obj);
 1447              		.loc 1 244 9 view .LVU400
 1448 0008 FFF7FEFF 		bl	lv_anim_get
 1449              	.LVL147:
 245:lvgl/src/core/lv_obj_scroll.c **** 
 1450              		.loc 1 245 5 is_stmt 1 view .LVU401
 245:lvgl/src/core/lv_obj_scroll.c **** 
 1451              		.loc 1 245 12 is_stmt 0 view .LVU402
 1452 000c 68B1     		cbz	r0, .L84
 245:lvgl/src/core/lv_obj_scroll.c **** 
 1453              		.loc 1 245 20 discriminator 1 view .LVU403
 1454 000e 436A     		ldr	r3, [r0, #36]
 245:lvgl/src/core/lv_obj_scroll.c **** 
 1455              		.loc 1 245 12 discriminator 1 view .LVU404
 1456 0010 5B42     		rsbs	r3, r3, #0
 1457 0012 1BB2     		sxth	r3, r3
 1458              	.LVL148:
 1459              	.L85:
 245:lvgl/src/core/lv_obj_scroll.c **** 
 1460              		.loc 1 245 12 discriminator 4 view .LVU405
 1461 0014 2380     		strh	r3, [r4]	@ movhi
 247:lvgl/src/core/lv_obj_scroll.c ****     end->y = a ? -a->end_value : lv_obj_get_scroll_y(obj);
 1462              		.loc 1 247 5 is_stmt 1 view .LVU406
 247:lvgl/src/core/lv_obj_scroll.c ****     end->y = a ? -a->end_value : lv_obj_get_scroll_y(obj);
 1463              		.loc 1 247 9 is_stmt 0 view .LVU407
 1464 0016 0A49     		ldr	r1, .L89+4
 1465 0018 2846     		mov	r0, r5
 1466 001a FFF7FEFF 		bl	lv_anim_get
 1467              	.LVL149:
 248:lvgl/src/core/lv_obj_scroll.c **** }
 1468              		.loc 1 248 5 is_stmt 1 view .LVU408
 248:lvgl/src/core/lv_obj_scroll.c **** }
 1469              		.loc 1 248 12 is_stmt 0 view .LVU409
 1470 001e 48B1     		cbz	r0, .L86
 248:lvgl/src/core/lv_obj_scroll.c **** }
ARM GAS  C:\usertemp\ccBZVumh.s 			page 54


 1471              		.loc 1 248 20 discriminator 1 view .LVU410
 1472 0020 406A     		ldr	r0, [r0, #36]
 1473              	.LVL150:
 248:lvgl/src/core/lv_obj_scroll.c **** }
 1474              		.loc 1 248 12 discriminator 1 view .LVU411
 1475 0022 4042     		rsbs	r0, r0, #0
 1476 0024 00B2     		sxth	r0, r0
 1477              	.L87:
 248:lvgl/src/core/lv_obj_scroll.c **** }
 1478              		.loc 1 248 12 discriminator 4 view .LVU412
 1479 0026 6080     		strh	r0, [r4, #2]	@ movhi
 249:lvgl/src/core/lv_obj_scroll.c **** 
 1480              		.loc 1 249 1 view .LVU413
 1481 0028 38BD     		pop	{r3, r4, r5, pc}
 1482              	.LVL151:
 1483              	.L84:
 245:lvgl/src/core/lv_obj_scroll.c **** 
 1484              		.loc 1 245 34 discriminator 2 view .LVU414
 1485 002a 2846     		mov	r0, r5
 1486              	.LVL152:
 245:lvgl/src/core/lv_obj_scroll.c **** 
 1487              		.loc 1 245 34 discriminator 2 view .LVU415
 1488 002c FFF7FEFF 		bl	lv_obj_get_scroll_x
 1489              	.LVL153:
 1490 0030 0346     		mov	r3, r0
 1491 0032 EFE7     		b	.L85
 1492              	.LVL154:
 1493              	.L86:
 248:lvgl/src/core/lv_obj_scroll.c **** }
 1494              		.loc 1 248 34 discriminator 2 view .LVU416
 1495 0034 2846     		mov	r0, r5
 1496              	.LVL155:
 248:lvgl/src/core/lv_obj_scroll.c **** }
 1497              		.loc 1 248 34 discriminator 2 view .LVU417
 1498 0036 FFF7FEFF 		bl	lv_obj_get_scroll_y
 1499              	.LVL156:
 1500 003a F4E7     		b	.L87
 1501              	.L90:
 1502              		.align	2
 1503              	.L89:
 1504 003c 00000000 		.word	scroll_x_anim
 1505 0040 00000000 		.word	scroll_y_anim
 1506              		.cfi_endproc
 1507              	.LFE176:
 1509              		.section	.text.lv_obj_scroll_by,"ax",%progbits
 1510              		.align	1
 1511              		.global	lv_obj_scroll_by
 1512              		.syntax unified
 1513              		.thumb
 1514              		.thumb_func
 1516              	lv_obj_scroll_by:
 1517              	.LVL157:
 1518              	.LFB178:
 305:lvgl/src/core/lv_obj_scroll.c ****     if(dx == 0 && dy == 0) return;
 1519              		.loc 1 305 1 is_stmt 1 view -0
 1520              		.cfi_startproc
 1521              		@ args = 0, pretend = 0, frame = 64
ARM GAS  C:\usertemp\ccBZVumh.s 			page 55


 1522              		@ frame_needed = 0, uses_anonymous_args = 0
 305:lvgl/src/core/lv_obj_scroll.c ****     if(dx == 0 && dy == 0) return;
 1523              		.loc 1 305 1 is_stmt 0 view .LVU419
 1524 0000 2DE9F041 		push	{r4, r5, r6, r7, r8, lr}
 1525              	.LCFI12:
 1526              		.cfi_def_cfa_offset 24
 1527              		.cfi_offset 4, -24
 1528              		.cfi_offset 5, -20
 1529              		.cfi_offset 6, -16
 1530              		.cfi_offset 7, -12
 1531              		.cfi_offset 8, -8
 1532              		.cfi_offset 14, -4
 1533 0004 90B0     		sub	sp, sp, #64
 1534              	.LCFI13:
 1535              		.cfi_def_cfa_offset 88
 1536 0006 1646     		mov	r6, r2
 306:lvgl/src/core/lv_obj_scroll.c ****     if(anim_en == LV_ANIM_ON) {
 1537              		.loc 1 306 5 is_stmt 1 view .LVU420
 306:lvgl/src/core/lv_obj_scroll.c ****     if(anim_en == LV_ANIM_ON) {
 1538              		.loc 1 306 7 is_stmt 0 view .LVU421
 1539 0008 51EA0602 		orrs	r2, r1, r6
 1540              	.LVL158:
 306:lvgl/src/core/lv_obj_scroll.c ****     if(anim_en == LV_ANIM_ON) {
 1541              		.loc 1 306 7 view .LVU422
 1542 000c 16D0     		beq	.L91
 1543 000e 0446     		mov	r4, r0
 1544 0010 0D46     		mov	r5, r1
 307:lvgl/src/core/lv_obj_scroll.c ****         lv_disp_t * d = lv_obj_get_disp(obj);
 1545              		.loc 1 307 5 is_stmt 1 view .LVU423
 307:lvgl/src/core/lv_obj_scroll.c ****         lv_disp_t * d = lv_obj_get_disp(obj);
 1546              		.loc 1 307 7 is_stmt 0 view .LVU424
 1547 0012 012B     		cmp	r3, #1
 1548 0014 15D0     		beq	.L104
 1549              	.LBB128:
 348:lvgl/src/core/lv_obj_scroll.c ****         bool x_del = lv_anim_del(obj, scroll_x_anim);
 1550              		.loc 1 348 9 is_stmt 1 view .LVU425
 348:lvgl/src/core/lv_obj_scroll.c ****         bool x_del = lv_anim_del(obj, scroll_x_anim);
 1551              		.loc 1 348 22 is_stmt 0 view .LVU426
 1552 0016 3E49     		ldr	r1, .L107
 1553              	.LVL159:
 348:lvgl/src/core/lv_obj_scroll.c ****         bool x_del = lv_anim_del(obj, scroll_x_anim);
 1554              		.loc 1 348 22 view .LVU427
 1555 0018 FFF7FEFF 		bl	lv_anim_del
 1556              	.LVL160:
 348:lvgl/src/core/lv_obj_scroll.c ****         bool x_del = lv_anim_del(obj, scroll_x_anim);
 1557              		.loc 1 348 22 view .LVU428
 1558 001c 0746     		mov	r7, r0
 1559              	.LVL161:
 349:lvgl/src/core/lv_obj_scroll.c ****         scroll_by_raw(obj, dx, dy);
 1560              		.loc 1 349 9 is_stmt 1 view .LVU429
 349:lvgl/src/core/lv_obj_scroll.c ****         scroll_by_raw(obj, dx, dy);
 1561              		.loc 1 349 22 is_stmt 0 view .LVU430
 1562 001e 3D49     		ldr	r1, .L107+4
 1563 0020 2046     		mov	r0, r4
 1564 0022 FFF7FEFF 		bl	lv_anim_del
 1565              	.LVL162:
 1566 0026 8046     		mov	r8, r0
ARM GAS  C:\usertemp\ccBZVumh.s 			page 56


 1567              	.LVL163:
 350:lvgl/src/core/lv_obj_scroll.c ****         if(y_del || x_del) {
 1568              		.loc 1 350 9 is_stmt 1 view .LVU431
 1569 0028 3246     		mov	r2, r6
 1570 002a 2946     		mov	r1, r5
 1571 002c 2046     		mov	r0, r4
 1572 002e FFF7FEFF 		bl	scroll_by_raw
 1573              	.LVL164:
 351:lvgl/src/core/lv_obj_scroll.c ****             lv_res_t res;
 1574              		.loc 1 351 9 view .LVU432
 351:lvgl/src/core/lv_obj_scroll.c ****             lv_res_t res;
 1575              		.loc 1 351 18 is_stmt 0 view .LVU433
 1576 0032 47EA0807 		orr	r7, r7, r8
 1577              	.LVL165:
 351:lvgl/src/core/lv_obj_scroll.c ****             lv_res_t res;
 1578              		.loc 1 351 11 view .LVU434
 1579 0036 17F0FF0F 		tst	r7, #255
 1580 003a 62D1     		bne	.L105
 1581              	.LVL166:
 1582              	.L91:
 351:lvgl/src/core/lv_obj_scroll.c ****             lv_res_t res;
 1583              		.loc 1 351 11 view .LVU435
 1584              	.LBE128:
 357:lvgl/src/core/lv_obj_scroll.c **** 
 1585              		.loc 1 357 1 view .LVU436
 1586 003c 10B0     		add	sp, sp, #64
 1587              	.LCFI14:
 1588              		.cfi_remember_state
 1589              		.cfi_def_cfa_offset 24
 1590              		@ sp needed
 1591 003e BDE8F081 		pop	{r4, r5, r6, r7, r8, pc}
 1592              	.LVL167:
 1593              	.L104:
 1594              	.LCFI15:
 1595              		.cfi_restore_state
 1596              	.LBB130:
 308:lvgl/src/core/lv_obj_scroll.c ****         lv_anim_t a;
 1597              		.loc 1 308 9 is_stmt 1 view .LVU437
 308:lvgl/src/core/lv_obj_scroll.c ****         lv_anim_t a;
 1598              		.loc 1 308 25 is_stmt 0 view .LVU438
 1599 0042 FFF7FEFF 		bl	lv_obj_get_disp
 1600              	.LVL168:
 308:lvgl/src/core/lv_obj_scroll.c ****         lv_anim_t a;
 1601              		.loc 1 308 25 view .LVU439
 1602 0046 0746     		mov	r7, r0
 1603              	.LVL169:
 309:lvgl/src/core/lv_obj_scroll.c ****         lv_anim_init(&a);
 1604              		.loc 1 309 9 is_stmt 1 view .LVU440
 310:lvgl/src/core/lv_obj_scroll.c ****         lv_anim_set_var(&a, obj);
 1605              		.loc 1 310 9 view .LVU441
 1606 0048 6846     		mov	r0, sp
 1607              	.LVL170:
 310:lvgl/src/core/lv_obj_scroll.c ****         lv_anim_set_var(&a, obj);
 1608              		.loc 1 310 9 is_stmt 0 view .LVU442
 1609 004a FFF7FEFF 		bl	lv_anim_init
 1610              	.LVL171:
 311:lvgl/src/core/lv_obj_scroll.c ****         lv_anim_set_ready_cb(&a, scroll_anim_ready_cb);
ARM GAS  C:\usertemp\ccBZVumh.s 			page 57


 1611              		.loc 1 311 9 is_stmt 1 view .LVU443
 1612              	.LBB131:
 1613              	.LBI131:
 1614              		.file 3 "lvgl/src/core/../misc/lv_anim.h"
   1:lvgl/src/core/../misc/lv_anim.h **** /**
   2:lvgl/src/core/../misc/lv_anim.h ****  * @file lv_anim.h
   3:lvgl/src/core/../misc/lv_anim.h ****  *
   4:lvgl/src/core/../misc/lv_anim.h ****  */
   5:lvgl/src/core/../misc/lv_anim.h **** 
   6:lvgl/src/core/../misc/lv_anim.h **** #ifndef LV_ANIM_H
   7:lvgl/src/core/../misc/lv_anim.h **** #define LV_ANIM_H
   8:lvgl/src/core/../misc/lv_anim.h **** 
   9:lvgl/src/core/../misc/lv_anim.h **** #ifdef __cplusplus
  10:lvgl/src/core/../misc/lv_anim.h **** extern "C" {
  11:lvgl/src/core/../misc/lv_anim.h **** #endif
  12:lvgl/src/core/../misc/lv_anim.h **** 
  13:lvgl/src/core/../misc/lv_anim.h **** /*********************
  14:lvgl/src/core/../misc/lv_anim.h ****  *      INCLUDES
  15:lvgl/src/core/../misc/lv_anim.h ****  *********************/
  16:lvgl/src/core/../misc/lv_anim.h **** #include "../lv_conf_internal.h"
  17:lvgl/src/core/../misc/lv_anim.h **** 
  18:lvgl/src/core/../misc/lv_anim.h **** #include <stdint.h>
  19:lvgl/src/core/../misc/lv_anim.h **** #include <stdbool.h>
  20:lvgl/src/core/../misc/lv_anim.h **** #include <stddef.h>
  21:lvgl/src/core/../misc/lv_anim.h **** 
  22:lvgl/src/core/../misc/lv_anim.h **** /*********************
  23:lvgl/src/core/../misc/lv_anim.h ****  *      DEFINES
  24:lvgl/src/core/../misc/lv_anim.h ****  *********************/
  25:lvgl/src/core/../misc/lv_anim.h **** 
  26:lvgl/src/core/../misc/lv_anim.h **** #define LV_ANIM_REPEAT_INFINITE      0xFFFF
  27:lvgl/src/core/../misc/lv_anim.h **** #define LV_ANIM_PLAYTIME_INFINITE    0xFFFFFFFF
  28:lvgl/src/core/../misc/lv_anim.h **** 
  29:lvgl/src/core/../misc/lv_anim.h **** LV_EXPORT_CONST_INT(LV_ANIM_REPEAT_INFINITE);
  30:lvgl/src/core/../misc/lv_anim.h **** LV_EXPORT_CONST_INT(LV_ANIM_PLAYTIME_INFINITE);
  31:lvgl/src/core/../misc/lv_anim.h **** 
  32:lvgl/src/core/../misc/lv_anim.h **** /**********************
  33:lvgl/src/core/../misc/lv_anim.h ****  *      TYPEDEFS
  34:lvgl/src/core/../misc/lv_anim.h ****  **********************/
  35:lvgl/src/core/../misc/lv_anim.h **** 
  36:lvgl/src/core/../misc/lv_anim.h **** /** Can be used to indicate if animations are enabled or disabled in a case*/
  37:lvgl/src/core/../misc/lv_anim.h **** typedef enum {
  38:lvgl/src/core/../misc/lv_anim.h ****     LV_ANIM_OFF,
  39:lvgl/src/core/../misc/lv_anim.h ****     LV_ANIM_ON,
  40:lvgl/src/core/../misc/lv_anim.h **** } lv_anim_enable_t;
  41:lvgl/src/core/../misc/lv_anim.h **** 
  42:lvgl/src/core/../misc/lv_anim.h **** struct _lv_anim_t;
  43:lvgl/src/core/../misc/lv_anim.h **** 
  44:lvgl/src/core/../misc/lv_anim.h **** /** Get the current value during an animation*/
  45:lvgl/src/core/../misc/lv_anim.h **** typedef int32_t (*lv_anim_path_cb_t)(const struct _lv_anim_t *);
  46:lvgl/src/core/../misc/lv_anim.h **** 
  47:lvgl/src/core/../misc/lv_anim.h **** /** Generic prototype of "animator" functions.
  48:lvgl/src/core/../misc/lv_anim.h ****  * First parameter is the variable to animate.
  49:lvgl/src/core/../misc/lv_anim.h ****  * Second parameter is the value to set.
  50:lvgl/src/core/../misc/lv_anim.h ****  * Compatible with `lv_xxx_set_yyy(obj, value)` functions
  51:lvgl/src/core/../misc/lv_anim.h ****  * The `x` in `_xcb_t` means it's not a fully generic prototype because
  52:lvgl/src/core/../misc/lv_anim.h ****  * it doesn't receive `lv_anim_t *` as its first argument*/
  53:lvgl/src/core/../misc/lv_anim.h **** typedef void (*lv_anim_exec_xcb_t)(void *, int32_t);
ARM GAS  C:\usertemp\ccBZVumh.s 			page 58


  54:lvgl/src/core/../misc/lv_anim.h **** 
  55:lvgl/src/core/../misc/lv_anim.h **** /** Same as `lv_anim_exec_xcb_t` but receives `lv_anim_t *` as the first parameter.
  56:lvgl/src/core/../misc/lv_anim.h ****  * It's more consistent but less convenient. Might be used by binding generator functions.*/
  57:lvgl/src/core/../misc/lv_anim.h **** typedef void (*lv_anim_custom_exec_cb_t)(struct _lv_anim_t *, int32_t);
  58:lvgl/src/core/../misc/lv_anim.h **** 
  59:lvgl/src/core/../misc/lv_anim.h **** /** Callback to call when the animation is ready*/
  60:lvgl/src/core/../misc/lv_anim.h **** typedef void (*lv_anim_ready_cb_t)(struct _lv_anim_t *);
  61:lvgl/src/core/../misc/lv_anim.h **** 
  62:lvgl/src/core/../misc/lv_anim.h **** /** Callback to call when the animation really stars (considering `delay`)*/
  63:lvgl/src/core/../misc/lv_anim.h **** typedef void (*lv_anim_start_cb_t)(struct _lv_anim_t *);
  64:lvgl/src/core/../misc/lv_anim.h **** 
  65:lvgl/src/core/../misc/lv_anim.h **** /** Callback used when the animation values are relative to get the current value*/
  66:lvgl/src/core/../misc/lv_anim.h **** typedef int32_t (*lv_anim_get_value_cb_t)(struct _lv_anim_t *);
  67:lvgl/src/core/../misc/lv_anim.h **** 
  68:lvgl/src/core/../misc/lv_anim.h **** /** Describes an animation*/
  69:lvgl/src/core/../misc/lv_anim.h **** typedef struct _lv_anim_t {
  70:lvgl/src/core/../misc/lv_anim.h ****     void * var;                          /**<Variable to animate*/
  71:lvgl/src/core/../misc/lv_anim.h ****     lv_anim_exec_xcb_t exec_cb;          /**< Function to execute to animate*/
  72:lvgl/src/core/../misc/lv_anim.h ****     lv_anim_start_cb_t start_cb;         /**< Call it when the animation is starts (considering `de
  73:lvgl/src/core/../misc/lv_anim.h ****     lv_anim_ready_cb_t ready_cb;         /**< Call it when the animation is ready*/
  74:lvgl/src/core/../misc/lv_anim.h ****     lv_anim_get_value_cb_t get_value_cb; /**< Get the current value in relative mode*/
  75:lvgl/src/core/../misc/lv_anim.h **** #if LV_USE_USER_DATA
  76:lvgl/src/core/../misc/lv_anim.h ****     void * user_data; /**< Custom user data*/
  77:lvgl/src/core/../misc/lv_anim.h **** #endif
  78:lvgl/src/core/../misc/lv_anim.h ****     lv_anim_path_cb_t path_cb;         /**< Describe the path (curve) of animations*/
  79:lvgl/src/core/../misc/lv_anim.h ****     int32_t start_value;               /**< Start value*/
  80:lvgl/src/core/../misc/lv_anim.h ****     int32_t current_value;             /**< Current value*/
  81:lvgl/src/core/../misc/lv_anim.h ****     int32_t end_value;                 /**< End value*/
  82:lvgl/src/core/../misc/lv_anim.h ****     int32_t time;                /**< Animation time in ms*/
  83:lvgl/src/core/../misc/lv_anim.h ****     int32_t act_time;            /**< Current time in animation. Set to negative to make delay.*/
  84:lvgl/src/core/../misc/lv_anim.h ****     uint32_t playback_delay;     /**< Wait before play back*/
  85:lvgl/src/core/../misc/lv_anim.h ****     uint32_t playback_time;      /**< Duration of playback animation*/
  86:lvgl/src/core/../misc/lv_anim.h ****     uint32_t repeat_delay;       /**< Wait before repeat*/
  87:lvgl/src/core/../misc/lv_anim.h ****     uint16_t repeat_cnt;         /**< Repeat count for the animation*/
  88:lvgl/src/core/../misc/lv_anim.h ****     uint8_t early_apply  : 1;    /**< 1: Apply start value immediately even is there is `delay`*/
  89:lvgl/src/core/../misc/lv_anim.h **** 
  90:lvgl/src/core/../misc/lv_anim.h ****     /*Animation system use these - user shouldn't set*/
  91:lvgl/src/core/../misc/lv_anim.h ****     uint8_t playback_now : 1; /**< Play back is in progress*/
  92:lvgl/src/core/../misc/lv_anim.h ****     uint8_t run_round : 1;    /**< Indicates the animation has run in this round*/
  93:lvgl/src/core/../misc/lv_anim.h ****     uint8_t start_cb_called : 1;    /**< Indicates that the `start_cb` was already called*/
  94:lvgl/src/core/../misc/lv_anim.h **** } lv_anim_t;
  95:lvgl/src/core/../misc/lv_anim.h **** 
  96:lvgl/src/core/../misc/lv_anim.h **** /**********************
  97:lvgl/src/core/../misc/lv_anim.h ****  * GLOBAL PROTOTYPES
  98:lvgl/src/core/../misc/lv_anim.h ****  **********************/
  99:lvgl/src/core/../misc/lv_anim.h **** 
 100:lvgl/src/core/../misc/lv_anim.h **** /**
 101:lvgl/src/core/../misc/lv_anim.h ****  * Init. the animation module
 102:lvgl/src/core/../misc/lv_anim.h ****  */
 103:lvgl/src/core/../misc/lv_anim.h **** void _lv_anim_core_init(void);
 104:lvgl/src/core/../misc/lv_anim.h **** 
 105:lvgl/src/core/../misc/lv_anim.h **** /**
 106:lvgl/src/core/../misc/lv_anim.h ****  * Initialize an animation variable.
 107:lvgl/src/core/../misc/lv_anim.h ****  * E.g.:
 108:lvgl/src/core/../misc/lv_anim.h ****  * lv_anim_t a;
 109:lvgl/src/core/../misc/lv_anim.h ****  * lv_anim_init(&a);
 110:lvgl/src/core/../misc/lv_anim.h ****  * lv_anim_set_...(&a);
ARM GAS  C:\usertemp\ccBZVumh.s 			page 59


 111:lvgl/src/core/../misc/lv_anim.h ****  * lv_anim_start(&a);
 112:lvgl/src/core/../misc/lv_anim.h ****  * @param a     pointer to an `lv_anim_t` variable to initialize
 113:lvgl/src/core/../misc/lv_anim.h ****  */
 114:lvgl/src/core/../misc/lv_anim.h **** void lv_anim_init(lv_anim_t * a);
 115:lvgl/src/core/../misc/lv_anim.h **** 
 116:lvgl/src/core/../misc/lv_anim.h **** /**
 117:lvgl/src/core/../misc/lv_anim.h ****  * Set a variable to animate
 118:lvgl/src/core/../misc/lv_anim.h ****  * @param a     pointer to an initialized `lv_anim_t` variable
 119:lvgl/src/core/../misc/lv_anim.h ****  * @param var   pointer to a variable to animate
 120:lvgl/src/core/../misc/lv_anim.h ****  */
 121:lvgl/src/core/../misc/lv_anim.h **** static inline void lv_anim_set_var(lv_anim_t * a, void * var)
 1615              		.loc 3 121 20 view .LVU444
 1616              	.LBB132:
 122:lvgl/src/core/../misc/lv_anim.h **** {
 123:lvgl/src/core/../misc/lv_anim.h ****     a->var = var;
 1617              		.loc 3 123 5 view .LVU445
 1618              		.loc 3 123 12 is_stmt 0 view .LVU446
 1619 004e 0094     		str	r4, [sp]
 1620              	.LVL172:
 1621              		.loc 3 123 12 view .LVU447
 1622              	.LBE132:
 1623              	.LBE131:
 312:lvgl/src/core/lv_obj_scroll.c **** 
 1624              		.loc 1 312 9 is_stmt 1 view .LVU448
 1625              	.LBB133:
 1626              	.LBI133:
 124:lvgl/src/core/../misc/lv_anim.h **** }
 125:lvgl/src/core/../misc/lv_anim.h **** 
 126:lvgl/src/core/../misc/lv_anim.h **** /**
 127:lvgl/src/core/../misc/lv_anim.h ****  * Set a function to animate `var`
 128:lvgl/src/core/../misc/lv_anim.h ****  * @param a         pointer to an initialized `lv_anim_t` variable
 129:lvgl/src/core/../misc/lv_anim.h ****  * @param exec_cb   a function to execute during animation
 130:lvgl/src/core/../misc/lv_anim.h ****  *                  LVGL's built-in functions can be used.
 131:lvgl/src/core/../misc/lv_anim.h ****  *                  E.g. lv_obj_set_x
 132:lvgl/src/core/../misc/lv_anim.h ****  */
 133:lvgl/src/core/../misc/lv_anim.h **** static inline void lv_anim_set_exec_cb(lv_anim_t * a, lv_anim_exec_xcb_t exec_cb)
 134:lvgl/src/core/../misc/lv_anim.h **** {
 135:lvgl/src/core/../misc/lv_anim.h ****     a->exec_cb = exec_cb;
 136:lvgl/src/core/../misc/lv_anim.h **** }
 137:lvgl/src/core/../misc/lv_anim.h **** 
 138:lvgl/src/core/../misc/lv_anim.h **** /**
 139:lvgl/src/core/../misc/lv_anim.h ****  * Set the duration of an animation
 140:lvgl/src/core/../misc/lv_anim.h ****  * @param a         pointer to an initialized `lv_anim_t` variable
 141:lvgl/src/core/../misc/lv_anim.h ****  * @param duration  duration of the animation in milliseconds
 142:lvgl/src/core/../misc/lv_anim.h ****  */
 143:lvgl/src/core/../misc/lv_anim.h **** static inline void lv_anim_set_time(lv_anim_t * a, uint32_t duration)
 144:lvgl/src/core/../misc/lv_anim.h **** {
 145:lvgl/src/core/../misc/lv_anim.h ****     a->time = duration;
 146:lvgl/src/core/../misc/lv_anim.h **** }
 147:lvgl/src/core/../misc/lv_anim.h **** 
 148:lvgl/src/core/../misc/lv_anim.h **** /**
 149:lvgl/src/core/../misc/lv_anim.h ****  * Set a delay before starting the animation
 150:lvgl/src/core/../misc/lv_anim.h ****  * @param a         pointer to an initialized `lv_anim_t` variable
 151:lvgl/src/core/../misc/lv_anim.h ****  * @param delay     delay before the animation in milliseconds
 152:lvgl/src/core/../misc/lv_anim.h ****  */
 153:lvgl/src/core/../misc/lv_anim.h **** static inline void lv_anim_set_delay(lv_anim_t * a, uint32_t delay)
 154:lvgl/src/core/../misc/lv_anim.h **** {
ARM GAS  C:\usertemp\ccBZVumh.s 			page 60


 155:lvgl/src/core/../misc/lv_anim.h ****     a->act_time = -(int32_t)(delay);
 156:lvgl/src/core/../misc/lv_anim.h **** }
 157:lvgl/src/core/../misc/lv_anim.h **** 
 158:lvgl/src/core/../misc/lv_anim.h **** /**
 159:lvgl/src/core/../misc/lv_anim.h ****  * Set the start and end values of an animation
 160:lvgl/src/core/../misc/lv_anim.h ****  * @param a         pointer to an initialized `lv_anim_t` variable
 161:lvgl/src/core/../misc/lv_anim.h ****  * @param start     the start value
 162:lvgl/src/core/../misc/lv_anim.h ****  * @param end       the end value
 163:lvgl/src/core/../misc/lv_anim.h ****  */
 164:lvgl/src/core/../misc/lv_anim.h **** static inline void lv_anim_set_values(lv_anim_t * a, int32_t start, int32_t end)
 165:lvgl/src/core/../misc/lv_anim.h **** {
 166:lvgl/src/core/../misc/lv_anim.h ****     a->start_value = start;
 167:lvgl/src/core/../misc/lv_anim.h ****     a->current_value = start;
 168:lvgl/src/core/../misc/lv_anim.h ****     a->end_value = end;
 169:lvgl/src/core/../misc/lv_anim.h **** }
 170:lvgl/src/core/../misc/lv_anim.h **** 
 171:lvgl/src/core/../misc/lv_anim.h **** /**
 172:lvgl/src/core/../misc/lv_anim.h ****  * Similar to `lv_anim_set_exec_cb` but `lv_anim_custom_exec_cb_t` receives
 173:lvgl/src/core/../misc/lv_anim.h ****  * `lv_anim_t * ` as its first parameter instead of `void *`.
 174:lvgl/src/core/../misc/lv_anim.h ****  * This function might be used when LVGL is bound to other languages because
 175:lvgl/src/core/../misc/lv_anim.h ****  * it's more consistent to have `lv_anim_t *` as first parameter.
 176:lvgl/src/core/../misc/lv_anim.h ****  * The variable to animate can be stored in the animation's `user_data`
 177:lvgl/src/core/../misc/lv_anim.h ****  * @param a         pointer to an initialized `lv_anim_t` variable
 178:lvgl/src/core/../misc/lv_anim.h ****  * @param exec_cb   a function to execute.
 179:lvgl/src/core/../misc/lv_anim.h ****  */
 180:lvgl/src/core/../misc/lv_anim.h **** static inline void lv_anim_set_custom_exec_cb(lv_anim_t * a, lv_anim_custom_exec_cb_t exec_cb)
 181:lvgl/src/core/../misc/lv_anim.h **** {
 182:lvgl/src/core/../misc/lv_anim.h ****     a->var     = a;
 183:lvgl/src/core/../misc/lv_anim.h ****     a->exec_cb = (lv_anim_exec_xcb_t)exec_cb;
 184:lvgl/src/core/../misc/lv_anim.h **** }
 185:lvgl/src/core/../misc/lv_anim.h **** 
 186:lvgl/src/core/../misc/lv_anim.h **** /**
 187:lvgl/src/core/../misc/lv_anim.h ****  * Set the path (curve) of the animation.
 188:lvgl/src/core/../misc/lv_anim.h ****  * @param a         pointer to an initialized `lv_anim_t` variable
 189:lvgl/src/core/../misc/lv_anim.h ****  * @param path_cb a function to set the current value of the animation.
 190:lvgl/src/core/../misc/lv_anim.h ****  */
 191:lvgl/src/core/../misc/lv_anim.h **** static inline void lv_anim_set_path_cb(lv_anim_t * a, lv_anim_path_cb_t path_cb)
 192:lvgl/src/core/../misc/lv_anim.h **** {
 193:lvgl/src/core/../misc/lv_anim.h ****     a->path_cb = path_cb;
 194:lvgl/src/core/../misc/lv_anim.h **** }
 195:lvgl/src/core/../misc/lv_anim.h **** 
 196:lvgl/src/core/../misc/lv_anim.h **** /**
 197:lvgl/src/core/../misc/lv_anim.h ****  * Set a function call when the animation really starts (considering `delay`)
 198:lvgl/src/core/../misc/lv_anim.h ****  * @param a         pointer to an initialized `lv_anim_t` variable
 199:lvgl/src/core/../misc/lv_anim.h ****  * @param start_cb  a function call when the animation starts
 200:lvgl/src/core/../misc/lv_anim.h ****  */
 201:lvgl/src/core/../misc/lv_anim.h **** static inline void lv_anim_set_start_cb(lv_anim_t * a, lv_anim_start_cb_t start_cb)
 202:lvgl/src/core/../misc/lv_anim.h **** {
 203:lvgl/src/core/../misc/lv_anim.h ****     a->start_cb = start_cb;
 204:lvgl/src/core/../misc/lv_anim.h **** }
 205:lvgl/src/core/../misc/lv_anim.h **** 
 206:lvgl/src/core/../misc/lv_anim.h **** /**
 207:lvgl/src/core/../misc/lv_anim.h ****  * Set a function to use the current value of the variable and make start and end value
 208:lvgl/src/core/../misc/lv_anim.h ****  * relative to the returned current value.
 209:lvgl/src/core/../misc/lv_anim.h ****  * @param a             pointer to an initialized `lv_anim_t` variable
 210:lvgl/src/core/../misc/lv_anim.h ****  * @param get_value_cb  a function call when the animation starts
 211:lvgl/src/core/../misc/lv_anim.h ****  */
ARM GAS  C:\usertemp\ccBZVumh.s 			page 61


 212:lvgl/src/core/../misc/lv_anim.h **** static inline void lv_anim_set_get_value_cb(lv_anim_t * a, lv_anim_get_value_cb_t get_value_cb)
 213:lvgl/src/core/../misc/lv_anim.h **** {
 214:lvgl/src/core/../misc/lv_anim.h ****     a->get_value_cb = get_value_cb;
 215:lvgl/src/core/../misc/lv_anim.h **** }
 216:lvgl/src/core/../misc/lv_anim.h **** 
 217:lvgl/src/core/../misc/lv_anim.h **** /**
 218:lvgl/src/core/../misc/lv_anim.h ****  * Set a function call when the animation is ready
 219:lvgl/src/core/../misc/lv_anim.h ****  * @param a         pointer to an initialized `lv_anim_t` variable
 220:lvgl/src/core/../misc/lv_anim.h ****  * @param ready_cb  a function call when the animation is ready
 221:lvgl/src/core/../misc/lv_anim.h ****  */
 222:lvgl/src/core/../misc/lv_anim.h **** static inline void lv_anim_set_ready_cb(lv_anim_t * a, lv_anim_ready_cb_t ready_cb)
 1627              		.loc 3 222 20 view .LVU449
 1628              	.LBB134:
 223:lvgl/src/core/../misc/lv_anim.h **** {
 224:lvgl/src/core/../misc/lv_anim.h ****     a->ready_cb = ready_cb;
 1629              		.loc 3 224 5 view .LVU450
 1630              		.loc 3 224 17 is_stmt 0 view .LVU451
 1631 0050 314B     		ldr	r3, .L107+8
 1632 0052 0393     		str	r3, [sp, #12]
 1633              	.LVL173:
 1634              		.loc 3 224 17 view .LVU452
 1635              	.LBE134:
 1636              	.LBE133:
 314:lvgl/src/core/lv_obj_scroll.c ****             uint32_t t = lv_anim_speed_to_time((lv_disp_get_hor_res(d) * 2) >> 2, 0, dx);
 1637              		.loc 1 314 9 is_stmt 1 view .LVU453
 314:lvgl/src/core/lv_obj_scroll.c ****             uint32_t t = lv_anim_speed_to_time((lv_disp_get_hor_res(d) * 2) >> 2, 0, dx);
 1638              		.loc 1 314 11 is_stmt 0 view .LVU454
 1639 0054 95B9     		cbnz	r5, .L106
 1640              	.L94:
 330:lvgl/src/core/lv_obj_scroll.c ****             uint32_t t = lv_anim_speed_to_time((lv_disp_get_ver_res(d) * 2) >> 2, 0, dy);
 1641              		.loc 1 330 9 is_stmt 1 view .LVU455
 330:lvgl/src/core/lv_obj_scroll.c ****             uint32_t t = lv_anim_speed_to_time((lv_disp_get_ver_res(d) * 2) >> 2, 0, dy);
 1642              		.loc 1 330 11 is_stmt 0 view .LVU456
 1643 0056 002E     		cmp	r6, #0
 1644 0058 F0D0     		beq	.L91
 1645              	.LBB135:
 331:lvgl/src/core/lv_obj_scroll.c ****             if(t < SCROLL_ANIM_TIME_MIN) t = SCROLL_ANIM_TIME_MIN;
 1646              		.loc 1 331 13 is_stmt 1 view .LVU457
 331:lvgl/src/core/lv_obj_scroll.c ****             if(t < SCROLL_ANIM_TIME_MIN) t = SCROLL_ANIM_TIME_MIN;
 1647              		.loc 1 331 49 is_stmt 0 view .LVU458
 1648 005a 3846     		mov	r0, r7
 1649 005c FFF7FEFF 		bl	lv_disp_get_ver_res
 1650              	.LVL174:
 331:lvgl/src/core/lv_obj_scroll.c ****             if(t < SCROLL_ANIM_TIME_MIN) t = SCROLL_ANIM_TIME_MIN;
 1651              		.loc 1 331 26 discriminator 1 view .LVU459
 1652 0060 3246     		mov	r2, r6
 1653 0062 0021     		movs	r1, #0
 1654 0064 40F35D00 		sbfx	r0, r0, #1, #30
 1655 0068 FFF7FEFF 		bl	lv_anim_speed_to_time
 1656              	.LVL175:
 332:lvgl/src/core/lv_obj_scroll.c ****             if(t > SCROLL_ANIM_TIME_MAX) t = SCROLL_ANIM_TIME_MAX;
 1657              		.loc 1 332 13 is_stmt 1 view .LVU460
 332:lvgl/src/core/lv_obj_scroll.c ****             if(t > SCROLL_ANIM_TIME_MAX) t = SCROLL_ANIM_TIME_MAX;
 1658              		.loc 1 332 15 is_stmt 0 view .LVU461
 1659 006c C728     		cmp	r0, #199
 1660 006e 2FD9     		bls	.L101
 333:lvgl/src/core/lv_obj_scroll.c ****             lv_anim_set_time(&a, t);
ARM GAS  C:\usertemp\ccBZVumh.s 			page 62


 1661              		.loc 1 333 13 is_stmt 1 view .LVU462
 333:lvgl/src/core/lv_obj_scroll.c ****             lv_anim_set_time(&a, t);
 1662              		.loc 1 333 15 is_stmt 0 view .LVU463
 1663 0070 B0F5C87F 		cmp	r0, #400
 1664 0074 2DD9     		bls	.L98
 333:lvgl/src/core/lv_obj_scroll.c ****             lv_anim_set_time(&a, t);
 1665              		.loc 1 333 44 discriminator 1 view .LVU464
 1666 0076 4FF4C870 		mov	r0, #400
 1667              	.LVL176:
 333:lvgl/src/core/lv_obj_scroll.c ****             lv_anim_set_time(&a, t);
 1668              		.loc 1 333 44 discriminator 1 view .LVU465
 1669 007a 2AE0     		b	.L98
 1670              	.LVL177:
 1671              	.L106:
 333:lvgl/src/core/lv_obj_scroll.c ****             lv_anim_set_time(&a, t);
 1672              		.loc 1 333 44 discriminator 1 view .LVU466
 1673              	.LBE135:
 1674              	.LBB144:
 315:lvgl/src/core/lv_obj_scroll.c ****             if(t < SCROLL_ANIM_TIME_MIN) t = SCROLL_ANIM_TIME_MIN;
 1675              		.loc 1 315 13 is_stmt 1 view .LVU467
 315:lvgl/src/core/lv_obj_scroll.c ****             if(t < SCROLL_ANIM_TIME_MIN) t = SCROLL_ANIM_TIME_MIN;
 1676              		.loc 1 315 49 is_stmt 0 view .LVU468
 1677 007c 3846     		mov	r0, r7
 1678 007e FFF7FEFF 		bl	lv_disp_get_hor_res
 1679              	.LVL178:
 315:lvgl/src/core/lv_obj_scroll.c ****             if(t < SCROLL_ANIM_TIME_MIN) t = SCROLL_ANIM_TIME_MIN;
 1680              		.loc 1 315 26 discriminator 1 view .LVU469
 1681 0082 2A46     		mov	r2, r5
 1682 0084 0021     		movs	r1, #0
 1683 0086 40F35D00 		sbfx	r0, r0, #1, #30
 1684 008a FFF7FEFF 		bl	lv_anim_speed_to_time
 1685              	.LVL179:
 316:lvgl/src/core/lv_obj_scroll.c ****             if(t > SCROLL_ANIM_TIME_MAX) t = SCROLL_ANIM_TIME_MAX;
 1686              		.loc 1 316 13 is_stmt 1 view .LVU470
 316:lvgl/src/core/lv_obj_scroll.c ****             if(t > SCROLL_ANIM_TIME_MAX) t = SCROLL_ANIM_TIME_MAX;
 1687              		.loc 1 316 15 is_stmt 0 view .LVU471
 1688 008e C728     		cmp	r0, #199
 1689 0090 05D9     		bls	.L99
 317:lvgl/src/core/lv_obj_scroll.c ****             lv_anim_set_time(&a, t);
 1690              		.loc 1 317 13 is_stmt 1 view .LVU472
 317:lvgl/src/core/lv_obj_scroll.c ****             lv_anim_set_time(&a, t);
 1691              		.loc 1 317 15 is_stmt 0 view .LVU473
 1692 0092 B0F5C87F 		cmp	r0, #400
 1693 0096 03D9     		bls	.L95
 317:lvgl/src/core/lv_obj_scroll.c ****             lv_anim_set_time(&a, t);
 1694              		.loc 1 317 44 discriminator 1 view .LVU474
 1695 0098 4FF4C870 		mov	r0, #400
 1696              	.LVL180:
 317:lvgl/src/core/lv_obj_scroll.c ****             lv_anim_set_time(&a, t);
 1697              		.loc 1 317 44 discriminator 1 view .LVU475
 1698 009c 00E0     		b	.L95
 1699              	.LVL181:
 1700              	.L99:
 316:lvgl/src/core/lv_obj_scroll.c ****             if(t > SCROLL_ANIM_TIME_MAX) t = SCROLL_ANIM_TIME_MAX;
 1701              		.loc 1 316 44 discriminator 1 view .LVU476
 1702 009e C820     		movs	r0, #200
 1703              	.LVL182:
ARM GAS  C:\usertemp\ccBZVumh.s 			page 63


 1704              	.L95:
 318:lvgl/src/core/lv_obj_scroll.c ****             lv_coord_t sx = lv_obj_get_scroll_x(obj);
 1705              		.loc 1 318 13 is_stmt 1 view .LVU477
 1706              	.LBB145:
 1707              	.LBI145:
 143:lvgl/src/core/../misc/lv_anim.h **** {
 1708              		.loc 3 143 20 view .LVU478
 1709              	.LBB146:
 145:lvgl/src/core/../misc/lv_anim.h **** }
 1710              		.loc 3 145 5 view .LVU479
 145:lvgl/src/core/../misc/lv_anim.h **** }
 1711              		.loc 3 145 13 is_stmt 0 view .LVU480
 1712 00a0 0A90     		str	r0, [sp, #40]
 1713              	.LVL183:
 145:lvgl/src/core/../misc/lv_anim.h **** }
 1714              		.loc 3 145 13 view .LVU481
 1715              	.LBE146:
 1716              	.LBE145:
 319:lvgl/src/core/lv_obj_scroll.c ****             lv_anim_set_values(&a, -sx, -sx + dx);
 1717              		.loc 1 319 13 is_stmt 1 view .LVU482
 319:lvgl/src/core/lv_obj_scroll.c ****             lv_anim_set_values(&a, -sx, -sx + dx);
 1718              		.loc 1 319 29 is_stmt 0 view .LVU483
 1719 00a2 2046     		mov	r0, r4
 1720              	.LVL184:
 319:lvgl/src/core/lv_obj_scroll.c ****             lv_anim_set_values(&a, -sx, -sx + dx);
 1721              		.loc 1 319 29 view .LVU484
 1722 00a4 FFF7FEFF 		bl	lv_obj_get_scroll_x
 1723              	.LVL185:
 320:lvgl/src/core/lv_obj_scroll.c ****             lv_anim_set_exec_cb(&a, scroll_x_anim);
 1724              		.loc 1 320 13 is_stmt 1 view .LVU485
 320:lvgl/src/core/lv_obj_scroll.c ****             lv_anim_set_exec_cb(&a, scroll_x_anim);
 1725              		.loc 1 320 36 is_stmt 0 view .LVU486
 1726 00a8 4342     		rsbs	r3, r0, #0
 320:lvgl/src/core/lv_obj_scroll.c ****             lv_anim_set_exec_cb(&a, scroll_x_anim);
 1727              		.loc 1 320 45 view .LVU487
 1728 00aa 281A     		subs	r0, r5, r0
 1729              	.LVL186:
 1730              	.LBB147:
 1731              	.LBI147:
 164:lvgl/src/core/../misc/lv_anim.h **** {
 1732              		.loc 3 164 20 is_stmt 1 view .LVU488
 1733              	.LBB148:
 166:lvgl/src/core/../misc/lv_anim.h ****     a->current_value = start;
 1734              		.loc 3 166 5 view .LVU489
 166:lvgl/src/core/../misc/lv_anim.h ****     a->current_value = start;
 1735              		.loc 3 166 20 is_stmt 0 view .LVU490
 1736 00ac 0793     		str	r3, [sp, #28]
 167:lvgl/src/core/../misc/lv_anim.h ****     a->end_value = end;
 1737              		.loc 3 167 5 is_stmt 1 view .LVU491
 167:lvgl/src/core/../misc/lv_anim.h ****     a->end_value = end;
 1738              		.loc 3 167 22 is_stmt 0 view .LVU492
 1739 00ae 0893     		str	r3, [sp, #32]
 168:lvgl/src/core/../misc/lv_anim.h **** }
 1740              		.loc 3 168 5 is_stmt 1 view .LVU493
 168:lvgl/src/core/../misc/lv_anim.h **** }
 1741              		.loc 3 168 18 is_stmt 0 view .LVU494
 1742 00b0 0990     		str	r0, [sp, #36]
ARM GAS  C:\usertemp\ccBZVumh.s 			page 64


 1743              	.LVL187:
 168:lvgl/src/core/../misc/lv_anim.h **** }
 1744              		.loc 3 168 18 view .LVU495
 1745              	.LBE148:
 1746              	.LBE147:
 321:lvgl/src/core/lv_obj_scroll.c ****             lv_anim_set_path_cb(&a, lv_anim_path_ease_out);
 1747              		.loc 1 321 13 is_stmt 1 view .LVU496
 1748              	.LBB149:
 1749              	.LBI149:
 133:lvgl/src/core/../misc/lv_anim.h **** {
 1750              		.loc 3 133 20 view .LVU497
 1751              	.LBB150:
 135:lvgl/src/core/../misc/lv_anim.h **** }
 1752              		.loc 3 135 5 view .LVU498
 135:lvgl/src/core/../misc/lv_anim.h **** }
 1753              		.loc 3 135 16 is_stmt 0 view .LVU499
 1754 00b2 184B     		ldr	r3, .L107+4
 1755              	.LVL188:
 135:lvgl/src/core/../misc/lv_anim.h **** }
 1756              		.loc 3 135 16 view .LVU500
 1757 00b4 0193     		str	r3, [sp, #4]
 1758              	.LVL189:
 135:lvgl/src/core/../misc/lv_anim.h **** }
 1759              		.loc 3 135 16 view .LVU501
 1760              	.LBE150:
 1761              	.LBE149:
 322:lvgl/src/core/lv_obj_scroll.c **** 
 1762              		.loc 1 322 13 is_stmt 1 view .LVU502
 1763              	.LBB151:
 1764              	.LBI151:
 191:lvgl/src/core/../misc/lv_anim.h **** {
 1765              		.loc 3 191 20 view .LVU503
 1766              	.LBB152:
 193:lvgl/src/core/../misc/lv_anim.h **** }
 1767              		.loc 3 193 5 view .LVU504
 193:lvgl/src/core/../misc/lv_anim.h **** }
 1768              		.loc 3 193 16 is_stmt 0 view .LVU505
 1769 00b6 194B     		ldr	r3, .L107+12
 1770 00b8 0693     		str	r3, [sp, #24]
 1771              	.LVL190:
 193:lvgl/src/core/../misc/lv_anim.h **** }
 1772              		.loc 3 193 16 view .LVU506
 1773              	.LBE152:
 1774              	.LBE151:
 324:lvgl/src/core/lv_obj_scroll.c ****             res = lv_event_send(obj, LV_EVENT_SCROLL_BEGIN, &a);
 1775              		.loc 1 324 13 is_stmt 1 view .LVU507
 325:lvgl/src/core/lv_obj_scroll.c ****             if(res != LV_RES_OK) return;
 1776              		.loc 1 325 13 view .LVU508
 325:lvgl/src/core/lv_obj_scroll.c ****             if(res != LV_RES_OK) return;
 1777              		.loc 1 325 19 is_stmt 0 view .LVU509
 1778 00ba 6A46     		mov	r2, sp
 1779 00bc 0921     		movs	r1, #9
 1780 00be 2046     		mov	r0, r4
 1781 00c0 FFF7FEFF 		bl	lv_event_send
 1782              	.LVL191:
 326:lvgl/src/core/lv_obj_scroll.c ****             lv_anim_start(&a);
 1783              		.loc 1 326 13 is_stmt 1 view .LVU510
ARM GAS  C:\usertemp\ccBZVumh.s 			page 65


 326:lvgl/src/core/lv_obj_scroll.c ****             lv_anim_start(&a);
 1784              		.loc 1 326 15 is_stmt 0 view .LVU511
 1785 00c4 0128     		cmp	r0, #1
 1786 00c6 B9D1     		bne	.L91
 327:lvgl/src/core/lv_obj_scroll.c ****         }
 1787              		.loc 1 327 13 is_stmt 1 view .LVU512
 1788 00c8 6846     		mov	r0, sp
 1789              	.LVL192:
 327:lvgl/src/core/lv_obj_scroll.c ****         }
 1790              		.loc 1 327 13 is_stmt 0 view .LVU513
 1791 00ca FFF7FEFF 		bl	lv_anim_start
 1792              	.LVL193:
 1793 00ce C2E7     		b	.L94
 1794              	.LVL194:
 1795              	.L101:
 327:lvgl/src/core/lv_obj_scroll.c ****         }
 1796              		.loc 1 327 13 view .LVU514
 1797              	.LBE144:
 1798              	.LBB153:
 332:lvgl/src/core/lv_obj_scroll.c ****             if(t > SCROLL_ANIM_TIME_MAX) t = SCROLL_ANIM_TIME_MAX;
 1799              		.loc 1 332 44 discriminator 1 view .LVU515
 1800 00d0 C820     		movs	r0, #200
 1801              	.LVL195:
 1802              	.L98:
 334:lvgl/src/core/lv_obj_scroll.c ****             lv_coord_t sy = lv_obj_get_scroll_y(obj);
 1803              		.loc 1 334 13 is_stmt 1 view .LVU516
 1804              	.LBB136:
 1805              	.LBI136:
 143:lvgl/src/core/../misc/lv_anim.h **** {
 1806              		.loc 3 143 20 view .LVU517
 1807              	.LBB137:
 145:lvgl/src/core/../misc/lv_anim.h **** }
 1808              		.loc 3 145 5 view .LVU518
 145:lvgl/src/core/../misc/lv_anim.h **** }
 1809              		.loc 3 145 13 is_stmt 0 view .LVU519
 1810 00d2 0A90     		str	r0, [sp, #40]
 1811              	.LVL196:
 145:lvgl/src/core/../misc/lv_anim.h **** }
 1812              		.loc 3 145 13 view .LVU520
 1813              	.LBE137:
 1814              	.LBE136:
 335:lvgl/src/core/lv_obj_scroll.c ****             lv_anim_set_values(&a, -sy, -sy + dy);
 1815              		.loc 1 335 13 is_stmt 1 view .LVU521
 335:lvgl/src/core/lv_obj_scroll.c ****             lv_anim_set_values(&a, -sy, -sy + dy);
 1816              		.loc 1 335 29 is_stmt 0 view .LVU522
 1817 00d4 2046     		mov	r0, r4
 1818              	.LVL197:
 335:lvgl/src/core/lv_obj_scroll.c ****             lv_anim_set_values(&a, -sy, -sy + dy);
 1819              		.loc 1 335 29 view .LVU523
 1820 00d6 FFF7FEFF 		bl	lv_obj_get_scroll_y
 1821              	.LVL198:
 336:lvgl/src/core/lv_obj_scroll.c ****             lv_anim_set_exec_cb(&a,  scroll_y_anim);
 1822              		.loc 1 336 13 is_stmt 1 view .LVU524
 336:lvgl/src/core/lv_obj_scroll.c ****             lv_anim_set_exec_cb(&a,  scroll_y_anim);
 1823              		.loc 1 336 36 is_stmt 0 view .LVU525
 1824 00da 4342     		rsbs	r3, r0, #0
 336:lvgl/src/core/lv_obj_scroll.c ****             lv_anim_set_exec_cb(&a,  scroll_y_anim);
ARM GAS  C:\usertemp\ccBZVumh.s 			page 66


 1825              		.loc 1 336 45 view .LVU526
 1826 00dc 301A     		subs	r0, r6, r0
 1827              	.LVL199:
 1828              	.LBB138:
 1829              	.LBI138:
 164:lvgl/src/core/../misc/lv_anim.h **** {
 1830              		.loc 3 164 20 is_stmt 1 view .LVU527
 1831              	.LBB139:
 166:lvgl/src/core/../misc/lv_anim.h ****     a->current_value = start;
 1832              		.loc 3 166 5 view .LVU528
 166:lvgl/src/core/../misc/lv_anim.h ****     a->current_value = start;
 1833              		.loc 3 166 20 is_stmt 0 view .LVU529
 1834 00de 0793     		str	r3, [sp, #28]
 167:lvgl/src/core/../misc/lv_anim.h ****     a->end_value = end;
 1835              		.loc 3 167 5 is_stmt 1 view .LVU530
 167:lvgl/src/core/../misc/lv_anim.h ****     a->end_value = end;
 1836              		.loc 3 167 22 is_stmt 0 view .LVU531
 1837 00e0 0893     		str	r3, [sp, #32]
 168:lvgl/src/core/../misc/lv_anim.h **** }
 1838              		.loc 3 168 5 is_stmt 1 view .LVU532
 168:lvgl/src/core/../misc/lv_anim.h **** }
 1839              		.loc 3 168 18 is_stmt 0 view .LVU533
 1840 00e2 0990     		str	r0, [sp, #36]
 1841              	.LVL200:
 168:lvgl/src/core/../misc/lv_anim.h **** }
 1842              		.loc 3 168 18 view .LVU534
 1843              	.LBE139:
 1844              	.LBE138:
 337:lvgl/src/core/lv_obj_scroll.c ****             lv_anim_set_path_cb(&a, lv_anim_path_ease_out);
 1845              		.loc 1 337 13 is_stmt 1 view .LVU535
 1846              	.LBB140:
 1847              	.LBI140:
 133:lvgl/src/core/../misc/lv_anim.h **** {
 1848              		.loc 3 133 20 view .LVU536
 1849              	.LBB141:
 135:lvgl/src/core/../misc/lv_anim.h **** }
 1850              		.loc 3 135 5 view .LVU537
 135:lvgl/src/core/../misc/lv_anim.h **** }
 1851              		.loc 3 135 16 is_stmt 0 view .LVU538
 1852 00e4 0A4B     		ldr	r3, .L107
 1853              	.LVL201:
 135:lvgl/src/core/../misc/lv_anim.h **** }
 1854              		.loc 3 135 16 view .LVU539
 1855 00e6 0193     		str	r3, [sp, #4]
 1856              	.LVL202:
 135:lvgl/src/core/../misc/lv_anim.h **** }
 1857              		.loc 3 135 16 view .LVU540
 1858              	.LBE141:
 1859              	.LBE140:
 338:lvgl/src/core/lv_obj_scroll.c **** 
 1860              		.loc 1 338 13 is_stmt 1 view .LVU541
 1861              	.LBB142:
 1862              	.LBI142:
 191:lvgl/src/core/../misc/lv_anim.h **** {
 1863              		.loc 3 191 20 view .LVU542
 1864              	.LBB143:
 193:lvgl/src/core/../misc/lv_anim.h **** }
ARM GAS  C:\usertemp\ccBZVumh.s 			page 67


 1865              		.loc 3 193 5 view .LVU543
 193:lvgl/src/core/../misc/lv_anim.h **** }
 1866              		.loc 3 193 16 is_stmt 0 view .LVU544
 1867 00e8 0C4B     		ldr	r3, .L107+12
 1868 00ea 0693     		str	r3, [sp, #24]
 1869              	.LVL203:
 193:lvgl/src/core/../misc/lv_anim.h **** }
 1870              		.loc 3 193 16 view .LVU545
 1871              	.LBE143:
 1872              	.LBE142:
 340:lvgl/src/core/lv_obj_scroll.c ****             res = lv_event_send(obj, LV_EVENT_SCROLL_BEGIN, &a);
 1873              		.loc 1 340 13 is_stmt 1 view .LVU546
 341:lvgl/src/core/lv_obj_scroll.c ****             if(res != LV_RES_OK) return;
 1874              		.loc 1 341 13 view .LVU547
 341:lvgl/src/core/lv_obj_scroll.c ****             if(res != LV_RES_OK) return;
 1875              		.loc 1 341 19 is_stmt 0 view .LVU548
 1876 00ec 6A46     		mov	r2, sp
 1877 00ee 0921     		movs	r1, #9
 1878 00f0 2046     		mov	r0, r4
 1879 00f2 FFF7FEFF 		bl	lv_event_send
 1880              	.LVL204:
 342:lvgl/src/core/lv_obj_scroll.c ****             lv_anim_start(&a);
 1881              		.loc 1 342 13 is_stmt 1 view .LVU549
 342:lvgl/src/core/lv_obj_scroll.c ****             lv_anim_start(&a);
 1882              		.loc 1 342 15 is_stmt 0 view .LVU550
 1883 00f6 0128     		cmp	r0, #1
 1884 00f8 A0D1     		bne	.L91
 343:lvgl/src/core/lv_obj_scroll.c ****         }
 1885              		.loc 1 343 13 is_stmt 1 view .LVU551
 1886 00fa 6846     		mov	r0, sp
 1887              	.LVL205:
 343:lvgl/src/core/lv_obj_scroll.c ****         }
 1888              		.loc 1 343 13 is_stmt 0 view .LVU552
 1889 00fc FFF7FEFF 		bl	lv_anim_start
 1890              	.LVL206:
 1891 0100 9CE7     		b	.L91
 1892              	.LVL207:
 1893              	.L105:
 343:lvgl/src/core/lv_obj_scroll.c ****         }
 1894              		.loc 1 343 13 view .LVU553
 1895              	.LBE153:
 1896              	.LBE130:
 1897              	.LBB154:
 1898              	.LBB129:
 352:lvgl/src/core/lv_obj_scroll.c ****             res = lv_event_send(obj, LV_EVENT_SCROLL_END, NULL);
 1899              		.loc 1 352 13 is_stmt 1 view .LVU554
 353:lvgl/src/core/lv_obj_scroll.c ****             if(res != LV_RES_OK) return;
 1900              		.loc 1 353 13 view .LVU555
 353:lvgl/src/core/lv_obj_scroll.c ****             if(res != LV_RES_OK) return;
 1901              		.loc 1 353 19 is_stmt 0 view .LVU556
 1902 0102 0022     		movs	r2, #0
 1903 0104 0A21     		movs	r1, #10
 1904 0106 2046     		mov	r0, r4
 1905 0108 FFF7FEFF 		bl	lv_event_send
 1906              	.LVL208:
 354:lvgl/src/core/lv_obj_scroll.c ****         }
 1907              		.loc 1 354 13 is_stmt 1 view .LVU557
ARM GAS  C:\usertemp\ccBZVumh.s 			page 68


 354:lvgl/src/core/lv_obj_scroll.c ****         }
 1908              		.loc 1 354 34 discriminator 1 view .LVU558
 1909 010c 96E7     		b	.L91
 1910              	.L108:
 1911 010e 00BF     		.align	2
 1912              	.L107:
 1913 0110 00000000 		.word	scroll_y_anim
 1914 0114 00000000 		.word	scroll_x_anim
 1915 0118 00000000 		.word	scroll_anim_ready_cb
 1916 011c 00000000 		.word	lv_anim_path_ease_out
 1917              	.LBE129:
 1918              	.LBE154:
 1919              		.cfi_endproc
 1920              	.LFE178:
 1922              		.section	.text.lv_obj_scroll_by_bounded,"ax",%progbits
 1923              		.align	1
 1924              		.global	lv_obj_scroll_by_bounded
 1925              		.syntax unified
 1926              		.thumb
 1927              		.thumb_func
 1929              	lv_obj_scroll_by_bounded:
 1930              	.LVL209:
 1931              	.LFB177:
 256:lvgl/src/core/lv_obj_scroll.c ****     if(dx == 0 && dy == 0) return;
 1932              		.loc 1 256 1 view -0
 1933              		.cfi_startproc
 1934              		@ args = 0, pretend = 0, frame = 0
 1935              		@ frame_needed = 0, uses_anonymous_args = 0
 256:lvgl/src/core/lv_obj_scroll.c ****     if(dx == 0 && dy == 0) return;
 1936              		.loc 1 256 1 is_stmt 0 view .LVU560
 1937 0000 2DE9F047 		push	{r4, r5, r6, r7, r8, r9, r10, lr}
 1938              	.LCFI16:
 1939              		.cfi_def_cfa_offset 32
 1940              		.cfi_offset 4, -32
 1941              		.cfi_offset 5, -28
 1942              		.cfi_offset 6, -24
 1943              		.cfi_offset 7, -20
 1944              		.cfi_offset 8, -16
 1945              		.cfi_offset 9, -12
 1946              		.cfi_offset 10, -8
 1947              		.cfi_offset 14, -4
 1948 0004 9846     		mov	r8, r3
 257:lvgl/src/core/lv_obj_scroll.c **** 
 1949              		.loc 1 257 5 is_stmt 1 view .LVU561
 257:lvgl/src/core/lv_obj_scroll.c **** 
 1950              		.loc 1 257 7 is_stmt 0 view .LVU562
 1951 0006 51EA0203 		orrs	r3, r1, r2
 1952              	.LVL210:
 257:lvgl/src/core/lv_obj_scroll.c **** 
 1953              		.loc 1 257 7 view .LVU563
 1954 000a 01D1     		bne	.L125
 1955              	.LVL211:
 1956              	.L109:
 301:lvgl/src/core/lv_obj_scroll.c **** 
 1957              		.loc 1 301 1 view .LVU564
 1958 000c BDE8F087 		pop	{r4, r5, r6, r7, r8, r9, r10, pc}
 1959              	.LVL212:
ARM GAS  C:\usertemp\ccBZVumh.s 			page 69


 1960              	.L125:
 301:lvgl/src/core/lv_obj_scroll.c **** 
 1961              		.loc 1 301 1 view .LVU565
 1962 0010 0646     		mov	r6, r0
 1963 0012 0D46     		mov	r5, r1
 1964 0014 1446     		mov	r4, r2
 260:lvgl/src/core/lv_obj_scroll.c **** 
 1965              		.loc 1 260 5 is_stmt 1 view .LVU566
 1966 0016 FFF7FEFF 		bl	lv_obj_update_layout
 1967              	.LVL213:
 263:lvgl/src/core/lv_obj_scroll.c ****     lv_coord_t x_bounded = x_current + dx;
 1968              		.loc 1 263 5 view .LVU567
 263:lvgl/src/core/lv_obj_scroll.c ****     lv_coord_t x_bounded = x_current + dx;
 1969              		.loc 1 263 29 is_stmt 0 view .LVU568
 1970 001a 3046     		mov	r0, r6
 1971 001c FFF7FEFF 		bl	lv_obj_get_scroll_x
 1972              	.LVL214:
 263:lvgl/src/core/lv_obj_scroll.c ****     lv_coord_t x_bounded = x_current + dx;
 1973              		.loc 1 263 29 discriminator 1 view .LVU569
 1974 0020 87B2     		uxth	r7, r0
 1975              	.LVL215:
 264:lvgl/src/core/lv_obj_scroll.c **** 
 1976              		.loc 1 264 5 is_stmt 1 view .LVU570
 264:lvgl/src/core/lv_obj_scroll.c **** 
 1977              		.loc 1 264 38 is_stmt 0 view .LVU571
 1978 0022 ADB2     		uxth	r5, r5
 264:lvgl/src/core/lv_obj_scroll.c **** 
 1979              		.loc 1 264 16 view .LVU572
 1980 0024 ED1B     		subs	r5, r5, r7
 1981 0026 2DB2     		sxth	r5, r5
 1982              	.LVL216:
 266:lvgl/src/core/lv_obj_scroll.c ****         if(x_bounded > 0) x_bounded = 0;
 1983              		.loc 1 266 5 is_stmt 1 view .LVU573
 1984              	.LBB155:
 1985              	.LBI155:
 542:lvgl/src/core/lv_obj_style_gen.h **** {
 1986              		.loc 2 542 29 view .LVU574
 1987              	.LBB156:
 544:lvgl/src/core/lv_obj_style_gen.h ****     return (lv_base_dir_t)v.num;
 1988              		.loc 2 544 5 view .LVU575
 544:lvgl/src/core/lv_obj_style_gen.h ****     return (lv_base_dir_t)v.num;
 1989              		.loc 2 544 26 is_stmt 0 view .LVU576
 1990 0028 41F26A42 		movw	r2, #5226
 1991 002c 0021     		movs	r1, #0
 1992 002e 3046     		mov	r0, r6
 1993 0030 FFF7FEFF 		bl	lv_obj_get_style_prop
 1994              	.LVL217:
 1995              		.loc 2 545 5 is_stmt 1 view .LVU577
 1996              		.loc 2 545 12 is_stmt 0 view .LVU578
 1997 0034 C0B2     		uxtb	r0, r0
 1998              	.LVL218:
 1999              		.loc 2 545 12 view .LVU579
 2000              	.LBE156:
 2001              	.LBE155:
 266:lvgl/src/core/lv_obj_scroll.c ****         if(x_bounded > 0) x_bounded = 0;
 2002              		.loc 1 266 7 discriminator 1 view .LVU580
 2003 0036 0128     		cmp	r0, #1
ARM GAS  C:\usertemp\ccBZVumh.s 			page 70


 2004 0038 32D0     		beq	.L111
 267:lvgl/src/core/lv_obj_scroll.c ****         if(x_bounded < 0) {
 2005              		.loc 1 267 9 is_stmt 1 view .LVU581
 267:lvgl/src/core/lv_obj_scroll.c ****         if(x_bounded < 0) {
 2006              		.loc 1 267 11 is_stmt 0 view .LVU582
 2007 003a 002D     		cmp	r5, #0
 2008 003c 1BDD     		ble	.L126
 267:lvgl/src/core/lv_obj_scroll.c ****         if(x_bounded < 0) {
 2009              		.loc 1 267 37 discriminator 1 view .LVU583
 2010 003e 0025     		movs	r5, #0
 2011              	.LVL219:
 2012              	.L112:
 286:lvgl/src/core/lv_obj_scroll.c ****     lv_coord_t y_bounded = y_current + dy;
 2013              		.loc 1 286 5 is_stmt 1 view .LVU584
 286:lvgl/src/core/lv_obj_scroll.c ****     lv_coord_t y_bounded = y_current + dy;
 2014              		.loc 1 286 29 is_stmt 0 view .LVU585
 2015 0040 3046     		mov	r0, r6
 2016 0042 FFF7FEFF 		bl	lv_obj_get_scroll_y
 2017              	.LVL220:
 286:lvgl/src/core/lv_obj_scroll.c ****     lv_coord_t y_bounded = y_current + dy;
 2018              		.loc 1 286 29 discriminator 1 view .LVU586
 2019 0046 1FFA80F9 		uxth	r9, r0
 2020              	.LVL221:
 287:lvgl/src/core/lv_obj_scroll.c **** 
 2021              		.loc 1 287 5 is_stmt 1 view .LVU587
 287:lvgl/src/core/lv_obj_scroll.c **** 
 2022              		.loc 1 287 38 is_stmt 0 view .LVU588
 2023 004a A4B2     		uxth	r4, r4
 287:lvgl/src/core/lv_obj_scroll.c **** 
 2024              		.loc 1 287 16 view .LVU589
 2025 004c A4EB0904 		sub	r4, r4, r9
 2026 0050 24B2     		sxth	r4, r4
 2027              	.LVL222:
 289:lvgl/src/core/lv_obj_scroll.c ****     if(y_bounded < 0) {
 2028              		.loc 1 289 5 is_stmt 1 view .LVU590
 289:lvgl/src/core/lv_obj_scroll.c ****     if(y_bounded < 0) {
 2029              		.loc 1 289 7 is_stmt 0 view .LVU591
 2030 0052 002C     		cmp	r4, #0
 2031 0054 3CDD     		ble	.L127
 289:lvgl/src/core/lv_obj_scroll.c ****     if(y_bounded < 0) {
 2032              		.loc 1 289 33 discriminator 1 view .LVU592
 2033 0056 0024     		movs	r4, #0
 2034              	.LVL223:
 2035              	.L115:
 296:lvgl/src/core/lv_obj_scroll.c ****     dy = y_bounded - y_current;
 2036              		.loc 1 296 5 is_stmt 1 view .LVU593
 296:lvgl/src/core/lv_obj_scroll.c ****     dy = y_bounded - y_current;
 2037              		.loc 1 296 20 is_stmt 0 view .LVU594
 2038 0058 2F44     		add	r7, r7, r5
 2039              	.LVL224:
 296:lvgl/src/core/lv_obj_scroll.c ****     dy = y_bounded - y_current;
 2040              		.loc 1 296 20 view .LVU595
 2041 005a BBB2     		uxth	r3, r7
 296:lvgl/src/core/lv_obj_scroll.c ****     dy = y_bounded - y_current;
 2042              		.loc 1 296 8 view .LVU596
 2043 005c 39B2     		sxth	r1, r7
 2044              	.LVL225:
ARM GAS  C:\usertemp\ccBZVumh.s 			page 71


 297:lvgl/src/core/lv_obj_scroll.c ****     if(dx || dy) {
 2045              		.loc 1 297 5 is_stmt 1 view .LVU597
 297:lvgl/src/core/lv_obj_scroll.c ****     if(dx || dy) {
 2046              		.loc 1 297 20 is_stmt 0 view .LVU598
 2047 005e A144     		add	r9, r9, r4
 2048              	.LVL226:
 297:lvgl/src/core/lv_obj_scroll.c ****     if(dx || dy) {
 2049              		.loc 1 297 20 view .LVU599
 2050 0060 1FFA89F0 		uxth	r0, r9
 297:lvgl/src/core/lv_obj_scroll.c ****     if(dx || dy) {
 2051              		.loc 1 297 8 view .LVU600
 2052 0064 0FFA89F2 		sxth	r2, r9
 2053              	.LVL227:
 298:lvgl/src/core/lv_obj_scroll.c ****         lv_obj_scroll_by(obj, dx, dy, anim_en);
 2054              		.loc 1 298 5 is_stmt 1 view .LVU601
 298:lvgl/src/core/lv_obj_scroll.c ****         lv_obj_scroll_by(obj, dx, dy, anim_en);
 2055              		.loc 1 298 7 is_stmt 0 view .LVU602
 2056 0068 0343     		orrs	r3, r3, r0
 2057 006a CFD0     		beq	.L109
 299:lvgl/src/core/lv_obj_scroll.c ****     }
 2058              		.loc 1 299 9 is_stmt 1 view .LVU603
 2059 006c 4346     		mov	r3, r8
 2060 006e 3046     		mov	r0, r6
 2061 0070 FFF7FEFF 		bl	lv_obj_scroll_by
 2062              	.LVL228:
 299:lvgl/src/core/lv_obj_scroll.c ****     }
 2063              		.loc 1 299 9 is_stmt 0 view .LVU604
 2064 0074 CAE7     		b	.L109
 2065              	.LVL229:
 2066              	.L126:
 268:lvgl/src/core/lv_obj_scroll.c ****             lv_coord_t  scroll_max = lv_obj_get_scroll_left(obj) + lv_obj_get_scroll_right(obj);
 2067              		.loc 1 268 9 is_stmt 1 view .LVU605
 268:lvgl/src/core/lv_obj_scroll.c ****             lv_coord_t  scroll_max = lv_obj_get_scroll_left(obj) + lv_obj_get_scroll_right(obj);
 2068              		.loc 1 268 11 is_stmt 0 view .LVU606
 2069 0076 E3DA     		bge	.L112
 2070              	.LBB157:
 269:lvgl/src/core/lv_obj_scroll.c ****             if(scroll_max < 0) scroll_max = 0;
 2071              		.loc 1 269 13 is_stmt 1 view .LVU607
 269:lvgl/src/core/lv_obj_scroll.c ****             if(scroll_max < 0) scroll_max = 0;
 2072              		.loc 1 269 38 is_stmt 0 view .LVU608
 2073 0078 3046     		mov	r0, r6
 2074 007a FFF7FEFF 		bl	lv_obj_get_scroll_left
 2075              	.LVL230:
 269:lvgl/src/core/lv_obj_scroll.c ****             if(scroll_max < 0) scroll_max = 0;
 2076              		.loc 1 269 38 discriminator 1 view .LVU609
 2077 007e 1FFA80F9 		uxth	r9, r0
 269:lvgl/src/core/lv_obj_scroll.c ****             if(scroll_max < 0) scroll_max = 0;
 2078              		.loc 1 269 68 discriminator 1 view .LVU610
 2079 0082 3046     		mov	r0, r6
 2080 0084 FFF7FEFF 		bl	lv_obj_get_scroll_right
 2081              	.LVL231:
 269:lvgl/src/core/lv_obj_scroll.c ****             if(scroll_max < 0) scroll_max = 0;
 2082              		.loc 1 269 66 discriminator 2 view .LVU611
 2083 0088 19FA80F3 		uxtah	r3, r9, r0
 269:lvgl/src/core/lv_obj_scroll.c ****             if(scroll_max < 0) scroll_max = 0;
 2084              		.loc 1 269 25 discriminator 2 view .LVU612
 2085 008c 1BB2     		sxth	r3, r3
ARM GAS  C:\usertemp\ccBZVumh.s 			page 72


 2086              	.LVL232:
 270:lvgl/src/core/lv_obj_scroll.c **** 
 2087              		.loc 1 270 13 is_stmt 1 view .LVU613
 270:lvgl/src/core/lv_obj_scroll.c **** 
 2088              		.loc 1 270 15 is_stmt 0 view .LVU614
 2089 008e 002B     		cmp	r3, #0
 2090 0090 04DB     		blt	.L128
 2091              	.LVL233:
 2092              	.L113:
 272:lvgl/src/core/lv_obj_scroll.c ****         }
 2093              		.loc 1 272 13 is_stmt 1 view .LVU615
 272:lvgl/src/core/lv_obj_scroll.c ****         }
 2094              		.loc 1 272 28 is_stmt 0 view .LVU616
 2095 0092 5A42     		rsbs	r2, r3, #0
 272:lvgl/src/core/lv_obj_scroll.c ****         }
 2096              		.loc 1 272 15 view .LVU617
 2097 0094 9542     		cmp	r5, r2
 2098 0096 D3DA     		bge	.L112
 272:lvgl/src/core/lv_obj_scroll.c ****         }
 2099              		.loc 1 272 41 is_stmt 1 discriminator 1 view .LVU618
 272:lvgl/src/core/lv_obj_scroll.c ****         }
 2100              		.loc 1 272 51 is_stmt 0 discriminator 1 view .LVU619
 2101 0098 15B2     		sxth	r5, r2
 2102              	.LVL234:
 272:lvgl/src/core/lv_obj_scroll.c ****         }
 2103              		.loc 1 272 51 discriminator 1 view .LVU620
 2104 009a D1E7     		b	.L112
 2105              	.L128:
 270:lvgl/src/core/lv_obj_scroll.c **** 
 2106              		.loc 1 270 43 discriminator 1 view .LVU621
 2107 009c 0023     		movs	r3, #0
 2108              	.LVL235:
 270:lvgl/src/core/lv_obj_scroll.c **** 
 2109              		.loc 1 270 43 discriminator 1 view .LVU622
 2110 009e F8E7     		b	.L113
 2111              	.LVL236:
 2112              	.L111:
 270:lvgl/src/core/lv_obj_scroll.c **** 
 2113              		.loc 1 270 43 discriminator 1 view .LVU623
 2114              	.LBE157:
 276:lvgl/src/core/lv_obj_scroll.c ****         if(x_bounded > 0) {
 2115              		.loc 1 276 9 is_stmt 1 view .LVU624
 276:lvgl/src/core/lv_obj_scroll.c ****         if(x_bounded > 0) {
 2116              		.loc 1 276 11 is_stmt 0 view .LVU625
 2117 00a0 002D     		cmp	r5, #0
 2118 00a2 13DB     		blt	.L119
 277:lvgl/src/core/lv_obj_scroll.c ****             lv_coord_t  scroll_max = lv_obj_get_scroll_left(obj) + lv_obj_get_scroll_right(obj);
 2119              		.loc 1 277 9 is_stmt 1 view .LVU626
 277:lvgl/src/core/lv_obj_scroll.c ****             lv_coord_t  scroll_max = lv_obj_get_scroll_left(obj) + lv_obj_get_scroll_right(obj);
 2120              		.loc 1 277 11 is_stmt 0 view .LVU627
 2121 00a4 CCDD     		ble	.L112
 2122              	.LBB158:
 278:lvgl/src/core/lv_obj_scroll.c ****             if(scroll_max < 0) scroll_max = 0;
 2123              		.loc 1 278 13 is_stmt 1 view .LVU628
 278:lvgl/src/core/lv_obj_scroll.c ****             if(scroll_max < 0) scroll_max = 0;
 2124              		.loc 1 278 38 is_stmt 0 view .LVU629
 2125 00a6 3046     		mov	r0, r6
ARM GAS  C:\usertemp\ccBZVumh.s 			page 73


 2126 00a8 FFF7FEFF 		bl	lv_obj_get_scroll_left
 2127              	.LVL237:
 278:lvgl/src/core/lv_obj_scroll.c ****             if(scroll_max < 0) scroll_max = 0;
 2128              		.loc 1 278 38 discriminator 1 view .LVU630
 2129 00ac 1FFA80F9 		uxth	r9, r0
 278:lvgl/src/core/lv_obj_scroll.c ****             if(scroll_max < 0) scroll_max = 0;
 2130              		.loc 1 278 68 discriminator 1 view .LVU631
 2131 00b0 3046     		mov	r0, r6
 2132 00b2 FFF7FEFF 		bl	lv_obj_get_scroll_right
 2133              	.LVL238:
 278:lvgl/src/core/lv_obj_scroll.c ****             if(scroll_max < 0) scroll_max = 0;
 2134              		.loc 1 278 66 discriminator 2 view .LVU632
 2135 00b6 19FA80F3 		uxtah	r3, r9, r0
 278:lvgl/src/core/lv_obj_scroll.c ****             if(scroll_max < 0) scroll_max = 0;
 2136              		.loc 1 278 25 discriminator 2 view .LVU633
 2137 00ba 1BB2     		sxth	r3, r3
 2138              	.LVL239:
 279:lvgl/src/core/lv_obj_scroll.c **** 
 2139              		.loc 1 279 13 is_stmt 1 view .LVU634
 279:lvgl/src/core/lv_obj_scroll.c **** 
 2140              		.loc 1 279 15 is_stmt 0 view .LVU635
 2141 00bc 002B     		cmp	r3, #0
 2142 00be 03DB     		blt	.L129
 2143              	.LVL240:
 2144              	.L114:
 281:lvgl/src/core/lv_obj_scroll.c ****         }
 2145              		.loc 1 281 13 is_stmt 1 view .LVU636
 281:lvgl/src/core/lv_obj_scroll.c ****         }
 2146              		.loc 1 281 15 is_stmt 0 view .LVU637
 2147 00c0 AB42     		cmp	r3, r5
 2148 00c2 BDDA     		bge	.L112
 281:lvgl/src/core/lv_obj_scroll.c ****         }
 2149              		.loc 1 281 50 discriminator 1 view .LVU638
 2150 00c4 1D46     		mov	r5, r3
 2151              	.LVL241:
 281:lvgl/src/core/lv_obj_scroll.c ****         }
 2152              		.loc 1 281 50 discriminator 1 view .LVU639
 2153 00c6 BBE7     		b	.L112
 2154              	.LVL242:
 2155              	.L129:
 279:lvgl/src/core/lv_obj_scroll.c **** 
 2156              		.loc 1 279 43 discriminator 1 view .LVU640
 2157 00c8 0023     		movs	r3, #0
 2158              	.LVL243:
 279:lvgl/src/core/lv_obj_scroll.c **** 
 2159              		.loc 1 279 43 discriminator 1 view .LVU641
 2160 00ca F9E7     		b	.L114
 2161              	.LVL244:
 2162              	.L119:
 279:lvgl/src/core/lv_obj_scroll.c **** 
 2163              		.loc 1 279 43 discriminator 1 view .LVU642
 2164              	.LBE158:
 276:lvgl/src/core/lv_obj_scroll.c ****         if(x_bounded > 0) {
 2165              		.loc 1 276 37 discriminator 1 view .LVU643
 2166 00cc 0025     		movs	r5, #0
 2167              	.LVL245:
 276:lvgl/src/core/lv_obj_scroll.c ****         if(x_bounded > 0) {
ARM GAS  C:\usertemp\ccBZVumh.s 			page 74


 2168              		.loc 1 276 37 discriminator 1 view .LVU644
 2169 00ce B7E7     		b	.L112
 2170              	.LVL246:
 2171              	.L127:
 290:lvgl/src/core/lv_obj_scroll.c ****         lv_coord_t  scroll_max = lv_obj_get_scroll_top(obj) + lv_obj_get_scroll_bottom(obj);
 2172              		.loc 1 290 5 is_stmt 1 view .LVU645
 290:lvgl/src/core/lv_obj_scroll.c ****         lv_coord_t  scroll_max = lv_obj_get_scroll_top(obj) + lv_obj_get_scroll_bottom(obj);
 2173              		.loc 1 290 7 is_stmt 0 view .LVU646
 2174 00d0 C2DA     		bge	.L115
 2175              	.LBB159:
 291:lvgl/src/core/lv_obj_scroll.c ****         if(scroll_max < 0) scroll_max = 0;
 2176              		.loc 1 291 9 is_stmt 1 view .LVU647
 291:lvgl/src/core/lv_obj_scroll.c ****         if(scroll_max < 0) scroll_max = 0;
 2177              		.loc 1 291 34 is_stmt 0 view .LVU648
 2178 00d2 3046     		mov	r0, r6
 2179 00d4 FFF7FEFF 		bl	lv_obj_get_scroll_top
 2180              	.LVL247:
 291:lvgl/src/core/lv_obj_scroll.c ****         if(scroll_max < 0) scroll_max = 0;
 2181              		.loc 1 291 34 discriminator 1 view .LVU649
 2182 00d8 1FFA80FA 		uxth	r10, r0
 291:lvgl/src/core/lv_obj_scroll.c ****         if(scroll_max < 0) scroll_max = 0;
 2183              		.loc 1 291 63 discriminator 1 view .LVU650
 2184 00dc 3046     		mov	r0, r6
 2185 00de FFF7FEFF 		bl	lv_obj_get_scroll_bottom
 2186              	.LVL248:
 291:lvgl/src/core/lv_obj_scroll.c ****         if(scroll_max < 0) scroll_max = 0;
 2187              		.loc 1 291 61 discriminator 2 view .LVU651
 2188 00e2 1AFA80F3 		uxtah	r3, r10, r0
 291:lvgl/src/core/lv_obj_scroll.c ****         if(scroll_max < 0) scroll_max = 0;
 2189              		.loc 1 291 21 discriminator 2 view .LVU652
 2190 00e6 1BB2     		sxth	r3, r3
 2191              	.LVL249:
 292:lvgl/src/core/lv_obj_scroll.c ****         if(y_bounded < -scroll_max) y_bounded = -scroll_max;
 2192              		.loc 1 292 9 is_stmt 1 view .LVU653
 292:lvgl/src/core/lv_obj_scroll.c ****         if(y_bounded < -scroll_max) y_bounded = -scroll_max;
 2193              		.loc 1 292 11 is_stmt 0 view .LVU654
 2194 00e8 002B     		cmp	r3, #0
 2195 00ea 04DB     		blt	.L130
 2196              	.LVL250:
 2197              	.L116:
 293:lvgl/src/core/lv_obj_scroll.c ****     }
 2198              		.loc 1 293 9 is_stmt 1 view .LVU655
 293:lvgl/src/core/lv_obj_scroll.c ****     }
 2199              		.loc 1 293 24 is_stmt 0 view .LVU656
 2200 00ec 5A42     		rsbs	r2, r3, #0
 293:lvgl/src/core/lv_obj_scroll.c ****     }
 2201              		.loc 1 293 11 view .LVU657
 2202 00ee 9442     		cmp	r4, r2
 2203 00f0 B2DA     		bge	.L115
 293:lvgl/src/core/lv_obj_scroll.c ****     }
 2204              		.loc 1 293 37 is_stmt 1 discriminator 1 view .LVU658
 293:lvgl/src/core/lv_obj_scroll.c ****     }
 2205              		.loc 1 293 47 is_stmt 0 discriminator 1 view .LVU659
 2206 00f2 14B2     		sxth	r4, r2
 2207              	.LVL251:
 293:lvgl/src/core/lv_obj_scroll.c ****     }
 2208              		.loc 1 293 47 discriminator 1 view .LVU660
ARM GAS  C:\usertemp\ccBZVumh.s 			page 75


 2209 00f4 B0E7     		b	.L115
 2210              	.L130:
 292:lvgl/src/core/lv_obj_scroll.c ****         if(y_bounded < -scroll_max) y_bounded = -scroll_max;
 2211              		.loc 1 292 39 discriminator 1 view .LVU661
 2212 00f6 0023     		movs	r3, #0
 2213              	.LVL252:
 292:lvgl/src/core/lv_obj_scroll.c ****         if(y_bounded < -scroll_max) y_bounded = -scroll_max;
 2214              		.loc 1 292 39 discriminator 1 view .LVU662
 2215 00f8 F8E7     		b	.L116
 2216              	.LBE159:
 2217              		.cfi_endproc
 2218              	.LFE177:
 2220              		.section	.text.scroll_area_into_view,"ax",%progbits
 2221              		.align	1
 2222              		.syntax unified
 2223              		.thumb
 2224              		.thumb_func
 2226              	scroll_area_into_view:
 2227              	.LVL253:
 2228              	.LFB193:
 680:lvgl/src/core/lv_obj_scroll.c **** 
 681:lvgl/src/core/lv_obj_scroll.c **** static void scroll_area_into_view(const lv_area_t * area, lv_obj_t * child, lv_point_t * scroll_val
 682:lvgl/src/core/lv_obj_scroll.c ****                                   lv_anim_enable_t anim_en)
 683:lvgl/src/core/lv_obj_scroll.c **** {
 2229              		.loc 1 683 1 is_stmt 1 view -0
 2230              		.cfi_startproc
 2231              		@ args = 0, pretend = 0, frame = 32
 2232              		@ frame_needed = 0, uses_anonymous_args = 0
 2233              		.loc 1 683 1 is_stmt 0 view .LVU664
 2234 0000 2DE9F04F 		push	{r4, r5, r6, r7, r8, r9, r10, fp, lr}
 2235              	.LCFI17:
 2236              		.cfi_def_cfa_offset 36
 2237              		.cfi_offset 4, -36
 2238              		.cfi_offset 5, -32
 2239              		.cfi_offset 6, -28
 2240              		.cfi_offset 7, -24
 2241              		.cfi_offset 8, -20
 2242              		.cfi_offset 9, -16
 2243              		.cfi_offset 10, -12
 2244              		.cfi_offset 11, -8
 2245              		.cfi_offset 14, -4
 2246 0004 89B0     		sub	sp, sp, #36
 2247              	.LCFI18:
 2248              		.cfi_def_cfa_offset 72
 2249 0006 8146     		mov	r9, r0
 2250 0008 0D46     		mov	r5, r1
 2251 000a 0491     		str	r1, [sp, #16]
 2252 000c 9046     		mov	r8, r2
 2253 000e 0293     		str	r3, [sp, #8]
 684:lvgl/src/core/lv_obj_scroll.c ****     lv_obj_t * parent = lv_obj_get_parent(child);
 2254              		.loc 1 684 5 is_stmt 1 view .LVU665
 2255              		.loc 1 684 25 is_stmt 0 view .LVU666
 2256 0010 0846     		mov	r0, r1
 2257              	.LVL254:
 2258              		.loc 1 684 25 view .LVU667
 2259 0012 FFF7FEFF 		bl	lv_obj_get_parent
 2260              	.LVL255:
ARM GAS  C:\usertemp\ccBZVumh.s 			page 76


 2261              		.loc 1 684 25 view .LVU668
 2262 0016 0446     		mov	r4, r0
 2263              	.LVL256:
 685:lvgl/src/core/lv_obj_scroll.c ****     if(!lv_obj_has_flag(parent, LV_OBJ_FLAG_SCROLLABLE)) return;
 2264              		.loc 1 685 5 is_stmt 1 view .LVU669
 2265              		.loc 1 685 9 is_stmt 0 view .LVU670
 2266 0018 1021     		movs	r1, #16
 2267 001a FFF7FEFF 		bl	lv_obj_has_flag
 2268              	.LVL257:
 2269              		.loc 1 685 7 discriminator 1 view .LVU671
 2270 001e 0028     		cmp	r0, #0
 2271 0020 00F09381 		beq	.L131
 686:lvgl/src/core/lv_obj_scroll.c **** 
 687:lvgl/src/core/lv_obj_scroll.c ****     lv_dir_t scroll_dir = lv_obj_get_scroll_dir(parent);
 2272              		.loc 1 687 5 is_stmt 1 view .LVU672
 2273              		.loc 1 687 27 is_stmt 0 view .LVU673
 2274 0024 2046     		mov	r0, r4
 2275 0026 FFF7FEFF 		bl	lv_obj_get_scroll_dir
 2276              	.LVL258:
 2277 002a 0190     		str	r0, [sp, #4]
 2278              	.LVL259:
 688:lvgl/src/core/lv_obj_scroll.c ****     lv_coord_t snap_goal = 0;
 2279              		.loc 1 688 5 is_stmt 1 view .LVU674
 689:lvgl/src/core/lv_obj_scroll.c ****     lv_coord_t act = 0;
 2280              		.loc 1 689 5 view .LVU675
 690:lvgl/src/core/lv_obj_scroll.c ****     const lv_area_t * area_tmp;
 2281              		.loc 1 690 5 view .LVU676
 691:lvgl/src/core/lv_obj_scroll.c **** 
 692:lvgl/src/core/lv_obj_scroll.c ****     lv_coord_t y_scroll = 0;
 2282              		.loc 1 692 5 view .LVU677
 693:lvgl/src/core/lv_obj_scroll.c ****     lv_scroll_snap_t snap_y = lv_obj_get_scroll_snap_y(parent);
 2283              		.loc 1 693 5 view .LVU678
 2284              		.loc 1 693 31 is_stmt 0 view .LVU679
 2285 002c 2046     		mov	r0, r4
 2286 002e FFF7FEFF 		bl	lv_obj_get_scroll_snap_y
 2287              	.LVL260:
 694:lvgl/src/core/lv_obj_scroll.c ****     if(snap_y != LV_SCROLL_SNAP_NONE) area_tmp = &child->coords;
 2288              		.loc 1 694 5 is_stmt 1 view .LVU680
 2289              		.loc 1 694 7 is_stmt 0 view .LVU681
 2290 0032 0590     		str	r0, [sp, #20]
 2291 0034 0028     		cmp	r0, #0
 2292 0036 4BD0     		beq	.L156
 2293              		.loc 1 694 39 is_stmt 1 discriminator 1 view .LVU682
 2294              		.loc 1 694 48 is_stmt 0 discriminator 1 view .LVU683
 2295 0038 05F1140A 		add	r10, r5, #20
 2296              	.LVL261:
 2297              	.L133:
 695:lvgl/src/core/lv_obj_scroll.c ****     else area_tmp = area;
 696:lvgl/src/core/lv_obj_scroll.c **** 
 697:lvgl/src/core/lv_obj_scroll.c ****     lv_coord_t border_width = lv_obj_get_style_border_width(parent, LV_PART_MAIN);
 2298              		.loc 1 697 5 is_stmt 1 view .LVU684
 2299              	.LBB160:
 2300              	.LBI160:
 241:lvgl/src/core/lv_obj_style_gen.h **** {
 2301              		.loc 2 241 26 view .LVU685
 2302              	.LBB161:
 243:lvgl/src/core/lv_obj_style_gen.h ****     return (lv_coord_t)v.num;
ARM GAS  C:\usertemp\ccBZVumh.s 			page 77


 2303              		.loc 2 243 5 view .LVU686
 243:lvgl/src/core/lv_obj_style_gen.h ****     return (lv_coord_t)v.num;
 2304              		.loc 2 243 26 is_stmt 0 view .LVU687
 2305 003c 41F23202 		movw	r2, #4146
 2306 0040 0021     		movs	r1, #0
 2307 0042 2046     		mov	r0, r4
 2308              	.LVL262:
 243:lvgl/src/core/lv_obj_style_gen.h ****     return (lv_coord_t)v.num;
