ARM GAS  C:\usertemp\ccIlwJXO.s 			page 1


   1              		.cpu cortex-m7
   2              		.arch armv7e-m
   3              		.fpu fpv5-d16
   4              		.eabi_attribute 28, 1
   5              		.eabi_attribute 20, 1
   6              		.eabi_attribute 21, 1
   7              		.eabi_attribute 23, 3
   8              		.eabi_attribute 24, 1
   9              		.eabi_attribute 25, 1
  10              		.eabi_attribute 26, 1
  11              		.eabi_attribute 30, 1
  12              		.eabi_attribute 34, 1
  13              		.eabi_attribute 18, 4
  14              		.file	"lv_obj.c"
  15              		.text
  16              	.Ltext0:
  17              		.cfi_sections	.debug_frame
  18              		.file 1 "lvgl/src/core/lv_obj.c"
  19              		.section	.text.lv_style_get_prop_inlined,"ax",%progbits
  20              		.align	1
  21              		.syntax unified
  22              		.thumb
  23              		.thumb_func
  25              	lv_style_get_prop_inlined:
  26              	.LVL0:
  27              	.LFB49:
  28              		.file 2 "lvgl/src/core/../misc/lv_style.h"
   1:lvgl/src/core/../misc/lv_style.h **** /**
   2:lvgl/src/core/../misc/lv_style.h ****  * @file lv_style.h
   3:lvgl/src/core/../misc/lv_style.h ****  *
   4:lvgl/src/core/../misc/lv_style.h ****  */
   5:lvgl/src/core/../misc/lv_style.h **** 
   6:lvgl/src/core/../misc/lv_style.h **** #ifndef LV_STYLE_H
   7:lvgl/src/core/../misc/lv_style.h **** #define LV_STYLE_H
   8:lvgl/src/core/../misc/lv_style.h **** 
   9:lvgl/src/core/../misc/lv_style.h **** #ifdef __cplusplus
  10:lvgl/src/core/../misc/lv_style.h **** extern "C" {
  11:lvgl/src/core/../misc/lv_style.h **** #endif
  12:lvgl/src/core/../misc/lv_style.h **** 
  13:lvgl/src/core/../misc/lv_style.h **** /*********************
  14:lvgl/src/core/../misc/lv_style.h ****  *      INCLUDES
  15:lvgl/src/core/../misc/lv_style.h ****  *********************/
  16:lvgl/src/core/../misc/lv_style.h **** #include <stdbool.h>
  17:lvgl/src/core/../misc/lv_style.h **** #include <stdint.h>
  18:lvgl/src/core/../misc/lv_style.h **** #include "../font/lv_font.h"
  19:lvgl/src/core/../misc/lv_style.h **** #include "lv_color.h"
  20:lvgl/src/core/../misc/lv_style.h **** #include "lv_area.h"
  21:lvgl/src/core/../misc/lv_style.h **** #include "lv_anim.h"
  22:lvgl/src/core/../misc/lv_style.h **** #include "lv_txt.h"
  23:lvgl/src/core/../misc/lv_style.h **** #include "lv_types.h"
  24:lvgl/src/core/../misc/lv_style.h **** #include "lv_assert.h"
  25:lvgl/src/core/../misc/lv_style.h **** #include "lv_bidi.h"
  26:lvgl/src/core/../misc/lv_style.h **** 
  27:lvgl/src/core/../misc/lv_style.h **** /*********************
  28:lvgl/src/core/../misc/lv_style.h ****  *      DEFINES
  29:lvgl/src/core/../misc/lv_style.h ****  *********************/
  30:lvgl/src/core/../misc/lv_style.h **** 
ARM GAS  C:\usertemp\ccIlwJXO.s 			page 2


  31:lvgl/src/core/../misc/lv_style.h **** #define LV_STYLE_SENTINEL_VALUE     0xAABBCCDD
  32:lvgl/src/core/../misc/lv_style.h **** 
  33:lvgl/src/core/../misc/lv_style.h **** /**
  34:lvgl/src/core/../misc/lv_style.h ****  * Flags for style properties
  35:lvgl/src/core/../misc/lv_style.h ****  */
  36:lvgl/src/core/../misc/lv_style.h **** #define LV_STYLE_PROP_INHERIT               (1 << 10)  /*Inherited*/
  37:lvgl/src/core/../misc/lv_style.h **** #define LV_STYLE_PROP_EXT_DRAW              (1 << 11)  /*Requires ext. draw size update when change
  38:lvgl/src/core/../misc/lv_style.h **** #define LV_STYLE_PROP_LAYOUT_REFR           (1 << 12)  /*Requires layout update when changed*/
  39:lvgl/src/core/../misc/lv_style.h **** #define LV_STYLE_PROP_PARENT_LAYOUT_REFR    (1 << 13)  /*Requires layout update on parent when chan
  40:lvgl/src/core/../misc/lv_style.h **** #define LV_STYLE_PROP_FILTER                (1 << 14)  /*Apply color filter*/
  41:lvgl/src/core/../misc/lv_style.h **** 
  42:lvgl/src/core/../misc/lv_style.h **** /**
  43:lvgl/src/core/../misc/lv_style.h ****  * Other constants
  44:lvgl/src/core/../misc/lv_style.h ****  */
  45:lvgl/src/core/../misc/lv_style.h **** #define LV_IMG_ZOOM_NONE            256        /*Value for not zooming the image*/
  46:lvgl/src/core/../misc/lv_style.h **** LV_EXPORT_CONST_INT(LV_IMG_ZOOM_NONE);
  47:lvgl/src/core/../misc/lv_style.h **** 
  48:lvgl/src/core/../misc/lv_style.h **** #if LV_USE_ASSERT_STYLE
  49:lvgl/src/core/../misc/lv_style.h **** #define LV_STYLE_CONST_INIT(var_name, prop_array) const lv_style_t var_name = { .sentinel = LV_STYL
  50:lvgl/src/core/../misc/lv_style.h **** #else
  51:lvgl/src/core/../misc/lv_style.h **** #define LV_STYLE_CONST_INIT(var_name, prop_array) const lv_style_t var_name = { .v_p = { .const_pro
  52:lvgl/src/core/../misc/lv_style.h **** #endif
  53:lvgl/src/core/../misc/lv_style.h **** 
  54:lvgl/src/core/../misc/lv_style.h **** /** On simple system, don't waste resources on gradients */
  55:lvgl/src/core/../misc/lv_style.h **** #if !defined(LV_DRAW_COMPLEX) || !defined(LV_GRADIENT_MAX_STOPS)
  56:lvgl/src/core/../misc/lv_style.h **** #define LV_GRADIENT_MAX_STOPS 2
  57:lvgl/src/core/../misc/lv_style.h **** #endif
  58:lvgl/src/core/../misc/lv_style.h **** 
  59:lvgl/src/core/../misc/lv_style.h **** 
  60:lvgl/src/core/../misc/lv_style.h **** /**********************
  61:lvgl/src/core/../misc/lv_style.h ****  *      TYPEDEFS
  62:lvgl/src/core/../misc/lv_style.h ****  **********************/
  63:lvgl/src/core/../misc/lv_style.h **** 
  64:lvgl/src/core/../misc/lv_style.h **** /**
  65:lvgl/src/core/../misc/lv_style.h ****  * Possible options how to blend opaque drawings
  66:lvgl/src/core/../misc/lv_style.h ****  */
  67:lvgl/src/core/../misc/lv_style.h **** enum {
  68:lvgl/src/core/../misc/lv_style.h ****     LV_BLEND_MODE_NORMAL,     /**< Simply mix according to the opacity value*/
  69:lvgl/src/core/../misc/lv_style.h ****     LV_BLEND_MODE_ADDITIVE,   /**< Add the respective color channels*/
  70:lvgl/src/core/../misc/lv_style.h ****     LV_BLEND_MODE_SUBTRACTIVE,/**< Subtract the foreground from the background*/
  71:lvgl/src/core/../misc/lv_style.h ****     LV_BLEND_MODE_MULTIPLY,   /**< Multiply the foreground and background*/
  72:lvgl/src/core/../misc/lv_style.h ****     LV_BLEND_MODE_REPLACE,    /**< Replace background with foreground in the area*/
  73:lvgl/src/core/../misc/lv_style.h **** };
  74:lvgl/src/core/../misc/lv_style.h **** 
  75:lvgl/src/core/../misc/lv_style.h **** typedef uint8_t lv_blend_mode_t;
  76:lvgl/src/core/../misc/lv_style.h **** 
  77:lvgl/src/core/../misc/lv_style.h **** /**
  78:lvgl/src/core/../misc/lv_style.h ****  * Some options to apply decorations on texts.
  79:lvgl/src/core/../misc/lv_style.h ****  * 'OR'ed values can be used.
  80:lvgl/src/core/../misc/lv_style.h ****  */
  81:lvgl/src/core/../misc/lv_style.h **** enum {
  82:lvgl/src/core/../misc/lv_style.h ****     LV_TEXT_DECOR_NONE          = 0x00,
  83:lvgl/src/core/../misc/lv_style.h ****     LV_TEXT_DECOR_UNDERLINE     = 0x01,
  84:lvgl/src/core/../misc/lv_style.h ****     LV_TEXT_DECOR_STRIKETHROUGH = 0x02,
  85:lvgl/src/core/../misc/lv_style.h **** };
  86:lvgl/src/core/../misc/lv_style.h **** 
  87:lvgl/src/core/../misc/lv_style.h **** typedef uint8_t lv_text_decor_t;
ARM GAS  C:\usertemp\ccIlwJXO.s 			page 3


  88:lvgl/src/core/../misc/lv_style.h **** 
  89:lvgl/src/core/../misc/lv_style.h **** /**
  90:lvgl/src/core/../misc/lv_style.h ****  * Selects on which sides border should be drawn
  91:lvgl/src/core/../misc/lv_style.h ****  * 'OR'ed values can be used.
  92:lvgl/src/core/../misc/lv_style.h ****  */
  93:lvgl/src/core/../misc/lv_style.h **** enum {
  94:lvgl/src/core/../misc/lv_style.h ****     LV_BORDER_SIDE_NONE     = 0x00,
  95:lvgl/src/core/../misc/lv_style.h ****     LV_BORDER_SIDE_BOTTOM   = 0x01,
  96:lvgl/src/core/../misc/lv_style.h ****     LV_BORDER_SIDE_TOP      = 0x02,
  97:lvgl/src/core/../misc/lv_style.h ****     LV_BORDER_SIDE_LEFT     = 0x04,
  98:lvgl/src/core/../misc/lv_style.h ****     LV_BORDER_SIDE_RIGHT    = 0x08,
  99:lvgl/src/core/../misc/lv_style.h ****     LV_BORDER_SIDE_FULL     = 0x0F,
 100:lvgl/src/core/../misc/lv_style.h ****     LV_BORDER_SIDE_INTERNAL = 0x10, /**< FOR matrix-like objects (e.g. Button matrix)*/
 101:lvgl/src/core/../misc/lv_style.h **** };
 102:lvgl/src/core/../misc/lv_style.h **** typedef uint8_t lv_border_side_t;
 103:lvgl/src/core/../misc/lv_style.h **** 
 104:lvgl/src/core/../misc/lv_style.h **** /**
 105:lvgl/src/core/../misc/lv_style.h ****  * The direction of the gradient.
 106:lvgl/src/core/../misc/lv_style.h ****  */
 107:lvgl/src/core/../misc/lv_style.h **** enum {
 108:lvgl/src/core/../misc/lv_style.h ****     LV_GRAD_DIR_NONE, /**< No gradient (the `grad_color` property is ignored)*/
 109:lvgl/src/core/../misc/lv_style.h ****     LV_GRAD_DIR_VER,  /**< Vertical (top to bottom) gradient*/
 110:lvgl/src/core/../misc/lv_style.h ****     LV_GRAD_DIR_HOR,  /**< Horizontal (left to right) gradient*/
 111:lvgl/src/core/../misc/lv_style.h **** };
 112:lvgl/src/core/../misc/lv_style.h **** 
 113:lvgl/src/core/../misc/lv_style.h **** typedef uint8_t lv_grad_dir_t;
 114:lvgl/src/core/../misc/lv_style.h **** 
 115:lvgl/src/core/../misc/lv_style.h **** /**
 116:lvgl/src/core/../misc/lv_style.h ****  * The dithering algorithm for the gradient
 117:lvgl/src/core/../misc/lv_style.h ****  * Depends on LV_DITHER_GRADIENT
 118:lvgl/src/core/../misc/lv_style.h ****  */
 119:lvgl/src/core/../misc/lv_style.h **** enum {
 120:lvgl/src/core/../misc/lv_style.h ****     LV_DITHER_NONE,     /**< No dithering, colors are just quantized to the output resolution*/
 121:lvgl/src/core/../misc/lv_style.h ****     LV_DITHER_ORDERED,  /**< Ordered dithering. Faster to compute and use less memory but lower qua
 122:lvgl/src/core/../misc/lv_style.h ****     LV_DITHER_ERR_DIFF, /**< Error diffusion mode. Slower to compute and use more memory but give h
 123:lvgl/src/core/../misc/lv_style.h **** };
 124:lvgl/src/core/../misc/lv_style.h **** 
 125:lvgl/src/core/../misc/lv_style.h **** typedef uint8_t lv_dither_mode_t;
 126:lvgl/src/core/../misc/lv_style.h **** 
 127:lvgl/src/core/../misc/lv_style.h **** /** A gradient stop definition.
 128:lvgl/src/core/../misc/lv_style.h ****  *  This matches a color and a position in a virtual 0-255 scale.
 129:lvgl/src/core/../misc/lv_style.h ****  */
 130:lvgl/src/core/../misc/lv_style.h **** typedef struct {
 131:lvgl/src/core/../misc/lv_style.h ****     lv_color_t color;   /**< The stop color */
 132:lvgl/src/core/../misc/lv_style.h ****     uint8_t    frac;    /**< The stop position in 1/255 unit */
 133:lvgl/src/core/../misc/lv_style.h **** } lv_gradient_stop_t;
 134:lvgl/src/core/../misc/lv_style.h **** 
 135:lvgl/src/core/../misc/lv_style.h **** /** A descriptor of a gradient. */
 136:lvgl/src/core/../misc/lv_style.h **** typedef struct {
 137:lvgl/src/core/../misc/lv_style.h ****     lv_gradient_stop_t   stops[LV_GRADIENT_MAX_STOPS]; /**< A gradient stop array */
 138:lvgl/src/core/../misc/lv_style.h ****     uint8_t              stops_count;                  /**< The number of used stops in the array *
 139:lvgl/src/core/../misc/lv_style.h ****     lv_grad_dir_t        dir : 3;                      /**< The gradient direction.
 140:lvgl/src/core/../misc/lv_style.h ****                                                         * Any of LV_GRAD_DIR_HOR, LV_GRAD_DIR_VER, 
 141:lvgl/src/core/../misc/lv_style.h ****     lv_dither_mode_t     dither : 3;                   /**< Whether to dither the gradient or not.
 142:lvgl/src/core/../misc/lv_style.h ****                                                         * Any of LV_DITHER_NONE, LV_DITHER_ORDERED,
 143:lvgl/src/core/../misc/lv_style.h **** } lv_grad_dsc_t;
 144:lvgl/src/core/../misc/lv_style.h **** 
ARM GAS  C:\usertemp\ccIlwJXO.s 			page 4


 145:lvgl/src/core/../misc/lv_style.h **** /**
 146:lvgl/src/core/../misc/lv_style.h ****  * A common type to handle all the property types in the same way.
 147:lvgl/src/core/../misc/lv_style.h ****  */
 148:lvgl/src/core/../misc/lv_style.h **** typedef union {
 149:lvgl/src/core/../misc/lv_style.h ****     int32_t num;         /**< Number integer number (opacity, enums, booleans or "normal" numbers)*
 150:lvgl/src/core/../misc/lv_style.h ****     const void * ptr;    /**< Constant pointers  (font, cone text, etc)*/
 151:lvgl/src/core/../misc/lv_style.h ****     lv_color_t color;    /**< Colors*/
 152:lvgl/src/core/../misc/lv_style.h **** } lv_style_value_t;
 153:lvgl/src/core/../misc/lv_style.h **** 
 154:lvgl/src/core/../misc/lv_style.h **** /**
 155:lvgl/src/core/../misc/lv_style.h ****  * Enumeration of all built in style properties
 156:lvgl/src/core/../misc/lv_style.h ****  */
 157:lvgl/src/core/../misc/lv_style.h **** typedef enum {
 158:lvgl/src/core/../misc/lv_style.h ****     LV_STYLE_PROP_INV                = 0,
 159:lvgl/src/core/../misc/lv_style.h **** 
 160:lvgl/src/core/../misc/lv_style.h ****     /*Group 0*/
 161:lvgl/src/core/../misc/lv_style.h ****     LV_STYLE_WIDTH                   = 1 | LV_STYLE_PROP_LAYOUT_REFR,
 162:lvgl/src/core/../misc/lv_style.h ****     LV_STYLE_MIN_WIDTH               = 2 | LV_STYLE_PROP_LAYOUT_REFR,
 163:lvgl/src/core/../misc/lv_style.h ****     LV_STYLE_MAX_WIDTH               = 3 | LV_STYLE_PROP_LAYOUT_REFR,
 164:lvgl/src/core/../misc/lv_style.h ****     LV_STYLE_HEIGHT                  = 4 | LV_STYLE_PROP_LAYOUT_REFR,
 165:lvgl/src/core/../misc/lv_style.h ****     LV_STYLE_MIN_HEIGHT              = 5 | LV_STYLE_PROP_LAYOUT_REFR,
 166:lvgl/src/core/../misc/lv_style.h ****     LV_STYLE_MAX_HEIGHT              = 6 | LV_STYLE_PROP_LAYOUT_REFR,
 167:lvgl/src/core/../misc/lv_style.h ****     LV_STYLE_X                       = 7 | LV_STYLE_PROP_LAYOUT_REFR,
 168:lvgl/src/core/../misc/lv_style.h ****     LV_STYLE_Y                       = 8 | LV_STYLE_PROP_LAYOUT_REFR,
 169:lvgl/src/core/../misc/lv_style.h ****     LV_STYLE_ALIGN                   = 9 | LV_STYLE_PROP_LAYOUT_REFR,
 170:lvgl/src/core/../misc/lv_style.h ****     LV_STYLE_TRANSFORM_WIDTH         = 10 | LV_STYLE_PROP_EXT_DRAW,
 171:lvgl/src/core/../misc/lv_style.h ****     LV_STYLE_TRANSFORM_HEIGHT        = 11 | LV_STYLE_PROP_EXT_DRAW,
 172:lvgl/src/core/../misc/lv_style.h ****     LV_STYLE_TRANSLATE_X             = 12 | LV_STYLE_PROP_LAYOUT_REFR | LV_STYLE_PROP_PARENT_LAYOUT
 173:lvgl/src/core/../misc/lv_style.h ****     LV_STYLE_TRANSLATE_Y             = 13 | LV_STYLE_PROP_LAYOUT_REFR | LV_STYLE_PROP_PARENT_LAYOUT
 174:lvgl/src/core/../misc/lv_style.h ****     LV_STYLE_TRANSFORM_ZOOM          = 14 | LV_STYLE_PROP_EXT_DRAW | LV_STYLE_PROP_LAYOUT_REFR | LV
 175:lvgl/src/core/../misc/lv_style.h ****     LV_STYLE_TRANSFORM_ANGLE         = 15 | LV_STYLE_PROP_EXT_DRAW | LV_STYLE_PROP_LAYOUT_REFR | LV
 176:lvgl/src/core/../misc/lv_style.h **** 
 177:lvgl/src/core/../misc/lv_style.h ****     /*Group 1*/
 178:lvgl/src/core/../misc/lv_style.h ****     LV_STYLE_PAD_TOP                 = 16 | LV_STYLE_PROP_EXT_DRAW | LV_STYLE_PROP_LAYOUT_REFR,
 179:lvgl/src/core/../misc/lv_style.h ****     LV_STYLE_PAD_BOTTOM              = 17 | LV_STYLE_PROP_EXT_DRAW | LV_STYLE_PROP_LAYOUT_REFR,
 180:lvgl/src/core/../misc/lv_style.h ****     LV_STYLE_PAD_LEFT                = 18 | LV_STYLE_PROP_EXT_DRAW | LV_STYLE_PROP_LAYOUT_REFR,
 181:lvgl/src/core/../misc/lv_style.h ****     LV_STYLE_PAD_RIGHT               = 19 | LV_STYLE_PROP_EXT_DRAW | LV_STYLE_PROP_LAYOUT_REFR,
 182:lvgl/src/core/../misc/lv_style.h ****     LV_STYLE_PAD_ROW                 = 20 | LV_STYLE_PROP_EXT_DRAW | LV_STYLE_PROP_LAYOUT_REFR,
 183:lvgl/src/core/../misc/lv_style.h ****     LV_STYLE_PAD_COLUMN              = 21 | LV_STYLE_PROP_EXT_DRAW | LV_STYLE_PROP_LAYOUT_REFR,
 184:lvgl/src/core/../misc/lv_style.h **** 
 185:lvgl/src/core/../misc/lv_style.h ****     /*Group 2*/
 186:lvgl/src/core/../misc/lv_style.h ****     LV_STYLE_BG_COLOR                = 32,
 187:lvgl/src/core/../misc/lv_style.h ****     LV_STYLE_BG_COLOR_FILTERED       = 32 | LV_STYLE_PROP_FILTER,
 188:lvgl/src/core/../misc/lv_style.h ****     LV_STYLE_BG_OPA                  = 33,
 189:lvgl/src/core/../misc/lv_style.h ****     LV_STYLE_BG_GRAD_COLOR           = 34,
 190:lvgl/src/core/../misc/lv_style.h ****     LV_STYLE_BG_GRAD_COLOR_FILTERED  = 34 | LV_STYLE_PROP_FILTER,
 191:lvgl/src/core/../misc/lv_style.h ****     LV_STYLE_BG_GRAD_DIR             = 35,
 192:lvgl/src/core/../misc/lv_style.h ****     LV_STYLE_BG_MAIN_STOP            = 36,
 193:lvgl/src/core/../misc/lv_style.h ****     LV_STYLE_BG_GRAD_STOP            = 37,
 194:lvgl/src/core/../misc/lv_style.h ****     LV_STYLE_BG_GRAD                 = 38,
 195:lvgl/src/core/../misc/lv_style.h ****     LV_STYLE_BG_DITHER_MODE          = 39,
 196:lvgl/src/core/../misc/lv_style.h **** 
 197:lvgl/src/core/../misc/lv_style.h **** 
 198:lvgl/src/core/../misc/lv_style.h ****     LV_STYLE_BG_IMG_SRC              = 40 | LV_STYLE_PROP_EXT_DRAW,
 199:lvgl/src/core/../misc/lv_style.h ****     LV_STYLE_BG_IMG_OPA              = 41,
 200:lvgl/src/core/../misc/lv_style.h ****     LV_STYLE_BG_IMG_RECOLOR          = 42,
 201:lvgl/src/core/../misc/lv_style.h ****     LV_STYLE_BG_IMG_RECOLOR_FILTERED = 42 | LV_STYLE_PROP_FILTER,
ARM GAS  C:\usertemp\ccIlwJXO.s 			page 5


 202:lvgl/src/core/../misc/lv_style.h ****     LV_STYLE_BG_IMG_RECOLOR_OPA      = 43,
 203:lvgl/src/core/../misc/lv_style.h ****     LV_STYLE_BG_IMG_TILED            = 44,
 204:lvgl/src/core/../misc/lv_style.h **** 
 205:lvgl/src/core/../misc/lv_style.h ****     /*Group 3*/
 206:lvgl/src/core/../misc/lv_style.h ****     LV_STYLE_BORDER_COLOR            = 48,
 207:lvgl/src/core/../misc/lv_style.h ****     LV_STYLE_BORDER_COLOR_FILTERED   = 48 | LV_STYLE_PROP_FILTER,
 208:lvgl/src/core/../misc/lv_style.h ****     LV_STYLE_BORDER_OPA              = 49,
 209:lvgl/src/core/../misc/lv_style.h ****     LV_STYLE_BORDER_WIDTH            = 50 | LV_STYLE_PROP_LAYOUT_REFR,
 210:lvgl/src/core/../misc/lv_style.h ****     LV_STYLE_BORDER_SIDE             = 51,
 211:lvgl/src/core/../misc/lv_style.h ****     LV_STYLE_BORDER_POST             = 52,
 212:lvgl/src/core/../misc/lv_style.h **** 
 213:lvgl/src/core/../misc/lv_style.h ****     LV_STYLE_OUTLINE_WIDTH           = 58 | LV_STYLE_PROP_EXT_DRAW,
 214:lvgl/src/core/../misc/lv_style.h ****     LV_STYLE_OUTLINE_COLOR           = 59,
 215:lvgl/src/core/../misc/lv_style.h ****     LV_STYLE_OUTLINE_COLOR_FILTERED  = 59 | LV_STYLE_PROP_FILTER,
 216:lvgl/src/core/../misc/lv_style.h ****     LV_STYLE_OUTLINE_OPA             = 60 | LV_STYLE_PROP_EXT_DRAW,
 217:lvgl/src/core/../misc/lv_style.h ****     LV_STYLE_OUTLINE_PAD             = 61 | LV_STYLE_PROP_EXT_DRAW,
 218:lvgl/src/core/../misc/lv_style.h **** 
 219:lvgl/src/core/../misc/lv_style.h ****     /*Group 4*/
 220:lvgl/src/core/../misc/lv_style.h ****     LV_STYLE_SHADOW_WIDTH            = 64 | LV_STYLE_PROP_EXT_DRAW,
 221:lvgl/src/core/../misc/lv_style.h ****     LV_STYLE_SHADOW_OFS_X            = 65 | LV_STYLE_PROP_EXT_DRAW,
 222:lvgl/src/core/../misc/lv_style.h ****     LV_STYLE_SHADOW_OFS_Y            = 66 | LV_STYLE_PROP_EXT_DRAW,
 223:lvgl/src/core/../misc/lv_style.h ****     LV_STYLE_SHADOW_SPREAD           = 67 | LV_STYLE_PROP_EXT_DRAW,
 224:lvgl/src/core/../misc/lv_style.h ****     LV_STYLE_SHADOW_COLOR            = 68,
 225:lvgl/src/core/../misc/lv_style.h ****     LV_STYLE_SHADOW_COLOR_FILTERED   = 68 | LV_STYLE_PROP_FILTER,
 226:lvgl/src/core/../misc/lv_style.h ****     LV_STYLE_SHADOW_OPA              = 69 | LV_STYLE_PROP_EXT_DRAW,
 227:lvgl/src/core/../misc/lv_style.h **** 
 228:lvgl/src/core/../misc/lv_style.h ****     LV_STYLE_IMG_OPA                 = 70,
 229:lvgl/src/core/../misc/lv_style.h ****     LV_STYLE_IMG_RECOLOR             = 71,
 230:lvgl/src/core/../misc/lv_style.h ****     LV_STYLE_IMG_RECOLOR_FILTERED    = 71 | LV_STYLE_PROP_FILTER,
 231:lvgl/src/core/../misc/lv_style.h ****     LV_STYLE_IMG_RECOLOR_OPA         = 72,
 232:lvgl/src/core/../misc/lv_style.h **** 
 233:lvgl/src/core/../misc/lv_style.h ****     LV_STYLE_LINE_WIDTH              = 73 | LV_STYLE_PROP_EXT_DRAW,
 234:lvgl/src/core/../misc/lv_style.h ****     LV_STYLE_LINE_DASH_WIDTH         = 74,
 235:lvgl/src/core/../misc/lv_style.h ****     LV_STYLE_LINE_DASH_GAP           = 75,
 236:lvgl/src/core/../misc/lv_style.h ****     LV_STYLE_LINE_ROUNDED            = 76,
 237:lvgl/src/core/../misc/lv_style.h ****     LV_STYLE_LINE_COLOR              = 77,
 238:lvgl/src/core/../misc/lv_style.h ****     LV_STYLE_LINE_COLOR_FILTERED     = 77 | LV_STYLE_PROP_FILTER,
 239:lvgl/src/core/../misc/lv_style.h ****     LV_STYLE_LINE_OPA                = 78,
 240:lvgl/src/core/../misc/lv_style.h **** 
 241:lvgl/src/core/../misc/lv_style.h ****     /*Group 5*/
 242:lvgl/src/core/../misc/lv_style.h ****     LV_STYLE_ARC_WIDTH               = 80 | LV_STYLE_PROP_EXT_DRAW,
 243:lvgl/src/core/../misc/lv_style.h ****     LV_STYLE_ARC_ROUNDED             = 81,
 244:lvgl/src/core/../misc/lv_style.h ****     LV_STYLE_ARC_COLOR               = 82,
 245:lvgl/src/core/../misc/lv_style.h ****     LV_STYLE_ARC_COLOR_FILTERED      = 82 | LV_STYLE_PROP_FILTER,
 246:lvgl/src/core/../misc/lv_style.h ****     LV_STYLE_ARC_OPA                 = 83,
 247:lvgl/src/core/../misc/lv_style.h ****     LV_STYLE_ARC_IMG_SRC             = 84,
 248:lvgl/src/core/../misc/lv_style.h **** 
 249:lvgl/src/core/../misc/lv_style.h ****     LV_STYLE_TEXT_COLOR              = 87 | LV_STYLE_PROP_INHERIT,
 250:lvgl/src/core/../misc/lv_style.h ****     LV_STYLE_TEXT_COLOR_FILTERED     = 87 | LV_STYLE_PROP_INHERIT | LV_STYLE_PROP_FILTER,
 251:lvgl/src/core/../misc/lv_style.h ****     LV_STYLE_TEXT_OPA                = 88 | LV_STYLE_PROP_INHERIT,
 252:lvgl/src/core/../misc/lv_style.h ****     LV_STYLE_TEXT_FONT               = 89 | LV_STYLE_PROP_INHERIT | LV_STYLE_PROP_LAYOUT_REFR,
 253:lvgl/src/core/../misc/lv_style.h ****     LV_STYLE_TEXT_LETTER_SPACE       = 90 | LV_STYLE_PROP_INHERIT | LV_STYLE_PROP_LAYOUT_REFR,
 254:lvgl/src/core/../misc/lv_style.h ****     LV_STYLE_TEXT_LINE_SPACE         = 91 | LV_STYLE_PROP_INHERIT | LV_STYLE_PROP_LAYOUT_REFR,
 255:lvgl/src/core/../misc/lv_style.h ****     LV_STYLE_TEXT_DECOR              = 92 | LV_STYLE_PROP_INHERIT,
 256:lvgl/src/core/../misc/lv_style.h ****     LV_STYLE_TEXT_ALIGN              = 93 | LV_STYLE_PROP_INHERIT | LV_STYLE_PROP_LAYOUT_REFR,
 257:lvgl/src/core/../misc/lv_style.h **** 
 258:lvgl/src/core/../misc/lv_style.h ****     /*Group 6*/
ARM GAS  C:\usertemp\ccIlwJXO.s 			page 6


 259:lvgl/src/core/../misc/lv_style.h ****     LV_STYLE_RADIUS                  = 96,
 260:lvgl/src/core/../misc/lv_style.h ****     LV_STYLE_CLIP_CORNER             = 97,
 261:lvgl/src/core/../misc/lv_style.h ****     LV_STYLE_OPA                     = 98 | LV_STYLE_PROP_INHERIT,
 262:lvgl/src/core/../misc/lv_style.h ****     LV_STYLE_COLOR_FILTER_DSC        = 99,
 263:lvgl/src/core/../misc/lv_style.h ****     LV_STYLE_COLOR_FILTER_OPA        = 100,
 264:lvgl/src/core/../misc/lv_style.h ****     LV_STYLE_ANIM_TIME               = 101,
 265:lvgl/src/core/../misc/lv_style.h ****     LV_STYLE_ANIM_SPEED              = 102,
 266:lvgl/src/core/../misc/lv_style.h ****     LV_STYLE_TRANSITION              = 103,
 267:lvgl/src/core/../misc/lv_style.h ****     LV_STYLE_BLEND_MODE              = 104,
 268:lvgl/src/core/../misc/lv_style.h ****     LV_STYLE_LAYOUT                  = 105 | LV_STYLE_PROP_LAYOUT_REFR,
 269:lvgl/src/core/../misc/lv_style.h ****     LV_STYLE_BASE_DIR                = 106 | LV_STYLE_PROP_INHERIT | LV_STYLE_PROP_LAYOUT_REFR,
 270:lvgl/src/core/../misc/lv_style.h **** 
 271:lvgl/src/core/../misc/lv_style.h ****     _LV_STYLE_LAST_BUILT_IN_PROP     = 111,
 272:lvgl/src/core/../misc/lv_style.h **** 
 273:lvgl/src/core/../misc/lv_style.h ****     LV_STYLE_PROP_ANY                = 0xFFFF
 274:lvgl/src/core/../misc/lv_style.h **** } lv_style_prop_t;
 275:lvgl/src/core/../misc/lv_style.h **** 
 276:lvgl/src/core/../misc/lv_style.h **** /**
 277:lvgl/src/core/../misc/lv_style.h ****  * Descriptor for style transitions
 278:lvgl/src/core/../misc/lv_style.h ****  */
 279:lvgl/src/core/../misc/lv_style.h **** typedef struct {
 280:lvgl/src/core/../misc/lv_style.h ****     const lv_style_prop_t * props; /**< An array with the properties to animate.*/
 281:lvgl/src/core/../misc/lv_style.h **** #if LV_USE_USER_DATA
 282:lvgl/src/core/../misc/lv_style.h ****     void * user_data;              /**< A custom user data that will be passed to the animation's u
 283:lvgl/src/core/../misc/lv_style.h **** #endif
 284:lvgl/src/core/../misc/lv_style.h ****     lv_anim_path_cb_t path_xcb;     /**< A path for the animation.*/
 285:lvgl/src/core/../misc/lv_style.h ****     uint32_t time;                 /**< Duration of the transition in [ms]*/
 286:lvgl/src/core/../misc/lv_style.h ****     uint32_t delay;                /**< Delay before the transition in [ms]*/
 287:lvgl/src/core/../misc/lv_style.h **** } lv_style_transition_dsc_t;
 288:lvgl/src/core/../misc/lv_style.h **** 
 289:lvgl/src/core/../misc/lv_style.h **** /**
 290:lvgl/src/core/../misc/lv_style.h ****  * Descriptor of a constant style property.
 291:lvgl/src/core/../misc/lv_style.h ****  */
 292:lvgl/src/core/../misc/lv_style.h **** typedef struct {
 293:lvgl/src/core/../misc/lv_style.h ****     lv_style_prop_t prop;
 294:lvgl/src/core/../misc/lv_style.h ****     lv_style_value_t value;
 295:lvgl/src/core/../misc/lv_style.h **** } lv_style_const_prop_t;
 296:lvgl/src/core/../misc/lv_style.h **** 
 297:lvgl/src/core/../misc/lv_style.h **** /**
 298:lvgl/src/core/../misc/lv_style.h ****  * Descriptor of a style (a collection of properties and values).
 299:lvgl/src/core/../misc/lv_style.h ****  */
 300:lvgl/src/core/../misc/lv_style.h **** typedef struct {
 301:lvgl/src/core/../misc/lv_style.h **** 
 302:lvgl/src/core/../misc/lv_style.h **** #if LV_USE_ASSERT_STYLE
 303:lvgl/src/core/../misc/lv_style.h ****     uint32_t sentinel;
 304:lvgl/src/core/../misc/lv_style.h **** #endif
 305:lvgl/src/core/../misc/lv_style.h **** 
 306:lvgl/src/core/../misc/lv_style.h ****     /*If there is only one property store it directly.
 307:lvgl/src/core/../misc/lv_style.h ****      *For more properties allocate an array*/
 308:lvgl/src/core/../misc/lv_style.h ****     union {
 309:lvgl/src/core/../misc/lv_style.h ****         lv_style_value_t value1;
 310:lvgl/src/core/../misc/lv_style.h ****         uint8_t * values_and_props;
 311:lvgl/src/core/../misc/lv_style.h ****         const lv_style_const_prop_t * const_props;
 312:lvgl/src/core/../misc/lv_style.h ****     } v_p;
 313:lvgl/src/core/../misc/lv_style.h **** 
 314:lvgl/src/core/../misc/lv_style.h ****     uint16_t prop1 : 15;
 315:lvgl/src/core/../misc/lv_style.h ****     uint16_t is_const : 1;
ARM GAS  C:\usertemp\ccIlwJXO.s 			page 7


 316:lvgl/src/core/../misc/lv_style.h ****     uint8_t has_group;
 317:lvgl/src/core/../misc/lv_style.h ****     uint8_t prop_cnt;
 318:lvgl/src/core/../misc/lv_style.h **** } lv_style_t;
 319:lvgl/src/core/../misc/lv_style.h **** 
 320:lvgl/src/core/../misc/lv_style.h **** /**********************
 321:lvgl/src/core/../misc/lv_style.h ****  * GLOBAL PROTOTYPES
 322:lvgl/src/core/../misc/lv_style.h ****  **********************/
 323:lvgl/src/core/../misc/lv_style.h **** 
 324:lvgl/src/core/../misc/lv_style.h **** 
 325:lvgl/src/core/../misc/lv_style.h **** /**
 326:lvgl/src/core/../misc/lv_style.h ****  * Initialize a style
 327:lvgl/src/core/../misc/lv_style.h ****  * @param style pointer to a style to initialize
 328:lvgl/src/core/../misc/lv_style.h ****  * @note Do not call `lv_style_init` on styles that already have some properties
 329:lvgl/src/core/../misc/lv_style.h ****  *       because this function won't free the used memory, just sets a default state for the style.
 330:lvgl/src/core/../misc/lv_style.h ****  *       In other words be sure to initialize styles only once!
 331:lvgl/src/core/../misc/lv_style.h ****  */
 332:lvgl/src/core/../misc/lv_style.h **** void lv_style_init(lv_style_t * style);
 333:lvgl/src/core/../misc/lv_style.h **** 
 334:lvgl/src/core/../misc/lv_style.h **** /**
 335:lvgl/src/core/../misc/lv_style.h ****  * Clear all properties from a style and free all allocated memories.
 336:lvgl/src/core/../misc/lv_style.h ****  * @param style pointer to a style
 337:lvgl/src/core/../misc/lv_style.h ****  */
 338:lvgl/src/core/../misc/lv_style.h **** void lv_style_reset(lv_style_t * style);
 339:lvgl/src/core/../misc/lv_style.h **** 
 340:lvgl/src/core/../misc/lv_style.h **** /**
 341:lvgl/src/core/../misc/lv_style.h ****  * Register a new style property for custom usage
 342:lvgl/src/core/../misc/lv_style.h ****  * @return a new property ID.
 343:lvgl/src/core/../misc/lv_style.h ****  * @example
 344:lvgl/src/core/../misc/lv_style.h ****  * lv_style_prop_t MY_PROP;
 345:lvgl/src/core/../misc/lv_style.h ****  * static inline void lv_style_set_my_prop(lv_style_t * style, lv_color_t value) {
 346:lvgl/src/core/../misc/lv_style.h ****  * lv_style_value_t v = {.color = value}; lv_style_set_prop(style, MY_PROP, v); }
 347:lvgl/src/core/../misc/lv_style.h ****  *
 348:lvgl/src/core/../misc/lv_style.h ****  * ...
 349:lvgl/src/core/../misc/lv_style.h ****  * MY_PROP = lv_style_register_prop();
 350:lvgl/src/core/../misc/lv_style.h ****  * ...
 351:lvgl/src/core/../misc/lv_style.h ****  * lv_style_set_my_prop(&style1, lv_palette_main(LV_PALETTE_RED));
 352:lvgl/src/core/../misc/lv_style.h ****  */
 353:lvgl/src/core/../misc/lv_style.h **** lv_style_prop_t lv_style_register_prop(void);
 354:lvgl/src/core/../misc/lv_style.h **** 
 355:lvgl/src/core/../misc/lv_style.h **** /**
 356:lvgl/src/core/../misc/lv_style.h ****  * Remove a property from a style
 357:lvgl/src/core/../misc/lv_style.h ****  * @param style pointer to a style
 358:lvgl/src/core/../misc/lv_style.h ****  * @param prop  a style property ORed with a state.
 359:lvgl/src/core/../misc/lv_style.h ****  * @return true: the property was found and removed; false: the property wasn't found
 360:lvgl/src/core/../misc/lv_style.h ****  */
 361:lvgl/src/core/../misc/lv_style.h **** bool lv_style_remove_prop(lv_style_t * style, lv_style_prop_t prop);
 362:lvgl/src/core/../misc/lv_style.h **** 
 363:lvgl/src/core/../misc/lv_style.h **** /**
 364:lvgl/src/core/../misc/lv_style.h ****  * Set the value of property in a style.
 365:lvgl/src/core/../misc/lv_style.h ****  * This function shouldn't be used directly by the user.
 366:lvgl/src/core/../misc/lv_style.h ****  * Instead use `lv_style_set_<prop_name>()`. E.g. `lv_style_set_bg_color()`
 367:lvgl/src/core/../misc/lv_style.h ****  * @param style pointer to style
 368:lvgl/src/core/../misc/lv_style.h ****  * @param prop the ID of a property (e.g. `LV_STYLE_BG_COLOR`)
 369:lvgl/src/core/../misc/lv_style.h ****  * @param value `lv_style_value_t` variable in which a field is set according to the type of `prop`
 370:lvgl/src/core/../misc/lv_style.h ****  */
 371:lvgl/src/core/../misc/lv_style.h **** void lv_style_set_prop(lv_style_t * style, lv_style_prop_t prop, lv_style_value_t value);
 372:lvgl/src/core/../misc/lv_style.h **** 
ARM GAS  C:\usertemp\ccIlwJXO.s 			page 8


 373:lvgl/src/core/../misc/lv_style.h **** /**
 374:lvgl/src/core/../misc/lv_style.h ****  * Get the value of a property
 375:lvgl/src/core/../misc/lv_style.h ****  * @param style pointer to a style
 376:lvgl/src/core/../misc/lv_style.h ****  * @param prop  the ID of a property
 377:lvgl/src/core/../misc/lv_style.h ****  * @param value pointer to a `lv_style_value_t` variable to store the value
 378:lvgl/src/core/../misc/lv_style.h ****  * @return LV_RES_INV: the property wasn't found in the style (`value` is unchanged)
 379:lvgl/src/core/../misc/lv_style.h ****  *         LV_RES_OK: the property was fond, and `value` is set accordingly
 380:lvgl/src/core/../misc/lv_style.h ****  * @note For performance reasons there are no sanity check on `style`
 381:lvgl/src/core/../misc/lv_style.h ****  */
 382:lvgl/src/core/../misc/lv_style.h **** lv_res_t lv_style_get_prop(const lv_style_t * style, lv_style_prop_t prop, lv_style_value_t * value
 383:lvgl/src/core/../misc/lv_style.h **** 
 384:lvgl/src/core/../misc/lv_style.h **** 
 385:lvgl/src/core/../misc/lv_style.h **** /**
 386:lvgl/src/core/../misc/lv_style.h ****  * Get the value of a property
 387:lvgl/src/core/../misc/lv_style.h ****  * @param style pointer to a style
 388:lvgl/src/core/../misc/lv_style.h ****  * @param prop  the ID of a property
 389:lvgl/src/core/../misc/lv_style.h ****  * @param value pointer to a `lv_style_value_t` variable to store the value
 390:lvgl/src/core/../misc/lv_style.h ****  * @return LV_RES_INV: the property wasn't found in the style (`value` is unchanged)
 391:lvgl/src/core/../misc/lv_style.h ****  *         LV_RES_OK: the property was fond, and `value` is set accordingly
 392:lvgl/src/core/../misc/lv_style.h ****  * @note For performance reasons there are no sanity check on `style`
 393:lvgl/src/core/../misc/lv_style.h ****  * @note This function is the same as ::lv_style_get_prop but inlined. Use it only on performance c
 394:lvgl/src/core/../misc/lv_style.h ****  */
 395:lvgl/src/core/../misc/lv_style.h **** static inline lv_res_t lv_style_get_prop_inlined(const lv_style_t * style, lv_style_prop_t prop,
 396:lvgl/src/core/../misc/lv_style.h ****                                                  lv_style_value_t * value)
 397:lvgl/src/core/../misc/lv_style.h **** {
  29              		.loc 2 397 1 view -0
  30              		.cfi_startproc
  31              		@ args = 0, pretend = 0, frame = 0
  32              		@ frame_needed = 0, uses_anonymous_args = 0
  33              		.loc 2 397 1 is_stmt 0 view .LVU1
  34 0000 0346     		mov	r3, r0
 398:lvgl/src/core/../misc/lv_style.h ****     if(style->is_const) {
  35              		.loc 2 398 5 is_stmt 1 view .LVU2
  36              		.loc 2 398 7 is_stmt 0 view .LVU3
  37 0002 90F90500 		ldrsb	r0, [r0, #5]
  38              	.LVL1:
  39              		.loc 2 398 7 view .LVU4
  40 0006 0028     		cmp	r0, #0
  41 0008 12DB     		blt	.L16
 399:lvgl/src/core/../misc/lv_style.h ****         const lv_style_const_prop_t * const_prop;
 400:lvgl/src/core/../misc/lv_style.h ****         for(const_prop = style->v_p.const_props; const_prop->prop != LV_STYLE_PROP_INV; const_prop+
 401:lvgl/src/core/../misc/lv_style.h ****             if(const_prop->prop == prop) {
 402:lvgl/src/core/../misc/lv_style.h ****                 *value = const_prop->value;
 403:lvgl/src/core/../misc/lv_style.h ****                 return LV_RES_OK;
 404:lvgl/src/core/../misc/lv_style.h ****             }
 405:lvgl/src/core/../misc/lv_style.h ****         }
 406:lvgl/src/core/../misc/lv_style.h ****         return LV_RES_INV;
 407:lvgl/src/core/../misc/lv_style.h ****     }
 408:lvgl/src/core/../misc/lv_style.h **** 
 409:lvgl/src/core/../misc/lv_style.h ****     if(style->prop_cnt == 0) return LV_RES_INV;
  42              		.loc 2 409 5 is_stmt 1 view .LVU5
  43              		.loc 2 409 13 is_stmt 0 view .LVU6
  44 000a D879     		ldrb	r0, [r3, #7]	@ zero_extendqisi2
  45              		.loc 2 409 7 view .LVU7
  46 000c 70B3     		cbz	r0, .L13
 410:lvgl/src/core/../misc/lv_style.h **** 
 411:lvgl/src/core/../misc/lv_style.h ****     if(style->prop_cnt > 1) {
ARM GAS  C:\usertemp\ccIlwJXO.s 			page 9


  47              		.loc 2 411 5 is_stmt 1 view .LVU8
  48              		.loc 2 411 7 is_stmt 0 view .LVU9
  49 000e 0128     		cmp	r0, #1
  50 0010 21D9     		bls	.L7
 397:lvgl/src/core/../misc/lv_style.h ****     if(style->is_const) {
  51              		.loc 2 397 1 view .LVU10
  52 0012 10B5     		push	{r4, lr}
  53              	.LCFI0:
  54              		.cfi_def_cfa_offset 8
  55              		.cfi_offset 4, -8
  56              		.cfi_offset 14, -4
  57              	.LBB99:
 412:lvgl/src/core/../misc/lv_style.h ****         uint8_t * tmp = style->v_p.values_and_props + style->prop_cnt * sizeof(lv_style_value_t);
  58              		.loc 2 412 9 is_stmt 1 view .LVU11
  59              		.loc 2 412 35 is_stmt 0 view .LVU12
  60 0014 1C68     		ldr	r4, [r3]
  61              		.loc 2 412 60 view .LVU13
  62 0016 8646     		mov	lr, r0
  63              		.loc 2 412 71 view .LVU14
  64 0018 8000     		lsls	r0, r0, #2
  65              	.LVL2:
 413:lvgl/src/core/../misc/lv_style.h ****         uint16_t * props = (uint16_t *)tmp;
  66              		.loc 2 413 9 is_stmt 1 view .LVU15
 414:lvgl/src/core/../misc/lv_style.h ****         uint32_t i;
  67              		.loc 2 414 9 view .LVU16
 415:lvgl/src/core/../misc/lv_style.h ****         for(i = 0; i < style->prop_cnt; i++) {
  68              		.loc 2 415 9 view .LVU17
  69              		.loc 2 415 15 is_stmt 0 view .LVU18
  70 001a 0023     		movs	r3, #0
  71              	.LVL3:
  72              	.L8:
  73              		.loc 2 415 22 is_stmt 1 discriminator 1 view .LVU19
  74 001c 9E45     		cmp	lr, r3
  75 001e 18D9     		bls	.L17
 416:lvgl/src/core/../misc/lv_style.h ****             if(props[i] == prop) {
  76              		.loc 2 416 13 view .LVU20
  77              		.loc 2 416 21 is_stmt 0 view .LVU21
  78 0020 04EB000C 		add	ip, r4, r0
  79 0024 3CF813C0 		ldrh	ip, [ip, r3, lsl #1]
  80              		.loc 2 416 15 view .LVU22
  81 0028 8C45     		cmp	ip, r1
  82 002a 0DD0     		beq	.L18
 415:lvgl/src/core/../misc/lv_style.h ****         for(i = 0; i < style->prop_cnt; i++) {
  83              		.loc 2 415 42 is_stmt 1 discriminator 2 view .LVU23
  84 002c 0133     		adds	r3, r3, #1
  85              	.LVL4:
 415:lvgl/src/core/../misc/lv_style.h ****         for(i = 0; i < style->prop_cnt; i++) {
  86              		.loc 2 415 42 is_stmt 0 discriminator 2 view .LVU24
  87 002e F5E7     		b	.L8
  88              	.LVL5:
  89              	.L16:
  90              	.LCFI1:
  91              		.cfi_def_cfa_offset 0
  92              		.cfi_restore 4
  93              		.cfi_restore 14
 415:lvgl/src/core/../misc/lv_style.h ****         for(i = 0; i < style->prop_cnt; i++) {
  94              		.loc 2 415 42 discriminator 2 view .LVU25
ARM GAS  C:\usertemp\ccIlwJXO.s 			page 10


  95              	.LBE99:
  96              	.LBB101:
 399:lvgl/src/core/../misc/lv_style.h ****         for(const_prop = style->v_p.const_props; const_prop->prop != LV_STYLE_PROP_INV; const_prop+
  97              		.loc 2 399 9 is_stmt 1 view .LVU26
 400:lvgl/src/core/../misc/lv_style.h ****             if(const_prop->prop == prop) {
  98              		.loc 2 400 9 view .LVU27
 400:lvgl/src/core/../misc/lv_style.h ****             if(const_prop->prop == prop) {
  99              		.loc 2 400 24 is_stmt 0 view .LVU28
 100 0030 1B68     		ldr	r3, [r3]
 101              	.LVL6:
 102              	.L3:
 400:lvgl/src/core/../misc/lv_style.h ****             if(const_prop->prop == prop) {
 103              		.loc 2 400 67 is_stmt 1 discriminator 1 view .LVU29
 400:lvgl/src/core/../misc/lv_style.h ****             if(const_prop->prop == prop) {
 104              		.loc 2 400 60 is_stmt 0 discriminator 1 view .LVU30
 105 0032 1888     		ldrh	r0, [r3]
 400:lvgl/src/core/../misc/lv_style.h ****             if(const_prop->prop == prop) {
 106              		.loc 2 400 67 discriminator 1 view .LVU31
 107 0034 38B1     		cbz	r0, .L19
 401:lvgl/src/core/../misc/lv_style.h ****                 *value = const_prop->value;
 108              		.loc 2 401 13 is_stmt 1 view .LVU32
 401:lvgl/src/core/../misc/lv_style.h ****                 *value = const_prop->value;
 109              		.loc 2 401 15 is_stmt 0 view .LVU33
 110 0036 8842     		cmp	r0, r1
 111 0038 01D0     		beq	.L20
 400:lvgl/src/core/../misc/lv_style.h ****             if(const_prop->prop == prop) {
 112              		.loc 2 400 99 is_stmt 1 discriminator 2 view .LVU34
 113 003a 0833     		adds	r3, r3, #8
 114              	.LVL7:
 400:lvgl/src/core/../misc/lv_style.h ****             if(const_prop->prop == prop) {
 115              		.loc 2 400 99 is_stmt 0 discriminator 2 view .LVU35
 116 003c F9E7     		b	.L3
 117              	.L20:
 402:lvgl/src/core/../misc/lv_style.h ****                 return LV_RES_OK;
 118              		.loc 2 402 17 is_stmt 1 view .LVU36
 402:lvgl/src/core/../misc/lv_style.h ****                 return LV_RES_OK;
 119              		.loc 2 402 24 is_stmt 0 view .LVU37
 120 003e 5B68     		ldr	r3, [r3, #4]
 121              	.LVL8:
 402:lvgl/src/core/../misc/lv_style.h ****                 return LV_RES_OK;
 122              		.loc 2 402 24 view .LVU38
 123 0040 1360     		str	r3, [r2]
 403:lvgl/src/core/../misc/lv_style.h ****             }
 124              		.loc 2 403 17 is_stmt 1 view .LVU39
 403:lvgl/src/core/../misc/lv_style.h ****             }
 125              		.loc 2 403 24 is_stmt 0 view .LVU40
 126 0042 0120     		movs	r0, #1
 127 0044 7047     		bx	lr
 128              	.LVL9:
 129              	.L19:
 403:lvgl/src/core/../misc/lv_style.h ****             }
 130              		.loc 2 403 24 view .LVU41
 131 0046 7047     		bx	lr
 132              	.LVL10:
 133              	.L18:
 134              	.LCFI2:
 135              		.cfi_def_cfa_offset 8
ARM GAS  C:\usertemp\ccIlwJXO.s 			page 11


 136              		.cfi_offset 4, -8
 137              		.cfi_offset 14, -4
 403:lvgl/src/core/../misc/lv_style.h ****             }
 138              		.loc 2 403 24 view .LVU42
 139              	.LBE101:
 140              	.LBB102:
 141              	.LBB100:
 417:lvgl/src/core/../misc/lv_style.h ****                 lv_style_value_t * values = (lv_style_value_t *)style->v_p.values_and_props;
 142              		.loc 2 417 17 is_stmt 1 view .LVU43
 418:lvgl/src/core/../misc/lv_style.h ****                 *value = values[i];
 143              		.loc 2 418 17 view .LVU44
 144              		.loc 2 418 24 is_stmt 0 view .LVU45
 145 0048 54F82330 		ldr	r3, [r4, r3, lsl #2]
 146              	.LVL11:
 147              		.loc 2 418 24 view .LVU46
 148 004c 1360     		str	r3, [r2]
 419:lvgl/src/core/../misc/lv_style.h ****                 return LV_RES_OK;
 149              		.loc 2 419 17 is_stmt 1 view .LVU47
 150              		.loc 2 419 24 is_stmt 0 view .LVU48
 151 004e 0120     		movs	r0, #1
 152              	.LVL12:
 153              		.loc 2 419 24 view .LVU49
 154 0050 00E0     		b	.L5
 155              	.LVL13:
 156              	.L17:
 157              		.loc 2 419 24 view .LVU50
 158              	.LBE100:
 159              	.LBE102:
 420:lvgl/src/core/../misc/lv_style.h ****             }
 421:lvgl/src/core/../misc/lv_style.h ****         }
 422:lvgl/src/core/../misc/lv_style.h ****     }
 423:lvgl/src/core/../misc/lv_style.h ****     else if(style->prop1 == prop) {
 424:lvgl/src/core/../misc/lv_style.h ****         *value = style->v_p.value1;
 425:lvgl/src/core/../misc/lv_style.h ****         return LV_RES_OK;
 426:lvgl/src/core/../misc/lv_style.h ****     }
 427:lvgl/src/core/../misc/lv_style.h ****     return LV_RES_INV;
 160              		.loc 2 427 12 view .LVU51
 161 0052 0020     		movs	r0, #0
 162              	.LVL14:
 163              	.L5:
 428:lvgl/src/core/../misc/lv_style.h **** }
 164              		.loc 2 428 1 view .LVU52
 165 0054 10BD     		pop	{r4, pc}
 166              	.LVL15:
 167              	.L7:
 168              	.LCFI3:
 169              		.cfi_def_cfa_offset 0
 170              		.cfi_restore 4
 171              		.cfi_restore 14
 423:lvgl/src/core/../misc/lv_style.h ****         *value = style->v_p.value1;
 172              		.loc 2 423 10 is_stmt 1 view .LVU53
 423:lvgl/src/core/../misc/lv_style.h ****         *value = style->v_p.value1;
 173              		.loc 2 423 18 is_stmt 0 view .LVU54
 174 0056 9888     		ldrh	r0, [r3, #4]
 175 0058 C0F30E00 		ubfx	r0, r0, #0, #15
 423:lvgl/src/core/../misc/lv_style.h ****         *value = style->v_p.value1;
 176              		.loc 2 423 12 view .LVU55
ARM GAS  C:\usertemp\ccIlwJXO.s 			page 12


 177 005c 8842     		cmp	r0, r1
 178 005e 01D0     		beq	.L21
 427:lvgl/src/core/../misc/lv_style.h **** }
 179              		.loc 2 427 12 view .LVU56
 180 0060 0020     		movs	r0, #0
 181 0062 7047     		bx	lr
 182              	.L21:
 424:lvgl/src/core/../misc/lv_style.h ****         return LV_RES_OK;
 183              		.loc 2 424 9 is_stmt 1 view .LVU57
 424:lvgl/src/core/../misc/lv_style.h ****         return LV_RES_OK;
 184              		.loc 2 424 16 is_stmt 0 view .LVU58
 185 0064 1B68     		ldr	r3, [r3]
 186              	.LVL16:
 424:lvgl/src/core/../misc/lv_style.h ****         return LV_RES_OK;
 187              		.loc 2 424 16 view .LVU59
 188 0066 1360     		str	r3, [r2]
 425:lvgl/src/core/../misc/lv_style.h ****     }
 189              		.loc 2 425 9 is_stmt 1 view .LVU60
 425:lvgl/src/core/../misc/lv_style.h ****     }
 190              		.loc 2 425 16 is_stmt 0 view .LVU61
 191 0068 0120     		movs	r0, #1
 192 006a 7047     		bx	lr
 193              	.LVL17:
 194              	.L13:
 195              		.loc 2 428 1 view .LVU62
 196 006c 7047     		bx	lr
 197              		.cfi_endproc
 198              	.LFE49:
 200              		.section	.text.obj_valid_child,"ax",%progbits
 201              		.align	1
 202              		.syntax unified
 203              		.thumb
 204              		.thumb_func
 206              	obj_valid_child:
 207              	.LVL18:
 208              	.LFB187:
   1:lvgl/src/core/lv_obj.c **** /**
   2:lvgl/src/core/lv_obj.c ****  * @file lv_obj.c
   3:lvgl/src/core/lv_obj.c ****  *
   4:lvgl/src/core/lv_obj.c ****  */
   5:lvgl/src/core/lv_obj.c **** 
   6:lvgl/src/core/lv_obj.c **** /*********************
   7:lvgl/src/core/lv_obj.c ****  *      INCLUDES
   8:lvgl/src/core/lv_obj.c ****  *********************/
   9:lvgl/src/core/lv_obj.c **** #include "lv_obj.h"
  10:lvgl/src/core/lv_obj.c **** #include "lv_indev.h"
  11:lvgl/src/core/lv_obj.c **** #include "lv_refr.h"
  12:lvgl/src/core/lv_obj.c **** #include "lv_group.h"
  13:lvgl/src/core/lv_obj.c **** #include "lv_disp.h"
  14:lvgl/src/core/lv_obj.c **** #include "lv_theme.h"
  15:lvgl/src/core/lv_obj.c **** #include "../misc/lv_assert.h"
  16:lvgl/src/core/lv_obj.c **** #include "../draw/lv_draw.h"
  17:lvgl/src/core/lv_obj.c **** #include "../misc/lv_anim.h"
  18:lvgl/src/core/lv_obj.c **** #include "../misc/lv_timer.h"
  19:lvgl/src/core/lv_obj.c **** #include "../misc/lv_async.h"
  20:lvgl/src/core/lv_obj.c **** #include "../misc/lv_fs.h"
  21:lvgl/src/core/lv_obj.c **** #include "../misc/lv_gc.h"
ARM GAS  C:\usertemp\ccIlwJXO.s 			page 13


  22:lvgl/src/core/lv_obj.c **** #include "../misc/lv_math.h"
  23:lvgl/src/core/lv_obj.c **** #include "../misc/lv_log.h"
  24:lvgl/src/core/lv_obj.c **** #include "../hal/lv_hal.h"
  25:lvgl/src/core/lv_obj.c **** #include "../extra/lv_extra.h"
  26:lvgl/src/core/lv_obj.c **** #include <stdint.h>
  27:lvgl/src/core/lv_obj.c **** #include <string.h>
  28:lvgl/src/core/lv_obj.c **** 
  29:lvgl/src/core/lv_obj.c **** #if LV_USE_GPU_STM32_DMA2D
  30:lvgl/src/core/lv_obj.c ****     #include "../draw/stm32_dma2d/lv_gpu_stm32_dma2d.h"
  31:lvgl/src/core/lv_obj.c **** #endif
  32:lvgl/src/core/lv_obj.c **** 
  33:lvgl/src/core/lv_obj.c **** #if LV_USE_GPU_NXP_PXP && LV_USE_GPU_NXP_PXP_AUTO_INIT
  34:lvgl/src/core/lv_obj.c ****     #include "../draw/nxp/pxp/lv_gpu_nxp_pxp.h"
  35:lvgl/src/core/lv_obj.c **** #endif
  36:lvgl/src/core/lv_obj.c **** 
  37:lvgl/src/core/lv_obj.c **** /*********************
  38:lvgl/src/core/lv_obj.c ****  *      DEFINES
  39:lvgl/src/core/lv_obj.c ****  *********************/
  40:lvgl/src/core/lv_obj.c **** #define MY_CLASS &lv_obj_class
  41:lvgl/src/core/lv_obj.c **** #define LV_OBJ_DEF_WIDTH    (LV_DPX(100))
  42:lvgl/src/core/lv_obj.c **** #define LV_OBJ_DEF_HEIGHT   (LV_DPX(50))
  43:lvgl/src/core/lv_obj.c **** #define GRID_DEBUG          0   /*Draw rectangles on grid cells*/
  44:lvgl/src/core/lv_obj.c **** #define STYLE_TRANSITION_MAX 32
  45:lvgl/src/core/lv_obj.c **** 
  46:lvgl/src/core/lv_obj.c **** /**********************
  47:lvgl/src/core/lv_obj.c ****  *      TYPEDEFS
  48:lvgl/src/core/lv_obj.c ****  **********************/
  49:lvgl/src/core/lv_obj.c **** 
  50:lvgl/src/core/lv_obj.c **** /**********************
  51:lvgl/src/core/lv_obj.c ****  *  STATIC PROTOTYPES
  52:lvgl/src/core/lv_obj.c ****  **********************/
  53:lvgl/src/core/lv_obj.c **** static void lv_obj_constructor(const lv_obj_class_t * class_p, lv_obj_t * obj);
  54:lvgl/src/core/lv_obj.c **** static void lv_obj_destructor(const lv_obj_class_t * class_p, lv_obj_t * obj);
  55:lvgl/src/core/lv_obj.c **** static void lv_obj_draw(lv_event_t * e);
  56:lvgl/src/core/lv_obj.c **** static void lv_obj_event(const lv_obj_class_t * class_p, lv_event_t * e);
  57:lvgl/src/core/lv_obj.c **** static void draw_scrollbar(lv_obj_t * obj, lv_draw_ctx_t * draw_ctx);
  58:lvgl/src/core/lv_obj.c **** static lv_res_t scrollbar_init_draw_dsc(lv_obj_t * obj, lv_draw_rect_dsc_t * dsc);
  59:lvgl/src/core/lv_obj.c **** static bool obj_valid_child(const lv_obj_t * parent, const lv_obj_t * obj_to_find);
  60:lvgl/src/core/lv_obj.c **** static void lv_obj_set_state(lv_obj_t * obj, lv_state_t new_state);
  61:lvgl/src/core/lv_obj.c **** 
  62:lvgl/src/core/lv_obj.c **** /**********************
  63:lvgl/src/core/lv_obj.c ****  *  STATIC VARIABLES
  64:lvgl/src/core/lv_obj.c ****  **********************/
  65:lvgl/src/core/lv_obj.c **** static bool lv_initialized = false;
  66:lvgl/src/core/lv_obj.c **** const lv_obj_class_t lv_obj_class = {
  67:lvgl/src/core/lv_obj.c ****     .constructor_cb = lv_obj_constructor,
  68:lvgl/src/core/lv_obj.c ****     .destructor_cb = lv_obj_destructor,
  69:lvgl/src/core/lv_obj.c ****     .event_cb = lv_obj_event,
  70:lvgl/src/core/lv_obj.c ****     .width_def = LV_DPI_DEF,
  71:lvgl/src/core/lv_obj.c ****     .height_def = LV_DPI_DEF,
  72:lvgl/src/core/lv_obj.c ****     .editable = LV_OBJ_CLASS_EDITABLE_FALSE,
  73:lvgl/src/core/lv_obj.c ****     .group_def = LV_OBJ_CLASS_GROUP_DEF_FALSE,
  74:lvgl/src/core/lv_obj.c ****     .instance_size = (sizeof(lv_obj_t)),
  75:lvgl/src/core/lv_obj.c ****     .base_class = NULL,
  76:lvgl/src/core/lv_obj.c **** };
  77:lvgl/src/core/lv_obj.c **** 
  78:lvgl/src/core/lv_obj.c **** /**********************
ARM GAS  C:\usertemp\ccIlwJXO.s 			page 14


  79:lvgl/src/core/lv_obj.c ****  *      MACROS
  80:lvgl/src/core/lv_obj.c ****  **********************/
  81:lvgl/src/core/lv_obj.c **** 
  82:lvgl/src/core/lv_obj.c **** /**********************
  83:lvgl/src/core/lv_obj.c ****  *   GLOBAL FUNCTIONS
  84:lvgl/src/core/lv_obj.c ****  **********************/
  85:lvgl/src/core/lv_obj.c **** 
  86:lvgl/src/core/lv_obj.c **** bool lv_is_initialized(void)
  87:lvgl/src/core/lv_obj.c **** {
  88:lvgl/src/core/lv_obj.c ****     return lv_initialized;
  89:lvgl/src/core/lv_obj.c **** }
  90:lvgl/src/core/lv_obj.c **** 
  91:lvgl/src/core/lv_obj.c **** void lv_init(void)
  92:lvgl/src/core/lv_obj.c **** {
  93:lvgl/src/core/lv_obj.c ****     /*Do nothing if already initialized*/
  94:lvgl/src/core/lv_obj.c ****     if(lv_initialized) {
  95:lvgl/src/core/lv_obj.c ****         LV_LOG_WARN("lv_init: already inited");
  96:lvgl/src/core/lv_obj.c ****         return;
  97:lvgl/src/core/lv_obj.c ****     }
  98:lvgl/src/core/lv_obj.c **** 
  99:lvgl/src/core/lv_obj.c ****     LV_LOG_INFO("begin");
 100:lvgl/src/core/lv_obj.c **** 
 101:lvgl/src/core/lv_obj.c ****     /*Initialize the misc modules*/
 102:lvgl/src/core/lv_obj.c ****     lv_mem_init();
 103:lvgl/src/core/lv_obj.c **** 
 104:lvgl/src/core/lv_obj.c ****     _lv_timer_core_init();
 105:lvgl/src/core/lv_obj.c **** 
 106:lvgl/src/core/lv_obj.c ****     _lv_fs_init();
 107:lvgl/src/core/lv_obj.c **** 
 108:lvgl/src/core/lv_obj.c ****     _lv_anim_core_init();
 109:lvgl/src/core/lv_obj.c **** 
 110:lvgl/src/core/lv_obj.c ****     _lv_group_init();
 111:lvgl/src/core/lv_obj.c **** 
 112:lvgl/src/core/lv_obj.c ****     lv_draw_init();
 113:lvgl/src/core/lv_obj.c **** 
 114:lvgl/src/core/lv_obj.c **** #if LV_USE_GPU_STM32_DMA2D
 115:lvgl/src/core/lv_obj.c ****     /*Initialize DMA2D GPU*/
 116:lvgl/src/core/lv_obj.c ****     lv_draw_stm32_dma2d_init();
 117:lvgl/src/core/lv_obj.c **** #endif
 118:lvgl/src/core/lv_obj.c **** 
 119:lvgl/src/core/lv_obj.c **** #if LV_USE_GPU_NXP_PXP && LV_USE_GPU_NXP_PXP_AUTO_INIT
 120:lvgl/src/core/lv_obj.c ****     PXP_COND_STOP(!lv_gpu_nxp_pxp_init(), "PXP init failed.");
 121:lvgl/src/core/lv_obj.c **** #endif
 122:lvgl/src/core/lv_obj.c **** 
 123:lvgl/src/core/lv_obj.c ****     _lv_obj_style_init();
 124:lvgl/src/core/lv_obj.c ****     _lv_ll_init(&LV_GC_ROOT(_lv_disp_ll), sizeof(lv_disp_t));
 125:lvgl/src/core/lv_obj.c ****     _lv_ll_init(&LV_GC_ROOT(_lv_indev_ll), sizeof(lv_indev_t));
 126:lvgl/src/core/lv_obj.c **** 
 127:lvgl/src/core/lv_obj.c ****     /*Initialize the screen refresh system*/
 128:lvgl/src/core/lv_obj.c ****     _lv_refr_init();
 129:lvgl/src/core/lv_obj.c **** 
 130:lvgl/src/core/lv_obj.c ****     _lv_img_decoder_init();
 131:lvgl/src/core/lv_obj.c **** #if LV_IMG_CACHE_DEF_SIZE
 132:lvgl/src/core/lv_obj.c ****     lv_img_cache_set_size(LV_IMG_CACHE_DEF_SIZE);
 133:lvgl/src/core/lv_obj.c **** #endif
 134:lvgl/src/core/lv_obj.c ****     /*Test if the IDE has UTF-8 encoding*/
 135:lvgl/src/core/lv_obj.c ****     char * txt = "";
ARM GAS  C:\usertemp\ccIlwJXO.s 			page 15


 136:lvgl/src/core/lv_obj.c **** 
 137:lvgl/src/core/lv_obj.c ****     uint8_t * txt_u8 = (uint8_t *)txt;
 138:lvgl/src/core/lv_obj.c ****     if(txt_u8[0] != 0xc3 || txt_u8[1] != 0x81 || txt_u8[2] != 0x00) {
 139:lvgl/src/core/lv_obj.c ****         LV_LOG_WARN("The strings have no UTF-8 encoding. Non-ASCII characters won't be displayed.")
 140:lvgl/src/core/lv_obj.c ****     }
 141:lvgl/src/core/lv_obj.c **** 
 142:lvgl/src/core/lv_obj.c ****     uint32_t endianess_test = 0x11223344;
 143:lvgl/src/core/lv_obj.c ****     uint8_t * endianess_test_p = (uint8_t *) &endianess_test;
 144:lvgl/src/core/lv_obj.c ****     bool big_endian = endianess_test_p[0] == 0x11 ? true : false;
 145:lvgl/src/core/lv_obj.c **** 
 146:lvgl/src/core/lv_obj.c ****     if(big_endian) {
 147:lvgl/src/core/lv_obj.c ****         LV_ASSERT_MSG(LV_BIG_ENDIAN_SYSTEM == 1,
 148:lvgl/src/core/lv_obj.c ****                       "It's a big endian system but LV_BIG_ENDIAN_SYSTEM is not enabled in lv_conf.
 149:lvgl/src/core/lv_obj.c ****     }
 150:lvgl/src/core/lv_obj.c ****     else {
 151:lvgl/src/core/lv_obj.c ****         LV_ASSERT_MSG(LV_BIG_ENDIAN_SYSTEM == 0,
 152:lvgl/src/core/lv_obj.c ****                       "It's a little endian system but LV_BIG_ENDIAN_SYSTEM is enabled in lv_conf.h
 153:lvgl/src/core/lv_obj.c ****     }
 154:lvgl/src/core/lv_obj.c **** 
 155:lvgl/src/core/lv_obj.c **** #if LV_USE_ASSERT_MEM_INTEGRITY
 156:lvgl/src/core/lv_obj.c ****     LV_LOG_WARN("Memory integrity checks are enabled via LV_USE_ASSERT_MEM_INTEGRITY which makes LV
 157:lvgl/src/core/lv_obj.c **** #endif
 158:lvgl/src/core/lv_obj.c **** 
 159:lvgl/src/core/lv_obj.c **** #if LV_USE_ASSERT_OBJ
 160:lvgl/src/core/lv_obj.c ****     LV_LOG_WARN("Object sanity checks are enabled via LV_USE_ASSERT_OBJ which makes LVGL much slowe
 161:lvgl/src/core/lv_obj.c **** #endif
 162:lvgl/src/core/lv_obj.c **** 
 163:lvgl/src/core/lv_obj.c **** #if LV_USE_ASSERT_STYLE
 164:lvgl/src/core/lv_obj.c ****     LV_LOG_WARN("Style sanity checks are enabled that uses more RAM");
 165:lvgl/src/core/lv_obj.c **** #endif
 166:lvgl/src/core/lv_obj.c **** 
 167:lvgl/src/core/lv_obj.c **** #if LV_LOG_LEVEL == LV_LOG_LEVEL_TRACE
 168:lvgl/src/core/lv_obj.c ****     LV_LOG_WARN("Log level is set to 'Trace' which makes LVGL much slower");
 169:lvgl/src/core/lv_obj.c **** #endif
 170:lvgl/src/core/lv_obj.c **** 
 171:lvgl/src/core/lv_obj.c ****     lv_extra_init();
 172:lvgl/src/core/lv_obj.c **** 
 173:lvgl/src/core/lv_obj.c ****     lv_initialized = true;
 174:lvgl/src/core/lv_obj.c **** 
 175:lvgl/src/core/lv_obj.c ****     LV_LOG_TRACE("finished");
 176:lvgl/src/core/lv_obj.c **** }
 177:lvgl/src/core/lv_obj.c **** 
 178:lvgl/src/core/lv_obj.c **** #if LV_ENABLE_GC || !LV_MEM_CUSTOM
 179:lvgl/src/core/lv_obj.c **** 
 180:lvgl/src/core/lv_obj.c **** void lv_deinit(void)
 181:lvgl/src/core/lv_obj.c **** {
 182:lvgl/src/core/lv_obj.c ****     _lv_gc_clear_roots();
 183:lvgl/src/core/lv_obj.c **** 
 184:lvgl/src/core/lv_obj.c ****     lv_disp_set_default(NULL);
 185:lvgl/src/core/lv_obj.c ****     lv_mem_deinit();
 186:lvgl/src/core/lv_obj.c ****     lv_initialized = false;
 187:lvgl/src/core/lv_obj.c **** 
 188:lvgl/src/core/lv_obj.c ****     LV_LOG_INFO("lv_deinit done");
 189:lvgl/src/core/lv_obj.c **** 
 190:lvgl/src/core/lv_obj.c **** #if LV_USE_LOG
 191:lvgl/src/core/lv_obj.c ****     lv_log_register_print_cb(NULL);
 192:lvgl/src/core/lv_obj.c **** #endif
ARM GAS  C:\usertemp\ccIlwJXO.s 			page 16


 193:lvgl/src/core/lv_obj.c **** }
 194:lvgl/src/core/lv_obj.c **** #endif
 195:lvgl/src/core/lv_obj.c **** 
 196:lvgl/src/core/lv_obj.c **** lv_obj_t * lv_obj_create(lv_obj_t * parent)
 197:lvgl/src/core/lv_obj.c **** {
 198:lvgl/src/core/lv_obj.c ****     LV_LOG_INFO("begin");
 199:lvgl/src/core/lv_obj.c ****     lv_obj_t * obj = lv_obj_class_create_obj(MY_CLASS, parent);
 200:lvgl/src/core/lv_obj.c ****     lv_obj_class_init_obj(obj);
 201:lvgl/src/core/lv_obj.c ****     return obj;
 202:lvgl/src/core/lv_obj.c **** }
 203:lvgl/src/core/lv_obj.c **** 
 204:lvgl/src/core/lv_obj.c **** /*=====================
 205:lvgl/src/core/lv_obj.c ****  * Setter functions
 206:lvgl/src/core/lv_obj.c ****  *====================*/
 207:lvgl/src/core/lv_obj.c **** 
 208:lvgl/src/core/lv_obj.c **** /*-----------------
 209:lvgl/src/core/lv_obj.c ****  * Attribute set
 210:lvgl/src/core/lv_obj.c ****  *----------------*/
 211:lvgl/src/core/lv_obj.c **** 
 212:lvgl/src/core/lv_obj.c **** void lv_obj_add_flag(lv_obj_t * obj, lv_obj_flag_t f)
 213:lvgl/src/core/lv_obj.c **** {
 214:lvgl/src/core/lv_obj.c ****     LV_ASSERT_OBJ(obj, MY_CLASS);
 215:lvgl/src/core/lv_obj.c **** 
 216:lvgl/src/core/lv_obj.c ****     bool was_on_layout = lv_obj_is_layout_positioned(obj);
 217:lvgl/src/core/lv_obj.c **** 
 218:lvgl/src/core/lv_obj.c ****     if(f & LV_OBJ_FLAG_HIDDEN) lv_obj_invalidate(obj);
 219:lvgl/src/core/lv_obj.c **** 
 220:lvgl/src/core/lv_obj.c ****     obj->flags |= f;
 221:lvgl/src/core/lv_obj.c **** 
 222:lvgl/src/core/lv_obj.c ****     if(f & LV_OBJ_FLAG_HIDDEN) {
 223:lvgl/src/core/lv_obj.c ****         lv_obj_invalidate(obj);
 224:lvgl/src/core/lv_obj.c ****     }
 225:lvgl/src/core/lv_obj.c **** 
 226:lvgl/src/core/lv_obj.c ****     if((was_on_layout != lv_obj_is_layout_positioned(obj)) || (f & (LV_OBJ_FLAG_LAYOUT_1 |  LV_OBJ_
 227:lvgl/src/core/lv_obj.c ****         lv_obj_mark_layout_as_dirty(lv_obj_get_parent(obj));
 228:lvgl/src/core/lv_obj.c ****         lv_obj_mark_layout_as_dirty(obj);
 229:lvgl/src/core/lv_obj.c ****     }
 230:lvgl/src/core/lv_obj.c **** 
 231:lvgl/src/core/lv_obj.c ****     if(f & LV_OBJ_FLAG_SCROLLABLE) {
 232:lvgl/src/core/lv_obj.c ****         lv_area_t hor_area, ver_area;
 233:lvgl/src/core/lv_obj.c ****         lv_obj_get_scrollbar_area(obj, &hor_area, &ver_area);
 234:lvgl/src/core/lv_obj.c ****         lv_obj_invalidate_area(obj, &hor_area);
 235:lvgl/src/core/lv_obj.c ****         lv_obj_invalidate_area(obj, &ver_area);
 236:lvgl/src/core/lv_obj.c ****     }
 237:lvgl/src/core/lv_obj.c **** }
 238:lvgl/src/core/lv_obj.c **** 
 239:lvgl/src/core/lv_obj.c **** void lv_obj_clear_flag(lv_obj_t * obj, lv_obj_flag_t f)
 240:lvgl/src/core/lv_obj.c **** {
 241:lvgl/src/core/lv_obj.c ****     LV_ASSERT_OBJ(obj, MY_CLASS);
 242:lvgl/src/core/lv_obj.c **** 
 243:lvgl/src/core/lv_obj.c ****     bool was_on_layout = lv_obj_is_layout_positioned(obj);
 244:lvgl/src/core/lv_obj.c ****     if(f & LV_OBJ_FLAG_SCROLLABLE) {
 245:lvgl/src/core/lv_obj.c ****         lv_area_t hor_area, ver_area;
 246:lvgl/src/core/lv_obj.c ****         lv_obj_get_scrollbar_area(obj, &hor_area, &ver_area);
 247:lvgl/src/core/lv_obj.c ****         lv_obj_invalidate_area(obj, &hor_area);
 248:lvgl/src/core/lv_obj.c ****         lv_obj_invalidate_area(obj, &ver_area);
 249:lvgl/src/core/lv_obj.c ****     }
ARM GAS  C:\usertemp\ccIlwJXO.s 			page 17


 250:lvgl/src/core/lv_obj.c **** 
 251:lvgl/src/core/lv_obj.c ****     obj->flags &= (~f);
 252:lvgl/src/core/lv_obj.c **** 
 253:lvgl/src/core/lv_obj.c ****     if(f & LV_OBJ_FLAG_HIDDEN) {
 254:lvgl/src/core/lv_obj.c ****         lv_obj_invalidate(obj);
 255:lvgl/src/core/lv_obj.c ****         if(lv_obj_is_layout_positioned(obj)) {
 256:lvgl/src/core/lv_obj.c ****             lv_obj_mark_layout_as_dirty(lv_obj_get_parent(obj));
 257:lvgl/src/core/lv_obj.c ****             lv_obj_mark_layout_as_dirty(obj);
 258:lvgl/src/core/lv_obj.c ****         }
 259:lvgl/src/core/lv_obj.c ****     }
 260:lvgl/src/core/lv_obj.c **** 
 261:lvgl/src/core/lv_obj.c ****     if((was_on_layout != lv_obj_is_layout_positioned(obj)) || (f & (LV_OBJ_FLAG_LAYOUT_1 |  LV_OBJ_
 262:lvgl/src/core/lv_obj.c ****         lv_obj_mark_layout_as_dirty(lv_obj_get_parent(obj));
 263:lvgl/src/core/lv_obj.c ****     }
 264:lvgl/src/core/lv_obj.c **** }
 265:lvgl/src/core/lv_obj.c **** 
 266:lvgl/src/core/lv_obj.c **** void lv_obj_add_state(lv_obj_t * obj, lv_state_t state)
 267:lvgl/src/core/lv_obj.c **** {
 268:lvgl/src/core/lv_obj.c ****     LV_ASSERT_OBJ(obj, MY_CLASS);
 269:lvgl/src/core/lv_obj.c **** 
 270:lvgl/src/core/lv_obj.c ****     lv_state_t new_state = obj->state | state;
 271:lvgl/src/core/lv_obj.c ****     if(obj->state != new_state) {
 272:lvgl/src/core/lv_obj.c ****         lv_obj_set_state(obj, new_state);
 273:lvgl/src/core/lv_obj.c ****     }
 274:lvgl/src/core/lv_obj.c **** }
 275:lvgl/src/core/lv_obj.c **** 
 276:lvgl/src/core/lv_obj.c **** void lv_obj_clear_state(lv_obj_t * obj, lv_state_t state)
 277:lvgl/src/core/lv_obj.c **** {
 278:lvgl/src/core/lv_obj.c ****     LV_ASSERT_OBJ(obj, MY_CLASS);
 279:lvgl/src/core/lv_obj.c **** 
 280:lvgl/src/core/lv_obj.c ****     lv_state_t new_state = obj->state & (~state);
 281:lvgl/src/core/lv_obj.c ****     if(obj->state != new_state) {
 282:lvgl/src/core/lv_obj.c ****         lv_obj_set_state(obj, new_state);
 283:lvgl/src/core/lv_obj.c ****     }
 284:lvgl/src/core/lv_obj.c **** }
 285:lvgl/src/core/lv_obj.c **** 
 286:lvgl/src/core/lv_obj.c **** /*=======================
 287:lvgl/src/core/lv_obj.c ****  * Getter functions
 288:lvgl/src/core/lv_obj.c ****  *======================*/
 289:lvgl/src/core/lv_obj.c **** 
 290:lvgl/src/core/lv_obj.c **** bool lv_obj_has_flag(const lv_obj_t * obj, lv_obj_flag_t f)
 291:lvgl/src/core/lv_obj.c **** {
 292:lvgl/src/core/lv_obj.c ****     LV_ASSERT_OBJ(obj, MY_CLASS);
 293:lvgl/src/core/lv_obj.c **** 
 294:lvgl/src/core/lv_obj.c ****     return (obj->flags & f)  == f ? true : false;
 295:lvgl/src/core/lv_obj.c **** }
 296:lvgl/src/core/lv_obj.c **** 
 297:lvgl/src/core/lv_obj.c **** bool lv_obj_has_flag_any(const lv_obj_t * obj, lv_obj_flag_t f)
 298:lvgl/src/core/lv_obj.c **** {
 299:lvgl/src/core/lv_obj.c ****     LV_ASSERT_OBJ(obj, MY_CLASS);
 300:lvgl/src/core/lv_obj.c **** 
 301:lvgl/src/core/lv_obj.c ****     return (obj->flags & f) ? true : false;
 302:lvgl/src/core/lv_obj.c **** }
 303:lvgl/src/core/lv_obj.c **** 
 304:lvgl/src/core/lv_obj.c **** lv_state_t lv_obj_get_state(const lv_obj_t * obj)
 305:lvgl/src/core/lv_obj.c **** {
 306:lvgl/src/core/lv_obj.c ****     LV_ASSERT_OBJ(obj, MY_CLASS);
ARM GAS  C:\usertemp\ccIlwJXO.s 			page 18


 307:lvgl/src/core/lv_obj.c **** 
 308:lvgl/src/core/lv_obj.c ****     return obj->state;
 309:lvgl/src/core/lv_obj.c **** }
 310:lvgl/src/core/lv_obj.c **** 
 311:lvgl/src/core/lv_obj.c **** bool lv_obj_has_state(const lv_obj_t * obj, lv_state_t state)
 312:lvgl/src/core/lv_obj.c **** {
 313:lvgl/src/core/lv_obj.c ****     LV_ASSERT_OBJ(obj, MY_CLASS);
 314:lvgl/src/core/lv_obj.c **** 
 315:lvgl/src/core/lv_obj.c ****     return obj->state & state ? true : false;
 316:lvgl/src/core/lv_obj.c **** }
 317:lvgl/src/core/lv_obj.c **** 
 318:lvgl/src/core/lv_obj.c **** void * lv_obj_get_group(const lv_obj_t * obj)
 319:lvgl/src/core/lv_obj.c **** {
 320:lvgl/src/core/lv_obj.c ****     LV_ASSERT_OBJ(obj, MY_CLASS);
 321:lvgl/src/core/lv_obj.c **** 
 322:lvgl/src/core/lv_obj.c ****     if(obj->spec_attr) return obj->spec_attr->group_p;
 323:lvgl/src/core/lv_obj.c ****     else return NULL;
 324:lvgl/src/core/lv_obj.c **** }
 325:lvgl/src/core/lv_obj.c **** 
 326:lvgl/src/core/lv_obj.c **** /*-------------------
 327:lvgl/src/core/lv_obj.c ****  * OTHER FUNCTIONS
 328:lvgl/src/core/lv_obj.c ****  *------------------*/
 329:lvgl/src/core/lv_obj.c **** 
 330:lvgl/src/core/lv_obj.c **** void lv_obj_allocate_spec_attr(lv_obj_t * obj)
 331:lvgl/src/core/lv_obj.c **** {
 332:lvgl/src/core/lv_obj.c ****     LV_ASSERT_OBJ(obj, MY_CLASS);
 333:lvgl/src/core/lv_obj.c **** 
 334:lvgl/src/core/lv_obj.c ****     if(obj->spec_attr == NULL) {
 335:lvgl/src/core/lv_obj.c ****         static uint32_t x = 0;
 336:lvgl/src/core/lv_obj.c ****         x++;
 337:lvgl/src/core/lv_obj.c ****         obj->spec_attr = lv_mem_alloc(sizeof(_lv_obj_spec_attr_t));
 338:lvgl/src/core/lv_obj.c ****         LV_ASSERT_MALLOC(obj->spec_attr);
 339:lvgl/src/core/lv_obj.c ****         if(obj->spec_attr == NULL) return;
 340:lvgl/src/core/lv_obj.c **** 
 341:lvgl/src/core/lv_obj.c ****         lv_memset_00(obj->spec_attr, sizeof(_lv_obj_spec_attr_t));
 342:lvgl/src/core/lv_obj.c **** 
 343:lvgl/src/core/lv_obj.c ****         obj->spec_attr->scroll_dir = LV_DIR_ALL;
 344:lvgl/src/core/lv_obj.c ****         obj->spec_attr->scrollbar_mode = LV_SCROLLBAR_MODE_AUTO;
 345:lvgl/src/core/lv_obj.c ****     }
 346:lvgl/src/core/lv_obj.c **** }
 347:lvgl/src/core/lv_obj.c **** 
 348:lvgl/src/core/lv_obj.c **** bool lv_obj_check_type(const lv_obj_t * obj, const lv_obj_class_t * class_p)
 349:lvgl/src/core/lv_obj.c **** {
 350:lvgl/src/core/lv_obj.c ****     if(obj == NULL) return false;
 351:lvgl/src/core/lv_obj.c ****     return obj->class_p == class_p ? true : false;
 352:lvgl/src/core/lv_obj.c **** }
 353:lvgl/src/core/lv_obj.c **** 
 354:lvgl/src/core/lv_obj.c **** bool lv_obj_has_class(const lv_obj_t * obj, const lv_obj_class_t * class_p)
 355:lvgl/src/core/lv_obj.c **** {
 356:lvgl/src/core/lv_obj.c ****     const lv_obj_class_t * obj_class = obj->class_p;
 357:lvgl/src/core/lv_obj.c ****     while(obj_class) {
 358:lvgl/src/core/lv_obj.c ****         if(obj_class == class_p) return true;
 359:lvgl/src/core/lv_obj.c ****         obj_class = obj_class->base_class;
 360:lvgl/src/core/lv_obj.c ****     }
 361:lvgl/src/core/lv_obj.c **** 
 362:lvgl/src/core/lv_obj.c ****     return false;
 363:lvgl/src/core/lv_obj.c **** }
ARM GAS  C:\usertemp\ccIlwJXO.s 			page 19


 364:lvgl/src/core/lv_obj.c **** 
 365:lvgl/src/core/lv_obj.c **** const lv_obj_class_t * lv_obj_get_class(const lv_obj_t * obj)
 366:lvgl/src/core/lv_obj.c **** {
 367:lvgl/src/core/lv_obj.c ****     return obj->class_p;
 368:lvgl/src/core/lv_obj.c **** }
 369:lvgl/src/core/lv_obj.c **** 
 370:lvgl/src/core/lv_obj.c **** bool lv_obj_is_valid(const lv_obj_t * obj)
 371:lvgl/src/core/lv_obj.c **** {
 372:lvgl/src/core/lv_obj.c ****     lv_disp_t * disp = lv_disp_get_next(NULL);
 373:lvgl/src/core/lv_obj.c ****     while(disp) {
 374:lvgl/src/core/lv_obj.c ****         uint32_t i;
 375:lvgl/src/core/lv_obj.c ****         for(i = 0; i < disp->screen_cnt; i++) {
 376:lvgl/src/core/lv_obj.c ****             if(disp->screens[i] == obj) return true;
 377:lvgl/src/core/lv_obj.c ****             bool found = obj_valid_child(disp->screens[i], obj);
 378:lvgl/src/core/lv_obj.c ****             if(found) return true;
 379:lvgl/src/core/lv_obj.c ****         }
 380:lvgl/src/core/lv_obj.c **** 
 381:lvgl/src/core/lv_obj.c ****         disp = lv_disp_get_next(disp);
 382:lvgl/src/core/lv_obj.c ****     }
 383:lvgl/src/core/lv_obj.c **** 
 384:lvgl/src/core/lv_obj.c ****     return false;
 385:lvgl/src/core/lv_obj.c **** }
 386:lvgl/src/core/lv_obj.c **** 
 387:lvgl/src/core/lv_obj.c **** /**********************
 388:lvgl/src/core/lv_obj.c ****  *   STATIC FUNCTIONS
 389:lvgl/src/core/lv_obj.c ****  **********************/
 390:lvgl/src/core/lv_obj.c **** 
 391:lvgl/src/core/lv_obj.c **** static void lv_obj_constructor(const lv_obj_class_t * class_p, lv_obj_t * obj)
 392:lvgl/src/core/lv_obj.c **** {
 393:lvgl/src/core/lv_obj.c ****     LV_UNUSED(class_p);
 394:lvgl/src/core/lv_obj.c ****     LV_TRACE_OBJ_CREATE("begin");
 395:lvgl/src/core/lv_obj.c **** 
 396:lvgl/src/core/lv_obj.c ****     lv_obj_t * parent = obj->parent;
 397:lvgl/src/core/lv_obj.c ****     if(parent) {
 398:lvgl/src/core/lv_obj.c ****         lv_coord_t sl = lv_obj_get_scroll_left(parent);
 399:lvgl/src/core/lv_obj.c ****         lv_coord_t st = lv_obj_get_scroll_top(parent);
 400:lvgl/src/core/lv_obj.c **** 
 401:lvgl/src/core/lv_obj.c ****         obj->coords.y1 = parent->coords.y1 + lv_obj_get_style_pad_top(parent, LV_PART_MAIN) - st;
 402:lvgl/src/core/lv_obj.c ****         obj->coords.y2 = obj->coords.y1 - 1;
 403:lvgl/src/core/lv_obj.c ****         obj->coords.x1  = parent->coords.x1 + lv_obj_get_style_pad_left(parent, LV_PART_MAIN) - sl;
 404:lvgl/src/core/lv_obj.c ****         obj->coords.x2  = obj->coords.x1 - 1;
 405:lvgl/src/core/lv_obj.c ****     }
 406:lvgl/src/core/lv_obj.c **** 
 407:lvgl/src/core/lv_obj.c ****     /*Set attributes*/
 408:lvgl/src/core/lv_obj.c ****     obj->flags = LV_OBJ_FLAG_CLICKABLE;
 409:lvgl/src/core/lv_obj.c ****     obj->flags |= LV_OBJ_FLAG_SNAPPABLE;
 410:lvgl/src/core/lv_obj.c ****     if(parent) obj->flags |= LV_OBJ_FLAG_PRESS_LOCK;
 411:lvgl/src/core/lv_obj.c ****     if(parent) obj->flags |= LV_OBJ_FLAG_SCROLL_CHAIN;
 412:lvgl/src/core/lv_obj.c ****     obj->flags |= LV_OBJ_FLAG_CLICK_FOCUSABLE;
 413:lvgl/src/core/lv_obj.c ****     obj->flags |= LV_OBJ_FLAG_SCROLLABLE;
 414:lvgl/src/core/lv_obj.c ****     obj->flags |= LV_OBJ_FLAG_SCROLL_ELASTIC;
 415:lvgl/src/core/lv_obj.c ****     obj->flags |= LV_OBJ_FLAG_SCROLL_MOMENTUM;
 416:lvgl/src/core/lv_obj.c ****     obj->flags |= LV_OBJ_FLAG_SCROLL_WITH_ARROW;
 417:lvgl/src/core/lv_obj.c ****     if(parent) obj->flags |= LV_OBJ_FLAG_GESTURE_BUBBLE;
 418:lvgl/src/core/lv_obj.c **** 
 419:lvgl/src/core/lv_obj.c ****     LV_TRACE_OBJ_CREATE("finished");
 420:lvgl/src/core/lv_obj.c **** }
ARM GAS  C:\usertemp\ccIlwJXO.s 			page 20


 421:lvgl/src/core/lv_obj.c **** 
 422:lvgl/src/core/lv_obj.c **** static void lv_obj_destructor(const lv_obj_class_t * class_p, lv_obj_t * obj)
 423:lvgl/src/core/lv_obj.c **** {
 424:lvgl/src/core/lv_obj.c ****     LV_UNUSED(class_p);
 425:lvgl/src/core/lv_obj.c **** 
 426:lvgl/src/core/lv_obj.c ****     _lv_event_mark_deleted(obj);
 427:lvgl/src/core/lv_obj.c **** 
 428:lvgl/src/core/lv_obj.c ****     /*Remove all style*/
 429:lvgl/src/core/lv_obj.c ****     lv_obj_enable_style_refresh(false); /*No need to refresh the style because the object will be d
 430:lvgl/src/core/lv_obj.c ****     lv_obj_remove_style_all(obj);
 431:lvgl/src/core/lv_obj.c ****     lv_obj_enable_style_refresh(true);
 432:lvgl/src/core/lv_obj.c **** 
 433:lvgl/src/core/lv_obj.c ****     /*Remove the animations from this object*/
 434:lvgl/src/core/lv_obj.c ****     lv_anim_del(obj, NULL);
 435:lvgl/src/core/lv_obj.c **** 
 436:lvgl/src/core/lv_obj.c ****     /*Delete from the group*/
 437:lvgl/src/core/lv_obj.c ****     lv_group_t * group = lv_obj_get_group(obj);
 438:lvgl/src/core/lv_obj.c ****     if(group) lv_group_remove_obj(obj);
 439:lvgl/src/core/lv_obj.c **** 
 440:lvgl/src/core/lv_obj.c ****     if(obj->spec_attr) {
 441:lvgl/src/core/lv_obj.c ****         if(obj->spec_attr->children) {
 442:lvgl/src/core/lv_obj.c ****             lv_mem_free(obj->spec_attr->children);
 443:lvgl/src/core/lv_obj.c ****             obj->spec_attr->children = NULL;
 444:lvgl/src/core/lv_obj.c ****         }
 445:lvgl/src/core/lv_obj.c ****         if(obj->spec_attr->event_dsc) {
 446:lvgl/src/core/lv_obj.c ****             lv_mem_free(obj->spec_attr->event_dsc);
 447:lvgl/src/core/lv_obj.c ****             obj->spec_attr->event_dsc = NULL;
 448:lvgl/src/core/lv_obj.c ****         }
 449:lvgl/src/core/lv_obj.c **** 
 450:lvgl/src/core/lv_obj.c ****         lv_mem_free(obj->spec_attr);
 451:lvgl/src/core/lv_obj.c ****         obj->spec_attr = NULL;
 452:lvgl/src/core/lv_obj.c ****     }
 453:lvgl/src/core/lv_obj.c **** }
 454:lvgl/src/core/lv_obj.c **** 
 455:lvgl/src/core/lv_obj.c **** static void lv_obj_draw(lv_event_t * e)
 456:lvgl/src/core/lv_obj.c **** {
 457:lvgl/src/core/lv_obj.c ****     lv_event_code_t code = lv_event_get_code(e);
 458:lvgl/src/core/lv_obj.c ****     lv_obj_t * obj = lv_event_get_target(e);
 459:lvgl/src/core/lv_obj.c ****     if(code == LV_EVENT_COVER_CHECK) {
 460:lvgl/src/core/lv_obj.c ****         lv_cover_check_info_t * info = lv_event_get_param(e);
 461:lvgl/src/core/lv_obj.c ****         if(info->res == LV_COVER_RES_MASKED) return;
 462:lvgl/src/core/lv_obj.c ****         if(lv_obj_get_style_clip_corner(obj, LV_PART_MAIN)) {
 463:lvgl/src/core/lv_obj.c ****             info->res = LV_COVER_RES_MASKED;
 464:lvgl/src/core/lv_obj.c ****             return;
 465:lvgl/src/core/lv_obj.c ****         }
 466:lvgl/src/core/lv_obj.c **** 
 467:lvgl/src/core/lv_obj.c ****         /*Most trivial test. Is the mask fully IN the object? If no it surely doesn't cover it*/
 468:lvgl/src/core/lv_obj.c ****         lv_coord_t r = lv_obj_get_style_radius(obj, LV_PART_MAIN);
 469:lvgl/src/core/lv_obj.c ****         lv_coord_t w = lv_obj_get_style_transform_width(obj, LV_PART_MAIN);
 470:lvgl/src/core/lv_obj.c ****         lv_coord_t h = lv_obj_get_style_transform_height(obj, LV_PART_MAIN);
 471:lvgl/src/core/lv_obj.c ****         lv_area_t coords;
 472:lvgl/src/core/lv_obj.c ****         lv_area_copy(&coords, &obj->coords);
 473:lvgl/src/core/lv_obj.c ****         coords.x1 -= w;
 474:lvgl/src/core/lv_obj.c ****         coords.x2 += w;
 475:lvgl/src/core/lv_obj.c ****         coords.y1 -= h;
 476:lvgl/src/core/lv_obj.c ****         coords.y2 += h;
 477:lvgl/src/core/lv_obj.c **** 
ARM GAS  C:\usertemp\ccIlwJXO.s 			page 21


 478:lvgl/src/core/lv_obj.c ****         if(_lv_area_is_in(info->area, &coords, r) == false) {
 479:lvgl/src/core/lv_obj.c ****             info->res = LV_COVER_RES_NOT_COVER;
 480:lvgl/src/core/lv_obj.c ****             return;
 481:lvgl/src/core/lv_obj.c ****         }
 482:lvgl/src/core/lv_obj.c **** 
 483:lvgl/src/core/lv_obj.c ****         if(lv_obj_get_style_bg_opa(obj, LV_PART_MAIN) < LV_OPA_MAX) {
 484:lvgl/src/core/lv_obj.c ****             info->res = LV_COVER_RES_NOT_COVER;
 485:lvgl/src/core/lv_obj.c ****             return;
 486:lvgl/src/core/lv_obj.c ****         }
 487:lvgl/src/core/lv_obj.c **** 
 488:lvgl/src/core/lv_obj.c **** #if LV_DRAW_COMPLEX
 489:lvgl/src/core/lv_obj.c ****         if(lv_obj_get_style_blend_mode(obj, LV_PART_MAIN) != LV_BLEND_MODE_NORMAL) {
 490:lvgl/src/core/lv_obj.c ****             info->res = LV_COVER_RES_NOT_COVER;
 491:lvgl/src/core/lv_obj.c ****             return;
 492:lvgl/src/core/lv_obj.c ****         }
 493:lvgl/src/core/lv_obj.c **** #endif
 494:lvgl/src/core/lv_obj.c ****         if(lv_obj_get_style_opa(obj, LV_PART_MAIN) < LV_OPA_MAX) {
 495:lvgl/src/core/lv_obj.c ****             info->res = LV_COVER_RES_NOT_COVER;
 496:lvgl/src/core/lv_obj.c ****             return;
 497:lvgl/src/core/lv_obj.c ****         }
 498:lvgl/src/core/lv_obj.c **** 
 499:lvgl/src/core/lv_obj.c ****         info->res = LV_COVER_RES_COVER;
 500:lvgl/src/core/lv_obj.c **** 
 501:lvgl/src/core/lv_obj.c ****     }
 502:lvgl/src/core/lv_obj.c ****     else if(code == LV_EVENT_DRAW_MAIN) {
 503:lvgl/src/core/lv_obj.c ****         lv_draw_ctx_t * draw_ctx = lv_event_get_draw_ctx(e);
 504:lvgl/src/core/lv_obj.c ****         lv_draw_rect_dsc_t draw_dsc;
 505:lvgl/src/core/lv_obj.c ****         lv_draw_rect_dsc_init(&draw_dsc);
 506:lvgl/src/core/lv_obj.c ****         /*If the border is drawn later disable loading its properties*/
 507:lvgl/src/core/lv_obj.c ****         if(lv_obj_get_style_border_post(obj, LV_PART_MAIN)) {
 508:lvgl/src/core/lv_obj.c ****             draw_dsc.border_post = 1;
 509:lvgl/src/core/lv_obj.c ****         }
 510:lvgl/src/core/lv_obj.c **** 
 511:lvgl/src/core/lv_obj.c ****         lv_obj_init_draw_rect_dsc(obj, LV_PART_MAIN, &draw_dsc);
 512:lvgl/src/core/lv_obj.c ****         lv_coord_t w = lv_obj_get_style_transform_width(obj, LV_PART_MAIN);
 513:lvgl/src/core/lv_obj.c ****         lv_coord_t h = lv_obj_get_style_transform_height(obj, LV_PART_MAIN);
 514:lvgl/src/core/lv_obj.c ****         lv_area_t coords;
 515:lvgl/src/core/lv_obj.c ****         lv_area_copy(&coords, &obj->coords);
 516:lvgl/src/core/lv_obj.c ****         coords.x1 -= w;
 517:lvgl/src/core/lv_obj.c ****         coords.x2 += w;
 518:lvgl/src/core/lv_obj.c ****         coords.y1 -= h;
 519:lvgl/src/core/lv_obj.c ****         coords.y2 += h;
 520:lvgl/src/core/lv_obj.c **** 
 521:lvgl/src/core/lv_obj.c ****         lv_obj_draw_part_dsc_t part_dsc;
 522:lvgl/src/core/lv_obj.c ****         lv_obj_draw_dsc_init(&part_dsc, draw_ctx);
 523:lvgl/src/core/lv_obj.c ****         part_dsc.class_p = MY_CLASS;
 524:lvgl/src/core/lv_obj.c ****         part_dsc.type = LV_OBJ_DRAW_PART_RECTANGLE;
 525:lvgl/src/core/lv_obj.c ****         part_dsc.rect_dsc = &draw_dsc;
 526:lvgl/src/core/lv_obj.c ****         part_dsc.draw_area = &coords;
 527:lvgl/src/core/lv_obj.c ****         part_dsc.part = LV_PART_MAIN;
 528:lvgl/src/core/lv_obj.c ****         lv_event_send(obj, LV_EVENT_DRAW_PART_BEGIN, &part_dsc);
 529:lvgl/src/core/lv_obj.c **** 
 530:lvgl/src/core/lv_obj.c **** 
 531:lvgl/src/core/lv_obj.c **** #if LV_DRAW_COMPLEX
 532:lvgl/src/core/lv_obj.c ****         /*With clip corner enabled draw the bg img separately to make it clipped*/
 533:lvgl/src/core/lv_obj.c ****         bool clip_corner = (lv_obj_get_style_clip_corner(obj, LV_PART_MAIN) && draw_dsc.radius != 0
 534:lvgl/src/core/lv_obj.c ****         const void * bg_img_src = draw_dsc.bg_img_src;
ARM GAS  C:\usertemp\ccIlwJXO.s 			page 22


 535:lvgl/src/core/lv_obj.c ****         if(clip_corner) {
 536:lvgl/src/core/lv_obj.c ****             draw_dsc.bg_img_src = NULL;
 537:lvgl/src/core/lv_obj.c ****         }
 538:lvgl/src/core/lv_obj.c **** #endif
 539:lvgl/src/core/lv_obj.c **** 
 540:lvgl/src/core/lv_obj.c ****         lv_draw_rect(draw_ctx, &draw_dsc, &coords);
 541:lvgl/src/core/lv_obj.c **** 
 542:lvgl/src/core/lv_obj.c **** 
 543:lvgl/src/core/lv_obj.c **** #if LV_DRAW_COMPLEX
 544:lvgl/src/core/lv_obj.c ****         if(clip_corner) {
 545:lvgl/src/core/lv_obj.c ****             lv_draw_mask_radius_param_t * mp = lv_mem_buf_get(sizeof(lv_draw_mask_radius_param_t));
 546:lvgl/src/core/lv_obj.c ****             lv_draw_mask_radius_init(mp, &obj->coords, draw_dsc.radius, false);
 547:lvgl/src/core/lv_obj.c ****             /*Add the mask and use `obj+8` as custom id. Don't use `obj` directly because it might 
 548:lvgl/src/core/lv_obj.c ****             lv_draw_mask_add(mp, obj + 8);
 549:lvgl/src/core/lv_obj.c **** 
 550:lvgl/src/core/lv_obj.c ****             if(bg_img_src) {
 551:lvgl/src/core/lv_obj.c ****                 draw_dsc.bg_opa = LV_OPA_TRANSP;
 552:lvgl/src/core/lv_obj.c ****                 draw_dsc.border_opa = LV_OPA_TRANSP;
 553:lvgl/src/core/lv_obj.c ****                 draw_dsc.outline_opa = LV_OPA_TRANSP;
 554:lvgl/src/core/lv_obj.c ****                 draw_dsc.shadow_opa = LV_OPA_TRANSP;
 555:lvgl/src/core/lv_obj.c ****                 draw_dsc.bg_img_src = bg_img_src;
 556:lvgl/src/core/lv_obj.c ****                 lv_draw_rect(draw_ctx, &draw_dsc, &coords);
 557:lvgl/src/core/lv_obj.c ****             }
 558:lvgl/src/core/lv_obj.c **** 
 559:lvgl/src/core/lv_obj.c ****         }
 560:lvgl/src/core/lv_obj.c **** #endif
 561:lvgl/src/core/lv_obj.c ****         lv_event_send(obj, LV_EVENT_DRAW_PART_END, &part_dsc);
 562:lvgl/src/core/lv_obj.c ****     }
 563:lvgl/src/core/lv_obj.c ****     else if(code == LV_EVENT_DRAW_POST) {
 564:lvgl/src/core/lv_obj.c ****         lv_draw_ctx_t * draw_ctx = lv_event_get_draw_ctx(e);
 565:lvgl/src/core/lv_obj.c ****         draw_scrollbar(obj, draw_ctx);
 566:lvgl/src/core/lv_obj.c **** 
 567:lvgl/src/core/lv_obj.c **** #if LV_DRAW_COMPLEX
 568:lvgl/src/core/lv_obj.c ****         if(lv_obj_get_style_clip_corner(obj, LV_PART_MAIN)) {
 569:lvgl/src/core/lv_obj.c ****             lv_draw_mask_radius_param_t * param = lv_draw_mask_remove_custom(obj + 8);
 570:lvgl/src/core/lv_obj.c ****             if(param) {
 571:lvgl/src/core/lv_obj.c ****                 lv_draw_mask_free_param(param);
 572:lvgl/src/core/lv_obj.c ****                 lv_mem_buf_release(param);
 573:lvgl/src/core/lv_obj.c ****             }
 574:lvgl/src/core/lv_obj.c ****         }
 575:lvgl/src/core/lv_obj.c **** #endif
 576:lvgl/src/core/lv_obj.c **** 
 577:lvgl/src/core/lv_obj.c ****         /*If the border is drawn later disable loading other properties*/
 578:lvgl/src/core/lv_obj.c ****         if(lv_obj_get_style_border_post(obj, LV_PART_MAIN)) {
 579:lvgl/src/core/lv_obj.c ****             lv_draw_rect_dsc_t draw_dsc;
 580:lvgl/src/core/lv_obj.c ****             lv_draw_rect_dsc_init(&draw_dsc);
 581:lvgl/src/core/lv_obj.c ****             draw_dsc.bg_opa = LV_OPA_TRANSP;
 582:lvgl/src/core/lv_obj.c ****             draw_dsc.bg_img_opa = LV_OPA_TRANSP;
 583:lvgl/src/core/lv_obj.c ****             draw_dsc.outline_opa = LV_OPA_TRANSP;
 584:lvgl/src/core/lv_obj.c ****             draw_dsc.shadow_opa = LV_OPA_TRANSP;
 585:lvgl/src/core/lv_obj.c ****             lv_obj_init_draw_rect_dsc(obj, LV_PART_MAIN, &draw_dsc);
 586:lvgl/src/core/lv_obj.c **** 
 587:lvgl/src/core/lv_obj.c ****             lv_coord_t w = lv_obj_get_style_transform_width(obj, LV_PART_MAIN);
 588:lvgl/src/core/lv_obj.c ****             lv_coord_t h = lv_obj_get_style_transform_height(obj, LV_PART_MAIN);
 589:lvgl/src/core/lv_obj.c ****             lv_area_t coords;
 590:lvgl/src/core/lv_obj.c ****             lv_area_copy(&coords, &obj->coords);
 591:lvgl/src/core/lv_obj.c ****             coords.x1 -= w;
ARM GAS  C:\usertemp\ccIlwJXO.s 			page 23


 592:lvgl/src/core/lv_obj.c ****             coords.x2 += w;
 593:lvgl/src/core/lv_obj.c ****             coords.y1 -= h;
 594:lvgl/src/core/lv_obj.c ****             coords.y2 += h;
 595:lvgl/src/core/lv_obj.c **** 
 596:lvgl/src/core/lv_obj.c ****             lv_obj_draw_part_dsc_t part_dsc;
 597:lvgl/src/core/lv_obj.c ****             lv_obj_draw_dsc_init(&part_dsc, draw_ctx);
 598:lvgl/src/core/lv_obj.c ****             part_dsc.class_p = MY_CLASS;
 599:lvgl/src/core/lv_obj.c ****             part_dsc.type = LV_OBJ_DRAW_PART_BORDER_POST;
 600:lvgl/src/core/lv_obj.c ****             part_dsc.rect_dsc = &draw_dsc;
 601:lvgl/src/core/lv_obj.c ****             part_dsc.draw_area = &coords;
 602:lvgl/src/core/lv_obj.c ****             part_dsc.part = LV_PART_MAIN;
 603:lvgl/src/core/lv_obj.c ****             lv_event_send(obj, LV_EVENT_DRAW_PART_BEGIN, &part_dsc);
 604:lvgl/src/core/lv_obj.c **** 
 605:lvgl/src/core/lv_obj.c ****             lv_draw_rect(draw_ctx, &draw_dsc, &coords);
 606:lvgl/src/core/lv_obj.c ****             lv_event_send(obj, LV_EVENT_DRAW_PART_END, &part_dsc);
 607:lvgl/src/core/lv_obj.c ****         }
 608:lvgl/src/core/lv_obj.c ****     }
 609:lvgl/src/core/lv_obj.c **** }
 610:lvgl/src/core/lv_obj.c **** 
 611:lvgl/src/core/lv_obj.c **** static void draw_scrollbar(lv_obj_t * obj, lv_draw_ctx_t * draw_ctx)
 612:lvgl/src/core/lv_obj.c **** {
 613:lvgl/src/core/lv_obj.c **** 
 614:lvgl/src/core/lv_obj.c ****     lv_area_t hor_area;
 615:lvgl/src/core/lv_obj.c ****     lv_area_t ver_area;
 616:lvgl/src/core/lv_obj.c ****     lv_obj_get_scrollbar_area(obj, &hor_area, &ver_area);
 617:lvgl/src/core/lv_obj.c **** 
 618:lvgl/src/core/lv_obj.c ****     if(lv_area_get_size(&hor_area) <= 0 && lv_area_get_size(&ver_area) <= 0) return;
 619:lvgl/src/core/lv_obj.c **** 
 620:lvgl/src/core/lv_obj.c ****     lv_draw_rect_dsc_t draw_dsc;
 621:lvgl/src/core/lv_obj.c ****     lv_res_t sb_res = scrollbar_init_draw_dsc(obj, &draw_dsc);
 622:lvgl/src/core/lv_obj.c ****     if(sb_res != LV_RES_OK) return;
 623:lvgl/src/core/lv_obj.c **** 
 624:lvgl/src/core/lv_obj.c ****     lv_obj_draw_part_dsc_t part_dsc;
 625:lvgl/src/core/lv_obj.c ****     lv_obj_draw_dsc_init(&part_dsc, draw_ctx);
 626:lvgl/src/core/lv_obj.c ****     part_dsc.class_p = MY_CLASS;
 627:lvgl/src/core/lv_obj.c ****     part_dsc.type = LV_OBJ_DRAW_PART_SCROLLBAR;
 628:lvgl/src/core/lv_obj.c ****     part_dsc.rect_dsc = &draw_dsc;
 629:lvgl/src/core/lv_obj.c ****     part_dsc.part = LV_PART_SCROLLBAR;
 630:lvgl/src/core/lv_obj.c **** 
 631:lvgl/src/core/lv_obj.c ****     if(lv_area_get_size(&hor_area) > 0) {
 632:lvgl/src/core/lv_obj.c ****         part_dsc.draw_area = &hor_area;
 633:lvgl/src/core/lv_obj.c ****         lv_event_send(obj, LV_EVENT_DRAW_PART_BEGIN, &part_dsc);
 634:lvgl/src/core/lv_obj.c ****         lv_draw_rect(draw_ctx, &draw_dsc, &hor_area);
 635:lvgl/src/core/lv_obj.c ****         lv_event_send(obj, LV_EVENT_DRAW_PART_END, &part_dsc);
 636:lvgl/src/core/lv_obj.c ****     }
 637:lvgl/src/core/lv_obj.c ****     if(lv_area_get_size(&ver_area) > 0) {
 638:lvgl/src/core/lv_obj.c ****         part_dsc.draw_area = &ver_area;
 639:lvgl/src/core/lv_obj.c ****         lv_event_send(obj, LV_EVENT_DRAW_PART_BEGIN, &part_dsc);
 640:lvgl/src/core/lv_obj.c ****         part_dsc.draw_area = &ver_area;
 641:lvgl/src/core/lv_obj.c ****         lv_draw_rect(draw_ctx, &draw_dsc, &ver_area);
 642:lvgl/src/core/lv_obj.c ****         lv_event_send(obj, LV_EVENT_DRAW_PART_END, &part_dsc);
 643:lvgl/src/core/lv_obj.c ****     }
 644:lvgl/src/core/lv_obj.c **** }
 645:lvgl/src/core/lv_obj.c **** 
 646:lvgl/src/core/lv_obj.c **** /**
 647:lvgl/src/core/lv_obj.c ****  * Initialize the draw descriptor for the scrollbar
 648:lvgl/src/core/lv_obj.c ****  * @param obj pointer to an object
ARM GAS  C:\usertemp\ccIlwJXO.s 			page 24


 649:lvgl/src/core/lv_obj.c ****  * @param dsc the draw descriptor to initialize
 650:lvgl/src/core/lv_obj.c ****  * @return LV_RES_OK: the scrollbar is visible; LV_RES_INV: the scrollbar is not visible
 651:lvgl/src/core/lv_obj.c ****  */
 652:lvgl/src/core/lv_obj.c **** static lv_res_t scrollbar_init_draw_dsc(lv_obj_t * obj, lv_draw_rect_dsc_t * dsc)
 653:lvgl/src/core/lv_obj.c **** {
 654:lvgl/src/core/lv_obj.c ****     lv_draw_rect_dsc_init(dsc);
 655:lvgl/src/core/lv_obj.c ****     dsc->bg_opa = lv_obj_get_style_bg_opa(obj, LV_PART_SCROLLBAR);
 656:lvgl/src/core/lv_obj.c ****     if(dsc->bg_opa > LV_OPA_MIN) {
 657:lvgl/src/core/lv_obj.c ****         dsc->bg_color = lv_obj_get_style_bg_color(obj, LV_PART_SCROLLBAR);
 658:lvgl/src/core/lv_obj.c ****     }
 659:lvgl/src/core/lv_obj.c **** 
 660:lvgl/src/core/lv_obj.c ****     dsc->border_opa = lv_obj_get_style_border_opa(obj, LV_PART_SCROLLBAR);
 661:lvgl/src/core/lv_obj.c ****     if(dsc->border_opa > LV_OPA_MIN) {
 662:lvgl/src/core/lv_obj.c ****         dsc->border_width = lv_obj_get_style_border_width(obj, LV_PART_SCROLLBAR);
 663:lvgl/src/core/lv_obj.c ****         if(dsc->border_width > 0) {
 664:lvgl/src/core/lv_obj.c ****             dsc->border_color = lv_obj_get_style_border_color(obj, LV_PART_SCROLLBAR);
 665:lvgl/src/core/lv_obj.c ****         }
 666:lvgl/src/core/lv_obj.c ****         else {
 667:lvgl/src/core/lv_obj.c ****             dsc->border_opa = LV_OPA_TRANSP;
 668:lvgl/src/core/lv_obj.c ****         }
 669:lvgl/src/core/lv_obj.c ****     }
 670:lvgl/src/core/lv_obj.c **** 
 671:lvgl/src/core/lv_obj.c **** #if LV_DRAW_COMPLEX
 672:lvgl/src/core/lv_obj.c ****     dsc->shadow_opa = lv_obj_get_style_shadow_opa(obj, LV_PART_SCROLLBAR);
 673:lvgl/src/core/lv_obj.c ****     if(dsc->shadow_opa > LV_OPA_MIN) {
 674:lvgl/src/core/lv_obj.c ****         dsc->shadow_width = lv_obj_get_style_shadow_width(obj, LV_PART_SCROLLBAR);
 675:lvgl/src/core/lv_obj.c ****         if(dsc->shadow_width > 0) {
 676:lvgl/src/core/lv_obj.c ****             dsc->shadow_spread = lv_obj_get_style_shadow_spread(obj, LV_PART_SCROLLBAR);
 677:lvgl/src/core/lv_obj.c ****             dsc->shadow_color = lv_obj_get_style_shadow_color(obj, LV_PART_SCROLLBAR);
 678:lvgl/src/core/lv_obj.c ****         }
 679:lvgl/src/core/lv_obj.c ****         else {
 680:lvgl/src/core/lv_obj.c ****             dsc->shadow_opa = LV_OPA_TRANSP;
 681:lvgl/src/core/lv_obj.c ****         }
 682:lvgl/src/core/lv_obj.c ****     }
 683:lvgl/src/core/lv_obj.c **** 
 684:lvgl/src/core/lv_obj.c ****     lv_opa_t opa = lv_obj_get_style_opa(obj, LV_PART_SCROLLBAR);
 685:lvgl/src/core/lv_obj.c ****     if(opa < LV_OPA_MAX) {
 686:lvgl/src/core/lv_obj.c ****         dsc->bg_opa = (dsc->bg_opa * opa) >> 8;
 687:lvgl/src/core/lv_obj.c ****         dsc->border_opa = (dsc->bg_opa * opa) >> 8;
 688:lvgl/src/core/lv_obj.c ****         dsc->shadow_opa = (dsc->bg_opa * opa) >> 8;
 689:lvgl/src/core/lv_obj.c ****     }
 690:lvgl/src/core/lv_obj.c **** 
 691:lvgl/src/core/lv_obj.c ****     if(dsc->bg_opa != LV_OPA_TRANSP || dsc->border_opa != LV_OPA_TRANSP || dsc->shadow_opa != LV_OP
 692:lvgl/src/core/lv_obj.c ****         dsc->radius = lv_obj_get_style_radius(obj, LV_PART_SCROLLBAR);
 693:lvgl/src/core/lv_obj.c ****         return LV_RES_OK;
 694:lvgl/src/core/lv_obj.c ****     }
 695:lvgl/src/core/lv_obj.c ****     else {
 696:lvgl/src/core/lv_obj.c ****         return LV_RES_INV;
 697:lvgl/src/core/lv_obj.c ****     }
 698:lvgl/src/core/lv_obj.c **** #else
 699:lvgl/src/core/lv_obj.c ****     if(dsc->bg_opa != LV_OPA_TRANSP || dsc->border_opa != LV_OPA_TRANSP) return LV_RES_OK;
 700:lvgl/src/core/lv_obj.c ****     else return LV_RES_INV;
 701:lvgl/src/core/lv_obj.c **** #endif
 702:lvgl/src/core/lv_obj.c **** }
 703:lvgl/src/core/lv_obj.c **** 
 704:lvgl/src/core/lv_obj.c **** static void lv_obj_event(const lv_obj_class_t * class_p, lv_event_t * e)
 705:lvgl/src/core/lv_obj.c **** {
ARM GAS  C:\usertemp\ccIlwJXO.s 			page 25


 706:lvgl/src/core/lv_obj.c ****     LV_UNUSED(class_p);
 707:lvgl/src/core/lv_obj.c **** 
 708:lvgl/src/core/lv_obj.c ****     lv_event_code_t code = lv_event_get_code(e);
 709:lvgl/src/core/lv_obj.c ****     lv_obj_t * obj = lv_event_get_current_target(e);
 710:lvgl/src/core/lv_obj.c ****     if(code == LV_EVENT_PRESSED) {
 711:lvgl/src/core/lv_obj.c ****         lv_obj_add_state(obj, LV_STATE_PRESSED);
 712:lvgl/src/core/lv_obj.c ****     }
 713:lvgl/src/core/lv_obj.c ****     else if(code == LV_EVENT_RELEASED) {
 714:lvgl/src/core/lv_obj.c ****         lv_obj_clear_state(obj, LV_STATE_PRESSED);
 715:lvgl/src/core/lv_obj.c ****         void * param = lv_event_get_param(e);
 716:lvgl/src/core/lv_obj.c ****         /*Go the checked state if enabled*/
 717:lvgl/src/core/lv_obj.c ****         if(lv_indev_get_scroll_obj(param) == NULL && lv_obj_has_flag(obj, LV_OBJ_FLAG_CHECKABLE)) {
 718:lvgl/src/core/lv_obj.c ****             if(!(lv_obj_get_state(obj) & LV_STATE_CHECKED)) lv_obj_add_state(obj, LV_STATE_CHECKED)
 719:lvgl/src/core/lv_obj.c ****             else lv_obj_clear_state(obj, LV_STATE_CHECKED);
 720:lvgl/src/core/lv_obj.c **** 
 721:lvgl/src/core/lv_obj.c ****             lv_res_t res = lv_event_send(obj, LV_EVENT_VALUE_CHANGED, NULL);
 722:lvgl/src/core/lv_obj.c ****             if(res != LV_RES_OK) return;
 723:lvgl/src/core/lv_obj.c ****         }
 724:lvgl/src/core/lv_obj.c ****     }
 725:lvgl/src/core/lv_obj.c ****     else if(code == LV_EVENT_PRESS_LOST) {
 726:lvgl/src/core/lv_obj.c ****         lv_obj_clear_state(obj, LV_STATE_PRESSED);
 727:lvgl/src/core/lv_obj.c ****     }
 728:lvgl/src/core/lv_obj.c ****     else if(code == LV_EVENT_STYLE_CHANGED) {
 729:lvgl/src/core/lv_obj.c ****         uint32_t child_cnt = lv_obj_get_child_cnt(obj);
 730:lvgl/src/core/lv_obj.c ****         for(uint32_t i = 0; i < child_cnt; i++) {
 731:lvgl/src/core/lv_obj.c ****             lv_obj_t * child = obj->spec_attr->children[i];
 732:lvgl/src/core/lv_obj.c ****             lv_obj_mark_layout_as_dirty(child);
 733:lvgl/src/core/lv_obj.c ****         }
 734:lvgl/src/core/lv_obj.c ****     }
 735:lvgl/src/core/lv_obj.c ****     else if(code == LV_EVENT_KEY) {
 736:lvgl/src/core/lv_obj.c ****         if(lv_obj_has_flag(obj, LV_OBJ_FLAG_CHECKABLE)) {
 737:lvgl/src/core/lv_obj.c ****             char c = *((char *)lv_event_get_param(e));
 738:lvgl/src/core/lv_obj.c ****             if(c == LV_KEY_RIGHT || c == LV_KEY_UP) {
 739:lvgl/src/core/lv_obj.c ****                 lv_obj_add_state(obj, LV_STATE_CHECKED);
 740:lvgl/src/core/lv_obj.c ****             }
 741:lvgl/src/core/lv_obj.c ****             else if(c == LV_KEY_LEFT || c == LV_KEY_DOWN) {
 742:lvgl/src/core/lv_obj.c ****                 lv_obj_clear_state(obj, LV_STATE_CHECKED);
 743:lvgl/src/core/lv_obj.c ****             }
 744:lvgl/src/core/lv_obj.c **** 
 745:lvgl/src/core/lv_obj.c ****             /*With Enter LV_EVENT_RELEASED will send VALUE_CHANGE event*/
 746:lvgl/src/core/lv_obj.c ****             if(c != LV_KEY_ENTER) {
 747:lvgl/src/core/lv_obj.c ****                 lv_res_t res = lv_event_send(obj, LV_EVENT_VALUE_CHANGED, NULL);
 748:lvgl/src/core/lv_obj.c ****                 if(res != LV_RES_OK) return;
 749:lvgl/src/core/lv_obj.c ****             }
 750:lvgl/src/core/lv_obj.c ****         }
 751:lvgl/src/core/lv_obj.c ****         else if(lv_obj_has_flag(obj, LV_OBJ_FLAG_SCROLLABLE | LV_OBJ_FLAG_SCROLL_WITH_ARROW) && !lv
 752:lvgl/src/core/lv_obj.c ****             /*scroll by keypad or encoder*/
 753:lvgl/src/core/lv_obj.c ****             lv_anim_enable_t anim_enable = LV_ANIM_OFF;
 754:lvgl/src/core/lv_obj.c ****             lv_coord_t sl = lv_obj_get_scroll_left(obj);
 755:lvgl/src/core/lv_obj.c ****             lv_coord_t sr = lv_obj_get_scroll_right(obj);
 756:lvgl/src/core/lv_obj.c ****             char c = *((char *)lv_event_get_param(e));
 757:lvgl/src/core/lv_obj.c ****             if(c == LV_KEY_DOWN) {
 758:lvgl/src/core/lv_obj.c ****                 /*use scroll_to_x/y functions to enforce scroll limits*/
 759:lvgl/src/core/lv_obj.c ****                 lv_obj_scroll_to_y(obj, lv_obj_get_scroll_y(obj) + lv_obj_get_height(obj) / 4, anim
 760:lvgl/src/core/lv_obj.c ****             }
 761:lvgl/src/core/lv_obj.c ****             else if(c == LV_KEY_UP) {
 762:lvgl/src/core/lv_obj.c ****                 lv_obj_scroll_to_y(obj, lv_obj_get_scroll_y(obj) - lv_obj_get_height(obj) / 4, anim
ARM GAS  C:\usertemp\ccIlwJXO.s 			page 26


 763:lvgl/src/core/lv_obj.c ****             }
 764:lvgl/src/core/lv_obj.c ****             else if(c == LV_KEY_RIGHT) {
 765:lvgl/src/core/lv_obj.c ****                 /*If the object can't be scrolled horizontally then scroll it vertically*/
 766:lvgl/src/core/lv_obj.c ****                 if(!((lv_obj_get_scroll_dir(obj) & LV_DIR_HOR) && (sl > 0 || sr > 0)))
 767:lvgl/src/core/lv_obj.c ****                     lv_obj_scroll_to_y(obj, lv_obj_get_scroll_y(obj) + lv_obj_get_height(obj) / 4, 
 768:lvgl/src/core/lv_obj.c ****                 else
 769:lvgl/src/core/lv_obj.c ****                     lv_obj_scroll_to_x(obj, lv_obj_get_scroll_x(obj) + lv_obj_get_width(obj) / 4, a
 770:lvgl/src/core/lv_obj.c ****             }
 771:lvgl/src/core/lv_obj.c ****             else if(c == LV_KEY_LEFT) {
 772:lvgl/src/core/lv_obj.c ****                 /*If the object can't be scrolled horizontally then scroll it vertically*/
 773:lvgl/src/core/lv_obj.c ****                 if(!((lv_obj_get_scroll_dir(obj) & LV_DIR_HOR) && (sl > 0 || sr > 0)))
 774:lvgl/src/core/lv_obj.c ****                     lv_obj_scroll_to_y(obj, lv_obj_get_scroll_y(obj) - lv_obj_get_height(obj) / 4, 
 775:lvgl/src/core/lv_obj.c ****                 else
 776:lvgl/src/core/lv_obj.c ****                     lv_obj_scroll_to_x(obj, lv_obj_get_scroll_x(obj) - lv_obj_get_width(obj) / 4, a
 777:lvgl/src/core/lv_obj.c ****             }
 778:lvgl/src/core/lv_obj.c ****         }
 779:lvgl/src/core/lv_obj.c ****     }
 780:lvgl/src/core/lv_obj.c ****     else if(code == LV_EVENT_FOCUSED) {
 781:lvgl/src/core/lv_obj.c ****         if(lv_obj_has_flag(obj, LV_OBJ_FLAG_SCROLL_ON_FOCUS)) {
 782:lvgl/src/core/lv_obj.c ****             lv_obj_scroll_to_view_recursive(obj, LV_ANIM_ON);
 783:lvgl/src/core/lv_obj.c ****         }
 784:lvgl/src/core/lv_obj.c **** 
 785:lvgl/src/core/lv_obj.c ****         bool editing = false;
 786:lvgl/src/core/lv_obj.c ****         editing = lv_group_get_editing(lv_obj_get_group(obj));
 787:lvgl/src/core/lv_obj.c ****         lv_state_t state = LV_STATE_FOCUSED;
 788:lvgl/src/core/lv_obj.c **** 
 789:lvgl/src/core/lv_obj.c ****         /* Use the indev for then indev handler.
 790:lvgl/src/core/lv_obj.c ****          * But if the obj was focused manually it returns NULL so try to
 791:lvgl/src/core/lv_obj.c ****          * use the indev from the event*/
 792:lvgl/src/core/lv_obj.c ****         lv_indev_t * indev = lv_indev_get_act();
 793:lvgl/src/core/lv_obj.c ****         if(indev == NULL) indev = lv_event_get_indev(e);
 794:lvgl/src/core/lv_obj.c **** 
 795:lvgl/src/core/lv_obj.c ****         lv_indev_type_t indev_type = lv_indev_get_type(indev);
 796:lvgl/src/core/lv_obj.c ****         if(indev_type == LV_INDEV_TYPE_KEYPAD || indev_type == LV_INDEV_TYPE_ENCODER) state |= LV_S
 797:lvgl/src/core/lv_obj.c ****         if(editing) {
 798:lvgl/src/core/lv_obj.c ****             state |= LV_STATE_EDITED;
 799:lvgl/src/core/lv_obj.c ****             lv_obj_add_state(obj, state);
 800:lvgl/src/core/lv_obj.c ****         }
 801:lvgl/src/core/lv_obj.c ****         else {
 802:lvgl/src/core/lv_obj.c ****             lv_obj_add_state(obj, state);
 803:lvgl/src/core/lv_obj.c ****             lv_obj_clear_state(obj, LV_STATE_EDITED);
 804:lvgl/src/core/lv_obj.c ****         }
 805:lvgl/src/core/lv_obj.c ****     }
 806:lvgl/src/core/lv_obj.c ****     else if(code == LV_EVENT_SCROLL_BEGIN) {
 807:lvgl/src/core/lv_obj.c ****         lv_obj_add_state(obj, LV_STATE_SCROLLED);
 808:lvgl/src/core/lv_obj.c ****     }
 809:lvgl/src/core/lv_obj.c ****     else if(code == LV_EVENT_SCROLL_END) {
 810:lvgl/src/core/lv_obj.c ****         lv_obj_clear_state(obj, LV_STATE_SCROLLED);
 811:lvgl/src/core/lv_obj.c ****         if(lv_obj_get_scrollbar_mode(obj) == LV_SCROLLBAR_MODE_ACTIVE) {
 812:lvgl/src/core/lv_obj.c ****             lv_area_t hor_area, ver_area;
 813:lvgl/src/core/lv_obj.c ****             lv_obj_get_scrollbar_area(obj, &hor_area, &ver_area);
 814:lvgl/src/core/lv_obj.c ****             lv_obj_invalidate_area(obj, &hor_area);
 815:lvgl/src/core/lv_obj.c ****             lv_obj_invalidate_area(obj, &ver_area);
 816:lvgl/src/core/lv_obj.c ****         }
 817:lvgl/src/core/lv_obj.c ****     }
 818:lvgl/src/core/lv_obj.c ****     else if(code == LV_EVENT_DEFOCUSED) {
 819:lvgl/src/core/lv_obj.c ****         lv_obj_clear_state(obj, LV_STATE_FOCUSED | LV_STATE_EDITED | LV_STATE_FOCUS_KEY);
ARM GAS  C:\usertemp\ccIlwJXO.s 			page 27


 820:lvgl/src/core/lv_obj.c ****     }
 821:lvgl/src/core/lv_obj.c ****     else if(code == LV_EVENT_SIZE_CHANGED) {
 822:lvgl/src/core/lv_obj.c ****         lv_coord_t align = lv_obj_get_style_align(obj, LV_PART_MAIN);
 823:lvgl/src/core/lv_obj.c ****         uint16_t layout = lv_obj_get_style_layout(obj, LV_PART_MAIN);
 824:lvgl/src/core/lv_obj.c ****         if(layout || align) {
 825:lvgl/src/core/lv_obj.c ****             lv_obj_mark_layout_as_dirty(obj);
 826:lvgl/src/core/lv_obj.c ****         }
 827:lvgl/src/core/lv_obj.c **** 
 828:lvgl/src/core/lv_obj.c ****         uint32_t i;
 829:lvgl/src/core/lv_obj.c ****         uint32_t child_cnt = lv_obj_get_child_cnt(obj);
 830:lvgl/src/core/lv_obj.c ****         for(i = 0; i < child_cnt; i++) {
 831:lvgl/src/core/lv_obj.c ****             lv_obj_t * child = obj->spec_attr->children[i];
 832:lvgl/src/core/lv_obj.c ****             lv_obj_mark_layout_as_dirty(child);
 833:lvgl/src/core/lv_obj.c ****         }
 834:lvgl/src/core/lv_obj.c ****     }
 835:lvgl/src/core/lv_obj.c ****     else if(code == LV_EVENT_CHILD_CHANGED) {
 836:lvgl/src/core/lv_obj.c ****         lv_coord_t w = lv_obj_get_style_width(obj, LV_PART_MAIN);
 837:lvgl/src/core/lv_obj.c ****         lv_coord_t h = lv_obj_get_style_height(obj, LV_PART_MAIN);
 838:lvgl/src/core/lv_obj.c ****         lv_coord_t align = lv_obj_get_style_align(obj, LV_PART_MAIN);
 839:lvgl/src/core/lv_obj.c ****         uint16_t layout = lv_obj_get_style_layout(obj, LV_PART_MAIN);
 840:lvgl/src/core/lv_obj.c ****         if(layout || align || w == LV_SIZE_CONTENT || h == LV_SIZE_CONTENT) {
 841:lvgl/src/core/lv_obj.c ****             lv_obj_mark_layout_as_dirty(obj);
 842:lvgl/src/core/lv_obj.c ****         }
 843:lvgl/src/core/lv_obj.c ****     }
 844:lvgl/src/core/lv_obj.c ****     else if(code == LV_EVENT_REFR_EXT_DRAW_SIZE) {
 845:lvgl/src/core/lv_obj.c ****         lv_coord_t * s = lv_event_get_param(e);
 846:lvgl/src/core/lv_obj.c ****         lv_coord_t d = lv_obj_calculate_ext_draw_size(obj, LV_PART_MAIN);
 847:lvgl/src/core/lv_obj.c ****         *s = LV_MAX(*s, d);
 848:lvgl/src/core/lv_obj.c ****     }
 849:lvgl/src/core/lv_obj.c ****     else if(code == LV_EVENT_DRAW_MAIN || code == LV_EVENT_DRAW_POST || code == LV_EVENT_COVER_CHEC
 850:lvgl/src/core/lv_obj.c ****         lv_obj_draw(e);
 851:lvgl/src/core/lv_obj.c ****     }
 852:lvgl/src/core/lv_obj.c **** }
 853:lvgl/src/core/lv_obj.c **** 
 854:lvgl/src/core/lv_obj.c **** /**
 855:lvgl/src/core/lv_obj.c ****  * Set the state (fully overwrite) of an object.
 856:lvgl/src/core/lv_obj.c ****  * If specified in the styles, transition animations will be started from the previous state to the
 857:lvgl/src/core/lv_obj.c ****  * @param obj       pointer to an object
 858:lvgl/src/core/lv_obj.c ****  * @param state     the new state
 859:lvgl/src/core/lv_obj.c ****  */
 860:lvgl/src/core/lv_obj.c **** static void lv_obj_set_state(lv_obj_t * obj, lv_state_t new_state)
 861:lvgl/src/core/lv_obj.c **** {
 862:lvgl/src/core/lv_obj.c ****     if(obj->state == new_state) return;
 863:lvgl/src/core/lv_obj.c **** 
 864:lvgl/src/core/lv_obj.c ****     LV_ASSERT_OBJ(obj, MY_CLASS);
 865:lvgl/src/core/lv_obj.c **** 
 866:lvgl/src/core/lv_obj.c ****     lv_state_t prev_state = obj->state;
 867:lvgl/src/core/lv_obj.c ****     obj->state = new_state;
 868:lvgl/src/core/lv_obj.c **** 
 869:lvgl/src/core/lv_obj.c ****     _lv_style_state_cmp_t cmp_res = _lv_obj_style_state_compare(obj, prev_state, new_state);
 870:lvgl/src/core/lv_obj.c ****     /*If there is no difference in styles there is nothing else to do*/
 871:lvgl/src/core/lv_obj.c ****     if(cmp_res == _LV_STYLE_STATE_CMP_SAME) return;
 872:lvgl/src/core/lv_obj.c **** 
 873:lvgl/src/core/lv_obj.c ****     _lv_obj_style_transition_dsc_t * ts = lv_mem_buf_get(sizeof(_lv_obj_style_transition_dsc_t) * S
 874:lvgl/src/core/lv_obj.c ****     lv_memset_00(ts, sizeof(_lv_obj_style_transition_dsc_t) * STYLE_TRANSITION_MAX);
 875:lvgl/src/core/lv_obj.c ****     uint32_t tsi = 0;
 876:lvgl/src/core/lv_obj.c ****     uint32_t i;
ARM GAS  C:\usertemp\ccIlwJXO.s 			page 28


 877:lvgl/src/core/lv_obj.c ****     for(i = 0; i < obj->style_cnt && tsi < STYLE_TRANSITION_MAX; i++) {
 878:lvgl/src/core/lv_obj.c ****         _lv_obj_style_t * obj_style = &obj->styles[i];
 879:lvgl/src/core/lv_obj.c ****         lv_state_t state_act = lv_obj_style_get_selector_state(obj->styles[i].selector);
 880:lvgl/src/core/lv_obj.c ****         lv_part_t part_act = lv_obj_style_get_selector_part(obj->styles[i].selector);
 881:lvgl/src/core/lv_obj.c ****         if(state_act & (~new_state)) continue; /*Skip unrelated styles*/
 882:lvgl/src/core/lv_obj.c ****         if(obj_style->is_trans) continue;
 883:lvgl/src/core/lv_obj.c **** 
 884:lvgl/src/core/lv_obj.c ****         lv_style_value_t v;
 885:lvgl/src/core/lv_obj.c ****         if(lv_style_get_prop_inlined(obj_style->style, LV_STYLE_TRANSITION, &v) == false) continue;
 886:lvgl/src/core/lv_obj.c ****         const lv_style_transition_dsc_t * tr = v.ptr;
 887:lvgl/src/core/lv_obj.c **** 
 888:lvgl/src/core/lv_obj.c ****         /*Add the props to the set if not added yet or added but with smaller weight*/
 889:lvgl/src/core/lv_obj.c ****         uint32_t j;
 890:lvgl/src/core/lv_obj.c ****         for(j = 0; tr->props[j] != 0 && tsi < STYLE_TRANSITION_MAX; j++) {
 891:lvgl/src/core/lv_obj.c ****             uint32_t t;
 892:lvgl/src/core/lv_obj.c ****             for(t = 0; t < tsi; t++) {
 893:lvgl/src/core/lv_obj.c ****                 lv_style_selector_t selector = ts[t].selector;
 894:lvgl/src/core/lv_obj.c ****                 lv_state_t state_ts = lv_obj_style_get_selector_state(selector);
 895:lvgl/src/core/lv_obj.c ****                 lv_part_t part_ts = lv_obj_style_get_selector_part(selector);
 896:lvgl/src/core/lv_obj.c ****                 if(ts[t].prop == tr->props[j] && part_ts == part_act && state_ts >= state_act) brea
 897:lvgl/src/core/lv_obj.c ****             }
 898:lvgl/src/core/lv_obj.c **** 
 899:lvgl/src/core/lv_obj.c ****             /*If not found  add it*/
 900:lvgl/src/core/lv_obj.c ****             if(t == tsi) {
 901:lvgl/src/core/lv_obj.c ****                 ts[tsi].time = tr->time;
 902:lvgl/src/core/lv_obj.c ****                 ts[tsi].delay = tr->delay;
 903:lvgl/src/core/lv_obj.c ****                 ts[tsi].path_cb = tr->path_xcb;
 904:lvgl/src/core/lv_obj.c ****                 ts[tsi].prop = tr->props[j];
 905:lvgl/src/core/lv_obj.c **** #if LV_USE_USER_DATA
 906:lvgl/src/core/lv_obj.c ****                 ts[tsi].user_data = tr->user_data;
 907:lvgl/src/core/lv_obj.c **** #endif
 908:lvgl/src/core/lv_obj.c ****                 ts[tsi].selector = obj_style->selector;
 909:lvgl/src/core/lv_obj.c ****                 tsi++;
 910:lvgl/src/core/lv_obj.c ****             }
 911:lvgl/src/core/lv_obj.c ****         }
 912:lvgl/src/core/lv_obj.c ****     }
 913:lvgl/src/core/lv_obj.c **** 
 914:lvgl/src/core/lv_obj.c ****     for(i = 0; i < tsi; i++) {
 915:lvgl/src/core/lv_obj.c ****         lv_part_t part_act = lv_obj_style_get_selector_part(ts[i].selector);
 916:lvgl/src/core/lv_obj.c ****         _lv_obj_style_create_transition(obj, part_act, prev_state, new_state, &ts[i]);
 917:lvgl/src/core/lv_obj.c ****     }
 918:lvgl/src/core/lv_obj.c **** 
 919:lvgl/src/core/lv_obj.c ****     lv_mem_buf_release(ts);
 920:lvgl/src/core/lv_obj.c **** 
 921:lvgl/src/core/lv_obj.c ****     if(cmp_res == _LV_STYLE_STATE_CMP_DIFF_REDRAW) {
 922:lvgl/src/core/lv_obj.c ****         lv_obj_invalidate(obj);
 923:lvgl/src/core/lv_obj.c ****     }
 924:lvgl/src/core/lv_obj.c ****     else if(cmp_res == _LV_STYLE_STATE_CMP_DIFF_LAYOUT) {
 925:lvgl/src/core/lv_obj.c ****         lv_obj_refresh_style(obj, LV_PART_ANY, LV_STYLE_PROP_ANY);
 926:lvgl/src/core/lv_obj.c ****     }
 927:lvgl/src/core/lv_obj.c ****     else if(cmp_res == _LV_STYLE_STATE_CMP_DIFF_DRAW_PAD) {
 928:lvgl/src/core/lv_obj.c ****         lv_obj_invalidate(obj);
 929:lvgl/src/core/lv_obj.c ****         lv_obj_refresh_ext_draw_size(obj);
 930:lvgl/src/core/lv_obj.c ****     }
 931:lvgl/src/core/lv_obj.c **** }
 932:lvgl/src/core/lv_obj.c **** 
 933:lvgl/src/core/lv_obj.c **** static bool obj_valid_child(const lv_obj_t * parent, const lv_obj_t * obj_to_find)
ARM GAS  C:\usertemp\ccIlwJXO.s 			page 29


 934:lvgl/src/core/lv_obj.c **** {
 209              		.loc 1 934 1 is_stmt 1 view -0
 210              		.cfi_startproc
 211              		@ args = 0, pretend = 0, frame = 0
 212              		@ frame_needed = 0, uses_anonymous_args = 0
 213              		.loc 1 934 1 is_stmt 0 view .LVU64
 214 0000 F8B5     		push	{r3, r4, r5, r6, r7, lr}
 215              	.LCFI4:
 216              		.cfi_def_cfa_offset 24
 217              		.cfi_offset 3, -24
 218              		.cfi_offset 4, -20
 219              		.cfi_offset 5, -16
 220              		.cfi_offset 6, -12
 221              		.cfi_offset 7, -8
 222              		.cfi_offset 14, -4
 223 0002 0546     		mov	r5, r0
 224 0004 0E46     		mov	r6, r1
 935:lvgl/src/core/lv_obj.c ****     /*Check all children of `parent`*/
 936:lvgl/src/core/lv_obj.c ****     uint32_t child_cnt = 0;
 225              		.loc 1 936 5 is_stmt 1 view .LVU65
 226              	.LVL19:
 937:lvgl/src/core/lv_obj.c ****     if(parent->spec_attr) child_cnt = parent->spec_attr->child_cnt;
 227              		.loc 1 937 5 view .LVU66
 228              		.loc 1 937 14 is_stmt 0 view .LVU67
 229 0006 8368     		ldr	r3, [r0, #8]
 230              		.loc 1 937 7 view .LVU68
 231 0008 13B1     		cbz	r3, .L27
 232              		.loc 1 937 27 is_stmt 1 discriminator 1 view .LVU69
 233              		.loc 1 937 37 is_stmt 0 discriminator 1 view .LVU70
 234 000a 5F68     		ldr	r7, [r3, #4]
 235              	.LVL20:
 236              	.L23:
 938:lvgl/src/core/lv_obj.c ****     uint32_t i;
 237              		.loc 1 938 5 is_stmt 1 view .LVU71
 939:lvgl/src/core/lv_obj.c ****     for(i = 0; i < child_cnt; i++) {
 238              		.loc 1 939 5 view .LVU72
 239              		.loc 1 939 11 is_stmt 0 view .LVU73
 240 000c 0024     		movs	r4, #0
 241              		.loc 1 939 5 view .LVU74
 242 000e 02E0     		b	.L24
 243              	.LVL21:
 244              	.L27:
 936:lvgl/src/core/lv_obj.c ****     if(parent->spec_attr) child_cnt = parent->spec_attr->child_cnt;
 245              		.loc 1 936 14 view .LVU75
 246 0010 0027     		movs	r7, #0
 247 0012 FBE7     		b	.L23
 248              	.LVL22:
 249              	.L31:
 250              		.loc 1 939 32 is_stmt 1 discriminator 2 view .LVU76
 251 0014 0134     		adds	r4, r4, #1
 252              	.LVL23:
 253              	.L24:
 254              		.loc 1 939 18 discriminator 1 view .LVU77
 255 0016 A742     		cmp	r7, r4
 256 0018 0BD9     		bls	.L30
 257              	.LBB103:
 940:lvgl/src/core/lv_obj.c ****         lv_obj_t * child = parent->spec_attr->children[i];
ARM GAS  C:\usertemp\ccIlwJXO.s 			page 30


 258              		.loc 1 940 9 view .LVU78
 259              		.loc 1 940 34 is_stmt 0 view .LVU79
 260 001a AB68     		ldr	r3, [r5, #8]
 261              		.loc 1 940 45 view .LVU80
 262 001c 1B68     		ldr	r3, [r3]
 263              		.loc 1 940 20 view .LVU81
 264 001e 53F82400 		ldr	r0, [r3, r4, lsl #2]
 265              	.LVL24:
 941:lvgl/src/core/lv_obj.c ****         if(child == obj_to_find) {
 266              		.loc 1 941 9 is_stmt 1 view .LVU82
 267              		.loc 1 941 11 is_stmt 0 view .LVU83
 268 0022 B042     		cmp	r0, r6
 269 0024 07D0     		beq	.L28
 942:lvgl/src/core/lv_obj.c ****             return true;
 943:lvgl/src/core/lv_obj.c ****         }
 944:lvgl/src/core/lv_obj.c **** 
 945:lvgl/src/core/lv_obj.c ****         /*Check the children*/
 946:lvgl/src/core/lv_obj.c ****         bool found = obj_valid_child(child, obj_to_find);
 270              		.loc 1 946 9 is_stmt 1 view .LVU84
 271              		.loc 1 946 22 is_stmt 0 view .LVU85
 272 0026 3146     		mov	r1, r6
 273 0028 FFF7EAFF 		bl	obj_valid_child
 274              	.LVL25:
 947:lvgl/src/core/lv_obj.c ****         if(found) {
 275              		.loc 1 947 9 is_stmt 1 view .LVU86
 276              		.loc 1 947 11 is_stmt 0 view .LVU87
 277 002c 0028     		cmp	r0, #0
 278 002e F1D0     		beq	.L31
 279 0030 00E0     		b	.L25
 280              	.LVL26:
 281              	.L30:
 282              		.loc 1 947 11 view .LVU88
 283              	.LBE103:
 948:lvgl/src/core/lv_obj.c ****             return true;
 949:lvgl/src/core/lv_obj.c ****         }
 950:lvgl/src/core/lv_obj.c ****     }
 951:lvgl/src/core/lv_obj.c ****     return false;
 284              		.loc 1 951 12 view .LVU89
 285 0032 0020     		movs	r0, #0
 286              	.L25:
 952:lvgl/src/core/lv_obj.c **** }
 287              		.loc 1 952 1 view .LVU90
 288 0034 F8BD     		pop	{r3, r4, r5, r6, r7, pc}
 289              	.LVL27:
 290              	.L28:
 291              	.LBB104:
 942:lvgl/src/core/lv_obj.c ****         }
 292              		.loc 1 942 20 view .LVU91
 293 0036 0120     		movs	r0, #1
 294              	.LVL28:
 942:lvgl/src/core/lv_obj.c ****         }
 295              		.loc 1 942 20 view .LVU92
 296 0038 FCE7     		b	.L25
 297              	.LBE104:
 298              		.cfi_endproc
 299              	.LFE187:
 301              		.section	.text.scrollbar_init_draw_dsc,"ax",%progbits
ARM GAS  C:\usertemp\ccIlwJXO.s 			page 31


 302              		.align	1
 303              		.syntax unified
 304              		.thumb
 305              		.thumb_func
 307              	scrollbar_init_draw_dsc:
 308              	.LVL29:
 309              	.LFB184:
 653:lvgl/src/core/lv_obj.c ****     lv_draw_rect_dsc_init(dsc);
 310              		.loc 1 653 1 is_stmt 1 view -0
 311              		.cfi_startproc
 312              		@ args = 0, pretend = 0, frame = 0
 313              		@ frame_needed = 0, uses_anonymous_args = 0
 653:lvgl/src/core/lv_obj.c ****     lv_draw_rect_dsc_init(dsc);
 314              		.loc 1 653 1 is_stmt 0 view .LVU94
 315 0000 38B5     		push	{r3, r4, r5, lr}
 316              	.LCFI5:
 317              		.cfi_def_cfa_offset 16
 318              		.cfi_offset 3, -16
 319              		.cfi_offset 4, -12
 320              		.cfi_offset 5, -8
 321              		.cfi_offset 14, -4
 322 0002 0546     		mov	r5, r0
 323 0004 0C46     		mov	r4, r1
 654:lvgl/src/core/lv_obj.c ****     dsc->bg_opa = lv_obj_get_style_bg_opa(obj, LV_PART_SCROLLBAR);
 324              		.loc 1 654 5 is_stmt 1 view .LVU95
 325 0006 0846     		mov	r0, r1
 326              	.LVL30:
 654:lvgl/src/core/lv_obj.c ****     dsc->bg_opa = lv_obj_get_style_bg_opa(obj, LV_PART_SCROLLBAR);
 327              		.loc 1 654 5 is_stmt 0 view .LVU96
 328 0008 FFF7FEFF 		bl	lv_draw_rect_dsc_init
 329              	.LVL31:
 655:lvgl/src/core/lv_obj.c ****     if(dsc->bg_opa > LV_OPA_MIN) {
 330              		.loc 1 655 5 is_stmt 1 view .LVU97
 331              	.LBB105:
 332              	.LBI105:
 333              		.file 3 "lvgl/src/core/lv_obj_style_gen.h"
   1:lvgl/src/core/lv_obj_style_gen.h **** static inline lv_coord_t lv_obj_get_style_width(const struct _lv_obj_t * obj, uint32_t part)
   2:lvgl/src/core/lv_obj_style_gen.h **** {
   3:lvgl/src/core/lv_obj_style_gen.h ****     lv_style_value_t v = lv_obj_get_style_prop(obj, part, LV_STYLE_WIDTH);
   4:lvgl/src/core/lv_obj_style_gen.h ****     return (lv_coord_t)v.num;
   5:lvgl/src/core/lv_obj_style_gen.h **** }
   6:lvgl/src/core/lv_obj_style_gen.h **** 
   7:lvgl/src/core/lv_obj_style_gen.h **** static inline lv_coord_t lv_obj_get_style_min_width(const struct _lv_obj_t * obj, uint32_t part)
   8:lvgl/src/core/lv_obj_style_gen.h **** {
   9:lvgl/src/core/lv_obj_style_gen.h ****     lv_style_value_t v = lv_obj_get_style_prop(obj, part, LV_STYLE_MIN_WIDTH);
  10:lvgl/src/core/lv_obj_style_gen.h ****     return (lv_coord_t)v.num;
  11:lvgl/src/core/lv_obj_style_gen.h **** }
  12:lvgl/src/core/lv_obj_style_gen.h **** 
  13:lvgl/src/core/lv_obj_style_gen.h **** static inline lv_coord_t lv_obj_get_style_max_width(const struct _lv_obj_t * obj, uint32_t part)
  14:lvgl/src/core/lv_obj_style_gen.h **** {
  15:lvgl/src/core/lv_obj_style_gen.h ****     lv_style_value_t v = lv_obj_get_style_prop(obj, part, LV_STYLE_MAX_WIDTH);
  16:lvgl/src/core/lv_obj_style_gen.h ****     return (lv_coord_t)v.num;
  17:lvgl/src/core/lv_obj_style_gen.h **** }
  18:lvgl/src/core/lv_obj_style_gen.h **** 
  19:lvgl/src/core/lv_obj_style_gen.h **** static inline lv_coord_t lv_obj_get_style_height(const struct _lv_obj_t * obj, uint32_t part)
  20:lvgl/src/core/lv_obj_style_gen.h **** {
  21:lvgl/src/core/lv_obj_style_gen.h ****     lv_style_value_t v = lv_obj_get_style_prop(obj, part, LV_STYLE_HEIGHT);
ARM GAS  C:\usertemp\ccIlwJXO.s 			page 32


  22:lvgl/src/core/lv_obj_style_gen.h ****     return (lv_coord_t)v.num;
  23:lvgl/src/core/lv_obj_style_gen.h **** }
  24:lvgl/src/core/lv_obj_style_gen.h **** 
  25:lvgl/src/core/lv_obj_style_gen.h **** static inline lv_coord_t lv_obj_get_style_min_height(const struct _lv_obj_t * obj, uint32_t part)
  26:lvgl/src/core/lv_obj_style_gen.h **** {
  27:lvgl/src/core/lv_obj_style_gen.h ****     lv_style_value_t v = lv_obj_get_style_prop(obj, part, LV_STYLE_MIN_HEIGHT);
  28:lvgl/src/core/lv_obj_style_gen.h ****     return (lv_coord_t)v.num;
  29:lvgl/src/core/lv_obj_style_gen.h **** }
  30:lvgl/src/core/lv_obj_style_gen.h **** 
  31:lvgl/src/core/lv_obj_style_gen.h **** static inline lv_coord_t lv_obj_get_style_max_height(const struct _lv_obj_t * obj, uint32_t part)
  32:lvgl/src/core/lv_obj_style_gen.h **** {
  33:lvgl/src/core/lv_obj_style_gen.h ****     lv_style_value_t v = lv_obj_get_style_prop(obj, part, LV_STYLE_MAX_HEIGHT);
  34:lvgl/src/core/lv_obj_style_gen.h ****     return (lv_coord_t)v.num;
  35:lvgl/src/core/lv_obj_style_gen.h **** }
  36:lvgl/src/core/lv_obj_style_gen.h **** 
  37:lvgl/src/core/lv_obj_style_gen.h **** static inline lv_coord_t lv_obj_get_style_x(const struct _lv_obj_t * obj, uint32_t part)
  38:lvgl/src/core/lv_obj_style_gen.h **** {
  39:lvgl/src/core/lv_obj_style_gen.h ****     lv_style_value_t v = lv_obj_get_style_prop(obj, part, LV_STYLE_X);
  40:lvgl/src/core/lv_obj_style_gen.h ****     return (lv_coord_t)v.num;
  41:lvgl/src/core/lv_obj_style_gen.h **** }
  42:lvgl/src/core/lv_obj_style_gen.h **** 
  43:lvgl/src/core/lv_obj_style_gen.h **** static inline lv_coord_t lv_obj_get_style_y(const struct _lv_obj_t * obj, uint32_t part)
  44:lvgl/src/core/lv_obj_style_gen.h **** {
  45:lvgl/src/core/lv_obj_style_gen.h ****     lv_style_value_t v = lv_obj_get_style_prop(obj, part, LV_STYLE_Y);
  46:lvgl/src/core/lv_obj_style_gen.h ****     return (lv_coord_t)v.num;
  47:lvgl/src/core/lv_obj_style_gen.h **** }
  48:lvgl/src/core/lv_obj_style_gen.h **** 
  49:lvgl/src/core/lv_obj_style_gen.h **** static inline lv_align_t lv_obj_get_style_align(const struct _lv_obj_t * obj, uint32_t part)
  50:lvgl/src/core/lv_obj_style_gen.h **** {
  51:lvgl/src/core/lv_obj_style_gen.h ****     lv_style_value_t v = lv_obj_get_style_prop(obj, part, LV_STYLE_ALIGN);
  52:lvgl/src/core/lv_obj_style_gen.h ****     return (lv_align_t)v.num;
  53:lvgl/src/core/lv_obj_style_gen.h **** }
  54:lvgl/src/core/lv_obj_style_gen.h **** 
  55:lvgl/src/core/lv_obj_style_gen.h **** static inline lv_coord_t lv_obj_get_style_transform_width(const struct _lv_obj_t * obj, uint32_t pa
  56:lvgl/src/core/lv_obj_style_gen.h **** {
  57:lvgl/src/core/lv_obj_style_gen.h ****     lv_style_value_t v = lv_obj_get_style_prop(obj, part, LV_STYLE_TRANSFORM_WIDTH);
  58:lvgl/src/core/lv_obj_style_gen.h ****     return (lv_coord_t)v.num;
  59:lvgl/src/core/lv_obj_style_gen.h **** }
  60:lvgl/src/core/lv_obj_style_gen.h **** 
  61:lvgl/src/core/lv_obj_style_gen.h **** static inline lv_coord_t lv_obj_get_style_transform_height(const struct _lv_obj_t * obj, uint32_t p
  62:lvgl/src/core/lv_obj_style_gen.h **** {
  63:lvgl/src/core/lv_obj_style_gen.h ****     lv_style_value_t v = lv_obj_get_style_prop(obj, part, LV_STYLE_TRANSFORM_HEIGHT);
  64:lvgl/src/core/lv_obj_style_gen.h ****     return (lv_coord_t)v.num;
  65:lvgl/src/core/lv_obj_style_gen.h **** }
  66:lvgl/src/core/lv_obj_style_gen.h **** 
  67:lvgl/src/core/lv_obj_style_gen.h **** static inline lv_coord_t lv_obj_get_style_translate_x(const struct _lv_obj_t * obj, uint32_t part)
  68:lvgl/src/core/lv_obj_style_gen.h **** {
  69:lvgl/src/core/lv_obj_style_gen.h ****     lv_style_value_t v = lv_obj_get_style_prop(obj, part, LV_STYLE_TRANSLATE_X);
  70:lvgl/src/core/lv_obj_style_gen.h ****     return (lv_coord_t)v.num;
  71:lvgl/src/core/lv_obj_style_gen.h **** }
  72:lvgl/src/core/lv_obj_style_gen.h **** 
  73:lvgl/src/core/lv_obj_style_gen.h **** static inline lv_coord_t lv_obj_get_style_translate_y(const struct _lv_obj_t * obj, uint32_t part)
  74:lvgl/src/core/lv_obj_style_gen.h **** {
  75:lvgl/src/core/lv_obj_style_gen.h ****     lv_style_value_t v = lv_obj_get_style_prop(obj, part, LV_STYLE_TRANSLATE_Y);
  76:lvgl/src/core/lv_obj_style_gen.h ****     return (lv_coord_t)v.num;
  77:lvgl/src/core/lv_obj_style_gen.h **** }
  78:lvgl/src/core/lv_obj_style_gen.h **** 
ARM GAS  C:\usertemp\ccIlwJXO.s 			page 33


  79:lvgl/src/core/lv_obj_style_gen.h **** static inline lv_coord_t lv_obj_get_style_transform_zoom(const struct _lv_obj_t * obj, uint32_t par
  80:lvgl/src/core/lv_obj_style_gen.h **** {
  81:lvgl/src/core/lv_obj_style_gen.h ****     lv_style_value_t v = lv_obj_get_style_prop(obj, part, LV_STYLE_TRANSFORM_ZOOM);
  82:lvgl/src/core/lv_obj_style_gen.h ****     return (lv_coord_t)v.num;
  83:lvgl/src/core/lv_obj_style_gen.h **** }
  84:lvgl/src/core/lv_obj_style_gen.h **** 
  85:lvgl/src/core/lv_obj_style_gen.h **** static inline lv_coord_t lv_obj_get_style_transform_angle(const struct _lv_obj_t * obj, uint32_t pa
  86:lvgl/src/core/lv_obj_style_gen.h **** {
  87:lvgl/src/core/lv_obj_style_gen.h ****     lv_style_value_t v = lv_obj_get_style_prop(obj, part, LV_STYLE_TRANSFORM_ANGLE);
  88:lvgl/src/core/lv_obj_style_gen.h ****     return (lv_coord_t)v.num;
  89:lvgl/src/core/lv_obj_style_gen.h **** }
  90:lvgl/src/core/lv_obj_style_gen.h **** 
  91:lvgl/src/core/lv_obj_style_gen.h **** static inline lv_coord_t lv_obj_get_style_pad_top(const struct _lv_obj_t * obj, uint32_t part)
  92:lvgl/src/core/lv_obj_style_gen.h **** {
  93:lvgl/src/core/lv_obj_style_gen.h ****     lv_style_value_t v = lv_obj_get_style_prop(obj, part, LV_STYLE_PAD_TOP);
  94:lvgl/src/core/lv_obj_style_gen.h ****     return (lv_coord_t)v.num;
  95:lvgl/src/core/lv_obj_style_gen.h **** }
  96:lvgl/src/core/lv_obj_style_gen.h **** 
  97:lvgl/src/core/lv_obj_style_gen.h **** static inline lv_coord_t lv_obj_get_style_pad_bottom(const struct _lv_obj_t * obj, uint32_t part)
  98:lvgl/src/core/lv_obj_style_gen.h **** {
  99:lvgl/src/core/lv_obj_style_gen.h ****     lv_style_value_t v = lv_obj_get_style_prop(obj, part, LV_STYLE_PAD_BOTTOM);
 100:lvgl/src/core/lv_obj_style_gen.h ****     return (lv_coord_t)v.num;
 101:lvgl/src/core/lv_obj_style_gen.h **** }
 102:lvgl/src/core/lv_obj_style_gen.h **** 
 103:lvgl/src/core/lv_obj_style_gen.h **** static inline lv_coord_t lv_obj_get_style_pad_left(const struct _lv_obj_t * obj, uint32_t part)
 104:lvgl/src/core/lv_obj_style_gen.h **** {
 105:lvgl/src/core/lv_obj_style_gen.h ****     lv_style_value_t v = lv_obj_get_style_prop(obj, part, LV_STYLE_PAD_LEFT);
 106:lvgl/src/core/lv_obj_style_gen.h ****     return (lv_coord_t)v.num;
 107:lvgl/src/core/lv_obj_style_gen.h **** }
 108:lvgl/src/core/lv_obj_style_gen.h **** 
 109:lvgl/src/core/lv_obj_style_gen.h **** static inline lv_coord_t lv_obj_get_style_pad_right(const struct _lv_obj_t * obj, uint32_t part)
 110:lvgl/src/core/lv_obj_style_gen.h **** {
 111:lvgl/src/core/lv_obj_style_gen.h ****     lv_style_value_t v = lv_obj_get_style_prop(obj, part, LV_STYLE_PAD_RIGHT);
 112:lvgl/src/core/lv_obj_style_gen.h ****     return (lv_coord_t)v.num;
 113:lvgl/src/core/lv_obj_style_gen.h **** }
 114:lvgl/src/core/lv_obj_style_gen.h **** 
 115:lvgl/src/core/lv_obj_style_gen.h **** static inline lv_coord_t lv_obj_get_style_pad_row(const struct _lv_obj_t * obj, uint32_t part)
 116:lvgl/src/core/lv_obj_style_gen.h **** {
 117:lvgl/src/core/lv_obj_style_gen.h ****     lv_style_value_t v = lv_obj_get_style_prop(obj, part, LV_STYLE_PAD_ROW);
 118:lvgl/src/core/lv_obj_style_gen.h ****     return (lv_coord_t)v.num;
 119:lvgl/src/core/lv_obj_style_gen.h **** }
 120:lvgl/src/core/lv_obj_style_gen.h **** 
 121:lvgl/src/core/lv_obj_style_gen.h **** static inline lv_coord_t lv_obj_get_style_pad_column(const struct _lv_obj_t * obj, uint32_t part)
 122:lvgl/src/core/lv_obj_style_gen.h **** {
 123:lvgl/src/core/lv_obj_style_gen.h ****     lv_style_value_t v = lv_obj_get_style_prop(obj, part, LV_STYLE_PAD_COLUMN);
 124:lvgl/src/core/lv_obj_style_gen.h ****     return (lv_coord_t)v.num;
 125:lvgl/src/core/lv_obj_style_gen.h **** }
 126:lvgl/src/core/lv_obj_style_gen.h **** 
 127:lvgl/src/core/lv_obj_style_gen.h **** static inline lv_color_t lv_obj_get_style_bg_color(const struct _lv_obj_t * obj, uint32_t part)
 128:lvgl/src/core/lv_obj_style_gen.h **** {
 129:lvgl/src/core/lv_obj_style_gen.h ****     lv_style_value_t v = lv_obj_get_style_prop(obj, part, LV_STYLE_BG_COLOR);
 130:lvgl/src/core/lv_obj_style_gen.h ****     return v.color;
 131:lvgl/src/core/lv_obj_style_gen.h **** }
 132:lvgl/src/core/lv_obj_style_gen.h **** 
 133:lvgl/src/core/lv_obj_style_gen.h **** static inline lv_color_t lv_obj_get_style_bg_color_filtered(const struct _lv_obj_t * obj, uint32_t 
 134:lvgl/src/core/lv_obj_style_gen.h **** {
 135:lvgl/src/core/lv_obj_style_gen.h ****     lv_style_value_t v = lv_obj_get_style_prop(obj, part, LV_STYLE_BG_COLOR_FILTERED);
ARM GAS  C:\usertemp\ccIlwJXO.s 			page 34


 136:lvgl/src/core/lv_obj_style_gen.h ****     return v.color;
 137:lvgl/src/core/lv_obj_style_gen.h **** }
 138:lvgl/src/core/lv_obj_style_gen.h **** 
 139:lvgl/src/core/lv_obj_style_gen.h **** static inline lv_opa_t lv_obj_get_style_bg_opa(const struct _lv_obj_t * obj, uint32_t part)
 334              		.loc 3 139 24 view .LVU98
 335              	.LBB106:
 140:lvgl/src/core/lv_obj_style_gen.h **** {
 141:lvgl/src/core/lv_obj_style_gen.h ****     lv_style_value_t v = lv_obj_get_style_prop(obj, part, LV_STYLE_BG_OPA);
 336              		.loc 3 141 5 view .LVU99
 337              		.loc 3 141 26 is_stmt 0 view .LVU100
 338 000c 2122     		movs	r2, #33
 339 000e 4FF48031 		mov	r1, #65536
 340 0012 2846     		mov	r0, r5
 341 0014 FFF7FEFF 		bl	lv_obj_get_style_prop
 342              	.LVL32:
 142:lvgl/src/core/lv_obj_style_gen.h ****     return (lv_opa_t)v.num;
 343              		.loc 3 142 5 is_stmt 1 view .LVU101
 344              		.loc 3 142 12 is_stmt 0 view .LVU102
 345 0018 C0B2     		uxtb	r0, r0
 346              	.LVL33:
 347              		.loc 3 142 12 view .LVU103
 348              	.LBE106:
 349              	.LBE105:
 655:lvgl/src/core/lv_obj.c ****     if(dsc->bg_opa > LV_OPA_MIN) {
 350              		.loc 1 655 17 discriminator 1 view .LVU104
 351 001a E070     		strb	r0, [r4, #3]
 656:lvgl/src/core/lv_obj.c ****         dsc->bg_color = lv_obj_get_style_bg_color(obj, LV_PART_SCROLLBAR);
 352              		.loc 1 656 5 is_stmt 1 view .LVU105
 656:lvgl/src/core/lv_obj.c ****         dsc->bg_color = lv_obj_get_style_bg_color(obj, LV_PART_SCROLLBAR);
 353              		.loc 1 656 7 is_stmt 0 view .LVU106
 354 001c 0228     		cmp	r0, #2
 355 001e 3ED8     		bhi	.L42
 356              	.L33:
 660:lvgl/src/core/lv_obj.c ****     if(dsc->border_opa > LV_OPA_MIN) {
 357              		.loc 1 660 5 is_stmt 1 view .LVU107
 358              	.LVL34:
 359              	.LBB107:
 360              	.LBI107:
 143:lvgl/src/core/lv_obj_style_gen.h **** }
 144:lvgl/src/core/lv_obj_style_gen.h **** 
 145:lvgl/src/core/lv_obj_style_gen.h **** static inline lv_color_t lv_obj_get_style_bg_grad_color(const struct _lv_obj_t * obj, uint32_t part
 146:lvgl/src/core/lv_obj_style_gen.h **** {
 147:lvgl/src/core/lv_obj_style_gen.h ****     lv_style_value_t v = lv_obj_get_style_prop(obj, part, LV_STYLE_BG_GRAD_COLOR);
 148:lvgl/src/core/lv_obj_style_gen.h ****     return v.color;
 149:lvgl/src/core/lv_obj_style_gen.h **** }
 150:lvgl/src/core/lv_obj_style_gen.h **** 
 151:lvgl/src/core/lv_obj_style_gen.h **** static inline lv_color_t lv_obj_get_style_bg_grad_color_filtered(const struct _lv_obj_t * obj, uint
 152:lvgl/src/core/lv_obj_style_gen.h **** {
 153:lvgl/src/core/lv_obj_style_gen.h ****     lv_style_value_t v = lv_obj_get_style_prop(obj, part, LV_STYLE_BG_GRAD_COLOR_FILTERED);
 154:lvgl/src/core/lv_obj_style_gen.h ****     return v.color;
 155:lvgl/src/core/lv_obj_style_gen.h **** }
 156:lvgl/src/core/lv_obj_style_gen.h **** 
 157:lvgl/src/core/lv_obj_style_gen.h **** static inline lv_grad_dir_t lv_obj_get_style_bg_grad_dir(const struct _lv_obj_t * obj, uint32_t par
 158:lvgl/src/core/lv_obj_style_gen.h **** {
 159:lvgl/src/core/lv_obj_style_gen.h ****     lv_style_value_t v = lv_obj_get_style_prop(obj, part, LV_STYLE_BG_GRAD_DIR);
 160:lvgl/src/core/lv_obj_style_gen.h ****     return (lv_grad_dir_t)v.num;
 161:lvgl/src/core/lv_obj_style_gen.h **** }
ARM GAS  C:\usertemp\ccIlwJXO.s 			page 35


 162:lvgl/src/core/lv_obj_style_gen.h **** 
 163:lvgl/src/core/lv_obj_style_gen.h **** static inline lv_coord_t lv_obj_get_style_bg_main_stop(const struct _lv_obj_t * obj, uint32_t part)
 164:lvgl/src/core/lv_obj_style_gen.h **** {
 165:lvgl/src/core/lv_obj_style_gen.h ****     lv_style_value_t v = lv_obj_get_style_prop(obj, part, LV_STYLE_BG_MAIN_STOP);
 166:lvgl/src/core/lv_obj_style_gen.h ****     return (lv_coord_t)v.num;
 167:lvgl/src/core/lv_obj_style_gen.h **** }
 168:lvgl/src/core/lv_obj_style_gen.h **** 
 169:lvgl/src/core/lv_obj_style_gen.h **** static inline lv_coord_t lv_obj_get_style_bg_grad_stop(const struct _lv_obj_t * obj, uint32_t part)
 170:lvgl/src/core/lv_obj_style_gen.h **** {
 171:lvgl/src/core/lv_obj_style_gen.h ****     lv_style_value_t v = lv_obj_get_style_prop(obj, part, LV_STYLE_BG_GRAD_STOP);
 172:lvgl/src/core/lv_obj_style_gen.h ****     return (lv_coord_t)v.num;
 173:lvgl/src/core/lv_obj_style_gen.h **** }
 174:lvgl/src/core/lv_obj_style_gen.h **** 
 175:lvgl/src/core/lv_obj_style_gen.h **** static inline const lv_grad_dsc_t * lv_obj_get_style_bg_grad(const struct _lv_obj_t * obj, uint32_t
 176:lvgl/src/core/lv_obj_style_gen.h **** {
 177:lvgl/src/core/lv_obj_style_gen.h ****     lv_style_value_t v = lv_obj_get_style_prop(obj, part, LV_STYLE_BG_GRAD);
 178:lvgl/src/core/lv_obj_style_gen.h ****     return (const lv_grad_dsc_t *)v.ptr;
 179:lvgl/src/core/lv_obj_style_gen.h **** }
 180:lvgl/src/core/lv_obj_style_gen.h **** 
 181:lvgl/src/core/lv_obj_style_gen.h **** static inline lv_dither_mode_t lv_obj_get_style_bg_dither_mode(const struct _lv_obj_t * obj, uint32
 182:lvgl/src/core/lv_obj_style_gen.h **** {
 183:lvgl/src/core/lv_obj_style_gen.h ****     lv_style_value_t v = lv_obj_get_style_prop(obj, part, LV_STYLE_BG_DITHER_MODE);
 184:lvgl/src/core/lv_obj_style_gen.h ****     return (lv_dither_mode_t)v.num;
 185:lvgl/src/core/lv_obj_style_gen.h **** }
 186:lvgl/src/core/lv_obj_style_gen.h **** 
 187:lvgl/src/core/lv_obj_style_gen.h **** static inline const void * lv_obj_get_style_bg_img_src(const struct _lv_obj_t * obj, uint32_t part)
 188:lvgl/src/core/lv_obj_style_gen.h **** {
 189:lvgl/src/core/lv_obj_style_gen.h ****     lv_style_value_t v = lv_obj_get_style_prop(obj, part, LV_STYLE_BG_IMG_SRC);
 190:lvgl/src/core/lv_obj_style_gen.h ****     return (const void *)v.ptr;
 191:lvgl/src/core/lv_obj_style_gen.h **** }
 192:lvgl/src/core/lv_obj_style_gen.h **** 
 193:lvgl/src/core/lv_obj_style_gen.h **** static inline lv_opa_t lv_obj_get_style_bg_img_opa(const struct _lv_obj_t * obj, uint32_t part)
 194:lvgl/src/core/lv_obj_style_gen.h **** {
 195:lvgl/src/core/lv_obj_style_gen.h ****     lv_style_value_t v = lv_obj_get_style_prop(obj, part, LV_STYLE_BG_IMG_OPA);
 196:lvgl/src/core/lv_obj_style_gen.h ****     return (lv_opa_t)v.num;
 197:lvgl/src/core/lv_obj_style_gen.h **** }
 198:lvgl/src/core/lv_obj_style_gen.h **** 
 199:lvgl/src/core/lv_obj_style_gen.h **** static inline lv_color_t lv_obj_get_style_bg_img_recolor(const struct _lv_obj_t * obj, uint32_t par
 200:lvgl/src/core/lv_obj_style_gen.h **** {
 201:lvgl/src/core/lv_obj_style_gen.h ****     lv_style_value_t v = lv_obj_get_style_prop(obj, part, LV_STYLE_BG_IMG_RECOLOR);
 202:lvgl/src/core/lv_obj_style_gen.h ****     return v.color;
 203:lvgl/src/core/lv_obj_style_gen.h **** }
 204:lvgl/src/core/lv_obj_style_gen.h **** 
 205:lvgl/src/core/lv_obj_style_gen.h **** static inline lv_color_t lv_obj_get_style_bg_img_recolor_filtered(const struct _lv_obj_t * obj, uin
 206:lvgl/src/core/lv_obj_style_gen.h **** {
 207:lvgl/src/core/lv_obj_style_gen.h ****     lv_style_value_t v = lv_obj_get_style_prop(obj, part, LV_STYLE_BG_IMG_RECOLOR_FILTERED);
 208:lvgl/src/core/lv_obj_style_gen.h ****     return v.color;
 209:lvgl/src/core/lv_obj_style_gen.h **** }
 210:lvgl/src/core/lv_obj_style_gen.h **** 
 211:lvgl/src/core/lv_obj_style_gen.h **** static inline lv_opa_t lv_obj_get_style_bg_img_recolor_opa(const struct _lv_obj_t * obj, uint32_t p
 212:lvgl/src/core/lv_obj_style_gen.h **** {
 213:lvgl/src/core/lv_obj_style_gen.h ****     lv_style_value_t v = lv_obj_get_style_prop(obj, part, LV_STYLE_BG_IMG_RECOLOR_OPA);
 214:lvgl/src/core/lv_obj_style_gen.h ****     return (lv_opa_t)v.num;
 215:lvgl/src/core/lv_obj_style_gen.h **** }
 216:lvgl/src/core/lv_obj_style_gen.h **** 
 217:lvgl/src/core/lv_obj_style_gen.h **** static inline bool lv_obj_get_style_bg_img_tiled(const struct _lv_obj_t * obj, uint32_t part)
 218:lvgl/src/core/lv_obj_style_gen.h **** {
ARM GAS  C:\usertemp\ccIlwJXO.s 			page 36


 219:lvgl/src/core/lv_obj_style_gen.h ****     lv_style_value_t v = lv_obj_get_style_prop(obj, part, LV_STYLE_BG_IMG_TILED);
 220:lvgl/src/core/lv_obj_style_gen.h ****     return (bool)v.num;
 221:lvgl/src/core/lv_obj_style_gen.h **** }
 222:lvgl/src/core/lv_obj_style_gen.h **** 
 223:lvgl/src/core/lv_obj_style_gen.h **** static inline lv_color_t lv_obj_get_style_border_color(const struct _lv_obj_t * obj, uint32_t part)
 224:lvgl/src/core/lv_obj_style_gen.h **** {
 225:lvgl/src/core/lv_obj_style_gen.h ****     lv_style_value_t v = lv_obj_get_style_prop(obj, part, LV_STYLE_BORDER_COLOR);
 226:lvgl/src/core/lv_obj_style_gen.h ****     return v.color;
 227:lvgl/src/core/lv_obj_style_gen.h **** }
 228:lvgl/src/core/lv_obj_style_gen.h **** 
 229:lvgl/src/core/lv_obj_style_gen.h **** static inline lv_color_t lv_obj_get_style_border_color_filtered(const struct _lv_obj_t * obj, uint3
 230:lvgl/src/core/lv_obj_style_gen.h **** {
 231:lvgl/src/core/lv_obj_style_gen.h ****     lv_style_value_t v = lv_obj_get_style_prop(obj, part, LV_STYLE_BORDER_COLOR_FILTERED);
 232:lvgl/src/core/lv_obj_style_gen.h ****     return v.color;
 233:lvgl/src/core/lv_obj_style_gen.h **** }
 234:lvgl/src/core/lv_obj_style_gen.h **** 
 235:lvgl/src/core/lv_obj_style_gen.h **** static inline lv_opa_t lv_obj_get_style_border_opa(const struct _lv_obj_t * obj, uint32_t part)
 361              		.loc 3 235 24 view .LVU108
 362              	.LBB108:
 236:lvgl/src/core/lv_obj_style_gen.h **** {
 237:lvgl/src/core/lv_obj_style_gen.h ****     lv_style_value_t v = lv_obj_get_style_prop(obj, part, LV_STYLE_BORDER_OPA);
 363              		.loc 3 237 5 view .LVU109
 364              		.loc 3 237 26 is_stmt 0 view .LVU110
 365 0020 3122     		movs	r2, #49
 366 0022 4FF48031 		mov	r1, #65536
 367 0026 2846     		mov	r0, r5
 368 0028 FFF7FEFF 		bl	lv_obj_get_style_prop
 369              	.LVL35:
 238:lvgl/src/core/lv_obj_style_gen.h ****     return (lv_opa_t)v.num;
 370              		.loc 3 238 5 is_stmt 1 view .LVU111
 371              		.loc 3 238 12 is_stmt 0 view .LVU112
 372 002c C0B2     		uxtb	r0, r0
 373              	.LVL36:
 374              		.loc 3 238 12 view .LVU113
 375              	.LBE108:
 376              	.LBE107:
 660:lvgl/src/core/lv_obj.c ****     if(dsc->border_opa > LV_OPA_MIN) {
 377              		.loc 1 660 21 discriminator 1 view .LVU114
 378 002e 84F82200 		strb	r0, [r4, #34]
 661:lvgl/src/core/lv_obj.c ****         dsc->border_width = lv_obj_get_style_border_width(obj, LV_PART_SCROLLBAR);
 379              		.loc 1 661 5 is_stmt 1 view .LVU115
 661:lvgl/src/core/lv_obj.c ****         dsc->border_width = lv_obj_get_style_border_width(obj, LV_PART_SCROLLBAR);
 380              		.loc 1 661 7 is_stmt 0 view .LVU116
 381 0032 0228     		cmp	r0, #2
 382 0034 3BD8     		bhi	.L43
 383              	.L34:
 672:lvgl/src/core/lv_obj.c ****     if(dsc->shadow_opa > LV_OPA_MIN) {
 384              		.loc 1 672 5 is_stmt 1 view .LVU117
 385              	.LVL37:
 386              	.LBB109:
 387              	.LBI109:
 239:lvgl/src/core/lv_obj_style_gen.h **** }
 240:lvgl/src/core/lv_obj_style_gen.h **** 
 241:lvgl/src/core/lv_obj_style_gen.h **** static inline lv_coord_t lv_obj_get_style_border_width(const struct _lv_obj_t * obj, uint32_t part)
 242:lvgl/src/core/lv_obj_style_gen.h **** {
 243:lvgl/src/core/lv_obj_style_gen.h ****     lv_style_value_t v = lv_obj_get_style_prop(obj, part, LV_STYLE_BORDER_WIDTH);
 244:lvgl/src/core/lv_obj_style_gen.h ****     return (lv_coord_t)v.num;
ARM GAS  C:\usertemp\ccIlwJXO.s 			page 37


 245:lvgl/src/core/lv_obj_style_gen.h **** }
 246:lvgl/src/core/lv_obj_style_gen.h **** 
 247:lvgl/src/core/lv_obj_style_gen.h **** static inline lv_border_side_t lv_obj_get_style_border_side(const struct _lv_obj_t * obj, uint32_t 
 248:lvgl/src/core/lv_obj_style_gen.h **** {
 249:lvgl/src/core/lv_obj_style_gen.h ****     lv_style_value_t v = lv_obj_get_style_prop(obj, part, LV_STYLE_BORDER_SIDE);
 250:lvgl/src/core/lv_obj_style_gen.h ****     return (lv_border_side_t)v.num;
 251:lvgl/src/core/lv_obj_style_gen.h **** }
 252:lvgl/src/core/lv_obj_style_gen.h **** 
 253:lvgl/src/core/lv_obj_style_gen.h **** static inline bool lv_obj_get_style_border_post(const struct _lv_obj_t * obj, uint32_t part)
 254:lvgl/src/core/lv_obj_style_gen.h **** {
 255:lvgl/src/core/lv_obj_style_gen.h ****     lv_style_value_t v = lv_obj_get_style_prop(obj, part, LV_STYLE_BORDER_POST);
 256:lvgl/src/core/lv_obj_style_gen.h ****     return (bool)v.num;
 257:lvgl/src/core/lv_obj_style_gen.h **** }
 258:lvgl/src/core/lv_obj_style_gen.h **** 
 259:lvgl/src/core/lv_obj_style_gen.h **** static inline lv_coord_t lv_obj_get_style_outline_width(const struct _lv_obj_t * obj, uint32_t part
 260:lvgl/src/core/lv_obj_style_gen.h **** {
 261:lvgl/src/core/lv_obj_style_gen.h ****     lv_style_value_t v = lv_obj_get_style_prop(obj, part, LV_STYLE_OUTLINE_WIDTH);
 262:lvgl/src/core/lv_obj_style_gen.h ****     return (lv_coord_t)v.num;
 263:lvgl/src/core/lv_obj_style_gen.h **** }
 264:lvgl/src/core/lv_obj_style_gen.h **** 
 265:lvgl/src/core/lv_obj_style_gen.h **** static inline lv_color_t lv_obj_get_style_outline_color(const struct _lv_obj_t * obj, uint32_t part
 266:lvgl/src/core/lv_obj_style_gen.h **** {
 267:lvgl/src/core/lv_obj_style_gen.h ****     lv_style_value_t v = lv_obj_get_style_prop(obj, part, LV_STYLE_OUTLINE_COLOR);
 268:lvgl/src/core/lv_obj_style_gen.h ****     return v.color;
 269:lvgl/src/core/lv_obj_style_gen.h **** }
 270:lvgl/src/core/lv_obj_style_gen.h **** 
 271:lvgl/src/core/lv_obj_style_gen.h **** static inline lv_color_t lv_obj_get_style_outline_color_filtered(const struct _lv_obj_t * obj, uint
 272:lvgl/src/core/lv_obj_style_gen.h **** {
 273:lvgl/src/core/lv_obj_style_gen.h ****     lv_style_value_t v = lv_obj_get_style_prop(obj, part, LV_STYLE_OUTLINE_COLOR_FILTERED);
 274:lvgl/src/core/lv_obj_style_gen.h ****     return v.color;
 275:lvgl/src/core/lv_obj_style_gen.h **** }
 276:lvgl/src/core/lv_obj_style_gen.h **** 
 277:lvgl/src/core/lv_obj_style_gen.h **** static inline lv_opa_t lv_obj_get_style_outline_opa(const struct _lv_obj_t * obj, uint32_t part)
 278:lvgl/src/core/lv_obj_style_gen.h **** {
 279:lvgl/src/core/lv_obj_style_gen.h ****     lv_style_value_t v = lv_obj_get_style_prop(obj, part, LV_STYLE_OUTLINE_OPA);
 280:lvgl/src/core/lv_obj_style_gen.h ****     return (lv_opa_t)v.num;
 281:lvgl/src/core/lv_obj_style_gen.h **** }
 282:lvgl/src/core/lv_obj_style_gen.h **** 
 283:lvgl/src/core/lv_obj_style_gen.h **** static inline lv_coord_t lv_obj_get_style_outline_pad(const struct _lv_obj_t * obj, uint32_t part)
 284:lvgl/src/core/lv_obj_style_gen.h **** {
 285:lvgl/src/core/lv_obj_style_gen.h ****     lv_style_value_t v = lv_obj_get_style_prop(obj, part, LV_STYLE_OUTLINE_PAD);
 286:lvgl/src/core/lv_obj_style_gen.h ****     return (lv_coord_t)v.num;
 287:lvgl/src/core/lv_obj_style_gen.h **** }
 288:lvgl/src/core/lv_obj_style_gen.h **** 
 289:lvgl/src/core/lv_obj_style_gen.h **** static inline lv_coord_t lv_obj_get_style_shadow_width(const struct _lv_obj_t * obj, uint32_t part)
 290:lvgl/src/core/lv_obj_style_gen.h **** {
 291:lvgl/src/core/lv_obj_style_gen.h ****     lv_style_value_t v = lv_obj_get_style_prop(obj, part, LV_STYLE_SHADOW_WIDTH);
 292:lvgl/src/core/lv_obj_style_gen.h ****     return (lv_coord_t)v.num;
 293:lvgl/src/core/lv_obj_style_gen.h **** }
 294:lvgl/src/core/lv_obj_style_gen.h **** 
 295:lvgl/src/core/lv_obj_style_gen.h **** static inline lv_coord_t lv_obj_get_style_shadow_ofs_x(const struct _lv_obj_t * obj, uint32_t part)
 296:lvgl/src/core/lv_obj_style_gen.h **** {
 297:lvgl/src/core/lv_obj_style_gen.h ****     lv_style_value_t v = lv_obj_get_style_prop(obj, part, LV_STYLE_SHADOW_OFS_X);
 298:lvgl/src/core/lv_obj_style_gen.h ****     return (lv_coord_t)v.num;
 299:lvgl/src/core/lv_obj_style_gen.h **** }
 300:lvgl/src/core/lv_obj_style_gen.h **** 
 301:lvgl/src/core/lv_obj_style_gen.h **** static inline lv_coord_t lv_obj_get_style_shadow_ofs_y(const struct _lv_obj_t * obj, uint32_t part)
ARM GAS  C:\usertemp\ccIlwJXO.s 			page 38


 302:lvgl/src/core/lv_obj_style_gen.h **** {
 303:lvgl/src/core/lv_obj_style_gen.h ****     lv_style_value_t v = lv_obj_get_style_prop(obj, part, LV_STYLE_SHADOW_OFS_Y);
 304:lvgl/src/core/lv_obj_style_gen.h ****     return (lv_coord_t)v.num;
 305:lvgl/src/core/lv_obj_style_gen.h **** }
 306:lvgl/src/core/lv_obj_style_gen.h **** 
 307:lvgl/src/core/lv_obj_style_gen.h **** static inline lv_coord_t lv_obj_get_style_shadow_spread(const struct _lv_obj_t * obj, uint32_t part
 308:lvgl/src/core/lv_obj_style_gen.h **** {
 309:lvgl/src/core/lv_obj_style_gen.h ****     lv_style_value_t v = lv_obj_get_style_prop(obj, part, LV_STYLE_SHADOW_SPREAD);
 310:lvgl/src/core/lv_obj_style_gen.h ****     return (lv_coord_t)v.num;
 311:lvgl/src/core/lv_obj_style_gen.h **** }
 312:lvgl/src/core/lv_obj_style_gen.h **** 
 313:lvgl/src/core/lv_obj_style_gen.h **** static inline lv_color_t lv_obj_get_style_shadow_color(const struct _lv_obj_t * obj, uint32_t part)
 314:lvgl/src/core/lv_obj_style_gen.h **** {
 315:lvgl/src/core/lv_obj_style_gen.h ****     lv_style_value_t v = lv_obj_get_style_prop(obj, part, LV_STYLE_SHADOW_COLOR);
 316:lvgl/src/core/lv_obj_style_gen.h ****     return v.color;
 317:lvgl/src/core/lv_obj_style_gen.h **** }
 318:lvgl/src/core/lv_obj_style_gen.h **** 
 319:lvgl/src/core/lv_obj_style_gen.h **** static inline lv_color_t lv_obj_get_style_shadow_color_filtered(const struct _lv_obj_t * obj, uint3
 320:lvgl/src/core/lv_obj_style_gen.h **** {
 321:lvgl/src/core/lv_obj_style_gen.h ****     lv_style_value_t v = lv_obj_get_style_prop(obj, part, LV_STYLE_SHADOW_COLOR_FILTERED);
 322:lvgl/src/core/lv_obj_style_gen.h ****     return v.color;
 323:lvgl/src/core/lv_obj_style_gen.h **** }
 324:lvgl/src/core/lv_obj_style_gen.h **** 
 325:lvgl/src/core/lv_obj_style_gen.h **** static inline lv_opa_t lv_obj_get_style_shadow_opa(const struct _lv_obj_t * obj, uint32_t part)
 388              		.loc 3 325 24 view .LVU118
 389              	.LBB110:
 326:lvgl/src/core/lv_obj_style_gen.h **** {
 327:lvgl/src/core/lv_obj_style_gen.h ****     lv_style_value_t v = lv_obj_get_style_prop(obj, part, LV_STYLE_SHADOW_OPA);
 390              		.loc 3 327 5 view .LVU119
 391              		.loc 3 327 26 is_stmt 0 view .LVU120
 392 0036 40F64502 		movw	r2, #2117
 393 003a 4FF48031 		mov	r1, #65536
 394 003e 2846     		mov	r0, r5
 395 0040 FFF7FEFF 		bl	lv_obj_get_style_prop
 396              	.LVL38:
 328:lvgl/src/core/lv_obj_style_gen.h ****     return (lv_opa_t)v.num;
 397              		.loc 3 328 5 is_stmt 1 view .LVU121
 398              		.loc 3 328 12 is_stmt 0 view .LVU122
 399 0044 C0B2     		uxtb	r0, r0
 400              	.LVL39:
 401              		.loc 3 328 12 view .LVU123
 402              	.LBE110:
 403              	.LBE109:
 672:lvgl/src/core/lv_obj.c ****     if(dsc->shadow_opa > LV_OPA_MIN) {
 404              		.loc 1 672 21 discriminator 1 view .LVU124
 405 0046 84F83600 		strb	r0, [r4, #54]
 673:lvgl/src/core/lv_obj.c ****         dsc->shadow_width = lv_obj_get_style_shadow_width(obj, LV_PART_SCROLLBAR);
 406              		.loc 1 673 5 is_stmt 1 view .LVU125
 673:lvgl/src/core/lv_obj.c ****         dsc->shadow_width = lv_obj_get_style_shadow_width(obj, LV_PART_SCROLLBAR);
 407              		.loc 1 673 7 is_stmt 0 view .LVU126
 408 004a 0228     		cmp	r0, #2
 409 004c 46D8     		bhi	.L44
 410              	.L36:
 684:lvgl/src/core/lv_obj.c ****     if(opa < LV_OPA_MAX) {
 411              		.loc 1 684 5 is_stmt 1 view .LVU127
 412              	.LVL40:
 413              	.LBB111:
ARM GAS  C:\usertemp\ccIlwJXO.s 			page 39


 414              	.LBI111:
 329:lvgl/src/core/lv_obj_style_gen.h **** }
 330:lvgl/src/core/lv_obj_style_gen.h **** 
 331:lvgl/src/core/lv_obj_style_gen.h **** static inline lv_opa_t lv_obj_get_style_img_opa(const struct _lv_obj_t * obj, uint32_t part)
 332:lvgl/src/core/lv_obj_style_gen.h **** {
 333:lvgl/src/core/lv_obj_style_gen.h ****     lv_style_value_t v = lv_obj_get_style_prop(obj, part, LV_STYLE_IMG_OPA);
 334:lvgl/src/core/lv_obj_style_gen.h ****     return (lv_opa_t)v.num;
 335:lvgl/src/core/lv_obj_style_gen.h **** }
 336:lvgl/src/core/lv_obj_style_gen.h **** 
 337:lvgl/src/core/lv_obj_style_gen.h **** static inline lv_color_t lv_obj_get_style_img_recolor(const struct _lv_obj_t * obj, uint32_t part)
 338:lvgl/src/core/lv_obj_style_gen.h **** {
 339:lvgl/src/core/lv_obj_style_gen.h ****     lv_style_value_t v = lv_obj_get_style_prop(obj, part, LV_STYLE_IMG_RECOLOR);
 340:lvgl/src/core/lv_obj_style_gen.h ****     return v.color;
 341:lvgl/src/core/lv_obj_style_gen.h **** }
 342:lvgl/src/core/lv_obj_style_gen.h **** 
 343:lvgl/src/core/lv_obj_style_gen.h **** static inline lv_color_t lv_obj_get_style_img_recolor_filtered(const struct _lv_obj_t * obj, uint32
 344:lvgl/src/core/lv_obj_style_gen.h **** {
 345:lvgl/src/core/lv_obj_style_gen.h ****     lv_style_value_t v = lv_obj_get_style_prop(obj, part, LV_STYLE_IMG_RECOLOR_FILTERED);
 346:lvgl/src/core/lv_obj_style_gen.h ****     return v.color;
 347:lvgl/src/core/lv_obj_style_gen.h **** }
 348:lvgl/src/core/lv_obj_style_gen.h **** 
 349:lvgl/src/core/lv_obj_style_gen.h **** static inline lv_opa_t lv_obj_get_style_img_recolor_opa(const struct _lv_obj_t * obj, uint32_t part
 350:lvgl/src/core/lv_obj_style_gen.h **** {
 351:lvgl/src/core/lv_obj_style_gen.h ****     lv_style_value_t v = lv_obj_get_style_prop(obj, part, LV_STYLE_IMG_RECOLOR_OPA);
 352:lvgl/src/core/lv_obj_style_gen.h ****     return (lv_opa_t)v.num;
 353:lvgl/src/core/lv_obj_style_gen.h **** }
 354:lvgl/src/core/lv_obj_style_gen.h **** 
 355:lvgl/src/core/lv_obj_style_gen.h **** static inline lv_coord_t lv_obj_get_style_line_width(const struct _lv_obj_t * obj, uint32_t part)
 356:lvgl/src/core/lv_obj_style_gen.h **** {
 357:lvgl/src/core/lv_obj_style_gen.h ****     lv_style_value_t v = lv_obj_get_style_prop(obj, part, LV_STYLE_LINE_WIDTH);
 358:lvgl/src/core/lv_obj_style_gen.h ****     return (lv_coord_t)v.num;
 359:lvgl/src/core/lv_obj_style_gen.h **** }
 360:lvgl/src/core/lv_obj_style_gen.h **** 
 361:lvgl/src/core/lv_obj_style_gen.h **** static inline lv_coord_t lv_obj_get_style_line_dash_width(const struct _lv_obj_t * obj, uint32_t pa
 362:lvgl/src/core/lv_obj_style_gen.h **** {
 363:lvgl/src/core/lv_obj_style_gen.h ****     lv_style_value_t v = lv_obj_get_style_prop(obj, part, LV_STYLE_LINE_DASH_WIDTH);
 364:lvgl/src/core/lv_obj_style_gen.h ****     return (lv_coord_t)v.num;
 365:lvgl/src/core/lv_obj_style_gen.h **** }
 366:lvgl/src/core/lv_obj_style_gen.h **** 
 367:lvgl/src/core/lv_obj_style_gen.h **** static inline lv_coord_t lv_obj_get_style_line_dash_gap(const struct _lv_obj_t * obj, uint32_t part
 368:lvgl/src/core/lv_obj_style_gen.h **** {
 369:lvgl/src/core/lv_obj_style_gen.h ****     lv_style_value_t v = lv_obj_get_style_prop(obj, part, LV_STYLE_LINE_DASH_GAP);
 370:lvgl/src/core/lv_obj_style_gen.h ****     return (lv_coord_t)v.num;
 371:lvgl/src/core/lv_obj_style_gen.h **** }
 372:lvgl/src/core/lv_obj_style_gen.h **** 
 373:lvgl/src/core/lv_obj_style_gen.h **** static inline bool lv_obj_get_style_line_rounded(const struct _lv_obj_t * obj, uint32_t part)
 374:lvgl/src/core/lv_obj_style_gen.h **** {
 375:lvgl/src/core/lv_obj_style_gen.h ****     lv_style_value_t v = lv_obj_get_style_prop(obj, part, LV_STYLE_LINE_ROUNDED);
 376:lvgl/src/core/lv_obj_style_gen.h ****     return (bool)v.num;
 377:lvgl/src/core/lv_obj_style_gen.h **** }
 378:lvgl/src/core/lv_obj_style_gen.h **** 
 379:lvgl/src/core/lv_obj_style_gen.h **** static inline lv_color_t lv_obj_get_style_line_color(const struct _lv_obj_t * obj, uint32_t part)
 380:lvgl/src/core/lv_obj_style_gen.h **** {
 381:lvgl/src/core/lv_obj_style_gen.h ****     lv_style_value_t v = lv_obj_get_style_prop(obj, part, LV_STYLE_LINE_COLOR);
 382:lvgl/src/core/lv_obj_style_gen.h ****     return v.color;
 383:lvgl/src/core/lv_obj_style_gen.h **** }
 384:lvgl/src/core/lv_obj_style_gen.h **** 
ARM GAS  C:\usertemp\ccIlwJXO.s 			page 40


 385:lvgl/src/core/lv_obj_style_gen.h **** static inline lv_color_t lv_obj_get_style_line_color_filtered(const struct _lv_obj_t * obj, uint32_
 386:lvgl/src/core/lv_obj_style_gen.h **** {
 387:lvgl/src/core/lv_obj_style_gen.h ****     lv_style_value_t v = lv_obj_get_style_prop(obj, part, LV_STYLE_LINE_COLOR_FILTERED);
 388:lvgl/src/core/lv_obj_style_gen.h ****     return v.color;
 389:lvgl/src/core/lv_obj_style_gen.h **** }
 390:lvgl/src/core/lv_obj_style_gen.h **** 
 391:lvgl/src/core/lv_obj_style_gen.h **** static inline lv_opa_t lv_obj_get_style_line_opa(const struct _lv_obj_t * obj, uint32_t part)
 392:lvgl/src/core/lv_obj_style_gen.h **** {
 393:lvgl/src/core/lv_obj_style_gen.h ****     lv_style_value_t v = lv_obj_get_style_prop(obj, part, LV_STYLE_LINE_OPA);
 394:lvgl/src/core/lv_obj_style_gen.h ****     return (lv_opa_t)v.num;
 395:lvgl/src/core/lv_obj_style_gen.h **** }
 396:lvgl/src/core/lv_obj_style_gen.h **** 
 397:lvgl/src/core/lv_obj_style_gen.h **** static inline lv_coord_t lv_obj_get_style_arc_width(const struct _lv_obj_t * obj, uint32_t part)
 398:lvgl/src/core/lv_obj_style_gen.h **** {
 399:lvgl/src/core/lv_obj_style_gen.h ****     lv_style_value_t v = lv_obj_get_style_prop(obj, part, LV_STYLE_ARC_WIDTH);
 400:lvgl/src/core/lv_obj_style_gen.h ****     return (lv_coord_t)v.num;
 401:lvgl/src/core/lv_obj_style_gen.h **** }
 402:lvgl/src/core/lv_obj_style_gen.h **** 
 403:lvgl/src/core/lv_obj_style_gen.h **** static inline bool lv_obj_get_style_arc_rounded(const struct _lv_obj_t * obj, uint32_t part)
 404:lvgl/src/core/lv_obj_style_gen.h **** {
 405:lvgl/src/core/lv_obj_style_gen.h ****     lv_style_value_t v = lv_obj_get_style_prop(obj, part, LV_STYLE_ARC_ROUNDED);
 406:lvgl/src/core/lv_obj_style_gen.h ****     return (bool)v.num;
 407:lvgl/src/core/lv_obj_style_gen.h **** }
 408:lvgl/src/core/lv_obj_style_gen.h **** 
 409:lvgl/src/core/lv_obj_style_gen.h **** static inline lv_color_t lv_obj_get_style_arc_color(const struct _lv_obj_t * obj, uint32_t part)
 410:lvgl/src/core/lv_obj_style_gen.h **** {
 411:lvgl/src/core/lv_obj_style_gen.h ****     lv_style_value_t v = lv_obj_get_style_prop(obj, part, LV_STYLE_ARC_COLOR);
 412:lvgl/src/core/lv_obj_style_gen.h ****     return v.color;
 413:lvgl/src/core/lv_obj_style_gen.h **** }
 414:lvgl/src/core/lv_obj_style_gen.h **** 
 415:lvgl/src/core/lv_obj_style_gen.h **** static inline lv_color_t lv_obj_get_style_arc_color_filtered(const struct _lv_obj_t * obj, uint32_t
 416:lvgl/src/core/lv_obj_style_gen.h **** {
 417:lvgl/src/core/lv_obj_style_gen.h ****     lv_style_value_t v = lv_obj_get_style_prop(obj, part, LV_STYLE_ARC_COLOR_FILTERED);
 418:lvgl/src/core/lv_obj_style_gen.h ****     return v.color;
 419:lvgl/src/core/lv_obj_style_gen.h **** }
 420:lvgl/src/core/lv_obj_style_gen.h **** 
 421:lvgl/src/core/lv_obj_style_gen.h **** static inline lv_opa_t lv_obj_get_style_arc_opa(const struct _lv_obj_t * obj, uint32_t part)
 422:lvgl/src/core/lv_obj_style_gen.h **** {
 423:lvgl/src/core/lv_obj_style_gen.h ****     lv_style_value_t v = lv_obj_get_style_prop(obj, part, LV_STYLE_ARC_OPA);
 424:lvgl/src/core/lv_obj_style_gen.h ****     return (lv_opa_t)v.num;
 425:lvgl/src/core/lv_obj_style_gen.h **** }
 426:lvgl/src/core/lv_obj_style_gen.h **** 
 427:lvgl/src/core/lv_obj_style_gen.h **** static inline const void * lv_obj_get_style_arc_img_src(const struct _lv_obj_t * obj, uint32_t part
 428:lvgl/src/core/lv_obj_style_gen.h **** {
 429:lvgl/src/core/lv_obj_style_gen.h ****     lv_style_value_t v = lv_obj_get_style_prop(obj, part, LV_STYLE_ARC_IMG_SRC);
 430:lvgl/src/core/lv_obj_style_gen.h ****     return (const void *)v.ptr;
 431:lvgl/src/core/lv_obj_style_gen.h **** }
 432:lvgl/src/core/lv_obj_style_gen.h **** 
 433:lvgl/src/core/lv_obj_style_gen.h **** static inline lv_color_t lv_obj_get_style_text_color(const struct _lv_obj_t * obj, uint32_t part)
 434:lvgl/src/core/lv_obj_style_gen.h **** {
 435:lvgl/src/core/lv_obj_style_gen.h ****     lv_style_value_t v = lv_obj_get_style_prop(obj, part, LV_STYLE_TEXT_COLOR);
 436:lvgl/src/core/lv_obj_style_gen.h ****     return v.color;
 437:lvgl/src/core/lv_obj_style_gen.h **** }
 438:lvgl/src/core/lv_obj_style_gen.h **** 
 439:lvgl/src/core/lv_obj_style_gen.h **** static inline lv_color_t lv_obj_get_style_text_color_filtered(const struct _lv_obj_t * obj, uint32_
 440:lvgl/src/core/lv_obj_style_gen.h **** {
 441:lvgl/src/core/lv_obj_style_gen.h ****     lv_style_value_t v = lv_obj_get_style_prop(obj, part, LV_STYLE_TEXT_COLOR_FILTERED);
ARM GAS  C:\usertemp\ccIlwJXO.s 			page 41


 442:lvgl/src/core/lv_obj_style_gen.h ****     return v.color;
 443:lvgl/src/core/lv_obj_style_gen.h **** }
 444:lvgl/src/core/lv_obj_style_gen.h **** 
 445:lvgl/src/core/lv_obj_style_gen.h **** static inline lv_opa_t lv_obj_get_style_text_opa(const struct _lv_obj_t * obj, uint32_t part)
 446:lvgl/src/core/lv_obj_style_gen.h **** {
 447:lvgl/src/core/lv_obj_style_gen.h ****     lv_style_value_t v = lv_obj_get_style_prop(obj, part, LV_STYLE_TEXT_OPA);
 448:lvgl/src/core/lv_obj_style_gen.h ****     return (lv_opa_t)v.num;
 449:lvgl/src/core/lv_obj_style_gen.h **** }
 450:lvgl/src/core/lv_obj_style_gen.h **** 
 451:lvgl/src/core/lv_obj_style_gen.h **** static inline const lv_font_t * lv_obj_get_style_text_font(const struct _lv_obj_t * obj, uint32_t p
 452:lvgl/src/core/lv_obj_style_gen.h **** {
 453:lvgl/src/core/lv_obj_style_gen.h ****     lv_style_value_t v = lv_obj_get_style_prop(obj, part, LV_STYLE_TEXT_FONT);
 454:lvgl/src/core/lv_obj_style_gen.h ****     return (const lv_font_t *)v.ptr;
 455:lvgl/src/core/lv_obj_style_gen.h **** }
 456:lvgl/src/core/lv_obj_style_gen.h **** 
 457:lvgl/src/core/lv_obj_style_gen.h **** static inline lv_coord_t lv_obj_get_style_text_letter_space(const struct _lv_obj_t * obj, uint32_t 
 458:lvgl/src/core/lv_obj_style_gen.h **** {
 459:lvgl/src/core/lv_obj_style_gen.h ****     lv_style_value_t v = lv_obj_get_style_prop(obj, part, LV_STYLE_TEXT_LETTER_SPACE);
 460:lvgl/src/core/lv_obj_style_gen.h ****     return (lv_coord_t)v.num;
 461:lvgl/src/core/lv_obj_style_gen.h **** }
 462:lvgl/src/core/lv_obj_style_gen.h **** 
 463:lvgl/src/core/lv_obj_style_gen.h **** static inline lv_coord_t lv_obj_get_style_text_line_space(const struct _lv_obj_t * obj, uint32_t pa
 464:lvgl/src/core/lv_obj_style_gen.h **** {
 465:lvgl/src/core/lv_obj_style_gen.h ****     lv_style_value_t v = lv_obj_get_style_prop(obj, part, LV_STYLE_TEXT_LINE_SPACE);
 466:lvgl/src/core/lv_obj_style_gen.h ****     return (lv_coord_t)v.num;
 467:lvgl/src/core/lv_obj_style_gen.h **** }
 468:lvgl/src/core/lv_obj_style_gen.h **** 
 469:lvgl/src/core/lv_obj_style_gen.h **** static inline lv_text_decor_t lv_obj_get_style_text_decor(const struct _lv_obj_t * obj, uint32_t pa
 470:lvgl/src/core/lv_obj_style_gen.h **** {
 471:lvgl/src/core/lv_obj_style_gen.h ****     lv_style_value_t v = lv_obj_get_style_prop(obj, part, LV_STYLE_TEXT_DECOR);
 472:lvgl/src/core/lv_obj_style_gen.h ****     return (lv_text_decor_t)v.num;
 473:lvgl/src/core/lv_obj_style_gen.h **** }
 474:lvgl/src/core/lv_obj_style_gen.h **** 
 475:lvgl/src/core/lv_obj_style_gen.h **** static inline lv_text_align_t lv_obj_get_style_text_align(const struct _lv_obj_t * obj, uint32_t pa
 476:lvgl/src/core/lv_obj_style_gen.h **** {
 477:lvgl/src/core/lv_obj_style_gen.h ****     lv_style_value_t v = lv_obj_get_style_prop(obj, part, LV_STYLE_TEXT_ALIGN);
 478:lvgl/src/core/lv_obj_style_gen.h ****     return (lv_text_align_t)v.num;
 479:lvgl/src/core/lv_obj_style_gen.h **** }
 480:lvgl/src/core/lv_obj_style_gen.h **** 
 481:lvgl/src/core/lv_obj_style_gen.h **** static inline lv_coord_t lv_obj_get_style_radius(const struct _lv_obj_t * obj, uint32_t part)
 482:lvgl/src/core/lv_obj_style_gen.h **** {
 483:lvgl/src/core/lv_obj_style_gen.h ****     lv_style_value_t v = lv_obj_get_style_prop(obj, part, LV_STYLE_RADIUS);
 484:lvgl/src/core/lv_obj_style_gen.h ****     return (lv_coord_t)v.num;
 485:lvgl/src/core/lv_obj_style_gen.h **** }
 486:lvgl/src/core/lv_obj_style_gen.h **** 
 487:lvgl/src/core/lv_obj_style_gen.h **** static inline bool lv_obj_get_style_clip_corner(const struct _lv_obj_t * obj, uint32_t part)
 488:lvgl/src/core/lv_obj_style_gen.h **** {
 489:lvgl/src/core/lv_obj_style_gen.h ****     lv_style_value_t v = lv_obj_get_style_prop(obj, part, LV_STYLE_CLIP_CORNER);
 490:lvgl/src/core/lv_obj_style_gen.h ****     return (bool)v.num;
 491:lvgl/src/core/lv_obj_style_gen.h **** }
 492:lvgl/src/core/lv_obj_style_gen.h **** 
 493:lvgl/src/core/lv_obj_style_gen.h **** static inline lv_opa_t lv_obj_get_style_opa(const struct _lv_obj_t * obj, uint32_t part)
 415              		.loc 3 493 24 view .LVU128
 416              	.LBB112:
 494:lvgl/src/core/lv_obj_style_gen.h **** {
 495:lvgl/src/core/lv_obj_style_gen.h ****     lv_style_value_t v = lv_obj_get_style_prop(obj, part, LV_STYLE_OPA);
 417              		.loc 3 495 5 view .LVU129
ARM GAS  C:\usertemp\ccIlwJXO.s 			page 42


 418              		.loc 3 495 26 is_stmt 0 view .LVU130
 419 004e 40F26242 		movw	r2, #1122
 420 0052 4FF48031 		mov	r1, #65536
 421 0056 2846     		mov	r0, r5
 422 0058 FFF7FEFF 		bl	lv_obj_get_style_prop
 423              	.LVL41:
 496:lvgl/src/core/lv_obj_style_gen.h ****     return (lv_opa_t)v.num;
 424              		.loc 3 496 5 is_stmt 1 view .LVU131
 425              		.loc 3 496 12 is_stmt 0 view .LVU132
 426 005c C3B2     		uxtb	r3, r0
 427              	.LVL42:
 428              		.loc 3 496 12 view .LVU133
 429              	.LBE112:
 430              	.LBE111:
 685:lvgl/src/core/lv_obj.c ****         dsc->bg_opa = (dsc->bg_opa * opa) >> 8;
 431              		.loc 1 685 5 is_stmt 1 view .LVU134
 685:lvgl/src/core/lv_obj.c ****         dsc->bg_opa = (dsc->bg_opa * opa) >> 8;
 432              		.loc 1 685 7 is_stmt 0 view .LVU135
 433 005e FC2B     		cmp	r3, #252
 434 0060 0CD8     		bhi	.L38
 686:lvgl/src/core/lv_obj.c ****         dsc->border_opa = (dsc->bg_opa * opa) >> 8;
 435              		.loc 1 686 9 is_stmt 1 view .LVU136
 686:lvgl/src/core/lv_obj.c ****         dsc->border_opa = (dsc->bg_opa * opa) >> 8;
 436              		.loc 1 686 27 is_stmt 0 view .LVU137
 437 0062 E378     		ldrb	r3, [r4, #3]	@ zero_extendqisi2
 438              	.LVL43:
 686:lvgl/src/core/lv_obj.c ****         dsc->border_opa = (dsc->bg_opa * opa) >> 8;
 439              		.loc 1 686 27 view .LVU138
 440 0064 C0B2     		uxtb	r0, r0
 686:lvgl/src/core/lv_obj.c ****         dsc->border_opa = (dsc->bg_opa * opa) >> 8;
 441              		.loc 1 686 36 view .LVU139
 442 0066 00FB03F3 		mul	r3, r0, r3
 686:lvgl/src/core/lv_obj.c ****         dsc->border_opa = (dsc->bg_opa * opa) >> 8;
 443              		.loc 1 686 43 view .LVU140
 444 006a 1B12     		asrs	r3, r3, #8
 686:lvgl/src/core/lv_obj.c ****         dsc->border_opa = (dsc->bg_opa * opa) >> 8;
 445              		.loc 1 686 21 view .LVU141
 446 006c E370     		strb	r3, [r4, #3]
 687:lvgl/src/core/lv_obj.c ****         dsc->shadow_opa = (dsc->bg_opa * opa) >> 8;
 447              		.loc 1 687 9 is_stmt 1 view .LVU142
 687:lvgl/src/core/lv_obj.c ****         dsc->shadow_opa = (dsc->bg_opa * opa) >> 8;
 448              		.loc 1 687 40 is_stmt 0 view .LVU143
 449 006e 03FB00F0 		mul	r0, r3, r0
 450              	.LVL44:
 687:lvgl/src/core/lv_obj.c ****         dsc->shadow_opa = (dsc->bg_opa * opa) >> 8;
 451              		.loc 1 687 25 view .LVU144
 452 0072 000A     		lsrs	r0, r0, #8
 453 0074 84F82200 		strb	r0, [r4, #34]
 688:lvgl/src/core/lv_obj.c ****     }
 454              		.loc 1 688 9 is_stmt 1 view .LVU145
 688:lvgl/src/core/lv_obj.c ****     }
 455              		.loc 1 688 25 is_stmt 0 view .LVU146
 456 0078 84F83600 		strb	r0, [r4, #54]
 457              	.L38:
 691:lvgl/src/core/lv_obj.c ****         dsc->radius = lv_obj_get_style_radius(obj, LV_PART_SCROLLBAR);
 458              		.loc 1 691 5 is_stmt 1 view .LVU147
 691:lvgl/src/core/lv_obj.c ****         dsc->radius = lv_obj_get_style_radius(obj, LV_PART_SCROLLBAR);
ARM GAS  C:\usertemp\ccIlwJXO.s 			page 43


 459              		.loc 1 691 11 is_stmt 0 view .LVU148
 460 007c E378     		ldrb	r3, [r4, #3]	@ zero_extendqisi2
 691:lvgl/src/core/lv_obj.c ****         dsc->radius = lv_obj_get_style_radius(obj, LV_PART_SCROLLBAR);
 461              		.loc 1 691 7 view .LVU149
 462 007e 2BB9     		cbnz	r3, .L39
 691:lvgl/src/core/lv_obj.c ****         dsc->radius = lv_obj_get_style_radius(obj, LV_PART_SCROLLBAR);
 463              		.loc 1 691 43 discriminator 1 view .LVU150
 464 0080 94F82230 		ldrb	r3, [r4, #34]	@ zero_extendqisi2
 691:lvgl/src/core/lv_obj.c ****         dsc->radius = lv_obj_get_style_radius(obj, LV_PART_SCROLLBAR);
 465              		.loc 1 691 37 discriminator 1 view .LVU151
 466 0084 13B9     		cbnz	r3, .L39
 691:lvgl/src/core/lv_obj.c ****         dsc->radius = lv_obj_get_style_radius(obj, LV_PART_SCROLLBAR);
 467              		.loc 1 691 79 discriminator 2 view .LVU152
 468 0086 94F83600 		ldrb	r0, [r4, #54]	@ zero_extendqisi2
 691:lvgl/src/core/lv_obj.c ****         dsc->radius = lv_obj_get_style_radius(obj, LV_PART_SCROLLBAR);
 469              		.loc 1 691 73 discriminator 2 view .LVU153
 470 008a 38B1     		cbz	r0, .L40
 471              	.L39:
 692:lvgl/src/core/lv_obj.c ****         return LV_RES_OK;
 472              		.loc 1 692 9 is_stmt 1 view .LVU154
 473              	.LVL45:
 474              	.LBB113:
 475              	.LBI113:
 481:lvgl/src/core/lv_obj_style_gen.h **** {
 476              		.loc 3 481 26 view .LVU155
 477              	.LBB114:
 483:lvgl/src/core/lv_obj_style_gen.h ****     return (lv_coord_t)v.num;
 478              		.loc 3 483 5 view .LVU156
 483:lvgl/src/core/lv_obj_style_gen.h ****     return (lv_coord_t)v.num;
 479              		.loc 3 483 26 is_stmt 0 view .LVU157
 480 008c 6022     		movs	r2, #96
 481 008e 4FF48031 		mov	r1, #65536
 482 0092 2846     		mov	r0, r5
 483 0094 FFF7FEFF 		bl	lv_obj_get_style_prop
 484              	.LVL46:
 484:lvgl/src/core/lv_obj_style_gen.h **** }
 485              		.loc 3 484 5 is_stmt 1 view .LVU158
 484:lvgl/src/core/lv_obj_style_gen.h **** }
 486              		.loc 3 484 5 is_stmt 0 view .LVU159
 487              	.LBE114:
 488              	.LBE113:
 692:lvgl/src/core/lv_obj.c ****         return LV_RES_OK;
 489              		.loc 1 692 21 discriminator 1 view .LVU160
 490 0098 2080     		strh	r0, [r4]	@ movhi
 693:lvgl/src/core/lv_obj.c ****     }
 491              		.loc 1 693 9 is_stmt 1 view .LVU161
 693:lvgl/src/core/lv_obj.c ****     }
 492              		.loc 1 693 16 is_stmt 0 view .LVU162
 493 009a 0120     		movs	r0, #1
 494              	.L40:
 702:lvgl/src/core/lv_obj.c **** 
 495              		.loc 1 702 1 view .LVU163
 496 009c 38BD     		pop	{r3, r4, r5, pc}
 497              	.LVL47:
 498              	.L42:
 657:lvgl/src/core/lv_obj.c ****     }
 499              		.loc 1 657 9 is_stmt 1 view .LVU164
ARM GAS  C:\usertemp\ccIlwJXO.s 			page 44


 500              	.LBB115:
 501              	.LBI115:
 127:lvgl/src/core/lv_obj_style_gen.h **** {
 502              		.loc 3 127 26 view .LVU165
 503              	.LBB116:
 129:lvgl/src/core/lv_obj_style_gen.h ****     return v.color;
 504              		.loc 3 129 5 view .LVU166
 129:lvgl/src/core/lv_obj_style_gen.h ****     return v.color;
 505              		.loc 3 129 26 is_stmt 0 view .LVU167
 506 009e 2022     		movs	r2, #32
 507 00a0 4FF48031 		mov	r1, #65536
 508 00a4 2846     		mov	r0, r5
 509 00a6 FFF7FEFF 		bl	lv_obj_get_style_prop
 510              	.LVL48:
 130:lvgl/src/core/lv_obj_style_gen.h **** }
 511              		.loc 3 130 5 is_stmt 1 view .LVU168
 130:lvgl/src/core/lv_obj_style_gen.h **** }
 512              		.loc 3 130 5 is_stmt 0 view .LVU169
 513              	.LBE116:
 514              	.LBE115:
 657:lvgl/src/core/lv_obj.c ****     }
 515              		.loc 1 657 25 view .LVU170
 516 00aa A080     		strh	r0, [r4, #4]	@ movhi
 517 00ac B8E7     		b	.L33
 518              	.L43:
 662:lvgl/src/core/lv_obj.c ****         if(dsc->border_width > 0) {
 519              		.loc 1 662 9 is_stmt 1 view .LVU171
 520              	.LVL49:
 521              	.LBB117:
 522              	.LBI117:
 241:lvgl/src/core/lv_obj_style_gen.h **** {
 523              		.loc 3 241 26 view .LVU172
 524              	.LBB118:
 243:lvgl/src/core/lv_obj_style_gen.h ****     return (lv_coord_t)v.num;
 525              		.loc 3 243 5 view .LVU173
 243:lvgl/src/core/lv_obj_style_gen.h ****     return (lv_coord_t)v.num;
 526              		.loc 3 243 26 is_stmt 0 view .LVU174
 527 00ae 41F23202 		movw	r2, #4146
 528 00b2 4FF48031 		mov	r1, #65536
 529 00b6 2846     		mov	r0, r5
 530 00b8 FFF7FEFF 		bl	lv_obj_get_style_prop
 531              	.LVL50:
 244:lvgl/src/core/lv_obj_style_gen.h **** }
 532              		.loc 3 244 5 is_stmt 1 view .LVU175
 244:lvgl/src/core/lv_obj_style_gen.h **** }
 533              		.loc 3 244 12 is_stmt 0 view .LVU176
 534 00bc 00B2     		sxth	r0, r0
 535              	.LVL51:
 244:lvgl/src/core/lv_obj_style_gen.h **** }
 536              		.loc 3 244 12 view .LVU177
 537              	.LBE118:
 538              	.LBE117:
 662:lvgl/src/core/lv_obj.c ****         if(dsc->border_width > 0) {
 539              		.loc 1 662 27 discriminator 1 view .LVU178
 540 00be 2084     		strh	r0, [r4, #32]	@ movhi
 663:lvgl/src/core/lv_obj.c ****             dsc->border_color = lv_obj_get_style_border_color(obj, LV_PART_SCROLLBAR);
 541              		.loc 1 663 9 is_stmt 1 view .LVU179
ARM GAS  C:\usertemp\ccIlwJXO.s 			page 45


 663:lvgl/src/core/lv_obj.c ****             dsc->border_color = lv_obj_get_style_border_color(obj, LV_PART_SCROLLBAR);
 542              		.loc 1 663 11 is_stmt 0 view .LVU180
 543 00c0 0028     		cmp	r0, #0
 544 00c2 03DC     		bgt	.L45
 667:lvgl/src/core/lv_obj.c ****         }
 545              		.loc 1 667 13 is_stmt 1 view .LVU181
 667:lvgl/src/core/lv_obj.c ****         }
 546              		.loc 1 667 29 is_stmt 0 view .LVU182
 547 00c4 0023     		movs	r3, #0
 548 00c6 84F82230 		strb	r3, [r4, #34]
 549 00ca B4E7     		b	.L34
 550              	.L45:
 664:lvgl/src/core/lv_obj.c ****         }
 551              		.loc 1 664 13 is_stmt 1 view .LVU183
 552              	.LVL52:
 553              	.LBB119:
 554              	.LBI119:
 223:lvgl/src/core/lv_obj_style_gen.h **** {
 555              		.loc 3 223 26 view .LVU184
 556              	.LBB120:
 225:lvgl/src/core/lv_obj_style_gen.h ****     return v.color;
 557              		.loc 3 225 5 view .LVU185
 225:lvgl/src/core/lv_obj_style_gen.h ****     return v.color;
 558              		.loc 3 225 26 is_stmt 0 view .LVU186
 559 00cc 3022     		movs	r2, #48
 560 00ce 4FF48031 		mov	r1, #65536
 561 00d2 2846     		mov	r0, r5
 562 00d4 FFF7FEFF 		bl	lv_obj_get_style_prop
 563              	.LVL53:
 226:lvgl/src/core/lv_obj_style_gen.h **** }
 564              		.loc 3 226 5 is_stmt 1 view .LVU187
 226:lvgl/src/core/lv_obj_style_gen.h **** }
 565              		.loc 3 226 5 is_stmt 0 view .LVU188
 566              	.LBE120:
 567              	.LBE119:
 664:lvgl/src/core/lv_obj.c ****         }
 568              		.loc 1 664 33 view .LVU189
 569 00d8 E083     		strh	r0, [r4, #30]	@ movhi
 570 00da ACE7     		b	.L34
 571              	.L44:
 674:lvgl/src/core/lv_obj.c ****         if(dsc->shadow_width > 0) {
 572              		.loc 1 674 9 is_stmt 1 view .LVU190
 573              	.LVL54:
 574              	.LBB121:
 575              	.LBI121:
 289:lvgl/src/core/lv_obj_style_gen.h **** {
 576              		.loc 3 289 26 view .LVU191
 577              	.LBB122:
 291:lvgl/src/core/lv_obj_style_gen.h ****     return (lv_coord_t)v.num;
 578              		.loc 3 291 5 view .LVU192
 291:lvgl/src/core/lv_obj_style_gen.h ****     return (lv_coord_t)v.num;
 579              		.loc 3 291 26 is_stmt 0 view .LVU193
 580 00dc 4FF40462 		mov	r2, #2112
 581 00e0 4FF48031 		mov	r1, #65536
 582 00e4 2846     		mov	r0, r5
 583 00e6 FFF7FEFF 		bl	lv_obj_get_style_prop
 584              	.LVL55:
ARM GAS  C:\usertemp\ccIlwJXO.s 			page 46


 292:lvgl/src/core/lv_obj_style_gen.h **** }
 585              		.loc 3 292 5 is_stmt 1 view .LVU194
 292:lvgl/src/core/lv_obj_style_gen.h **** }
 586              		.loc 3 292 12 is_stmt 0 view .LVU195
 587 00ea 00B2     		sxth	r0, r0
 588              	.LVL56:
 292:lvgl/src/core/lv_obj_style_gen.h **** }
 589              		.loc 3 292 12 view .LVU196
 590              	.LBE122:
 591              	.LBE121:
 674:lvgl/src/core/lv_obj.c ****         if(dsc->shadow_width > 0) {
 592              		.loc 1 674 27 discriminator 1 view .LVU197
 593 00ec E085     		strh	r0, [r4, #46]	@ movhi
 675:lvgl/src/core/lv_obj.c ****             dsc->shadow_spread = lv_obj_get_style_shadow_spread(obj, LV_PART_SCROLLBAR);
 594              		.loc 1 675 9 is_stmt 1 view .LVU198
 675:lvgl/src/core/lv_obj.c ****             dsc->shadow_spread = lv_obj_get_style_shadow_spread(obj, LV_PART_SCROLLBAR);
 595              		.loc 1 675 11 is_stmt 0 view .LVU199
 596 00ee 0028     		cmp	r0, #0
 597 00f0 03DC     		bgt	.L46
 680:lvgl/src/core/lv_obj.c ****         }
 598              		.loc 1 680 13 is_stmt 1 view .LVU200
 680:lvgl/src/core/lv_obj.c ****         }
 599              		.loc 1 680 29 is_stmt 0 view .LVU201
 600 00f2 0023     		movs	r3, #0
 601 00f4 84F83630 		strb	r3, [r4, #54]
 602 00f8 A9E7     		b	.L36
 603              	.L46:
 676:lvgl/src/core/lv_obj.c ****             dsc->shadow_color = lv_obj_get_style_shadow_color(obj, LV_PART_SCROLLBAR);
 604              		.loc 1 676 13 is_stmt 1 view .LVU202
 605              	.LVL57:
 606              	.LBB123:
 607              	.LBI123:
 307:lvgl/src/core/lv_obj_style_gen.h **** {
 608              		.loc 3 307 26 view .LVU203
 609              	.LBB124:
 309:lvgl/src/core/lv_obj_style_gen.h ****     return (lv_coord_t)v.num;
 610              		.loc 3 309 5 view .LVU204
 309:lvgl/src/core/lv_obj_style_gen.h ****     return (lv_coord_t)v.num;
 611              		.loc 3 309 26 is_stmt 0 view .LVU205
 612 00fa 40F64302 		movw	r2, #2115
 613 00fe 4FF48031 		mov	r1, #65536
 614 0102 2846     		mov	r0, r5
 615 0104 FFF7FEFF 		bl	lv_obj_get_style_prop
 616              	.LVL58:
 310:lvgl/src/core/lv_obj_style_gen.h **** }
 617              		.loc 3 310 5 is_stmt 1 view .LVU206
 310:lvgl/src/core/lv_obj_style_gen.h **** }
 618              		.loc 3 310 5 is_stmt 0 view .LVU207
 619              	.LBE124:
 620              	.LBE123:
 676:lvgl/src/core/lv_obj.c ****             dsc->shadow_color = lv_obj_get_style_shadow_color(obj, LV_PART_SCROLLBAR);
 621              		.loc 1 676 32 discriminator 1 view .LVU208
 622 0108 A086     		strh	r0, [r4, #52]	@ movhi
 677:lvgl/src/core/lv_obj.c ****         }
 623              		.loc 1 677 13 is_stmt 1 view .LVU209
 624              	.LVL59:
 625              	.LBB125:
ARM GAS  C:\usertemp\ccIlwJXO.s 			page 47


 626              	.LBI125:
 313:lvgl/src/core/lv_obj_style_gen.h **** {
 627              		.loc 3 313 26 view .LVU210
 628              	.LBB126:
 315:lvgl/src/core/lv_obj_style_gen.h ****     return v.color;
 629              		.loc 3 315 5 view .LVU211
 315:lvgl/src/core/lv_obj_style_gen.h ****     return v.color;
 630              		.loc 3 315 26 is_stmt 0 view .LVU212
 631 010a 4422     		movs	r2, #68
 632 010c 4FF48031 		mov	r1, #65536
 633 0110 2846     		mov	r0, r5
 634 0112 FFF7FEFF 		bl	lv_obj_get_style_prop
 635              	.LVL60:
 316:lvgl/src/core/lv_obj_style_gen.h **** }
 636              		.loc 3 316 5 is_stmt 1 view .LVU213
 316:lvgl/src/core/lv_obj_style_gen.h **** }
 637              		.loc 3 316 5 is_stmt 0 view .LVU214
 638              	.LBE126:
 639              	.LBE125:
 677:lvgl/src/core/lv_obj.c ****         }
 640              		.loc 1 677 33 view .LVU215
 641 0116 A085     		strh	r0, [r4, #44]	@ movhi
 642 0118 99E7     		b	.L36
 643              		.cfi_endproc
 644              	.LFE184:
 646              		.section	.text.draw_scrollbar,"ax",%progbits
 647              		.align	1
 648              		.syntax unified
 649              		.thumb
 650              		.thumb_func
 652              	draw_scrollbar:
 653              	.LVL61:
 654              	.LFB183:
 612:lvgl/src/core/lv_obj.c **** 
 655              		.loc 1 612 1 is_stmt 1 view -0
 656              		.cfi_startproc
 657              		@ args = 0, pretend = 0, frame = 144
 658              		@ frame_needed = 0, uses_anonymous_args = 0
 612:lvgl/src/core/lv_obj.c **** 
 659              		.loc 1 612 1 is_stmt 0 view .LVU217
 660 0000 70B5     		push	{r4, r5, r6, lr}
 661              	.LCFI6:
 662              		.cfi_def_cfa_offset 16
 663              		.cfi_offset 4, -16
 664              		.cfi_offset 5, -12
 665              		.cfi_offset 6, -8
 666              		.cfi_offset 14, -4
 667 0002 A4B0     		sub	sp, sp, #144
 668              	.LCFI7:
 669              		.cfi_def_cfa_offset 160
 670 0004 0446     		mov	r4, r0
 671 0006 0D46     		mov	r5, r1
 614:lvgl/src/core/lv_obj.c ****     lv_area_t ver_area;
 672              		.loc 1 614 5 is_stmt 1 view .LVU218
 615:lvgl/src/core/lv_obj.c ****     lv_obj_get_scrollbar_area(obj, &hor_area, &ver_area);
 673              		.loc 1 615 5 view .LVU219
 616:lvgl/src/core/lv_obj.c **** 
ARM GAS  C:\usertemp\ccIlwJXO.s 			page 48


 674              		.loc 1 616 5 view .LVU220
 675 0008 20AA     		add	r2, sp, #128
 676 000a 22A9     		add	r1, sp, #136
 677              	.LVL62:
 616:lvgl/src/core/lv_obj.c **** 
 678              		.loc 1 616 5 is_stmt 0 view .LVU221
 679 000c FFF7FEFF 		bl	lv_obj_get_scrollbar_area
 680              	.LVL63:
 618:lvgl/src/core/lv_obj.c **** 
 681              		.loc 1 618 5 is_stmt 1 view .LVU222
 618:lvgl/src/core/lv_obj.c **** 
 682              		.loc 1 618 8 is_stmt 0 view .LVU223
 683 0010 22A8     		add	r0, sp, #136
 684 0012 FFF7FEFF 		bl	lv_area_get_size
 685              	.LVL64:
 618:lvgl/src/core/lv_obj.c **** 
 686              		.loc 1 618 7 discriminator 1 view .LVU224
 687 0016 18B9     		cbnz	r0, .L48
 618:lvgl/src/core/lv_obj.c **** 
 688              		.loc 1 618 44 discriminator 1 view .LVU225
 689 0018 20A8     		add	r0, sp, #128
 690 001a FFF7FEFF 		bl	lv_area_get_size
 691              	.LVL65:
 618:lvgl/src/core/lv_obj.c **** 
 692              		.loc 1 618 41 discriminator 1 view .LVU226
 693 001e 28B1     		cbz	r0, .L47
 694              	.L48:
 620:lvgl/src/core/lv_obj.c ****     lv_res_t sb_res = scrollbar_init_draw_dsc(obj, &draw_dsc);
 695              		.loc 1 620 5 is_stmt 1 view .LVU227
 621:lvgl/src/core/lv_obj.c ****     if(sb_res != LV_RES_OK) return;
 696              		.loc 1 621 5 view .LVU228
 621:lvgl/src/core/lv_obj.c ****     if(sb_res != LV_RES_OK) return;
 697              		.loc 1 621 23 is_stmt 0 view .LVU229
 698 0020 12A9     		add	r1, sp, #72
 699 0022 2046     		mov	r0, r4
 700 0024 FFF7FEFF 		bl	scrollbar_init_draw_dsc
 701              	.LVL66:
 622:lvgl/src/core/lv_obj.c **** 
 702              		.loc 1 622 5 is_stmt 1 view .LVU230
 622:lvgl/src/core/lv_obj.c **** 
 703              		.loc 1 622 7 is_stmt 0 view .LVU231
 704 0028 0128     		cmp	r0, #1
 705 002a 01D0     		beq	.L54
 706              	.LVL67:
 707              	.L47:
 644:lvgl/src/core/lv_obj.c **** 
 708              		.loc 1 644 1 view .LVU232
 709 002c 24B0     		add	sp, sp, #144
 710              	.LCFI8:
 711              		.cfi_remember_state
 712              		.cfi_def_cfa_offset 16
 713              		@ sp needed
 714 002e 70BD     		pop	{r4, r5, r6, pc}
 715              	.LVL68:
 716              	.L54:
 717              	.LCFI9:
 718              		.cfi_restore_state
ARM GAS  C:\usertemp\ccIlwJXO.s 			page 49


 624:lvgl/src/core/lv_obj.c ****     lv_obj_draw_dsc_init(&part_dsc, draw_ctx);
 719              		.loc 1 624 5 is_stmt 1 view .LVU233
 625:lvgl/src/core/lv_obj.c ****     part_dsc.class_p = MY_CLASS;
 720              		.loc 1 625 5 view .LVU234
 721 0030 2946     		mov	r1, r5
 722 0032 6846     		mov	r0, sp
 723              	.LVL69:
 625:lvgl/src/core/lv_obj.c ****     part_dsc.class_p = MY_CLASS;
 724              		.loc 1 625 5 is_stmt 0 view .LVU235
 725 0034 FFF7FEFF 		bl	lv_obj_draw_dsc_init
 726              	.LVL70:
 626:lvgl/src/core/lv_obj.c ****     part_dsc.type = LV_OBJ_DRAW_PART_SCROLLBAR;
 727              		.loc 1 626 5 is_stmt 1 view .LVU236
 626:lvgl/src/core/lv_obj.c ****     part_dsc.type = LV_OBJ_DRAW_PART_SCROLLBAR;
 728              		.loc 1 626 22 is_stmt 0 view .LVU237
 729 0038 1B4B     		ldr	r3, .L56
 730 003a 0193     		str	r3, [sp, #4]
 627:lvgl/src/core/lv_obj.c ****     part_dsc.rect_dsc = &draw_dsc;
 731              		.loc 1 627 5 is_stmt 1 view .LVU238
 627:lvgl/src/core/lv_obj.c ****     part_dsc.rect_dsc = &draw_dsc;
 732              		.loc 1 627 19 is_stmt 0 view .LVU239
 733 003c 0223     		movs	r3, #2
 734 003e 0293     		str	r3, [sp, #8]
 628:lvgl/src/core/lv_obj.c ****     part_dsc.part = LV_PART_SCROLLBAR;
 735              		.loc 1 628 5 is_stmt 1 view .LVU240
 628:lvgl/src/core/lv_obj.c ****     part_dsc.part = LV_PART_SCROLLBAR;
 736              		.loc 1 628 23 is_stmt 0 view .LVU241
 737 0040 12AB     		add	r3, sp, #72
 738 0042 0493     		str	r3, [sp, #16]
 629:lvgl/src/core/lv_obj.c **** 
 739              		.loc 1 629 5 is_stmt 1 view .LVU242
 629:lvgl/src/core/lv_obj.c **** 
 740              		.loc 1 629 19 is_stmt 0 view .LVU243
 741 0044 4FF48033 		mov	r3, #65536
 742 0048 0D93     		str	r3, [sp, #52]
 631:lvgl/src/core/lv_obj.c ****         part_dsc.draw_area = &hor_area;
 743              		.loc 1 631 5 is_stmt 1 view .LVU244
 631:lvgl/src/core/lv_obj.c ****         part_dsc.draw_area = &hor_area;
 744              		.loc 1 631 8 is_stmt 0 view .LVU245
 745 004a 22A8     		add	r0, sp, #136
 746 004c FFF7FEFF 		bl	lv_area_get_size
 747              	.LVL71:
 631:lvgl/src/core/lv_obj.c ****         part_dsc.draw_area = &hor_area;
 748              		.loc 1 631 7 discriminator 1 view .LVU246
 749 0050 B8B9     		cbnz	r0, .L55
 750              	.L50:
 637:lvgl/src/core/lv_obj.c ****         part_dsc.draw_area = &ver_area;
 751              		.loc 1 637 5 is_stmt 1 view .LVU247
 637:lvgl/src/core/lv_obj.c ****         part_dsc.draw_area = &ver_area;
 752              		.loc 1 637 8 is_stmt 0 view .LVU248
 753 0052 20A8     		add	r0, sp, #128
 754 0054 FFF7FEFF 		bl	lv_area_get_size
 755              	.LVL72:
 637:lvgl/src/core/lv_obj.c ****         part_dsc.draw_area = &ver_area;
 756              		.loc 1 637 7 discriminator 1 view .LVU249
 757 0058 0028     		cmp	r0, #0
 758 005a E7D0     		beq	.L47
ARM GAS  C:\usertemp\ccIlwJXO.s 			page 50


 638:lvgl/src/core/lv_obj.c ****         lv_event_send(obj, LV_EVENT_DRAW_PART_BEGIN, &part_dsc);
 759              		.loc 1 638 9 is_stmt 1 view .LVU250
 638:lvgl/src/core/lv_obj.c ****         lv_event_send(obj, LV_EVENT_DRAW_PART_BEGIN, &part_dsc);
 760              		.loc 1 638 28 is_stmt 0 view .LVU251
 761 005c 20AE     		add	r6, sp, #128
 762 005e 0396     		str	r6, [sp, #12]
 639:lvgl/src/core/lv_obj.c ****         part_dsc.draw_area = &ver_area;
 763              		.loc 1 639 9 is_stmt 1 view .LVU252
 764 0060 6A46     		mov	r2, sp
 765 0062 1A21     		movs	r1, #26
 766 0064 2046     		mov	r0, r4
 767 0066 FFF7FEFF 		bl	lv_event_send
 768              	.LVL73:
 640:lvgl/src/core/lv_obj.c ****         lv_draw_rect(draw_ctx, &draw_dsc, &ver_area);
 769              		.loc 1 640 9 view .LVU253
 640:lvgl/src/core/lv_obj.c ****         lv_draw_rect(draw_ctx, &draw_dsc, &ver_area);
 770              		.loc 1 640 28 is_stmt 0 view .LVU254
 771 006a 0396     		str	r6, [sp, #12]
 641:lvgl/src/core/lv_obj.c ****         lv_event_send(obj, LV_EVENT_DRAW_PART_END, &part_dsc);
 772              		.loc 1 641 9 is_stmt 1 view .LVU255
 773 006c 3246     		mov	r2, r6
 774 006e 12A9     		add	r1, sp, #72
 775 0070 2846     		mov	r0, r5
 776 0072 FFF7FEFF 		bl	lv_draw_rect
 777              	.LVL74:
 642:lvgl/src/core/lv_obj.c ****     }
 778              		.loc 1 642 9 view .LVU256
 779 0076 6A46     		mov	r2, sp
 780 0078 1B21     		movs	r1, #27
 781 007a 2046     		mov	r0, r4
 782 007c FFF7FEFF 		bl	lv_event_send
 783              	.LVL75:
 784 0080 D4E7     		b	.L47
 785              	.L55:
 632:lvgl/src/core/lv_obj.c ****         lv_event_send(obj, LV_EVENT_DRAW_PART_BEGIN, &part_dsc);
 786              		.loc 1 632 9 view .LVU257
 632:lvgl/src/core/lv_obj.c ****         lv_event_send(obj, LV_EVENT_DRAW_PART_BEGIN, &part_dsc);
 787              		.loc 1 632 28 is_stmt 0 view .LVU258
 788 0082 22AE     		add	r6, sp, #136
 789 0084 0396     		str	r6, [sp, #12]
 633:lvgl/src/core/lv_obj.c ****         lv_draw_rect(draw_ctx, &draw_dsc, &hor_area);
 790              		.loc 1 633 9 is_stmt 1 view .LVU259
 791 0086 6A46     		mov	r2, sp
 792 0088 1A21     		movs	r1, #26
 793 008a 2046     		mov	r0, r4
 794 008c FFF7FEFF 		bl	lv_event_send
 795              	.LVL76:
 634:lvgl/src/core/lv_obj.c ****         lv_event_send(obj, LV_EVENT_DRAW_PART_END, &part_dsc);
 796              		.loc 1 634 9 view .LVU260
 797 0090 3246     		mov	r2, r6
 798 0092 12A9     		add	r1, sp, #72
 799 0094 2846     		mov	r0, r5
 800 0096 FFF7FEFF 		bl	lv_draw_rect
 801              	.LVL77:
 635:lvgl/src/core/lv_obj.c ****     }
 802              		.loc 1 635 9 view .LVU261
 803 009a 6A46     		mov	r2, sp
ARM GAS  C:\usertemp\ccIlwJXO.s 			page 51


 804 009c 1B21     		movs	r1, #27
 805 009e 2046     		mov	r0, r4
 806 00a0 FFF7FEFF 		bl	lv_event_send
 807              	.LVL78:
 808 00a4 D5E7     		b	.L50
 809              	.L57:
 810 00a6 00BF     		.align	2
 811              	.L56:
 812 00a8 00000000 		.word	lv_obj_class
 813              		.cfi_endproc
 814              	.LFE183:
 816              		.section	.text.lv_obj_draw,"ax",%progbits
 817              		.align	1
 818              		.syntax unified
 819              		.thumb
 820              		.thumb_func
 822              	lv_obj_draw:
 823              	.LVL79:
 824              	.LFB182:
 456:lvgl/src/core/lv_obj.c ****     lv_event_code_t code = lv_event_get_code(e);
 825              		.loc 1 456 1 view -0
 826              		.cfi_startproc
 827              		@ args = 0, pretend = 0, frame = 136
 828              		@ frame_needed = 0, uses_anonymous_args = 0
 456:lvgl/src/core/lv_obj.c ****     lv_event_code_t code = lv_event_get_code(e);
 829              		.loc 1 456 1 is_stmt 0 view .LVU263
 830 0000 2DE9F041 		push	{r4, r5, r6, r7, r8, lr}
 831              	.LCFI10:
 832              		.cfi_def_cfa_offset 24
 833              		.cfi_offset 4, -24
 834              		.cfi_offset 5, -20
 835              		.cfi_offset 6, -16
 836              		.cfi_offset 7, -12
 837              		.cfi_offset 8, -8
 838              		.cfi_offset 14, -4
 839 0004 A2B0     		sub	sp, sp, #136
 840              	.LCFI11:
 841              		.cfi_def_cfa_offset 160
 842 0006 0646     		mov	r6, r0
 457:lvgl/src/core/lv_obj.c ****     lv_obj_t * obj = lv_event_get_target(e);
 843              		.loc 1 457 5 is_stmt 1 view .LVU264
 457:lvgl/src/core/lv_obj.c ****     lv_obj_t * obj = lv_event_get_target(e);
 844              		.loc 1 457 28 is_stmt 0 view .LVU265
 845 0008 FFF7FEFF 		bl	lv_event_get_code
 846              	.LVL80:
 457:lvgl/src/core/lv_obj.c ****     lv_obj_t * obj = lv_event_get_target(e);
 847              		.loc 1 457 28 view .LVU266
 848 000c 0546     		mov	r5, r0
 849              	.LVL81:
 458:lvgl/src/core/lv_obj.c ****     if(code == LV_EVENT_COVER_CHECK) {
 850              		.loc 1 458 5 is_stmt 1 view .LVU267
 458:lvgl/src/core/lv_obj.c ****     if(code == LV_EVENT_COVER_CHECK) {
 851              		.loc 1 458 22 is_stmt 0 view .LVU268
 852 000e 3046     		mov	r0, r6
 853 0010 FFF7FEFF 		bl	lv_event_get_target
 854              	.LVL82:
 855 0014 0446     		mov	r4, r0
ARM GAS  C:\usertemp\ccIlwJXO.s 			page 52


 856              	.LVL83:
 459:lvgl/src/core/lv_obj.c ****         lv_cover_check_info_t * info = lv_event_get_param(e);
 857              		.loc 1 459 5 is_stmt 1 view .LVU269
 459:lvgl/src/core/lv_obj.c ****         lv_cover_check_info_t * info = lv_event_get_param(e);
 858              		.loc 1 459 7 is_stmt 0 view .LVU270
 859 0016 122D     		cmp	r5, #18
 860 0018 07D0     		beq	.L76
 502:lvgl/src/core/lv_obj.c ****         lv_draw_ctx_t * draw_ctx = lv_event_get_draw_ctx(e);
 861              		.loc 1 502 10 is_stmt 1 view .LVU271
 502:lvgl/src/core/lv_obj.c ****         lv_draw_ctx_t * draw_ctx = lv_event_get_draw_ctx(e);
 862              		.loc 1 502 12 is_stmt 0 view .LVU272
 863 001a 152D     		cmp	r5, #21
 864 001c 78D0     		beq	.L77
 563:lvgl/src/core/lv_obj.c ****         lv_draw_ctx_t * draw_ctx = lv_event_get_draw_ctx(e);
 865              		.loc 1 563 10 is_stmt 1 view .LVU273
 563:lvgl/src/core/lv_obj.c ****         lv_draw_ctx_t * draw_ctx = lv_event_get_draw_ctx(e);
 866              		.loc 1 563 12 is_stmt 0 view .LVU274
 867 001e 182D     		cmp	r5, #24
 868 0020 00F01081 		beq	.L78
 869              	.LVL84:
 870              	.L58:
 609:lvgl/src/core/lv_obj.c **** 
 871              		.loc 1 609 1 view .LVU275
 872 0024 22B0     		add	sp, sp, #136
 873              	.LCFI12:
 874              		.cfi_remember_state
 875              		.cfi_def_cfa_offset 24
 876              		@ sp needed
 877 0026 BDE8F081 		pop	{r4, r5, r6, r7, r8, pc}
 878              	.LVL85:
 879              	.L76:
 880              	.LCFI13:
 881              		.cfi_restore_state
 882              	.LBB127:
 460:lvgl/src/core/lv_obj.c ****         if(info->res == LV_COVER_RES_MASKED) return;
 883              		.loc 1 460 9 is_stmt 1 view .LVU276
 460:lvgl/src/core/lv_obj.c ****         if(info->res == LV_COVER_RES_MASKED) return;
 884              		.loc 1 460 40 is_stmt 0 view .LVU277
 885 002a 3046     		mov	r0, r6
 886              	.LVL86:
 460:lvgl/src/core/lv_obj.c ****         if(info->res == LV_COVER_RES_MASKED) return;
 887              		.loc 1 460 40 view .LVU278
 888 002c FFF7FEFF 		bl	lv_event_get_param
 889              	.LVL87:
 890 0030 0546     		mov	r5, r0
 891              	.LVL88:
 461:lvgl/src/core/lv_obj.c ****         if(lv_obj_get_style_clip_corner(obj, LV_PART_MAIN)) {
 892              		.loc 1 461 9 is_stmt 1 view .LVU279
 461:lvgl/src/core/lv_obj.c ****         if(lv_obj_get_style_clip_corner(obj, LV_PART_MAIN)) {
 893              		.loc 1 461 16 is_stmt 0 view .LVU280
 894 0032 0378     		ldrb	r3, [r0]	@ zero_extendqisi2
 461:lvgl/src/core/lv_obj.c ****         if(lv_obj_get_style_clip_corner(obj, LV_PART_MAIN)) {
 895              		.loc 1 461 11 view .LVU281
 896 0034 022B     		cmp	r3, #2
 897 0036 F5D0     		beq	.L58
 462:lvgl/src/core/lv_obj.c ****             info->res = LV_COVER_RES_MASKED;
 898              		.loc 1 462 9 is_stmt 1 view .LVU282
ARM GAS  C:\usertemp\ccIlwJXO.s 			page 53


 899              	.LVL89:
 900              	.LBB128:
 901              	.LBI128:
 487:lvgl/src/core/lv_obj_style_gen.h **** {
 902              		.loc 3 487 20 view .LVU283
 903              	.LBB129:
 489:lvgl/src/core/lv_obj_style_gen.h ****     return (bool)v.num;
 904              		.loc 3 489 5 view .LVU284
 489:lvgl/src/core/lv_obj_style_gen.h ****     return (bool)v.num;
 905              		.loc 3 489 26 is_stmt 0 view .LVU285
 906 0038 6122     		movs	r2, #97
 907 003a 0021     		movs	r1, #0
 908 003c 2046     		mov	r0, r4
 909              	.LVL90:
 489:lvgl/src/core/lv_obj_style_gen.h ****     return (bool)v.num;
 910              		.loc 3 489 26 view .LVU286
 911 003e FFF7FEFF 		bl	lv_obj_get_style_prop
 912              	.LVL91:
 490:lvgl/src/core/lv_obj_style_gen.h **** }
 913              		.loc 3 490 5 is_stmt 1 view .LVU287
 490:lvgl/src/core/lv_obj_style_gen.h **** }
 914              		.loc 3 490 5 is_stmt 0 view .LVU288
 915              	.LBE129:
 916              	.LBE128:
 462:lvgl/src/core/lv_obj.c ****             info->res = LV_COVER_RES_MASKED;
 917              		.loc 1 462 11 discriminator 1 view .LVU289
 918 0042 10B1     		cbz	r0, .L61
 463:lvgl/src/core/lv_obj.c ****             return;
 919              		.loc 1 463 13 is_stmt 1 view .LVU290
 463:lvgl/src/core/lv_obj.c ****             return;
 920              		.loc 1 463 23 is_stmt 0 view .LVU291
 921 0044 0223     		movs	r3, #2
 922 0046 2B70     		strb	r3, [r5]
 464:lvgl/src/core/lv_obj.c ****         }
 923              		.loc 1 464 13 is_stmt 1 view .LVU292
 924 0048 ECE7     		b	.L58
 925              	.L61:
 468:lvgl/src/core/lv_obj.c ****         lv_coord_t w = lv_obj_get_style_transform_width(obj, LV_PART_MAIN);
 926              		.loc 1 468 9 view .LVU293
 927              	.LVL92:
 928              	.LBB130:
 929              	.LBI130:
 481:lvgl/src/core/lv_obj_style_gen.h **** {
 930              		.loc 3 481 26 view .LVU294
 931              	.LBB131:
 483:lvgl/src/core/lv_obj_style_gen.h ****     return (lv_coord_t)v.num;
 932              		.loc 3 483 5 view .LVU295
 483:lvgl/src/core/lv_obj_style_gen.h ****     return (lv_coord_t)v.num;
 933              		.loc 3 483 26 is_stmt 0 view .LVU296
 934 004a 6022     		movs	r2, #96
 935 004c 0021     		movs	r1, #0
 936 004e 2046     		mov	r0, r4
 937 0050 FFF7FEFF 		bl	lv_obj_get_style_prop
 938              	.LVL93:
 484:lvgl/src/core/lv_obj_style_gen.h **** }
 939              		.loc 3 484 5 is_stmt 1 view .LVU297
 484:lvgl/src/core/lv_obj_style_gen.h **** }
ARM GAS  C:\usertemp\ccIlwJXO.s 			page 54


 940              		.loc 3 484 12 is_stmt 0 view .LVU298
 941 0054 07B2     		sxth	r7, r0
 942              	.LVL94:
 484:lvgl/src/core/lv_obj_style_gen.h **** }
 943              		.loc 3 484 12 view .LVU299
 944              	.LBE131:
 945              	.LBE130:
 469:lvgl/src/core/lv_obj.c ****         lv_coord_t h = lv_obj_get_style_transform_height(obj, LV_PART_MAIN);
 946              		.loc 1 469 9 is_stmt 1 view .LVU300
 947              	.LBB132:
 948              	.LBI132:
  55:lvgl/src/core/lv_obj_style_gen.h **** {
 949              		.loc 3 55 26 view .LVU301
 950              	.LBB133:
  57:lvgl/src/core/lv_obj_style_gen.h ****     return (lv_coord_t)v.num;
 951              		.loc 3 57 5 view .LVU302
  57:lvgl/src/core/lv_obj_style_gen.h ****     return (lv_coord_t)v.num;
 952              		.loc 3 57 26 is_stmt 0 view .LVU303
 953 0056 40F60A02 		movw	r2, #2058
 954 005a 0021     		movs	r1, #0
 955 005c 2046     		mov	r0, r4
 956 005e FFF7FEFF 		bl	lv_obj_get_style_prop
 957              	.LVL95:
 958 0062 0646     		mov	r6, r0
 959              	.LVL96:
  58:lvgl/src/core/lv_obj_style_gen.h **** }
 960              		.loc 3 58 5 is_stmt 1 view .LVU304
  58:lvgl/src/core/lv_obj_style_gen.h **** }
 961              		.loc 3 58 5 is_stmt 0 view .LVU305
 962              	.LBE133:
 963              	.LBE132:
 470:lvgl/src/core/lv_obj.c ****         lv_area_t coords;
 964              		.loc 1 470 9 is_stmt 1 view .LVU306
 965              	.LBB134:
 966              	.LBI134:
  61:lvgl/src/core/lv_obj_style_gen.h **** {
 967              		.loc 3 61 26 view .LVU307
 968              	.LBB135:
  63:lvgl/src/core/lv_obj_style_gen.h ****     return (lv_coord_t)v.num;
 969              		.loc 3 63 5 view .LVU308
  63:lvgl/src/core/lv_obj_style_gen.h ****     return (lv_coord_t)v.num;
 970              		.loc 3 63 26 is_stmt 0 view .LVU309
 971 0064 40F60B02 		movw	r2, #2059
 972 0068 0021     		movs	r1, #0
 973 006a 2046     		mov	r0, r4
 974 006c FFF7FEFF 		bl	lv_obj_get_style_prop
 975              	.LVL97:
  64:lvgl/src/core/lv_obj_style_gen.h **** }
 976              		.loc 3 64 5 is_stmt 1 view .LVU310
  64:lvgl/src/core/lv_obj_style_gen.h **** }
 977              		.loc 3 64 5 is_stmt 0 view .LVU311
 978              	.LBE135:
 979              	.LBE134:
 471:lvgl/src/core/lv_obj.c ****         lv_area_copy(&coords, &obj->coords);
 980              		.loc 1 471 9 is_stmt 1 view .LVU312
 472:lvgl/src/core/lv_obj.c ****         coords.x1 -= w;
 981              		.loc 1 472 9 view .LVU313
ARM GAS  C:\usertemp\ccIlwJXO.s 			page 55


 982              	.LBB136:
 983              	.LBI136:
 984              		.file 4 "lvgl/src/core/../misc/../font/../misc/lv_area.h"
   1:lvgl/src/core/../misc/../font/../misc/lv_area.h **** /**
   2:lvgl/src/core/../misc/../font/../misc/lv_area.h ****  * @file lv_area.h
   3:lvgl/src/core/../misc/../font/../misc/lv_area.h ****  *
   4:lvgl/src/core/../misc/../font/../misc/lv_area.h ****  */
   5:lvgl/src/core/../misc/../font/../misc/lv_area.h **** 
   6:lvgl/src/core/../misc/../font/../misc/lv_area.h **** #ifndef LV_AREA_H
   7:lvgl/src/core/../misc/../font/../misc/lv_area.h **** #define LV_AREA_H
   8:lvgl/src/core/../misc/../font/../misc/lv_area.h **** 
   9:lvgl/src/core/../misc/../font/../misc/lv_area.h **** #ifdef __cplusplus
  10:lvgl/src/core/../misc/../font/../misc/lv_area.h **** extern "C" {
  11:lvgl/src/core/../misc/../font/../misc/lv_area.h **** #endif
  12:lvgl/src/core/../misc/../font/../misc/lv_area.h **** 
  13:lvgl/src/core/../misc/../font/../misc/lv_area.h **** /*********************
  14:lvgl/src/core/../misc/../font/../misc/lv_area.h ****  *      INCLUDES
  15:lvgl/src/core/../misc/../font/../misc/lv_area.h ****  *********************/
  16:lvgl/src/core/../misc/../font/../misc/lv_area.h **** #include "../lv_conf_internal.h"
  17:lvgl/src/core/../misc/../font/../misc/lv_area.h **** #include <stdbool.h>
  18:lvgl/src/core/../misc/../font/../misc/lv_area.h **** #include <stdint.h>
  19:lvgl/src/core/../misc/../font/../misc/lv_area.h **** 
  20:lvgl/src/core/../misc/../font/../misc/lv_area.h **** /*********************
  21:lvgl/src/core/../misc/../font/../misc/lv_area.h ****  *      DEFINES
  22:lvgl/src/core/../misc/../font/../misc/lv_area.h ****  *********************/
  23:lvgl/src/core/../misc/../font/../misc/lv_area.h **** 
  24:lvgl/src/core/../misc/../font/../misc/lv_area.h **** #if LV_USE_LARGE_COORD
  25:lvgl/src/core/../misc/../font/../misc/lv_area.h **** typedef int32_t lv_coord_t;
  26:lvgl/src/core/../misc/../font/../misc/lv_area.h **** #else
  27:lvgl/src/core/../misc/../font/../misc/lv_area.h **** typedef int16_t lv_coord_t;
  28:lvgl/src/core/../misc/../font/../misc/lv_area.h **** #endif
  29:lvgl/src/core/../misc/../font/../misc/lv_area.h **** 
  30:lvgl/src/core/../misc/../font/../misc/lv_area.h **** /**********************
  31:lvgl/src/core/../misc/../font/../misc/lv_area.h ****  *      TYPEDEFS
  32:lvgl/src/core/../misc/../font/../misc/lv_area.h ****  **********************/
  33:lvgl/src/core/../misc/../font/../misc/lv_area.h **** 
  34:lvgl/src/core/../misc/../font/../misc/lv_area.h **** /**
  35:lvgl/src/core/../misc/../font/../misc/lv_area.h ****  * Represents a point on the screen.
  36:lvgl/src/core/../misc/../font/../misc/lv_area.h ****  */
  37:lvgl/src/core/../misc/../font/../misc/lv_area.h **** typedef struct {
  38:lvgl/src/core/../misc/../font/../misc/lv_area.h ****     lv_coord_t x;
  39:lvgl/src/core/../misc/../font/../misc/lv_area.h ****     lv_coord_t y;
  40:lvgl/src/core/../misc/../font/../misc/lv_area.h **** } lv_point_t;
  41:lvgl/src/core/../misc/../font/../misc/lv_area.h **** 
  42:lvgl/src/core/../misc/../font/../misc/lv_area.h **** /** Represents an area of the screen.*/
  43:lvgl/src/core/../misc/../font/../misc/lv_area.h **** typedef struct {
  44:lvgl/src/core/../misc/../font/../misc/lv_area.h ****     lv_coord_t x1;
  45:lvgl/src/core/../misc/../font/../misc/lv_area.h ****     lv_coord_t y1;
  46:lvgl/src/core/../misc/../font/../misc/lv_area.h ****     lv_coord_t x2;
  47:lvgl/src/core/../misc/../font/../misc/lv_area.h ****     lv_coord_t y2;
  48:lvgl/src/core/../misc/../font/../misc/lv_area.h **** } lv_area_t;
  49:lvgl/src/core/../misc/../font/../misc/lv_area.h **** 
  50:lvgl/src/core/../misc/../font/../misc/lv_area.h **** /** Alignments*/
  51:lvgl/src/core/../misc/../font/../misc/lv_area.h **** enum {
  52:lvgl/src/core/../misc/../font/../misc/lv_area.h ****     LV_ALIGN_DEFAULT = 0,
  53:lvgl/src/core/../misc/../font/../misc/lv_area.h ****     LV_ALIGN_TOP_LEFT,
  54:lvgl/src/core/../misc/../font/../misc/lv_area.h ****     LV_ALIGN_TOP_MID,
ARM GAS  C:\usertemp\ccIlwJXO.s 			page 56


  55:lvgl/src/core/../misc/../font/../misc/lv_area.h ****     LV_ALIGN_TOP_RIGHT,
  56:lvgl/src/core/../misc/../font/../misc/lv_area.h ****     LV_ALIGN_BOTTOM_LEFT,
  57:lvgl/src/core/../misc/../font/../misc/lv_area.h ****     LV_ALIGN_BOTTOM_MID,
  58:lvgl/src/core/../misc/../font/../misc/lv_area.h ****     LV_ALIGN_BOTTOM_RIGHT,
  59:lvgl/src/core/../misc/../font/../misc/lv_area.h ****     LV_ALIGN_LEFT_MID,
  60:lvgl/src/core/../misc/../font/../misc/lv_area.h ****     LV_ALIGN_RIGHT_MID,
  61:lvgl/src/core/../misc/../font/../misc/lv_area.h ****     LV_ALIGN_CENTER,
  62:lvgl/src/core/../misc/../font/../misc/lv_area.h **** 
  63:lvgl/src/core/../misc/../font/../misc/lv_area.h ****     LV_ALIGN_OUT_TOP_LEFT,
  64:lvgl/src/core/../misc/../font/../misc/lv_area.h ****     LV_ALIGN_OUT_TOP_MID,
  65:lvgl/src/core/../misc/../font/../misc/lv_area.h ****     LV_ALIGN_OUT_TOP_RIGHT,
  66:lvgl/src/core/../misc/../font/../misc/lv_area.h ****     LV_ALIGN_OUT_BOTTOM_LEFT,
  67:lvgl/src/core/../misc/../font/../misc/lv_area.h ****     LV_ALIGN_OUT_BOTTOM_MID,
  68:lvgl/src/core/../misc/../font/../misc/lv_area.h ****     LV_ALIGN_OUT_BOTTOM_RIGHT,
  69:lvgl/src/core/../misc/../font/../misc/lv_area.h ****     LV_ALIGN_OUT_LEFT_TOP,
  70:lvgl/src/core/../misc/../font/../misc/lv_area.h ****     LV_ALIGN_OUT_LEFT_MID,
  71:lvgl/src/core/../misc/../font/../misc/lv_area.h ****     LV_ALIGN_OUT_LEFT_BOTTOM,
  72:lvgl/src/core/../misc/../font/../misc/lv_area.h ****     LV_ALIGN_OUT_RIGHT_TOP,
  73:lvgl/src/core/../misc/../font/../misc/lv_area.h ****     LV_ALIGN_OUT_RIGHT_MID,
  74:lvgl/src/core/../misc/../font/../misc/lv_area.h ****     LV_ALIGN_OUT_RIGHT_BOTTOM,
  75:lvgl/src/core/../misc/../font/../misc/lv_area.h **** };
  76:lvgl/src/core/../misc/../font/../misc/lv_area.h **** typedef uint8_t lv_align_t;
  77:lvgl/src/core/../misc/../font/../misc/lv_area.h **** 
  78:lvgl/src/core/../misc/../font/../misc/lv_area.h **** enum {
  79:lvgl/src/core/../misc/../font/../misc/lv_area.h ****     LV_DIR_NONE     = 0x00,
  80:lvgl/src/core/../misc/../font/../misc/lv_area.h ****     LV_DIR_LEFT     = (1 << 0),
  81:lvgl/src/core/../misc/../font/../misc/lv_area.h ****     LV_DIR_RIGHT    = (1 << 1),
  82:lvgl/src/core/../misc/../font/../misc/lv_area.h ****     LV_DIR_TOP      = (1 << 2),
  83:lvgl/src/core/../misc/../font/../misc/lv_area.h ****     LV_DIR_BOTTOM   = (1 << 3),
  84:lvgl/src/core/../misc/../font/../misc/lv_area.h ****     LV_DIR_HOR      = LV_DIR_LEFT | LV_DIR_RIGHT,
  85:lvgl/src/core/../misc/../font/../misc/lv_area.h ****     LV_DIR_VER      = LV_DIR_TOP | LV_DIR_BOTTOM,
  86:lvgl/src/core/../misc/../font/../misc/lv_area.h ****     LV_DIR_ALL      = LV_DIR_HOR | LV_DIR_VER,
  87:lvgl/src/core/../misc/../font/../misc/lv_area.h **** };
  88:lvgl/src/core/../misc/../font/../misc/lv_area.h **** 
  89:lvgl/src/core/../misc/../font/../misc/lv_area.h **** typedef uint8_t lv_dir_t;
  90:lvgl/src/core/../misc/../font/../misc/lv_area.h **** 
  91:lvgl/src/core/../misc/../font/../misc/lv_area.h **** /**********************
  92:lvgl/src/core/../misc/../font/../misc/lv_area.h ****  * GLOBAL PROTOTYPES
  93:lvgl/src/core/../misc/../font/../misc/lv_area.h ****  **********************/
  94:lvgl/src/core/../misc/../font/../misc/lv_area.h **** 
  95:lvgl/src/core/../misc/../font/../misc/lv_area.h **** /**
  96:lvgl/src/core/../misc/../font/../misc/lv_area.h ****  * Initialize an area
  97:lvgl/src/core/../misc/../font/../misc/lv_area.h ****  * @param area_p pointer to an area
  98:lvgl/src/core/../misc/../font/../misc/lv_area.h ****  * @param x1 left coordinate of the area
  99:lvgl/src/core/../misc/../font/../misc/lv_area.h ****  * @param y1 top coordinate of the area
 100:lvgl/src/core/../misc/../font/../misc/lv_area.h ****  * @param x2 right coordinate of the area
 101:lvgl/src/core/../misc/../font/../misc/lv_area.h ****  * @param y2 bottom coordinate of the area
 102:lvgl/src/core/../misc/../font/../misc/lv_area.h ****  */
 103:lvgl/src/core/../misc/../font/../misc/lv_area.h **** void lv_area_set(lv_area_t * area_p, lv_coord_t x1, lv_coord_t y1, lv_coord_t x2, lv_coord_t y2);
 104:lvgl/src/core/../misc/../font/../misc/lv_area.h **** 
 105:lvgl/src/core/../misc/../font/../misc/lv_area.h **** /**
 106:lvgl/src/core/../misc/../font/../misc/lv_area.h ****  * Copy an area
 107:lvgl/src/core/../misc/../font/../misc/lv_area.h ****  * @param dest pointer to the destination area
 108:lvgl/src/core/../misc/../font/../misc/lv_area.h ****  * @param src pointer to the source area
 109:lvgl/src/core/../misc/../font/../misc/lv_area.h ****  */
 110:lvgl/src/core/../misc/../font/../misc/lv_area.h **** inline static void lv_area_copy(lv_area_t * dest, const lv_area_t * src)
 985              		.loc 4 110 20 view .LVU314
ARM GAS  C:\usertemp\ccIlwJXO.s 			page 57


 986              	.LBB137:
 111:lvgl/src/core/../misc/../font/../misc/lv_area.h **** {
 112:lvgl/src/core/../misc/../font/../misc/lv_area.h ****     dest->x1 = src->x1;
 987              		.loc 4 112 5 view .LVU315
 988              		.loc 4 112 19 is_stmt 0 view .LVU316
 989 0070 B4F91410 		ldrsh	r1, [r4, #20]
 990              		.loc 4 112 14 view .LVU317
 991 0074 ADF84010 		strh	r1, [sp, #64]	@ movhi
 113:lvgl/src/core/../misc/../font/../misc/lv_area.h ****     dest->y1 = src->y1;
 992              		.loc 4 113 5 is_stmt 1 view .LVU318
 993              		.loc 4 113 19 is_stmt 0 view .LVU319
 994 0078 B4F91630 		ldrsh	r3, [r4, #22]
 995              		.loc 4 113 14 view .LVU320
 996 007c ADF84230 		strh	r3, [sp, #66]	@ movhi
 114:lvgl/src/core/../misc/../font/../misc/lv_area.h ****     dest->x2 = src->x2;
 997              		.loc 4 114 5 is_stmt 1 view .LVU321
 998              		.loc 4 114 19 is_stmt 0 view .LVU322
 999 0080 B4F918C0 		ldrsh	ip, [r4, #24]
 1000              		.loc 4 114 14 view .LVU323
 1001 0084 ADF844C0 		strh	ip, [sp, #68]	@ movhi
 115:lvgl/src/core/../misc/../font/../misc/lv_area.h ****     dest->y2 = src->y2;
 1002              		.loc 4 115 5 is_stmt 1 view .LVU324
 1003              		.loc 4 115 19 is_stmt 0 view .LVU325
 1004 0088 B4F91A20 		ldrsh	r2, [r4, #26]
 1005              		.loc 4 115 14 view .LVU326
 1006 008c ADF84620 		strh	r2, [sp, #70]	@ movhi
 1007              	.LVL98:
 1008              		.loc 4 115 14 view .LVU327
 1009              	.LBE137:
 1010              	.LBE136:
 473:lvgl/src/core/lv_obj.c ****         coords.x2 += w;
 1011              		.loc 1 473 9 is_stmt 1 view .LVU328
 473:lvgl/src/core/lv_obj.c ****         coords.x2 += w;
 1012              		.loc 1 473 15 is_stmt 0 view .LVU329
 1013 0090 89B2     		uxth	r1, r1
 473:lvgl/src/core/lv_obj.c ****         coords.x2 += w;
 1014              		.loc 1 473 19 view .LVU330
 1015 0092 B6B2     		uxth	r6, r6
 473:lvgl/src/core/lv_obj.c ****         coords.x2 += w;
 1016              		.loc 1 473 19 view .LVU331
 1017 0094 891B     		subs	r1, r1, r6
 1018 0096 ADF84010 		strh	r1, [sp, #64]	@ movhi
 474:lvgl/src/core/lv_obj.c ****         coords.y1 -= h;
 1019              		.loc 1 474 9 is_stmt 1 view .LVU332
 474:lvgl/src/core/lv_obj.c ****         coords.y1 -= h;
 1020              		.loc 1 474 19 is_stmt 0 view .LVU333
 1021 009a 16FA8CFC 		uxtah	ip, r6, ip
 1022 009e ADF844C0 		strh	ip, [sp, #68]	@ movhi
 475:lvgl/src/core/lv_obj.c ****         coords.y2 += h;
 1023              		.loc 1 475 9 is_stmt 1 view .LVU334
 475:lvgl/src/core/lv_obj.c ****         coords.y2 += h;
 1024              		.loc 1 475 15 is_stmt 0 view .LVU335
 1025 00a2 9BB2     		uxth	r3, r3
 475:lvgl/src/core/lv_obj.c ****         coords.y2 += h;
 1026              		.loc 1 475 19 view .LVU336
 1027 00a4 80B2     		uxth	r0, r0
 475:lvgl/src/core/lv_obj.c ****         coords.y2 += h;
ARM GAS  C:\usertemp\ccIlwJXO.s 			page 58


 1028              		.loc 1 475 19 view .LVU337
 1029 00a6 1B1A     		subs	r3, r3, r0
 1030 00a8 ADF84230 		strh	r3, [sp, #66]	@ movhi
 476:lvgl/src/core/lv_obj.c **** 
 1031              		.loc 1 476 9 is_stmt 1 view .LVU338
 476:lvgl/src/core/lv_obj.c **** 
 1032              		.loc 1 476 19 is_stmt 0 view .LVU339
 1033 00ac 10FA82F2 		uxtah	r2, r0, r2
 1034 00b0 ADF84620 		strh	r2, [sp, #70]	@ movhi
 478:lvgl/src/core/lv_obj.c ****             info->res = LV_COVER_RES_NOT_COVER;
 1035              		.loc 1 478 9 is_stmt 1 view .LVU340
 478:lvgl/src/core/lv_obj.c ****             info->res = LV_COVER_RES_NOT_COVER;
 1036              		.loc 1 478 12 is_stmt 0 view .LVU341
 1037 00b4 3A46     		mov	r2, r7
 1038 00b6 10A9     		add	r1, sp, #64
 1039 00b8 6868     		ldr	r0, [r5, #4]
 1040              	.LVL99:
 478:lvgl/src/core/lv_obj.c ****             info->res = LV_COVER_RES_NOT_COVER;
 1041              		.loc 1 478 12 view .LVU342
 1042 00ba FFF7FEFF 		bl	_lv_area_is_in
 1043              	.LVL100:
 478:lvgl/src/core/lv_obj.c ****             info->res = LV_COVER_RES_NOT_COVER;
 1044              		.loc 1 478 11 discriminator 1 view .LVU343
 1045 00be 10B9     		cbnz	r0, .L62
 479:lvgl/src/core/lv_obj.c ****             return;
 1046              		.loc 1 479 13 is_stmt 1 view .LVU344
 479:lvgl/src/core/lv_obj.c ****             return;
 1047              		.loc 1 479 23 is_stmt 0 view .LVU345
 1048 00c0 0123     		movs	r3, #1
 1049 00c2 2B70     		strb	r3, [r5]
 480:lvgl/src/core/lv_obj.c ****         }
 1050              		.loc 1 480 13 is_stmt 1 view .LVU346
 1051 00c4 AEE7     		b	.L58
 1052              	.L62:
 483:lvgl/src/core/lv_obj.c ****             info->res = LV_COVER_RES_NOT_COVER;
 1053              		.loc 1 483 9 view .LVU347
 1054              	.LVL101:
 1055              	.LBB138:
 1056              	.LBI138:
 139:lvgl/src/core/lv_obj_style_gen.h **** {
 1057              		.loc 3 139 24 view .LVU348
 1058              	.LBB139:
 141:lvgl/src/core/lv_obj_style_gen.h ****     return (lv_opa_t)v.num;
 1059              		.loc 3 141 5 view .LVU349
 141:lvgl/src/core/lv_obj_style_gen.h ****     return (lv_opa_t)v.num;
 1060              		.loc 3 141 26 is_stmt 0 view .LVU350
 1061 00c6 2122     		movs	r2, #33
 1062 00c8 0021     		movs	r1, #0
 1063 00ca 2046     		mov	r0, r4
 1064 00cc FFF7FEFF 		bl	lv_obj_get_style_prop
 1065              	.LVL102:
 142:lvgl/src/core/lv_obj_style_gen.h **** }
 1066              		.loc 3 142 5 is_stmt 1 view .LVU351
 142:lvgl/src/core/lv_obj_style_gen.h **** }
 1067              		.loc 3 142 12 is_stmt 0 view .LVU352
 1068 00d0 C0B2     		uxtb	r0, r0
 1069              	.LVL103:
ARM GAS  C:\usertemp\ccIlwJXO.s 			page 59


 142:lvgl/src/core/lv_obj_style_gen.h **** }
 1070              		.loc 3 142 12 view .LVU353
 1071              	.LBE139:
 1072              	.LBE138:
 483:lvgl/src/core/lv_obj.c ****             info->res = LV_COVER_RES_NOT_COVER;
 1073              		.loc 1 483 11 discriminator 1 view .LVU354
 1074 00d2 FC28     		cmp	r0, #252
 1075 00d4 02D8     		bhi	.L63
 484:lvgl/src/core/lv_obj.c ****             return;
 1076              		.loc 1 484 13 is_stmt 1 view .LVU355
 484:lvgl/src/core/lv_obj.c ****             return;
 1077              		.loc 1 484 23 is_stmt 0 view .LVU356
 1078 00d6 0123     		movs	r3, #1
 1079 00d8 2B70     		strb	r3, [r5]
 485:lvgl/src/core/lv_obj.c ****         }
 1080              		.loc 1 485 13 is_stmt 1 view .LVU357
 1081 00da A3E7     		b	.L58
 1082              	.L63:
 489:lvgl/src/core/lv_obj.c ****             info->res = LV_COVER_RES_NOT_COVER;
 1083              		.loc 1 489 9 view .LVU358
 1084              	.LVL104:
 1085              	.LBB140:
 1086              	.LBI140:
 497:lvgl/src/core/lv_obj_style_gen.h **** }
 498:lvgl/src/core/lv_obj_style_gen.h **** 
 499:lvgl/src/core/lv_obj_style_gen.h **** static inline const lv_color_filter_dsc_t * lv_obj_get_style_color_filter_dsc(const struct _lv_obj_
 500:lvgl/src/core/lv_obj_style_gen.h ****                                                                               uint32_t part)
 501:lvgl/src/core/lv_obj_style_gen.h **** {
 502:lvgl/src/core/lv_obj_style_gen.h ****     lv_style_value_t v = lv_obj_get_style_prop(obj, part, LV_STYLE_COLOR_FILTER_DSC);
 503:lvgl/src/core/lv_obj_style_gen.h ****     return (const lv_color_filter_dsc_t *)v.ptr;
 504:lvgl/src/core/lv_obj_style_gen.h **** }
 505:lvgl/src/core/lv_obj_style_gen.h **** 
 506:lvgl/src/core/lv_obj_style_gen.h **** static inline lv_opa_t lv_obj_get_style_color_filter_opa(const struct _lv_obj_t * obj, uint32_t par
 507:lvgl/src/core/lv_obj_style_gen.h **** {
 508:lvgl/src/core/lv_obj_style_gen.h ****     lv_style_value_t v = lv_obj_get_style_prop(obj, part, LV_STYLE_COLOR_FILTER_OPA);
 509:lvgl/src/core/lv_obj_style_gen.h ****     return (lv_opa_t)v.num;
 510:lvgl/src/core/lv_obj_style_gen.h **** }
 511:lvgl/src/core/lv_obj_style_gen.h **** 
 512:lvgl/src/core/lv_obj_style_gen.h **** static inline uint32_t lv_obj_get_style_anim_time(const struct _lv_obj_t * obj, uint32_t part)
 513:lvgl/src/core/lv_obj_style_gen.h **** {
 514:lvgl/src/core/lv_obj_style_gen.h ****     lv_style_value_t v = lv_obj_get_style_prop(obj, part, LV_STYLE_ANIM_TIME);
 515:lvgl/src/core/lv_obj_style_gen.h ****     return (uint32_t)v.num;
 516:lvgl/src/core/lv_obj_style_gen.h **** }
 517:lvgl/src/core/lv_obj_style_gen.h **** 
 518:lvgl/src/core/lv_obj_style_gen.h **** static inline uint32_t lv_obj_get_style_anim_speed(const struct _lv_obj_t * obj, uint32_t part)
 519:lvgl/src/core/lv_obj_style_gen.h **** {
 520:lvgl/src/core/lv_obj_style_gen.h ****     lv_style_value_t v = lv_obj_get_style_prop(obj, part, LV_STYLE_ANIM_SPEED);
 521:lvgl/src/core/lv_obj_style_gen.h ****     return (uint32_t)v.num;
 522:lvgl/src/core/lv_obj_style_gen.h **** }
 523:lvgl/src/core/lv_obj_style_gen.h **** 
 524:lvgl/src/core/lv_obj_style_gen.h **** static inline const lv_style_transition_dsc_t * lv_obj_get_style_transition(const struct _lv_obj_t 
 525:lvgl/src/core/lv_obj_style_gen.h **** {
 526:lvgl/src/core/lv_obj_style_gen.h ****     lv_style_value_t v = lv_obj_get_style_prop(obj, part, LV_STYLE_TRANSITION);
 527:lvgl/src/core/lv_obj_style_gen.h ****     return (const lv_style_transition_dsc_t *)v.ptr;
 528:lvgl/src/core/lv_obj_style_gen.h **** }
 529:lvgl/src/core/lv_obj_style_gen.h **** 
 530:lvgl/src/core/lv_obj_style_gen.h **** static inline lv_blend_mode_t lv_obj_get_style_blend_mode(const struct _lv_obj_t * obj, uint32_t pa
ARM GAS  C:\usertemp\ccIlwJXO.s 			page 60


 1087              		.loc 3 530 31 view .LVU359
 1088              	.LBB141:
 531:lvgl/src/core/lv_obj_style_gen.h **** {
 532:lvgl/src/core/lv_obj_style_gen.h ****     lv_style_value_t v = lv_obj_get_style_prop(obj, part, LV_STYLE_BLEND_MODE);
 1089              		.loc 3 532 5 view .LVU360
 1090              		.loc 3 532 26 is_stmt 0 view .LVU361
 1091 00dc 6822     		movs	r2, #104
 1092 00de 0021     		movs	r1, #0
 1093 00e0 2046     		mov	r0, r4
 1094 00e2 FFF7FEFF 		bl	lv_obj_get_style_prop
 1095              	.LVL105:
 533:lvgl/src/core/lv_obj_style_gen.h ****     return (lv_blend_mode_t)v.num;
 1096              		.loc 3 533 5 is_stmt 1 view .LVU362
 1097              		.loc 3 533 5 is_stmt 0 view .LVU363
 1098              	.LBE141:
 1099              	.LBE140:
 489:lvgl/src/core/lv_obj.c ****             info->res = LV_COVER_RES_NOT_COVER;
 1100              		.loc 1 489 11 discriminator 1 view .LVU364
 1101 00e6 10F0FF0F 		tst	r0, #255
 1102 00ea 02D0     		beq	.L64
 490:lvgl/src/core/lv_obj.c ****             return;
 1103              		.loc 1 490 13 is_stmt 1 view .LVU365
 490:lvgl/src/core/lv_obj.c ****             return;
 1104              		.loc 1 490 23 is_stmt 0 view .LVU366
 1105 00ec 0123     		movs	r3, #1
 1106 00ee 2B70     		strb	r3, [r5]
 491:lvgl/src/core/lv_obj.c ****         }
 1107              		.loc 1 491 13 is_stmt 1 view .LVU367
 1108 00f0 98E7     		b	.L58
 1109              	.L64:
 494:lvgl/src/core/lv_obj.c ****             info->res = LV_COVER_RES_NOT_COVER;
 1110              		.loc 1 494 9 view .LVU368
 1111              	.LVL106:
 1112              	.LBB142:
 1113              	.LBI142:
 493:lvgl/src/core/lv_obj_style_gen.h **** {
 1114              		.loc 3 493 24 view .LVU369
 1115              	.LBB143:
 495:lvgl/src/core/lv_obj_style_gen.h ****     return (lv_opa_t)v.num;
 1116              		.loc 3 495 5 view .LVU370
 495:lvgl/src/core/lv_obj_style_gen.h ****     return (lv_opa_t)v.num;
 1117              		.loc 3 495 26 is_stmt 0 view .LVU371
 1118 00f2 40F26242 		movw	r2, #1122
 1119 00f6 0021     		movs	r1, #0
 1120 00f8 2046     		mov	r0, r4
 1121 00fa FFF7FEFF 		bl	lv_obj_get_style_prop
 1122              	.LVL107:
 496:lvgl/src/core/lv_obj_style_gen.h **** }
 1123              		.loc 3 496 5 is_stmt 1 view .LVU372
 496:lvgl/src/core/lv_obj_style_gen.h **** }
 1124              		.loc 3 496 12 is_stmt 0 view .LVU373
 1125 00fe C3B2     		uxtb	r3, r0
 1126              	.LVL108:
 496:lvgl/src/core/lv_obj_style_gen.h **** }
 1127              		.loc 3 496 12 view .LVU374
 1128              	.LBE143:
 1129              	.LBE142:
ARM GAS  C:\usertemp\ccIlwJXO.s 			page 61


 494:lvgl/src/core/lv_obj.c ****             info->res = LV_COVER_RES_NOT_COVER;
 1130              		.loc 1 494 11 discriminator 1 view .LVU375
 1131 0100 FC2B     		cmp	r3, #252
 1132 0102 02D9     		bls	.L79
 499:lvgl/src/core/lv_obj.c **** 
 1133              		.loc 1 499 9 is_stmt 1 view .LVU376
 499:lvgl/src/core/lv_obj.c **** 
 1134              		.loc 1 499 19 is_stmt 0 view .LVU377
 1135 0104 0023     		movs	r3, #0
 1136 0106 2B70     		strb	r3, [r5]
 1137              	.LBE127:
 1138 0108 8CE7     		b	.L58
 1139              	.L79:
 1140              	.LBB144:
 495:lvgl/src/core/lv_obj.c ****             return;
 1141              		.loc 1 495 13 is_stmt 1 view .LVU378
 495:lvgl/src/core/lv_obj.c ****             return;
 1142              		.loc 1 495 23 is_stmt 0 view .LVU379
 1143 010a 0123     		movs	r3, #1
 1144 010c 2B70     		strb	r3, [r5]
 496:lvgl/src/core/lv_obj.c ****         }
 1145              		.loc 1 496 13 is_stmt 1 view .LVU380
 1146 010e 89E7     		b	.L58
 1147              	.LVL109:
 1148              	.L77:
 496:lvgl/src/core/lv_obj.c ****         }
 1149              		.loc 1 496 13 is_stmt 0 view .LVU381
 1150              	.LBE144:
 1151              	.LBB145:
 503:lvgl/src/core/lv_obj.c ****         lv_draw_rect_dsc_t draw_dsc;
 1152              		.loc 1 503 9 is_stmt 1 view .LVU382
 503:lvgl/src/core/lv_obj.c ****         lv_draw_rect_dsc_t draw_dsc;
 1153              		.loc 1 503 36 is_stmt 0 view .LVU383
 1154 0110 3046     		mov	r0, r6
 1155              	.LVL110:
 503:lvgl/src/core/lv_obj.c ****         lv_draw_rect_dsc_t draw_dsc;
 1156              		.loc 1 503 36 view .LVU384
 1157 0112 FFF7FEFF 		bl	lv_event_get_draw_ctx
 1158              	.LVL111:
 1159 0116 0646     		mov	r6, r0
 1160              	.LVL112:
 504:lvgl/src/core/lv_obj.c ****         lv_draw_rect_dsc_init(&draw_dsc);
 1161              		.loc 1 504 9 is_stmt 1 view .LVU385
 505:lvgl/src/core/lv_obj.c ****         /*If the border is drawn later disable loading its properties*/
 1162              		.loc 1 505 9 view .LVU386
 1163 0118 02A8     		add	r0, sp, #8
 1164              	.LVL113:
 505:lvgl/src/core/lv_obj.c ****         /*If the border is drawn later disable loading its properties*/
 1165              		.loc 1 505 9 is_stmt 0 view .LVU387
 1166 011a FFF7FEFF 		bl	lv_draw_rect_dsc_init
 1167              	.LVL114:
 507:lvgl/src/core/lv_obj.c ****             draw_dsc.border_post = 1;
 1168              		.loc 1 507 9 is_stmt 1 view .LVU388
 1169              	.LBB146:
 1170              	.LBI146:
 253:lvgl/src/core/lv_obj_style_gen.h **** {
 1171              		.loc 3 253 20 view .LVU389
ARM GAS  C:\usertemp\ccIlwJXO.s 			page 62


 1172              	.LBB147:
 255:lvgl/src/core/lv_obj_style_gen.h ****     return (bool)v.num;
 1173              		.loc 3 255 5 view .LVU390
 255:lvgl/src/core/lv_obj_style_gen.h ****     return (bool)v.num;
 1174              		.loc 3 255 26 is_stmt 0 view .LVU391
 1175 011e 3422     		movs	r2, #52
 1176 0120 0021     		movs	r1, #0
 1177 0122 2046     		mov	r0, r4
 1178 0124 FFF7FEFF 		bl	lv_obj_get_style_prop
 1179              	.LVL115:
 256:lvgl/src/core/lv_obj_style_gen.h **** }
 1180              		.loc 3 256 5 is_stmt 1 view .LVU392
 256:lvgl/src/core/lv_obj_style_gen.h **** }
 1181              		.loc 3 256 5 is_stmt 0 view .LVU393
 1182              	.LBE147:
 1183              	.LBE146:
 507:lvgl/src/core/lv_obj.c ****             draw_dsc.border_post = 1;
 1184              		.loc 1 507 11 discriminator 1 view .LVU394
 1185 0128 28B1     		cbz	r0, .L68
 508:lvgl/src/core/lv_obj.c ****         }
 1186              		.loc 1 508 13 is_stmt 1 view .LVU395
 508:lvgl/src/core/lv_obj.c ****         }
 1187              		.loc 1 508 34 is_stmt 0 view .LVU396
 1188 012a 9DF82B30 		ldrb	r3, [sp, #43]	@ zero_extendqisi2
 1189 012e 43F00103 		orr	r3, r3, #1
 1190 0132 8DF82B30 		strb	r3, [sp, #43]
 1191              	.L68:
 511:lvgl/src/core/lv_obj.c ****         lv_coord_t w = lv_obj_get_style_transform_width(obj, LV_PART_MAIN);
 1192              		.loc 1 511 9 is_stmt 1 view .LVU397
 1193 0136 02AF     		add	r7, sp, #8
 1194 0138 3A46     		mov	r2, r7
 1195 013a 0021     		movs	r1, #0
 1196 013c 2046     		mov	r0, r4
 1197 013e FFF7FEFF 		bl	lv_obj_init_draw_rect_dsc
 1198              	.LVL116:
 512:lvgl/src/core/lv_obj.c ****         lv_coord_t h = lv_obj_get_style_transform_height(obj, LV_PART_MAIN);
 1199              		.loc 1 512 9 view .LVU398
 1200              	.LBB148:
 1201              	.LBI148:
  55:lvgl/src/core/lv_obj_style_gen.h **** {
 1202              		.loc 3 55 26 view .LVU399
 1203              	.LBB149:
  57:lvgl/src/core/lv_obj_style_gen.h ****     return (lv_coord_t)v.num;
 1204              		.loc 3 57 5 view .LVU400
  57:lvgl/src/core/lv_obj_style_gen.h ****     return (lv_coord_t)v.num;
 1205              		.loc 3 57 26 is_stmt 0 view .LVU401
 1206 0142 40F60A02 		movw	r2, #2058
 1207 0146 0021     		movs	r1, #0
 1208 0148 2046     		mov	r0, r4
 1209 014a FFF7FEFF 		bl	lv_obj_get_style_prop
 1210              	.LVL117:
 1211 014e 0546     		mov	r5, r0
 1212              	.LVL118:
  58:lvgl/src/core/lv_obj_style_gen.h **** }
 1213              		.loc 3 58 5 is_stmt 1 view .LVU402
  58:lvgl/src/core/lv_obj_style_gen.h **** }
 1214              		.loc 3 58 5 is_stmt 0 view .LVU403
ARM GAS  C:\usertemp\ccIlwJXO.s 			page 63


 1215              	.LBE149:
 1216              	.LBE148:
 513:lvgl/src/core/lv_obj.c ****         lv_area_t coords;
 1217              		.loc 1 513 9 is_stmt 1 view .LVU404
 1218              	.LBB150:
 1219              	.LBI150:
  61:lvgl/src/core/lv_obj_style_gen.h **** {
 1220              		.loc 3 61 26 view .LVU405
 1221              	.LBB151:
  63:lvgl/src/core/lv_obj_style_gen.h ****     return (lv_coord_t)v.num;
 1222              		.loc 3 63 5 view .LVU406
  63:lvgl/src/core/lv_obj_style_gen.h ****     return (lv_coord_t)v.num;
 1223              		.loc 3 63 26 is_stmt 0 view .LVU407
 1224 0150 40F60B02 		movw	r2, #2059
 1225 0154 0021     		movs	r1, #0
 1226 0156 2046     		mov	r0, r4
 1227 0158 FFF7FEFF 		bl	lv_obj_get_style_prop
 1228              	.LVL119:
  64:lvgl/src/core/lv_obj_style_gen.h **** }
 1229              		.loc 3 64 5 is_stmt 1 view .LVU408
  64:lvgl/src/core/lv_obj_style_gen.h **** }
 1230              		.loc 3 64 5 is_stmt 0 view .LVU409
 1231              	.LBE151:
 1232              	.LBE150:
 514:lvgl/src/core/lv_obj.c ****         lv_area_copy(&coords, &obj->coords);
 1233              		.loc 1 514 9 is_stmt 1 view .LVU410
 515:lvgl/src/core/lv_obj.c ****         coords.x1 -= w;
 1234              		.loc 1 515 9 view .LVU411
 1235              	.LBB152:
 1236              	.LBI152:
 110:lvgl/src/core/../misc/../font/../misc/lv_area.h **** {
 1237              		.loc 4 110 20 view .LVU412
 1238              	.LBB153:
 112:lvgl/src/core/../misc/../font/../misc/lv_area.h ****     dest->y1 = src->y1;
 1239              		.loc 4 112 5 view .LVU413
 112:lvgl/src/core/../misc/../font/../misc/lv_area.h ****     dest->y1 = src->y1;
 1240              		.loc 4 112 19 is_stmt 0 view .LVU414
 1241 015c B4F91420 		ldrsh	r2, [r4, #20]
 112:lvgl/src/core/../misc/../font/../misc/lv_area.h ****     dest->y1 = src->y1;
 1242              		.loc 4 112 14 view .LVU415
 1243 0160 ADF80020 		strh	r2, [sp]	@ movhi
 113:lvgl/src/core/../misc/../font/../misc/lv_area.h ****     dest->x2 = src->x2;
 1244              		.loc 4 113 5 is_stmt 1 view .LVU416
 113:lvgl/src/core/../misc/../font/../misc/lv_area.h ****     dest->x2 = src->x2;
 1245              		.loc 4 113 19 is_stmt 0 view .LVU417
 1246 0164 B4F91630 		ldrsh	r3, [r4, #22]
 113:lvgl/src/core/../misc/../font/../misc/lv_area.h ****     dest->x2 = src->x2;
 1247              		.loc 4 113 14 view .LVU418
 1248 0168 ADF80230 		strh	r3, [sp, #2]	@ movhi
 114:lvgl/src/core/../misc/../font/../misc/lv_area.h ****     dest->y2 = src->y2;
 1249              		.loc 4 114 5 is_stmt 1 view .LVU419
 114:lvgl/src/core/../misc/../font/../misc/lv_area.h ****     dest->y2 = src->y2;
 1250              		.loc 4 114 19 is_stmt 0 view .LVU420
 1251 016c B4F918C0 		ldrsh	ip, [r4, #24]
 114:lvgl/src/core/../misc/../font/../misc/lv_area.h ****     dest->y2 = src->y2;
 1252              		.loc 4 114 14 view .LVU421
 1253 0170 ADF804C0 		strh	ip, [sp, #4]	@ movhi
ARM GAS  C:\usertemp\ccIlwJXO.s 			page 64


 1254              		.loc 4 115 5 is_stmt 1 view .LVU422
 1255              		.loc 4 115 19 is_stmt 0 view .LVU423
 1256 0174 B4F91A10 		ldrsh	r1, [r4, #26]
 1257              		.loc 4 115 14 view .LVU424
 1258 0178 ADF80610 		strh	r1, [sp, #6]	@ movhi
 1259              	.LVL120:
 1260              		.loc 4 115 14 view .LVU425
 1261              	.LBE153:
 1262              	.LBE152:
 516:lvgl/src/core/lv_obj.c ****         coords.x2 += w;
 1263              		.loc 1 516 9 is_stmt 1 view .LVU426
 516:lvgl/src/core/lv_obj.c ****         coords.x2 += w;
 1264              		.loc 1 516 15 is_stmt 0 view .LVU427
 1265 017c 92B2     		uxth	r2, r2
 516:lvgl/src/core/lv_obj.c ****         coords.x2 += w;
 1266              		.loc 1 516 19 view .LVU428
 1267 017e ADB2     		uxth	r5, r5
 516:lvgl/src/core/lv_obj.c ****         coords.x2 += w;
 1268              		.loc 1 516 19 view .LVU429
 1269 0180 521B     		subs	r2, r2, r5
 1270 0182 ADF80020 		strh	r2, [sp]	@ movhi
 517:lvgl/src/core/lv_obj.c ****         coords.y1 -= h;
 1271              		.loc 1 517 9 is_stmt 1 view .LVU430
 517:lvgl/src/core/lv_obj.c ****         coords.y1 -= h;
 1272              		.loc 1 517 19 is_stmt 0 view .LVU431
 1273 0186 15FA8CFC 		uxtah	ip, r5, ip
 1274 018a ADF804C0 		strh	ip, [sp, #4]	@ movhi
 518:lvgl/src/core/lv_obj.c ****         coords.y2 += h;
 1275              		.loc 1 518 9 is_stmt 1 view .LVU432
 518:lvgl/src/core/lv_obj.c ****         coords.y2 += h;
 1276              		.loc 1 518 15 is_stmt 0 view .LVU433
 1277 018e 9BB2     		uxth	r3, r3
 518:lvgl/src/core/lv_obj.c ****         coords.y2 += h;
 1278              		.loc 1 518 19 view .LVU434
 1279 0190 80B2     		uxth	r0, r0
 518:lvgl/src/core/lv_obj.c ****         coords.y2 += h;
 1280              		.loc 1 518 19 view .LVU435
 1281 0192 1B1A     		subs	r3, r3, r0
 1282 0194 ADF80230 		strh	r3, [sp, #2]	@ movhi
 519:lvgl/src/core/lv_obj.c **** 
 1283              		.loc 1 519 9 is_stmt 1 view .LVU436
 519:lvgl/src/core/lv_obj.c **** 
 1284              		.loc 1 519 19 is_stmt 0 view .LVU437
 1285 0198 10FA81F1 		uxtah	r1, r0, r1
 1286 019c ADF80610 		strh	r1, [sp, #6]	@ movhi
 521:lvgl/src/core/lv_obj.c ****         lv_obj_draw_dsc_init(&part_dsc, draw_ctx);
 1287              		.loc 1 521 9 is_stmt 1 view .LVU438
 522:lvgl/src/core/lv_obj.c ****         part_dsc.class_p = MY_CLASS;
 1288              		.loc 1 522 9 view .LVU439
 1289 01a0 3146     		mov	r1, r6
 1290 01a2 10A8     		add	r0, sp, #64
 1291              	.LVL121:
 522:lvgl/src/core/lv_obj.c ****         part_dsc.class_p = MY_CLASS;
 1292              		.loc 1 522 9 is_stmt 0 view .LVU440
 1293 01a4 FFF7FEFF 		bl	lv_obj_draw_dsc_init
 1294              	.LVL122:
 523:lvgl/src/core/lv_obj.c ****         part_dsc.type = LV_OBJ_DRAW_PART_RECTANGLE;
ARM GAS  C:\usertemp\ccIlwJXO.s 			page 65


 1295              		.loc 1 523 9 is_stmt 1 view .LVU441
 523:lvgl/src/core/lv_obj.c ****         part_dsc.type = LV_OBJ_DRAW_PART_RECTANGLE;
 1296              		.loc 1 523 26 is_stmt 0 view .LVU442
 1297 01a8 684B     		ldr	r3, .L82
 1298 01aa 1193     		str	r3, [sp, #68]
 524:lvgl/src/core/lv_obj.c ****         part_dsc.rect_dsc = &draw_dsc;
 1299              		.loc 1 524 9 is_stmt 1 view .LVU443
 524:lvgl/src/core/lv_obj.c ****         part_dsc.rect_dsc = &draw_dsc;
 1300              		.loc 1 524 23 is_stmt 0 view .LVU444
 1301 01ac 0025     		movs	r5, #0
 1302              	.LVL123:
 524:lvgl/src/core/lv_obj.c ****         part_dsc.rect_dsc = &draw_dsc;
 1303              		.loc 1 524 23 view .LVU445
 1304 01ae 1295     		str	r5, [sp, #72]
 525:lvgl/src/core/lv_obj.c ****         part_dsc.draw_area = &coords;
 1305              		.loc 1 525 9 is_stmt 1 view .LVU446
 525:lvgl/src/core/lv_obj.c ****         part_dsc.draw_area = &coords;
 1306              		.loc 1 525 27 is_stmt 0 view .LVU447
 1307 01b0 1497     		str	r7, [sp, #80]
 526:lvgl/src/core/lv_obj.c ****         part_dsc.part = LV_PART_MAIN;
 1308              		.loc 1 526 9 is_stmt 1 view .LVU448
 526:lvgl/src/core/lv_obj.c ****         part_dsc.part = LV_PART_MAIN;
 1309              		.loc 1 526 28 is_stmt 0 view .LVU449
 1310 01b2 CDF84CD0 		str	sp, [sp, #76]
 527:lvgl/src/core/lv_obj.c ****         lv_event_send(obj, LV_EVENT_DRAW_PART_BEGIN, &part_dsc);
 1311              		.loc 1 527 9 is_stmt 1 view .LVU450
 527:lvgl/src/core/lv_obj.c ****         lv_event_send(obj, LV_EVENT_DRAW_PART_BEGIN, &part_dsc);
 1312              		.loc 1 527 23 is_stmt 0 view .LVU451
 1313 01b6 1D95     		str	r5, [sp, #116]
 528:lvgl/src/core/lv_obj.c **** 
 1314              		.loc 1 528 9 is_stmt 1 view .LVU452
 1315 01b8 10AA     		add	r2, sp, #64
 1316 01ba 1A21     		movs	r1, #26
 1317 01bc 2046     		mov	r0, r4
 1318 01be FFF7FEFF 		bl	lv_event_send
 1319              	.LVL124:
 533:lvgl/src/core/lv_obj.c ****         const void * bg_img_src = draw_dsc.bg_img_src;
 1320              		.loc 1 533 9 view .LVU453
 1321              	.LBB154:
 1322              	.LBI154:
 487:lvgl/src/core/lv_obj_style_gen.h **** {
 1323              		.loc 3 487 20 view .LVU454
 1324              	.LBB155:
 489:lvgl/src/core/lv_obj_style_gen.h ****     return (bool)v.num;
 1325              		.loc 3 489 5 view .LVU455
 489:lvgl/src/core/lv_obj_style_gen.h ****     return (bool)v.num;
 1326              		.loc 3 489 26 is_stmt 0 view .LVU456
 1327 01c2 6122     		movs	r2, #97
 1328 01c4 2946     		mov	r1, r5
 1329 01c6 2046     		mov	r0, r4
 1330 01c8 FFF7FEFF 		bl	lv_obj_get_style_prop
 1331              	.LVL125:
 490:lvgl/src/core/lv_obj_style_gen.h **** }
 1332              		.loc 3 490 5 is_stmt 1 view .LVU457
 490:lvgl/src/core/lv_obj_style_gen.h **** }
 1333              		.loc 3 490 5 is_stmt 0 view .LVU458
 1334              	.LBE155:
ARM GAS  C:\usertemp\ccIlwJXO.s 			page 66


 1335              	.LBE154:
 533:lvgl/src/core/lv_obj.c ****         const void * bg_img_src = draw_dsc.bg_img_src;
 1336              		.loc 1 533 109 discriminator 1 view .LVU459
 1337 01cc 20B1     		cbz	r0, .L73
 533:lvgl/src/core/lv_obj.c ****         const void * bg_img_src = draw_dsc.bg_img_src;
 1338              		.loc 1 533 88 discriminator 1 view .LVU460
 1339 01ce BDF90830 		ldrsh	r3, [sp, #8]
 533:lvgl/src/core/lv_obj.c ****         const void * bg_img_src = draw_dsc.bg_img_src;
 1340              		.loc 1 533 109 discriminator 1 view .LVU461
 1341 01d2 9BB9     		cbnz	r3, .L74
 533:lvgl/src/core/lv_obj.c ****         const void * bg_img_src = draw_dsc.bg_img_src;
 1342              		.loc 1 533 109 discriminator 4 view .LVU462
 1343 01d4 2B46     		mov	r3, r5
 1344 01d6 00E0     		b	.L69
 1345              	.L73:
 1346 01d8 0023     		movs	r3, #0
 1347              	.L69:
 1348              	.LVL126:
 534:lvgl/src/core/lv_obj.c ****         if(clip_corner) {
 1349              		.loc 1 534 9 is_stmt 1 view .LVU463
 534:lvgl/src/core/lv_obj.c ****         if(clip_corner) {
 1350              		.loc 1 534 22 is_stmt 0 view .LVU464
 1351 01da 069F     		ldr	r7, [sp, #24]
 1352              	.LVL127:
 535:lvgl/src/core/lv_obj.c ****             draw_dsc.bg_img_src = NULL;
 1353              		.loc 1 535 9 is_stmt 1 view .LVU465
 535:lvgl/src/core/lv_obj.c ****             draw_dsc.bg_img_src = NULL;
 1354              		.loc 1 535 11 is_stmt 0 view .LVU466
 1355 01dc 1D46     		mov	r5, r3
 1356 01de 0BB1     		cbz	r3, .L70
 536:lvgl/src/core/lv_obj.c ****         }
 1357              		.loc 1 536 13 is_stmt 1 view .LVU467
 536:lvgl/src/core/lv_obj.c ****         }
 1358              		.loc 1 536 33 is_stmt 0 view .LVU468
 1359 01e0 0023     		movs	r3, #0
 1360              	.LVL128:
 536:lvgl/src/core/lv_obj.c ****         }
 1361              		.loc 1 536 33 view .LVU469
 1362 01e2 0693     		str	r3, [sp, #24]
 1363              	.L70:
 540:lvgl/src/core/lv_obj.c **** 
 1364              		.loc 1 540 9 is_stmt 1 view .LVU470
 1365 01e4 6A46     		mov	r2, sp
 1366 01e6 02A9     		add	r1, sp, #8
 1367 01e8 3046     		mov	r0, r6
 1368 01ea FFF7FEFF 		bl	lv_draw_rect
 1369              	.LVL129:
 544:lvgl/src/core/lv_obj.c ****             lv_draw_mask_radius_param_t * mp = lv_mem_buf_get(sizeof(lv_draw_mask_radius_param_t));
 1370              		.loc 1 544 9 view .LVU471
 544:lvgl/src/core/lv_obj.c ****             lv_draw_mask_radius_param_t * mp = lv_mem_buf_get(sizeof(lv_draw_mask_radius_param_t));
 1371              		.loc 1 544 11 is_stmt 0 view .LVU472
 1372 01ee 3DB9     		cbnz	r5, .L80
 1373              	.LVL130:
 1374              	.L71:
 561:lvgl/src/core/lv_obj.c ****     }
 1375              		.loc 1 561 9 is_stmt 1 view .LVU473
 1376 01f0 10AA     		add	r2, sp, #64
ARM GAS  C:\usertemp\ccIlwJXO.s 			page 67


 1377 01f2 1B21     		movs	r1, #27
 1378 01f4 2046     		mov	r0, r4
 1379 01f6 FFF7FEFF 		bl	lv_event_send
 1380              	.LVL131:
 1381              	.LBE145:
 1382 01fa 13E7     		b	.L58
 1383              	.LVL132:
 1384              	.L74:
 1385              	.LBB157:
 533:lvgl/src/core/lv_obj.c ****         const void * bg_img_src = draw_dsc.bg_img_src;
 1386              		.loc 1 533 109 is_stmt 0 discriminator 3 view .LVU474
 1387 01fc 0123     		movs	r3, #1
 1388 01fe ECE7     		b	.L69
 1389              	.LVL133:
 1390              	.L80:
 1391              	.LBB156:
 545:lvgl/src/core/lv_obj.c ****             lv_draw_mask_radius_init(mp, &obj->coords, draw_dsc.radius, false);
 1392              		.loc 1 545 13 is_stmt 1 view .LVU475
 545:lvgl/src/core/lv_obj.c ****             lv_draw_mask_radius_init(mp, &obj->coords, draw_dsc.radius, false);
 1393              		.loc 1 545 48 is_stmt 0 view .LVU476
 1394 0200 1820     		movs	r0, #24
 1395 0202 FFF7FEFF 		bl	lv_mem_buf_get
 1396              	.LVL134:
 1397 0206 0546     		mov	r5, r0
 1398              	.LVL135:
 546:lvgl/src/core/lv_obj.c ****             /*Add the mask and use `obj+8` as custom id. Don't use `obj` directly because it might 
 1399              		.loc 1 546 13 is_stmt 1 view .LVU477
 1400 0208 0023     		movs	r3, #0
 1401 020a BDF90820 		ldrsh	r2, [sp, #8]
 1402 020e 04F11401 		add	r1, r4, #20
 1403 0212 FFF7FEFF 		bl	lv_draw_mask_radius_init
 1404              	.LVL136:
 548:lvgl/src/core/lv_obj.c **** 
 1405              		.loc 1 548 13 view .LVU478
 1406 0216 04F59071 		add	r1, r4, #288
 1407 021a 2846     		mov	r0, r5
 1408 021c FFF7FEFF 		bl	lv_draw_mask_add
 1409              	.LVL137:
 550:lvgl/src/core/lv_obj.c ****                 draw_dsc.bg_opa = LV_OPA_TRANSP;
 1410              		.loc 1 550 13 view .LVU479
 550:lvgl/src/core/lv_obj.c ****                 draw_dsc.bg_opa = LV_OPA_TRANSP;
 1411              		.loc 1 550 15 is_stmt 0 view .LVU480
 1412 0220 002F     		cmp	r7, #0
 1413 0222 E5D0     		beq	.L71
 551:lvgl/src/core/lv_obj.c ****                 draw_dsc.border_opa = LV_OPA_TRANSP;
 1414              		.loc 1 551 17 is_stmt 1 view .LVU481
 551:lvgl/src/core/lv_obj.c ****                 draw_dsc.border_opa = LV_OPA_TRANSP;
 1415              		.loc 1 551 33 is_stmt 0 view .LVU482
 1416 0224 0023     		movs	r3, #0
 1417 0226 8DF80B30 		strb	r3, [sp, #11]
 552:lvgl/src/core/lv_obj.c ****                 draw_dsc.outline_opa = LV_OPA_TRANSP;
 1418              		.loc 1 552 17 is_stmt 1 view .LVU483
 552:lvgl/src/core/lv_obj.c ****                 draw_dsc.outline_opa = LV_OPA_TRANSP;
 1419              		.loc 1 552 37 is_stmt 0 view .LVU484
 1420 022a 8DF82A30 		strb	r3, [sp, #42]
 553:lvgl/src/core/lv_obj.c ****                 draw_dsc.shadow_opa = LV_OPA_TRANSP;
 1421              		.loc 1 553 17 is_stmt 1 view .LVU485
ARM GAS  C:\usertemp\ccIlwJXO.s 			page 68


 553:lvgl/src/core/lv_obj.c ****                 draw_dsc.shadow_opa = LV_OPA_TRANSP;
 1422              		.loc 1 553 38 is_stmt 0 view .LVU486
 1423 022e 8DF83230 		strb	r3, [sp, #50]
 554:lvgl/src/core/lv_obj.c ****                 draw_dsc.bg_img_src = bg_img_src;
 1424              		.loc 1 554 17 is_stmt 1 view .LVU487
 554:lvgl/src/core/lv_obj.c ****                 draw_dsc.bg_img_src = bg_img_src;
 1425              		.loc 1 554 37 is_stmt 0 view .LVU488
 1426 0232 8DF83E30 		strb	r3, [sp, #62]
 555:lvgl/src/core/lv_obj.c ****                 lv_draw_rect(draw_ctx, &draw_dsc, &coords);
 1427              		.loc 1 555 17 is_stmt 1 view .LVU489
 555:lvgl/src/core/lv_obj.c ****                 lv_draw_rect(draw_ctx, &draw_dsc, &coords);
 1428              		.loc 1 555 37 is_stmt 0 view .LVU490
 1429 0236 0697     		str	r7, [sp, #24]
 556:lvgl/src/core/lv_obj.c ****             }
 1430              		.loc 1 556 17 is_stmt 1 view .LVU491
 1431 0238 6A46     		mov	r2, sp
 1432 023a 02A9     		add	r1, sp, #8
 1433 023c 3046     		mov	r0, r6
 1434 023e FFF7FEFF 		bl	lv_draw_rect
 1435              	.LVL138:
 1436 0242 D5E7     		b	.L71
 1437              	.LVL139:
 1438              	.L78:
 556:lvgl/src/core/lv_obj.c ****             }
 1439              		.loc 1 556 17 is_stmt 0 view .LVU492
 1440              	.LBE156:
 1441              	.LBE157:
 1442              	.LBB158:
 564:lvgl/src/core/lv_obj.c ****         draw_scrollbar(obj, draw_ctx);
 1443              		.loc 1 564 9 is_stmt 1 view .LVU493
 564:lvgl/src/core/lv_obj.c ****         draw_scrollbar(obj, draw_ctx);
 1444              		.loc 1 564 36 is_stmt 0 view .LVU494
 1445 0244 3046     		mov	r0, r6
 1446              	.LVL140:
 564:lvgl/src/core/lv_obj.c ****         draw_scrollbar(obj, draw_ctx);
 1447              		.loc 1 564 36 view .LVU495
 1448 0246 FFF7FEFF 		bl	lv_event_get_draw_ctx
 1449              	.LVL141:
 1450 024a 0546     		mov	r5, r0
 1451              	.LVL142:
 565:lvgl/src/core/lv_obj.c **** 
 1452              		.loc 1 565 9 is_stmt 1 view .LVU496
 1453 024c 0146     		mov	r1, r0
 1454 024e 2046     		mov	r0, r4
 1455              	.LVL143:
 565:lvgl/src/core/lv_obj.c **** 
 1456              		.loc 1 565 9 is_stmt 0 view .LVU497
 1457 0250 FFF7FEFF 		bl	draw_scrollbar
 1458              	.LVL144:
 568:lvgl/src/core/lv_obj.c ****             lv_draw_mask_radius_param_t * param = lv_draw_mask_remove_custom(obj + 8);
 1459              		.loc 1 568 9 is_stmt 1 view .LVU498
 1460              	.LBB159:
 1461              	.LBI159:
 487:lvgl/src/core/lv_obj_style_gen.h **** {
 1462              		.loc 3 487 20 view .LVU499
 1463              	.LBB160:
 489:lvgl/src/core/lv_obj_style_gen.h ****     return (bool)v.num;
ARM GAS  C:\usertemp\ccIlwJXO.s 			page 69


 1464              		.loc 3 489 5 view .LVU500
 489:lvgl/src/core/lv_obj_style_gen.h ****     return (bool)v.num;
 1465              		.loc 3 489 26 is_stmt 0 view .LVU501
 1466 0254 6122     		movs	r2, #97
 1467 0256 0021     		movs	r1, #0
 1468 0258 2046     		mov	r0, r4
 1469 025a FFF7FEFF 		bl	lv_obj_get_style_prop
 1470              	.LVL145:
 490:lvgl/src/core/lv_obj_style_gen.h **** }
 1471              		.loc 3 490 5 is_stmt 1 view .LVU502
 490:lvgl/src/core/lv_obj_style_gen.h **** }
 1472              		.loc 3 490 5 is_stmt 0 view .LVU503
 1473              	.LBE160:
 1474              	.LBE159:
 568:lvgl/src/core/lv_obj.c ****             lv_draw_mask_radius_param_t * param = lv_draw_mask_remove_custom(obj + 8);
 1475              		.loc 1 568 11 discriminator 1 view .LVU504
 1476 025e 0028     		cmp	r0, #0
 1477 0260 66D1     		bne	.L81
 1478              	.LVL146:
 1479              	.L72:
 578:lvgl/src/core/lv_obj.c ****             lv_draw_rect_dsc_t draw_dsc;
 1480              		.loc 1 578 9 is_stmt 1 view .LVU505
 1481              	.LBB161:
 1482              	.LBI161:
 253:lvgl/src/core/lv_obj_style_gen.h **** {
 1483              		.loc 3 253 20 view .LVU506
 1484              	.LBB162:
 255:lvgl/src/core/lv_obj_style_gen.h ****     return (bool)v.num;
 1485              		.loc 3 255 5 view .LVU507
 255:lvgl/src/core/lv_obj_style_gen.h ****     return (bool)v.num;
 1486              		.loc 3 255 26 is_stmt 0 view .LVU508
 1487 0262 3422     		movs	r2, #52
 1488 0264 0021     		movs	r1, #0
 1489 0266 2046     		mov	r0, r4
 1490 0268 FFF7FEFF 		bl	lv_obj_get_style_prop
 1491              	.LVL147:
 256:lvgl/src/core/lv_obj_style_gen.h **** }
 1492              		.loc 3 256 5 is_stmt 1 view .LVU509
 256:lvgl/src/core/lv_obj_style_gen.h **** }
 1493              		.loc 3 256 5 is_stmt 0 view .LVU510
 1494              	.LBE162:
 1495              	.LBE161:
 578:lvgl/src/core/lv_obj.c ****             lv_draw_rect_dsc_t draw_dsc;
 1496              		.loc 1 578 11 discriminator 1 view .LVU511
 1497 026c 0028     		cmp	r0, #0
 1498 026e 3FF4D9AE 		beq	.L58
 1499              	.LBB163:
 579:lvgl/src/core/lv_obj.c ****             lv_draw_rect_dsc_init(&draw_dsc);
 1500              		.loc 1 579 13 is_stmt 1 view .LVU512
 580:lvgl/src/core/lv_obj.c ****             draw_dsc.bg_opa = LV_OPA_TRANSP;
 1501              		.loc 1 580 13 view .LVU513
 1502 0272 0DF10808 		add	r8, sp, #8
 1503 0276 4046     		mov	r0, r8
 1504 0278 FFF7FEFF 		bl	lv_draw_rect_dsc_init
 1505              	.LVL148:
 581:lvgl/src/core/lv_obj.c ****             draw_dsc.bg_img_opa = LV_OPA_TRANSP;
 1506              		.loc 1 581 13 view .LVU514
ARM GAS  C:\usertemp\ccIlwJXO.s 			page 70


 581:lvgl/src/core/lv_obj.c ****             draw_dsc.bg_img_opa = LV_OPA_TRANSP;
 1507              		.loc 1 581 29 is_stmt 0 view .LVU515
 1508 027c 0026     		movs	r6, #0
 1509 027e 8DF80B60 		strb	r6, [sp, #11]
 582:lvgl/src/core/lv_obj.c ****             draw_dsc.outline_opa = LV_OPA_TRANSP;
 1510              		.loc 1 582 13 is_stmt 1 view .LVU516
 582:lvgl/src/core/lv_obj.c ****             draw_dsc.outline_opa = LV_OPA_TRANSP;
 1511              		.loc 1 582 33 is_stmt 0 view .LVU517
 1512 0282 8DF82260 		strb	r6, [sp, #34]
 583:lvgl/src/core/lv_obj.c ****             draw_dsc.shadow_opa = LV_OPA_TRANSP;
 1513              		.loc 1 583 13 is_stmt 1 view .LVU518
 583:lvgl/src/core/lv_obj.c ****             draw_dsc.shadow_opa = LV_OPA_TRANSP;
 1514              		.loc 1 583 34 is_stmt 0 view .LVU519
 1515 0286 8DF83260 		strb	r6, [sp, #50]
 584:lvgl/src/core/lv_obj.c ****             lv_obj_init_draw_rect_dsc(obj, LV_PART_MAIN, &draw_dsc);
 1516              		.loc 1 584 13 is_stmt 1 view .LVU520
 584:lvgl/src/core/lv_obj.c ****             lv_obj_init_draw_rect_dsc(obj, LV_PART_MAIN, &draw_dsc);
 1517              		.loc 1 584 33 is_stmt 0 view .LVU521
 1518 028a 8DF83E60 		strb	r6, [sp, #62]
 585:lvgl/src/core/lv_obj.c **** 
 1519              		.loc 1 585 13 is_stmt 1 view .LVU522
 1520 028e 4246     		mov	r2, r8
 1521 0290 3146     		mov	r1, r6
 1522 0292 2046     		mov	r0, r4
 1523 0294 FFF7FEFF 		bl	lv_obj_init_draw_rect_dsc
 1524              	.LVL149:
 587:lvgl/src/core/lv_obj.c ****             lv_coord_t h = lv_obj_get_style_transform_height(obj, LV_PART_MAIN);
 1525              		.loc 1 587 13 view .LVU523
 1526              	.LBB164:
 1527              	.LBI164:
  55:lvgl/src/core/lv_obj_style_gen.h **** {
 1528              		.loc 3 55 26 view .LVU524
 1529              	.LBB165:
  57:lvgl/src/core/lv_obj_style_gen.h ****     return (lv_coord_t)v.num;
 1530              		.loc 3 57 5 view .LVU525
  57:lvgl/src/core/lv_obj_style_gen.h ****     return (lv_coord_t)v.num;
 1531              		.loc 3 57 26 is_stmt 0 view .LVU526
 1532 0298 40F60A02 		movw	r2, #2058
 1533 029c 3146     		mov	r1, r6
 1534 029e 2046     		mov	r0, r4
 1535 02a0 FFF7FEFF 		bl	lv_obj_get_style_prop
 1536              	.LVL150:
 1537 02a4 0746     		mov	r7, r0
 1538              	.LVL151:
  58:lvgl/src/core/lv_obj_style_gen.h **** }
 1539              		.loc 3 58 5 is_stmt 1 view .LVU527
  58:lvgl/src/core/lv_obj_style_gen.h **** }
 1540              		.loc 3 58 5 is_stmt 0 view .LVU528
 1541              	.LBE165:
 1542              	.LBE164:
 588:lvgl/src/core/lv_obj.c ****             lv_area_t coords;
 1543              		.loc 1 588 13 is_stmt 1 view .LVU529
 1544              	.LBB166:
 1545              	.LBI166:
  61:lvgl/src/core/lv_obj_style_gen.h **** {
 1546              		.loc 3 61 26 view .LVU530
 1547              	.LBB167:
ARM GAS  C:\usertemp\ccIlwJXO.s 			page 71


  63:lvgl/src/core/lv_obj_style_gen.h ****     return (lv_coord_t)v.num;
 1548              		.loc 3 63 5 view .LVU531
  63:lvgl/src/core/lv_obj_style_gen.h ****     return (lv_coord_t)v.num;
 1549              		.loc 3 63 26 is_stmt 0 view .LVU532
 1550 02a6 40F60B02 		movw	r2, #2059
 1551 02aa 3146     		mov	r1, r6
 1552 02ac 2046     		mov	r0, r4
 1553 02ae FFF7FEFF 		bl	lv_obj_get_style_prop
 1554              	.LVL152:
  64:lvgl/src/core/lv_obj_style_gen.h **** }
 1555              		.loc 3 64 5 is_stmt 1 view .LVU533
  64:lvgl/src/core/lv_obj_style_gen.h **** }
 1556              		.loc 3 64 5 is_stmt 0 view .LVU534
 1557              	.LBE167:
 1558              	.LBE166:
 589:lvgl/src/core/lv_obj.c ****             lv_area_copy(&coords, &obj->coords);
 1559              		.loc 1 589 13 is_stmt 1 view .LVU535
 590:lvgl/src/core/lv_obj.c ****             coords.x1 -= w;
 1560              		.loc 1 590 13 view .LVU536
 1561              	.LBB168:
 1562              	.LBI168:
 110:lvgl/src/core/../misc/../font/../misc/lv_area.h **** {
 1563              		.loc 4 110 20 view .LVU537
 1564              	.LBB169:
 112:lvgl/src/core/../misc/../font/../misc/lv_area.h ****     dest->y1 = src->y1;
 1565              		.loc 4 112 5 view .LVU538
 112:lvgl/src/core/../misc/../font/../misc/lv_area.h ****     dest->y1 = src->y1;
 1566              		.loc 4 112 19 is_stmt 0 view .LVU539
 1567 02b2 B4F91420 		ldrsh	r2, [r4, #20]
 112:lvgl/src/core/../misc/../font/../misc/lv_area.h ****     dest->y1 = src->y1;
 1568              		.loc 4 112 14 view .LVU540
 1569 02b6 ADF80020 		strh	r2, [sp]	@ movhi
 113:lvgl/src/core/../misc/../font/../misc/lv_area.h ****     dest->x2 = src->x2;
 1570              		.loc 4 113 5 is_stmt 1 view .LVU541
 113:lvgl/src/core/../misc/../font/../misc/lv_area.h ****     dest->x2 = src->x2;
 1571              		.loc 4 113 19 is_stmt 0 view .LVU542
 1572 02ba B4F91630 		ldrsh	r3, [r4, #22]
 113:lvgl/src/core/../misc/../font/../misc/lv_area.h ****     dest->x2 = src->x2;
 1573              		.loc 4 113 14 view .LVU543
 1574 02be ADF80230 		strh	r3, [sp, #2]	@ movhi
 114:lvgl/src/core/../misc/../font/../misc/lv_area.h ****     dest->y2 = src->y2;
 1575              		.loc 4 114 5 is_stmt 1 view .LVU544
 114:lvgl/src/core/../misc/../font/../misc/lv_area.h ****     dest->y2 = src->y2;
 1576              		.loc 4 114 19 is_stmt 0 view .LVU545
 1577 02c2 B4F918C0 		ldrsh	ip, [r4, #24]
 114:lvgl/src/core/../misc/../font/../misc/lv_area.h ****     dest->y2 = src->y2;
 1578              		.loc 4 114 14 view .LVU546
 1579 02c6 ADF804C0 		strh	ip, [sp, #4]	@ movhi
 1580              		.loc 4 115 5 is_stmt 1 view .LVU547
 1581              		.loc 4 115 19 is_stmt 0 view .LVU548
 1582 02ca B4F91A10 		ldrsh	r1, [r4, #26]
 1583              		.loc 4 115 14 view .LVU549
 1584 02ce ADF80610 		strh	r1, [sp, #6]	@ movhi
 1585              	.LVL153:
 1586              		.loc 4 115 14 view .LVU550
 1587              	.LBE169:
 1588              	.LBE168:
ARM GAS  C:\usertemp\ccIlwJXO.s 			page 72


 591:lvgl/src/core/lv_obj.c ****             coords.x2 += w;
 1589              		.loc 1 591 13 is_stmt 1 view .LVU551
 591:lvgl/src/core/lv_obj.c ****             coords.x2 += w;
 1590              		.loc 1 591 19 is_stmt 0 view .LVU552
 1591 02d2 92B2     		uxth	r2, r2
 591:lvgl/src/core/lv_obj.c ****             coords.x2 += w;
 1592              		.loc 1 591 23 view .LVU553
 1593 02d4 BFB2     		uxth	r7, r7
 591:lvgl/src/core/lv_obj.c ****             coords.x2 += w;
 1594              		.loc 1 591 23 view .LVU554
 1595 02d6 D21B     		subs	r2, r2, r7
 1596 02d8 ADF80020 		strh	r2, [sp]	@ movhi
 592:lvgl/src/core/lv_obj.c ****             coords.y1 -= h;
 1597              		.loc 1 592 13 is_stmt 1 view .LVU555
 592:lvgl/src/core/lv_obj.c ****             coords.y1 -= h;
 1598              		.loc 1 592 23 is_stmt 0 view .LVU556
 1599 02dc 17FA8CFC 		uxtah	ip, r7, ip
 1600 02e0 ADF804C0 		strh	ip, [sp, #4]	@ movhi
 593:lvgl/src/core/lv_obj.c ****             coords.y2 += h;
 1601              		.loc 1 593 13 is_stmt 1 view .LVU557
 593:lvgl/src/core/lv_obj.c ****             coords.y2 += h;
 1602              		.loc 1 593 19 is_stmt 0 view .LVU558
 1603 02e4 9BB2     		uxth	r3, r3
 593:lvgl/src/core/lv_obj.c ****             coords.y2 += h;
 1604              		.loc 1 593 23 view .LVU559
 1605 02e6 80B2     		uxth	r0, r0
 593:lvgl/src/core/lv_obj.c ****             coords.y2 += h;
 1606              		.loc 1 593 23 view .LVU560
 1607 02e8 1B1A     		subs	r3, r3, r0
 1608 02ea ADF80230 		strh	r3, [sp, #2]	@ movhi
 594:lvgl/src/core/lv_obj.c **** 
 1609              		.loc 1 594 13 is_stmt 1 view .LVU561
 594:lvgl/src/core/lv_obj.c **** 
 1610              		.loc 1 594 23 is_stmt 0 view .LVU562
 1611 02ee 10FA81F1 		uxtah	r1, r0, r1
 1612 02f2 ADF80610 		strh	r1, [sp, #6]	@ movhi
 596:lvgl/src/core/lv_obj.c ****             lv_obj_draw_dsc_init(&part_dsc, draw_ctx);
 1613              		.loc 1 596 13 is_stmt 1 view .LVU563
 597:lvgl/src/core/lv_obj.c ****             part_dsc.class_p = MY_CLASS;
 1614              		.loc 1 597 13 view .LVU564
 1615 02f6 2946     		mov	r1, r5
 1616 02f8 10A8     		add	r0, sp, #64
 1617              	.LVL154:
 597:lvgl/src/core/lv_obj.c ****             part_dsc.class_p = MY_CLASS;
 1618              		.loc 1 597 13 is_stmt 0 view .LVU565
 1619 02fa FFF7FEFF 		bl	lv_obj_draw_dsc_init
 1620              	.LVL155:
 598:lvgl/src/core/lv_obj.c ****             part_dsc.type = LV_OBJ_DRAW_PART_BORDER_POST;
 1621              		.loc 1 598 13 is_stmt 1 view .LVU566
 598:lvgl/src/core/lv_obj.c ****             part_dsc.type = LV_OBJ_DRAW_PART_BORDER_POST;
 1622              		.loc 1 598 30 is_stmt 0 view .LVU567
 1623 02fe 134B     		ldr	r3, .L82
 1624 0300 1193     		str	r3, [sp, #68]
 599:lvgl/src/core/lv_obj.c ****             part_dsc.rect_dsc = &draw_dsc;
 1625              		.loc 1 599 13 is_stmt 1 view .LVU568
 599:lvgl/src/core/lv_obj.c ****             part_dsc.rect_dsc = &draw_dsc;
 1626              		.loc 1 599 27 is_stmt 0 view .LVU569
ARM GAS  C:\usertemp\ccIlwJXO.s 			page 73


 1627 0302 0123     		movs	r3, #1
 1628 0304 1293     		str	r3, [sp, #72]
 600:lvgl/src/core/lv_obj.c ****             part_dsc.draw_area = &coords;
 1629              		.loc 1 600 13 is_stmt 1 view .LVU570
 600:lvgl/src/core/lv_obj.c ****             part_dsc.draw_area = &coords;
 1630              		.loc 1 600 31 is_stmt 0 view .LVU571
 1631 0306 CDF85080 		str	r8, [sp, #80]
 601:lvgl/src/core/lv_obj.c ****             part_dsc.part = LV_PART_MAIN;
 1632              		.loc 1 601 13 is_stmt 1 view .LVU572
 601:lvgl/src/core/lv_obj.c ****             part_dsc.part = LV_PART_MAIN;
 1633              		.loc 1 601 32 is_stmt 0 view .LVU573
 1634 030a CDF84CD0 		str	sp, [sp, #76]
 602:lvgl/src/core/lv_obj.c ****             lv_event_send(obj, LV_EVENT_DRAW_PART_BEGIN, &part_dsc);
 1635              		.loc 1 602 13 is_stmt 1 view .LVU574
 602:lvgl/src/core/lv_obj.c ****             lv_event_send(obj, LV_EVENT_DRAW_PART_BEGIN, &part_dsc);
 1636              		.loc 1 602 27 is_stmt 0 view .LVU575
 1637 030e 1D96     		str	r6, [sp, #116]
 603:lvgl/src/core/lv_obj.c **** 
 1638              		.loc 1 603 13 is_stmt 1 view .LVU576
