ARM GAS  C:\usertemp\ccBZVumh.s 			page 1


   1              		.cpu cortex-m7
   2              		.arch armv7e-m
   3              		.fpu fpv5-d16
   4              		.eabi_attribute 28, 1
   5              		.eabi_attribute 20, 1
   6              		.eabi_attribute 21, 1
   7              		.eabi_attribute 23, 3
   8              		.eabi_attribute 24, 1
   9              		.eabi_attribute 25, 1
  10              		.eabi_attribute 26, 1
  11              		.eabi_attribute 30, 1
  12              		.eabi_attribute 34, 1
  13              		.eabi_attribute 18, 4
  14              		.file	"lv_obj_scroll.c"
  15              		.text
  16              	.Ltext0:
  17              		.cfi_sections	.debug_frame
  18              		.file 1 "lvgl/src/core/lv_obj_scroll.c"
  19              		.section	.text.scroll_by_raw,"ax",%progbits
  20              		.align	1
  21              		.syntax unified
  22              		.thumb
  23              		.thumb_func
  25              	scroll_by_raw:
  26              	.LVL0:
  27              	.LFB189:
   1:lvgl/src/core/lv_obj_scroll.c **** /**
   2:lvgl/src/core/lv_obj_scroll.c ****  * @file lv_obj_scroll.c
   3:lvgl/src/core/lv_obj_scroll.c ****  *
   4:lvgl/src/core/lv_obj_scroll.c ****  */
   5:lvgl/src/core/lv_obj_scroll.c **** 
   6:lvgl/src/core/lv_obj_scroll.c **** /*********************
   7:lvgl/src/core/lv_obj_scroll.c ****  *      INCLUDES
   8:lvgl/src/core/lv_obj_scroll.c ****  *********************/
   9:lvgl/src/core/lv_obj_scroll.c **** #include "lv_obj_scroll.h"
  10:lvgl/src/core/lv_obj_scroll.c **** #include "lv_obj.h"
  11:lvgl/src/core/lv_obj_scroll.c **** #include "lv_indev.h"
  12:lvgl/src/core/lv_obj_scroll.c **** #include "lv_disp.h"
  13:lvgl/src/core/lv_obj_scroll.c **** #include "lv_indev_scroll.h"
  14:lvgl/src/core/lv_obj_scroll.c **** 
  15:lvgl/src/core/lv_obj_scroll.c **** /*********************
  16:lvgl/src/core/lv_obj_scroll.c ****  *      DEFINES
  17:lvgl/src/core/lv_obj_scroll.c ****  *********************/
  18:lvgl/src/core/lv_obj_scroll.c **** #define MY_CLASS &lv_obj_class
  19:lvgl/src/core/lv_obj_scroll.c **** #define SCROLL_ANIM_TIME_MIN    200    /*ms*/
  20:lvgl/src/core/lv_obj_scroll.c **** #define SCROLL_ANIM_TIME_MAX    400    /*ms*/
  21:lvgl/src/core/lv_obj_scroll.c **** #define SCROLLBAR_MIN_SIZE      (LV_DPX(10))
  22:lvgl/src/core/lv_obj_scroll.c **** 
  23:lvgl/src/core/lv_obj_scroll.c **** /**********************
  24:lvgl/src/core/lv_obj_scroll.c ****  *      TYPEDEFS
  25:lvgl/src/core/lv_obj_scroll.c ****  **********************/
  26:lvgl/src/core/lv_obj_scroll.c **** 
  27:lvgl/src/core/lv_obj_scroll.c **** /**********************
  28:lvgl/src/core/lv_obj_scroll.c ****  *  GLOBAL PROTOTYPES
  29:lvgl/src/core/lv_obj_scroll.c ****  **********************/
  30:lvgl/src/core/lv_obj_scroll.c **** 
  31:lvgl/src/core/lv_obj_scroll.c **** /**********************
ARM GAS  C:\usertemp\ccBZVumh.s 			page 2


  32:lvgl/src/core/lv_obj_scroll.c ****  *  STATIC PROTOTYPES
  33:lvgl/src/core/lv_obj_scroll.c ****  **********************/
  34:lvgl/src/core/lv_obj_scroll.c **** static void scroll_by_raw(lv_obj_t * obj, lv_coord_t x, lv_coord_t y);
  35:lvgl/src/core/lv_obj_scroll.c **** static void scroll_x_anim(void * obj, int32_t v);
  36:lvgl/src/core/lv_obj_scroll.c **** static void scroll_y_anim(void * obj, int32_t v);
  37:lvgl/src/core/lv_obj_scroll.c **** static void scroll_anim_ready_cb(lv_anim_t * a);
  38:lvgl/src/core/lv_obj_scroll.c **** static void scroll_area_into_view(const lv_area_t * area, lv_obj_t * child, lv_point_t * scroll_val
  39:lvgl/src/core/lv_obj_scroll.c ****                                   lv_anim_enable_t anim_en);
  40:lvgl/src/core/lv_obj_scroll.c **** 
  41:lvgl/src/core/lv_obj_scroll.c **** /**********************
  42:lvgl/src/core/lv_obj_scroll.c ****  *  STATIC VARIABLES
  43:lvgl/src/core/lv_obj_scroll.c ****  **********************/
  44:lvgl/src/core/lv_obj_scroll.c **** 
  45:lvgl/src/core/lv_obj_scroll.c **** /**********************
  46:lvgl/src/core/lv_obj_scroll.c ****  *      MACROS
  47:lvgl/src/core/lv_obj_scroll.c ****  **********************/
  48:lvgl/src/core/lv_obj_scroll.c **** 
  49:lvgl/src/core/lv_obj_scroll.c **** /**********************
  50:lvgl/src/core/lv_obj_scroll.c ****  *   GLOBAL FUNCTIONS
  51:lvgl/src/core/lv_obj_scroll.c ****  **********************/
  52:lvgl/src/core/lv_obj_scroll.c **** 
  53:lvgl/src/core/lv_obj_scroll.c **** /*=====================
  54:lvgl/src/core/lv_obj_scroll.c ****  * Setter functions
  55:lvgl/src/core/lv_obj_scroll.c ****  *====================*/
  56:lvgl/src/core/lv_obj_scroll.c **** 
  57:lvgl/src/core/lv_obj_scroll.c **** void lv_obj_set_scrollbar_mode(lv_obj_t * obj, lv_scrollbar_mode_t mode)
  58:lvgl/src/core/lv_obj_scroll.c **** {
  59:lvgl/src/core/lv_obj_scroll.c ****     LV_ASSERT_OBJ(obj, MY_CLASS);
  60:lvgl/src/core/lv_obj_scroll.c **** 
  61:lvgl/src/core/lv_obj_scroll.c ****     lv_obj_allocate_spec_attr(obj);
  62:lvgl/src/core/lv_obj_scroll.c **** 
  63:lvgl/src/core/lv_obj_scroll.c ****     if(obj->spec_attr->scrollbar_mode == mode) return;
  64:lvgl/src/core/lv_obj_scroll.c ****     obj->spec_attr->scrollbar_mode = mode;
  65:lvgl/src/core/lv_obj_scroll.c ****     lv_obj_invalidate(obj);
  66:lvgl/src/core/lv_obj_scroll.c **** }
  67:lvgl/src/core/lv_obj_scroll.c **** 
  68:lvgl/src/core/lv_obj_scroll.c **** void lv_obj_set_scroll_dir(lv_obj_t * obj, lv_dir_t dir)
  69:lvgl/src/core/lv_obj_scroll.c **** {
  70:lvgl/src/core/lv_obj_scroll.c ****     lv_obj_allocate_spec_attr(obj);
  71:lvgl/src/core/lv_obj_scroll.c **** 
  72:lvgl/src/core/lv_obj_scroll.c ****     if(dir != obj->spec_attr->scroll_dir) {
  73:lvgl/src/core/lv_obj_scroll.c ****         obj->spec_attr->scroll_dir = dir;
  74:lvgl/src/core/lv_obj_scroll.c ****     }
  75:lvgl/src/core/lv_obj_scroll.c **** }
  76:lvgl/src/core/lv_obj_scroll.c **** 
  77:lvgl/src/core/lv_obj_scroll.c **** void lv_obj_set_scroll_snap_x(lv_obj_t * obj, lv_scroll_snap_t align)
  78:lvgl/src/core/lv_obj_scroll.c **** {
  79:lvgl/src/core/lv_obj_scroll.c ****     lv_obj_allocate_spec_attr(obj);
  80:lvgl/src/core/lv_obj_scroll.c ****     obj->spec_attr->scroll_snap_x = align;
  81:lvgl/src/core/lv_obj_scroll.c **** }
  82:lvgl/src/core/lv_obj_scroll.c **** 
  83:lvgl/src/core/lv_obj_scroll.c **** void lv_obj_set_scroll_snap_y(lv_obj_t * obj, lv_scroll_snap_t align)
  84:lvgl/src/core/lv_obj_scroll.c **** {
  85:lvgl/src/core/lv_obj_scroll.c ****     lv_obj_allocate_spec_attr(obj);
  86:lvgl/src/core/lv_obj_scroll.c ****     obj->spec_attr->scroll_snap_y = align;
  87:lvgl/src/core/lv_obj_scroll.c **** }
  88:lvgl/src/core/lv_obj_scroll.c **** 
ARM GAS  C:\usertemp\ccBZVumh.s 			page 3


  89:lvgl/src/core/lv_obj_scroll.c **** /*=====================
  90:lvgl/src/core/lv_obj_scroll.c ****  * Getter functions
  91:lvgl/src/core/lv_obj_scroll.c ****  *====================*/
  92:lvgl/src/core/lv_obj_scroll.c **** 
  93:lvgl/src/core/lv_obj_scroll.c **** lv_scrollbar_mode_t lv_obj_get_scrollbar_mode(const lv_obj_t * obj)
  94:lvgl/src/core/lv_obj_scroll.c **** {
  95:lvgl/src/core/lv_obj_scroll.c ****     if(obj->spec_attr) return obj->spec_attr->scrollbar_mode;
  96:lvgl/src/core/lv_obj_scroll.c ****     else return LV_SCROLLBAR_MODE_AUTO;
  97:lvgl/src/core/lv_obj_scroll.c **** }
  98:lvgl/src/core/lv_obj_scroll.c **** 
  99:lvgl/src/core/lv_obj_scroll.c **** lv_dir_t lv_obj_get_scroll_dir(const lv_obj_t * obj)
 100:lvgl/src/core/lv_obj_scroll.c **** {
 101:lvgl/src/core/lv_obj_scroll.c ****     if(obj->spec_attr) return obj->spec_attr->scroll_dir;
 102:lvgl/src/core/lv_obj_scroll.c ****     else return LV_DIR_ALL;
 103:lvgl/src/core/lv_obj_scroll.c **** }
 104:lvgl/src/core/lv_obj_scroll.c **** 
 105:lvgl/src/core/lv_obj_scroll.c **** lv_scroll_snap_t lv_obj_get_scroll_snap_x(const lv_obj_t * obj)
 106:lvgl/src/core/lv_obj_scroll.c **** {
 107:lvgl/src/core/lv_obj_scroll.c ****     if(obj->spec_attr) return obj->spec_attr->scroll_snap_x;
 108:lvgl/src/core/lv_obj_scroll.c ****     else return LV_SCROLL_SNAP_NONE;
 109:lvgl/src/core/lv_obj_scroll.c **** }
 110:lvgl/src/core/lv_obj_scroll.c **** 
 111:lvgl/src/core/lv_obj_scroll.c **** lv_scroll_snap_t lv_obj_get_scroll_snap_y(const lv_obj_t * obj)
 112:lvgl/src/core/lv_obj_scroll.c **** {
 113:lvgl/src/core/lv_obj_scroll.c ****     if(obj->spec_attr) return obj->spec_attr->scroll_snap_y;
 114:lvgl/src/core/lv_obj_scroll.c ****     else return LV_SCROLL_SNAP_NONE;
 115:lvgl/src/core/lv_obj_scroll.c **** }
 116:lvgl/src/core/lv_obj_scroll.c **** 
 117:lvgl/src/core/lv_obj_scroll.c **** lv_coord_t lv_obj_get_scroll_x(const lv_obj_t * obj)
 118:lvgl/src/core/lv_obj_scroll.c **** {
 119:lvgl/src/core/lv_obj_scroll.c ****     if(obj->spec_attr == NULL) return 0;
 120:lvgl/src/core/lv_obj_scroll.c ****     return -obj->spec_attr->scroll.x;
 121:lvgl/src/core/lv_obj_scroll.c **** }
 122:lvgl/src/core/lv_obj_scroll.c **** 
 123:lvgl/src/core/lv_obj_scroll.c **** lv_coord_t lv_obj_get_scroll_y(const lv_obj_t * obj)
 124:lvgl/src/core/lv_obj_scroll.c **** {
 125:lvgl/src/core/lv_obj_scroll.c ****     if(obj->spec_attr == NULL) return 0;
 126:lvgl/src/core/lv_obj_scroll.c ****     return -obj->spec_attr->scroll.y;
 127:lvgl/src/core/lv_obj_scroll.c **** }
 128:lvgl/src/core/lv_obj_scroll.c **** 
 129:lvgl/src/core/lv_obj_scroll.c **** lv_coord_t lv_obj_get_scroll_top(lv_obj_t * obj)
 130:lvgl/src/core/lv_obj_scroll.c **** {
 131:lvgl/src/core/lv_obj_scroll.c ****     if(obj->spec_attr == NULL) return 0;
 132:lvgl/src/core/lv_obj_scroll.c ****     return -obj->spec_attr->scroll.y;
 133:lvgl/src/core/lv_obj_scroll.c **** }
 134:lvgl/src/core/lv_obj_scroll.c **** 
 135:lvgl/src/core/lv_obj_scroll.c **** lv_coord_t lv_obj_get_scroll_bottom(lv_obj_t * obj)
 136:lvgl/src/core/lv_obj_scroll.c **** {
 137:lvgl/src/core/lv_obj_scroll.c ****     LV_ASSERT_OBJ(obj, MY_CLASS);
 138:lvgl/src/core/lv_obj_scroll.c **** 
 139:lvgl/src/core/lv_obj_scroll.c ****     lv_coord_t child_res = LV_COORD_MIN;
 140:lvgl/src/core/lv_obj_scroll.c ****     uint32_t i;
 141:lvgl/src/core/lv_obj_scroll.c ****     uint32_t child_cnt = lv_obj_get_child_cnt(obj);
 142:lvgl/src/core/lv_obj_scroll.c ****     for(i = 0; i < child_cnt; i++) {
 143:lvgl/src/core/lv_obj_scroll.c ****         lv_obj_t * child = obj->spec_attr->children[i];
 144:lvgl/src/core/lv_obj_scroll.c ****         if(lv_obj_has_flag_any(child,  LV_OBJ_FLAG_HIDDEN | LV_OBJ_FLAG_FLOATING)) continue;
 145:lvgl/src/core/lv_obj_scroll.c ****         child_res = LV_MAX(child_res, child->coords.y2);
ARM GAS  C:\usertemp\ccBZVumh.s 			page 4


 146:lvgl/src/core/lv_obj_scroll.c ****     }
 147:lvgl/src/core/lv_obj_scroll.c **** 
 148:lvgl/src/core/lv_obj_scroll.c ****     lv_coord_t pad_top = lv_obj_get_style_pad_top(obj, LV_PART_MAIN);
 149:lvgl/src/core/lv_obj_scroll.c ****     lv_coord_t pad_bottom = lv_obj_get_style_pad_bottom(obj, LV_PART_MAIN);
 150:lvgl/src/core/lv_obj_scroll.c ****     lv_coord_t border_width = lv_obj_get_style_border_width(obj, LV_PART_MAIN);
 151:lvgl/src/core/lv_obj_scroll.c **** 
 152:lvgl/src/core/lv_obj_scroll.c ****     if(child_res != LV_COORD_MIN) {
 153:lvgl/src/core/lv_obj_scroll.c ****         child_res -= (obj->coords.y2 - pad_bottom - border_width);
 154:lvgl/src/core/lv_obj_scroll.c ****     }
 155:lvgl/src/core/lv_obj_scroll.c **** 
 156:lvgl/src/core/lv_obj_scroll.c ****     lv_coord_t self_h = lv_obj_get_self_height(obj);
 157:lvgl/src/core/lv_obj_scroll.c ****     self_h = self_h - (lv_obj_get_height(obj) - pad_top - pad_bottom - 2 * border_width);
 158:lvgl/src/core/lv_obj_scroll.c ****     self_h -= lv_obj_get_scroll_y(obj);
 159:lvgl/src/core/lv_obj_scroll.c ****     return LV_MAX(child_res, self_h);
 160:lvgl/src/core/lv_obj_scroll.c **** }
 161:lvgl/src/core/lv_obj_scroll.c **** 
 162:lvgl/src/core/lv_obj_scroll.c **** lv_coord_t lv_obj_get_scroll_left(lv_obj_t * obj)
 163:lvgl/src/core/lv_obj_scroll.c **** {
 164:lvgl/src/core/lv_obj_scroll.c ****     LV_ASSERT_OBJ(obj, MY_CLASS);
 165:lvgl/src/core/lv_obj_scroll.c **** 
 166:lvgl/src/core/lv_obj_scroll.c ****     /*Normally can't scroll the object out on the left.
 167:lvgl/src/core/lv_obj_scroll.c ****      *So simply use the current scroll position as "left size"*/
 168:lvgl/src/core/lv_obj_scroll.c ****     if(lv_obj_get_style_base_dir(obj, LV_PART_MAIN) != LV_BASE_DIR_RTL) {
 169:lvgl/src/core/lv_obj_scroll.c ****         if(obj->spec_attr == NULL) return 0;
 170:lvgl/src/core/lv_obj_scroll.c ****         return -obj->spec_attr->scroll.x;
 171:lvgl/src/core/lv_obj_scroll.c ****     }
 172:lvgl/src/core/lv_obj_scroll.c **** 
 173:lvgl/src/core/lv_obj_scroll.c ****     /*With RTL base direction scrolling the left is normal so find the left most coordinate*/
 174:lvgl/src/core/lv_obj_scroll.c ****     lv_coord_t pad_right = lv_obj_get_style_pad_right(obj, LV_PART_MAIN);
 175:lvgl/src/core/lv_obj_scroll.c ****     lv_coord_t pad_left = lv_obj_get_style_pad_left(obj, LV_PART_MAIN);
 176:lvgl/src/core/lv_obj_scroll.c ****     lv_coord_t border_width = lv_obj_get_style_border_width(obj, LV_PART_MAIN);
 177:lvgl/src/core/lv_obj_scroll.c **** 
 178:lvgl/src/core/lv_obj_scroll.c ****     lv_coord_t child_res = 0;
 179:lvgl/src/core/lv_obj_scroll.c **** 
 180:lvgl/src/core/lv_obj_scroll.c ****     uint32_t i;
 181:lvgl/src/core/lv_obj_scroll.c ****     lv_coord_t x1 = LV_COORD_MAX;
 182:lvgl/src/core/lv_obj_scroll.c ****     uint32_t child_cnt = lv_obj_get_child_cnt(obj);
 183:lvgl/src/core/lv_obj_scroll.c ****     for(i = 0; i < child_cnt; i++) {
 184:lvgl/src/core/lv_obj_scroll.c ****         lv_obj_t * child = obj->spec_attr->children[i];
 185:lvgl/src/core/lv_obj_scroll.c ****         if(lv_obj_has_flag_any(child,  LV_OBJ_FLAG_HIDDEN | LV_OBJ_FLAG_FLOATING)) continue;
 186:lvgl/src/core/lv_obj_scroll.c ****         x1 = LV_MIN(x1, child->coords.x1);
 187:lvgl/src/core/lv_obj_scroll.c **** 
 188:lvgl/src/core/lv_obj_scroll.c ****     }
 189:lvgl/src/core/lv_obj_scroll.c **** 
 190:lvgl/src/core/lv_obj_scroll.c ****     if(x1 != LV_COORD_MAX) {
 191:lvgl/src/core/lv_obj_scroll.c ****         child_res = x1;
 192:lvgl/src/core/lv_obj_scroll.c ****         child_res = (obj->coords.x1 + pad_left + border_width) - child_res;
 193:lvgl/src/core/lv_obj_scroll.c ****     }
 194:lvgl/src/core/lv_obj_scroll.c ****     else {
 195:lvgl/src/core/lv_obj_scroll.c ****         child_res = LV_COORD_MIN;
 196:lvgl/src/core/lv_obj_scroll.c ****     }
 197:lvgl/src/core/lv_obj_scroll.c **** 
 198:lvgl/src/core/lv_obj_scroll.c ****     lv_coord_t self_w = lv_obj_get_self_width(obj);
 199:lvgl/src/core/lv_obj_scroll.c ****     self_w = self_w - (lv_obj_get_width(obj) - pad_right - pad_left - 2 * border_width);
 200:lvgl/src/core/lv_obj_scroll.c ****     self_w += lv_obj_get_scroll_x(obj);
 201:lvgl/src/core/lv_obj_scroll.c **** 
 202:lvgl/src/core/lv_obj_scroll.c ****     return LV_MAX(child_res, self_w);
ARM GAS  C:\usertemp\ccBZVumh.s 			page 5


 203:lvgl/src/core/lv_obj_scroll.c **** }
 204:lvgl/src/core/lv_obj_scroll.c **** 
 205:lvgl/src/core/lv_obj_scroll.c **** lv_coord_t lv_obj_get_scroll_right(lv_obj_t * obj)
 206:lvgl/src/core/lv_obj_scroll.c **** {
 207:lvgl/src/core/lv_obj_scroll.c ****     LV_ASSERT_OBJ(obj, MY_CLASS);
 208:lvgl/src/core/lv_obj_scroll.c **** 
 209:lvgl/src/core/lv_obj_scroll.c ****     /*With RTL base dir can't scroll to the object out on the right.
 210:lvgl/src/core/lv_obj_scroll.c ****      *So simply use the current scroll position as "right size"*/
 211:lvgl/src/core/lv_obj_scroll.c ****     if(lv_obj_get_style_base_dir(obj, LV_PART_MAIN) == LV_BASE_DIR_RTL) {
 212:lvgl/src/core/lv_obj_scroll.c ****         if(obj->spec_attr == NULL) return 0;
 213:lvgl/src/core/lv_obj_scroll.c ****         return obj->spec_attr->scroll.x;
 214:lvgl/src/core/lv_obj_scroll.c ****     }
 215:lvgl/src/core/lv_obj_scroll.c **** 
 216:lvgl/src/core/lv_obj_scroll.c ****     /*With other base direction (LTR) scrolling to the right is normal so find the right most coord
 217:lvgl/src/core/lv_obj_scroll.c ****     lv_coord_t child_res = LV_COORD_MIN;
 218:lvgl/src/core/lv_obj_scroll.c ****     uint32_t i;
 219:lvgl/src/core/lv_obj_scroll.c ****     uint32_t child_cnt = lv_obj_get_child_cnt(obj);
 220:lvgl/src/core/lv_obj_scroll.c ****     for(i = 0; i < child_cnt; i++) {
 221:lvgl/src/core/lv_obj_scroll.c ****         lv_obj_t * child = obj->spec_attr->children[i];
 222:lvgl/src/core/lv_obj_scroll.c ****         if(lv_obj_has_flag_any(child,  LV_OBJ_FLAG_HIDDEN | LV_OBJ_FLAG_FLOATING)) continue;
 223:lvgl/src/core/lv_obj_scroll.c ****         child_res = LV_MAX(child_res, child->coords.x2);
 224:lvgl/src/core/lv_obj_scroll.c ****     }
 225:lvgl/src/core/lv_obj_scroll.c **** 
 226:lvgl/src/core/lv_obj_scroll.c ****     lv_coord_t pad_right = lv_obj_get_style_pad_right(obj, LV_PART_MAIN);
 227:lvgl/src/core/lv_obj_scroll.c ****     lv_coord_t pad_left = lv_obj_get_style_pad_left(obj, LV_PART_MAIN);
 228:lvgl/src/core/lv_obj_scroll.c ****     lv_coord_t border_width = lv_obj_get_style_border_width(obj, LV_PART_MAIN);
 229:lvgl/src/core/lv_obj_scroll.c **** 
 230:lvgl/src/core/lv_obj_scroll.c ****     if(child_res != LV_COORD_MIN) {
 231:lvgl/src/core/lv_obj_scroll.c ****         child_res -= (obj->coords.x2 - pad_right - border_width);
 232:lvgl/src/core/lv_obj_scroll.c ****     }
 233:lvgl/src/core/lv_obj_scroll.c **** 
 234:lvgl/src/core/lv_obj_scroll.c ****     lv_coord_t self_w;
 235:lvgl/src/core/lv_obj_scroll.c ****     self_w = lv_obj_get_self_width(obj);
 236:lvgl/src/core/lv_obj_scroll.c ****     self_w = self_w - (lv_obj_get_width(obj) - pad_right - pad_left - 2 * border_width);
 237:lvgl/src/core/lv_obj_scroll.c ****     self_w -= lv_obj_get_scroll_x(obj);
 238:lvgl/src/core/lv_obj_scroll.c ****     return LV_MAX(child_res, self_w);
 239:lvgl/src/core/lv_obj_scroll.c **** }
 240:lvgl/src/core/lv_obj_scroll.c **** 
 241:lvgl/src/core/lv_obj_scroll.c **** void lv_obj_get_scroll_end(struct _lv_obj_t  * obj, lv_point_t * end)
 242:lvgl/src/core/lv_obj_scroll.c **** {
 243:lvgl/src/core/lv_obj_scroll.c ****     lv_anim_t * a;
 244:lvgl/src/core/lv_obj_scroll.c ****     a = lv_anim_get(obj, scroll_x_anim);
 245:lvgl/src/core/lv_obj_scroll.c ****     end->x = a ? -a->end_value : lv_obj_get_scroll_x(obj);
 246:lvgl/src/core/lv_obj_scroll.c **** 
 247:lvgl/src/core/lv_obj_scroll.c ****     a = lv_anim_get(obj, scroll_y_anim);
 248:lvgl/src/core/lv_obj_scroll.c ****     end->y = a ? -a->end_value : lv_obj_get_scroll_y(obj);
 249:lvgl/src/core/lv_obj_scroll.c **** }
 250:lvgl/src/core/lv_obj_scroll.c **** 
 251:lvgl/src/core/lv_obj_scroll.c **** /*=====================
 252:lvgl/src/core/lv_obj_scroll.c ****  * Other functions
 253:lvgl/src/core/lv_obj_scroll.c ****  *====================*/
 254:lvgl/src/core/lv_obj_scroll.c **** 
 255:lvgl/src/core/lv_obj_scroll.c **** void lv_obj_scroll_by_bounded(lv_obj_t * obj, lv_coord_t dx, lv_coord_t dy, lv_anim_enable_t anim_e
 256:lvgl/src/core/lv_obj_scroll.c **** {
 257:lvgl/src/core/lv_obj_scroll.c ****     if(dx == 0 && dy == 0) return;
 258:lvgl/src/core/lv_obj_scroll.c **** 
 259:lvgl/src/core/lv_obj_scroll.c ****     /*We need to know the final sizes for bound check*/
ARM GAS  C:\usertemp\ccBZVumh.s 			page 6


 260:lvgl/src/core/lv_obj_scroll.c ****     lv_obj_update_layout(obj);
 261:lvgl/src/core/lv_obj_scroll.c **** 
 262:lvgl/src/core/lv_obj_scroll.c ****     /*Don't let scroll more then naturally possible by the size of the content*/
 263:lvgl/src/core/lv_obj_scroll.c ****     lv_coord_t x_current = -lv_obj_get_scroll_x(obj);
 264:lvgl/src/core/lv_obj_scroll.c ****     lv_coord_t x_bounded = x_current + dx;
 265:lvgl/src/core/lv_obj_scroll.c **** 
 266:lvgl/src/core/lv_obj_scroll.c ****     if(lv_obj_get_style_base_dir(obj, LV_PART_MAIN) != LV_BASE_DIR_RTL) {
 267:lvgl/src/core/lv_obj_scroll.c ****         if(x_bounded > 0) x_bounded = 0;
 268:lvgl/src/core/lv_obj_scroll.c ****         if(x_bounded < 0) {
 269:lvgl/src/core/lv_obj_scroll.c ****             lv_coord_t  scroll_max = lv_obj_get_scroll_left(obj) + lv_obj_get_scroll_right(obj);
 270:lvgl/src/core/lv_obj_scroll.c ****             if(scroll_max < 0) scroll_max = 0;
 271:lvgl/src/core/lv_obj_scroll.c **** 
 272:lvgl/src/core/lv_obj_scroll.c ****             if(x_bounded < -scroll_max) x_bounded = -scroll_max;
 273:lvgl/src/core/lv_obj_scroll.c ****         }
 274:lvgl/src/core/lv_obj_scroll.c ****     }
 275:lvgl/src/core/lv_obj_scroll.c ****     else {
 276:lvgl/src/core/lv_obj_scroll.c ****         if(x_bounded < 0) x_bounded = 0;
 277:lvgl/src/core/lv_obj_scroll.c ****         if(x_bounded > 0) {
 278:lvgl/src/core/lv_obj_scroll.c ****             lv_coord_t  scroll_max = lv_obj_get_scroll_left(obj) + lv_obj_get_scroll_right(obj);
 279:lvgl/src/core/lv_obj_scroll.c ****             if(scroll_max < 0) scroll_max = 0;
 280:lvgl/src/core/lv_obj_scroll.c **** 
 281:lvgl/src/core/lv_obj_scroll.c ****             if(x_bounded > scroll_max) x_bounded = scroll_max;
 282:lvgl/src/core/lv_obj_scroll.c ****         }
 283:lvgl/src/core/lv_obj_scroll.c ****     }
 284:lvgl/src/core/lv_obj_scroll.c **** 
 285:lvgl/src/core/lv_obj_scroll.c ****     /*Don't let scroll more then naturally possible by the size of the content*/
 286:lvgl/src/core/lv_obj_scroll.c ****     lv_coord_t y_current = -lv_obj_get_scroll_y(obj);
 287:lvgl/src/core/lv_obj_scroll.c ****     lv_coord_t y_bounded = y_current + dy;
 288:lvgl/src/core/lv_obj_scroll.c **** 
 289:lvgl/src/core/lv_obj_scroll.c ****     if(y_bounded > 0) y_bounded = 0;
 290:lvgl/src/core/lv_obj_scroll.c ****     if(y_bounded < 0) {
 291:lvgl/src/core/lv_obj_scroll.c ****         lv_coord_t  scroll_max = lv_obj_get_scroll_top(obj) + lv_obj_get_scroll_bottom(obj);
 292:lvgl/src/core/lv_obj_scroll.c ****         if(scroll_max < 0) scroll_max = 0;
 293:lvgl/src/core/lv_obj_scroll.c ****         if(y_bounded < -scroll_max) y_bounded = -scroll_max;
 294:lvgl/src/core/lv_obj_scroll.c ****     }
 295:lvgl/src/core/lv_obj_scroll.c **** 
 296:lvgl/src/core/lv_obj_scroll.c ****     dx = x_bounded - x_current;
 297:lvgl/src/core/lv_obj_scroll.c ****     dy = y_bounded - y_current;
 298:lvgl/src/core/lv_obj_scroll.c ****     if(dx || dy) {
 299:lvgl/src/core/lv_obj_scroll.c ****         lv_obj_scroll_by(obj, dx, dy, anim_en);
 300:lvgl/src/core/lv_obj_scroll.c ****     }
 301:lvgl/src/core/lv_obj_scroll.c **** }
 302:lvgl/src/core/lv_obj_scroll.c **** 
 303:lvgl/src/core/lv_obj_scroll.c **** 
 304:lvgl/src/core/lv_obj_scroll.c **** void lv_obj_scroll_by(lv_obj_t * obj, lv_coord_t dx, lv_coord_t dy, lv_anim_enable_t anim_en)
 305:lvgl/src/core/lv_obj_scroll.c **** {
 306:lvgl/src/core/lv_obj_scroll.c ****     if(dx == 0 && dy == 0) return;
 307:lvgl/src/core/lv_obj_scroll.c ****     if(anim_en == LV_ANIM_ON) {
 308:lvgl/src/core/lv_obj_scroll.c ****         lv_disp_t * d = lv_obj_get_disp(obj);
 309:lvgl/src/core/lv_obj_scroll.c ****         lv_anim_t a;
 310:lvgl/src/core/lv_obj_scroll.c ****         lv_anim_init(&a);
 311:lvgl/src/core/lv_obj_scroll.c ****         lv_anim_set_var(&a, obj);
 312:lvgl/src/core/lv_obj_scroll.c ****         lv_anim_set_ready_cb(&a, scroll_anim_ready_cb);
 313:lvgl/src/core/lv_obj_scroll.c **** 
 314:lvgl/src/core/lv_obj_scroll.c ****         if(dx) {
 315:lvgl/src/core/lv_obj_scroll.c ****             uint32_t t = lv_anim_speed_to_time((lv_disp_get_hor_res(d) * 2) >> 2, 0, dx);
 316:lvgl/src/core/lv_obj_scroll.c ****             if(t < SCROLL_ANIM_TIME_MIN) t = SCROLL_ANIM_TIME_MIN;
ARM GAS  C:\usertemp\ccBZVumh.s 			page 7


 317:lvgl/src/core/lv_obj_scroll.c ****             if(t > SCROLL_ANIM_TIME_MAX) t = SCROLL_ANIM_TIME_MAX;
 318:lvgl/src/core/lv_obj_scroll.c ****             lv_anim_set_time(&a, t);
 319:lvgl/src/core/lv_obj_scroll.c ****             lv_coord_t sx = lv_obj_get_scroll_x(obj);
 320:lvgl/src/core/lv_obj_scroll.c ****             lv_anim_set_values(&a, -sx, -sx + dx);
 321:lvgl/src/core/lv_obj_scroll.c ****             lv_anim_set_exec_cb(&a, scroll_x_anim);
 322:lvgl/src/core/lv_obj_scroll.c ****             lv_anim_set_path_cb(&a, lv_anim_path_ease_out);
 323:lvgl/src/core/lv_obj_scroll.c **** 
 324:lvgl/src/core/lv_obj_scroll.c ****             lv_res_t res;
 325:lvgl/src/core/lv_obj_scroll.c ****             res = lv_event_send(obj, LV_EVENT_SCROLL_BEGIN, &a);
 326:lvgl/src/core/lv_obj_scroll.c ****             if(res != LV_RES_OK) return;
 327:lvgl/src/core/lv_obj_scroll.c ****             lv_anim_start(&a);
 328:lvgl/src/core/lv_obj_scroll.c ****         }
 329:lvgl/src/core/lv_obj_scroll.c **** 
 330:lvgl/src/core/lv_obj_scroll.c ****         if(dy) {
 331:lvgl/src/core/lv_obj_scroll.c ****             uint32_t t = lv_anim_speed_to_time((lv_disp_get_ver_res(d) * 2) >> 2, 0, dy);
 332:lvgl/src/core/lv_obj_scroll.c ****             if(t < SCROLL_ANIM_TIME_MIN) t = SCROLL_ANIM_TIME_MIN;
 333:lvgl/src/core/lv_obj_scroll.c ****             if(t > SCROLL_ANIM_TIME_MAX) t = SCROLL_ANIM_TIME_MAX;
 334:lvgl/src/core/lv_obj_scroll.c ****             lv_anim_set_time(&a, t);
 335:lvgl/src/core/lv_obj_scroll.c ****             lv_coord_t sy = lv_obj_get_scroll_y(obj);
 336:lvgl/src/core/lv_obj_scroll.c ****             lv_anim_set_values(&a, -sy, -sy + dy);
 337:lvgl/src/core/lv_obj_scroll.c ****             lv_anim_set_exec_cb(&a,  scroll_y_anim);
 338:lvgl/src/core/lv_obj_scroll.c ****             lv_anim_set_path_cb(&a, lv_anim_path_ease_out);
 339:lvgl/src/core/lv_obj_scroll.c **** 
 340:lvgl/src/core/lv_obj_scroll.c ****             lv_res_t res;
 341:lvgl/src/core/lv_obj_scroll.c ****             res = lv_event_send(obj, LV_EVENT_SCROLL_BEGIN, &a);
 342:lvgl/src/core/lv_obj_scroll.c ****             if(res != LV_RES_OK) return;
 343:lvgl/src/core/lv_obj_scroll.c ****             lv_anim_start(&a);
 344:lvgl/src/core/lv_obj_scroll.c ****         }
 345:lvgl/src/core/lv_obj_scroll.c ****     }
 346:lvgl/src/core/lv_obj_scroll.c ****     else {
 347:lvgl/src/core/lv_obj_scroll.c ****         /*Remove pending animations*/
 348:lvgl/src/core/lv_obj_scroll.c ****         bool y_del = lv_anim_del(obj, scroll_y_anim);
 349:lvgl/src/core/lv_obj_scroll.c ****         bool x_del = lv_anim_del(obj, scroll_x_anim);
 350:lvgl/src/core/lv_obj_scroll.c ****         scroll_by_raw(obj, dx, dy);
 351:lvgl/src/core/lv_obj_scroll.c ****         if(y_del || x_del) {
 352:lvgl/src/core/lv_obj_scroll.c ****             lv_res_t res;
 353:lvgl/src/core/lv_obj_scroll.c ****             res = lv_event_send(obj, LV_EVENT_SCROLL_END, NULL);
 354:lvgl/src/core/lv_obj_scroll.c ****             if(res != LV_RES_OK) return;
 355:lvgl/src/core/lv_obj_scroll.c ****         }
 356:lvgl/src/core/lv_obj_scroll.c ****     }
 357:lvgl/src/core/lv_obj_scroll.c **** }
 358:lvgl/src/core/lv_obj_scroll.c **** 
 359:lvgl/src/core/lv_obj_scroll.c **** void lv_obj_scroll_to(lv_obj_t * obj, lv_coord_t x, lv_coord_t y, lv_anim_enable_t anim_en)
 360:lvgl/src/core/lv_obj_scroll.c **** {
 361:lvgl/src/core/lv_obj_scroll.c ****     lv_obj_scroll_to_x(obj, x, anim_en);
 362:lvgl/src/core/lv_obj_scroll.c ****     lv_obj_scroll_to_y(obj, y, anim_en);
 363:lvgl/src/core/lv_obj_scroll.c **** }
 364:lvgl/src/core/lv_obj_scroll.c **** 
 365:lvgl/src/core/lv_obj_scroll.c **** void lv_obj_scroll_to_x(lv_obj_t * obj, lv_coord_t x, lv_anim_enable_t anim_en)
 366:lvgl/src/core/lv_obj_scroll.c **** {
 367:lvgl/src/core/lv_obj_scroll.c ****     lv_anim_del(obj, scroll_x_anim);
 368:lvgl/src/core/lv_obj_scroll.c **** 
 369:lvgl/src/core/lv_obj_scroll.c ****     lv_coord_t scroll_x = lv_obj_get_scroll_x(obj);
 370:lvgl/src/core/lv_obj_scroll.c ****     lv_coord_t diff = -x + scroll_x;
 371:lvgl/src/core/lv_obj_scroll.c **** 
 372:lvgl/src/core/lv_obj_scroll.c ****     lv_obj_scroll_by_bounded(obj, diff, 0, anim_en);
 373:lvgl/src/core/lv_obj_scroll.c **** }
ARM GAS  C:\usertemp\ccBZVumh.s 			page 8


 374:lvgl/src/core/lv_obj_scroll.c **** 
 375:lvgl/src/core/lv_obj_scroll.c **** void lv_obj_scroll_to_y(lv_obj_t * obj, lv_coord_t y, lv_anim_enable_t anim_en)
 376:lvgl/src/core/lv_obj_scroll.c **** {
 377:lvgl/src/core/lv_obj_scroll.c ****     lv_anim_del(obj, scroll_y_anim);
 378:lvgl/src/core/lv_obj_scroll.c **** 
 379:lvgl/src/core/lv_obj_scroll.c ****     lv_coord_t scroll_y = lv_obj_get_scroll_y(obj);
 380:lvgl/src/core/lv_obj_scroll.c ****     lv_coord_t diff = -y + scroll_y;
 381:lvgl/src/core/lv_obj_scroll.c **** 
 382:lvgl/src/core/lv_obj_scroll.c ****     lv_obj_scroll_by_bounded(obj, 0, diff, anim_en);
 383:lvgl/src/core/lv_obj_scroll.c **** }
 384:lvgl/src/core/lv_obj_scroll.c **** 
 385:lvgl/src/core/lv_obj_scroll.c **** void lv_obj_scroll_to_view(lv_obj_t * obj, lv_anim_enable_t anim_en)
 386:lvgl/src/core/lv_obj_scroll.c **** {
 387:lvgl/src/core/lv_obj_scroll.c ****     /*Be sure the screens layout is correct*/
 388:lvgl/src/core/lv_obj_scroll.c ****     lv_obj_update_layout(obj);
 389:lvgl/src/core/lv_obj_scroll.c **** 
 390:lvgl/src/core/lv_obj_scroll.c ****     lv_point_t p = {0, 0};
 391:lvgl/src/core/lv_obj_scroll.c ****     scroll_area_into_view(&obj->coords, obj, &p, anim_en);
 392:lvgl/src/core/lv_obj_scroll.c **** }
 393:lvgl/src/core/lv_obj_scroll.c **** 
 394:lvgl/src/core/lv_obj_scroll.c **** void lv_obj_scroll_to_view_recursive(lv_obj_t * obj, lv_anim_enable_t anim_en)
 395:lvgl/src/core/lv_obj_scroll.c **** {
 396:lvgl/src/core/lv_obj_scroll.c ****     /*Be sure the screens layout is correct*/
 397:lvgl/src/core/lv_obj_scroll.c ****     lv_obj_update_layout(obj);
 398:lvgl/src/core/lv_obj_scroll.c **** 
 399:lvgl/src/core/lv_obj_scroll.c ****     lv_point_t p = {0, 0};
 400:lvgl/src/core/lv_obj_scroll.c ****     lv_obj_t * child = obj;
 401:lvgl/src/core/lv_obj_scroll.c ****     lv_obj_t * parent = lv_obj_get_parent(child);
 402:lvgl/src/core/lv_obj_scroll.c ****     while(parent) {
 403:lvgl/src/core/lv_obj_scroll.c ****         scroll_area_into_view(&obj->coords, child, &p, anim_en);
 404:lvgl/src/core/lv_obj_scroll.c ****         child = parent;
 405:lvgl/src/core/lv_obj_scroll.c ****         parent = lv_obj_get_parent(parent);
 406:lvgl/src/core/lv_obj_scroll.c ****     }
 407:lvgl/src/core/lv_obj_scroll.c **** }
 408:lvgl/src/core/lv_obj_scroll.c **** 
 409:lvgl/src/core/lv_obj_scroll.c **** bool lv_obj_is_scrolling(const lv_obj_t * obj)
 410:lvgl/src/core/lv_obj_scroll.c **** {
 411:lvgl/src/core/lv_obj_scroll.c ****     lv_indev_t * indev = lv_indev_get_next(NULL);
 412:lvgl/src/core/lv_obj_scroll.c ****     while(indev) {
 413:lvgl/src/core/lv_obj_scroll.c ****         if(lv_indev_get_scroll_obj(indev) == obj) return true;
 414:lvgl/src/core/lv_obj_scroll.c ****         indev = lv_indev_get_next(indev);
 415:lvgl/src/core/lv_obj_scroll.c ****     }
 416:lvgl/src/core/lv_obj_scroll.c **** 
 417:lvgl/src/core/lv_obj_scroll.c ****     return false;
 418:lvgl/src/core/lv_obj_scroll.c **** }
 419:lvgl/src/core/lv_obj_scroll.c **** 
 420:lvgl/src/core/lv_obj_scroll.c **** void lv_obj_update_snap(lv_obj_t * obj, lv_anim_enable_t anim_en)
 421:lvgl/src/core/lv_obj_scroll.c **** {
 422:lvgl/src/core/lv_obj_scroll.c ****     lv_obj_update_layout(obj);
 423:lvgl/src/core/lv_obj_scroll.c ****     lv_point_t p;
 424:lvgl/src/core/lv_obj_scroll.c ****     lv_indev_scroll_get_snap_dist(obj, &p);
 425:lvgl/src/core/lv_obj_scroll.c ****     lv_obj_scroll_by(obj, p.x, p.y, anim_en);
 426:lvgl/src/core/lv_obj_scroll.c **** }
 427:lvgl/src/core/lv_obj_scroll.c **** 
 428:lvgl/src/core/lv_obj_scroll.c **** void lv_obj_get_scrollbar_area(lv_obj_t * obj, lv_area_t * hor_area, lv_area_t * ver_area)
 429:lvgl/src/core/lv_obj_scroll.c **** {
 430:lvgl/src/core/lv_obj_scroll.c ****     lv_area_set(hor_area, 0, 0, -1, -1);
ARM GAS  C:\usertemp\ccBZVumh.s 			page 9


 431:lvgl/src/core/lv_obj_scroll.c ****     lv_area_set(ver_area, 0, 0, -1, -1);
 432:lvgl/src/core/lv_obj_scroll.c **** 
 433:lvgl/src/core/lv_obj_scroll.c ****     if(lv_obj_has_flag(obj, LV_OBJ_FLAG_SCROLLABLE) == false) return;
 434:lvgl/src/core/lv_obj_scroll.c **** 
 435:lvgl/src/core/lv_obj_scroll.c ****     lv_dir_t sm = lv_obj_get_scrollbar_mode(obj);
 436:lvgl/src/core/lv_obj_scroll.c ****     if(sm == LV_SCROLLBAR_MODE_OFF)  return;
 437:lvgl/src/core/lv_obj_scroll.c **** 
 438:lvgl/src/core/lv_obj_scroll.c ****     /*If there is no indev scrolling this object but `mode==active` return*/
 439:lvgl/src/core/lv_obj_scroll.c ****     lv_indev_t * indev = lv_indev_get_next(NULL);
 440:lvgl/src/core/lv_obj_scroll.c ****     if(sm == LV_SCROLLBAR_MODE_ACTIVE) {
 441:lvgl/src/core/lv_obj_scroll.c ****         while(indev) {
 442:lvgl/src/core/lv_obj_scroll.c ****             if(lv_indev_get_scroll_obj(indev) == obj) break;
 443:lvgl/src/core/lv_obj_scroll.c ****             indev = lv_indev_get_next(indev);
 444:lvgl/src/core/lv_obj_scroll.c ****         }
 445:lvgl/src/core/lv_obj_scroll.c ****         if(indev == NULL)  return;
 446:lvgl/src/core/lv_obj_scroll.c ****     }
 447:lvgl/src/core/lv_obj_scroll.c **** 
 448:lvgl/src/core/lv_obj_scroll.c ****     lv_coord_t st = lv_obj_get_scroll_top(obj);
 449:lvgl/src/core/lv_obj_scroll.c ****     lv_coord_t sb = lv_obj_get_scroll_bottom(obj);
 450:lvgl/src/core/lv_obj_scroll.c ****     lv_coord_t sl = lv_obj_get_scroll_left(obj);
 451:lvgl/src/core/lv_obj_scroll.c ****     lv_coord_t sr = lv_obj_get_scroll_right(obj);
 452:lvgl/src/core/lv_obj_scroll.c **** 
 453:lvgl/src/core/lv_obj_scroll.c ****     lv_dir_t dir = lv_obj_get_scroll_dir(obj);
 454:lvgl/src/core/lv_obj_scroll.c **** 
 455:lvgl/src/core/lv_obj_scroll.c ****     bool ver_draw = false;
 456:lvgl/src/core/lv_obj_scroll.c ****     if((dir & LV_DIR_VER) &&
 457:lvgl/src/core/lv_obj_scroll.c ****        ((sm == LV_SCROLLBAR_MODE_ON) ||
 458:lvgl/src/core/lv_obj_scroll.c ****         (sm == LV_SCROLLBAR_MODE_AUTO && (st > 0 || sb > 0)) ||
 459:lvgl/src/core/lv_obj_scroll.c ****         (sm == LV_SCROLLBAR_MODE_ACTIVE && lv_indev_get_scroll_dir(indev) == LV_DIR_VER))) {
 460:lvgl/src/core/lv_obj_scroll.c ****         ver_draw = true;
 461:lvgl/src/core/lv_obj_scroll.c ****     }
 462:lvgl/src/core/lv_obj_scroll.c **** 
 463:lvgl/src/core/lv_obj_scroll.c **** 
 464:lvgl/src/core/lv_obj_scroll.c ****     bool hor_draw = false;
 465:lvgl/src/core/lv_obj_scroll.c ****     if((dir & LV_DIR_HOR) &&
 466:lvgl/src/core/lv_obj_scroll.c ****        ((sm == LV_SCROLLBAR_MODE_ON) ||
 467:lvgl/src/core/lv_obj_scroll.c ****         (sm == LV_SCROLLBAR_MODE_AUTO && (sl > 0 || sr > 0)) ||
 468:lvgl/src/core/lv_obj_scroll.c ****         (sm == LV_SCROLLBAR_MODE_ACTIVE && lv_indev_get_scroll_dir(indev) == LV_DIR_HOR))) {
 469:lvgl/src/core/lv_obj_scroll.c ****         hor_draw = true;
 470:lvgl/src/core/lv_obj_scroll.c ****     }
 471:lvgl/src/core/lv_obj_scroll.c **** 
 472:lvgl/src/core/lv_obj_scroll.c ****     if(!hor_draw && !ver_draw) return;
 473:lvgl/src/core/lv_obj_scroll.c **** 
 474:lvgl/src/core/lv_obj_scroll.c ****     bool rtl = lv_obj_get_style_base_dir(obj, LV_PART_SCROLLBAR) == LV_BASE_DIR_RTL ? true : false;
 475:lvgl/src/core/lv_obj_scroll.c **** 
 476:lvgl/src/core/lv_obj_scroll.c ****     lv_coord_t top_space = lv_obj_get_style_pad_top(obj, LV_PART_SCROLLBAR);
 477:lvgl/src/core/lv_obj_scroll.c ****     lv_coord_t bottom_space = lv_obj_get_style_pad_bottom(obj, LV_PART_SCROLLBAR);
 478:lvgl/src/core/lv_obj_scroll.c ****     lv_coord_t left_space = lv_obj_get_style_pad_left(obj, LV_PART_SCROLLBAR);
 479:lvgl/src/core/lv_obj_scroll.c ****     lv_coord_t right_space = lv_obj_get_style_pad_right(obj, LV_PART_SCROLLBAR);
 480:lvgl/src/core/lv_obj_scroll.c ****     lv_coord_t tickness = lv_obj_get_style_width(obj, LV_PART_SCROLLBAR);
 481:lvgl/src/core/lv_obj_scroll.c **** 
 482:lvgl/src/core/lv_obj_scroll.c ****     lv_coord_t obj_h = lv_obj_get_height(obj);
 483:lvgl/src/core/lv_obj_scroll.c ****     lv_coord_t obj_w = lv_obj_get_width(obj);
 484:lvgl/src/core/lv_obj_scroll.c **** 
 485:lvgl/src/core/lv_obj_scroll.c ****     /*Space required for the vertical and horizontal scrollbars*/
 486:lvgl/src/core/lv_obj_scroll.c ****     lv_coord_t ver_reg_space = ver_draw ? tickness : 0;
 487:lvgl/src/core/lv_obj_scroll.c ****     lv_coord_t hor_req_space = hor_draw ? tickness : 0;
ARM GAS  C:\usertemp\ccBZVumh.s 			page 10


 488:lvgl/src/core/lv_obj_scroll.c ****     lv_coord_t rem;
 489:lvgl/src/core/lv_obj_scroll.c **** 
 490:lvgl/src/core/lv_obj_scroll.c ****     if(lv_obj_get_style_bg_opa(obj, LV_PART_SCROLLBAR) < LV_OPA_MIN &&
 491:lvgl/src/core/lv_obj_scroll.c ****        lv_obj_get_style_border_opa(obj, LV_PART_SCROLLBAR) < LV_OPA_MIN) {
 492:lvgl/src/core/lv_obj_scroll.c ****         return;
 493:lvgl/src/core/lv_obj_scroll.c ****     }
 494:lvgl/src/core/lv_obj_scroll.c **** 
 495:lvgl/src/core/lv_obj_scroll.c ****     /*Draw vertical scrollbar if the mode is ON or can be scrolled in this direction*/
 496:lvgl/src/core/lv_obj_scroll.c ****     lv_coord_t content_h = obj_h + st + sb;
 497:lvgl/src/core/lv_obj_scroll.c ****     if(ver_draw && content_h) {
 498:lvgl/src/core/lv_obj_scroll.c ****         ver_area->y1 = obj->coords.y1;
 499:lvgl/src/core/lv_obj_scroll.c ****         ver_area->y2 = obj->coords.y2;
 500:lvgl/src/core/lv_obj_scroll.c ****         if(rtl) {
 501:lvgl/src/core/lv_obj_scroll.c ****             ver_area->x1 = obj->coords.x1 + left_space;
 502:lvgl/src/core/lv_obj_scroll.c ****             ver_area->x2 = ver_area->x1 + tickness - 1;
 503:lvgl/src/core/lv_obj_scroll.c ****         }
 504:lvgl/src/core/lv_obj_scroll.c ****         else {
 505:lvgl/src/core/lv_obj_scroll.c ****             ver_area->x2 = obj->coords.x2 - right_space;
 506:lvgl/src/core/lv_obj_scroll.c ****             ver_area->x1 = ver_area->x2 - tickness + 1;
 507:lvgl/src/core/lv_obj_scroll.c ****         }
 508:lvgl/src/core/lv_obj_scroll.c **** 
 509:lvgl/src/core/lv_obj_scroll.c ****         lv_coord_t sb_h = ((obj_h - top_space - bottom_space - hor_req_space) * obj_h) / content_h;
 510:lvgl/src/core/lv_obj_scroll.c ****         sb_h = LV_MAX(sb_h, SCROLLBAR_MIN_SIZE);
 511:lvgl/src/core/lv_obj_scroll.c ****         rem = (obj_h - top_space - bottom_space - hor_req_space) -
 512:lvgl/src/core/lv_obj_scroll.c ****               sb_h;  /*Remaining size from the scrollbar track that is not the scrollbar itself*/
 513:lvgl/src/core/lv_obj_scroll.c ****         lv_coord_t scroll_h = content_h - obj_h; /*The size of the content which can be really scro
 514:lvgl/src/core/lv_obj_scroll.c ****         if(scroll_h <= 0) {
 515:lvgl/src/core/lv_obj_scroll.c ****             ver_area->y1 = obj->coords.y1 + top_space;
 516:lvgl/src/core/lv_obj_scroll.c ****             ver_area->y2 = obj->coords.y2 - bottom_space - hor_req_space - 1;
 517:lvgl/src/core/lv_obj_scroll.c ****         }
 518:lvgl/src/core/lv_obj_scroll.c ****         else {
 519:lvgl/src/core/lv_obj_scroll.c ****             lv_coord_t sb_y = (rem * sb) / scroll_h;
 520:lvgl/src/core/lv_obj_scroll.c ****             sb_y = rem - sb_y;
 521:lvgl/src/core/lv_obj_scroll.c **** 
 522:lvgl/src/core/lv_obj_scroll.c ****             ver_area->y1 = obj->coords.y1 + sb_y + top_space;
 523:lvgl/src/core/lv_obj_scroll.c ****             ver_area->y2 = ver_area->y1 + sb_h - 1;
 524:lvgl/src/core/lv_obj_scroll.c ****             if(ver_area->y1 < obj->coords.y1 + top_space) {
 525:lvgl/src/core/lv_obj_scroll.c ****                 ver_area->y1 = obj->coords.y1 + top_space;
 526:lvgl/src/core/lv_obj_scroll.c ****                 if(ver_area->y1 + SCROLLBAR_MIN_SIZE > ver_area->y2) {
 527:lvgl/src/core/lv_obj_scroll.c ****                     ver_area->y2 = ver_area->y1 + SCROLLBAR_MIN_SIZE;
 528:lvgl/src/core/lv_obj_scroll.c ****                 }
 529:lvgl/src/core/lv_obj_scroll.c ****             }
 530:lvgl/src/core/lv_obj_scroll.c ****             if(ver_area->y2 > obj->coords.y2 - hor_req_space - bottom_space) {
 531:lvgl/src/core/lv_obj_scroll.c ****                 ver_area->y2 = obj->coords.y2 - hor_req_space - bottom_space;
 532:lvgl/src/core/lv_obj_scroll.c ****                 if(ver_area->y2 - SCROLLBAR_MIN_SIZE < ver_area->y1) {
 533:lvgl/src/core/lv_obj_scroll.c ****                     ver_area->y1 = ver_area->y2 - SCROLLBAR_MIN_SIZE;
 534:lvgl/src/core/lv_obj_scroll.c ****                 }
 535:lvgl/src/core/lv_obj_scroll.c ****             }
 536:lvgl/src/core/lv_obj_scroll.c ****         }
 537:lvgl/src/core/lv_obj_scroll.c ****     }
 538:lvgl/src/core/lv_obj_scroll.c **** 
 539:lvgl/src/core/lv_obj_scroll.c ****     /*Draw horizontal scrollbar if the mode is ON or can be scrolled in this direction*/
 540:lvgl/src/core/lv_obj_scroll.c ****     lv_coord_t content_w = obj_w + sl + sr;
 541:lvgl/src/core/lv_obj_scroll.c ****     if(hor_draw && content_w) {
 542:lvgl/src/core/lv_obj_scroll.c ****         hor_area->y2 = obj->coords.y2 - bottom_space;
 543:lvgl/src/core/lv_obj_scroll.c ****         hor_area->y1 = hor_area->y2 - tickness + 1;
 544:lvgl/src/core/lv_obj_scroll.c ****         hor_area->x1 = obj->coords.x1;
ARM GAS  C:\usertemp\ccBZVumh.s 			page 11


 545:lvgl/src/core/lv_obj_scroll.c ****         hor_area->x2 = obj->coords.x2;
 546:lvgl/src/core/lv_obj_scroll.c **** 
 547:lvgl/src/core/lv_obj_scroll.c ****         lv_coord_t sb_w = ((obj_w - left_space - right_space - ver_reg_space) * obj_w) / content_w;
 548:lvgl/src/core/lv_obj_scroll.c ****         sb_w = LV_MAX(sb_w, SCROLLBAR_MIN_SIZE);
 549:lvgl/src/core/lv_obj_scroll.c ****         rem = (obj_w - left_space - right_space - ver_reg_space) -
 550:lvgl/src/core/lv_obj_scroll.c ****               sb_w;  /*Remaining size from the scrollbar track that is not the scrollbar itself*/
 551:lvgl/src/core/lv_obj_scroll.c ****         lv_coord_t scroll_w = content_w - obj_w; /*The size of the content which can be really scro
 552:lvgl/src/core/lv_obj_scroll.c ****         if(scroll_w <= 0) {
 553:lvgl/src/core/lv_obj_scroll.c ****             if(rtl) {
 554:lvgl/src/core/lv_obj_scroll.c ****                 hor_area->x1 = obj->coords.x1 + left_space + ver_reg_space - 1;
 555:lvgl/src/core/lv_obj_scroll.c ****                 hor_area->x2 = obj->coords.x2 - right_space;
 556:lvgl/src/core/lv_obj_scroll.c ****             }
 557:lvgl/src/core/lv_obj_scroll.c ****             else {
 558:lvgl/src/core/lv_obj_scroll.c ****                 hor_area->x1 = obj->coords.x1 + left_space;
 559:lvgl/src/core/lv_obj_scroll.c ****                 hor_area->x2 = obj->coords.x2 - right_space - ver_reg_space - 1;
 560:lvgl/src/core/lv_obj_scroll.c ****             }
 561:lvgl/src/core/lv_obj_scroll.c ****         }
 562:lvgl/src/core/lv_obj_scroll.c ****         else {
 563:lvgl/src/core/lv_obj_scroll.c ****             lv_coord_t sb_x = (rem * sr) / scroll_w;
 564:lvgl/src/core/lv_obj_scroll.c ****             sb_x = rem - sb_x;
 565:lvgl/src/core/lv_obj_scroll.c **** 
 566:lvgl/src/core/lv_obj_scroll.c ****             if(rtl) {
 567:lvgl/src/core/lv_obj_scroll.c ****                 hor_area->x1 = obj->coords.x1 + sb_x + left_space + ver_reg_space;
 568:lvgl/src/core/lv_obj_scroll.c ****                 hor_area->x2 = hor_area->x1 + sb_w - 1;
 569:lvgl/src/core/lv_obj_scroll.c ****                 if(hor_area->x1 < obj->coords.x1 + left_space + ver_reg_space) {
 570:lvgl/src/core/lv_obj_scroll.c ****                     hor_area->x1 = obj->coords.x1 + left_space + ver_reg_space;
 571:lvgl/src/core/lv_obj_scroll.c ****                     if(hor_area->x1 + SCROLLBAR_MIN_SIZE > hor_area->x2) {
 572:lvgl/src/core/lv_obj_scroll.c ****                         hor_area->x2 = hor_area->x1 + SCROLLBAR_MIN_SIZE;
 573:lvgl/src/core/lv_obj_scroll.c ****                     }
 574:lvgl/src/core/lv_obj_scroll.c ****                 }
 575:lvgl/src/core/lv_obj_scroll.c ****                 if(hor_area->x2 > obj->coords.x2 - right_space) {
 576:lvgl/src/core/lv_obj_scroll.c ****                     hor_area->x2 = obj->coords.x2 - right_space;
 577:lvgl/src/core/lv_obj_scroll.c ****                     if(hor_area->x2 - SCROLLBAR_MIN_SIZE < hor_area->x1) {
 578:lvgl/src/core/lv_obj_scroll.c ****                         hor_area->x1 = hor_area->x2 - SCROLLBAR_MIN_SIZE;
 579:lvgl/src/core/lv_obj_scroll.c ****                     }
 580:lvgl/src/core/lv_obj_scroll.c ****                 }
 581:lvgl/src/core/lv_obj_scroll.c ****             }
 582:lvgl/src/core/lv_obj_scroll.c ****             else {
 583:lvgl/src/core/lv_obj_scroll.c ****                 hor_area->x1 = obj->coords.x1 + sb_x + left_space;
 584:lvgl/src/core/lv_obj_scroll.c ****                 hor_area->x2 = hor_area->x1 + sb_w - 1;
 585:lvgl/src/core/lv_obj_scroll.c ****                 if(hor_area->x1 < obj->coords.x1 + left_space) {
 586:lvgl/src/core/lv_obj_scroll.c ****                     hor_area->x1 = obj->coords.x1 + left_space;
 587:lvgl/src/core/lv_obj_scroll.c ****                     if(hor_area->x1 + SCROLLBAR_MIN_SIZE > hor_area->x2) {
 588:lvgl/src/core/lv_obj_scroll.c ****                         hor_area->x2 = hor_area->x1 + SCROLLBAR_MIN_SIZE;
 589:lvgl/src/core/lv_obj_scroll.c ****                     }
 590:lvgl/src/core/lv_obj_scroll.c ****                 }
 591:lvgl/src/core/lv_obj_scroll.c ****                 if(hor_area->x2 > obj->coords.x2 - ver_reg_space - right_space) {
 592:lvgl/src/core/lv_obj_scroll.c ****                     hor_area->x2 = obj->coords.x2 - ver_reg_space - right_space;
 593:lvgl/src/core/lv_obj_scroll.c ****                     if(hor_area->x2 - SCROLLBAR_MIN_SIZE < hor_area->x1) {
 594:lvgl/src/core/lv_obj_scroll.c ****                         hor_area->x1 = hor_area->x2 - SCROLLBAR_MIN_SIZE;
 595:lvgl/src/core/lv_obj_scroll.c ****                     }
 596:lvgl/src/core/lv_obj_scroll.c ****                 }
 597:lvgl/src/core/lv_obj_scroll.c ****             }
 598:lvgl/src/core/lv_obj_scroll.c ****         }
 599:lvgl/src/core/lv_obj_scroll.c ****     }
 600:lvgl/src/core/lv_obj_scroll.c **** }
 601:lvgl/src/core/lv_obj_scroll.c **** 
ARM GAS  C:\usertemp\ccBZVumh.s 			page 12


 602:lvgl/src/core/lv_obj_scroll.c **** void lv_obj_scrollbar_invalidate(lv_obj_t * obj)
 603:lvgl/src/core/lv_obj_scroll.c **** {
 604:lvgl/src/core/lv_obj_scroll.c ****     lv_area_t hor_area;
 605:lvgl/src/core/lv_obj_scroll.c ****     lv_area_t ver_area;
 606:lvgl/src/core/lv_obj_scroll.c ****     lv_obj_get_scrollbar_area(obj, &hor_area, &ver_area);
 607:lvgl/src/core/lv_obj_scroll.c **** 
 608:lvgl/src/core/lv_obj_scroll.c ****     if(lv_area_get_size(&hor_area) <= 0 && lv_area_get_size(&ver_area) <= 0) return;
 609:lvgl/src/core/lv_obj_scroll.c **** 
 610:lvgl/src/core/lv_obj_scroll.c ****     if(lv_area_get_size(&hor_area) > 0) lv_obj_invalidate_area(obj, &hor_area);
 611:lvgl/src/core/lv_obj_scroll.c ****     if(lv_area_get_size(&ver_area) > 0) lv_obj_invalidate_area(obj, &ver_area);
 612:lvgl/src/core/lv_obj_scroll.c **** }
 613:lvgl/src/core/lv_obj_scroll.c **** 
 614:lvgl/src/core/lv_obj_scroll.c **** void lv_obj_readjust_scroll(lv_obj_t * obj, lv_anim_enable_t anim_en)
 615:lvgl/src/core/lv_obj_scroll.c **** {
 616:lvgl/src/core/lv_obj_scroll.c ****     /*Be sure the bottom side is not remains scrolled in*/
 617:lvgl/src/core/lv_obj_scroll.c ****     /*With snapping the content can't be scrolled in*/
 618:lvgl/src/core/lv_obj_scroll.c ****     if(lv_obj_get_scroll_snap_y(obj) == LV_SCROLL_SNAP_NONE) {
 619:lvgl/src/core/lv_obj_scroll.c ****         lv_coord_t st = lv_obj_get_scroll_top(obj);
 620:lvgl/src/core/lv_obj_scroll.c ****         lv_coord_t sb = lv_obj_get_scroll_bottom(obj);
 621:lvgl/src/core/lv_obj_scroll.c ****         if(sb < 0 && st > 0) {
 622:lvgl/src/core/lv_obj_scroll.c ****             sb = LV_MIN(st, -sb);
 623:lvgl/src/core/lv_obj_scroll.c ****             lv_obj_scroll_by(obj, 0, sb, anim_en);
 624:lvgl/src/core/lv_obj_scroll.c ****         }
 625:lvgl/src/core/lv_obj_scroll.c ****     }
 626:lvgl/src/core/lv_obj_scroll.c **** 
 627:lvgl/src/core/lv_obj_scroll.c ****     if(lv_obj_get_scroll_snap_x(obj) == LV_SCROLL_SNAP_NONE) {
 628:lvgl/src/core/lv_obj_scroll.c ****         lv_coord_t sl = lv_obj_get_scroll_left(obj);
 629:lvgl/src/core/lv_obj_scroll.c ****         lv_coord_t sr = lv_obj_get_scroll_right(obj);
 630:lvgl/src/core/lv_obj_scroll.c ****         if(lv_obj_get_style_base_dir(obj, LV_PART_MAIN) != LV_BASE_DIR_RTL) {
 631:lvgl/src/core/lv_obj_scroll.c ****             /*Be sure the left side is not remains scrolled in*/
 632:lvgl/src/core/lv_obj_scroll.c ****             if(sr < 0 && sl > 0) {
 633:lvgl/src/core/lv_obj_scroll.c ****                 sr = LV_MIN(sl, -sr);
 634:lvgl/src/core/lv_obj_scroll.c ****                 lv_obj_scroll_by(obj, sr, 0, anim_en);
 635:lvgl/src/core/lv_obj_scroll.c ****             }
 636:lvgl/src/core/lv_obj_scroll.c ****         }
 637:lvgl/src/core/lv_obj_scroll.c ****         else {
 638:lvgl/src/core/lv_obj_scroll.c ****             /*Be sure the right side is not remains scrolled in*/
 639:lvgl/src/core/lv_obj_scroll.c ****             if(sl < 0 && sr > 0) {
 640:lvgl/src/core/lv_obj_scroll.c ****                 sr = LV_MIN(sr, -sl);
 641:lvgl/src/core/lv_obj_scroll.c ****                 lv_obj_scroll_by(obj, sl, 0, anim_en);
 642:lvgl/src/core/lv_obj_scroll.c ****             }
 643:lvgl/src/core/lv_obj_scroll.c ****         }
 644:lvgl/src/core/lv_obj_scroll.c ****     }
 645:lvgl/src/core/lv_obj_scroll.c **** }
 646:lvgl/src/core/lv_obj_scroll.c **** 
 647:lvgl/src/core/lv_obj_scroll.c **** /**********************
 648:lvgl/src/core/lv_obj_scroll.c ****  *   STATIC FUNCTIONS
 649:lvgl/src/core/lv_obj_scroll.c ****  **********************/
 650:lvgl/src/core/lv_obj_scroll.c **** 
 651:lvgl/src/core/lv_obj_scroll.c **** static void scroll_by_raw(lv_obj_t * obj, lv_coord_t x, lv_coord_t y)
 652:lvgl/src/core/lv_obj_scroll.c **** {
  28              		.loc 1 652 1 view -0
  29              		.cfi_startproc
  30              		@ args = 0, pretend = 0, frame = 0
  31              		@ frame_needed = 0, uses_anonymous_args = 0
 653:lvgl/src/core/lv_obj_scroll.c ****     if(x == 0 && y == 0) return;
  32              		.loc 1 653 5 view .LVU1
ARM GAS  C:\usertemp\ccBZVumh.s 			page 13


  33              		.loc 1 653 7 is_stmt 0 view .LVU2
  34 0000 51EA0203 		orrs	r3, r1, r2
  35 0004 00D1     		bne	.L7
  36 0006 7047     		bx	lr
  37              	.L7:
 652:lvgl/src/core/lv_obj_scroll.c ****     if(x == 0 && y == 0) return;
  38              		.loc 1 652 1 view .LVU3
  39 0008 70B5     		push	{r4, r5, r6, lr}
  40              	.LCFI0:
  41              		.cfi_def_cfa_offset 16
  42              		.cfi_offset 4, -16
  43              		.cfi_offset 5, -12
  44              		.cfi_offset 6, -8
  45              		.cfi_offset 14, -4
  46 000a 0446     		mov	r4, r0
  47 000c 0D46     		mov	r5, r1
  48 000e 1646     		mov	r6, r2
 654:lvgl/src/core/lv_obj_scroll.c **** 
 655:lvgl/src/core/lv_obj_scroll.c ****     lv_obj_allocate_spec_attr(obj);
  49              		.loc 1 655 5 is_stmt 1 view .LVU4
  50 0010 FFF7FEFF 		bl	lv_obj_allocate_spec_attr
  51              	.LVL1:
 656:lvgl/src/core/lv_obj_scroll.c **** 
 657:lvgl/src/core/lv_obj_scroll.c ****     obj->spec_attr->scroll.x += x;
  52              		.loc 1 657 5 view .LVU5
  53              		.loc 1 657 8 is_stmt 0 view .LVU6
  54 0014 A268     		ldr	r2, [r4, #8]
  55              		.loc 1 657 27 view .LVU7
  56 0016 138A     		ldrh	r3, [r2, #16]
  57              		.loc 1 657 30 view .LVU8
  58 0018 2B44     		add	r3, r3, r5
  59 001a 1382     		strh	r3, [r2, #16]	@ movhi
 658:lvgl/src/core/lv_obj_scroll.c ****     obj->spec_attr->scroll.y += y;
  60              		.loc 1 658 5 is_stmt 1 view .LVU9
  61              		.loc 1 658 8 is_stmt 0 view .LVU10
  62 001c A268     		ldr	r2, [r4, #8]
  63              		.loc 1 658 27 view .LVU11
  64 001e 538A     		ldrh	r3, [r2, #18]
  65              		.loc 1 658 30 view .LVU12
  66 0020 3344     		add	r3, r3, r6
  67 0022 5382     		strh	r3, [r2, #18]	@ movhi
 659:lvgl/src/core/lv_obj_scroll.c **** 
 660:lvgl/src/core/lv_obj_scroll.c ****     lv_obj_move_children_by(obj, x, y, true);
  68              		.loc 1 660 5 is_stmt 1 view .LVU13
  69 0024 0123     		movs	r3, #1
  70 0026 3246     		mov	r2, r6
  71 0028 2946     		mov	r1, r5
  72 002a 2046     		mov	r0, r4
  73 002c FFF7FEFF 		bl	lv_obj_move_children_by
  74              	.LVL2:
 661:lvgl/src/core/lv_obj_scroll.c ****     lv_res_t res = lv_event_send(obj, LV_EVENT_SCROLL, NULL);
  75              		.loc 1 661 5 view .LVU14
  76              		.loc 1 661 20 is_stmt 0 view .LVU15
  77 0030 0022     		movs	r2, #0
  78 0032 0B21     		movs	r1, #11
  79 0034 2046     		mov	r0, r4
  80 0036 FFF7FEFF 		bl	lv_event_send
ARM GAS  C:\usertemp\ccBZVumh.s 			page 14


  81              	.LVL3:
 662:lvgl/src/core/lv_obj_scroll.c ****     if(res != LV_RES_OK) return;
  82              		.loc 1 662 5 is_stmt 1 view .LVU16
  83              		.loc 1 662 7 is_stmt 0 view .LVU17
  84 003a 0128     		cmp	r0, #1
  85 003c 00D0     		beq	.L8
  86              	.LVL4:
  87              	.L1:
 663:lvgl/src/core/lv_obj_scroll.c ****     lv_obj_invalidate(obj);
 664:lvgl/src/core/lv_obj_scroll.c **** }
  88              		.loc 1 664 1 view .LVU18
  89 003e 70BD     		pop	{r4, r5, r6, pc}
  90              	.LVL5:
  91              	.L8:
 663:lvgl/src/core/lv_obj_scroll.c ****     lv_obj_invalidate(obj);
  92              		.loc 1 663 5 is_stmt 1 view .LVU19
  93 0040 2046     		mov	r0, r4
  94              	.LVL6:
 663:lvgl/src/core/lv_obj_scroll.c ****     lv_obj_invalidate(obj);
  95              		.loc 1 663 5 is_stmt 0 view .LVU20
  96 0042 FFF7FEFF 		bl	lv_obj_invalidate
  97              	.LVL7:
  98 0046 FAE7     		b	.L1
  99              		.cfi_endproc
 100              	.LFE189:
 102              		.section	.text.scroll_anim_ready_cb,"ax",%progbits
 103              		.align	1
 104              		.syntax unified
 105              		.thumb
 106              		.thumb_func
 108              	scroll_anim_ready_cb:
 109              	.LVL8:
 110              	.LFB192:
 665:lvgl/src/core/lv_obj_scroll.c **** 
 666:lvgl/src/core/lv_obj_scroll.c **** static void scroll_x_anim(void * obj, int32_t v)
 667:lvgl/src/core/lv_obj_scroll.c **** {
 668:lvgl/src/core/lv_obj_scroll.c ****     scroll_by_raw(obj, v + lv_obj_get_scroll_x(obj), 0);
 669:lvgl/src/core/lv_obj_scroll.c **** }
 670:lvgl/src/core/lv_obj_scroll.c **** 
 671:lvgl/src/core/lv_obj_scroll.c **** static void scroll_y_anim(void * obj, int32_t v)
 672:lvgl/src/core/lv_obj_scroll.c **** {
 673:lvgl/src/core/lv_obj_scroll.c ****     scroll_by_raw(obj, 0, v + lv_obj_get_scroll_y(obj));
 674:lvgl/src/core/lv_obj_scroll.c **** }
 675:lvgl/src/core/lv_obj_scroll.c **** 
 676:lvgl/src/core/lv_obj_scroll.c **** static void scroll_anim_ready_cb(lv_anim_t * a)
 677:lvgl/src/core/lv_obj_scroll.c **** {
 111              		.loc 1 677 1 is_stmt 1 view -0
 112              		.cfi_startproc
 113              		@ args = 0, pretend = 0, frame = 0
 114              		@ frame_needed = 0, uses_anonymous_args = 0
 115              		.loc 1 677 1 is_stmt 0 view .LVU22
 116 0000 08B5     		push	{r3, lr}
 117              	.LCFI1:
 118              		.cfi_def_cfa_offset 8
 119              		.cfi_offset 3, -8
 120              		.cfi_offset 14, -4
 678:lvgl/src/core/lv_obj_scroll.c ****     lv_event_send(a->var, LV_EVENT_SCROLL_END, NULL);
ARM GAS  C:\usertemp\ccBZVumh.s 			page 15


 121              		.loc 1 678 5 is_stmt 1 view .LVU23
 122 0002 0022     		movs	r2, #0
 123 0004 0A21     		movs	r1, #10
 124 0006 0068     		ldr	r0, [r0]
 125              	.LVL9:
 126              		.loc 1 678 5 is_stmt 0 view .LVU24
 127 0008 FFF7FEFF 		bl	lv_event_send
 128              	.LVL10:
 679:lvgl/src/core/lv_obj_scroll.c **** }
 129              		.loc 1 679 1 view .LVU25
 130 000c 08BD     		pop	{r3, pc}
 131              		.cfi_endproc
 132              	.LFE192:
 134              		.section	.text.lv_obj_set_scrollbar_mode,"ax",%progbits
 135              		.align	1
 136              		.global	lv_obj_set_scrollbar_mode
 137              		.syntax unified
 138              		.thumb
 139              		.thumb_func
 141              	lv_obj_set_scrollbar_mode:
 142              	.LVL11:
 143              	.LFB162:
  58:lvgl/src/core/lv_obj_scroll.c ****     LV_ASSERT_OBJ(obj, MY_CLASS);
 144              		.loc 1 58 1 is_stmt 1 view -0
 145              		.cfi_startproc
 146              		@ args = 0, pretend = 0, frame = 0
 147              		@ frame_needed = 0, uses_anonymous_args = 0
  58:lvgl/src/core/lv_obj_scroll.c ****     LV_ASSERT_OBJ(obj, MY_CLASS);
 148              		.loc 1 58 1 is_stmt 0 view .LVU27
 149 0000 38B5     		push	{r3, r4, r5, lr}
 150              	.LCFI2:
 151              		.cfi_def_cfa_offset 16
 152              		.cfi_offset 3, -16
 153              		.cfi_offset 4, -12
 154              		.cfi_offset 5, -8
 155              		.cfi_offset 14, -4
 156 0002 0446     		mov	r4, r0
 157 0004 0D46     		mov	r5, r1
  59:lvgl/src/core/lv_obj_scroll.c **** 
 158              		.loc 1 59 5 is_stmt 1 view .LVU28
  59:lvgl/src/core/lv_obj_scroll.c **** 
 159              		.loc 1 59 5 view .LVU29
  59:lvgl/src/core/lv_obj_scroll.c **** 
 160              		.loc 1 59 5 view .LVU30
  61:lvgl/src/core/lv_obj_scroll.c **** 
 161              		.loc 1 61 5 view .LVU31
 162 0006 FFF7FEFF 		bl	lv_obj_allocate_spec_attr
 163              	.LVL12:
  63:lvgl/src/core/lv_obj_scroll.c ****     obj->spec_attr->scrollbar_mode = mode;
 164              		.loc 1 63 5 view .LVU32
  63:lvgl/src/core/lv_obj_scroll.c ****     obj->spec_attr->scrollbar_mode = mode;
 165              		.loc 1 63 11 is_stmt 0 view .LVU33
 166 000a A268     		ldr	r2, [r4, #8]
  63:lvgl/src/core/lv_obj_scroll.c ****     obj->spec_attr->scrollbar_mode = mode;
 167              		.loc 1 63 22 view .LVU34
 168 000c 137E     		ldrb	r3, [r2, #24]	@ zero_extendqisi2
 169 000e 03F00303 		and	r3, r3, #3
ARM GAS  C:\usertemp\ccBZVumh.s 			page 16


  63:lvgl/src/core/lv_obj_scroll.c ****     obj->spec_attr->scrollbar_mode = mode;
 170              		.loc 1 63 7 view .LVU35
 171 0012 AB42     		cmp	r3, r5
 172 0014 06D0     		beq	.L11
  64:lvgl/src/core/lv_obj_scroll.c ****     lv_obj_invalidate(obj);
 173              		.loc 1 64 5 is_stmt 1 view .LVU36
  64:lvgl/src/core/lv_obj_scroll.c ****     lv_obj_invalidate(obj);
 174              		.loc 1 64 36 is_stmt 0 view .LVU37
 175 0016 137E     		ldrb	r3, [r2, #24]	@ zero_extendqisi2
 176 0018 65F30103 		bfi	r3, r5, #0, #2
 177 001c 1376     		strb	r3, [r2, #24]
  65:lvgl/src/core/lv_obj_scroll.c **** }
 178              		.loc 1 65 5 is_stmt 1 view .LVU38
 179 001e 2046     		mov	r0, r4
 180 0020 FFF7FEFF 		bl	lv_obj_invalidate
 181              	.LVL13:
 182              	.L11:
  66:lvgl/src/core/lv_obj_scroll.c **** 
 183              		.loc 1 66 1 is_stmt 0 view .LVU39
 184 0024 38BD     		pop	{r3, r4, r5, pc}
  66:lvgl/src/core/lv_obj_scroll.c **** 
 185              		.loc 1 66 1 view .LVU40
 186              		.cfi_endproc
 187              	.LFE162:
 189              		.section	.text.lv_obj_set_scroll_dir,"ax",%progbits
 190              		.align	1
 191              		.global	lv_obj_set_scroll_dir
 192              		.syntax unified
 193              		.thumb
 194              		.thumb_func
 196              	lv_obj_set_scroll_dir:
 197              	.LVL14:
 198              	.LFB163:
  69:lvgl/src/core/lv_obj_scroll.c ****     lv_obj_allocate_spec_attr(obj);
 199              		.loc 1 69 1 is_stmt 1 view -0
 200              		.cfi_startproc
 201              		@ args = 0, pretend = 0, frame = 0
 202              		@ frame_needed = 0, uses_anonymous_args = 0
  69:lvgl/src/core/lv_obj_scroll.c ****     lv_obj_allocate_spec_attr(obj);
 203              		.loc 1 69 1 is_stmt 0 view .LVU42
 204 0000 38B5     		push	{r3, r4, r5, lr}
 205              	.LCFI3:
 206              		.cfi_def_cfa_offset 16
 207              		.cfi_offset 3, -16
 208              		.cfi_offset 4, -12
 209              		.cfi_offset 5, -8
 210              		.cfi_offset 14, -4
 211 0002 0546     		mov	r5, r0
 212 0004 0C46     		mov	r4, r1
  70:lvgl/src/core/lv_obj_scroll.c **** 
 213              		.loc 1 70 5 is_stmt 1 view .LVU43
 214 0006 FFF7FEFF 		bl	lv_obj_allocate_spec_attr
 215              	.LVL15:
  72:lvgl/src/core/lv_obj_scroll.c ****         obj->spec_attr->scroll_dir = dir;
 216              		.loc 1 72 5 view .LVU44
  72:lvgl/src/core/lv_obj_scroll.c ****         obj->spec_attr->scroll_dir = dir;
 217              		.loc 1 72 18 is_stmt 0 view .LVU45
ARM GAS  C:\usertemp\ccBZVumh.s 			page 17


 218 000a AA68     		ldr	r2, [r5, #8]
  72:lvgl/src/core/lv_obj_scroll.c ****         obj->spec_attr->scroll_dir = dir;
 219              		.loc 1 72 29 view .LVU46
 220 000c 537E     		ldrb	r3, [r2, #25]	@ zero_extendqisi2
 221 000e 03F00F03 		and	r3, r3, #15
  72:lvgl/src/core/lv_obj_scroll.c ****         obj->spec_attr->scroll_dir = dir;
 222              		.loc 1 72 7 view .LVU47
 223 0012 A342     		cmp	r3, r4
 224 0014 03D0     		beq	.L14
  73:lvgl/src/core/lv_obj_scroll.c ****     }
 225              		.loc 1 73 9 is_stmt 1 view .LVU48
  73:lvgl/src/core/lv_obj_scroll.c ****     }
 226              		.loc 1 73 36 is_stmt 0 view .LVU49
 227 0016 537E     		ldrb	r3, [r2, #25]	@ zero_extendqisi2
 228 0018 64F30303 		bfi	r3, r4, #0, #4
 229              	.LVL16:
  73:lvgl/src/core/lv_obj_scroll.c ****     }
 230              		.loc 1 73 36 view .LVU50
 231 001c 5376     		strb	r3, [r2, #25]
 232              	.L14:
  75:lvgl/src/core/lv_obj_scroll.c **** 
 233              		.loc 1 75 1 view .LVU51
 234 001e 38BD     		pop	{r3, r4, r5, pc}
  75:lvgl/src/core/lv_obj_scroll.c **** 
 235              		.loc 1 75 1 view .LVU52
 236              		.cfi_endproc
 237              	.LFE163:
 239              		.section	.text.lv_obj_set_scroll_snap_x,"ax",%progbits
 240              		.align	1
 241              		.global	lv_obj_set_scroll_snap_x
 242              		.syntax unified
 243              		.thumb
 244              		.thumb_func
 246              	lv_obj_set_scroll_snap_x:
 247              	.LVL17:
 248              	.LFB164:
  78:lvgl/src/core/lv_obj_scroll.c ****     lv_obj_allocate_spec_attr(obj);
 249              		.loc 1 78 1 is_stmt 1 view -0
 250              		.cfi_startproc
 251              		@ args = 0, pretend = 0, frame = 0
 252              		@ frame_needed = 0, uses_anonymous_args = 0
  78:lvgl/src/core/lv_obj_scroll.c ****     lv_obj_allocate_spec_attr(obj);
 253              		.loc 1 78 1 is_stmt 0 view .LVU54
 254 0000 38B5     		push	{r3, r4, r5, lr}
 255              	.LCFI4:
 256              		.cfi_def_cfa_offset 16
 257              		.cfi_offset 3, -16
 258              		.cfi_offset 4, -12
 259              		.cfi_offset 5, -8
 260              		.cfi_offset 14, -4
 261 0002 0546     		mov	r5, r0
 262 0004 0C46     		mov	r4, r1
  79:lvgl/src/core/lv_obj_scroll.c ****     obj->spec_attr->scroll_snap_x = align;
 263              		.loc 1 79 5 is_stmt 1 view .LVU55
 264 0006 FFF7FEFF 		bl	lv_obj_allocate_spec_attr
 265              	.LVL18:
  80:lvgl/src/core/lv_obj_scroll.c **** }
ARM GAS  C:\usertemp\ccBZVumh.s 			page 18


 266              		.loc 1 80 5 view .LVU56
  80:lvgl/src/core/lv_obj_scroll.c **** }
 267              		.loc 1 80 8 is_stmt 0 view .LVU57
 268 000a AB68     		ldr	r3, [r5, #8]
  80:lvgl/src/core/lv_obj_scroll.c **** }
 269              		.loc 1 80 35 view .LVU58
 270 000c 1A7E     		ldrb	r2, [r3, #24]	@ zero_extendqisi2
 271 000e 64F38302 		bfi	r2, r4, #2, #2
 272 0012 1A76     		strb	r2, [r3, #24]
  81:lvgl/src/core/lv_obj_scroll.c **** 
 273              		.loc 1 81 1 view .LVU59
 274 0014 38BD     		pop	{r3, r4, r5, pc}
  81:lvgl/src/core/lv_obj_scroll.c **** 
 275              		.loc 1 81 1 view .LVU60
 276              		.cfi_endproc
 277              	.LFE164:
 279              		.section	.text.lv_obj_set_scroll_snap_y,"ax",%progbits
 280              		.align	1
 281              		.global	lv_obj_set_scroll_snap_y
 282              		.syntax unified
 283              		.thumb
 284              		.thumb_func
 286              	lv_obj_set_scroll_snap_y:
 287              	.LVL19:
 288              	.LFB165:
  84:lvgl/src/core/lv_obj_scroll.c ****     lv_obj_allocate_spec_attr(obj);
 289              		.loc 1 84 1 is_stmt 1 view -0
 290              		.cfi_startproc
 291              		@ args = 0, pretend = 0, frame = 0
 292              		@ frame_needed = 0, uses_anonymous_args = 0
  84:lvgl/src/core/lv_obj_scroll.c ****     lv_obj_allocate_spec_attr(obj);
 293              		.loc 1 84 1 is_stmt 0 view .LVU62
 294 0000 38B5     		push	{r3, r4, r5, lr}
 295              	.LCFI5:
 296              		.cfi_def_cfa_offset 16
 297              		.cfi_offset 3, -16
 298              		.cfi_offset 4, -12
 299              		.cfi_offset 5, -8
 300              		.cfi_offset 14, -4
 301 0002 0546     		mov	r5, r0
 302 0004 0C46     		mov	r4, r1
  85:lvgl/src/core/lv_obj_scroll.c ****     obj->spec_attr->scroll_snap_y = align;
 303              		.loc 1 85 5 is_stmt 1 view .LVU63
 304 0006 FFF7FEFF 		bl	lv_obj_allocate_spec_attr
 305              	.LVL20:
  86:lvgl/src/core/lv_obj_scroll.c **** }
 306              		.loc 1 86 5 view .LVU64
  86:lvgl/src/core/lv_obj_scroll.c **** }
 307              		.loc 1 86 8 is_stmt 0 view .LVU65
 308 000a AB68     		ldr	r3, [r5, #8]
  86:lvgl/src/core/lv_obj_scroll.c **** }
 309              		.loc 1 86 35 view .LVU66
 310 000c 1A7E     		ldrb	r2, [r3, #24]	@ zero_extendqisi2
 311 000e 64F30512 		bfi	r2, r4, #4, #2
 312 0012 1A76     		strb	r2, [r3, #24]
  87:lvgl/src/core/lv_obj_scroll.c **** 
 313              		.loc 1 87 1 view .LVU67
ARM GAS  C:\usertemp\ccBZVumh.s 			page 19


 314 0014 38BD     		pop	{r3, r4, r5, pc}
  87:lvgl/src/core/lv_obj_scroll.c **** 
 315              		.loc 1 87 1 view .LVU68
 316              		.cfi_endproc
 317              	.LFE165:
 319              		.section	.text.lv_obj_get_scrollbar_mode,"ax",%progbits
 320              		.align	1
 321              		.global	lv_obj_get_scrollbar_mode
 322              		.syntax unified
 323              		.thumb
 324              		.thumb_func
 326              	lv_obj_get_scrollbar_mode:
 327              	.LVL21:
 328              	.LFB166:
  94:lvgl/src/core/lv_obj_scroll.c ****     if(obj->spec_attr) return obj->spec_attr->scrollbar_mode;
 329              		.loc 1 94 1 is_stmt 1 view -0
 330              		.cfi_startproc
 331              		@ args = 0, pretend = 0, frame = 0
 332              		@ frame_needed = 0, uses_anonymous_args = 0
 333              		@ link register save eliminated.
  95:lvgl/src/core/lv_obj_scroll.c ****     else return LV_SCROLLBAR_MODE_AUTO;
 334              		.loc 1 95 5 view .LVU70
  95:lvgl/src/core/lv_obj_scroll.c ****     else return LV_SCROLLBAR_MODE_AUTO;
 335              		.loc 1 95 11 is_stmt 0 view .LVU71
 336 0000 8368     		ldr	r3, [r0, #8]
  95:lvgl/src/core/lv_obj_scroll.c ****     else return LV_SCROLLBAR_MODE_AUTO;
 337              		.loc 1 95 7 view .LVU72
 338 0002 1BB1     		cbz	r3, .L23
  95:lvgl/src/core/lv_obj_scroll.c ****     else return LV_SCROLLBAR_MODE_AUTO;
 339              		.loc 1 95 24 is_stmt 1 discriminator 1 view .LVU73
  95:lvgl/src/core/lv_obj_scroll.c ****     else return LV_SCROLLBAR_MODE_AUTO;
 340              		.loc 1 95 45 is_stmt 0 discriminator 1 view .LVU74
 341 0004 187E     		ldrb	r0, [r3, #24]	@ zero_extendqisi2
 342              	.LVL22:
  95:lvgl/src/core/lv_obj_scroll.c ****     else return LV_SCROLLBAR_MODE_AUTO;
 343              		.loc 1 95 45 discriminator 1 view .LVU75
 344 0006 00F00300 		and	r0, r0, #3
  95:lvgl/src/core/lv_obj_scroll.c ****     else return LV_SCROLLBAR_MODE_AUTO;
 345              		.loc 1 95 45 view .LVU76
 346 000a 7047     		bx	lr
 347              	.LVL23:
 348              	.L23:
  96:lvgl/src/core/lv_obj_scroll.c **** }
 349              		.loc 1 96 17 view .LVU77
 350 000c 0320     		movs	r0, #3
 351              	.LVL24:
  97:lvgl/src/core/lv_obj_scroll.c **** 
 352              		.loc 1 97 1 view .LVU78
 353 000e 7047     		bx	lr
 354              		.cfi_endproc
 355              	.LFE166:
 357              		.section	.text.lv_obj_get_scroll_dir,"ax",%progbits
 358              		.align	1
 359              		.global	lv_obj_get_scroll_dir
 360              		.syntax unified
 361              		.thumb
 362              		.thumb_func
ARM GAS  C:\usertemp\ccBZVumh.s 			page 20


 364              	lv_obj_get_scroll_dir:
 365              	.LVL25:
 366              	.LFB167:
 100:lvgl/src/core/lv_obj_scroll.c ****     if(obj->spec_attr) return obj->spec_attr->scroll_dir;
 367              		.loc 1 100 1 is_stmt 1 view -0
 368              		.cfi_startproc
 369              		@ args = 0, pretend = 0, frame = 0
 370              		@ frame_needed = 0, uses_anonymous_args = 0
 371              		@ link register save eliminated.
 101:lvgl/src/core/lv_obj_scroll.c ****     else return LV_DIR_ALL;
 372              		.loc 1 101 5 view .LVU80
 101:lvgl/src/core/lv_obj_scroll.c ****     else return LV_DIR_ALL;
 373              		.loc 1 101 11 is_stmt 0 view .LVU81
 374 0000 8368     		ldr	r3, [r0, #8]
 101:lvgl/src/core/lv_obj_scroll.c ****     else return LV_DIR_ALL;
 375              		.loc 1 101 7 view .LVU82
 376 0002 1BB1     		cbz	r3, .L26
 101:lvgl/src/core/lv_obj_scroll.c ****     else return LV_DIR_ALL;
 377              		.loc 1 101 24 is_stmt 1 discriminator 1 view .LVU83
 101:lvgl/src/core/lv_obj_scroll.c ****     else return LV_DIR_ALL;
 378              		.loc 1 101 45 is_stmt 0 discriminator 1 view .LVU84
 379 0004 587E     		ldrb	r0, [r3, #25]	@ zero_extendqisi2
 380              	.LVL26:
 101:lvgl/src/core/lv_obj_scroll.c ****     else return LV_DIR_ALL;
 381              		.loc 1 101 45 discriminator 1 view .LVU85
 382 0006 00F00F00 		and	r0, r0, #15
 101:lvgl/src/core/lv_obj_scroll.c ****     else return LV_DIR_ALL;
 383              		.loc 1 101 45 view .LVU86
 384 000a 7047     		bx	lr
 385              	.LVL27:
 386              	.L26:
 102:lvgl/src/core/lv_obj_scroll.c **** }
 387              		.loc 1 102 17 view .LVU87
 388 000c 0F20     		movs	r0, #15
 389              	.LVL28:
 103:lvgl/src/core/lv_obj_scroll.c **** 
 390              		.loc 1 103 1 view .LVU88
 391 000e 7047     		bx	lr
 392              		.cfi_endproc
 393              	.LFE167:
 395              		.section	.text.lv_obj_get_scroll_snap_x,"ax",%progbits
 396              		.align	1
 397              		.global	lv_obj_get_scroll_snap_x
 398              		.syntax unified
 399              		.thumb
 400              		.thumb_func
 402              	lv_obj_get_scroll_snap_x:
 403              	.LVL29:
 404              	.LFB168:
 106:lvgl/src/core/lv_obj_scroll.c ****     if(obj->spec_attr) return obj->spec_attr->scroll_snap_x;
 405              		.loc 1 106 1 is_stmt 1 view -0
 406              		.cfi_startproc
 407              		@ args = 0, pretend = 0, frame = 0
 408              		@ frame_needed = 0, uses_anonymous_args = 0
 409              		@ link register save eliminated.
 107:lvgl/src/core/lv_obj_scroll.c ****     else return LV_SCROLL_SNAP_NONE;
 410              		.loc 1 107 5 view .LVU90
ARM GAS  C:\usertemp\ccBZVumh.s 			page 21


 107:lvgl/src/core/lv_obj_scroll.c ****     else return LV_SCROLL_SNAP_NONE;
 411              		.loc 1 107 11 is_stmt 0 view .LVU91
 412 0000 8368     		ldr	r3, [r0, #8]
 107:lvgl/src/core/lv_obj_scroll.c ****     else return LV_SCROLL_SNAP_NONE;
 413              		.loc 1 107 7 view .LVU92
 414 0002 1BB1     		cbz	r3, .L29
 107:lvgl/src/core/lv_obj_scroll.c ****     else return LV_SCROLL_SNAP_NONE;
 415              		.loc 1 107 24 is_stmt 1 discriminator 1 view .LVU93
 107:lvgl/src/core/lv_obj_scroll.c ****     else return LV_SCROLL_SNAP_NONE;
 416              		.loc 1 107 45 is_stmt 0 discriminator 1 view .LVU94
 417 0004 187E     		ldrb	r0, [r3, #24]	@ zero_extendqisi2
 418              	.LVL30:
 107:lvgl/src/core/lv_obj_scroll.c ****     else return LV_SCROLL_SNAP_NONE;
 419              		.loc 1 107 45 discriminator 1 view .LVU95
 420 0006 C0F38100 		ubfx	r0, r0, #2, #2
 107:lvgl/src/core/lv_obj_scroll.c ****     else return LV_SCROLL_SNAP_NONE;
 421              		.loc 1 107 45 view .LVU96
 422 000a 7047     		bx	lr
 423              	.LVL31:
 424              	.L29:
 108:lvgl/src/core/lv_obj_scroll.c **** }
 425              		.loc 1 108 17 view .LVU97
 426 000c 0020     		movs	r0, #0
 427              	.LVL32:
 109:lvgl/src/core/lv_obj_scroll.c **** 
 428              		.loc 1 109 1 view .LVU98
 429 000e 7047     		bx	lr
 430              		.cfi_endproc
 431              	.LFE168:
 433              		.section	.text.lv_obj_get_scroll_snap_y,"ax",%progbits
 434              		.align	1
 435              		.global	lv_obj_get_scroll_snap_y
 436              		.syntax unified
 437              		.thumb
 438              		.thumb_func
 440              	lv_obj_get_scroll_snap_y:
 441              	.LVL33:
 442              	.LFB169:
 112:lvgl/src/core/lv_obj_scroll.c ****     if(obj->spec_attr) return obj->spec_attr->scroll_snap_y;
 443              		.loc 1 112 1 is_stmt 1 view -0
 444              		.cfi_startproc
 445              		@ args = 0, pretend = 0, frame = 0
 446              		@ frame_needed = 0, uses_anonymous_args = 0
 447              		@ link register save eliminated.
 113:lvgl/src/core/lv_obj_scroll.c ****     else return LV_SCROLL_SNAP_NONE;
 448              		.loc 1 113 5 view .LVU100
 113:lvgl/src/core/lv_obj_scroll.c ****     else return LV_SCROLL_SNAP_NONE;
 449              		.loc 1 113 11 is_stmt 0 view .LVU101
 450 0000 8368     		ldr	r3, [r0, #8]
 113:lvgl/src/core/lv_obj_scroll.c ****     else return LV_SCROLL_SNAP_NONE;
 451              		.loc 1 113 7 view .LVU102
 452 0002 1BB1     		cbz	r3, .L32
 113:lvgl/src/core/lv_obj_scroll.c ****     else return LV_SCROLL_SNAP_NONE;
 453              		.loc 1 113 24 is_stmt 1 discriminator 1 view .LVU103
 113:lvgl/src/core/lv_obj_scroll.c ****     else return LV_SCROLL_SNAP_NONE;
 454              		.loc 1 113 45 is_stmt 0 discriminator 1 view .LVU104
 455 0004 187E     		ldrb	r0, [r3, #24]	@ zero_extendqisi2
ARM GAS  C:\usertemp\ccBZVumh.s 			page 22


 456              	.LVL34:
 113:lvgl/src/core/lv_obj_scroll.c ****     else return LV_SCROLL_SNAP_NONE;
 457              		.loc 1 113 45 discriminator 1 view .LVU105
 458 0006 C0F30110 		ubfx	r0, r0, #4, #2
 113:lvgl/src/core/lv_obj_scroll.c ****     else return LV_SCROLL_SNAP_NONE;
 459              		.loc 1 113 45 view .LVU106
 460 000a 7047     		bx	lr
 461              	.LVL35:
 462              	.L32:
 114:lvgl/src/core/lv_obj_scroll.c **** }
 463              		.loc 1 114 17 view .LVU107
 464 000c 0020     		movs	r0, #0
 465              	.LVL36:
 115:lvgl/src/core/lv_obj_scroll.c **** 
 466              		.loc 1 115 1 view .LVU108
 467 000e 7047     		bx	lr
 468              		.cfi_endproc
 469              	.LFE169:
 471              		.section	.text.lv_obj_get_scroll_x,"ax",%progbits
 472              		.align	1
 473              		.global	lv_obj_get_scroll_x
 474              		.syntax unified
 475              		.thumb
 476              		.thumb_func
 478              	lv_obj_get_scroll_x:
 479              	.LVL37:
 480              	.LFB170:
 118:lvgl/src/core/lv_obj_scroll.c ****     if(obj->spec_attr == NULL) return 0;
 481              		.loc 1 118 1 is_stmt 1 view -0
 482              		.cfi_startproc
 483              		@ args = 0, pretend = 0, frame = 0
 484              		@ frame_needed = 0, uses_anonymous_args = 0
 485              		@ link register save eliminated.
 119:lvgl/src/core/lv_obj_scroll.c ****     return -obj->spec_attr->scroll.x;
 486              		.loc 1 119 5 view .LVU110
 119:lvgl/src/core/lv_obj_scroll.c ****     return -obj->spec_attr->scroll.x;
 487              		.loc 1 119 11 is_stmt 0 view .LVU111
 488 0000 8368     		ldr	r3, [r0, #8]
 119:lvgl/src/core/lv_obj_scroll.c ****     return -obj->spec_attr->scroll.x;
 489              		.loc 1 119 7 view .LVU112
 490 0002 1BB1     		cbz	r3, .L35
 120:lvgl/src/core/lv_obj_scroll.c **** }
 491              		.loc 1 120 5 is_stmt 1 view .LVU113
 120:lvgl/src/core/lv_obj_scroll.c **** }
 492              		.loc 1 120 35 is_stmt 0 view .LVU114
 493 0004 188A     		ldrh	r0, [r3, #16]
 494              	.LVL38:
 120:lvgl/src/core/lv_obj_scroll.c **** }
 495              		.loc 1 120 12 view .LVU115
 496 0006 4042     		rsbs	r0, r0, #0
 497 0008 00B2     		sxth	r0, r0
 498 000a 7047     		bx	lr
 499              	.LVL39:
 500              	.L35:
 119:lvgl/src/core/lv_obj_scroll.c ****     return -obj->spec_attr->scroll.x;
 501              		.loc 1 119 39 discriminator 1 view .LVU116
 502 000c 0020     		movs	r0, #0
ARM GAS  C:\usertemp\ccBZVumh.s 			page 23


 503              	.LVL40:
 121:lvgl/src/core/lv_obj_scroll.c **** 
 504              		.loc 1 121 1 view .LVU117
 505 000e 7047     		bx	lr
 506              		.cfi_endproc
 507              	.LFE170:
 509              		.section	.text.scroll_x_anim,"ax",%progbits
 510              		.align	1
 511              		.syntax unified
 512              		.thumb
 513              		.thumb_func
 515              	scroll_x_anim:
 516              	.LVL41:
 517              	.LFB190:
 667:lvgl/src/core/lv_obj_scroll.c ****     scroll_by_raw(obj, v + lv_obj_get_scroll_x(obj), 0);
 518              		.loc 1 667 1 is_stmt 1 view -0
 519              		.cfi_startproc
 520              		@ args = 0, pretend = 0, frame = 0
 521              		@ frame_needed = 0, uses_anonymous_args = 0
 667:lvgl/src/core/lv_obj_scroll.c ****     scroll_by_raw(obj, v + lv_obj_get_scroll_x(obj), 0);
 522              		.loc 1 667 1 is_stmt 0 view .LVU119
 523 0000 38B5     		push	{r3, r4, r5, lr}
 524              	.LCFI6:
 525              		.cfi_def_cfa_offset 16
 526              		.cfi_offset 3, -16
 527              		.cfi_offset 4, -12
 528              		.cfi_offset 5, -8
 529              		.cfi_offset 14, -4
 530 0002 0446     		mov	r4, r0
 531 0004 0D46     		mov	r5, r1
 668:lvgl/src/core/lv_obj_scroll.c **** }
 532              		.loc 1 668 5 is_stmt 1 view .LVU120
 668:lvgl/src/core/lv_obj_scroll.c **** }
 533              		.loc 1 668 28 is_stmt 0 view .LVU121
 534 0006 FFF7FEFF 		bl	lv_obj_get_scroll_x
 535              	.LVL42:
 668:lvgl/src/core/lv_obj_scroll.c **** }
 536              		.loc 1 668 26 discriminator 1 view .LVU122
 537 000a 15FA80F1 		uxtah	r1, r5, r0
 668:lvgl/src/core/lv_obj_scroll.c **** }
 538              		.loc 1 668 5 discriminator 1 view .LVU123
 539 000e 0022     		movs	r2, #0
 540 0010 09B2     		sxth	r1, r1
 541 0012 2046     		mov	r0, r4
 542 0014 FFF7FEFF 		bl	scroll_by_raw
 543              	.LVL43:
 669:lvgl/src/core/lv_obj_scroll.c **** 
 544              		.loc 1 669 1 view .LVU124
 545 0018 38BD     		pop	{r3, r4, r5, pc}
 669:lvgl/src/core/lv_obj_scroll.c **** 
 546              		.loc 1 669 1 view .LVU125
 547              		.cfi_endproc
 548              	.LFE190:
 550              		.section	.text.lv_obj_get_scroll_y,"ax",%progbits
 551              		.align	1
 552              		.global	lv_obj_get_scroll_y
 553              		.syntax unified
ARM GAS  C:\usertemp\ccBZVumh.s 			page 24


 554              		.thumb
 555              		.thumb_func
 557              	lv_obj_get_scroll_y:
 558              	.LVL44:
 559              	.LFB171:
 124:lvgl/src/core/lv_obj_scroll.c ****     if(obj->spec_attr == NULL) return 0;
 560              		.loc 1 124 1 is_stmt 1 view -0
 561              		.cfi_startproc
 562              		@ args = 0, pretend = 0, frame = 0
 563              		@ frame_needed = 0, uses_anonymous_args = 0
 564              		@ link register save eliminated.
 125:lvgl/src/core/lv_obj_scroll.c ****     return -obj->spec_attr->scroll.y;
 565              		.loc 1 125 5 view .LVU127
 125:lvgl/src/core/lv_obj_scroll.c ****     return -obj->spec_attr->scroll.y;
 566              		.loc 1 125 11 is_stmt 0 view .LVU128
 567 0000 8368     		ldr	r3, [r0, #8]
 125:lvgl/src/core/lv_obj_scroll.c ****     return -obj->spec_attr->scroll.y;
 568              		.loc 1 125 7 view .LVU129
 569 0002 1BB1     		cbz	r3, .L40
 126:lvgl/src/core/lv_obj_scroll.c **** }
 570              		.loc 1 126 5 is_stmt 1 view .LVU130
 126:lvgl/src/core/lv_obj_scroll.c **** }
 571              		.loc 1 126 35 is_stmt 0 view .LVU131
 572 0004 588A     		ldrh	r0, [r3, #18]
 573              	.LVL45:
 126:lvgl/src/core/lv_obj_scroll.c **** }
 574              		.loc 1 126 12 view .LVU132
 575 0006 4042     		rsbs	r0, r0, #0
 576 0008 00B2     		sxth	r0, r0
 577 000a 7047     		bx	lr
 578              	.LVL46:
 579              	.L40:
 125:lvgl/src/core/lv_obj_scroll.c ****     return -obj->spec_attr->scroll.y;
 580              		.loc 1 125 39 discriminator 1 view .LVU133
 581 000c 0020     		movs	r0, #0
 582              	.LVL47:
 127:lvgl/src/core/lv_obj_scroll.c **** 
 583              		.loc 1 127 1 view .LVU134
 584 000e 7047     		bx	lr
 585              		.cfi_endproc
 586              	.LFE171:
 588              		.section	.text.scroll_y_anim,"ax",%progbits
 589              		.align	1
 590              		.syntax unified
 591              		.thumb
 592              		.thumb_func
 594              	scroll_y_anim:
 595              	.LVL48:
 596              	.LFB191:
 672:lvgl/src/core/lv_obj_scroll.c ****     scroll_by_raw(obj, 0, v + lv_obj_get_scroll_y(obj));
 597              		.loc 1 672 1 is_stmt 1 view -0
 598              		.cfi_startproc
 599              		@ args = 0, pretend = 0, frame = 0
 600              		@ frame_needed = 0, uses_anonymous_args = 0
 672:lvgl/src/core/lv_obj_scroll.c ****     scroll_by_raw(obj, 0, v + lv_obj_get_scroll_y(obj));
 601              		.loc 1 672 1 is_stmt 0 view .LVU136
 602 0000 38B5     		push	{r3, r4, r5, lr}
ARM GAS  C:\usertemp\ccBZVumh.s 			page 25


 603              	.LCFI7:
 604              		.cfi_def_cfa_offset 16
 605              		.cfi_offset 3, -16
 606              		.cfi_offset 4, -12
 607              		.cfi_offset 5, -8
 608              		.cfi_offset 14, -4
 609 0002 0446     		mov	r4, r0
 610 0004 0D46     		mov	r5, r1
 673:lvgl/src/core/lv_obj_scroll.c **** }
 611              		.loc 1 673 5 is_stmt 1 view .LVU137
 673:lvgl/src/core/lv_obj_scroll.c **** }
 612              		.loc 1 673 31 is_stmt 0 view .LVU138
 613 0006 FFF7FEFF 		bl	lv_obj_get_scroll_y
 614              	.LVL49:
 673:lvgl/src/core/lv_obj_scroll.c **** }
 615              		.loc 1 673 29 discriminator 1 view .LVU139
 616 000a 15FA80F2 		uxtah	r2, r5, r0
 673:lvgl/src/core/lv_obj_scroll.c **** }
 617              		.loc 1 673 5 discriminator 1 view .LVU140
 618 000e 12B2     		sxth	r2, r2
 619 0010 0021     		movs	r1, #0
 620 0012 2046     		mov	r0, r4
 621 0014 FFF7FEFF 		bl	scroll_by_raw
 622              	.LVL50:
 674:lvgl/src/core/lv_obj_scroll.c **** 
 623              		.loc 1 674 1 view .LVU141
 624 0018 38BD     		pop	{r3, r4, r5, pc}
 674:lvgl/src/core/lv_obj_scroll.c **** 
 625              		.loc 1 674 1 view .LVU142
 626              		.cfi_endproc
 627              	.LFE191:
 629              		.section	.text.lv_obj_get_scroll_top,"ax",%progbits
 630              		.align	1
 631              		.global	lv_obj_get_scroll_top
 632              		.syntax unified
 633              		.thumb
 634              		.thumb_func
 636              	lv_obj_get_scroll_top:
 637              	.LVL51:
 638              	.LFB172:
 130:lvgl/src/core/lv_obj_scroll.c ****     if(obj->spec_attr == NULL) return 0;
 639              		.loc 1 130 1 is_stmt 1 view -0
 640              		.cfi_startproc
 641              		@ args = 0, pretend = 0, frame = 0
 642              		@ frame_needed = 0, uses_anonymous_args = 0
 643              		@ link register save eliminated.
 131:lvgl/src/core/lv_obj_scroll.c ****     return -obj->spec_attr->scroll.y;
 644              		.loc 1 131 5 view .LVU144
 131:lvgl/src/core/lv_obj_scroll.c ****     return -obj->spec_attr->scroll.y;
 645              		.loc 1 131 11 is_stmt 0 view .LVU145
 646 0000 8368     		ldr	r3, [r0, #8]
 131:lvgl/src/core/lv_obj_scroll.c ****     return -obj->spec_attr->scroll.y;
 647              		.loc 1 131 7 view .LVU146
 648 0002 1BB1     		cbz	r3, .L45
 132:lvgl/src/core/lv_obj_scroll.c **** }
 649              		.loc 1 132 5 is_stmt 1 view .LVU147
 132:lvgl/src/core/lv_obj_scroll.c **** }
ARM GAS  C:\usertemp\ccBZVumh.s 			page 26


 650              		.loc 1 132 35 is_stmt 0 view .LVU148
 651 0004 588A     		ldrh	r0, [r3, #18]
 652              	.LVL52:
 132:lvgl/src/core/lv_obj_scroll.c **** }
 653              		.loc 1 132 12 view .LVU149
 654 0006 4042     		rsbs	r0, r0, #0
 655 0008 00B2     		sxth	r0, r0
 656 000a 7047     		bx	lr
 657              	.LVL53:
 658              	.L45:
 131:lvgl/src/core/lv_obj_scroll.c ****     return -obj->spec_attr->scroll.y;
 659              		.loc 1 131 39 discriminator 1 view .LVU150
 660 000c 0020     		movs	r0, #0
 661              	.LVL54:
 133:lvgl/src/core/lv_obj_scroll.c **** 
 662              		.loc 1 133 1 view .LVU151
 663 000e 7047     		bx	lr
 664              		.cfi_endproc
 665              	.LFE172:
 667              		.section	.text.lv_obj_get_scroll_bottom,"ax",%progbits
 668              		.align	1
 669              		.global	lv_obj_get_scroll_bottom
 670              		.syntax unified
 671              		.thumb
 672              		.thumb_func
 674              	lv_obj_get_scroll_bottom:
 675              	.LVL55:
 676              	.LFB173:
 136:lvgl/src/core/lv_obj_scroll.c ****     LV_ASSERT_OBJ(obj, MY_CLASS);
 677              		.loc 1 136 1 is_stmt 1 view -0
 678              		.cfi_startproc
 679              		@ args = 0, pretend = 0, frame = 0
 680              		@ frame_needed = 0, uses_anonymous_args = 0
 136:lvgl/src/core/lv_obj_scroll.c ****     LV_ASSERT_OBJ(obj, MY_CLASS);
 681              		.loc 1 136 1 is_stmt 0 view .LVU153
 682 0000 2DE9F843 		push	{r3, r4, r5, r6, r7, r8, r9, lr}
 683              	.LCFI8:
 684              		.cfi_def_cfa_offset 32
 685              		.cfi_offset 3, -32
 686              		.cfi_offset 4, -28
 687              		.cfi_offset 5, -24
 688              		.cfi_offset 6, -20
 689              		.cfi_offset 7, -16
 690              		.cfi_offset 8, -12
 691              		.cfi_offset 9, -8
 692              		.cfi_offset 14, -4
 693 0004 0646     		mov	r6, r0
 137:lvgl/src/core/lv_obj_scroll.c **** 
 694              		.loc 1 137 5 is_stmt 1 view .LVU154
 137:lvgl/src/core/lv_obj_scroll.c **** 
 695              		.loc 1 137 5 view .LVU155
 137:lvgl/src/core/lv_obj_scroll.c **** 
 696              		.loc 1 137 5 view .LVU156
 139:lvgl/src/core/lv_obj_scroll.c ****     uint32_t i;
 697              		.loc 1 139 5 view .LVU157
 698              	.LVL56:
 140:lvgl/src/core/lv_obj_scroll.c ****     uint32_t child_cnt = lv_obj_get_child_cnt(obj);
ARM GAS  C:\usertemp\ccBZVumh.s 			page 27


 699              		.loc 1 140 5 view .LVU158
 141:lvgl/src/core/lv_obj_scroll.c ****     for(i = 0; i < child_cnt; i++) {
 700              		.loc 1 141 5 view .LVU159
 141:lvgl/src/core/lv_obj_scroll.c ****     for(i = 0; i < child_cnt; i++) {
 701              		.loc 1 141 26 is_stmt 0 view .LVU160
 702 0006 FFF7FEFF 		bl	lv_obj_get_child_cnt
 703              	.LVL57:
 141:lvgl/src/core/lv_obj_scroll.c ****     for(i = 0; i < child_cnt; i++) {
 704              		.loc 1 141 26 view .LVU161
 705 000a 8046     		mov	r8, r0
 706              	.LVL58:
 142:lvgl/src/core/lv_obj_scroll.c ****         lv_obj_t * child = obj->spec_attr->children[i];
 707              		.loc 1 142 5 is_stmt 1 view .LVU162
 142:lvgl/src/core/lv_obj_scroll.c ****         lv_obj_t * child = obj->spec_attr->children[i];
 708              		.loc 1 142 11 is_stmt 0 view .LVU163
 709 000c 0024     		movs	r4, #0
 139:lvgl/src/core/lv_obj_scroll.c ****     uint32_t i;
 710              		.loc 1 139 16 view .LVU164
 711 000e 284F     		ldr	r7, .L54
 142:lvgl/src/core/lv_obj_scroll.c ****         lv_obj_t * child = obj->spec_attr->children[i];
 712              		.loc 1 142 5 view .LVU165
 713 0010 05E0     		b	.L47
 714              	.LVL59:
 715              	.L53:
 716              	.LBB100:
 145:lvgl/src/core/lv_obj_scroll.c ****     }
 717              		.loc 1 145 9 is_stmt 1 view .LVU166
 145:lvgl/src/core/lv_obj_scroll.c ****     }
 718              		.loc 1 145 21 is_stmt 0 view .LVU167
 719 0012 B5F91A30 		ldrsh	r3, [r5, #26]
 145:lvgl/src/core/lv_obj_scroll.c ****     }
 720              		.loc 1 145 19 view .LVU168
 721 0016 9F42     		cmp	r7, r3
 722 0018 B8BF     		it	lt
 723 001a 1F46     		movlt	r7, r3
 724              	.LVL60:
 725              	.L48:
 145:lvgl/src/core/lv_obj_scroll.c ****     }
 726              		.loc 1 145 19 view .LVU169
 727              	.LBE100:
 142:lvgl/src/core/lv_obj_scroll.c ****         lv_obj_t * child = obj->spec_attr->children[i];
 728              		.loc 1 142 32 is_stmt 1 discriminator 2 view .LVU170
 729 001c 0134     		adds	r4, r4, #1
 730              	.LVL61:
 731              	.L47:
 142:lvgl/src/core/lv_obj_scroll.c ****         lv_obj_t * child = obj->spec_attr->children[i];
 732              		.loc 1 142 18 discriminator 1 view .LVU171
 733 001e 4445     		cmp	r4, r8
 734 0020 0AD2     		bcs	.L52
 735              	.LBB101:
 143:lvgl/src/core/lv_obj_scroll.c ****         if(lv_obj_has_flag_any(child,  LV_OBJ_FLAG_HIDDEN | LV_OBJ_FLAG_FLOATING)) continue;
 736              		.loc 1 143 9 view .LVU172
 143:lvgl/src/core/lv_obj_scroll.c ****         if(lv_obj_has_flag_any(child,  LV_OBJ_FLAG_HIDDEN | LV_OBJ_FLAG_FLOATING)) continue;
 737              		.loc 1 143 31 is_stmt 0 view .LVU173
 738 0022 B368     		ldr	r3, [r6, #8]
 143:lvgl/src/core/lv_obj_scroll.c ****         if(lv_obj_has_flag_any(child,  LV_OBJ_FLAG_HIDDEN | LV_OBJ_FLAG_FLOATING)) continue;
 739              		.loc 1 143 42 view .LVU174
ARM GAS  C:\usertemp\ccBZVumh.s 			page 28


 740 0024 1B68     		ldr	r3, [r3]
 143:lvgl/src/core/lv_obj_scroll.c ****         if(lv_obj_has_flag_any(child,  LV_OBJ_FLAG_HIDDEN | LV_OBJ_FLAG_FLOATING)) continue;
 741              		.loc 1 143 20 view .LVU175
 742 0026 53F82450 		ldr	r5, [r3, r4, lsl #2]
 743              	.LVL62:
 144:lvgl/src/core/lv_obj_scroll.c ****         child_res = LV_MAX(child_res, child->coords.y2);
 744              		.loc 1 144 9 is_stmt 1 view .LVU176
 144:lvgl/src/core/lv_obj_scroll.c ****         child_res = LV_MAX(child_res, child->coords.y2);
 745              		.loc 1 144 12 is_stmt 0 view .LVU177
 746 002a 2249     		ldr	r1, .L54+4
 747 002c 2846     		mov	r0, r5
 748 002e FFF7FEFF 		bl	lv_obj_has_flag_any
 749              	.LVL63:
 144:lvgl/src/core/lv_obj_scroll.c ****         child_res = LV_MAX(child_res, child->coords.y2);
 750              		.loc 1 144 11 discriminator 1 view .LVU178
 751 0032 0028     		cmp	r0, #0
 752 0034 EDD0     		beq	.L53
 753 0036 F1E7     		b	.L48
 754              	.LVL64:
 755              	.L52:
 144:lvgl/src/core/lv_obj_scroll.c ****         child_res = LV_MAX(child_res, child->coords.y2);
 756              		.loc 1 144 11 discriminator 1 view .LVU179
 757              	.LBE101:
 148:lvgl/src/core/lv_obj_scroll.c ****     lv_coord_t pad_bottom = lv_obj_get_style_pad_bottom(obj, LV_PART_MAIN);
 758              		.loc 1 148 5 is_stmt 1 view .LVU180
 759              	.LBB102:
 760              	.LBI102:
 761              		.file 2 "lvgl/src/core/lv_obj_style_gen.h"
   1:lvgl/src/core/lv_obj_style_gen.h **** static inline lv_coord_t lv_obj_get_style_width(const struct _lv_obj_t * obj, uint32_t part)
   2:lvgl/src/core/lv_obj_style_gen.h **** {
   3:lvgl/src/core/lv_obj_style_gen.h ****     lv_style_value_t v = lv_obj_get_style_prop(obj, part, LV_STYLE_WIDTH);
   4:lvgl/src/core/lv_obj_style_gen.h ****     return (lv_coord_t)v.num;
   5:lvgl/src/core/lv_obj_style_gen.h **** }
   6:lvgl/src/core/lv_obj_style_gen.h **** 
   7:lvgl/src/core/lv_obj_style_gen.h **** static inline lv_coord_t lv_obj_get_style_min_width(const struct _lv_obj_t * obj, uint32_t part)
   8:lvgl/src/core/lv_obj_style_gen.h **** {
   9:lvgl/src/core/lv_obj_style_gen.h ****     lv_style_value_t v = lv_obj_get_style_prop(obj, part, LV_STYLE_MIN_WIDTH);
  10:lvgl/src/core/lv_obj_style_gen.h ****     return (lv_coord_t)v.num;
  11:lvgl/src/core/lv_obj_style_gen.h **** }
  12:lvgl/src/core/lv_obj_style_gen.h **** 
  13:lvgl/src/core/lv_obj_style_gen.h **** static inline lv_coord_t lv_obj_get_style_max_width(const struct _lv_obj_t * obj, uint32_t part)
  14:lvgl/src/core/lv_obj_style_gen.h **** {
  15:lvgl/src/core/lv_obj_style_gen.h ****     lv_style_value_t v = lv_obj_get_style_prop(obj, part, LV_STYLE_MAX_WIDTH);
  16:lvgl/src/core/lv_obj_style_gen.h ****     return (lv_coord_t)v.num;
  17:lvgl/src/core/lv_obj_style_gen.h **** }
  18:lvgl/src/core/lv_obj_style_gen.h **** 
  19:lvgl/src/core/lv_obj_style_gen.h **** static inline lv_coord_t lv_obj_get_style_height(const struct _lv_obj_t * obj, uint32_t part)
  20:lvgl/src/core/lv_obj_style_gen.h **** {
  21:lvgl/src/core/lv_obj_style_gen.h ****     lv_style_value_t v = lv_obj_get_style_prop(obj, part, LV_STYLE_HEIGHT);
  22:lvgl/src/core/lv_obj_style_gen.h ****     return (lv_coord_t)v.num;
  23:lvgl/src/core/lv_obj_style_gen.h **** }
  24:lvgl/src/core/lv_obj_style_gen.h **** 
  25:lvgl/src/core/lv_obj_style_gen.h **** static inline lv_coord_t lv_obj_get_style_min_height(const struct _lv_obj_t * obj, uint32_t part)
  26:lvgl/src/core/lv_obj_style_gen.h **** {
  27:lvgl/src/core/lv_obj_style_gen.h ****     lv_style_value_t v = lv_obj_get_style_prop(obj, part, LV_STYLE_MIN_HEIGHT);
  28:lvgl/src/core/lv_obj_style_gen.h ****     return (lv_coord_t)v.num;
  29:lvgl/src/core/lv_obj_style_gen.h **** }
ARM GAS  C:\usertemp\ccBZVumh.s 			page 29


  30:lvgl/src/core/lv_obj_style_gen.h **** 
  31:lvgl/src/core/lv_obj_style_gen.h **** static inline lv_coord_t lv_obj_get_style_max_height(const struct _lv_obj_t * obj, uint32_t part)
  32:lvgl/src/core/lv_obj_style_gen.h **** {
  33:lvgl/src/core/lv_obj_style_gen.h ****     lv_style_value_t v = lv_obj_get_style_prop(obj, part, LV_STYLE_MAX_HEIGHT);
  34:lvgl/src/core/lv_obj_style_gen.h ****     return (lv_coord_t)v.num;
  35:lvgl/src/core/lv_obj_style_gen.h **** }
  36:lvgl/src/core/lv_obj_style_gen.h **** 
  37:lvgl/src/core/lv_obj_style_gen.h **** static inline lv_coord_t lv_obj_get_style_x(const struct _lv_obj_t * obj, uint32_t part)
  38:lvgl/src/core/lv_obj_style_gen.h **** {
  39:lvgl/src/core/lv_obj_style_gen.h ****     lv_style_value_t v = lv_obj_get_style_prop(obj, part, LV_STYLE_X);
  40:lvgl/src/core/lv_obj_style_gen.h ****     return (lv_coord_t)v.num;
  41:lvgl/src/core/lv_obj_style_gen.h **** }
  42:lvgl/src/core/lv_obj_style_gen.h **** 
  43:lvgl/src/core/lv_obj_style_gen.h **** static inline lv_coord_t lv_obj_get_style_y(const struct _lv_obj_t * obj, uint32_t part)
  44:lvgl/src/core/lv_obj_style_gen.h **** {
  45:lvgl/src/core/lv_obj_style_gen.h ****     lv_style_value_t v = lv_obj_get_style_prop(obj, part, LV_STYLE_Y);
  46:lvgl/src/core/lv_obj_style_gen.h ****     return (lv_coord_t)v.num;
  47:lvgl/src/core/lv_obj_style_gen.h **** }
  48:lvgl/src/core/lv_obj_style_gen.h **** 
  49:lvgl/src/core/lv_obj_style_gen.h **** static inline lv_align_t lv_obj_get_style_align(const struct _lv_obj_t * obj, uint32_t part)
  50:lvgl/src/core/lv_obj_style_gen.h **** {
  51:lvgl/src/core/lv_obj_style_gen.h ****     lv_style_value_t v = lv_obj_get_style_prop(obj, part, LV_STYLE_ALIGN);
  52:lvgl/src/core/lv_obj_style_gen.h ****     return (lv_align_t)v.num;
  53:lvgl/src/core/lv_obj_style_gen.h **** }
  54:lvgl/src/core/lv_obj_style_gen.h **** 
  55:lvgl/src/core/lv_obj_style_gen.h **** static inline lv_coord_t lv_obj_get_style_transform_width(const struct _lv_obj_t * obj, uint32_t pa
  56:lvgl/src/core/lv_obj_style_gen.h **** {
  57:lvgl/src/core/lv_obj_style_gen.h ****     lv_style_value_t v = lv_obj_get_style_prop(obj, part, LV_STYLE_TRANSFORM_WIDTH);
  58:lvgl/src/core/lv_obj_style_gen.h ****     return (lv_coord_t)v.num;
  59:lvgl/src/core/lv_obj_style_gen.h **** }
  60:lvgl/src/core/lv_obj_style_gen.h **** 
  61:lvgl/src/core/lv_obj_style_gen.h **** static inline lv_coord_t lv_obj_get_style_transform_height(const struct _lv_obj_t * obj, uint32_t p
  62:lvgl/src/core/lv_obj_style_gen.h **** {
  63:lvgl/src/core/lv_obj_style_gen.h ****     lv_style_value_t v = lv_obj_get_style_prop(obj, part, LV_STYLE_TRANSFORM_HEIGHT);
  64:lvgl/src/core/lv_obj_style_gen.h ****     return (lv_coord_t)v.num;
  65:lvgl/src/core/lv_obj_style_gen.h **** }
  66:lvgl/src/core/lv_obj_style_gen.h **** 
  67:lvgl/src/core/lv_obj_style_gen.h **** static inline lv_coord_t lv_obj_get_style_translate_x(const struct _lv_obj_t * obj, uint32_t part)
  68:lvgl/src/core/lv_obj_style_gen.h **** {
  69:lvgl/src/core/lv_obj_style_gen.h ****     lv_style_value_t v = lv_obj_get_style_prop(obj, part, LV_STYLE_TRANSLATE_X);
  70:lvgl/src/core/lv_obj_style_gen.h ****     return (lv_coord_t)v.num;
  71:lvgl/src/core/lv_obj_style_gen.h **** }
  72:lvgl/src/core/lv_obj_style_gen.h **** 
  73:lvgl/src/core/lv_obj_style_gen.h **** static inline lv_coord_t lv_obj_get_style_translate_y(const struct _lv_obj_t * obj, uint32_t part)
  74:lvgl/src/core/lv_obj_style_gen.h **** {
  75:lvgl/src/core/lv_obj_style_gen.h ****     lv_style_value_t v = lv_obj_get_style_prop(obj, part, LV_STYLE_TRANSLATE_Y);
  76:lvgl/src/core/lv_obj_style_gen.h ****     return (lv_coord_t)v.num;
  77:lvgl/src/core/lv_obj_style_gen.h **** }
  78:lvgl/src/core/lv_obj_style_gen.h **** 
  79:lvgl/src/core/lv_obj_style_gen.h **** static inline lv_coord_t lv_obj_get_style_transform_zoom(const struct _lv_obj_t * obj, uint32_t par
  80:lvgl/src/core/lv_obj_style_gen.h **** {
  81:lvgl/src/core/lv_obj_style_gen.h ****     lv_style_value_t v = lv_obj_get_style_prop(obj, part, LV_STYLE_TRANSFORM_ZOOM);
  82:lvgl/src/core/lv_obj_style_gen.h ****     return (lv_coord_t)v.num;
  83:lvgl/src/core/lv_obj_style_gen.h **** }
  84:lvgl/src/core/lv_obj_style_gen.h **** 
  85:lvgl/src/core/lv_obj_style_gen.h **** static inline lv_coord_t lv_obj_get_style_transform_angle(const struct _lv_obj_t * obj, uint32_t pa
  86:lvgl/src/core/lv_obj_style_gen.h **** {
ARM GAS  C:\usertemp\ccBZVumh.s 			page 30


  87:lvgl/src/core/lv_obj_style_gen.h ****     lv_style_value_t v = lv_obj_get_style_prop(obj, part, LV_STYLE_TRANSFORM_ANGLE);
  88:lvgl/src/core/lv_obj_style_gen.h ****     return (lv_coord_t)v.num;
  89:lvgl/src/core/lv_obj_style_gen.h **** }
  90:lvgl/src/core/lv_obj_style_gen.h **** 
  91:lvgl/src/core/lv_obj_style_gen.h **** static inline lv_coord_t lv_obj_get_style_pad_top(const struct _lv_obj_t * obj, uint32_t part)
 762              		.loc 2 91 26 view .LVU181
 763              	.LBB103:
  92:lvgl/src/core/lv_obj_style_gen.h **** {
  93:lvgl/src/core/lv_obj_style_gen.h ****     lv_style_value_t v = lv_obj_get_style_prop(obj, part, LV_STYLE_PAD_TOP);
 764              		.loc 2 93 5 view .LVU182
 765              		.loc 2 93 26 is_stmt 0 view .LVU183
 766 0038 41F61002 		movw	r2, #6160
 767 003c 0021     		movs	r1, #0
 768 003e 3046     		mov	r0, r6
 769 0040 FFF7FEFF 		bl	lv_obj_get_style_prop
 770              	.LVL65:
 771 0044 0446     		mov	r4, r0
 772              	.LVL66:
  94:lvgl/src/core/lv_obj_style_gen.h ****     return (lv_coord_t)v.num;
 773              		.loc 2 94 5 is_stmt 1 view .LVU184
 774              		.loc 2 94 5 is_stmt 0 view .LVU185
 775              	.LBE103:
 776              	.LBE102:
 149:lvgl/src/core/lv_obj_scroll.c ****     lv_coord_t border_width = lv_obj_get_style_border_width(obj, LV_PART_MAIN);
 777              		.loc 1 149 5 is_stmt 1 view .LVU186
 778              	.LBB104:
 779              	.LBI104:
  95:lvgl/src/core/lv_obj_style_gen.h **** }
  96:lvgl/src/core/lv_obj_style_gen.h **** 
  97:lvgl/src/core/lv_obj_style_gen.h **** static inline lv_coord_t lv_obj_get_style_pad_bottom(const struct _lv_obj_t * obj, uint32_t part)
 780              		.loc 2 97 26 view .LVU187
 781              	.LBB105:
  98:lvgl/src/core/lv_obj_style_gen.h **** {
  99:lvgl/src/core/lv_obj_style_gen.h ****     lv_style_value_t v = lv_obj_get_style_prop(obj, part, LV_STYLE_PAD_BOTTOM);
 782              		.loc 2 99 5 view .LVU188
 783              		.loc 2 99 26 is_stmt 0 view .LVU189
 784 0046 41F61102 		movw	r2, #6161
 785 004a 0021     		movs	r1, #0
 786 004c 3046     		mov	r0, r6
 787 004e FFF7FEFF 		bl	lv_obj_get_style_prop
 788              	.LVL67:
 789 0052 8146     		mov	r9, r0
 100:lvgl/src/core/lv_obj_style_gen.h ****     return (lv_coord_t)v.num;
 790              		.loc 2 100 5 is_stmt 1 view .LVU190
 791              	.LVL68:
 792              		.loc 2 100 5 is_stmt 0 view .LVU191
 793              	.LBE105:
 794              	.LBE104:
 150:lvgl/src/core/lv_obj_scroll.c **** 
 795              		.loc 1 150 5 is_stmt 1 view .LVU192
 796              	.LBB106:
 797              	.LBI106:
 101:lvgl/src/core/lv_obj_style_gen.h **** }
 102:lvgl/src/core/lv_obj_style_gen.h **** 
 103:lvgl/src/core/lv_obj_style_gen.h **** static inline lv_coord_t lv_obj_get_style_pad_left(const struct _lv_obj_t * obj, uint32_t part)
 104:lvgl/src/core/lv_obj_style_gen.h **** {
 105:lvgl/src/core/lv_obj_style_gen.h ****     lv_style_value_t v = lv_obj_get_style_prop(obj, part, LV_STYLE_PAD_LEFT);
ARM GAS  C:\usertemp\ccBZVumh.s 			page 31


 106:lvgl/src/core/lv_obj_style_gen.h ****     return (lv_coord_t)v.num;
 107:lvgl/src/core/lv_obj_style_gen.h **** }
 108:lvgl/src/core/lv_obj_style_gen.h **** 
 109:lvgl/src/core/lv_obj_style_gen.h **** static inline lv_coord_t lv_obj_get_style_pad_right(const struct _lv_obj_t * obj, uint32_t part)
 110:lvgl/src/core/lv_obj_style_gen.h **** {
 111:lvgl/src/core/lv_obj_style_gen.h ****     lv_style_value_t v = lv_obj_get_style_prop(obj, part, LV_STYLE_PAD_RIGHT);
 112:lvgl/src/core/lv_obj_style_gen.h ****     return (lv_coord_t)v.num;
 113:lvgl/src/core/lv_obj_style_gen.h **** }
 114:lvgl/src/core/lv_obj_style_gen.h **** 
 115:lvgl/src/core/lv_obj_style_gen.h **** static inline lv_coord_t lv_obj_get_style_pad_row(const struct _lv_obj_t * obj, uint32_t part)
 116:lvgl/src/core/lv_obj_style_gen.h **** {
 117:lvgl/src/core/lv_obj_style_gen.h ****     lv_style_value_t v = lv_obj_get_style_prop(obj, part, LV_STYLE_PAD_ROW);
 118:lvgl/src/core/lv_obj_style_gen.h ****     return (lv_coord_t)v.num;
 119:lvgl/src/core/lv_obj_style_gen.h **** }
 120:lvgl/src/core/lv_obj_style_gen.h **** 
 121:lvgl/src/core/lv_obj_style_gen.h **** static inline lv_coord_t lv_obj_get_style_pad_column(const struct _lv_obj_t * obj, uint32_t part)
 122:lvgl/src/core/lv_obj_style_gen.h **** {
 123:lvgl/src/core/lv_obj_style_gen.h ****     lv_style_value_t v = lv_obj_get_style_prop(obj, part, LV_STYLE_PAD_COLUMN);
 124:lvgl/src/core/lv_obj_style_gen.h ****     return (lv_coord_t)v.num;
 125:lvgl/src/core/lv_obj_style_gen.h **** }
 126:lvgl/src/core/lv_obj_style_gen.h **** 
 127:lvgl/src/core/lv_obj_style_gen.h **** static inline lv_color_t lv_obj_get_style_bg_color(const struct _lv_obj_t * obj, uint32_t part)
 128:lvgl/src/core/lv_obj_style_gen.h **** {
 129:lvgl/src/core/lv_obj_style_gen.h ****     lv_style_value_t v = lv_obj_get_style_prop(obj, part, LV_STYLE_BG_COLOR);
 130:lvgl/src/core/lv_obj_style_gen.h ****     return v.color;
 131:lvgl/src/core/lv_obj_style_gen.h **** }
 132:lvgl/src/core/lv_obj_style_gen.h **** 
 133:lvgl/src/core/lv_obj_style_gen.h **** static inline lv_color_t lv_obj_get_style_bg_color_filtered(const struct _lv_obj_t * obj, uint32_t 
 134:lvgl/src/core/lv_obj_style_gen.h **** {
 135:lvgl/src/core/lv_obj_style_gen.h ****     lv_style_value_t v = lv_obj_get_style_prop(obj, part, LV_STYLE_BG_COLOR_FILTERED);
 136:lvgl/src/core/lv_obj_style_gen.h ****     return v.color;
 137:lvgl/src/core/lv_obj_style_gen.h **** }
 138:lvgl/src/core/lv_obj_style_gen.h **** 
 139:lvgl/src/core/lv_obj_style_gen.h **** static inline lv_opa_t lv_obj_get_style_bg_opa(const struct _lv_obj_t * obj, uint32_t part)
 140:lvgl/src/core/lv_obj_style_gen.h **** {
 141:lvgl/src/core/lv_obj_style_gen.h ****     lv_style_value_t v = lv_obj_get_style_prop(obj, part, LV_STYLE_BG_OPA);
 142:lvgl/src/core/lv_obj_style_gen.h ****     return (lv_opa_t)v.num;
 143:lvgl/src/core/lv_obj_style_gen.h **** }
 144:lvgl/src/core/lv_obj_style_gen.h **** 
 145:lvgl/src/core/lv_obj_style_gen.h **** static inline lv_color_t lv_obj_get_style_bg_grad_color(const struct _lv_obj_t * obj, uint32_t part
 146:lvgl/src/core/lv_obj_style_gen.h **** {
 147:lvgl/src/core/lv_obj_style_gen.h ****     lv_style_value_t v = lv_obj_get_style_prop(obj, part, LV_STYLE_BG_GRAD_COLOR);
 148:lvgl/src/core/lv_obj_style_gen.h ****     return v.color;
 149:lvgl/src/core/lv_obj_style_gen.h **** }
 150:lvgl/src/core/lv_obj_style_gen.h **** 
 151:lvgl/src/core/lv_obj_style_gen.h **** static inline lv_color_t lv_obj_get_style_bg_grad_color_filtered(const struct _lv_obj_t * obj, uint
 152:lvgl/src/core/lv_obj_style_gen.h **** {
 153:lvgl/src/core/lv_obj_style_gen.h ****     lv_style_value_t v = lv_obj_get_style_prop(obj, part, LV_STYLE_BG_GRAD_COLOR_FILTERED);
 154:lvgl/src/core/lv_obj_style_gen.h ****     return v.color;
 155:lvgl/src/core/lv_obj_style_gen.h **** }
 156:lvgl/src/core/lv_obj_style_gen.h **** 
 157:lvgl/src/core/lv_obj_style_gen.h **** static inline lv_grad_dir_t lv_obj_get_style_bg_grad_dir(const struct _lv_obj_t * obj, uint32_t par
 158:lvgl/src/core/lv_obj_style_gen.h **** {
 159:lvgl/src/core/lv_obj_style_gen.h ****     lv_style_value_t v = lv_obj_get_style_prop(obj, part, LV_STYLE_BG_GRAD_DIR);
 160:lvgl/src/core/lv_obj_style_gen.h ****     return (lv_grad_dir_t)v.num;
 161:lvgl/src/core/lv_obj_style_gen.h **** }
 162:lvgl/src/core/lv_obj_style_gen.h **** 
ARM GAS  C:\usertemp\ccBZVumh.s 			page 32


 163:lvgl/src/core/lv_obj_style_gen.h **** static inline lv_coord_t lv_obj_get_style_bg_main_stop(const struct _lv_obj_t * obj, uint32_t part)
 164:lvgl/src/core/lv_obj_style_gen.h **** {
 165:lvgl/src/core/lv_obj_style_gen.h ****     lv_style_value_t v = lv_obj_get_style_prop(obj, part, LV_STYLE_BG_MAIN_STOP);
 166:lvgl/src/core/lv_obj_style_gen.h ****     return (lv_coord_t)v.num;
 167:lvgl/src/core/lv_obj_style_gen.h **** }
 168:lvgl/src/core/lv_obj_style_gen.h **** 
 169:lvgl/src/core/lv_obj_style_gen.h **** static inline lv_coord_t lv_obj_get_style_bg_grad_stop(const struct _lv_obj_t * obj, uint32_t part)
 170:lvgl/src/core/lv_obj_style_gen.h **** {
 171:lvgl/src/core/lv_obj_style_gen.h ****     lv_style_value_t v = lv_obj_get_style_prop(obj, part, LV_STYLE_BG_GRAD_STOP);
 172:lvgl/src/core/lv_obj_style_gen.h ****     return (lv_coord_t)v.num;
 173:lvgl/src/core/lv_obj_style_gen.h **** }
 174:lvgl/src/core/lv_obj_style_gen.h **** 
 175:lvgl/src/core/lv_obj_style_gen.h **** static inline const lv_grad_dsc_t * lv_obj_get_style_bg_grad(const struct _lv_obj_t * obj, uint32_t
 176:lvgl/src/core/lv_obj_style_gen.h **** {
 177:lvgl/src/core/lv_obj_style_gen.h ****     lv_style_value_t v = lv_obj_get_style_prop(obj, part, LV_STYLE_BG_GRAD);
 178:lvgl/src/core/lv_obj_style_gen.h ****     return (const lv_grad_dsc_t *)v.ptr;
 179:lvgl/src/core/lv_obj_style_gen.h **** }
 180:lvgl/src/core/lv_obj_style_gen.h **** 
 181:lvgl/src/core/lv_obj_style_gen.h **** static inline lv_dither_mode_t lv_obj_get_style_bg_dither_mode(const struct _lv_obj_t * obj, uint32
 182:lvgl/src/core/lv_obj_style_gen.h **** {
 183:lvgl/src/core/lv_obj_style_gen.h ****     lv_style_value_t v = lv_obj_get_style_prop(obj, part, LV_STYLE_BG_DITHER_MODE);
 184:lvgl/src/core/lv_obj_style_gen.h ****     return (lv_dither_mode_t)v.num;
 185:lvgl/src/core/lv_obj_style_gen.h **** }
 186:lvgl/src/core/lv_obj_style_gen.h **** 
 187:lvgl/src/core/lv_obj_style_gen.h **** static inline const void * lv_obj_get_style_bg_img_src(const struct _lv_obj_t * obj, uint32_t part)
 188:lvgl/src/core/lv_obj_style_gen.h **** {
 189:lvgl/src/core/lv_obj_style_gen.h ****     lv_style_value_t v = lv_obj_get_style_prop(obj, part, LV_STYLE_BG_IMG_SRC);
 190:lvgl/src/core/lv_obj_style_gen.h ****     return (const void *)v.ptr;
 191:lvgl/src/core/lv_obj_style_gen.h **** }
 192:lvgl/src/core/lv_obj_style_gen.h **** 
 193:lvgl/src/core/lv_obj_style_gen.h **** static inline lv_opa_t lv_obj_get_style_bg_img_opa(const struct _lv_obj_t * obj, uint32_t part)
 194:lvgl/src/core/lv_obj_style_gen.h **** {
 195:lvgl/src/core/lv_obj_style_gen.h ****     lv_style_value_t v = lv_obj_get_style_prop(obj, part, LV_STYLE_BG_IMG_OPA);
 196:lvgl/src/core/lv_obj_style_gen.h ****     return (lv_opa_t)v.num;
 197:lvgl/src/core/lv_obj_style_gen.h **** }
 198:lvgl/src/core/lv_obj_style_gen.h **** 
 199:lvgl/src/core/lv_obj_style_gen.h **** static inline lv_color_t lv_obj_get_style_bg_img_recolor(const struct _lv_obj_t * obj, uint32_t par
 200:lvgl/src/core/lv_obj_style_gen.h **** {
 201:lvgl/src/core/lv_obj_style_gen.h ****     lv_style_value_t v = lv_obj_get_style_prop(obj, part, LV_STYLE_BG_IMG_RECOLOR);
 202:lvgl/src/core/lv_obj_style_gen.h ****     return v.color;
 203:lvgl/src/core/lv_obj_style_gen.h **** }
 204:lvgl/src/core/lv_obj_style_gen.h **** 
 205:lvgl/src/core/lv_obj_style_gen.h **** static inline lv_color_t lv_obj_get_style_bg_img_recolor_filtered(const struct _lv_obj_t * obj, uin
 206:lvgl/src/core/lv_obj_style_gen.h **** {
 207:lvgl/src/core/lv_obj_style_gen.h ****     lv_style_value_t v = lv_obj_get_style_prop(obj, part, LV_STYLE_BG_IMG_RECOLOR_FILTERED);
 208:lvgl/src/core/lv_obj_style_gen.h ****     return v.color;
 209:lvgl/src/core/lv_obj_style_gen.h **** }
 210:lvgl/src/core/lv_obj_style_gen.h **** 
 211:lvgl/src/core/lv_obj_style_gen.h **** static inline lv_opa_t lv_obj_get_style_bg_img_recolor_opa(const struct _lv_obj_t * obj, uint32_t p
 212:lvgl/src/core/lv_obj_style_gen.h **** {
 213:lvgl/src/core/lv_obj_style_gen.h ****     lv_style_value_t v = lv_obj_get_style_prop(obj, part, LV_STYLE_BG_IMG_RECOLOR_OPA);
 214:lvgl/src/core/lv_obj_style_gen.h ****     return (lv_opa_t)v.num;
 215:lvgl/src/core/lv_obj_style_gen.h **** }
 216:lvgl/src/core/lv_obj_style_gen.h **** 
 217:lvgl/src/core/lv_obj_style_gen.h **** static inline bool lv_obj_get_style_bg_img_tiled(const struct _lv_obj_t * obj, uint32_t part)
 218:lvgl/src/core/lv_obj_style_gen.h **** {
 219:lvgl/src/core/lv_obj_style_gen.h ****     lv_style_value_t v = lv_obj_get_style_prop(obj, part, LV_STYLE_BG_IMG_TILED);
ARM GAS  C:\usertemp\ccBZVumh.s 			page 33


 220:lvgl/src/core/lv_obj_style_gen.h ****     return (bool)v.num;
 221:lvgl/src/core/lv_obj_style_gen.h **** }
 222:lvgl/src/core/lv_obj_style_gen.h **** 
 223:lvgl/src/core/lv_obj_style_gen.h **** static inline lv_color_t lv_obj_get_style_border_color(const struct _lv_obj_t * obj, uint32_t part)
 224:lvgl/src/core/lv_obj_style_gen.h **** {
 225:lvgl/src/core/lv_obj_style_gen.h ****     lv_style_value_t v = lv_obj_get_style_prop(obj, part, LV_STYLE_BORDER_COLOR);
 226:lvgl/src/core/lv_obj_style_gen.h ****     return v.color;
 227:lvgl/src/core/lv_obj_style_gen.h **** }
 228:lvgl/src/core/lv_obj_style_gen.h **** 
 229:lvgl/src/core/lv_obj_style_gen.h **** static inline lv_color_t lv_obj_get_style_border_color_filtered(const struct _lv_obj_t * obj, uint3
 230:lvgl/src/core/lv_obj_style_gen.h **** {
 231:lvgl/src/core/lv_obj_style_gen.h ****     lv_style_value_t v = lv_obj_get_style_prop(obj, part, LV_STYLE_BORDER_COLOR_FILTERED);
 232:lvgl/src/core/lv_obj_style_gen.h ****     return v.color;
 233:lvgl/src/core/lv_obj_style_gen.h **** }
 234:lvgl/src/core/lv_obj_style_gen.h **** 
 235:lvgl/src/core/lv_obj_style_gen.h **** static inline lv_opa_t lv_obj_get_style_border_opa(const struct _lv_obj_t * obj, uint32_t part)
 236:lvgl/src/core/lv_obj_style_gen.h **** {
 237:lvgl/src/core/lv_obj_style_gen.h ****     lv_style_value_t v = lv_obj_get_style_prop(obj, part, LV_STYLE_BORDER_OPA);
 238:lvgl/src/core/lv_obj_style_gen.h ****     return (lv_opa_t)v.num;
 239:lvgl/src/core/lv_obj_style_gen.h **** }
 240:lvgl/src/core/lv_obj_style_gen.h **** 
 241:lvgl/src/core/lv_obj_style_gen.h **** static inline lv_coord_t lv_obj_get_style_border_width(const struct _lv_obj_t * obj, uint32_t part)
 798              		.loc 2 241 26 view .LVU193
 799              	.LBB107:
 242:lvgl/src/core/lv_obj_style_gen.h **** {
 243:lvgl/src/core/lv_obj_style_gen.h ****     lv_style_value_t v = lv_obj_get_style_prop(obj, part, LV_STYLE_BORDER_WIDTH);
 800              		.loc 2 243 5 view .LVU194
 801              		.loc 2 243 26 is_stmt 0 view .LVU195
 802 0054 41F23202 		movw	r2, #4146
 803 0058 0021     		movs	r1, #0
 804 005a 3046     		mov	r0, r6
 805 005c FFF7FEFF 		bl	lv_obj_get_style_prop
 806              	.LVL69:
 807 0060 0546     		mov	r5, r0
 244:lvgl/src/core/lv_obj_style_gen.h ****     return (lv_coord_t)v.num;
 808              		.loc 2 244 5 is_stmt 1 view .LVU196
 809              	.LVL70:
 810              		.loc 2 244 5 is_stmt 0 view .LVU197
 811              	.LBE107:
 812              	.LBE106:
 152:lvgl/src/core/lv_obj_scroll.c ****         child_res -= (obj->coords.y2 - pad_bottom - border_width);
 813              		.loc 1 152 5 is_stmt 1 view .LVU198
 152:lvgl/src/core/lv_obj_scroll.c ****         child_res -= (obj->coords.y2 - pad_bottom - border_width);
 814              		.loc 1 152 7 is_stmt 0 view .LVU199
 815 0062 134B     		ldr	r3, .L54
 816 0064 9F42     		cmp	r7, r3
 817 0066 05D0     		beq	.L50
 153:lvgl/src/core/lv_obj_scroll.c ****     }
 818              		.loc 1 153 9 is_stmt 1 view .LVU200
 153:lvgl/src/core/lv_obj_scroll.c ****     }
 819              		.loc 1 153 34 is_stmt 0 view .LVU201
 820 0068 738B     		ldrh	r3, [r6, #26]
 153:lvgl/src/core/lv_obj_scroll.c ****     }
 821              		.loc 1 153 19 view .LVU202
 822 006a A9EB0303 		sub	r3, r9, r3
 823 006e 0344     		add	r3, r3, r0
 824 0070 3B44     		add	r3, r3, r7
ARM GAS  C:\usertemp\ccBZVumh.s 			page 34


 825 0072 1FB2     		sxth	r7, r3
 826              	.LVL71:
 827              	.L50:
 156:lvgl/src/core/lv_obj_scroll.c ****     self_h = self_h - (lv_obj_get_height(obj) - pad_top - pad_bottom - 2 * border_width);
 828              		.loc 1 156 5 is_stmt 1 view .LVU203
 156:lvgl/src/core/lv_obj_scroll.c ****     self_h = self_h - (lv_obj_get_height(obj) - pad_top - pad_bottom - 2 * border_width);
 829              		.loc 1 156 25 is_stmt 0 view .LVU204
 830 0074 3046     		mov	r0, r6
 831              	.LVL72:
 156:lvgl/src/core/lv_obj_scroll.c ****     self_h = self_h - (lv_obj_get_height(obj) - pad_top - pad_bottom - 2 * border_width);
 832              		.loc 1 156 25 view .LVU205
 833 0076 FFF7FEFF 		bl	lv_obj_get_self_height
 834              	.LVL73:
 835 007a 8046     		mov	r8, r0
 836              	.LVL74:
 157:lvgl/src/core/lv_obj_scroll.c ****     self_h -= lv_obj_get_scroll_y(obj);
 837              		.loc 1 157 5 is_stmt 1 view .LVU206
 157:lvgl/src/core/lv_obj_scroll.c ****     self_h -= lv_obj_get_scroll_y(obj);
 838              		.loc 1 157 74 is_stmt 0 view .LVU207
 839 007c 6D00     		lsls	r5, r5, #1
 840 007e ADB2     		uxth	r5, r5
 157:lvgl/src/core/lv_obj_scroll.c ****     self_h -= lv_obj_get_scroll_y(obj);
 841              		.loc 1 157 24 view .LVU208
 842 0080 3046     		mov	r0, r6
 843 0082 FFF7FEFF 		bl	lv_obj_get_height
 844              	.LVL75:
 157:lvgl/src/core/lv_obj_scroll.c ****     self_h -= lv_obj_get_scroll_y(obj);
 845              		.loc 1 157 24 discriminator 1 view .LVU209
 846 0086 80B2     		uxth	r0, r0
 157:lvgl/src/core/lv_obj_scroll.c ****     self_h -= lv_obj_get_scroll_y(obj);
 847              		.loc 1 157 47 discriminator 1 view .LVU210
 848 0088 241A     		subs	r4, r4, r0
 849              	.LVL76:
 157:lvgl/src/core/lv_obj_scroll.c ****     self_h -= lv_obj_get_scroll_y(obj);
 850              		.loc 1 157 57 discriminator 1 view .LVU211
 851 008a 19FA84F4 		uxtah	r4, r9, r4
 157:lvgl/src/core/lv_obj_scroll.c ****     self_h -= lv_obj_get_scroll_y(obj);
 852              		.loc 1 157 70 discriminator 1 view .LVU212
 853 008e 15FA84F4 		uxtah	r4, r5, r4
 157:lvgl/src/core/lv_obj_scroll.c ****     self_h -= lv_obj_get_scroll_y(obj);
 854              		.loc 1 157 21 discriminator 1 view .LVU213
 855 0092 18FA84F4 		uxtah	r4, r8, r4
 856 0096 A4B2     		uxth	r4, r4
 857              	.LVL77:
 158:lvgl/src/core/lv_obj_scroll.c ****     return LV_MAX(child_res, self_h);
 858              		.loc 1 158 5 is_stmt 1 view .LVU214
 158:lvgl/src/core/lv_obj_scroll.c ****     return LV_MAX(child_res, self_h);
 859              		.loc 1 158 15 is_stmt 0 view .LVU215
 860 0098 3046     		mov	r0, r6
 861 009a FFF7FEFF 		bl	lv_obj_get_scroll_y
 862              	.LVL78:
 158:lvgl/src/core/lv_obj_scroll.c ****     return LV_MAX(child_res, self_h);
 863              		.loc 1 158 15 discriminator 1 view .LVU216
 864 009e 80B2     		uxth	r0, r0
 158:lvgl/src/core/lv_obj_scroll.c ****     return LV_MAX(child_res, self_h);
 865              		.loc 1 158 12 discriminator 1 view .LVU217
 866 00a0 201A     		subs	r0, r4, r0
ARM GAS  C:\usertemp\ccBZVumh.s 			page 35


 867 00a2 00B2     		sxth	r0, r0
 868              	.LVL79:
 159:lvgl/src/core/lv_obj_scroll.c **** }
 869              		.loc 1 159 5 is_stmt 1 view .LVU218
 160:lvgl/src/core/lv_obj_scroll.c **** 
 870              		.loc 1 160 1 is_stmt 0 view .LVU219
 871 00a4 B842     		cmp	r0, r7
 872 00a6 B8BF     		it	lt
 873 00a8 3846     		movlt	r0, r7
 874              	.LVL80:
 160:lvgl/src/core/lv_obj_scroll.c **** 
 875              		.loc 1 160 1 view .LVU220
 876 00aa BDE8F883 		pop	{r3, r4, r5, r6, r7, r8, r9, pc}
 877              	.LVL81:
 878              	.L55:
 160:lvgl/src/core/lv_obj_scroll.c **** 
 879              		.loc 1 160 1 view .LVU221
 880 00ae 00BF     		.align	2
 881              	.L54:
 882 00b0 01E0FFFF 		.word	-8191
 883 00b4 01000400 		.word	262145
 884              		.cfi_endproc
 885              	.LFE173:
 887              		.section	.text.lv_obj_get_scroll_left,"ax",%progbits
 888              		.align	1
 889              		.global	lv_obj_get_scroll_left
 890              		.syntax unified
 891              		.thumb
 892              		.thumb_func
 894              	lv_obj_get_scroll_left:
 895              	.LVL82:
 896              	.LFB174:
 163:lvgl/src/core/lv_obj_scroll.c ****     LV_ASSERT_OBJ(obj, MY_CLASS);
 897              		.loc 1 163 1 is_stmt 1 view -0
 898              		.cfi_startproc
 899              		@ args = 0, pretend = 0, frame = 0
 900              		@ frame_needed = 0, uses_anonymous_args = 0
 163:lvgl/src/core/lv_obj_scroll.c ****     LV_ASSERT_OBJ(obj, MY_CLASS);
 901              		.loc 1 163 1 is_stmt 0 view .LVU223
 902 0000 2DE9F84F 		push	{r3, r4, r5, r6, r7, r8, r9, r10, fp, lr}
 903              	.LCFI9:
 904              		.cfi_def_cfa_offset 40
 905              		.cfi_offset 3, -40
 906              		.cfi_offset 4, -36
 907              		.cfi_offset 5, -32
 908              		.cfi_offset 6, -28
 909              		.cfi_offset 7, -24
 910              		.cfi_offset 8, -20
 911              		.cfi_offset 9, -16
 912              		.cfi_offset 10, -12
 913              		.cfi_offset 11, -8
 914              		.cfi_offset 14, -4
 915 0004 0446     		mov	r4, r0
 164:lvgl/src/core/lv_obj_scroll.c **** 
 916              		.loc 1 164 5 is_stmt 1 view .LVU224
 164:lvgl/src/core/lv_obj_scroll.c **** 
 917              		.loc 1 164 5 view .LVU225
ARM GAS  C:\usertemp\ccBZVumh.s 			page 36


 164:lvgl/src/core/lv_obj_scroll.c **** 
 918              		.loc 1 164 5 view .LVU226
 168:lvgl/src/core/lv_obj_scroll.c ****         if(obj->spec_attr == NULL) return 0;
 919              		.loc 1 168 5 view .LVU227
 920              	.LVL83:
 921              	.LBB108:
 922              	.LBI108:
 245:lvgl/src/core/lv_obj_style_gen.h **** }
 246:lvgl/src/core/lv_obj_style_gen.h **** 
 247:lvgl/src/core/lv_obj_style_gen.h **** static inline lv_border_side_t lv_obj_get_style_border_side(const struct _lv_obj_t * obj, uint32_t 
 248:lvgl/src/core/lv_obj_style_gen.h **** {
 249:lvgl/src/core/lv_obj_style_gen.h ****     lv_style_value_t v = lv_obj_get_style_prop(obj, part, LV_STYLE_BORDER_SIDE);
 250:lvgl/src/core/lv_obj_style_gen.h ****     return (lv_border_side_t)v.num;
 251:lvgl/src/core/lv_obj_style_gen.h **** }
 252:lvgl/src/core/lv_obj_style_gen.h **** 
 253:lvgl/src/core/lv_obj_style_gen.h **** static inline bool lv_obj_get_style_border_post(const struct _lv_obj_t * obj, uint32_t part)
 254:lvgl/src/core/lv_obj_style_gen.h **** {
 255:lvgl/src/core/lv_obj_style_gen.h ****     lv_style_value_t v = lv_obj_get_style_prop(obj, part, LV_STYLE_BORDER_POST);
 256:lvgl/src/core/lv_obj_style_gen.h ****     return (bool)v.num;
 257:lvgl/src/core/lv_obj_style_gen.h **** }
 258:lvgl/src/core/lv_obj_style_gen.h **** 
 259:lvgl/src/core/lv_obj_style_gen.h **** static inline lv_coord_t lv_obj_get_style_outline_width(const struct _lv_obj_t * obj, uint32_t part
 260:lvgl/src/core/lv_obj_style_gen.h **** {
 261:lvgl/src/core/lv_obj_style_gen.h ****     lv_style_value_t v = lv_obj_get_style_prop(obj, part, LV_STYLE_OUTLINE_WIDTH);
 262:lvgl/src/core/lv_obj_style_gen.h ****     return (lv_coord_t)v.num;
 263:lvgl/src/core/lv_obj_style_gen.h **** }
 264:lvgl/src/core/lv_obj_style_gen.h **** 
 265:lvgl/src/core/lv_obj_style_gen.h **** static inline lv_color_t lv_obj_get_style_outline_color(const struct _lv_obj_t * obj, uint32_t part
 266:lvgl/src/core/lv_obj_style_gen.h **** {
 267:lvgl/src/core/lv_obj_style_gen.h ****     lv_style_value_t v = lv_obj_get_style_prop(obj, part, LV_STYLE_OUTLINE_COLOR);
 268:lvgl/src/core/lv_obj_style_gen.h ****     return v.color;
 269:lvgl/src/core/lv_obj_style_gen.h **** }
 270:lvgl/src/core/lv_obj_style_gen.h **** 
 271:lvgl/src/core/lv_obj_style_gen.h **** static inline lv_color_t lv_obj_get_style_outline_color_filtered(const struct _lv_obj_t * obj, uint
 272:lvgl/src/core/lv_obj_style_gen.h **** {
 273:lvgl/src/core/lv_obj_style_gen.h ****     lv_style_value_t v = lv_obj_get_style_prop(obj, part, LV_STYLE_OUTLINE_COLOR_FILTERED);
 274:lvgl/src/core/lv_obj_style_gen.h ****     return v.color;
 275:lvgl/src/core/lv_obj_style_gen.h **** }
 276:lvgl/src/core/lv_obj_style_gen.h **** 
 277:lvgl/src/core/lv_obj_style_gen.h **** static inline lv_opa_t lv_obj_get_style_outline_opa(const struct _lv_obj_t * obj, uint32_t part)
 278:lvgl/src/core/lv_obj_style_gen.h **** {
 279:lvgl/src/core/lv_obj_style_gen.h ****     lv_style_value_t v = lv_obj_get_style_prop(obj, part, LV_STYLE_OUTLINE_OPA);
 280:lvgl/src/core/lv_obj_style_gen.h ****     return (lv_opa_t)v.num;
 281:lvgl/src/core/lv_obj_style_gen.h **** }
 282:lvgl/src/core/lv_obj_style_gen.h **** 
 283:lvgl/src/core/lv_obj_style_gen.h **** static inline lv_coord_t lv_obj_get_style_outline_pad(const struct _lv_obj_t * obj, uint32_t part)
 284:lvgl/src/core/lv_obj_style_gen.h **** {
 285:lvgl/src/core/lv_obj_style_gen.h ****     lv_style_value_t v = lv_obj_get_style_prop(obj, part, LV_STYLE_OUTLINE_PAD);
 286:lvgl/src/core/lv_obj_style_gen.h ****     return (lv_coord_t)v.num;
 287:lvgl/src/core/lv_obj_style_gen.h **** }
 288:lvgl/src/core/lv_obj_style_gen.h **** 
 289:lvgl/src/core/lv_obj_style_gen.h **** static inline lv_coord_t lv_obj_get_style_shadow_width(const struct _lv_obj_t * obj, uint32_t part)
 290:lvgl/src/core/lv_obj_style_gen.h **** {
 291:lvgl/src/core/lv_obj_style_gen.h ****     lv_style_value_t v = lv_obj_get_style_prop(obj, part, LV_STYLE_SHADOW_WIDTH);
 292:lvgl/src/core/lv_obj_style_gen.h ****     return (lv_coord_t)v.num;
 293:lvgl/src/core/lv_obj_style_gen.h **** }
 294:lvgl/src/core/lv_obj_style_gen.h **** 
ARM GAS  C:\usertemp\ccBZVumh.s 			page 37


 295:lvgl/src/core/lv_obj_style_gen.h **** static inline lv_coord_t lv_obj_get_style_shadow_ofs_x(const struct _lv_obj_t * obj, uint32_t part)
 296:lvgl/src/core/lv_obj_style_gen.h **** {
 297:lvgl/src/core/lv_obj_style_gen.h ****     lv_style_value_t v = lv_obj_get_style_prop(obj, part, LV_STYLE_SHADOW_OFS_X);
 298:lvgl/src/core/lv_obj_style_gen.h ****     return (lv_coord_t)v.num;
 299:lvgl/src/core/lv_obj_style_gen.h **** }
 300:lvgl/src/core/lv_obj_style_gen.h **** 
 301:lvgl/src/core/lv_obj_style_gen.h **** static inline lv_coord_t lv_obj_get_style_shadow_ofs_y(const struct _lv_obj_t * obj, uint32_t part)
 302:lvgl/src/core/lv_obj_style_gen.h **** {
 303:lvgl/src/core/lv_obj_style_gen.h ****     lv_style_value_t v = lv_obj_get_style_prop(obj, part, LV_STYLE_SHADOW_OFS_Y);
 304:lvgl/src/core/lv_obj_style_gen.h ****     return (lv_coord_t)v.num;
 305:lvgl/src/core/lv_obj_style_gen.h **** }
 306:lvgl/src/core/lv_obj_style_gen.h **** 
 307:lvgl/src/core/lv_obj_style_gen.h **** static inline lv_coord_t lv_obj_get_style_shadow_spread(const struct _lv_obj_t * obj, uint32_t part
 308:lvgl/src/core/lv_obj_style_gen.h **** {
 309:lvgl/src/core/lv_obj_style_gen.h ****     lv_style_value_t v = lv_obj_get_style_prop(obj, part, LV_STYLE_SHADOW_SPREAD);
 310:lvgl/src/core/lv_obj_style_gen.h ****     return (lv_coord_t)v.num;
 311:lvgl/src/core/lv_obj_style_gen.h **** }
 312:lvgl/src/core/lv_obj_style_gen.h **** 
 313:lvgl/src/core/lv_obj_style_gen.h **** static inline lv_color_t lv_obj_get_style_shadow_color(const struct _lv_obj_t * obj, uint32_t part)
 314:lvgl/src/core/lv_obj_style_gen.h **** {
 315:lvgl/src/core/lv_obj_style_gen.h ****     lv_style_value_t v = lv_obj_get_style_prop(obj, part, LV_STYLE_SHADOW_COLOR);
 316:lvgl/src/core/lv_obj_style_gen.h ****     return v.color;
 317:lvgl/src/core/lv_obj_style_gen.h **** }
 318:lvgl/src/core/lv_obj_style_gen.h **** 
 319:lvgl/src/core/lv_obj_style_gen.h **** static inline lv_color_t lv_obj_get_style_shadow_color_filtered(const struct _lv_obj_t * obj, uint3
 320:lvgl/src/core/lv_obj_style_gen.h **** {
 321:lvgl/src/core/lv_obj_style_gen.h ****     lv_style_value_t v = lv_obj_get_style_prop(obj, part, LV_STYLE_SHADOW_COLOR_FILTERED);
 322:lvgl/src/core/lv_obj_style_gen.h ****     return v.color;
 323:lvgl/src/core/lv_obj_style_gen.h **** }
 324:lvgl/src/core/lv_obj_style_gen.h **** 
 325:lvgl/src/core/lv_obj_style_gen.h **** static inline lv_opa_t lv_obj_get_style_shadow_opa(const struct _lv_obj_t * obj, uint32_t part)
 326:lvgl/src/core/lv_obj_style_gen.h **** {
 327:lvgl/src/core/lv_obj_style_gen.h ****     lv_style_value_t v = lv_obj_get_style_prop(obj, part, LV_STYLE_SHADOW_OPA);
 328:lvgl/src/core/lv_obj_style_gen.h ****     return (lv_opa_t)v.num;
 329:lvgl/src/core/lv_obj_style_gen.h **** }
 330:lvgl/src/core/lv_obj_style_gen.h **** 
 331:lvgl/src/core/lv_obj_style_gen.h **** static inline lv_opa_t lv_obj_get_style_img_opa(const struct _lv_obj_t * obj, uint32_t part)
 332:lvgl/src/core/lv_obj_style_gen.h **** {
 333:lvgl/src/core/lv_obj_style_gen.h ****     lv_style_value_t v = lv_obj_get_style_prop(obj, part, LV_STYLE_IMG_OPA);
 334:lvgl/src/core/lv_obj_style_gen.h ****     return (lv_opa_t)v.num;
 335:lvgl/src/core/lv_obj_style_gen.h **** }
 336:lvgl/src/core/lv_obj_style_gen.h **** 
 337:lvgl/src/core/lv_obj_style_gen.h **** static inline lv_color_t lv_obj_get_style_img_recolor(const struct _lv_obj_t * obj, uint32_t part)
 338:lvgl/src/core/lv_obj_style_gen.h **** {
 339:lvgl/src/core/lv_obj_style_gen.h ****     lv_style_value_t v = lv_obj_get_style_prop(obj, part, LV_STYLE_IMG_RECOLOR);
 340:lvgl/src/core/lv_obj_style_gen.h ****     return v.color;
 341:lvgl/src/core/lv_obj_style_gen.h **** }
 342:lvgl/src/core/lv_obj_style_gen.h **** 
 343:lvgl/src/core/lv_obj_style_gen.h **** static inline lv_color_t lv_obj_get_style_img_recolor_filtered(const struct _lv_obj_t * obj, uint32
 344:lvgl/src/core/lv_obj_style_gen.h **** {
 345:lvgl/src/core/lv_obj_style_gen.h ****     lv_style_value_t v = lv_obj_get_style_prop(obj, part, LV_STYLE_IMG_RECOLOR_FILTERED);
 346:lvgl/src/core/lv_obj_style_gen.h ****     return v.color;
 347:lvgl/src/core/lv_obj_style_gen.h **** }
 348:lvgl/src/core/lv_obj_style_gen.h **** 
 349:lvgl/src/core/lv_obj_style_gen.h **** static inline lv_opa_t lv_obj_get_style_img_recolor_opa(const struct _lv_obj_t * obj, uint32_t part
 350:lvgl/src/core/lv_obj_style_gen.h **** {
 351:lvgl/src/core/lv_obj_style_gen.h ****     lv_style_value_t v = lv_obj_get_style_prop(obj, part, LV_STYLE_IMG_RECOLOR_OPA);
ARM GAS  C:\usertemp\ccBZVumh.s 			page 38


 352:lvgl/src/core/lv_obj_style_gen.h ****     return (lv_opa_t)v.num;
 353:lvgl/src/core/lv_obj_style_gen.h **** }
 354:lvgl/src/core/lv_obj_style_gen.h **** 
 355:lvgl/src/core/lv_obj_style_gen.h **** static inline lv_coord_t lv_obj_get_style_line_width(const struct _lv_obj_t * obj, uint32_t part)
 356:lvgl/src/core/lv_obj_style_gen.h **** {
 357:lvgl/src/core/lv_obj_style_gen.h ****     lv_style_value_t v = lv_obj_get_style_prop(obj, part, LV_STYLE_LINE_WIDTH);
 358:lvgl/src/core/lv_obj_style_gen.h ****     return (lv_coord_t)v.num;
 359:lvgl/src/core/lv_obj_style_gen.h **** }
 360:lvgl/src/core/lv_obj_style_gen.h **** 
 361:lvgl/src/core/lv_obj_style_gen.h **** static inline lv_coord_t lv_obj_get_style_line_dash_width(const struct _lv_obj_t * obj, uint32_t pa
 362:lvgl/src/core/lv_obj_style_gen.h **** {
 363:lvgl/src/core/lv_obj_style_gen.h ****     lv_style_value_t v = lv_obj_get_style_prop(obj, part, LV_STYLE_LINE_DASH_WIDTH);
 364:lvgl/src/core/lv_obj_style_gen.h ****     return (lv_coord_t)v.num;
 365:lvgl/src/core/lv_obj_style_gen.h **** }
 366:lvgl/src/core/lv_obj_style_gen.h **** 
 367:lvgl/src/core/lv_obj_style_gen.h **** static inline lv_coord_t lv_obj_get_style_line_dash_gap(const struct _lv_obj_t * obj, uint32_t part
 368:lvgl/src/core/lv_obj_style_gen.h **** {
 369:lvgl/src/core/lv_obj_style_gen.h ****     lv_style_value_t v = lv_obj_get_style_prop(obj, part, LV_STYLE_LINE_DASH_GAP);
 370:lvgl/src/core/lv_obj_style_gen.h ****     return (lv_coord_t)v.num;
 371:lvgl/src/core/lv_obj_style_gen.h **** }
 372:lvgl/src/core/lv_obj_style_gen.h **** 
 373:lvgl/src/core/lv_obj_style_gen.h **** static inline bool lv_obj_get_style_line_rounded(const struct _lv_obj_t * obj, uint32_t part)
 374:lvgl/src/core/lv_obj_style_gen.h **** {
 375:lvgl/src/core/lv_obj_style_gen.h ****     lv_style_value_t v = lv_obj_get_style_prop(obj, part, LV_STYLE_LINE_ROUNDED);
 376:lvgl/src/core/lv_obj_style_gen.h ****     return (bool)v.num;
 377:lvgl/src/core/lv_obj_style_gen.h **** }
 378:lvgl/src/core/lv_obj_style_gen.h **** 
 379:lvgl/src/core/lv_obj_style_gen.h **** static inline lv_color_t lv_obj_get_style_line_color(const struct _lv_obj_t * obj, uint32_t part)
 380:lvgl/src/core/lv_obj_style_gen.h **** {
 381:lvgl/src/core/lv_obj_style_gen.h ****     lv_style_value_t v = lv_obj_get_style_prop(obj, part, LV_STYLE_LINE_COLOR);
 382:lvgl/src/core/lv_obj_style_gen.h ****     return v.color;
 383:lvgl/src/core/lv_obj_style_gen.h **** }
 384:lvgl/src/core/lv_obj_style_gen.h **** 
 385:lvgl/src/core/lv_obj_style_gen.h **** static inline lv_color_t lv_obj_get_style_line_color_filtered(const struct _lv_obj_t * obj, uint32_
 386:lvgl/src/core/lv_obj_style_gen.h **** {
 387:lvgl/src/core/lv_obj_style_gen.h ****     lv_style_value_t v = lv_obj_get_style_prop(obj, part, LV_STYLE_LINE_COLOR_FILTERED);
 388:lvgl/src/core/lv_obj_style_gen.h ****     return v.color;
 389:lvgl/src/core/lv_obj_style_gen.h **** }
 390:lvgl/src/core/lv_obj_style_gen.h **** 
 391:lvgl/src/core/lv_obj_style_gen.h **** static inline lv_opa_t lv_obj_get_style_line_opa(const struct _lv_obj_t * obj, uint32_t part)
 392:lvgl/src/core/lv_obj_style_gen.h **** {
 393:lvgl/src/core/lv_obj_style_gen.h ****     lv_style_value_t v = lv_obj_get_style_prop(obj, part, LV_STYLE_LINE_OPA);
 394:lvgl/src/core/lv_obj_style_gen.h ****     return (lv_opa_t)v.num;
 395:lvgl/src/core/lv_obj_style_gen.h **** }
 396:lvgl/src/core/lv_obj_style_gen.h **** 
 397:lvgl/src/core/lv_obj_style_gen.h **** static inline lv_coord_t lv_obj_get_style_arc_width(const struct _lv_obj_t * obj, uint32_t part)
 398:lvgl/src/core/lv_obj_style_gen.h **** {
 399:lvgl/src/core/lv_obj_style_gen.h ****     lv_style_value_t v = lv_obj_get_style_prop(obj, part, LV_STYLE_ARC_WIDTH);
 400:lvgl/src/core/lv_obj_style_gen.h ****     return (lv_coord_t)v.num;
 401:lvgl/src/core/lv_obj_style_gen.h **** }
 402:lvgl/src/core/lv_obj_style_gen.h **** 
 403:lvgl/src/core/lv_obj_style_gen.h **** static inline bool lv_obj_get_style_arc_rounded(const struct _lv_obj_t * obj, uint32_t part)
 404:lvgl/src/core/lv_obj_style_gen.h **** {
 405:lvgl/src/core/lv_obj_style_gen.h ****     lv_style_value_t v = lv_obj_get_style_prop(obj, part, LV_STYLE_ARC_ROUNDED);
 406:lvgl/src/core/lv_obj_style_gen.h ****     return (bool)v.num;
 407:lvgl/src/core/lv_obj_style_gen.h **** }
 408:lvgl/src/core/lv_obj_style_gen.h **** 
ARM GAS  C:\usertemp\ccBZVumh.s 			page 39


 409:lvgl/src/core/lv_obj_style_gen.h **** static inline lv_color_t lv_obj_get_style_arc_color(const struct _lv_obj_t * obj, uint32_t part)
 410:lvgl/src/core/lv_obj_style_gen.h **** {
 411:lvgl/src/core/lv_obj_style_gen.h ****     lv_style_value_t v = lv_obj_get_style_prop(obj, part, LV_STYLE_ARC_COLOR);
 412:lvgl/src/core/lv_obj_style_gen.h ****     return v.color;
 413:lvgl/src/core/lv_obj_style_gen.h **** }
 414:lvgl/src/core/lv_obj_style_gen.h **** 
 415:lvgl/src/core/lv_obj_style_gen.h **** static inline lv_color_t lv_obj_get_style_arc_color_filtered(const struct _lv_obj_t * obj, uint32_t
 416:lvgl/src/core/lv_obj_style_gen.h **** {
 417:lvgl/src/core/lv_obj_style_gen.h ****     lv_style_value_t v = lv_obj_get_style_prop(obj, part, LV_STYLE_ARC_COLOR_FILTERED);
 418:lvgl/src/core/lv_obj_style_gen.h ****     return v.color;
 419:lvgl/src/core/lv_obj_style_gen.h **** }
 420:lvgl/src/core/lv_obj_style_gen.h **** 
 421:lvgl/src/core/lv_obj_style_gen.h **** static inline lv_opa_t lv_obj_get_style_arc_opa(const struct _lv_obj_t * obj, uint32_t part)
 422:lvgl/src/core/lv_obj_style_gen.h **** {
 423:lvgl/src/core/lv_obj_style_gen.h ****     lv_style_value_t v = lv_obj_get_style_prop(obj, part, LV_STYLE_ARC_OPA);
 424:lvgl/src/core/lv_obj_style_gen.h ****     return (lv_opa_t)v.num;
 425:lvgl/src/core/lv_obj_style_gen.h **** }
 426:lvgl/src/core/lv_obj_style_gen.h **** 
 427:lvgl/src/core/lv_obj_style_gen.h **** static inline const void * lv_obj_get_style_arc_img_src(const struct _lv_obj_t * obj, uint32_t part
 428:lvgl/src/core/lv_obj_style_gen.h **** {
 429:lvgl/src/core/lv_obj_style_gen.h ****     lv_style_value_t v = lv_obj_get_style_prop(obj, part, LV_STYLE_ARC_IMG_SRC);
 430:lvgl/src/core/lv_obj_style_gen.h ****     return (const void *)v.ptr;
 431:lvgl/src/core/lv_obj_style_gen.h **** }
 432:lvgl/src/core/lv_obj_style_gen.h **** 
 433:lvgl/src/core/lv_obj_style_gen.h **** static inline lv_color_t lv_obj_get_style_text_color(const struct _lv_obj_t * obj, uint32_t part)
 434:lvgl/src/core/lv_obj_style_gen.h **** {
 435:lvgl/src/core/lv_obj_style_gen.h ****     lv_style_value_t v = lv_obj_get_style_prop(obj, part, LV_STYLE_TEXT_COLOR);
 436:lvgl/src/core/lv_obj_style_gen.h ****     return v.color;
 437:lvgl/src/core/lv_obj_style_gen.h **** }
 438:lvgl/src/core/lv_obj_style_gen.h **** 
 439:lvgl/src/core/lv_obj_style_gen.h **** static inline lv_color_t lv_obj_get_style_text_color_filtered(const struct _lv_obj_t * obj, uint32_
 440:lvgl/src/core/lv_obj_style_gen.h **** {
 441:lvgl/src/core/lv_obj_style_gen.h ****     lv_style_value_t v = lv_obj_get_style_prop(obj, part, LV_STYLE_TEXT_COLOR_FILTERED);
 442:lvgl/src/core/lv_obj_style_gen.h ****     return v.color;
 443:lvgl/src/core/lv_obj_style_gen.h **** }
 444:lvgl/src/core/lv_obj_style_gen.h **** 
 445:lvgl/src/core/lv_obj_style_gen.h **** static inline lv_opa_t lv_obj_get_style_text_opa(const struct _lv_obj_t * obj, uint32_t part)
 446:lvgl/src/core/lv_obj_style_gen.h **** {
 447:lvgl/src/core/lv_obj_style_gen.h ****     lv_style_value_t v = lv_obj_get_style_prop(obj, part, LV_STYLE_TEXT_OPA);
 448:lvgl/src/core/lv_obj_style_gen.h ****     return (lv_opa_t)v.num;
 449:lvgl/src/core/lv_obj_style_gen.h **** }
 450:lvgl/src/core/lv_obj_style_gen.h **** 
 451:lvgl/src/core/lv_obj_style_gen.h **** static inline const lv_font_t * lv_obj_get_style_text_font(const struct _lv_obj_t * obj, uint32_t p
 452:lvgl/src/core/lv_obj_style_gen.h **** {
 453:lvgl/src/core/lv_obj_style_gen.h ****     lv_style_value_t v = lv_obj_get_style_prop(obj, part, LV_STYLE_TEXT_FONT);
 454:lvgl/src/core/lv_obj_style_gen.h ****     return (const lv_font_t *)v.ptr;
 455:lvgl/src/core/lv_obj_style_gen.h **** }
 456:lvgl/src/core/lv_obj_style_gen.h **** 
 457:lvgl/src/core/lv_obj_style_gen.h **** static inline lv_coord_t lv_obj_get_style_text_letter_space(const struct _lv_obj_t * obj, uint32_t 
 458:lvgl/src/core/lv_obj_style_gen.h **** {
 459:lvgl/src/core/lv_obj_style_gen.h ****     lv_style_value_t v = lv_obj_get_style_prop(obj, part, LV_STYLE_TEXT_LETTER_SPACE);
 460:lvgl/src/core/lv_obj_style_gen.h ****     return (lv_coord_t)v.num;
 461:lvgl/src/core/lv_obj_style_gen.h **** }
 462:lvgl/src/core/lv_obj_style_gen.h **** 
 463:lvgl/src/core/lv_obj_style_gen.h **** static inline lv_coord_t lv_obj_get_style_text_line_space(const struct _lv_obj_t * obj, uint32_t pa
 464:lvgl/src/core/lv_obj_style_gen.h **** {
 465:lvgl/src/core/lv_obj_style_gen.h ****     lv_style_value_t v = lv_obj_get_style_prop(obj, part, LV_STYLE_TEXT_LINE_SPACE);
ARM GAS  C:\usertemp\ccBZVumh.s 			page 40


 466:lvgl/src/core/lv_obj_style_gen.h ****     return (lv_coord_t)v.num;
 467:lvgl/src/core/lv_obj_style_gen.h **** }
 468:lvgl/src/core/lv_obj_style_gen.h **** 
 469:lvgl/src/core/lv_obj_style_gen.h **** static inline lv_text_decor_t lv_obj_get_style_text_decor(const struct _lv_obj_t * obj, uint32_t pa
 470:lvgl/src/core/lv_obj_style_gen.h **** {
 471:lvgl/src/core/lv_obj_style_gen.h ****     lv_style_value_t v = lv_obj_get_style_prop(obj, part, LV_STYLE_TEXT_DECOR);
 472:lvgl/src/core/lv_obj_style_gen.h ****     return (lv_text_decor_t)v.num;
 473:lvgl/src/core/lv_obj_style_gen.h **** }
 474:lvgl/src/core/lv_obj_style_gen.h **** 
 475:lvgl/src/core/lv_obj_style_gen.h **** static inline lv_text_align_t lv_obj_get_style_text_align(const struct _lv_obj_t * obj, uint32_t pa
 476:lvgl/src/core/lv_obj_style_gen.h **** {
 477:lvgl/src/core/lv_obj_style_gen.h ****     lv_style_value_t v = lv_obj_get_style_prop(obj, part, LV_STYLE_TEXT_ALIGN);
 478:lvgl/src/core/lv_obj_style_gen.h ****     return (lv_text_align_t)v.num;
 479:lvgl/src/core/lv_obj_style_gen.h **** }
 480:lvgl/src/core/lv_obj_style_gen.h **** 
 481:lvgl/src/core/lv_obj_style_gen.h **** static inline lv_coord_t lv_obj_get_style_radius(const struct _lv_obj_t * obj, uint32_t part)
 482:lvgl/src/core/lv_obj_style_gen.h **** {
 483:lvgl/src/core/lv_obj_style_gen.h ****     lv_style_value_t v = lv_obj_get_style_prop(obj, part, LV_STYLE_RADIUS);
 484:lvgl/src/core/lv_obj_style_gen.h ****     return (lv_coord_t)v.num;
 485:lvgl/src/core/lv_obj_style_gen.h **** }
 486:lvgl/src/core/lv_obj_style_gen.h **** 
 487:lvgl/src/core/lv_obj_style_gen.h **** static inline bool lv_obj_get_style_clip_corner(const struct _lv_obj_t * obj, uint32_t part)
 488:lvgl/src/core/lv_obj_style_gen.h **** {
 489:lvgl/src/core/lv_obj_style_gen.h ****     lv_style_value_t v = lv_obj_get_style_prop(obj, part, LV_STYLE_CLIP_CORNER);
 490:lvgl/src/core/lv_obj_style_gen.h ****     return (bool)v.num;
 491:lvgl/src/core/lv_obj_style_gen.h **** }
 492:lvgl/src/core/lv_obj_style_gen.h **** 
 493:lvgl/src/core/lv_obj_style_gen.h **** static inline lv_opa_t lv_obj_get_style_opa(const struct _lv_obj_t * obj, uint32_t part)
 494:lvgl/src/core/lv_obj_style_gen.h **** {
 495:lvgl/src/core/lv_obj_style_gen.h ****     lv_style_value_t v = lv_obj_get_style_prop(obj, part, LV_STYLE_OPA);
 496:lvgl/src/core/lv_obj_style_gen.h ****     return (lv_opa_t)v.num;
 497:lvgl/src/core/lv_obj_style_gen.h **** }
 498:lvgl/src/core/lv_obj_style_gen.h **** 
 499:lvgl/src/core/lv_obj_style_gen.h **** static inline const lv_color_filter_dsc_t * lv_obj_get_style_color_filter_dsc(const struct _lv_obj_
 500:lvgl/src/core/lv_obj_style_gen.h ****                                                                               uint32_t part)
 501:lvgl/src/core/lv_obj_style_gen.h **** {
 502:lvgl/src/core/lv_obj_style_gen.h ****     lv_style_value_t v = lv_obj_get_style_prop(obj, part, LV_STYLE_COLOR_FILTER_DSC);
 503:lvgl/src/core/lv_obj_style_gen.h ****     return (const lv_color_filter_dsc_t *)v.ptr;
 504:lvgl/src/core/lv_obj_style_gen.h **** }
 505:lvgl/src/core/lv_obj_style_gen.h **** 
 506:lvgl/src/core/lv_obj_style_gen.h **** static inline lv_opa_t lv_obj_get_style_color_filter_opa(const struct _lv_obj_t * obj, uint32_t par
 507:lvgl/src/core/lv_obj_style_gen.h **** {
 508:lvgl/src/core/lv_obj_style_gen.h ****     lv_style_value_t v = lv_obj_get_style_prop(obj, part, LV_STYLE_COLOR_FILTER_OPA);
 509:lvgl/src/core/lv_obj_style_gen.h ****     return (lv_opa_t)v.num;
 510:lvgl/src/core/lv_obj_style_gen.h **** }
 511:lvgl/src/core/lv_obj_style_gen.h **** 
 512:lvgl/src/core/lv_obj_style_gen.h **** static inline uint32_t lv_obj_get_style_anim_time(const struct _lv_obj_t * obj, uint32_t part)
 513:lvgl/src/core/lv_obj_style_gen.h **** {
 514:lvgl/src/core/lv_obj_style_gen.h ****     lv_style_value_t v = lv_obj_get_style_prop(obj, part, LV_STYLE_ANIM_TIME);
 515:lvgl/src/core/lv_obj_style_gen.h ****     return (uint32_t)v.num;
 516:lvgl/src/core/lv_obj_style_gen.h **** }
 517:lvgl/src/core/lv_obj_style_gen.h **** 
 518:lvgl/src/core/lv_obj_style_gen.h **** static inline uint32_t lv_obj_get_style_anim_speed(const struct _lv_obj_t * obj, uint32_t part)
 519:lvgl/src/core/lv_obj_style_gen.h **** {
 520:lvgl/src/core/lv_obj_style_gen.h ****     lv_style_value_t v = lv_obj_get_style_prop(obj, part, LV_STYLE_ANIM_SPEED);
 521:lvgl/src/core/lv_obj_style_gen.h ****     return (uint32_t)v.num;
 522:lvgl/src/core/lv_obj_style_gen.h **** }
ARM GAS  C:\usertemp\ccBZVumh.s 			page 41


 523:lvgl/src/core/lv_obj_style_gen.h **** 
 524:lvgl/src/core/lv_obj_style_gen.h **** static inline const lv_style_transition_dsc_t * lv_obj_get_style_transition(const struct _lv_obj_t 
 525:lvgl/src/core/lv_obj_style_gen.h **** {
 526:lvgl/src/core/lv_obj_style_gen.h ****     lv_style_value_t v = lv_obj_get_style_prop(obj, part, LV_STYLE_TRANSITION);
 527:lvgl/src/core/lv_obj_style_gen.h ****     return (const lv_style_transition_dsc_t *)v.ptr;
 528:lvgl/src/core/lv_obj_style_gen.h **** }
 529:lvgl/src/core/lv_obj_style_gen.h **** 
 530:lvgl/src/core/lv_obj_style_gen.h **** static inline lv_blend_mode_t lv_obj_get_style_blend_mode(const struct _lv_obj_t * obj, uint32_t pa
 531:lvgl/src/core/lv_obj_style_gen.h **** {
 532:lvgl/src/core/lv_obj_style_gen.h ****     lv_style_value_t v = lv_obj_get_style_prop(obj, part, LV_STYLE_BLEND_MODE);
 533:lvgl/src/core/lv_obj_style_gen.h ****     return (lv_blend_mode_t)v.num;
 534:lvgl/src/core/lv_obj_style_gen.h **** }
 535:lvgl/src/core/lv_obj_style_gen.h **** 
 536:lvgl/src/core/lv_obj_style_gen.h **** static inline uint16_t lv_obj_get_style_layout(const struct _lv_obj_t * obj, uint32_t part)
 537:lvgl/src/core/lv_obj_style_gen.h **** {
 538:lvgl/src/core/lv_obj_style_gen.h ****     lv_style_value_t v = lv_obj_get_style_prop(obj, part, LV_STYLE_LAYOUT);
 539:lvgl/src/core/lv_obj_style_gen.h ****     return (uint16_t)v.num;
 540:lvgl/src/core/lv_obj_style_gen.h **** }
 541:lvgl/src/core/lv_obj_style_gen.h **** 
 542:lvgl/src/core/lv_obj_style_gen.h **** static inline lv_base_dir_t lv_obj_get_style_base_dir(const struct _lv_obj_t * obj, uint32_t part)
 923              		.loc 2 542 29 view .LVU228
 924              	.LBB109:
 543:lvgl/src/core/lv_obj_style_gen.h **** {
 544:lvgl/src/core/lv_obj_style_gen.h ****     lv_style_value_t v = lv_obj_get_style_prop(obj, part, LV_STYLE_BASE_DIR);
 925              		.loc 2 544 5 view .LVU229
 926              		.loc 2 544 26 is_stmt 0 view .LVU230
 927 0006 41F26A42 		movw	r2, #5226
 928 000a 0021     		movs	r1, #0
 929 000c FFF7FEFF 		bl	lv_obj_get_style_prop
 930              	.LVL84:
 545:lvgl/src/core/lv_obj_style_gen.h ****     return (lv_base_dir_t)v.num;
 931              		.loc 2 545 5 is_stmt 1 view .LVU231
 932              		.loc 2 545 12 is_stmt 0 view .LVU232
 933 0010 C0B2     		uxtb	r0, r0
 934              	.LVL85:
 935              		.loc 2 545 12 view .LVU233
 936              	.LBE109:
 937              	.LBE108:
 168:lvgl/src/core/lv_obj_scroll.c ****         if(obj->spec_attr == NULL) return 0;
 938              		.loc 1 168 7 discriminator 1 view .LVU234
 939 0012 0128     		cmp	r0, #1
 940 0014 07D0     		beq	.L57
 169:lvgl/src/core/lv_obj_scroll.c ****         return -obj->spec_attr->scroll.x;
 941              		.loc 1 169 9 is_stmt 1 view .LVU235
 169:lvgl/src/core/lv_obj_scroll.c ****         return -obj->spec_attr->scroll.x;
 942              		.loc 1 169 15 is_stmt 0 view .LVU236
 943 0016 A368     		ldr	r3, [r4, #8]
 169:lvgl/src/core/lv_obj_scroll.c ****         return -obj->spec_attr->scroll.x;
 944              		.loc 1 169 11 view .LVU237
 945 0018 002B     		cmp	r3, #0
 946 001a 60D0     		beq	.L63
 170:lvgl/src/core/lv_obj_scroll.c ****     }
 947              		.loc 1 170 9 is_stmt 1 view .LVU238
 170:lvgl/src/core/lv_obj_scroll.c ****     }
 948              		.loc 1 170 39 is_stmt 0 view .LVU239
 949 001c 188A     		ldrh	r0, [r3, #16]
 170:lvgl/src/core/lv_obj_scroll.c ****     }
ARM GAS  C:\usertemp\ccBZVumh.s 			page 42


 950              		.loc 1 170 16 view .LVU240
 951 001e 4042     		rsbs	r0, r0, #0
 952 0020 00B2     		sxth	r0, r0
 953              	.L58:
 203:lvgl/src/core/lv_obj_scroll.c **** 
 954              		.loc 1 203 1 view .LVU241
 955 0022 BDE8F88F 		pop	{r3, r4, r5, r6, r7, r8, r9, r10, fp, pc}
 956              	.LVL86:
 957              	.L57:
 174:lvgl/src/core/lv_obj_scroll.c ****     lv_coord_t pad_left = lv_obj_get_style_pad_left(obj, LV_PART_MAIN);
 958              		.loc 1 174 5 is_stmt 1 view .LVU242
 959              	.LBB110:
 960              	.LBI110:
 109:lvgl/src/core/lv_obj_style_gen.h **** {
 961              		.loc 2 109 26 view .LVU243
 962              	.LBB111:
 111:lvgl/src/core/lv_obj_style_gen.h ****     return (lv_coord_t)v.num;
 963              		.loc 2 111 5 view .LVU244
 111:lvgl/src/core/lv_obj_style_gen.h ****     return (lv_coord_t)v.num;
 964              		.loc 2 111 26 is_stmt 0 view .LVU245
 965 0026 41F61302 		movw	r2, #6163
 966 002a 0021     		movs	r1, #0
 967 002c 2046     		mov	r0, r4
 968 002e FFF7FEFF 		bl	lv_obj_get_style_prop
 969              	.LVL87:
 970 0032 0746     		mov	r7, r0
 112:lvgl/src/core/lv_obj_style_gen.h **** }
 971              		.loc 2 112 5 is_stmt 1 view .LVU246
 972              	.LVL88:
 112:lvgl/src/core/lv_obj_style_gen.h **** }
 973              		.loc 2 112 5 is_stmt 0 view .LVU247
 974              	.LBE111:
 975              	.LBE110:
 175:lvgl/src/core/lv_obj_scroll.c ****     lv_coord_t border_width = lv_obj_get_style_border_width(obj, LV_PART_MAIN);
 976              		.loc 1 175 5 is_stmt 1 view .LVU248
 977              	.LBB112:
 978              	.LBI112:
 103:lvgl/src/core/lv_obj_style_gen.h **** {
 979              		.loc 2 103 26 view .LVU249
 980              	.LBB113:
 105:lvgl/src/core/lv_obj_style_gen.h ****     return (lv_coord_t)v.num;
 981              		.loc 2 105 5 view .LVU250
 105:lvgl/src/core/lv_obj_style_gen.h ****     return (lv_coord_t)v.num;
 982              		.loc 2 105 26 is_stmt 0 view .LVU251
 983 0034 41F61202 		movw	r2, #6162
 984 0038 0021     		movs	r1, #0
 985 003a 2046     		mov	r0, r4
 986 003c FFF7FEFF 		bl	lv_obj_get_style_prop
 987              	.LVL89:
 988 0040 8346     		mov	fp, r0
 106:lvgl/src/core/lv_obj_style_gen.h **** }
 989              		.loc 2 106 5 is_stmt 1 view .LVU252
 990              	.LVL90:
 106:lvgl/src/core/lv_obj_style_gen.h **** }
 991              		.loc 2 106 5 is_stmt 0 view .LVU253
 992              	.LBE113:
 993              	.LBE112:
ARM GAS  C:\usertemp\ccBZVumh.s 			page 43


 176:lvgl/src/core/lv_obj_scroll.c **** 
 994              		.loc 1 176 5 is_stmt 1 view .LVU254
 995              	.LBB114:
 996              	.LBI114:
 241:lvgl/src/core/lv_obj_style_gen.h **** {
 997              		.loc 2 241 26 view .LVU255
 998              	.LBB115:
 243:lvgl/src/core/lv_obj_style_gen.h ****     return (lv_coord_t)v.num;
 999              		.loc 2 243 5 view .LVU256
 243:lvgl/src/core/lv_obj_style_gen.h ****     return (lv_coord_t)v.num;
 1000              		.loc 2 243 26 is_stmt 0 view .LVU257
 1001 0042 41F23202 		movw	r2, #4146
 1002 0046 0021     		movs	r1, #0
 1003 0048 2046     		mov	r0, r4
 1004 004a FFF7FEFF 		bl	lv_obj_get_style_prop
 1005              	.LVL91:
 1006 004e 8246     		mov	r10, r0
 244:lvgl/src/core/lv_obj_style_gen.h **** }
 1007              		.loc 2 244 5 is_stmt 1 view .LVU258
 1008              	.LVL92:
 244:lvgl/src/core/lv_obj_style_gen.h **** }
 1009              		.loc 2 244 5 is_stmt 0 view .LVU259
 1010              	.LBE115:
 1011              	.LBE114:
 178:lvgl/src/core/lv_obj_scroll.c **** 
 1012              		.loc 1 178 5 is_stmt 1 view .LVU260
 180:lvgl/src/core/lv_obj_scroll.c ****     lv_coord_t x1 = LV_COORD_MAX;
 1013              		.loc 1 180 5 view .LVU261
 181:lvgl/src/core/lv_obj_scroll.c ****     uint32_t child_cnt = lv_obj_get_child_cnt(obj);
 1014              		.loc 1 181 5 view .LVU262
 182:lvgl/src/core/lv_obj_scroll.c ****     for(i = 0; i < child_cnt; i++) {
 1015              		.loc 1 182 5 view .LVU263
 182:lvgl/src/core/lv_obj_scroll.c ****     for(i = 0; i < child_cnt; i++) {
 1016              		.loc 1 182 26 is_stmt 0 view .LVU264
 1017 0050 2046     		mov	r0, r4
 1018 0052 FFF7FEFF 		bl	lv_obj_get_child_cnt
 1019              	.LVL93:
 1020 0056 8146     		mov	r9, r0
 1021              	.LVL94:
 183:lvgl/src/core/lv_obj_scroll.c ****         lv_obj_t * child = obj->spec_attr->children[i];
 1022              		.loc 1 183 5 is_stmt 1 view .LVU265
 181:lvgl/src/core/lv_obj_scroll.c ****     uint32_t child_cnt = lv_obj_get_child_cnt(obj);
 1023              		.loc 1 181 16 is_stmt 0 view .LVU266
 1024 0058 41F6FF78 		movw	r8, #8191
 183:lvgl/src/core/lv_obj_scroll.c ****         lv_obj_t * child = obj->spec_attr->children[i];
 1025              		.loc 1 183 11 view .LVU267
 1026 005c 0025     		movs	r5, #0
 183:lvgl/src/core/lv_obj_scroll.c ****         lv_obj_t * child = obj->spec_attr->children[i];
 1027              		.loc 1 183 5 view .LVU268
 1028 005e 05E0     		b	.L59
 1029              	.LVL95:
 1030              	.L67:
 1031              	.LBB116:
 186:lvgl/src/core/lv_obj_scroll.c **** 
 1032              		.loc 1 186 9 is_stmt 1 view .LVU269
 186:lvgl/src/core/lv_obj_scroll.c **** 
 1033              		.loc 1 186 14 is_stmt 0 view .LVU270
ARM GAS  C:\usertemp\ccBZVumh.s 			page 44


 1034 0060 B6F91430 		ldrsh	r3, [r6, #20]
 186:lvgl/src/core/lv_obj_scroll.c **** 
 1035              		.loc 1 186 12 view .LVU271
 1036 0064 9845     		cmp	r8, r3
 1037 0066 A8BF     		it	ge
 1038 0068 9846     		movge	r8, r3
 1039              	.LVL96:
 1040              	.L60:
 186:lvgl/src/core/lv_obj_scroll.c **** 
 1041              		.loc 1 186 12 view .LVU272
 1042              	.LBE116:
 183:lvgl/src/core/lv_obj_scroll.c ****         lv_obj_t * child = obj->spec_attr->children[i];
 1043              		.loc 1 183 32 is_stmt 1 discriminator 2 view .LVU273
 1044 006a 0135     		adds	r5, r5, #1
 1045              	.LVL97:
 1046              	.L59:
 183:lvgl/src/core/lv_obj_scroll.c ****         lv_obj_t * child = obj->spec_attr->children[i];
 1047              		.loc 1 183 18 discriminator 1 view .LVU274
 1048 006c 4D45     		cmp	r5, r9
 1049 006e 0AD2     		bcs	.L66
 1050              	.LBB117:
 184:lvgl/src/core/lv_obj_scroll.c ****         if(lv_obj_has_flag_any(child,  LV_OBJ_FLAG_HIDDEN | LV_OBJ_FLAG_FLOATING)) continue;
 1051              		.loc 1 184 9 view .LVU275
 184:lvgl/src/core/lv_obj_scroll.c ****         if(lv_obj_has_flag_any(child,  LV_OBJ_FLAG_HIDDEN | LV_OBJ_FLAG_FLOATING)) continue;
 1052              		.loc 1 184 31 is_stmt 0 view .LVU276
 1053 0070 A368     		ldr	r3, [r4, #8]
 184:lvgl/src/core/lv_obj_scroll.c ****         if(lv_obj_has_flag_any(child,  LV_OBJ_FLAG_HIDDEN | LV_OBJ_FLAG_FLOATING)) continue;
 1054              		.loc 1 184 42 view .LVU277
 1055 0072 1B68     		ldr	r3, [r3]
 184:lvgl/src/core/lv_obj_scroll.c ****         if(lv_obj_has_flag_any(child,  LV_OBJ_FLAG_HIDDEN | LV_OBJ_FLAG_FLOATING)) continue;
 1056              		.loc 1 184 20 view .LVU278
 1057 0074 53F82560 		ldr	r6, [r3, r5, lsl #2]
 1058              	.LVL98:
 185:lvgl/src/core/lv_obj_scroll.c ****         x1 = LV_MIN(x1, child->coords.x1);
 1059              		.loc 1 185 9 is_stmt 1 view .LVU279
 185:lvgl/src/core/lv_obj_scroll.c ****         x1 = LV_MIN(x1, child->coords.x1);
 1060              		.loc 1 185 12 is_stmt 0 view .LVU280
 1061 0078 1A49     		ldr	r1, .L68
 1062 007a 3046     		mov	r0, r6
 1063 007c FFF7FEFF 		bl	lv_obj_has_flag_any
 1064              	.LVL99:
 185:lvgl/src/core/lv_obj_scroll.c ****         x1 = LV_MIN(x1, child->coords.x1);
 1065              		.loc 1 185 11 discriminator 1 view .LVU281
 1066 0080 0028     		cmp	r0, #0
 1067 0082 EDD0     		beq	.L67
 1068 0084 F1E7     		b	.L60
 1069              	.LVL100:
 1070              	.L66:
 185:lvgl/src/core/lv_obj_scroll.c ****         x1 = LV_MIN(x1, child->coords.x1);
 1071              		.loc 1 185 11 discriminator 1 view .LVU282
 1072              	.LBE117:
 190:lvgl/src/core/lv_obj_scroll.c ****         child_res = x1;
 1073              		.loc 1 190 5 is_stmt 1 view .LVU283
 190:lvgl/src/core/lv_obj_scroll.c ****         child_res = x1;
 1074              		.loc 1 190 7 is_stmt 0 view .LVU284
 1075 0086 41F6FF73 		movw	r3, #8191
 1076 008a 9845     		cmp	r8, r3
ARM GAS  C:\usertemp\ccBZVumh.s 			page 45


 1077 008c 25D0     		beq	.L64
 191:lvgl/src/core/lv_obj_scroll.c ****         child_res = (obj->coords.x1 + pad_left + border_width) - child_res;
 1078              		.loc 1 191 9 is_stmt 1 view .LVU285
 1079              	.LVL101:
 192:lvgl/src/core/lv_obj_scroll.c ****     }
 1080              		.loc 1 192 9 view .LVU286
 192:lvgl/src/core/lv_obj_scroll.c ****     }
 1081              		.loc 1 192 33 is_stmt 0 view .LVU287
 1082 008e A58A     		ldrh	r5, [r4, #20]
 1083              	.LVL102:
 192:lvgl/src/core/lv_obj_scroll.c ****     }
 1084              		.loc 1 192 37 view .LVU288
 1085 0090 5D44     		add	r5, r5, fp
 192:lvgl/src/core/lv_obj_scroll.c ****     }
 1086              		.loc 1 192 48 view .LVU289
 1087 0092 1AFA85F5 		uxtah	r5, r10, r5
 1088 0096 ADB2     		uxth	r5, r5
 192:lvgl/src/core/lv_obj_scroll.c ****     }
 1089              		.loc 1 192 64 view .LVU290
 1090 0098 A5EB0805 		sub	r5, r5, r8
 192:lvgl/src/core/lv_obj_scroll.c ****     }
 1091              		.loc 1 192 19 view .LVU291
 1092 009c 2DB2     		sxth	r5, r5
 1093              	.LVL103:
 1094              	.L62:
 198:lvgl/src/core/lv_obj_scroll.c ****     self_w = self_w - (lv_obj_get_width(obj) - pad_right - pad_left - 2 * border_width);
 1095              		.loc 1 198 5 is_stmt 1 view .LVU292
 198:lvgl/src/core/lv_obj_scroll.c ****     self_w = self_w - (lv_obj_get_width(obj) - pad_right - pad_left - 2 * border_width);
 1096              		.loc 1 198 25 is_stmt 0 view .LVU293
 1097 009e 2046     		mov	r0, r4
 1098 00a0 FFF7FEFF 		bl	lv_obj_get_self_width
 1099              	.LVL104:
 1100 00a4 8046     		mov	r8, r0
 1101              	.LVL105:
 199:lvgl/src/core/lv_obj_scroll.c ****     self_w += lv_obj_get_scroll_x(obj);
 1102              		.loc 1 199 5 is_stmt 1 view .LVU294
 199:lvgl/src/core/lv_obj_scroll.c ****     self_w += lv_obj_get_scroll_x(obj);
 1103              		.loc 1 199 73 is_stmt 0 view .LVU295
 1104 00a6 4FEA4A0A 		lsl	r10, r10, #1
 1105              	.LVL106:
 199:lvgl/src/core/lv_obj_scroll.c ****     self_w += lv_obj_get_scroll_x(obj);
 1106              		.loc 1 199 73 view .LVU296
 1107 00aa 1FFA8AFA 		uxth	r10, r10
 199:lvgl/src/core/lv_obj_scroll.c ****     self_w += lv_obj_get_scroll_x(obj);
 1108              		.loc 1 199 24 view .LVU297
 1109 00ae 2046     		mov	r0, r4
 1110 00b0 FFF7FEFF 		bl	lv_obj_get_width
 1111              	.LVL107:
 199:lvgl/src/core/lv_obj_scroll.c ****     self_w += lv_obj_get_scroll_x(obj);
 1112              		.loc 1 199 24 discriminator 1 view .LVU298
 1113 00b4 80B2     		uxth	r0, r0
 199:lvgl/src/core/lv_obj_scroll.c ****     self_w += lv_obj_get_scroll_x(obj);
 1114              		.loc 1 199 46 discriminator 1 view .LVU299
 1115 00b6 3E1A     		subs	r6, r7, r0
 199:lvgl/src/core/lv_obj_scroll.c ****     self_w += lv_obj_get_scroll_x(obj);
 1116              		.loc 1 199 58 discriminator 1 view .LVU300
 1117 00b8 1BFA86F6 		uxtah	r6, fp, r6
ARM GAS  C:\usertemp\ccBZVumh.s 			page 46


 199:lvgl/src/core/lv_obj_scroll.c ****     self_w += lv_obj_get_scroll_x(obj);
 1118              		.loc 1 199 69 discriminator 1 view .LVU301
 1119 00bc 1AFA86F6 		uxtah	r6, r10, r6
 199:lvgl/src/core/lv_obj_scroll.c ****     self_w += lv_obj_get_scroll_x(obj);
 1120              		.loc 1 199 21 discriminator 1 view .LVU302
 1121 00c0 18FA86F6 		uxtah	r6, r8, r6
 1122 00c4 B6B2     		uxth	r6, r6
 1123              	.LVL108:
 200:lvgl/src/core/lv_obj_scroll.c **** 
 1124              		.loc 1 200 5 is_stmt 1 view .LVU303
 200:lvgl/src/core/lv_obj_scroll.c **** 
 1125              		.loc 1 200 15 is_stmt 0 view .LVU304
 1126 00c6 2046     		mov	r0, r4
 1127 00c8 FFF7FEFF 		bl	lv_obj_get_scroll_x
 1128              	.LVL109:
 200:lvgl/src/core/lv_obj_scroll.c **** 
 1129              		.loc 1 200 12 discriminator 1 view .LVU305
 1130 00cc 16FA80F0 		uxtah	r0, r6, r0
 1131 00d0 00B2     		sxth	r0, r0
 1132              	.LVL110:
 202:lvgl/src/core/lv_obj_scroll.c **** }
 1133              		.loc 1 202 5 is_stmt 1 view .LVU306
 202:lvgl/src/core/lv_obj_scroll.c **** }
 1134              		.loc 1 202 12 is_stmt 0 view .LVU307
 1135 00d2 A842     		cmp	r0, r5
 1136 00d4 B8BF     		it	lt
 1137 00d6 2846     		movlt	r0, r5
 1138              	.LVL111:
 202:lvgl/src/core/lv_obj_scroll.c **** }
 1139              		.loc 1 202 12 view .LVU308
 1140 00d8 A3E7     		b	.L58
 1141              	.LVL112:
 1142              	.L64:
 195:lvgl/src/core/lv_obj_scroll.c ****     }
 1143              		.loc 1 195 19 view .LVU309
 1144 00da 034D     		ldr	r5, .L68+4
 1145              	.LVL113:
 195:lvgl/src/core/lv_obj_scroll.c ****     }
 1146              		.loc 1 195 19 view .LVU310
 1147 00dc DFE7     		b	.L62
 1148              	.LVL114:
 1149              	.L63:
 169:lvgl/src/core/lv_obj_scroll.c ****         return -obj->spec_attr->scroll.x;
 1150              		.loc 1 169 43 discriminator 1 view .LVU311
 1151 00de 0020     		movs	r0, #0
 1152 00e0 9FE7     		b	.L58
 1153              	.L69:
 1154 00e2 00BF     		.align	2
 1155              	.L68:
 1156 00e4 01000400 		.word	262145
 1157 00e8 01E0FFFF 		.word	-8191
 1158              		.cfi_endproc
 1159              	.LFE174:
 1161              		.section	.text.lv_obj_get_scroll_right,"ax",%progbits
 1162              		.align	1
 1163              		.global	lv_obj_get_scroll_right
 1164              		.syntax unified
ARM GAS  C:\usertemp\ccBZVumh.s 			page 47


 1165              		.thumb
 1166              		.thumb_func
 1168              	lv_obj_get_scroll_right:
 1169              	.LVL115:
 1170              	.LFB175:
 206:lvgl/src/core/lv_obj_scroll.c ****     LV_ASSERT_OBJ(obj, MY_CLASS);
 1171              		.loc 1 206 1 is_stmt 1 view -0
 1172              		.cfi_startproc
 1173              		@ args = 0, pretend = 0, frame = 0
 1174              		@ frame_needed = 0, uses_anonymous_args = 0
 206:lvgl/src/core/lv_obj_scroll.c ****     LV_ASSERT_OBJ(obj, MY_CLASS);
 1175              		.loc 1 206 1 is_stmt 0 view .LVU313
 1176 0000 2DE9F843 		push	{r3, r4, r5, r6, r7, r8, r9, lr}
 1177              	.LCFI10:
 1178              		.cfi_def_cfa_offset 32
 1179              		.cfi_offset 3, -32
 1180              		.cfi_offset 4, -28
 1181              		.cfi_offset 5, -24
 1182              		.cfi_offset 6, -20
 1183              		.cfi_offset 7, -16
 1184              		.cfi_offset 8, -12
 1185              		.cfi_offset 9, -8
 1186              		.cfi_offset 14, -4
 1187 0004 0546     		mov	r5, r0
 207:lvgl/src/core/lv_obj_scroll.c **** 
 1188              		.loc 1 207 5 is_stmt 1 view .LVU314
 207:lvgl/src/core/lv_obj_scroll.c **** 
 1189              		.loc 1 207 5 view .LVU315
 207:lvgl/src/core/lv_obj_scroll.c **** 
 1190              		.loc 1 207 5 view .LVU316
 211:lvgl/src/core/lv_obj_scroll.c ****         if(obj->spec_attr == NULL) return 0;
 1191              		.loc 1 211 5 view .LVU317
 1192              	.LVL116:
 1193              	.LBB118:
 1194              	.LBI118:
 542:lvgl/src/core/lv_obj_style_gen.h **** {
 1195              		.loc 2 542 29 view .LVU318
 1196              	.LBB119:
 544:lvgl/src/core/lv_obj_style_gen.h ****     return (lv_base_dir_t)v.num;
 1197              		.loc 2 544 5 view .LVU319
 544:lvgl/src/core/lv_obj_style_gen.h ****     return (lv_base_dir_t)v.num;
 1198              		.loc 2 544 26 is_stmt 0 view .LVU320
 1199 0006 41F26A42 		movw	r2, #5226
 1200 000a 0021     		movs	r1, #0
 1201 000c FFF7FEFF 		bl	lv_obj_get_style_prop
 1202              	.LVL117:
 1203              		.loc 2 545 5 is_stmt 1 view .LVU321
 1204              		.loc 2 545 12 is_stmt 0 view .LVU322
 1205 0010 C0B2     		uxtb	r0, r0
 1206              	.LVL118:
 1207              		.loc 2 545 12 view .LVU323
 1208              	.LBE119:
 1209              	.LBE118:
 211:lvgl/src/core/lv_obj_scroll.c ****         if(obj->spec_attr == NULL) return 0;
 1210              		.loc 1 211 7 discriminator 1 view .LVU324
 1211 0012 0128     		cmp	r0, #1
 1212 0014 05D1     		bne	.L71
ARM GAS  C:\usertemp\ccBZVumh.s 			page 48


 212:lvgl/src/core/lv_obj_scroll.c ****         return obj->spec_attr->scroll.x;
 1213              		.loc 1 212 9 is_stmt 1 view .LVU325
 212:lvgl/src/core/lv_obj_scroll.c ****         return obj->spec_attr->scroll.x;
 1214              		.loc 1 212 15 is_stmt 0 view .LVU326
 1215 0016 AB68     		ldr	r3, [r5, #8]
 212:lvgl/src/core/lv_obj_scroll.c ****         return obj->spec_attr->scroll.x;
 1216              		.loc 1 212 11 view .LVU327
 1217 0018 002B     		cmp	r3, #0
 1218 001a 56D0     		beq	.L77
 213:lvgl/src/core/lv_obj_scroll.c ****     }
 1219              		.loc 1 213 9 is_stmt 1 view .LVU328
 213:lvgl/src/core/lv_obj_scroll.c ****     }
 1220              		.loc 1 213 38 is_stmt 0 view .LVU329
 1221 001c B3F91000 		ldrsh	r0, [r3, #16]
 1222 0020 51E0     		b	.L72
 1223              	.L71:
 217:lvgl/src/core/lv_obj_scroll.c ****     uint32_t i;
 1224              		.loc 1 217 5 is_stmt 1 view .LVU330
 1225              	.LVL119:
 218:lvgl/src/core/lv_obj_scroll.c ****     uint32_t child_cnt = lv_obj_get_child_cnt(obj);
 1226              		.loc 1 218 5 view .LVU331
 219:lvgl/src/core/lv_obj_scroll.c ****     for(i = 0; i < child_cnt; i++) {
 1227              		.loc 1 219 5 view .LVU332
 219:lvgl/src/core/lv_obj_scroll.c ****     for(i = 0; i < child_cnt; i++) {
 1228              		.loc 1 219 26 is_stmt 0 view .LVU333
 1229 0022 2846     		mov	r0, r5
 1230 0024 FFF7FEFF 		bl	lv_obj_get_child_cnt
 1231              	.LVL120:
 1232 0028 8046     		mov	r8, r0
 1233              	.LVL121:
 220:lvgl/src/core/lv_obj_scroll.c ****         lv_obj_t * child = obj->spec_attr->children[i];
 1234              		.loc 1 220 5 is_stmt 1 view .LVU334
 220:lvgl/src/core/lv_obj_scroll.c ****         lv_obj_t * child = obj->spec_attr->children[i];
 1235              		.loc 1 220 11 is_stmt 0 view .LVU335
 1236 002a 0024     		movs	r4, #0
 217:lvgl/src/core/lv_obj_scroll.c ****     uint32_t i;
 1237              		.loc 1 217 16 view .LVU336
 1238 002c 284F     		ldr	r7, .L81
 220:lvgl/src/core/lv_obj_scroll.c ****         lv_obj_t * child = obj->spec_attr->children[i];
 1239              		.loc 1 220 5 view .LVU337
 1240 002e 05E0     		b	.L73
 1241              	.LVL122:
 1242              	.L80:
 1243              	.LBB120:
 223:lvgl/src/core/lv_obj_scroll.c ****     }
 1244              		.loc 1 223 9 is_stmt 1 view .LVU338
 223:lvgl/src/core/lv_obj_scroll.c ****     }
 1245              		.loc 1 223 21 is_stmt 0 view .LVU339
 1246 0030 B6F91830 		ldrsh	r3, [r6, #24]
 223:lvgl/src/core/lv_obj_scroll.c ****     }
 1247              		.loc 1 223 19 view .LVU340
 1248 0034 9F42     		cmp	r7, r3
 1249 0036 B8BF     		it	lt
 1250 0038 1F46     		movlt	r7, r3
 1251              	.LVL123:
 1252              	.L74:
 223:lvgl/src/core/lv_obj_scroll.c ****     }
ARM GAS  C:\usertemp\ccBZVumh.s 			page 49


 1253              		.loc 1 223 19 view .LVU341
 1254              	.LBE120:
 220:lvgl/src/core/lv_obj_scroll.c ****         lv_obj_t * child = obj->spec_attr->children[i];
 1255              		.loc 1 220 32 is_stmt 1 discriminator 2 view .LVU342
 1256 003a 0134     		adds	r4, r4, #1
 1257              	.LVL124:
 1258              	.L73:
 220:lvgl/src/core/lv_obj_scroll.c ****         lv_obj_t * child = obj->spec_attr->children[i];
 1259              		.loc 1 220 18 discriminator 1 view .LVU343
 1260 003c 4445     		cmp	r4, r8
 1261 003e 0AD2     		bcs	.L79
 1262              	.LBB121:
 221:lvgl/src/core/lv_obj_scroll.c ****         if(lv_obj_has_flag_any(child,  LV_OBJ_FLAG_HIDDEN | LV_OBJ_FLAG_FLOATING)) continue;
 1263              		.loc 1 221 9 view .LVU344
 221:lvgl/src/core/lv_obj_scroll.c ****         if(lv_obj_has_flag_any(child,  LV_OBJ_FLAG_HIDDEN | LV_OBJ_FLAG_FLOATING)) continue;
 1264              		.loc 1 221 31 is_stmt 0 view .LVU345
 1265 0040 AB68     		ldr	r3, [r5, #8]
 221:lvgl/src/core/lv_obj_scroll.c ****         if(lv_obj_has_flag_any(child,  LV_OBJ_FLAG_HIDDEN | LV_OBJ_FLAG_FLOATING)) continue;
 1266              		.loc 1 221 42 view .LVU346
 1267 0042 1B68     		ldr	r3, [r3]
 221:lvgl/src/core/lv_obj_scroll.c ****         if(lv_obj_has_flag_any(child,  LV_OBJ_FLAG_HIDDEN | LV_OBJ_FLAG_FLOATING)) continue;
 1268              		.loc 1 221 20 view .LVU347
 1269 0044 53F82460 		ldr	r6, [r3, r4, lsl #2]
 1270              	.LVL125:
 222:lvgl/src/core/lv_obj_scroll.c ****         child_res = LV_MAX(child_res, child->coords.x2);
 1271              		.loc 1 222 9 is_stmt 1 view .LVU348
 222:lvgl/src/core/lv_obj_scroll.c ****         child_res = LV_MAX(child_res, child->coords.x2);
 1272              		.loc 1 222 12 is_stmt 0 view .LVU349
 1273 0048 2249     		ldr	r1, .L81+4
 1274 004a 3046     		mov	r0, r6
 1275 004c FFF7FEFF 		bl	lv_obj_has_flag_any
 1276              	.LVL126:
 222:lvgl/src/core/lv_obj_scroll.c ****         child_res = LV_MAX(child_res, child->coords.x2);
 1277              		.loc 1 222 11 discriminator 1 view .LVU350
 1278 0050 0028     		cmp	r0, #0
 1279 0052 EDD0     		beq	.L80
 1280 0054 F1E7     		b	.L74
 1281              	.LVL127:
 1282              	.L79:
 222:lvgl/src/core/lv_obj_scroll.c ****         child_res = LV_MAX(child_res, child->coords.x2);
 1283              		.loc 1 222 11 discriminator 1 view .LVU351
 1284              	.LBE121:
 226:lvgl/src/core/lv_obj_scroll.c ****     lv_coord_t pad_left = lv_obj_get_style_pad_left(obj, LV_PART_MAIN);
 1285              		.loc 1 226 5 is_stmt 1 view .LVU352
 1286              	.LBB122:
 1287              	.LBI122:
 109:lvgl/src/core/lv_obj_style_gen.h **** {
 1288              		.loc 2 109 26 view .LVU353
 1289              	.LBB123:
 111:lvgl/src/core/lv_obj_style_gen.h ****     return (lv_coord_t)v.num;
 1290              		.loc 2 111 5 view .LVU354
 111:lvgl/src/core/lv_obj_style_gen.h ****     return (lv_coord_t)v.num;
 1291              		.loc 2 111 26 is_stmt 0 view .LVU355
 1292 0056 41F61302 		movw	r2, #6163
 1293 005a 0021     		movs	r1, #0
 1294 005c 2846     		mov	r0, r5
 1295 005e FFF7FEFF 		bl	lv_obj_get_style_prop
ARM GAS  C:\usertemp\ccBZVumh.s 			page 50


 1296              	.LVL128:
 1297 0062 0446     		mov	r4, r0
 1298              	.LVL129:
 112:lvgl/src/core/lv_obj_style_gen.h **** }
 1299              		.loc 2 112 5 is_stmt 1 view .LVU356
 112:lvgl/src/core/lv_obj_style_gen.h **** }
 1300              		.loc 2 112 5 is_stmt 0 view .LVU357
 1301              	.LBE123:
 1302              	.LBE122:
 227:lvgl/src/core/lv_obj_scroll.c ****     lv_coord_t border_width = lv_obj_get_style_border_width(obj, LV_PART_MAIN);
 1303              		.loc 1 227 5 is_stmt 1 view .LVU358
 1304              	.LBB124:
 1305              	.LBI124:
 103:lvgl/src/core/lv_obj_style_gen.h **** {
 1306              		.loc 2 103 26 view .LVU359
 1307              	.LBB125:
 105:lvgl/src/core/lv_obj_style_gen.h ****     return (lv_coord_t)v.num;
 1308              		.loc 2 105 5 view .LVU360
 105:lvgl/src/core/lv_obj_style_gen.h ****     return (lv_coord_t)v.num;
 1309              		.loc 2 105 26 is_stmt 0 view .LVU361
 1310 0064 41F61202 		movw	r2, #6162
 1311 0068 0021     		movs	r1, #0
 1312 006a 2846     		mov	r0, r5
 1313 006c FFF7FEFF 		bl	lv_obj_get_style_prop
 1314              	.LVL130:
 1315 0070 8146     		mov	r9, r0
 106:lvgl/src/core/lv_obj_style_gen.h **** }
 1316              		.loc 2 106 5 is_stmt 1 view .LVU362
 1317              	.LVL131:
 106:lvgl/src/core/lv_obj_style_gen.h **** }
 1318              		.loc 2 106 5 is_stmt 0 view .LVU363
 1319              	.LBE125:
 1320              	.LBE124:
 228:lvgl/src/core/lv_obj_scroll.c **** 
 1321              		.loc 1 228 5 is_stmt 1 view .LVU364
 1322              	.LBB126:
 1323              	.LBI126:
 241:lvgl/src/core/lv_obj_style_gen.h **** {
 1324              		.loc 2 241 26 view .LVU365
 1325              	.LBB127:
 243:lvgl/src/core/lv_obj_style_gen.h ****     return (lv_coord_t)v.num;
 1326              		.loc 2 243 5 view .LVU366
 243:lvgl/src/core/lv_obj_style_gen.h ****     return (lv_coord_t)v.num;
 1327              		.loc 2 243 26 is_stmt 0 view .LVU367
 1328 0072 41F23202 		movw	r2, #4146
 1329 0076 0021     		movs	r1, #0
 1330 0078 2846     		mov	r0, r5
 1331 007a FFF7FEFF 		bl	lv_obj_get_style_prop
 1332              	.LVL132:
 1333 007e 0646     		mov	r6, r0
 244:lvgl/src/core/lv_obj_style_gen.h **** }
 1334              		.loc 2 244 5 is_stmt 1 view .LVU368
 1335              	.LVL133:
 244:lvgl/src/core/lv_obj_style_gen.h **** }
 1336              		.loc 2 244 5 is_stmt 0 view .LVU369
 1337              	.LBE127:
 1338              	.LBE126:
ARM GAS  C:\usertemp\ccBZVumh.s 			page 51


 230:lvgl/src/core/lv_obj_scroll.c ****         child_res -= (obj->coords.x2 - pad_right - border_width);
 1339              		.loc 1 230 5 is_stmt 1 view .LVU370
 230:lvgl/src/core/lv_obj_scroll.c ****         child_res -= (obj->coords.x2 - pad_right - border_width);
 1340              		.loc 1 230 7 is_stmt 0 view .LVU371
 1341 0080 134B     		ldr	r3, .L81
 1342 0082 9F42     		cmp	r7, r3
 1343 0084 04D0     		beq	.L76
 231:lvgl/src/core/lv_obj_scroll.c ****     }
 1344              		.loc 1 231 9 is_stmt 1 view .LVU372
 231:lvgl/src/core/lv_obj_scroll.c ****     }
 1345              		.loc 1 231 34 is_stmt 0 view .LVU373
 1346 0086 2B8B     		ldrh	r3, [r5, #24]
 231:lvgl/src/core/lv_obj_scroll.c ****     }
 1347              		.loc 1 231 19 view .LVU374
 1348 0088 E31A     		subs	r3, r4, r3
 1349 008a 0344     		add	r3, r3, r0
 1350 008c 3B44     		add	r3, r3, r7
 1351 008e 1FB2     		sxth	r7, r3
 1352              	.LVL134:
 1353              	.L76:
 234:lvgl/src/core/lv_obj_scroll.c ****     self_w = lv_obj_get_self_width(obj);
 1354              		.loc 1 234 5 is_stmt 1 view .LVU375
 235:lvgl/src/core/lv_obj_scroll.c ****     self_w = self_w - (lv_obj_get_width(obj) - pad_right - pad_left - 2 * border_width);
 1355              		.loc 1 235 5 view .LVU376
 235:lvgl/src/core/lv_obj_scroll.c ****     self_w = self_w - (lv_obj_get_width(obj) - pad_right - pad_left - 2 * border_width);
 1356              		.loc 1 235 14 is_stmt 0 view .LVU377
 1357 0090 2846     		mov	r0, r5
 1358              	.LVL135:
 235:lvgl/src/core/lv_obj_scroll.c ****     self_w = self_w - (lv_obj_get_width(obj) - pad_right - pad_left - 2 * border_width);
 1359              		.loc 1 235 14 view .LVU378
 1360 0092 FFF7FEFF 		bl	lv_obj_get_self_width
 1361              	.LVL136:
 1362 0096 8046     		mov	r8, r0
 1363              	.LVL137:
 236:lvgl/src/core/lv_obj_scroll.c ****     self_w -= lv_obj_get_scroll_x(obj);
 1364              		.loc 1 236 5 is_stmt 1 view .LVU379
 236:lvgl/src/core/lv_obj_scroll.c ****     self_w -= lv_obj_get_scroll_x(obj);
 1365              		.loc 1 236 73 is_stmt 0 view .LVU380
 1366 0098 7600     		lsls	r6, r6, #1
 1367 009a B6B2     		uxth	r6, r6
 236:lvgl/src/core/lv_obj_scroll.c ****     self_w -= lv_obj_get_scroll_x(obj);
 1368              		.loc 1 236 24 view .LVU381
 1369 009c 2846     		mov	r0, r5
 1370 009e FFF7FEFF 		bl	lv_obj_get_width
 1371              	.LVL138:
 236:lvgl/src/core/lv_obj_scroll.c ****     self_w -= lv_obj_get_scroll_x(obj);
 1372              		.loc 1 236 24 discriminator 1 view .LVU382
 1373 00a2 80B2     		uxth	r0, r0
 236:lvgl/src/core/lv_obj_scroll.c ****     self_w -= lv_obj_get_scroll_x(obj);
 1374              		.loc 1 236 46 discriminator 1 view .LVU383
 1375 00a4 241A     		subs	r4, r4, r0
 1376              	.LVL139:
 236:lvgl/src/core/lv_obj_scroll.c ****     self_w -= lv_obj_get_scroll_x(obj);
 1377              		.loc 1 236 58 discriminator 1 view .LVU384
 1378 00a6 19FA84F4 		uxtah	r4, r9, r4
 236:lvgl/src/core/lv_obj_scroll.c ****     self_w -= lv_obj_get_scroll_x(obj);
 1379              		.loc 1 236 69 discriminator 1 view .LVU385
ARM GAS  C:\usertemp\ccBZVumh.s 			page 52


 1380 00aa 16FA84F4 		uxtah	r4, r6, r4
 236:lvgl/src/core/lv_obj_scroll.c ****     self_w -= lv_obj_get_scroll_x(obj);
 1381              		.loc 1 236 21 discriminator 1 view .LVU386
 1382 00ae 18FA84F4 		uxtah	r4, r8, r4
 1383 00b2 A4B2     		uxth	r4, r4
 1384              	.LVL140:
 237:lvgl/src/core/lv_obj_scroll.c ****     return LV_MAX(child_res, self_w);
 1385              		.loc 1 237 5 is_stmt 1 view .LVU387
 237:lvgl/src/core/lv_obj_scroll.c ****     return LV_MAX(child_res, self_w);
 1386              		.loc 1 237 15 is_stmt 0 view .LVU388
 1387 00b4 2846     		mov	r0, r5
 1388 00b6 FFF7FEFF 		bl	lv_obj_get_scroll_x
 1389              	.LVL141:
 237:lvgl/src/core/lv_obj_scroll.c ****     return LV_MAX(child_res, self_w);
 1390              		.loc 1 237 15 discriminator 1 view .LVU389
 1391 00ba 80B2     		uxth	r0, r0
 237:lvgl/src/core/lv_obj_scroll.c ****     return LV_MAX(child_res, self_w);
 1392              		.loc 1 237 12 discriminator 1 view .LVU390
 1393 00bc 201A     		subs	r0, r4, r0
 1394 00be 00B2     		sxth	r0, r0
 1395              	.LVL142:
 238:lvgl/src/core/lv_obj_scroll.c **** }
 1396              		.loc 1 238 5 is_stmt 1 view .LVU391
 238:lvgl/src/core/lv_obj_scroll.c **** }
 1397              		.loc 1 238 12 is_stmt 0 view .LVU392
 1398 00c0 B842     		cmp	r0, r7
 1399 00c2 B8BF     		it	lt
 1400 00c4 3846     		movlt	r0, r7
 1401              	.LVL143:
 1402              	.L72:
 239:lvgl/src/core/lv_obj_scroll.c **** 
 1403              		.loc 1 239 1 view .LVU393
 1404 00c6 BDE8F883 		pop	{r3, r4, r5, r6, r7, r8, r9, pc}
 1405              	.LVL144:
 1406              	.L77:
 212:lvgl/src/core/lv_obj_scroll.c ****         return obj->spec_attr->scroll.x;
 1407              		.loc 1 212 43 discriminator 1 view .LVU394
 1408 00ca 0020     		movs	r0, #0
 1409 00cc FBE7     		b	.L72
 1410              	.L82:
 1411 00ce 00BF     		.align	2
 1412              	.L81:
 1413 00d0 01E0FFFF 		.word	-8191
 1414 00d4 01000400 		.word	262145
 1415              		.cfi_endproc
 1416              	.LFE175:
 1418              		.section	.text.lv_obj_get_scroll_end,"ax",%progbits
 1419              		.align	1
 1420              		.global	lv_obj_get_scroll_end
 1421              		.syntax unified
 1422              		.thumb
 1423              		.thumb_func
 1425              	lv_obj_get_scroll_end:
 1426              	.LVL145:
 1427              	.LFB176:
 242:lvgl/src/core/lv_obj_scroll.c ****     lv_anim_t * a;
 1428              		.loc 1 242 1 is_stmt 1 view -0
ARM GAS  C:\usertemp\ccBZVumh.s 			page 53


 1429              		.cfi_startproc
 1430              		@ args = 0, pretend = 0, frame = 0
 1431              		@ frame_needed = 0, uses_anonymous_args = 0
 242:lvgl/src/core/lv_obj_scroll.c ****     lv_anim_t * a;
 1432              		.loc 1 242 1 is_stmt 0 view .LVU396
 1433 0000 38B5     		push	{r3, r4, r5, lr}
 1434              	.LCFI11:
 1435              		.cfi_def_cfa_offset 16
 1436              		.cfi_offset 3, -16
 1437              		.cfi_offset 4, -12
 1438              		.cfi_offset 5, -8
 1439              		.cfi_offset 14, -4
 1440 0002 0546     		mov	r5, r0
 1441 0004 0C46     		mov	r4, r1
 243:lvgl/src/core/lv_obj_scroll.c ****     a = lv_anim_get(obj, scroll_x_anim);
 1442              		.loc 1 243 5 is_stmt 1 view .LVU397
 244:lvgl/src/core/lv_obj_scroll.c ****     end->x = a ? -a->end_value : lv_obj_get_scroll_x(obj);
 1443              		.loc 1 244 5 view .LVU398
 244:lvgl/src/core/lv_obj_scroll.c ****     end->x = a ? -a->end_value : lv_obj_get_scroll_x(obj);
 1444              		.loc 1 244 9 is_stmt 0 view .LVU399
 1445 0006 0D49     		ldr	r1, .L89
 1446              	.LVL146:
 244:lvgl/src/core/lv_obj_scroll.c ****     end->x = a ? -a->end_value : lv_obj_get_scroll_x(obj);
 1447              		.loc 1 244 9 view .LVU400
 1448 0008 FFF7FEFF 		bl	lv_anim_get
 1449              	.LVL147:
 245:lvgl/src/core/lv_obj_scroll.c **** 
 1450              		.loc 1 245 5 is_stmt 1 view .LVU401
 245:lvgl/src/core/lv_obj_scroll.c **** 
 1451              		.loc 1 245 12 is_stmt 0 view .LVU402
 1452 000c 68B1     		cbz	r0, .L84
 245:lvgl/src/core/lv_obj_scroll.c **** 
 1453              		.loc 1 245 20 discriminator 1 view .LVU403
 1454 000e 436A     		ldr	r3, [r0, #36]
 245:lvgl/src/core/lv_obj_scroll.c **** 
 1455              		.loc 1 245 12 discriminator 1 view .LVU404
 1456 0010 5B42     		rsbs	r3, r3, #0
 1457 0012 1BB2     		sxth	r3, r3
 1458              	.LVL148:
 1459              	.L85:
 245:lvgl/src/core/lv_obj_scroll.c **** 
 1460              		.loc 1 245 12 discriminator 4 view .LVU405
 1461 0014 2380     		strh	r3, [r4]	@ movhi
 247:lvgl/src/core/lv_obj_scroll.c ****     end->y = a ? -a->end_value : lv_obj_get_scroll_y(obj);
 1462              		.loc 1 247 5 is_stmt 1 view .LVU406
 247:lvgl/src/core/lv_obj_scroll.c ****     end->y = a ? -a->end_value : lv_obj_get_scroll_y(obj);
 1463              		.loc 1 247 9 is_stmt 0 view .LVU407
 1464 0016 0A49     		ldr	r1, .L89+4
 1465 0018 2846     		mov	r0, r5
 1466 001a FFF7FEFF 		bl	lv_anim_get
 1467              	.LVL149:
 248:lvgl/src/core/lv_obj_scroll.c **** }
 1468              		.loc 1 248 5 is_stmt 1 view .LVU408
 248:lvgl/src/core/lv_obj_scroll.c **** }
 1469              		.loc 1 248 12 is_stmt 0 view .LVU409
 1470 001e 48B1     		cbz	r0, .L86
 248:lvgl/src/core/lv_obj_scroll.c **** }
ARM GAS  C:\usertemp\ccBZVumh.s 			page 54


 1471              		.loc 1 248 20 discriminator 1 view .LVU410
 1472 0020 406A     		ldr	r0, [r0, #36]
 1473              	.LVL150:
 248:lvgl/src/core/lv_obj_scroll.c **** }
 1474              		.loc 1 248 12 discriminator 1 view .LVU411
 1475 0022 4042     		rsbs	r0, r0, #0
 1476 0024 00B2     		sxth	r0, r0
 1477              	.L87:
 248:lvgl/src/core/lv_obj_scroll.c **** }
 1478              		.loc 1 248 12 discriminator 4 view .LVU412
 1479 0026 6080     		strh	r0, [r4, #2]	@ movhi
 249:lvgl/src/core/lv_obj_scroll.c **** 
 1480              		.loc 1 249 1 view .LVU413
 1481 0028 38BD     		pop	{r3, r4, r5, pc}
 1482              	.LVL151:
 1483              	.L84:
 245:lvgl/src/core/lv_obj_scroll.c **** 
 1484              		.loc 1 245 34 discriminator 2 view .LVU414
 1485 002a 2846     		mov	r0, r5
 1486              	.LVL152:
 245:lvgl/src/core/lv_obj_scroll.c **** 
 1487              		.loc 1 245 34 discriminator 2 view .LVU415
 1488 002c FFF7FEFF 		bl	lv_obj_get_scroll_x
 1489              	.LVL153:
 1490 0030 0346     		mov	r3, r0
 1491 0032 EFE7     		b	.L85
 1492              	.LVL154:
 1493              	.L86:
 248:lvgl/src/core/lv_obj_scroll.c **** }
 1494              		.loc 1 248 34 discriminator 2 view .LVU416
 1495 0034 2846     		mov	r0, r5
 1496              	.LVL155:
 248:lvgl/src/core/lv_obj_scroll.c **** }
 1497              		.loc 1 248 34 discriminator 2 view .LVU417
 1498 0036 FFF7FEFF 		bl	lv_obj_get_scroll_y
 1499              	.LVL156:
 1500 003a F4E7     		b	.L87
 1501              	.L90:
 1502              		.align	2
 1503              	.L89:
 1504 003c 00000000 		.word	scroll_x_anim
 1505 0040 00000000 		.word	scroll_y_anim
 1506              		.cfi_endproc
 1507              	.LFE176:
 1509              		.section	.text.lv_obj_scroll_by,"ax",%progbits
 1510              		.align	1
 1511              		.global	lv_obj_scroll_by
 1512              		.syntax unified
 1513              		.thumb
 1514              		.thumb_func
 1516              	lv_obj_scroll_by:
 1517              	.LVL157:
 1518              	.LFB178:
 305:lvgl/src/core/lv_obj_scroll.c ****     if(dx == 0 && dy == 0) return;
 1519              		.loc 1 305 1 is_stmt 1 view -0
 1520              		.cfi_startproc
 1521              		@ args = 0, pretend = 0, frame = 64
ARM GAS  C:\usertemp\ccBZVumh.s 			page 55


 1522              		@ frame_needed = 0, uses_anonymous_args = 0
 305:lvgl/src/core/lv_obj_scroll.c ****     if(dx == 0 && dy == 0) return;
 1523              		.loc 1 305 1 is_stmt 0 view .LVU419
 1524 0000 2DE9F041 		push	{r4, r5, r6, r7, r8, lr}
 1525              	.LCFI12:
 1526              		.cfi_def_cfa_offset 24
 1527              		.cfi_offset 4, -24
 1528              		.cfi_offset 5, -20
 1529              		.cfi_offset 6, -16
 1530              		.cfi_offset 7, -12
 1531              		.cfi_offset 8, -8
 1532              		.cfi_offset 14, -4
 1533 0004 90B0     		sub	sp, sp, #64
 1534              	.LCFI13:
 1535              		.cfi_def_cfa_offset 88
 1536 0006 1646     		mov	r6, r2
 306:lvgl/src/core/lv_obj_scroll.c ****     if(anim_en == LV_ANIM_ON) {
 1537              		.loc 1 306 5 is_stmt 1 view .LVU420
 306:lvgl/src/core/lv_obj_scroll.c ****     if(anim_en == LV_ANIM_ON) {
 1538              		.loc 1 306 7 is_stmt 0 view .LVU421
 1539 0008 51EA0602 		orrs	r2, r1, r6
 1540              	.LVL158:
 306:lvgl/src/core/lv_obj_scroll.c ****     if(anim_en == LV_ANIM_ON) {
 1541              		.loc 1 306 7 view .LVU422
 1542 000c 16D0     		beq	.L91
 1543 000e 0446     		mov	r4, r0
 1544 0010 0D46     		mov	r5, r1
 307:lvgl/src/core/lv_obj_scroll.c ****         lv_disp_t * d = lv_obj_get_disp(obj);
 1545              		.loc 1 307 5 is_stmt 1 view .LVU423
 307:lvgl/src/core/lv_obj_scroll.c ****         lv_disp_t * d = lv_obj_get_disp(obj);
 1546              		.loc 1 307 7 is_stmt 0 view .LVU424
 1547 0012 012B     		cmp	r3, #1
 1548 0014 15D0     		beq	.L104
 1549              	.LBB128:
 348:lvgl/src/core/lv_obj_scroll.c ****         bool x_del = lv_anim_del(obj, scroll_x_anim);
 1550              		.loc 1 348 9 is_stmt 1 view .LVU425
 348:lvgl/src/core/lv_obj_scroll.c ****         bool x_del = lv_anim_del(obj, scroll_x_anim);
 1551              		.loc 1 348 22 is_stmt 0 view .LVU426
 1552 0016 3E49     		ldr	r1, .L107
 1553              	.LVL159:
 348:lvgl/src/core/lv_obj_scroll.c ****         bool x_del = lv_anim_del(obj, scroll_x_anim);
 1554              		.loc 1 348 22 view .LVU427
 1555 0018 FFF7FEFF 		bl	lv_anim_del
 1556              	.LVL160:
 348:lvgl/src/core/lv_obj_scroll.c ****         bool x_del = lv_anim_del(obj, scroll_x_anim);
 1557              		.loc 1 348 22 view .LVU428
 1558 001c 0746     		mov	r7, r0
 1559              	.LVL161:
 349:lvgl/src/core/lv_obj_scroll.c ****         scroll_by_raw(obj, dx, dy);
 1560              		.loc 1 349 9 is_stmt 1 view .LVU429
 349:lvgl/src/core/lv_obj_scroll.c ****         scroll_by_raw(obj, dx, dy);
 1561              		.loc 1 349 22 is_stmt 0 view .LVU430
 1562 001e 3D49     		ldr	r1, .L107+4
 1563 0020 2046     		mov	r0, r4
 1564 0022 FFF7FEFF 		bl	lv_anim_del
 1565              	.LVL162:
 1566 0026 8046     		mov	r8, r0
ARM GAS  C:\usertemp\ccBZVumh.s 			page 56


 1567              	.LVL163:
 350:lvgl/src/core/lv_obj_scroll.c ****         if(y_del || x_del) {
 1568              		.loc 1 350 9 is_stmt 1 view .LVU431
 1569 0028 3246     		mov	r2, r6
 1570 002a 2946     		mov	r1, r5
 1571 002c 2046     		mov	r0, r4
 1572 002e FFF7FEFF 		bl	scroll_by_raw
 1573              	.LVL164:
 351:lvgl/src/core/lv_obj_scroll.c ****             lv_res_t res;
 1574              		.loc 1 351 9 view .LVU432
 351:lvgl/src/core/lv_obj_scroll.c ****             lv_res_t res;
 1575              		.loc 1 351 18 is_stmt 0 view .LVU433
 1576 0032 47EA0807 		orr	r7, r7, r8
 1577              	.LVL165:
 351:lvgl/src/core/lv_obj_scroll.c ****             lv_res_t res;
 1578              		.loc 1 351 11 view .LVU434
 1579 0036 17F0FF0F 		tst	r7, #255
 1580 003a 62D1     		bne	.L105
 1581              	.LVL166:
 1582              	.L91:
 351:lvgl/src/core/lv_obj_scroll.c ****             lv_res_t res;
 1583              		.loc 1 351 11 view .LVU435
 1584              	.LBE128:
 357:lvgl/src/core/lv_obj_scroll.c **** 
 1585              		.loc 1 357 1 view .LVU436
 1586 003c 10B0     		add	sp, sp, #64
 1587              	.LCFI14:
 1588              		.cfi_remember_state
 1589              		.cfi_def_cfa_offset 24
 1590              		@ sp needed
 1591 003e BDE8F081 		pop	{r4, r5, r6, r7, r8, pc}
 1592              	.LVL167:
 1593              	.L104:
 1594              	.LCFI15:
 1595              		.cfi_restore_state
 1596              	.LBB130:
 308:lvgl/src/core/lv_obj_scroll.c ****         lv_anim_t a;
 1597              		.loc 1 308 9 is_stmt 1 view .LVU437
 308:lvgl/src/core/lv_obj_scroll.c ****         lv_anim_t a;
 1598              		.loc 1 308 25 is_stmt 0 view .LVU438
 1599 0042 FFF7FEFF 		bl	lv_obj_get_disp
 1600              	.LVL168:
 308:lvgl/src/core/lv_obj_scroll.c ****         lv_anim_t a;
 1601              		.loc 1 308 25 view .LVU439
 1602 0046 0746     		mov	r7, r0
 1603              	.LVL169:
 309:lvgl/src/core/lv_obj_scroll.c ****         lv_anim_init(&a);
 1604              		.loc 1 309 9 is_stmt 1 view .LVU440
 310:lvgl/src/core/lv_obj_scroll.c ****         lv_anim_set_var(&a, obj);
 1605              		.loc 1 310 9 view .LVU441
 1606 0048 6846     		mov	r0, sp
 1607              	.LVL170:
 310:lvgl/src/core/lv_obj_scroll.c ****         lv_anim_set_var(&a, obj);
 1608              		.loc 1 310 9 is_stmt 0 view .LVU442
 1609 004a FFF7FEFF 		bl	lv_anim_init
 1610              	.LVL171:
 311:lvgl/src/core/lv_obj_scroll.c ****         lv_anim_set_ready_cb(&a, scroll_anim_ready_cb);
ARM GAS  C:\usertemp\ccBZVumh.s 			page 57


 1611              		.loc 1 311 9 is_stmt 1 view .LVU443
 1612              	.LBB131:
 1613              	.LBI131:
 1614              		.file 3 "lvgl/src/core/../misc/lv_anim.h"
   1:lvgl/src/core/../misc/lv_anim.h **** /**
   2:lvgl/src/core/../misc/lv_anim.h ****  * @file lv_anim.h
   3:lvgl/src/core/../misc/lv_anim.h ****  *
   4:lvgl/src/core/../misc/lv_anim.h ****  */
   5:lvgl/src/core/../misc/lv_anim.h **** 
   6:lvgl/src/core/../misc/lv_anim.h **** #ifndef LV_ANIM_H
   7:lvgl/src/core/../misc/lv_anim.h **** #define LV_ANIM_H
   8:lvgl/src/core/../misc/lv_anim.h **** 
   9:lvgl/src/core/../misc/lv_anim.h **** #ifdef __cplusplus
  10:lvgl/src/core/../misc/lv_anim.h **** extern "C" {
  11:lvgl/src/core/../misc/lv_anim.h **** #endif
  12:lvgl/src/core/../misc/lv_anim.h **** 
  13:lvgl/src/core/../misc/lv_anim.h **** /*********************
  14:lvgl/src/core/../misc/lv_anim.h ****  *      INCLUDES
  15:lvgl/src/core/../misc/lv_anim.h ****  *********************/
  16:lvgl/src/core/../misc/lv_anim.h **** #include "../lv_conf_internal.h"
  17:lvgl/src/core/../misc/lv_anim.h **** 
  18:lvgl/src/core/../misc/lv_anim.h **** #include <stdint.h>
  19:lvgl/src/core/../misc/lv_anim.h **** #include <stdbool.h>
  20:lvgl/src/core/../misc/lv_anim.h **** #include <stddef.h>
  21:lvgl/src/core/../misc/lv_anim.h **** 
  22:lvgl/src/core/../misc/lv_anim.h **** /*********************
  23:lvgl/src/core/../misc/lv_anim.h ****  *      DEFINES
  24:lvgl/src/core/../misc/lv_anim.h ****  *********************/
  25:lvgl/src/core/../misc/lv_anim.h **** 
  26:lvgl/src/core/../misc/lv_anim.h **** #define LV_ANIM_REPEAT_INFINITE      0xFFFF
  27:lvgl/src/core/../misc/lv_anim.h **** #define LV_ANIM_PLAYTIME_INFINITE    0xFFFFFFFF
  28:lvgl/src/core/../misc/lv_anim.h **** 
  29:lvgl/src/core/../misc/lv_anim.h **** LV_EXPORT_CONST_INT(LV_ANIM_REPEAT_INFINITE);
  30:lvgl/src/core/../misc/lv_anim.h **** LV_EXPORT_CONST_INT(LV_ANIM_PLAYTIME_INFINITE);
  31:lvgl/src/core/../misc/lv_anim.h **** 
  32:lvgl/src/core/../misc/lv_anim.h **** /**********************
  33:lvgl/src/core/../misc/lv_anim.h ****  *      TYPEDEFS
  34:lvgl/src/core/../misc/lv_anim.h ****  **********************/
  35:lvgl/src/core/../misc/lv_anim.h **** 
  36:lvgl/src/core/../misc/lv_anim.h **** /** Can be used to indicate if animations are enabled or disabled in a case*/
  37:lvgl/src/core/../misc/lv_anim.h **** typedef enum {
  38:lvgl/src/core/../misc/lv_anim.h ****     LV_ANIM_OFF,
  39:lvgl/src/core/../misc/lv_anim.h ****     LV_ANIM_ON,
  40:lvgl/src/core/../misc/lv_anim.h **** } lv_anim_enable_t;
  41:lvgl/src/core/../misc/lv_anim.h **** 
  42:lvgl/src/core/../misc/lv_anim.h **** struct _lv_anim_t;
  43:lvgl/src/core/../misc/lv_anim.h **** 
  44:lvgl/src/core/../misc/lv_anim.h **** /** Get the current value during an animation*/
  45:lvgl/src/core/../misc/lv_anim.h **** typedef int32_t (*lv_anim_path_cb_t)(const struct _lv_anim_t *);
  46:lvgl/src/core/../misc/lv_anim.h **** 
  47:lvgl/src/core/../misc/lv_anim.h **** /** Generic prototype of "animator" functions.
  48:lvgl/src/core/../misc/lv_anim.h ****  * First parameter is the variable to animate.
  49:lvgl/src/core/../misc/lv_anim.h ****  * Second parameter is the value to set.
  50:lvgl/src/core/../misc/lv_anim.h ****  * Compatible with `lv_xxx_set_yyy(obj, value)` functions
  51:lvgl/src/core/../misc/lv_anim.h ****  * The `x` in `_xcb_t` means it's not a fully generic prototype because
  52:lvgl/src/core/../misc/lv_anim.h ****  * it doesn't receive `lv_anim_t *` as its first argument*/
  53:lvgl/src/core/../misc/lv_anim.h **** typedef void (*lv_anim_exec_xcb_t)(void *, int32_t);
ARM GAS  C:\usertemp\ccBZVumh.s 			page 58


  54:lvgl/src/core/../misc/lv_anim.h **** 
  55:lvgl/src/core/../misc/lv_anim.h **** /** Same as `lv_anim_exec_xcb_t` but receives `lv_anim_t *` as the first parameter.
  56:lvgl/src/core/../misc/lv_anim.h ****  * It's more consistent but less convenient. Might be used by binding generator functions.*/
  57:lvgl/src/core/../misc/lv_anim.h **** typedef void (*lv_anim_custom_exec_cb_t)(struct _lv_anim_t *, int32_t);
  58:lvgl/src/core/../misc/lv_anim.h **** 
  59:lvgl/src/core/../misc/lv_anim.h **** /** Callback to call when the animation is ready*/
  60:lvgl/src/core/../misc/lv_anim.h **** typedef void (*lv_anim_ready_cb_t)(struct _lv_anim_t *);
  61:lvgl/src/core/../misc/lv_anim.h **** 
  62:lvgl/src/core/../misc/lv_anim.h **** /** Callback to call when the animation really stars (considering `delay`)*/
  63:lvgl/src/core/../misc/lv_anim.h **** typedef void (*lv_anim_start_cb_t)(struct _lv_anim_t *);
  64:lvgl/src/core/../misc/lv_anim.h **** 
  65:lvgl/src/core/../misc/lv_anim.h **** /** Callback used when the animation values are relative to get the current value*/
  66:lvgl/src/core/../misc/lv_anim.h **** typedef int32_t (*lv_anim_get_value_cb_t)(struct _lv_anim_t *);
  67:lvgl/src/core/../misc/lv_anim.h **** 
  68:lvgl/src/core/../misc/lv_anim.h **** /** Describes an animation*/
  69:lvgl/src/core/../misc/lv_anim.h **** typedef struct _lv_anim_t {
  70:lvgl/src/core/../misc/lv_anim.h ****     void * var;                          /**<Variable to animate*/
  71:lvgl/src/core/../misc/lv_anim.h ****     lv_anim_exec_xcb_t exec_cb;          /**< Function to execute to animate*/
  72:lvgl/src/core/../misc/lv_anim.h ****     lv_anim_start_cb_t start_cb;         /**< Call it when the animation is starts (considering `de
  73:lvgl/src/core/../misc/lv_anim.h ****     lv_anim_ready_cb_t ready_cb;         /**< Call it when the animation is ready*/
  74:lvgl/src/core/../misc/lv_anim.h ****     lv_anim_get_value_cb_t get_value_cb; /**< Get the current value in relative mode*/
  75:lvgl/src/core/../misc/lv_anim.h **** #if LV_USE_USER_DATA
  76:lvgl/src/core/../misc/lv_anim.h ****     void * user_data; /**< Custom user data*/
  77:lvgl/src/core/../misc/lv_anim.h **** #endif
  78:lvgl/src/core/../misc/lv_anim.h ****     lv_anim_path_cb_t path_cb;         /**< Describe the path (curve) of animations*/
  79:lvgl/src/core/../misc/lv_anim.h ****     int32_t start_value;               /**< Start value*/
  80:lvgl/src/core/../misc/lv_anim.h ****     int32_t current_value;             /**< Current value*/
  81:lvgl/src/core/../misc/lv_anim.h ****     int32_t end_value;                 /**< End value*/
  82:lvgl/src/core/../misc/lv_anim.h ****     int32_t time;                /**< Animation time in ms*/
  83:lvgl/src/core/../misc/lv_anim.h ****     int32_t act_time;            /**< Current time in animation. Set to negative to make delay.*/
  84:lvgl/src/core/../misc/lv_anim.h ****     uint32_t playback_delay;     /**< Wait before play back*/
  85:lvgl/src/core/../misc/lv_anim.h ****     uint32_t playback_time;      /**< Duration of playback animation*/
  86:lvgl/src/core/../misc/lv_anim.h ****     uint32_t repeat_delay;       /**< Wait before repeat*/
  87:lvgl/src/core/../misc/lv_anim.h ****     uint16_t repeat_cnt;         /**< Repeat count for the animation*/
  88:lvgl/src/core/../misc/lv_anim.h ****     uint8_t early_apply  : 1;    /**< 1: Apply start value immediately even is there is `delay`*/
  89:lvgl/src/core/../misc/lv_anim.h **** 
  90:lvgl/src/core/../misc/lv_anim.h ****     /*Animation system use these - user shouldn't set*/
  91:lvgl/src/core/../misc/lv_anim.h ****     uint8_t playback_now : 1; /**< Play back is in progress*/
  92:lvgl/src/core/../misc/lv_anim.h ****     uint8_t run_round : 1;    /**< Indicates the animation has run in this round*/
  93:lvgl/src/core/../misc/lv_anim.h ****     uint8_t start_cb_called : 1;    /**< Indicates that the `start_cb` was already called*/
  94:lvgl/src/core/../misc/lv_anim.h **** } lv_anim_t;
  95:lvgl/src/core/../misc/lv_anim.h **** 
  96:lvgl/src/core/../misc/lv_anim.h **** /**********************
  97:lvgl/src/core/../misc/lv_anim.h ****  * GLOBAL PROTOTYPES
  98:lvgl/src/core/../misc/lv_anim.h ****  **********************/
  99:lvgl/src/core/../misc/lv_anim.h **** 
 100:lvgl/src/core/../misc/lv_anim.h **** /**
 101:lvgl/src/core/../misc/lv_anim.h ****  * Init. the animation module
 102:lvgl/src/core/../misc/lv_anim.h ****  */
 103:lvgl/src/core/../misc/lv_anim.h **** void _lv_anim_core_init(void);
 104:lvgl/src/core/../misc/lv_anim.h **** 
 105:lvgl/src/core/../misc/lv_anim.h **** /**
 106:lvgl/src/core/../misc/lv_anim.h ****  * Initialize an animation variable.
 107:lvgl/src/core/../misc/lv_anim.h ****  * E.g.:
 108:lvgl/src/core/../misc/lv_anim.h ****  * lv_anim_t a;
 109:lvgl/src/core/../misc/lv_anim.h ****  * lv_anim_init(&a);
 110:lvgl/src/core/../misc/lv_anim.h ****  * lv_anim_set_...(&a);
ARM GAS  C:\usertemp\ccBZVumh.s 			page 59


 111:lvgl/src/core/../misc/lv_anim.h ****  * lv_anim_start(&a);
 112:lvgl/src/core/../misc/lv_anim.h ****  * @param a     pointer to an `lv_anim_t` variable to initialize
 113:lvgl/src/core/../misc/lv_anim.h ****  */
 114:lvgl/src/core/../misc/lv_anim.h **** void lv_anim_init(lv_anim_t * a);
 115:lvgl/src/core/../misc/lv_anim.h **** 
 116:lvgl/src/core/../misc/lv_anim.h **** /**
 117:lvgl/src/core/../misc/lv_anim.h ****  * Set a variable to animate
 118:lvgl/src/core/../misc/lv_anim.h ****  * @param a     pointer to an initialized `lv_anim_t` variable
 119:lvgl/src/core/../misc/lv_anim.h ****  * @param var   pointer to a variable to animate
 120:lvgl/src/core/../misc/lv_anim.h ****  */
 121:lvgl/src/core/../misc/lv_anim.h **** static inline void lv_anim_set_var(lv_anim_t * a, void * var)
 1615              		.loc 3 121 20 view .LVU444
 1616              	.LBB132:
 122:lvgl/src/core/../misc/lv_anim.h **** {
 123:lvgl/src/core/../misc/lv_anim.h ****     a->var = var;
 1617              		.loc 3 123 5 view .LVU445
 1618              		.loc 3 123 12 is_stmt 0 view .LVU446
 1619 004e 0094     		str	r4, [sp]
 1620              	.LVL172:
 1621              		.loc 3 123 12 view .LVU447
 1622              	.LBE132:
 1623              	.LBE131:
 312:lvgl/src/core/lv_obj_scroll.c **** 
 1624              		.loc 1 312 9 is_stmt 1 view .LVU448
 1625              	.LBB133:
 1626              	.LBI133:
 124:lvgl/src/core/../misc/lv_anim.h **** }
 125:lvgl/src/core/../misc/lv_anim.h **** 
 126:lvgl/src/core/../misc/lv_anim.h **** /**
 127:lvgl/src/core/../misc/lv_anim.h ****  * Set a function to animate `var`
 128:lvgl/src/core/../misc/lv_anim.h ****  * @param a         pointer to an initialized `lv_anim_t` variable
 129:lvgl/src/core/../misc/lv_anim.h ****  * @param exec_cb   a function to execute during animation
 130:lvgl/src/core/../misc/lv_anim.h ****  *                  LVGL's built-in functions can be used.
 131:lvgl/src/core/../misc/lv_anim.h ****  *                  E.g. lv_obj_set_x
 132:lvgl/src/core/../misc/lv_anim.h ****  */
 133:lvgl/src/core/../misc/lv_anim.h **** static inline void lv_anim_set_exec_cb(lv_anim_t * a, lv_anim_exec_xcb_t exec_cb)
 134:lvgl/src/core/../misc/lv_anim.h **** {
 135:lvgl/src/core/../misc/lv_anim.h ****     a->exec_cb = exec_cb;
 136:lvgl/src/core/../misc/lv_anim.h **** }
 137:lvgl/src/core/../misc/lv_anim.h **** 
 138:lvgl/src/core/../misc/lv_anim.h **** /**
 139:lvgl/src/core/../misc/lv_anim.h ****  * Set the duration of an animation
 140:lvgl/src/core/../misc/lv_anim.h ****  * @param a         pointer to an initialized `lv_anim_t` variable
 141:lvgl/src/core/../misc/lv_anim.h ****  * @param duration  duration of the animation in milliseconds
 142:lvgl/src/core/../misc/lv_anim.h ****  */
 143:lvgl/src/core/../misc/lv_anim.h **** static inline void lv_anim_set_time(lv_anim_t * a, uint32_t duration)
 144:lvgl/src/core/../misc/lv_anim.h **** {
 145:lvgl/src/core/../misc/lv_anim.h ****     a->time = duration;
 146:lvgl/src/core/../misc/lv_anim.h **** }
 147:lvgl/src/core/../misc/lv_anim.h **** 
 148:lvgl/src/core/../misc/lv_anim.h **** /**
 149:lvgl/src/core/../misc/lv_anim.h ****  * Set a delay before starting the animation
 150:lvgl/src/core/../misc/lv_anim.h ****  * @param a         pointer to an initialized `lv_anim_t` variable
 151:lvgl/src/core/../misc/lv_anim.h ****  * @param delay     delay before the animation in milliseconds
 152:lvgl/src/core/../misc/lv_anim.h ****  */
 153:lvgl/src/core/../misc/lv_anim.h **** static inline void lv_anim_set_delay(lv_anim_t * a, uint32_t delay)
 154:lvgl/src/core/../misc/lv_anim.h **** {
ARM GAS  C:\usertemp\ccBZVumh.s 			page 60


 155:lvgl/src/core/../misc/lv_anim.h ****     a->act_time = -(int32_t)(delay);
 156:lvgl/src/core/../misc/lv_anim.h **** }
 157:lvgl/src/core/../misc/lv_anim.h **** 
 158:lvgl/src/core/../misc/lv_anim.h **** /**
 159:lvgl/src/core/../misc/lv_anim.h ****  * Set the start and end values of an animation
 160:lvgl/src/core/../misc/lv_anim.h ****  * @param a         pointer to an initialized `lv_anim_t` variable
 161:lvgl/src/core/../misc/lv_anim.h ****  * @param start     the start value
 162:lvgl/src/core/../misc/lv_anim.h ****  * @param end       the end value
 163:lvgl/src/core/../misc/lv_anim.h ****  */
 164:lvgl/src/core/../misc/lv_anim.h **** static inline void lv_anim_set_values(lv_anim_t * a, int32_t start, int32_t end)
 165:lvgl/src/core/../misc/lv_anim.h **** {
 166:lvgl/src/core/../misc/lv_anim.h ****     a->start_value = start;
 167:lvgl/src/core/../misc/lv_anim.h ****     a->current_value = start;
 168:lvgl/src/core/../misc/lv_anim.h ****     a->end_value = end;
 169:lvgl/src/core/../misc/lv_anim.h **** }
 170:lvgl/src/core/../misc/lv_anim.h **** 
 171:lvgl/src/core/../misc/lv_anim.h **** /**
 172:lvgl/src/core/../misc/lv_anim.h ****  * Similar to `lv_anim_set_exec_cb` but `lv_anim_custom_exec_cb_t` receives
 173:lvgl/src/core/../misc/lv_anim.h ****  * `lv_anim_t * ` as its first parameter instead of `void *`.
 174:lvgl/src/core/../misc/lv_anim.h ****  * This function might be used when LVGL is bound to other languages because
 175:lvgl/src/core/../misc/lv_anim.h ****  * it's more consistent to have `lv_anim_t *` as first parameter.
 176:lvgl/src/core/../misc/lv_anim.h ****  * The variable to animate can be stored in the animation's `user_data`
 177:lvgl/src/core/../misc/lv_anim.h ****  * @param a         pointer to an initialized `lv_anim_t` variable
 178:lvgl/src/core/../misc/lv_anim.h ****  * @param exec_cb   a function to execute.
 179:lvgl/src/core/../misc/lv_anim.h ****  */
 180:lvgl/src/core/../misc/lv_anim.h **** static inline void lv_anim_set_custom_exec_cb(lv_anim_t * a, lv_anim_custom_exec_cb_t exec_cb)
 181:lvgl/src/core/../misc/lv_anim.h **** {
 182:lvgl/src/core/../misc/lv_anim.h ****     a->var     = a;
 183:lvgl/src/core/../misc/lv_anim.h ****     a->exec_cb = (lv_anim_exec_xcb_t)exec_cb;
 184:lvgl/src/core/../misc/lv_anim.h **** }
 185:lvgl/src/core/../misc/lv_anim.h **** 
 186:lvgl/src/core/../misc/lv_anim.h **** /**
 187:lvgl/src/core/../misc/lv_anim.h ****  * Set the path (curve) of the animation.
 188:lvgl/src/core/../misc/lv_anim.h ****  * @param a         pointer to an initialized `lv_anim_t` variable
 189:lvgl/src/core/../misc/lv_anim.h ****  * @param path_cb a function to set the current value of the animation.
 190:lvgl/src/core/../misc/lv_anim.h ****  */
 191:lvgl/src/core/../misc/lv_anim.h **** static inline void lv_anim_set_path_cb(lv_anim_t * a, lv_anim_path_cb_t path_cb)
 192:lvgl/src/core/../misc/lv_anim.h **** {
 193:lvgl/src/core/../misc/lv_anim.h ****     a->path_cb = path_cb;
 194:lvgl/src/core/../misc/lv_anim.h **** }
 195:lvgl/src/core/../misc/lv_anim.h **** 
 196:lvgl/src/core/../misc/lv_anim.h **** /**
 197:lvgl/src/core/../misc/lv_anim.h ****  * Set a function call when the animation really starts (considering `delay`)
 198:lvgl/src/core/../misc/lv_anim.h ****  * @param a         pointer to an initialized `lv_anim_t` variable
 199:lvgl/src/core/../misc/lv_anim.h ****  * @param start_cb  a function call when the animation starts
 200:lvgl/src/core/../misc/lv_anim.h ****  */
 201:lvgl/src/core/../misc/lv_anim.h **** static inline void lv_anim_set_start_cb(lv_anim_t * a, lv_anim_start_cb_t start_cb)
 202:lvgl/src/core/../misc/lv_anim.h **** {
 203:lvgl/src/core/../misc/lv_anim.h ****     a->start_cb = start_cb;
 204:lvgl/src/core/../misc/lv_anim.h **** }
 205:lvgl/src/core/../misc/lv_anim.h **** 
 206:lvgl/src/core/../misc/lv_anim.h **** /**
 207:lvgl/src/core/../misc/lv_anim.h ****  * Set a function to use the current value of the variable and make start and end value
 208:lvgl/src/core/../misc/lv_anim.h ****  * relative to the returned current value.
 209:lvgl/src/core/../misc/lv_anim.h ****  * @param a             pointer to an initialized `lv_anim_t` variable
 210:lvgl/src/core/../misc/lv_anim.h ****  * @param get_value_cb  a function call when the animation starts
 211:lvgl/src/core/../misc/lv_anim.h ****  */
ARM GAS  C:\usertemp\ccBZVumh.s 			page 61


 212:lvgl/src/core/../misc/lv_anim.h **** static inline void lv_anim_set_get_value_cb(lv_anim_t * a, lv_anim_get_value_cb_t get_value_cb)
 213:lvgl/src/core/../misc/lv_anim.h **** {
 214:lvgl/src/core/../misc/lv_anim.h ****     a->get_value_cb = get_value_cb;
 215:lvgl/src/core/../misc/lv_anim.h **** }
 216:lvgl/src/core/../misc/lv_anim.h **** 
 217:lvgl/src/core/../misc/lv_anim.h **** /**
 218:lvgl/src/core/../misc/lv_anim.h ****  * Set a function call when the animation is ready
 219:lvgl/src/core/../misc/lv_anim.h ****  * @param a         pointer to an initialized `lv_anim_t` variable
 220:lvgl/src/core/../misc/lv_anim.h ****  * @param ready_cb  a function call when the animation is ready
 221:lvgl/src/core/../misc/lv_anim.h ****  */
 222:lvgl/src/core/../misc/lv_anim.h **** static inline void lv_anim_set_ready_cb(lv_anim_t * a, lv_anim_ready_cb_t ready_cb)
 1627              		.loc 3 222 20 view .LVU449
 1628              	.LBB134:
 223:lvgl/src/core/../misc/lv_anim.h **** {
 224:lvgl/src/core/../misc/lv_anim.h ****     a->ready_cb = ready_cb;
 1629              		.loc 3 224 5 view .LVU450
 1630              		.loc 3 224 17 is_stmt 0 view .LVU451
 1631 0050 314B     		ldr	r3, .L107+8
 1632 0052 0393     		str	r3, [sp, #12]
 1633              	.LVL173:
 1634              		.loc 3 224 17 view .LVU452
 1635              	.LBE134:
 1636              	.LBE133:
 314:lvgl/src/core/lv_obj_scroll.c ****             uint32_t t = lv_anim_speed_to_time((lv_disp_get_hor_res(d) * 2) >> 2, 0, dx);
 1637              		.loc 1 314 9 is_stmt 1 view .LVU453
 314:lvgl/src/core/lv_obj_scroll.c ****             uint32_t t = lv_anim_speed_to_time((lv_disp_get_hor_res(d) * 2) >> 2, 0, dx);
 1638              		.loc 1 314 11 is_stmt 0 view .LVU454
 1639 0054 95B9     		cbnz	r5, .L106
 1640              	.L94:
 330:lvgl/src/core/lv_obj_scroll.c ****             uint32_t t = lv_anim_speed_to_time((lv_disp_get_ver_res(d) * 2) >> 2, 0, dy);
 1641              		.loc 1 330 9 is_stmt 1 view .LVU455
 330:lvgl/src/core/lv_obj_scroll.c ****             uint32_t t = lv_anim_speed_to_time((lv_disp_get_ver_res(d) * 2) >> 2, 0, dy);
 1642              		.loc 1 330 11 is_stmt 0 view .LVU456
 1643 0056 002E     		cmp	r6, #0
 1644 0058 F0D0     		beq	.L91
 1645              	.LBB135:
 331:lvgl/src/core/lv_obj_scroll.c ****             if(t < SCROLL_ANIM_TIME_MIN) t = SCROLL_ANIM_TIME_MIN;
 1646              		.loc 1 331 13 is_stmt 1 view .LVU457
 331:lvgl/src/core/lv_obj_scroll.c ****             if(t < SCROLL_ANIM_TIME_MIN) t = SCROLL_ANIM_TIME_MIN;
 1647              		.loc 1 331 49 is_stmt 0 view .LVU458
 1648 005a 3846     		mov	r0, r7
 1649 005c FFF7FEFF 		bl	lv_disp_get_ver_res
 1650              	.LVL174:
 331:lvgl/src/core/lv_obj_scroll.c ****             if(t < SCROLL_ANIM_TIME_MIN) t = SCROLL_ANIM_TIME_MIN;
 1651              		.loc 1 331 26 discriminator 1 view .LVU459
 1652 0060 3246     		mov	r2, r6
 1653 0062 0021     		movs	r1, #0
 1654 0064 40F35D00 		sbfx	r0, r0, #1, #30
 1655 0068 FFF7FEFF 		bl	lv_anim_speed_to_time
 1656              	.LVL175:
 332:lvgl/src/core/lv_obj_scroll.c ****             if(t > SCROLL_ANIM_TIME_MAX) t = SCROLL_ANIM_TIME_MAX;
 1657              		.loc 1 332 13 is_stmt 1 view .LVU460
 332:lvgl/src/core/lv_obj_scroll.c ****             if(t > SCROLL_ANIM_TIME_MAX) t = SCROLL_ANIM_TIME_MAX;
 1658              		.loc 1 332 15 is_stmt 0 view .LVU461
 1659 006c C728     		cmp	r0, #199
 1660 006e 2FD9     		bls	.L101
 333:lvgl/src/core/lv_obj_scroll.c ****             lv_anim_set_time(&a, t);
ARM GAS  C:\usertemp\ccBZVumh.s 			page 62


 1661              		.loc 1 333 13 is_stmt 1 view .LVU462
 333:lvgl/src/core/lv_obj_scroll.c ****             lv_anim_set_time(&a, t);
 1662              		.loc 1 333 15 is_stmt 0 view .LVU463
 1663 0070 B0F5C87F 		cmp	r0, #400
 1664 0074 2DD9     		bls	.L98
 333:lvgl/src/core/lv_obj_scroll.c ****             lv_anim_set_time(&a, t);
 1665              		.loc 1 333 44 discriminator 1 view .LVU464
 1666 0076 4FF4C870 		mov	r0, #400
 1667              	.LVL176:
 333:lvgl/src/core/lv_obj_scroll.c ****             lv_anim_set_time(&a, t);
 1668              		.loc 1 333 44 discriminator 1 view .LVU465
 1669 007a 2AE0     		b	.L98
 1670              	.LVL177:
 1671              	.L106:
 333:lvgl/src/core/lv_obj_scroll.c ****             lv_anim_set_time(&a, t);
 1672              		.loc 1 333 44 discriminator 1 view .LVU466
 1673              	.LBE135:
 1674              	.LBB144:
 315:lvgl/src/core/lv_obj_scroll.c ****             if(t < SCROLL_ANIM_TIME_MIN) t = SCROLL_ANIM_TIME_MIN;
 1675              		.loc 1 315 13 is_stmt 1 view .LVU467
 315:lvgl/src/core/lv_obj_scroll.c ****             if(t < SCROLL_ANIM_TIME_MIN) t = SCROLL_ANIM_TIME_MIN;
 1676              		.loc 1 315 49 is_stmt 0 view .LVU468
 1677 007c 3846     		mov	r0, r7
 1678 007e FFF7FEFF 		bl	lv_disp_get_hor_res
 1679              	.LVL178:
 315:lvgl/src/core/lv_obj_scroll.c ****             if(t < SCROLL_ANIM_TIME_MIN) t = SCROLL_ANIM_TIME_MIN;
 1680              		.loc 1 315 26 discriminator 1 view .LVU469
 1681 0082 2A46     		mov	r2, r5
 1682 0084 0021     		movs	r1, #0
 1683 0086 40F35D00 		sbfx	r0, r0, #1, #30
 1684 008a FFF7FEFF 		bl	lv_anim_speed_to_time
 1685              	.LVL179:
 316:lvgl/src/core/lv_obj_scroll.c ****             if(t > SCROLL_ANIM_TIME_MAX) t = SCROLL_ANIM_TIME_MAX;
 1686              		.loc 1 316 13 is_stmt 1 view .LVU470
 316:lvgl/src/core/lv_obj_scroll.c ****             if(t > SCROLL_ANIM_TIME_MAX) t = SCROLL_ANIM_TIME_MAX;
 1687              		.loc 1 316 15 is_stmt 0 view .LVU471
 1688 008e C728     		cmp	r0, #199
 1689 0090 05D9     		bls	.L99
 317:lvgl/src/core/lv_obj_scroll.c ****             lv_anim_set_time(&a, t);
 1690              		.loc 1 317 13 is_stmt 1 view .LVU472
 317:lvgl/src/core/lv_obj_scroll.c ****             lv_anim_set_time(&a, t);
 1691              		.loc 1 317 15 is_stmt 0 view .LVU473
 1692 0092 B0F5C87F 		cmp	r0, #400
 1693 0096 03D9     		bls	.L95
 317:lvgl/src/core/lv_obj_scroll.c ****             lv_anim_set_time(&a, t);
 1694              		.loc 1 317 44 discriminator 1 view .LVU474
 1695 0098 4FF4C870 		mov	r0, #400
 1696              	.LVL180:
 317:lvgl/src/core/lv_obj_scroll.c ****             lv_anim_set_time(&a, t);
 1697              		.loc 1 317 44 discriminator 1 view .LVU475
 1698 009c 00E0     		b	.L95
 1699              	.LVL181:
 1700              	.L99:
 316:lvgl/src/core/lv_obj_scroll.c ****             if(t > SCROLL_ANIM_TIME_MAX) t = SCROLL_ANIM_TIME_MAX;
 1701              		.loc 1 316 44 discriminator 1 view .LVU476
 1702 009e C820     		movs	r0, #200
 1703              	.LVL182:
ARM GAS  C:\usertemp\ccBZVumh.s 			page 63


 1704              	.L95:
 318:lvgl/src/core/lv_obj_scroll.c ****             lv_coord_t sx = lv_obj_get_scroll_x(obj);
 1705              		.loc 1 318 13 is_stmt 1 view .LVU477
 1706              	.LBB145:
 1707              	.LBI145:
 143:lvgl/src/core/../misc/lv_anim.h **** {
 1708              		.loc 3 143 20 view .LVU478
 1709              	.LBB146:
 145:lvgl/src/core/../misc/lv_anim.h **** }
 1710              		.loc 3 145 5 view .LVU479
 145:lvgl/src/core/../misc/lv_anim.h **** }
 1711              		.loc 3 145 13 is_stmt 0 view .LVU480
 1712 00a0 0A90     		str	r0, [sp, #40]
 1713              	.LVL183:
 145:lvgl/src/core/../misc/lv_anim.h **** }
 1714              		.loc 3 145 13 view .LVU481
 1715              	.LBE146:
 1716              	.LBE145:
 319:lvgl/src/core/lv_obj_scroll.c ****             lv_anim_set_values(&a, -sx, -sx + dx);
 1717              		.loc 1 319 13 is_stmt 1 view .LVU482
 319:lvgl/src/core/lv_obj_scroll.c ****             lv_anim_set_values(&a, -sx, -sx + dx);
 1718              		.loc 1 319 29 is_stmt 0 view .LVU483
 1719 00a2 2046     		mov	r0, r4
 1720              	.LVL184:
 319:lvgl/src/core/lv_obj_scroll.c ****             lv_anim_set_values(&a, -sx, -sx + dx);
 1721              		.loc 1 319 29 view .LVU484
 1722 00a4 FFF7FEFF 		bl	lv_obj_get_scroll_x
 1723              	.LVL185:
 320:lvgl/src/core/lv_obj_scroll.c ****             lv_anim_set_exec_cb(&a, scroll_x_anim);
 1724              		.loc 1 320 13 is_stmt 1 view .LVU485
 320:lvgl/src/core/lv_obj_scroll.c ****             lv_anim_set_exec_cb(&a, scroll_x_anim);
 1725              		.loc 1 320 36 is_stmt 0 view .LVU486
 1726 00a8 4342     		rsbs	r3, r0, #0
 320:lvgl/src/core/lv_obj_scroll.c ****             lv_anim_set_exec_cb(&a, scroll_x_anim);
 1727              		.loc 1 320 45 view .LVU487
 1728 00aa 281A     		subs	r0, r5, r0
 1729              	.LVL186:
 1730              	.LBB147:
 1731              	.LBI147:
 164:lvgl/src/core/../misc/lv_anim.h **** {
 1732              		.loc 3 164 20 is_stmt 1 view .LVU488
 1733              	.LBB148:
 166:lvgl/src/core/../misc/lv_anim.h ****     a->current_value = start;
 1734              		.loc 3 166 5 view .LVU489
 166:lvgl/src/core/../misc/lv_anim.h ****     a->current_value = start;
 1735              		.loc 3 166 20 is_stmt 0 view .LVU490
 1736 00ac 0793     		str	r3, [sp, #28]
 167:lvgl/src/core/../misc/lv_anim.h ****     a->end_value = end;
 1737              		.loc 3 167 5 is_stmt 1 view .LVU491
 167:lvgl/src/core/../misc/lv_anim.h ****     a->end_value = end;
 1738              		.loc 3 167 22 is_stmt 0 view .LVU492
 1739 00ae 0893     		str	r3, [sp, #32]
 168:lvgl/src/core/../misc/lv_anim.h **** }
 1740              		.loc 3 168 5 is_stmt 1 view .LVU493
 168:lvgl/src/core/../misc/lv_anim.h **** }
 1741              		.loc 3 168 18 is_stmt 0 view .LVU494
 1742 00b0 0990     		str	r0, [sp, #36]
ARM GAS  C:\usertemp\ccBZVumh.s 			page 64


 1743              	.LVL187:
 168:lvgl/src/core/../misc/lv_anim.h **** }
 1744              		.loc 3 168 18 view .LVU495
 1745              	.LBE148:
 1746              	.LBE147:
 321:lvgl/src/core/lv_obj_scroll.c ****             lv_anim_set_path_cb(&a, lv_anim_path_ease_out);
 1747              		.loc 1 321 13 is_stmt 1 view .LVU496
 1748              	.LBB149:
 1749              	.LBI149:
 133:lvgl/src/core/../misc/lv_anim.h **** {
 1750              		.loc 3 133 20 view .LVU497
 1751              	.LBB150:
 135:lvgl/src/core/../misc/lv_anim.h **** }
 1752              		.loc 3 135 5 view .LVU498
 135:lvgl/src/core/../misc/lv_anim.h **** }
 1753              		.loc 3 135 16 is_stmt 0 view .LVU499
 1754 00b2 184B     		ldr	r3, .L107+4
 1755              	.LVL188:
 135:lvgl/src/core/../misc/lv_anim.h **** }
 1756              		.loc 3 135 16 view .LVU500
 1757 00b4 0193     		str	r3, [sp, #4]
 1758              	.LVL189:
 135:lvgl/src/core/../misc/lv_anim.h **** }
 1759              		.loc 3 135 16 view .LVU501
 1760              	.LBE150:
 1761              	.LBE149:
 322:lvgl/src/core/lv_obj_scroll.c **** 
 1762              		.loc 1 322 13 is_stmt 1 view .LVU502
 1763              	.LBB151:
 1764              	.LBI151:
 191:lvgl/src/core/../misc/lv_anim.h **** {
 1765              		.loc 3 191 20 view .LVU503
 1766              	.LBB152:
 193:lvgl/src/core/../misc/lv_anim.h **** }
 1767              		.loc 3 193 5 view .LVU504
 193:lvgl/src/core/../misc/lv_anim.h **** }
 1768              		.loc 3 193 16 is_stmt 0 view .LVU505
 1769 00b6 194B     		ldr	r3, .L107+12
 1770 00b8 0693     		str	r3, [sp, #24]
 1771              	.LVL190:
 193:lvgl/src/core/../misc/lv_anim.h **** }
 1772              		.loc 3 193 16 view .LVU506
 1773              	.LBE152:
 1774              	.LBE151:
 324:lvgl/src/core/lv_obj_scroll.c ****             res = lv_event_send(obj, LV_EVENT_SCROLL_BEGIN, &a);
 1775              		.loc 1 324 13 is_stmt 1 view .LVU507
 325:lvgl/src/core/lv_obj_scroll.c ****             if(res != LV_RES_OK) return;
 1776              		.loc 1 325 13 view .LVU508
 325:lvgl/src/core/lv_obj_scroll.c ****             if(res != LV_RES_OK) return;
 1777              		.loc 1 325 19 is_stmt 0 view .LVU509
 1778 00ba 6A46     		mov	r2, sp
 1779 00bc 0921     		movs	r1, #9
 1780 00be 2046     		mov	r0, r4
 1781 00c0 FFF7FEFF 		bl	lv_event_send
 1782              	.LVL191:
 326:lvgl/src/core/lv_obj_scroll.c ****             lv_anim_start(&a);
 1783              		.loc 1 326 13 is_stmt 1 view .LVU510
ARM GAS  C:\usertemp\ccBZVumh.s 			page 65


 326:lvgl/src/core/lv_obj_scroll.c ****             lv_anim_start(&a);
 1784              		.loc 1 326 15 is_stmt 0 view .LVU511
 1785 00c4 0128     		cmp	r0, #1
 1786 00c6 B9D1     		bne	.L91
 327:lvgl/src/core/lv_obj_scroll.c ****         }
 1787              		.loc 1 327 13 is_stmt 1 view .LVU512
 1788 00c8 6846     		mov	r0, sp
 1789              	.LVL192:
 327:lvgl/src/core/lv_obj_scroll.c ****         }
 1790              		.loc 1 327 13 is_stmt 0 view .LVU513
 1791 00ca FFF7FEFF 		bl	lv_anim_start
 1792              	.LVL193:
 1793 00ce C2E7     		b	.L94
 1794              	.LVL194:
 1795              	.L101:
 327:lvgl/src/core/lv_obj_scroll.c ****         }
 1796              		.loc 1 327 13 view .LVU514
 1797              	.LBE144:
 1798              	.LBB153:
 332:lvgl/src/core/lv_obj_scroll.c ****             if(t > SCROLL_ANIM_TIME_MAX) t = SCROLL_ANIM_TIME_MAX;
 1799              		.loc 1 332 44 discriminator 1 view .LVU515
 1800 00d0 C820     		movs	r0, #200
 1801              	.LVL195:
 1802              	.L98:
 334:lvgl/src/core/lv_obj_scroll.c ****             lv_coord_t sy = lv_obj_get_scroll_y(obj);
 1803              		.loc 1 334 13 is_stmt 1 view .LVU516
 1804              	.LBB136:
 1805              	.LBI136:
 143:lvgl/src/core/../misc/lv_anim.h **** {
 1806              		.loc 3 143 20 view .LVU517
 1807              	.LBB137:
 145:lvgl/src/core/../misc/lv_anim.h **** }
 1808              		.loc 3 145 5 view .LVU518
 145:lvgl/src/core/../misc/lv_anim.h **** }
 1809              		.loc 3 145 13 is_stmt 0 view .LVU519
 1810 00d2 0A90     		str	r0, [sp, #40]
 1811              	.LVL196:
 145:lvgl/src/core/../misc/lv_anim.h **** }
 1812              		.loc 3 145 13 view .LVU520
 1813              	.LBE137:
 1814              	.LBE136:
 335:lvgl/src/core/lv_obj_scroll.c ****             lv_anim_set_values(&a, -sy, -sy + dy);
 1815              		.loc 1 335 13 is_stmt 1 view .LVU521
 335:lvgl/src/core/lv_obj_scroll.c ****             lv_anim_set_values(&a, -sy, -sy + dy);
 1816              		.loc 1 335 29 is_stmt 0 view .LVU522
 1817 00d4 2046     		mov	r0, r4
 1818              	.LVL197:
 335:lvgl/src/core/lv_obj_scroll.c ****             lv_anim_set_values(&a, -sy, -sy + dy);
 1819              		.loc 1 335 29 view .LVU523
 1820 00d6 FFF7FEFF 		bl	lv_obj_get_scroll_y
 1821              	.LVL198:
 336:lvgl/src/core/lv_obj_scroll.c ****             lv_anim_set_exec_cb(&a,  scroll_y_anim);
 1822              		.loc 1 336 13 is_stmt 1 view .LVU524
 336:lvgl/src/core/lv_obj_scroll.c ****             lv_anim_set_exec_cb(&a,  scroll_y_anim);
 1823              		.loc 1 336 36 is_stmt 0 view .LVU525
 1824 00da 4342     		rsbs	r3, r0, #0
 336:lvgl/src/core/lv_obj_scroll.c ****             lv_anim_set_exec_cb(&a,  scroll_y_anim);
ARM GAS  C:\usertemp\ccBZVumh.s 			page 66


 1825              		.loc 1 336 45 view .LVU526
 1826 00dc 301A     		subs	r0, r6, r0
 1827              	.LVL199:
 1828              	.LBB138:
 1829              	.LBI138:
 164:lvgl/src/core/../misc/lv_anim.h **** {
 1830              		.loc 3 164 20 is_stmt 1 view .LVU527
 1831              	.LBB139:
 166:lvgl/src/core/../misc/lv_anim.h ****     a->current_value = start;
 1832              		.loc 3 166 5 view .LVU528
 166:lvgl/src/core/../misc/lv_anim.h ****     a->current_value = start;
 1833              		.loc 3 166 20 is_stmt 0 view .LVU529
 1834 00de 0793     		str	r3, [sp, #28]
 167:lvgl/src/core/../misc/lv_anim.h ****     a->end_value = end;
 1835              		.loc 3 167 5 is_stmt 1 view .LVU530
 167:lvgl/src/core/../misc/lv_anim.h ****     a->end_value = end;
 1836              		.loc 3 167 22 is_stmt 0 view .LVU531
 1837 00e0 0893     		str	r3, [sp, #32]
 168:lvgl/src/core/../misc/lv_anim.h **** }
 1838              		.loc 3 168 5 is_stmt 1 view .LVU532
 168:lvgl/src/core/../misc/lv_anim.h **** }
 1839              		.loc 3 168 18 is_stmt 0 view .LVU533
 1840 00e2 0990     		str	r0, [sp, #36]
 1841              	.LVL200:
 168:lvgl/src/core/../misc/lv_anim.h **** }
 1842              		.loc 3 168 18 view .LVU534
 1843              	.LBE139:
 1844              	.LBE138:
 337:lvgl/src/core/lv_obj_scroll.c ****             lv_anim_set_path_cb(&a, lv_anim_path_ease_out);
 1845              		.loc 1 337 13 is_stmt 1 view .LVU535
 1846              	.LBB140:
 1847              	.LBI140:
 133:lvgl/src/core/../misc/lv_anim.h **** {
 1848              		.loc 3 133 20 view .LVU536
 1849              	.LBB141:
 135:lvgl/src/core/../misc/lv_anim.h **** }
 1850              		.loc 3 135 5 view .LVU537
 135:lvgl/src/core/../misc/lv_anim.h **** }
 1851              		.loc 3 135 16 is_stmt 0 view .LVU538
 1852 00e4 0A4B     		ldr	r3, .L107
 1853              	.LVL201:
 135:lvgl/src/core/../misc/lv_anim.h **** }
 1854              		.loc 3 135 16 view .LVU539
 1855 00e6 0193     		str	r3, [sp, #4]
 1856              	.LVL202:
 135:lvgl/src/core/../misc/lv_anim.h **** }
 1857              		.loc 3 135 16 view .LVU540
 1858              	.LBE141:
 1859              	.LBE140:
 338:lvgl/src/core/lv_obj_scroll.c **** 
 1860              		.loc 1 338 13 is_stmt 1 view .LVU541
 1861              	.LBB142:
 1862              	.LBI142:
 191:lvgl/src/core/../misc/lv_anim.h **** {
 1863              		.loc 3 191 20 view .LVU542
 1864              	.LBB143:
 193:lvgl/src/core/../misc/lv_anim.h **** }
ARM GAS  C:\usertemp\ccBZVumh.s 			page 67


 1865              		.loc 3 193 5 view .LVU543
 193:lvgl/src/core/../misc/lv_anim.h **** }
 1866              		.loc 3 193 16 is_stmt 0 view .LVU544
 1867 00e8 0C4B     		ldr	r3, .L107+12
 1868 00ea 0693     		str	r3, [sp, #24]
 1869              	.LVL203:
 193:lvgl/src/core/../misc/lv_anim.h **** }
 1870              		.loc 3 193 16 view .LVU545
 1871              	.LBE143:
 1872              	.LBE142:
 340:lvgl/src/core/lv_obj_scroll.c ****             res = lv_event_send(obj, LV_EVENT_SCROLL_BEGIN, &a);
 1873              		.loc 1 340 13 is_stmt 1 view .LVU546
 341:lvgl/src/core/lv_obj_scroll.c ****             if(res != LV_RES_OK) return;
 1874              		.loc 1 341 13 view .LVU547
 341:lvgl/src/core/lv_obj_scroll.c ****             if(res != LV_RES_OK) return;
 1875              		.loc 1 341 19 is_stmt 0 view .LVU548
 1876 00ec 6A46     		mov	r2, sp
 1877 00ee 0921     		movs	r1, #9
 1878 00f0 2046     		mov	r0, r4
 1879 00f2 FFF7FEFF 		bl	lv_event_send
 1880              	.LVL204:
 342:lvgl/src/core/lv_obj_scroll.c ****             lv_anim_start(&a);
 1881              		.loc 1 342 13 is_stmt 1 view .LVU549
 342:lvgl/src/core/lv_obj_scroll.c ****             lv_anim_start(&a);
 1882              		.loc 1 342 15 is_stmt 0 view .LVU550
 1883 00f6 0128     		cmp	r0, #1
 1884 00f8 A0D1     		bne	.L91
 343:lvgl/src/core/lv_obj_scroll.c ****         }
 1885              		.loc 1 343 13 is_stmt 1 view .LVU551
 1886 00fa 6846     		mov	r0, sp
 1887              	.LVL205:
 343:lvgl/src/core/lv_obj_scroll.c ****         }
 1888              		.loc 1 343 13 is_stmt 0 view .LVU552
 1889 00fc FFF7FEFF 		bl	lv_anim_start
 1890              	.LVL206:
 1891 0100 9CE7     		b	.L91
 1892              	.LVL207:
 1893              	.L105:
 343:lvgl/src/core/lv_obj_scroll.c ****         }
 1894              		.loc 1 343 13 view .LVU553
 1895              	.LBE153:
 1896              	.LBE130:
 1897              	.LBB154:
 1898              	.LBB129:
 352:lvgl/src/core/lv_obj_scroll.c ****             res = lv_event_send(obj, LV_EVENT_SCROLL_END, NULL);
 1899              		.loc 1 352 13 is_stmt 1 view .LVU554
 353:lvgl/src/core/lv_obj_scroll.c ****             if(res != LV_RES_OK) return;
 1900              		.loc 1 353 13 view .LVU555
 353:lvgl/src/core/lv_obj_scroll.c ****             if(res != LV_RES_OK) return;
 1901              		.loc 1 353 19 is_stmt 0 view .LVU556
 1902 0102 0022     		movs	r2, #0
 1903 0104 0A21     		movs	r1, #10
 1904 0106 2046     		mov	r0, r4
 1905 0108 FFF7FEFF 		bl	lv_event_send
 1906              	.LVL208:
 354:lvgl/src/core/lv_obj_scroll.c ****         }
 1907              		.loc 1 354 13 is_stmt 1 view .LVU557
ARM GAS  C:\usertemp\ccBZVumh.s 			page 68


 354:lvgl/src/core/lv_obj_scroll.c ****         }
 1908              		.loc 1 354 34 discriminator 1 view .LVU558
 1909 010c 96E7     		b	.L91
 1910              	.L108:
 1911 010e 00BF     		.align	2
 1912              	.L107:
 1913 0110 00000000 		.word	scroll_y_anim
 1914 0114 00000000 		.word	scroll_x_anim
 1915 0118 00000000 		.word	scroll_anim_ready_cb
 1916 011c 00000000 		.word	lv_anim_path_ease_out
 1917              	.LBE129:
 1918              	.LBE154:
 1919              		.cfi_endproc
 1920              	.LFE178:
 1922              		.section	.text.lv_obj_scroll_by_bounded,"ax",%progbits
 1923              		.align	1
 1924              		.global	lv_obj_scroll_by_bounded
 1925              		.syntax unified
 1926              		.thumb
 1927              		.thumb_func
 1929              	lv_obj_scroll_by_bounded:
 1930              	.LVL209:
 1931              	.LFB177:
 256:lvgl/src/core/lv_obj_scroll.c ****     if(dx == 0 && dy == 0) return;
 1932              		.loc 1 256 1 view -0
 1933              		.cfi_startproc
 1934              		@ args = 0, pretend = 0, frame = 0
 1935              		@ frame_needed = 0, uses_anonymous_args = 0
 256:lvgl/src/core/lv_obj_scroll.c ****     if(dx == 0 && dy == 0) return;
 1936              		.loc 1 256 1 is_stmt 0 view .LVU560
 1937 0000 2DE9F047 		push	{r4, r5, r6, r7, r8, r9, r10, lr}
 1938              	.LCFI16:
 1939              		.cfi_def_cfa_offset 32
 1940              		.cfi_offset 4, -32
 1941              		.cfi_offset 5, -28
 1942              		.cfi_offset 6, -24
 1943              		.cfi_offset 7, -20
 1944              		.cfi_offset 8, -16
 1945              		.cfi_offset 9, -12
 1946              		.cfi_offset 10, -8
 1947              		.cfi_offset 14, -4
 1948 0004 9846     		mov	r8, r3
 257:lvgl/src/core/lv_obj_scroll.c **** 
 1949              		.loc 1 257 5 is_stmt 1 view .LVU561
 257:lvgl/src/core/lv_obj_scroll.c **** 
 1950              		.loc 1 257 7 is_stmt 0 view .LVU562
 1951 0006 51EA0203 		orrs	r3, r1, r2
 1952              	.LVL210:
 257:lvgl/src/core/lv_obj_scroll.c **** 
 1953              		.loc 1 257 7 view .LVU563
 1954 000a 01D1     		bne	.L125
 1955              	.LVL211:
 1956              	.L109:
 301:lvgl/src/core/lv_obj_scroll.c **** 
 1957              		.loc 1 301 1 view .LVU564
 1958 000c BDE8F087 		pop	{r4, r5, r6, r7, r8, r9, r10, pc}
 1959              	.LVL212:
ARM GAS  C:\usertemp\ccBZVumh.s 			page 69


 1960              	.L125:
 301:lvgl/src/core/lv_obj_scroll.c **** 
 1961              		.loc 1 301 1 view .LVU565
 1962 0010 0646     		mov	r6, r0
 1963 0012 0D46     		mov	r5, r1
 1964 0014 1446     		mov	r4, r2
 260:lvgl/src/core/lv_obj_scroll.c **** 
 1965              		.loc 1 260 5 is_stmt 1 view .LVU566
 1966 0016 FFF7FEFF 		bl	lv_obj_update_layout
 1967              	.LVL213:
 263:lvgl/src/core/lv_obj_scroll.c ****     lv_coord_t x_bounded = x_current + dx;
 1968              		.loc 1 263 5 view .LVU567
 263:lvgl/src/core/lv_obj_scroll.c ****     lv_coord_t x_bounded = x_current + dx;
 1969              		.loc 1 263 29 is_stmt 0 view .LVU568
 1970 001a 3046     		mov	r0, r6
 1971 001c FFF7FEFF 		bl	lv_obj_get_scroll_x
 1972              	.LVL214:
 263:lvgl/src/core/lv_obj_scroll.c ****     lv_coord_t x_bounded = x_current + dx;
 1973              		.loc 1 263 29 discriminator 1 view .LVU569
 1974 0020 87B2     		uxth	r7, r0
 1975              	.LVL215:
 264:lvgl/src/core/lv_obj_scroll.c **** 
 1976              		.loc 1 264 5 is_stmt 1 view .LVU570
 264:lvgl/src/core/lv_obj_scroll.c **** 
 1977              		.loc 1 264 38 is_stmt 0 view .LVU571
 1978 0022 ADB2     		uxth	r5, r5
 264:lvgl/src/core/lv_obj_scroll.c **** 
 1979              		.loc 1 264 16 view .LVU572
 1980 0024 ED1B     		subs	r5, r5, r7
 1981 0026 2DB2     		sxth	r5, r5
 1982              	.LVL216:
 266:lvgl/src/core/lv_obj_scroll.c ****         if(x_bounded > 0) x_bounded = 0;
 1983              		.loc 1 266 5 is_stmt 1 view .LVU573
 1984              	.LBB155:
 1985              	.LBI155:
 542:lvgl/src/core/lv_obj_style_gen.h **** {
 1986              		.loc 2 542 29 view .LVU574
 1987              	.LBB156:
 544:lvgl/src/core/lv_obj_style_gen.h ****     return (lv_base_dir_t)v.num;
 1988              		.loc 2 544 5 view .LVU575
 544:lvgl/src/core/lv_obj_style_gen.h ****     return (lv_base_dir_t)v.num;
 1989              		.loc 2 544 26 is_stmt 0 view .LVU576
 1990 0028 41F26A42 		movw	r2, #5226
 1991 002c 0021     		movs	r1, #0
 1992 002e 3046     		mov	r0, r6
 1993 0030 FFF7FEFF 		bl	lv_obj_get_style_prop
 1994              	.LVL217:
 1995              		.loc 2 545 5 is_stmt 1 view .LVU577
 1996              		.loc 2 545 12 is_stmt 0 view .LVU578
 1997 0034 C0B2     		uxtb	r0, r0
 1998              	.LVL218:
 1999              		.loc 2 545 12 view .LVU579
 2000              	.LBE156:
 2001              	.LBE155:
 266:lvgl/src/core/lv_obj_scroll.c ****         if(x_bounded > 0) x_bounded = 0;
 2002              		.loc 1 266 7 discriminator 1 view .LVU580
 2003 0036 0128     		cmp	r0, #1
ARM GAS  C:\usertemp\ccBZVumh.s 			page 70


 2004 0038 32D0     		beq	.L111
 267:lvgl/src/core/lv_obj_scroll.c ****         if(x_bounded < 0) {
 2005              		.loc 1 267 9 is_stmt 1 view .LVU581
 267:lvgl/src/core/lv_obj_scroll.c ****         if(x_bounded < 0) {
 2006              		.loc 1 267 11 is_stmt 0 view .LVU582
 2007 003a 002D     		cmp	r5, #0
 2008 003c 1BDD     		ble	.L126
 267:lvgl/src/core/lv_obj_scroll.c ****         if(x_bounded < 0) {
 2009              		.loc 1 267 37 discriminator 1 view .LVU583
 2010 003e 0025     		movs	r5, #0
 2011              	.LVL219:
 2012              	.L112:
 286:lvgl/src/core/lv_obj_scroll.c ****     lv_coord_t y_bounded = y_current + dy;
 2013              		.loc 1 286 5 is_stmt 1 view .LVU584
 286:lvgl/src/core/lv_obj_scroll.c ****     lv_coord_t y_bounded = y_current + dy;
 2014              		.loc 1 286 29 is_stmt 0 view .LVU585
 2015 0040 3046     		mov	r0, r6
 2016 0042 FFF7FEFF 		bl	lv_obj_get_scroll_y
 2017              	.LVL220:
 286:lvgl/src/core/lv_obj_scroll.c ****     lv_coord_t y_bounded = y_current + dy;
 2018              		.loc 1 286 29 discriminator 1 view .LVU586
 2019 0046 1FFA80F9 		uxth	r9, r0
 2020              	.LVL221:
 287:lvgl/src/core/lv_obj_scroll.c **** 
 2021              		.loc 1 287 5 is_stmt 1 view .LVU587
 287:lvgl/src/core/lv_obj_scroll.c **** 
 2022              		.loc 1 287 38 is_stmt 0 view .LVU588
 2023 004a A4B2     		uxth	r4, r4
 287:lvgl/src/core/lv_obj_scroll.c **** 
 2024              		.loc 1 287 16 view .LVU589
 2025 004c A4EB0904 		sub	r4, r4, r9
 2026 0050 24B2     		sxth	r4, r4
 2027              	.LVL222:
 289:lvgl/src/core/lv_obj_scroll.c ****     if(y_bounded < 0) {
 2028              		.loc 1 289 5 is_stmt 1 view .LVU590
 289:lvgl/src/core/lv_obj_scroll.c ****     if(y_bounded < 0) {
 2029              		.loc 1 289 7 is_stmt 0 view .LVU591
 2030 0052 002C     		cmp	r4, #0
 2031 0054 3CDD     		ble	.L127
 289:lvgl/src/core/lv_obj_scroll.c ****     if(y_bounded < 0) {
 2032              		.loc 1 289 33 discriminator 1 view .LVU592
 2033 0056 0024     		movs	r4, #0
 2034              	.LVL223:
 2035              	.L115:
 296:lvgl/src/core/lv_obj_scroll.c ****     dy = y_bounded - y_current;
 2036              		.loc 1 296 5 is_stmt 1 view .LVU593
 296:lvgl/src/core/lv_obj_scroll.c ****     dy = y_bounded - y_current;
 2037              		.loc 1 296 20 is_stmt 0 view .LVU594
 2038 0058 2F44     		add	r7, r7, r5
 2039              	.LVL224:
 296:lvgl/src/core/lv_obj_scroll.c ****     dy = y_bounded - y_current;
 2040              		.loc 1 296 20 view .LVU595
 2041 005a BBB2     		uxth	r3, r7
 296:lvgl/src/core/lv_obj_scroll.c ****     dy = y_bounded - y_current;
 2042              		.loc 1 296 8 view .LVU596
 2043 005c 39B2     		sxth	r1, r7
 2044              	.LVL225:
ARM GAS  C:\usertemp\ccBZVumh.s 			page 71


 297:lvgl/src/core/lv_obj_scroll.c ****     if(dx || dy) {
 2045              		.loc 1 297 5 is_stmt 1 view .LVU597
 297:lvgl/src/core/lv_obj_scroll.c ****     if(dx || dy) {
 2046              		.loc 1 297 20 is_stmt 0 view .LVU598
 2047 005e A144     		add	r9, r9, r4
 2048              	.LVL226:
 297:lvgl/src/core/lv_obj_scroll.c ****     if(dx || dy) {
 2049              		.loc 1 297 20 view .LVU599
 2050 0060 1FFA89F0 		uxth	r0, r9
 297:lvgl/src/core/lv_obj_scroll.c ****     if(dx || dy) {
 2051              		.loc 1 297 8 view .LVU600
 2052 0064 0FFA89F2 		sxth	r2, r9
 2053              	.LVL227:
 298:lvgl/src/core/lv_obj_scroll.c ****         lv_obj_scroll_by(obj, dx, dy, anim_en);
 2054              		.loc 1 298 5 is_stmt 1 view .LVU601
 298:lvgl/src/core/lv_obj_scroll.c ****         lv_obj_scroll_by(obj, dx, dy, anim_en);
 2055              		.loc 1 298 7 is_stmt 0 view .LVU602
 2056 0068 0343     		orrs	r3, r3, r0
 2057 006a CFD0     		beq	.L109
 299:lvgl/src/core/lv_obj_scroll.c ****     }
 2058              		.loc 1 299 9 is_stmt 1 view .LVU603
 2059 006c 4346     		mov	r3, r8
 2060 006e 3046     		mov	r0, r6
 2061 0070 FFF7FEFF 		bl	lv_obj_scroll_by
 2062              	.LVL228:
 299:lvgl/src/core/lv_obj_scroll.c ****     }
 2063              		.loc 1 299 9 is_stmt 0 view .LVU604
 2064 0074 CAE7     		b	.L109
 2065              	.LVL229:
 2066              	.L126:
 268:lvgl/src/core/lv_obj_scroll.c ****             lv_coord_t  scroll_max = lv_obj_get_scroll_left(obj) + lv_obj_get_scroll_right(obj);
 2067              		.loc 1 268 9 is_stmt 1 view .LVU605
 268:lvgl/src/core/lv_obj_scroll.c ****             lv_coord_t  scroll_max = lv_obj_get_scroll_left(obj) + lv_obj_get_scroll_right(obj);
 2068              		.loc 1 268 11 is_stmt 0 view .LVU606
 2069 0076 E3DA     		bge	.L112
 2070              	.LBB157:
 269:lvgl/src/core/lv_obj_scroll.c ****             if(scroll_max < 0) scroll_max = 0;
 2071              		.loc 1 269 13 is_stmt 1 view .LVU607
 269:lvgl/src/core/lv_obj_scroll.c ****             if(scroll_max < 0) scroll_max = 0;
 2072              		.loc 1 269 38 is_stmt 0 view .LVU608
 2073 0078 3046     		mov	r0, r6
 2074 007a FFF7FEFF 		bl	lv_obj_get_scroll_left
 2075              	.LVL230:
 269:lvgl/src/core/lv_obj_scroll.c ****             if(scroll_max < 0) scroll_max = 0;
 2076              		.loc 1 269 38 discriminator 1 view .LVU609
 2077 007e 1FFA80F9 		uxth	r9, r0
 269:lvgl/src/core/lv_obj_scroll.c ****             if(scroll_max < 0) scroll_max = 0;
 2078              		.loc 1 269 68 discriminator 1 view .LVU610
 2079 0082 3046     		mov	r0, r6
 2080 0084 FFF7FEFF 		bl	lv_obj_get_scroll_right
 2081              	.LVL231:
 269:lvgl/src/core/lv_obj_scroll.c ****             if(scroll_max < 0) scroll_max = 0;
 2082              		.loc 1 269 66 discriminator 2 view .LVU611
 2083 0088 19FA80F3 		uxtah	r3, r9, r0
 269:lvgl/src/core/lv_obj_scroll.c ****             if(scroll_max < 0) scroll_max = 0;
 2084              		.loc 1 269 25 discriminator 2 view .LVU612
 2085 008c 1BB2     		sxth	r3, r3
ARM GAS  C:\usertemp\ccBZVumh.s 			page 72


 2086              	.LVL232:
 270:lvgl/src/core/lv_obj_scroll.c **** 
 2087              		.loc 1 270 13 is_stmt 1 view .LVU613
 270:lvgl/src/core/lv_obj_scroll.c **** 
 2088              		.loc 1 270 15 is_stmt 0 view .LVU614
 2089 008e 002B     		cmp	r3, #0
 2090 0090 04DB     		blt	.L128
 2091              	.LVL233:
 2092              	.L113:
 272:lvgl/src/core/lv_obj_scroll.c ****         }
 2093              		.loc 1 272 13 is_stmt 1 view .LVU615
 272:lvgl/src/core/lv_obj_scroll.c ****         }
 2094              		.loc 1 272 28 is_stmt 0 view .LVU616
 2095 0092 5A42     		rsbs	r2, r3, #0
 272:lvgl/src/core/lv_obj_scroll.c ****         }
 2096              		.loc 1 272 15 view .LVU617
 2097 0094 9542     		cmp	r5, r2
 2098 0096 D3DA     		bge	.L112
 272:lvgl/src/core/lv_obj_scroll.c ****         }
 2099              		.loc 1 272 41 is_stmt 1 discriminator 1 view .LVU618
 272:lvgl/src/core/lv_obj_scroll.c ****         }
 2100              		.loc 1 272 51 is_stmt 0 discriminator 1 view .LVU619
 2101 0098 15B2     		sxth	r5, r2
 2102              	.LVL234:
 272:lvgl/src/core/lv_obj_scroll.c ****         }
 2103              		.loc 1 272 51 discriminator 1 view .LVU620
 2104 009a D1E7     		b	.L112
 2105              	.L128:
 270:lvgl/src/core/lv_obj_scroll.c **** 
 2106              		.loc 1 270 43 discriminator 1 view .LVU621
 2107 009c 0023     		movs	r3, #0
 2108              	.LVL235:
 270:lvgl/src/core/lv_obj_scroll.c **** 
 2109              		.loc 1 270 43 discriminator 1 view .LVU622
 2110 009e F8E7     		b	.L113
 2111              	.LVL236:
 2112              	.L111:
 270:lvgl/src/core/lv_obj_scroll.c **** 
 2113              		.loc 1 270 43 discriminator 1 view .LVU623
 2114              	.LBE157:
 276:lvgl/src/core/lv_obj_scroll.c ****         if(x_bounded > 0) {
 2115              		.loc 1 276 9 is_stmt 1 view .LVU624
 276:lvgl/src/core/lv_obj_scroll.c ****         if(x_bounded > 0) {
 2116              		.loc 1 276 11 is_stmt 0 view .LVU625
 2117 00a0 002D     		cmp	r5, #0
 2118 00a2 13DB     		blt	.L119
 277:lvgl/src/core/lv_obj_scroll.c ****             lv_coord_t  scroll_max = lv_obj_get_scroll_left(obj) + lv_obj_get_scroll_right(obj);
 2119              		.loc 1 277 9 is_stmt 1 view .LVU626
 277:lvgl/src/core/lv_obj_scroll.c ****             lv_coord_t  scroll_max = lv_obj_get_scroll_left(obj) + lv_obj_get_scroll_right(obj);
 2120              		.loc 1 277 11 is_stmt 0 view .LVU627
 2121 00a4 CCDD     		ble	.L112
 2122              	.LBB158:
 278:lvgl/src/core/lv_obj_scroll.c ****             if(scroll_max < 0) scroll_max = 0;
 2123              		.loc 1 278 13 is_stmt 1 view .LVU628
 278:lvgl/src/core/lv_obj_scroll.c ****             if(scroll_max < 0) scroll_max = 0;
 2124              		.loc 1 278 38 is_stmt 0 view .LVU629
 2125 00a6 3046     		mov	r0, r6
ARM GAS  C:\usertemp\ccBZVumh.s 			page 73


 2126 00a8 FFF7FEFF 		bl	lv_obj_get_scroll_left
 2127              	.LVL237:
 278:lvgl/src/core/lv_obj_scroll.c ****             if(scroll_max < 0) scroll_max = 0;
 2128              		.loc 1 278 38 discriminator 1 view .LVU630
 2129 00ac 1FFA80F9 		uxth	r9, r0
 278:lvgl/src/core/lv_obj_scroll.c ****             if(scroll_max < 0) scroll_max = 0;
 2130              		.loc 1 278 68 discriminator 1 view .LVU631
 2131 00b0 3046     		mov	r0, r6
 2132 00b2 FFF7FEFF 		bl	lv_obj_get_scroll_right
 2133              	.LVL238:
 278:lvgl/src/core/lv_obj_scroll.c ****             if(scroll_max < 0) scroll_max = 0;
 2134              		.loc 1 278 66 discriminator 2 view .LVU632
 2135 00b6 19FA80F3 		uxtah	r3, r9, r0
 278:lvgl/src/core/lv_obj_scroll.c ****             if(scroll_max < 0) scroll_max = 0;
 2136              		.loc 1 278 25 discriminator 2 view .LVU633
 2137 00ba 1BB2     		sxth	r3, r3
 2138              	.LVL239:
 279:lvgl/src/core/lv_obj_scroll.c **** 
 2139              		.loc 1 279 13 is_stmt 1 view .LVU634
 279:lvgl/src/core/lv_obj_scroll.c **** 
 2140              		.loc 1 279 15 is_stmt 0 view .LVU635
 2141 00bc 002B     		cmp	r3, #0
 2142 00be 03DB     		blt	.L129
 2143              	.LVL240:
 2144              	.L114:
 281:lvgl/src/core/lv_obj_scroll.c ****         }
 2145              		.loc 1 281 13 is_stmt 1 view .LVU636
 281:lvgl/src/core/lv_obj_scroll.c ****         }
 2146              		.loc 1 281 15 is_stmt 0 view .LVU637
 2147 00c0 AB42     		cmp	r3, r5
 2148 00c2 BDDA     		bge	.L112
 281:lvgl/src/core/lv_obj_scroll.c ****         }
 2149              		.loc 1 281 50 discriminator 1 view .LVU638
 2150 00c4 1D46     		mov	r5, r3
 2151              	.LVL241:
 281:lvgl/src/core/lv_obj_scroll.c ****         }
 2152              		.loc 1 281 50 discriminator 1 view .LVU639
 2153 00c6 BBE7     		b	.L112
 2154              	.LVL242:
 2155              	.L129:
 279:lvgl/src/core/lv_obj_scroll.c **** 
 2156              		.loc 1 279 43 discriminator 1 view .LVU640
 2157 00c8 0023     		movs	r3, #0
 2158              	.LVL243:
 279:lvgl/src/core/lv_obj_scroll.c **** 
 2159              		.loc 1 279 43 discriminator 1 view .LVU641
 2160 00ca F9E7     		b	.L114
 2161              	.LVL244:
 2162              	.L119:
 279:lvgl/src/core/lv_obj_scroll.c **** 
 2163              		.loc 1 279 43 discriminator 1 view .LVU642
 2164              	.LBE158:
 276:lvgl/src/core/lv_obj_scroll.c ****         if(x_bounded > 0) {
 2165              		.loc 1 276 37 discriminator 1 view .LVU643
 2166 00cc 0025     		movs	r5, #0
 2167              	.LVL245:
 276:lvgl/src/core/lv_obj_scroll.c ****         if(x_bounded > 0) {
ARM GAS  C:\usertemp\ccBZVumh.s 			page 74


 2168              		.loc 1 276 37 discriminator 1 view .LVU644
 2169 00ce B7E7     		b	.L112
 2170              	.LVL246:
 2171              	.L127:
 290:lvgl/src/core/lv_obj_scroll.c ****         lv_coord_t  scroll_max = lv_obj_get_scroll_top(obj) + lv_obj_get_scroll_bottom(obj);
 2172              		.loc 1 290 5 is_stmt 1 view .LVU645
 290:lvgl/src/core/lv_obj_scroll.c ****         lv_coord_t  scroll_max = lv_obj_get_scroll_top(obj) + lv_obj_get_scroll_bottom(obj);
 2173              		.loc 1 290 7 is_stmt 0 view .LVU646
 2174 00d0 C2DA     		bge	.L115
 2175              	.LBB159:
 291:lvgl/src/core/lv_obj_scroll.c ****         if(scroll_max < 0) scroll_max = 0;
 2176              		.loc 1 291 9 is_stmt 1 view .LVU647
 291:lvgl/src/core/lv_obj_scroll.c ****         if(scroll_max < 0) scroll_max = 0;
 2177              		.loc 1 291 34 is_stmt 0 view .LVU648
 2178 00d2 3046     		mov	r0, r6
 2179 00d4 FFF7FEFF 		bl	lv_obj_get_scroll_top
 2180              	.LVL247:
 291:lvgl/src/core/lv_obj_scroll.c ****         if(scroll_max < 0) scroll_max = 0;
 2181              		.loc 1 291 34 discriminator 1 view .LVU649
 2182 00d8 1FFA80FA 		uxth	r10, r0
 291:lvgl/src/core/lv_obj_scroll.c ****         if(scroll_max < 0) scroll_max = 0;
 2183              		.loc 1 291 63 discriminator 1 view .LVU650
 2184 00dc 3046     		mov	r0, r6
 2185 00de FFF7FEFF 		bl	lv_obj_get_scroll_bottom
 2186              	.LVL248:
 291:lvgl/src/core/lv_obj_scroll.c ****         if(scroll_max < 0) scroll_max = 0;
 2187              		.loc 1 291 61 discriminator 2 view .LVU651
 2188 00e2 1AFA80F3 		uxtah	r3, r10, r0
 291:lvgl/src/core/lv_obj_scroll.c ****         if(scroll_max < 0) scroll_max = 0;
 2189              		.loc 1 291 21 discriminator 2 view .LVU652
 2190 00e6 1BB2     		sxth	r3, r3
 2191              	.LVL249:
 292:lvgl/src/core/lv_obj_scroll.c ****         if(y_bounded < -scroll_max) y_bounded = -scroll_max;
 2192              		.loc 1 292 9 is_stmt 1 view .LVU653
 292:lvgl/src/core/lv_obj_scroll.c ****         if(y_bounded < -scroll_max) y_bounded = -scroll_max;
 2193              		.loc 1 292 11 is_stmt 0 view .LVU654
 2194 00e8 002B     		cmp	r3, #0
 2195 00ea 04DB     		blt	.L130
 2196              	.LVL250:
 2197              	.L116:
 293:lvgl/src/core/lv_obj_scroll.c ****     }
 2198              		.loc 1 293 9 is_stmt 1 view .LVU655
 293:lvgl/src/core/lv_obj_scroll.c ****     }
 2199              		.loc 1 293 24 is_stmt 0 view .LVU656
 2200 00ec 5A42     		rsbs	r2, r3, #0
 293:lvgl/src/core/lv_obj_scroll.c ****     }
 2201              		.loc 1 293 11 view .LVU657
 2202 00ee 9442     		cmp	r4, r2
 2203 00f0 B2DA     		bge	.L115
 293:lvgl/src/core/lv_obj_scroll.c ****     }
 2204              		.loc 1 293 37 is_stmt 1 discriminator 1 view .LVU658
 293:lvgl/src/core/lv_obj_scroll.c ****     }
 2205              		.loc 1 293 47 is_stmt 0 discriminator 1 view .LVU659
 2206 00f2 14B2     		sxth	r4, r2
 2207              	.LVL251:
 293:lvgl/src/core/lv_obj_scroll.c ****     }
 2208              		.loc 1 293 47 discriminator 1 view .LVU660
ARM GAS  C:\usertemp\ccBZVumh.s 			page 75


 2209 00f4 B0E7     		b	.L115
 2210              	.L130:
 292:lvgl/src/core/lv_obj_scroll.c ****         if(y_bounded < -scroll_max) y_bounded = -scroll_max;
 2211              		.loc 1 292 39 discriminator 1 view .LVU661
 2212 00f6 0023     		movs	r3, #0
 2213              	.LVL252:
 292:lvgl/src/core/lv_obj_scroll.c ****         if(y_bounded < -scroll_max) y_bounded = -scroll_max;
 2214              		.loc 1 292 39 discriminator 1 view .LVU662
 2215 00f8 F8E7     		b	.L116
 2216              	.LBE159:
 2217              		.cfi_endproc
 2218              	.LFE177:
 2220              		.section	.text.scroll_area_into_view,"ax",%progbits
 2221              		.align	1
 2222              		.syntax unified
 2223              		.thumb
 2224              		.thumb_func
 2226              	scroll_area_into_view:
 2227              	.LVL253:
 2228              	.LFB193:
 680:lvgl/src/core/lv_obj_scroll.c **** 
 681:lvgl/src/core/lv_obj_scroll.c **** static void scroll_area_into_view(const lv_area_t * area, lv_obj_t * child, lv_point_t * scroll_val
 682:lvgl/src/core/lv_obj_scroll.c ****                                   lv_anim_enable_t anim_en)
 683:lvgl/src/core/lv_obj_scroll.c **** {
 2229              		.loc 1 683 1 is_stmt 1 view -0
 2230              		.cfi_startproc
 2231              		@ args = 0, pretend = 0, frame = 32
 2232              		@ frame_needed = 0, uses_anonymous_args = 0
 2233              		.loc 1 683 1 is_stmt 0 view .LVU664
 2234 0000 2DE9F04F 		push	{r4, r5, r6, r7, r8, r9, r10, fp, lr}
 2235              	.LCFI17:
 2236              		.cfi_def_cfa_offset 36
 2237              		.cfi_offset 4, -36
 2238              		.cfi_offset 5, -32
 2239              		.cfi_offset 6, -28
 2240              		.cfi_offset 7, -24
 2241              		.cfi_offset 8, -20
 2242              		.cfi_offset 9, -16
 2243              		.cfi_offset 10, -12
 2244              		.cfi_offset 11, -8
 2245              		.cfi_offset 14, -4
 2246 0004 89B0     		sub	sp, sp, #36
 2247              	.LCFI18:
 2248              		.cfi_def_cfa_offset 72
 2249 0006 8146     		mov	r9, r0
 2250 0008 0D46     		mov	r5, r1
 2251 000a 0491     		str	r1, [sp, #16]
 2252 000c 9046     		mov	r8, r2
 2253 000e 0293     		str	r3, [sp, #8]
 684:lvgl/src/core/lv_obj_scroll.c ****     lv_obj_t * parent = lv_obj_get_parent(child);
 2254              		.loc 1 684 5 is_stmt 1 view .LVU665
 2255              		.loc 1 684 25 is_stmt 0 view .LVU666
 2256 0010 0846     		mov	r0, r1
 2257              	.LVL254:
 2258              		.loc 1 684 25 view .LVU667
 2259 0012 FFF7FEFF 		bl	lv_obj_get_parent
 2260              	.LVL255:
ARM GAS  C:\usertemp\ccBZVumh.s 			page 76


 2261              		.loc 1 684 25 view .LVU668
 2262 0016 0446     		mov	r4, r0
 2263              	.LVL256:
 685:lvgl/src/core/lv_obj_scroll.c ****     if(!lv_obj_has_flag(parent, LV_OBJ_FLAG_SCROLLABLE)) return;
 2264              		.loc 1 685 5 is_stmt 1 view .LVU669
 2265              		.loc 1 685 9 is_stmt 0 view .LVU670
 2266 0018 1021     		movs	r1, #16
 2267 001a FFF7FEFF 		bl	lv_obj_has_flag
 2268              	.LVL257:
 2269              		.loc 1 685 7 discriminator 1 view .LVU671
 2270 001e 0028     		cmp	r0, #0
 2271 0020 00F09381 		beq	.L131
 686:lvgl/src/core/lv_obj_scroll.c **** 
 687:lvgl/src/core/lv_obj_scroll.c ****     lv_dir_t scroll_dir = lv_obj_get_scroll_dir(parent);
 2272              		.loc 1 687 5 is_stmt 1 view .LVU672
 2273              		.loc 1 687 27 is_stmt 0 view .LVU673
 2274 0024 2046     		mov	r0, r4
 2275 0026 FFF7FEFF 		bl	lv_obj_get_scroll_dir
 2276              	.LVL258:
 2277 002a 0190     		str	r0, [sp, #4]
 2278              	.LVL259:
 688:lvgl/src/core/lv_obj_scroll.c ****     lv_coord_t snap_goal = 0;
 2279              		.loc 1 688 5 is_stmt 1 view .LVU674
 689:lvgl/src/core/lv_obj_scroll.c ****     lv_coord_t act = 0;
 2280              		.loc 1 689 5 view .LVU675
 690:lvgl/src/core/lv_obj_scroll.c ****     const lv_area_t * area_tmp;
 2281              		.loc 1 690 5 view .LVU676
 691:lvgl/src/core/lv_obj_scroll.c **** 
 692:lvgl/src/core/lv_obj_scroll.c ****     lv_coord_t y_scroll = 0;
 2282              		.loc 1 692 5 view .LVU677
 693:lvgl/src/core/lv_obj_scroll.c ****     lv_scroll_snap_t snap_y = lv_obj_get_scroll_snap_y(parent);
 2283              		.loc 1 693 5 view .LVU678
 2284              		.loc 1 693 31 is_stmt 0 view .LVU679
 2285 002c 2046     		mov	r0, r4
 2286 002e FFF7FEFF 		bl	lv_obj_get_scroll_snap_y
 2287              	.LVL260:
 694:lvgl/src/core/lv_obj_scroll.c ****     if(snap_y != LV_SCROLL_SNAP_NONE) area_tmp = &child->coords;
 2288              		.loc 1 694 5 is_stmt 1 view .LVU680
 2289              		.loc 1 694 7 is_stmt 0 view .LVU681
 2290 0032 0590     		str	r0, [sp, #20]
 2291 0034 0028     		cmp	r0, #0
 2292 0036 4BD0     		beq	.L156
 2293              		.loc 1 694 39 is_stmt 1 discriminator 1 view .LVU682
 2294              		.loc 1 694 48 is_stmt 0 discriminator 1 view .LVU683
 2295 0038 05F1140A 		add	r10, r5, #20
 2296              	.LVL261:
 2297              	.L133:
 695:lvgl/src/core/lv_obj_scroll.c ****     else area_tmp = area;
 696:lvgl/src/core/lv_obj_scroll.c **** 
 697:lvgl/src/core/lv_obj_scroll.c ****     lv_coord_t border_width = lv_obj_get_style_border_width(parent, LV_PART_MAIN);
 2298              		.loc 1 697 5 is_stmt 1 view .LVU684
 2299              	.LBB160:
 2300              	.LBI160:
 241:lvgl/src/core/lv_obj_style_gen.h **** {
 2301              		.loc 2 241 26 view .LVU685
 2302              	.LBB161:
 243:lvgl/src/core/lv_obj_style_gen.h ****     return (lv_coord_t)v.num;
ARM GAS  C:\usertemp\ccBZVumh.s 			page 77


 2303              		.loc 2 243 5 view .LVU686
 243:lvgl/src/core/lv_obj_style_gen.h ****     return (lv_coord_t)v.num;
 2304              		.loc 2 243 26 is_stmt 0 view .LVU687
 2305 003c 41F23202 		movw	r2, #4146
 2306 0040 0021     		movs	r1, #0
 2307 0042 2046     		mov	r0, r4
 2308              	.LVL262:
 243:lvgl/src/core/lv_obj_style_gen.h ****     return (lv_coord_t)v.num;
 2309              		.loc 2 243 26 view .LVU688
 2310 0044 FFF7FEFF 		bl	lv_obj_get_style_prop
 2311              	.LVL263:
 2312 0048 0546     		mov	r5, r0
 2313              	.LVL264:
 244:lvgl/src/core/lv_obj_style_gen.h **** }
 2314              		.loc 2 244 5 is_stmt 1 view .LVU689
 244:lvgl/src/core/lv_obj_style_gen.h **** }
 2315              		.loc 2 244 5 is_stmt 0 view .LVU690
 2316              	.LBE161:
 2317              	.LBE160:
 698:lvgl/src/core/lv_obj_scroll.c ****     lv_coord_t ptop = lv_obj_get_style_pad_top(parent, LV_PART_MAIN) + border_width;
 2318              		.loc 1 698 5 is_stmt 1 view .LVU691
 2319              	.LBB162:
 2320              	.LBI162:
  91:lvgl/src/core/lv_obj_style_gen.h **** {
 2321              		.loc 2 91 26 view .LVU692
 2322              	.LBB163:
  93:lvgl/src/core/lv_obj_style_gen.h ****     return (lv_coord_t)v.num;
 2323              		.loc 2 93 5 view .LVU693
  93:lvgl/src/core/lv_obj_style_gen.h ****     return (lv_coord_t)v.num;
 2324              		.loc 2 93 26 is_stmt 0 view .LVU694
 2325 004a 41F61002 		movw	r2, #6160
 2326 004e 0021     		movs	r1, #0
 2327 0050 2046     		mov	r0, r4
 2328 0052 FFF7FEFF 		bl	lv_obj_get_style_prop
 2329              	.LVL265:
  94:lvgl/src/core/lv_obj_style_gen.h **** }
 2330              		.loc 2 94 5 is_stmt 1 view .LVU695
  94:lvgl/src/core/lv_obj_style_gen.h **** }
 2331              		.loc 2 94 5 is_stmt 0 view .LVU696
 2332              	.LBE163:
 2333              	.LBE162:
 2334              		.loc 1 698 70 discriminator 1 view .LVU697
 2335 0056 ADB2     		uxth	r5, r5
 2336              		.loc 1 698 70 discriminator 1 view .LVU698
 2337 0058 15FA80F7 		uxtah	r7, r5, r0
 2338 005c BFB2     		uxth	r7, r7
 2339              	.LVL266:
 699:lvgl/src/core/lv_obj_scroll.c ****     lv_coord_t pbottom = lv_obj_get_style_pad_bottom(parent, LV_PART_MAIN) + border_width;
 2340              		.loc 1 699 5 is_stmt 1 view .LVU699
 2341              	.LBB164:
 2342              	.LBI164:
  97:lvgl/src/core/lv_obj_style_gen.h **** {
 2343              		.loc 2 97 26 view .LVU700
 2344              	.LBB165:
  99:lvgl/src/core/lv_obj_style_gen.h ****     return (lv_coord_t)v.num;
 2345              		.loc 2 99 5 view .LVU701
  99:lvgl/src/core/lv_obj_style_gen.h ****     return (lv_coord_t)v.num;
ARM GAS  C:\usertemp\ccBZVumh.s 			page 78


 2346              		.loc 2 99 26 is_stmt 0 view .LVU702
 2347 005e 41F61102 		movw	r2, #6161
 2348 0062 0021     		movs	r1, #0
 2349 0064 2046     		mov	r0, r4
 2350 0066 FFF7FEFF 		bl	lv_obj_get_style_prop
 2351              	.LVL267:
 100:lvgl/src/core/lv_obj_style_gen.h **** }
 2352              		.loc 2 100 5 is_stmt 1 view .LVU703
 100:lvgl/src/core/lv_obj_style_gen.h **** }
 2353              		.loc 2 100 5 is_stmt 0 view .LVU704
 2354              	.LBE165:
 2355              	.LBE164:
 2356              		.loc 1 699 76 discriminator 1 view .LVU705
 2357 006a 15FA80F0 		uxtah	r0, r5, r0
 2358 006e 1FFA80FB 		uxth	fp, r0
 2359              	.LVL268:
 700:lvgl/src/core/lv_obj_scroll.c ****     lv_coord_t top_diff = parent->coords.y1 + ptop - area_tmp->y1 - scroll_value->y;
 2360              		.loc 1 700 5 is_stmt 1 view .LVU706
 2361              		.loc 1 700 41 is_stmt 0 view .LVU707
 2362 0072 E68A     		ldrh	r6, [r4, #22]
 2363              		.loc 1 700 45 view .LVU708
 2364 0074 3E44     		add	r6, r6, r7
 2365 0076 B6B2     		uxth	r6, r6
 2366              		.loc 1 700 62 view .LVU709
 2367 0078 BAF80230 		ldrh	r3, [r10, #2]
 2368              		.loc 1 700 52 view .LVU710
 2369 007c F61A     		subs	r6, r6, r3
 2370 007e B6B2     		uxth	r6, r6
 2371              		.loc 1 700 81 view .LVU711
 2372 0080 B8F80230 		ldrh	r3, [r8, #2]
 2373              		.loc 1 700 67 view .LVU712
 2374 0084 F61A     		subs	r6, r6, r3
 2375              		.loc 1 700 16 view .LVU713
 2376 0086 36B2     		sxth	r6, r6
 2377              	.LVL269:
 701:lvgl/src/core/lv_obj_scroll.c ****     lv_coord_t bottom_diff = -(parent->coords.y2 - pbottom - area_tmp->y2 - scroll_value->y);
 2378              		.loc 1 701 5 is_stmt 1 view .LVU714
 2379              		.loc 1 701 70 is_stmt 0 view .LVU715
 2380 0088 BAF80620 		ldrh	r2, [r10, #6]
 2381              		.loc 1 701 46 view .LVU716
 2382 008c 618B     		ldrh	r1, [r4, #26]
 2383              		.loc 1 701 30 view .LVU717
 2384 008e ABEB0101 		sub	r1, fp, r1
 2385 0092 0A44     		add	r2, r2, r1
 2386 0094 1344     		add	r3, r3, r2
 2387 0096 9AB2     		uxth	r2, r3
 2388 0098 0792     		str	r2, [sp, #28]
 2389              		.loc 1 701 16 view .LVU718
 2390 009a 1BB2     		sxth	r3, r3
 2391 009c 0393     		str	r3, [sp, #12]
 2392              	.LVL270:
 702:lvgl/src/core/lv_obj_scroll.c ****     lv_coord_t parent_h = lv_obj_get_height(parent) - ptop - pbottom;
 2393              		.loc 1 702 5 is_stmt 1 view .LVU719
 2394              		.loc 1 702 27 is_stmt 0 view .LVU720
 2395 009e 2046     		mov	r0, r4
 2396 00a0 FFF7FEFF 		bl	lv_obj_get_height
 2397              	.LVL271:
ARM GAS  C:\usertemp\ccBZVumh.s 			page 79


 2398              		.loc 1 702 27 discriminator 1 view .LVU721
 2399 00a4 83B2     		uxth	r3, r0
 2400              		.loc 1 702 53 discriminator 1 view .LVU722
 2401 00a6 DB1B     		subs	r3, r3, r7
 2402 00a8 9BB2     		uxth	r3, r3
 2403              		.loc 1 702 60 discriminator 1 view .LVU723
 2404 00aa A3EB0B03 		sub	r3, r3, fp
 2405              		.loc 1 702 16 discriminator 1 view .LVU724
 2406 00ae 1AB2     		sxth	r2, r3
 2407 00b0 0692     		str	r2, [sp, #24]
 2408              	.LVL272:
 703:lvgl/src/core/lv_obj_scroll.c ****     if((top_diff >= 0 && bottom_diff >= 0)) y_scroll = 0;
 2409              		.loc 1 703 5 is_stmt 1 view .LVU725
 2410              		.loc 1 703 7 is_stmt 0 view .LVU726
 2411 00b2 039B     		ldr	r3, [sp, #12]
 2412 00b4 002E     		cmp	r6, #0
 2413 00b6 A8BF     		it	ge
 2414 00b8 002B     		cmpge	r3, #0
 2415 00ba 1ADA     		bge	.L157
 704:lvgl/src/core/lv_obj_scroll.c ****     else if(top_diff > 0) {
 2416              		.loc 1 704 10 is_stmt 1 view .LVU727
 2417              		.loc 1 704 12 is_stmt 0 view .LVU728
 2418 00bc 002E     		cmp	r6, #0
 2419 00be 09DD     		ble	.L135
 2420              	.LBB166:
 705:lvgl/src/core/lv_obj_scroll.c ****         y_scroll = top_diff;
 2421              		.loc 1 705 9 is_stmt 1 view .LVU729
 2422              	.LVL273:
 706:lvgl/src/core/lv_obj_scroll.c ****         /*Do not let scrolling in*/
 707:lvgl/src/core/lv_obj_scroll.c ****         lv_coord_t st = lv_obj_get_scroll_top(parent);
 2423              		.loc 1 707 9 view .LVU730
 2424              		.loc 1 707 25 is_stmt 0 view .LVU731
 2425 00c0 2046     		mov	r0, r4
 2426 00c2 FFF7FEFF 		bl	lv_obj_get_scroll_top
 2427              	.LVL274:
 708:lvgl/src/core/lv_obj_scroll.c ****         if(st - y_scroll < 0) y_scroll = 0;
 2428              		.loc 1 708 9 is_stmt 1 view .LVU732
 2429              		.loc 1 708 15 is_stmt 0 view .LVU733
 2430 00c6 801B     		subs	r0, r0, r6
 2431              	.LVL275:
 2432              		.loc 1 708 11 view .LVU734
 2433 00c8 0028     		cmp	r0, #0
 2434 00ca 13DA     		bge	.L134
 2435              		.loc 1 708 40 discriminator 1 view .LVU735
 2436 00cc 0026     		movs	r6, #0
 2437              	.LVL276:
 2438              		.loc 1 708 40 discriminator 1 view .LVU736
 2439 00ce 11E0     		b	.L134
 2440              	.LVL277:
 2441              	.L156:
 2442              		.loc 1 708 40 discriminator 1 view .LVU737
 2443              	.LBE166:
 695:lvgl/src/core/lv_obj_scroll.c **** 
 2444              		.loc 1 695 19 view .LVU738
 2445 00d0 CA46     		mov	r10, r9
 2446 00d2 B3E7     		b	.L133
 2447              	.LVL278:
ARM GAS  C:\usertemp\ccBZVumh.s 			page 80


 2448              	.L135:
 709:lvgl/src/core/lv_obj_scroll.c ****     }
 710:lvgl/src/core/lv_obj_scroll.c ****     else if(bottom_diff > 0) {
 2449              		.loc 1 710 10 is_stmt 1 view .LVU739
 2450              		.loc 1 710 12 is_stmt 0 view .LVU740
 2451 00d4 039B     		ldr	r3, [sp, #12]
 2452 00d6 002B     		cmp	r3, #0
 2453 00d8 01DC     		bgt	.L172
 692:lvgl/src/core/lv_obj_scroll.c ****     lv_scroll_snap_t snap_y = lv_obj_get_scroll_snap_y(parent);
 2454              		.loc 1 692 16 view .LVU741
 2455 00da 0026     		movs	r6, #0
 2456              	.LVL279:
 692:lvgl/src/core/lv_obj_scroll.c ****     lv_scroll_snap_t snap_y = lv_obj_get_scroll_snap_y(parent);
 2457              		.loc 1 692 16 view .LVU742
 2458 00dc 0AE0     		b	.L134
 2459              	.LVL280:
 2460              	.L172:
 2461              	.LBB167:
 711:lvgl/src/core/lv_obj_scroll.c ****         y_scroll = -bottom_diff;
 2462              		.loc 1 711 9 is_stmt 1 view .LVU743
 2463              		.loc 1 711 18 is_stmt 0 view .LVU744
 2464 00de 079B     		ldr	r3, [sp, #28]
 2465 00e0 5B42     		rsbs	r3, r3, #0
 2466 00e2 1EB2     		sxth	r6, r3
 2467              	.LVL281:
 712:lvgl/src/core/lv_obj_scroll.c ****         /*Do not let scrolling in*/
 713:lvgl/src/core/lv_obj_scroll.c ****         lv_coord_t sb = lv_obj_get_scroll_bottom(parent);
 2468              		.loc 1 713 9 is_stmt 1 view .LVU745
 2469              		.loc 1 713 25 is_stmt 0 view .LVU746
 2470 00e4 2046     		mov	r0, r4
 2471 00e6 FFF7FEFF 		bl	lv_obj_get_scroll_bottom
 2472              	.LVL282:
 714:lvgl/src/core/lv_obj_scroll.c ****         if(sb + y_scroll < 0) y_scroll = 0;
 2473              		.loc 1 714 9 is_stmt 1 view .LVU747
 2474              		.loc 1 714 11 is_stmt 0 view .LVU748
 2475 00ea F042     		cmn	r0, r6
 2476 00ec 02D5     		bpl	.L134
 2477              		.loc 1 714 40 discriminator 1 view .LVU749
 2478 00ee 0026     		movs	r6, #0
 2479              	.LVL283:
 2480              		.loc 1 714 40 discriminator 1 view .LVU750
 2481 00f0 00E0     		b	.L134
 2482              	.LVL284:
 2483              	.L157:
 2484              		.loc 1 714 40 discriminator 1 view .LVU751
 2485              	.LBE167:
 703:lvgl/src/core/lv_obj_scroll.c ****     else if(top_diff > 0) {
 2486              		.loc 1 703 54 discriminator 1 view .LVU752
 2487 00f2 0026     		movs	r6, #0
 2488              	.LVL285:
 2489              	.L134:
 715:lvgl/src/core/lv_obj_scroll.c ****     }
 716:lvgl/src/core/lv_obj_scroll.c **** 
 717:lvgl/src/core/lv_obj_scroll.c ****     switch(snap_y) {
 2490              		.loc 1 717 5 is_stmt 1 view .LVU753
 2491 00f4 059B     		ldr	r3, [sp, #20]
 2492 00f6 022B     		cmp	r3, #2
ARM GAS  C:\usertemp\ccBZVumh.s 			page 81


 2493 00f8 48D0     		beq	.L136
 2494 00fa 032B     		cmp	r3, #3
 2495 00fc 54D0     		beq	.L137
 2496 00fe 012B     		cmp	r3, #1
 2497 0100 0BD1     		bne	.L138
 718:lvgl/src/core/lv_obj_scroll.c ****         case LV_SCROLL_SNAP_START:
 719:lvgl/src/core/lv_obj_scroll.c ****             snap_goal = parent->coords.y1 + ptop;
 2498              		.loc 1 719 13 view .LVU754
 2499              		.loc 1 719 39 is_stmt 0 view .LVU755
 2500 0102 E38A     		ldrh	r3, [r4, #22]
 2501              		.loc 1 719 43 view .LVU756
 2502 0104 3B44     		add	r3, r3, r7
 2503 0106 9BB2     		uxth	r3, r3
 2504              	.LVL286:
 720:lvgl/src/core/lv_obj_scroll.c ****             act = area_tmp->y1 + y_scroll;
 2505              		.loc 1 720 13 is_stmt 1 view .LVU757
 2506              		.loc 1 720 27 is_stmt 0 view .LVU758
 2507 0108 BAF80220 		ldrh	r2, [r10, #2]
 2508              		.loc 1 720 32 view .LVU759
 2509 010c B6B2     		uxth	r6, r6
 2510              		.loc 1 720 32 view .LVU760
 2511 010e 3244     		add	r2, r2, r6
 2512 0110 92B2     		uxth	r2, r2
 2513              	.LVL287:
 721:lvgl/src/core/lv_obj_scroll.c ****             y_scroll += snap_goal - act;
 2514              		.loc 1 721 13 is_stmt 1 view .LVU761
 2515              		.loc 1 721 35 is_stmt 0 view .LVU762
 2516 0112 9B1A     		subs	r3, r3, r2
 2517              	.LVL288:
 2518              		.loc 1 721 22 view .LVU763
 2519 0114 16FA83F3 		uxtah	r3, r6, r3
 2520 0118 1EB2     		sxth	r6, r3
 2521              	.LVL289:
 722:lvgl/src/core/lv_obj_scroll.c ****             break;
 2522              		.loc 1 722 13 is_stmt 1 view .LVU764
 2523              	.L138:
 723:lvgl/src/core/lv_obj_scroll.c ****         case LV_SCROLL_SNAP_END:
 724:lvgl/src/core/lv_obj_scroll.c ****             snap_goal = parent->coords.y2 - pbottom;
 725:lvgl/src/core/lv_obj_scroll.c ****             act = area_tmp->y2 + y_scroll;
 726:lvgl/src/core/lv_obj_scroll.c ****             y_scroll += snap_goal - act;
 727:lvgl/src/core/lv_obj_scroll.c ****             break;
 728:lvgl/src/core/lv_obj_scroll.c ****         case LV_SCROLL_SNAP_CENTER:
 729:lvgl/src/core/lv_obj_scroll.c ****             snap_goal = parent->coords.y1 + ptop + parent_h / 2;
 730:lvgl/src/core/lv_obj_scroll.c ****             act = lv_area_get_height(area_tmp) / 2 + area_tmp->y1 + y_scroll;
 731:lvgl/src/core/lv_obj_scroll.c ****             y_scroll += snap_goal - act;
 732:lvgl/src/core/lv_obj_scroll.c ****             break;
 733:lvgl/src/core/lv_obj_scroll.c ****     }
 734:lvgl/src/core/lv_obj_scroll.c **** 
 735:lvgl/src/core/lv_obj_scroll.c ****     lv_coord_t x_scroll = 0;
 2524              		.loc 1 735 5 view .LVU765
 736:lvgl/src/core/lv_obj_scroll.c ****     lv_scroll_snap_t snap_x = lv_obj_get_scroll_snap_x(parent);
 2525              		.loc 1 736 5 view .LVU766
 2526              		.loc 1 736 31 is_stmt 0 view .LVU767
 2527 011a 2046     		mov	r0, r4
 2528 011c FFF7FEFF 		bl	lv_obj_get_scroll_snap_x
 2529              	.LVL290:
 737:lvgl/src/core/lv_obj_scroll.c ****     if(snap_x != LV_SCROLL_SNAP_NONE) area_tmp = &child->coords;
ARM GAS  C:\usertemp\ccBZVumh.s 			page 82


 2530              		.loc 1 737 5 is_stmt 1 view .LVU768
 2531              		.loc 1 737 7 is_stmt 0 view .LVU769
 2532 0120 8346     		mov	fp, r0
 2533              	.LVL291:
 2534              		.loc 1 737 7 view .LVU770
 2535 0122 10B1     		cbz	r0, .L141
 2536              		.loc 1 737 39 is_stmt 1 discriminator 1 view .LVU771
 2537              		.loc 1 737 48 is_stmt 0 discriminator 1 view .LVU772
 2538 0124 049B     		ldr	r3, [sp, #16]
 2539 0126 03F11409 		add	r9, r3, #20
 2540              	.LVL292:
 2541              	.L141:
 738:lvgl/src/core/lv_obj_scroll.c ****     else area_tmp = area;
 739:lvgl/src/core/lv_obj_scroll.c **** 
 740:lvgl/src/core/lv_obj_scroll.c ****     lv_coord_t pleft = lv_obj_get_style_pad_left(parent, LV_PART_MAIN) + border_width;
 2542              		.loc 1 740 5 is_stmt 1 view .LVU773
 2543              	.LBB168:
 2544              	.LBI168:
 103:lvgl/src/core/lv_obj_style_gen.h **** {
 2545              		.loc 2 103 26 view .LVU774
 2546              	.LBB169:
 105:lvgl/src/core/lv_obj_style_gen.h ****     return (lv_coord_t)v.num;
 2547              		.loc 2 105 5 view .LVU775
 105:lvgl/src/core/lv_obj_style_gen.h ****     return (lv_coord_t)v.num;
 2548              		.loc 2 105 26 is_stmt 0 view .LVU776
 2549 012a 41F61202 		movw	r2, #6162
 2550 012e 0021     		movs	r1, #0
 2551 0130 2046     		mov	r0, r4
 2552              	.LVL293:
 105:lvgl/src/core/lv_obj_style_gen.h ****     return (lv_coord_t)v.num;
 2553              		.loc 2 105 26 view .LVU777
 2554 0132 FFF7FEFF 		bl	lv_obj_get_style_prop
 2555              	.LVL294:
 106:lvgl/src/core/lv_obj_style_gen.h **** }
 2556              		.loc 2 106 5 is_stmt 1 view .LVU778
 106:lvgl/src/core/lv_obj_style_gen.h **** }
 2557              		.loc 2 106 5 is_stmt 0 view .LVU779
 2558              	.LBE169:
 2559              	.LBE168:
 2560              		.loc 1 740 72 discriminator 1 view .LVU780
 2561 0136 15FA80F7 		uxtah	r7, r5, r0
 2562              	.LVL295:
 2563              		.loc 1 740 72 discriminator 1 view .LVU781
 2564 013a BFB2     		uxth	r7, r7
 2565              	.LVL296:
 741:lvgl/src/core/lv_obj_scroll.c ****     lv_coord_t pright = lv_obj_get_style_pad_right(parent, LV_PART_MAIN) + border_width;
 2566              		.loc 1 741 5 is_stmt 1 view .LVU782
 2567              	.LBB170:
 2568              	.LBI170:
 109:lvgl/src/core/lv_obj_style_gen.h **** {
 2569              		.loc 2 109 26 view .LVU783
 2570              	.LBB171:
 111:lvgl/src/core/lv_obj_style_gen.h ****     return (lv_coord_t)v.num;
 2571              		.loc 2 111 5 view .LVU784
 111:lvgl/src/core/lv_obj_style_gen.h ****     return (lv_coord_t)v.num;
 2572              		.loc 2 111 26 is_stmt 0 view .LVU785
 2573 013c 41F61302 		movw	r2, #6163
ARM GAS  C:\usertemp\ccBZVumh.s 			page 83


 2574 0140 0021     		movs	r1, #0
 2575 0142 2046     		mov	r0, r4
 2576 0144 FFF7FEFF 		bl	lv_obj_get_style_prop
 2577              	.LVL297:
 112:lvgl/src/core/lv_obj_style_gen.h **** }
 2578              		.loc 2 112 5 is_stmt 1 view .LVU786
 112:lvgl/src/core/lv_obj_style_gen.h **** }
 2579              		.loc 2 112 5 is_stmt 0 view .LVU787
 2580              	.LBE171:
 2581              	.LBE170:
 2582              		.loc 1 741 74 discriminator 1 view .LVU788
 2583 0148 15FA80FA 		uxtah	r10, r5, r0
 2584 014c 1FFA8AFA 		uxth	r10, r10
 2585              	.LVL298:
 742:lvgl/src/core/lv_obj_scroll.c ****     lv_coord_t left_diff = parent->coords.x1 + pleft - area_tmp->x1 - scroll_value->x;
 2586              		.loc 1 742 5 is_stmt 1 view .LVU789
 2587              		.loc 1 742 42 is_stmt 0 view .LVU790
 2588 0150 A58A     		ldrh	r5, [r4, #20]
 2589              	.LVL299:
 2590              		.loc 1 742 46 view .LVU791
 2591 0152 3D44     		add	r5, r5, r7
 2592 0154 ADB2     		uxth	r5, r5
 2593              		.loc 1 742 64 view .LVU792
 2594 0156 B9F80030 		ldrh	r3, [r9]
 2595              		.loc 1 742 54 view .LVU793
 2596 015a ED1A     		subs	r5, r5, r3
 2597 015c ADB2     		uxth	r5, r5
 2598              		.loc 1 742 83 view .LVU794
 2599 015e B8F80030 		ldrh	r3, [r8]
 2600              		.loc 1 742 69 view .LVU795
 2601 0162 ED1A     		subs	r5, r5, r3
 2602              		.loc 1 742 16 view .LVU796
 2603 0164 2DB2     		sxth	r5, r5
 2604              	.LVL300:
 743:lvgl/src/core/lv_obj_scroll.c ****     lv_coord_t right_diff = -(parent->coords.x2 - pright - area_tmp->x2 - scroll_value->x);
 2605              		.loc 1 743 5 is_stmt 1 view .LVU797
 2606              		.loc 1 743 68 is_stmt 0 view .LVU798
 2607 0166 B9F80420 		ldrh	r2, [r9, #4]
 2608              		.loc 1 743 45 view .LVU799
 2609 016a 218B     		ldrh	r1, [r4, #24]
 2610              		.loc 1 743 29 view .LVU800
 2611 016c AAEB0101 		sub	r1, r10, r1
 2612 0170 0A44     		add	r2, r2, r1
 2613 0172 1344     		add	r3, r3, r2
 2614 0174 9AB2     		uxth	r2, r3
 2615              		.loc 1 743 16 view .LVU801
 2616 0176 1BB2     		sxth	r3, r3
 2617              	.LVL301:
 744:lvgl/src/core/lv_obj_scroll.c ****     if((left_diff >= 0 && right_diff >= 0)) x_scroll = 0;
 2618              		.loc 1 744 5 is_stmt 1 view .LVU802
 2619              		.loc 1 744 7 is_stmt 0 view .LVU803
 2620 0178 002D     		cmp	r5, #0
 2621 017a A8BF     		it	ge
 2622 017c 002B     		cmpge	r3, #0
 2623 017e 47DA     		bge	.L161
 745:lvgl/src/core/lv_obj_scroll.c ****     else if(left_diff > 0) {
 2624              		.loc 1 745 10 is_stmt 1 view .LVU804
ARM GAS  C:\usertemp\ccBZVumh.s 			page 84


 2625              		.loc 1 745 12 is_stmt 0 view .LVU805
 2626 0180 002D     		cmp	r5, #0
 2627 0182 34DC     		bgt	.L173
 746:lvgl/src/core/lv_obj_scroll.c ****         x_scroll = left_diff;
 747:lvgl/src/core/lv_obj_scroll.c ****         /*Do not let scrolling in*/
 748:lvgl/src/core/lv_obj_scroll.c ****         lv_coord_t sl = lv_obj_get_scroll_left(parent);
 749:lvgl/src/core/lv_obj_scroll.c ****         if(sl + x_scroll > 0) x_scroll = 0;
 750:lvgl/src/core/lv_obj_scroll.c ****     }
 751:lvgl/src/core/lv_obj_scroll.c ****     else if(right_diff > 0) {
 2628              		.loc 1 751 10 is_stmt 1 view .LVU806
 2629              		.loc 1 751 12 is_stmt 0 view .LVU807
 2630 0184 002B     		cmp	r3, #0
 2631 0186 3ADC     		bgt	.L174
 735:lvgl/src/core/lv_obj_scroll.c ****     lv_scroll_snap_t snap_x = lv_obj_get_scroll_snap_x(parent);
 2632              		.loc 1 735 16 view .LVU808
 2633 0188 0025     		movs	r5, #0
 2634              	.LVL302:
 735:lvgl/src/core/lv_obj_scroll.c ****     lv_scroll_snap_t snap_x = lv_obj_get_scroll_snap_x(parent);
 2635              		.loc 1 735 16 view .LVU809
 2636 018a 42E0     		b	.L142
 2637              	.LVL303:
 2638              	.L136:
 724:lvgl/src/core/lv_obj_scroll.c ****             act = area_tmp->y2 + y_scroll;
 2639              		.loc 1 724 13 is_stmt 1 view .LVU810
 724:lvgl/src/core/lv_obj_scroll.c ****             act = area_tmp->y2 + y_scroll;
 2640              		.loc 1 724 39 is_stmt 0 view .LVU811
 2641 018c 638B     		ldrh	r3, [r4, #26]
 724:lvgl/src/core/lv_obj_scroll.c ****             act = area_tmp->y2 + y_scroll;
 2642              		.loc 1 724 43 view .LVU812
 2643 018e A3EB0B03 		sub	r3, r3, fp
 2644 0192 9BB2     		uxth	r3, r3
 2645              	.LVL304:
 725:lvgl/src/core/lv_obj_scroll.c ****             y_scroll += snap_goal - act;
 2646              		.loc 1 725 13 is_stmt 1 view .LVU813
 725:lvgl/src/core/lv_obj_scroll.c ****             y_scroll += snap_goal - act;
 2647              		.loc 1 725 27 is_stmt 0 view .LVU814
 2648 0194 BAF80620 		ldrh	r2, [r10, #6]
 725:lvgl/src/core/lv_obj_scroll.c ****             y_scroll += snap_goal - act;
 2649              		.loc 1 725 32 view .LVU815
 2650 0198 B6B2     		uxth	r6, r6
 725:lvgl/src/core/lv_obj_scroll.c ****             y_scroll += snap_goal - act;
 2651              		.loc 1 725 32 view .LVU816
 2652 019a 3244     		add	r2, r2, r6
 2653 019c 92B2     		uxth	r2, r2
 2654              	.LVL305:
 726:lvgl/src/core/lv_obj_scroll.c ****             break;
 2655              		.loc 1 726 13 is_stmt 1 view .LVU817
 726:lvgl/src/core/lv_obj_scroll.c ****             break;
 2656              		.loc 1 726 35 is_stmt 0 view .LVU818
 2657 019e 9B1A     		subs	r3, r3, r2
 2658              	.LVL306:
 726:lvgl/src/core/lv_obj_scroll.c ****             break;
 2659              		.loc 1 726 22 view .LVU819
 2660 01a0 16FA83F3 		uxtah	r3, r6, r3
 2661 01a4 1EB2     		sxth	r6, r3
 2662              	.LVL307:
 727:lvgl/src/core/lv_obj_scroll.c ****         case LV_SCROLL_SNAP_CENTER:
ARM GAS  C:\usertemp\ccBZVumh.s 			page 85


 2663              		.loc 1 727 13 is_stmt 1 view .LVU820
 2664 01a6 B8E7     		b	.L138
 2665              	.LVL308:
 2666              	.L137:
 729:lvgl/src/core/lv_obj_scroll.c ****             act = lv_area_get_height(area_tmp) / 2 + area_tmp->y1 + y_scroll;
 2667              		.loc 1 729 13 view .LVU821
 729:lvgl/src/core/lv_obj_scroll.c ****             act = lv_area_get_height(area_tmp) / 2 + area_tmp->y1 + y_scroll;
 2668              		.loc 1 729 39 is_stmt 0 view .LVU822
 2669 01a8 E38A     		ldrh	r3, [r4, #22]
 729:lvgl/src/core/lv_obj_scroll.c ****             act = lv_area_get_height(area_tmp) / 2 + area_tmp->y1 + y_scroll;
 2670              		.loc 1 729 43 view .LVU823
 2671 01aa 3B44     		add	r3, r3, r7
 2672 01ac 9BB2     		uxth	r3, r3
 729:lvgl/src/core/lv_obj_scroll.c ****             act = lv_area_get_height(area_tmp) / 2 + area_tmp->y1 + y_scroll;
 2673              		.loc 1 729 50 view .LVU824
 2674 01ae 0699     		ldr	r1, [sp, #24]
 2675 01b0 0A46     		mov	r2, r1
 2676 01b2 0029     		cmp	r1, #0
 2677 01b4 17DB     		blt	.L175
 2678              	.L139:
 2679 01b6 03EB6203 		add	r3, r3, r2, asr #1
 2680 01ba 9BB2     		uxth	r3, r3
 2681              	.LVL309:
 730:lvgl/src/core/lv_obj_scroll.c ****             y_scroll += snap_goal - act;
 2682              		.loc 1 730 13 is_stmt 1 view .LVU825
 2683              	.LBB172:
 2684              	.LBI172:
 2685              		.file 4 "lvgl/src/core/../misc/lv_area.h"
   1:lvgl/src/core/../misc/lv_area.h **** /**
   2:lvgl/src/core/../misc/lv_area.h ****  * @file lv_area.h
   3:lvgl/src/core/../misc/lv_area.h ****  *
   4:lvgl/src/core/../misc/lv_area.h ****  */
   5:lvgl/src/core/../misc/lv_area.h **** 
   6:lvgl/src/core/../misc/lv_area.h **** #ifndef LV_AREA_H
   7:lvgl/src/core/../misc/lv_area.h **** #define LV_AREA_H
   8:lvgl/src/core/../misc/lv_area.h **** 
   9:lvgl/src/core/../misc/lv_area.h **** #ifdef __cplusplus
  10:lvgl/src/core/../misc/lv_area.h **** extern "C" {
  11:lvgl/src/core/../misc/lv_area.h **** #endif
  12:lvgl/src/core/../misc/lv_area.h **** 
  13:lvgl/src/core/../misc/lv_area.h **** /*********************
  14:lvgl/src/core/../misc/lv_area.h ****  *      INCLUDES
  15:lvgl/src/core/../misc/lv_area.h ****  *********************/
  16:lvgl/src/core/../misc/lv_area.h **** #include "../lv_conf_internal.h"
  17:lvgl/src/core/../misc/lv_area.h **** #include <stdbool.h>
  18:lvgl/src/core/../misc/lv_area.h **** #include <stdint.h>
  19:lvgl/src/core/../misc/lv_area.h **** 
  20:lvgl/src/core/../misc/lv_area.h **** /*********************
  21:lvgl/src/core/../misc/lv_area.h ****  *      DEFINES
  22:lvgl/src/core/../misc/lv_area.h ****  *********************/
  23:lvgl/src/core/../misc/lv_area.h **** 
  24:lvgl/src/core/../misc/lv_area.h **** #if LV_USE_LARGE_COORD
  25:lvgl/src/core/../misc/lv_area.h **** typedef int32_t lv_coord_t;
  26:lvgl/src/core/../misc/lv_area.h **** #else
  27:lvgl/src/core/../misc/lv_area.h **** typedef int16_t lv_coord_t;
  28:lvgl/src/core/../misc/lv_area.h **** #endif
  29:lvgl/src/core/../misc/lv_area.h **** 
ARM GAS  C:\usertemp\ccBZVumh.s 			page 86


  30:lvgl/src/core/../misc/lv_area.h **** /**********************
  31:lvgl/src/core/../misc/lv_area.h ****  *      TYPEDEFS
  32:lvgl/src/core/../misc/lv_area.h ****  **********************/
  33:lvgl/src/core/../misc/lv_area.h **** 
  34:lvgl/src/core/../misc/lv_area.h **** /**
  35:lvgl/src/core/../misc/lv_area.h ****  * Represents a point on the screen.
  36:lvgl/src/core/../misc/lv_area.h ****  */
  37:lvgl/src/core/../misc/lv_area.h **** typedef struct {
  38:lvgl/src/core/../misc/lv_area.h ****     lv_coord_t x;
  39:lvgl/src/core/../misc/lv_area.h ****     lv_coord_t y;
  40:lvgl/src/core/../misc/lv_area.h **** } lv_point_t;
  41:lvgl/src/core/../misc/lv_area.h **** 
  42:lvgl/src/core/../misc/lv_area.h **** /** Represents an area of the screen.*/
  43:lvgl/src/core/../misc/lv_area.h **** typedef struct {
  44:lvgl/src/core/../misc/lv_area.h ****     lv_coord_t x1;
  45:lvgl/src/core/../misc/lv_area.h ****     lv_coord_t y1;
  46:lvgl/src/core/../misc/lv_area.h ****     lv_coord_t x2;
  47:lvgl/src/core/../misc/lv_area.h ****     lv_coord_t y2;
  48:lvgl/src/core/../misc/lv_area.h **** } lv_area_t;
  49:lvgl/src/core/../misc/lv_area.h **** 
  50:lvgl/src/core/../misc/lv_area.h **** /** Alignments*/
  51:lvgl/src/core/../misc/lv_area.h **** enum {
  52:lvgl/src/core/../misc/lv_area.h ****     LV_ALIGN_DEFAULT = 0,
  53:lvgl/src/core/../misc/lv_area.h ****     LV_ALIGN_TOP_LEFT,
  54:lvgl/src/core/../misc/lv_area.h ****     LV_ALIGN_TOP_MID,
  55:lvgl/src/core/../misc/lv_area.h ****     LV_ALIGN_TOP_RIGHT,
  56:lvgl/src/core/../misc/lv_area.h ****     LV_ALIGN_BOTTOM_LEFT,
  57:lvgl/src/core/../misc/lv_area.h ****     LV_ALIGN_BOTTOM_MID,
  58:lvgl/src/core/../misc/lv_area.h ****     LV_ALIGN_BOTTOM_RIGHT,
  59:lvgl/src/core/../misc/lv_area.h ****     LV_ALIGN_LEFT_MID,
  60:lvgl/src/core/../misc/lv_area.h ****     LV_ALIGN_RIGHT_MID,
  61:lvgl/src/core/../misc/lv_area.h ****     LV_ALIGN_CENTER,
  62:lvgl/src/core/../misc/lv_area.h **** 
  63:lvgl/src/core/../misc/lv_area.h ****     LV_ALIGN_OUT_TOP_LEFT,
  64:lvgl/src/core/../misc/lv_area.h ****     LV_ALIGN_OUT_TOP_MID,
  65:lvgl/src/core/../misc/lv_area.h ****     LV_ALIGN_OUT_TOP_RIGHT,
  66:lvgl/src/core/../misc/lv_area.h ****     LV_ALIGN_OUT_BOTTOM_LEFT,
  67:lvgl/src/core/../misc/lv_area.h ****     LV_ALIGN_OUT_BOTTOM_MID,
  68:lvgl/src/core/../misc/lv_area.h ****     LV_ALIGN_OUT_BOTTOM_RIGHT,
  69:lvgl/src/core/../misc/lv_area.h ****     LV_ALIGN_OUT_LEFT_TOP,
  70:lvgl/src/core/../misc/lv_area.h ****     LV_ALIGN_OUT_LEFT_MID,
  71:lvgl/src/core/../misc/lv_area.h ****     LV_ALIGN_OUT_LEFT_BOTTOM,
  72:lvgl/src/core/../misc/lv_area.h ****     LV_ALIGN_OUT_RIGHT_TOP,
  73:lvgl/src/core/../misc/lv_area.h ****     LV_ALIGN_OUT_RIGHT_MID,
  74:lvgl/src/core/../misc/lv_area.h ****     LV_ALIGN_OUT_RIGHT_BOTTOM,
  75:lvgl/src/core/../misc/lv_area.h **** };
  76:lvgl/src/core/../misc/lv_area.h **** typedef uint8_t lv_align_t;
  77:lvgl/src/core/../misc/lv_area.h **** 
  78:lvgl/src/core/../misc/lv_area.h **** enum {
  79:lvgl/src/core/../misc/lv_area.h ****     LV_DIR_NONE     = 0x00,
  80:lvgl/src/core/../misc/lv_area.h ****     LV_DIR_LEFT     = (1 << 0),
  81:lvgl/src/core/../misc/lv_area.h ****     LV_DIR_RIGHT    = (1 << 1),
  82:lvgl/src/core/../misc/lv_area.h ****     LV_DIR_TOP      = (1 << 2),
  83:lvgl/src/core/../misc/lv_area.h ****     LV_DIR_BOTTOM   = (1 << 3),
  84:lvgl/src/core/../misc/lv_area.h ****     LV_DIR_HOR      = LV_DIR_LEFT | LV_DIR_RIGHT,
  85:lvgl/src/core/../misc/lv_area.h ****     LV_DIR_VER      = LV_DIR_TOP | LV_DIR_BOTTOM,
  86:lvgl/src/core/../misc/lv_area.h ****     LV_DIR_ALL      = LV_DIR_HOR | LV_DIR_VER,
ARM GAS  C:\usertemp\ccBZVumh.s 			page 87


  87:lvgl/src/core/../misc/lv_area.h **** };
  88:lvgl/src/core/../misc/lv_area.h **** 
  89:lvgl/src/core/../misc/lv_area.h **** typedef uint8_t lv_dir_t;
  90:lvgl/src/core/../misc/lv_area.h **** 
  91:lvgl/src/core/../misc/lv_area.h **** /**********************
  92:lvgl/src/core/../misc/lv_area.h ****  * GLOBAL PROTOTYPES
  93:lvgl/src/core/../misc/lv_area.h ****  **********************/
  94:lvgl/src/core/../misc/lv_area.h **** 
  95:lvgl/src/core/../misc/lv_area.h **** /**
  96:lvgl/src/core/../misc/lv_area.h ****  * Initialize an area
  97:lvgl/src/core/../misc/lv_area.h ****  * @param area_p pointer to an area
  98:lvgl/src/core/../misc/lv_area.h ****  * @param x1 left coordinate of the area
  99:lvgl/src/core/../misc/lv_area.h ****  * @param y1 top coordinate of the area
 100:lvgl/src/core/../misc/lv_area.h ****  * @param x2 right coordinate of the area
 101:lvgl/src/core/../misc/lv_area.h ****  * @param y2 bottom coordinate of the area
 102:lvgl/src/core/../misc/lv_area.h ****  */
 103:lvgl/src/core/../misc/lv_area.h **** void lv_area_set(lv_area_t * area_p, lv_coord_t x1, lv_coord_t y1, lv_coord_t x2, lv_coord_t y2);
 104:lvgl/src/core/../misc/lv_area.h **** 
 105:lvgl/src/core/../misc/lv_area.h **** /**
 106:lvgl/src/core/../misc/lv_area.h ****  * Copy an area
 107:lvgl/src/core/../misc/lv_area.h ****  * @param dest pointer to the destination area
 108:lvgl/src/core/../misc/lv_area.h ****  * @param src pointer to the source area
 109:lvgl/src/core/../misc/lv_area.h ****  */
 110:lvgl/src/core/../misc/lv_area.h **** inline static void lv_area_copy(lv_area_t * dest, const lv_area_t * src)
 111:lvgl/src/core/../misc/lv_area.h **** {
 112:lvgl/src/core/../misc/lv_area.h ****     dest->x1 = src->x1;
 113:lvgl/src/core/../misc/lv_area.h ****     dest->y1 = src->y1;
 114:lvgl/src/core/../misc/lv_area.h ****     dest->x2 = src->x2;
 115:lvgl/src/core/../misc/lv_area.h ****     dest->y2 = src->y2;
 116:lvgl/src/core/../misc/lv_area.h **** }
 117:lvgl/src/core/../misc/lv_area.h **** 
 118:lvgl/src/core/../misc/lv_area.h **** /**
 119:lvgl/src/core/../misc/lv_area.h ****  * Get the width of an area
 120:lvgl/src/core/../misc/lv_area.h ****  * @param area_p pointer to an area
 121:lvgl/src/core/../misc/lv_area.h ****  * @return the width of the area (if x1 == x2 -> width = 1)
 122:lvgl/src/core/../misc/lv_area.h ****  */
 123:lvgl/src/core/../misc/lv_area.h **** static inline lv_coord_t lv_area_get_width(const lv_area_t * area_p)
 124:lvgl/src/core/../misc/lv_area.h **** {
 125:lvgl/src/core/../misc/lv_area.h ****     return (lv_coord_t)(area_p->x2 - area_p->x1 + 1);
 126:lvgl/src/core/../misc/lv_area.h **** }
 127:lvgl/src/core/../misc/lv_area.h **** 
 128:lvgl/src/core/../misc/lv_area.h **** /**
 129:lvgl/src/core/../misc/lv_area.h ****  * Get the height of an area
 130:lvgl/src/core/../misc/lv_area.h ****  * @param area_p pointer to an area
 131:lvgl/src/core/../misc/lv_area.h ****  * @return the height of the area (if y1 == y2 -> height = 1)
 132:lvgl/src/core/../misc/lv_area.h ****  */
 133:lvgl/src/core/../misc/lv_area.h **** static inline lv_coord_t lv_area_get_height(const lv_area_t * area_p)
 2686              		.loc 4 133 26 view .LVU826
 2687              	.LBB173:
 134:lvgl/src/core/../misc/lv_area.h **** {
 135:lvgl/src/core/../misc/lv_area.h ****     return (lv_coord_t)(area_p->y2 - area_p->y1 + 1);
 2688              		.loc 4 135 5 view .LVU827
 2689              		.loc 4 135 31 is_stmt 0 view .LVU828
 2690 01bc BAF80620 		ldrh	r2, [r10, #6]
 2691              		.loc 4 135 44 view .LVU829
 2692 01c0 BAF80210 		ldrh	r1, [r10, #2]
 2693              		.loc 4 135 36 view .LVU830
ARM GAS  C:\usertemp\ccBZVumh.s 			page 88


 2694 01c4 521A     		subs	r2, r2, r1
 2695 01c6 92B2     		uxth	r2, r2
 2696              		.loc 4 135 49 view .LVU831
 2697 01c8 0132     		adds	r2, r2, #1
 2698              		.loc 4 135 12 view .LVU832
 2699 01ca 12B2     		sxth	r2, r2
 2700              	.LVL310:
 2701              		.loc 4 135 12 view .LVU833
 2702              	.LBE173:
 2703              	.LBE172:
 730:lvgl/src/core/lv_obj_scroll.c ****             y_scroll += snap_goal - act;
 2704              		.loc 1 730 52 discriminator 1 view .LVU834
 2705 01cc 002A     		cmp	r2, #0
 2706 01ce 0CDB     		blt	.L176
 2707              	.L140:
 2708 01d0 01EB6201 		add	r1, r1, r2, asr #1
 730:lvgl/src/core/lv_obj_scroll.c ****             y_scroll += snap_goal - act;
 2709              		.loc 1 730 67 discriminator 1 view .LVU835
 2710 01d4 B6B2     		uxth	r6, r6
 730:lvgl/src/core/lv_obj_scroll.c ****             y_scroll += snap_goal - act;
 2711              		.loc 1 730 67 discriminator 1 view .LVU836
 2712 01d6 16FA81F1 		uxtah	r1, r6, r1
 2713 01da 89B2     		uxth	r1, r1
 2714              	.LVL311:
 731:lvgl/src/core/lv_obj_scroll.c ****             break;
 2715              		.loc 1 731 13 is_stmt 1 view .LVU837
 731:lvgl/src/core/lv_obj_scroll.c ****             break;
 2716              		.loc 1 731 35 is_stmt 0 view .LVU838
 2717 01dc 5B1A     		subs	r3, r3, r1
 2718              	.LVL312:
 731:lvgl/src/core/lv_obj_scroll.c ****             break;
 2719              		.loc 1 731 22 view .LVU839
 2720 01de 16FA83F3 		uxtah	r3, r6, r3
 2721 01e2 1EB2     		sxth	r6, r3
 2722              	.LVL313:
 732:lvgl/src/core/lv_obj_scroll.c ****     }
 2723              		.loc 1 732 13 is_stmt 1 view .LVU840
 2724 01e4 99E7     		b	.L138
 2725              	.LVL314:
 2726              	.L175:
 729:lvgl/src/core/lv_obj_scroll.c ****             act = lv_area_get_height(area_tmp) / 2 + area_tmp->y1 + y_scroll;
 2727              		.loc 1 729 50 is_stmt 0 view .LVU841
 2728 01e6 0132     		adds	r2, r2, #1
 2729 01e8 E5E7     		b	.L139
 2730              	.LVL315:
 2731              	.L176:
 730:lvgl/src/core/lv_obj_scroll.c ****             y_scroll += snap_goal - act;
 2732              		.loc 1 730 52 discriminator 1 view .LVU842
 2733 01ea 0132     		adds	r2, r2, #1
 2734 01ec F0E7     		b	.L140
 2735              	.LVL316:
 2736              	.L173:
 2737              	.LBB174:
 746:lvgl/src/core/lv_obj_scroll.c ****         /*Do not let scrolling in*/
 2738              		.loc 1 746 9 is_stmt 1 view .LVU843
 748:lvgl/src/core/lv_obj_scroll.c ****         if(sl + x_scroll > 0) x_scroll = 0;
 2739              		.loc 1 748 9 view .LVU844
ARM GAS  C:\usertemp\ccBZVumh.s 			page 89


 748:lvgl/src/core/lv_obj_scroll.c ****         if(sl + x_scroll > 0) x_scroll = 0;
 2740              		.loc 1 748 25 is_stmt 0 view .LVU845
 2741 01ee 2046     		mov	r0, r4
 2742 01f0 FFF7FEFF 		bl	lv_obj_get_scroll_left
 2743              	.LVL317:
 749:lvgl/src/core/lv_obj_scroll.c ****     }
 2744              		.loc 1 749 9 is_stmt 1 view .LVU846
 749:lvgl/src/core/lv_obj_scroll.c ****     }
 2745              		.loc 1 749 15 is_stmt 0 view .LVU847
 2746 01f4 2844     		add	r0, r0, r5
 2747              	.LVL318:
 749:lvgl/src/core/lv_obj_scroll.c ****     }
 2748              		.loc 1 749 11 view .LVU848
 2749 01f6 0028     		cmp	r0, #0
 2750 01f8 0BDD     		ble	.L142
 749:lvgl/src/core/lv_obj_scroll.c ****     }
 2751              		.loc 1 749 40 discriminator 1 view .LVU849
 2752 01fa 0025     		movs	r5, #0
 2753              	.LVL319:
 749:lvgl/src/core/lv_obj_scroll.c ****     }
 2754              		.loc 1 749 40 discriminator 1 view .LVU850
 2755 01fc 09E0     		b	.L142
 2756              	.LVL320:
 2757              	.L174:
 749:lvgl/src/core/lv_obj_scroll.c ****     }
 2758              		.loc 1 749 40 discriminator 1 view .LVU851
 2759              	.LBE174:
 2760              	.LBB175:
 752:lvgl/src/core/lv_obj_scroll.c ****         x_scroll = -right_diff;
 2761              		.loc 1 752 9 is_stmt 1 view .LVU852
 2762              		.loc 1 752 18 is_stmt 0 view .LVU853
 2763 01fe 5242     		rsbs	r2, r2, #0
 2764 0200 15B2     		sxth	r5, r2
 2765              	.LVL321:
 753:lvgl/src/core/lv_obj_scroll.c ****         /*Do not let scrolling in*/
 754:lvgl/src/core/lv_obj_scroll.c ****         lv_coord_t sr = lv_obj_get_scroll_right(parent);
 2766              		.loc 1 754 9 is_stmt 1 view .LVU854
 2767              		.loc 1 754 25 is_stmt 0 view .LVU855
 2768 0202 2046     		mov	r0, r4
 2769 0204 FFF7FEFF 		bl	lv_obj_get_scroll_right
 2770              	.LVL322:
 755:lvgl/src/core/lv_obj_scroll.c ****         if(sr + x_scroll < 0) x_scroll = 0;
 2771              		.loc 1 755 9 is_stmt 1 view .LVU856
 2772              		.loc 1 755 11 is_stmt 0 view .LVU857
 2773 0208 E842     		cmn	r0, r5
 2774 020a 02D5     		bpl	.L142
 2775              		.loc 1 755 40 discriminator 1 view .LVU858
 2776 020c 0025     		movs	r5, #0
 2777              	.LVL323:
 2778              		.loc 1 755 40 discriminator 1 view .LVU859
 2779 020e 00E0     		b	.L142
 2780              	.LVL324:
 2781              	.L161:
 2782              		.loc 1 755 40 discriminator 1 view .LVU860
 2783              	.LBE175:
 744:lvgl/src/core/lv_obj_scroll.c ****     else if(left_diff > 0) {
 2784              		.loc 1 744 54 discriminator 1 view .LVU861
ARM GAS  C:\usertemp\ccBZVumh.s 			page 90


 2785 0210 0025     		movs	r5, #0
 2786              	.LVL325:
 2787              	.L142:
 756:lvgl/src/core/lv_obj_scroll.c ****     }
 757:lvgl/src/core/lv_obj_scroll.c **** 
 758:lvgl/src/core/lv_obj_scroll.c ****     lv_coord_t parent_w = lv_obj_get_width(parent) - pleft - pright;
 2788              		.loc 1 758 5 is_stmt 1 view .LVU862
 2789              		.loc 1 758 27 is_stmt 0 view .LVU863
 2790 0212 2046     		mov	r0, r4
 2791 0214 FFF7FEFF 		bl	lv_obj_get_width
 2792              	.LVL326:
 2793              		.loc 1 758 27 discriminator 1 view .LVU864
 2794 0218 83B2     		uxth	r3, r0
 2795              		.loc 1 758 52 discriminator 1 view .LVU865
 2796 021a DB1B     		subs	r3, r3, r7
 2797 021c 9BB2     		uxth	r3, r3
 2798              		.loc 1 758 60 discriminator 1 view .LVU866
 2799 021e A3EB0A03 		sub	r3, r3, r10
 2800              		.loc 1 758 16 discriminator 1 view .LVU867
 2801 0222 1BB2     		sxth	r3, r3
 2802              	.LVL327:
 759:lvgl/src/core/lv_obj_scroll.c ****     switch(snap_x) {
 2803              		.loc 1 759 5 is_stmt 1 view .LVU868
 2804 0224 BBF1020F 		cmp	fp, #2
 2805 0228 3FD0     		beq	.L144
 2806 022a BBF1030F 		cmp	fp, #3
 2807 022e 4AD0     		beq	.L145
 2808 0230 BBF1010F 		cmp	fp, #1
 2809 0234 0BD1     		bne	.L146
 760:lvgl/src/core/lv_obj_scroll.c ****         case LV_SCROLL_SNAP_START:
 761:lvgl/src/core/lv_obj_scroll.c ****             snap_goal = parent->coords.x1 + pleft;
 2810              		.loc 1 761 13 view .LVU869
 2811              		.loc 1 761 39 is_stmt 0 view .LVU870
 2812 0236 A38A     		ldrh	r3, [r4, #20]
 2813              	.LVL328:
 2814              		.loc 1 761 43 view .LVU871
 2815 0238 3B44     		add	r3, r3, r7
 2816 023a 9BB2     		uxth	r3, r3
 2817              	.LVL329:
 762:lvgl/src/core/lv_obj_scroll.c ****             act = area_tmp->x1 + x_scroll;
 2818              		.loc 1 762 13 is_stmt 1 view .LVU872
 2819              		.loc 1 762 27 is_stmt 0 view .LVU873
 2820 023c B9F80020 		ldrh	r2, [r9]
 2821              		.loc 1 762 32 view .LVU874
 2822 0240 ADB2     		uxth	r5, r5
 2823              		.loc 1 762 32 view .LVU875
 2824 0242 2A44     		add	r2, r2, r5
 2825 0244 92B2     		uxth	r2, r2
 2826              	.LVL330:
 763:lvgl/src/core/lv_obj_scroll.c ****             x_scroll += snap_goal - act;
 2827              		.loc 1 763 13 is_stmt 1 view .LVU876
 2828              		.loc 1 763 35 is_stmt 0 view .LVU877
 2829 0246 9B1A     		subs	r3, r3, r2
 2830              	.LVL331:
 2831              		.loc 1 763 22 view .LVU878
 2832 0248 15FA83F3 		uxtah	r3, r5, r3
 2833 024c 1DB2     		sxth	r5, r3
ARM GAS  C:\usertemp\ccBZVumh.s 			page 91


 2834              	.LVL332:
 764:lvgl/src/core/lv_obj_scroll.c ****             break;
 2835              		.loc 1 764 13 is_stmt 1 view .LVU879
 2836              	.L146:
 765:lvgl/src/core/lv_obj_scroll.c ****         case LV_SCROLL_SNAP_END:
 766:lvgl/src/core/lv_obj_scroll.c ****             snap_goal = parent->coords.x2 - pright;
 767:lvgl/src/core/lv_obj_scroll.c ****             act = area_tmp->x2 + x_scroll;
 768:lvgl/src/core/lv_obj_scroll.c ****             x_scroll += snap_goal - act;
 769:lvgl/src/core/lv_obj_scroll.c ****             break;
 770:lvgl/src/core/lv_obj_scroll.c ****         case LV_SCROLL_SNAP_CENTER:
 771:lvgl/src/core/lv_obj_scroll.c ****             snap_goal = parent->coords.x1 + pleft + parent_w / 2;
 772:lvgl/src/core/lv_obj_scroll.c ****             act = lv_area_get_width(area_tmp) / 2 + area_tmp->x1 + x_scroll;
 773:lvgl/src/core/lv_obj_scroll.c ****             x_scroll += snap_goal - act;
 774:lvgl/src/core/lv_obj_scroll.c ****             break;
 775:lvgl/src/core/lv_obj_scroll.c ****     }
 776:lvgl/src/core/lv_obj_scroll.c **** 
 777:lvgl/src/core/lv_obj_scroll.c ****     /*Remove any pending scroll animations.*/
 778:lvgl/src/core/lv_obj_scroll.c ****     bool y_del = lv_anim_del(parent, scroll_y_anim);
 2837              		.loc 1 778 5 view .LVU880
 2838              		.loc 1 778 18 is_stmt 0 view .LVU881
 2839 024e 4049     		ldr	r1, .L182
 2840 0250 2046     		mov	r0, r4
 2841              		.loc 1 778 18 view .LVU882
 2842 0252 FFF7FEFF 		bl	lv_anim_del
 2843              	.LVL333:
 2844 0256 0746     		mov	r7, r0
 2845              	.LVL334:
 779:lvgl/src/core/lv_obj_scroll.c ****     bool x_del = lv_anim_del(parent, scroll_x_anim);
 2846              		.loc 1 779 5 is_stmt 1 view .LVU883
 2847              		.loc 1 779 18 is_stmt 0 view .LVU884
 2848 0258 3E49     		ldr	r1, .L182+4
 2849 025a 2046     		mov	r0, r4
 2850 025c FFF7FEFF 		bl	lv_anim_del
 2851              	.LVL335:
 780:lvgl/src/core/lv_obj_scroll.c ****     if(y_del || x_del) {
 2852              		.loc 1 780 5 is_stmt 1 view .LVU885
 2853              		.loc 1 780 14 is_stmt 0 view .LVU886
 2854 0260 0743     		orrs	r7, r7, r0
 2855              	.LVL336:
 2856              		.loc 1 780 7 view .LVU887
 2857 0262 17F0FF0F 		tst	r7, #255
 2858 0266 50D1     		bne	.L177
 2859              	.LVL337:
 2860              	.L149:
 781:lvgl/src/core/lv_obj_scroll.c ****         lv_res_t res;
 782:lvgl/src/core/lv_obj_scroll.c ****         res = lv_event_send(parent, LV_EVENT_SCROLL_END, NULL);
 783:lvgl/src/core/lv_obj_scroll.c ****         if(res != LV_RES_OK) return;
 784:lvgl/src/core/lv_obj_scroll.c ****     }
 785:lvgl/src/core/lv_obj_scroll.c **** 
 786:lvgl/src/core/lv_obj_scroll.c ****     if((scroll_dir & LV_DIR_LEFT) == 0 && x_scroll < 0) x_scroll = 0;
 2861              		.loc 1 786 5 is_stmt 1 view .LVU888
 2862              		.loc 1 786 7 is_stmt 0 view .LVU889
 2863 0268 019B     		ldr	r3, [sp, #4]
 2864 026a 13F0010F 		tst	r3, #1
 2865 026e 01D1     		bne	.L150
 2866              		.loc 1 786 40 discriminator 1 view .LVU890
 2867 0270 002D     		cmp	r5, #0
ARM GAS  C:\usertemp\ccBZVumh.s 			page 92


 2868 0272 52DB     		blt	.L178
 2869              	.LVL338:
 2870              	.L150:
 787:lvgl/src/core/lv_obj_scroll.c ****     if((scroll_dir & LV_DIR_RIGHT) == 0 && x_scroll > 0) x_scroll = 0;
 2871              		.loc 1 787 5 is_stmt 1 view .LVU891
 2872              		.loc 1 787 7 is_stmt 0 view .LVU892
 2873 0274 019B     		ldr	r3, [sp, #4]
 2874 0276 13F0020F 		tst	r3, #2
 2875 027a 02D1     		bne	.L151
 2876              		.loc 1 787 41 discriminator 1 view .LVU893
 2877 027c 002D     		cmp	r5, #0
 2878 027e 00DD     		ble	.L151
 2879              		.loc 1 787 67 discriminator 2 view .LVU894
 2880 0280 0025     		movs	r5, #0
 2881              	.LVL339:
 2882              	.L151:
 788:lvgl/src/core/lv_obj_scroll.c ****     if((scroll_dir & LV_DIR_TOP) == 0 && y_scroll < 0) y_scroll = 0;
 2883              		.loc 1 788 5 is_stmt 1 view .LVU895
 2884              		.loc 1 788 7 is_stmt 0 view .LVU896
 2885 0282 019B     		ldr	r3, [sp, #4]
 2886 0284 13F0040F 		tst	r3, #4
 2887 0288 01D1     		bne	.L152
 2888              		.loc 1 788 39 discriminator 1 view .LVU897
 2889 028a 002E     		cmp	r6, #0
 2890 028c 47DB     		blt	.L179
 2891              	.LVL340:
 2892              	.L152:
 789:lvgl/src/core/lv_obj_scroll.c ****     if((scroll_dir & LV_DIR_BOTTOM) == 0 && y_scroll > 0) y_scroll = 0;
 2893              		.loc 1 789 5 is_stmt 1 view .LVU898
 2894              		.loc 1 789 7 is_stmt 0 view .LVU899
 2895 028e 019B     		ldr	r3, [sp, #4]
 2896 0290 13F0080F 		tst	r3, #8
 2897 0294 02D1     		bne	.L153
 2898              		.loc 1 789 42 discriminator 1 view .LVU900
 2899 0296 002E     		cmp	r6, #0
 2900 0298 00DD     		ble	.L153
 2901              		.loc 1 789 68 discriminator 2 view .LVU901
 2902 029a 0026     		movs	r6, #0
 2903              	.LVL341:
 2904              	.L153:
 790:lvgl/src/core/lv_obj_scroll.c **** 
 791:lvgl/src/core/lv_obj_scroll.c ****     scroll_value->x += anim_en == LV_ANIM_OFF ? 0 : x_scroll;
 2905              		.loc 1 791 5 is_stmt 1 view .LVU902
 2906              		.loc 1 791 17 is_stmt 0 view .LVU903
 2907 029c B8F80030 		ldrh	r3, [r8]
 2908              		.loc 1 791 21 view .LVU904
 2909 02a0 029A     		ldr	r2, [sp, #8]
 2910 02a2 002A     		cmp	r2, #0
 2911 02a4 3DD0     		beq	.L169
 2912              		.loc 1 791 21 discriminator 1 view .LVU905
 2913 02a6 AAB2     		uxth	r2, r5
 2914 02a8 3CE0     		b	.L154
 2915              	.LVL342:
 2916              	.L144:
 766:lvgl/src/core/lv_obj_scroll.c ****             act = area_tmp->x2 + x_scroll;
 2917              		.loc 1 766 13 is_stmt 1 view .LVU906
 766:lvgl/src/core/lv_obj_scroll.c ****             act = area_tmp->x2 + x_scroll;
ARM GAS  C:\usertemp\ccBZVumh.s 			page 93


 2918              		.loc 1 766 39 is_stmt 0 view .LVU907
 2919 02aa 238B     		ldrh	r3, [r4, #24]
 2920              	.LVL343:
 766:lvgl/src/core/lv_obj_scroll.c ****             act = area_tmp->x2 + x_scroll;
 2921              		.loc 1 766 43 view .LVU908
 2922 02ac A3EB0A03 		sub	r3, r3, r10
 2923 02b0 9BB2     		uxth	r3, r3
 2924              	.LVL344:
 767:lvgl/src/core/lv_obj_scroll.c ****             x_scroll += snap_goal - act;
 2925              		.loc 1 767 13 is_stmt 1 view .LVU909
 767:lvgl/src/core/lv_obj_scroll.c ****             x_scroll += snap_goal - act;
 2926              		.loc 1 767 27 is_stmt 0 view .LVU910
 2927 02b2 B9F80420 		ldrh	r2, [r9, #4]
 767:lvgl/src/core/lv_obj_scroll.c ****             x_scroll += snap_goal - act;
 2928              		.loc 1 767 32 view .LVU911
 2929 02b6 ADB2     		uxth	r5, r5
 767:lvgl/src/core/lv_obj_scroll.c ****             x_scroll += snap_goal - act;
 2930              		.loc 1 767 32 view .LVU912
 2931 02b8 2A44     		add	r2, r2, r5
 2932 02ba 92B2     		uxth	r2, r2
 2933              	.LVL345:
 768:lvgl/src/core/lv_obj_scroll.c ****             break;
 2934              		.loc 1 768 13 is_stmt 1 view .LVU913
 768:lvgl/src/core/lv_obj_scroll.c ****             break;
 2935              		.loc 1 768 35 is_stmt 0 view .LVU914
 2936 02bc 9B1A     		subs	r3, r3, r2
 2937              	.LVL346:
 768:lvgl/src/core/lv_obj_scroll.c ****             break;
 2938              		.loc 1 768 22 view .LVU915
 2939 02be 15FA83F3 		uxtah	r3, r5, r3
 2940 02c2 1DB2     		sxth	r5, r3
 2941              	.LVL347:
 769:lvgl/src/core/lv_obj_scroll.c ****         case LV_SCROLL_SNAP_CENTER:
 2942              		.loc 1 769 13 is_stmt 1 view .LVU916
 2943 02c4 C3E7     		b	.L146
 2944              	.LVL348:
 2945              	.L145:
 771:lvgl/src/core/lv_obj_scroll.c ****             act = lv_area_get_width(area_tmp) / 2 + area_tmp->x1 + x_scroll;
 2946              		.loc 1 771 13 view .LVU917
 771:lvgl/src/core/lv_obj_scroll.c ****             act = lv_area_get_width(area_tmp) / 2 + area_tmp->x1 + x_scroll;
 2947              		.loc 1 771 39 is_stmt 0 view .LVU918
 2948 02c6 A28A     		ldrh	r2, [r4, #20]
 771:lvgl/src/core/lv_obj_scroll.c ****             act = lv_area_get_width(area_tmp) / 2 + area_tmp->x1 + x_scroll;
 2949              		.loc 1 771 43 view .LVU919
 2950 02c8 1744     		add	r7, r7, r2
 2951              	.LVL349:
 771:lvgl/src/core/lv_obj_scroll.c ****             act = lv_area_get_width(area_tmp) / 2 + area_tmp->x1 + x_scroll;
 2952              		.loc 1 771 43 view .LVU920
 2953 02ca BFB2     		uxth	r7, r7
 771:lvgl/src/core/lv_obj_scroll.c ****             act = lv_area_get_width(area_tmp) / 2 + area_tmp->x1 + x_scroll;
 2954              		.loc 1 771 51 view .LVU921
 2955 02cc 1A46     		mov	r2, r3
 2956 02ce 002B     		cmp	r3, #0
 2957 02d0 17DB     		blt	.L180
 2958              	.L147:
 2959 02d2 07EB6203 		add	r3, r7, r2, asr #1
 2960              	.LVL350:
ARM GAS  C:\usertemp\ccBZVumh.s 			page 94


 771:lvgl/src/core/lv_obj_scroll.c ****             act = lv_area_get_width(area_tmp) / 2 + area_tmp->x1 + x_scroll;
 2961              		.loc 1 771 51 view .LVU922
 2962 02d6 9BB2     		uxth	r3, r3
 2963              	.LVL351:
 772:lvgl/src/core/lv_obj_scroll.c ****             x_scroll += snap_goal - act;
 2964              		.loc 1 772 13 is_stmt 1 view .LVU923
 2965              	.LBB176:
 2966              	.LBI176:
 123:lvgl/src/core/../misc/lv_area.h **** {
 2967              		.loc 4 123 26 view .LVU924
 2968              	.LBB177:
 125:lvgl/src/core/../misc/lv_area.h **** }
 2969              		.loc 4 125 5 view .LVU925
 125:lvgl/src/core/../misc/lv_area.h **** }
 2970              		.loc 4 125 31 is_stmt 0 view .LVU926
 2971 02d8 B9F80420 		ldrh	r2, [r9, #4]
 125:lvgl/src/core/../misc/lv_area.h **** }
 2972              		.loc 4 125 44 view .LVU927
 2973 02dc B9F80010 		ldrh	r1, [r9]
 125:lvgl/src/core/../misc/lv_area.h **** }
 2974              		.loc 4 125 36 view .LVU928
 2975 02e0 521A     		subs	r2, r2, r1
 2976 02e2 92B2     		uxth	r2, r2
 125:lvgl/src/core/../misc/lv_area.h **** }
 2977              		.loc 4 125 49 view .LVU929
 2978 02e4 0132     		adds	r2, r2, #1
 125:lvgl/src/core/../misc/lv_area.h **** }
 2979              		.loc 4 125 12 view .LVU930
 2980 02e6 12B2     		sxth	r2, r2
 2981              	.LVL352:
 125:lvgl/src/core/../misc/lv_area.h **** }
 2982              		.loc 4 125 12 view .LVU931
 2983              	.LBE177:
 2984              	.LBE176:
 772:lvgl/src/core/lv_obj_scroll.c ****             x_scroll += snap_goal - act;
 2985              		.loc 1 772 51 discriminator 1 view .LVU932
 2986 02e8 002A     		cmp	r2, #0
 2987 02ea 0CDB     		blt	.L181
 2988              	.L148:
 2989 02ec 01EB6201 		add	r1, r1, r2, asr #1
 772:lvgl/src/core/lv_obj_scroll.c ****             x_scroll += snap_goal - act;
 2990              		.loc 1 772 66 discriminator 1 view .LVU933
 2991 02f0 ADB2     		uxth	r5, r5
 772:lvgl/src/core/lv_obj_scroll.c ****             x_scroll += snap_goal - act;
 2992              		.loc 1 772 66 discriminator 1 view .LVU934
 2993 02f2 15FA81F1 		uxtah	r1, r5, r1
 2994 02f6 89B2     		uxth	r1, r1
 2995              	.LVL353:
 773:lvgl/src/core/lv_obj_scroll.c ****             break;
 2996              		.loc 1 773 13 is_stmt 1 view .LVU935
 773:lvgl/src/core/lv_obj_scroll.c ****             break;
 2997              		.loc 1 773 35 is_stmt 0 view .LVU936
 2998 02f8 5B1A     		subs	r3, r3, r1
 2999              	.LVL354:
 773:lvgl/src/core/lv_obj_scroll.c ****             break;
 3000              		.loc 1 773 22 view .LVU937
 3001 02fa 15FA83F3 		uxtah	r3, r5, r3
ARM GAS  C:\usertemp\ccBZVumh.s 			page 95


 3002 02fe 1DB2     		sxth	r5, r3
 3003              	.LVL355:
 774:lvgl/src/core/lv_obj_scroll.c ****     }
 3004              		.loc 1 774 13 is_stmt 1 view .LVU938
 3005 0300 A5E7     		b	.L146
 3006              	.LVL356:
 3007              	.L180:
 771:lvgl/src/core/lv_obj_scroll.c ****             act = lv_area_get_width(area_tmp) / 2 + area_tmp->x1 + x_scroll;
 3008              		.loc 1 771 51 is_stmt 0 view .LVU939
 3009 0302 5A1C     		adds	r2, r3, #1
 3010 0304 E5E7     		b	.L147
 3011              	.LVL357:
 3012              	.L181:
 772:lvgl/src/core/lv_obj_scroll.c ****             x_scroll += snap_goal - act;
 3013              		.loc 1 772 51 discriminator 1 view .LVU940
 3014 0306 0132     		adds	r2, r2, #1
 3015 0308 F0E7     		b	.L148
 3016              	.LVL358:
 3017              	.L177:
 3018              	.LBB178:
 781:lvgl/src/core/lv_obj_scroll.c ****         res = lv_event_send(parent, LV_EVENT_SCROLL_END, NULL);
 3019              		.loc 1 781 9 is_stmt 1 view .LVU941
 782:lvgl/src/core/lv_obj_scroll.c ****         if(res != LV_RES_OK) return;
 3020              		.loc 1 782 9 view .LVU942
 782:lvgl/src/core/lv_obj_scroll.c ****         if(res != LV_RES_OK) return;
 3021              		.loc 1 782 15 is_stmt 0 view .LVU943
 3022 030a 0022     		movs	r2, #0
 3023 030c 0A21     		movs	r1, #10
 3024 030e 2046     		mov	r0, r4
 3025              	.LVL359:
 782:lvgl/src/core/lv_obj_scroll.c ****         if(res != LV_RES_OK) return;
 3026              		.loc 1 782 15 view .LVU944
 3027 0310 FFF7FEFF 		bl	lv_event_send
 3028              	.LVL360:
 783:lvgl/src/core/lv_obj_scroll.c ****     }
 3029              		.loc 1 783 9 is_stmt 1 view .LVU945
 783:lvgl/src/core/lv_obj_scroll.c ****     }
 3030              		.loc 1 783 11 is_stmt 0 view .LVU946
 3031 0314 0128     		cmp	r0, #1
 3032 0316 18D1     		bne	.L131
 3033 0318 A6E7     		b	.L149
 3034              	.LVL361:
 3035              	.L178:
 783:lvgl/src/core/lv_obj_scroll.c ****     }
 3036              		.loc 1 783 11 view .LVU947
 3037              	.LBE178:
 786:lvgl/src/core/lv_obj_scroll.c ****     if((scroll_dir & LV_DIR_RIGHT) == 0 && x_scroll > 0) x_scroll = 0;
 3038              		.loc 1 786 66 discriminator 2 view .LVU948
 3039 031a 0025     		movs	r5, #0
 3040              	.LVL362:
 786:lvgl/src/core/lv_obj_scroll.c ****     if((scroll_dir & LV_DIR_RIGHT) == 0 && x_scroll > 0) x_scroll = 0;
 3041              		.loc 1 786 66 discriminator 2 view .LVU949
 3042 031c AAE7     		b	.L150
 3043              	.LVL363:
 3044              	.L179:
 788:lvgl/src/core/lv_obj_scroll.c ****     if((scroll_dir & LV_DIR_BOTTOM) == 0 && y_scroll > 0) y_scroll = 0;
 3045              		.loc 1 788 65 discriminator 2 view .LVU950
ARM GAS  C:\usertemp\ccBZVumh.s 			page 96


 3046 031e 0026     		movs	r6, #0
 3047              	.LVL364:
 788:lvgl/src/core/lv_obj_scroll.c ****     if((scroll_dir & LV_DIR_BOTTOM) == 0 && y_scroll > 0) y_scroll = 0;
 3048              		.loc 1 788 65 discriminator 2 view .LVU951
 3049 0320 B5E7     		b	.L152
 3050              	.LVL365:
 3051              	.L169:
 3052              		.loc 1 791 21 discriminator 2 view .LVU952
 3053 0322 0022     		movs	r2, #0
 3054              	.L154:
 3055              		.loc 1 791 21 discriminator 4 view .LVU953
 3056 0324 1344     		add	r3, r3, r2
 3057 0326 A8F80030 		strh	r3, [r8]	@ movhi
 792:lvgl/src/core/lv_obj_scroll.c ****     scroll_value->y += anim_en == LV_ANIM_OFF ? 0 : y_scroll;
 3058              		.loc 1 792 5 is_stmt 1 view .LVU954
 3059              		.loc 1 792 17 is_stmt 0 view .LVU955
 3060 032a B8F80230 		ldrh	r3, [r8, #2]
 3061              		.loc 1 792 21 view .LVU956
 3062 032e 029A     		ldr	r2, [sp, #8]
 3063 0330 0AB1     		cbz	r2, .L170
 3064              		.loc 1 792 21 discriminator 1 view .LVU957
 3065 0332 B2B2     		uxth	r2, r6
 3066 0334 00E0     		b	.L155
 3067              	.L170:
 3068              		.loc 1 792 21 discriminator 2 view .LVU958
 3069 0336 0022     		movs	r2, #0
 3070              	.L155:
 3071              		.loc 1 792 21 discriminator 4 view .LVU959
 3072 0338 1344     		add	r3, r3, r2
 3073 033a A8F80230 		strh	r3, [r8, #2]	@ movhi
 793:lvgl/src/core/lv_obj_scroll.c ****     lv_obj_scroll_by(parent, x_scroll, y_scroll, anim_en);
 3074              		.loc 1 793 5 is_stmt 1 view .LVU960
 3075 033e 029B     		ldr	r3, [sp, #8]
 3076 0340 3246     		mov	r2, r6
 3077 0342 2946     		mov	r1, r5
 3078 0344 2046     		mov	r0, r4
 3079 0346 FFF7FEFF 		bl	lv_obj_scroll_by
 3080              	.LVL366:
 3081              	.L131:
 794:lvgl/src/core/lv_obj_scroll.c **** }
 3082              		.loc 1 794 1 is_stmt 0 view .LVU961
 3083 034a 09B0     		add	sp, sp, #36
 3084              	.LCFI19:
 3085              		.cfi_def_cfa_offset 36
 3086              		@ sp needed
 3087 034c BDE8F08F 		pop	{r4, r5, r6, r7, r8, r9, r10, fp, pc}
 3088              	.LVL367:
 3089              	.L183:
 3090              		.loc 1 794 1 view .LVU962
 3091              		.align	2
 3092              	.L182:
 3093 0350 00000000 		.word	scroll_y_anim
 3094 0354 00000000 		.word	scroll_x_anim
 3095              		.cfi_endproc
 3096              	.LFE193:
 3098              		.section	.text.lv_obj_scroll_to_x,"ax",%progbits
 3099              		.align	1
ARM GAS  C:\usertemp\ccBZVumh.s 			page 97


 3100              		.global	lv_obj_scroll_to_x
 3101              		.syntax unified
 3102              		.thumb
 3103              		.thumb_func
 3105              	lv_obj_scroll_to_x:
 3106              	.LVL368:
 3107              	.LFB180:
 366:lvgl/src/core/lv_obj_scroll.c ****     lv_anim_del(obj, scroll_x_anim);
 3108              		.loc 1 366 1 is_stmt 1 view -0
 3109              		.cfi_startproc
 3110              		@ args = 0, pretend = 0, frame = 0
 3111              		@ frame_needed = 0, uses_anonymous_args = 0
 366:lvgl/src/core/lv_obj_scroll.c ****     lv_anim_del(obj, scroll_x_anim);
 3112              		.loc 1 366 1 is_stmt 0 view .LVU964
 3113 0000 70B5     		push	{r4, r5, r6, lr}
 3114              	.LCFI20:
 3115              		.cfi_def_cfa_offset 16
 3116              		.cfi_offset 4, -16
 3117              		.cfi_offset 5, -12
 3118              		.cfi_offset 6, -8
 3119              		.cfi_offset 14, -4
 3120 0002 0446     		mov	r4, r0
 3121 0004 0E46     		mov	r6, r1
 3122 0006 1546     		mov	r5, r2
 367:lvgl/src/core/lv_obj_scroll.c **** 
 3123              		.loc 1 367 5 is_stmt 1 view .LVU965
 3124 0008 0649     		ldr	r1, .L186
 3125              	.LVL369:
 367:lvgl/src/core/lv_obj_scroll.c **** 
 3126              		.loc 1 367 5 is_stmt 0 view .LVU966
 3127 000a FFF7FEFF 		bl	lv_anim_del
 3128              	.LVL370:
 369:lvgl/src/core/lv_obj_scroll.c ****     lv_coord_t diff = -x + scroll_x;
 3129              		.loc 1 369 5 is_stmt 1 view .LVU967
 369:lvgl/src/core/lv_obj_scroll.c ****     lv_coord_t diff = -x + scroll_x;
 3130              		.loc 1 369 27 is_stmt 0 view .LVU968
 3131 000e 2046     		mov	r0, r4
 3132 0010 FFF7FEFF 		bl	lv_obj_get_scroll_x
 3133              	.LVL371:
 370:lvgl/src/core/lv_obj_scroll.c **** 
 3134              		.loc 1 370 5 is_stmt 1 view .LVU969
 370:lvgl/src/core/lv_obj_scroll.c **** 
 3135              		.loc 1 370 26 is_stmt 0 view .LVU970
 3136 0014 811B     		subs	r1, r0, r6
 3137              	.LVL372:
 372:lvgl/src/core/lv_obj_scroll.c **** }
 3138              		.loc 1 372 5 is_stmt 1 view .LVU971
 3139 0016 2B46     		mov	r3, r5
 3140 0018 0022     		movs	r2, #0
 3141 001a 09B2     		sxth	r1, r1
 372:lvgl/src/core/lv_obj_scroll.c **** }
 3142              		.loc 1 372 5 is_stmt 0 view .LVU972
 3143 001c 2046     		mov	r0, r4
 3144              	.LVL373:
 372:lvgl/src/core/lv_obj_scroll.c **** }
 3145              		.loc 1 372 5 view .LVU973
 3146 001e FFF7FEFF 		bl	lv_obj_scroll_by_bounded
ARM GAS  C:\usertemp\ccBZVumh.s 			page 98


 3147              	.LVL374:
 373:lvgl/src/core/lv_obj_scroll.c **** 
 3148              		.loc 1 373 1 view .LVU974
 3149 0022 70BD     		pop	{r4, r5, r6, pc}
 3150              	.LVL375:
 3151              	.L187:
 373:lvgl/src/core/lv_obj_scroll.c **** 
 3152              		.loc 1 373 1 view .LVU975
 3153              		.align	2
 3154              	.L186:
 3155 0024 00000000 		.word	scroll_x_anim
 3156              		.cfi_endproc
 3157              	.LFE180:
 3159              		.section	.text.lv_obj_scroll_to_y,"ax",%progbits
 3160              		.align	1
 3161              		.global	lv_obj_scroll_to_y
 3162              		.syntax unified
 3163              		.thumb
 3164              		.thumb_func
 3166              	lv_obj_scroll_to_y:
 3167              	.LVL376:
 3168              	.LFB181:
 376:lvgl/src/core/lv_obj_scroll.c ****     lv_anim_del(obj, scroll_y_anim);
 3169              		.loc 1 376 1 is_stmt 1 view -0
 3170              		.cfi_startproc
 3171              		@ args = 0, pretend = 0, frame = 0
 3172              		@ frame_needed = 0, uses_anonymous_args = 0
 376:lvgl/src/core/lv_obj_scroll.c ****     lv_anim_del(obj, scroll_y_anim);
 3173              		.loc 1 376 1 is_stmt 0 view .LVU977
 3174 0000 70B5     		push	{r4, r5, r6, lr}
 3175              	.LCFI21:
 3176              		.cfi_def_cfa_offset 16
 3177              		.cfi_offset 4, -16
 3178              		.cfi_offset 5, -12
 3179              		.cfi_offset 6, -8
 3180              		.cfi_offset 14, -4
 3181 0002 0446     		mov	r4, r0
 3182 0004 0E46     		mov	r6, r1
 3183 0006 1546     		mov	r5, r2
 377:lvgl/src/core/lv_obj_scroll.c **** 
 3184              		.loc 1 377 5 is_stmt 1 view .LVU978
 3185 0008 0649     		ldr	r1, .L190
 3186              	.LVL377:
 377:lvgl/src/core/lv_obj_scroll.c **** 
 3187              		.loc 1 377 5 is_stmt 0 view .LVU979
 3188 000a FFF7FEFF 		bl	lv_anim_del
 3189              	.LVL378:
 379:lvgl/src/core/lv_obj_scroll.c ****     lv_coord_t diff = -y + scroll_y;
 3190              		.loc 1 379 5 is_stmt 1 view .LVU980
 379:lvgl/src/core/lv_obj_scroll.c ****     lv_coord_t diff = -y + scroll_y;
 3191              		.loc 1 379 27 is_stmt 0 view .LVU981
 3192 000e 2046     		mov	r0, r4
 3193 0010 FFF7FEFF 		bl	lv_obj_get_scroll_y
 3194              	.LVL379:
 380:lvgl/src/core/lv_obj_scroll.c **** 
 3195              		.loc 1 380 5 is_stmt 1 view .LVU982
 380:lvgl/src/core/lv_obj_scroll.c **** 
ARM GAS  C:\usertemp\ccBZVumh.s 			page 99


 3196              		.loc 1 380 26 is_stmt 0 view .LVU983
 3197 0014 821B     		subs	r2, r0, r6
 3198              	.LVL380:
 382:lvgl/src/core/lv_obj_scroll.c **** }
 3199              		.loc 1 382 5 is_stmt 1 view .LVU984
 3200 0016 2B46     		mov	r3, r5
 3201 0018 12B2     		sxth	r2, r2
 382:lvgl/src/core/lv_obj_scroll.c **** }
 3202              		.loc 1 382 5 is_stmt 0 view .LVU985
 3203 001a 0021     		movs	r1, #0
 3204 001c 2046     		mov	r0, r4
 3205              	.LVL381:
 382:lvgl/src/core/lv_obj_scroll.c **** }
 3206              		.loc 1 382 5 view .LVU986
 3207 001e FFF7FEFF 		bl	lv_obj_scroll_by_bounded
 3208              	.LVL382:
 383:lvgl/src/core/lv_obj_scroll.c **** 
 3209              		.loc 1 383 1 view .LVU987
 3210 0022 70BD     		pop	{r4, r5, r6, pc}
 3211              	.LVL383:
 3212              	.L191:
 383:lvgl/src/core/lv_obj_scroll.c **** 
 3213              		.loc 1 383 1 view .LVU988
 3214              		.align	2
 3215              	.L190:
 3216 0024 00000000 		.word	scroll_y_anim
 3217              		.cfi_endproc
 3218              	.LFE181:
 3220              		.section	.text.lv_obj_scroll_to,"ax",%progbits
 3221              		.align	1
 3222              		.global	lv_obj_scroll_to
 3223              		.syntax unified
 3224              		.thumb
 3225              		.thumb_func
 3227              	lv_obj_scroll_to:
 3228              	.LVL384:
 3229              	.LFB179:
 360:lvgl/src/core/lv_obj_scroll.c ****     lv_obj_scroll_to_x(obj, x, anim_en);
 3230              		.loc 1 360 1 is_stmt 1 view -0
 3231              		.cfi_startproc
 3232              		@ args = 0, pretend = 0, frame = 0
 3233              		@ frame_needed = 0, uses_anonymous_args = 0
 360:lvgl/src/core/lv_obj_scroll.c ****     lv_obj_scroll_to_x(obj, x, anim_en);
 3234              		.loc 1 360 1 is_stmt 0 view .LVU990
 3235 0000 70B5     		push	{r4, r5, r6, lr}
 3236              	.LCFI22:
 3237              		.cfi_def_cfa_offset 16
 3238              		.cfi_offset 4, -16
 3239              		.cfi_offset 5, -12
 3240              		.cfi_offset 6, -8
 3241              		.cfi_offset 14, -4
 3242 0002 0546     		mov	r5, r0
 3243 0004 1646     		mov	r6, r2
 3244 0006 1C46     		mov	r4, r3
 361:lvgl/src/core/lv_obj_scroll.c ****     lv_obj_scroll_to_y(obj, y, anim_en);
 3245              		.loc 1 361 5 is_stmt 1 view .LVU991
 3246 0008 1A46     		mov	r2, r3
ARM GAS  C:\usertemp\ccBZVumh.s 			page 100


 3247              	.LVL385:
 361:lvgl/src/core/lv_obj_scroll.c ****     lv_obj_scroll_to_y(obj, y, anim_en);
 3248              		.loc 1 361 5 is_stmt 0 view .LVU992
 3249 000a FFF7FEFF 		bl	lv_obj_scroll_to_x
 3250              	.LVL386:
 362:lvgl/src/core/lv_obj_scroll.c **** }
 3251              		.loc 1 362 5 is_stmt 1 view .LVU993
 3252 000e 2246     		mov	r2, r4
 3253 0010 3146     		mov	r1, r6
 3254 0012 2846     		mov	r0, r5
 3255 0014 FFF7FEFF 		bl	lv_obj_scroll_to_y
 3256              	.LVL387:
 363:lvgl/src/core/lv_obj_scroll.c **** 
 3257              		.loc 1 363 1 is_stmt 0 view .LVU994
 3258 0018 70BD     		pop	{r4, r5, r6, pc}
 363:lvgl/src/core/lv_obj_scroll.c **** 
 3259              		.loc 1 363 1 view .LVU995
 3260              		.cfi_endproc
 3261              	.LFE179:
 3263              		.section	.text.lv_obj_scroll_to_view,"ax",%progbits
 3264              		.align	1
 3265              		.global	lv_obj_scroll_to_view
 3266              		.syntax unified
 3267              		.thumb
 3268              		.thumb_func
 3270              	lv_obj_scroll_to_view:
 3271              	.LVL388:
 3272              	.LFB182:
 386:lvgl/src/core/lv_obj_scroll.c ****     /*Be sure the screens layout is correct*/
 3273              		.loc 1 386 1 is_stmt 1 view -0
 3274              		.cfi_startproc
 3275              		@ args = 0, pretend = 0, frame = 8
 3276              		@ frame_needed = 0, uses_anonymous_args = 0
 386:lvgl/src/core/lv_obj_scroll.c ****     /*Be sure the screens layout is correct*/
 3277              		.loc 1 386 1 is_stmt 0 view .LVU997
 3278 0000 30B5     		push	{r4, r5, lr}
 3279              	.LCFI23:
 3280              		.cfi_def_cfa_offset 12
 3281              		.cfi_offset 4, -12
 3282              		.cfi_offset 5, -8
 3283              		.cfi_offset 14, -4
 3284 0002 83B0     		sub	sp, sp, #12
 3285              	.LCFI24:
 3286              		.cfi_def_cfa_offset 24
 3287 0004 0446     		mov	r4, r0
 3288 0006 0D46     		mov	r5, r1
 388:lvgl/src/core/lv_obj_scroll.c **** 
 3289              		.loc 1 388 5 is_stmt 1 view .LVU998
 3290 0008 FFF7FEFF 		bl	lv_obj_update_layout
 3291              	.LVL389:
 390:lvgl/src/core/lv_obj_scroll.c ****     scroll_area_into_view(&obj->coords, obj, &p, anim_en);
 3292              		.loc 1 390 5 view .LVU999
 390:lvgl/src/core/lv_obj_scroll.c ****     scroll_area_into_view(&obj->coords, obj, &p, anim_en);
 3293              		.loc 1 390 16 is_stmt 0 view .LVU1000
 3294 000c 0023     		movs	r3, #0
 3295 000e ADF80430 		strh	r3, [sp, #4]	@ movhi
 3296 0012 ADF80630 		strh	r3, [sp, #6]	@ movhi
ARM GAS  C:\usertemp\ccBZVumh.s 			page 101


 391:lvgl/src/core/lv_obj_scroll.c **** }
 3297              		.loc 1 391 5 is_stmt 1 view .LVU1001
 3298 0016 2B46     		mov	r3, r5
 3299 0018 01AA     		add	r2, sp, #4
 3300 001a 2146     		mov	r1, r4
 3301 001c 04F11400 		add	r0, r4, #20
 3302 0020 FFF7FEFF 		bl	scroll_area_into_view
 3303              	.LVL390:
 392:lvgl/src/core/lv_obj_scroll.c **** 
 3304              		.loc 1 392 1 is_stmt 0 view .LVU1002
 3305 0024 03B0     		add	sp, sp, #12
 3306              	.LCFI25:
 3307              		.cfi_def_cfa_offset 12
 3308              		@ sp needed
 3309 0026 30BD     		pop	{r4, r5, pc}
 392:lvgl/src/core/lv_obj_scroll.c **** 
 3310              		.loc 1 392 1 view .LVU1003
 3311              		.cfi_endproc
 3312              	.LFE182:
 3314              		.section	.text.lv_obj_scroll_to_view_recursive,"ax",%progbits
 3315              		.align	1
 3316              		.global	lv_obj_scroll_to_view_recursive
 3317              		.syntax unified
 3318              		.thumb
 3319              		.thumb_func
 3321              	lv_obj_scroll_to_view_recursive:
 3322              	.LVL391:
 3323              	.LFB183:
 395:lvgl/src/core/lv_obj_scroll.c ****     /*Be sure the screens layout is correct*/
 3324              		.loc 1 395 1 is_stmt 1 view -0
 3325              		.cfi_startproc
 3326              		@ args = 0, pretend = 0, frame = 8
 3327              		@ frame_needed = 0, uses_anonymous_args = 0
 395:lvgl/src/core/lv_obj_scroll.c ****     /*Be sure the screens layout is correct*/
 3328              		.loc 1 395 1 is_stmt 0 view .LVU1005
 3329 0000 70B5     		push	{r4, r5, r6, lr}
 3330              	.LCFI26:
 3331              		.cfi_def_cfa_offset 16
 3332              		.cfi_offset 4, -16
 3333              		.cfi_offset 5, -12
 3334              		.cfi_offset 6, -8
 3335              		.cfi_offset 14, -4
 3336 0002 82B0     		sub	sp, sp, #8
 3337              	.LCFI27:
 3338              		.cfi_def_cfa_offset 24
 3339 0004 0546     		mov	r5, r0
 3340 0006 0E46     		mov	r6, r1
 397:lvgl/src/core/lv_obj_scroll.c **** 
 3341              		.loc 1 397 5 is_stmt 1 view .LVU1006
 3342 0008 FFF7FEFF 		bl	lv_obj_update_layout
 3343              	.LVL392:
 399:lvgl/src/core/lv_obj_scroll.c ****     lv_obj_t * child = obj;
 3344              		.loc 1 399 5 view .LVU1007
 399:lvgl/src/core/lv_obj_scroll.c ****     lv_obj_t * child = obj;
 3345              		.loc 1 399 16 is_stmt 0 view .LVU1008
 3346 000c 0023     		movs	r3, #0
 3347 000e ADF80430 		strh	r3, [sp, #4]	@ movhi
ARM GAS  C:\usertemp\ccBZVumh.s 			page 102


 3348 0012 ADF80630 		strh	r3, [sp, #6]	@ movhi
 400:lvgl/src/core/lv_obj_scroll.c ****     lv_obj_t * parent = lv_obj_get_parent(child);
 3349              		.loc 1 400 5 is_stmt 1 view .LVU1009
 3350              	.LVL393:
 401:lvgl/src/core/lv_obj_scroll.c ****     while(parent) {
 3351              		.loc 1 401 5 view .LVU1010
 401:lvgl/src/core/lv_obj_scroll.c ****     while(parent) {
 3352              		.loc 1 401 25 is_stmt 0 view .LVU1011
 3353 0016 2846     		mov	r0, r5
 3354 0018 FFF7FEFF 		bl	lv_obj_get_parent
 3355              	.LVL394:
 3356 001c 0446     		mov	r4, r0
 3357              	.LVL395:
 402:lvgl/src/core/lv_obj_scroll.c ****         scroll_area_into_view(&obj->coords, child, &p, anim_en);
 3358              		.loc 1 402 5 is_stmt 1 view .LVU1012
 400:lvgl/src/core/lv_obj_scroll.c ****     lv_obj_t * parent = lv_obj_get_parent(child);
 3359              		.loc 1 400 16 is_stmt 0 view .LVU1013
 3360 001e 2946     		mov	r1, r5
 402:lvgl/src/core/lv_obj_scroll.c ****         scroll_area_into_view(&obj->coords, child, &p, anim_en);
 3361              		.loc 1 402 10 view .LVU1014
 3362 0020 0AE0     		b	.L197
 3363              	.LVL396:
 3364              	.L198:
 403:lvgl/src/core/lv_obj_scroll.c ****         child = parent;
 3365              		.loc 1 403 9 is_stmt 1 view .LVU1015
 3366 0022 3346     		mov	r3, r6
 3367 0024 01AA     		add	r2, sp, #4
 3368 0026 05F11400 		add	r0, r5, #20
 3369              	.LVL397:
 403:lvgl/src/core/lv_obj_scroll.c ****         child = parent;
 3370              		.loc 1 403 9 is_stmt 0 view .LVU1016
 3371 002a FFF7FEFF 		bl	scroll_area_into_view
 3372              	.LVL398:
 404:lvgl/src/core/lv_obj_scroll.c ****         parent = lv_obj_get_parent(parent);
 3373              		.loc 1 404 9 is_stmt 1 view .LVU1017
 405:lvgl/src/core/lv_obj_scroll.c ****     }
 3374              		.loc 1 405 9 view .LVU1018
 405:lvgl/src/core/lv_obj_scroll.c ****     }
 3375              		.loc 1 405 18 is_stmt 0 view .LVU1019
 3376 002e 2046     		mov	r0, r4
 3377 0030 FFF7FEFF 		bl	lv_obj_get_parent
 3378              	.LVL399:
 404:lvgl/src/core/lv_obj_scroll.c ****         parent = lv_obj_get_parent(parent);
 3379              		.loc 1 404 15 view .LVU1020
 3380 0034 2146     		mov	r1, r4
 405:lvgl/src/core/lv_obj_scroll.c ****     }
 3381              		.loc 1 405 18 view .LVU1021
 3382 0036 0446     		mov	r4, r0
 3383              	.LVL400:
 3384              	.L197:
 402:lvgl/src/core/lv_obj_scroll.c ****         scroll_area_into_view(&obj->coords, child, &p, anim_en);
 3385              		.loc 1 402 11 is_stmt 1 view .LVU1022
 3386 0038 002C     		cmp	r4, #0
 3387 003a F2D1     		bne	.L198
 407:lvgl/src/core/lv_obj_scroll.c **** 
 3388              		.loc 1 407 1 is_stmt 0 view .LVU1023
 3389 003c 02B0     		add	sp, sp, #8
ARM GAS  C:\usertemp\ccBZVumh.s 			page 103


 3390              	.LCFI28:
 3391              		.cfi_def_cfa_offset 16
 3392              		@ sp needed
 3393 003e 70BD     		pop	{r4, r5, r6, pc}
 407:lvgl/src/core/lv_obj_scroll.c **** 
 3394              		.loc 1 407 1 view .LVU1024
 3395              		.cfi_endproc
 3396              	.LFE183:
 3398              		.section	.text.lv_obj_is_scrolling,"ax",%progbits
 3399              		.align	1
 3400              		.global	lv_obj_is_scrolling
 3401              		.syntax unified
 3402              		.thumb
 3403              		.thumb_func
 3405              	lv_obj_is_scrolling:
 3406              	.LVL401:
 3407              	.LFB184:
 410:lvgl/src/core/lv_obj_scroll.c ****     lv_indev_t * indev = lv_indev_get_next(NULL);
 3408              		.loc 1 410 1 is_stmt 1 view -0
 3409              		.cfi_startproc
 3410              		@ args = 0, pretend = 0, frame = 0
 3411              		@ frame_needed = 0, uses_anonymous_args = 0
 410:lvgl/src/core/lv_obj_scroll.c ****     lv_indev_t * indev = lv_indev_get_next(NULL);
 3412              		.loc 1 410 1 is_stmt 0 view .LVU1026
 3413 0000 38B5     		push	{r3, r4, r5, lr}
 3414              	.LCFI29:
 3415              		.cfi_def_cfa_offset 16
 3416              		.cfi_offset 3, -16
 3417              		.cfi_offset 4, -12
 3418              		.cfi_offset 5, -8
 3419              		.cfi_offset 14, -4
 3420 0002 0546     		mov	r5, r0
 411:lvgl/src/core/lv_obj_scroll.c ****     while(indev) {
 3421              		.loc 1 411 5 is_stmt 1 view .LVU1027
 411:lvgl/src/core/lv_obj_scroll.c ****     while(indev) {
 3422              		.loc 1 411 26 is_stmt 0 view .LVU1028
 3423 0004 0020     		movs	r0, #0
 3424              	.LVL402:
 411:lvgl/src/core/lv_obj_scroll.c ****     while(indev) {
 3425              		.loc 1 411 26 view .LVU1029
 3426 0006 FFF7FEFF 		bl	lv_indev_get_next
 3427              	.LVL403:
 3428 000a 0446     		mov	r4, r0
 3429              	.LVL404:
 412:lvgl/src/core/lv_obj_scroll.c ****         if(lv_indev_get_scroll_obj(indev) == obj) return true;
 3430              		.loc 1 412 5 is_stmt 1 view .LVU1030
 412:lvgl/src/core/lv_obj_scroll.c ****         if(lv_indev_get_scroll_obj(indev) == obj) return true;
 3431              		.loc 1 412 10 is_stmt 0 view .LVU1031
 3432 000c 03E0     		b	.L201
 3433              	.LVL405:
 3434              	.L207:
 414:lvgl/src/core/lv_obj_scroll.c ****     }
 3435              		.loc 1 414 9 is_stmt 1 view .LVU1032
 414:lvgl/src/core/lv_obj_scroll.c ****     }
 3436              		.loc 1 414 17 is_stmt 0 view .LVU1033
 3437 000e 2046     		mov	r0, r4
 3438 0010 FFF7FEFF 		bl	lv_indev_get_next
ARM GAS  C:\usertemp\ccBZVumh.s 			page 104


 3439              	.LVL406:
 3440 0014 0446     		mov	r4, r0
 3441              	.LVL407:
 3442              	.L201:
 412:lvgl/src/core/lv_obj_scroll.c ****         if(lv_indev_get_scroll_obj(indev) == obj) return true;
 3443              		.loc 1 412 11 is_stmt 1 view .LVU1034
 3444 0016 34B1     		cbz	r4, .L206
 413:lvgl/src/core/lv_obj_scroll.c ****         indev = lv_indev_get_next(indev);
 3445              		.loc 1 413 9 view .LVU1035
 413:lvgl/src/core/lv_obj_scroll.c ****         indev = lv_indev_get_next(indev);
 3446              		.loc 1 413 12 is_stmt 0 view .LVU1036
 3447 0018 2046     		mov	r0, r4
 413:lvgl/src/core/lv_obj_scroll.c ****         indev = lv_indev_get_next(indev);
 3448              		.loc 1 413 12 view .LVU1037
 3449 001a FFF7FEFF 		bl	lv_indev_get_scroll_obj
 3450              	.LVL408:
 413:lvgl/src/core/lv_obj_scroll.c ****         indev = lv_indev_get_next(indev);
 3451              		.loc 1 413 11 discriminator 1 view .LVU1038
 3452 001e 8542     		cmp	r5, r0
 3453 0020 F5D1     		bne	.L207
 413:lvgl/src/core/lv_obj_scroll.c ****         indev = lv_indev_get_next(indev);
 3454              		.loc 1 413 58 discriminator 1 view .LVU1039
 3455 0022 0120     		movs	r0, #1
 3456 0024 00E0     		b	.L202
 3457              	.LVL409:
 3458              	.L206:
 417:lvgl/src/core/lv_obj_scroll.c **** }
 3459              		.loc 1 417 12 view .LVU1040
 3460 0026 0020     		movs	r0, #0
 3461              	.LVL410:
 3462              	.L202:
 418:lvgl/src/core/lv_obj_scroll.c **** 
 3463              		.loc 1 418 1 view .LVU1041
 3464 0028 38BD     		pop	{r3, r4, r5, pc}
 418:lvgl/src/core/lv_obj_scroll.c **** 
 3465              		.loc 1 418 1 view .LVU1042
 3466              		.cfi_endproc
 3467              	.LFE184:
 3469              		.section	.text.lv_obj_update_snap,"ax",%progbits
 3470              		.align	1
 3471              		.global	lv_obj_update_snap
 3472              		.syntax unified
 3473              		.thumb
 3474              		.thumb_func
 3476              	lv_obj_update_snap:
 3477              	.LVL411:
 3478              	.LFB185:
 421:lvgl/src/core/lv_obj_scroll.c ****     lv_obj_update_layout(obj);
 3479              		.loc 1 421 1 is_stmt 1 view -0
 3480              		.cfi_startproc
 3481              		@ args = 0, pretend = 0, frame = 8
 3482              		@ frame_needed = 0, uses_anonymous_args = 0
 421:lvgl/src/core/lv_obj_scroll.c ****     lv_obj_update_layout(obj);
 3483              		.loc 1 421 1 is_stmt 0 view .LVU1044
 3484 0000 30B5     		push	{r4, r5, lr}
 3485              	.LCFI30:
 3486              		.cfi_def_cfa_offset 12
ARM GAS  C:\usertemp\ccBZVumh.s 			page 105


 3487              		.cfi_offset 4, -12
 3488              		.cfi_offset 5, -8
 3489              		.cfi_offset 14, -4
 3490 0002 83B0     		sub	sp, sp, #12
 3491              	.LCFI31:
 3492              		.cfi_def_cfa_offset 24
 3493 0004 0446     		mov	r4, r0
 3494 0006 0D46     		mov	r5, r1
 422:lvgl/src/core/lv_obj_scroll.c ****     lv_point_t p;
 3495              		.loc 1 422 5 is_stmt 1 view .LVU1045
 3496 0008 FFF7FEFF 		bl	lv_obj_update_layout
 3497              	.LVL412:
 423:lvgl/src/core/lv_obj_scroll.c ****     lv_indev_scroll_get_snap_dist(obj, &p);
 3498              		.loc 1 423 5 view .LVU1046
 424:lvgl/src/core/lv_obj_scroll.c ****     lv_obj_scroll_by(obj, p.x, p.y, anim_en);
 3499              		.loc 1 424 5 view .LVU1047
 3500 000c 01A9     		add	r1, sp, #4
 3501 000e 2046     		mov	r0, r4
 3502 0010 FFF7FEFF 		bl	lv_indev_scroll_get_snap_dist
 3503              	.LVL413:
 425:lvgl/src/core/lv_obj_scroll.c **** }
 3504              		.loc 1 425 5 view .LVU1048
 3505 0014 2B46     		mov	r3, r5
 3506 0016 BDF90620 		ldrsh	r2, [sp, #6]
 3507 001a BDF90410 		ldrsh	r1, [sp, #4]
 3508 001e 2046     		mov	r0, r4
 3509 0020 FFF7FEFF 		bl	lv_obj_scroll_by
 3510              	.LVL414:
 426:lvgl/src/core/lv_obj_scroll.c **** 
 3511              		.loc 1 426 1 is_stmt 0 view .LVU1049
 3512 0024 03B0     		add	sp, sp, #12
 3513              	.LCFI32:
 3514              		.cfi_def_cfa_offset 12
 3515              		@ sp needed
 3516 0026 30BD     		pop	{r4, r5, pc}
 426:lvgl/src/core/lv_obj_scroll.c **** 
 3517              		.loc 1 426 1 view .LVU1050
 3518              		.cfi_endproc
 3519              	.LFE185:
 3521              		.section	.text.lv_obj_get_scrollbar_area,"ax",%progbits
 3522              		.align	1
 3523              		.global	lv_obj_get_scrollbar_area
 3524              		.syntax unified
 3525              		.thumb
 3526              		.thumb_func
 3528              	lv_obj_get_scrollbar_area:
 3529              	.LVL415:
 3530              	.LFB186:
 429:lvgl/src/core/lv_obj_scroll.c ****     lv_area_set(hor_area, 0, 0, -1, -1);
 3531              		.loc 1 429 1 is_stmt 1 view -0
 3532              		.cfi_startproc
 3533              		@ args = 0, pretend = 0, frame = 72
 3534              		@ frame_needed = 0, uses_anonymous_args = 0
 429:lvgl/src/core/lv_obj_scroll.c ****     lv_area_set(hor_area, 0, 0, -1, -1);
 3535              		.loc 1 429 1 is_stmt 0 view .LVU1052
 3536 0000 2DE9F04F 		push	{r4, r5, r6, r7, r8, r9, r10, fp, lr}
 3537              	.LCFI33:
ARM GAS  C:\usertemp\ccBZVumh.s 			page 106


 3538              		.cfi_def_cfa_offset 36
 3539              		.cfi_offset 4, -36
 3540              		.cfi_offset 5, -32
 3541              		.cfi_offset 6, -28
 3542              		.cfi_offset 7, -24
 3543              		.cfi_offset 8, -20
 3544              		.cfi_offset 9, -16
 3545              		.cfi_offset 10, -12
 3546              		.cfi_offset 11, -8
 3547              		.cfi_offset 14, -4
 3548 0004 95B0     		sub	sp, sp, #84
 3549              	.LCFI34:
 3550              		.cfi_def_cfa_offset 120
 3551 0006 0546     		mov	r5, r0
 3552 0008 0F46     		mov	r7, r1
 3553 000a 1646     		mov	r6, r2
 430:lvgl/src/core/lv_obj_scroll.c ****     lv_area_set(ver_area, 0, 0, -1, -1);
 3554              		.loc 1 430 5 is_stmt 1 view .LVU1053
 3555 000c 4FF0FF34 		mov	r4, #-1
 3556 0010 0094     		str	r4, [sp]
 3557 0012 2346     		mov	r3, r4
 3558 0014 0022     		movs	r2, #0
 3559              	.LVL416:
 430:lvgl/src/core/lv_obj_scroll.c ****     lv_area_set(ver_area, 0, 0, -1, -1);
 3560              		.loc 1 430 5 is_stmt 0 view .LVU1054
 3561 0016 1146     		mov	r1, r2
 3562              	.LVL417:
 430:lvgl/src/core/lv_obj_scroll.c ****     lv_area_set(ver_area, 0, 0, -1, -1);
 3563              		.loc 1 430 5 view .LVU1055
 3564 0018 3846     		mov	r0, r7
 3565              	.LVL418:
 430:lvgl/src/core/lv_obj_scroll.c ****     lv_area_set(ver_area, 0, 0, -1, -1);
 3566              		.loc 1 430 5 view .LVU1056
 3567 001a FFF7FEFF 		bl	lv_area_set
 3568              	.LVL419:
 431:lvgl/src/core/lv_obj_scroll.c **** 
 3569              		.loc 1 431 5 is_stmt 1 view .LVU1057
 3570 001e 0094     		str	r4, [sp]
 3571 0020 2346     		mov	r3, r4
 3572 0022 0022     		movs	r2, #0
 3573 0024 1146     		mov	r1, r2
 3574 0026 3046     		mov	r0, r6
 3575 0028 FFF7FEFF 		bl	lv_area_set
 3576              	.LVL420:
 433:lvgl/src/core/lv_obj_scroll.c **** 
 3577              		.loc 1 433 5 view .LVU1058
 433:lvgl/src/core/lv_obj_scroll.c **** 
 3578              		.loc 1 433 8 is_stmt 0 view .LVU1059
 3579 002c 1021     		movs	r1, #16
 3580 002e 2846     		mov	r0, r5
 3581 0030 FFF7FEFF 		bl	lv_obj_has_flag
 3582              	.LVL421:
 433:lvgl/src/core/lv_obj_scroll.c **** 
 3583              		.loc 1 433 7 discriminator 1 view .LVU1060
 3584 0034 0390     		str	r0, [sp, #12]
 3585 0036 20B1     		cbz	r0, .L210
 435:lvgl/src/core/lv_obj_scroll.c ****     if(sm == LV_SCROLLBAR_MODE_OFF)  return;
ARM GAS  C:\usertemp\ccBZVumh.s 			page 107


 3586              		.loc 1 435 5 is_stmt 1 view .LVU1061
 435:lvgl/src/core/lv_obj_scroll.c ****     if(sm == LV_SCROLLBAR_MODE_OFF)  return;
 3587              		.loc 1 435 19 is_stmt 0 view .LVU1062
 3588 0038 2846     		mov	r0, r5
 3589 003a FFF7FEFF 		bl	lv_obj_get_scrollbar_mode
 3590              	.LVL422:
 436:lvgl/src/core/lv_obj_scroll.c **** 
 3591              		.loc 1 436 5 is_stmt 1 view .LVU1063
 436:lvgl/src/core/lv_obj_scroll.c **** 
 3592              		.loc 1 436 7 is_stmt 0 view .LVU1064
 3593 003e 8146     		mov	r9, r0
 3594 0040 10B9     		cbnz	r0, .L278
 3595              	.LVL423:
 3596              	.L210:
 600:lvgl/src/core/lv_obj_scroll.c **** 
 3597              		.loc 1 600 1 view .LVU1065
 3598 0042 15B0     		add	sp, sp, #84
 3599              	.LCFI35:
 3600              		.cfi_remember_state
 3601              		.cfi_def_cfa_offset 36
 3602              		@ sp needed
 3603 0044 BDE8F08F 		pop	{r4, r5, r6, r7, r8, r9, r10, fp, pc}
 3604              	.LVL424:
 3605              	.L278:
 3606              	.LCFI36:
 3607              		.cfi_restore_state
 439:lvgl/src/core/lv_obj_scroll.c ****     if(sm == LV_SCROLLBAR_MODE_ACTIVE) {
 3608              		.loc 1 439 5 is_stmt 1 view .LVU1066
 439:lvgl/src/core/lv_obj_scroll.c ****     if(sm == LV_SCROLLBAR_MODE_ACTIVE) {
 3609              		.loc 1 439 26 is_stmt 0 view .LVU1067
 3610 0048 0020     		movs	r0, #0
 3611              	.LVL425:
 439:lvgl/src/core/lv_obj_scroll.c ****     if(sm == LV_SCROLLBAR_MODE_ACTIVE) {
 3612              		.loc 1 439 26 view .LVU1068
 3613 004a FFF7FEFF 		bl	lv_indev_get_next
 3614              	.LVL426:
 3615 004e 0446     		mov	r4, r0
 3616              	.LVL427:
 440:lvgl/src/core/lv_obj_scroll.c ****         while(indev) {
 3617              		.loc 1 440 5 is_stmt 1 view .LVU1069
 440:lvgl/src/core/lv_obj_scroll.c ****         while(indev) {
 3618              		.loc 1 440 7 is_stmt 0 view .LVU1070
 3619 0050 B9F1020F 		cmp	r9, #2
 3620 0054 0CD1     		bne	.L213
 3621              	.L212:
 441:lvgl/src/core/lv_obj_scroll.c ****             if(lv_indev_get_scroll_obj(indev) == obj) break;
 3622              		.loc 1 441 15 is_stmt 1 view .LVU1071
 3623 0056 4CB1     		cbz	r4, .L214
 442:lvgl/src/core/lv_obj_scroll.c ****             indev = lv_indev_get_next(indev);
 3624              		.loc 1 442 13 view .LVU1072
 442:lvgl/src/core/lv_obj_scroll.c ****             indev = lv_indev_get_next(indev);
 3625              		.loc 1 442 16 is_stmt 0 view .LVU1073
 3626 0058 2046     		mov	r0, r4
 442:lvgl/src/core/lv_obj_scroll.c ****             indev = lv_indev_get_next(indev);
 3627              		.loc 1 442 16 view .LVU1074
 3628 005a FFF7FEFF 		bl	lv_indev_get_scroll_obj
 3629              	.LVL428:
ARM GAS  C:\usertemp\ccBZVumh.s 			page 108


 442:lvgl/src/core/lv_obj_scroll.c ****             indev = lv_indev_get_next(indev);
 3630              		.loc 1 442 15 discriminator 1 view .LVU1075
 3631 005e 8542     		cmp	r5, r0
 3632 0060 04D0     		beq	.L214
 443:lvgl/src/core/lv_obj_scroll.c ****         }
 3633              		.loc 1 443 13 is_stmt 1 view .LVU1076
 443:lvgl/src/core/lv_obj_scroll.c ****         }
 3634              		.loc 1 443 21 is_stmt 0 view .LVU1077
 3635 0062 2046     		mov	r0, r4
 3636 0064 FFF7FEFF 		bl	lv_indev_get_next
 3637              	.LVL429:
 3638 0068 0446     		mov	r4, r0
 3639              	.LVL430:
 443:lvgl/src/core/lv_obj_scroll.c ****         }
 3640              		.loc 1 443 21 view .LVU1078
 3641 006a F4E7     		b	.L212
 3642              	.LVL431:
 3643              	.L214:
 445:lvgl/src/core/lv_obj_scroll.c ****     }
 3644              		.loc 1 445 9 is_stmt 1 view .LVU1079
 445:lvgl/src/core/lv_obj_scroll.c ****     }
 3645              		.loc 1 445 11 is_stmt 0 view .LVU1080
 3646 006c 002C     		cmp	r4, #0
 3647 006e E8D0     		beq	.L210
 3648              	.L213:
 448:lvgl/src/core/lv_obj_scroll.c ****     lv_coord_t sb = lv_obj_get_scroll_bottom(obj);
 3649              		.loc 1 448 5 is_stmt 1 view .LVU1081
 448:lvgl/src/core/lv_obj_scroll.c ****     lv_coord_t sb = lv_obj_get_scroll_bottom(obj);
 3650              		.loc 1 448 21 is_stmt 0 view .LVU1082
 3651 0070 2846     		mov	r0, r5
 3652 0072 FFF7FEFF 		bl	lv_obj_get_scroll_top
 3653              	.LVL432:
 3654 0076 8046     		mov	r8, r0
 3655              	.LVL433:
 449:lvgl/src/core/lv_obj_scroll.c ****     lv_coord_t sl = lv_obj_get_scroll_left(obj);
 3656              		.loc 1 449 5 is_stmt 1 view .LVU1083
 449:lvgl/src/core/lv_obj_scroll.c ****     lv_coord_t sl = lv_obj_get_scroll_left(obj);
 3657              		.loc 1 449 21 is_stmt 0 view .LVU1084
 3658 0078 2846     		mov	r0, r5
 3659 007a FFF7FEFF 		bl	lv_obj_get_scroll_bottom
 3660              	.LVL434:
 3661 007e 0490     		str	r0, [sp, #16]
 3662              	.LVL435:
 450:lvgl/src/core/lv_obj_scroll.c ****     lv_coord_t sr = lv_obj_get_scroll_right(obj);
 3663              		.loc 1 450 5 is_stmt 1 view .LVU1085
 450:lvgl/src/core/lv_obj_scroll.c ****     lv_coord_t sr = lv_obj_get_scroll_right(obj);
 3664              		.loc 1 450 21 is_stmt 0 view .LVU1086
 3665 0080 2846     		mov	r0, r5
 3666 0082 FFF7FEFF 		bl	lv_obj_get_scroll_left
 3667              	.LVL436:
 3668 0086 0690     		str	r0, [sp, #24]
 3669              	.LVL437:
 451:lvgl/src/core/lv_obj_scroll.c **** 
 3670              		.loc 1 451 5 is_stmt 1 view .LVU1087
 451:lvgl/src/core/lv_obj_scroll.c **** 
 3671              		.loc 1 451 21 is_stmt 0 view .LVU1088
 3672 0088 2846     		mov	r0, r5
ARM GAS  C:\usertemp\ccBZVumh.s 			page 109


 3673 008a FFF7FEFF 		bl	lv_obj_get_scroll_right
 3674              	.LVL438:
 3675 008e 0590     		str	r0, [sp, #20]
 3676              	.LVL439:
 453:lvgl/src/core/lv_obj_scroll.c **** 
 3677              		.loc 1 453 5 is_stmt 1 view .LVU1089
 453:lvgl/src/core/lv_obj_scroll.c **** 
 3678              		.loc 1 453 20 is_stmt 0 view .LVU1090
 3679 0090 2846     		mov	r0, r5
 3680 0092 FFF7FEFF 		bl	lv_obj_get_scroll_dir
 3681              	.LVL440:
 3682 0096 8246     		mov	r10, r0
 3683              	.LVL441:
 455:lvgl/src/core/lv_obj_scroll.c ****     if((dir & LV_DIR_VER) &&
 3684              		.loc 1 455 5 is_stmt 1 view .LVU1091
 456:lvgl/src/core/lv_obj_scroll.c ****        ((sm == LV_SCROLLBAR_MODE_ON) ||
 3685              		.loc 1 456 5 view .LVU1092
 456:lvgl/src/core/lv_obj_scroll.c ****        ((sm == LV_SCROLLBAR_MODE_ON) ||
 3686              		.loc 1 456 7 is_stmt 0 view .LVU1093
 3687 0098 10F00C0F 		tst	r0, #12
 3688 009c 1FD0     		beq	.L250
 456:lvgl/src/core/lv_obj_scroll.c ****        ((sm == LV_SCROLLBAR_MODE_ON) ||
 3689              		.loc 1 456 27 discriminator 1 view .LVU1094
 3690 009e B9F1010F 		cmp	r9, #1
 3691 00a2 2DD0     		beq	.L251
 457:lvgl/src/core/lv_obj_scroll.c ****         (sm == LV_SCROLLBAR_MODE_AUTO && (st > 0 || sb > 0)) ||
 3692              		.loc 1 457 38 view .LVU1095
 3693 00a4 B9F1030F 		cmp	r9, #3
 3694 00a8 05D0     		beq	.L279
 3695              	.L217:
 458:lvgl/src/core/lv_obj_scroll.c ****         (sm == LV_SCROLLBAR_MODE_ACTIVE && lv_indev_get_scroll_dir(indev) == LV_DIR_VER))) {
 3696              		.loc 1 458 62 discriminator 1 view .LVU1096
 3697 00aa B9F1020F 		cmp	r9, #2
 3698 00ae 0ED0     		beq	.L280
 455:lvgl/src/core/lv_obj_scroll.c ****     if((dir & LV_DIR_VER) &&
 3699              		.loc 1 455 10 view .LVU1097
 3700 00b0 4FF0000B 		mov	fp, #0
 3701 00b4 15E0     		b	.L216
 3702              	.L279:
 458:lvgl/src/core/lv_obj_scroll.c ****         (sm == LV_SCROLLBAR_MODE_ACTIVE && lv_indev_get_scroll_dir(indev) == LV_DIR_VER))) {
 3703              		.loc 1 458 39 view .LVU1098
 3704 00b6 049B     		ldr	r3, [sp, #16]
 3705 00b8 002B     		cmp	r3, #0
 3706 00ba D8BF     		it	le
 3707 00bc B8F1000F 		cmple	r8, #0
 3708 00c0 CCBF     		ite	gt
 3709 00c2 4FF0010B 		movgt	fp, #1
 3710 00c6 4FF0000B 		movle	fp, #0
 3711 00ca 0ADC     		bgt	.L216
 3712 00cc EDE7     		b	.L217
 3713              	.L280:
 459:lvgl/src/core/lv_obj_scroll.c ****         ver_draw = true;
 3714              		.loc 1 459 44 view .LVU1099
 3715 00ce 2046     		mov	r0, r4
 3716              	.LVL442:
 459:lvgl/src/core/lv_obj_scroll.c ****         ver_draw = true;
 3717              		.loc 1 459 44 view .LVU1100
ARM GAS  C:\usertemp\ccBZVumh.s 			page 110


 3718 00d0 FFF7FEFF 		bl	lv_indev_get_scroll_dir
 3719              	.LVL443:
 459:lvgl/src/core/lv_obj_scroll.c ****         ver_draw = true;
 3720              		.loc 1 459 41 discriminator 1 view .LVU1101
 3721 00d4 0C28     		cmp	r0, #12
 3722 00d6 16D0     		beq	.L253
 455:lvgl/src/core/lv_obj_scroll.c ****     if((dir & LV_DIR_VER) &&
 3723              		.loc 1 455 10 view .LVU1102
 3724 00d8 4FF0000B 		mov	fp, #0
 3725 00dc 01E0     		b	.L216
 3726              	.LVL444:
 3727              	.L250:
 455:lvgl/src/core/lv_obj_scroll.c ****     if((dir & LV_DIR_VER) &&
 3728              		.loc 1 455 10 view .LVU1103
 3729 00de 4FF0000B 		mov	fp, #0
 3730              	.LVL445:
 3731              	.L216:
 464:lvgl/src/core/lv_obj_scroll.c ****     if((dir & LV_DIR_HOR) &&
 3732              		.loc 1 464 5 is_stmt 1 view .LVU1104
 465:lvgl/src/core/lv_obj_scroll.c ****        ((sm == LV_SCROLLBAR_MODE_ON) ||
 3733              		.loc 1 465 5 view .LVU1105
 465:lvgl/src/core/lv_obj_scroll.c ****        ((sm == LV_SCROLLBAR_MODE_ON) ||
 3734              		.loc 1 465 7 is_stmt 0 view .LVU1106
 3735 00e2 1AF0030F 		tst	r10, #3
 3736 00e6 24D0     		beq	.L254
 465:lvgl/src/core/lv_obj_scroll.c ****        ((sm == LV_SCROLLBAR_MODE_ON) ||
 3737              		.loc 1 465 27 discriminator 1 view .LVU1107
 3738 00e8 B9F1010F 		cmp	r9, #1
 3739 00ec 23D0     		beq	.L218
 466:lvgl/src/core/lv_obj_scroll.c ****         (sm == LV_SCROLLBAR_MODE_AUTO && (sl > 0 || sr > 0)) ||
 3740              		.loc 1 466 38 view .LVU1108
 3741 00ee B9F1030F 		cmp	r9, #3
 3742 00f2 0BD0     		beq	.L281
 3743              	.L219:
 467:lvgl/src/core/lv_obj_scroll.c ****         (sm == LV_SCROLLBAR_MODE_ACTIVE && lv_indev_get_scroll_dir(indev) == LV_DIR_HOR))) {
 3744              		.loc 1 467 62 discriminator 1 view .LVU1109
 3745 00f4 B9F1020F 		cmp	r9, #2
 3746 00f8 13D0     		beq	.L282
 464:lvgl/src/core/lv_obj_scroll.c ****     if((dir & LV_DIR_HOR) &&
 3747              		.loc 1 464 10 view .LVU1110
 3748 00fa 0023     		movs	r3, #0
 3749 00fc 0393     		str	r3, [sp, #12]
 3750 00fe 1AE0     		b	.L218
 3751              	.LVL446:
 3752              	.L251:
 460:lvgl/src/core/lv_obj_scroll.c ****     }
 3753              		.loc 1 460 18 view .LVU1111
 3754 0100 DDF80CB0 		ldr	fp, [sp, #12]
 3755 0104 EDE7     		b	.L216
 3756              	.LVL447:
 3757              	.L253:
 460:lvgl/src/core/lv_obj_scroll.c ****     }
 3758              		.loc 1 460 18 view .LVU1112
 3759 0106 DDF80CB0 		ldr	fp, [sp, #12]
 3760 010a EAE7     		b	.L216
 3761              	.LVL448:
 3762              	.L281:
ARM GAS  C:\usertemp\ccBZVumh.s 			page 111


 467:lvgl/src/core/lv_obj_scroll.c ****         (sm == LV_SCROLLBAR_MODE_ACTIVE && lv_indev_get_scroll_dir(indev) == LV_DIR_HOR))) {
 3763              		.loc 1 467 39 view .LVU1113
 3764 010c 069B     		ldr	r3, [sp, #24]
 3765 010e 059A     		ldr	r2, [sp, #20]
 3766 0110 002A     		cmp	r2, #0
 3767 0112 D8BF     		it	le
 3768 0114 002B     		cmple	r3, #0
 3769 0116 CCBF     		ite	gt
 3770 0118 0123     		movgt	r3, #1
 3771 011a 0023     		movle	r3, #0
 3772 011c EADD     		ble	.L219
 469:lvgl/src/core/lv_obj_scroll.c ****     }
 3773              		.loc 1 469 18 view .LVU1114
 3774 011e 0393     		str	r3, [sp, #12]
 3775 0120 09E0     		b	.L218
 3776              	.L282:
 468:lvgl/src/core/lv_obj_scroll.c ****         hor_draw = true;
 3777              		.loc 1 468 44 view .LVU1115
 3778 0122 2046     		mov	r0, r4
 3779 0124 FFF7FEFF 		bl	lv_indev_get_scroll_dir
 3780              	.LVL449:
 468:lvgl/src/core/lv_obj_scroll.c ****         hor_draw = true;
 3781              		.loc 1 468 41 discriminator 1 view .LVU1116
 3782 0128 0328     		cmp	r0, #3
 3783 012a 04D0     		beq	.L218
 464:lvgl/src/core/lv_obj_scroll.c ****     if((dir & LV_DIR_HOR) &&
 3784              		.loc 1 464 10 view .LVU1117
 3785 012c 0023     		movs	r3, #0
 3786 012e 0393     		str	r3, [sp, #12]
 3787 0130 01E0     		b	.L218
 3788              	.L254:
 464:lvgl/src/core/lv_obj_scroll.c ****     if((dir & LV_DIR_HOR) &&
 3789              		.loc 1 464 10 view .LVU1118
 3790 0132 0023     		movs	r3, #0
 3791 0134 0393     		str	r3, [sp, #12]
 3792              	.L218:
 3793              	.LVL450:
 472:lvgl/src/core/lv_obj_scroll.c **** 
 3794              		.loc 1 472 5 is_stmt 1 view .LVU1119
 472:lvgl/src/core/lv_obj_scroll.c **** 
 3795              		.loc 1 472 7 is_stmt 0 view .LVU1120
 3796 0136 BBF1000F 		cmp	fp, #0
 3797 013a 03D1     		bne	.L275
 3798 013c 039B     		ldr	r3, [sp, #12]
 3799 013e 002B     		cmp	r3, #0
 3800 0140 3FF47FAF 		beq	.L210
 3801              	.L275:
 474:lvgl/src/core/lv_obj_scroll.c **** 
 3802              		.loc 1 474 5 is_stmt 1 view .LVU1121
 3803              	.LVL451:
 3804              	.LBB179:
 3805              	.LBI179:
 542:lvgl/src/core/lv_obj_style_gen.h **** {
 3806              		.loc 2 542 29 view .LVU1122
 3807              	.LBB180:
 544:lvgl/src/core/lv_obj_style_gen.h ****     return (lv_base_dir_t)v.num;
 3808              		.loc 2 544 5 view .LVU1123
ARM GAS  C:\usertemp\ccBZVumh.s 			page 112


 544:lvgl/src/core/lv_obj_style_gen.h ****     return (lv_base_dir_t)v.num;
 3809              		.loc 2 544 26 is_stmt 0 view .LVU1124
 3810 0144 41F26A42 		movw	r2, #5226
 3811 0148 4FF48031 		mov	r1, #65536
 3812 014c 2846     		mov	r0, r5
 3813 014e FFF7FEFF 		bl	lv_obj_get_style_prop
 3814              	.LVL452:
 3815              		.loc 2 545 5 is_stmt 1 view .LVU1125
 3816              		.loc 2 545 12 is_stmt 0 view .LVU1126
 3817 0152 C3B2     		uxtb	r3, r0
 3818 0154 0A93     		str	r3, [sp, #40]
 3819              	.LVL453:
 3820              		.loc 2 545 12 view .LVU1127
 3821              	.LBE180:
 3822              	.LBE179:
 476:lvgl/src/core/lv_obj_scroll.c ****     lv_coord_t bottom_space = lv_obj_get_style_pad_bottom(obj, LV_PART_SCROLLBAR);
 3823              		.loc 1 476 5 is_stmt 1 view .LVU1128
 3824              	.LBB181:
 3825              	.LBI181:
  91:lvgl/src/core/lv_obj_style_gen.h **** {
 3826              		.loc 2 91 26 view .LVU1129
 3827              	.LBB182:
  93:lvgl/src/core/lv_obj_style_gen.h ****     return (lv_coord_t)v.num;
 3828              		.loc 2 93 5 view .LVU1130
  93:lvgl/src/core/lv_obj_style_gen.h ****     return (lv_coord_t)v.num;
 3829              		.loc 2 93 26 is_stmt 0 view .LVU1131
 3830 0156 41F61002 		movw	r2, #6160
 3831 015a 4FF48031 		mov	r1, #65536
 3832 015e 2846     		mov	r0, r5
 3833 0160 FFF7FEFF 		bl	lv_obj_get_style_prop
 3834              	.LVL454:
 3835 0164 1190     		str	r0, [sp, #68]
  94:lvgl/src/core/lv_obj_style_gen.h **** }
 3836              		.loc 2 94 5 is_stmt 1 view .LVU1132
  94:lvgl/src/core/lv_obj_style_gen.h **** }
 3837              		.loc 2 94 12 is_stmt 0 view .LVU1133
 3838 0166 03B2     		sxth	r3, r0
 3839 0168 0C93     		str	r3, [sp, #48]
 3840              	.LVL455:
  94:lvgl/src/core/lv_obj_style_gen.h **** }
 3841              		.loc 2 94 12 view .LVU1134
 3842              	.LBE182:
 3843              	.LBE181:
 477:lvgl/src/core/lv_obj_scroll.c ****     lv_coord_t left_space = lv_obj_get_style_pad_left(obj, LV_PART_SCROLLBAR);
 3844              		.loc 1 477 5 is_stmt 1 view .LVU1135
 3845              	.LBB183:
 3846              	.LBI183:
  97:lvgl/src/core/lv_obj_style_gen.h **** {
 3847              		.loc 2 97 26 view .LVU1136
 3848              	.LBB184:
  99:lvgl/src/core/lv_obj_style_gen.h ****     return (lv_coord_t)v.num;
 3849              		.loc 2 99 5 view .LVU1137
  99:lvgl/src/core/lv_obj_style_gen.h ****     return (lv_coord_t)v.num;
 3850              		.loc 2 99 26 is_stmt 0 view .LVU1138
 3851 016a 41F61102 		movw	r2, #6161
 3852 016e 4FF48031 		mov	r1, #65536
 3853 0172 2846     		mov	r0, r5
ARM GAS  C:\usertemp\ccBZVumh.s 			page 113


 3854 0174 FFF7FEFF 		bl	lv_obj_get_style_prop
 3855              	.LVL456:
 3856 0178 0890     		str	r0, [sp, #32]
 100:lvgl/src/core/lv_obj_style_gen.h **** }
 3857              		.loc 2 100 5 is_stmt 1 view .LVU1139
 100:lvgl/src/core/lv_obj_style_gen.h **** }
 3858              		.loc 2 100 12 is_stmt 0 view .LVU1140
 3859 017a 03B2     		sxth	r3, r0
 3860 017c 0B93     		str	r3, [sp, #44]
 3861              	.LVL457:
 100:lvgl/src/core/lv_obj_style_gen.h **** }
 3862              		.loc 2 100 12 view .LVU1141
 3863              	.LBE184:
 3864              	.LBE183:
 478:lvgl/src/core/lv_obj_scroll.c ****     lv_coord_t right_space = lv_obj_get_style_pad_right(obj, LV_PART_SCROLLBAR);
 3865              		.loc 1 478 5 is_stmt 1 view .LVU1142
 3866              	.LBB185:
 3867              	.LBI185:
 103:lvgl/src/core/lv_obj_style_gen.h **** {
 3868              		.loc 2 103 26 view .LVU1143
 3869              	.LBB186:
 105:lvgl/src/core/lv_obj_style_gen.h ****     return (lv_coord_t)v.num;
 3870              		.loc 2 105 5 view .LVU1144
 105:lvgl/src/core/lv_obj_style_gen.h ****     return (lv_coord_t)v.num;
 3871              		.loc 2 105 26 is_stmt 0 view .LVU1145
 3872 017e 41F61202 		movw	r2, #6162
 3873 0182 4FF48031 		mov	r1, #65536
 3874 0186 2846     		mov	r0, r5
 3875 0188 FFF7FEFF 		bl	lv_obj_get_style_prop
 3876              	.LVL458:
 3877 018c 1290     		str	r0, [sp, #72]
 106:lvgl/src/core/lv_obj_style_gen.h **** }
 3878              		.loc 2 106 5 is_stmt 1 view .LVU1146
 106:lvgl/src/core/lv_obj_style_gen.h **** }
 3879              		.loc 2 106 12 is_stmt 0 view .LVU1147
 3880 018e 03B2     		sxth	r3, r0
 3881 0190 1093     		str	r3, [sp, #64]
 3882              	.LVL459:
 106:lvgl/src/core/lv_obj_style_gen.h **** }
 3883              		.loc 2 106 12 view .LVU1148
 3884              	.LBE186:
 3885              	.LBE185:
 479:lvgl/src/core/lv_obj_scroll.c ****     lv_coord_t tickness = lv_obj_get_style_width(obj, LV_PART_SCROLLBAR);
 3886              		.loc 1 479 5 is_stmt 1 view .LVU1149
 3887              	.LBB187:
 3888              	.LBI187:
 109:lvgl/src/core/lv_obj_style_gen.h **** {
 3889              		.loc 2 109 26 view .LVU1150
 3890              	.LBB188:
 111:lvgl/src/core/lv_obj_style_gen.h ****     return (lv_coord_t)v.num;
 3891              		.loc 2 111 5 view .LVU1151
 111:lvgl/src/core/lv_obj_style_gen.h ****     return (lv_coord_t)v.num;
 3892              		.loc 2 111 26 is_stmt 0 view .LVU1152
 3893 0192 41F61302 		movw	r2, #6163
 3894 0196 4FF48031 		mov	r1, #65536
 3895 019a 2846     		mov	r0, r5
 3896 019c FFF7FEFF 		bl	lv_obj_get_style_prop
ARM GAS  C:\usertemp\ccBZVumh.s 			page 114


 3897              	.LVL460:
 3898 01a0 0E90     		str	r0, [sp, #56]
 112:lvgl/src/core/lv_obj_style_gen.h **** }
 3899              		.loc 2 112 5 is_stmt 1 view .LVU1153
 112:lvgl/src/core/lv_obj_style_gen.h **** }
 3900              		.loc 2 112 12 is_stmt 0 view .LVU1154
 3901 01a2 03B2     		sxth	r3, r0
 3902 01a4 0F93     		str	r3, [sp, #60]
 3903              	.LVL461:
 112:lvgl/src/core/lv_obj_style_gen.h **** }
 3904              		.loc 2 112 12 view .LVU1155
 3905              	.LBE188:
 3906              	.LBE187:
 480:lvgl/src/core/lv_obj_scroll.c **** 
 3907              		.loc 1 480 5 is_stmt 1 view .LVU1156
 3908              	.LBB189:
 3909              	.LBI189:
   1:lvgl/src/core/lv_obj_style_gen.h **** {
 3910              		.loc 2 1 26 view .LVU1157
 3911              	.LBB190:
   3:lvgl/src/core/lv_obj_style_gen.h ****     return (lv_coord_t)v.num;
 3912              		.loc 2 3 5 view .LVU1158
   3:lvgl/src/core/lv_obj_style_gen.h ****     return (lv_coord_t)v.num;
 3913              		.loc 2 3 26 is_stmt 0 view .LVU1159
 3914 01a6 41F20102 		movw	r2, #4097
 3915 01aa 4FF48031 		mov	r1, #65536
 3916 01ae 2846     		mov	r0, r5
 3917 01b0 FFF7FEFF 		bl	lv_obj_get_style_prop
 3918              	.LVL462:
 3919 01b4 0990     		str	r0, [sp, #36]
   4:lvgl/src/core/lv_obj_style_gen.h **** }
 3920              		.loc 2 4 5 is_stmt 1 view .LVU1160
   4:lvgl/src/core/lv_obj_style_gen.h **** }
 3921              		.loc 2 4 12 is_stmt 0 view .LVU1161
 3922 01b6 0FFA80FA 		sxth	r10, r0
 3923              	.LVL463:
   4:lvgl/src/core/lv_obj_style_gen.h **** }
 3924              		.loc 2 4 12 view .LVU1162
 3925              	.LBE190:
 3926              	.LBE189:
 482:lvgl/src/core/lv_obj_scroll.c ****     lv_coord_t obj_w = lv_obj_get_width(obj);
 3927              		.loc 1 482 5 is_stmt 1 view .LVU1163
 482:lvgl/src/core/lv_obj_scroll.c ****     lv_coord_t obj_w = lv_obj_get_width(obj);
 3928              		.loc 1 482 24 is_stmt 0 view .LVU1164
 3929 01ba 2846     		mov	r0, r5
 3930 01bc FFF7FEFF 		bl	lv_obj_get_height
 3931              	.LVL464:
 3932 01c0 0446     		mov	r4, r0
 3933              	.LVL465:
 483:lvgl/src/core/lv_obj_scroll.c **** 
 3934              		.loc 1 483 5 is_stmt 1 view .LVU1165
 483:lvgl/src/core/lv_obj_scroll.c **** 
 3935              		.loc 1 483 24 is_stmt 0 view .LVU1166
 3936 01c2 2846     		mov	r0, r5
 3937 01c4 FFF7FEFF 		bl	lv_obj_get_width
 3938              	.LVL466:
 3939 01c8 0790     		str	r0, [sp, #28]
ARM GAS  C:\usertemp\ccBZVumh.s 			page 115


 3940              	.LVL467:
 486:lvgl/src/core/lv_obj_scroll.c ****     lv_coord_t hor_req_space = hor_draw ? tickness : 0;
 3941              		.loc 1 486 5 is_stmt 1 view .LVU1167
 486:lvgl/src/core/lv_obj_scroll.c ****     lv_coord_t hor_req_space = hor_draw ? tickness : 0;
 3942              		.loc 1 486 16 is_stmt 0 view .LVU1168
 3943 01ca BBF1000F 		cmp	fp, #0
 3944 01ce 00F0B780 		beq	.L257
 486:lvgl/src/core/lv_obj_scroll.c ****     lv_coord_t hor_req_space = hor_draw ? tickness : 0;
 3945              		.loc 1 486 16 discriminator 1 view .LVU1169
 3946 01d2 CDF834A0 		str	r10, [sp, #52]
 3947              	.L221:
 3948              	.LVL468:
 487:lvgl/src/core/lv_obj_scroll.c ****     lv_coord_t rem;
 3949              		.loc 1 487 5 is_stmt 1 view .LVU1170
 487:lvgl/src/core/lv_obj_scroll.c ****     lv_coord_t rem;
 3950              		.loc 1 487 16 is_stmt 0 view .LVU1171
 3951 01d6 039B     		ldr	r3, [sp, #12]
 3952 01d8 0BB9     		cbnz	r3, .L222
 487:lvgl/src/core/lv_obj_scroll.c ****     lv_coord_t rem;
 3953              		.loc 1 487 16 discriminator 2 view .LVU1172
 3954 01da 4FF0000A 		mov	r10, #0
 3955              	.LVL469:
 3956              	.L222:
 488:lvgl/src/core/lv_obj_scroll.c **** 
 3957              		.loc 1 488 5 is_stmt 1 view .LVU1173
 490:lvgl/src/core/lv_obj_scroll.c ****        lv_obj_get_style_border_opa(obj, LV_PART_SCROLLBAR) < LV_OPA_MIN) {
 3958              		.loc 1 490 5 view .LVU1174
 3959              	.LBB191:
 3960              	.LBI191:
 139:lvgl/src/core/lv_obj_style_gen.h **** {
 3961              		.loc 2 139 24 view .LVU1175
 3962              	.LBB192:
 141:lvgl/src/core/lv_obj_style_gen.h ****     return (lv_opa_t)v.num;
 3963              		.loc 2 141 5 view .LVU1176
 141:lvgl/src/core/lv_obj_style_gen.h ****     return (lv_opa_t)v.num;
 3964              		.loc 2 141 26 is_stmt 0 view .LVU1177
 3965 01de 2122     		movs	r2, #33
 3966 01e0 4FF48031 		mov	r1, #65536
 3967 01e4 2846     		mov	r0, r5
 3968 01e6 FFF7FEFF 		bl	lv_obj_get_style_prop
 3969              	.LVL470:
 142:lvgl/src/core/lv_obj_style_gen.h **** }
 3970              		.loc 2 142 5 is_stmt 1 view .LVU1178
 142:lvgl/src/core/lv_obj_style_gen.h **** }
 3971              		.loc 2 142 12 is_stmt 0 view .LVU1179
 3972 01ea C0B2     		uxtb	r0, r0
 3973              	.LVL471:
 142:lvgl/src/core/lv_obj_style_gen.h **** }
 3974              		.loc 2 142 12 view .LVU1180
 3975              	.LBE192:
 3976              	.LBE191:
 490:lvgl/src/core/lv_obj_scroll.c ****        lv_obj_get_style_border_opa(obj, LV_PART_SCROLLBAR) < LV_OPA_MIN) {
 3977              		.loc 1 490 7 discriminator 1 view .LVU1181
 3978 01ec 0128     		cmp	r0, #1
 3979 01ee 40F2AA80 		bls	.L283
 3980              	.L223:
 496:lvgl/src/core/lv_obj_scroll.c ****     if(ver_draw && content_h) {
ARM GAS  C:\usertemp\ccBZVumh.s 			page 116


 3981              		.loc 1 496 5 is_stmt 1 view .LVU1182
 496:lvgl/src/core/lv_obj_scroll.c ****     if(ver_draw && content_h) {
 3982              		.loc 1 496 34 is_stmt 0 view .LVU1183
 3983 01f2 1FFA84F9 		uxth	r9, r4
 3984              	.LVL472:
 496:lvgl/src/core/lv_obj_scroll.c ****     if(ver_draw && content_h) {
 3985              		.loc 1 496 34 view .LVU1184
 3986 01f6 C844     		add	r8, r8, r9
 3987              	.LVL473:
 496:lvgl/src/core/lv_obj_scroll.c ****     if(ver_draw && content_h) {
 3988              		.loc 1 496 39 view .LVU1185
 3989 01f8 049B     		ldr	r3, [sp, #16]
 3990 01fa 13FA88F8 		uxtah	r8, r3, r8
 3991 01fe 1FFA88F3 		uxth	r3, r8
 3992 0202 1393     		str	r3, [sp, #76]
 496:lvgl/src/core/lv_obj_scroll.c ****     if(ver_draw && content_h) {
 3993              		.loc 1 496 16 view .LVU1186
 3994 0204 0FFA88F8 		sxth	r8, r8
 3995              	.LVL474:
 497:lvgl/src/core/lv_obj_scroll.c ****         ver_area->y1 = obj->coords.y1;
 3996              		.loc 1 497 5 is_stmt 1 view .LVU1187
 497:lvgl/src/core/lv_obj_scroll.c ****         ver_area->y1 = obj->coords.y1;
 3997              		.loc 1 497 17 is_stmt 0 view .LVU1188
 3998 0208 B8F1000F 		cmp	r8, #0
 3999 020c 0CBF     		ite	eq
 4000 020e 0023     		moveq	r3, #0
 4001 0210 0BF00103 		andne	r3, fp, #1
 497:lvgl/src/core/lv_obj_scroll.c ****         ver_area->y1 = obj->coords.y1;
 4002              		.loc 1 497 7 view .LVU1189
 4003 0214 002B     		cmp	r3, #0
 4004 0216 00F0DF80 		beq	.L224
 4005              	.LBB193:
 498:lvgl/src/core/lv_obj_scroll.c ****         ver_area->y2 = obj->coords.y2;
 4006              		.loc 1 498 9 is_stmt 1 view .LVU1190
 498:lvgl/src/core/lv_obj_scroll.c ****         ver_area->y2 = obj->coords.y2;
 4007              		.loc 1 498 35 is_stmt 0 view .LVU1191
 4008 021a B5F91630 		ldrsh	r3, [r5, #22]
 498:lvgl/src/core/lv_obj_scroll.c ****         ver_area->y2 = obj->coords.y2;
 4009              		.loc 1 498 22 view .LVU1192
 4010 021e 7380     		strh	r3, [r6, #2]	@ movhi
 499:lvgl/src/core/lv_obj_scroll.c ****         if(rtl) {
 4011              		.loc 1 499 9 is_stmt 1 view .LVU1193
 499:lvgl/src/core/lv_obj_scroll.c ****         if(rtl) {
 4012              		.loc 1 499 35 is_stmt 0 view .LVU1194
 4013 0220 B5F91A30 		ldrsh	r3, [r5, #26]
 499:lvgl/src/core/lv_obj_scroll.c ****         if(rtl) {
 4014              		.loc 1 499 22 view .LVU1195
 4015 0224 F380     		strh	r3, [r6, #6]	@ movhi
 500:lvgl/src/core/lv_obj_scroll.c ****             ver_area->x1 = obj->coords.x1 + left_space;
 4016              		.loc 1 500 9 is_stmt 1 view .LVU1196
 500:lvgl/src/core/lv_obj_scroll.c ****             ver_area->x1 = obj->coords.x1 + left_space;
 4017              		.loc 1 500 11 is_stmt 0 view .LVU1197
 4018 0226 0A9B     		ldr	r3, [sp, #40]
 4019 0228 012B     		cmp	r3, #1
 4020 022a 00F09780 		beq	.L284
 505:lvgl/src/core/lv_obj_scroll.c ****             ver_area->x1 = ver_area->x2 - tickness + 1;
 4021              		.loc 1 505 13 is_stmt 1 view .LVU1198
ARM GAS  C:\usertemp\ccBZVumh.s 			page 117


 505:lvgl/src/core/lv_obj_scroll.c ****             ver_area->x1 = ver_area->x2 - tickness + 1;
 4022              		.loc 1 505 39 is_stmt 0 view .LVU1199
 4023 022e 2A8B     		ldrh	r2, [r5, #24]
 505:lvgl/src/core/lv_obj_scroll.c ****             ver_area->x1 = ver_area->x2 - tickness + 1;
 4024              		.loc 1 505 43 view .LVU1200
 4025 0230 0E9B     		ldr	r3, [sp, #56]
 4026 0232 D21A     		subs	r2, r2, r3
 4027 0234 93B2     		uxth	r3, r2
 505:lvgl/src/core/lv_obj_scroll.c ****             ver_area->x1 = ver_area->x2 - tickness + 1;
 4028              		.loc 1 505 26 view .LVU1201
 4029 0236 B280     		strh	r2, [r6, #4]	@ movhi
 506:lvgl/src/core/lv_obj_scroll.c ****         }
 4030              		.loc 1 506 13 is_stmt 1 view .LVU1202
 506:lvgl/src/core/lv_obj_scroll.c ****         }
 4031              		.loc 1 506 41 is_stmt 0 view .LVU1203
 4032 0238 099A     		ldr	r2, [sp, #36]
 4033 023a 9B1A     		subs	r3, r3, r2
 4034 023c 9BB2     		uxth	r3, r3
 506:lvgl/src/core/lv_obj_scroll.c ****         }
 4035              		.loc 1 506 52 view .LVU1204
 4036 023e 0133     		adds	r3, r3, #1
 506:lvgl/src/core/lv_obj_scroll.c ****         }
 4037              		.loc 1 506 26 view .LVU1205
 4038 0240 3380     		strh	r3, [r6]	@ movhi
 4039              	.L226:
 509:lvgl/src/core/lv_obj_scroll.c ****         sb_h = LV_MAX(sb_h, SCROLLBAR_MIN_SIZE);
 4040              		.loc 1 509 9 is_stmt 1 view .LVU1206
 509:lvgl/src/core/lv_obj_scroll.c ****         sb_h = LV_MAX(sb_h, SCROLLBAR_MIN_SIZE);
 4041              		.loc 1 509 35 is_stmt 0 view .LVU1207
 4042 0242 0C9B     		ldr	r3, [sp, #48]
 4043 0244 E31A     		subs	r3, r4, r3
 509:lvgl/src/core/lv_obj_scroll.c ****         sb_h = LV_MAX(sb_h, SCROLLBAR_MIN_SIZE);
 4044              		.loc 1 509 47 view .LVU1208
 4045 0246 0B9A     		ldr	r2, [sp, #44]
 4046 0248 9B1A     		subs	r3, r3, r2
 509:lvgl/src/core/lv_obj_scroll.c ****         sb_h = LV_MAX(sb_h, SCROLLBAR_MIN_SIZE);
 4047              		.loc 1 509 62 view .LVU1209
 4048 024a D346     		mov	fp, r10
 4049              	.LVL475:
 509:lvgl/src/core/lv_obj_scroll.c ****         sb_h = LV_MAX(sb_h, SCROLLBAR_MIN_SIZE);
 4050              		.loc 1 509 62 view .LVU1210
 4051 024c A3EB0A03 		sub	r3, r3, r10
 509:lvgl/src/core/lv_obj_scroll.c ****         sb_h = LV_MAX(sb_h, SCROLLBAR_MIN_SIZE);
 4052              		.loc 1 509 79 view .LVU1211
 4053 0250 03FB04F4 		mul	r4, r3, r4
 4054              	.LVL476:
 509:lvgl/src/core/lv_obj_scroll.c ****         sb_h = LV_MAX(sb_h, SCROLLBAR_MIN_SIZE);
 4055              		.loc 1 509 88 view .LVU1212
 4056 0254 94FBF8F4 		sdiv	r4, r4, r8
 509:lvgl/src/core/lv_obj_scroll.c ****         sb_h = LV_MAX(sb_h, SCROLLBAR_MIN_SIZE);
 4057              		.loc 1 509 20 view .LVU1213
 4058 0258 24B2     		sxth	r4, r4
 4059              	.LVL477:
 510:lvgl/src/core/lv_obj_scroll.c ****         rem = (obj_h - top_space - bottom_space - hor_req_space) -
 4060              		.loc 1 510 9 is_stmt 1 view .LVU1214
 510:lvgl/src/core/lv_obj_scroll.c ****         rem = (obj_h - top_space - bottom_space - hor_req_space) -
 4061              		.loc 1 510 16 is_stmt 0 view .LVU1215
ARM GAS  C:\usertemp\ccBZVumh.s 			page 118


 4062 025a A046     		mov	r8, r4
 4063              	.LVL478:
 510:lvgl/src/core/lv_obj_scroll.c ****         rem = (obj_h - top_space - bottom_space - hor_req_space) -
 4064              		.loc 1 510 16 view .LVU1216
 4065 025c 0020     		movs	r0, #0
 4066 025e FFF7FEFF 		bl	lv_disp_get_dpi
 4067              	.LVL479:
 510:lvgl/src/core/lv_obj_scroll.c ****         rem = (obj_h - top_space - bottom_space - hor_req_space) -
 4068              		.loc 1 510 16 discriminator 1 view .LVU1217
 4069 0262 00EB8000 		add	r0, r0, r0, lsl #2
 4070 0266 4000     		lsls	r0, r0, #1
 4071 0268 EF28     		cmp	r0, #239
 4072 026a 00F38280 		bgt	.L285
 510:lvgl/src/core/lv_obj_scroll.c ****         rem = (obj_h - top_space - bottom_space - hor_req_space) -
 4073              		.loc 1 510 16 discriminator 2 view .LVU1218
 4074 026e 0123     		movs	r3, #1
 4075              	.L227:
 510:lvgl/src/core/lv_obj_scroll.c ****         rem = (obj_h - top_space - bottom_space - hor_req_space) -
 4076              		.loc 1 510 14 discriminator 4 view .LVU1219
 4077 0270 9845     		cmp	r8, r3
 4078 0272 40F38C80 		ble	.L286
 4079              	.LVL480:
 4080              	.L228:
 511:lvgl/src/core/lv_obj_scroll.c ****               sb_h;  /*Remaining size from the scrollbar track that is not the scrollbar itself*/
 4081              		.loc 1 511 9 is_stmt 1 view .LVU1220
 511:lvgl/src/core/lv_obj_scroll.c ****               sb_h;  /*Remaining size from the scrollbar track that is not the scrollbar itself*/
 4082              		.loc 1 511 22 is_stmt 0 view .LVU1221
 4083 0276 BDF84420 		ldrh	r2, [sp, #68]
 4084 027a A9EB0203 		sub	r3, r9, r2
 4085 027e 9BB2     		uxth	r3, r3
 511:lvgl/src/core/lv_obj_scroll.c ****               sb_h;  /*Remaining size from the scrollbar track that is not the scrollbar itself*/
 4086              		.loc 1 511 34 view .LVU1222
 4087 0280 BDF82080 		ldrh	r8, [sp, #32]
 4088 0284 A3EB0803 		sub	r3, r3, r8
 4089 0288 9BB2     		uxth	r3, r3
 511:lvgl/src/core/lv_obj_scroll.c ****               sb_h;  /*Remaining size from the scrollbar track that is not the scrollbar itself*/
 4090              		.loc 1 511 49 view .LVU1223
 4091 028a 1FFA8AFA 		uxth	r10, r10
 511:lvgl/src/core/lv_obj_scroll.c ****               sb_h;  /*Remaining size from the scrollbar track that is not the scrollbar itself*/
 4092              		.loc 1 511 49 view .LVU1224
 4093 028e A3EB0A03 		sub	r3, r3, r10
 4094 0292 9BB2     		uxth	r3, r3
 511:lvgl/src/core/lv_obj_scroll.c ****               sb_h;  /*Remaining size from the scrollbar track that is not the scrollbar itself*/
 4095              		.loc 1 511 66 view .LVU1225
 4096 0294 A4B2     		uxth	r4, r4
 511:lvgl/src/core/lv_obj_scroll.c ****               sb_h;  /*Remaining size from the scrollbar track that is not the scrollbar itself*/
 4097              		.loc 1 511 66 view .LVU1226
 4098 0296 1B1B     		subs	r3, r3, r4
 4099 0298 1FFA83FC 		uxth	ip, r3
 511:lvgl/src/core/lv_obj_scroll.c ****               sb_h;  /*Remaining size from the scrollbar track that is not the scrollbar itself*/
 4100              		.loc 1 511 13 view .LVU1227
 4101 029c 1BB2     		sxth	r3, r3
 4102              	.LVL481:
 513:lvgl/src/core/lv_obj_scroll.c ****         if(scroll_h <= 0) {
 4103              		.loc 1 513 9 is_stmt 1 view .LVU1228
 513:lvgl/src/core/lv_obj_scroll.c ****         if(scroll_h <= 0) {
 4104              		.loc 1 513 41 is_stmt 0 view .LVU1229
ARM GAS  C:\usertemp\ccBZVumh.s 			page 119


 4105 029e 1398     		ldr	r0, [sp, #76]
 4106 02a0 A0EB0900 		sub	r0, r0, r9
 513:lvgl/src/core/lv_obj_scroll.c ****         if(scroll_h <= 0) {
 4107              		.loc 1 513 20 view .LVU1230
 4108 02a4 00B2     		sxth	r0, r0
 4109              	.LVL482:
 514:lvgl/src/core/lv_obj_scroll.c ****             ver_area->y1 = obj->coords.y1 + top_space;
 4110              		.loc 1 514 9 is_stmt 1 view .LVU1231
 514:lvgl/src/core/lv_obj_scroll.c ****             ver_area->y1 = obj->coords.y1 + top_space;
 4111              		.loc 1 514 11 is_stmt 0 view .LVU1232
 4112 02a6 0028     		cmp	r0, #0
 4113 02a8 40F38A80 		ble	.L287
 4114              	.LBB194:
 519:lvgl/src/core/lv_obj_scroll.c ****             sb_y = rem - sb_y;
 4115              		.loc 1 519 13 is_stmt 1 view .LVU1233
 519:lvgl/src/core/lv_obj_scroll.c ****             sb_y = rem - sb_y;
 4116              		.loc 1 519 36 is_stmt 0 view .LVU1234
 4117 02ac 0499     		ldr	r1, [sp, #16]
 4118 02ae 01FB03F3 		mul	r3, r1, r3
 4119              	.LVL483:
 519:lvgl/src/core/lv_obj_scroll.c ****             sb_y = rem - sb_y;
 4120              		.loc 1 519 42 view .LVU1235
 4121 02b2 93FBF0F3 		sdiv	r3, r3, r0
 4122              	.LVL484:
 520:lvgl/src/core/lv_obj_scroll.c **** 
 4123              		.loc 1 520 13 is_stmt 1 view .LVU1236
 520:lvgl/src/core/lv_obj_scroll.c **** 
 4124              		.loc 1 520 24 is_stmt 0 view .LVU1237
 4125 02b6 ACEB0303 		sub	r3, ip, r3
 4126              	.LVL485:
 522:lvgl/src/core/lv_obj_scroll.c ****             ver_area->y2 = ver_area->y1 + sb_h - 1;
 4127              		.loc 1 522 13 is_stmt 1 view .LVU1238
 522:lvgl/src/core/lv_obj_scroll.c ****             ver_area->y2 = ver_area->y1 + sb_h - 1;
 4128              		.loc 1 522 39 is_stmt 0 view .LVU1239
 4129 02ba E98A     		ldrh	r1, [r5, #22]
 522:lvgl/src/core/lv_obj_scroll.c ****             ver_area->y2 = ver_area->y1 + sb_h - 1;
 4130              		.loc 1 522 43 view .LVU1240
 4131 02bc 11FA83F3 		uxtah	r3, r1, r3
 4132              	.LVL486:
 522:lvgl/src/core/lv_obj_scroll.c ****             ver_area->y2 = ver_area->y1 + sb_h - 1;
 4133              		.loc 1 522 50 view .LVU1241
 4134 02c0 12FA83F3 		uxtah	r3, r2, r3
 4135 02c4 19B2     		sxth	r1, r3
 522:lvgl/src/core/lv_obj_scroll.c ****             ver_area->y2 = ver_area->y1 + sb_h - 1;
 4136              		.loc 1 522 26 view .LVU1242
 4137 02c6 7180     		strh	r1, [r6, #2]	@ movhi
 523:lvgl/src/core/lv_obj_scroll.c ****             if(ver_area->y1 < obj->coords.y1 + top_space) {
 4138              		.loc 1 523 13 is_stmt 1 view .LVU1243
 523:lvgl/src/core/lv_obj_scroll.c ****             if(ver_area->y1 < obj->coords.y1 + top_space) {
 4139              		.loc 1 523 41 is_stmt 0 view .LVU1244
 4140 02c8 14FA83F3 		uxtah	r3, r4, r3
 4141 02cc 9BB2     		uxth	r3, r3
 523:lvgl/src/core/lv_obj_scroll.c ****             if(ver_area->y1 < obj->coords.y1 + top_space) {
 4142              		.loc 1 523 48 view .LVU1245
 4143 02ce 013B     		subs	r3, r3, #1
 523:lvgl/src/core/lv_obj_scroll.c ****             if(ver_area->y1 < obj->coords.y1 + top_space) {
 4144              		.loc 1 523 26 view .LVU1246
ARM GAS  C:\usertemp\ccBZVumh.s 			page 120


 4145 02d0 F380     		strh	r3, [r6, #6]	@ movhi
 524:lvgl/src/core/lv_obj_scroll.c ****                 ver_area->y1 = obj->coords.y1 + top_space;
 4146              		.loc 1 524 13 is_stmt 1 view .LVU1247
 524:lvgl/src/core/lv_obj_scroll.c ****                 ver_area->y1 = obj->coords.y1 + top_space;
 4147              		.loc 1 524 42 is_stmt 0 view .LVU1248
 4148 02d2 B5F91600 		ldrsh	r0, [r5, #22]
 4149              	.LVL487:
 524:lvgl/src/core/lv_obj_scroll.c ****                 ver_area->y1 = obj->coords.y1 + top_space;
 4150              		.loc 1 524 46 view .LVU1249
 4151 02d6 0C9B     		ldr	r3, [sp, #48]
 4152 02d8 0344     		add	r3, r3, r0
 524:lvgl/src/core/lv_obj_scroll.c ****                 ver_area->y1 = obj->coords.y1 + top_space;
 4153              		.loc 1 524 15 view .LVU1250
 4154 02da 9942     		cmp	r1, r3
 4155 02dc C0F22181 		blt	.L288
 4156              	.LVL488:
 4157              	.L230:
 530:lvgl/src/core/lv_obj_scroll.c ****                 ver_area->y2 = obj->coords.y2 - hor_req_space - bottom_space;
 4158              		.loc 1 530 13 is_stmt 1 view .LVU1251
 530:lvgl/src/core/lv_obj_scroll.c ****                 ver_area->y2 = obj->coords.y2 - hor_req_space - bottom_space;
 4159              		.loc 1 530 24 is_stmt 0 view .LVU1252
 4160 02e0 B6F90620 		ldrsh	r2, [r6, #6]
 530:lvgl/src/core/lv_obj_scroll.c ****                 ver_area->y2 = obj->coords.y2 - hor_req_space - bottom_space;
 4161              		.loc 1 530 42 view .LVU1253
 4162 02e4 B5F91A30 		ldrsh	r3, [r5, #26]
 530:lvgl/src/core/lv_obj_scroll.c ****                 ver_area->y2 = obj->coords.y2 - hor_req_space - bottom_space;
 4163              		.loc 1 530 46 view .LVU1254
 4164 02e8 A3EB0B0B 		sub	fp, r3, fp
 530:lvgl/src/core/lv_obj_scroll.c ****                 ver_area->y2 = obj->coords.y2 - hor_req_space - bottom_space;
 4165              		.loc 1 530 62 view .LVU1255
 4166 02ec 0B99     		ldr	r1, [sp, #44]
 4167 02ee ABEB010B 		sub	fp, fp, r1
 530:lvgl/src/core/lv_obj_scroll.c ****                 ver_area->y2 = obj->coords.y2 - hor_req_space - bottom_space;
 4168              		.loc 1 530 15 view .LVU1256
 4169 02f2 5A45     		cmp	r2, fp
 4170 02f4 70DD     		ble	.L224
 531:lvgl/src/core/lv_obj_scroll.c ****                 if(ver_area->y2 - SCROLLBAR_MIN_SIZE < ver_area->y1) {
 4171              		.loc 1 531 17 is_stmt 1 view .LVU1257
 531:lvgl/src/core/lv_obj_scroll.c ****                 if(ver_area->y2 - SCROLLBAR_MIN_SIZE < ver_area->y1) {
 4172              		.loc 1 531 43 is_stmt 0 view .LVU1258
 4173 02f6 9CB2     		uxth	r4, r3
 531:lvgl/src/core/lv_obj_scroll.c ****                 if(ver_area->y2 - SCROLLBAR_MIN_SIZE < ver_area->y1) {
 4174              		.loc 1 531 47 view .LVU1259
 4175 02f8 A4EB0A04 		sub	r4, r4, r10
 4176 02fc A4B2     		uxth	r4, r4
 531:lvgl/src/core/lv_obj_scroll.c ****                 if(ver_area->y2 - SCROLLBAR_MIN_SIZE < ver_area->y1) {
 4177              		.loc 1 531 63 view .LVU1260
 4178 02fe A4EB0804 		sub	r4, r4, r8
 4179 0302 24B2     		sxth	r4, r4
 531:lvgl/src/core/lv_obj_scroll.c ****                 if(ver_area->y2 - SCROLLBAR_MIN_SIZE < ver_area->y1) {
 4180              		.loc 1 531 30 view .LVU1261
 4181 0304 F480     		strh	r4, [r6, #6]	@ movhi
 532:lvgl/src/core/lv_obj_scroll.c ****                     ver_area->y1 = ver_area->y2 - SCROLLBAR_MIN_SIZE;
 4182              		.loc 1 532 17 is_stmt 1 view .LVU1262
 532:lvgl/src/core/lv_obj_scroll.c ****                     ver_area->y1 = ver_area->y2 - SCROLLBAR_MIN_SIZE;
 4183              		.loc 1 532 35 is_stmt 0 view .LVU1263
 4184 0306 0020     		movs	r0, #0
ARM GAS  C:\usertemp\ccBZVumh.s 			page 121


 4185 0308 FFF7FEFF 		bl	lv_disp_get_dpi
 4186              	.LVL489:
 532:lvgl/src/core/lv_obj_scroll.c ****                     ver_area->y1 = ver_area->y2 - SCROLLBAR_MIN_SIZE;
 4187              		.loc 1 532 35 discriminator 1 view .LVU1264
 4188 030c 00EB8000 		add	r0, r0, r0, lsl #2
 4189 0310 4300     		lsls	r3, r0, #1
 4190 0312 EF2B     		cmp	r3, #239
 4191 0314 00F34281 		bgt	.L289
 532:lvgl/src/core/lv_obj_scroll.c ****                     ver_area->y1 = ver_area->y2 - SCROLLBAR_MIN_SIZE;
 4192              		.loc 1 532 35 discriminator 2 view .LVU1265
 4193 0318 0123     		movs	r3, #1
 4194              	.L233:
 532:lvgl/src/core/lv_obj_scroll.c ****                     ver_area->y1 = ver_area->y2 - SCROLLBAR_MIN_SIZE;
 4195              		.loc 1 532 33 discriminator 4 view .LVU1266
 4196 031a E41A     		subs	r4, r4, r3
 532:lvgl/src/core/lv_obj_scroll.c ****                     ver_area->y1 = ver_area->y2 - SCROLLBAR_MIN_SIZE;
 4197              		.loc 1 532 64 discriminator 4 view .LVU1267
 4198 031c B6F90230 		ldrsh	r3, [r6, #2]
 532:lvgl/src/core/lv_obj_scroll.c ****                     ver_area->y1 = ver_area->y2 - SCROLLBAR_MIN_SIZE;
 4199              		.loc 1 532 19 discriminator 4 view .LVU1268
 4200 0320 9C42     		cmp	r4, r3
 4201 0322 59DA     		bge	.L224
 533:lvgl/src/core/lv_obj_scroll.c ****                 }
 4202              		.loc 1 533 21 is_stmt 1 view .LVU1269
 533:lvgl/src/core/lv_obj_scroll.c ****                 }
 4203              		.loc 1 533 44 is_stmt 0 view .LVU1270
 4204 0324 F488     		ldrh	r4, [r6, #6]
 533:lvgl/src/core/lv_obj_scroll.c ****                 }
 4205              		.loc 1 533 51 view .LVU1271
 4206 0326 0020     		movs	r0, #0
 4207 0328 FFF7FEFF 		bl	lv_disp_get_dpi
 4208              	.LVL490:
 533:lvgl/src/core/lv_obj_scroll.c ****                 }
 4209              		.loc 1 533 51 discriminator 1 view .LVU1272
 4210 032c 00EB8000 		add	r0, r0, r0, lsl #2
 4211 0330 4300     		lsls	r3, r0, #1
 533:lvgl/src/core/lv_obj_scroll.c ****                 }
 4212              		.loc 1 533 49 discriminator 1 view .LVU1273
 4213 0332 EF2B     		cmp	r3, #239
 4214 0334 00F34081 		bgt	.L290
 533:lvgl/src/core/lv_obj_scroll.c ****                 }
 4215              		.loc 1 533 49 discriminator 2 view .LVU1274
 4216 0338 0123     		movs	r3, #1
 4217              	.L234:
 533:lvgl/src/core/lv_obj_scroll.c ****                 }
 4218              		.loc 1 533 49 discriminator 4 view .LVU1275
 4219 033a E41A     		subs	r4, r4, r3
 533:lvgl/src/core/lv_obj_scroll.c ****                 }
 4220              		.loc 1 533 34 discriminator 4 view .LVU1276
 4221 033c 7480     		strh	r4, [r6, #2]	@ movhi
 4222 033e 4BE0     		b	.L224
 4223              	.LVL491:
 4224              	.L257:
 533:lvgl/src/core/lv_obj_scroll.c ****                 }
 4225              		.loc 1 533 34 discriminator 4 view .LVU1277
 4226              	.LBE194:
 4227              	.LBE193:
ARM GAS  C:\usertemp\ccBZVumh.s 			page 122


 486:lvgl/src/core/lv_obj_scroll.c ****     lv_coord_t hor_req_space = hor_draw ? tickness : 0;
 4228              		.loc 1 486 16 discriminator 2 view .LVU1278
 4229 0340 0023     		movs	r3, #0
 4230 0342 0D93     		str	r3, [sp, #52]
 4231 0344 47E7     		b	.L221
 4232              	.LVL492:
 4233              	.L283:
 4234              	.LBB196:
 4235              	.LBI196:
 235:lvgl/src/core/lv_obj_style_gen.h **** {
 4236              		.loc 2 235 24 is_stmt 1 view .LVU1279
 4237              	.LBB197:
 237:lvgl/src/core/lv_obj_style_gen.h ****     return (lv_opa_t)v.num;
 4238              		.loc 2 237 5 view .LVU1280
 237:lvgl/src/core/lv_obj_style_gen.h ****     return (lv_opa_t)v.num;
 4239              		.loc 2 237 26 is_stmt 0 view .LVU1281
 4240 0346 3122     		movs	r2, #49
 4241 0348 4FF48031 		mov	r1, #65536
 4242 034c 2846     		mov	r0, r5
 4243 034e FFF7FEFF 		bl	lv_obj_get_style_prop
 4244              	.LVL493:
 238:lvgl/src/core/lv_obj_style_gen.h **** }
 4245              		.loc 2 238 5 is_stmt 1 view .LVU1282
 238:lvgl/src/core/lv_obj_style_gen.h **** }
 4246              		.loc 2 238 12 is_stmt 0 view .LVU1283
 4247 0352 C0B2     		uxtb	r0, r0
 4248              	.LVL494:
 238:lvgl/src/core/lv_obj_style_gen.h **** }
 4249              		.loc 2 238 12 view .LVU1284
 4250              	.LBE197:
 4251              	.LBE196:
 490:lvgl/src/core/lv_obj_scroll.c ****        lv_obj_get_style_border_opa(obj, LV_PART_SCROLLBAR) < LV_OPA_MIN) {
 4252              		.loc 1 490 69 discriminator 1 view .LVU1285
 4253 0354 0128     		cmp	r0, #1
 4254 0356 3FF64CAF 		bhi	.L223
 4255 035a 72E6     		b	.L210
 4256              	.LVL495:
 4257              	.L284:
 4258              	.LBB198:
 501:lvgl/src/core/lv_obj_scroll.c ****             ver_area->x2 = ver_area->x1 + tickness - 1;
 4259              		.loc 1 501 13 is_stmt 1 view .LVU1286
 501:lvgl/src/core/lv_obj_scroll.c ****             ver_area->x2 = ver_area->x1 + tickness - 1;
 4260              		.loc 1 501 39 is_stmt 0 view .LVU1287
 4261 035c AB8A     		ldrh	r3, [r5, #20]
 501:lvgl/src/core/lv_obj_scroll.c ****             ver_area->x2 = ver_area->x1 + tickness - 1;
 4262              		.loc 1 501 43 view .LVU1288
 4263 035e 129A     		ldr	r2, [sp, #72]
 4264 0360 1344     		add	r3, r3, r2
 501:lvgl/src/core/lv_obj_scroll.c ****             ver_area->x2 = ver_area->x1 + tickness - 1;
 4265              		.loc 1 501 26 view .LVU1289
 4266 0362 3380     		strh	r3, [r6]	@ movhi
 502:lvgl/src/core/lv_obj_scroll.c ****         }
 4267              		.loc 1 502 13 is_stmt 1 view .LVU1290
 502:lvgl/src/core/lv_obj_scroll.c ****         }
 4268              		.loc 1 502 41 is_stmt 0 view .LVU1291
 4269 0364 099A     		ldr	r2, [sp, #36]
 4270 0366 12FA83F3 		uxtah	r3, r2, r3
ARM GAS  C:\usertemp\ccBZVumh.s 			page 123


 4271 036a 9BB2     		uxth	r3, r3
 502:lvgl/src/core/lv_obj_scroll.c ****         }
 4272              		.loc 1 502 52 view .LVU1292
 4273 036c 013B     		subs	r3, r3, #1
 502:lvgl/src/core/lv_obj_scroll.c ****         }
 4274              		.loc 1 502 26 view .LVU1293
 4275 036e B380     		strh	r3, [r6, #4]	@ movhi
 4276 0370 67E7     		b	.L226
 4277              	.LVL496:
 4278              	.L285:
 510:lvgl/src/core/lv_obj_scroll.c ****         rem = (obj_h - top_space - bottom_space - hor_req_space) -
 4279              		.loc 1 510 16 discriminator 1 view .LVU1294
 4280 0372 0020     		movs	r0, #0
 4281 0374 FFF7FEFF 		bl	lv_disp_get_dpi
 4282              	.LVL497:
 4283 0378 00EB8000 		add	r0, r0, r0, lsl #2
 4284 037c 4300     		lsls	r3, r0, #1
 4285 037e 5033     		adds	r3, r3, #80
 4286 0380 B54A     		ldr	r2, .L310
 4287 0382 82FB0312 		smull	r1, r2, r2, r3
 4288 0386 DB17     		asrs	r3, r3, #31
 4289 0388 C3EBA213 		rsb	r3, r3, r2, asr #6
 4290 038c 70E7     		b	.L227
 4291              	.L286:
 510:lvgl/src/core/lv_obj_scroll.c ****         rem = (obj_h - top_space - bottom_space - hor_req_space) -
 4292              		.loc 1 510 16 discriminator 5 view .LVU1295
 4293 038e 0020     		movs	r0, #0
 4294 0390 FFF7FEFF 		bl	lv_disp_get_dpi
 4295              	.LVL498:
 510:lvgl/src/core/lv_obj_scroll.c ****         rem = (obj_h - top_space - bottom_space - hor_req_space) -
 4296              		.loc 1 510 16 discriminator 1 view .LVU1296
 4297 0394 00EB8000 		add	r0, r0, r0, lsl #2
 4298 0398 4300     		lsls	r3, r0, #1
 510:lvgl/src/core/lv_obj_scroll.c ****         rem = (obj_h - top_space - bottom_space - hor_req_space) -
 4299              		.loc 1 510 14 discriminator 1 view .LVU1297
 4300 039a EF2B     		cmp	r3, #239
 4301 039c 01DC     		bgt	.L291
 510:lvgl/src/core/lv_obj_scroll.c ****         rem = (obj_h - top_space - bottom_space - hor_req_space) -
 4302              		.loc 1 510 14 discriminator 8 view .LVU1298
 4303 039e 0124     		movs	r4, #1
 4304              	.LVL499:
 510:lvgl/src/core/lv_obj_scroll.c ****         rem = (obj_h - top_space - bottom_space - hor_req_space) -
 4305              		.loc 1 510 14 discriminator 8 view .LVU1299
 4306 03a0 69E7     		b	.L228
 4307              	.LVL500:
 4308              	.L291:
 510:lvgl/src/core/lv_obj_scroll.c ****         rem = (obj_h - top_space - bottom_space - hor_req_space) -
 4309              		.loc 1 510 16 discriminator 7 view .LVU1300
 4310 03a2 0020     		movs	r0, #0
 4311 03a4 FFF7FEFF 		bl	lv_disp_get_dpi
 4312              	.LVL501:
 510:lvgl/src/core/lv_obj_scroll.c ****         rem = (obj_h - top_space - bottom_space - hor_req_space) -
 4313              		.loc 1 510 16 discriminator 1 view .LVU1301
 4314 03a8 00EB8000 		add	r0, r0, r0, lsl #2
 4315 03ac 4300     		lsls	r3, r0, #1
 4316 03ae 5033     		adds	r3, r3, #80
 4317 03b0 A94A     		ldr	r2, .L310
ARM GAS  C:\usertemp\ccBZVumh.s 			page 124


 4318 03b2 82FB0312 		smull	r1, r2, r2, r3
 4319 03b6 DC17     		asrs	r4, r3, #31
 4320              	.LVL502:
 510:lvgl/src/core/lv_obj_scroll.c ****         rem = (obj_h - top_space - bottom_space - hor_req_space) -
 4321              		.loc 1 510 16 discriminator 1 view .LVU1302
 4322 03b8 C4EBA214 		rsb	r4, r4, r2, asr #6
 510:lvgl/src/core/lv_obj_scroll.c ****         rem = (obj_h - top_space - bottom_space - hor_req_space) -
 4323              		.loc 1 510 14 discriminator 1 view .LVU1303
 4324 03bc 24B2     		sxth	r4, r4
 4325 03be 5AE7     		b	.L228
 4326              	.LVL503:
 4327              	.L287:
 515:lvgl/src/core/lv_obj_scroll.c ****             ver_area->y2 = obj->coords.y2 - bottom_space - hor_req_space - 1;
 4328              		.loc 1 515 13 is_stmt 1 view .LVU1304
 515:lvgl/src/core/lv_obj_scroll.c ****             ver_area->y2 = obj->coords.y2 - bottom_space - hor_req_space - 1;
 4329              		.loc 1 515 39 is_stmt 0 view .LVU1305
 4330 03c0 EB8A     		ldrh	r3, [r5, #22]
 4331              	.LVL504:
 515:lvgl/src/core/lv_obj_scroll.c ****             ver_area->y2 = obj->coords.y2 - bottom_space - hor_req_space - 1;
 4332              		.loc 1 515 43 view .LVU1306
 4333 03c2 1344     		add	r3, r3, r2
 515:lvgl/src/core/lv_obj_scroll.c ****             ver_area->y2 = obj->coords.y2 - bottom_space - hor_req_space - 1;
 4334              		.loc 1 515 26 view .LVU1307
 4335 03c4 7380     		strh	r3, [r6, #2]	@ movhi
 516:lvgl/src/core/lv_obj_scroll.c ****         }
 4336              		.loc 1 516 13 is_stmt 1 view .LVU1308
 516:lvgl/src/core/lv_obj_scroll.c ****         }
 4337              		.loc 1 516 39 is_stmt 0 view .LVU1309
 4338 03c6 6B8B     		ldrh	r3, [r5, #26]
 516:lvgl/src/core/lv_obj_scroll.c ****         }
 4339              		.loc 1 516 43 view .LVU1310
 4340 03c8 A3EB0803 		sub	r3, r3, r8
 4341 03cc 9BB2     		uxth	r3, r3
 516:lvgl/src/core/lv_obj_scroll.c ****         }
 4342              		.loc 1 516 58 view .LVU1311
 4343 03ce A3EB0A03 		sub	r3, r3, r10
 4344 03d2 9BB2     		uxth	r3, r3
 516:lvgl/src/core/lv_obj_scroll.c ****         }
 4345              		.loc 1 516 74 view .LVU1312
 4346 03d4 013B     		subs	r3, r3, #1
 516:lvgl/src/core/lv_obj_scroll.c ****         }
 4347              		.loc 1 516 26 view .LVU1313
 4348 03d6 F380     		strh	r3, [r6, #6]	@ movhi
 4349              	.LVL505:
 4350              	.L224:
 516:lvgl/src/core/lv_obj_scroll.c ****         }
 4351              		.loc 1 516 26 view .LVU1314
 4352              	.LBE198:
 540:lvgl/src/core/lv_obj_scroll.c ****     if(hor_draw && content_w) {
 4353              		.loc 1 540 5 is_stmt 1 view .LVU1315
 540:lvgl/src/core/lv_obj_scroll.c ****     if(hor_draw && content_w) {
 4354              		.loc 1 540 34 is_stmt 0 view .LVU1316
 4355 03d8 BDF81CA0 		ldrh	r10, [sp, #28]
 4356 03dc 069B     		ldr	r3, [sp, #24]
 4357 03de 5344     		add	r3, r3, r10
 540:lvgl/src/core/lv_obj_scroll.c ****     if(hor_draw && content_w) {
 4358              		.loc 1 540 39 view .LVU1317
ARM GAS  C:\usertemp\ccBZVumh.s 			page 125


 4359 03e0 059A     		ldr	r2, [sp, #20]
 4360 03e2 12FA83F3 		uxtah	r3, r2, r3
 4361 03e6 1FFA83F9 		uxth	r9, r3
 4362              	.LVL506:
 540:lvgl/src/core/lv_obj_scroll.c ****     if(hor_draw && content_w) {
 4363              		.loc 1 540 16 view .LVU1318
 4364 03ea 1AB2     		sxth	r2, r3
 4365              	.LVL507:
 541:lvgl/src/core/lv_obj_scroll.c ****         hor_area->y2 = obj->coords.y2 - bottom_space;
 4366              		.loc 1 541 5 is_stmt 1 view .LVU1319
 541:lvgl/src/core/lv_obj_scroll.c ****         hor_area->y2 = obj->coords.y2 - bottom_space;
 4367              		.loc 1 541 17 is_stmt 0 view .LVU1320
 4368 03ec 039B     		ldr	r3, [sp, #12]
 4369 03ee 002A     		cmp	r2, #0
 4370 03f0 0CBF     		ite	eq
 4371 03f2 0023     		moveq	r3, #0
 4372 03f4 03F00103 		andne	r3, r3, #1
 541:lvgl/src/core/lv_obj_scroll.c ****         hor_area->y2 = obj->coords.y2 - bottom_space;
 4373              		.loc 1 541 7 view .LVU1321
 4374 03f8 002B     		cmp	r3, #0
 4375 03fa 3FF422AE 		beq	.L210
 4376              	.LBB199:
 542:lvgl/src/core/lv_obj_scroll.c ****         hor_area->y1 = hor_area->y2 - tickness + 1;
 4377              		.loc 1 542 9 is_stmt 1 view .LVU1322
 542:lvgl/src/core/lv_obj_scroll.c ****         hor_area->y1 = hor_area->y2 - tickness + 1;
 4378              		.loc 1 542 35 is_stmt 0 view .LVU1323
 4379 03fe 698B     		ldrh	r1, [r5, #26]
 542:lvgl/src/core/lv_obj_scroll.c ****         hor_area->y1 = hor_area->y2 - tickness + 1;
 4380              		.loc 1 542 39 view .LVU1324
 4381 0400 089B     		ldr	r3, [sp, #32]
 4382 0402 C91A     		subs	r1, r1, r3
 4383 0404 8BB2     		uxth	r3, r1
 542:lvgl/src/core/lv_obj_scroll.c ****         hor_area->y1 = hor_area->y2 - tickness + 1;
 4384              		.loc 1 542 22 view .LVU1325
 4385 0406 F980     		strh	r1, [r7, #6]	@ movhi
 543:lvgl/src/core/lv_obj_scroll.c ****         hor_area->x1 = obj->coords.x1;
 4386              		.loc 1 543 9 is_stmt 1 view .LVU1326
 543:lvgl/src/core/lv_obj_scroll.c ****         hor_area->x1 = obj->coords.x1;
 4387              		.loc 1 543 37 is_stmt 0 view .LVU1327
 4388 0408 0999     		ldr	r1, [sp, #36]
 4389 040a 5B1A     		subs	r3, r3, r1
 4390 040c 9BB2     		uxth	r3, r3
 543:lvgl/src/core/lv_obj_scroll.c ****         hor_area->x1 = obj->coords.x1;
 4391              		.loc 1 543 48 view .LVU1328
 4392 040e 0133     		adds	r3, r3, #1
 543:lvgl/src/core/lv_obj_scroll.c ****         hor_area->x1 = obj->coords.x1;
 4393              		.loc 1 543 22 view .LVU1329
 4394 0410 7B80     		strh	r3, [r7, #2]	@ movhi
 544:lvgl/src/core/lv_obj_scroll.c ****         hor_area->x2 = obj->coords.x2;
 4395              		.loc 1 544 9 is_stmt 1 view .LVU1330
 544:lvgl/src/core/lv_obj_scroll.c ****         hor_area->x2 = obj->coords.x2;
 4396              		.loc 1 544 35 is_stmt 0 view .LVU1331
 4397 0412 B5F91430 		ldrsh	r3, [r5, #20]
 544:lvgl/src/core/lv_obj_scroll.c ****         hor_area->x2 = obj->coords.x2;
 4398              		.loc 1 544 22 view .LVU1332
 4399 0416 3B80     		strh	r3, [r7]	@ movhi
 545:lvgl/src/core/lv_obj_scroll.c **** 
ARM GAS  C:\usertemp\ccBZVumh.s 			page 126


 4400              		.loc 1 545 9 is_stmt 1 view .LVU1333
 545:lvgl/src/core/lv_obj_scroll.c **** 
 4401              		.loc 1 545 35 is_stmt 0 view .LVU1334
 4402 0418 B5F91830 		ldrsh	r3, [r5, #24]
 545:lvgl/src/core/lv_obj_scroll.c **** 
 4403              		.loc 1 545 22 view .LVU1335
 4404 041c BB80     		strh	r3, [r7, #4]	@ movhi
 547:lvgl/src/core/lv_obj_scroll.c ****         sb_w = LV_MAX(sb_w, SCROLLBAR_MIN_SIZE);
 4405              		.loc 1 547 9 is_stmt 1 view .LVU1336
 547:lvgl/src/core/lv_obj_scroll.c ****         sb_w = LV_MAX(sb_w, SCROLLBAR_MIN_SIZE);
 4406              		.loc 1 547 35 is_stmt 0 view .LVU1337
 4407 041e 0799     		ldr	r1, [sp, #28]
 4408 0420 109B     		ldr	r3, [sp, #64]
 4409 0422 CB1A     		subs	r3, r1, r3
 547:lvgl/src/core/lv_obj_scroll.c ****         sb_w = LV_MAX(sb_w, SCROLLBAR_MIN_SIZE);
 4410              		.loc 1 547 48 view .LVU1338
 4411 0424 0F98     		ldr	r0, [sp, #60]
 4412 0426 1B1A     		subs	r3, r3, r0
 547:lvgl/src/core/lv_obj_scroll.c ****         sb_w = LV_MAX(sb_w, SCROLLBAR_MIN_SIZE);
 4413              		.loc 1 547 62 view .LVU1339
 4414 0428 0D98     		ldr	r0, [sp, #52]
 4415 042a 8346     		mov	fp, r0
 4416 042c 1B1A     		subs	r3, r3, r0
 547:lvgl/src/core/lv_obj_scroll.c ****         sb_w = LV_MAX(sb_w, SCROLLBAR_MIN_SIZE);
 4417              		.loc 1 547 79 view .LVU1340
 4418 042e 03FB01F4 		mul	r4, r3, r1
 547:lvgl/src/core/lv_obj_scroll.c ****         sb_w = LV_MAX(sb_w, SCROLLBAR_MIN_SIZE);
 4419              		.loc 1 547 88 view .LVU1341
 4420 0432 94FBF2F4 		sdiv	r4, r4, r2
 547:lvgl/src/core/lv_obj_scroll.c ****         sb_w = LV_MAX(sb_w, SCROLLBAR_MIN_SIZE);
 4421              		.loc 1 547 20 view .LVU1342
 4422 0436 24B2     		sxth	r4, r4
 4423              	.LVL508:
 548:lvgl/src/core/lv_obj_scroll.c ****         rem = (obj_w - left_space - right_space - ver_reg_space) -
 4424              		.loc 1 548 9 is_stmt 1 view .LVU1343
 548:lvgl/src/core/lv_obj_scroll.c ****         rem = (obj_w - left_space - right_space - ver_reg_space) -
 4425              		.loc 1 548 16 is_stmt 0 view .LVU1344
 4426 0438 2646     		mov	r6, r4
 4427              	.LVL509:
 548:lvgl/src/core/lv_obj_scroll.c ****         rem = (obj_w - left_space - right_space - ver_reg_space) -
 4428              		.loc 1 548 16 view .LVU1345
 4429 043a 0020     		movs	r0, #0
 4430 043c FFF7FEFF 		bl	lv_disp_get_dpi
 4431              	.LVL510:
 548:lvgl/src/core/lv_obj_scroll.c ****         rem = (obj_w - left_space - right_space - ver_reg_space) -
 4432              		.loc 1 548 16 discriminator 1 view .LVU1346
 4433 0440 00EB8000 		add	r0, r0, r0, lsl #2
 4434 0444 4000     		lsls	r0, r0, #1
 4435 0446 EF28     		cmp	r0, #239
 4436 0448 00F3C580 		bgt	.L292
 548:lvgl/src/core/lv_obj_scroll.c ****         rem = (obj_w - left_space - right_space - ver_reg_space) -
 4437              		.loc 1 548 16 discriminator 2 view .LVU1347
 4438 044c 0123     		movs	r3, #1
 4439              	.L235:
 548:lvgl/src/core/lv_obj_scroll.c ****         rem = (obj_w - left_space - right_space - ver_reg_space) -
 4440              		.loc 1 548 14 discriminator 4 view .LVU1348
 4441 044e 9E42     		cmp	r6, r3
ARM GAS  C:\usertemp\ccBZVumh.s 			page 127


 4442 0450 40F3CF80 		ble	.L293
 4443              	.LVL511:
 4444              	.L236:
 549:lvgl/src/core/lv_obj_scroll.c ****               sb_w;  /*Remaining size from the scrollbar track that is not the scrollbar itself*/
 4445              		.loc 1 549 9 is_stmt 1 view .LVU1349
 549:lvgl/src/core/lv_obj_scroll.c ****               sb_w;  /*Remaining size from the scrollbar track that is not the scrollbar itself*/
 4446              		.loc 1 549 22 is_stmt 0 view .LVU1350
 4447 0454 BDF84820 		ldrh	r2, [sp, #72]
 4448 0458 AAEB0203 		sub	r3, r10, r2
 4449 045c 9BB2     		uxth	r3, r3
 549:lvgl/src/core/lv_obj_scroll.c ****               sb_w;  /*Remaining size from the scrollbar track that is not the scrollbar itself*/
 4450              		.loc 1 549 35 view .LVU1351
 4451 045e BDF83860 		ldrh	r6, [sp, #56]
 4452 0462 9B1B     		subs	r3, r3, r6
 4453 0464 9BB2     		uxth	r3, r3
 549:lvgl/src/core/lv_obj_scroll.c ****               sb_w;  /*Remaining size from the scrollbar track that is not the scrollbar itself*/
 4454              		.loc 1 549 49 view .LVU1352
 4455 0466 BDF83480 		ldrh	r8, [sp, #52]
 4456 046a A3EB0803 		sub	r3, r3, r8
 4457 046e 9BB2     		uxth	r3, r3
 549:lvgl/src/core/lv_obj_scroll.c ****               sb_w;  /*Remaining size from the scrollbar track that is not the scrollbar itself*/
 4458              		.loc 1 549 66 view .LVU1353
 4459 0470 A4B2     		uxth	r4, r4
 549:lvgl/src/core/lv_obj_scroll.c ****               sb_w;  /*Remaining size from the scrollbar track that is not the scrollbar itself*/
 4460              		.loc 1 549 66 view .LVU1354
 4461 0472 1B1B     		subs	r3, r3, r4
 4462 0474 99B2     		uxth	r1, r3
 549:lvgl/src/core/lv_obj_scroll.c ****               sb_w;  /*Remaining size from the scrollbar track that is not the scrollbar itself*/
 4463              		.loc 1 549 13 view .LVU1355
 4464 0476 1BB2     		sxth	r3, r3
 4465              	.LVL512:
 551:lvgl/src/core/lv_obj_scroll.c ****         if(scroll_w <= 0) {
 4466              		.loc 1 551 9 is_stmt 1 view .LVU1356
 551:lvgl/src/core/lv_obj_scroll.c ****         if(scroll_w <= 0) {
 4467              		.loc 1 551 41 is_stmt 0 view .LVU1357
 4468 0478 A9EB0A09 		sub	r9, r9, r10
 4469              	.LVL513:
 551:lvgl/src/core/lv_obj_scroll.c ****         if(scroll_w <= 0) {
 4470              		.loc 1 551 20 view .LVU1358
 4471 047c 0FFA89F9 		sxth	r9, r9
 4472              	.LVL514:
 552:lvgl/src/core/lv_obj_scroll.c ****             if(rtl) {
 4473              		.loc 1 552 9 is_stmt 1 view .LVU1359
 552:lvgl/src/core/lv_obj_scroll.c ****             if(rtl) {
 4474              		.loc 1 552 11 is_stmt 0 view .LVU1360
 4475 0480 B9F1000F 		cmp	r9, #0
 4476 0484 40F3CE80 		ble	.L294
 4477              	.LBB200:
 563:lvgl/src/core/lv_obj_scroll.c ****             sb_x = rem - sb_x;
 4478              		.loc 1 563 13 is_stmt 1 view .LVU1361
 563:lvgl/src/core/lv_obj_scroll.c ****             sb_x = rem - sb_x;
 4479              		.loc 1 563 36 is_stmt 0 view .LVU1362
 4480 0488 0598     		ldr	r0, [sp, #20]
 4481 048a 00FB03F3 		mul	r3, r0, r3
 4482              	.LVL515:
 563:lvgl/src/core/lv_obj_scroll.c ****             sb_x = rem - sb_x;
 4483              		.loc 1 563 42 view .LVU1363
ARM GAS  C:\usertemp\ccBZVumh.s 			page 128


 4484 048e 93FBF9F3 		sdiv	r3, r3, r9
 4485              	.LVL516:
 564:lvgl/src/core/lv_obj_scroll.c **** 
 4486              		.loc 1 564 13 is_stmt 1 view .LVU1364
 564:lvgl/src/core/lv_obj_scroll.c **** 
 4487              		.loc 1 564 24 is_stmt 0 view .LVU1365
 4488 0492 C91A     		subs	r1, r1, r3
 4489              	.LVL517:
 564:lvgl/src/core/lv_obj_scroll.c **** 
 4490              		.loc 1 564 24 view .LVU1366
 4491 0494 89B2     		uxth	r1, r1
 4492              	.LVL518:
 566:lvgl/src/core/lv_obj_scroll.c ****                 hor_area->x1 = obj->coords.x1 + sb_x + left_space + ver_reg_space;
 4493              		.loc 1 566 13 is_stmt 1 view .LVU1367
 566:lvgl/src/core/lv_obj_scroll.c ****                 hor_area->x1 = obj->coords.x1 + sb_x + left_space + ver_reg_space;
 4494              		.loc 1 566 15 is_stmt 0 view .LVU1368
 4495 0496 0A9B     		ldr	r3, [sp, #40]
 4496 0498 012B     		cmp	r3, #1
 4497 049a 00F0DF80 		beq	.L295
 583:lvgl/src/core/lv_obj_scroll.c ****                 hor_area->x2 = hor_area->x1 + sb_w - 1;
 4498              		.loc 1 583 17 is_stmt 1 view .LVU1369
 583:lvgl/src/core/lv_obj_scroll.c ****                 hor_area->x2 = hor_area->x1 + sb_w - 1;
 4499              		.loc 1 583 43 is_stmt 0 view .LVU1370
 4500 049e AB8A     		ldrh	r3, [r5, #20]
 583:lvgl/src/core/lv_obj_scroll.c ****                 hor_area->x2 = hor_area->x1 + sb_w - 1;
 4501              		.loc 1 583 47 view .LVU1371
 4502 04a0 0B44     		add	r3, r3, r1
 583:lvgl/src/core/lv_obj_scroll.c ****                 hor_area->x2 = hor_area->x1 + sb_w - 1;
 4503              		.loc 1 583 54 view .LVU1372
 4504 04a2 12FA83F3 		uxtah	r3, r2, r3
 4505 04a6 19B2     		sxth	r1, r3
 4506              	.LVL519:
 583:lvgl/src/core/lv_obj_scroll.c ****                 hor_area->x2 = hor_area->x1 + sb_w - 1;
 4507              		.loc 1 583 30 view .LVU1373
 4508 04a8 3980     		strh	r1, [r7]	@ movhi
 584:lvgl/src/core/lv_obj_scroll.c ****                 if(hor_area->x1 < obj->coords.x1 + left_space) {
 4509              		.loc 1 584 17 is_stmt 1 view .LVU1374
 584:lvgl/src/core/lv_obj_scroll.c ****                 if(hor_area->x1 < obj->coords.x1 + left_space) {
 4510              		.loc 1 584 45 is_stmt 0 view .LVU1375
 4511 04aa 14FA83F3 		uxtah	r3, r4, r3
 4512 04ae 9BB2     		uxth	r3, r3
 584:lvgl/src/core/lv_obj_scroll.c ****                 if(hor_area->x1 < obj->coords.x1 + left_space) {
 4513              		.loc 1 584 52 view .LVU1376
 4514 04b0 013B     		subs	r3, r3, #1
 584:lvgl/src/core/lv_obj_scroll.c ****                 if(hor_area->x1 < obj->coords.x1 + left_space) {
 4515              		.loc 1 584 30 view .LVU1377
 4516 04b2 BB80     		strh	r3, [r7, #4]	@ movhi
 585:lvgl/src/core/lv_obj_scroll.c ****                     hor_area->x1 = obj->coords.x1 + left_space;
 4517              		.loc 1 585 17 is_stmt 1 view .LVU1378
 585:lvgl/src/core/lv_obj_scroll.c ****                     hor_area->x1 = obj->coords.x1 + left_space;
 4518              		.loc 1 585 46 is_stmt 0 view .LVU1379
 4519 04b4 B5F91400 		ldrsh	r0, [r5, #20]
 4520              	.LVL520:
 585:lvgl/src/core/lv_obj_scroll.c ****                     hor_area->x1 = obj->coords.x1 + left_space;
 4521              		.loc 1 585 50 view .LVU1380
 4522 04b8 109B     		ldr	r3, [sp, #64]
 4523 04ba 0344     		add	r3, r3, r0
ARM GAS  C:\usertemp\ccBZVumh.s 			page 129


 585:lvgl/src/core/lv_obj_scroll.c ****                     hor_area->x1 = obj->coords.x1 + left_space;
 4524              		.loc 1 585 19 view .LVU1381
 4525 04bc 9942     		cmp	r1, r3
 4526 04be C0F25981 		blt	.L296
 4527              	.LVL521:
 4528              	.L245:
 591:lvgl/src/core/lv_obj_scroll.c ****                     hor_area->x2 = obj->coords.x2 - ver_reg_space - right_space;
 4529              		.loc 1 591 17 is_stmt 1 view .LVU1382
 591:lvgl/src/core/lv_obj_scroll.c ****                     hor_area->x2 = obj->coords.x2 - ver_reg_space - right_space;
 4530              		.loc 1 591 28 is_stmt 0 view .LVU1383
 4531 04c2 B7F90410 		ldrsh	r1, [r7, #4]
 591:lvgl/src/core/lv_obj_scroll.c ****                     hor_area->x2 = obj->coords.x2 - ver_reg_space - right_space;
 4532              		.loc 1 591 46 view .LVU1384
 4533 04c6 B5F91820 		ldrsh	r2, [r5, #24]
 591:lvgl/src/core/lv_obj_scroll.c ****                     hor_area->x2 = obj->coords.x2 - ver_reg_space - right_space;
 4534              		.loc 1 591 50 view .LVU1385
 4535 04ca A2EB0B03 		sub	r3, r2, fp
 591:lvgl/src/core/lv_obj_scroll.c ****                     hor_area->x2 = obj->coords.x2 - ver_reg_space - right_space;
 4536              		.loc 1 591 66 view .LVU1386
 4537 04ce 0F98     		ldr	r0, [sp, #60]
 4538 04d0 1B1A     		subs	r3, r3, r0
 591:lvgl/src/core/lv_obj_scroll.c ****                     hor_area->x2 = obj->coords.x2 - ver_reg_space - right_space;
 4539              		.loc 1 591 19 view .LVU1387
 4540 04d2 9942     		cmp	r1, r3
 4541 04d4 7FF7B5AD 		ble	.L210
 592:lvgl/src/core/lv_obj_scroll.c ****                     if(hor_area->x2 - SCROLLBAR_MIN_SIZE < hor_area->x1) {
 4542              		.loc 1 592 21 is_stmt 1 view .LVU1388
 592:lvgl/src/core/lv_obj_scroll.c ****                     if(hor_area->x2 - SCROLLBAR_MIN_SIZE < hor_area->x1) {
 4543              		.loc 1 592 47 is_stmt 0 view .LVU1389
 4544 04d8 94B2     		uxth	r4, r2
 592:lvgl/src/core/lv_obj_scroll.c ****                     if(hor_area->x2 - SCROLLBAR_MIN_SIZE < hor_area->x1) {
 4545              		.loc 1 592 51 view .LVU1390
 4546 04da A4EB0804 		sub	r4, r4, r8
 4547 04de A4B2     		uxth	r4, r4
 592:lvgl/src/core/lv_obj_scroll.c ****                     if(hor_area->x2 - SCROLLBAR_MIN_SIZE < hor_area->x1) {
 4548              		.loc 1 592 67 view .LVU1391
 4549 04e0 A41B     		subs	r4, r4, r6
 4550 04e2 24B2     		sxth	r4, r4
 592:lvgl/src/core/lv_obj_scroll.c ****                     if(hor_area->x2 - SCROLLBAR_MIN_SIZE < hor_area->x1) {
 4551              		.loc 1 592 34 view .LVU1392
 4552 04e4 BC80     		strh	r4, [r7, #4]	@ movhi
 593:lvgl/src/core/lv_obj_scroll.c ****                         hor_area->x1 = hor_area->x2 - SCROLLBAR_MIN_SIZE;
 4553              		.loc 1 593 21 is_stmt 1 view .LVU1393
 593:lvgl/src/core/lv_obj_scroll.c ****                         hor_area->x1 = hor_area->x2 - SCROLLBAR_MIN_SIZE;
 4554              		.loc 1 593 39 is_stmt 0 view .LVU1394
 4555 04e6 0020     		movs	r0, #0
 4556 04e8 FFF7FEFF 		bl	lv_disp_get_dpi
 4557              	.LVL522:
 593:lvgl/src/core/lv_obj_scroll.c ****                         hor_area->x1 = hor_area->x2 - SCROLLBAR_MIN_SIZE;
 4558              		.loc 1 593 39 discriminator 1 view .LVU1395
 4559 04ec 00EB8000 		add	r0, r0, r0, lsl #2
 4560 04f0 4300     		lsls	r3, r0, #1
 4561 04f2 EF2B     		cmp	r3, #239
 4562 04f4 00F37881 		bgt	.L297
 593:lvgl/src/core/lv_obj_scroll.c ****                         hor_area->x1 = hor_area->x2 - SCROLLBAR_MIN_SIZE;
 4563              		.loc 1 593 39 discriminator 2 view .LVU1396
 4564 04f8 0123     		movs	r3, #1
ARM GAS  C:\usertemp\ccBZVumh.s 			page 130


 4565              	.L248:
 593:lvgl/src/core/lv_obj_scroll.c ****                         hor_area->x1 = hor_area->x2 - SCROLLBAR_MIN_SIZE;
 4566              		.loc 1 593 37 discriminator 4 view .LVU1397
 4567 04fa E41A     		subs	r4, r4, r3
 593:lvgl/src/core/lv_obj_scroll.c ****                         hor_area->x1 = hor_area->x2 - SCROLLBAR_MIN_SIZE;
 4568              		.loc 1 593 68 discriminator 4 view .LVU1398
 4569 04fc B7F90030 		ldrsh	r3, [r7]
 593:lvgl/src/core/lv_obj_scroll.c ****                         hor_area->x1 = hor_area->x2 - SCROLLBAR_MIN_SIZE;
 4570              		.loc 1 593 23 discriminator 4 view .LVU1399
 4571 0500 9C42     		cmp	r4, r3
 4572 0502 BFF69EAD 		bge	.L210
 594:lvgl/src/core/lv_obj_scroll.c ****                     }
 4573              		.loc 1 594 25 is_stmt 1 view .LVU1400
 594:lvgl/src/core/lv_obj_scroll.c ****                     }
 4574              		.loc 1 594 48 is_stmt 0 view .LVU1401
 4575 0506 BC88     		ldrh	r4, [r7, #4]
 594:lvgl/src/core/lv_obj_scroll.c ****                     }
 4576              		.loc 1 594 55 view .LVU1402
 4577 0508 0020     		movs	r0, #0
 4578 050a FFF7FEFF 		bl	lv_disp_get_dpi
 4579              	.LVL523:
 594:lvgl/src/core/lv_obj_scroll.c ****                     }
 4580              		.loc 1 594 55 discriminator 1 view .LVU1403
 4581 050e 00EB8000 		add	r0, r0, r0, lsl #2
 4582 0512 4300     		lsls	r3, r0, #1
 594:lvgl/src/core/lv_obj_scroll.c ****                     }
 4583              		.loc 1 594 53 discriminator 1 view .LVU1404
 4584 0514 EF2B     		cmp	r3, #239
 4585 0516 00F37581 		bgt	.L298
 594:lvgl/src/core/lv_obj_scroll.c ****                     }
 4586              		.loc 1 594 53 discriminator 2 view .LVU1405
 4587 051a 0123     		movs	r3, #1
 4588              	.L249:
 594:lvgl/src/core/lv_obj_scroll.c ****                     }
 4589              		.loc 1 594 53 discriminator 4 view .LVU1406
 4590 051c E41A     		subs	r4, r4, r3
 594:lvgl/src/core/lv_obj_scroll.c ****                     }
 4591              		.loc 1 594 38 discriminator 4 view .LVU1407
 4592 051e 3C80     		strh	r4, [r7]	@ movhi
 4593 0520 8FE5     		b	.L210
 4594              	.LVL524:
 4595              	.L288:
 594:lvgl/src/core/lv_obj_scroll.c ****                     }
 4596              		.loc 1 594 38 discriminator 4 view .LVU1408
 4597              	.LBE200:
 4598              	.LBE199:
 4599              	.LBB202:
 4600              	.LBB195:
 525:lvgl/src/core/lv_obj_scroll.c ****                 if(ver_area->y1 + SCROLLBAR_MIN_SIZE > ver_area->y2) {
 4601              		.loc 1 525 17 is_stmt 1 view .LVU1409
 525:lvgl/src/core/lv_obj_scroll.c ****                 if(ver_area->y1 + SCROLLBAR_MIN_SIZE > ver_area->y2) {
 4602              		.loc 1 525 47 is_stmt 0 view .LVU1410
 4603 0522 12FA80F0 		uxtah	r0, r2, r0
 4604 0526 04B2     		sxth	r4, r0
 4605              	.LVL525:
 525:lvgl/src/core/lv_obj_scroll.c ****                 if(ver_area->y1 + SCROLLBAR_MIN_SIZE > ver_area->y2) {
 4606              		.loc 1 525 30 view .LVU1411
ARM GAS  C:\usertemp\ccBZVumh.s 			page 131


 4607 0528 7480     		strh	r4, [r6, #2]	@ movhi
 526:lvgl/src/core/lv_obj_scroll.c ****                     ver_area->y2 = ver_area->y1 + SCROLLBAR_MIN_SIZE;
 4608              		.loc 1 526 17 is_stmt 1 view .LVU1412
 526:lvgl/src/core/lv_obj_scroll.c ****                     ver_area->y2 = ver_area->y1 + SCROLLBAR_MIN_SIZE;
 4609              		.loc 1 526 35 is_stmt 0 view .LVU1413
 4610 052a 0020     		movs	r0, #0
 4611 052c FFF7FEFF 		bl	lv_disp_get_dpi
 4612              	.LVL526:
 526:lvgl/src/core/lv_obj_scroll.c ****                     ver_area->y2 = ver_area->y1 + SCROLLBAR_MIN_SIZE;
 4613              		.loc 1 526 35 discriminator 1 view .LVU1414
 4614 0530 00EB8000 		add	r0, r0, r0, lsl #2
 4615 0534 4300     		lsls	r3, r0, #1
 4616 0536 EF2B     		cmp	r3, #239
 4617 0538 13DC     		bgt	.L299
 526:lvgl/src/core/lv_obj_scroll.c ****                     ver_area->y2 = ver_area->y1 + SCROLLBAR_MIN_SIZE;
 4618              		.loc 1 526 35 discriminator 2 view .LVU1415
 4619 053a 0123     		movs	r3, #1
 4620              	.L231:
 526:lvgl/src/core/lv_obj_scroll.c ****                     ver_area->y2 = ver_area->y1 + SCROLLBAR_MIN_SIZE;
 4621              		.loc 1 526 33 discriminator 4 view .LVU1416
 4622 053c 1C44     		add	r4, r4, r3
 526:lvgl/src/core/lv_obj_scroll.c ****                     ver_area->y2 = ver_area->y1 + SCROLLBAR_MIN_SIZE;
 4623              		.loc 1 526 64 discriminator 4 view .LVU1417
 4624 053e B6F90630 		ldrsh	r3, [r6, #6]
 526:lvgl/src/core/lv_obj_scroll.c ****                     ver_area->y2 = ver_area->y1 + SCROLLBAR_MIN_SIZE;
 4625              		.loc 1 526 19 discriminator 4 view .LVU1418
 4626 0542 9C42     		cmp	r4, r3
 4627 0544 7FF7CCAE 		ble	.L230
 527:lvgl/src/core/lv_obj_scroll.c ****                 }
 4628              		.loc 1 527 21 is_stmt 1 view .LVU1419
 527:lvgl/src/core/lv_obj_scroll.c ****                 }
 4629              		.loc 1 527 44 is_stmt 0 view .LVU1420
 4630 0548 7488     		ldrh	r4, [r6, #2]
 527:lvgl/src/core/lv_obj_scroll.c ****                 }
 4631              		.loc 1 527 51 view .LVU1421
 4632 054a 0020     		movs	r0, #0
 4633 054c FFF7FEFF 		bl	lv_disp_get_dpi
 4634              	.LVL527:
 527:lvgl/src/core/lv_obj_scroll.c ****                 }
 4635              		.loc 1 527 51 discriminator 1 view .LVU1422
 4636 0550 00EB8000 		add	r0, r0, r0, lsl #2
 4637 0554 4300     		lsls	r3, r0, #1
 527:lvgl/src/core/lv_obj_scroll.c ****                 }
 4638              		.loc 1 527 49 discriminator 1 view .LVU1423
 4639 0556 EF2B     		cmp	r3, #239
 4640 0558 11DC     		bgt	.L300
 527:lvgl/src/core/lv_obj_scroll.c ****                 }
 4641              		.loc 1 527 49 discriminator 2 view .LVU1424
 4642 055a 0123     		movs	r3, #1
 4643              	.L232:
 527:lvgl/src/core/lv_obj_scroll.c ****                 }
 4644              		.loc 1 527 49 discriminator 4 view .LVU1425
 4645 055c 1C44     		add	r4, r4, r3
 527:lvgl/src/core/lv_obj_scroll.c ****                 }
 4646              		.loc 1 527 34 discriminator 4 view .LVU1426
 4647 055e F480     		strh	r4, [r6, #6]	@ movhi
 4648 0560 BEE6     		b	.L230
ARM GAS  C:\usertemp\ccBZVumh.s 			page 132


 4649              	.L299:
 526:lvgl/src/core/lv_obj_scroll.c ****                     ver_area->y2 = ver_area->y1 + SCROLLBAR_MIN_SIZE;
 4650              		.loc 1 526 35 discriminator 1 view .LVU1427
 4651 0562 0020     		movs	r0, #0
 4652 0564 FFF7FEFF 		bl	lv_disp_get_dpi
 4653              	.LVL528:
 4654 0568 00EB8000 		add	r0, r0, r0, lsl #2
 4655 056c 4300     		lsls	r3, r0, #1
 4656 056e 5033     		adds	r3, r3, #80
 4657 0570 394A     		ldr	r2, .L310
 4658 0572 82FB0312 		smull	r1, r2, r2, r3
 4659 0576 DB17     		asrs	r3, r3, #31
 4660 0578 C3EBA213 		rsb	r3, r3, r2, asr #6
 4661 057c DEE7     		b	.L231
 4662              	.L300:
 527:lvgl/src/core/lv_obj_scroll.c ****                 }
 4663              		.loc 1 527 51 discriminator 1 view .LVU1428
 4664 057e 0020     		movs	r0, #0
 4665 0580 FFF7FEFF 		bl	lv_disp_get_dpi
 4666              	.LVL529:
 4667 0584 00EB8000 		add	r0, r0, r0, lsl #2
 4668 0588 4300     		lsls	r3, r0, #1
 4669 058a 5033     		adds	r3, r3, #80
 4670 058c 324A     		ldr	r2, .L310
 4671 058e 82FB0312 		smull	r1, r2, r2, r3
 4672 0592 DB17     		asrs	r3, r3, #31
 4673 0594 C3EBA213 		rsb	r3, r3, r2, asr #6
 527:lvgl/src/core/lv_obj_scroll.c ****                 }
 4674              		.loc 1 527 49 discriminator 1 view .LVU1429
 4675 0598 9BB2     		uxth	r3, r3
 4676 059a DFE7     		b	.L232
 4677              	.L289:
 532:lvgl/src/core/lv_obj_scroll.c ****                     ver_area->y1 = ver_area->y2 - SCROLLBAR_MIN_SIZE;
 4678              		.loc 1 532 35 discriminator 1 view .LVU1430
 4679 059c 0020     		movs	r0, #0
 4680 059e FFF7FEFF 		bl	lv_disp_get_dpi
 4681              	.LVL530:
 4682 05a2 00EB8000 		add	r0, r0, r0, lsl #2
 4683 05a6 4300     		lsls	r3, r0, #1
 4684 05a8 5033     		adds	r3, r3, #80
 4685 05aa 2B4A     		ldr	r2, .L310
 4686 05ac 82FB0312 		smull	r1, r2, r2, r3
 4687 05b0 DB17     		asrs	r3, r3, #31
 4688 05b2 C3EBA213 		rsb	r3, r3, r2, asr #6
 4689 05b6 B0E6     		b	.L233
 4690              	.L290:
 533:lvgl/src/core/lv_obj_scroll.c ****                 }
 4691              		.loc 1 533 51 discriminator 1 view .LVU1431
 4692 05b8 0020     		movs	r0, #0
 4693 05ba FFF7FEFF 		bl	lv_disp_get_dpi
 4694              	.LVL531:
 4695 05be 00EB8000 		add	r0, r0, r0, lsl #2
 4696 05c2 4300     		lsls	r3, r0, #1
 4697 05c4 5033     		adds	r3, r3, #80
 4698 05c6 244A     		ldr	r2, .L310
 4699 05c8 82FB0312 		smull	r1, r2, r2, r3
 4700 05cc DB17     		asrs	r3, r3, #31
ARM GAS  C:\usertemp\ccBZVumh.s 			page 133


 4701 05ce C3EBA213 		rsb	r3, r3, r2, asr #6
 533:lvgl/src/core/lv_obj_scroll.c ****                 }
 4702              		.loc 1 533 49 discriminator 1 view .LVU1432
 4703 05d2 9BB2     		uxth	r3, r3
 4704 05d4 B1E6     		b	.L234
 4705              	.LVL532:
 4706              	.L292:
 533:lvgl/src/core/lv_obj_scroll.c ****                 }
 4707              		.loc 1 533 49 discriminator 1 view .LVU1433
 4708              	.LBE195:
 4709              	.LBE202:
 4710              	.LBB203:
 548:lvgl/src/core/lv_obj_scroll.c ****         rem = (obj_w - left_space - right_space - ver_reg_space) -
 4711              		.loc 1 548 16 discriminator 1 view .LVU1434
 4712 05d6 0020     		movs	r0, #0
 4713 05d8 FFF7FEFF 		bl	lv_disp_get_dpi
 4714              	.LVL533:
 4715 05dc 00EB8000 		add	r0, r0, r0, lsl #2
 4716 05e0 4300     		lsls	r3, r0, #1
 4717 05e2 5033     		adds	r3, r3, #80
 4718 05e4 1C4A     		ldr	r2, .L310
 4719 05e6 82FB0312 		smull	r1, r2, r2, r3
 4720 05ea DB17     		asrs	r3, r3, #31
 4721 05ec C3EBA213 		rsb	r3, r3, r2, asr #6
 4722 05f0 2DE7     		b	.L235
 4723              	.L293:
 548:lvgl/src/core/lv_obj_scroll.c ****         rem = (obj_w - left_space - right_space - ver_reg_space) -
 4724              		.loc 1 548 16 discriminator 5 view .LVU1435
 4725 05f2 0020     		movs	r0, #0
 4726 05f4 FFF7FEFF 		bl	lv_disp_get_dpi
 4727              	.LVL534:
 548:lvgl/src/core/lv_obj_scroll.c ****         rem = (obj_w - left_space - right_space - ver_reg_space) -
 4728              		.loc 1 548 16 discriminator 1 view .LVU1436
 4729 05f8 00EB8000 		add	r0, r0, r0, lsl #2
 4730 05fc 4300     		lsls	r3, r0, #1
 548:lvgl/src/core/lv_obj_scroll.c ****         rem = (obj_w - left_space - right_space - ver_reg_space) -
 4731              		.loc 1 548 14 discriminator 1 view .LVU1437
 4732 05fe EF2B     		cmp	r3, #239
 4733 0600 01DC     		bgt	.L301
 548:lvgl/src/core/lv_obj_scroll.c ****         rem = (obj_w - left_space - right_space - ver_reg_space) -
 4734              		.loc 1 548 14 discriminator 8 view .LVU1438
 4735 0602 0124     		movs	r4, #1
 4736              	.LVL535:
 548:lvgl/src/core/lv_obj_scroll.c ****         rem = (obj_w - left_space - right_space - ver_reg_space) -
 4737              		.loc 1 548 14 discriminator 8 view .LVU1439
 4738 0604 26E7     		b	.L236
 4739              	.LVL536:
 4740              	.L301:
 548:lvgl/src/core/lv_obj_scroll.c ****         rem = (obj_w - left_space - right_space - ver_reg_space) -
 4741              		.loc 1 548 16 discriminator 7 view .LVU1440
 4742 0606 0020     		movs	r0, #0
 4743 0608 FFF7FEFF 		bl	lv_disp_get_dpi
 4744              	.LVL537:
 548:lvgl/src/core/lv_obj_scroll.c ****         rem = (obj_w - left_space - right_space - ver_reg_space) -
 4745              		.loc 1 548 16 discriminator 1 view .LVU1441
 4746 060c 00EB8000 		add	r0, r0, r0, lsl #2
 4747 0610 4300     		lsls	r3, r0, #1
ARM GAS  C:\usertemp\ccBZVumh.s 			page 134


 4748 0612 5033     		adds	r3, r3, #80
 4749 0614 104A     		ldr	r2, .L310
 4750 0616 82FB0312 		smull	r1, r2, r2, r3
 4751 061a DC17     		asrs	r4, r3, #31
 4752              	.LVL538:
 548:lvgl/src/core/lv_obj_scroll.c ****         rem = (obj_w - left_space - right_space - ver_reg_space) -
 4753              		.loc 1 548 16 discriminator 1 view .LVU1442
 4754 061c C4EBA214 		rsb	r4, r4, r2, asr #6
 548:lvgl/src/core/lv_obj_scroll.c ****         rem = (obj_w - left_space - right_space - ver_reg_space) -
 4755              		.loc 1 548 14 discriminator 1 view .LVU1443
 4756 0620 24B2     		sxth	r4, r4
 4757 0622 17E7     		b	.L236
 4758              	.LVL539:
 4759              	.L294:
 553:lvgl/src/core/lv_obj_scroll.c ****                 hor_area->x1 = obj->coords.x1 + left_space + ver_reg_space - 1;
 4760              		.loc 1 553 13 is_stmt 1 view .LVU1444
 553:lvgl/src/core/lv_obj_scroll.c ****                 hor_area->x1 = obj->coords.x1 + left_space + ver_reg_space - 1;
 4761              		.loc 1 553 15 is_stmt 0 view .LVU1445
 4762 0624 0A9B     		ldr	r3, [sp, #40]
 4763              	.LVL540:
 553:lvgl/src/core/lv_obj_scroll.c ****                 hor_area->x1 = obj->coords.x1 + left_space + ver_reg_space - 1;
 4764              		.loc 1 553 15 view .LVU1446
 4765 0626 012B     		cmp	r3, #1
 4766 0628 0BD0     		beq	.L302
 558:lvgl/src/core/lv_obj_scroll.c ****                 hor_area->x2 = obj->coords.x2 - right_space - ver_reg_space - 1;
 4767              		.loc 1 558 17 is_stmt 1 view .LVU1447
 558:lvgl/src/core/lv_obj_scroll.c ****                 hor_area->x2 = obj->coords.x2 - right_space - ver_reg_space - 1;
 4768              		.loc 1 558 43 is_stmt 0 view .LVU1448
 4769 062a AB8A     		ldrh	r3, [r5, #20]
 558:lvgl/src/core/lv_obj_scroll.c ****                 hor_area->x2 = obj->coords.x2 - right_space - ver_reg_space - 1;
 4770              		.loc 1 558 47 view .LVU1449
 4771 062c 1344     		add	r3, r3, r2
 558:lvgl/src/core/lv_obj_scroll.c ****                 hor_area->x2 = obj->coords.x2 - right_space - ver_reg_space - 1;
 4772              		.loc 1 558 30 view .LVU1450
 4773 062e 3B80     		strh	r3, [r7]	@ movhi
 559:lvgl/src/core/lv_obj_scroll.c ****             }
 4774              		.loc 1 559 17 is_stmt 1 view .LVU1451
 559:lvgl/src/core/lv_obj_scroll.c ****             }
 4775              		.loc 1 559 43 is_stmt 0 view .LVU1452
 4776 0630 2B8B     		ldrh	r3, [r5, #24]
 559:lvgl/src/core/lv_obj_scroll.c ****             }
 4777              		.loc 1 559 47 view .LVU1453
 4778 0632 9B1B     		subs	r3, r3, r6
 4779 0634 9BB2     		uxth	r3, r3
 559:lvgl/src/core/lv_obj_scroll.c ****             }
 4780              		.loc 1 559 61 view .LVU1454
 4781 0636 A3EB0803 		sub	r3, r3, r8
 4782 063a 9BB2     		uxth	r3, r3
 559:lvgl/src/core/lv_obj_scroll.c ****             }
 4783              		.loc 1 559 77 view .LVU1455
 4784 063c 013B     		subs	r3, r3, #1
 559:lvgl/src/core/lv_obj_scroll.c ****             }
 4785              		.loc 1 559 30 view .LVU1456
 4786 063e BB80     		strh	r3, [r7, #4]	@ movhi
 4787 0640 FFE4     		b	.L210
 4788              	.L302:
 554:lvgl/src/core/lv_obj_scroll.c ****                 hor_area->x2 = obj->coords.x2 - right_space;
ARM GAS  C:\usertemp\ccBZVumh.s 			page 135


 4789              		.loc 1 554 17 is_stmt 1 view .LVU1457
 554:lvgl/src/core/lv_obj_scroll.c ****                 hor_area->x2 = obj->coords.x2 - right_space;
 4790              		.loc 1 554 43 is_stmt 0 view .LVU1458
 4791 0642 AB8A     		ldrh	r3, [r5, #20]
 554:lvgl/src/core/lv_obj_scroll.c ****                 hor_area->x2 = obj->coords.x2 - right_space;
 4792              		.loc 1 554 47 view .LVU1459
 4793 0644 1344     		add	r3, r3, r2
 554:lvgl/src/core/lv_obj_scroll.c ****                 hor_area->x2 = obj->coords.x2 - right_space;
 4794              		.loc 1 554 60 view .LVU1460
 4795 0646 18FA83F3 		uxtah	r3, r8, r3
 4796 064a 9BB2     		uxth	r3, r3
 554:lvgl/src/core/lv_obj_scroll.c ****                 hor_area->x2 = obj->coords.x2 - right_space;
 4797              		.loc 1 554 76 view .LVU1461
 4798 064c 013B     		subs	r3, r3, #1
 554:lvgl/src/core/lv_obj_scroll.c ****                 hor_area->x2 = obj->coords.x2 - right_space;
 4799              		.loc 1 554 30 view .LVU1462
 4800 064e 3B80     		strh	r3, [r7]	@ movhi
 555:lvgl/src/core/lv_obj_scroll.c ****             }
 4801              		.loc 1 555 17 is_stmt 1 view .LVU1463
 555:lvgl/src/core/lv_obj_scroll.c ****             }
 4802              		.loc 1 555 43 is_stmt 0 view .LVU1464
 4803 0650 2B8B     		ldrh	r3, [r5, #24]
 555:lvgl/src/core/lv_obj_scroll.c ****             }
 4804              		.loc 1 555 47 view .LVU1465
 4805 0652 9B1B     		subs	r3, r3, r6
 555:lvgl/src/core/lv_obj_scroll.c ****             }
 4806              		.loc 1 555 30 view .LVU1466
 4807 0654 BB80     		strh	r3, [r7, #4]	@ movhi
 4808 0656 F4E4     		b	.L210
 4809              	.L311:
 4810              		.align	2
 4811              	.L310:
 4812 0658 67666666 		.word	1717986919
 4813              	.LVL541:
 4814              	.L295:
 4815              	.LBB201:
 567:lvgl/src/core/lv_obj_scroll.c ****                 hor_area->x2 = hor_area->x1 + sb_w - 1;
 4816              		.loc 1 567 17 is_stmt 1 view .LVU1467
 567:lvgl/src/core/lv_obj_scroll.c ****                 hor_area->x2 = hor_area->x1 + sb_w - 1;
 4817              		.loc 1 567 43 is_stmt 0 view .LVU1468
 4818 065c AB8A     		ldrh	r3, [r5, #20]
 567:lvgl/src/core/lv_obj_scroll.c ****                 hor_area->x2 = hor_area->x1 + sb_w - 1;
 4819              		.loc 1 567 47 view .LVU1469
 4820 065e 0B44     		add	r3, r3, r1
 567:lvgl/src/core/lv_obj_scroll.c ****                 hor_area->x2 = hor_area->x1 + sb_w - 1;
 4821              		.loc 1 567 54 view .LVU1470
 4822 0660 12FA83F3 		uxtah	r3, r2, r3
 567:lvgl/src/core/lv_obj_scroll.c ****                 hor_area->x2 = hor_area->x1 + sb_w - 1;
 4823              		.loc 1 567 67 view .LVU1471
 4824 0664 18FA83F3 		uxtah	r3, r8, r3
 4825 0668 19B2     		sxth	r1, r3
 4826              	.LVL542:
 567:lvgl/src/core/lv_obj_scroll.c ****                 hor_area->x2 = hor_area->x1 + sb_w - 1;
 4827              		.loc 1 567 30 view .LVU1472
 4828 066a 3980     		strh	r1, [r7]	@ movhi
 568:lvgl/src/core/lv_obj_scroll.c ****                 if(hor_area->x1 < obj->coords.x1 + left_space + ver_reg_space) {
 4829              		.loc 1 568 17 is_stmt 1 view .LVU1473
ARM GAS  C:\usertemp\ccBZVumh.s 			page 136


 568:lvgl/src/core/lv_obj_scroll.c ****                 if(hor_area->x1 < obj->coords.x1 + left_space + ver_reg_space) {
 4830              		.loc 1 568 45 is_stmt 0 view .LVU1474
 4831 066c 14FA83F3 		uxtah	r3, r4, r3
 4832 0670 9BB2     		uxth	r3, r3
 568:lvgl/src/core/lv_obj_scroll.c ****                 if(hor_area->x1 < obj->coords.x1 + left_space + ver_reg_space) {
 4833              		.loc 1 568 52 view .LVU1475
 4834 0672 013B     		subs	r3, r3, #1
 568:lvgl/src/core/lv_obj_scroll.c ****                 if(hor_area->x1 < obj->coords.x1 + left_space + ver_reg_space) {
 4835              		.loc 1 568 30 view .LVU1476
 4836 0674 BB80     		strh	r3, [r7, #4]	@ movhi
 569:lvgl/src/core/lv_obj_scroll.c ****                     hor_area->x1 = obj->coords.x1 + left_space + ver_reg_space;
 4837              		.loc 1 569 17 is_stmt 1 view .LVU1477
 569:lvgl/src/core/lv_obj_scroll.c ****                     hor_area->x1 = obj->coords.x1 + left_space + ver_reg_space;
 4838              		.loc 1 569 46 is_stmt 0 view .LVU1478
 4839 0676 B5F91400 		ldrsh	r0, [r5, #20]
 4840              	.LVL543:
 569:lvgl/src/core/lv_obj_scroll.c ****                     hor_area->x1 = obj->coords.x1 + left_space + ver_reg_space;
 4841              		.loc 1 569 50 view .LVU1479
 4842 067a 109B     		ldr	r3, [sp, #64]
 4843 067c 0344     		add	r3, r3, r0
 569:lvgl/src/core/lv_obj_scroll.c ****                     hor_area->x1 = obj->coords.x1 + left_space + ver_reg_space;
 4844              		.loc 1 569 63 view .LVU1480
 4845 067e 5B44     		add	r3, r3, fp
 569:lvgl/src/core/lv_obj_scroll.c ****                     hor_area->x1 = obj->coords.x1 + left_space + ver_reg_space;
 4846              		.loc 1 569 19 view .LVU1481
 4847 0680 9942     		cmp	r1, r3
 4848 0682 28DB     		blt	.L303
 4849              	.LVL544:
 4850              	.L240:
 575:lvgl/src/core/lv_obj_scroll.c ****                     hor_area->x2 = obj->coords.x2 - right_space;
 4851              		.loc 1 575 17 is_stmt 1 view .LVU1482
 575:lvgl/src/core/lv_obj_scroll.c ****                     hor_area->x2 = obj->coords.x2 - right_space;
 4852              		.loc 1 575 28 is_stmt 0 view .LVU1483
 4853 0684 B7F90410 		ldrsh	r1, [r7, #4]
 575:lvgl/src/core/lv_obj_scroll.c ****                     hor_area->x2 = obj->coords.x2 - right_space;
 4854              		.loc 1 575 46 view .LVU1484
 4855 0688 B5F91830 		ldrsh	r3, [r5, #24]
 575:lvgl/src/core/lv_obj_scroll.c ****                     hor_area->x2 = obj->coords.x2 - right_space;
 4856              		.loc 1 575 50 view .LVU1485
 4857 068c 0F9A     		ldr	r2, [sp, #60]
 4858 068e 9A1A     		subs	r2, r3, r2
 575:lvgl/src/core/lv_obj_scroll.c ****                     hor_area->x2 = obj->coords.x2 - right_space;
 4859              		.loc 1 575 19 view .LVU1486
 4860 0690 9142     		cmp	r1, r2
 4861 0692 7FF7D6AC 		ble	.L210
 576:lvgl/src/core/lv_obj_scroll.c ****                     if(hor_area->x2 - SCROLLBAR_MIN_SIZE < hor_area->x1) {
 4862              		.loc 1 576 21 is_stmt 1 view .LVU1487
 576:lvgl/src/core/lv_obj_scroll.c ****                     if(hor_area->x2 - SCROLLBAR_MIN_SIZE < hor_area->x1) {
 4863              		.loc 1 576 47 is_stmt 0 view .LVU1488
 4864 0696 9CB2     		uxth	r4, r3
 576:lvgl/src/core/lv_obj_scroll.c ****                     if(hor_area->x2 - SCROLLBAR_MIN_SIZE < hor_area->x1) {
 4865              		.loc 1 576 51 view .LVU1489
 4866 0698 A41B     		subs	r4, r4, r6
 4867 069a 24B2     		sxth	r4, r4
 576:lvgl/src/core/lv_obj_scroll.c ****                     if(hor_area->x2 - SCROLLBAR_MIN_SIZE < hor_area->x1) {
 4868              		.loc 1 576 34 view .LVU1490
 4869 069c BC80     		strh	r4, [r7, #4]	@ movhi
ARM GAS  C:\usertemp\ccBZVumh.s 			page 137


 577:lvgl/src/core/lv_obj_scroll.c ****                         hor_area->x1 = hor_area->x2 - SCROLLBAR_MIN_SIZE;
 4870              		.loc 1 577 21 is_stmt 1 view .LVU1491
 577:lvgl/src/core/lv_obj_scroll.c ****                         hor_area->x1 = hor_area->x2 - SCROLLBAR_MIN_SIZE;
 4871              		.loc 1 577 39 is_stmt 0 view .LVU1492
 4872 069e 0020     		movs	r0, #0
 4873 06a0 FFF7FEFF 		bl	lv_disp_get_dpi
 4874              	.LVL545:
 577:lvgl/src/core/lv_obj_scroll.c ****                         hor_area->x1 = hor_area->x2 - SCROLLBAR_MIN_SIZE;
 4875              		.loc 1 577 39 discriminator 1 view .LVU1493
 4876 06a4 00EB8000 		add	r0, r0, r0, lsl #2
 4877 06a8 4300     		lsls	r3, r0, #1
 4878 06aa EF2B     		cmp	r3, #239
 4879 06ac 4BDC     		bgt	.L304
 577:lvgl/src/core/lv_obj_scroll.c ****                         hor_area->x1 = hor_area->x2 - SCROLLBAR_MIN_SIZE;
 4880              		.loc 1 577 39 discriminator 2 view .LVU1494
 4881 06ae 0123     		movs	r3, #1
 4882              	.L243:
 577:lvgl/src/core/lv_obj_scroll.c ****                         hor_area->x1 = hor_area->x2 - SCROLLBAR_MIN_SIZE;
 4883              		.loc 1 577 37 discriminator 4 view .LVU1495
 4884 06b0 E41A     		subs	r4, r4, r3
 577:lvgl/src/core/lv_obj_scroll.c ****                         hor_area->x1 = hor_area->x2 - SCROLLBAR_MIN_SIZE;
 4885              		.loc 1 577 68 discriminator 4 view .LVU1496
 4886 06b2 B7F90030 		ldrsh	r3, [r7]
 577:lvgl/src/core/lv_obj_scroll.c ****                         hor_area->x1 = hor_area->x2 - SCROLLBAR_MIN_SIZE;
 4887              		.loc 1 577 23 discriminator 4 view .LVU1497
 4888 06b6 9C42     		cmp	r4, r3
 4889 06b8 BFF6C3AC 		bge	.L210
 578:lvgl/src/core/lv_obj_scroll.c ****                     }
 4890              		.loc 1 578 25 is_stmt 1 view .LVU1498
 578:lvgl/src/core/lv_obj_scroll.c ****                     }
 4891              		.loc 1 578 48 is_stmt 0 view .LVU1499
 4892 06bc BC88     		ldrh	r4, [r7, #4]
 578:lvgl/src/core/lv_obj_scroll.c ****                     }
 4893              		.loc 1 578 55 view .LVU1500
 4894 06be 0020     		movs	r0, #0
 4895 06c0 FFF7FEFF 		bl	lv_disp_get_dpi
 4896              	.LVL546:
 578:lvgl/src/core/lv_obj_scroll.c ****                     }
 4897              		.loc 1 578 55 discriminator 1 view .LVU1501
 4898 06c4 0A23     		movs	r3, #10
 4899 06c6 00FB03F3 		mul	r3, r0, r3
 578:lvgl/src/core/lv_obj_scroll.c ****                     }
 4900              		.loc 1 578 53 discriminator 1 view .LVU1502
 4901 06ca EF2B     		cmp	r3, #239
 4902 06cc 46DC     		bgt	.L305
 578:lvgl/src/core/lv_obj_scroll.c ****                     }
 4903              		.loc 1 578 53 discriminator 2 view .LVU1503
 4904 06ce 0123     		movs	r3, #1
 4905              	.L244:
 578:lvgl/src/core/lv_obj_scroll.c ****                     }
 4906              		.loc 1 578 53 discriminator 4 view .LVU1504
 4907 06d0 E41A     		subs	r4, r4, r3
 578:lvgl/src/core/lv_obj_scroll.c ****                     }
 4908              		.loc 1 578 38 discriminator 4 view .LVU1505
 4909 06d2 3C80     		strh	r4, [r7]	@ movhi
 4910 06d4 B5E4     		b	.L210
 4911              	.LVL547:
ARM GAS  C:\usertemp\ccBZVumh.s 			page 138


 4912              	.L303:
 570:lvgl/src/core/lv_obj_scroll.c ****                     if(hor_area->x1 + SCROLLBAR_MIN_SIZE > hor_area->x2) {
 4913              		.loc 1 570 21 is_stmt 1 view .LVU1506
 570:lvgl/src/core/lv_obj_scroll.c ****                     if(hor_area->x1 + SCROLLBAR_MIN_SIZE > hor_area->x2) {
 4914              		.loc 1 570 51 is_stmt 0 view .LVU1507
 4915 06d6 12FA80F4 		uxtah	r4, r2, r0
 4916              	.LVL548:
 570:lvgl/src/core/lv_obj_scroll.c ****                     if(hor_area->x1 + SCROLLBAR_MIN_SIZE > hor_area->x2) {
 4917              		.loc 1 570 64 view .LVU1508
 4918 06da 18FA84F4 		uxtah	r4, r8, r4
 4919 06de 24B2     		sxth	r4, r4
 570:lvgl/src/core/lv_obj_scroll.c ****                     if(hor_area->x1 + SCROLLBAR_MIN_SIZE > hor_area->x2) {
 4920              		.loc 1 570 34 view .LVU1509
 4921 06e0 3C80     		strh	r4, [r7]	@ movhi
 571:lvgl/src/core/lv_obj_scroll.c ****                         hor_area->x2 = hor_area->x1 + SCROLLBAR_MIN_SIZE;
 4922              		.loc 1 571 21 is_stmt 1 view .LVU1510
 571:lvgl/src/core/lv_obj_scroll.c ****                         hor_area->x2 = hor_area->x1 + SCROLLBAR_MIN_SIZE;
 4923              		.loc 1 571 39 is_stmt 0 view .LVU1511
 4924 06e2 0020     		movs	r0, #0
 4925 06e4 FFF7FEFF 		bl	lv_disp_get_dpi
 4926              	.LVL549:
 571:lvgl/src/core/lv_obj_scroll.c ****                         hor_area->x2 = hor_area->x1 + SCROLLBAR_MIN_SIZE;
 4927              		.loc 1 571 39 discriminator 1 view .LVU1512
 4928 06e8 00EB8000 		add	r0, r0, r0, lsl #2
 4929 06ec 4300     		lsls	r3, r0, #1
 4930 06ee EF2B     		cmp	r3, #239
 4931 06f0 12DC     		bgt	.L306
 571:lvgl/src/core/lv_obj_scroll.c ****                         hor_area->x2 = hor_area->x1 + SCROLLBAR_MIN_SIZE;
 4932              		.loc 1 571 39 discriminator 2 view .LVU1513
 4933 06f2 0123     		movs	r3, #1
 4934              	.L241:
 571:lvgl/src/core/lv_obj_scroll.c ****                         hor_area->x2 = hor_area->x1 + SCROLLBAR_MIN_SIZE;
 4935              		.loc 1 571 37 discriminator 4 view .LVU1514
 4936 06f4 1C44     		add	r4, r4, r3
 571:lvgl/src/core/lv_obj_scroll.c ****                         hor_area->x2 = hor_area->x1 + SCROLLBAR_MIN_SIZE;
 4937              		.loc 1 571 68 discriminator 4 view .LVU1515
 4938 06f6 B7F90430 		ldrsh	r3, [r7, #4]
 571:lvgl/src/core/lv_obj_scroll.c ****                         hor_area->x2 = hor_area->x1 + SCROLLBAR_MIN_SIZE;
 4939              		.loc 1 571 23 discriminator 4 view .LVU1516
 4940 06fa 9C42     		cmp	r4, r3
 4941 06fc C2DD     		ble	.L240
 572:lvgl/src/core/lv_obj_scroll.c ****                     }
 4942              		.loc 1 572 25 is_stmt 1 view .LVU1517
 572:lvgl/src/core/lv_obj_scroll.c ****                     }
 4943              		.loc 1 572 48 is_stmt 0 view .LVU1518
 4944 06fe 3C88     		ldrh	r4, [r7]
 572:lvgl/src/core/lv_obj_scroll.c ****                     }
 4945              		.loc 1 572 55 view .LVU1519
 4946 0700 0020     		movs	r0, #0
 4947 0702 FFF7FEFF 		bl	lv_disp_get_dpi
 4948              	.LVL550:
 572:lvgl/src/core/lv_obj_scroll.c ****                     }
 4949              		.loc 1 572 55 discriminator 1 view .LVU1520
 4950 0706 0A23     		movs	r3, #10
 4951 0708 00FB03F3 		mul	r3, r0, r3
 572:lvgl/src/core/lv_obj_scroll.c ****                     }
 4952              		.loc 1 572 53 discriminator 1 view .LVU1521
ARM GAS  C:\usertemp\ccBZVumh.s 			page 139


 4953 070c EF2B     		cmp	r3, #239
 4954 070e 0EDC     		bgt	.L307
 572:lvgl/src/core/lv_obj_scroll.c ****                     }
 4955              		.loc 1 572 53 discriminator 2 view .LVU1522
 4956 0710 0123     		movs	r3, #1
 4957              	.L242:
 572:lvgl/src/core/lv_obj_scroll.c ****                     }
 4958              		.loc 1 572 53 discriminator 4 view .LVU1523
 4959 0712 1C44     		add	r4, r4, r3
 572:lvgl/src/core/lv_obj_scroll.c ****                     }
 4960              		.loc 1 572 38 discriminator 4 view .LVU1524
 4961 0714 BC80     		strh	r4, [r7, #4]	@ movhi
 4962 0716 B5E7     		b	.L240
 4963              	.L306:
 571:lvgl/src/core/lv_obj_scroll.c ****                         hor_area->x2 = hor_area->x1 + SCROLLBAR_MIN_SIZE;
 4964              		.loc 1 571 39 discriminator 1 view .LVU1525
 4965 0718 0020     		movs	r0, #0
 4966 071a FFF7FEFF 		bl	lv_disp_get_dpi
 4967              	.LVL551:
 4968 071e 0A22     		movs	r2, #10
 4969 0720 02FB00F3 		mul	r3, r2, r0
 4970 0724 5033     		adds	r3, r3, #80
 4971 0726 A022     		movs	r2, #160
 4972 0728 93FBF2F3 		sdiv	r3, r3, r2
 4973 072c E2E7     		b	.L241
 4974              	.L307:
 572:lvgl/src/core/lv_obj_scroll.c ****                     }
 4975              		.loc 1 572 55 discriminator 1 view .LVU1526
 4976 072e 0020     		movs	r0, #0
 4977 0730 FFF7FEFF 		bl	lv_disp_get_dpi
 4978              	.LVL552:
 4979 0734 0A22     		movs	r2, #10
 4980 0736 02FB00F3 		mul	r3, r2, r0
 4981 073a 5033     		adds	r3, r3, #80
 4982 073c A022     		movs	r2, #160
 4983 073e 93FBF2F3 		sdiv	r3, r3, r2
 572:lvgl/src/core/lv_obj_scroll.c ****                     }
 4984              		.loc 1 572 53 discriminator 1 view .LVU1527
 4985 0742 9BB2     		uxth	r3, r3
 4986 0744 E5E7     		b	.L242
 4987              	.L304:
 577:lvgl/src/core/lv_obj_scroll.c ****                         hor_area->x1 = hor_area->x2 - SCROLLBAR_MIN_SIZE;
 4988              		.loc 1 577 39 discriminator 1 view .LVU1528
 4989 0746 0020     		movs	r0, #0
 4990 0748 FFF7FEFF 		bl	lv_disp_get_dpi
 4991              	.LVL553:
 4992 074c 0A22     		movs	r2, #10
 4993 074e 02FB00F3 		mul	r3, r2, r0
 4994 0752 5033     		adds	r3, r3, #80
 4995 0754 A022     		movs	r2, #160
 4996 0756 93FBF2F3 		sdiv	r3, r3, r2
 4997 075a A9E7     		b	.L243
 4998              	.L305:
 578:lvgl/src/core/lv_obj_scroll.c ****                     }
 4999              		.loc 1 578 55 discriminator 1 view .LVU1529
 5000 075c 0020     		movs	r0, #0
 5001 075e FFF7FEFF 		bl	lv_disp_get_dpi
ARM GAS  C:\usertemp\ccBZVumh.s 			page 140


 5002              	.LVL554:
 5003 0762 0A22     		movs	r2, #10
 5004 0764 02FB00F3 		mul	r3, r2, r0
 5005 0768 5033     		adds	r3, r3, #80
 5006 076a A022     		movs	r2, #160
 5007 076c 93FBF2F3 		sdiv	r3, r3, r2
 578:lvgl/src/core/lv_obj_scroll.c ****                     }
 5008              		.loc 1 578 53 discriminator 1 view .LVU1530
 5009 0770 9BB2     		uxth	r3, r3
 5010 0772 ADE7     		b	.L244
 5011              	.LVL555:
 5012              	.L296:
 586:lvgl/src/core/lv_obj_scroll.c ****                     if(hor_area->x1 + SCROLLBAR_MIN_SIZE > hor_area->x2) {
 5013              		.loc 1 586 21 is_stmt 1 view .LVU1531
 586:lvgl/src/core/lv_obj_scroll.c ****                     if(hor_area->x1 + SCROLLBAR_MIN_SIZE > hor_area->x2) {
 5014              		.loc 1 586 51 is_stmt 0 view .LVU1532
 5015 0774 12FA80F0 		uxtah	r0, r2, r0
 5016 0778 04B2     		sxth	r4, r0
 5017              	.LVL556:
 586:lvgl/src/core/lv_obj_scroll.c ****                     if(hor_area->x1 + SCROLLBAR_MIN_SIZE > hor_area->x2) {
 5018              		.loc 1 586 34 view .LVU1533
 5019 077a 3C80     		strh	r4, [r7]	@ movhi
 587:lvgl/src/core/lv_obj_scroll.c ****                         hor_area->x2 = hor_area->x1 + SCROLLBAR_MIN_SIZE;
 5020              		.loc 1 587 21 is_stmt 1 view .LVU1534
 587:lvgl/src/core/lv_obj_scroll.c ****                         hor_area->x2 = hor_area->x1 + SCROLLBAR_MIN_SIZE;
 5021              		.loc 1 587 39 is_stmt 0 view .LVU1535
 5022 077c 0020     		movs	r0, #0
 5023 077e FFF7FEFF 		bl	lv_disp_get_dpi
 5024              	.LVL557:
 587:lvgl/src/core/lv_obj_scroll.c ****                         hor_area->x2 = hor_area->x1 + SCROLLBAR_MIN_SIZE;
 5025              		.loc 1 587 39 discriminator 1 view .LVU1536
 5026 0782 00EB8000 		add	r0, r0, r0, lsl #2
 5027 0786 4300     		lsls	r3, r0, #1
 5028 0788 EF2B     		cmp	r3, #239
 5029 078a 13DC     		bgt	.L308
 587:lvgl/src/core/lv_obj_scroll.c ****                         hor_area->x2 = hor_area->x1 + SCROLLBAR_MIN_SIZE;
 5030              		.loc 1 587 39 discriminator 2 view .LVU1537
 5031 078c 0123     		movs	r3, #1
 5032              	.L246:
 587:lvgl/src/core/lv_obj_scroll.c ****                         hor_area->x2 = hor_area->x1 + SCROLLBAR_MIN_SIZE;
 5033              		.loc 1 587 37 discriminator 4 view .LVU1538
 5034 078e 1C44     		add	r4, r4, r3
 587:lvgl/src/core/lv_obj_scroll.c ****                         hor_area->x2 = hor_area->x1 + SCROLLBAR_MIN_SIZE;
 5035              		.loc 1 587 68 discriminator 4 view .LVU1539
 5036 0790 B7F90430 		ldrsh	r3, [r7, #4]
 587:lvgl/src/core/lv_obj_scroll.c ****                         hor_area->x2 = hor_area->x1 + SCROLLBAR_MIN_SIZE;
 5037              		.loc 1 587 23 discriminator 4 view .LVU1540
 5038 0794 9C42     		cmp	r4, r3
 5039 0796 7FF794AE 		ble	.L245
 588:lvgl/src/core/lv_obj_scroll.c ****                     }
 5040              		.loc 1 588 25 is_stmt 1 view .LVU1541
 588:lvgl/src/core/lv_obj_scroll.c ****                     }
 5041              		.loc 1 588 48 is_stmt 0 view .LVU1542
 5042 079a 3C88     		ldrh	r4, [r7]
 588:lvgl/src/core/lv_obj_scroll.c ****                     }
 5043              		.loc 1 588 55 view .LVU1543
 5044 079c 0020     		movs	r0, #0
ARM GAS  C:\usertemp\ccBZVumh.s 			page 141


 5045 079e FFF7FEFF 		bl	lv_disp_get_dpi
 5046              	.LVL558:
 588:lvgl/src/core/lv_obj_scroll.c ****                     }
 5047              		.loc 1 588 55 discriminator 1 view .LVU1544
 5048 07a2 00EB8000 		add	r0, r0, r0, lsl #2
 5049 07a6 4300     		lsls	r3, r0, #1
 588:lvgl/src/core/lv_obj_scroll.c ****                     }
 5050              		.loc 1 588 53 discriminator 1 view .LVU1545
 5051 07a8 EF2B     		cmp	r3, #239
 5052 07aa 11DC     		bgt	.L309
 588:lvgl/src/core/lv_obj_scroll.c ****                     }
 5053              		.loc 1 588 53 discriminator 2 view .LVU1546
 5054 07ac 0123     		movs	r3, #1
 5055              	.L247:
 588:lvgl/src/core/lv_obj_scroll.c ****                     }
 5056              		.loc 1 588 53 discriminator 4 view .LVU1547
 5057 07ae 1C44     		add	r4, r4, r3
 588:lvgl/src/core/lv_obj_scroll.c ****                     }
 5058              		.loc 1 588 38 discriminator 4 view .LVU1548
 5059 07b0 BC80     		strh	r4, [r7, #4]	@ movhi
 5060 07b2 86E6     		b	.L245
 5061              	.L308:
 587:lvgl/src/core/lv_obj_scroll.c ****                         hor_area->x2 = hor_area->x1 + SCROLLBAR_MIN_SIZE;
 5062              		.loc 1 587 39 discriminator 1 view .LVU1549
 5063 07b4 0020     		movs	r0, #0
 5064 07b6 FFF7FEFF 		bl	lv_disp_get_dpi
 5065              	.LVL559:
 5066 07ba 00EB8000 		add	r0, r0, r0, lsl #2
 5067 07be 4300     		lsls	r3, r0, #1
 5068 07c0 5033     		adds	r3, r3, #80
 5069 07c2 164A     		ldr	r2, .L312
 5070 07c4 82FB0312 		smull	r1, r2, r2, r3
 5071 07c8 DB17     		asrs	r3, r3, #31
 5072 07ca C3EBA213 		rsb	r3, r3, r2, asr #6
 5073 07ce DEE7     		b	.L246
 5074              	.L309:
 588:lvgl/src/core/lv_obj_scroll.c ****                     }
 5075              		.loc 1 588 55 discriminator 1 view .LVU1550
 5076 07d0 0020     		movs	r0, #0
 5077 07d2 FFF7FEFF 		bl	lv_disp_get_dpi
 5078              	.LVL560:
 5079 07d6 0A22     		movs	r2, #10
 5080 07d8 02FB00F3 		mul	r3, r2, r0
 5081 07dc 5033     		adds	r3, r3, #80
 5082 07de A022     		movs	r2, #160
 5083 07e0 93FBF2F3 		sdiv	r3, r3, r2
 588:lvgl/src/core/lv_obj_scroll.c ****                     }
 5084              		.loc 1 588 53 discriminator 1 view .LVU1551
 5085 07e4 9BB2     		uxth	r3, r3
 5086 07e6 E2E7     		b	.L247
 5087              	.L297:
 593:lvgl/src/core/lv_obj_scroll.c ****                         hor_area->x1 = hor_area->x2 - SCROLLBAR_MIN_SIZE;
 5088              		.loc 1 593 39 discriminator 1 view .LVU1552
 5089 07e8 0020     		movs	r0, #0
 5090 07ea FFF7FEFF 		bl	lv_disp_get_dpi
 5091              	.LVL561:
 5092 07ee 00EB8000 		add	r0, r0, r0, lsl #2
ARM GAS  C:\usertemp\ccBZVumh.s 			page 142


 5093 07f2 4300     		lsls	r3, r0, #1
 5094 07f4 5033     		adds	r3, r3, #80
 5095 07f6 094A     		ldr	r2, .L312
 5096 07f8 82FB0312 		smull	r1, r2, r2, r3
 5097 07fc DB17     		asrs	r3, r3, #31
 5098 07fe C3EBA213 		rsb	r3, r3, r2, asr #6
 5099 0802 7AE6     		b	.L248
 5100              	.L298:
 594:lvgl/src/core/lv_obj_scroll.c ****                     }
 5101              		.loc 1 594 55 discriminator 1 view .LVU1553
 5102 0804 0020     		movs	r0, #0
 5103 0806 FFF7FEFF 		bl	lv_disp_get_dpi
 5104              	.LVL562:
 5105 080a 0A22     		movs	r2, #10
 5106 080c 02FB00F3 		mul	r3, r2, r0
 5107 0810 5033     		adds	r3, r3, #80
 5108 0812 A022     		movs	r2, #160
 5109 0814 93FBF2F3 		sdiv	r3, r3, r2
 594:lvgl/src/core/lv_obj_scroll.c ****                     }
 5110              		.loc 1 594 53 discriminator 1 view .LVU1554
 5111 0818 9BB2     		uxth	r3, r3
 5112 081a 7FE6     		b	.L249
 5113              	.L313:
 5114              		.align	2
 5115              	.L312:
 5116 081c 67666666 		.word	1717986919
 5117              	.LBE201:
 5118              	.LBE203:
 5119              		.cfi_endproc
 5120              	.LFE186:
 5122              		.section	.text.lv_obj_scrollbar_invalidate,"ax",%progbits
 5123              		.align	1
 5124              		.global	lv_obj_scrollbar_invalidate
 5125              		.syntax unified
 5126              		.thumb
 5127              		.thumb_func
 5129              	lv_obj_scrollbar_invalidate:
 5130              	.LVL563:
 5131              	.LFB187:
 603:lvgl/src/core/lv_obj_scroll.c ****     lv_area_t hor_area;
 5132              		.loc 1 603 1 is_stmt 1 view -0
 5133              		.cfi_startproc
 5134              		@ args = 0, pretend = 0, frame = 16
 5135              		@ frame_needed = 0, uses_anonymous_args = 0
 603:lvgl/src/core/lv_obj_scroll.c ****     lv_area_t hor_area;
 5136              		.loc 1 603 1 is_stmt 0 view .LVU1556
 5137 0000 10B5     		push	{r4, lr}
 5138              	.LCFI37:
 5139              		.cfi_def_cfa_offset 8
 5140              		.cfi_offset 4, -8
 5141              		.cfi_offset 14, -4
 5142 0002 84B0     		sub	sp, sp, #16
 5143              	.LCFI38:
 5144              		.cfi_def_cfa_offset 24
 5145 0004 0446     		mov	r4, r0
 604:lvgl/src/core/lv_obj_scroll.c ****     lv_area_t ver_area;
 5146              		.loc 1 604 5 is_stmt 1 view .LVU1557
ARM GAS  C:\usertemp\ccBZVumh.s 			page 143


 605:lvgl/src/core/lv_obj_scroll.c ****     lv_obj_get_scrollbar_area(obj, &hor_area, &ver_area);
 5147              		.loc 1 605 5 view .LVU1558
 606:lvgl/src/core/lv_obj_scroll.c **** 
 5148              		.loc 1 606 5 view .LVU1559
 5149 0006 6A46     		mov	r2, sp
 5150 0008 02A9     		add	r1, sp, #8
 5151 000a FFF7FEFF 		bl	lv_obj_get_scrollbar_area
 5152              	.LVL564:
 608:lvgl/src/core/lv_obj_scroll.c **** 
 5153              		.loc 1 608 5 view .LVU1560
 608:lvgl/src/core/lv_obj_scroll.c **** 
 5154              		.loc 1 608 8 is_stmt 0 view .LVU1561
 5155 000e 02A8     		add	r0, sp, #8
 5156 0010 FFF7FEFF 		bl	lv_area_get_size
 5157              	.LVL565:
 608:lvgl/src/core/lv_obj_scroll.c **** 
 5158              		.loc 1 608 7 discriminator 1 view .LVU1562
 5159 0014 18B9     		cbnz	r0, .L315
 608:lvgl/src/core/lv_obj_scroll.c **** 
 5160              		.loc 1 608 44 discriminator 1 view .LVU1563
 5161 0016 6846     		mov	r0, sp
 5162 0018 FFF7FEFF 		bl	lv_area_get_size
 5163              	.LVL566:
 608:lvgl/src/core/lv_obj_scroll.c **** 
 5164              		.loc 1 608 41 discriminator 1 view .LVU1564
 5165 001c 38B1     		cbz	r0, .L314
 5166              	.L315:
 610:lvgl/src/core/lv_obj_scroll.c ****     if(lv_area_get_size(&ver_area) > 0) lv_obj_invalidate_area(obj, &ver_area);
 5167              		.loc 1 610 5 is_stmt 1 view .LVU1565
 610:lvgl/src/core/lv_obj_scroll.c ****     if(lv_area_get_size(&ver_area) > 0) lv_obj_invalidate_area(obj, &ver_area);
 5168              		.loc 1 610 8 is_stmt 0 view .LVU1566
 5169 001e 02A8     		add	r0, sp, #8
 5170 0020 FFF7FEFF 		bl	lv_area_get_size
 5171              	.LVL567:
 610:lvgl/src/core/lv_obj_scroll.c ****     if(lv_area_get_size(&ver_area) > 0) lv_obj_invalidate_area(obj, &ver_area);
 5172              		.loc 1 610 7 discriminator 1 view .LVU1567
 5173 0024 28B9     		cbnz	r0, .L320
 5174              	.L317:
 611:lvgl/src/core/lv_obj_scroll.c **** }
 5175              		.loc 1 611 5 is_stmt 1 view .LVU1568
 611:lvgl/src/core/lv_obj_scroll.c **** }
 5176              		.loc 1 611 8 is_stmt 0 view .LVU1569
 5177 0026 6846     		mov	r0, sp
 5178 0028 FFF7FEFF 		bl	lv_area_get_size
 5179              	.LVL568:
 611:lvgl/src/core/lv_obj_scroll.c **** }
 5180              		.loc 1 611 7 discriminator 1 view .LVU1570
 5181 002c 30B9     		cbnz	r0, .L321
 5182              	.L314:
 612:lvgl/src/core/lv_obj_scroll.c **** 
 5183              		.loc 1 612 1 view .LVU1571
 5184 002e 04B0     		add	sp, sp, #16
 5185              	.LCFI39:
 5186              		.cfi_remember_state
 5187              		.cfi_def_cfa_offset 8
 5188              		@ sp needed
 5189 0030 10BD     		pop	{r4, pc}
ARM GAS  C:\usertemp\ccBZVumh.s 			page 144


 5190              	.LVL569:
 5191              	.L320:
 5192              	.LCFI40:
 5193              		.cfi_restore_state
 610:lvgl/src/core/lv_obj_scroll.c ****     if(lv_area_get_size(&ver_area) > 0) lv_obj_invalidate_area(obj, &ver_area);
 5194              		.loc 1 610 41 is_stmt 1 discriminator 1 view .LVU1572
 5195 0032 02A9     		add	r1, sp, #8
 5196 0034 2046     		mov	r0, r4
 5197 0036 FFF7FEFF 		bl	lv_obj_invalidate_area
 5198              	.LVL570:
 5199 003a F4E7     		b	.L317
 5200              	.L321:
 611:lvgl/src/core/lv_obj_scroll.c **** }
 5201              		.loc 1 611 41 discriminator 1 view .LVU1573
 5202 003c 6946     		mov	r1, sp
 5203 003e 2046     		mov	r0, r4
 5204 0040 FFF7FEFF 		bl	lv_obj_invalidate_area
 5205              	.LVL571:
 5206 0044 F3E7     		b	.L314
 5207              		.cfi_endproc
 5208              	.LFE187:
 5210              		.section	.text.lv_obj_readjust_scroll,"ax",%progbits
 5211              		.align	1
 5212              		.global	lv_obj_readjust_scroll
 5213              		.syntax unified
 5214              		.thumb
 5215              		.thumb_func
 5217              	lv_obj_readjust_scroll:
 5218              	.LVL572:
 5219              	.LFB188:
 615:lvgl/src/core/lv_obj_scroll.c ****     /*Be sure the bottom side is not remains scrolled in*/
 5220              		.loc 1 615 1 view -0
 5221              		.cfi_startproc
 5222              		@ args = 0, pretend = 0, frame = 0
 5223              		@ frame_needed = 0, uses_anonymous_args = 0
 615:lvgl/src/core/lv_obj_scroll.c ****     /*Be sure the bottom side is not remains scrolled in*/
 5224              		.loc 1 615 1 is_stmt 0 view .LVU1575
 5225 0000 F8B5     		push	{r3, r4, r5, r6, r7, lr}
 5226              	.LCFI41:
 5227              		.cfi_def_cfa_offset 24
 5228              		.cfi_offset 3, -24
 5229              		.cfi_offset 4, -20
 5230              		.cfi_offset 5, -16
 5231              		.cfi_offset 6, -12
 5232              		.cfi_offset 7, -8
 5233              		.cfi_offset 14, -4
 5234 0002 0446     		mov	r4, r0
 5235 0004 0D46     		mov	r5, r1
 618:lvgl/src/core/lv_obj_scroll.c ****         lv_coord_t st = lv_obj_get_scroll_top(obj);
 5236              		.loc 1 618 5 is_stmt 1 view .LVU1576
 618:lvgl/src/core/lv_obj_scroll.c ****         lv_coord_t st = lv_obj_get_scroll_top(obj);
 5237              		.loc 1 618 8 is_stmt 0 view .LVU1577
 5238 0006 FFF7FEFF 		bl	lv_obj_get_scroll_snap_y
 5239              	.LVL573:
 618:lvgl/src/core/lv_obj_scroll.c ****         lv_coord_t st = lv_obj_get_scroll_top(obj);
 5240              		.loc 1 618 7 discriminator 1 view .LVU1578
 5241 000a 20B1     		cbz	r0, .L327
ARM GAS  C:\usertemp\ccBZVumh.s 			page 145


 5242              	.L323:
 627:lvgl/src/core/lv_obj_scroll.c ****         lv_coord_t sl = lv_obj_get_scroll_left(obj);
 5243              		.loc 1 627 5 is_stmt 1 view .LVU1579
 627:lvgl/src/core/lv_obj_scroll.c ****         lv_coord_t sl = lv_obj_get_scroll_left(obj);
 5244              		.loc 1 627 8 is_stmt 0 view .LVU1580
 5245 000c 2046     		mov	r0, r4
 5246 000e FFF7FEFF 		bl	lv_obj_get_scroll_snap_x
 5247              	.LVL574:
 627:lvgl/src/core/lv_obj_scroll.c ****         lv_coord_t sl = lv_obj_get_scroll_left(obj);
 5248              		.loc 1 627 7 discriminator 1 view .LVU1581
 5249 0012 C8B1     		cbz	r0, .L328
 5250              	.L322:
 645:lvgl/src/core/lv_obj_scroll.c **** 
 5251              		.loc 1 645 1 view .LVU1582
 5252 0014 F8BD     		pop	{r3, r4, r5, r6, r7, pc}
 5253              	.LVL575:
 5254              	.L327:
 5255              	.LBB204:
 619:lvgl/src/core/lv_obj_scroll.c ****         lv_coord_t sb = lv_obj_get_scroll_bottom(obj);
 5256              		.loc 1 619 9 is_stmt 1 view .LVU1583
 619:lvgl/src/core/lv_obj_scroll.c ****         lv_coord_t sb = lv_obj_get_scroll_bottom(obj);
 5257              		.loc 1 619 25 is_stmt 0 view .LVU1584
 5258 0016 2046     		mov	r0, r4
 5259 0018 FFF7FEFF 		bl	lv_obj_get_scroll_top
 5260              	.LVL576:
 5261 001c 0646     		mov	r6, r0
 5262              	.LVL577:
 620:lvgl/src/core/lv_obj_scroll.c ****         if(sb < 0 && st > 0) {
 5263              		.loc 1 620 9 is_stmt 1 view .LVU1585
 620:lvgl/src/core/lv_obj_scroll.c ****         if(sb < 0 && st > 0) {
 5264              		.loc 1 620 25 is_stmt 0 view .LVU1586
 5265 001e 2046     		mov	r0, r4
 5266 0020 FFF7FEFF 		bl	lv_obj_get_scroll_bottom
 5267              	.LVL578:
 621:lvgl/src/core/lv_obj_scroll.c ****             sb = LV_MIN(st, -sb);
 5268              		.loc 1 621 9 is_stmt 1 view .LVU1587
 621:lvgl/src/core/lv_obj_scroll.c ****             sb = LV_MIN(st, -sb);
 5269              		.loc 1 621 25 is_stmt 0 view .LVU1588
 5270 0024 002E     		cmp	r6, #0
 5271 0026 D4BF     		ite	le
 5272 0028 0023     		movle	r3, #0
 5273 002a 0123     		movgt	r3, #1
 621:lvgl/src/core/lv_obj_scroll.c ****             sb = LV_MIN(st, -sb);
 5274              		.loc 1 621 11 view .LVU1589
 5275 002c 13EAD033 		ands	r3, r3, r0, lsr #15
 5276 0030 ECD0     		beq	.L323
 622:lvgl/src/core/lv_obj_scroll.c ****             lv_obj_scroll_by(obj, 0, sb, anim_en);
 5277              		.loc 1 622 13 is_stmt 1 view .LVU1590
 622:lvgl/src/core/lv_obj_scroll.c ****             lv_obj_scroll_by(obj, 0, sb, anim_en);
 5278              		.loc 1 622 18 is_stmt 0 view .LVU1591
 5279 0032 4042     		rsbs	r0, r0, #0
 5280              	.LVL579:
 622:lvgl/src/core/lv_obj_scroll.c ****             lv_obj_scroll_by(obj, 0, sb, anim_en);
 5281              		.loc 1 622 18 view .LVU1592
 5282 0034 8642     		cmp	r6, r0
 5283 0036 A8BF     		it	ge
 5284 0038 0646     		movge	r6, r0
ARM GAS  C:\usertemp\ccBZVumh.s 			page 146


 5285              	.LVL580:
 623:lvgl/src/core/lv_obj_scroll.c ****         }
 5286              		.loc 1 623 13 is_stmt 1 view .LVU1593
 5287 003a 2B46     		mov	r3, r5
 5288 003c 32B2     		sxth	r2, r6
 5289 003e 0021     		movs	r1, #0
 5290 0040 2046     		mov	r0, r4
 5291 0042 FFF7FEFF 		bl	lv_obj_scroll_by
 5292              	.LVL581:
 5293 0046 E1E7     		b	.L323
 5294              	.LVL582:
 5295              	.L328:
 623:lvgl/src/core/lv_obj_scroll.c ****         }
 5296              		.loc 1 623 13 is_stmt 0 view .LVU1594
 5297              	.LBE204:
 5298              	.LBB205:
 628:lvgl/src/core/lv_obj_scroll.c ****         lv_coord_t sr = lv_obj_get_scroll_right(obj);
 5299              		.loc 1 628 9 is_stmt 1 view .LVU1595
 628:lvgl/src/core/lv_obj_scroll.c ****         lv_coord_t sr = lv_obj_get_scroll_right(obj);
 5300              		.loc 1 628 25 is_stmt 0 view .LVU1596
 5301 0048 2046     		mov	r0, r4
 5302 004a FFF7FEFF 		bl	lv_obj_get_scroll_left
 5303              	.LVL583:
 5304 004e 0746     		mov	r7, r0
 5305              	.LVL584:
 629:lvgl/src/core/lv_obj_scroll.c ****         if(lv_obj_get_style_base_dir(obj, LV_PART_MAIN) != LV_BASE_DIR_RTL) {
 5306              		.loc 1 629 9 is_stmt 1 view .LVU1597
 629:lvgl/src/core/lv_obj_scroll.c ****         if(lv_obj_get_style_base_dir(obj, LV_PART_MAIN) != LV_BASE_DIR_RTL) {
 5307              		.loc 1 629 25 is_stmt 0 view .LVU1598
 5308 0050 2046     		mov	r0, r4
 5309 0052 FFF7FEFF 		bl	lv_obj_get_scroll_right
 5310              	.LVL585:
 5311 0056 0646     		mov	r6, r0
 5312              	.LVL586:
 630:lvgl/src/core/lv_obj_scroll.c ****             /*Be sure the left side is not remains scrolled in*/
 5313              		.loc 1 630 9 is_stmt 1 view .LVU1599
 5314              	.LBB206:
 5315              	.LBI206:
 542:lvgl/src/core/lv_obj_style_gen.h **** {
 5316              		.loc 2 542 29 view .LVU1600
 5317              	.LBB207:
 544:lvgl/src/core/lv_obj_style_gen.h ****     return (lv_base_dir_t)v.num;
 5318              		.loc 2 544 5 view .LVU1601
 544:lvgl/src/core/lv_obj_style_gen.h ****     return (lv_base_dir_t)v.num;
 5319              		.loc 2 544 26 is_stmt 0 view .LVU1602
 5320 0058 41F26A42 		movw	r2, #5226
 5321 005c 0021     		movs	r1, #0
 5322 005e 2046     		mov	r0, r4
 5323              	.LVL587:
 544:lvgl/src/core/lv_obj_style_gen.h ****     return (lv_base_dir_t)v.num;
 5324              		.loc 2 544 26 view .LVU1603
 5325 0060 FFF7FEFF 		bl	lv_obj_get_style_prop
 5326              	.LVL588:
 5327              		.loc 2 545 5 is_stmt 1 view .LVU1604
 5328              		.loc 2 545 12 is_stmt 0 view .LVU1605
 5329 0064 C0B2     		uxtb	r0, r0
 5330              	.LVL589:
ARM GAS  C:\usertemp\ccBZVumh.s 			page 147


 5331              		.loc 2 545 12 view .LVU1606
 5332              	.LBE207:
 5333              	.LBE206:
 630:lvgl/src/core/lv_obj_scroll.c ****             /*Be sure the left side is not remains scrolled in*/
 5334              		.loc 1 630 11 discriminator 1 view .LVU1607
 5335 0066 0128     		cmp	r0, #1
 5336 0068 11D0     		beq	.L325
 632:lvgl/src/core/lv_obj_scroll.c ****                 sr = LV_MIN(sl, -sr);
 5337              		.loc 1 632 13 is_stmt 1 view .LVU1608
 632:lvgl/src/core/lv_obj_scroll.c ****                 sr = LV_MIN(sl, -sr);
 5338              		.loc 1 632 29 is_stmt 0 view .LVU1609
 5339 006a 002F     		cmp	r7, #0
 5340 006c D4BF     		ite	le
 5341 006e 0023     		movle	r3, #0
 5342 0070 0123     		movgt	r3, #1
 632:lvgl/src/core/lv_obj_scroll.c ****                 sr = LV_MIN(sl, -sr);
 5343              		.loc 1 632 15 view .LVU1610
 5344 0072 13EAD633 		ands	r3, r3, r6, lsr #15
 5345 0076 CDD0     		beq	.L322
 633:lvgl/src/core/lv_obj_scroll.c ****                 lv_obj_scroll_by(obj, sr, 0, anim_en);
 5346              		.loc 1 633 17 is_stmt 1 view .LVU1611
 633:lvgl/src/core/lv_obj_scroll.c ****                 lv_obj_scroll_by(obj, sr, 0, anim_en);
 5347              		.loc 1 633 22 is_stmt 0 view .LVU1612
 5348 0078 7642     		rsbs	r6, r6, #0
 5349              	.LVL590:
 633:lvgl/src/core/lv_obj_scroll.c ****                 lv_obj_scroll_by(obj, sr, 0, anim_en);
 5350              		.loc 1 633 22 view .LVU1613
 5351 007a BE42     		cmp	r6, r7
 5352 007c A8BF     		it	ge
 5353 007e 3E46     		movge	r6, r7
 5354              	.LVL591:
 634:lvgl/src/core/lv_obj_scroll.c ****             }
 5355              		.loc 1 634 17 is_stmt 1 view .LVU1614
 5356 0080 2B46     		mov	r3, r5
 5357 0082 0022     		movs	r2, #0
 5358 0084 31B2     		sxth	r1, r6
 5359 0086 2046     		mov	r0, r4
 5360 0088 FFF7FEFF 		bl	lv_obj_scroll_by
 5361              	.LVL592:
 5362 008c C2E7     		b	.L322
 5363              	.L325:
 639:lvgl/src/core/lv_obj_scroll.c ****                 sr = LV_MIN(sr, -sl);
 5364              		.loc 1 639 13 view .LVU1615
 639:lvgl/src/core/lv_obj_scroll.c ****                 sr = LV_MIN(sr, -sl);
 5365              		.loc 1 639 29 is_stmt 0 view .LVU1616
 5366 008e 002E     		cmp	r6, #0
 5367 0090 D4BF     		ite	le
 5368 0092 0026     		movle	r6, #0
 5369              	.LVL593:
 639:lvgl/src/core/lv_obj_scroll.c ****                 sr = LV_MIN(sr, -sl);
 5370              		.loc 1 639 29 view .LVU1617
 5371 0094 0126     		movgt	r6, #1
 639:lvgl/src/core/lv_obj_scroll.c ****                 sr = LV_MIN(sr, -sl);
 5372              		.loc 1 639 15 view .LVU1618
 5373 0096 16EAD736 		ands	r6, r6, r7, lsr #15
 5374 009a BBD0     		beq	.L322
 640:lvgl/src/core/lv_obj_scroll.c ****                 lv_obj_scroll_by(obj, sl, 0, anim_en);
ARM GAS  C:\usertemp\ccBZVumh.s 			page 148


 5375              		.loc 1 640 17 is_stmt 1 view .LVU1619
 641:lvgl/src/core/lv_obj_scroll.c ****             }
 5376              		.loc 1 641 17 view .LVU1620
 5377 009c 2B46     		mov	r3, r5
 5378 009e 0022     		movs	r2, #0
 5379 00a0 3946     		mov	r1, r7
 5380 00a2 2046     		mov	r0, r4
 5381 00a4 FFF7FEFF 		bl	lv_obj_scroll_by
 5382              	.LVL594:
 5383              	.LBE205:
 645:lvgl/src/core/lv_obj_scroll.c **** 
 5384              		.loc 1 645 1 is_stmt 0 view .LVU1621
 5385 00a8 B4E7     		b	.L322
 5386              		.cfi_endproc
 5387              	.LFE188:
 5389              		.text
 5390              	.Letext0:
 5391              		.file 5 "D:/armtoolchain/arm-gnu-toolchain-13.3.rel1-mingw-w64-i686-arm-none-eabi/arm-none-eabi/in
 5392              		.file 6 "D:/armtoolchain/arm-gnu-toolchain-13.3.rel1-mingw-w64-i686-arm-none-eabi/arm-none-eabi/in
 5393              		.file 7 "D:/armtoolchain/arm-gnu-toolchain-13.3.rel1-mingw-w64-i686-arm-none-eabi/lib/gcc/arm-none
 5394              		.file 8 "lvgl/src/core/lv_obj_scroll.h"
 5395              		.file 9 "lvgl/src/core/../misc/../font/lv_font.h"
 5396              		.file 10 "lvgl/src/core/../misc/lv_types.h"
 5397              		.file 11 "lvgl/src/core/../misc/lv_color.h"
 5398              		.file 12 "lvgl/src/core/../misc/lv_txt.h"
 5399              		.file 13 "lvgl/src/core/../misc/lv_bidi.h"
 5400              		.file 14 "lvgl/src/core/../misc/lv_style.h"
 5401              		.file 15 "lvgl/src/core/../hal/../draw/lv_img_buf.h"
 5402              		.file 16 "lvgl/src/core/lv_obj.h"
 5403              		.file 17 "lvgl/src/core/../hal/../draw/lv_draw_rect.h"
 5404              		.file 18 "lvgl/src/core/../hal/../draw/lv_draw_label.h"
 5405              		.file 19 "lvgl/src/core/../hal/../draw/lv_draw_img.h"
 5406              		.file 20 "lvgl/src/core/../hal/../draw/lv_draw_line.h"
 5407              		.file 21 "lvgl/src/core/../hal/../draw/lv_draw_arc.h"
 5408              		.file 22 "lvgl/src/core/../hal/../draw/lv_draw.h"
 5409              		.file 23 "lvgl/src/core/../hal/../misc/lv_ll.h"
 5410              		.file 24 "lvgl/src/core/../hal/../misc/lv_timer.h"
 5411              		.file 25 "lvgl/src/core/../hal/lv_hal_disp.h"
 5412              		.file 26 "lvgl/src/core/lv_theme.h"
 5413              		.file 27 "lvgl/src/core/../hal/lv_hal_indev.h"
 5414              		.file 28 "lvgl/src/core/lv_group.h"
 5415              		.file 29 "lvgl/src/core/lv_obj_style.h"
 5416              		.file 30 "lvgl/src/core/lv_obj_class.h"
 5417              		.file 31 "lvgl/src/core/lv_event.h"
 5418              		.file 32 "lvgl/src/core/lv_indev.h"
 5419              		.file 33 "lvgl/src/core/../hal/../draw/sw/../../core/lv_obj_pos.h"
 5420              		.file 34 "lvgl/src/core/lv_indev_scroll.h"
 5421              		.file 35 "lvgl/src/core/lv_obj_tree.h"
ARM GAS  C:\usertemp\ccBZVumh.s 			page 149


DEFINED SYMBOLS
                            *ABS*:00000000 lv_obj_scroll.c
C:\usertemp\ccBZVumh.s:20     .text.scroll_by_raw:00000000 $t
C:\usertemp\ccBZVumh.s:25     .text.scroll_by_raw:00000000 scroll_by_raw
C:\usertemp\ccBZVumh.s:103    .text.scroll_anim_ready_cb:00000000 $t
C:\usertemp\ccBZVumh.s:108    .text.scroll_anim_ready_cb:00000000 scroll_anim_ready_cb
C:\usertemp\ccBZVumh.s:135    .text.lv_obj_set_scrollbar_mode:00000000 $t
C:\usertemp\ccBZVumh.s:141    .text.lv_obj_set_scrollbar_mode:00000000 lv_obj_set_scrollbar_mode
C:\usertemp\ccBZVumh.s:190    .text.lv_obj_set_scroll_dir:00000000 $t
C:\usertemp\ccBZVumh.s:196    .text.lv_obj_set_scroll_dir:00000000 lv_obj_set_scroll_dir
C:\usertemp\ccBZVumh.s:240    .text.lv_obj_set_scroll_snap_x:00000000 $t
C:\usertemp\ccBZVumh.s:246    .text.lv_obj_set_scroll_snap_x:00000000 lv_obj_set_scroll_snap_x
C:\usertemp\ccBZVumh.s:280    .text.lv_obj_set_scroll_snap_y:00000000 $t
C:\usertemp\ccBZVumh.s:286    .text.lv_obj_set_scroll_snap_y:00000000 lv_obj_set_scroll_snap_y
C:\usertemp\ccBZVumh.s:320    .text.lv_obj_get_scrollbar_mode:00000000 $t
C:\usertemp\ccBZVumh.s:326    .text.lv_obj_get_scrollbar_mode:00000000 lv_obj_get_scrollbar_mode
C:\usertemp\ccBZVumh.s:358    .text.lv_obj_get_scroll_dir:00000000 $t
C:\usertemp\ccBZVumh.s:364    .text.lv_obj_get_scroll_dir:00000000 lv_obj_get_scroll_dir
C:\usertemp\ccBZVumh.s:396    .text.lv_obj_get_scroll_snap_x:00000000 $t
C:\usertemp\ccBZVumh.s:402    .text.lv_obj_get_scroll_snap_x:00000000 lv_obj_get_scroll_snap_x
C:\usertemp\ccBZVumh.s:434    .text.lv_obj_get_scroll_snap_y:00000000 $t
C:\usertemp\ccBZVumh.s:440    .text.lv_obj_get_scroll_snap_y:00000000 lv_obj_get_scroll_snap_y
C:\usertemp\ccBZVumh.s:472    .text.lv_obj_get_scroll_x:00000000 $t
C:\usertemp\ccBZVumh.s:478    .text.lv_obj_get_scroll_x:00000000 lv_obj_get_scroll_x
C:\usertemp\ccBZVumh.s:510    .text.scroll_x_anim:00000000 $t
C:\usertemp\ccBZVumh.s:515    .text.scroll_x_anim:00000000 scroll_x_anim
C:\usertemp\ccBZVumh.s:551    .text.lv_obj_get_scroll_y:00000000 $t
C:\usertemp\ccBZVumh.s:557    .text.lv_obj_get_scroll_y:00000000 lv_obj_get_scroll_y
C:\usertemp\ccBZVumh.s:589    .text.scroll_y_anim:00000000 $t
C:\usertemp\ccBZVumh.s:594    .text.scroll_y_anim:00000000 scroll_y_anim
C:\usertemp\ccBZVumh.s:630    .text.lv_obj_get_scroll_top:00000000 $t
C:\usertemp\ccBZVumh.s:636    .text.lv_obj_get_scroll_top:00000000 lv_obj_get_scroll_top
C:\usertemp\ccBZVumh.s:668    .text.lv_obj_get_scroll_bottom:00000000 $t
C:\usertemp\ccBZVumh.s:674    .text.lv_obj_get_scroll_bottom:00000000 lv_obj_get_scroll_bottom
C:\usertemp\ccBZVumh.s:882    .text.lv_obj_get_scroll_bottom:000000b0 $d
C:\usertemp\ccBZVumh.s:888    .text.lv_obj_get_scroll_left:00000000 $t
C:\usertemp\ccBZVumh.s:894    .text.lv_obj_get_scroll_left:00000000 lv_obj_get_scroll_left
C:\usertemp\ccBZVumh.s:1156   .text.lv_obj_get_scroll_left:000000e4 $d
C:\usertemp\ccBZVumh.s:1162   .text.lv_obj_get_scroll_right:00000000 $t
C:\usertemp\ccBZVumh.s:1168   .text.lv_obj_get_scroll_right:00000000 lv_obj_get_scroll_right
C:\usertemp\ccBZVumh.s:1413   .text.lv_obj_get_scroll_right:000000d0 $d
C:\usertemp\ccBZVumh.s:1419   .text.lv_obj_get_scroll_end:00000000 $t
C:\usertemp\ccBZVumh.s:1425   .text.lv_obj_get_scroll_end:00000000 lv_obj_get_scroll_end
C:\usertemp\ccBZVumh.s:1504   .text.lv_obj_get_scroll_end:0000003c $d
C:\usertemp\ccBZVumh.s:1510   .text.lv_obj_scroll_by:00000000 $t
C:\usertemp\ccBZVumh.s:1516   .text.lv_obj_scroll_by:00000000 lv_obj_scroll_by
C:\usertemp\ccBZVumh.s:1913   .text.lv_obj_scroll_by:00000110 $d
C:\usertemp\ccBZVumh.s:1923   .text.lv_obj_scroll_by_bounded:00000000 $t
C:\usertemp\ccBZVumh.s:1929   .text.lv_obj_scroll_by_bounded:00000000 lv_obj_scroll_by_bounded
C:\usertemp\ccBZVumh.s:2221   .text.scroll_area_into_view:00000000 $t
C:\usertemp\ccBZVumh.s:2226   .text.scroll_area_into_view:00000000 scroll_area_into_view
C:\usertemp\ccBZVumh.s:3093   .text.scroll_area_into_view:00000350 $d
C:\usertemp\ccBZVumh.s:3099   .text.lv_obj_scroll_to_x:00000000 $t
C:\usertemp\ccBZVumh.s:3105   .text.lv_obj_scroll_to_x:00000000 lv_obj_scroll_to_x
C:\usertemp\ccBZVumh.s:3155   .text.lv_obj_scroll_to_x:00000024 $d
C:\usertemp\ccBZVumh.s:3160   .text.lv_obj_scroll_to_y:00000000 $t
C:\usertemp\ccBZVumh.s:3166   .text.lv_obj_scroll_to_y:00000000 lv_obj_scroll_to_y
ARM GAS  C:\usertemp\ccBZVumh.s 			page 150


C:\usertemp\ccBZVumh.s:3216   .text.lv_obj_scroll_to_y:00000024 $d
C:\usertemp\ccBZVumh.s:3221   .text.lv_obj_scroll_to:00000000 $t
C:\usertemp\ccBZVumh.s:3227   .text.lv_obj_scroll_to:00000000 lv_obj_scroll_to
C:\usertemp\ccBZVumh.s:3264   .text.lv_obj_scroll_to_view:00000000 $t
C:\usertemp\ccBZVumh.s:3270   .text.lv_obj_scroll_to_view:00000000 lv_obj_scroll_to_view
C:\usertemp\ccBZVumh.s:3315   .text.lv_obj_scroll_to_view_recursive:00000000 $t
C:\usertemp\ccBZVumh.s:3321   .text.lv_obj_scroll_to_view_recursive:00000000 lv_obj_scroll_to_view_recursive
C:\usertemp\ccBZVumh.s:3399   .text.lv_obj_is_scrolling:00000000 $t
C:\usertemp\ccBZVumh.s:3405   .text.lv_obj_is_scrolling:00000000 lv_obj_is_scrolling
C:\usertemp\ccBZVumh.s:3470   .text.lv_obj_update_snap:00000000 $t
C:\usertemp\ccBZVumh.s:3476   .text.lv_obj_update_snap:00000000 lv_obj_update_snap
C:\usertemp\ccBZVumh.s:3522   .text.lv_obj_get_scrollbar_area:00000000 $t
C:\usertemp\ccBZVumh.s:3528   .text.lv_obj_get_scrollbar_area:00000000 lv_obj_get_scrollbar_area
C:\usertemp\ccBZVumh.s:4812   .text.lv_obj_get_scrollbar_area:00000658 $d
C:\usertemp\ccBZVumh.s:4818   .text.lv_obj_get_scrollbar_area:0000065c $t
C:\usertemp\ccBZVumh.s:5116   .text.lv_obj_get_scrollbar_area:0000081c $d
C:\usertemp\ccBZVumh.s:5123   .text.lv_obj_scrollbar_invalidate:00000000 $t
C:\usertemp\ccBZVumh.s:5129   .text.lv_obj_scrollbar_invalidate:00000000 lv_obj_scrollbar_invalidate
C:\usertemp\ccBZVumh.s:5211   .text.lv_obj_readjust_scroll:00000000 $t
C:\usertemp\ccBZVumh.s:5217   .text.lv_obj_readjust_scroll:00000000 lv_obj_readjust_scroll

UNDEFINED SYMBOLS
lv_obj_allocate_spec_attr
lv_obj_move_children_by
lv_event_send
lv_obj_invalidate
lv_obj_get_child_cnt
lv_obj_has_flag_any
lv_obj_get_style_prop
lv_obj_get_self_height
lv_obj_get_height
lv_obj_get_self_width
lv_obj_get_width
lv_anim_get
lv_anim_del
lv_obj_get_disp
lv_anim_init
lv_disp_get_ver_res
lv_anim_speed_to_time
lv_disp_get_hor_res
lv_anim_start
lv_anim_path_ease_out
lv_obj_update_layout
lv_obj_get_parent
lv_obj_has_flag
lv_indev_get_next
lv_indev_get_scroll_obj
lv_indev_scroll_get_snap_dist
lv_area_set
lv_indev_get_scroll_dir
lv_disp_get_dpi
lv_area_get_size
lv_obj_invalidate_area
