ARM GAS  C:\usertemp\cc8fQZXg.s 			page 1


   1              		.cpu cortex-m7
   2              		.arch armv7e-m
   3              		.fpu fpv5-d16
   4              		.eabi_attribute 28, 1
   5              		.eabi_attribute 20, 1
   6              		.eabi_attribute 21, 1
   7              		.eabi_attribute 23, 3
   8              		.eabi_attribute 24, 1
   9              		.eabi_attribute 25, 1
  10              		.eabi_attribute 26, 1
  11              		.eabi_attribute 30, 1
  12              		.eabi_attribute 34, 1
  13              		.eabi_attribute 18, 4
  14              		.file	"lv_qrcode.c"
  15              		.text
  16              	.Ltext0:
  17              		.cfi_sections	.debug_frame
  18              		.file 1 "lvgl/src/extra/libs/qrcode/lv_qrcode.c"
  19              		.section	.text.lv_qrcode_destructor,"ax",%progbits
  20              		.align	1
  21              		.syntax unified
  22              		.thumb
  23              		.thumb_func
  25              	lv_qrcode_destructor:
  26              	.LVL0:
  27              	.LFB200:
   1:lvgl/src/extra/libs/qrcode/lv_qrcode.c **** /**
   2:lvgl/src/extra/libs/qrcode/lv_qrcode.c ****  * @file lv_qrcode.c
   3:lvgl/src/extra/libs/qrcode/lv_qrcode.c ****  *
   4:lvgl/src/extra/libs/qrcode/lv_qrcode.c ****  */
   5:lvgl/src/extra/libs/qrcode/lv_qrcode.c **** 
   6:lvgl/src/extra/libs/qrcode/lv_qrcode.c **** /*********************
   7:lvgl/src/extra/libs/qrcode/lv_qrcode.c ****  *      INCLUDES
   8:lvgl/src/extra/libs/qrcode/lv_qrcode.c ****  *********************/
   9:lvgl/src/extra/libs/qrcode/lv_qrcode.c **** #include "lv_qrcode.h"
  10:lvgl/src/extra/libs/qrcode/lv_qrcode.c **** #if LV_USE_QRCODE
  11:lvgl/src/extra/libs/qrcode/lv_qrcode.c **** 
  12:lvgl/src/extra/libs/qrcode/lv_qrcode.c **** #include "qrcodegen.h"
  13:lvgl/src/extra/libs/qrcode/lv_qrcode.c **** 
  14:lvgl/src/extra/libs/qrcode/lv_qrcode.c **** /*********************
  15:lvgl/src/extra/libs/qrcode/lv_qrcode.c ****  *      DEFINES
  16:lvgl/src/extra/libs/qrcode/lv_qrcode.c ****  *********************/
  17:lvgl/src/extra/libs/qrcode/lv_qrcode.c **** #define MY_CLASS &lv_qrcode_class
  18:lvgl/src/extra/libs/qrcode/lv_qrcode.c **** 
  19:lvgl/src/extra/libs/qrcode/lv_qrcode.c **** /**********************
  20:lvgl/src/extra/libs/qrcode/lv_qrcode.c ****  *      TYPEDEFS
  21:lvgl/src/extra/libs/qrcode/lv_qrcode.c ****  **********************/
  22:lvgl/src/extra/libs/qrcode/lv_qrcode.c **** 
  23:lvgl/src/extra/libs/qrcode/lv_qrcode.c **** /**********************
  24:lvgl/src/extra/libs/qrcode/lv_qrcode.c ****  *  STATIC PROTOTYPES
  25:lvgl/src/extra/libs/qrcode/lv_qrcode.c ****  **********************/
  26:lvgl/src/extra/libs/qrcode/lv_qrcode.c **** static void lv_qrcode_constructor(const lv_obj_class_t * class_p, lv_obj_t * obj);
  27:lvgl/src/extra/libs/qrcode/lv_qrcode.c **** static void lv_qrcode_destructor(const lv_obj_class_t * class_p, lv_obj_t * obj);
  28:lvgl/src/extra/libs/qrcode/lv_qrcode.c **** 
  29:lvgl/src/extra/libs/qrcode/lv_qrcode.c **** /**********************
  30:lvgl/src/extra/libs/qrcode/lv_qrcode.c ****  *  STATIC VARIABLES
  31:lvgl/src/extra/libs/qrcode/lv_qrcode.c ****  **********************/
ARM GAS  C:\usertemp\cc8fQZXg.s 			page 2


  32:lvgl/src/extra/libs/qrcode/lv_qrcode.c **** 
  33:lvgl/src/extra/libs/qrcode/lv_qrcode.c **** const lv_obj_class_t lv_qrcode_class = {
  34:lvgl/src/extra/libs/qrcode/lv_qrcode.c ****     .constructor_cb = lv_qrcode_constructor,
  35:lvgl/src/extra/libs/qrcode/lv_qrcode.c ****     .destructor_cb = lv_qrcode_destructor,
  36:lvgl/src/extra/libs/qrcode/lv_qrcode.c ****     .base_class = &lv_canvas_class
  37:lvgl/src/extra/libs/qrcode/lv_qrcode.c **** };
  38:lvgl/src/extra/libs/qrcode/lv_qrcode.c **** 
  39:lvgl/src/extra/libs/qrcode/lv_qrcode.c **** static lv_coord_t size_param;
  40:lvgl/src/extra/libs/qrcode/lv_qrcode.c **** static lv_color_t dark_color_param;
  41:lvgl/src/extra/libs/qrcode/lv_qrcode.c **** static lv_color_t light_color_param;
  42:lvgl/src/extra/libs/qrcode/lv_qrcode.c **** 
  43:lvgl/src/extra/libs/qrcode/lv_qrcode.c **** /**********************
  44:lvgl/src/extra/libs/qrcode/lv_qrcode.c ****  *      MACROS
  45:lvgl/src/extra/libs/qrcode/lv_qrcode.c ****  **********************/
  46:lvgl/src/extra/libs/qrcode/lv_qrcode.c **** 
  47:lvgl/src/extra/libs/qrcode/lv_qrcode.c **** /**********************
  48:lvgl/src/extra/libs/qrcode/lv_qrcode.c ****  *   GLOBAL FUNCTIONS
  49:lvgl/src/extra/libs/qrcode/lv_qrcode.c ****  **********************/
  50:lvgl/src/extra/libs/qrcode/lv_qrcode.c **** 
  51:lvgl/src/extra/libs/qrcode/lv_qrcode.c **** /**
  52:lvgl/src/extra/libs/qrcode/lv_qrcode.c ****  * Create an empty QR code (an `lv_canvas`) object.
  53:lvgl/src/extra/libs/qrcode/lv_qrcode.c ****  * @param parent point to an object where to create the QR code
  54:lvgl/src/extra/libs/qrcode/lv_qrcode.c ****  * @param size width and height of the QR code
  55:lvgl/src/extra/libs/qrcode/lv_qrcode.c ****  * @param dark_color dark color of the QR code
  56:lvgl/src/extra/libs/qrcode/lv_qrcode.c ****  * @param light_color light color of the QR code
  57:lvgl/src/extra/libs/qrcode/lv_qrcode.c ****  * @return pointer to the created QR code object
  58:lvgl/src/extra/libs/qrcode/lv_qrcode.c ****  */
  59:lvgl/src/extra/libs/qrcode/lv_qrcode.c **** lv_obj_t * lv_qrcode_create(lv_obj_t * parent, lv_coord_t size, lv_color_t dark_color, lv_color_t l
  60:lvgl/src/extra/libs/qrcode/lv_qrcode.c **** {
  61:lvgl/src/extra/libs/qrcode/lv_qrcode.c ****     LV_LOG_INFO("begin");
  62:lvgl/src/extra/libs/qrcode/lv_qrcode.c ****     size_param = size;
  63:lvgl/src/extra/libs/qrcode/lv_qrcode.c ****     light_color_param = light_color;
  64:lvgl/src/extra/libs/qrcode/lv_qrcode.c ****     dark_color_param = dark_color;
  65:lvgl/src/extra/libs/qrcode/lv_qrcode.c **** 
  66:lvgl/src/extra/libs/qrcode/lv_qrcode.c ****     lv_obj_t * obj = lv_obj_class_create_obj(MY_CLASS, parent);
  67:lvgl/src/extra/libs/qrcode/lv_qrcode.c ****     lv_obj_class_init_obj(obj);
  68:lvgl/src/extra/libs/qrcode/lv_qrcode.c ****     return obj;
  69:lvgl/src/extra/libs/qrcode/lv_qrcode.c **** 
  70:lvgl/src/extra/libs/qrcode/lv_qrcode.c **** }
  71:lvgl/src/extra/libs/qrcode/lv_qrcode.c **** 
  72:lvgl/src/extra/libs/qrcode/lv_qrcode.c **** /**
  73:lvgl/src/extra/libs/qrcode/lv_qrcode.c ****  * Set the data of a QR code object
  74:lvgl/src/extra/libs/qrcode/lv_qrcode.c ****  * @param qrcode pointer to aQ code object
  75:lvgl/src/extra/libs/qrcode/lv_qrcode.c ****  * @param data data to display
  76:lvgl/src/extra/libs/qrcode/lv_qrcode.c ****  * @param data_len length of data in bytes
  77:lvgl/src/extra/libs/qrcode/lv_qrcode.c ****  * @return LV_RES_OK: if no error; LV_RES_INV: on error
  78:lvgl/src/extra/libs/qrcode/lv_qrcode.c ****  */
  79:lvgl/src/extra/libs/qrcode/lv_qrcode.c **** lv_res_t lv_qrcode_update(lv_obj_t * qrcode, const void * data, uint32_t data_len)
  80:lvgl/src/extra/libs/qrcode/lv_qrcode.c **** {
  81:lvgl/src/extra/libs/qrcode/lv_qrcode.c ****     lv_color_t c;
  82:lvgl/src/extra/libs/qrcode/lv_qrcode.c ****     c.full = 1;
  83:lvgl/src/extra/libs/qrcode/lv_qrcode.c ****     lv_canvas_fill_bg(qrcode, c, LV_OPA_COVER);
  84:lvgl/src/extra/libs/qrcode/lv_qrcode.c **** 
  85:lvgl/src/extra/libs/qrcode/lv_qrcode.c ****     if(data_len > qrcodegen_BUFFER_LEN_MAX) return LV_RES_INV;
  86:lvgl/src/extra/libs/qrcode/lv_qrcode.c **** 
  87:lvgl/src/extra/libs/qrcode/lv_qrcode.c ****     lv_img_dsc_t * imgdsc = lv_canvas_get_img(qrcode);
  88:lvgl/src/extra/libs/qrcode/lv_qrcode.c **** 
ARM GAS  C:\usertemp\cc8fQZXg.s 			page 3


  89:lvgl/src/extra/libs/qrcode/lv_qrcode.c ****     int32_t qr_version = qrcodegen_getMinFitVersion(qrcodegen_Ecc_MEDIUM, data_len);
  90:lvgl/src/extra/libs/qrcode/lv_qrcode.c ****     if(qr_version <= 0) return LV_RES_INV;
  91:lvgl/src/extra/libs/qrcode/lv_qrcode.c ****     int32_t qr_size = qrcodegen_version2size(qr_version);
  92:lvgl/src/extra/libs/qrcode/lv_qrcode.c ****     if(qr_size <= 0) return LV_RES_INV;
  93:lvgl/src/extra/libs/qrcode/lv_qrcode.c ****     int32_t scale = imgdsc->header.w / qr_size;
  94:lvgl/src/extra/libs/qrcode/lv_qrcode.c ****     if(scale <= 0) return LV_RES_INV;
  95:lvgl/src/extra/libs/qrcode/lv_qrcode.c ****     int32_t remain = imgdsc->header.w % qr_size;
  96:lvgl/src/extra/libs/qrcode/lv_qrcode.c **** 
  97:lvgl/src/extra/libs/qrcode/lv_qrcode.c ****     /* The qr version is incremented by four point */
  98:lvgl/src/extra/libs/qrcode/lv_qrcode.c ****     uint32_t version_extend = remain / (scale << 2);
  99:lvgl/src/extra/libs/qrcode/lv_qrcode.c ****     if(version_extend && qr_version < qrcodegen_VERSION_MAX) {
 100:lvgl/src/extra/libs/qrcode/lv_qrcode.c ****         qr_version = qr_version + version_extend > qrcodegen_VERSION_MAX ?
 101:lvgl/src/extra/libs/qrcode/lv_qrcode.c ****                      qrcodegen_VERSION_MAX : qr_version + version_extend;
 102:lvgl/src/extra/libs/qrcode/lv_qrcode.c ****     }
 103:lvgl/src/extra/libs/qrcode/lv_qrcode.c **** 
 104:lvgl/src/extra/libs/qrcode/lv_qrcode.c ****     uint8_t * qr0 = lv_mem_alloc(qrcodegen_BUFFER_LEN_FOR_VERSION(qr_version));
 105:lvgl/src/extra/libs/qrcode/lv_qrcode.c ****     LV_ASSERT_MALLOC(qr0);
 106:lvgl/src/extra/libs/qrcode/lv_qrcode.c ****     uint8_t * data_tmp = lv_mem_alloc(qrcodegen_BUFFER_LEN_FOR_VERSION(qr_version));
 107:lvgl/src/extra/libs/qrcode/lv_qrcode.c ****     LV_ASSERT_MALLOC(data_tmp);
 108:lvgl/src/extra/libs/qrcode/lv_qrcode.c ****     lv_memcpy(data_tmp, data, data_len);
 109:lvgl/src/extra/libs/qrcode/lv_qrcode.c **** 
 110:lvgl/src/extra/libs/qrcode/lv_qrcode.c ****     bool ok = qrcodegen_encodeBinary(data_tmp, data_len,
 111:lvgl/src/extra/libs/qrcode/lv_qrcode.c ****                                      qr0, qrcodegen_Ecc_MEDIUM,
 112:lvgl/src/extra/libs/qrcode/lv_qrcode.c ****                                      qr_version, qr_version,
 113:lvgl/src/extra/libs/qrcode/lv_qrcode.c ****                                      qrcodegen_Mask_AUTO, true);
 114:lvgl/src/extra/libs/qrcode/lv_qrcode.c **** 
 115:lvgl/src/extra/libs/qrcode/lv_qrcode.c ****     if(!ok) {
 116:lvgl/src/extra/libs/qrcode/lv_qrcode.c ****         lv_mem_free(qr0);
 117:lvgl/src/extra/libs/qrcode/lv_qrcode.c ****         lv_mem_free(data_tmp);
 118:lvgl/src/extra/libs/qrcode/lv_qrcode.c ****         return LV_RES_INV;
 119:lvgl/src/extra/libs/qrcode/lv_qrcode.c ****     }
 120:lvgl/src/extra/libs/qrcode/lv_qrcode.c **** 
 121:lvgl/src/extra/libs/qrcode/lv_qrcode.c ****     lv_coord_t obj_w = imgdsc->header.w;
 122:lvgl/src/extra/libs/qrcode/lv_qrcode.c ****     qr_size = qrcodegen_getSize(qr0);
 123:lvgl/src/extra/libs/qrcode/lv_qrcode.c ****     scale = obj_w / qr_size;
 124:lvgl/src/extra/libs/qrcode/lv_qrcode.c ****     int scaled = qr_size * scale;
 125:lvgl/src/extra/libs/qrcode/lv_qrcode.c ****     int margin = (obj_w - scaled) / 2;
 126:lvgl/src/extra/libs/qrcode/lv_qrcode.c ****     uint8_t * buf_u8 = (uint8_t *)imgdsc->data + 8;    /*+8 skip the palette*/
 127:lvgl/src/extra/libs/qrcode/lv_qrcode.c **** 
 128:lvgl/src/extra/libs/qrcode/lv_qrcode.c ****     /* Copy the qr code canvas:
 129:lvgl/src/extra/libs/qrcode/lv_qrcode.c ****      * A simple `lv_canvas_set_px` would work but it's slow for so many pixels.
 130:lvgl/src/extra/libs/qrcode/lv_qrcode.c ****      * So buffer 1 byte (8 px) from the qr code and set it in the canvas image */
 131:lvgl/src/extra/libs/qrcode/lv_qrcode.c ****     uint32_t row_byte_cnt = (imgdsc->header.w + 7) >> 3;
 132:lvgl/src/extra/libs/qrcode/lv_qrcode.c ****     int y;
 133:lvgl/src/extra/libs/qrcode/lv_qrcode.c ****     for(y = margin; y < scaled + margin; y += scale) {
 134:lvgl/src/extra/libs/qrcode/lv_qrcode.c ****         uint8_t b = 0;
 135:lvgl/src/extra/libs/qrcode/lv_qrcode.c ****         uint8_t p = 0;
 136:lvgl/src/extra/libs/qrcode/lv_qrcode.c ****         bool aligned = false;
 137:lvgl/src/extra/libs/qrcode/lv_qrcode.c ****         int x;
 138:lvgl/src/extra/libs/qrcode/lv_qrcode.c ****         for(x = margin; x < scaled + margin; x++) {
 139:lvgl/src/extra/libs/qrcode/lv_qrcode.c ****             bool a = qrcodegen_getModule(qr0, (x - margin) / scale, (y - margin) / scale);
 140:lvgl/src/extra/libs/qrcode/lv_qrcode.c **** 
 141:lvgl/src/extra/libs/qrcode/lv_qrcode.c ****             if(aligned == false && (x & 0x7) == 0) aligned = true;
 142:lvgl/src/extra/libs/qrcode/lv_qrcode.c **** 
 143:lvgl/src/extra/libs/qrcode/lv_qrcode.c ****             if(aligned == false) {
 144:lvgl/src/extra/libs/qrcode/lv_qrcode.c ****                 c.full = a ? 0 : 1;
 145:lvgl/src/extra/libs/qrcode/lv_qrcode.c ****                 lv_canvas_set_px_color(qrcode, x, y, c);
ARM GAS  C:\usertemp\cc8fQZXg.s 			page 4


 146:lvgl/src/extra/libs/qrcode/lv_qrcode.c ****             }
 147:lvgl/src/extra/libs/qrcode/lv_qrcode.c ****             else {
 148:lvgl/src/extra/libs/qrcode/lv_qrcode.c ****                 if(!a) b |= (1 << (7 - p));
 149:lvgl/src/extra/libs/qrcode/lv_qrcode.c ****                 p++;
 150:lvgl/src/extra/libs/qrcode/lv_qrcode.c ****                 if(p == 8) {
 151:lvgl/src/extra/libs/qrcode/lv_qrcode.c ****                     uint32_t px = row_byte_cnt * y + (x >> 3);
 152:lvgl/src/extra/libs/qrcode/lv_qrcode.c ****                     buf_u8[px] = b;
 153:lvgl/src/extra/libs/qrcode/lv_qrcode.c ****                     b = 0;
 154:lvgl/src/extra/libs/qrcode/lv_qrcode.c ****                     p = 0;
 155:lvgl/src/extra/libs/qrcode/lv_qrcode.c ****                 }
 156:lvgl/src/extra/libs/qrcode/lv_qrcode.c ****             }
 157:lvgl/src/extra/libs/qrcode/lv_qrcode.c ****         }
 158:lvgl/src/extra/libs/qrcode/lv_qrcode.c **** 
 159:lvgl/src/extra/libs/qrcode/lv_qrcode.c ****         /*Process the last byte of the row*/
 160:lvgl/src/extra/libs/qrcode/lv_qrcode.c ****         if(p) {
 161:lvgl/src/extra/libs/qrcode/lv_qrcode.c ****             /*Make the rest of the bits white*/
 162:lvgl/src/extra/libs/qrcode/lv_qrcode.c ****             b |= (1 << (8 - p)) - 1;
 163:lvgl/src/extra/libs/qrcode/lv_qrcode.c **** 
 164:lvgl/src/extra/libs/qrcode/lv_qrcode.c ****             uint32_t px = row_byte_cnt * y + (x >> 3);
 165:lvgl/src/extra/libs/qrcode/lv_qrcode.c ****             buf_u8[px] = b;
 166:lvgl/src/extra/libs/qrcode/lv_qrcode.c ****         }
 167:lvgl/src/extra/libs/qrcode/lv_qrcode.c **** 
 168:lvgl/src/extra/libs/qrcode/lv_qrcode.c ****         /*The Qr is probably scaled so simply to the repeated rows*/
 169:lvgl/src/extra/libs/qrcode/lv_qrcode.c ****         int s;
 170:lvgl/src/extra/libs/qrcode/lv_qrcode.c ****         const uint8_t * row_ori = buf_u8 + row_byte_cnt * y;
 171:lvgl/src/extra/libs/qrcode/lv_qrcode.c ****         for(s = 1; s < scale; s++) {
 172:lvgl/src/extra/libs/qrcode/lv_qrcode.c ****             lv_memcpy((uint8_t *)buf_u8 + row_byte_cnt * (y + s), row_ori, row_byte_cnt);
 173:lvgl/src/extra/libs/qrcode/lv_qrcode.c ****         }
 174:lvgl/src/extra/libs/qrcode/lv_qrcode.c ****     }
 175:lvgl/src/extra/libs/qrcode/lv_qrcode.c **** 
 176:lvgl/src/extra/libs/qrcode/lv_qrcode.c ****     lv_mem_free(qr0);
 177:lvgl/src/extra/libs/qrcode/lv_qrcode.c ****     lv_mem_free(data_tmp);
 178:lvgl/src/extra/libs/qrcode/lv_qrcode.c ****     return LV_RES_OK;
 179:lvgl/src/extra/libs/qrcode/lv_qrcode.c **** }
 180:lvgl/src/extra/libs/qrcode/lv_qrcode.c **** 
 181:lvgl/src/extra/libs/qrcode/lv_qrcode.c **** 
 182:lvgl/src/extra/libs/qrcode/lv_qrcode.c **** void lv_qrcode_delete(lv_obj_t * qrcode)
 183:lvgl/src/extra/libs/qrcode/lv_qrcode.c **** {
 184:lvgl/src/extra/libs/qrcode/lv_qrcode.c ****     lv_obj_del(qrcode);
 185:lvgl/src/extra/libs/qrcode/lv_qrcode.c **** }
 186:lvgl/src/extra/libs/qrcode/lv_qrcode.c **** 
 187:lvgl/src/extra/libs/qrcode/lv_qrcode.c **** /**********************
 188:lvgl/src/extra/libs/qrcode/lv_qrcode.c ****  *   STATIC FUNCTIONS
 189:lvgl/src/extra/libs/qrcode/lv_qrcode.c ****  **********************/
 190:lvgl/src/extra/libs/qrcode/lv_qrcode.c **** 
 191:lvgl/src/extra/libs/qrcode/lv_qrcode.c **** static void lv_qrcode_constructor(const lv_obj_class_t * class_p, lv_obj_t * obj)
 192:lvgl/src/extra/libs/qrcode/lv_qrcode.c **** {
 193:lvgl/src/extra/libs/qrcode/lv_qrcode.c ****     LV_UNUSED(class_p);
 194:lvgl/src/extra/libs/qrcode/lv_qrcode.c **** 
 195:lvgl/src/extra/libs/qrcode/lv_qrcode.c ****     uint32_t buf_size = LV_CANVAS_BUF_SIZE_INDEXED_1BIT(size_param, size_param);
 196:lvgl/src/extra/libs/qrcode/lv_qrcode.c ****     uint8_t * buf = lv_mem_alloc(buf_size);
 197:lvgl/src/extra/libs/qrcode/lv_qrcode.c ****     LV_ASSERT_MALLOC(buf);
 198:lvgl/src/extra/libs/qrcode/lv_qrcode.c ****     if(buf == NULL) return;
 199:lvgl/src/extra/libs/qrcode/lv_qrcode.c **** 
 200:lvgl/src/extra/libs/qrcode/lv_qrcode.c ****     lv_canvas_set_buffer(obj, buf, size_param, size_param, LV_IMG_CF_INDEXED_1BIT);
 201:lvgl/src/extra/libs/qrcode/lv_qrcode.c ****     lv_canvas_set_palette(obj, 0, dark_color_param);
 202:lvgl/src/extra/libs/qrcode/lv_qrcode.c ****     lv_canvas_set_palette(obj, 1, light_color_param);
ARM GAS  C:\usertemp\cc8fQZXg.s 			page 5


 203:lvgl/src/extra/libs/qrcode/lv_qrcode.c **** }
 204:lvgl/src/extra/libs/qrcode/lv_qrcode.c **** 
 205:lvgl/src/extra/libs/qrcode/lv_qrcode.c **** static void lv_qrcode_destructor(const lv_obj_class_t * class_p, lv_obj_t * obj)
 206:lvgl/src/extra/libs/qrcode/lv_qrcode.c **** {
  28              		.loc 1 206 1 view -0
  29              		.cfi_startproc
  30              		@ args = 0, pretend = 0, frame = 0
  31              		@ frame_needed = 0, uses_anonymous_args = 0
  32              		.loc 1 206 1 is_stmt 0 view .LVU1
  33 0000 10B5     		push	{r4, lr}
  34              	.LCFI0:
  35              		.cfi_def_cfa_offset 8
  36              		.cfi_offset 4, -8
  37              		.cfi_offset 14, -4
 207:lvgl/src/extra/libs/qrcode/lv_qrcode.c ****     LV_UNUSED(class_p);
  38              		.loc 1 207 5 is_stmt 1 view .LVU2
 208:lvgl/src/extra/libs/qrcode/lv_qrcode.c **** 
 209:lvgl/src/extra/libs/qrcode/lv_qrcode.c ****     lv_img_dsc_t * img = lv_canvas_get_img(obj);
  39              		.loc 1 209 5 view .LVU3
  40              		.loc 1 209 26 is_stmt 0 view .LVU4
  41 0002 0846     		mov	r0, r1
  42              	.LVL1:
  43              		.loc 1 209 26 view .LVU5
  44 0004 FFF7FEFF 		bl	lv_canvas_get_img
  45              	.LVL2:
  46              		.loc 1 209 26 view .LVU6
  47 0008 0446     		mov	r4, r0
  48              	.LVL3:
 210:lvgl/src/extra/libs/qrcode/lv_qrcode.c ****     lv_img_cache_invalidate_src(img);
  49              		.loc 1 210 5 is_stmt 1 view .LVU7
  50 000a FFF7FEFF 		bl	lv_img_cache_invalidate_src
  51              	.LVL4:
 211:lvgl/src/extra/libs/qrcode/lv_qrcode.c ****     lv_mem_free((void *)img->data);
  52              		.loc 1 211 5 view .LVU8
  53 000e A068     		ldr	r0, [r4, #8]
  54 0010 FFF7FEFF 		bl	lv_mem_free
  55              	.LVL5:
 212:lvgl/src/extra/libs/qrcode/lv_qrcode.c ****     img->data = NULL;
  56              		.loc 1 212 5 view .LVU9
  57              		.loc 1 212 15 is_stmt 0 view .LVU10
  58 0014 0023     		movs	r3, #0
  59 0016 A360     		str	r3, [r4, #8]
 213:lvgl/src/extra/libs/qrcode/lv_qrcode.c **** }
  60              		.loc 1 213 1 view .LVU11
  61 0018 10BD     		pop	{r4, pc}
  62              		.loc 1 213 1 view .LVU12
  63              		.cfi_endproc
  64              	.LFE200:
  66              		.section	.text.lv_qrcode_constructor,"ax",%progbits
  67              		.align	1
  68              		.syntax unified
  69              		.thumb
  70              		.thumb_func
  72              	lv_qrcode_constructor:
  73              	.LVL6:
  74              	.LFB199:
 192:lvgl/src/extra/libs/qrcode/lv_qrcode.c ****     LV_UNUSED(class_p);
ARM GAS  C:\usertemp\cc8fQZXg.s 			page 6


  75              		.loc 1 192 1 is_stmt 1 view -0
  76              		.cfi_startproc
  77              		@ args = 0, pretend = 0, frame = 0
  78              		@ frame_needed = 0, uses_anonymous_args = 0
 192:lvgl/src/extra/libs/qrcode/lv_qrcode.c ****     LV_UNUSED(class_p);
  79              		.loc 1 192 1 is_stmt 0 view .LVU14
  80 0000 10B5     		push	{r4, lr}
  81              	.LCFI1:
  82              		.cfi_def_cfa_offset 8
  83              		.cfi_offset 4, -8
  84              		.cfi_offset 14, -4
  85 0002 82B0     		sub	sp, sp, #8
  86              	.LCFI2:
  87              		.cfi_def_cfa_offset 16
  88 0004 0C46     		mov	r4, r1
 193:lvgl/src/extra/libs/qrcode/lv_qrcode.c **** 
  89              		.loc 1 193 5 is_stmt 1 view .LVU15
 195:lvgl/src/extra/libs/qrcode/lv_qrcode.c ****     uint8_t * buf = lv_mem_alloc(buf_size);
  90              		.loc 1 195 5 view .LVU16
 195:lvgl/src/extra/libs/qrcode/lv_qrcode.c ****     uint8_t * buf = lv_mem_alloc(buf_size);
  91              		.loc 1 195 25 is_stmt 0 view .LVU17
  92 0006 144B     		ldr	r3, .L9
  93 0008 B3F90030 		ldrsh	r3, [r3]
  94 000c 1A46     		mov	r2, r3
  95 000e 002B     		cmp	r3, #0
  96 0010 1FDB     		blt	.L8
  97              	.L4:
  98 0012 D210     		asrs	r2, r2, #3
  99 0014 02FB0333 		mla	r3, r2, r3, r3
 100              	.LVL7:
 196:lvgl/src/extra/libs/qrcode/lv_qrcode.c ****     LV_ASSERT_MALLOC(buf);
 101              		.loc 1 196 5 is_stmt 1 view .LVU18
 196:lvgl/src/extra/libs/qrcode/lv_qrcode.c ****     LV_ASSERT_MALLOC(buf);
 102              		.loc 1 196 21 is_stmt 0 view .LVU19
 103 0018 03F10800 		add	r0, r3, #8
 104              	.LVL8:
 196:lvgl/src/extra/libs/qrcode/lv_qrcode.c ****     LV_ASSERT_MALLOC(buf);
 105              		.loc 1 196 21 view .LVU20
 106 001c FFF7FEFF 		bl	lv_mem_alloc
 107              	.LVL9:
 197:lvgl/src/extra/libs/qrcode/lv_qrcode.c ****     if(buf == NULL) return;
 108              		.loc 1 197 5 is_stmt 1 view .LVU21
 197:lvgl/src/extra/libs/qrcode/lv_qrcode.c ****     if(buf == NULL) return;
 109              		.loc 1 197 5 view .LVU22
 110 0020 0146     		mov	r1, r0
 111 0022 C0B1     		cbz	r0, .L6
 197:lvgl/src/extra/libs/qrcode/lv_qrcode.c ****     if(buf == NULL) return;
 112              		.loc 1 197 5 discriminator 2 view .LVU23
 197:lvgl/src/extra/libs/qrcode/lv_qrcode.c ****     if(buf == NULL) return;
 113              		.loc 1 197 26 discriminator 2 view .LVU24
 198:lvgl/src/extra/libs/qrcode/lv_qrcode.c **** 
 114              		.loc 1 198 5 view .LVU25
 200:lvgl/src/extra/libs/qrcode/lv_qrcode.c ****     lv_canvas_set_palette(obj, 0, dark_color_param);
 115              		.loc 1 200 5 view .LVU26
 116 0024 0C4B     		ldr	r3, .L9
 117 0026 B3F90020 		ldrsh	r2, [r3]
 118 002a 0723     		movs	r3, #7
ARM GAS  C:\usertemp\cc8fQZXg.s 			page 7


 119 002c 0093     		str	r3, [sp]
 120 002e 1346     		mov	r3, r2
 121 0030 2046     		mov	r0, r4
 122              	.LVL10:
 200:lvgl/src/extra/libs/qrcode/lv_qrcode.c ****     lv_canvas_set_palette(obj, 0, dark_color_param);
 123              		.loc 1 200 5 is_stmt 0 view .LVU27
 124 0032 FFF7FEFF 		bl	lv_canvas_set_buffer
 125              	.LVL11:
 201:lvgl/src/extra/libs/qrcode/lv_qrcode.c ****     lv_canvas_set_palette(obj, 1, light_color_param);
 126              		.loc 1 201 5 is_stmt 1 view .LVU28
 127 0036 094B     		ldr	r3, .L9+4
 128 0038 1A88     		ldrh	r2, [r3]
 129 003a 0021     		movs	r1, #0
 130 003c 2046     		mov	r0, r4
 131 003e FFF7FEFF 		bl	lv_canvas_set_palette
 132              	.LVL12:
 202:lvgl/src/extra/libs/qrcode/lv_qrcode.c **** }
 133              		.loc 1 202 5 view .LVU29
 134 0042 074B     		ldr	r3, .L9+8
 135 0044 1A88     		ldrh	r2, [r3]
 136 0046 0121     		movs	r1, #1
 137 0048 2046     		mov	r0, r4
 138 004a FFF7FEFF 		bl	lv_canvas_set_palette
 139              	.LVL13:
 203:lvgl/src/extra/libs/qrcode/lv_qrcode.c **** 
 140              		.loc 1 203 1 is_stmt 0 view .LVU30
 141 004e 02B0     		add	sp, sp, #8
 142              	.LCFI3:
 143              		.cfi_remember_state
 144              		.cfi_def_cfa_offset 8
 145              		@ sp needed
 146 0050 10BD     		pop	{r4, pc}
 147              	.LVL14:
 148              	.L8:
 149              	.LCFI4:
 150              		.cfi_restore_state
 195:lvgl/src/extra/libs/qrcode/lv_qrcode.c ****     uint8_t * buf = lv_mem_alloc(buf_size);
 151              		.loc 1 195 25 view .LVU31
 152 0052 DA1D     		adds	r2, r3, #7
 153 0054 DDE7     		b	.L4
 154              	.LVL15:
 155              	.L6:
 197:lvgl/src/extra/libs/qrcode/lv_qrcode.c ****     if(buf == NULL) return;
 156              		.loc 1 197 5 is_stmt 1 discriminator 1 view .LVU32
 197:lvgl/src/extra/libs/qrcode/lv_qrcode.c ****     if(buf == NULL) return;
 157              		.loc 1 197 5 discriminator 1 view .LVU33
 197:lvgl/src/extra/libs/qrcode/lv_qrcode.c ****     if(buf == NULL) return;
 158              		.loc 1 197 5 discriminator 1 view .LVU34
 197:lvgl/src/extra/libs/qrcode/lv_qrcode.c ****     if(buf == NULL) return;
 159              		.loc 1 197 5 discriminator 1 view .LVU35
 197:lvgl/src/extra/libs/qrcode/lv_qrcode.c ****     if(buf == NULL) return;
 160              		.loc 1 197 5 discriminator 1 view .LVU36
 161 0056 FEE7     		b	.L6
 162              	.L10:
 163              		.align	2
 164              	.L9:
 165 0058 00000000 		.word	size_param
ARM GAS  C:\usertemp\cc8fQZXg.s 			page 8


 166 005c 00000000 		.word	dark_color_param
 167 0060 00000000 		.word	light_color_param
 168              		.cfi_endproc
 169              	.LFE199:
 171              		.section	.text.lv_qrcode_create,"ax",%progbits
 172              		.align	1
 173              		.global	lv_qrcode_create
 174              		.syntax unified
 175              		.thumb
 176              		.thumb_func
 178              	lv_qrcode_create:
 179              	.LVL16:
 180              	.LFB196:
  60:lvgl/src/extra/libs/qrcode/lv_qrcode.c ****     LV_LOG_INFO("begin");
 181              		.loc 1 60 1 view -0
 182              		.cfi_startproc
 183              		@ args = 0, pretend = 0, frame = 0
 184              		@ frame_needed = 0, uses_anonymous_args = 0
  60:lvgl/src/extra/libs/qrcode/lv_qrcode.c ****     LV_LOG_INFO("begin");
 185              		.loc 1 60 1 is_stmt 0 view .LVU38
 186 0000 10B5     		push	{r4, lr}
 187              	.LCFI5:
 188              		.cfi_def_cfa_offset 8
 189              		.cfi_offset 4, -8
 190              		.cfi_offset 14, -4
  61:lvgl/src/extra/libs/qrcode/lv_qrcode.c ****     size_param = size;
 191              		.loc 1 61 5 is_stmt 1 view .LVU39
  61:lvgl/src/extra/libs/qrcode/lv_qrcode.c ****     size_param = size;
 192              		.loc 1 61 5 view .LVU40
  61:lvgl/src/extra/libs/qrcode/lv_qrcode.c ****     size_param = size;
 193              		.loc 1 61 5 view .LVU41
  62:lvgl/src/extra/libs/qrcode/lv_qrcode.c ****     light_color_param = light_color;
 194              		.loc 1 62 5 view .LVU42
  62:lvgl/src/extra/libs/qrcode/lv_qrcode.c ****     light_color_param = light_color;
 195              		.loc 1 62 16 is_stmt 0 view .LVU43
 196 0002 074C     		ldr	r4, .L13
 197 0004 2180     		strh	r1, [r4]	@ movhi
  63:lvgl/src/extra/libs/qrcode/lv_qrcode.c ****     dark_color_param = dark_color;
 198              		.loc 1 63 5 is_stmt 1 view .LVU44
  63:lvgl/src/extra/libs/qrcode/lv_qrcode.c ****     dark_color_param = dark_color;
 199              		.loc 1 63 23 is_stmt 0 view .LVU45
 200 0006 0749     		ldr	r1, .L13+4
 201              	.LVL17:
  63:lvgl/src/extra/libs/qrcode/lv_qrcode.c ****     dark_color_param = dark_color;
 202              		.loc 1 63 23 view .LVU46
 203 0008 0B80     		strh	r3, [r1]	@ movhi
  64:lvgl/src/extra/libs/qrcode/lv_qrcode.c **** 
 204              		.loc 1 64 5 is_stmt 1 view .LVU47
  64:lvgl/src/extra/libs/qrcode/lv_qrcode.c **** 
 205              		.loc 1 64 22 is_stmt 0 view .LVU48
 206 000a 074B     		ldr	r3, .L13+8
 207              	.LVL18:
  64:lvgl/src/extra/libs/qrcode/lv_qrcode.c **** 
 208              		.loc 1 64 22 view .LVU49
 209 000c 1A80     		strh	r2, [r3]	@ movhi
  66:lvgl/src/extra/libs/qrcode/lv_qrcode.c ****     lv_obj_class_init_obj(obj);
 210              		.loc 1 66 5 is_stmt 1 view .LVU50
ARM GAS  C:\usertemp\cc8fQZXg.s 			page 9


  66:lvgl/src/extra/libs/qrcode/lv_qrcode.c ****     lv_obj_class_init_obj(obj);
 211              		.loc 1 66 22 is_stmt 0 view .LVU51
 212 000e 0146     		mov	r1, r0
 213 0010 0648     		ldr	r0, .L13+12
 214              	.LVL19:
  66:lvgl/src/extra/libs/qrcode/lv_qrcode.c ****     lv_obj_class_init_obj(obj);
 215              		.loc 1 66 22 view .LVU52
 216 0012 FFF7FEFF 		bl	lv_obj_class_create_obj
 217              	.LVL20:
  66:lvgl/src/extra/libs/qrcode/lv_qrcode.c ****     lv_obj_class_init_obj(obj);
 218              		.loc 1 66 22 view .LVU53
 219 0016 0446     		mov	r4, r0
 220              	.LVL21:
  67:lvgl/src/extra/libs/qrcode/lv_qrcode.c ****     return obj;
 221              		.loc 1 67 5 is_stmt 1 view .LVU54
 222 0018 FFF7FEFF 		bl	lv_obj_class_init_obj
 223              	.LVL22:
  68:lvgl/src/extra/libs/qrcode/lv_qrcode.c **** 
 224              		.loc 1 68 5 view .LVU55
  70:lvgl/src/extra/libs/qrcode/lv_qrcode.c **** 
 225              		.loc 1 70 1 is_stmt 0 view .LVU56
 226 001c 2046     		mov	r0, r4
 227 001e 10BD     		pop	{r4, pc}
 228              	.LVL23:
 229              	.L14:
  70:lvgl/src/extra/libs/qrcode/lv_qrcode.c **** 
 230              		.loc 1 70 1 view .LVU57
 231              		.align	2
 232              	.L13:
 233 0020 00000000 		.word	size_param
 234 0024 00000000 		.word	light_color_param
 235 0028 00000000 		.word	dark_color_param
 236 002c 00000000 		.word	lv_qrcode_class
 237              		.cfi_endproc
 238              	.LFE196:
 240              		.section	.text.lv_qrcode_update,"ax",%progbits
 241              		.align	1
 242              		.global	lv_qrcode_update
 243              		.syntax unified
 244              		.thumb
 245              		.thumb_func
 247              	lv_qrcode_update:
 248              	.LVL24:
 249              	.LFB197:
  80:lvgl/src/extra/libs/qrcode/lv_qrcode.c ****     lv_color_t c;
 250              		.loc 1 80 1 is_stmt 1 view -0
 251              		.cfi_startproc
 252              		@ args = 0, pretend = 0, frame = 32
 253              		@ frame_needed = 0, uses_anonymous_args = 0
  80:lvgl/src/extra/libs/qrcode/lv_qrcode.c ****     lv_color_t c;
 254              		.loc 1 80 1 is_stmt 0 view .LVU59
 255 0000 2DE9F04F 		push	{r4, r5, r6, r7, r8, r9, r10, fp, lr}
 256              	.LCFI6:
 257              		.cfi_def_cfa_offset 36
 258              		.cfi_offset 4, -36
 259              		.cfi_offset 5, -32
 260              		.cfi_offset 6, -28
ARM GAS  C:\usertemp\cc8fQZXg.s 			page 10


 261              		.cfi_offset 7, -24
 262              		.cfi_offset 8, -20
 263              		.cfi_offset 9, -16
 264              		.cfi_offset 10, -12
 265              		.cfi_offset 11, -8
 266              		.cfi_offset 14, -4
 267 0004 8DB0     		sub	sp, sp, #52
 268              	.LCFI7:
 269              		.cfi_def_cfa_offset 88
 270 0006 0446     		mov	r4, r0
 271 0008 0690     		str	r0, [sp, #24]
 272 000a 0E46     		mov	r6, r1
 273 000c 1546     		mov	r5, r2
  81:lvgl/src/extra/libs/qrcode/lv_qrcode.c ****     c.full = 1;
 274              		.loc 1 81 5 is_stmt 1 view .LVU60
  82:lvgl/src/extra/libs/qrcode/lv_qrcode.c ****     lv_canvas_fill_bg(qrcode, c, LV_OPA_COVER);
 275              		.loc 1 82 5 view .LVU61
  83:lvgl/src/extra/libs/qrcode/lv_qrcode.c **** 
 276              		.loc 1 83 5 view .LVU62
 277 000e FF22     		movs	r2, #255
 278              	.LVL25:
  83:lvgl/src/extra/libs/qrcode/lv_qrcode.c **** 
 279              		.loc 1 83 5 is_stmt 0 view .LVU63
 280 0010 4FF00101 		mov	r1, #1	@ movhi
 281              	.LVL26:
  83:lvgl/src/extra/libs/qrcode/lv_qrcode.c **** 
 282              		.loc 1 83 5 view .LVU64
 283 0014 FFF7FEFF 		bl	lv_canvas_fill_bg
 284              	.LVL27:
  85:lvgl/src/extra/libs/qrcode/lv_qrcode.c **** 
 285              		.loc 1 85 5 is_stmt 1 view .LVU65
  85:lvgl/src/extra/libs/qrcode/lv_qrcode.c **** 
 286              		.loc 1 85 7 is_stmt 0 view .LVU66
 287 0018 40F64E73 		movw	r3, #3918
 288 001c 9D42     		cmp	r5, r3
 289 001e 03D9     		bls	.L41
  85:lvgl/src/extra/libs/qrcode/lv_qrcode.c **** 
 290              		.loc 1 85 52 discriminator 1 view .LVU67
 291 0020 0020     		movs	r0, #0
 292              	.LVL28:
 293              	.L16:
 179:lvgl/src/extra/libs/qrcode/lv_qrcode.c **** 
 294              		.loc 1 179 1 view .LVU68
 295 0022 0DB0     		add	sp, sp, #52
 296              	.LCFI8:
 297              		.cfi_remember_state
 298              		.cfi_def_cfa_offset 36
 299              		@ sp needed
 300 0024 BDE8F08F 		pop	{r4, r5, r6, r7, r8, r9, r10, fp, pc}
 301              	.LVL29:
 302              	.L41:
 303              	.LCFI9:
 304              		.cfi_restore_state
  87:lvgl/src/extra/libs/qrcode/lv_qrcode.c **** 
 305              		.loc 1 87 5 is_stmt 1 view .LVU69
  87:lvgl/src/extra/libs/qrcode/lv_qrcode.c **** 
 306              		.loc 1 87 29 is_stmt 0 view .LVU70
ARM GAS  C:\usertemp\cc8fQZXg.s 			page 11


 307 0028 2046     		mov	r0, r4
 308 002a FFF7FEFF 		bl	lv_canvas_get_img
 309              	.LVL30:
 310 002e 0446     		mov	r4, r0
 311              	.LVL31:
  89:lvgl/src/extra/libs/qrcode/lv_qrcode.c ****     if(qr_version <= 0) return LV_RES_INV;
 312              		.loc 1 89 5 is_stmt 1 view .LVU71
  89:lvgl/src/extra/libs/qrcode/lv_qrcode.c ****     if(qr_version <= 0) return LV_RES_INV;
 313              		.loc 1 89 26 is_stmt 0 view .LVU72
 314 0030 2946     		mov	r1, r5
 315 0032 0120     		movs	r0, #1
 316              	.LVL32:
  89:lvgl/src/extra/libs/qrcode/lv_qrcode.c ****     if(qr_version <= 0) return LV_RES_INV;
 317              		.loc 1 89 26 view .LVU73
 318 0034 FFF7FEFF 		bl	qrcodegen_getMinFitVersion
 319              	.LVL33:
  90:lvgl/src/extra/libs/qrcode/lv_qrcode.c ****     int32_t qr_size = qrcodegen_version2size(qr_version);
 320              		.loc 1 90 5 is_stmt 1 view .LVU74
  90:lvgl/src/extra/libs/qrcode/lv_qrcode.c ****     int32_t qr_size = qrcodegen_version2size(qr_version);
 321              		.loc 1 90 7 is_stmt 0 view .LVU75
 322 0038 071E     		subs	r7, r0, #0
 323 003a 40F3DA80 		ble	.L35
  91:lvgl/src/extra/libs/qrcode/lv_qrcode.c ****     if(qr_size <= 0) return LV_RES_INV;
 324              		.loc 1 91 5 is_stmt 1 view .LVU76
  91:lvgl/src/extra/libs/qrcode/lv_qrcode.c ****     if(qr_size <= 0) return LV_RES_INV;
 325              		.loc 1 91 23 is_stmt 0 view .LVU77
 326 003e 3846     		mov	r0, r7
  91:lvgl/src/extra/libs/qrcode/lv_qrcode.c ****     if(qr_size <= 0) return LV_RES_INV;
 327              		.loc 1 91 23 view .LVU78
 328 0040 FFF7FEFF 		bl	qrcodegen_version2size
 329              	.LVL34:
  92:lvgl/src/extra/libs/qrcode/lv_qrcode.c ****     int32_t scale = imgdsc->header.w / qr_size;
 330              		.loc 1 92 5 is_stmt 1 view .LVU79
  92:lvgl/src/extra/libs/qrcode/lv_qrcode.c ****     int32_t scale = imgdsc->header.w / qr_size;
 331              		.loc 1 92 7 is_stmt 0 view .LVU80
 332 0044 0028     		cmp	r0, #0
  92:lvgl/src/extra/libs/qrcode/lv_qrcode.c ****     int32_t scale = imgdsc->header.w / qr_size;
 333              		.loc 1 92 7 view .LVU81
 334 0046 40F3D680 		ble	.L36
  93:lvgl/src/extra/libs/qrcode/lv_qrcode.c ****     if(scale <= 0) return LV_RES_INV;
 335              		.loc 1 93 5 is_stmt 1 view .LVU82
  93:lvgl/src/extra/libs/qrcode/lv_qrcode.c ****     if(scale <= 0) return LV_RES_INV;
 336              		.loc 1 93 35 is_stmt 0 view .LVU83
 337 004a 2368     		ldr	r3, [r4]
 338 004c C3F38A23 		ubfx	r3, r3, #10, #11
  93:lvgl/src/extra/libs/qrcode/lv_qrcode.c ****     if(scale <= 0) return LV_RES_INV;
 339              		.loc 1 93 13 view .LVU84
 340 0050 93FBF0F2 		sdiv	r2, r3, r0
 341              	.LVL35:
  94:lvgl/src/extra/libs/qrcode/lv_qrcode.c ****     int32_t remain = imgdsc->header.w % qr_size;
 342              		.loc 1 94 5 is_stmt 1 view .LVU85
  94:lvgl/src/extra/libs/qrcode/lv_qrcode.c ****     int32_t remain = imgdsc->header.w % qr_size;
 343              		.loc 1 94 7 is_stmt 0 view .LVU86
 344 0054 002A     		cmp	r2, #0
 345 0056 40F3D080 		ble	.L37
  95:lvgl/src/extra/libs/qrcode/lv_qrcode.c **** 
 346              		.loc 1 95 5 is_stmt 1 view .LVU87
ARM GAS  C:\usertemp\cc8fQZXg.s 			page 12


  95:lvgl/src/extra/libs/qrcode/lv_qrcode.c **** 
 347              		.loc 1 95 13 is_stmt 0 view .LVU88
 348 005a 00FB1233 		mls	r3, r0, r2, r3
 349              	.LVL36:
  98:lvgl/src/extra/libs/qrcode/lv_qrcode.c ****     if(version_extend && qr_version < qrcodegen_VERSION_MAX) {
 350              		.loc 1 98 5 is_stmt 1 view .LVU89
  98:lvgl/src/extra/libs/qrcode/lv_qrcode.c ****     if(version_extend && qr_version < qrcodegen_VERSION_MAX) {
 351              		.loc 1 98 47 is_stmt 0 view .LVU90
 352 005e 9200     		lsls	r2, r2, #2
 353              	.LVL37:
  98:lvgl/src/extra/libs/qrcode/lv_qrcode.c ****     if(version_extend && qr_version < qrcodegen_VERSION_MAX) {
 354              		.loc 1 98 38 view .LVU91
 355 0060 93FBF2F3 		sdiv	r3, r3, r2
 356              	.LVL38:
  99:lvgl/src/extra/libs/qrcode/lv_qrcode.c ****         qr_version = qr_version + version_extend > qrcodegen_VERSION_MAX ?
 357              		.loc 1 99 5 is_stmt 1 view .LVU92
  99:lvgl/src/extra/libs/qrcode/lv_qrcode.c ****         qr_version = qr_version + version_extend > qrcodegen_VERSION_MAX ?
 358              		.loc 1 99 23 is_stmt 0 view .LVU93
 359 0064 1A1E     		subs	r2, r3, #0
 360 0066 18BF     		it	ne
 361 0068 0122     		movne	r2, #1
 362 006a 272F     		cmp	r7, #39
 363 006c C8BF     		it	gt
 364 006e 0022     		movgt	r2, #0
  99:lvgl/src/extra/libs/qrcode/lv_qrcode.c ****         qr_version = qr_version + version_extend > qrcodegen_VERSION_MAX ?
 365              		.loc 1 99 7 view .LVU94
 366 0070 22B1     		cbz	r2, .L17
 100:lvgl/src/extra/libs/qrcode/lv_qrcode.c ****                      qrcodegen_VERSION_MAX : qr_version + version_extend;
 367              		.loc 1 100 9 is_stmt 1 view .LVU95
 100:lvgl/src/extra/libs/qrcode/lv_qrcode.c ****                      qrcodegen_VERSION_MAX : qr_version + version_extend;
 368              		.loc 1 100 33 is_stmt 0 view .LVU96
 369 0072 3B44     		add	r3, r3, r7
 370              	.LVL39:
 100:lvgl/src/extra/libs/qrcode/lv_qrcode.c ****                      qrcodegen_VERSION_MAX : qr_version + version_extend;
 371              		.loc 1 100 20 view .LVU97
 372 0074 282B     		cmp	r3, #40
 373 0076 28BF     		it	cs
 374 0078 2823     		movcs	r3, #40
 375 007a 1F46     		mov	r7, r3
 376              	.LVL40:
 377              	.L17:
 104:lvgl/src/extra/libs/qrcode/lv_qrcode.c ****     LV_ASSERT_MALLOC(qr0);
 378              		.loc 1 104 5 is_stmt 1 view .LVU98
 104:lvgl/src/extra/libs/qrcode/lv_qrcode.c ****     LV_ASSERT_MALLOC(qr0);
 379              		.loc 1 104 34 is_stmt 0 view .LVU99
 380 007c BB00     		lsls	r3, r7, #2
 381 007e 1133     		adds	r3, r3, #17
 382 0080 03FB03F3 		mul	r3, r3, r3
 383 0084 0733     		adds	r3, r3, #7
 384 0086 3CD4     		bmi	.L42
 385              	.L18:
 386 0088 DB10     		asrs	r3, r3, #3
 387 008a 03F10108 		add	r8, r3, #1
 104:lvgl/src/extra/libs/qrcode/lv_qrcode.c ****     LV_ASSERT_MALLOC(qr0);
 388              		.loc 1 104 21 view .LVU100
 389 008e 4046     		mov	r0, r8
 390              	.LVL41:
ARM GAS  C:\usertemp\cc8fQZXg.s 			page 13


 104:lvgl/src/extra/libs/qrcode/lv_qrcode.c ****     LV_ASSERT_MALLOC(qr0);
 391              		.loc 1 104 21 view .LVU101
 392 0090 FFF7FEFF 		bl	lv_mem_alloc
 393              	.LVL42:
 105:lvgl/src/extra/libs/qrcode/lv_qrcode.c ****     uint8_t * data_tmp = lv_mem_alloc(qrcodegen_BUFFER_LEN_FOR_VERSION(qr_version));
 394              		.loc 1 105 5 is_stmt 1 view .LVU102
 105:lvgl/src/extra/libs/qrcode/lv_qrcode.c ****     uint8_t * data_tmp = lv_mem_alloc(qrcodegen_BUFFER_LEN_FOR_VERSION(qr_version));
 395              		.loc 1 105 5 view .LVU103
 396 0094 0590     		str	r0, [sp, #20]
 397 0096 0028     		cmp	r0, #0
 398 0098 35D0     		beq	.L20
 105:lvgl/src/extra/libs/qrcode/lv_qrcode.c ****     uint8_t * data_tmp = lv_mem_alloc(qrcodegen_BUFFER_LEN_FOR_VERSION(qr_version));
 399              		.loc 1 105 5 discriminator 2 view .LVU104
 105:lvgl/src/extra/libs/qrcode/lv_qrcode.c ****     uint8_t * data_tmp = lv_mem_alloc(qrcodegen_BUFFER_LEN_FOR_VERSION(qr_version));
 400              		.loc 1 105 26 discriminator 2 view .LVU105
 106:lvgl/src/extra/libs/qrcode/lv_qrcode.c ****     LV_ASSERT_MALLOC(data_tmp);
 401              		.loc 1 106 5 view .LVU106
 106:lvgl/src/extra/libs/qrcode/lv_qrcode.c ****     LV_ASSERT_MALLOC(data_tmp);
 402              		.loc 1 106 26 is_stmt 0 view .LVU107
 403 009a 4046     		mov	r0, r8
 404              	.LVL43:
 106:lvgl/src/extra/libs/qrcode/lv_qrcode.c ****     LV_ASSERT_MALLOC(data_tmp);
 405              		.loc 1 106 26 view .LVU108
 406 009c FFF7FEFF 		bl	lv_mem_alloc
 407              	.LVL44:
 107:lvgl/src/extra/libs/qrcode/lv_qrcode.c ****     lv_memcpy(data_tmp, data, data_len);
 408              		.loc 1 107 5 is_stmt 1 view .LVU109
 107:lvgl/src/extra/libs/qrcode/lv_qrcode.c ****     lv_memcpy(data_tmp, data, data_len);
 409              		.loc 1 107 5 view .LVU110
 410 00a0 0B90     		str	r0, [sp, #44]
 411 00a2 88B3     		cbz	r0, .L22
 107:lvgl/src/extra/libs/qrcode/lv_qrcode.c ****     lv_memcpy(data_tmp, data, data_len);
 412              		.loc 1 107 5 discriminator 2 view .LVU111
 107:lvgl/src/extra/libs/qrcode/lv_qrcode.c ****     lv_memcpy(data_tmp, data, data_len);
 413              		.loc 1 107 31 discriminator 2 view .LVU112
 108:lvgl/src/extra/libs/qrcode/lv_qrcode.c **** 
 414              		.loc 1 108 5 view .LVU113
 415 00a4 2A46     		mov	r2, r5
 416 00a6 3146     		mov	r1, r6
 417 00a8 0B9E     		ldr	r6, [sp, #44]
 418              	.LVL45:
 108:lvgl/src/extra/libs/qrcode/lv_qrcode.c **** 
 419              		.loc 1 108 5 is_stmt 0 view .LVU114
 420 00aa 3046     		mov	r0, r6
 108:lvgl/src/extra/libs/qrcode/lv_qrcode.c **** 
 421              		.loc 1 108 5 view .LVU115
 422 00ac FFF7FEFF 		bl	lv_memcpy
 423              	.LVL46:
 110:lvgl/src/extra/libs/qrcode/lv_qrcode.c ****                                      qr0, qrcodegen_Ecc_MEDIUM,
 424              		.loc 1 110 5 is_stmt 1 view .LVU116
 110:lvgl/src/extra/libs/qrcode/lv_qrcode.c ****                                      qr0, qrcodegen_Ecc_MEDIUM,
 425              		.loc 1 110 15 is_stmt 0 view .LVU117
 426 00b0 0123     		movs	r3, #1
 427 00b2 0393     		str	r3, [sp, #12]
 428 00b4 4FF0FF32 		mov	r2, #-1
 429 00b8 0292     		str	r2, [sp, #8]
 430 00ba 0197     		str	r7, [sp, #4]
ARM GAS  C:\usertemp\cc8fQZXg.s 			page 14


 431 00bc 0097     		str	r7, [sp]
 432 00be 059A     		ldr	r2, [sp, #20]
 433 00c0 2946     		mov	r1, r5
 434 00c2 3046     		mov	r0, r6
 435 00c4 FFF7FEFF 		bl	qrcodegen_encodeBinary
 436              	.LVL47:
 115:lvgl/src/extra/libs/qrcode/lv_qrcode.c ****         lv_mem_free(qr0);
 437              		.loc 1 115 5 is_stmt 1 view .LVU118
 115:lvgl/src/extra/libs/qrcode/lv_qrcode.c ****         lv_mem_free(qr0);
 438              		.loc 1 115 7 is_stmt 0 view .LVU119
 439 00c8 0990     		str	r0, [sp, #36]
 440 00ca F0B1     		cbz	r0, .L43
 121:lvgl/src/extra/libs/qrcode/lv_qrcode.c ****     qr_size = qrcodegen_getSize(qr0);
 441              		.loc 1 121 5 is_stmt 1 view .LVU120
 121:lvgl/src/extra/libs/qrcode/lv_qrcode.c ****     qr_size = qrcodegen_getSize(qr0);
 442              		.loc 1 121 38 is_stmt 0 view .LVU121
 443 00cc 2568     		ldr	r5, [r4]
 444              	.LVL48:
 121:lvgl/src/extra/libs/qrcode/lv_qrcode.c ****     qr_size = qrcodegen_getSize(qr0);
 445              		.loc 1 121 38 view .LVU122
 446 00ce C5F38A25 		ubfx	r5, r5, #10, #11
 447              	.LVL49:
 122:lvgl/src/extra/libs/qrcode/lv_qrcode.c ****     scale = obj_w / qr_size;
 448              		.loc 1 122 5 is_stmt 1 view .LVU123
 122:lvgl/src/extra/libs/qrcode/lv_qrcode.c ****     scale = obj_w / qr_size;
 449              		.loc 1 122 15 is_stmt 0 view .LVU124
 450 00d2 0598     		ldr	r0, [sp, #20]
 451              	.LVL50:
 122:lvgl/src/extra/libs/qrcode/lv_qrcode.c ****     scale = obj_w / qr_size;
 452              		.loc 1 122 15 view .LVU125
 453 00d4 FFF7FEFF 		bl	qrcodegen_getSize
 454              	.LVL51:
 123:lvgl/src/extra/libs/qrcode/lv_qrcode.c ****     int scaled = qr_size * scale;
 455              		.loc 1 123 5 is_stmt 1 view .LVU126
 123:lvgl/src/extra/libs/qrcode/lv_qrcode.c ****     int scaled = qr_size * scale;
 456              		.loc 1 123 11 is_stmt 0 view .LVU127
 457 00d8 95FBF0F9 		sdiv	r9, r5, r0
 458              	.LVL52:
 124:lvgl/src/extra/libs/qrcode/lv_qrcode.c ****     int margin = (obj_w - scaled) / 2;
 459              		.loc 1 124 5 is_stmt 1 view .LVU128
 124:lvgl/src/extra/libs/qrcode/lv_qrcode.c ****     int margin = (obj_w - scaled) / 2;
 460              		.loc 1 124 9 is_stmt 0 view .LVU129
 461 00dc 09FB00F1 		mul	r1, r9, r0
 462              	.LVL53:
 125:lvgl/src/extra/libs/qrcode/lv_qrcode.c ****     uint8_t * buf_u8 = (uint8_t *)imgdsc->data + 8;    /*+8 skip the palette*/
 463              		.loc 1 125 5 is_stmt 1 view .LVU130
 125:lvgl/src/extra/libs/qrcode/lv_qrcode.c ****     uint8_t * buf_u8 = (uint8_t *)imgdsc->data + 8;    /*+8 skip the palette*/
 464              		.loc 1 125 9 is_stmt 0 view .LVU131
 465 00e0 6D1A     		subs	r5, r5, r1
 466 00e2 1AD4     		bmi	.L44
 467              	.L24:
 468 00e4 4FEA6508 		asr	r8, r5, #1
 469              	.LVL54:
 126:lvgl/src/extra/libs/qrcode/lv_qrcode.c **** 
 470              		.loc 1 126 5 is_stmt 1 view .LVU132
 126:lvgl/src/extra/libs/qrcode/lv_qrcode.c **** 
 471              		.loc 1 126 41 is_stmt 0 view .LVU133
ARM GAS  C:\usertemp\cc8fQZXg.s 			page 15


 472 00e8 A368     		ldr	r3, [r4, #8]
 126:lvgl/src/extra/libs/qrcode/lv_qrcode.c **** 
 473              		.loc 1 126 15 view .LVU134
 474 00ea 03F1080A 		add	r10, r3, #8
 475              	.LVL55:
 131:lvgl/src/extra/libs/qrcode/lv_qrcode.c ****     int y;
 476              		.loc 1 131 5 is_stmt 1 view .LVU135
 131:lvgl/src/extra/libs/qrcode/lv_qrcode.c ****     int y;
 477              		.loc 1 131 44 is_stmt 0 view .LVU136
 478 00ee 2768     		ldr	r7, [r4]
 479              	.LVL56:
 131:lvgl/src/extra/libs/qrcode/lv_qrcode.c ****     int y;
 480              		.loc 1 131 44 view .LVU137
 481 00f0 C7F38A27 		ubfx	r7, r7, #10, #11
 131:lvgl/src/extra/libs/qrcode/lv_qrcode.c ****     int y;
 482              		.loc 1 131 47 view .LVU138
 483 00f4 0737     		adds	r7, r7, #7
 131:lvgl/src/extra/libs/qrcode/lv_qrcode.c ****     int y;
 484              		.loc 1 131 52 view .LVU139
 485 00f6 FF10     		asrs	r7, r7, #3
 486              	.LVL57:
 132:lvgl/src/extra/libs/qrcode/lv_qrcode.c ****     for(y = margin; y < scaled + margin; y += scale) {
 487              		.loc 1 132 5 is_stmt 1 view .LVU140
 133:lvgl/src/extra/libs/qrcode/lv_qrcode.c ****         uint8_t b = 0;
 488              		.loc 1 133 5 view .LVU141
 133:lvgl/src/extra/libs/qrcode/lv_qrcode.c ****         uint8_t b = 0;
 489              		.loc 1 133 5 is_stmt 0 view .LVU142
 490 00f8 0A91     		str	r1, [sp, #40]
 491 00fa 5346     		mov	r3, r10
 492 00fc C246     		mov	r10, r8
 493              	.LVL58:
 133:lvgl/src/extra/libs/qrcode/lv_qrcode.c ****         uint8_t b = 0;
 494              		.loc 1 133 5 view .LVU143
 495 00fe 9B46     		mov	fp, r3
 496 0100 60E0     		b	.L25
 497              	.LVL59:
 498              	.L42:
 104:lvgl/src/extra/libs/qrcode/lv_qrcode.c ****     LV_ASSERT_MALLOC(qr0);
 499              		.loc 1 104 34 view .LVU144
 500 0102 0733     		adds	r3, r3, #7
 501 0104 C0E7     		b	.L18
 502              	.LVL60:
 503              	.L20:
 105:lvgl/src/extra/libs/qrcode/lv_qrcode.c ****     uint8_t * data_tmp = lv_mem_alloc(qrcodegen_BUFFER_LEN_FOR_VERSION(qr_version));
 504              		.loc 1 105 5 is_stmt 1 discriminator 1 view .LVU145
 105:lvgl/src/extra/libs/qrcode/lv_qrcode.c ****     uint8_t * data_tmp = lv_mem_alloc(qrcodegen_BUFFER_LEN_FOR_VERSION(qr_version));
 505              		.loc 1 105 5 discriminator 1 view .LVU146
 105:lvgl/src/extra/libs/qrcode/lv_qrcode.c ****     uint8_t * data_tmp = lv_mem_alloc(qrcodegen_BUFFER_LEN_FOR_VERSION(qr_version));
 506              		.loc 1 105 5 discriminator 1 view .LVU147
 105:lvgl/src/extra/libs/qrcode/lv_qrcode.c ****     uint8_t * data_tmp = lv_mem_alloc(qrcodegen_BUFFER_LEN_FOR_VERSION(qr_version));
 507              		.loc 1 105 5 discriminator 1 view .LVU148
 105:lvgl/src/extra/libs/qrcode/lv_qrcode.c ****     uint8_t * data_tmp = lv_mem_alloc(qrcodegen_BUFFER_LEN_FOR_VERSION(qr_version));
 508              		.loc 1 105 5 discriminator 1 view .LVU149
 509 0106 FEE7     		b	.L20
 510              	.LVL61:
 511              	.L22:
 107:lvgl/src/extra/libs/qrcode/lv_qrcode.c ****     lv_memcpy(data_tmp, data, data_len);
ARM GAS  C:\usertemp\cc8fQZXg.s 			page 16


 512              		.loc 1 107 5 discriminator 1 view .LVU150
 107:lvgl/src/extra/libs/qrcode/lv_qrcode.c ****     lv_memcpy(data_tmp, data, data_len);
 513              		.loc 1 107 5 discriminator 1 view .LVU151
 107:lvgl/src/extra/libs/qrcode/lv_qrcode.c ****     lv_memcpy(data_tmp, data, data_len);
 514              		.loc 1 107 5 discriminator 1 view .LVU152
 107:lvgl/src/extra/libs/qrcode/lv_qrcode.c ****     lv_memcpy(data_tmp, data, data_len);
 515              		.loc 1 107 5 discriminator 1 view .LVU153
 107:lvgl/src/extra/libs/qrcode/lv_qrcode.c ****     lv_memcpy(data_tmp, data, data_len);
 516              		.loc 1 107 5 discriminator 1 view .LVU154
 517 0108 FEE7     		b	.L22
 518              	.LVL62:
 519              	.L43:
 116:lvgl/src/extra/libs/qrcode/lv_qrcode.c ****         lv_mem_free(data_tmp);
 520              		.loc 1 116 9 view .LVU155
 521 010a 0598     		ldr	r0, [sp, #20]
 522              	.LVL63:
 116:lvgl/src/extra/libs/qrcode/lv_qrcode.c ****         lv_mem_free(data_tmp);
 523              		.loc 1 116 9 is_stmt 0 view .LVU156
 524 010c FFF7FEFF 		bl	lv_mem_free
 525              	.LVL64:
 117:lvgl/src/extra/libs/qrcode/lv_qrcode.c ****         return LV_RES_INV;
 526              		.loc 1 117 9 is_stmt 1 view .LVU157
 527 0110 0B98     		ldr	r0, [sp, #44]
 528 0112 FFF7FEFF 		bl	lv_mem_free
 529              	.LVL65:
 118:lvgl/src/extra/libs/qrcode/lv_qrcode.c ****     }
 530              		.loc 1 118 9 view .LVU158
 118:lvgl/src/extra/libs/qrcode/lv_qrcode.c ****     }
 531              		.loc 1 118 16 is_stmt 0 view .LVU159
 532 0116 0020     		movs	r0, #0
 533 0118 83E7     		b	.L16
 534              	.LVL66:
 535              	.L44:
 125:lvgl/src/extra/libs/qrcode/lv_qrcode.c ****     uint8_t * buf_u8 = (uint8_t *)imgdsc->data + 8;    /*+8 skip the palette*/
 536              		.loc 1 125 9 view .LVU160
 537 011a 0135     		adds	r5, r5, #1
 538 011c E2E7     		b	.L24
 539              	.LVL67:
 540              	.L47:
 541              	.LBB2:
 542              	.LBB3:
 143:lvgl/src/extra/libs/qrcode/lv_qrcode.c ****                 c.full = a ? 0 : 1;
 543              		.loc 1 143 13 is_stmt 1 view .LVU161
 144:lvgl/src/extra/libs/qrcode/lv_qrcode.c ****                 lv_canvas_set_px_color(qrcode, x, y, c);
 544              		.loc 1 144 17 view .LVU162
 144:lvgl/src/extra/libs/qrcode/lv_qrcode.c ****                 lv_canvas_set_px_color(qrcode, x, y, c);
 545              		.loc 1 144 32 is_stmt 0 view .LVU163
 546 011e 80F00100 		eor	r0, r0, #1
 547              	.LVL68:
 144:lvgl/src/extra/libs/qrcode/lv_qrcode.c ****                 lv_canvas_set_px_color(qrcode, x, y, c);
 548              		.loc 1 144 32 view .LVU164
 549 0122 C3B2     		uxtb	r3, r0
 145:lvgl/src/extra/libs/qrcode/lv_qrcode.c ****             }
 550              		.loc 1 145 17 is_stmt 1 view .LVU165
 551 0124 0FFA8AF2 		sxth	r2, r10
 552 0128 21B2     		sxth	r1, r4
 553 012a 0698     		ldr	r0, [sp, #24]
ARM GAS  C:\usertemp\cc8fQZXg.s 			page 17


 554 012c FFF7FEFF 		bl	lv_canvas_set_px_color
 555              	.LVL69:
 556 0130 0AE0     		b	.L27
 557              	.LVL70:
 558              	.L26:
 148:lvgl/src/extra/libs/qrcode/lv_qrcode.c ****                 p++;
 559              		.loc 1 148 17 view .LVU166
 148:lvgl/src/extra/libs/qrcode/lv_qrcode.c ****                 p++;
 560              		.loc 1 148 19 is_stmt 0 view .LVU167
 561 0132 28B9     		cbnz	r0, .L28
 148:lvgl/src/extra/libs/qrcode/lv_qrcode.c ****                 p++;
 562              		.loc 1 148 24 is_stmt 1 discriminator 1 view .LVU168
 148:lvgl/src/extra/libs/qrcode/lv_qrcode.c ****                 p++;
 563              		.loc 1 148 38 is_stmt 0 discriminator 1 view .LVU169
 564 0134 C5F10702 		rsb	r2, r5, #7
 148:lvgl/src/extra/libs/qrcode/lv_qrcode.c ****                 p++;
 565              		.loc 1 148 32 discriminator 1 view .LVU170
 566 0138 0123     		movs	r3, #1
 567 013a 9340     		lsls	r3, r3, r2
 148:lvgl/src/extra/libs/qrcode/lv_qrcode.c ****                 p++;
 568              		.loc 1 148 26 discriminator 1 view .LVU171
 569 013c 3343     		orrs	r3, r3, r6
 570 013e DEB2     		uxtb	r6, r3
 571              	.LVL71:
 572              	.L28:
 149:lvgl/src/extra/libs/qrcode/lv_qrcode.c ****                 if(p == 8) {
 573              		.loc 1 149 17 is_stmt 1 view .LVU172
 149:lvgl/src/extra/libs/qrcode/lv_qrcode.c ****                 if(p == 8) {
 574              		.loc 1 149 18 is_stmt 0 view .LVU173
 575 0140 0135     		adds	r5, r5, #1
 576              	.LVL72:
 149:lvgl/src/extra/libs/qrcode/lv_qrcode.c ****                 if(p == 8) {
 577              		.loc 1 149 18 view .LVU174
 578 0142 EDB2     		uxtb	r5, r5
 579              	.LVL73:
 150:lvgl/src/extra/libs/qrcode/lv_qrcode.c ****                     uint32_t px = row_byte_cnt * y + (x >> 3);
 580              		.loc 1 150 17 is_stmt 1 view .LVU175
 150:lvgl/src/extra/libs/qrcode/lv_qrcode.c ****                     uint32_t px = row_byte_cnt * y + (x >> 3);
 581              		.loc 1 150 19 is_stmt 0 view .LVU176
 582 0144 082D     		cmp	r5, #8
 583 0146 14D0     		beq	.L45
 584              	.LVL74:
 585              	.L27:
 150:lvgl/src/extra/libs/qrcode/lv_qrcode.c ****                     uint32_t px = row_byte_cnt * y + (x >> 3);
 586              		.loc 1 150 19 view .LVU177
 587              	.LBE3:
 138:lvgl/src/extra/libs/qrcode/lv_qrcode.c ****             bool a = qrcodegen_getModule(qr0, (x - margin) / scale, (y - margin) / scale);
 588              		.loc 1 138 47 is_stmt 1 discriminator 2 view .LVU178
 589 0148 0134     		adds	r4, r4, #1
 590              	.LVL75:
 591              	.L33:
 138:lvgl/src/extra/libs/qrcode/lv_qrcode.c ****             bool a = qrcodegen_getModule(qr0, (x - margin) / scale, (y - margin) / scale);
 592              		.loc 1 138 27 discriminator 1 view .LVU179
 593 014a A345     		cmp	fp, r4
 594 014c 1ADD     		ble	.L46
 595              	.LBB5:
 139:lvgl/src/extra/libs/qrcode/lv_qrcode.c **** 
ARM GAS  C:\usertemp\cc8fQZXg.s 			page 18


 596              		.loc 1 139 13 view .LVU180
 139:lvgl/src/extra/libs/qrcode/lv_qrcode.c **** 
 597              		.loc 1 139 50 is_stmt 0 view .LVU181
 598 014e A4EB0801 		sub	r1, r4, r8
 139:lvgl/src/extra/libs/qrcode/lv_qrcode.c **** 
 599              		.loc 1 139 72 view .LVU182
 600 0152 AAEB0802 		sub	r2, r10, r8
 139:lvgl/src/extra/libs/qrcode/lv_qrcode.c **** 
 601              		.loc 1 139 22 view .LVU183
 602 0156 92FBF9F2 		sdiv	r2, r2, r9
 603 015a 91FBF9F1 		sdiv	r1, r1, r9
 604 015e 0598     		ldr	r0, [sp, #20]
 605 0160 FFF7FEFF 		bl	qrcodegen_getModule
 606              	.LVL76:
 141:lvgl/src/extra/libs/qrcode/lv_qrcode.c **** 
 607              		.loc 1 141 13 is_stmt 1 view .LVU184
 141:lvgl/src/extra/libs/qrcode/lv_qrcode.c **** 
 608              		.loc 1 141 15 is_stmt 0 view .LVU185
 609 0164 002F     		cmp	r7, #0
 610 0166 E4D1     		bne	.L26
 141:lvgl/src/extra/libs/qrcode/lv_qrcode.c **** 
 611              		.loc 1 141 33 discriminator 1 view .LVU186
 612 0168 14F0070F 		tst	r4, #7
 613 016c D7D1     		bne	.L47
 141:lvgl/src/extra/libs/qrcode/lv_qrcode.c **** 
 614              		.loc 1 141 60 discriminator 2 view .LVU187
 615 016e 099F     		ldr	r7, [sp, #36]
 616              	.LVL77:
 141:lvgl/src/extra/libs/qrcode/lv_qrcode.c **** 
 617              		.loc 1 141 60 discriminator 2 view .LVU188
 618 0170 DFE7     		b	.L26
 619              	.LVL78:
 620              	.L45:
 621              	.LBB4:
 151:lvgl/src/extra/libs/qrcode/lv_qrcode.c ****                     buf_u8[px] = b;
 622              		.loc 1 151 21 is_stmt 1 view .LVU189
 151:lvgl/src/extra/libs/qrcode/lv_qrcode.c ****                     buf_u8[px] = b;
 623              		.loc 1 151 57 is_stmt 0 view .LVU190
 624 0172 E310     		asrs	r3, r4, #3
 151:lvgl/src/extra/libs/qrcode/lv_qrcode.c ****                     buf_u8[px] = b;
 625              		.loc 1 151 30 view .LVU191
 626 0174 089A     		ldr	r2, [sp, #32]
 627 0176 02FB0A33 		mla	r3, r2, r10, r3
 628              	.LVL79:
 152:lvgl/src/extra/libs/qrcode/lv_qrcode.c ****                     b = 0;
 629              		.loc 1 152 21 is_stmt 1 view .LVU192
 152:lvgl/src/extra/libs/qrcode/lv_qrcode.c ****                     b = 0;
 630              		.loc 1 152 32 is_stmt 0 view .LVU193
 631 017a 079A     		ldr	r2, [sp, #28]
 632 017c D654     		strb	r6, [r2, r3]
 153:lvgl/src/extra/libs/qrcode/lv_qrcode.c ****                     p = 0;
 633              		.loc 1 153 21 is_stmt 1 view .LVU194
 634              	.LVL80:
 154:lvgl/src/extra/libs/qrcode/lv_qrcode.c ****                 }
 635              		.loc 1 154 21 view .LVU195
 154:lvgl/src/extra/libs/qrcode/lv_qrcode.c ****                 }
 636              		.loc 1 154 23 is_stmt 0 view .LVU196
ARM GAS  C:\usertemp\cc8fQZXg.s 			page 19


 637 017e 0026     		movs	r6, #0
 153:lvgl/src/extra/libs/qrcode/lv_qrcode.c ****                     p = 0;
 638              		.loc 1 153 23 view .LVU197
 639 0180 3546     		mov	r5, r6
 640 0182 E1E7     		b	.L27
 641              	.LVL81:
 642              	.L46:
 153:lvgl/src/extra/libs/qrcode/lv_qrcode.c ****                     p = 0;
 643              		.loc 1 153 23 view .LVU198
 644              	.LBE4:
 645              	.LBE5:
 160:lvgl/src/extra/libs/qrcode/lv_qrcode.c ****             /*Make the rest of the bits white*/
 646              		.loc 1 160 11 view .LVU199
 647 0184 DDF81CB0 		ldr	fp, [sp, #28]
 648 0188 089F     		ldr	r7, [sp, #32]
 649              	.LVL82:
 160:lvgl/src/extra/libs/qrcode/lv_qrcode.c ****             /*Make the rest of the bits white*/
 650              		.loc 1 160 9 is_stmt 1 view .LVU200
 160:lvgl/src/extra/libs/qrcode/lv_qrcode.c ****             /*Make the rest of the bits white*/
 651              		.loc 1 160 11 is_stmt 0 view .LVU201
 652 018a 5DB1     		cbz	r5, .L30
 653              	.LBB6:
 162:lvgl/src/extra/libs/qrcode/lv_qrcode.c **** 
 654              		.loc 1 162 13 is_stmt 1 view .LVU202
 162:lvgl/src/extra/libs/qrcode/lv_qrcode.c **** 
 655              		.loc 1 162 27 is_stmt 0 view .LVU203
 656 018c C5F10805 		rsb	r5, r5, #8
 657              	.LVL83:
 162:lvgl/src/extra/libs/qrcode/lv_qrcode.c **** 
 658              		.loc 1 162 21 view .LVU204
 659 0190 0123     		movs	r3, #1
 660 0192 AB40     		lsls	r3, r3, r5
 162:lvgl/src/extra/libs/qrcode/lv_qrcode.c **** 
 661              		.loc 1 162 33 view .LVU205
 662 0194 013B     		subs	r3, r3, #1
 663 0196 DBB2     		uxtb	r3, r3
 664              	.LVL84:
 164:lvgl/src/extra/libs/qrcode/lv_qrcode.c ****             buf_u8[px] = b;
 665              		.loc 1 164 13 is_stmt 1 view .LVU206
 164:lvgl/src/extra/libs/qrcode/lv_qrcode.c ****             buf_u8[px] = b;
 666              		.loc 1 164 49 is_stmt 0 view .LVU207
 667 0198 E410     		asrs	r4, r4, #3
 668              	.LVL85:
 164:lvgl/src/extra/libs/qrcode/lv_qrcode.c ****             buf_u8[px] = b;
 669              		.loc 1 164 22 view .LVU208
 670 019a 07FB0A44 		mla	r4, r7, r10, r4
 671              	.LVL86:
 165:lvgl/src/extra/libs/qrcode/lv_qrcode.c ****         }
 672              		.loc 1 165 13 is_stmt 1 view .LVU209
 165:lvgl/src/extra/libs/qrcode/lv_qrcode.c ****         }
 673              		.loc 1 165 24 is_stmt 0 view .LVU210
 674 019e 3343     		orrs	r3, r3, r6
 675              	.LVL87:
 165:lvgl/src/extra/libs/qrcode/lv_qrcode.c ****         }
 676              		.loc 1 165 24 view .LVU211
 677 01a0 0BF80430 		strb	r3, [fp, r4]
 678              	.LVL88:
ARM GAS  C:\usertemp\cc8fQZXg.s 			page 20


 679              	.L30:
 165:lvgl/src/extra/libs/qrcode/lv_qrcode.c ****         }
 680              		.loc 1 165 24 view .LVU212
 681              	.LBE6:
 169:lvgl/src/extra/libs/qrcode/lv_qrcode.c ****         const uint8_t * row_ori = buf_u8 + row_byte_cnt * y;
 682              		.loc 1 169 9 is_stmt 1 view .LVU213
 170:lvgl/src/extra/libs/qrcode/lv_qrcode.c ****         for(s = 1; s < scale; s++) {
 683              		.loc 1 170 9 view .LVU214
 170:lvgl/src/extra/libs/qrcode/lv_qrcode.c ****         for(s = 1; s < scale; s++) {
 684              		.loc 1 170 25 is_stmt 0 view .LVU215
 685 01a4 07FB0AB5 		mla	r5, r7, r10, fp
 686              	.LVL89:
 171:lvgl/src/extra/libs/qrcode/lv_qrcode.c ****             lv_memcpy((uint8_t *)buf_u8 + row_byte_cnt * (y + s), row_ori, row_byte_cnt);
 687              		.loc 1 171 9 is_stmt 1 view .LVU216
 171:lvgl/src/extra/libs/qrcode/lv_qrcode.c ****             lv_memcpy((uint8_t *)buf_u8 + row_byte_cnt * (y + s), row_ori, row_byte_cnt);
 688              		.loc 1 171 15 is_stmt 0 view .LVU217
 689 01a8 0124     		movs	r4, #1
 171:lvgl/src/extra/libs/qrcode/lv_qrcode.c ****             lv_memcpy((uint8_t *)buf_u8 + row_byte_cnt * (y + s), row_ori, row_byte_cnt);
 690              		.loc 1 171 9 view .LVU218
 691 01aa 08E0     		b	.L31
 692              	.LVL90:
 693              	.L32:
 172:lvgl/src/extra/libs/qrcode/lv_qrcode.c ****         }
 694              		.loc 1 172 13 is_stmt 1 view .LVU219
 172:lvgl/src/extra/libs/qrcode/lv_qrcode.c ****         }
 695              		.loc 1 172 61 is_stmt 0 view .LVU220
 696 01ac 0AEB0400 		add	r0, r10, r4
 172:lvgl/src/extra/libs/qrcode/lv_qrcode.c ****         }
 697              		.loc 1 172 13 view .LVU221
 698 01b0 3A46     		mov	r2, r7
 699 01b2 2946     		mov	r1, r5
 700 01b4 07FB00B0 		mla	r0, r7, r0, fp
 701 01b8 FFF7FEFF 		bl	lv_memcpy
 702              	.LVL91:
 171:lvgl/src/extra/libs/qrcode/lv_qrcode.c ****             lv_memcpy((uint8_t *)buf_u8 + row_byte_cnt * (y + s), row_ori, row_byte_cnt);
 703              		.loc 1 171 32 is_stmt 1 discriminator 3 view .LVU222
 704 01bc 0134     		adds	r4, r4, #1
 705              	.LVL92:
 706              	.L31:
 171:lvgl/src/extra/libs/qrcode/lv_qrcode.c ****             lv_memcpy((uint8_t *)buf_u8 + row_byte_cnt * (y + s), row_ori, row_byte_cnt);
 707              		.loc 1 171 22 discriminator 1 view .LVU223
 708 01be 4C45     		cmp	r4, r9
 709 01c0 F4DB     		blt	.L32
 710              	.LBE2:
 133:lvgl/src/extra/libs/qrcode/lv_qrcode.c ****         uint8_t b = 0;
 711              		.loc 1 133 44 discriminator 2 view .LVU224
 712 01c2 CA44     		add	r10, r10, r9
 713              	.LVL93:
 714              	.L25:
 133:lvgl/src/extra/libs/qrcode/lv_qrcode.c ****         uint8_t b = 0;
 715              		.loc 1 133 23 discriminator 1 view .LVU225
 133:lvgl/src/extra/libs/qrcode/lv_qrcode.c ****         uint8_t b = 0;
 716              		.loc 1 133 32 is_stmt 0 discriminator 1 view .LVU226
 717 01c4 0A9B     		ldr	r3, [sp, #40]
 718 01c6 03EB080E 		add	lr, r3, r8
 133:lvgl/src/extra/libs/qrcode/lv_qrcode.c ****         uint8_t b = 0;
 719              		.loc 1 133 23 discriminator 1 view .LVU227
ARM GAS  C:\usertemp\cc8fQZXg.s 			page 21


 720 01ca D645     		cmp	lr, r10
 721 01cc 09DD     		ble	.L48
 722              	.LBB7:
 138:lvgl/src/extra/libs/qrcode/lv_qrcode.c ****             bool a = qrcodegen_getModule(qr0, (x - margin) / scale, (y - margin) / scale);
 723              		.loc 1 138 15 view .LVU228
 724 01ce 4446     		mov	r4, r8
 136:lvgl/src/extra/libs/qrcode/lv_qrcode.c ****         int x;
 725              		.loc 1 136 14 view .LVU229
 726 01d0 0023     		movs	r3, #0
 135:lvgl/src/extra/libs/qrcode/lv_qrcode.c ****         bool aligned = false;
 727              		.loc 1 135 17 view .LVU230
 728 01d2 1D46     		mov	r5, r3
 134:lvgl/src/extra/libs/qrcode/lv_qrcode.c ****         uint8_t p = 0;
 729              		.loc 1 134 17 view .LVU231
 730 01d4 1E46     		mov	r6, r3
 731 01d6 CDF81CB0 		str	fp, [sp, #28]
 732 01da F346     		mov	fp, lr
 733 01dc 0897     		str	r7, [sp, #32]
 734 01de 1F46     		mov	r7, r3
 735 01e0 B3E7     		b	.L33
 736              	.L48:
 737              	.LBE7:
 176:lvgl/src/extra/libs/qrcode/lv_qrcode.c ****     lv_mem_free(data_tmp);
 738              		.loc 1 176 5 is_stmt 1 view .LVU232
 739 01e2 0598     		ldr	r0, [sp, #20]
 740 01e4 FFF7FEFF 		bl	lv_mem_free
 741              	.LVL94:
 177:lvgl/src/extra/libs/qrcode/lv_qrcode.c ****     return LV_RES_OK;
 742              		.loc 1 177 5 view .LVU233
 743 01e8 0B98     		ldr	r0, [sp, #44]
 744 01ea FFF7FEFF 		bl	lv_mem_free
 745              	.LVL95:
 178:lvgl/src/extra/libs/qrcode/lv_qrcode.c **** }
 746              		.loc 1 178 5 view .LVU234
 178:lvgl/src/extra/libs/qrcode/lv_qrcode.c **** }
 747              		.loc 1 178 12 is_stmt 0 view .LVU235
 748 01ee 0120     		movs	r0, #1
 749 01f0 17E7     		b	.L16
 750              	.LVL96:
 751              	.L35:
  90:lvgl/src/extra/libs/qrcode/lv_qrcode.c ****     int32_t qr_size = qrcodegen_version2size(qr_version);
 752              		.loc 1 90 32 discriminator 1 view .LVU236
 753 01f2 0020     		movs	r0, #0
 754              	.LVL97:
  90:lvgl/src/extra/libs/qrcode/lv_qrcode.c ****     int32_t qr_size = qrcodegen_version2size(qr_version);
 755              		.loc 1 90 32 discriminator 1 view .LVU237
 756 01f4 15E7     		b	.L16
 757              	.LVL98:
 758              	.L36:
  92:lvgl/src/extra/libs/qrcode/lv_qrcode.c ****     int32_t scale = imgdsc->header.w / qr_size;
 759              		.loc 1 92 29 discriminator 1 view .LVU238
 760 01f6 0020     		movs	r0, #0
 761              	.LVL99:
  92:lvgl/src/extra/libs/qrcode/lv_qrcode.c ****     int32_t scale = imgdsc->header.w / qr_size;
 762              		.loc 1 92 29 discriminator 1 view .LVU239
 763 01f8 13E7     		b	.L16
 764              	.LVL100:
ARM GAS  C:\usertemp\cc8fQZXg.s 			page 22


 765              	.L37:
  94:lvgl/src/extra/libs/qrcode/lv_qrcode.c ****     int32_t remain = imgdsc->header.w % qr_size;
 766              		.loc 1 94 27 discriminator 1 view .LVU240
 767 01fa 0020     		movs	r0, #0
 768              	.LVL101:
  94:lvgl/src/extra/libs/qrcode/lv_qrcode.c ****     int32_t remain = imgdsc->header.w % qr_size;
 769              		.loc 1 94 27 discriminator 1 view .LVU241
 770 01fc 11E7     		b	.L16
 771              		.cfi_endproc
 772              	.LFE197:
 774              		.section	.text.lv_qrcode_delete,"ax",%progbits
 775              		.align	1
 776              		.global	lv_qrcode_delete
 777              		.syntax unified
 778              		.thumb
 779              		.thumb_func
 781              	lv_qrcode_delete:
 782              	.LVL102:
 783              	.LFB198:
 183:lvgl/src/extra/libs/qrcode/lv_qrcode.c ****     lv_obj_del(qrcode);
 784              		.loc 1 183 1 is_stmt 1 view -0
 785              		.cfi_startproc
 786              		@ args = 0, pretend = 0, frame = 0
 787              		@ frame_needed = 0, uses_anonymous_args = 0
 183:lvgl/src/extra/libs/qrcode/lv_qrcode.c ****     lv_obj_del(qrcode);
 788              		.loc 1 183 1 is_stmt 0 view .LVU243
 789 0000 08B5     		push	{r3, lr}
 790              	.LCFI10:
 791              		.cfi_def_cfa_offset 8
 792              		.cfi_offset 3, -8
 793              		.cfi_offset 14, -4
 184:lvgl/src/extra/libs/qrcode/lv_qrcode.c **** }
 794              		.loc 1 184 5 is_stmt 1 view .LVU244
 795 0002 FFF7FEFF 		bl	lv_obj_del
 796              	.LVL103:
 185:lvgl/src/extra/libs/qrcode/lv_qrcode.c **** 
 797              		.loc 1 185 1 is_stmt 0 view .LVU245
 798 0006 08BD     		pop	{r3, pc}
 799              		.cfi_endproc
 800              	.LFE198:
 802              		.section	.bss.light_color_param,"aw",%nobits
 803              		.align	2
 806              	light_color_param:
 807 0000 0000     		.space	2
 808              		.section	.bss.dark_color_param,"aw",%nobits
 809              		.align	2
 812              	dark_color_param:
 813 0000 0000     		.space	2
 814              		.section	.bss.size_param,"aw",%nobits
 815              		.align	1
 818              	size_param:
 819 0000 0000     		.space	2
 820              		.global	lv_qrcode_class
 821              		.section	.rodata.lv_qrcode_class,"a"
 822              		.align	2
 825              	lv_qrcode_class:
 826 0000 00000000 		.word	lv_canvas_class
ARM GAS  C:\usertemp\cc8fQZXg.s 			page 23


 827 0004 00000000 		.word	lv_qrcode_constructor
 828 0008 00000000 		.word	lv_qrcode_destructor
 829 000c 00000000 		.space	16
 829      00000000 
 829      00000000 
 829      00000000 
 830              		.text
 831              	.Letext0:
 832              		.file 2 "D:/armtoolchain/arm-gnu-toolchain-13.3.rel1-mingw-w64-i686-arm-none-eabi/arm-none-eabi/in
 833              		.file 3 "D:/armtoolchain/arm-gnu-toolchain-13.3.rel1-mingw-w64-i686-arm-none-eabi/arm-none-eabi/in
 834              		.file 4 "lvgl/src/extra/libs/qrcode/../../../../src/misc/lv_types.h"
 835              		.file 5 "D:/armtoolchain/arm-gnu-toolchain-13.3.rel1-mingw-w64-i686-arm-none-eabi/lib/gcc/arm-none
 836              		.file 6 "D:/update_2024EL/changeform/743zit6/lvgl/src/misc/lv_area.h"
 837              		.file 7 "D:/update_2024EL/changeform/743zit6/lvgl/src/misc/lv_color.h"
 838              		.file 8 "D:/update_2024EL/changeform/743zit6/lvgl/src/misc/lv_style.h"
 839              		.file 9 "D:/update_2024EL/changeform/743zit6/lvgl/src/draw/lv_img_buf.h"
 840              		.file 10 "lvgl/src/extra/libs/qrcode/../../../../src/core/lv_obj.h"
 841              		.file 11 "D:/update_2024EL/changeform/743zit6/lvgl/src/misc/lv_ll.h"
 842              		.file 12 "lvgl/src/extra/libs/qrcode/../../../../src/core/lv_group.h"
 843              		.file 13 "lvgl/src/extra/libs/qrcode/../../../../src/core/lv_obj_scroll.h"
 844              		.file 14 "lvgl/src/extra/libs/qrcode/../../../../src/core/lv_obj_style.h"
 845              		.file 15 "lvgl/src/extra/libs/qrcode/../../../../src/core/lv_obj_class.h"
 846              		.file 16 "lvgl/src/extra/libs/qrcode/../../../../src/core/lv_event.h"
 847              		.file 17 "lvgl/src/extra/libs/qrcode/../../../../src/widgets/lv_bar.h"
 848              		.file 18 "lvgl/src/extra/libs/qrcode/../../../../src/extra/widgets/imgbtn/lv_imgbtn.h"
 849              		.file 19 "lvgl/src/extra/libs/qrcode/../../../../src/widgets/lv_canvas.h"
 850              		.file 20 "lvgl/src/extra/libs/qrcode/lv_qrcode.h"
 851              		.file 21 "lvgl/src/extra/libs/qrcode/qrcodegen.h"
 852              		.file 22 "lvgl/src/extra/libs/qrcode/../../../../src/core/lv_obj_tree.h"
 853              		.file 23 "D:/update_2024EL/changeform/743zit6/lvgl/src/misc/lv_mem.h"
 854              		.file 24 "D:/update_2024EL/changeform/743zit6/lvgl/src/draw/lv_img_cache.h"
ARM GAS  C:\usertemp\cc8fQZXg.s 			page 24

