ARM GAS  C:\usertemp\cc2TdG63.s 			page 1


   1              		.cpu cortex-m7
   2              		.arch armv7e-m
   3              		.fpu fpv5-d16
   4              		.eabi_attribute 28, 1
   5              		.eabi_attribute 20, 1
   6              		.eabi_attribute 21, 1
   7              		.eabi_attribute 23, 3
   8              		.eabi_attribute 24, 1
   9              		.eabi_attribute 25, 1
  10              		.eabi_attribute 26, 1
  11              		.eabi_attribute 30, 1
  12              		.eabi_attribute 34, 1
  13              		.eabi_attribute 18, 4
  14              		.file	"lv_roller.c"
  15              		.text
  16              	.Ltext0:
  17              		.cfi_sections	.debug_frame
  18              		.file 1 "lvgl/src/widgets/lv_roller.c"
  19              		.section	.text.set_y_anim,"ax",%progbits
  20              		.align	1
  21              		.syntax unified
  22              		.thumb
  23              		.thumb_func
  25              	set_y_anim:
  26              	.LVL0:
  27              	.LFB176:
   1:lvgl/src/widgets/lv_roller.c **** /**
   2:lvgl/src/widgets/lv_roller.c ****  * @file lv_roller.c
   3:lvgl/src/widgets/lv_roller.c ****  *
   4:lvgl/src/widgets/lv_roller.c ****  */
   5:lvgl/src/widgets/lv_roller.c **** 
   6:lvgl/src/widgets/lv_roller.c **** /*********************
   7:lvgl/src/widgets/lv_roller.c ****  *      INCLUDES
   8:lvgl/src/widgets/lv_roller.c ****  *********************/
   9:lvgl/src/widgets/lv_roller.c **** #include "lv_roller.h"
  10:lvgl/src/widgets/lv_roller.c **** #if LV_USE_ROLLER != 0
  11:lvgl/src/widgets/lv_roller.c **** 
  12:lvgl/src/widgets/lv_roller.c **** #include "../misc/lv_assert.h"
  13:lvgl/src/widgets/lv_roller.c **** #include "../draw/lv_draw.h"
  14:lvgl/src/widgets/lv_roller.c **** #include "../core/lv_group.h"
  15:lvgl/src/widgets/lv_roller.c **** #include "../core/lv_indev.h"
  16:lvgl/src/widgets/lv_roller.c **** #include "../core/lv_indev_scroll.h"
  17:lvgl/src/widgets/lv_roller.c **** 
  18:lvgl/src/widgets/lv_roller.c **** /*********************
  19:lvgl/src/widgets/lv_roller.c ****  *      DEFINES
  20:lvgl/src/widgets/lv_roller.c ****  *********************/
  21:lvgl/src/widgets/lv_roller.c **** #define MY_CLASS &lv_roller_class
  22:lvgl/src/widgets/lv_roller.c **** #define MY_CLASS_LABEL &lv_roller_label_class
  23:lvgl/src/widgets/lv_roller.c **** 
  24:lvgl/src/widgets/lv_roller.c **** /**********************
  25:lvgl/src/widgets/lv_roller.c ****  *      TYPEDEFS
  26:lvgl/src/widgets/lv_roller.c ****  **********************/
  27:lvgl/src/widgets/lv_roller.c **** 
  28:lvgl/src/widgets/lv_roller.c **** /**********************
  29:lvgl/src/widgets/lv_roller.c ****  *  STATIC PROTOTYPES
  30:lvgl/src/widgets/lv_roller.c ****  **********************/
  31:lvgl/src/widgets/lv_roller.c **** static void lv_roller_constructor(const lv_obj_class_t * class_p, lv_obj_t * obj);
ARM GAS  C:\usertemp\cc2TdG63.s 			page 2


  32:lvgl/src/widgets/lv_roller.c **** static void lv_roller_event(const lv_obj_class_t * class_p, lv_event_t * e);
  33:lvgl/src/widgets/lv_roller.c **** static void lv_roller_label_event(const lv_obj_class_t * class_p, lv_event_t * e);
  34:lvgl/src/widgets/lv_roller.c **** static void draw_main(lv_event_t * e);
  35:lvgl/src/widgets/lv_roller.c **** static void draw_label(lv_event_t * e);
  36:lvgl/src/widgets/lv_roller.c **** static void get_sel_area(lv_obj_t * obj, lv_area_t * sel_area);
  37:lvgl/src/widgets/lv_roller.c **** static void refr_position(lv_obj_t * obj, lv_anim_enable_t animen);
  38:lvgl/src/widgets/lv_roller.c **** static lv_res_t release_handler(lv_obj_t * obj);
  39:lvgl/src/widgets/lv_roller.c **** static void inf_normalize(lv_obj_t * obj_scrl);
  40:lvgl/src/widgets/lv_roller.c **** static lv_obj_t * get_label(const lv_obj_t * obj);
  41:lvgl/src/widgets/lv_roller.c **** static lv_coord_t get_selected_label_width(const lv_obj_t * obj);
  42:lvgl/src/widgets/lv_roller.c **** static void scroll_anim_ready_cb(lv_anim_t * a);
  43:lvgl/src/widgets/lv_roller.c **** static void set_y_anim(void * obj, int32_t v);
  44:lvgl/src/widgets/lv_roller.c **** 
  45:lvgl/src/widgets/lv_roller.c **** /**********************
  46:lvgl/src/widgets/lv_roller.c ****  *  STATIC VARIABLES
  47:lvgl/src/widgets/lv_roller.c ****  **********************/
  48:lvgl/src/widgets/lv_roller.c **** const lv_obj_class_t lv_roller_class = {
  49:lvgl/src/widgets/lv_roller.c ****     .constructor_cb = lv_roller_constructor,
  50:lvgl/src/widgets/lv_roller.c ****     .event_cb = lv_roller_event,
  51:lvgl/src/widgets/lv_roller.c ****     .width_def = LV_SIZE_CONTENT,
  52:lvgl/src/widgets/lv_roller.c ****     .height_def = LV_DPI_DEF,
  53:lvgl/src/widgets/lv_roller.c ****     .instance_size = sizeof(lv_roller_t),
  54:lvgl/src/widgets/lv_roller.c ****     .editable = LV_OBJ_CLASS_EDITABLE_TRUE,
  55:lvgl/src/widgets/lv_roller.c ****     .group_def = LV_OBJ_CLASS_GROUP_DEF_TRUE,
  56:lvgl/src/widgets/lv_roller.c ****     .base_class = &lv_obj_class
  57:lvgl/src/widgets/lv_roller.c **** };
  58:lvgl/src/widgets/lv_roller.c **** 
  59:lvgl/src/widgets/lv_roller.c **** const lv_obj_class_t lv_roller_label_class  = {
  60:lvgl/src/widgets/lv_roller.c ****     .event_cb = lv_roller_label_event,
  61:lvgl/src/widgets/lv_roller.c ****     .instance_size = sizeof(lv_label_t),
  62:lvgl/src/widgets/lv_roller.c ****     .base_class = &lv_label_class
  63:lvgl/src/widgets/lv_roller.c **** };
  64:lvgl/src/widgets/lv_roller.c **** 
  65:lvgl/src/widgets/lv_roller.c **** /**********************
  66:lvgl/src/widgets/lv_roller.c ****  *      MACROS
  67:lvgl/src/widgets/lv_roller.c ****  **********************/
  68:lvgl/src/widgets/lv_roller.c **** 
  69:lvgl/src/widgets/lv_roller.c **** /**********************
  70:lvgl/src/widgets/lv_roller.c ****  *   GLOBAL FUNCTIONS
  71:lvgl/src/widgets/lv_roller.c ****  **********************/
  72:lvgl/src/widgets/lv_roller.c **** 
  73:lvgl/src/widgets/lv_roller.c **** /**
  74:lvgl/src/widgets/lv_roller.c ****  * Create a roller object
  75:lvgl/src/widgets/lv_roller.c ****  * @param parent pointer to an object, it will be the parent of the new roller
  76:lvgl/src/widgets/lv_roller.c ****  * @return pointer to the created roller
  77:lvgl/src/widgets/lv_roller.c ****  */
  78:lvgl/src/widgets/lv_roller.c **** lv_obj_t * lv_roller_create(lv_obj_t * parent)
  79:lvgl/src/widgets/lv_roller.c **** {
  80:lvgl/src/widgets/lv_roller.c ****     LV_LOG_INFO("begin");
  81:lvgl/src/widgets/lv_roller.c ****     lv_obj_t * obj = lv_obj_class_create_obj(MY_CLASS, parent);
  82:lvgl/src/widgets/lv_roller.c ****     lv_obj_class_init_obj(obj);
  83:lvgl/src/widgets/lv_roller.c ****     return obj;
  84:lvgl/src/widgets/lv_roller.c **** }
  85:lvgl/src/widgets/lv_roller.c **** 
  86:lvgl/src/widgets/lv_roller.c **** /*=====================
  87:lvgl/src/widgets/lv_roller.c ****  * Setter functions
  88:lvgl/src/widgets/lv_roller.c ****  *====================*/
ARM GAS  C:\usertemp\cc2TdG63.s 			page 3


  89:lvgl/src/widgets/lv_roller.c **** 
  90:lvgl/src/widgets/lv_roller.c **** /**
  91:lvgl/src/widgets/lv_roller.c ****  * Set the options on a roller
  92:lvgl/src/widgets/lv_roller.c ****  * @param roller pointer to roller object
  93:lvgl/src/widgets/lv_roller.c ****  * @param options a string with '\n' separated options. E.g. "One\nTwo\nThree"
  94:lvgl/src/widgets/lv_roller.c ****  * @param mode `LV_ROLLER_MODE_NORMAL` or `LV_ROLLER_MODE_INFINITE`
  95:lvgl/src/widgets/lv_roller.c ****  */
  96:lvgl/src/widgets/lv_roller.c **** void lv_roller_set_options(lv_obj_t * obj, const char * options, lv_roller_mode_t mode)
  97:lvgl/src/widgets/lv_roller.c **** {
  98:lvgl/src/widgets/lv_roller.c ****     LV_ASSERT_OBJ(obj, MY_CLASS);
  99:lvgl/src/widgets/lv_roller.c ****     LV_ASSERT_NULL(options);
 100:lvgl/src/widgets/lv_roller.c **** 
 101:lvgl/src/widgets/lv_roller.c ****     lv_roller_t * roller = (lv_roller_t *)obj;
 102:lvgl/src/widgets/lv_roller.c ****     lv_obj_t * label = get_label(obj);
 103:lvgl/src/widgets/lv_roller.c **** 
 104:lvgl/src/widgets/lv_roller.c ****     roller->sel_opt_id     = 0;
 105:lvgl/src/widgets/lv_roller.c ****     roller->sel_opt_id_ori = 0;
 106:lvgl/src/widgets/lv_roller.c **** 
 107:lvgl/src/widgets/lv_roller.c ****     /*Count the '\n'-s to determine the number of options*/
 108:lvgl/src/widgets/lv_roller.c ****     roller->option_cnt = 0;
 109:lvgl/src/widgets/lv_roller.c ****     uint32_t cnt;
 110:lvgl/src/widgets/lv_roller.c ****     for(cnt = 0; options[cnt] != '\0'; cnt++) {
 111:lvgl/src/widgets/lv_roller.c ****         if(options[cnt] == '\n') roller->option_cnt++;
 112:lvgl/src/widgets/lv_roller.c ****     }
 113:lvgl/src/widgets/lv_roller.c ****     roller->option_cnt++; /*Last option has no `\n`*/
 114:lvgl/src/widgets/lv_roller.c **** 
 115:lvgl/src/widgets/lv_roller.c ****     if(mode == LV_ROLLER_MODE_NORMAL) {
 116:lvgl/src/widgets/lv_roller.c ****         roller->mode = LV_ROLLER_MODE_NORMAL;
 117:lvgl/src/widgets/lv_roller.c ****         lv_label_set_text(label, options);
 118:lvgl/src/widgets/lv_roller.c ****     }
 119:lvgl/src/widgets/lv_roller.c ****     else {
 120:lvgl/src/widgets/lv_roller.c ****         roller->mode = LV_ROLLER_MODE_INFINITE;
 121:lvgl/src/widgets/lv_roller.c **** 
 122:lvgl/src/widgets/lv_roller.c ****         size_t opt_len = strlen(options) + 1; /*+1 to add '\n' after option lists*/
 123:lvgl/src/widgets/lv_roller.c ****         char * opt_extra = lv_mem_buf_get(opt_len * LV_ROLLER_INF_PAGES);
 124:lvgl/src/widgets/lv_roller.c ****         uint8_t i;
 125:lvgl/src/widgets/lv_roller.c ****         for(i = 0; i < LV_ROLLER_INF_PAGES; i++) {
 126:lvgl/src/widgets/lv_roller.c ****             strcpy(&opt_extra[opt_len * i], options);
 127:lvgl/src/widgets/lv_roller.c ****             opt_extra[opt_len * (i + 1) - 1] = '\n';
 128:lvgl/src/widgets/lv_roller.c ****         }
 129:lvgl/src/widgets/lv_roller.c ****         opt_extra[opt_len * LV_ROLLER_INF_PAGES - 1] = '\0';
 130:lvgl/src/widgets/lv_roller.c ****         lv_label_set_text(label, opt_extra);
 131:lvgl/src/widgets/lv_roller.c ****         lv_mem_buf_release(opt_extra);
 132:lvgl/src/widgets/lv_roller.c **** 
 133:lvgl/src/widgets/lv_roller.c ****         roller->sel_opt_id     = ((LV_ROLLER_INF_PAGES / 2) + 0) * roller->option_cnt;
 134:lvgl/src/widgets/lv_roller.c **** 
 135:lvgl/src/widgets/lv_roller.c ****         roller->option_cnt = roller->option_cnt * LV_ROLLER_INF_PAGES;
 136:lvgl/src/widgets/lv_roller.c ****         inf_normalize(obj);
 137:lvgl/src/widgets/lv_roller.c ****     }
 138:lvgl/src/widgets/lv_roller.c **** 
 139:lvgl/src/widgets/lv_roller.c ****     roller->sel_opt_id_ori = roller->sel_opt_id;
 140:lvgl/src/widgets/lv_roller.c **** 
 141:lvgl/src/widgets/lv_roller.c ****     /*If the selected text has larger font the label needs some extra draw padding to draw it.*/
 142:lvgl/src/widgets/lv_roller.c ****     lv_obj_refresh_ext_draw_size(label);
 143:lvgl/src/widgets/lv_roller.c **** 
 144:lvgl/src/widgets/lv_roller.c **** }
 145:lvgl/src/widgets/lv_roller.c **** 
ARM GAS  C:\usertemp\cc2TdG63.s 			page 4


 146:lvgl/src/widgets/lv_roller.c **** /**
 147:lvgl/src/widgets/lv_roller.c ****  * Set the selected option
 148:lvgl/src/widgets/lv_roller.c ****  * @param roller pointer to a roller object
 149:lvgl/src/widgets/lv_roller.c ****  * @param sel_opt id of the selected option (0 ... number of option - 1);
 150:lvgl/src/widgets/lv_roller.c ****  * @param anim_en LV_ANIM_ON: set with animation; LV_ANOM_OFF set immediately
 151:lvgl/src/widgets/lv_roller.c ****  */
 152:lvgl/src/widgets/lv_roller.c **** void lv_roller_set_selected(lv_obj_t * obj, uint16_t sel_opt, lv_anim_enable_t anim)
 153:lvgl/src/widgets/lv_roller.c **** {
 154:lvgl/src/widgets/lv_roller.c ****     LV_ASSERT_OBJ(obj, MY_CLASS);
 155:lvgl/src/widgets/lv_roller.c **** 
 156:lvgl/src/widgets/lv_roller.c ****     /*Set the value even if it's the same as the current value because
 157:lvgl/src/widgets/lv_roller.c ****      *if moving to the next option with an animation which was just deleted in the PRESS Call the a
 158:lvgl/src/widgets/lv_roller.c ****      *nothing will continue the animation.*/
 159:lvgl/src/widgets/lv_roller.c **** 
 160:lvgl/src/widgets/lv_roller.c ****     lv_roller_t * roller = (lv_roller_t *)obj;
 161:lvgl/src/widgets/lv_roller.c **** 
 162:lvgl/src/widgets/lv_roller.c ****     /*In infinite mode interpret the new ID relative to the currently visible "page"*/
 163:lvgl/src/widgets/lv_roller.c ****     if(roller->mode == LV_ROLLER_MODE_INFINITE) {
 164:lvgl/src/widgets/lv_roller.c ****         int32_t sel_opt_signed = sel_opt;
 165:lvgl/src/widgets/lv_roller.c ****         uint16_t page = roller->sel_opt_id / LV_ROLLER_INF_PAGES;
 166:lvgl/src/widgets/lv_roller.c **** 
 167:lvgl/src/widgets/lv_roller.c ****         /*`sel_opt` should be less than the number of options set by the user.
 168:lvgl/src/widgets/lv_roller.c ****          *If it's more then probably it's a reference from not the first page
 169:lvgl/src/widgets/lv_roller.c ****          *so normalize `sel_opt`*/
 170:lvgl/src/widgets/lv_roller.c ****         if(page != 0) {
 171:lvgl/src/widgets/lv_roller.c ****             sel_opt_signed -= page * LV_ROLLER_INF_PAGES;
 172:lvgl/src/widgets/lv_roller.c ****         }
 173:lvgl/src/widgets/lv_roller.c **** 
 174:lvgl/src/widgets/lv_roller.c ****         sel_opt = page * LV_ROLLER_INF_PAGES + sel_opt_signed;
 175:lvgl/src/widgets/lv_roller.c ****     }
 176:lvgl/src/widgets/lv_roller.c **** 
 177:lvgl/src/widgets/lv_roller.c ****     roller->sel_opt_id     = sel_opt < roller->option_cnt ? sel_opt : roller->option_cnt - 1;
 178:lvgl/src/widgets/lv_roller.c ****     roller->sel_opt_id_ori = roller->sel_opt_id;
 179:lvgl/src/widgets/lv_roller.c **** 
 180:lvgl/src/widgets/lv_roller.c ****     refr_position(obj, anim);
 181:lvgl/src/widgets/lv_roller.c **** }
 182:lvgl/src/widgets/lv_roller.c **** 
 183:lvgl/src/widgets/lv_roller.c **** /**
 184:lvgl/src/widgets/lv_roller.c ****  * Set the height to show the given number of rows (options)
 185:lvgl/src/widgets/lv_roller.c ****  * @param roller pointer to a roller object
 186:lvgl/src/widgets/lv_roller.c ****  * @param row_cnt number of desired visible rows
 187:lvgl/src/widgets/lv_roller.c ****  */
 188:lvgl/src/widgets/lv_roller.c **** void lv_roller_set_visible_row_count(lv_obj_t * obj, uint8_t row_cnt)
 189:lvgl/src/widgets/lv_roller.c **** {
 190:lvgl/src/widgets/lv_roller.c ****     LV_ASSERT_OBJ(obj, MY_CLASS);
 191:lvgl/src/widgets/lv_roller.c **** 
 192:lvgl/src/widgets/lv_roller.c ****     const lv_font_t * font = lv_obj_get_style_text_font(obj, LV_PART_MAIN);
 193:lvgl/src/widgets/lv_roller.c ****     lv_coord_t line_space = lv_obj_get_style_text_line_space(obj, LV_PART_MAIN);
 194:lvgl/src/widgets/lv_roller.c ****     lv_coord_t border_width = lv_obj_get_style_border_width(obj, LV_PART_MAIN);
 195:lvgl/src/widgets/lv_roller.c ****     lv_obj_set_height(obj, (lv_font_get_line_height(font) + line_space) * row_cnt + 2 * border_widt
 196:lvgl/src/widgets/lv_roller.c **** }
 197:lvgl/src/widgets/lv_roller.c **** 
 198:lvgl/src/widgets/lv_roller.c **** /*=====================
 199:lvgl/src/widgets/lv_roller.c ****  * Getter functions
 200:lvgl/src/widgets/lv_roller.c ****  *====================*/
 201:lvgl/src/widgets/lv_roller.c **** 
 202:lvgl/src/widgets/lv_roller.c **** /**
ARM GAS  C:\usertemp\cc2TdG63.s 			page 5


 203:lvgl/src/widgets/lv_roller.c ****  * Get the id of the selected option
 204:lvgl/src/widgets/lv_roller.c ****  * @param roller pointer to a roller object
 205:lvgl/src/widgets/lv_roller.c ****  * @return id of the selected option (0 ... number of option - 1);
 206:lvgl/src/widgets/lv_roller.c ****  */
 207:lvgl/src/widgets/lv_roller.c **** uint16_t lv_roller_get_selected(const lv_obj_t * obj)
 208:lvgl/src/widgets/lv_roller.c **** {
 209:lvgl/src/widgets/lv_roller.c ****     LV_ASSERT_OBJ(obj, MY_CLASS);
 210:lvgl/src/widgets/lv_roller.c **** 
 211:lvgl/src/widgets/lv_roller.c ****     lv_roller_t * roller = (lv_roller_t *)obj;
 212:lvgl/src/widgets/lv_roller.c ****     if(roller->mode == LV_ROLLER_MODE_INFINITE) {
 213:lvgl/src/widgets/lv_roller.c ****         uint16_t real_id_cnt = roller->option_cnt / LV_ROLLER_INF_PAGES;
 214:lvgl/src/widgets/lv_roller.c ****         return roller->sel_opt_id % real_id_cnt;
 215:lvgl/src/widgets/lv_roller.c ****     }
 216:lvgl/src/widgets/lv_roller.c ****     else {
 217:lvgl/src/widgets/lv_roller.c ****         return roller->sel_opt_id;
 218:lvgl/src/widgets/lv_roller.c ****     }
 219:lvgl/src/widgets/lv_roller.c **** }
 220:lvgl/src/widgets/lv_roller.c **** 
 221:lvgl/src/widgets/lv_roller.c **** /**
 222:lvgl/src/widgets/lv_roller.c ****  * Get the current selected option as a string
 223:lvgl/src/widgets/lv_roller.c ****  * @param ddlist pointer to ddlist object
 224:lvgl/src/widgets/lv_roller.c ****  * @param buf pointer to an array to store the string
 225:lvgl/src/widgets/lv_roller.c ****  * @param buf_size size of `buf` in bytes. 0: to ignore it.
 226:lvgl/src/widgets/lv_roller.c ****  */
 227:lvgl/src/widgets/lv_roller.c **** void lv_roller_get_selected_str(const lv_obj_t * obj, char * buf, uint32_t buf_size)
 228:lvgl/src/widgets/lv_roller.c **** {
 229:lvgl/src/widgets/lv_roller.c ****     LV_ASSERT_OBJ(obj, MY_CLASS);
 230:lvgl/src/widgets/lv_roller.c **** 
 231:lvgl/src/widgets/lv_roller.c ****     lv_roller_t * roller = (lv_roller_t *)obj;
 232:lvgl/src/widgets/lv_roller.c ****     lv_obj_t * label = get_label(obj);
 233:lvgl/src/widgets/lv_roller.c ****     uint32_t i;
 234:lvgl/src/widgets/lv_roller.c ****     uint16_t line        = 0;
 235:lvgl/src/widgets/lv_roller.c ****     const char * opt_txt = lv_label_get_text(label);
 236:lvgl/src/widgets/lv_roller.c ****     size_t txt_len     = strlen(opt_txt);
 237:lvgl/src/widgets/lv_roller.c **** 
 238:lvgl/src/widgets/lv_roller.c ****     for(i = 0; i < txt_len && line != roller->sel_opt_id; i++) {
 239:lvgl/src/widgets/lv_roller.c ****         if(opt_txt[i] == '\n') line++;
 240:lvgl/src/widgets/lv_roller.c ****     }
 241:lvgl/src/widgets/lv_roller.c **** 
 242:lvgl/src/widgets/lv_roller.c ****     uint32_t c;
 243:lvgl/src/widgets/lv_roller.c ****     for(c = 0; i < txt_len && opt_txt[i] != '\n'; c++, i++) {
 244:lvgl/src/widgets/lv_roller.c ****         if(buf_size && c >= buf_size - 1) {
 245:lvgl/src/widgets/lv_roller.c ****             LV_LOG_WARN("lv_dropdown_get_selected_str: the buffer was too small");
 246:lvgl/src/widgets/lv_roller.c ****             break;
 247:lvgl/src/widgets/lv_roller.c ****         }
 248:lvgl/src/widgets/lv_roller.c ****         buf[c] = opt_txt[i];
 249:lvgl/src/widgets/lv_roller.c ****     }
 250:lvgl/src/widgets/lv_roller.c **** 
 251:lvgl/src/widgets/lv_roller.c ****     buf[c] = '\0';
 252:lvgl/src/widgets/lv_roller.c **** }
 253:lvgl/src/widgets/lv_roller.c **** 
 254:lvgl/src/widgets/lv_roller.c **** 
 255:lvgl/src/widgets/lv_roller.c **** /**
 256:lvgl/src/widgets/lv_roller.c ****  * Get the options of a roller
 257:lvgl/src/widgets/lv_roller.c ****  * @param roller pointer to roller object
 258:lvgl/src/widgets/lv_roller.c ****  * @return the options separated by '\n'-s (E.g. "Option1\nOption2\nOption3")
 259:lvgl/src/widgets/lv_roller.c ****  */
ARM GAS  C:\usertemp\cc2TdG63.s 			page 6


 260:lvgl/src/widgets/lv_roller.c **** const char * lv_roller_get_options(const lv_obj_t * obj)
 261:lvgl/src/widgets/lv_roller.c **** {
 262:lvgl/src/widgets/lv_roller.c ****     LV_ASSERT_OBJ(obj, MY_CLASS);
 263:lvgl/src/widgets/lv_roller.c **** 
 264:lvgl/src/widgets/lv_roller.c ****     return lv_label_get_text(get_label(obj));
 265:lvgl/src/widgets/lv_roller.c **** }
 266:lvgl/src/widgets/lv_roller.c **** 
 267:lvgl/src/widgets/lv_roller.c **** 
 268:lvgl/src/widgets/lv_roller.c **** /**
 269:lvgl/src/widgets/lv_roller.c ****  * Get the total number of options
 270:lvgl/src/widgets/lv_roller.c ****  * @param roller pointer to a roller object
 271:lvgl/src/widgets/lv_roller.c ****  * @return the total number of options
 272:lvgl/src/widgets/lv_roller.c ****  */
 273:lvgl/src/widgets/lv_roller.c **** uint16_t lv_roller_get_option_cnt(const lv_obj_t * obj)
 274:lvgl/src/widgets/lv_roller.c **** {
 275:lvgl/src/widgets/lv_roller.c ****     LV_ASSERT_OBJ(obj, MY_CLASS);
 276:lvgl/src/widgets/lv_roller.c **** 
 277:lvgl/src/widgets/lv_roller.c ****     lv_roller_t * roller = (lv_roller_t *)obj;
 278:lvgl/src/widgets/lv_roller.c ****     if(roller->mode == LV_ROLLER_MODE_INFINITE) {
 279:lvgl/src/widgets/lv_roller.c ****         return roller->option_cnt / LV_ROLLER_INF_PAGES;
 280:lvgl/src/widgets/lv_roller.c ****     }
 281:lvgl/src/widgets/lv_roller.c ****     else {
 282:lvgl/src/widgets/lv_roller.c ****         return roller->option_cnt;
 283:lvgl/src/widgets/lv_roller.c ****     }
 284:lvgl/src/widgets/lv_roller.c **** }
 285:lvgl/src/widgets/lv_roller.c **** 
 286:lvgl/src/widgets/lv_roller.c **** /**********************
 287:lvgl/src/widgets/lv_roller.c ****  *   STATIC FUNCTIONS
 288:lvgl/src/widgets/lv_roller.c ****  **********************/
 289:lvgl/src/widgets/lv_roller.c **** 
 290:lvgl/src/widgets/lv_roller.c **** 
 291:lvgl/src/widgets/lv_roller.c **** static void lv_roller_constructor(const lv_obj_class_t * class_p, lv_obj_t * obj)
 292:lvgl/src/widgets/lv_roller.c **** {
 293:lvgl/src/widgets/lv_roller.c ****     LV_UNUSED(class_p);
 294:lvgl/src/widgets/lv_roller.c ****     lv_roller_t * roller = (lv_roller_t *)obj;
 295:lvgl/src/widgets/lv_roller.c **** 
 296:lvgl/src/widgets/lv_roller.c ****     roller->mode = LV_ROLLER_MODE_NORMAL;
 297:lvgl/src/widgets/lv_roller.c ****     roller->option_cnt = 0;
 298:lvgl/src/widgets/lv_roller.c ****     roller->sel_opt_id = 0;
 299:lvgl/src/widgets/lv_roller.c ****     roller->sel_opt_id_ori = 0;
 300:lvgl/src/widgets/lv_roller.c **** 
 301:lvgl/src/widgets/lv_roller.c ****     lv_obj_clear_flag(obj, LV_OBJ_FLAG_SCROLLABLE);
 302:lvgl/src/widgets/lv_roller.c ****     lv_obj_clear_flag(obj, LV_OBJ_FLAG_SCROLL_CHAIN_VER);
 303:lvgl/src/widgets/lv_roller.c **** 
 304:lvgl/src/widgets/lv_roller.c ****     LV_LOG_INFO("begin");
 305:lvgl/src/widgets/lv_roller.c ****     lv_obj_t * label = lv_obj_class_create_obj(&lv_roller_label_class, obj);
 306:lvgl/src/widgets/lv_roller.c ****     lv_obj_class_init_obj(label);
 307:lvgl/src/widgets/lv_roller.c ****     lv_roller_set_options(obj, "Option 1\nOption 2\nOption 3\nOption 4\nOption 5", LV_ROLLER_MODE_N
 308:lvgl/src/widgets/lv_roller.c **** 
 309:lvgl/src/widgets/lv_roller.c ****     LV_LOG_TRACE("finshed");
 310:lvgl/src/widgets/lv_roller.c **** }
 311:lvgl/src/widgets/lv_roller.c **** 
 312:lvgl/src/widgets/lv_roller.c **** static void lv_roller_event(const lv_obj_class_t * class_p, lv_event_t * e)
 313:lvgl/src/widgets/lv_roller.c **** {
 314:lvgl/src/widgets/lv_roller.c ****     LV_UNUSED(class_p);
 315:lvgl/src/widgets/lv_roller.c **** 
 316:lvgl/src/widgets/lv_roller.c ****     lv_res_t res;
ARM GAS  C:\usertemp\cc2TdG63.s 			page 7


 317:lvgl/src/widgets/lv_roller.c **** 
 318:lvgl/src/widgets/lv_roller.c ****     /*Call the ancestor's event handler*/
 319:lvgl/src/widgets/lv_roller.c ****     res = lv_obj_event_base(MY_CLASS, e);
 320:lvgl/src/widgets/lv_roller.c ****     if(res != LV_RES_OK) return;
 321:lvgl/src/widgets/lv_roller.c **** 
 322:lvgl/src/widgets/lv_roller.c ****     lv_event_code_t code = lv_event_get_code(e);
 323:lvgl/src/widgets/lv_roller.c ****     lv_obj_t * obj = lv_event_get_target(e);
 324:lvgl/src/widgets/lv_roller.c ****     lv_roller_t * roller = (lv_roller_t *)obj;
 325:lvgl/src/widgets/lv_roller.c **** 
 326:lvgl/src/widgets/lv_roller.c ****     if(code == LV_EVENT_GET_SELF_SIZE) {
 327:lvgl/src/widgets/lv_roller.c ****         lv_point_t * p = lv_event_get_param(e);
 328:lvgl/src/widgets/lv_roller.c ****         p->x = get_selected_label_width(obj);
 329:lvgl/src/widgets/lv_roller.c ****     }
 330:lvgl/src/widgets/lv_roller.c ****     else if(code == LV_EVENT_STYLE_CHANGED) {
 331:lvgl/src/widgets/lv_roller.c ****         lv_obj_t * label = get_label(obj);
 332:lvgl/src/widgets/lv_roller.c ****         /*Be sure the label's style is updated before processing the roller*/
 333:lvgl/src/widgets/lv_roller.c ****         if(label) lv_event_send(label, LV_EVENT_STYLE_CHANGED, NULL);
 334:lvgl/src/widgets/lv_roller.c ****         lv_obj_refresh_self_size(obj);
 335:lvgl/src/widgets/lv_roller.c ****         refr_position(obj, LV_ANIM_OFF);
 336:lvgl/src/widgets/lv_roller.c ****     }
 337:lvgl/src/widgets/lv_roller.c ****     else if(code == LV_EVENT_SIZE_CHANGED) {
 338:lvgl/src/widgets/lv_roller.c ****         refr_position(obj, LV_ANIM_OFF);
 339:lvgl/src/widgets/lv_roller.c ****     }
 340:lvgl/src/widgets/lv_roller.c ****     else if(code == LV_EVENT_PRESSED) {
 341:lvgl/src/widgets/lv_roller.c ****         roller->moved = 0;
 342:lvgl/src/widgets/lv_roller.c ****         lv_anim_del(get_label(obj), set_y_anim);
 343:lvgl/src/widgets/lv_roller.c ****     }
 344:lvgl/src/widgets/lv_roller.c ****     else if(code == LV_EVENT_PRESSING) {
 345:lvgl/src/widgets/lv_roller.c ****         lv_indev_t * indev = lv_indev_get_act();
 346:lvgl/src/widgets/lv_roller.c ****         lv_point_t p;
 347:lvgl/src/widgets/lv_roller.c ****         lv_indev_get_vect(indev, &p);
 348:lvgl/src/widgets/lv_roller.c ****         if(p.y) {
 349:lvgl/src/widgets/lv_roller.c ****             lv_obj_t * label = get_label(obj);
 350:lvgl/src/widgets/lv_roller.c ****             lv_obj_set_y(label, lv_obj_get_y(label) + p.y);
 351:lvgl/src/widgets/lv_roller.c ****             roller->moved = 1;
 352:lvgl/src/widgets/lv_roller.c ****         }
 353:lvgl/src/widgets/lv_roller.c ****     }
 354:lvgl/src/widgets/lv_roller.c ****     else if(code == LV_EVENT_RELEASED || code == LV_EVENT_PRESS_LOST) {
 355:lvgl/src/widgets/lv_roller.c ****         release_handler(obj);
 356:lvgl/src/widgets/lv_roller.c ****     }
 357:lvgl/src/widgets/lv_roller.c ****     else if(code == LV_EVENT_FOCUSED) {
 358:lvgl/src/widgets/lv_roller.c ****         lv_group_t * g             = lv_obj_get_group(obj);
 359:lvgl/src/widgets/lv_roller.c ****         bool editing               = lv_group_get_editing(g);
 360:lvgl/src/widgets/lv_roller.c ****         lv_indev_type_t indev_type = lv_indev_get_type(lv_indev_get_act());
 361:lvgl/src/widgets/lv_roller.c **** 
 362:lvgl/src/widgets/lv_roller.c ****         /*Encoders need special handling*/
 363:lvgl/src/widgets/lv_roller.c ****         if(indev_type == LV_INDEV_TYPE_ENCODER) {
 364:lvgl/src/widgets/lv_roller.c ****             /*In navigate mode revert the original value*/
 365:lvgl/src/widgets/lv_roller.c ****             if(!editing) {
 366:lvgl/src/widgets/lv_roller.c ****                 if(roller->sel_opt_id != roller->sel_opt_id_ori) {
 367:lvgl/src/widgets/lv_roller.c ****                     roller->sel_opt_id = roller->sel_opt_id_ori;
 368:lvgl/src/widgets/lv_roller.c ****                     refr_position(obj, LV_ANIM_ON);
 369:lvgl/src/widgets/lv_roller.c ****                 }
 370:lvgl/src/widgets/lv_roller.c ****             }
 371:lvgl/src/widgets/lv_roller.c ****             /*Save the current state when entered to edit mode*/
 372:lvgl/src/widgets/lv_roller.c ****             else {
 373:lvgl/src/widgets/lv_roller.c ****                 roller->sel_opt_id_ori = roller->sel_opt_id;
ARM GAS  C:\usertemp\cc2TdG63.s 			page 8


 374:lvgl/src/widgets/lv_roller.c ****             }
 375:lvgl/src/widgets/lv_roller.c ****         }
 376:lvgl/src/widgets/lv_roller.c ****         else {
 377:lvgl/src/widgets/lv_roller.c ****             roller->sel_opt_id_ori = roller->sel_opt_id; /*Save the current value. Used to revert t
 378:lvgl/src/widgets/lv_roller.c ****                                                                     ENTER won't be pressed*/
 379:lvgl/src/widgets/lv_roller.c ****         }
 380:lvgl/src/widgets/lv_roller.c ****     }
 381:lvgl/src/widgets/lv_roller.c ****     else if(code == LV_EVENT_DEFOCUSED) {
 382:lvgl/src/widgets/lv_roller.c ****         /*Revert the original state*/
 383:lvgl/src/widgets/lv_roller.c ****         if(roller->sel_opt_id != roller->sel_opt_id_ori) {
 384:lvgl/src/widgets/lv_roller.c ****             roller->sel_opt_id = roller->sel_opt_id_ori;
 385:lvgl/src/widgets/lv_roller.c ****             refr_position(obj, LV_ANIM_ON);
 386:lvgl/src/widgets/lv_roller.c ****         }
 387:lvgl/src/widgets/lv_roller.c ****     }
 388:lvgl/src/widgets/lv_roller.c ****     else if(code == LV_EVENT_KEY) {
 389:lvgl/src/widgets/lv_roller.c ****         char c = *((char *)lv_event_get_param(e));
 390:lvgl/src/widgets/lv_roller.c ****         if(c == LV_KEY_RIGHT || c == LV_KEY_DOWN) {
 391:lvgl/src/widgets/lv_roller.c ****             if(roller->sel_opt_id + 1 < roller->option_cnt) {
 392:lvgl/src/widgets/lv_roller.c ****                 uint16_t ori_id = roller->sel_opt_id_ori; /*lv_roller_set_selected will overwrite t
 393:lvgl/src/widgets/lv_roller.c ****                 lv_roller_set_selected(obj, roller->sel_opt_id + 1, LV_ANIM_ON);
 394:lvgl/src/widgets/lv_roller.c ****                 roller->sel_opt_id_ori = ori_id;
 395:lvgl/src/widgets/lv_roller.c ****             }
 396:lvgl/src/widgets/lv_roller.c ****         }
 397:lvgl/src/widgets/lv_roller.c ****         else if(c == LV_KEY_LEFT || c == LV_KEY_UP) {
 398:lvgl/src/widgets/lv_roller.c ****             if(roller->sel_opt_id > 0) {
 399:lvgl/src/widgets/lv_roller.c ****                 uint16_t ori_id = roller->sel_opt_id_ori; /*lv_roller_set_selected will overwrite t
 400:lvgl/src/widgets/lv_roller.c **** 
 401:lvgl/src/widgets/lv_roller.c ****                 lv_roller_set_selected(obj, roller->sel_opt_id - 1, LV_ANIM_ON);
 402:lvgl/src/widgets/lv_roller.c ****                 roller->sel_opt_id_ori = ori_id;
 403:lvgl/src/widgets/lv_roller.c ****             }
 404:lvgl/src/widgets/lv_roller.c ****         }
 405:lvgl/src/widgets/lv_roller.c ****     }
 406:lvgl/src/widgets/lv_roller.c ****     else if(code == LV_EVENT_REFR_EXT_DRAW_SIZE) {
 407:lvgl/src/widgets/lv_roller.c ****         lv_obj_t * label = get_label(obj);
 408:lvgl/src/widgets/lv_roller.c ****         lv_obj_refresh_ext_draw_size(label);
 409:lvgl/src/widgets/lv_roller.c ****     }
 410:lvgl/src/widgets/lv_roller.c ****     else if(code == LV_EVENT_DRAW_MAIN || code == LV_EVENT_DRAW_POST) {
 411:lvgl/src/widgets/lv_roller.c ****         draw_main(e);
 412:lvgl/src/widgets/lv_roller.c ****     }
 413:lvgl/src/widgets/lv_roller.c **** }
 414:lvgl/src/widgets/lv_roller.c **** 
 415:lvgl/src/widgets/lv_roller.c **** static void lv_roller_label_event(const lv_obj_class_t * class_p, lv_event_t * e)
 416:lvgl/src/widgets/lv_roller.c **** {
 417:lvgl/src/widgets/lv_roller.c ****     LV_UNUSED(class_p);
 418:lvgl/src/widgets/lv_roller.c **** 
 419:lvgl/src/widgets/lv_roller.c ****     lv_res_t res;
 420:lvgl/src/widgets/lv_roller.c **** 
 421:lvgl/src/widgets/lv_roller.c ****     lv_event_code_t code = lv_event_get_code(e);
 422:lvgl/src/widgets/lv_roller.c ****     /*LV_EVENT_DRAW_MAIN will be called in the draw function*/
 423:lvgl/src/widgets/lv_roller.c ****     if(code != LV_EVENT_DRAW_MAIN) {
 424:lvgl/src/widgets/lv_roller.c ****         /* Call the ancestor's event handler */
 425:lvgl/src/widgets/lv_roller.c ****         res = lv_obj_event_base(MY_CLASS_LABEL, e);
 426:lvgl/src/widgets/lv_roller.c ****         if(res != LV_RES_OK) return;
 427:lvgl/src/widgets/lv_roller.c ****     }
 428:lvgl/src/widgets/lv_roller.c **** 
 429:lvgl/src/widgets/lv_roller.c ****     lv_obj_t * label = lv_event_get_target(e);
 430:lvgl/src/widgets/lv_roller.c ****     if(code == LV_EVENT_REFR_EXT_DRAW_SIZE) {
ARM GAS  C:\usertemp\cc2TdG63.s 			page 9


 431:lvgl/src/widgets/lv_roller.c ****         /*If the selected text has a larger font it needs some extra space to draw it*/
 432:lvgl/src/widgets/lv_roller.c ****         lv_coord_t * s = lv_event_get_param(e);
 433:lvgl/src/widgets/lv_roller.c ****         lv_obj_t * obj = lv_obj_get_parent(label);
 434:lvgl/src/widgets/lv_roller.c ****         lv_coord_t sel_w = get_selected_label_width(obj);
 435:lvgl/src/widgets/lv_roller.c ****         lv_coord_t label_w = lv_obj_get_width(label);
 436:lvgl/src/widgets/lv_roller.c ****         *s = LV_MAX(*s, sel_w - label_w);
 437:lvgl/src/widgets/lv_roller.c ****     }
 438:lvgl/src/widgets/lv_roller.c ****     else if(code == LV_EVENT_SIZE_CHANGED) {
 439:lvgl/src/widgets/lv_roller.c ****         refr_position(lv_obj_get_parent(label), LV_ANIM_OFF);
 440:lvgl/src/widgets/lv_roller.c ****     }
 441:lvgl/src/widgets/lv_roller.c ****     else if(code == LV_EVENT_DRAW_MAIN) {
 442:lvgl/src/widgets/lv_roller.c ****         draw_label(e);
 443:lvgl/src/widgets/lv_roller.c ****     }
 444:lvgl/src/widgets/lv_roller.c **** }
 445:lvgl/src/widgets/lv_roller.c **** 
 446:lvgl/src/widgets/lv_roller.c **** 
 447:lvgl/src/widgets/lv_roller.c **** static void draw_main(lv_event_t * e)
 448:lvgl/src/widgets/lv_roller.c **** {
 449:lvgl/src/widgets/lv_roller.c ****     lv_event_code_t code = lv_event_get_code(e);
 450:lvgl/src/widgets/lv_roller.c ****     lv_obj_t * obj = lv_event_get_target(e);
 451:lvgl/src/widgets/lv_roller.c ****     if(code == LV_EVENT_DRAW_MAIN) {
 452:lvgl/src/widgets/lv_roller.c ****         /*Draw the selected rectangle*/
 453:lvgl/src/widgets/lv_roller.c ****         lv_draw_ctx_t * draw_ctx = lv_event_get_draw_ctx(e);
 454:lvgl/src/widgets/lv_roller.c ****         lv_area_t sel_area;
 455:lvgl/src/widgets/lv_roller.c ****         get_sel_area(obj, &sel_area);
 456:lvgl/src/widgets/lv_roller.c ****         lv_draw_rect_dsc_t sel_dsc;
 457:lvgl/src/widgets/lv_roller.c ****         lv_draw_rect_dsc_init(&sel_dsc);
 458:lvgl/src/widgets/lv_roller.c ****         lv_obj_init_draw_rect_dsc(obj, LV_PART_SELECTED, &sel_dsc);
 459:lvgl/src/widgets/lv_roller.c ****         lv_draw_rect(draw_ctx, &sel_dsc, &sel_area);
 460:lvgl/src/widgets/lv_roller.c ****     }
 461:lvgl/src/widgets/lv_roller.c ****     /*Post draw when the children are drawn*/
 462:lvgl/src/widgets/lv_roller.c ****     else if(code == LV_EVENT_DRAW_POST) {
 463:lvgl/src/widgets/lv_roller.c ****         lv_draw_ctx_t * draw_ctx = lv_event_get_draw_ctx(e);
 464:lvgl/src/widgets/lv_roller.c **** 
 465:lvgl/src/widgets/lv_roller.c ****         lv_draw_label_dsc_t label_dsc;
 466:lvgl/src/widgets/lv_roller.c ****         lv_draw_label_dsc_init(&label_dsc);
 467:lvgl/src/widgets/lv_roller.c ****         lv_obj_init_draw_label_dsc(obj, LV_PART_SELECTED, &label_dsc);
 468:lvgl/src/widgets/lv_roller.c **** 
 469:lvgl/src/widgets/lv_roller.c ****         /*Redraw the text on the selected area*/
 470:lvgl/src/widgets/lv_roller.c ****         lv_area_t sel_area;
 471:lvgl/src/widgets/lv_roller.c ****         get_sel_area(obj, &sel_area);
 472:lvgl/src/widgets/lv_roller.c ****         lv_area_t mask_sel;
 473:lvgl/src/widgets/lv_roller.c ****         bool area_ok;
 474:lvgl/src/widgets/lv_roller.c ****         area_ok = _lv_area_intersect(&mask_sel, draw_ctx->clip_area, &sel_area);
 475:lvgl/src/widgets/lv_roller.c ****         if(area_ok) {
 476:lvgl/src/widgets/lv_roller.c ****             lv_obj_t * label = get_label(obj);
 477:lvgl/src/widgets/lv_roller.c **** 
 478:lvgl/src/widgets/lv_roller.c ****             /*Get the size of the "selected text"*/
 479:lvgl/src/widgets/lv_roller.c ****             lv_point_t res_p;
 480:lvgl/src/widgets/lv_roller.c ****             lv_txt_get_size(&res_p, lv_label_get_text(label), label_dsc.font, label_dsc.letter_spac
 481:lvgl/src/widgets/lv_roller.c ****                             lv_obj_get_width(obj), LV_TEXT_FLAG_EXPAND);
 482:lvgl/src/widgets/lv_roller.c **** 
 483:lvgl/src/widgets/lv_roller.c ****             /*Move the selected label proportionally with the background label*/
 484:lvgl/src/widgets/lv_roller.c ****             lv_coord_t roller_h = lv_obj_get_height(obj);
 485:lvgl/src/widgets/lv_roller.c ****             int32_t label_y_prop = label->coords.y1 - (roller_h / 2 +
 486:lvgl/src/widgets/lv_roller.c ****                                                        obj->coords.y1); /*label offset from the mid
 487:lvgl/src/widgets/lv_roller.c ****             label_y_prop = (label_y_prop * 16384) / lv_obj_get_height(
ARM GAS  C:\usertemp\cc2TdG63.s 			page 10


 488:lvgl/src/widgets/lv_roller.c ****                                label); /*Proportional position from the middle line (upscaled by <<
 489:lvgl/src/widgets/lv_roller.c **** 
 490:lvgl/src/widgets/lv_roller.c ****             /*Apply a correction with different line heights*/
 491:lvgl/src/widgets/lv_roller.c ****             const lv_font_t * normal_label_font = lv_obj_get_style_text_font(obj, LV_PART_MAIN);
 492:lvgl/src/widgets/lv_roller.c ****             lv_coord_t corr = (label_dsc.font->line_height - normal_label_font->line_height) / 2;
 493:lvgl/src/widgets/lv_roller.c **** 
 494:lvgl/src/widgets/lv_roller.c ****             /*Apply the proportional position to the selected text*/
 495:lvgl/src/widgets/lv_roller.c ****             res_p.y -= corr;
 496:lvgl/src/widgets/lv_roller.c ****             int32_t label_sel_y = roller_h / 2 + obj->coords.y1;
 497:lvgl/src/widgets/lv_roller.c ****             label_sel_y += (label_y_prop * res_p.y) >> 14;
 498:lvgl/src/widgets/lv_roller.c ****             label_sel_y -= corr;
 499:lvgl/src/widgets/lv_roller.c **** 
 500:lvgl/src/widgets/lv_roller.c ****             lv_coord_t bwidth = lv_obj_get_style_border_width(obj, LV_PART_MAIN);
 501:lvgl/src/widgets/lv_roller.c ****             lv_coord_t pleft = lv_obj_get_style_pad_left(obj, LV_PART_MAIN);
 502:lvgl/src/widgets/lv_roller.c ****             lv_coord_t pright = lv_obj_get_style_pad_right(obj, LV_PART_MAIN);
 503:lvgl/src/widgets/lv_roller.c **** 
 504:lvgl/src/widgets/lv_roller.c ****             /*Draw the selected text*/
 505:lvgl/src/widgets/lv_roller.c ****             lv_area_t label_sel_area;
 506:lvgl/src/widgets/lv_roller.c ****             label_sel_area.x1 = obj->coords.x1 + pleft + bwidth;
 507:lvgl/src/widgets/lv_roller.c ****             label_sel_area.y1 = label_sel_y;
 508:lvgl/src/widgets/lv_roller.c ****             label_sel_area.x2 = obj->coords.x2 - pright - bwidth;
 509:lvgl/src/widgets/lv_roller.c ****             label_sel_area.y2 = label_sel_area.y1 + res_p.y;
 510:lvgl/src/widgets/lv_roller.c **** 
 511:lvgl/src/widgets/lv_roller.c ****             label_dsc.flag |= LV_TEXT_FLAG_EXPAND;
 512:lvgl/src/widgets/lv_roller.c ****             const lv_area_t * clip_area_ori = draw_ctx->clip_area;
 513:lvgl/src/widgets/lv_roller.c ****             draw_ctx->clip_area = &mask_sel;
 514:lvgl/src/widgets/lv_roller.c ****             lv_draw_label(draw_ctx, &label_dsc, &label_sel_area, lv_label_get_text(label), NULL);
 515:lvgl/src/widgets/lv_roller.c ****             draw_ctx->clip_area = clip_area_ori;
 516:lvgl/src/widgets/lv_roller.c ****         }
 517:lvgl/src/widgets/lv_roller.c ****     }
 518:lvgl/src/widgets/lv_roller.c **** }
 519:lvgl/src/widgets/lv_roller.c **** 
 520:lvgl/src/widgets/lv_roller.c **** static void draw_label(lv_event_t * e)
 521:lvgl/src/widgets/lv_roller.c **** {
 522:lvgl/src/widgets/lv_roller.c ****     /* Split the drawing of the label into  an upper (above the selected area)
 523:lvgl/src/widgets/lv_roller.c ****      * and a lower (below the selected area)*/
 524:lvgl/src/widgets/lv_roller.c ****     lv_obj_t * label_obj = lv_event_get_target(e);
 525:lvgl/src/widgets/lv_roller.c ****     lv_obj_t * roller = lv_obj_get_parent(label_obj);
 526:lvgl/src/widgets/lv_roller.c ****     lv_draw_label_dsc_t label_draw_dsc;
 527:lvgl/src/widgets/lv_roller.c ****     lv_draw_label_dsc_init(&label_draw_dsc);
 528:lvgl/src/widgets/lv_roller.c ****     lv_obj_init_draw_label_dsc(roller, LV_PART_MAIN, &label_draw_dsc);
 529:lvgl/src/widgets/lv_roller.c ****     lv_draw_ctx_t * draw_ctx = lv_event_get_draw_ctx(e);
 530:lvgl/src/widgets/lv_roller.c **** 
 531:lvgl/src/widgets/lv_roller.c ****     /*If the roller has shadow or outline it has some ext. draw size
 532:lvgl/src/widgets/lv_roller.c ****      *therefore the label can overflow the roller's boundaries.
 533:lvgl/src/widgets/lv_roller.c ****      *To solve this limit the clip area to the "plain" roller.*/
 534:lvgl/src/widgets/lv_roller.c ****     const lv_area_t * clip_area_ori = draw_ctx->clip_area;
 535:lvgl/src/widgets/lv_roller.c ****     lv_area_t roller_clip_area;
 536:lvgl/src/widgets/lv_roller.c ****     if(!_lv_area_intersect(&roller_clip_area, draw_ctx->clip_area, &roller->coords)) return;
 537:lvgl/src/widgets/lv_roller.c ****     draw_ctx->clip_area = &roller_clip_area;
 538:lvgl/src/widgets/lv_roller.c **** 
 539:lvgl/src/widgets/lv_roller.c ****     lv_area_t sel_area;
 540:lvgl/src/widgets/lv_roller.c ****     get_sel_area(roller, &sel_area);
 541:lvgl/src/widgets/lv_roller.c **** 
 542:lvgl/src/widgets/lv_roller.c ****     lv_area_t clip2;
 543:lvgl/src/widgets/lv_roller.c ****     clip2.x1 = label_obj->coords.x1;
 544:lvgl/src/widgets/lv_roller.c ****     clip2.y1 = label_obj->coords.y1;
ARM GAS  C:\usertemp\cc2TdG63.s 			page 11


 545:lvgl/src/widgets/lv_roller.c ****     clip2.x2 = label_obj->coords.x2;
 546:lvgl/src/widgets/lv_roller.c ****     clip2.y2 = sel_area.y1;
 547:lvgl/src/widgets/lv_roller.c ****     if(_lv_area_intersect(&clip2, draw_ctx->clip_area, &clip2)) {
 548:lvgl/src/widgets/lv_roller.c ****         const lv_area_t * clip_area_ori2 = draw_ctx->clip_area;
 549:lvgl/src/widgets/lv_roller.c ****         draw_ctx->clip_area = &clip2;
 550:lvgl/src/widgets/lv_roller.c ****         lv_draw_label(draw_ctx, &label_draw_dsc, &label_obj->coords, lv_label_get_text(label_obj), 
 551:lvgl/src/widgets/lv_roller.c ****         draw_ctx->clip_area = clip_area_ori2;
 552:lvgl/src/widgets/lv_roller.c ****     }
 553:lvgl/src/widgets/lv_roller.c **** 
 554:lvgl/src/widgets/lv_roller.c ****     clip2.x1 = label_obj->coords.x1;
 555:lvgl/src/widgets/lv_roller.c ****     clip2.y1 = sel_area.y2;
 556:lvgl/src/widgets/lv_roller.c ****     clip2.x2 = label_obj->coords.x2;
 557:lvgl/src/widgets/lv_roller.c ****     clip2.y2 = label_obj->coords.y2;
 558:lvgl/src/widgets/lv_roller.c ****     if(_lv_area_intersect(&clip2, draw_ctx->clip_area, &clip2)) {
 559:lvgl/src/widgets/lv_roller.c ****         const lv_area_t * clip_area_ori2 = draw_ctx->clip_area;
 560:lvgl/src/widgets/lv_roller.c ****         draw_ctx->clip_area = &clip2;
 561:lvgl/src/widgets/lv_roller.c ****         lv_draw_label(draw_ctx, &label_draw_dsc, &label_obj->coords, lv_label_get_text(label_obj), 
 562:lvgl/src/widgets/lv_roller.c ****         draw_ctx->clip_area = clip_area_ori2;
 563:lvgl/src/widgets/lv_roller.c ****     }
 564:lvgl/src/widgets/lv_roller.c **** 
 565:lvgl/src/widgets/lv_roller.c ****     draw_ctx->clip_area = clip_area_ori;
 566:lvgl/src/widgets/lv_roller.c **** }
 567:lvgl/src/widgets/lv_roller.c **** 
 568:lvgl/src/widgets/lv_roller.c **** static void get_sel_area(lv_obj_t * obj, lv_area_t * sel_area)
 569:lvgl/src/widgets/lv_roller.c **** {
 570:lvgl/src/widgets/lv_roller.c **** 
 571:lvgl/src/widgets/lv_roller.c ****     const lv_font_t * font_main = lv_obj_get_style_text_font(obj, LV_PART_MAIN);
 572:lvgl/src/widgets/lv_roller.c ****     const lv_font_t * font_sel = lv_obj_get_style_text_font(obj, LV_PART_SELECTED);
 573:lvgl/src/widgets/lv_roller.c ****     lv_coord_t font_main_h        = lv_font_get_line_height(font_main);
 574:lvgl/src/widgets/lv_roller.c ****     lv_coord_t font_sel_h        = lv_font_get_line_height(font_sel);
 575:lvgl/src/widgets/lv_roller.c ****     lv_coord_t line_space = lv_obj_get_style_text_line_space(obj, LV_PART_MAIN);
 576:lvgl/src/widgets/lv_roller.c ****     lv_coord_t d = (font_sel_h + font_main_h) / 2 + line_space;
 577:lvgl/src/widgets/lv_roller.c ****     sel_area->y1 = obj->coords.y1 + lv_obj_get_height(obj) / 2 - d / 2;
 578:lvgl/src/widgets/lv_roller.c ****     sel_area->y2 = sel_area->y1 + d;
 579:lvgl/src/widgets/lv_roller.c ****     lv_area_t roller_coords;
 580:lvgl/src/widgets/lv_roller.c ****     lv_obj_get_coords(obj, &roller_coords);
 581:lvgl/src/widgets/lv_roller.c **** 
 582:lvgl/src/widgets/lv_roller.c ****     sel_area->x1 = roller_coords.x1;
 583:lvgl/src/widgets/lv_roller.c ****     sel_area->x2 = roller_coords.x2;
 584:lvgl/src/widgets/lv_roller.c **** 
 585:lvgl/src/widgets/lv_roller.c **** }
 586:lvgl/src/widgets/lv_roller.c **** 
 587:lvgl/src/widgets/lv_roller.c **** /**
 588:lvgl/src/widgets/lv_roller.c ****  * Refresh the position of the roller. It uses the id stored in: roller->ddlist.selected_option_id
 589:lvgl/src/widgets/lv_roller.c ****  * @param roller pointer to a roller object
 590:lvgl/src/widgets/lv_roller.c ****  * @param anim_en LV_ANIM_ON: refresh with animation; LV_ANOM_OFF: without animation
 591:lvgl/src/widgets/lv_roller.c ****  */
 592:lvgl/src/widgets/lv_roller.c **** static void refr_position(lv_obj_t * obj, lv_anim_enable_t anim_en)
 593:lvgl/src/widgets/lv_roller.c **** {
 594:lvgl/src/widgets/lv_roller.c ****     lv_obj_t * label = get_label(obj);
 595:lvgl/src/widgets/lv_roller.c ****     if(label == NULL) return;
 596:lvgl/src/widgets/lv_roller.c **** 
 597:lvgl/src/widgets/lv_roller.c ****     lv_text_align_t align = lv_obj_calculate_style_text_align(label, LV_PART_MAIN, lv_label_get_tex
 598:lvgl/src/widgets/lv_roller.c **** 
 599:lvgl/src/widgets/lv_roller.c ****     switch(align) {
 600:lvgl/src/widgets/lv_roller.c ****         case LV_TEXT_ALIGN_CENTER:
 601:lvgl/src/widgets/lv_roller.c ****             lv_obj_set_x(label, (lv_obj_get_content_width(obj) - lv_obj_get_width(label)) / 2);
ARM GAS  C:\usertemp\cc2TdG63.s 			page 12


 602:lvgl/src/widgets/lv_roller.c ****             break;
 603:lvgl/src/widgets/lv_roller.c ****         case LV_TEXT_ALIGN_RIGHT:
 604:lvgl/src/widgets/lv_roller.c ****             lv_obj_set_x(label, lv_obj_get_content_width(obj) - lv_obj_get_width(label));
 605:lvgl/src/widgets/lv_roller.c ****             break;
 606:lvgl/src/widgets/lv_roller.c ****         case LV_TEXT_ALIGN_LEFT:
 607:lvgl/src/widgets/lv_roller.c ****             lv_obj_set_x(label, 0);
 608:lvgl/src/widgets/lv_roller.c ****             break;
 609:lvgl/src/widgets/lv_roller.c ****     }
 610:lvgl/src/widgets/lv_roller.c **** 
 611:lvgl/src/widgets/lv_roller.c ****     lv_roller_t * roller = (lv_roller_t *)obj;
 612:lvgl/src/widgets/lv_roller.c ****     const lv_font_t * font = lv_obj_get_style_text_font(obj, LV_PART_MAIN);
 613:lvgl/src/widgets/lv_roller.c ****     lv_coord_t line_space = lv_obj_get_style_text_line_space(obj, LV_PART_MAIN);
 614:lvgl/src/widgets/lv_roller.c ****     lv_coord_t font_h              = lv_font_get_line_height(font);
 615:lvgl/src/widgets/lv_roller.c ****     lv_coord_t h                   = lv_obj_get_content_height(obj);
 616:lvgl/src/widgets/lv_roller.c ****     uint16_t anim_time             = lv_obj_get_style_anim_time(obj, LV_PART_MAIN);
 617:lvgl/src/widgets/lv_roller.c **** 
 618:lvgl/src/widgets/lv_roller.c ****     /*Normally the animation's `end_cb` sets correct position of the roller if infinite.
 619:lvgl/src/widgets/lv_roller.c ****      *But without animations do it manually*/
 620:lvgl/src/widgets/lv_roller.c ****     if(anim_en == LV_ANIM_OFF || anim_time == 0) {
 621:lvgl/src/widgets/lv_roller.c ****         inf_normalize(obj);
 622:lvgl/src/widgets/lv_roller.c ****     }
 623:lvgl/src/widgets/lv_roller.c **** 
 624:lvgl/src/widgets/lv_roller.c ****     int32_t id = roller->sel_opt_id;
 625:lvgl/src/widgets/lv_roller.c ****     lv_coord_t sel_y1 = id * (font_h + line_space);
 626:lvgl/src/widgets/lv_roller.c ****     lv_coord_t mid_y1 = h / 2 - font_h / 2;
 627:lvgl/src/widgets/lv_roller.c **** 
 628:lvgl/src/widgets/lv_roller.c ****     lv_coord_t new_y = mid_y1 - sel_y1;
 629:lvgl/src/widgets/lv_roller.c **** 
 630:lvgl/src/widgets/lv_roller.c ****     if(anim_en == LV_ANIM_OFF || anim_time == 0) {
 631:lvgl/src/widgets/lv_roller.c ****         lv_anim_del(label, set_y_anim);
 632:lvgl/src/widgets/lv_roller.c ****         lv_obj_set_y(label, new_y);
 633:lvgl/src/widgets/lv_roller.c ****     }
 634:lvgl/src/widgets/lv_roller.c ****     else {
 635:lvgl/src/widgets/lv_roller.c ****         lv_anim_t a;
 636:lvgl/src/widgets/lv_roller.c ****         lv_anim_init(&a);
 637:lvgl/src/widgets/lv_roller.c ****         lv_anim_set_var(&a, label);
 638:lvgl/src/widgets/lv_roller.c ****         lv_anim_set_exec_cb(&a, set_y_anim);
 639:lvgl/src/widgets/lv_roller.c ****         lv_anim_set_values(&a, lv_obj_get_y(label), new_y);
 640:lvgl/src/widgets/lv_roller.c ****         lv_anim_set_time(&a, anim_time);
 641:lvgl/src/widgets/lv_roller.c ****         lv_anim_set_ready_cb(&a, scroll_anim_ready_cb);
 642:lvgl/src/widgets/lv_roller.c ****         lv_anim_set_path_cb(&a, lv_anim_path_ease_out);
 643:lvgl/src/widgets/lv_roller.c ****         lv_anim_start(&a);
 644:lvgl/src/widgets/lv_roller.c ****     }
 645:lvgl/src/widgets/lv_roller.c **** }
 646:lvgl/src/widgets/lv_roller.c **** 
 647:lvgl/src/widgets/lv_roller.c **** static lv_res_t release_handler(lv_obj_t * obj)
 648:lvgl/src/widgets/lv_roller.c **** {
 649:lvgl/src/widgets/lv_roller.c ****     lv_obj_t * label = get_label(obj);
 650:lvgl/src/widgets/lv_roller.c ****     if(label == NULL) return LV_RES_OK;
 651:lvgl/src/widgets/lv_roller.c **** 
 652:lvgl/src/widgets/lv_roller.c ****     lv_indev_t * indev = lv_indev_get_act();
 653:lvgl/src/widgets/lv_roller.c ****     lv_roller_t * roller = (lv_roller_t *)obj;
 654:lvgl/src/widgets/lv_roller.c **** 
 655:lvgl/src/widgets/lv_roller.c ****     /*Leave edit mode once a new option is selected*/
 656:lvgl/src/widgets/lv_roller.c ****     lv_indev_type_t indev_type = lv_indev_get_type(indev);
 657:lvgl/src/widgets/lv_roller.c ****     if(indev_type == LV_INDEV_TYPE_ENCODER || indev_type == LV_INDEV_TYPE_KEYPAD) {
 658:lvgl/src/widgets/lv_roller.c ****         roller->sel_opt_id_ori = roller->sel_opt_id;
ARM GAS  C:\usertemp\cc2TdG63.s 			page 13


 659:lvgl/src/widgets/lv_roller.c **** 
 660:lvgl/src/widgets/lv_roller.c ****         if(indev_type == LV_INDEV_TYPE_ENCODER) {
 661:lvgl/src/widgets/lv_roller.c ****             lv_group_t * g      = lv_obj_get_group(obj);
 662:lvgl/src/widgets/lv_roller.c ****             if(lv_group_get_editing(g)) {
 663:lvgl/src/widgets/lv_roller.c ****                 lv_group_set_editing(g, false);
 664:lvgl/src/widgets/lv_roller.c ****             }
 665:lvgl/src/widgets/lv_roller.c ****         }
 666:lvgl/src/widgets/lv_roller.c ****     }
 667:lvgl/src/widgets/lv_roller.c **** 
 668:lvgl/src/widgets/lv_roller.c ****     if(lv_indev_get_type(indev) == LV_INDEV_TYPE_POINTER || lv_indev_get_type(indev) == LV_INDEV_TY
 669:lvgl/src/widgets/lv_roller.c ****         /*Search the clicked option (For KEYPAD and ENCODER the new value should be already set)*/
 670:lvgl/src/widgets/lv_roller.c ****         int16_t new_opt  = -1;
 671:lvgl/src/widgets/lv_roller.c ****         if(roller->moved == 0) {
 672:lvgl/src/widgets/lv_roller.c ****             new_opt = 0;
 673:lvgl/src/widgets/lv_roller.c ****             lv_point_t p;
 674:lvgl/src/widgets/lv_roller.c ****             lv_indev_get_point(indev, &p);
 675:lvgl/src/widgets/lv_roller.c ****             p.y -= label->coords.y1;
 676:lvgl/src/widgets/lv_roller.c ****             p.x -= label->coords.x1;
 677:lvgl/src/widgets/lv_roller.c ****             uint32_t letter_i;
 678:lvgl/src/widgets/lv_roller.c ****             letter_i = lv_label_get_letter_on(label, &p);
 679:lvgl/src/widgets/lv_roller.c **** 
 680:lvgl/src/widgets/lv_roller.c ****             const char * txt  = lv_label_get_text(label);
 681:lvgl/src/widgets/lv_roller.c ****             uint32_t i        = 0;
 682:lvgl/src/widgets/lv_roller.c ****             uint32_t i_prev   = 0;
 683:lvgl/src/widgets/lv_roller.c **** 
 684:lvgl/src/widgets/lv_roller.c ****             uint32_t letter_cnt = 0;
 685:lvgl/src/widgets/lv_roller.c ****             for(letter_cnt = 0; letter_cnt < letter_i; letter_cnt++) {
 686:lvgl/src/widgets/lv_roller.c ****                 uint32_t letter = _lv_txt_encoded_next(txt, &i);
 687:lvgl/src/widgets/lv_roller.c ****                 /*Count he lines to reach the clicked letter. But ignore the last '\n' because it
 688:lvgl/src/widgets/lv_roller.c ****                  * still belongs to the clicked line*/
 689:lvgl/src/widgets/lv_roller.c ****                 if(letter == '\n' && i_prev != letter_i) new_opt++;
 690:lvgl/src/widgets/lv_roller.c ****                 i_prev = i;
 691:lvgl/src/widgets/lv_roller.c ****             }
 692:lvgl/src/widgets/lv_roller.c ****         }
 693:lvgl/src/widgets/lv_roller.c ****         else {
 694:lvgl/src/widgets/lv_roller.c ****             /*If dragged then align the list to have an element in the middle*/
 695:lvgl/src/widgets/lv_roller.c ****             const lv_font_t * font = lv_obj_get_style_text_font(obj, LV_PART_MAIN);
 696:lvgl/src/widgets/lv_roller.c ****             lv_coord_t line_space = lv_obj_get_style_text_line_space(obj, LV_PART_MAIN);
 697:lvgl/src/widgets/lv_roller.c ****             lv_coord_t font_h              = lv_font_get_line_height(font);
 698:lvgl/src/widgets/lv_roller.c **** 
 699:lvgl/src/widgets/lv_roller.c ****             lv_coord_t label_unit = font_h + line_space;
 700:lvgl/src/widgets/lv_roller.c ****             lv_coord_t mid        = obj->coords.y1 + (obj->coords.y2 - obj->coords.y1) / 2;
 701:lvgl/src/widgets/lv_roller.c ****             lv_coord_t label_y1 = label->coords.y1 + lv_indev_scroll_throw_predict(indev, LV_DIR_VE
 702:lvgl/src/widgets/lv_roller.c ****             int32_t id = (mid - label_y1) / label_unit;
 703:lvgl/src/widgets/lv_roller.c **** 
 704:lvgl/src/widgets/lv_roller.c ****             if(id < 0) id = 0;
 705:lvgl/src/widgets/lv_roller.c ****             if(id >= roller->option_cnt) id = roller->option_cnt - 1;
 706:lvgl/src/widgets/lv_roller.c **** 
 707:lvgl/src/widgets/lv_roller.c ****             new_opt = id;
 708:lvgl/src/widgets/lv_roller.c ****         }
 709:lvgl/src/widgets/lv_roller.c **** 
 710:lvgl/src/widgets/lv_roller.c ****         if(new_opt >= 0) {
 711:lvgl/src/widgets/lv_roller.c ****             lv_roller_set_selected(obj, new_opt, LV_ANIM_ON);
 712:lvgl/src/widgets/lv_roller.c ****         }
 713:lvgl/src/widgets/lv_roller.c ****     }
 714:lvgl/src/widgets/lv_roller.c **** 
 715:lvgl/src/widgets/lv_roller.c ****     uint32_t id  = roller->sel_opt_id; /*Just to use uint32_t in event data*/
ARM GAS  C:\usertemp\cc2TdG63.s 			page 14


 716:lvgl/src/widgets/lv_roller.c ****     lv_res_t res = lv_event_send(obj, LV_EVENT_VALUE_CHANGED, &id);
 717:lvgl/src/widgets/lv_roller.c ****     return res;
 718:lvgl/src/widgets/lv_roller.c **** }
 719:lvgl/src/widgets/lv_roller.c **** 
 720:lvgl/src/widgets/lv_roller.c **** /**
 721:lvgl/src/widgets/lv_roller.c ****  * Set the middle page for the roller if infinite is enabled
 722:lvgl/src/widgets/lv_roller.c ****  * @param roller pointer to a roller object
 723:lvgl/src/widgets/lv_roller.c ****  */
 724:lvgl/src/widgets/lv_roller.c **** static void inf_normalize(lv_obj_t * obj)
 725:lvgl/src/widgets/lv_roller.c **** {
 726:lvgl/src/widgets/lv_roller.c ****     lv_roller_t * roller = (lv_roller_t *)obj;
 727:lvgl/src/widgets/lv_roller.c **** 
 728:lvgl/src/widgets/lv_roller.c ****     if(roller->mode == LV_ROLLER_MODE_INFINITE) {
 729:lvgl/src/widgets/lv_roller.c ****         uint16_t real_id_cnt = roller->option_cnt / LV_ROLLER_INF_PAGES;
 730:lvgl/src/widgets/lv_roller.c ****         roller->sel_opt_id = roller->sel_opt_id % real_id_cnt;
 731:lvgl/src/widgets/lv_roller.c ****         roller->sel_opt_id += (LV_ROLLER_INF_PAGES / 2) * real_id_cnt; /*Select the middle page*/
 732:lvgl/src/widgets/lv_roller.c **** 
 733:lvgl/src/widgets/lv_roller.c ****         roller->sel_opt_id_ori = roller->sel_opt_id % real_id_cnt;
 734:lvgl/src/widgets/lv_roller.c ****         roller->sel_opt_id_ori += (LV_ROLLER_INF_PAGES / 2) * real_id_cnt; /*Select the middle page
 735:lvgl/src/widgets/lv_roller.c **** 
 736:lvgl/src/widgets/lv_roller.c ****         /*Move to the new id*/
 737:lvgl/src/widgets/lv_roller.c ****         const lv_font_t * font = lv_obj_get_style_text_font(obj, LV_PART_MAIN);
 738:lvgl/src/widgets/lv_roller.c ****         lv_coord_t line_space = lv_obj_get_style_text_line_space(obj, LV_PART_MAIN);
 739:lvgl/src/widgets/lv_roller.c ****         lv_coord_t font_h              = lv_font_get_line_height(font);
 740:lvgl/src/widgets/lv_roller.c ****         lv_coord_t h                   = lv_obj_get_content_height(obj);
 741:lvgl/src/widgets/lv_roller.c **** 
 742:lvgl/src/widgets/lv_roller.c ****         lv_obj_t * label = get_label(obj);
 743:lvgl/src/widgets/lv_roller.c **** 
 744:lvgl/src/widgets/lv_roller.c **** 
 745:lvgl/src/widgets/lv_roller.c ****         lv_coord_t sel_y1 = roller->sel_opt_id * (font_h + line_space);
 746:lvgl/src/widgets/lv_roller.c ****         lv_coord_t mid_y1 = h / 2 - font_h / 2;
 747:lvgl/src/widgets/lv_roller.c ****         lv_coord_t new_y = mid_y1 - sel_y1;
 748:lvgl/src/widgets/lv_roller.c ****         lv_obj_set_y(label, new_y);
 749:lvgl/src/widgets/lv_roller.c ****     }
 750:lvgl/src/widgets/lv_roller.c **** }
 751:lvgl/src/widgets/lv_roller.c **** 
 752:lvgl/src/widgets/lv_roller.c **** static lv_obj_t * get_label(const lv_obj_t * obj)
 753:lvgl/src/widgets/lv_roller.c **** {
 754:lvgl/src/widgets/lv_roller.c ****     return lv_obj_get_child(obj, 0);
 755:lvgl/src/widgets/lv_roller.c **** }
 756:lvgl/src/widgets/lv_roller.c **** 
 757:lvgl/src/widgets/lv_roller.c **** 
 758:lvgl/src/widgets/lv_roller.c **** static lv_coord_t get_selected_label_width(const lv_obj_t * obj)
 759:lvgl/src/widgets/lv_roller.c **** {
 760:lvgl/src/widgets/lv_roller.c ****     lv_obj_t * label = get_label(obj);
 761:lvgl/src/widgets/lv_roller.c ****     if(label == NULL) return 0;
 762:lvgl/src/widgets/lv_roller.c **** 
 763:lvgl/src/widgets/lv_roller.c ****     const lv_font_t * font = lv_obj_get_style_text_font(obj, LV_PART_SELECTED);
 764:lvgl/src/widgets/lv_roller.c ****     lv_coord_t letter_space = lv_obj_get_style_text_letter_space(obj, LV_PART_SELECTED);
 765:lvgl/src/widgets/lv_roller.c ****     const char * txt = lv_label_get_text(label);
 766:lvgl/src/widgets/lv_roller.c ****     lv_point_t size;
 767:lvgl/src/widgets/lv_roller.c ****     lv_txt_get_size(&size, txt, font, letter_space, 0, LV_COORD_MAX,  LV_TEXT_FLAG_NONE);
 768:lvgl/src/widgets/lv_roller.c ****     return size.x;
 769:lvgl/src/widgets/lv_roller.c **** }
 770:lvgl/src/widgets/lv_roller.c **** 
 771:lvgl/src/widgets/lv_roller.c **** static void scroll_anim_ready_cb(lv_anim_t * a)
 772:lvgl/src/widgets/lv_roller.c **** {
ARM GAS  C:\usertemp\cc2TdG63.s 			page 15


 773:lvgl/src/widgets/lv_roller.c ****     lv_obj_t * obj = lv_obj_get_parent(a->var); /*The label is animated*/
 774:lvgl/src/widgets/lv_roller.c ****     inf_normalize(obj);
 775:lvgl/src/widgets/lv_roller.c **** }
 776:lvgl/src/widgets/lv_roller.c **** 
 777:lvgl/src/widgets/lv_roller.c **** 
 778:lvgl/src/widgets/lv_roller.c **** static void set_y_anim(void * obj, int32_t v)
 779:lvgl/src/widgets/lv_roller.c **** {
  28              		.loc 1 779 1 view -0
  29              		.cfi_startproc
  30              		@ args = 0, pretend = 0, frame = 0
  31              		@ frame_needed = 0, uses_anonymous_args = 0
  32              		.loc 1 779 1 is_stmt 0 view .LVU1
  33 0000 08B5     		push	{r3, lr}
  34              	.LCFI0:
  35              		.cfi_def_cfa_offset 8
  36              		.cfi_offset 3, -8
  37              		.cfi_offset 14, -4
 780:lvgl/src/widgets/lv_roller.c ****     lv_obj_set_y(obj, v);
  38              		.loc 1 780 5 is_stmt 1 view .LVU2
  39 0002 09B2     		sxth	r1, r1
  40              	.LVL1:
  41              		.loc 1 780 5 is_stmt 0 view .LVU3
  42 0004 FFF7FEFF 		bl	lv_obj_set_y
  43              	.LVL2:
 781:lvgl/src/widgets/lv_roller.c **** }
  44              		.loc 1 781 1 view .LVU4
  45 0008 08BD     		pop	{r3, pc}
  46              		.cfi_endproc
  47              	.LFE176:
  49              		.section	.text.get_label,"ax",%progbits
  50              		.align	1
  51              		.syntax unified
  52              		.thumb
  53              		.thumb_func
  55              	get_label:
  56              	.LVL3:
  57              	.LFB173:
 753:lvgl/src/widgets/lv_roller.c ****     return lv_obj_get_child(obj, 0);
  58              		.loc 1 753 1 is_stmt 1 view -0
  59              		.cfi_startproc
  60              		@ args = 0, pretend = 0, frame = 0
  61              		@ frame_needed = 0, uses_anonymous_args = 0
 753:lvgl/src/widgets/lv_roller.c ****     return lv_obj_get_child(obj, 0);
  62              		.loc 1 753 1 is_stmt 0 view .LVU6
  63 0000 08B5     		push	{r3, lr}
  64              	.LCFI1:
  65              		.cfi_def_cfa_offset 8
  66              		.cfi_offset 3, -8
  67              		.cfi_offset 14, -4
 754:lvgl/src/widgets/lv_roller.c **** }
  68              		.loc 1 754 5 is_stmt 1 view .LVU7
 754:lvgl/src/widgets/lv_roller.c **** }
  69              		.loc 1 754 12 is_stmt 0 view .LVU8
  70 0002 0021     		movs	r1, #0
  71 0004 FFF7FEFF 		bl	lv_obj_get_child
  72              	.LVL4:
 755:lvgl/src/widgets/lv_roller.c **** 
ARM GAS  C:\usertemp\cc2TdG63.s 			page 16


  73              		.loc 1 755 1 view .LVU9
  74 0008 08BD     		pop	{r3, pc}
  75              		.cfi_endproc
  76              	.LFE173:
  78              		.section	.text.get_selected_label_width,"ax",%progbits
  79              		.align	1
  80              		.syntax unified
  81              		.thumb
  82              		.thumb_func
  84              	get_selected_label_width:
  85              	.LVL5:
  86              	.LFB174:
 759:lvgl/src/widgets/lv_roller.c ****     lv_obj_t * label = get_label(obj);
  87              		.loc 1 759 1 is_stmt 1 view -0
  88              		.cfi_startproc
  89              		@ args = 0, pretend = 0, frame = 8
  90              		@ frame_needed = 0, uses_anonymous_args = 0
 759:lvgl/src/widgets/lv_roller.c ****     lv_obj_t * label = get_label(obj);
  91              		.loc 1 759 1 is_stmt 0 view .LVU11
  92 0000 70B5     		push	{r4, r5, r6, lr}
  93              	.LCFI2:
  94              		.cfi_def_cfa_offset 16
  95              		.cfi_offset 4, -16
  96              		.cfi_offset 5, -12
  97              		.cfi_offset 6, -8
  98              		.cfi_offset 14, -4
  99 0002 86B0     		sub	sp, sp, #24
 100              	.LCFI3:
 101              		.cfi_def_cfa_offset 40
 102 0004 0446     		mov	r4, r0
 760:lvgl/src/widgets/lv_roller.c ****     if(label == NULL) return 0;
 103              		.loc 1 760 5 is_stmt 1 view .LVU12
 760:lvgl/src/widgets/lv_roller.c ****     if(label == NULL) return 0;
 104              		.loc 1 760 24 is_stmt 0 view .LVU13
 105 0006 FFF7FEFF 		bl	get_label
 106              	.LVL6:
 761:lvgl/src/widgets/lv_roller.c **** 
 107              		.loc 1 761 5 is_stmt 1 view .LVU14
 761:lvgl/src/widgets/lv_roller.c **** 
 108              		.loc 1 761 7 is_stmt 0 view .LVU15
 109 000a 18B3     		cbz	r0, .L7
 110 000c 0646     		mov	r6, r0
 763:lvgl/src/widgets/lv_roller.c ****     lv_coord_t letter_space = lv_obj_get_style_text_letter_space(obj, LV_PART_SELECTED);
 111              		.loc 1 763 5 is_stmt 1 view .LVU16
 112              	.LVL7:
 113              	.LBB74:
 114              	.LBI74:
 115              		.file 2 "lvgl/src/widgets/../core/lv_obj_style_gen.h"
   1:lvgl/src/widgets/../core/lv_obj_style_gen.h **** static inline lv_coord_t lv_obj_get_style_width(const struct _lv_obj_t * obj, uint32_t part)
   2:lvgl/src/widgets/../core/lv_obj_style_gen.h **** {
   3:lvgl/src/widgets/../core/lv_obj_style_gen.h ****     lv_style_value_t v = lv_obj_get_style_prop(obj, part, LV_STYLE_WIDTH);
   4:lvgl/src/widgets/../core/lv_obj_style_gen.h ****     return (lv_coord_t)v.num;
   5:lvgl/src/widgets/../core/lv_obj_style_gen.h **** }
   6:lvgl/src/widgets/../core/lv_obj_style_gen.h **** 
   7:lvgl/src/widgets/../core/lv_obj_style_gen.h **** static inline lv_coord_t lv_obj_get_style_min_width(const struct _lv_obj_t * obj, uint32_t part)
   8:lvgl/src/widgets/../core/lv_obj_style_gen.h **** {
   9:lvgl/src/widgets/../core/lv_obj_style_gen.h ****     lv_style_value_t v = lv_obj_get_style_prop(obj, part, LV_STYLE_MIN_WIDTH);
ARM GAS  C:\usertemp\cc2TdG63.s 			page 17


  10:lvgl/src/widgets/../core/lv_obj_style_gen.h ****     return (lv_coord_t)v.num;
  11:lvgl/src/widgets/../core/lv_obj_style_gen.h **** }
  12:lvgl/src/widgets/../core/lv_obj_style_gen.h **** 
  13:lvgl/src/widgets/../core/lv_obj_style_gen.h **** static inline lv_coord_t lv_obj_get_style_max_width(const struct _lv_obj_t * obj, uint32_t part)
  14:lvgl/src/widgets/../core/lv_obj_style_gen.h **** {
  15:lvgl/src/widgets/../core/lv_obj_style_gen.h ****     lv_style_value_t v = lv_obj_get_style_prop(obj, part, LV_STYLE_MAX_WIDTH);
  16:lvgl/src/widgets/../core/lv_obj_style_gen.h ****     return (lv_coord_t)v.num;
  17:lvgl/src/widgets/../core/lv_obj_style_gen.h **** }
  18:lvgl/src/widgets/../core/lv_obj_style_gen.h **** 
  19:lvgl/src/widgets/../core/lv_obj_style_gen.h **** static inline lv_coord_t lv_obj_get_style_height(const struct _lv_obj_t * obj, uint32_t part)
  20:lvgl/src/widgets/../core/lv_obj_style_gen.h **** {
  21:lvgl/src/widgets/../core/lv_obj_style_gen.h ****     lv_style_value_t v = lv_obj_get_style_prop(obj, part, LV_STYLE_HEIGHT);
  22:lvgl/src/widgets/../core/lv_obj_style_gen.h ****     return (lv_coord_t)v.num;
  23:lvgl/src/widgets/../core/lv_obj_style_gen.h **** }
  24:lvgl/src/widgets/../core/lv_obj_style_gen.h **** 
  25:lvgl/src/widgets/../core/lv_obj_style_gen.h **** static inline lv_coord_t lv_obj_get_style_min_height(const struct _lv_obj_t * obj, uint32_t part)
  26:lvgl/src/widgets/../core/lv_obj_style_gen.h **** {
  27:lvgl/src/widgets/../core/lv_obj_style_gen.h ****     lv_style_value_t v = lv_obj_get_style_prop(obj, part, LV_STYLE_MIN_HEIGHT);
  28:lvgl/src/widgets/../core/lv_obj_style_gen.h ****     return (lv_coord_t)v.num;
  29:lvgl/src/widgets/../core/lv_obj_style_gen.h **** }
  30:lvgl/src/widgets/../core/lv_obj_style_gen.h **** 
  31:lvgl/src/widgets/../core/lv_obj_style_gen.h **** static inline lv_coord_t lv_obj_get_style_max_height(const struct _lv_obj_t * obj, uint32_t part)
  32:lvgl/src/widgets/../core/lv_obj_style_gen.h **** {
  33:lvgl/src/widgets/../core/lv_obj_style_gen.h ****     lv_style_value_t v = lv_obj_get_style_prop(obj, part, LV_STYLE_MAX_HEIGHT);
  34:lvgl/src/widgets/../core/lv_obj_style_gen.h ****     return (lv_coord_t)v.num;
  35:lvgl/src/widgets/../core/lv_obj_style_gen.h **** }
  36:lvgl/src/widgets/../core/lv_obj_style_gen.h **** 
  37:lvgl/src/widgets/../core/lv_obj_style_gen.h **** static inline lv_coord_t lv_obj_get_style_x(const struct _lv_obj_t * obj, uint32_t part)
  38:lvgl/src/widgets/../core/lv_obj_style_gen.h **** {
  39:lvgl/src/widgets/../core/lv_obj_style_gen.h ****     lv_style_value_t v = lv_obj_get_style_prop(obj, part, LV_STYLE_X);
  40:lvgl/src/widgets/../core/lv_obj_style_gen.h ****     return (lv_coord_t)v.num;
  41:lvgl/src/widgets/../core/lv_obj_style_gen.h **** }
  42:lvgl/src/widgets/../core/lv_obj_style_gen.h **** 
  43:lvgl/src/widgets/../core/lv_obj_style_gen.h **** static inline lv_coord_t lv_obj_get_style_y(const struct _lv_obj_t * obj, uint32_t part)
  44:lvgl/src/widgets/../core/lv_obj_style_gen.h **** {
  45:lvgl/src/widgets/../core/lv_obj_style_gen.h ****     lv_style_value_t v = lv_obj_get_style_prop(obj, part, LV_STYLE_Y);
  46:lvgl/src/widgets/../core/lv_obj_style_gen.h ****     return (lv_coord_t)v.num;
  47:lvgl/src/widgets/../core/lv_obj_style_gen.h **** }
  48:lvgl/src/widgets/../core/lv_obj_style_gen.h **** 
  49:lvgl/src/widgets/../core/lv_obj_style_gen.h **** static inline lv_align_t lv_obj_get_style_align(const struct _lv_obj_t * obj, uint32_t part)
  50:lvgl/src/widgets/../core/lv_obj_style_gen.h **** {
  51:lvgl/src/widgets/../core/lv_obj_style_gen.h ****     lv_style_value_t v = lv_obj_get_style_prop(obj, part, LV_STYLE_ALIGN);
  52:lvgl/src/widgets/../core/lv_obj_style_gen.h ****     return (lv_align_t)v.num;
  53:lvgl/src/widgets/../core/lv_obj_style_gen.h **** }
  54:lvgl/src/widgets/../core/lv_obj_style_gen.h **** 
  55:lvgl/src/widgets/../core/lv_obj_style_gen.h **** static inline lv_coord_t lv_obj_get_style_transform_width(const struct _lv_obj_t * obj, uint32_t pa
  56:lvgl/src/widgets/../core/lv_obj_style_gen.h **** {
  57:lvgl/src/widgets/../core/lv_obj_style_gen.h ****     lv_style_value_t v = lv_obj_get_style_prop(obj, part, LV_STYLE_TRANSFORM_WIDTH);
  58:lvgl/src/widgets/../core/lv_obj_style_gen.h ****     return (lv_coord_t)v.num;
  59:lvgl/src/widgets/../core/lv_obj_style_gen.h **** }
  60:lvgl/src/widgets/../core/lv_obj_style_gen.h **** 
  61:lvgl/src/widgets/../core/lv_obj_style_gen.h **** static inline lv_coord_t lv_obj_get_style_transform_height(const struct _lv_obj_t * obj, uint32_t p
  62:lvgl/src/widgets/../core/lv_obj_style_gen.h **** {
  63:lvgl/src/widgets/../core/lv_obj_style_gen.h ****     lv_style_value_t v = lv_obj_get_style_prop(obj, part, LV_STYLE_TRANSFORM_HEIGHT);
  64:lvgl/src/widgets/../core/lv_obj_style_gen.h ****     return (lv_coord_t)v.num;
  65:lvgl/src/widgets/../core/lv_obj_style_gen.h **** }
  66:lvgl/src/widgets/../core/lv_obj_style_gen.h **** 
ARM GAS  C:\usertemp\cc2TdG63.s 			page 18


  67:lvgl/src/widgets/../core/lv_obj_style_gen.h **** static inline lv_coord_t lv_obj_get_style_translate_x(const struct _lv_obj_t * obj, uint32_t part)
  68:lvgl/src/widgets/../core/lv_obj_style_gen.h **** {
  69:lvgl/src/widgets/../core/lv_obj_style_gen.h ****     lv_style_value_t v = lv_obj_get_style_prop(obj, part, LV_STYLE_TRANSLATE_X);
  70:lvgl/src/widgets/../core/lv_obj_style_gen.h ****     return (lv_coord_t)v.num;
  71:lvgl/src/widgets/../core/lv_obj_style_gen.h **** }
  72:lvgl/src/widgets/../core/lv_obj_style_gen.h **** 
  73:lvgl/src/widgets/../core/lv_obj_style_gen.h **** static inline lv_coord_t lv_obj_get_style_translate_y(const struct _lv_obj_t * obj, uint32_t part)
  74:lvgl/src/widgets/../core/lv_obj_style_gen.h **** {
  75:lvgl/src/widgets/../core/lv_obj_style_gen.h ****     lv_style_value_t v = lv_obj_get_style_prop(obj, part, LV_STYLE_TRANSLATE_Y);
  76:lvgl/src/widgets/../core/lv_obj_style_gen.h ****     return (lv_coord_t)v.num;
  77:lvgl/src/widgets/../core/lv_obj_style_gen.h **** }
  78:lvgl/src/widgets/../core/lv_obj_style_gen.h **** 
  79:lvgl/src/widgets/../core/lv_obj_style_gen.h **** static inline lv_coord_t lv_obj_get_style_transform_zoom(const struct _lv_obj_t * obj, uint32_t par
  80:lvgl/src/widgets/../core/lv_obj_style_gen.h **** {
  81:lvgl/src/widgets/../core/lv_obj_style_gen.h ****     lv_style_value_t v = lv_obj_get_style_prop(obj, part, LV_STYLE_TRANSFORM_ZOOM);
  82:lvgl/src/widgets/../core/lv_obj_style_gen.h ****     return (lv_coord_t)v.num;
  83:lvgl/src/widgets/../core/lv_obj_style_gen.h **** }
  84:lvgl/src/widgets/../core/lv_obj_style_gen.h **** 
  85:lvgl/src/widgets/../core/lv_obj_style_gen.h **** static inline lv_coord_t lv_obj_get_style_transform_angle(const struct _lv_obj_t * obj, uint32_t pa
  86:lvgl/src/widgets/../core/lv_obj_style_gen.h **** {
  87:lvgl/src/widgets/../core/lv_obj_style_gen.h ****     lv_style_value_t v = lv_obj_get_style_prop(obj, part, LV_STYLE_TRANSFORM_ANGLE);
  88:lvgl/src/widgets/../core/lv_obj_style_gen.h ****     return (lv_coord_t)v.num;
  89:lvgl/src/widgets/../core/lv_obj_style_gen.h **** }
  90:lvgl/src/widgets/../core/lv_obj_style_gen.h **** 
  91:lvgl/src/widgets/../core/lv_obj_style_gen.h **** static inline lv_coord_t lv_obj_get_style_pad_top(const struct _lv_obj_t * obj, uint32_t part)
  92:lvgl/src/widgets/../core/lv_obj_style_gen.h **** {
  93:lvgl/src/widgets/../core/lv_obj_style_gen.h ****     lv_style_value_t v = lv_obj_get_style_prop(obj, part, LV_STYLE_PAD_TOP);
  94:lvgl/src/widgets/../core/lv_obj_style_gen.h ****     return (lv_coord_t)v.num;
  95:lvgl/src/widgets/../core/lv_obj_style_gen.h **** }
  96:lvgl/src/widgets/../core/lv_obj_style_gen.h **** 
  97:lvgl/src/widgets/../core/lv_obj_style_gen.h **** static inline lv_coord_t lv_obj_get_style_pad_bottom(const struct _lv_obj_t * obj, uint32_t part)
  98:lvgl/src/widgets/../core/lv_obj_style_gen.h **** {
  99:lvgl/src/widgets/../core/lv_obj_style_gen.h ****     lv_style_value_t v = lv_obj_get_style_prop(obj, part, LV_STYLE_PAD_BOTTOM);
 100:lvgl/src/widgets/../core/lv_obj_style_gen.h ****     return (lv_coord_t)v.num;
 101:lvgl/src/widgets/../core/lv_obj_style_gen.h **** }
 102:lvgl/src/widgets/../core/lv_obj_style_gen.h **** 
 103:lvgl/src/widgets/../core/lv_obj_style_gen.h **** static inline lv_coord_t lv_obj_get_style_pad_left(const struct _lv_obj_t * obj, uint32_t part)
 104:lvgl/src/widgets/../core/lv_obj_style_gen.h **** {
 105:lvgl/src/widgets/../core/lv_obj_style_gen.h ****     lv_style_value_t v = lv_obj_get_style_prop(obj, part, LV_STYLE_PAD_LEFT);
 106:lvgl/src/widgets/../core/lv_obj_style_gen.h ****     return (lv_coord_t)v.num;
 107:lvgl/src/widgets/../core/lv_obj_style_gen.h **** }
 108:lvgl/src/widgets/../core/lv_obj_style_gen.h **** 
 109:lvgl/src/widgets/../core/lv_obj_style_gen.h **** static inline lv_coord_t lv_obj_get_style_pad_right(const struct _lv_obj_t * obj, uint32_t part)
 110:lvgl/src/widgets/../core/lv_obj_style_gen.h **** {
 111:lvgl/src/widgets/../core/lv_obj_style_gen.h ****     lv_style_value_t v = lv_obj_get_style_prop(obj, part, LV_STYLE_PAD_RIGHT);
 112:lvgl/src/widgets/../core/lv_obj_style_gen.h ****     return (lv_coord_t)v.num;
 113:lvgl/src/widgets/../core/lv_obj_style_gen.h **** }
 114:lvgl/src/widgets/../core/lv_obj_style_gen.h **** 
 115:lvgl/src/widgets/../core/lv_obj_style_gen.h **** static inline lv_coord_t lv_obj_get_style_pad_row(const struct _lv_obj_t * obj, uint32_t part)
 116:lvgl/src/widgets/../core/lv_obj_style_gen.h **** {
 117:lvgl/src/widgets/../core/lv_obj_style_gen.h ****     lv_style_value_t v = lv_obj_get_style_prop(obj, part, LV_STYLE_PAD_ROW);
 118:lvgl/src/widgets/../core/lv_obj_style_gen.h ****     return (lv_coord_t)v.num;
 119:lvgl/src/widgets/../core/lv_obj_style_gen.h **** }
 120:lvgl/src/widgets/../core/lv_obj_style_gen.h **** 
 121:lvgl/src/widgets/../core/lv_obj_style_gen.h **** static inline lv_coord_t lv_obj_get_style_pad_column(const struct _lv_obj_t * obj, uint32_t part)
 122:lvgl/src/widgets/../core/lv_obj_style_gen.h **** {
 123:lvgl/src/widgets/../core/lv_obj_style_gen.h ****     lv_style_value_t v = lv_obj_get_style_prop(obj, part, LV_STYLE_PAD_COLUMN);
ARM GAS  C:\usertemp\cc2TdG63.s 			page 19


 124:lvgl/src/widgets/../core/lv_obj_style_gen.h ****     return (lv_coord_t)v.num;
 125:lvgl/src/widgets/../core/lv_obj_style_gen.h **** }
 126:lvgl/src/widgets/../core/lv_obj_style_gen.h **** 
 127:lvgl/src/widgets/../core/lv_obj_style_gen.h **** static inline lv_color_t lv_obj_get_style_bg_color(const struct _lv_obj_t * obj, uint32_t part)
 128:lvgl/src/widgets/../core/lv_obj_style_gen.h **** {
 129:lvgl/src/widgets/../core/lv_obj_style_gen.h ****     lv_style_value_t v = lv_obj_get_style_prop(obj, part, LV_STYLE_BG_COLOR);
 130:lvgl/src/widgets/../core/lv_obj_style_gen.h ****     return v.color;
 131:lvgl/src/widgets/../core/lv_obj_style_gen.h **** }
 132:lvgl/src/widgets/../core/lv_obj_style_gen.h **** 
 133:lvgl/src/widgets/../core/lv_obj_style_gen.h **** static inline lv_color_t lv_obj_get_style_bg_color_filtered(const struct _lv_obj_t * obj, uint32_t 
 134:lvgl/src/widgets/../core/lv_obj_style_gen.h **** {
 135:lvgl/src/widgets/../core/lv_obj_style_gen.h ****     lv_style_value_t v = lv_obj_get_style_prop(obj, part, LV_STYLE_BG_COLOR_FILTERED);
 136:lvgl/src/widgets/../core/lv_obj_style_gen.h ****     return v.color;
 137:lvgl/src/widgets/../core/lv_obj_style_gen.h **** }
 138:lvgl/src/widgets/../core/lv_obj_style_gen.h **** 
 139:lvgl/src/widgets/../core/lv_obj_style_gen.h **** static inline lv_opa_t lv_obj_get_style_bg_opa(const struct _lv_obj_t * obj, uint32_t part)
 140:lvgl/src/widgets/../core/lv_obj_style_gen.h **** {
 141:lvgl/src/widgets/../core/lv_obj_style_gen.h ****     lv_style_value_t v = lv_obj_get_style_prop(obj, part, LV_STYLE_BG_OPA);
 142:lvgl/src/widgets/../core/lv_obj_style_gen.h ****     return (lv_opa_t)v.num;
 143:lvgl/src/widgets/../core/lv_obj_style_gen.h **** }
 144:lvgl/src/widgets/../core/lv_obj_style_gen.h **** 
 145:lvgl/src/widgets/../core/lv_obj_style_gen.h **** static inline lv_color_t lv_obj_get_style_bg_grad_color(const struct _lv_obj_t * obj, uint32_t part
 146:lvgl/src/widgets/../core/lv_obj_style_gen.h **** {
 147:lvgl/src/widgets/../core/lv_obj_style_gen.h ****     lv_style_value_t v = lv_obj_get_style_prop(obj, part, LV_STYLE_BG_GRAD_COLOR);
 148:lvgl/src/widgets/../core/lv_obj_style_gen.h ****     return v.color;
 149:lvgl/src/widgets/../core/lv_obj_style_gen.h **** }
 150:lvgl/src/widgets/../core/lv_obj_style_gen.h **** 
 151:lvgl/src/widgets/../core/lv_obj_style_gen.h **** static inline lv_color_t lv_obj_get_style_bg_grad_color_filtered(const struct _lv_obj_t * obj, uint
 152:lvgl/src/widgets/../core/lv_obj_style_gen.h **** {
 153:lvgl/src/widgets/../core/lv_obj_style_gen.h ****     lv_style_value_t v = lv_obj_get_style_prop(obj, part, LV_STYLE_BG_GRAD_COLOR_FILTERED);
 154:lvgl/src/widgets/../core/lv_obj_style_gen.h ****     return v.color;
 155:lvgl/src/widgets/../core/lv_obj_style_gen.h **** }
 156:lvgl/src/widgets/../core/lv_obj_style_gen.h **** 
 157:lvgl/src/widgets/../core/lv_obj_style_gen.h **** static inline lv_grad_dir_t lv_obj_get_style_bg_grad_dir(const struct _lv_obj_t * obj, uint32_t par
 158:lvgl/src/widgets/../core/lv_obj_style_gen.h **** {
 159:lvgl/src/widgets/../core/lv_obj_style_gen.h ****     lv_style_value_t v = lv_obj_get_style_prop(obj, part, LV_STYLE_BG_GRAD_DIR);
 160:lvgl/src/widgets/../core/lv_obj_style_gen.h ****     return (lv_grad_dir_t)v.num;
 161:lvgl/src/widgets/../core/lv_obj_style_gen.h **** }
 162:lvgl/src/widgets/../core/lv_obj_style_gen.h **** 
 163:lvgl/src/widgets/../core/lv_obj_style_gen.h **** static inline lv_coord_t lv_obj_get_style_bg_main_stop(const struct _lv_obj_t * obj, uint32_t part)
 164:lvgl/src/widgets/../core/lv_obj_style_gen.h **** {
 165:lvgl/src/widgets/../core/lv_obj_style_gen.h ****     lv_style_value_t v = lv_obj_get_style_prop(obj, part, LV_STYLE_BG_MAIN_STOP);
 166:lvgl/src/widgets/../core/lv_obj_style_gen.h ****     return (lv_coord_t)v.num;
 167:lvgl/src/widgets/../core/lv_obj_style_gen.h **** }
 168:lvgl/src/widgets/../core/lv_obj_style_gen.h **** 
 169:lvgl/src/widgets/../core/lv_obj_style_gen.h **** static inline lv_coord_t lv_obj_get_style_bg_grad_stop(const struct _lv_obj_t * obj, uint32_t part)
 170:lvgl/src/widgets/../core/lv_obj_style_gen.h **** {
 171:lvgl/src/widgets/../core/lv_obj_style_gen.h ****     lv_style_value_t v = lv_obj_get_style_prop(obj, part, LV_STYLE_BG_GRAD_STOP);
 172:lvgl/src/widgets/../core/lv_obj_style_gen.h ****     return (lv_coord_t)v.num;
 173:lvgl/src/widgets/../core/lv_obj_style_gen.h **** }
 174:lvgl/src/widgets/../core/lv_obj_style_gen.h **** 
 175:lvgl/src/widgets/../core/lv_obj_style_gen.h **** static inline const lv_grad_dsc_t * lv_obj_get_style_bg_grad(const struct _lv_obj_t * obj, uint32_t
 176:lvgl/src/widgets/../core/lv_obj_style_gen.h **** {
 177:lvgl/src/widgets/../core/lv_obj_style_gen.h ****     lv_style_value_t v = lv_obj_get_style_prop(obj, part, LV_STYLE_BG_GRAD);
 178:lvgl/src/widgets/../core/lv_obj_style_gen.h ****     return (const lv_grad_dsc_t *)v.ptr;
 179:lvgl/src/widgets/../core/lv_obj_style_gen.h **** }
 180:lvgl/src/widgets/../core/lv_obj_style_gen.h **** 
ARM GAS  C:\usertemp\cc2TdG63.s 			page 20


 181:lvgl/src/widgets/../core/lv_obj_style_gen.h **** static inline lv_dither_mode_t lv_obj_get_style_bg_dither_mode(const struct _lv_obj_t * obj, uint32
 182:lvgl/src/widgets/../core/lv_obj_style_gen.h **** {
 183:lvgl/src/widgets/../core/lv_obj_style_gen.h ****     lv_style_value_t v = lv_obj_get_style_prop(obj, part, LV_STYLE_BG_DITHER_MODE);
 184:lvgl/src/widgets/../core/lv_obj_style_gen.h ****     return (lv_dither_mode_t)v.num;
 185:lvgl/src/widgets/../core/lv_obj_style_gen.h **** }
 186:lvgl/src/widgets/../core/lv_obj_style_gen.h **** 
 187:lvgl/src/widgets/../core/lv_obj_style_gen.h **** static inline const void * lv_obj_get_style_bg_img_src(const struct _lv_obj_t * obj, uint32_t part)
 188:lvgl/src/widgets/../core/lv_obj_style_gen.h **** {
 189:lvgl/src/widgets/../core/lv_obj_style_gen.h ****     lv_style_value_t v = lv_obj_get_style_prop(obj, part, LV_STYLE_BG_IMG_SRC);
 190:lvgl/src/widgets/../core/lv_obj_style_gen.h ****     return (const void *)v.ptr;
 191:lvgl/src/widgets/../core/lv_obj_style_gen.h **** }
 192:lvgl/src/widgets/../core/lv_obj_style_gen.h **** 
 193:lvgl/src/widgets/../core/lv_obj_style_gen.h **** static inline lv_opa_t lv_obj_get_style_bg_img_opa(const struct _lv_obj_t * obj, uint32_t part)
 194:lvgl/src/widgets/../core/lv_obj_style_gen.h **** {
 195:lvgl/src/widgets/../core/lv_obj_style_gen.h ****     lv_style_value_t v = lv_obj_get_style_prop(obj, part, LV_STYLE_BG_IMG_OPA);
 196:lvgl/src/widgets/../core/lv_obj_style_gen.h ****     return (lv_opa_t)v.num;
 197:lvgl/src/widgets/../core/lv_obj_style_gen.h **** }
 198:lvgl/src/widgets/../core/lv_obj_style_gen.h **** 
 199:lvgl/src/widgets/../core/lv_obj_style_gen.h **** static inline lv_color_t lv_obj_get_style_bg_img_recolor(const struct _lv_obj_t * obj, uint32_t par
 200:lvgl/src/widgets/../core/lv_obj_style_gen.h **** {
 201:lvgl/src/widgets/../core/lv_obj_style_gen.h ****     lv_style_value_t v = lv_obj_get_style_prop(obj, part, LV_STYLE_BG_IMG_RECOLOR);
 202:lvgl/src/widgets/../core/lv_obj_style_gen.h ****     return v.color;
 203:lvgl/src/widgets/../core/lv_obj_style_gen.h **** }
 204:lvgl/src/widgets/../core/lv_obj_style_gen.h **** 
 205:lvgl/src/widgets/../core/lv_obj_style_gen.h **** static inline lv_color_t lv_obj_get_style_bg_img_recolor_filtered(const struct _lv_obj_t * obj, uin
 206:lvgl/src/widgets/../core/lv_obj_style_gen.h **** {
 207:lvgl/src/widgets/../core/lv_obj_style_gen.h ****     lv_style_value_t v = lv_obj_get_style_prop(obj, part, LV_STYLE_BG_IMG_RECOLOR_FILTERED);
 208:lvgl/src/widgets/../core/lv_obj_style_gen.h ****     return v.color;
 209:lvgl/src/widgets/../core/lv_obj_style_gen.h **** }
 210:lvgl/src/widgets/../core/lv_obj_style_gen.h **** 
 211:lvgl/src/widgets/../core/lv_obj_style_gen.h **** static inline lv_opa_t lv_obj_get_style_bg_img_recolor_opa(const struct _lv_obj_t * obj, uint32_t p
 212:lvgl/src/widgets/../core/lv_obj_style_gen.h **** {
 213:lvgl/src/widgets/../core/lv_obj_style_gen.h ****     lv_style_value_t v = lv_obj_get_style_prop(obj, part, LV_STYLE_BG_IMG_RECOLOR_OPA);
 214:lvgl/src/widgets/../core/lv_obj_style_gen.h ****     return (lv_opa_t)v.num;
 215:lvgl/src/widgets/../core/lv_obj_style_gen.h **** }
 216:lvgl/src/widgets/../core/lv_obj_style_gen.h **** 
 217:lvgl/src/widgets/../core/lv_obj_style_gen.h **** static inline bool lv_obj_get_style_bg_img_tiled(const struct _lv_obj_t * obj, uint32_t part)
 218:lvgl/src/widgets/../core/lv_obj_style_gen.h **** {
 219:lvgl/src/widgets/../core/lv_obj_style_gen.h ****     lv_style_value_t v = lv_obj_get_style_prop(obj, part, LV_STYLE_BG_IMG_TILED);
 220:lvgl/src/widgets/../core/lv_obj_style_gen.h ****     return (bool)v.num;
 221:lvgl/src/widgets/../core/lv_obj_style_gen.h **** }
 222:lvgl/src/widgets/../core/lv_obj_style_gen.h **** 
 223:lvgl/src/widgets/../core/lv_obj_style_gen.h **** static inline lv_color_t lv_obj_get_style_border_color(const struct _lv_obj_t * obj, uint32_t part)
 224:lvgl/src/widgets/../core/lv_obj_style_gen.h **** {
 225:lvgl/src/widgets/../core/lv_obj_style_gen.h ****     lv_style_value_t v = lv_obj_get_style_prop(obj, part, LV_STYLE_BORDER_COLOR);
 226:lvgl/src/widgets/../core/lv_obj_style_gen.h ****     return v.color;
 227:lvgl/src/widgets/../core/lv_obj_style_gen.h **** }
 228:lvgl/src/widgets/../core/lv_obj_style_gen.h **** 
 229:lvgl/src/widgets/../core/lv_obj_style_gen.h **** static inline lv_color_t lv_obj_get_style_border_color_filtered(const struct _lv_obj_t * obj, uint3
 230:lvgl/src/widgets/../core/lv_obj_style_gen.h **** {
 231:lvgl/src/widgets/../core/lv_obj_style_gen.h ****     lv_style_value_t v = lv_obj_get_style_prop(obj, part, LV_STYLE_BORDER_COLOR_FILTERED);
 232:lvgl/src/widgets/../core/lv_obj_style_gen.h ****     return v.color;
 233:lvgl/src/widgets/../core/lv_obj_style_gen.h **** }
 234:lvgl/src/widgets/../core/lv_obj_style_gen.h **** 
 235:lvgl/src/widgets/../core/lv_obj_style_gen.h **** static inline lv_opa_t lv_obj_get_style_border_opa(const struct _lv_obj_t * obj, uint32_t part)
 236:lvgl/src/widgets/../core/lv_obj_style_gen.h **** {
 237:lvgl/src/widgets/../core/lv_obj_style_gen.h ****     lv_style_value_t v = lv_obj_get_style_prop(obj, part, LV_STYLE_BORDER_OPA);
ARM GAS  C:\usertemp\cc2TdG63.s 			page 21


 238:lvgl/src/widgets/../core/lv_obj_style_gen.h ****     return (lv_opa_t)v.num;
 239:lvgl/src/widgets/../core/lv_obj_style_gen.h **** }
 240:lvgl/src/widgets/../core/lv_obj_style_gen.h **** 
 241:lvgl/src/widgets/../core/lv_obj_style_gen.h **** static inline lv_coord_t lv_obj_get_style_border_width(const struct _lv_obj_t * obj, uint32_t part)
 242:lvgl/src/widgets/../core/lv_obj_style_gen.h **** {
 243:lvgl/src/widgets/../core/lv_obj_style_gen.h ****     lv_style_value_t v = lv_obj_get_style_prop(obj, part, LV_STYLE_BORDER_WIDTH);
 244:lvgl/src/widgets/../core/lv_obj_style_gen.h ****     return (lv_coord_t)v.num;
 245:lvgl/src/widgets/../core/lv_obj_style_gen.h **** }
 246:lvgl/src/widgets/../core/lv_obj_style_gen.h **** 
 247:lvgl/src/widgets/../core/lv_obj_style_gen.h **** static inline lv_border_side_t lv_obj_get_style_border_side(const struct _lv_obj_t * obj, uint32_t 
 248:lvgl/src/widgets/../core/lv_obj_style_gen.h **** {
 249:lvgl/src/widgets/../core/lv_obj_style_gen.h ****     lv_style_value_t v = lv_obj_get_style_prop(obj, part, LV_STYLE_BORDER_SIDE);
 250:lvgl/src/widgets/../core/lv_obj_style_gen.h ****     return (lv_border_side_t)v.num;
 251:lvgl/src/widgets/../core/lv_obj_style_gen.h **** }
 252:lvgl/src/widgets/../core/lv_obj_style_gen.h **** 
 253:lvgl/src/widgets/../core/lv_obj_style_gen.h **** static inline bool lv_obj_get_style_border_post(const struct _lv_obj_t * obj, uint32_t part)
 254:lvgl/src/widgets/../core/lv_obj_style_gen.h **** {
 255:lvgl/src/widgets/../core/lv_obj_style_gen.h ****     lv_style_value_t v = lv_obj_get_style_prop(obj, part, LV_STYLE_BORDER_POST);
 256:lvgl/src/widgets/../core/lv_obj_style_gen.h ****     return (bool)v.num;
 257:lvgl/src/widgets/../core/lv_obj_style_gen.h **** }
 258:lvgl/src/widgets/../core/lv_obj_style_gen.h **** 
 259:lvgl/src/widgets/../core/lv_obj_style_gen.h **** static inline lv_coord_t lv_obj_get_style_outline_width(const struct _lv_obj_t * obj, uint32_t part
 260:lvgl/src/widgets/../core/lv_obj_style_gen.h **** {
 261:lvgl/src/widgets/../core/lv_obj_style_gen.h ****     lv_style_value_t v = lv_obj_get_style_prop(obj, part, LV_STYLE_OUTLINE_WIDTH);
 262:lvgl/src/widgets/../core/lv_obj_style_gen.h ****     return (lv_coord_t)v.num;
 263:lvgl/src/widgets/../core/lv_obj_style_gen.h **** }
 264:lvgl/src/widgets/../core/lv_obj_style_gen.h **** 
 265:lvgl/src/widgets/../core/lv_obj_style_gen.h **** static inline lv_color_t lv_obj_get_style_outline_color(const struct _lv_obj_t * obj, uint32_t part
 266:lvgl/src/widgets/../core/lv_obj_style_gen.h **** {
 267:lvgl/src/widgets/../core/lv_obj_style_gen.h ****     lv_style_value_t v = lv_obj_get_style_prop(obj, part, LV_STYLE_OUTLINE_COLOR);
 268:lvgl/src/widgets/../core/lv_obj_style_gen.h ****     return v.color;
 269:lvgl/src/widgets/../core/lv_obj_style_gen.h **** }
 270:lvgl/src/widgets/../core/lv_obj_style_gen.h **** 
 271:lvgl/src/widgets/../core/lv_obj_style_gen.h **** static inline lv_color_t lv_obj_get_style_outline_color_filtered(const struct _lv_obj_t * obj, uint
 272:lvgl/src/widgets/../core/lv_obj_style_gen.h **** {
 273:lvgl/src/widgets/../core/lv_obj_style_gen.h ****     lv_style_value_t v = lv_obj_get_style_prop(obj, part, LV_STYLE_OUTLINE_COLOR_FILTERED);
 274:lvgl/src/widgets/../core/lv_obj_style_gen.h ****     return v.color;
 275:lvgl/src/widgets/../core/lv_obj_style_gen.h **** }
 276:lvgl/src/widgets/../core/lv_obj_style_gen.h **** 
 277:lvgl/src/widgets/../core/lv_obj_style_gen.h **** static inline lv_opa_t lv_obj_get_style_outline_opa(const struct _lv_obj_t * obj, uint32_t part)
 278:lvgl/src/widgets/../core/lv_obj_style_gen.h **** {
 279:lvgl/src/widgets/../core/lv_obj_style_gen.h ****     lv_style_value_t v = lv_obj_get_style_prop(obj, part, LV_STYLE_OUTLINE_OPA);
 280:lvgl/src/widgets/../core/lv_obj_style_gen.h ****     return (lv_opa_t)v.num;
 281:lvgl/src/widgets/../core/lv_obj_style_gen.h **** }
 282:lvgl/src/widgets/../core/lv_obj_style_gen.h **** 
 283:lvgl/src/widgets/../core/lv_obj_style_gen.h **** static inline lv_coord_t lv_obj_get_style_outline_pad(const struct _lv_obj_t * obj, uint32_t part)
 284:lvgl/src/widgets/../core/lv_obj_style_gen.h **** {
 285:lvgl/src/widgets/../core/lv_obj_style_gen.h ****     lv_style_value_t v = lv_obj_get_style_prop(obj, part, LV_STYLE_OUTLINE_PAD);
 286:lvgl/src/widgets/../core/lv_obj_style_gen.h ****     return (lv_coord_t)v.num;
 287:lvgl/src/widgets/../core/lv_obj_style_gen.h **** }
 288:lvgl/src/widgets/../core/lv_obj_style_gen.h **** 
 289:lvgl/src/widgets/../core/lv_obj_style_gen.h **** static inline lv_coord_t lv_obj_get_style_shadow_width(const struct _lv_obj_t * obj, uint32_t part)
 290:lvgl/src/widgets/../core/lv_obj_style_gen.h **** {
 291:lvgl/src/widgets/../core/lv_obj_style_gen.h ****     lv_style_value_t v = lv_obj_get_style_prop(obj, part, LV_STYLE_SHADOW_WIDTH);
 292:lvgl/src/widgets/../core/lv_obj_style_gen.h ****     return (lv_coord_t)v.num;
 293:lvgl/src/widgets/../core/lv_obj_style_gen.h **** }
 294:lvgl/src/widgets/../core/lv_obj_style_gen.h **** 
ARM GAS  C:\usertemp\cc2TdG63.s 			page 22


 295:lvgl/src/widgets/../core/lv_obj_style_gen.h **** static inline lv_coord_t lv_obj_get_style_shadow_ofs_x(const struct _lv_obj_t * obj, uint32_t part)
 296:lvgl/src/widgets/../core/lv_obj_style_gen.h **** {
 297:lvgl/src/widgets/../core/lv_obj_style_gen.h ****     lv_style_value_t v = lv_obj_get_style_prop(obj, part, LV_STYLE_SHADOW_OFS_X);
 298:lvgl/src/widgets/../core/lv_obj_style_gen.h ****     return (lv_coord_t)v.num;
 299:lvgl/src/widgets/../core/lv_obj_style_gen.h **** }
 300:lvgl/src/widgets/../core/lv_obj_style_gen.h **** 
 301:lvgl/src/widgets/../core/lv_obj_style_gen.h **** static inline lv_coord_t lv_obj_get_style_shadow_ofs_y(const struct _lv_obj_t * obj, uint32_t part)
 302:lvgl/src/widgets/../core/lv_obj_style_gen.h **** {
 303:lvgl/src/widgets/../core/lv_obj_style_gen.h ****     lv_style_value_t v = lv_obj_get_style_prop(obj, part, LV_STYLE_SHADOW_OFS_Y);
 304:lvgl/src/widgets/../core/lv_obj_style_gen.h ****     return (lv_coord_t)v.num;
 305:lvgl/src/widgets/../core/lv_obj_style_gen.h **** }
 306:lvgl/src/widgets/../core/lv_obj_style_gen.h **** 
 307:lvgl/src/widgets/../core/lv_obj_style_gen.h **** static inline lv_coord_t lv_obj_get_style_shadow_spread(const struct _lv_obj_t * obj, uint32_t part
 308:lvgl/src/widgets/../core/lv_obj_style_gen.h **** {
 309:lvgl/src/widgets/../core/lv_obj_style_gen.h ****     lv_style_value_t v = lv_obj_get_style_prop(obj, part, LV_STYLE_SHADOW_SPREAD);
 310:lvgl/src/widgets/../core/lv_obj_style_gen.h ****     return (lv_coord_t)v.num;
 311:lvgl/src/widgets/../core/lv_obj_style_gen.h **** }
 312:lvgl/src/widgets/../core/lv_obj_style_gen.h **** 
 313:lvgl/src/widgets/../core/lv_obj_style_gen.h **** static inline lv_color_t lv_obj_get_style_shadow_color(const struct _lv_obj_t * obj, uint32_t part)
 314:lvgl/src/widgets/../core/lv_obj_style_gen.h **** {
 315:lvgl/src/widgets/../core/lv_obj_style_gen.h ****     lv_style_value_t v = lv_obj_get_style_prop(obj, part, LV_STYLE_SHADOW_COLOR);
 316:lvgl/src/widgets/../core/lv_obj_style_gen.h ****     return v.color;
 317:lvgl/src/widgets/../core/lv_obj_style_gen.h **** }
 318:lvgl/src/widgets/../core/lv_obj_style_gen.h **** 
 319:lvgl/src/widgets/../core/lv_obj_style_gen.h **** static inline lv_color_t lv_obj_get_style_shadow_color_filtered(const struct _lv_obj_t * obj, uint3
 320:lvgl/src/widgets/../core/lv_obj_style_gen.h **** {
 321:lvgl/src/widgets/../core/lv_obj_style_gen.h ****     lv_style_value_t v = lv_obj_get_style_prop(obj, part, LV_STYLE_SHADOW_COLOR_FILTERED);
 322:lvgl/src/widgets/../core/lv_obj_style_gen.h ****     return v.color;
 323:lvgl/src/widgets/../core/lv_obj_style_gen.h **** }
 324:lvgl/src/widgets/../core/lv_obj_style_gen.h **** 
 325:lvgl/src/widgets/../core/lv_obj_style_gen.h **** static inline lv_opa_t lv_obj_get_style_shadow_opa(const struct _lv_obj_t * obj, uint32_t part)
 326:lvgl/src/widgets/../core/lv_obj_style_gen.h **** {
 327:lvgl/src/widgets/../core/lv_obj_style_gen.h ****     lv_style_value_t v = lv_obj_get_style_prop(obj, part, LV_STYLE_SHADOW_OPA);
 328:lvgl/src/widgets/../core/lv_obj_style_gen.h ****     return (lv_opa_t)v.num;
 329:lvgl/src/widgets/../core/lv_obj_style_gen.h **** }
 330:lvgl/src/widgets/../core/lv_obj_style_gen.h **** 
 331:lvgl/src/widgets/../core/lv_obj_style_gen.h **** static inline lv_opa_t lv_obj_get_style_img_opa(const struct _lv_obj_t * obj, uint32_t part)
 332:lvgl/src/widgets/../core/lv_obj_style_gen.h **** {
 333:lvgl/src/widgets/../core/lv_obj_style_gen.h ****     lv_style_value_t v = lv_obj_get_style_prop(obj, part, LV_STYLE_IMG_OPA);
 334:lvgl/src/widgets/../core/lv_obj_style_gen.h ****     return (lv_opa_t)v.num;
 335:lvgl/src/widgets/../core/lv_obj_style_gen.h **** }
 336:lvgl/src/widgets/../core/lv_obj_style_gen.h **** 
 337:lvgl/src/widgets/../core/lv_obj_style_gen.h **** static inline lv_color_t lv_obj_get_style_img_recolor(const struct _lv_obj_t * obj, uint32_t part)
 338:lvgl/src/widgets/../core/lv_obj_style_gen.h **** {
 339:lvgl/src/widgets/../core/lv_obj_style_gen.h ****     lv_style_value_t v = lv_obj_get_style_prop(obj, part, LV_STYLE_IMG_RECOLOR);
 340:lvgl/src/widgets/../core/lv_obj_style_gen.h ****     return v.color;
 341:lvgl/src/widgets/../core/lv_obj_style_gen.h **** }
 342:lvgl/src/widgets/../core/lv_obj_style_gen.h **** 
 343:lvgl/src/widgets/../core/lv_obj_style_gen.h **** static inline lv_color_t lv_obj_get_style_img_recolor_filtered(const struct _lv_obj_t * obj, uint32
 344:lvgl/src/widgets/../core/lv_obj_style_gen.h **** {
 345:lvgl/src/widgets/../core/lv_obj_style_gen.h ****     lv_style_value_t v = lv_obj_get_style_prop(obj, part, LV_STYLE_IMG_RECOLOR_FILTERED);
 346:lvgl/src/widgets/../core/lv_obj_style_gen.h ****     return v.color;
 347:lvgl/src/widgets/../core/lv_obj_style_gen.h **** }
 348:lvgl/src/widgets/../core/lv_obj_style_gen.h **** 
 349:lvgl/src/widgets/../core/lv_obj_style_gen.h **** static inline lv_opa_t lv_obj_get_style_img_recolor_opa(const struct _lv_obj_t * obj, uint32_t part
 350:lvgl/src/widgets/../core/lv_obj_style_gen.h **** {
 351:lvgl/src/widgets/../core/lv_obj_style_gen.h ****     lv_style_value_t v = lv_obj_get_style_prop(obj, part, LV_STYLE_IMG_RECOLOR_OPA);
ARM GAS  C:\usertemp\cc2TdG63.s 			page 23


 352:lvgl/src/widgets/../core/lv_obj_style_gen.h ****     return (lv_opa_t)v.num;
 353:lvgl/src/widgets/../core/lv_obj_style_gen.h **** }
 354:lvgl/src/widgets/../core/lv_obj_style_gen.h **** 
 355:lvgl/src/widgets/../core/lv_obj_style_gen.h **** static inline lv_coord_t lv_obj_get_style_line_width(const struct _lv_obj_t * obj, uint32_t part)
 356:lvgl/src/widgets/../core/lv_obj_style_gen.h **** {
 357:lvgl/src/widgets/../core/lv_obj_style_gen.h ****     lv_style_value_t v = lv_obj_get_style_prop(obj, part, LV_STYLE_LINE_WIDTH);
 358:lvgl/src/widgets/../core/lv_obj_style_gen.h ****     return (lv_coord_t)v.num;
 359:lvgl/src/widgets/../core/lv_obj_style_gen.h **** }
 360:lvgl/src/widgets/../core/lv_obj_style_gen.h **** 
 361:lvgl/src/widgets/../core/lv_obj_style_gen.h **** static inline lv_coord_t lv_obj_get_style_line_dash_width(const struct _lv_obj_t * obj, uint32_t pa
 362:lvgl/src/widgets/../core/lv_obj_style_gen.h **** {
 363:lvgl/src/widgets/../core/lv_obj_style_gen.h ****     lv_style_value_t v = lv_obj_get_style_prop(obj, part, LV_STYLE_LINE_DASH_WIDTH);
 364:lvgl/src/widgets/../core/lv_obj_style_gen.h ****     return (lv_coord_t)v.num;
 365:lvgl/src/widgets/../core/lv_obj_style_gen.h **** }
 366:lvgl/src/widgets/../core/lv_obj_style_gen.h **** 
 367:lvgl/src/widgets/../core/lv_obj_style_gen.h **** static inline lv_coord_t lv_obj_get_style_line_dash_gap(const struct _lv_obj_t * obj, uint32_t part
 368:lvgl/src/widgets/../core/lv_obj_style_gen.h **** {
 369:lvgl/src/widgets/../core/lv_obj_style_gen.h ****     lv_style_value_t v = lv_obj_get_style_prop(obj, part, LV_STYLE_LINE_DASH_GAP);
 370:lvgl/src/widgets/../core/lv_obj_style_gen.h ****     return (lv_coord_t)v.num;
 371:lvgl/src/widgets/../core/lv_obj_style_gen.h **** }
 372:lvgl/src/widgets/../core/lv_obj_style_gen.h **** 
 373:lvgl/src/widgets/../core/lv_obj_style_gen.h **** static inline bool lv_obj_get_style_line_rounded(const struct _lv_obj_t * obj, uint32_t part)
 374:lvgl/src/widgets/../core/lv_obj_style_gen.h **** {
 375:lvgl/src/widgets/../core/lv_obj_style_gen.h ****     lv_style_value_t v = lv_obj_get_style_prop(obj, part, LV_STYLE_LINE_ROUNDED);
 376:lvgl/src/widgets/../core/lv_obj_style_gen.h ****     return (bool)v.num;
 377:lvgl/src/widgets/../core/lv_obj_style_gen.h **** }
 378:lvgl/src/widgets/../core/lv_obj_style_gen.h **** 
 379:lvgl/src/widgets/../core/lv_obj_style_gen.h **** static inline lv_color_t lv_obj_get_style_line_color(const struct _lv_obj_t * obj, uint32_t part)
 380:lvgl/src/widgets/../core/lv_obj_style_gen.h **** {
 381:lvgl/src/widgets/../core/lv_obj_style_gen.h ****     lv_style_value_t v = lv_obj_get_style_prop(obj, part, LV_STYLE_LINE_COLOR);
 382:lvgl/src/widgets/../core/lv_obj_style_gen.h ****     return v.color;
 383:lvgl/src/widgets/../core/lv_obj_style_gen.h **** }
 384:lvgl/src/widgets/../core/lv_obj_style_gen.h **** 
 385:lvgl/src/widgets/../core/lv_obj_style_gen.h **** static inline lv_color_t lv_obj_get_style_line_color_filtered(const struct _lv_obj_t * obj, uint32_
 386:lvgl/src/widgets/../core/lv_obj_style_gen.h **** {
 387:lvgl/src/widgets/../core/lv_obj_style_gen.h ****     lv_style_value_t v = lv_obj_get_style_prop(obj, part, LV_STYLE_LINE_COLOR_FILTERED);
 388:lvgl/src/widgets/../core/lv_obj_style_gen.h ****     return v.color;
 389:lvgl/src/widgets/../core/lv_obj_style_gen.h **** }
 390:lvgl/src/widgets/../core/lv_obj_style_gen.h **** 
 391:lvgl/src/widgets/../core/lv_obj_style_gen.h **** static inline lv_opa_t lv_obj_get_style_line_opa(const struct _lv_obj_t * obj, uint32_t part)
 392:lvgl/src/widgets/../core/lv_obj_style_gen.h **** {
 393:lvgl/src/widgets/../core/lv_obj_style_gen.h ****     lv_style_value_t v = lv_obj_get_style_prop(obj, part, LV_STYLE_LINE_OPA);
 394:lvgl/src/widgets/../core/lv_obj_style_gen.h ****     return (lv_opa_t)v.num;
 395:lvgl/src/widgets/../core/lv_obj_style_gen.h **** }
 396:lvgl/src/widgets/../core/lv_obj_style_gen.h **** 
 397:lvgl/src/widgets/../core/lv_obj_style_gen.h **** static inline lv_coord_t lv_obj_get_style_arc_width(const struct _lv_obj_t * obj, uint32_t part)
 398:lvgl/src/widgets/../core/lv_obj_style_gen.h **** {
 399:lvgl/src/widgets/../core/lv_obj_style_gen.h ****     lv_style_value_t v = lv_obj_get_style_prop(obj, part, LV_STYLE_ARC_WIDTH);
 400:lvgl/src/widgets/../core/lv_obj_style_gen.h ****     return (lv_coord_t)v.num;
 401:lvgl/src/widgets/../core/lv_obj_style_gen.h **** }
 402:lvgl/src/widgets/../core/lv_obj_style_gen.h **** 
 403:lvgl/src/widgets/../core/lv_obj_style_gen.h **** static inline bool lv_obj_get_style_arc_rounded(const struct _lv_obj_t * obj, uint32_t part)
 404:lvgl/src/widgets/../core/lv_obj_style_gen.h **** {
 405:lvgl/src/widgets/../core/lv_obj_style_gen.h ****     lv_style_value_t v = lv_obj_get_style_prop(obj, part, LV_STYLE_ARC_ROUNDED);
 406:lvgl/src/widgets/../core/lv_obj_style_gen.h ****     return (bool)v.num;
 407:lvgl/src/widgets/../core/lv_obj_style_gen.h **** }
 408:lvgl/src/widgets/../core/lv_obj_style_gen.h **** 
ARM GAS  C:\usertemp\cc2TdG63.s 			page 24


 409:lvgl/src/widgets/../core/lv_obj_style_gen.h **** static inline lv_color_t lv_obj_get_style_arc_color(const struct _lv_obj_t * obj, uint32_t part)
 410:lvgl/src/widgets/../core/lv_obj_style_gen.h **** {
 411:lvgl/src/widgets/../core/lv_obj_style_gen.h ****     lv_style_value_t v = lv_obj_get_style_prop(obj, part, LV_STYLE_ARC_COLOR);
 412:lvgl/src/widgets/../core/lv_obj_style_gen.h ****     return v.color;
 413:lvgl/src/widgets/../core/lv_obj_style_gen.h **** }
 414:lvgl/src/widgets/../core/lv_obj_style_gen.h **** 
 415:lvgl/src/widgets/../core/lv_obj_style_gen.h **** static inline lv_color_t lv_obj_get_style_arc_color_filtered(const struct _lv_obj_t * obj, uint32_t
 416:lvgl/src/widgets/../core/lv_obj_style_gen.h **** {
 417:lvgl/src/widgets/../core/lv_obj_style_gen.h ****     lv_style_value_t v = lv_obj_get_style_prop(obj, part, LV_STYLE_ARC_COLOR_FILTERED);
 418:lvgl/src/widgets/../core/lv_obj_style_gen.h ****     return v.color;
 419:lvgl/src/widgets/../core/lv_obj_style_gen.h **** }
 420:lvgl/src/widgets/../core/lv_obj_style_gen.h **** 
 421:lvgl/src/widgets/../core/lv_obj_style_gen.h **** static inline lv_opa_t lv_obj_get_style_arc_opa(const struct _lv_obj_t * obj, uint32_t part)
 422:lvgl/src/widgets/../core/lv_obj_style_gen.h **** {
 423:lvgl/src/widgets/../core/lv_obj_style_gen.h ****     lv_style_value_t v = lv_obj_get_style_prop(obj, part, LV_STYLE_ARC_OPA);
 424:lvgl/src/widgets/../core/lv_obj_style_gen.h ****     return (lv_opa_t)v.num;
 425:lvgl/src/widgets/../core/lv_obj_style_gen.h **** }
 426:lvgl/src/widgets/../core/lv_obj_style_gen.h **** 
 427:lvgl/src/widgets/../core/lv_obj_style_gen.h **** static inline const void * lv_obj_get_style_arc_img_src(const struct _lv_obj_t * obj, uint32_t part
 428:lvgl/src/widgets/../core/lv_obj_style_gen.h **** {
 429:lvgl/src/widgets/../core/lv_obj_style_gen.h ****     lv_style_value_t v = lv_obj_get_style_prop(obj, part, LV_STYLE_ARC_IMG_SRC);
 430:lvgl/src/widgets/../core/lv_obj_style_gen.h ****     return (const void *)v.ptr;
 431:lvgl/src/widgets/../core/lv_obj_style_gen.h **** }
 432:lvgl/src/widgets/../core/lv_obj_style_gen.h **** 
 433:lvgl/src/widgets/../core/lv_obj_style_gen.h **** static inline lv_color_t lv_obj_get_style_text_color(const struct _lv_obj_t * obj, uint32_t part)
 434:lvgl/src/widgets/../core/lv_obj_style_gen.h **** {
 435:lvgl/src/widgets/../core/lv_obj_style_gen.h ****     lv_style_value_t v = lv_obj_get_style_prop(obj, part, LV_STYLE_TEXT_COLOR);
 436:lvgl/src/widgets/../core/lv_obj_style_gen.h ****     return v.color;
 437:lvgl/src/widgets/../core/lv_obj_style_gen.h **** }
 438:lvgl/src/widgets/../core/lv_obj_style_gen.h **** 
 439:lvgl/src/widgets/../core/lv_obj_style_gen.h **** static inline lv_color_t lv_obj_get_style_text_color_filtered(const struct _lv_obj_t * obj, uint32_
 440:lvgl/src/widgets/../core/lv_obj_style_gen.h **** {
 441:lvgl/src/widgets/../core/lv_obj_style_gen.h ****     lv_style_value_t v = lv_obj_get_style_prop(obj, part, LV_STYLE_TEXT_COLOR_FILTERED);
 442:lvgl/src/widgets/../core/lv_obj_style_gen.h ****     return v.color;
 443:lvgl/src/widgets/../core/lv_obj_style_gen.h **** }
 444:lvgl/src/widgets/../core/lv_obj_style_gen.h **** 
 445:lvgl/src/widgets/../core/lv_obj_style_gen.h **** static inline lv_opa_t lv_obj_get_style_text_opa(const struct _lv_obj_t * obj, uint32_t part)
 446:lvgl/src/widgets/../core/lv_obj_style_gen.h **** {
 447:lvgl/src/widgets/../core/lv_obj_style_gen.h ****     lv_style_value_t v = lv_obj_get_style_prop(obj, part, LV_STYLE_TEXT_OPA);
 448:lvgl/src/widgets/../core/lv_obj_style_gen.h ****     return (lv_opa_t)v.num;
 449:lvgl/src/widgets/../core/lv_obj_style_gen.h **** }
 450:lvgl/src/widgets/../core/lv_obj_style_gen.h **** 
 451:lvgl/src/widgets/../core/lv_obj_style_gen.h **** static inline const lv_font_t * lv_obj_get_style_text_font(const struct _lv_obj_t * obj, uint32_t p
 116              		.loc 2 451 33 view .LVU17
 117              	.LBB75:
 452:lvgl/src/widgets/../core/lv_obj_style_gen.h **** {
 453:lvgl/src/widgets/../core/lv_obj_style_gen.h ****     lv_style_value_t v = lv_obj_get_style_prop(obj, part, LV_STYLE_TEXT_FONT);
 118              		.loc 2 453 5 view .LVU18
 119              		.loc 2 453 26 is_stmt 0 view .LVU19
 120 000e 41F25942 		movw	r2, #5209
 121 0012 4FF48021 		mov	r1, #262144
 122 0016 2046     		mov	r0, r4
 123              	.LVL8:
 124              		.loc 2 453 26 view .LVU20
 125 0018 FFF7FEFF 		bl	lv_obj_get_style_prop
 126              	.LVL9:
 127 001c 0546     		mov	r5, r0
ARM GAS  C:\usertemp\cc2TdG63.s 			page 25


 128              	.LVL10:
 454:lvgl/src/widgets/../core/lv_obj_style_gen.h ****     return (const lv_font_t *)v.ptr;
 129              		.loc 2 454 5 is_stmt 1 view .LVU21
 130              		.loc 2 454 5 is_stmt 0 view .LVU22
 131              	.LBE75:
 132              	.LBE74:
 764:lvgl/src/widgets/lv_roller.c ****     const char * txt = lv_label_get_text(label);
 133              		.loc 1 764 5 is_stmt 1 view .LVU23
 134              	.LBB76:
 135              	.LBI76:
 455:lvgl/src/widgets/../core/lv_obj_style_gen.h **** }
 456:lvgl/src/widgets/../core/lv_obj_style_gen.h **** 
 457:lvgl/src/widgets/../core/lv_obj_style_gen.h **** static inline lv_coord_t lv_obj_get_style_text_letter_space(const struct _lv_obj_t * obj, uint32_t 
 136              		.loc 2 457 26 view .LVU24
 137              	.LBB77:
 458:lvgl/src/widgets/../core/lv_obj_style_gen.h **** {
 459:lvgl/src/widgets/../core/lv_obj_style_gen.h ****     lv_style_value_t v = lv_obj_get_style_prop(obj, part, LV_STYLE_TEXT_LETTER_SPACE);
 138              		.loc 2 459 5 view .LVU25
 139              		.loc 2 459 26 is_stmt 0 view .LVU26
 140 001e 41F25A42 		movw	r2, #5210
 141 0022 4FF48021 		mov	r1, #262144
 142 0026 2046     		mov	r0, r4
 143              	.LVL11:
 144              		.loc 2 459 26 view .LVU27
 145 0028 FFF7FEFF 		bl	lv_obj_get_style_prop
 146              	.LVL12:
 460:lvgl/src/widgets/../core/lv_obj_style_gen.h ****     return (lv_coord_t)v.num;
 147              		.loc 2 460 5 is_stmt 1 view .LVU28
 148              		.loc 2 460 12 is_stmt 0 view .LVU29
 149 002c 04B2     		sxth	r4, r0
 150              	.LVL13:
 151              		.loc 2 460 12 view .LVU30
 152              	.LBE77:
 153              	.LBE76:
 765:lvgl/src/widgets/lv_roller.c ****     lv_point_t size;
 154              		.loc 1 765 5 is_stmt 1 view .LVU31
 765:lvgl/src/widgets/lv_roller.c ****     lv_point_t size;
 155              		.loc 1 765 24 is_stmt 0 view .LVU32
 156 002e 3046     		mov	r0, r6
 157 0030 FFF7FEFF 		bl	lv_label_get_text
 158              	.LVL14:
 159 0034 0146     		mov	r1, r0
 160              	.LVL15:
 766:lvgl/src/widgets/lv_roller.c ****     lv_txt_get_size(&size, txt, font, letter_space, 0, LV_COORD_MAX,  LV_TEXT_FLAG_NONE);
 161              		.loc 1 766 5 is_stmt 1 view .LVU33
 767:lvgl/src/widgets/lv_roller.c ****     return size.x;
 162              		.loc 1 767 5 view .LVU34
 163 0036 0023     		movs	r3, #0
 164 0038 0293     		str	r3, [sp, #8]
 165 003a 41F6FF72 		movw	r2, #8191
 166 003e 0192     		str	r2, [sp, #4]
 167 0040 0093     		str	r3, [sp]
 168 0042 2346     		mov	r3, r4
 169 0044 2A46     		mov	r2, r5
 170 0046 05A8     		add	r0, sp, #20
 171              	.LVL16:
 767:lvgl/src/widgets/lv_roller.c ****     return size.x;
ARM GAS  C:\usertemp\cc2TdG63.s 			page 26


 172              		.loc 1 767 5 is_stmt 0 view .LVU35
 173 0048 FFF7FEFF 		bl	lv_txt_get_size
 174              	.LVL17:
 768:lvgl/src/widgets/lv_roller.c **** }
 175              		.loc 1 768 5 is_stmt 1 view .LVU36
 768:lvgl/src/widgets/lv_roller.c **** }
 176              		.loc 1 768 16 is_stmt 0 view .LVU37
 177 004c BDF91400 		ldrsh	r0, [sp, #20]
 178              	.LVL18:
 179              	.L6:
 769:lvgl/src/widgets/lv_roller.c **** 
 180              		.loc 1 769 1 view .LVU38
 181 0050 06B0     		add	sp, sp, #24
 182              	.LCFI4:
 183              		.cfi_remember_state
 184              		.cfi_def_cfa_offset 16
 185              		@ sp needed
 186 0052 70BD     		pop	{r4, r5, r6, pc}
 187              	.LVL19:
 188              	.L7:
 189              	.LCFI5:
 190              		.cfi_restore_state
 761:lvgl/src/widgets/lv_roller.c **** 
 191              		.loc 1 761 30 discriminator 1 view .LVU39
 192 0054 0020     		movs	r0, #0
 193              	.LVL20:
 761:lvgl/src/widgets/lv_roller.c **** 
 194              		.loc 1 761 30 discriminator 1 view .LVU40
 195 0056 FBE7     		b	.L6
 196              		.cfi_endproc
 197              	.LFE174:
 199              		.section	.text.inf_normalize,"ax",%progbits
 200              		.align	1
 201              		.syntax unified
 202              		.thumb
 203              		.thumb_func
 205              	inf_normalize:
 206              	.LVL21:
 207              	.LFB172:
 725:lvgl/src/widgets/lv_roller.c ****     lv_roller_t * roller = (lv_roller_t *)obj;
 208              		.loc 1 725 1 is_stmt 1 view -0
 209              		.cfi_startproc
 210              		@ args = 0, pretend = 0, frame = 0
 211              		@ frame_needed = 0, uses_anonymous_args = 0
 725:lvgl/src/widgets/lv_roller.c ****     lv_roller_t * roller = (lv_roller_t *)obj;
 212              		.loc 1 725 1 is_stmt 0 view .LVU42
 213 0000 F8B5     		push	{r3, r4, r5, r6, r7, lr}
 214              	.LCFI6:
 215              		.cfi_def_cfa_offset 24
 216              		.cfi_offset 3, -24
 217              		.cfi_offset 4, -20
 218              		.cfi_offset 5, -16
 219              		.cfi_offset 6, -12
 220              		.cfi_offset 7, -8
 221              		.cfi_offset 14, -4
 726:lvgl/src/widgets/lv_roller.c **** 
 222              		.loc 1 726 5 is_stmt 1 view .LVU43
ARM GAS  C:\usertemp\cc2TdG63.s 			page 27


 223              	.LVL22:
 728:lvgl/src/widgets/lv_roller.c ****         uint16_t real_id_cnt = roller->option_cnt / LV_ROLLER_INF_PAGES;
 224              		.loc 1 728 5 view .LVU44
 728:lvgl/src/widgets/lv_roller.c ****         uint16_t real_id_cnt = roller->option_cnt / LV_ROLLER_INF_PAGES;
 225              		.loc 1 728 21 is_stmt 0 view .LVU45
 226 0002 90F82A30 		ldrb	r3, [r0, #42]	@ zero_extendqisi2
 728:lvgl/src/widgets/lv_roller.c ****         uint16_t real_id_cnt = roller->option_cnt / LV_ROLLER_INF_PAGES;
 227              		.loc 1 728 7 view .LVU46
 228 0006 13F0010F 		tst	r3, #1
 229 000a 00D1     		bne	.L14
 230              	.LVL23:
 231              	.L9:
 750:lvgl/src/widgets/lv_roller.c **** 
 232              		.loc 1 750 1 view .LVU47
 233 000c F8BD     		pop	{r3, r4, r5, r6, r7, pc}
 234              	.LVL24:
 235              	.L14:
 750:lvgl/src/widgets/lv_roller.c **** 
 236              		.loc 1 750 1 view .LVU48
 237 000e 0446     		mov	r4, r0
 238              	.LBB78:
 729:lvgl/src/widgets/lv_roller.c ****         roller->sel_opt_id = roller->sel_opt_id % real_id_cnt;
 239              		.loc 1 729 9 is_stmt 1 view .LVU49
 729:lvgl/src/widgets/lv_roller.c ****         roller->sel_opt_id = roller->sel_opt_id % real_id_cnt;
 240              		.loc 1 729 38 is_stmt 0 view .LVU50
 241 0010 838C     		ldrh	r3, [r0, #36]
 729:lvgl/src/widgets/lv_roller.c ****         roller->sel_opt_id = roller->sel_opt_id % real_id_cnt;
 242              		.loc 1 729 18 view .LVU51
 243 0012 264A     		ldr	r2, .L17
 244 0014 A2FB0312 		umull	r1, r2, r2, r3
 245 0018 9B1A     		subs	r3, r3, r2
 246 001a 02EB5302 		add	r2, r2, r3, lsr #1
 247 001e C2F38F02 		ubfx	r2, r2, #2, #16
 248              	.LVL25:
 730:lvgl/src/widgets/lv_roller.c ****         roller->sel_opt_id += (LV_ROLLER_INF_PAGES / 2) * real_id_cnt; /*Select the middle page*/
 249              		.loc 1 730 9 is_stmt 1 view .LVU52
 730:lvgl/src/widgets/lv_roller.c ****         roller->sel_opt_id += (LV_ROLLER_INF_PAGES / 2) * real_id_cnt; /*Select the middle page*/
 250              		.loc 1 730 36 is_stmt 0 view .LVU53
 251 0022 C38C     		ldrh	r3, [r0, #38]
 730:lvgl/src/widgets/lv_roller.c ****         roller->sel_opt_id += (LV_ROLLER_INF_PAGES / 2) * real_id_cnt; /*Select the middle page*/
 252              		.loc 1 730 28 view .LVU54
 253 0024 B3FBF2F1 		udiv	r1, r3, r2
 254 0028 02FB1133 		mls	r3, r2, r1, r3
 255 002c 9BB2     		uxth	r3, r3
 256 002e C384     		strh	r3, [r0, #38]	@ movhi
 731:lvgl/src/widgets/lv_roller.c **** 
 257              		.loc 1 731 9 is_stmt 1 view .LVU55
 731:lvgl/src/widgets/lv_roller.c **** 
 258              		.loc 1 731 28 is_stmt 0 view .LVU56
 259 0030 02EB4201 		add	r1, r2, r2, lsl #1
 260 0034 89B2     		uxth	r1, r1
 261 0036 0B44     		add	r3, r3, r1
 262 0038 9BB2     		uxth	r3, r3
 263 003a C384     		strh	r3, [r0, #38]	@ movhi
 733:lvgl/src/widgets/lv_roller.c ****         roller->sel_opt_id_ori += (LV_ROLLER_INF_PAGES / 2) * real_id_cnt; /*Select the middle page
 264              		.loc 1 733 9 is_stmt 1 view .LVU57
 733:lvgl/src/widgets/lv_roller.c ****         roller->sel_opt_id_ori += (LV_ROLLER_INF_PAGES / 2) * real_id_cnt; /*Select the middle page
ARM GAS  C:\usertemp\cc2TdG63.s 			page 28


 265              		.loc 1 733 32 is_stmt 0 view .LVU58
 266 003c B3FBF2F0 		udiv	r0, r3, r2
 267              	.LVL26:
 733:lvgl/src/widgets/lv_roller.c ****         roller->sel_opt_id_ori += (LV_ROLLER_INF_PAGES / 2) * real_id_cnt; /*Select the middle page
 268              		.loc 1 733 32 view .LVU59
 269 0040 02FB1033 		mls	r3, r2, r0, r3
 270 0044 9BB2     		uxth	r3, r3
 271 0046 2385     		strh	r3, [r4, #40]	@ movhi
 734:lvgl/src/widgets/lv_roller.c **** 
 272              		.loc 1 734 9 is_stmt 1 view .LVU60
 734:lvgl/src/widgets/lv_roller.c **** 
 273              		.loc 1 734 32 is_stmt 0 view .LVU61
 274 0048 1944     		add	r1, r1, r3
 275 004a 2185     		strh	r1, [r4, #40]	@ movhi
 737:lvgl/src/widgets/lv_roller.c ****         lv_coord_t line_space = lv_obj_get_style_text_line_space(obj, LV_PART_MAIN);
 276              		.loc 1 737 9 is_stmt 1 view .LVU62
 277              	.LVL27:
 278              	.LBB79:
 279              	.LBI79:
 451:lvgl/src/widgets/../core/lv_obj_style_gen.h **** {
 280              		.loc 2 451 33 view .LVU63
 281              	.LBB80:
 453:lvgl/src/widgets/../core/lv_obj_style_gen.h ****     return (const lv_font_t *)v.ptr;
 282              		.loc 2 453 5 view .LVU64
 453:lvgl/src/widgets/../core/lv_obj_style_gen.h ****     return (const lv_font_t *)v.ptr;
 283              		.loc 2 453 26 is_stmt 0 view .LVU65
 284 004c 41F25942 		movw	r2, #5209
 285              	.LVL28:
 453:lvgl/src/widgets/../core/lv_obj_style_gen.h ****     return (const lv_font_t *)v.ptr;
 286              		.loc 2 453 26 view .LVU66
 287 0050 0021     		movs	r1, #0
 288 0052 2046     		mov	r0, r4
 289 0054 FFF7FEFF 		bl	lv_obj_get_style_prop
 290              	.LVL29:
 453:lvgl/src/widgets/../core/lv_obj_style_gen.h ****     return (const lv_font_t *)v.ptr;
 291              		.loc 2 453 26 view .LVU67
 292 0058 0646     		mov	r6, r0
 293              	.LVL30:
 454:lvgl/src/widgets/../core/lv_obj_style_gen.h **** }
 294              		.loc 2 454 5 is_stmt 1 view .LVU68
 454:lvgl/src/widgets/../core/lv_obj_style_gen.h **** }
 295              		.loc 2 454 5 is_stmt 0 view .LVU69
 296              	.LBE80:
 297              	.LBE79:
 738:lvgl/src/widgets/lv_roller.c ****         lv_coord_t font_h              = lv_font_get_line_height(font);
 298              		.loc 1 738 9 is_stmt 1 view .LVU70
 299              	.LBB81:
 300              	.LBI81:
 461:lvgl/src/widgets/../core/lv_obj_style_gen.h **** }
 462:lvgl/src/widgets/../core/lv_obj_style_gen.h **** 
 463:lvgl/src/widgets/../core/lv_obj_style_gen.h **** static inline lv_coord_t lv_obj_get_style_text_line_space(const struct _lv_obj_t * obj, uint32_t pa
 301              		.loc 2 463 26 view .LVU71
 302              	.LBB82:
 464:lvgl/src/widgets/../core/lv_obj_style_gen.h **** {
 465:lvgl/src/widgets/../core/lv_obj_style_gen.h ****     lv_style_value_t v = lv_obj_get_style_prop(obj, part, LV_STYLE_TEXT_LINE_SPACE);
 303              		.loc 2 465 5 view .LVU72
 304              		.loc 2 465 26 is_stmt 0 view .LVU73
ARM GAS  C:\usertemp\cc2TdG63.s 			page 29


 305 005a 41F25B42 		movw	r2, #5211
 306 005e 0021     		movs	r1, #0
 307 0060 2046     		mov	r0, r4
 308              	.LVL31:
 309              		.loc 2 465 26 view .LVU74
 310 0062 FFF7FEFF 		bl	lv_obj_get_style_prop
 311              	.LVL32:
 466:lvgl/src/widgets/../core/lv_obj_style_gen.h ****     return (lv_coord_t)v.num;
 312              		.loc 2 466 5 is_stmt 1 view .LVU75
 313              		.loc 2 466 12 is_stmt 0 view .LVU76
 314 0066 05B2     		sxth	r5, r0
 315              	.LVL33:
 316              		.loc 2 466 12 view .LVU77
 317              	.LBE82:
 318              	.LBE81:
 739:lvgl/src/widgets/lv_roller.c ****         lv_coord_t h                   = lv_obj_get_content_height(obj);
 319              		.loc 1 739 9 is_stmt 1 view .LVU78
 320              	.LBB83:
 321              	.LBI83:
 322              		.file 3 "lvgl/src/widgets/../core/../misc/../font/lv_font.h"
   1:lvgl/src/widgets/../core/../misc/../font/lv_font.h **** /**
   2:lvgl/src/widgets/../core/../misc/../font/lv_font.h ****  * @file lv_font.h
   3:lvgl/src/widgets/../core/../misc/../font/lv_font.h ****  *
   4:lvgl/src/widgets/../core/../misc/../font/lv_font.h ****  */
   5:lvgl/src/widgets/../core/../misc/../font/lv_font.h **** 
   6:lvgl/src/widgets/../core/../misc/../font/lv_font.h **** #ifndef LV_FONT_H
   7:lvgl/src/widgets/../core/../misc/../font/lv_font.h **** #define LV_FONT_H
   8:lvgl/src/widgets/../core/../misc/../font/lv_font.h **** 
   9:lvgl/src/widgets/../core/../misc/../font/lv_font.h **** #ifdef __cplusplus
  10:lvgl/src/widgets/../core/../misc/../font/lv_font.h **** extern "C" {
  11:lvgl/src/widgets/../core/../misc/../font/lv_font.h **** #endif
  12:lvgl/src/widgets/../core/../misc/../font/lv_font.h **** 
  13:lvgl/src/widgets/../core/../misc/../font/lv_font.h **** /*********************
  14:lvgl/src/widgets/../core/../misc/../font/lv_font.h ****  *      INCLUDES
  15:lvgl/src/widgets/../core/../misc/../font/lv_font.h ****  *********************/
  16:lvgl/src/widgets/../core/../misc/../font/lv_font.h **** #include "../lv_conf_internal.h"
  17:lvgl/src/widgets/../core/../misc/../font/lv_font.h **** #include <stdint.h>
  18:lvgl/src/widgets/../core/../misc/../font/lv_font.h **** #include <stddef.h>
  19:lvgl/src/widgets/../core/../misc/../font/lv_font.h **** #include <stdbool.h>
  20:lvgl/src/widgets/../core/../misc/../font/lv_font.h **** 
  21:lvgl/src/widgets/../core/../misc/../font/lv_font.h **** #include "lv_symbol_def.h"
  22:lvgl/src/widgets/../core/../misc/../font/lv_font.h **** #include "../misc/lv_area.h"
  23:lvgl/src/widgets/../core/../misc/../font/lv_font.h **** 
  24:lvgl/src/widgets/../core/../misc/../font/lv_font.h **** /*********************
  25:lvgl/src/widgets/../core/../misc/../font/lv_font.h ****  *      DEFINES
  26:lvgl/src/widgets/../core/../misc/../font/lv_font.h ****  *********************/
  27:lvgl/src/widgets/../core/../misc/../font/lv_font.h **** 
  28:lvgl/src/widgets/../core/../misc/../font/lv_font.h **** /**********************
  29:lvgl/src/widgets/../core/../misc/../font/lv_font.h ****  *      TYPEDEFS
  30:lvgl/src/widgets/../core/../misc/../font/lv_font.h ****  **********************/
  31:lvgl/src/widgets/../core/../misc/../font/lv_font.h **** 
  32:lvgl/src/widgets/../core/../misc/../font/lv_font.h **** /*------------------
  33:lvgl/src/widgets/../core/../misc/../font/lv_font.h ****  * General types
  34:lvgl/src/widgets/../core/../misc/../font/lv_font.h ****  *-----------------*/
  35:lvgl/src/widgets/../core/../misc/../font/lv_font.h **** 
  36:lvgl/src/widgets/../core/../misc/../font/lv_font.h **** struct _lv_font_t;
  37:lvgl/src/widgets/../core/../misc/../font/lv_font.h **** /** Describes the properties of a glyph.*/
ARM GAS  C:\usertemp\cc2TdG63.s 			page 30


  38:lvgl/src/widgets/../core/../misc/../font/lv_font.h **** typedef struct {
  39:lvgl/src/widgets/../core/../misc/../font/lv_font.h ****     const struct _lv_font_t *
  40:lvgl/src/widgets/../core/../misc/../font/lv_font.h ****         resolved_font; /**< Pointer to a font where the gylph was actually found after handling fal
  41:lvgl/src/widgets/../core/../misc/../font/lv_font.h ****     uint16_t adv_w; /**< The glyph needs this space. Draw the next glyph after this width.*/
  42:lvgl/src/widgets/../core/../misc/../font/lv_font.h ****     uint16_t box_w; /**< Width of the glyph's bounding box*/
  43:lvgl/src/widgets/../core/../misc/../font/lv_font.h ****     uint16_t box_h; /**< Height of the glyph's bounding box*/
  44:lvgl/src/widgets/../core/../misc/../font/lv_font.h ****     int16_t ofs_x;  /**< x offset of the bounding box*/
  45:lvgl/src/widgets/../core/../misc/../font/lv_font.h ****     int16_t ofs_y;  /**< y offset of the bounding box*/
  46:lvgl/src/widgets/../core/../misc/../font/lv_font.h ****     uint8_t bpp: 4;  /**< Bit-per-pixel: 1, 2, 4, 8*/
  47:lvgl/src/widgets/../core/../misc/../font/lv_font.h ****     uint8_t is_placeholder: 1; /** Glyph is missing. But placeholder will still be displayed */
  48:lvgl/src/widgets/../core/../misc/../font/lv_font.h **** } lv_font_glyph_dsc_t;
  49:lvgl/src/widgets/../core/../misc/../font/lv_font.h **** 
  50:lvgl/src/widgets/../core/../misc/../font/lv_font.h **** /** The bitmaps might be upscaled by 3 to achieve subpixel rendering.*/
  51:lvgl/src/widgets/../core/../misc/../font/lv_font.h **** enum {
  52:lvgl/src/widgets/../core/../misc/../font/lv_font.h ****     LV_FONT_SUBPX_NONE,
  53:lvgl/src/widgets/../core/../misc/../font/lv_font.h ****     LV_FONT_SUBPX_HOR,
  54:lvgl/src/widgets/../core/../misc/../font/lv_font.h ****     LV_FONT_SUBPX_VER,
  55:lvgl/src/widgets/../core/../misc/../font/lv_font.h ****     LV_FONT_SUBPX_BOTH,
  56:lvgl/src/widgets/../core/../misc/../font/lv_font.h **** };
  57:lvgl/src/widgets/../core/../misc/../font/lv_font.h **** 
  58:lvgl/src/widgets/../core/../misc/../font/lv_font.h **** typedef uint8_t lv_font_subpx_t;
  59:lvgl/src/widgets/../core/../misc/../font/lv_font.h **** 
  60:lvgl/src/widgets/../core/../misc/../font/lv_font.h **** /** Describe the properties of a font*/
  61:lvgl/src/widgets/../core/../misc/../font/lv_font.h **** typedef struct _lv_font_t {
  62:lvgl/src/widgets/../core/../misc/../font/lv_font.h ****     /** Get a glyph's descriptor from a font*/
  63:lvgl/src/widgets/../core/../misc/../font/lv_font.h ****     bool (*get_glyph_dsc)(const struct _lv_font_t *, lv_font_glyph_dsc_t *, uint32_t letter, uint32
  64:lvgl/src/widgets/../core/../misc/../font/lv_font.h **** 
  65:lvgl/src/widgets/../core/../misc/../font/lv_font.h ****     /** Get a glyph's bitmap from a font*/
  66:lvgl/src/widgets/../core/../misc/../font/lv_font.h ****     const uint8_t * (*get_glyph_bitmap)(const struct _lv_font_t *, uint32_t);
  67:lvgl/src/widgets/../core/../misc/../font/lv_font.h **** 
  68:lvgl/src/widgets/../core/../misc/../font/lv_font.h ****     /*Pointer to the font in a font pack (must have the same line height)*/
  69:lvgl/src/widgets/../core/../misc/../font/lv_font.h ****     lv_coord_t line_height;         /**< The real line height where any text fits*/
  70:lvgl/src/widgets/../core/../misc/../font/lv_font.h ****     lv_coord_t base_line;           /**< Base line measured from the top of the line_height*/
  71:lvgl/src/widgets/../core/../misc/../font/lv_font.h ****     uint8_t subpx  : 2;             /**< An element of `lv_font_subpx_t`*/
  72:lvgl/src/widgets/../core/../misc/../font/lv_font.h **** 
  73:lvgl/src/widgets/../core/../misc/../font/lv_font.h ****     int8_t underline_position;      /**< Distance between the top of the underline and base line (<
  74:lvgl/src/widgets/../core/../misc/../font/lv_font.h ****     int8_t underline_thickness;     /**< Thickness of the underline*/
  75:lvgl/src/widgets/../core/../misc/../font/lv_font.h **** 
  76:lvgl/src/widgets/../core/../misc/../font/lv_font.h ****     const void * dsc;               /**< Store implementation specific or run_time data or caching 
  77:lvgl/src/widgets/../core/../misc/../font/lv_font.h ****     const struct _lv_font_t * fallback;   /**< Fallback font for missing glyph. Resolved recursivel
  78:lvgl/src/widgets/../core/../misc/../font/lv_font.h **** #if LV_USE_USER_DATA
  79:lvgl/src/widgets/../core/../misc/../font/lv_font.h ****     void * user_data;               /**< Custom user data for font.*/
  80:lvgl/src/widgets/../core/../misc/../font/lv_font.h **** #endif
  81:lvgl/src/widgets/../core/../misc/../font/lv_font.h **** } lv_font_t;
  82:lvgl/src/widgets/../core/../misc/../font/lv_font.h **** 
  83:lvgl/src/widgets/../core/../misc/../font/lv_font.h **** /**********************
  84:lvgl/src/widgets/../core/../misc/../font/lv_font.h ****  * GLOBAL PROTOTYPES
  85:lvgl/src/widgets/../core/../misc/../font/lv_font.h ****  **********************/
  86:lvgl/src/widgets/../core/../misc/../font/lv_font.h **** 
  87:lvgl/src/widgets/../core/../misc/../font/lv_font.h **** /**
  88:lvgl/src/widgets/../core/../misc/../font/lv_font.h ****  * Return with the bitmap of a font.
  89:lvgl/src/widgets/../core/../misc/../font/lv_font.h ****  * @param font_p pointer to a font
  90:lvgl/src/widgets/../core/../misc/../font/lv_font.h ****  * @param letter an UNICODE character code
  91:lvgl/src/widgets/../core/../misc/../font/lv_font.h ****  * @return pointer to the bitmap of the letter
  92:lvgl/src/widgets/../core/../misc/../font/lv_font.h ****  */
  93:lvgl/src/widgets/../core/../misc/../font/lv_font.h **** const uint8_t * lv_font_get_glyph_bitmap(const lv_font_t * font_p, uint32_t letter);
  94:lvgl/src/widgets/../core/../misc/../font/lv_font.h **** 
ARM GAS  C:\usertemp\cc2TdG63.s 			page 31


  95:lvgl/src/widgets/../core/../misc/../font/lv_font.h **** /**
  96:lvgl/src/widgets/../core/../misc/../font/lv_font.h ****  * Get the descriptor of a glyph
  97:lvgl/src/widgets/../core/../misc/../font/lv_font.h ****  * @param font_p pointer to font
  98:lvgl/src/widgets/../core/../misc/../font/lv_font.h ****  * @param dsc_out store the result descriptor here
  99:lvgl/src/widgets/../core/../misc/../font/lv_font.h ****  * @param letter an UNICODE letter code
 100:lvgl/src/widgets/../core/../misc/../font/lv_font.h ****  * @param letter_next the next letter after `letter`. Used for kerning
 101:lvgl/src/widgets/../core/../misc/../font/lv_font.h ****  * @return true: descriptor is successfully loaded into `dsc_out`.
 102:lvgl/src/widgets/../core/../misc/../font/lv_font.h ****  *         false: the letter was not found, no data is loaded to `dsc_out`
 103:lvgl/src/widgets/../core/../misc/../font/lv_font.h ****  */
 104:lvgl/src/widgets/../core/../misc/../font/lv_font.h **** bool lv_font_get_glyph_dsc(const lv_font_t * font_p, lv_font_glyph_dsc_t * dsc_out, uint32_t letter
 105:lvgl/src/widgets/../core/../misc/../font/lv_font.h ****                            uint32_t letter_next);
 106:lvgl/src/widgets/../core/../misc/../font/lv_font.h **** 
 107:lvgl/src/widgets/../core/../misc/../font/lv_font.h **** /**
 108:lvgl/src/widgets/../core/../misc/../font/lv_font.h ****  * Get the width of a glyph with kerning
 109:lvgl/src/widgets/../core/../misc/../font/lv_font.h ****  * @param font pointer to a font
 110:lvgl/src/widgets/../core/../misc/../font/lv_font.h ****  * @param letter an UNICODE letter
 111:lvgl/src/widgets/../core/../misc/../font/lv_font.h ****  * @param letter_next the next letter after `letter`. Used for kerning
 112:lvgl/src/widgets/../core/../misc/../font/lv_font.h ****  * @return the width of the glyph
 113:lvgl/src/widgets/../core/../misc/../font/lv_font.h ****  */
 114:lvgl/src/widgets/../core/../misc/../font/lv_font.h **** uint16_t lv_font_get_glyph_width(const lv_font_t * font, uint32_t letter, uint32_t letter_next);
 115:lvgl/src/widgets/../core/../misc/../font/lv_font.h **** 
 116:lvgl/src/widgets/../core/../misc/../font/lv_font.h **** /**
 117:lvgl/src/widgets/../core/../misc/../font/lv_font.h ****  * Get the line height of a font. All characters fit into this height
 118:lvgl/src/widgets/../core/../misc/../font/lv_font.h ****  * @param font_p pointer to a font
 119:lvgl/src/widgets/../core/../misc/../font/lv_font.h ****  * @return the height of a font
 120:lvgl/src/widgets/../core/../misc/../font/lv_font.h ****  */
 121:lvgl/src/widgets/../core/../misc/../font/lv_font.h **** static inline lv_coord_t lv_font_get_line_height(const lv_font_t * font_p)
 323              		.loc 3 121 26 view .LVU79
 324              	.LBB84:
 122:lvgl/src/widgets/../core/../misc/../font/lv_font.h **** {
 123:lvgl/src/widgets/../core/../misc/../font/lv_font.h ****     return font_p->line_height;
 325              		.loc 3 123 5 view .LVU80
 326              		.loc 3 123 18 is_stmt 0 view .LVU81
 327 0068 B6F90860 		ldrsh	r6, [r6, #8]
 328              	.LVL34:
 329              		.loc 3 123 18 view .LVU82
 330              	.LBE84:
 331              	.LBE83:
 740:lvgl/src/widgets/lv_roller.c **** 
 332              		.loc 1 740 9 is_stmt 1 view .LVU83
 740:lvgl/src/widgets/lv_roller.c **** 
 333              		.loc 1 740 42 is_stmt 0 view .LVU84
 334 006c 2046     		mov	r0, r4
 335 006e FFF7FEFF 		bl	lv_obj_get_content_height
 336              	.LVL35:
 337 0072 0746     		mov	r7, r0
 338              	.LVL36:
 742:lvgl/src/widgets/lv_roller.c **** 
 339              		.loc 1 742 9 is_stmt 1 view .LVU85
 742:lvgl/src/widgets/lv_roller.c **** 
 340              		.loc 1 742 28 is_stmt 0 view .LVU86
 341 0074 2046     		mov	r0, r4
 342 0076 FFF7FEFF 		bl	get_label
 343              	.LVL37:
 745:lvgl/src/widgets/lv_roller.c ****         lv_coord_t mid_y1 = h / 2 - font_h / 2;
 344              		.loc 1 745 9 is_stmt 1 view .LVU87
 745:lvgl/src/widgets/lv_roller.c ****         lv_coord_t mid_y1 = h / 2 - font_h / 2;
ARM GAS  C:\usertemp\cc2TdG63.s 			page 32


 345              		.loc 1 745 35 is_stmt 0 view .LVU88
 346 007a E38C     		ldrh	r3, [r4, #38]
 745:lvgl/src/widgets/lv_roller.c ****         lv_coord_t mid_y1 = h / 2 - font_h / 2;
 347              		.loc 1 745 58 view .LVU89
 348 007c 3544     		add	r5, r5, r6
 349              	.LVL38:
 745:lvgl/src/widgets/lv_roller.c ****         lv_coord_t mid_y1 = h / 2 - font_h / 2;
 350              		.loc 1 745 20 view .LVU90
 351 007e 15FB03F5 		smulbb	r5, r5, r3
 352 0082 ADB2     		uxth	r5, r5
 353              	.LVL39:
 746:lvgl/src/widgets/lv_roller.c ****         lv_coord_t new_y = mid_y1 - sel_y1;
 354              		.loc 1 746 9 is_stmt 1 view .LVU91
 746:lvgl/src/widgets/lv_roller.c ****         lv_coord_t new_y = mid_y1 - sel_y1;
 355              		.loc 1 746 35 is_stmt 0 view .LVU92
 356 0084 3B46     		mov	r3, r7
 357 0086 002F     		cmp	r7, #0
 358 0088 0BDB     		blt	.L15
 359              	.L11:
 746:lvgl/src/widgets/lv_roller.c ****         lv_coord_t new_y = mid_y1 - sel_y1;
 360              		.loc 1 746 35 view .LVU93
 361 008a 5910     		asrs	r1, r3, #1
 362 008c 3346     		mov	r3, r6
 363 008e 002E     		cmp	r6, #0
 364 0090 09DB     		blt	.L16
 365              	.L12:
 366 0092 A1EB6301 		sub	r1, r1, r3, asr #1
 367 0096 89B2     		uxth	r1, r1
 368              	.LVL40:
 747:lvgl/src/widgets/lv_roller.c ****         lv_obj_set_y(label, new_y);
 369              		.loc 1 747 9 is_stmt 1 view .LVU94
 747:lvgl/src/widgets/lv_roller.c ****         lv_obj_set_y(label, new_y);
 370              		.loc 1 747 35 is_stmt 0 view .LVU95
 371 0098 491B     		subs	r1, r1, r5
 372              	.LVL41:
 748:lvgl/src/widgets/lv_roller.c ****     }
 373              		.loc 1 748 9 is_stmt 1 view .LVU96
 374 009a 09B2     		sxth	r1, r1
 748:lvgl/src/widgets/lv_roller.c ****     }
 375              		.loc 1 748 9 is_stmt 0 view .LVU97
 376 009c FFF7FEFF 		bl	lv_obj_set_y
 377              	.LVL42:
 748:lvgl/src/widgets/lv_roller.c ****     }
 378              		.loc 1 748 9 view .LVU98
 379              	.LBE78:
 750:lvgl/src/widgets/lv_roller.c **** 
 380              		.loc 1 750 1 view .LVU99
 381 00a0 B4E7     		b	.L9
 382              	.LVL43:
 383              	.L15:
 384              	.LBB85:
 746:lvgl/src/widgets/lv_roller.c ****         lv_coord_t new_y = mid_y1 - sel_y1;
 385              		.loc 1 746 35 view .LVU100
 386 00a2 7B1C     		adds	r3, r7, #1
 387 00a4 F1E7     		b	.L11
 388              	.L16:
 389 00a6 731C     		adds	r3, r6, #1
ARM GAS  C:\usertemp\cc2TdG63.s 			page 33


 390 00a8 F3E7     		b	.L12
 391              	.L18:
 392 00aa 00BF     		.align	2
 393              	.L17:
 394 00ac 25499224 		.word	613566757
 395              	.LBE85:
 396              		.cfi_endproc
 397              	.LFE172:
 399              		.section	.text.scroll_anim_ready_cb,"ax",%progbits
 400              		.align	1
 401              		.syntax unified
 402              		.thumb
 403              		.thumb_func
 405              	scroll_anim_ready_cb:
 406              	.LVL44:
 407              	.LFB175:
 772:lvgl/src/widgets/lv_roller.c ****     lv_obj_t * obj = lv_obj_get_parent(a->var); /*The label is animated*/
 408              		.loc 1 772 1 is_stmt 1 view -0
 409              		.cfi_startproc
 410              		@ args = 0, pretend = 0, frame = 0
 411              		@ frame_needed = 0, uses_anonymous_args = 0
 772:lvgl/src/widgets/lv_roller.c ****     lv_obj_t * obj = lv_obj_get_parent(a->var); /*The label is animated*/
 412              		.loc 1 772 1 is_stmt 0 view .LVU102
 413 0000 08B5     		push	{r3, lr}
 414              	.LCFI7:
 415              		.cfi_def_cfa_offset 8
 416              		.cfi_offset 3, -8
 417              		.cfi_offset 14, -4
 773:lvgl/src/widgets/lv_roller.c ****     inf_normalize(obj);
 418              		.loc 1 773 5 is_stmt 1 view .LVU103
 773:lvgl/src/widgets/lv_roller.c ****     inf_normalize(obj);
 419              		.loc 1 773 22 is_stmt 0 view .LVU104
 420 0002 0068     		ldr	r0, [r0]
 421              	.LVL45:
 773:lvgl/src/widgets/lv_roller.c ****     inf_normalize(obj);
 422              		.loc 1 773 22 view .LVU105
 423 0004 FFF7FEFF 		bl	lv_obj_get_parent
 424              	.LVL46:
 774:lvgl/src/widgets/lv_roller.c **** }
 425              		.loc 1 774 5 is_stmt 1 view .LVU106
 426 0008 FFF7FEFF 		bl	inf_normalize
 427              	.LVL47:
 775:lvgl/src/widgets/lv_roller.c **** 
 428              		.loc 1 775 1 is_stmt 0 view .LVU107
 429 000c 08BD     		pop	{r3, pc}
 430              		.cfi_endproc
 431              	.LFE175:
 433              		.section	.text.refr_position,"ax",%progbits
 434              		.align	1
 435              		.syntax unified
 436              		.thumb
 437              		.thumb_func
 439              	refr_position:
 440              	.LVL48:
 441              	.LFB170:
 593:lvgl/src/widgets/lv_roller.c ****     lv_obj_t * label = get_label(obj);
 442              		.loc 1 593 1 is_stmt 1 view -0
ARM GAS  C:\usertemp\cc2TdG63.s 			page 34


 443              		.cfi_startproc
 444              		@ args = 0, pretend = 0, frame = 64
 445              		@ frame_needed = 0, uses_anonymous_args = 0
 593:lvgl/src/widgets/lv_roller.c ****     lv_obj_t * label = get_label(obj);
 446              		.loc 1 593 1 is_stmt 0 view .LVU109
 447 0000 2DE9F047 		push	{r4, r5, r6, r7, r8, r9, r10, lr}
 448              	.LCFI8:
 449              		.cfi_def_cfa_offset 32
 450              		.cfi_offset 4, -32
 451              		.cfi_offset 5, -28
 452              		.cfi_offset 6, -24
 453              		.cfi_offset 7, -20
 454              		.cfi_offset 8, -16
 455              		.cfi_offset 9, -12
 456              		.cfi_offset 10, -8
 457              		.cfi_offset 14, -4
 458 0004 90B0     		sub	sp, sp, #64
 459              	.LCFI9:
 460              		.cfi_def_cfa_offset 96
 461 0006 0446     		mov	r4, r0
 462 0008 0D46     		mov	r5, r1
 594:lvgl/src/widgets/lv_roller.c ****     if(label == NULL) return;
 463              		.loc 1 594 5 is_stmt 1 view .LVU110
 594:lvgl/src/widgets/lv_roller.c ****     if(label == NULL) return;
 464              		.loc 1 594 24 is_stmt 0 view .LVU111
 465 000a FFF7FEFF 		bl	get_label
 466              	.LVL49:
 595:lvgl/src/widgets/lv_roller.c **** 
 467              		.loc 1 595 5 is_stmt 1 view .LVU112
 595:lvgl/src/widgets/lv_roller.c **** 
 468              		.loc 1 595 7 is_stmt 0 view .LVU113
 469 000e 0028     		cmp	r0, #0
 470 0010 4ED0     		beq	.L21
 471 0012 0646     		mov	r6, r0
 597:lvgl/src/widgets/lv_roller.c **** 
 472              		.loc 1 597 5 is_stmt 1 view .LVU114
 597:lvgl/src/widgets/lv_roller.c **** 
 473              		.loc 1 597 84 is_stmt 0 view .LVU115
 474 0014 FFF7FEFF 		bl	lv_label_get_text
 475              	.LVL50:
 597:lvgl/src/widgets/lv_roller.c **** 
 476              		.loc 1 597 84 view .LVU116
 477 0018 0246     		mov	r2, r0
 597:lvgl/src/widgets/lv_roller.c **** 
 478              		.loc 1 597 29 discriminator 1 view .LVU117
 479 001a 0021     		movs	r1, #0
 480 001c 3046     		mov	r0, r6
 481 001e FFF7FEFF 		bl	lv_obj_calculate_style_text_align
 482              	.LVL51:
 599:lvgl/src/widgets/lv_roller.c ****         case LV_TEXT_ALIGN_CENTER:
 483              		.loc 1 599 5 is_stmt 1 view .LVU118
 484 0022 0228     		cmp	r0, #2
 485 0024 47D0     		beq	.L23
 486 0026 0328     		cmp	r0, #3
 487 0028 56D0     		beq	.L24
 488 002a 0128     		cmp	r0, #1
 489 002c 62D0     		beq	.L25
ARM GAS  C:\usertemp\cc2TdG63.s 			page 35


 490              	.LVL52:
 491              	.L26:
 611:lvgl/src/widgets/lv_roller.c ****     const lv_font_t * font = lv_obj_get_style_text_font(obj, LV_PART_MAIN);
 492              		.loc 1 611 5 view .LVU119
 612:lvgl/src/widgets/lv_roller.c ****     lv_coord_t line_space = lv_obj_get_style_text_line_space(obj, LV_PART_MAIN);
 493              		.loc 1 612 5 view .LVU120
 494              	.LBB86:
 495              	.LBI86:
 451:lvgl/src/widgets/../core/lv_obj_style_gen.h **** {
 496              		.loc 2 451 33 view .LVU121
 497              	.LBB87:
 453:lvgl/src/widgets/../core/lv_obj_style_gen.h ****     return (const lv_font_t *)v.ptr;
 498              		.loc 2 453 5 view .LVU122
 453:lvgl/src/widgets/../core/lv_obj_style_gen.h ****     return (const lv_font_t *)v.ptr;
 499              		.loc 2 453 26 is_stmt 0 view .LVU123
 500 002e 41F25942 		movw	r2, #5209
 501 0032 0021     		movs	r1, #0
 502 0034 2046     		mov	r0, r4
 503 0036 FFF7FEFF 		bl	lv_obj_get_style_prop
 504              	.LVL53:
 505 003a 0746     		mov	r7, r0
 506              	.LVL54:
 454:lvgl/src/widgets/../core/lv_obj_style_gen.h **** }
 507              		.loc 2 454 5 is_stmt 1 view .LVU124
 454:lvgl/src/widgets/../core/lv_obj_style_gen.h **** }
 508              		.loc 2 454 5 is_stmt 0 view .LVU125
 509              	.LBE87:
 510              	.LBE86:
 613:lvgl/src/widgets/lv_roller.c ****     lv_coord_t font_h              = lv_font_get_line_height(font);
 511              		.loc 1 613 5 is_stmt 1 view .LVU126
 512              	.LBB88:
 513              	.LBI88:
 463:lvgl/src/widgets/../core/lv_obj_style_gen.h **** {
 514              		.loc 2 463 26 view .LVU127
 515              	.LBB89:
 465:lvgl/src/widgets/../core/lv_obj_style_gen.h ****     return (lv_coord_t)v.num;
 516              		.loc 2 465 5 view .LVU128
 465:lvgl/src/widgets/../core/lv_obj_style_gen.h ****     return (lv_coord_t)v.num;
 517              		.loc 2 465 26 is_stmt 0 view .LVU129
 518 003c 41F25B42 		movw	r2, #5211
 519 0040 0021     		movs	r1, #0
 520 0042 2046     		mov	r0, r4
 521              	.LVL55:
 465:lvgl/src/widgets/../core/lv_obj_style_gen.h ****     return (lv_coord_t)v.num;
 522              		.loc 2 465 26 view .LVU130
 523 0044 FFF7FEFF 		bl	lv_obj_get_style_prop
 524              	.LVL56:
 525              		.loc 2 466 5 is_stmt 1 view .LVU131
 526              		.loc 2 466 12 is_stmt 0 view .LVU132
 527 0048 0FFA80F8 		sxth	r8, r0
 528              	.LVL57:
 529              		.loc 2 466 12 view .LVU133
 530              	.LBE89:
 531              	.LBE88:
 614:lvgl/src/widgets/lv_roller.c ****     lv_coord_t h                   = lv_obj_get_content_height(obj);
 532              		.loc 1 614 5 is_stmt 1 view .LVU134
 533              	.LBB90:
ARM GAS  C:\usertemp\cc2TdG63.s 			page 36


 534              	.LBI90:
 121:lvgl/src/widgets/../core/../misc/../font/lv_font.h **** {
 535              		.loc 3 121 26 view .LVU135
 536              	.LBB91:
 537              		.loc 3 123 5 view .LVU136
 538              		.loc 3 123 18 is_stmt 0 view .LVU137
 539 004c B7F90890 		ldrsh	r9, [r7, #8]
 540              	.LVL58:
 541              		.loc 3 123 18 view .LVU138
 542              	.LBE91:
 543              	.LBE90:
 615:lvgl/src/widgets/lv_roller.c ****     uint16_t anim_time             = lv_obj_get_style_anim_time(obj, LV_PART_MAIN);
 544              		.loc 1 615 5 is_stmt 1 view .LVU139
 615:lvgl/src/widgets/lv_roller.c ****     uint16_t anim_time             = lv_obj_get_style_anim_time(obj, LV_PART_MAIN);
 545              		.loc 1 615 38 is_stmt 0 view .LVU140
 546 0050 2046     		mov	r0, r4
 547 0052 FFF7FEFF 		bl	lv_obj_get_content_height
 548              	.LVL59:
 549 0056 8246     		mov	r10, r0
 550              	.LVL60:
 616:lvgl/src/widgets/lv_roller.c **** 
 551              		.loc 1 616 5 is_stmt 1 view .LVU141
 552              	.LBB92:
 553              	.LBI92:
 467:lvgl/src/widgets/../core/lv_obj_style_gen.h **** }
 468:lvgl/src/widgets/../core/lv_obj_style_gen.h **** 
 469:lvgl/src/widgets/../core/lv_obj_style_gen.h **** static inline lv_text_decor_t lv_obj_get_style_text_decor(const struct _lv_obj_t * obj, uint32_t pa
 470:lvgl/src/widgets/../core/lv_obj_style_gen.h **** {
 471:lvgl/src/widgets/../core/lv_obj_style_gen.h ****     lv_style_value_t v = lv_obj_get_style_prop(obj, part, LV_STYLE_TEXT_DECOR);
 472:lvgl/src/widgets/../core/lv_obj_style_gen.h ****     return (lv_text_decor_t)v.num;
 473:lvgl/src/widgets/../core/lv_obj_style_gen.h **** }
 474:lvgl/src/widgets/../core/lv_obj_style_gen.h **** 
 475:lvgl/src/widgets/../core/lv_obj_style_gen.h **** static inline lv_text_align_t lv_obj_get_style_text_align(const struct _lv_obj_t * obj, uint32_t pa
 476:lvgl/src/widgets/../core/lv_obj_style_gen.h **** {
 477:lvgl/src/widgets/../core/lv_obj_style_gen.h ****     lv_style_value_t v = lv_obj_get_style_prop(obj, part, LV_STYLE_TEXT_ALIGN);
 478:lvgl/src/widgets/../core/lv_obj_style_gen.h ****     return (lv_text_align_t)v.num;
 479:lvgl/src/widgets/../core/lv_obj_style_gen.h **** }
 480:lvgl/src/widgets/../core/lv_obj_style_gen.h **** 
 481:lvgl/src/widgets/../core/lv_obj_style_gen.h **** static inline lv_coord_t lv_obj_get_style_radius(const struct _lv_obj_t * obj, uint32_t part)
 482:lvgl/src/widgets/../core/lv_obj_style_gen.h **** {
 483:lvgl/src/widgets/../core/lv_obj_style_gen.h ****     lv_style_value_t v = lv_obj_get_style_prop(obj, part, LV_STYLE_RADIUS);
 484:lvgl/src/widgets/../core/lv_obj_style_gen.h ****     return (lv_coord_t)v.num;
 485:lvgl/src/widgets/../core/lv_obj_style_gen.h **** }
 486:lvgl/src/widgets/../core/lv_obj_style_gen.h **** 
 487:lvgl/src/widgets/../core/lv_obj_style_gen.h **** static inline bool lv_obj_get_style_clip_corner(const struct _lv_obj_t * obj, uint32_t part)
 488:lvgl/src/widgets/../core/lv_obj_style_gen.h **** {
 489:lvgl/src/widgets/../core/lv_obj_style_gen.h ****     lv_style_value_t v = lv_obj_get_style_prop(obj, part, LV_STYLE_CLIP_CORNER);
 490:lvgl/src/widgets/../core/lv_obj_style_gen.h ****     return (bool)v.num;
 491:lvgl/src/widgets/../core/lv_obj_style_gen.h **** }
 492:lvgl/src/widgets/../core/lv_obj_style_gen.h **** 
 493:lvgl/src/widgets/../core/lv_obj_style_gen.h **** static inline lv_opa_t lv_obj_get_style_opa(const struct _lv_obj_t * obj, uint32_t part)
 494:lvgl/src/widgets/../core/lv_obj_style_gen.h **** {
 495:lvgl/src/widgets/../core/lv_obj_style_gen.h ****     lv_style_value_t v = lv_obj_get_style_prop(obj, part, LV_STYLE_OPA);
 496:lvgl/src/widgets/../core/lv_obj_style_gen.h ****     return (lv_opa_t)v.num;
 497:lvgl/src/widgets/../core/lv_obj_style_gen.h **** }
 498:lvgl/src/widgets/../core/lv_obj_style_gen.h **** 
 499:lvgl/src/widgets/../core/lv_obj_style_gen.h **** static inline const lv_color_filter_dsc_t * lv_obj_get_style_color_filter_dsc(const struct _lv_obj_
ARM GAS  C:\usertemp\cc2TdG63.s 			page 37


 500:lvgl/src/widgets/../core/lv_obj_style_gen.h ****                                                                               uint32_t part)
 501:lvgl/src/widgets/../core/lv_obj_style_gen.h **** {
 502:lvgl/src/widgets/../core/lv_obj_style_gen.h ****     lv_style_value_t v = lv_obj_get_style_prop(obj, part, LV_STYLE_COLOR_FILTER_DSC);
 503:lvgl/src/widgets/../core/lv_obj_style_gen.h ****     return (const lv_color_filter_dsc_t *)v.ptr;
 504:lvgl/src/widgets/../core/lv_obj_style_gen.h **** }
 505:lvgl/src/widgets/../core/lv_obj_style_gen.h **** 
 506:lvgl/src/widgets/../core/lv_obj_style_gen.h **** static inline lv_opa_t lv_obj_get_style_color_filter_opa(const struct _lv_obj_t * obj, uint32_t par
 507:lvgl/src/widgets/../core/lv_obj_style_gen.h **** {
 508:lvgl/src/widgets/../core/lv_obj_style_gen.h ****     lv_style_value_t v = lv_obj_get_style_prop(obj, part, LV_STYLE_COLOR_FILTER_OPA);
 509:lvgl/src/widgets/../core/lv_obj_style_gen.h ****     return (lv_opa_t)v.num;
 510:lvgl/src/widgets/../core/lv_obj_style_gen.h **** }
 511:lvgl/src/widgets/../core/lv_obj_style_gen.h **** 
 512:lvgl/src/widgets/../core/lv_obj_style_gen.h **** static inline uint32_t lv_obj_get_style_anim_time(const struct _lv_obj_t * obj, uint32_t part)
 554              		.loc 2 512 24 view .LVU142
 555              	.LBB93:
 513:lvgl/src/widgets/../core/lv_obj_style_gen.h **** {
 514:lvgl/src/widgets/../core/lv_obj_style_gen.h ****     lv_style_value_t v = lv_obj_get_style_prop(obj, part, LV_STYLE_ANIM_TIME);
 556              		.loc 2 514 5 view .LVU143
 557              		.loc 2 514 26 is_stmt 0 view .LVU144
 558 0058 6522     		movs	r2, #101
 559 005a 0021     		movs	r1, #0
 560 005c 2046     		mov	r0, r4
 561 005e FFF7FEFF 		bl	lv_obj_get_style_prop
 562              	.LVL61:
 563 0062 0746     		mov	r7, r0
 564              	.LVL62:
 515:lvgl/src/widgets/../core/lv_obj_style_gen.h ****     return (uint32_t)v.num;
 565              		.loc 2 515 5 is_stmt 1 view .LVU145
 566              		.loc 2 515 5 is_stmt 0 view .LVU146
 567              	.LBE93:
 568              	.LBE92:
 616:lvgl/src/widgets/lv_roller.c **** 
 569              		.loc 1 616 14 discriminator 1 view .LVU147
 570 0064 83B2     		uxth	r3, r0
 571              	.LVL63:
 620:lvgl/src/widgets/lv_roller.c ****         inf_normalize(obj);
 572              		.loc 1 620 5 is_stmt 1 view .LVU148
 620:lvgl/src/widgets/lv_roller.c ****         inf_normalize(obj);
 573              		.loc 1 620 7 is_stmt 0 view .LVU149
 574 0066 002B     		cmp	r3, #0
 575 0068 18BF     		it	ne
 576 006a 002D     		cmpne	r5, #0
 577 006c 0CBF     		ite	eq
 578 006e 0125     		moveq	r5, #1
 579              	.LVL64:
 620:lvgl/src/widgets/lv_roller.c ****         inf_normalize(obj);
 580              		.loc 1 620 7 view .LVU150
 581 0070 0025     		movne	r5, #0
 582 0072 44D0     		beq	.L33
 583              	.LVL65:
 584              	.L28:
 624:lvgl/src/widgets/lv_roller.c ****     lv_coord_t sel_y1 = id * (font_h + line_space);
 585              		.loc 1 624 5 is_stmt 1 view .LVU151
 624:lvgl/src/widgets/lv_roller.c ****     lv_coord_t sel_y1 = id * (font_h + line_space);
 586              		.loc 1 624 24 is_stmt 0 view .LVU152
 587 0074 E38C     		ldrh	r3, [r4, #38]
 588              	.LVL66:
ARM GAS  C:\usertemp\cc2TdG63.s 			page 38


 625:lvgl/src/widgets/lv_roller.c ****     lv_coord_t mid_y1 = h / 2 - font_h / 2;
 589              		.loc 1 625 5 is_stmt 1 view .LVU153
 625:lvgl/src/widgets/lv_roller.c ****     lv_coord_t mid_y1 = h / 2 - font_h / 2;
 590              		.loc 1 625 38 is_stmt 0 view .LVU154
 591 0076 C844     		add	r8, r8, r9
 592              	.LVL67:
 625:lvgl/src/widgets/lv_roller.c ****     lv_coord_t mid_y1 = h / 2 - font_h / 2;
 593              		.loc 1 625 16 view .LVU155
 594 0078 18FB03F8 		smulbb	r8, r8, r3
 595 007c 1FFA88F8 		uxth	r8, r8
 596              	.LVL68:
 626:lvgl/src/widgets/lv_roller.c **** 
 597              		.loc 1 626 5 is_stmt 1 view .LVU156
 626:lvgl/src/widgets/lv_roller.c **** 
 598              		.loc 1 626 31 is_stmt 0 view .LVU157
 599 0080 5346     		mov	r3, r10
 600 0082 BAF1000F 		cmp	r10, #0
 601 0086 3EDB     		blt	.L34
 602              	.L29:
 626:lvgl/src/widgets/lv_roller.c **** 
 603              		.loc 1 626 31 view .LVU158
 604 0088 5C10     		asrs	r4, r3, #1
 605              	.LVL69:
 626:lvgl/src/widgets/lv_roller.c **** 
 606              		.loc 1 626 31 view .LVU159
 607 008a 4B46     		mov	r3, r9
 608 008c B9F1000F 		cmp	r9, #0
 609 0090 3CDB     		blt	.L35
 610              	.L30:
 611 0092 A4EB6304 		sub	r4, r4, r3, asr #1
 612 0096 A4B2     		uxth	r4, r4
 613              	.LVL70:
 628:lvgl/src/widgets/lv_roller.c **** 
 614              		.loc 1 628 5 is_stmt 1 view .LVU160
 628:lvgl/src/widgets/lv_roller.c **** 
 615              		.loc 1 628 31 is_stmt 0 view .LVU161
 616 0098 A4EB0804 		sub	r4, r4, r8
 617              	.LVL71:
 628:lvgl/src/widgets/lv_roller.c **** 
 618              		.loc 1 628 16 view .LVU162
 619 009c 24B2     		sxth	r4, r4
 620              	.LVL72:
 630:lvgl/src/widgets/lv_roller.c ****         lv_anim_del(label, set_y_anim);
 621              		.loc 1 630 5 is_stmt 1 view .LVU163
 630:lvgl/src/widgets/lv_roller.c ****         lv_anim_del(label, set_y_anim);
 622              		.loc 1 630 7 is_stmt 0 view .LVU164
 623 009e C5B3     		cbz	r5, .L31
 631:lvgl/src/widgets/lv_roller.c ****         lv_obj_set_y(label, new_y);
 624              		.loc 1 631 9 is_stmt 1 view .LVU165
 625 00a0 2749     		ldr	r1, .L37
 626 00a2 3046     		mov	r0, r6
 627 00a4 FFF7FEFF 		bl	lv_anim_del
 628              	.LVL73:
 632:lvgl/src/widgets/lv_roller.c ****     }
 629              		.loc 1 632 9 view .LVU166
 630 00a8 2146     		mov	r1, r4
 631 00aa 3046     		mov	r0, r6
ARM GAS  C:\usertemp\cc2TdG63.s 			page 39


 632 00ac FFF7FEFF 		bl	lv_obj_set_y
 633              	.LVL74:
 634              	.L21:
 645:lvgl/src/widgets/lv_roller.c **** 
 635              		.loc 1 645 1 is_stmt 0 view .LVU167
 636 00b0 10B0     		add	sp, sp, #64
 637              	.LCFI10:
 638              		.cfi_remember_state
 639              		.cfi_def_cfa_offset 32
 640              		@ sp needed
 641 00b2 BDE8F087 		pop	{r4, r5, r6, r7, r8, r9, r10, pc}
 642              	.LVL75:
 643              	.L23:
 644              	.LCFI11:
 645              		.cfi_restore_state
 601:lvgl/src/widgets/lv_roller.c ****             break;
 646              		.loc 1 601 13 is_stmt 1 view .LVU168
 601:lvgl/src/widgets/lv_roller.c ****             break;
 647              		.loc 1 601 34 is_stmt 0 view .LVU169
 648 00b6 2046     		mov	r0, r4
 649              	.LVL76:
 601:lvgl/src/widgets/lv_roller.c ****             break;
 650              		.loc 1 601 34 view .LVU170
 651 00b8 FFF7FEFF 		bl	lv_obj_get_content_width
 652              	.LVL77:
 653 00bc 0746     		mov	r7, r0
 601:lvgl/src/widgets/lv_roller.c ****             break;
 654              		.loc 1 601 66 discriminator 1 view .LVU171
 655 00be 3046     		mov	r0, r6
 656 00c0 FFF7FEFF 		bl	lv_obj_get_width
 657              	.LVL78:
 601:lvgl/src/widgets/lv_roller.c ****             break;
 658              		.loc 1 601 91 discriminator 2 view .LVU172
 659 00c4 391A     		subs	r1, r7, r0
 660 00c6 05D4     		bmi	.L36
 661              	.L27:
 601:lvgl/src/widgets/lv_roller.c ****             break;
 662              		.loc 1 601 13 discriminator 2 view .LVU173
 663 00c8 41F34F01 		sbfx	r1, r1, #1, #16
 664 00cc 3046     		mov	r0, r6
 665 00ce FFF7FEFF 		bl	lv_obj_set_x
 666              	.LVL79:
 602:lvgl/src/widgets/lv_roller.c ****         case LV_TEXT_ALIGN_RIGHT:
 667              		.loc 1 602 13 is_stmt 1 view .LVU174
 668 00d2 ACE7     		b	.L26
 669              	.L36:
 601:lvgl/src/widgets/lv_roller.c ****             break;
 670              		.loc 1 601 91 is_stmt 0 discriminator 2 view .LVU175
 671 00d4 0131     		adds	r1, r1, #1
 672 00d6 F7E7     		b	.L27
 673              	.LVL80:
 674              	.L24:
 604:lvgl/src/widgets/lv_roller.c ****             break;
 675              		.loc 1 604 13 is_stmt 1 view .LVU176
 604:lvgl/src/widgets/lv_roller.c ****             break;
 676              		.loc 1 604 33 is_stmt 0 view .LVU177
 677 00d8 2046     		mov	r0, r4
ARM GAS  C:\usertemp\cc2TdG63.s 			page 40


 678              	.LVL81:
 604:lvgl/src/widgets/lv_roller.c ****             break;
 679              		.loc 1 604 33 view .LVU178
 680 00da FFF7FEFF 		bl	lv_obj_get_content_width
 681              	.LVL82:
 604:lvgl/src/widgets/lv_roller.c ****             break;
 682              		.loc 1 604 33 discriminator 1 view .LVU179
 683 00de 87B2     		uxth	r7, r0
 604:lvgl/src/widgets/lv_roller.c ****             break;
 684              		.loc 1 604 65 discriminator 1 view .LVU180
 685 00e0 3046     		mov	r0, r6
 686 00e2 FFF7FEFF 		bl	lv_obj_get_width
 687              	.LVL83:
 604:lvgl/src/widgets/lv_roller.c ****             break;
 688              		.loc 1 604 65 discriminator 2 view .LVU181
 689 00e6 80B2     		uxth	r0, r0
 604:lvgl/src/widgets/lv_roller.c ****             break;
 690              		.loc 1 604 63 discriminator 2 view .LVU182
 691 00e8 391A     		subs	r1, r7, r0
 604:lvgl/src/widgets/lv_roller.c ****             break;
 692              		.loc 1 604 13 discriminator 2 view .LVU183
 693 00ea 09B2     		sxth	r1, r1
 694 00ec 3046     		mov	r0, r6
 695 00ee FFF7FEFF 		bl	lv_obj_set_x
 696              	.LVL84:
 605:lvgl/src/widgets/lv_roller.c ****         case LV_TEXT_ALIGN_LEFT:
 697              		.loc 1 605 13 is_stmt 1 view .LVU184
 698 00f2 9CE7     		b	.L26
 699              	.LVL85:
 700              	.L25:
 607:lvgl/src/widgets/lv_roller.c ****             break;
 701              		.loc 1 607 13 view .LVU185
 702 00f4 0021     		movs	r1, #0
 703 00f6 3046     		mov	r0, r6
 704              	.LVL86:
 607:lvgl/src/widgets/lv_roller.c ****             break;
 705              		.loc 1 607 13 is_stmt 0 view .LVU186
 706 00f8 FFF7FEFF 		bl	lv_obj_set_x
 707              	.LVL87:
 608:lvgl/src/widgets/lv_roller.c ****     }
 708              		.loc 1 608 13 is_stmt 1 view .LVU187
 709 00fc 97E7     		b	.L26
 710              	.LVL88:
 711              	.L33:
 621:lvgl/src/widgets/lv_roller.c ****     }
 712              		.loc 1 621 9 view .LVU188
 713 00fe 2046     		mov	r0, r4
 714 0100 FFF7FEFF 		bl	inf_normalize
 715              	.LVL89:
 621:lvgl/src/widgets/lv_roller.c ****     }
 716              		.loc 1 621 9 is_stmt 0 view .LVU189
 717 0104 B6E7     		b	.L28
 718              	.LVL90:
 719              	.L34:
 626:lvgl/src/widgets/lv_roller.c **** 
 720              		.loc 1 626 31 view .LVU190
 721 0106 0AF10103 		add	r3, r10, #1
ARM GAS  C:\usertemp\cc2TdG63.s 			page 41


 722 010a BDE7     		b	.L29
 723              	.LVL91:
 724              	.L35:
 626:lvgl/src/widgets/lv_roller.c **** 
 725              		.loc 1 626 31 view .LVU191
 726 010c 09F10103 		add	r3, r9, #1
 727 0110 BFE7     		b	.L30
 728              	.LVL92:
 729              	.L31:
 730              	.LBB94:
 635:lvgl/src/widgets/lv_roller.c ****         lv_anim_init(&a);
 731              		.loc 1 635 9 is_stmt 1 view .LVU192
 636:lvgl/src/widgets/lv_roller.c ****         lv_anim_set_var(&a, label);
 732              		.loc 1 636 9 view .LVU193
 733 0112 6846     		mov	r0, sp
 734 0114 FFF7FEFF 		bl	lv_anim_init
 735              	.LVL93:
 637:lvgl/src/widgets/lv_roller.c ****         lv_anim_set_exec_cb(&a, set_y_anim);
 736              		.loc 1 637 9 view .LVU194
 737              	.LBB95:
 738              	.LBI95:
 739              		.file 4 "lvgl/src/widgets/../core/../misc/lv_anim.h"
   1:lvgl/src/widgets/../core/../misc/lv_anim.h **** /**
   2:lvgl/src/widgets/../core/../misc/lv_anim.h ****  * @file lv_anim.h
   3:lvgl/src/widgets/../core/../misc/lv_anim.h ****  *
   4:lvgl/src/widgets/../core/../misc/lv_anim.h ****  */
   5:lvgl/src/widgets/../core/../misc/lv_anim.h **** 
   6:lvgl/src/widgets/../core/../misc/lv_anim.h **** #ifndef LV_ANIM_H
   7:lvgl/src/widgets/../core/../misc/lv_anim.h **** #define LV_ANIM_H
   8:lvgl/src/widgets/../core/../misc/lv_anim.h **** 
   9:lvgl/src/widgets/../core/../misc/lv_anim.h **** #ifdef __cplusplus
  10:lvgl/src/widgets/../core/../misc/lv_anim.h **** extern "C" {
  11:lvgl/src/widgets/../core/../misc/lv_anim.h **** #endif
  12:lvgl/src/widgets/../core/../misc/lv_anim.h **** 
  13:lvgl/src/widgets/../core/../misc/lv_anim.h **** /*********************
  14:lvgl/src/widgets/../core/../misc/lv_anim.h ****  *      INCLUDES
  15:lvgl/src/widgets/../core/../misc/lv_anim.h ****  *********************/
  16:lvgl/src/widgets/../core/../misc/lv_anim.h **** #include "../lv_conf_internal.h"
  17:lvgl/src/widgets/../core/../misc/lv_anim.h **** 
  18:lvgl/src/widgets/../core/../misc/lv_anim.h **** #include <stdint.h>
  19:lvgl/src/widgets/../core/../misc/lv_anim.h **** #include <stdbool.h>
  20:lvgl/src/widgets/../core/../misc/lv_anim.h **** #include <stddef.h>
  21:lvgl/src/widgets/../core/../misc/lv_anim.h **** 
  22:lvgl/src/widgets/../core/../misc/lv_anim.h **** /*********************
  23:lvgl/src/widgets/../core/../misc/lv_anim.h ****  *      DEFINES
  24:lvgl/src/widgets/../core/../misc/lv_anim.h ****  *********************/
  25:lvgl/src/widgets/../core/../misc/lv_anim.h **** 
  26:lvgl/src/widgets/../core/../misc/lv_anim.h **** #define LV_ANIM_REPEAT_INFINITE      0xFFFF
  27:lvgl/src/widgets/../core/../misc/lv_anim.h **** #define LV_ANIM_PLAYTIME_INFINITE    0xFFFFFFFF
  28:lvgl/src/widgets/../core/../misc/lv_anim.h **** 
  29:lvgl/src/widgets/../core/../misc/lv_anim.h **** LV_EXPORT_CONST_INT(LV_ANIM_REPEAT_INFINITE);
  30:lvgl/src/widgets/../core/../misc/lv_anim.h **** LV_EXPORT_CONST_INT(LV_ANIM_PLAYTIME_INFINITE);
  31:lvgl/src/widgets/../core/../misc/lv_anim.h **** 
  32:lvgl/src/widgets/../core/../misc/lv_anim.h **** /**********************
  33:lvgl/src/widgets/../core/../misc/lv_anim.h ****  *      TYPEDEFS
  34:lvgl/src/widgets/../core/../misc/lv_anim.h ****  **********************/
  35:lvgl/src/widgets/../core/../misc/lv_anim.h **** 
ARM GAS  C:\usertemp\cc2TdG63.s 			page 42


  36:lvgl/src/widgets/../core/../misc/lv_anim.h **** /** Can be used to indicate if animations are enabled or disabled in a case*/
  37:lvgl/src/widgets/../core/../misc/lv_anim.h **** typedef enum {
  38:lvgl/src/widgets/../core/../misc/lv_anim.h ****     LV_ANIM_OFF,
  39:lvgl/src/widgets/../core/../misc/lv_anim.h ****     LV_ANIM_ON,
  40:lvgl/src/widgets/../core/../misc/lv_anim.h **** } lv_anim_enable_t;
  41:lvgl/src/widgets/../core/../misc/lv_anim.h **** 
  42:lvgl/src/widgets/../core/../misc/lv_anim.h **** struct _lv_anim_t;
  43:lvgl/src/widgets/../core/../misc/lv_anim.h **** 
  44:lvgl/src/widgets/../core/../misc/lv_anim.h **** /** Get the current value during an animation*/
  45:lvgl/src/widgets/../core/../misc/lv_anim.h **** typedef int32_t (*lv_anim_path_cb_t)(const struct _lv_anim_t *);
  46:lvgl/src/widgets/../core/../misc/lv_anim.h **** 
  47:lvgl/src/widgets/../core/../misc/lv_anim.h **** /** Generic prototype of "animator" functions.
  48:lvgl/src/widgets/../core/../misc/lv_anim.h ****  * First parameter is the variable to animate.
  49:lvgl/src/widgets/../core/../misc/lv_anim.h ****  * Second parameter is the value to set.
  50:lvgl/src/widgets/../core/../misc/lv_anim.h ****  * Compatible with `lv_xxx_set_yyy(obj, value)` functions
  51:lvgl/src/widgets/../core/../misc/lv_anim.h ****  * The `x` in `_xcb_t` means it's not a fully generic prototype because
  52:lvgl/src/widgets/../core/../misc/lv_anim.h ****  * it doesn't receive `lv_anim_t *` as its first argument*/
  53:lvgl/src/widgets/../core/../misc/lv_anim.h **** typedef void (*lv_anim_exec_xcb_t)(void *, int32_t);
  54:lvgl/src/widgets/../core/../misc/lv_anim.h **** 
  55:lvgl/src/widgets/../core/../misc/lv_anim.h **** /** Same as `lv_anim_exec_xcb_t` but receives `lv_anim_t *` as the first parameter.
  56:lvgl/src/widgets/../core/../misc/lv_anim.h ****  * It's more consistent but less convenient. Might be used by binding generator functions.*/
  57:lvgl/src/widgets/../core/../misc/lv_anim.h **** typedef void (*lv_anim_custom_exec_cb_t)(struct _lv_anim_t *, int32_t);
  58:lvgl/src/widgets/../core/../misc/lv_anim.h **** 
  59:lvgl/src/widgets/../core/../misc/lv_anim.h **** /** Callback to call when the animation is ready*/
  60:lvgl/src/widgets/../core/../misc/lv_anim.h **** typedef void (*lv_anim_ready_cb_t)(struct _lv_anim_t *);
  61:lvgl/src/widgets/../core/../misc/lv_anim.h **** 
  62:lvgl/src/widgets/../core/../misc/lv_anim.h **** /** Callback to call when the animation really stars (considering `delay`)*/
  63:lvgl/src/widgets/../core/../misc/lv_anim.h **** typedef void (*lv_anim_start_cb_t)(struct _lv_anim_t *);
  64:lvgl/src/widgets/../core/../misc/lv_anim.h **** 
  65:lvgl/src/widgets/../core/../misc/lv_anim.h **** /** Callback used when the animation values are relative to get the current value*/
  66:lvgl/src/widgets/../core/../misc/lv_anim.h **** typedef int32_t (*lv_anim_get_value_cb_t)(struct _lv_anim_t *);
  67:lvgl/src/widgets/../core/../misc/lv_anim.h **** 
  68:lvgl/src/widgets/../core/../misc/lv_anim.h **** /** Describes an animation*/
  69:lvgl/src/widgets/../core/../misc/lv_anim.h **** typedef struct _lv_anim_t {
  70:lvgl/src/widgets/../core/../misc/lv_anim.h ****     void * var;                          /**<Variable to animate*/
  71:lvgl/src/widgets/../core/../misc/lv_anim.h ****     lv_anim_exec_xcb_t exec_cb;          /**< Function to execute to animate*/
  72:lvgl/src/widgets/../core/../misc/lv_anim.h ****     lv_anim_start_cb_t start_cb;         /**< Call it when the animation is starts (considering `de
  73:lvgl/src/widgets/../core/../misc/lv_anim.h ****     lv_anim_ready_cb_t ready_cb;         /**< Call it when the animation is ready*/
  74:lvgl/src/widgets/../core/../misc/lv_anim.h ****     lv_anim_get_value_cb_t get_value_cb; /**< Get the current value in relative mode*/
  75:lvgl/src/widgets/../core/../misc/lv_anim.h **** #if LV_USE_USER_DATA
  76:lvgl/src/widgets/../core/../misc/lv_anim.h ****     void * user_data; /**< Custom user data*/
  77:lvgl/src/widgets/../core/../misc/lv_anim.h **** #endif
  78:lvgl/src/widgets/../core/../misc/lv_anim.h ****     lv_anim_path_cb_t path_cb;         /**< Describe the path (curve) of animations*/
  79:lvgl/src/widgets/../core/../misc/lv_anim.h ****     int32_t start_value;               /**< Start value*/
  80:lvgl/src/widgets/../core/../misc/lv_anim.h ****     int32_t current_value;             /**< Current value*/
  81:lvgl/src/widgets/../core/../misc/lv_anim.h ****     int32_t end_value;                 /**< End value*/
  82:lvgl/src/widgets/../core/../misc/lv_anim.h ****     int32_t time;                /**< Animation time in ms*/
  83:lvgl/src/widgets/../core/../misc/lv_anim.h ****     int32_t act_time;            /**< Current time in animation. Set to negative to make delay.*/
  84:lvgl/src/widgets/../core/../misc/lv_anim.h ****     uint32_t playback_delay;     /**< Wait before play back*/
  85:lvgl/src/widgets/../core/../misc/lv_anim.h ****     uint32_t playback_time;      /**< Duration of playback animation*/
  86:lvgl/src/widgets/../core/../misc/lv_anim.h ****     uint32_t repeat_delay;       /**< Wait before repeat*/
  87:lvgl/src/widgets/../core/../misc/lv_anim.h ****     uint16_t repeat_cnt;         /**< Repeat count for the animation*/
  88:lvgl/src/widgets/../core/../misc/lv_anim.h ****     uint8_t early_apply  : 1;    /**< 1: Apply start value immediately even is there is `delay`*/
  89:lvgl/src/widgets/../core/../misc/lv_anim.h **** 
  90:lvgl/src/widgets/../core/../misc/lv_anim.h ****     /*Animation system use these - user shouldn't set*/
  91:lvgl/src/widgets/../core/../misc/lv_anim.h ****     uint8_t playback_now : 1; /**< Play back is in progress*/
  92:lvgl/src/widgets/../core/../misc/lv_anim.h ****     uint8_t run_round : 1;    /**< Indicates the animation has run in this round*/
ARM GAS  C:\usertemp\cc2TdG63.s 			page 43


  93:lvgl/src/widgets/../core/../misc/lv_anim.h ****     uint8_t start_cb_called : 1;    /**< Indicates that the `start_cb` was already called*/
  94:lvgl/src/widgets/../core/../misc/lv_anim.h **** } lv_anim_t;
  95:lvgl/src/widgets/../core/../misc/lv_anim.h **** 
  96:lvgl/src/widgets/../core/../misc/lv_anim.h **** /**********************
  97:lvgl/src/widgets/../core/../misc/lv_anim.h ****  * GLOBAL PROTOTYPES
  98:lvgl/src/widgets/../core/../misc/lv_anim.h ****  **********************/
  99:lvgl/src/widgets/../core/../misc/lv_anim.h **** 
 100:lvgl/src/widgets/../core/../misc/lv_anim.h **** /**
 101:lvgl/src/widgets/../core/../misc/lv_anim.h ****  * Init. the animation module
 102:lvgl/src/widgets/../core/../misc/lv_anim.h ****  */
 103:lvgl/src/widgets/../core/../misc/lv_anim.h **** void _lv_anim_core_init(void);
 104:lvgl/src/widgets/../core/../misc/lv_anim.h **** 
 105:lvgl/src/widgets/../core/../misc/lv_anim.h **** /**
 106:lvgl/src/widgets/../core/../misc/lv_anim.h ****  * Initialize an animation variable.
 107:lvgl/src/widgets/../core/../misc/lv_anim.h ****  * E.g.:
 108:lvgl/src/widgets/../core/../misc/lv_anim.h ****  * lv_anim_t a;
 109:lvgl/src/widgets/../core/../misc/lv_anim.h ****  * lv_anim_init(&a);
 110:lvgl/src/widgets/../core/../misc/lv_anim.h ****  * lv_anim_set_...(&a);
 111:lvgl/src/widgets/../core/../misc/lv_anim.h ****  * lv_anim_start(&a);
 112:lvgl/src/widgets/../core/../misc/lv_anim.h ****  * @param a     pointer to an `lv_anim_t` variable to initialize
 113:lvgl/src/widgets/../core/../misc/lv_anim.h ****  */
 114:lvgl/src/widgets/../core/../misc/lv_anim.h **** void lv_anim_init(lv_anim_t * a);
 115:lvgl/src/widgets/../core/../misc/lv_anim.h **** 
 116:lvgl/src/widgets/../core/../misc/lv_anim.h **** /**
 117:lvgl/src/widgets/../core/../misc/lv_anim.h ****  * Set a variable to animate
 118:lvgl/src/widgets/../core/../misc/lv_anim.h ****  * @param a     pointer to an initialized `lv_anim_t` variable
 119:lvgl/src/widgets/../core/../misc/lv_anim.h ****  * @param var   pointer to a variable to animate
 120:lvgl/src/widgets/../core/../misc/lv_anim.h ****  */
 121:lvgl/src/widgets/../core/../misc/lv_anim.h **** static inline void lv_anim_set_var(lv_anim_t * a, void * var)
 740              		.loc 4 121 20 view .LVU195
 741              	.LBB96:
 122:lvgl/src/widgets/../core/../misc/lv_anim.h **** {
 123:lvgl/src/widgets/../core/../misc/lv_anim.h ****     a->var = var;
 742              		.loc 4 123 5 view .LVU196
 743              		.loc 4 123 12 is_stmt 0 view .LVU197
 744 0118 0096     		str	r6, [sp]
 745              	.LVL94:
 746              		.loc 4 123 12 view .LVU198
 747              	.LBE96:
 748              	.LBE95:
 638:lvgl/src/widgets/lv_roller.c ****         lv_anim_set_values(&a, lv_obj_get_y(label), new_y);
 749              		.loc 1 638 9 is_stmt 1 view .LVU199
 750              	.LBB97:
 751              	.LBI97:
 124:lvgl/src/widgets/../core/../misc/lv_anim.h **** }
 125:lvgl/src/widgets/../core/../misc/lv_anim.h **** 
 126:lvgl/src/widgets/../core/../misc/lv_anim.h **** /**
 127:lvgl/src/widgets/../core/../misc/lv_anim.h ****  * Set a function to animate `var`
 128:lvgl/src/widgets/../core/../misc/lv_anim.h ****  * @param a         pointer to an initialized `lv_anim_t` variable
 129:lvgl/src/widgets/../core/../misc/lv_anim.h ****  * @param exec_cb   a function to execute during animation
 130:lvgl/src/widgets/../core/../misc/lv_anim.h ****  *                  LVGL's built-in functions can be used.
 131:lvgl/src/widgets/../core/../misc/lv_anim.h ****  *                  E.g. lv_obj_set_x
 132:lvgl/src/widgets/../core/../misc/lv_anim.h ****  */
 133:lvgl/src/widgets/../core/../misc/lv_anim.h **** static inline void lv_anim_set_exec_cb(lv_anim_t * a, lv_anim_exec_xcb_t exec_cb)
 752              		.loc 4 133 20 view .LVU200
 753              	.LBB98:
 134:lvgl/src/widgets/../core/../misc/lv_anim.h **** {
ARM GAS  C:\usertemp\cc2TdG63.s 			page 44


 135:lvgl/src/widgets/../core/../misc/lv_anim.h ****     a->exec_cb = exec_cb;
 754              		.loc 4 135 5 view .LVU201
 755              		.loc 4 135 16 is_stmt 0 view .LVU202
 756 011a 094B     		ldr	r3, .L37
 757 011c 0193     		str	r3, [sp, #4]
 758              	.LVL95:
 759              		.loc 4 135 16 view .LVU203
 760              	.LBE98:
 761              	.LBE97:
 639:lvgl/src/widgets/lv_roller.c ****         lv_anim_set_time(&a, anim_time);
 762              		.loc 1 639 9 is_stmt 1 view .LVU204
 639:lvgl/src/widgets/lv_roller.c ****         lv_anim_set_time(&a, anim_time);
 763              		.loc 1 639 32 is_stmt 0 view .LVU205
 764 011e 3046     		mov	r0, r6
 765 0120 FFF7FEFF 		bl	lv_obj_get_y
 766              	.LVL96:
 767              	.LBB99:
 768              	.LBI99:
 136:lvgl/src/widgets/../core/../misc/lv_anim.h **** }
 137:lvgl/src/widgets/../core/../misc/lv_anim.h **** 
 138:lvgl/src/widgets/../core/../misc/lv_anim.h **** /**
 139:lvgl/src/widgets/../core/../misc/lv_anim.h ****  * Set the duration of an animation
 140:lvgl/src/widgets/../core/../misc/lv_anim.h ****  * @param a         pointer to an initialized `lv_anim_t` variable
 141:lvgl/src/widgets/../core/../misc/lv_anim.h ****  * @param duration  duration of the animation in milliseconds
 142:lvgl/src/widgets/../core/../misc/lv_anim.h ****  */
 143:lvgl/src/widgets/../core/../misc/lv_anim.h **** static inline void lv_anim_set_time(lv_anim_t * a, uint32_t duration)
 144:lvgl/src/widgets/../core/../misc/lv_anim.h **** {
 145:lvgl/src/widgets/../core/../misc/lv_anim.h ****     a->time = duration;
 146:lvgl/src/widgets/../core/../misc/lv_anim.h **** }
 147:lvgl/src/widgets/../core/../misc/lv_anim.h **** 
 148:lvgl/src/widgets/../core/../misc/lv_anim.h **** /**
 149:lvgl/src/widgets/../core/../misc/lv_anim.h ****  * Set a delay before starting the animation
 150:lvgl/src/widgets/../core/../misc/lv_anim.h ****  * @param a         pointer to an initialized `lv_anim_t` variable
 151:lvgl/src/widgets/../core/../misc/lv_anim.h ****  * @param delay     delay before the animation in milliseconds
 152:lvgl/src/widgets/../core/../misc/lv_anim.h ****  */
 153:lvgl/src/widgets/../core/../misc/lv_anim.h **** static inline void lv_anim_set_delay(lv_anim_t * a, uint32_t delay)
 154:lvgl/src/widgets/../core/../misc/lv_anim.h **** {
 155:lvgl/src/widgets/../core/../misc/lv_anim.h ****     a->act_time = -(int32_t)(delay);
 156:lvgl/src/widgets/../core/../misc/lv_anim.h **** }
 157:lvgl/src/widgets/../core/../misc/lv_anim.h **** 
 158:lvgl/src/widgets/../core/../misc/lv_anim.h **** /**
 159:lvgl/src/widgets/../core/../misc/lv_anim.h ****  * Set the start and end values of an animation
 160:lvgl/src/widgets/../core/../misc/lv_anim.h ****  * @param a         pointer to an initialized `lv_anim_t` variable
 161:lvgl/src/widgets/../core/../misc/lv_anim.h ****  * @param start     the start value
 162:lvgl/src/widgets/../core/../misc/lv_anim.h ****  * @param end       the end value
 163:lvgl/src/widgets/../core/../misc/lv_anim.h ****  */
 164:lvgl/src/widgets/../core/../misc/lv_anim.h **** static inline void lv_anim_set_values(lv_anim_t * a, int32_t start, int32_t end)
 769              		.loc 4 164 20 is_stmt 1 view .LVU206
 770              	.LBB100:
 165:lvgl/src/widgets/../core/../misc/lv_anim.h **** {
 166:lvgl/src/widgets/../core/../misc/lv_anim.h ****     a->start_value = start;
 771              		.loc 4 166 5 view .LVU207
 772              		.loc 4 166 20 is_stmt 0 view .LVU208
 773 0124 0790     		str	r0, [sp, #28]
 167:lvgl/src/widgets/../core/../misc/lv_anim.h ****     a->current_value = start;
 774              		.loc 4 167 5 is_stmt 1 view .LVU209
 775              		.loc 4 167 22 is_stmt 0 view .LVU210
ARM GAS  C:\usertemp\cc2TdG63.s 			page 45


 776 0126 0890     		str	r0, [sp, #32]
 168:lvgl/src/widgets/../core/../misc/lv_anim.h ****     a->end_value = end;
 777              		.loc 4 168 5 is_stmt 1 view .LVU211
 778              		.loc 4 168 18 is_stmt 0 view .LVU212
 779 0128 0994     		str	r4, [sp, #36]
 780              	.LVL97:
 781              		.loc 4 168 18 view .LVU213
 782              	.LBE100:
 783              	.LBE99:
 640:lvgl/src/widgets/lv_roller.c ****         lv_anim_set_ready_cb(&a, scroll_anim_ready_cb);
 784              		.loc 1 640 9 is_stmt 1 view .LVU214
 785              	.LBB101:
 786              	.LBI101:
 143:lvgl/src/widgets/../core/../misc/lv_anim.h **** {
 787              		.loc 4 143 20 view .LVU215
 788              	.LBB102:
 145:lvgl/src/widgets/../core/../misc/lv_anim.h **** }
 789              		.loc 4 145 5 view .LVU216
 145:lvgl/src/widgets/../core/../misc/lv_anim.h **** }
 790              		.loc 4 145 13 is_stmt 0 view .LVU217
 791 012a BFB2     		uxth	r7, r7
 792              	.LVL98:
 145:lvgl/src/widgets/../core/../misc/lv_anim.h **** }
 793              		.loc 4 145 13 view .LVU218
 794 012c 0A97     		str	r7, [sp, #40]
 795              	.LVL99:
 145:lvgl/src/widgets/../core/../misc/lv_anim.h **** }
 796              		.loc 4 145 13 view .LVU219
 797              	.LBE102:
 798              	.LBE101:
 641:lvgl/src/widgets/lv_roller.c ****         lv_anim_set_path_cb(&a, lv_anim_path_ease_out);
 799              		.loc 1 641 9 is_stmt 1 view .LVU220
 800              	.LBB103:
 801              	.LBI103:
 169:lvgl/src/widgets/../core/../misc/lv_anim.h **** }
 170:lvgl/src/widgets/../core/../misc/lv_anim.h **** 
 171:lvgl/src/widgets/../core/../misc/lv_anim.h **** /**
 172:lvgl/src/widgets/../core/../misc/lv_anim.h ****  * Similar to `lv_anim_set_exec_cb` but `lv_anim_custom_exec_cb_t` receives
 173:lvgl/src/widgets/../core/../misc/lv_anim.h ****  * `lv_anim_t * ` as its first parameter instead of `void *`.
 174:lvgl/src/widgets/../core/../misc/lv_anim.h ****  * This function might be used when LVGL is bound to other languages because
 175:lvgl/src/widgets/../core/../misc/lv_anim.h ****  * it's more consistent to have `lv_anim_t *` as first parameter.
 176:lvgl/src/widgets/../core/../misc/lv_anim.h ****  * The variable to animate can be stored in the animation's `user_data`
 177:lvgl/src/widgets/../core/../misc/lv_anim.h ****  * @param a         pointer to an initialized `lv_anim_t` variable
 178:lvgl/src/widgets/../core/../misc/lv_anim.h ****  * @param exec_cb   a function to execute.
 179:lvgl/src/widgets/../core/../misc/lv_anim.h ****  */
 180:lvgl/src/widgets/../core/../misc/lv_anim.h **** static inline void lv_anim_set_custom_exec_cb(lv_anim_t * a, lv_anim_custom_exec_cb_t exec_cb)
 181:lvgl/src/widgets/../core/../misc/lv_anim.h **** {
 182:lvgl/src/widgets/../core/../misc/lv_anim.h ****     a->var     = a;
 183:lvgl/src/widgets/../core/../misc/lv_anim.h ****     a->exec_cb = (lv_anim_exec_xcb_t)exec_cb;
 184:lvgl/src/widgets/../core/../misc/lv_anim.h **** }
 185:lvgl/src/widgets/../core/../misc/lv_anim.h **** 
 186:lvgl/src/widgets/../core/../misc/lv_anim.h **** /**
 187:lvgl/src/widgets/../core/../misc/lv_anim.h ****  * Set the path (curve) of the animation.
 188:lvgl/src/widgets/../core/../misc/lv_anim.h ****  * @param a         pointer to an initialized `lv_anim_t` variable
 189:lvgl/src/widgets/../core/../misc/lv_anim.h ****  * @param path_cb a function to set the current value of the animation.
 190:lvgl/src/widgets/../core/../misc/lv_anim.h ****  */
 191:lvgl/src/widgets/../core/../misc/lv_anim.h **** static inline void lv_anim_set_path_cb(lv_anim_t * a, lv_anim_path_cb_t path_cb)
ARM GAS  C:\usertemp\cc2TdG63.s 			page 46


 192:lvgl/src/widgets/../core/../misc/lv_anim.h **** {
 193:lvgl/src/widgets/../core/../misc/lv_anim.h ****     a->path_cb = path_cb;
 194:lvgl/src/widgets/../core/../misc/lv_anim.h **** }
 195:lvgl/src/widgets/../core/../misc/lv_anim.h **** 
 196:lvgl/src/widgets/../core/../misc/lv_anim.h **** /**
 197:lvgl/src/widgets/../core/../misc/lv_anim.h ****  * Set a function call when the animation really starts (considering `delay`)
 198:lvgl/src/widgets/../core/../misc/lv_anim.h ****  * @param a         pointer to an initialized `lv_anim_t` variable
 199:lvgl/src/widgets/../core/../misc/lv_anim.h ****  * @param start_cb  a function call when the animation starts
 200:lvgl/src/widgets/../core/../misc/lv_anim.h ****  */
 201:lvgl/src/widgets/../core/../misc/lv_anim.h **** static inline void lv_anim_set_start_cb(lv_anim_t * a, lv_anim_start_cb_t start_cb)
 202:lvgl/src/widgets/../core/../misc/lv_anim.h **** {
 203:lvgl/src/widgets/../core/../misc/lv_anim.h ****     a->start_cb = start_cb;
 204:lvgl/src/widgets/../core/../misc/lv_anim.h **** }
 205:lvgl/src/widgets/../core/../misc/lv_anim.h **** 
 206:lvgl/src/widgets/../core/../misc/lv_anim.h **** /**
 207:lvgl/src/widgets/../core/../misc/lv_anim.h ****  * Set a function to use the current value of the variable and make start and end value
 208:lvgl/src/widgets/../core/../misc/lv_anim.h ****  * relative to the returned current value.
 209:lvgl/src/widgets/../core/../misc/lv_anim.h ****  * @param a             pointer to an initialized `lv_anim_t` variable
 210:lvgl/src/widgets/../core/../misc/lv_anim.h ****  * @param get_value_cb  a function call when the animation starts
 211:lvgl/src/widgets/../core/../misc/lv_anim.h ****  */
 212:lvgl/src/widgets/../core/../misc/lv_anim.h **** static inline void lv_anim_set_get_value_cb(lv_anim_t * a, lv_anim_get_value_cb_t get_value_cb)
 213:lvgl/src/widgets/../core/../misc/lv_anim.h **** {
 214:lvgl/src/widgets/../core/../misc/lv_anim.h ****     a->get_value_cb = get_value_cb;
 215:lvgl/src/widgets/../core/../misc/lv_anim.h **** }
 216:lvgl/src/widgets/../core/../misc/lv_anim.h **** 
 217:lvgl/src/widgets/../core/../misc/lv_anim.h **** /**
 218:lvgl/src/widgets/../core/../misc/lv_anim.h ****  * Set a function call when the animation is ready
 219:lvgl/src/widgets/../core/../misc/lv_anim.h ****  * @param a         pointer to an initialized `lv_anim_t` variable
 220:lvgl/src/widgets/../core/../misc/lv_anim.h ****  * @param ready_cb  a function call when the animation is ready
 221:lvgl/src/widgets/../core/../misc/lv_anim.h ****  */
 222:lvgl/src/widgets/../core/../misc/lv_anim.h **** static inline void lv_anim_set_ready_cb(lv_anim_t * a, lv_anim_ready_cb_t ready_cb)
 802              		.loc 4 222 20 view .LVU221
 803              	.LBB104:
 223:lvgl/src/widgets/../core/../misc/lv_anim.h **** {
 224:lvgl/src/widgets/../core/../misc/lv_anim.h ****     a->ready_cb = ready_cb;
 804              		.loc 4 224 5 view .LVU222
 805              		.loc 4 224 17 is_stmt 0 view .LVU223
 806 012e 054B     		ldr	r3, .L37+4
 807 0130 0393     		str	r3, [sp, #12]
 808              	.LVL100:
 809              		.loc 4 224 17 view .LVU224
 810              	.LBE104:
 811              	.LBE103:
 642:lvgl/src/widgets/lv_roller.c ****         lv_anim_start(&a);
 812              		.loc 1 642 9 is_stmt 1 view .LVU225
 813              	.LBB105:
 814              	.LBI105:
 191:lvgl/src/widgets/../core/../misc/lv_anim.h **** {
 815              		.loc 4 191 20 view .LVU226
 816              	.LBB106:
 193:lvgl/src/widgets/../core/../misc/lv_anim.h **** }
 817              		.loc 4 193 5 view .LVU227
 193:lvgl/src/widgets/../core/../misc/lv_anim.h **** }
 818              		.loc 4 193 16 is_stmt 0 view .LVU228
 819 0132 054B     		ldr	r3, .L37+8
 820 0134 0693     		str	r3, [sp, #24]
 821              	.LVL101:
ARM GAS  C:\usertemp\cc2TdG63.s 			page 47


 193:lvgl/src/widgets/../core/../misc/lv_anim.h **** }
 822              		.loc 4 193 16 view .LVU229
 823              	.LBE106:
 824              	.LBE105:
 643:lvgl/src/widgets/lv_roller.c ****     }
 825              		.loc 1 643 9 is_stmt 1 view .LVU230
 826 0136 6846     		mov	r0, sp
 827 0138 FFF7FEFF 		bl	lv_anim_start
 828              	.LVL102:
 829 013c B8E7     		b	.L21
 830              	.L38:
 831 013e 00BF     		.align	2
 832              	.L37:
 833 0140 00000000 		.word	set_y_anim
 834 0144 00000000 		.word	scroll_anim_ready_cb
 835 0148 00000000 		.word	lv_anim_path_ease_out
 836              	.LBE94:
 837              		.cfi_endproc
 838              	.LFE170:
 840              		.section	.text.get_sel_area,"ax",%progbits
 841              		.align	1
 842              		.syntax unified
 843              		.thumb
 844              		.thumb_func
 846              	get_sel_area:
 847              	.LVL103:
 848              	.LFB169:
 569:lvgl/src/widgets/lv_roller.c **** 
 849              		.loc 1 569 1 view -0
 850              		.cfi_startproc
 851              		@ args = 0, pretend = 0, frame = 8
 852              		@ frame_needed = 0, uses_anonymous_args = 0
 569:lvgl/src/widgets/lv_roller.c **** 
 853              		.loc 1 569 1 is_stmt 0 view .LVU232
 854 0000 2DE9F041 		push	{r4, r5, r6, r7, r8, lr}
 855              	.LCFI12:
 856              		.cfi_def_cfa_offset 24
 857              		.cfi_offset 4, -24
 858              		.cfi_offset 5, -20
 859              		.cfi_offset 6, -16
 860              		.cfi_offset 7, -12
 861              		.cfi_offset 8, -8
 862              		.cfi_offset 14, -4
 863 0004 82B0     		sub	sp, sp, #8
 864              	.LCFI13:
 865              		.cfi_def_cfa_offset 32
 866 0006 0646     		mov	r6, r0
 867 0008 0F46     		mov	r7, r1
 571:lvgl/src/widgets/lv_roller.c ****     const lv_font_t * font_sel = lv_obj_get_style_text_font(obj, LV_PART_SELECTED);
 868              		.loc 1 571 5 is_stmt 1 view .LVU233
 869              	.LVL104:
 870              	.LBB107:
 871              	.LBI107:
 451:lvgl/src/widgets/../core/lv_obj_style_gen.h **** {
 872              		.loc 2 451 33 view .LVU234
 873              	.LBB108:
 453:lvgl/src/widgets/../core/lv_obj_style_gen.h ****     return (const lv_font_t *)v.ptr;
ARM GAS  C:\usertemp\cc2TdG63.s 			page 48


 874              		.loc 2 453 5 view .LVU235
 453:lvgl/src/widgets/../core/lv_obj_style_gen.h ****     return (const lv_font_t *)v.ptr;
 875              		.loc 2 453 26 is_stmt 0 view .LVU236
 876 000a 41F25942 		movw	r2, #5209
 877 000e 0021     		movs	r1, #0
 878              	.LVL105:
 453:lvgl/src/widgets/../core/lv_obj_style_gen.h ****     return (const lv_font_t *)v.ptr;
 879              		.loc 2 453 26 view .LVU237
 880 0010 FFF7FEFF 		bl	lv_obj_get_style_prop
 881              	.LVL106:
 453:lvgl/src/widgets/../core/lv_obj_style_gen.h ****     return (const lv_font_t *)v.ptr;
 882              		.loc 2 453 26 view .LVU238
 883 0014 0446     		mov	r4, r0
 884              	.LVL107:
 454:lvgl/src/widgets/../core/lv_obj_style_gen.h **** }
 885              		.loc 2 454 5 is_stmt 1 view .LVU239
 454:lvgl/src/widgets/../core/lv_obj_style_gen.h **** }
 886              		.loc 2 454 5 is_stmt 0 view .LVU240
 887              	.LBE108:
 888              	.LBE107:
 572:lvgl/src/widgets/lv_roller.c ****     lv_coord_t font_main_h        = lv_font_get_line_height(font_main);
 889              		.loc 1 572 5 is_stmt 1 view .LVU241
 890              	.LBB109:
 891              	.LBI109:
 451:lvgl/src/widgets/../core/lv_obj_style_gen.h **** {
 892              		.loc 2 451 33 view .LVU242
 893              	.LBB110:
 453:lvgl/src/widgets/../core/lv_obj_style_gen.h ****     return (const lv_font_t *)v.ptr;
 894              		.loc 2 453 5 view .LVU243
 453:lvgl/src/widgets/../core/lv_obj_style_gen.h ****     return (const lv_font_t *)v.ptr;
 895              		.loc 2 453 26 is_stmt 0 view .LVU244
 896 0016 41F25942 		movw	r2, #5209
 897 001a 4FF48021 		mov	r1, #262144
 898 001e 3046     		mov	r0, r6
 899              	.LVL108:
 453:lvgl/src/widgets/../core/lv_obj_style_gen.h ****     return (const lv_font_t *)v.ptr;
 900              		.loc 2 453 26 view .LVU245
 901 0020 FFF7FEFF 		bl	lv_obj_get_style_prop
 902              	.LVL109:
 454:lvgl/src/widgets/../core/lv_obj_style_gen.h **** }
 903              		.loc 2 454 5 is_stmt 1 view .LVU246
 454:lvgl/src/widgets/../core/lv_obj_style_gen.h **** }
 904              		.loc 2 454 5 is_stmt 0 view .LVU247
 905              	.LBE110:
 906              	.LBE109:
 573:lvgl/src/widgets/lv_roller.c ****     lv_coord_t font_sel_h        = lv_font_get_line_height(font_sel);
 907              		.loc 1 573 5 is_stmt 1 view .LVU248
 908              	.LBB111:
 909              	.LBI111:
 121:lvgl/src/widgets/../core/../misc/../font/lv_font.h **** {
 910              		.loc 3 121 26 view .LVU249
 911              	.LBB112:
 912              		.loc 3 123 5 view .LVU250
 913              		.loc 3 123 18 is_stmt 0 view .LVU251
 914 0024 B4F90850 		ldrsh	r5, [r4, #8]
 915              	.LVL110:
 916              		.loc 3 123 18 view .LVU252
ARM GAS  C:\usertemp\cc2TdG63.s 			page 49


 917              	.LBE112:
 918              	.LBE111:
 574:lvgl/src/widgets/lv_roller.c ****     lv_coord_t line_space = lv_obj_get_style_text_line_space(obj, LV_PART_MAIN);
 919              		.loc 1 574 5 is_stmt 1 view .LVU253
 920              	.LBB113:
 921              	.LBI113:
 121:lvgl/src/widgets/../core/../misc/../font/lv_font.h **** {
 922              		.loc 3 121 26 view .LVU254
 923              	.LBB114:
 924              		.loc 3 123 5 view .LVU255
 925              		.loc 3 123 18 is_stmt 0 view .LVU256
 926 0028 B0F90840 		ldrsh	r4, [r0, #8]
 927              	.LVL111:
 928              		.loc 3 123 18 view .LVU257
 929              	.LBE114:
 930              	.LBE113:
 575:lvgl/src/widgets/lv_roller.c ****     lv_coord_t d = (font_sel_h + font_main_h) / 2 + line_space;
 931              		.loc 1 575 5 is_stmt 1 view .LVU258
 932              	.LBB115:
 933              	.LBI115:
 463:lvgl/src/widgets/../core/lv_obj_style_gen.h **** {
 934              		.loc 2 463 26 view .LVU259
 935              	.LBB116:
 465:lvgl/src/widgets/../core/lv_obj_style_gen.h ****     return (lv_coord_t)v.num;
 936              		.loc 2 465 5 view .LVU260
 465:lvgl/src/widgets/../core/lv_obj_style_gen.h ****     return (lv_coord_t)v.num;
 937              		.loc 2 465 26 is_stmt 0 view .LVU261
 938 002c 41F25B42 		movw	r2, #5211
 939 0030 0021     		movs	r1, #0
 940 0032 3046     		mov	r0, r6
 941              	.LVL112:
 465:lvgl/src/widgets/../core/lv_obj_style_gen.h ****     return (lv_coord_t)v.num;
 942              		.loc 2 465 26 view .LVU262
 943 0034 FFF7FEFF 		bl	lv_obj_get_style_prop
 944              	.LVL113:
 466:lvgl/src/widgets/../core/lv_obj_style_gen.h **** }
 945              		.loc 2 466 5 is_stmt 1 view .LVU263
 466:lvgl/src/widgets/../core/lv_obj_style_gen.h **** }
 946              		.loc 2 466 5 is_stmt 0 view .LVU264
 947              	.LBE116:
 948              	.LBE115:
 576:lvgl/src/widgets/lv_roller.c ****     sel_area->y1 = obj->coords.y1 + lv_obj_get_height(obj) / 2 - d / 2;
 949              		.loc 1 576 5 is_stmt 1 view .LVU265
 576:lvgl/src/widgets/lv_roller.c ****     sel_area->y1 = obj->coords.y1 + lv_obj_get_height(obj) / 2 - d / 2;
 950              		.loc 1 576 47 is_stmt 0 view .LVU266
 951 0038 6419     		adds	r4, r4, r5
 952 003a 24D4     		bmi	.L44
 953              	.L40:
 576:lvgl/src/widgets/lv_roller.c ****     sel_area->y1 = obj->coords.y1 + lv_obj_get_height(obj) / 2 - d / 2;
 954              		.loc 1 576 51 view .LVU267
 955 003c 00EB6405 		add	r5, r0, r4, asr #1
 956 0040 1FFA85F8 		uxth	r8, r5
 576:lvgl/src/widgets/lv_roller.c ****     sel_area->y1 = obj->coords.y1 + lv_obj_get_height(obj) / 2 - d / 2;
 957              		.loc 1 576 16 view .LVU268
 958 0044 2DB2     		sxth	r5, r5
 959              	.LVL114:
 577:lvgl/src/widgets/lv_roller.c ****     sel_area->y2 = sel_area->y1 + d;
ARM GAS  C:\usertemp\cc2TdG63.s 			page 50


 960              		.loc 1 577 5 is_stmt 1 view .LVU269
 577:lvgl/src/widgets/lv_roller.c ****     sel_area->y2 = sel_area->y1 + d;
 961              		.loc 1 577 31 is_stmt 0 view .LVU270
 962 0046 F48A     		ldrh	r4, [r6, #22]
 577:lvgl/src/widgets/lv_roller.c ****     sel_area->y2 = sel_area->y1 + d;
 963              		.loc 1 577 37 view .LVU271
 964 0048 3046     		mov	r0, r6
 965              	.LVL115:
 577:lvgl/src/widgets/lv_roller.c ****     sel_area->y2 = sel_area->y1 + d;
 966              		.loc 1 577 37 view .LVU272
 967 004a FFF7FEFF 		bl	lv_obj_get_height
 968              	.LVL116:
 577:lvgl/src/widgets/lv_roller.c ****     sel_area->y2 = sel_area->y1 + d;
 969              		.loc 1 577 35 discriminator 1 view .LVU273
 970 004e 0346     		mov	r3, r0
 971 0050 0028     		cmp	r0, #0
 972 0052 1ADB     		blt	.L45
 973              	.L41:
 974 0054 04EB6303 		add	r3, r4, r3, asr #1
 975 0058 9BB2     		uxth	r3, r3
 577:lvgl/src/widgets/lv_roller.c ****     sel_area->y2 = sel_area->y1 + d;
 976              		.loc 1 577 64 discriminator 1 view .LVU274
 977 005a 2A46     		mov	r2, r5
 978 005c 002D     		cmp	r5, #0
 979 005e 16DB     		blt	.L46
 980              	.L42:
 981 0060 A3EB6203 		sub	r3, r3, r2, asr #1
 577:lvgl/src/widgets/lv_roller.c ****     sel_area->y2 = sel_area->y1 + d;
 982              		.loc 1 577 18 discriminator 1 view .LVU275
 983 0064 7B80     		strh	r3, [r7, #2]	@ movhi
 578:lvgl/src/widgets/lv_roller.c ****     lv_area_t roller_coords;
 984              		.loc 1 578 5 is_stmt 1 view .LVU276
 578:lvgl/src/widgets/lv_roller.c ****     lv_area_t roller_coords;
 985              		.loc 1 578 33 is_stmt 0 view .LVU277
 986 0066 18FA83F3 		uxtah	r3, r8, r3
 578:lvgl/src/widgets/lv_roller.c ****     lv_area_t roller_coords;
 987              		.loc 1 578 18 view .LVU278
 988 006a FB80     		strh	r3, [r7, #6]	@ movhi
 579:lvgl/src/widgets/lv_roller.c ****     lv_obj_get_coords(obj, &roller_coords);
 989              		.loc 1 579 5 is_stmt 1 view .LVU279
 580:lvgl/src/widgets/lv_roller.c **** 
 990              		.loc 1 580 5 view .LVU280
 991 006c 6946     		mov	r1, sp
 992 006e 3046     		mov	r0, r6
 993 0070 FFF7FEFF 		bl	lv_obj_get_coords
 994              	.LVL117:
 582:lvgl/src/widgets/lv_roller.c ****     sel_area->x2 = roller_coords.x2;
 995              		.loc 1 582 5 view .LVU281
 582:lvgl/src/widgets/lv_roller.c ****     sel_area->x2 = roller_coords.x2;
 996              		.loc 1 582 33 is_stmt 0 view .LVU282
 997 0074 BDF90030 		ldrsh	r3, [sp]
 582:lvgl/src/widgets/lv_roller.c ****     sel_area->x2 = roller_coords.x2;
 998              		.loc 1 582 18 view .LVU283
 999 0078 3B80     		strh	r3, [r7]	@ movhi
 583:lvgl/src/widgets/lv_roller.c **** 
 1000              		.loc 1 583 5 is_stmt 1 view .LVU284
 583:lvgl/src/widgets/lv_roller.c **** 
ARM GAS  C:\usertemp\cc2TdG63.s 			page 51


 1001              		.loc 1 583 33 is_stmt 0 view .LVU285
 1002 007a BDF90430 		ldrsh	r3, [sp, #4]
 583:lvgl/src/widgets/lv_roller.c **** 
 1003              		.loc 1 583 18 view .LVU286
 1004 007e BB80     		strh	r3, [r7, #4]	@ movhi
 585:lvgl/src/widgets/lv_roller.c **** 
 1005              		.loc 1 585 1 view .LVU287
 1006 0080 02B0     		add	sp, sp, #8
 1007              	.LCFI14:
 1008              		.cfi_remember_state
 1009              		.cfi_def_cfa_offset 24
 1010              		@ sp needed
 1011 0082 BDE8F081 		pop	{r4, r5, r6, r7, r8, pc}
 1012              	.LVL118:
 1013              	.L44:
 1014              	.LCFI15:
 1015              		.cfi_restore_state
 576:lvgl/src/widgets/lv_roller.c ****     sel_area->y1 = obj->coords.y1 + lv_obj_get_height(obj) / 2 - d / 2;
 1016              		.loc 1 576 47 view .LVU288
 1017 0086 0134     		adds	r4, r4, #1
 1018 0088 D8E7     		b	.L40
 1019              	.LVL119:
 1020              	.L45:
 577:lvgl/src/widgets/lv_roller.c ****     sel_area->y2 = sel_area->y1 + d;
 1021              		.loc 1 577 35 discriminator 1 view .LVU289
 1022 008a 431C     		adds	r3, r0, #1
 1023 008c E2E7     		b	.L41
 1024              	.L46:
 577:lvgl/src/widgets/lv_roller.c ****     sel_area->y2 = sel_area->y1 + d;
 1025              		.loc 1 577 64 discriminator 1 view .LVU290
 1026 008e 6A1C     		adds	r2, r5, #1
 1027 0090 E6E7     		b	.L42
 1028              		.cfi_endproc
 1029              	.LFE169:
 1031              		.section	.text.draw_main,"ax",%progbits
 1032              		.align	1
 1033              		.syntax unified
 1034              		.thumb
 1035              		.thumb_func
 1037              	draw_main:
 1038              	.LVL120:
 1039              	.LFB167:
 448:lvgl/src/widgets/lv_roller.c ****     lv_event_code_t code = lv_event_get_code(e);
 1040              		.loc 1 448 1 is_stmt 1 view -0
 1041              		.cfi_startproc
 1042              		@ args = 0, pretend = 0, frame = 88
 1043              		@ frame_needed = 0, uses_anonymous_args = 0
 448:lvgl/src/widgets/lv_roller.c ****     lv_event_code_t code = lv_event_get_code(e);
 1044              		.loc 1 448 1 is_stmt 0 view .LVU292
 1045 0000 2DE9F047 		push	{r4, r5, r6, r7, r8, r9, r10, lr}
 1046              	.LCFI16:
 1047              		.cfi_def_cfa_offset 32
 1048              		.cfi_offset 4, -32
 1049              		.cfi_offset 5, -28
 1050              		.cfi_offset 6, -24
 1051              		.cfi_offset 7, -20
 1052              		.cfi_offset 8, -16
ARM GAS  C:\usertemp\cc2TdG63.s 			page 52


 1053              		.cfi_offset 9, -12
 1054              		.cfi_offset 10, -8
 1055              		.cfi_offset 14, -4
 1056 0004 9AB0     		sub	sp, sp, #104
 1057              	.LCFI17:
 1058              		.cfi_def_cfa_offset 136
 1059 0006 0546     		mov	r5, r0
 449:lvgl/src/widgets/lv_roller.c ****     lv_obj_t * obj = lv_event_get_target(e);
 1060              		.loc 1 449 5 is_stmt 1 view .LVU293
 449:lvgl/src/widgets/lv_roller.c ****     lv_obj_t * obj = lv_event_get_target(e);
 1061              		.loc 1 449 28 is_stmt 0 view .LVU294
 1062 0008 FFF7FEFF 		bl	lv_event_get_code
 1063              	.LVL121:
 449:lvgl/src/widgets/lv_roller.c ****     lv_obj_t * obj = lv_event_get_target(e);
 1064              		.loc 1 449 28 view .LVU295
 1065 000c 0446     		mov	r4, r0
 1066              	.LVL122:
 450:lvgl/src/widgets/lv_roller.c ****     if(code == LV_EVENT_DRAW_MAIN) {
 1067              		.loc 1 450 5 is_stmt 1 view .LVU296
 450:lvgl/src/widgets/lv_roller.c ****     if(code == LV_EVENT_DRAW_MAIN) {
 1068              		.loc 1 450 22 is_stmt 0 view .LVU297
 1069 000e 2846     		mov	r0, r5
 1070 0010 FFF7FEFF 		bl	lv_event_get_target
 1071              	.LVL123:
 1072 0014 0646     		mov	r6, r0
 1073              	.LVL124:
 451:lvgl/src/widgets/lv_roller.c ****         /*Draw the selected rectangle*/
 1074              		.loc 1 451 5 is_stmt 1 view .LVU298
 451:lvgl/src/widgets/lv_roller.c ****         /*Draw the selected rectangle*/
 1075              		.loc 1 451 7 is_stmt 0 view .LVU299
 1076 0016 152C     		cmp	r4, #21
 1077 0018 04D0     		beq	.L54
 462:lvgl/src/widgets/lv_roller.c ****         lv_draw_ctx_t * draw_ctx = lv_event_get_draw_ctx(e);
 1078              		.loc 1 462 10 is_stmt 1 view .LVU300
 462:lvgl/src/widgets/lv_roller.c ****         lv_draw_ctx_t * draw_ctx = lv_event_get_draw_ctx(e);
 1079              		.loc 1 462 12 is_stmt 0 view .LVU301
 1080 001a 182C     		cmp	r4, #24
 1081 001c 19D0     		beq	.L55
 1082              	.LVL125:
 1083              	.L47:
 518:lvgl/src/widgets/lv_roller.c **** 
 1084              		.loc 1 518 1 view .LVU302
 1085 001e 1AB0     		add	sp, sp, #104
 1086              	.LCFI18:
 1087              		.cfi_remember_state
 1088              		.cfi_def_cfa_offset 32
 1089              		@ sp needed
 1090 0020 BDE8F087 		pop	{r4, r5, r6, r7, r8, r9, r10, pc}
 1091              	.LVL126:
 1092              	.L54:
 1093              	.LCFI19:
 1094              		.cfi_restore_state
 1095              	.LBB117:
 453:lvgl/src/widgets/lv_roller.c ****         lv_area_t sel_area;
 1096              		.loc 1 453 9 is_stmt 1 view .LVU303
 453:lvgl/src/widgets/lv_roller.c ****         lv_area_t sel_area;
 1097              		.loc 1 453 36 is_stmt 0 view .LVU304
ARM GAS  C:\usertemp\cc2TdG63.s 			page 53


 1098 0024 2846     		mov	r0, r5
 1099              	.LVL127:
 453:lvgl/src/widgets/lv_roller.c ****         lv_area_t sel_area;
 1100              		.loc 1 453 36 view .LVU305
 1101 0026 FFF7FEFF 		bl	lv_event_get_draw_ctx
 1102              	.LVL128:
 1103 002a 0446     		mov	r4, r0
 1104              	.LVL129:
 454:lvgl/src/widgets/lv_roller.c ****         get_sel_area(obj, &sel_area);
 1105              		.loc 1 454 9 is_stmt 1 view .LVU306
 455:lvgl/src/widgets/lv_roller.c ****         lv_draw_rect_dsc_t sel_dsc;
 1106              		.loc 1 455 9 view .LVU307
 1107 002c 0AA9     		add	r1, sp, #40
 1108 002e 3046     		mov	r0, r6
 1109              	.LVL130:
 455:lvgl/src/widgets/lv_roller.c ****         lv_draw_rect_dsc_t sel_dsc;
 1110              		.loc 1 455 9 is_stmt 0 view .LVU308
 1111 0030 FFF7FEFF 		bl	get_sel_area
 1112              	.LVL131:
 456:lvgl/src/widgets/lv_roller.c ****         lv_draw_rect_dsc_init(&sel_dsc);
 1113              		.loc 1 456 9 is_stmt 1 view .LVU309
 457:lvgl/src/widgets/lv_roller.c ****         lv_obj_init_draw_rect_dsc(obj, LV_PART_SELECTED, &sel_dsc);
 1114              		.loc 1 457 9 view .LVU310
 1115 0034 0CA8     		add	r0, sp, #48
 1116 0036 FFF7FEFF 		bl	lv_draw_rect_dsc_init
 1117              	.LVL132:
 458:lvgl/src/widgets/lv_roller.c ****         lv_draw_rect(draw_ctx, &sel_dsc, &sel_area);
 1118              		.loc 1 458 9 view .LVU311
 1119 003a 0CAA     		add	r2, sp, #48
 1120 003c 4FF48021 		mov	r1, #262144
 1121 0040 3046     		mov	r0, r6
 1122 0042 FFF7FEFF 		bl	lv_obj_init_draw_rect_dsc
 1123              	.LVL133:
 459:lvgl/src/widgets/lv_roller.c ****     }
 1124              		.loc 1 459 9 view .LVU312
 1125 0046 0AAA     		add	r2, sp, #40
 1126 0048 0CA9     		add	r1, sp, #48
 1127 004a 2046     		mov	r0, r4
 1128 004c FFF7FEFF 		bl	lv_draw_rect
 1129              	.LVL134:
 1130              	.LBE117:
 1131 0050 E5E7     		b	.L47
 1132              	.LVL135:
 1133              	.L55:
 1134              	.LBB118:
 463:lvgl/src/widgets/lv_roller.c **** 
 1135              		.loc 1 463 9 view .LVU313
 463:lvgl/src/widgets/lv_roller.c **** 
 1136              		.loc 1 463 36 is_stmt 0 view .LVU314
 1137 0052 2846     		mov	r0, r5
 1138              	.LVL136:
 463:lvgl/src/widgets/lv_roller.c **** 
 1139              		.loc 1 463 36 view .LVU315
 1140 0054 FFF7FEFF 		bl	lv_event_get_draw_ctx
 1141              	.LVL137:
 1142 0058 0446     		mov	r4, r0
 1143              	.LVL138:
ARM GAS  C:\usertemp\cc2TdG63.s 			page 54


 465:lvgl/src/widgets/lv_roller.c ****         lv_draw_label_dsc_init(&label_dsc);
 1144              		.loc 1 465 9 is_stmt 1 view .LVU316
 466:lvgl/src/widgets/lv_roller.c ****         lv_obj_init_draw_label_dsc(obj, LV_PART_SELECTED, &label_dsc);
 1145              		.loc 1 466 9 view .LVU317
 1146 005a 0CA8     		add	r0, sp, #48
 1147              	.LVL139:
 466:lvgl/src/widgets/lv_roller.c ****         lv_obj_init_draw_label_dsc(obj, LV_PART_SELECTED, &label_dsc);
 1148              		.loc 1 466 9 is_stmt 0 view .LVU318
 1149 005c FFF7FEFF 		bl	lv_draw_label_dsc_init
 1150              	.LVL140:
 467:lvgl/src/widgets/lv_roller.c **** 
 1151              		.loc 1 467 9 is_stmt 1 view .LVU319
 1152 0060 0CAA     		add	r2, sp, #48
 1153 0062 4FF48021 		mov	r1, #262144
 1154 0066 3046     		mov	r0, r6
 1155 0068 FFF7FEFF 		bl	lv_obj_init_draw_label_dsc
 1156              	.LVL141:
 470:lvgl/src/widgets/lv_roller.c ****         get_sel_area(obj, &sel_area);
 1157              		.loc 1 470 9 view .LVU320
 471:lvgl/src/widgets/lv_roller.c ****         lv_area_t mask_sel;
 1158              		.loc 1 471 9 view .LVU321
 1159 006c 06A9     		add	r1, sp, #24
 1160 006e 3046     		mov	r0, r6
 1161 0070 FFF7FEFF 		bl	get_sel_area
 1162              	.LVL142:
 472:lvgl/src/widgets/lv_roller.c ****         bool area_ok;
 1163              		.loc 1 472 9 view .LVU322
 473:lvgl/src/widgets/lv_roller.c ****         area_ok = _lv_area_intersect(&mask_sel, draw_ctx->clip_area, &sel_area);
 1164              		.loc 1 473 9 view .LVU323
 474:lvgl/src/widgets/lv_roller.c ****         if(area_ok) {
 1165              		.loc 1 474 9 view .LVU324
 474:lvgl/src/widgets/lv_roller.c ****         if(area_ok) {
 1166              		.loc 1 474 19 is_stmt 0 view .LVU325
 1167 0074 06AA     		add	r2, sp, #24
 1168 0076 A168     		ldr	r1, [r4, #8]
 1169 0078 08A8     		add	r0, sp, #32
 1170 007a FFF7FEFF 		bl	_lv_area_intersect
 1171              	.LVL143:
 475:lvgl/src/widgets/lv_roller.c ****             lv_obj_t * label = get_label(obj);
 1172              		.loc 1 475 9 is_stmt 1 view .LVU326
 475:lvgl/src/widgets/lv_roller.c ****             lv_obj_t * label = get_label(obj);
 1173              		.loc 1 475 11 is_stmt 0 view .LVU327
 1174 007e 0028     		cmp	r0, #0
 1175 0080 CDD0     		beq	.L47
 1176              	.LBB119:
 476:lvgl/src/widgets/lv_roller.c **** 
 1177              		.loc 1 476 13 is_stmt 1 view .LVU328
 476:lvgl/src/widgets/lv_roller.c **** 
 1178              		.loc 1 476 32 is_stmt 0 view .LVU329
 1179 0082 3046     		mov	r0, r6
 1180              	.LVL144:
 476:lvgl/src/widgets/lv_roller.c **** 
 1181              		.loc 1 476 32 view .LVU330
 1182 0084 FFF7FEFF 		bl	get_label
 1183              	.LVL145:
 1184 0088 0746     		mov	r7, r0
 1185              	.LVL146:
ARM GAS  C:\usertemp\cc2TdG63.s 			page 55


 479:lvgl/src/widgets/lv_roller.c ****             lv_txt_get_size(&res_p, lv_label_get_text(label), label_dsc.font, label_dsc.letter_spac
 1186              		.loc 1 479 13 is_stmt 1 view .LVU331
 480:lvgl/src/widgets/lv_roller.c ****                             lv_obj_get_width(obj), LV_TEXT_FLAG_EXPAND);
 1187              		.loc 1 480 13 view .LVU332
 480:lvgl/src/widgets/lv_roller.c ****                             lv_obj_get_width(obj), LV_TEXT_FLAG_EXPAND);
 1188              		.loc 1 480 37 is_stmt 0 view .LVU333
 1189 008a FFF7FEFF 		bl	lv_label_get_text
 1190              	.LVL147:
 480:lvgl/src/widgets/lv_roller.c ****                             lv_obj_get_width(obj), LV_TEXT_FLAG_EXPAND);
 1191              		.loc 1 480 37 view .LVU334
 1192 008e 0546     		mov	r5, r0
 1193              	.LVL148:
 480:lvgl/src/widgets/lv_roller.c ****                             lv_obj_get_width(obj), LV_TEXT_FLAG_EXPAND);
 1194              		.loc 1 480 13 discriminator 1 view .LVU335
 1195 0090 DDF83080 		ldr	r8, [sp, #48]
 1196 0094 BDF94490 		ldrsh	r9, [sp, #68]
 1197 0098 BDF942A0 		ldrsh	r10, [sp, #66]
 1198 009c 3046     		mov	r0, r6
 1199 009e FFF7FEFF 		bl	lv_obj_get_width
 1200              	.LVL149:
 480:lvgl/src/widgets/lv_roller.c ****                             lv_obj_get_width(obj), LV_TEXT_FLAG_EXPAND);
 1201              		.loc 1 480 13 discriminator 2 view .LVU336
 1202 00a2 0223     		movs	r3, #2
 1203 00a4 0293     		str	r3, [sp, #8]
 1204 00a6 0190     		str	r0, [sp, #4]
 1205 00a8 CDF800A0 		str	r10, [sp]
 1206 00ac 4B46     		mov	r3, r9
 1207 00ae 4246     		mov	r2, r8
 1208 00b0 2946     		mov	r1, r5
 1209 00b2 05A8     		add	r0, sp, #20
 1210 00b4 FFF7FEFF 		bl	lv_txt_get_size
 1211              	.LVL150:
 484:lvgl/src/widgets/lv_roller.c ****             int32_t label_y_prop = label->coords.y1 - (roller_h / 2 +
 1212              		.loc 1 484 13 is_stmt 1 view .LVU337
 484:lvgl/src/widgets/lv_roller.c ****             int32_t label_y_prop = label->coords.y1 - (roller_h / 2 +
 1213              		.loc 1 484 35 is_stmt 0 view .LVU338
 1214 00b8 3046     		mov	r0, r6
 1215 00ba FFF7FEFF 		bl	lv_obj_get_height
 1216              	.LVL151:
 485:lvgl/src/widgets/lv_roller.c ****                                                        obj->coords.y1); /*label offset from the mid
 1217              		.loc 1 485 13 is_stmt 1 view .LVU339
 485:lvgl/src/widgets/lv_roller.c ****                                                        obj->coords.y1); /*label offset from the mid
 1218              		.loc 1 485 49 is_stmt 0 view .LVU340
 1219 00be B7F91680 		ldrsh	r8, [r7, #22]
 485:lvgl/src/widgets/lv_roller.c ****                                                        obj->coords.y1); /*label offset from the mid
 1220              		.loc 1 485 65 view .LVU341
 1221 00c2 0546     		mov	r5, r0
 1222 00c4 0028     		cmp	r0, #0
 1223 00c6 6BDB     		blt	.L56
 1224              	.L51:
 1225 00c8 45F34F05 		sbfx	r5, r5, #1, #16
 486:lvgl/src/widgets/lv_roller.c ****             label_y_prop = (label_y_prop * 16384) / lv_obj_get_height(
 1226              		.loc 1 486 67 view .LVU342
 1227 00cc B6F91630 		ldrsh	r3, [r6, #22]
 485:lvgl/src/widgets/lv_roller.c ****                                                        obj->coords.y1); /*label offset from the mid
 1228              		.loc 1 485 69 view .LVU343
 1229 00d0 2B44     		add	r3, r3, r5
ARM GAS  C:\usertemp\cc2TdG63.s 			page 56


 485:lvgl/src/widgets/lv_roller.c ****                                                        obj->coords.y1); /*label offset from the mid
 1230              		.loc 1 485 21 view .LVU344
 1231 00d2 A8EB0308 		sub	r8, r8, r3
 1232              	.LVL152:
 487:lvgl/src/widgets/lv_roller.c ****                                label); /*Proportional position from the middle line (upscaled by <<
 1233              		.loc 1 487 13 is_stmt 1 view .LVU345
 487:lvgl/src/widgets/lv_roller.c ****                                label); /*Proportional position from the middle line (upscaled by <<
 1234              		.loc 1 487 42 is_stmt 0 view .LVU346
 1235 00d6 4FEA8838 		lsl	r8, r8, #14
 1236              	.LVL153:
 487:lvgl/src/widgets/lv_roller.c ****                                label); /*Proportional position from the middle line (upscaled by <<
 1237              		.loc 1 487 53 view .LVU347
 1238 00da 3846     		mov	r0, r7
 1239              	.LVL154:
 487:lvgl/src/widgets/lv_roller.c ****                                label); /*Proportional position from the middle line (upscaled by <<
 1240              		.loc 1 487 53 view .LVU348
 1241 00dc FFF7FEFF 		bl	lv_obj_get_height
 1242              	.LVL155:
 487:lvgl/src/widgets/lv_roller.c ****                                label); /*Proportional position from the middle line (upscaled by <<
 1243              		.loc 1 487 26 discriminator 1 view .LVU349
 1244 00e0 98FBF0F8 		sdiv	r8, r8, r0
 1245              	.LVL156:
 491:lvgl/src/widgets/lv_roller.c ****             lv_coord_t corr = (label_dsc.font->line_height - normal_label_font->line_height) / 2;
 1246              		.loc 1 491 13 is_stmt 1 view .LVU350
 1247              	.LBB120:
 1248              	.LBI120:
 451:lvgl/src/widgets/../core/lv_obj_style_gen.h **** {
 1249              		.loc 2 451 33 view .LVU351
 1250              	.LBB121:
 453:lvgl/src/widgets/../core/lv_obj_style_gen.h ****     return (const lv_font_t *)v.ptr;
 1251              		.loc 2 453 5 view .LVU352
 453:lvgl/src/widgets/../core/lv_obj_style_gen.h ****     return (const lv_font_t *)v.ptr;
 1252              		.loc 2 453 26 is_stmt 0 view .LVU353
 1253 00e4 41F25942 		movw	r2, #5209
 1254 00e8 0021     		movs	r1, #0
 1255 00ea 3046     		mov	r0, r6
 1256 00ec FFF7FEFF 		bl	lv_obj_get_style_prop
 1257              	.LVL157:
 454:lvgl/src/widgets/../core/lv_obj_style_gen.h **** }
 1258              		.loc 2 454 5 is_stmt 1 view .LVU354
 454:lvgl/src/widgets/../core/lv_obj_style_gen.h **** }
 1259              		.loc 2 454 5 is_stmt 0 view .LVU355
 1260              	.LBE121:
 1261              	.LBE120:
 492:lvgl/src/widgets/lv_roller.c **** 
 1262              		.loc 1 492 13 is_stmt 1 view .LVU356
 492:lvgl/src/widgets/lv_roller.c **** 
 1263              		.loc 1 492 41 is_stmt 0 view .LVU357
 1264 00f0 0C9B     		ldr	r3, [sp, #48]
 492:lvgl/src/widgets/lv_roller.c **** 
 1265              		.loc 1 492 46 view .LVU358
 1266 00f2 B3F90820 		ldrsh	r2, [r3, #8]
 492:lvgl/src/widgets/lv_roller.c **** 
 1267              		.loc 1 492 79 view .LVU359
 1268 00f6 B0F90830 		ldrsh	r3, [r0, #8]
 492:lvgl/src/widgets/lv_roller.c **** 
 1269              		.loc 1 492 94 view .LVU360
ARM GAS  C:\usertemp\cc2TdG63.s 			page 57


 1270 00fa D21A     		subs	r2, r2, r3
 1271 00fc 52D4     		bmi	.L57
 1272              	.L52:
 492:lvgl/src/widgets/lv_roller.c **** 
 1273              		.loc 1 492 24 view .LVU361
 1274 00fe 42F34F01 		sbfx	r1, r2, #1, #16
 1275              	.LVL158:
 495:lvgl/src/widgets/lv_roller.c ****             int32_t label_sel_y = roller_h / 2 + obj->coords.y1;
 1276              		.loc 1 495 13 is_stmt 1 view .LVU362
 495:lvgl/src/widgets/lv_roller.c ****             int32_t label_sel_y = roller_h / 2 + obj->coords.y1;
 1277              		.loc 1 495 18 is_stmt 0 view .LVU363
 1278 0102 BDF81630 		ldrh	r3, [sp, #22]
 495:lvgl/src/widgets/lv_roller.c ****             int32_t label_sel_y = roller_h / 2 + obj->coords.y1;
 1279              		.loc 1 495 21 view .LVU364
 1280 0106 A3EB6203 		sub	r3, r3, r2, asr #1
 1281 010a 1BB2     		sxth	r3, r3
 1282 010c ADF81630 		strh	r3, [sp, #22]	@ movhi
 496:lvgl/src/widgets/lv_roller.c ****             label_sel_y += (label_y_prop * res_p.y) >> 14;
 1283              		.loc 1 496 13 is_stmt 1 view .LVU365
 496:lvgl/src/widgets/lv_roller.c ****             label_sel_y += (label_y_prop * res_p.y) >> 14;
 1284              		.loc 1 496 61 is_stmt 0 view .LVU366
 1285 0110 B6F91620 		ldrsh	r2, [r6, #22]
 496:lvgl/src/widgets/lv_roller.c ****             label_sel_y += (label_y_prop * res_p.y) >> 14;
 1286              		.loc 1 496 21 view .LVU367
 1287 0114 1544     		add	r5, r5, r2
 1288              	.LVL159:
 497:lvgl/src/widgets/lv_roller.c ****             label_sel_y -= corr;
 1289              		.loc 1 497 13 is_stmt 1 view .LVU368
 497:lvgl/src/widgets/lv_roller.c ****             label_sel_y -= corr;
 1290              		.loc 1 497 42 is_stmt 0 view .LVU369
 1291 0116 08FB03F3 		mul	r3, r8, r3
 497:lvgl/src/widgets/lv_roller.c ****             label_sel_y -= corr;
 1292              		.loc 1 497 25 view .LVU370
 1293 011a 05EBA335 		add	r5, r5, r3, asr #14
 1294              	.LVL160:
 498:lvgl/src/widgets/lv_roller.c **** 
 1295              		.loc 1 498 13 is_stmt 1 view .LVU371
 498:lvgl/src/widgets/lv_roller.c **** 
 1296              		.loc 1 498 25 is_stmt 0 view .LVU372
 1297 011e 6D1A     		subs	r5, r5, r1
 1298              	.LVL161:
 500:lvgl/src/widgets/lv_roller.c ****             lv_coord_t pleft = lv_obj_get_style_pad_left(obj, LV_PART_MAIN);
 1299              		.loc 1 500 13 is_stmt 1 view .LVU373
 1300              	.LBB122:
 1301              	.LBI122:
 241:lvgl/src/widgets/../core/lv_obj_style_gen.h **** {
 1302              		.loc 2 241 26 view .LVU374
 1303              	.LBB123:
 243:lvgl/src/widgets/../core/lv_obj_style_gen.h ****     return (lv_coord_t)v.num;
 1304              		.loc 2 243 5 view .LVU375
 243:lvgl/src/widgets/../core/lv_obj_style_gen.h ****     return (lv_coord_t)v.num;
 1305              		.loc 2 243 26 is_stmt 0 view .LVU376
 1306 0120 41F23202 		movw	r2, #4146
 1307 0124 0021     		movs	r1, #0
 1308              	.LVL162:
 243:lvgl/src/widgets/../core/lv_obj_style_gen.h ****     return (lv_coord_t)v.num;
 1309              		.loc 2 243 26 view .LVU377
ARM GAS  C:\usertemp\cc2TdG63.s 			page 58


 1310 0126 3046     		mov	r0, r6
 1311              	.LVL163:
 243:lvgl/src/widgets/../core/lv_obj_style_gen.h ****     return (lv_coord_t)v.num;
 1312              		.loc 2 243 26 view .LVU378
 1313 0128 FFF7FEFF 		bl	lv_obj_get_style_prop
 1314              	.LVL164:
 1315 012c 8046     		mov	r8, r0
 1316              	.LVL165:
 244:lvgl/src/widgets/../core/lv_obj_style_gen.h **** }
 1317              		.loc 2 244 5 is_stmt 1 view .LVU379
 244:lvgl/src/widgets/../core/lv_obj_style_gen.h **** }
 1318              		.loc 2 244 5 is_stmt 0 view .LVU380
 1319              	.LBE123:
 1320              	.LBE122:
 501:lvgl/src/widgets/lv_roller.c ****             lv_coord_t pright = lv_obj_get_style_pad_right(obj, LV_PART_MAIN);
 1321              		.loc 1 501 13 is_stmt 1 view .LVU381
 1322              	.LBB124:
 1323              	.LBI124:
 103:lvgl/src/widgets/../core/lv_obj_style_gen.h **** {
 1324              		.loc 2 103 26 view .LVU382
 1325              	.LBB125:
 105:lvgl/src/widgets/../core/lv_obj_style_gen.h ****     return (lv_coord_t)v.num;
 1326              		.loc 2 105 5 view .LVU383
 105:lvgl/src/widgets/../core/lv_obj_style_gen.h ****     return (lv_coord_t)v.num;
 1327              		.loc 2 105 26 is_stmt 0 view .LVU384
 1328 012e 41F61202 		movw	r2, #6162
 1329 0132 0021     		movs	r1, #0
 1330 0134 3046     		mov	r0, r6
 1331 0136 FFF7FEFF 		bl	lv_obj_get_style_prop
 1332              	.LVL166:
 1333 013a 8146     		mov	r9, r0
 106:lvgl/src/widgets/../core/lv_obj_style_gen.h **** }
 1334              		.loc 2 106 5 is_stmt 1 view .LVU385
 1335              	.LVL167:
 106:lvgl/src/widgets/../core/lv_obj_style_gen.h **** }
 1336              		.loc 2 106 5 is_stmt 0 view .LVU386
 1337              	.LBE125:
 1338              	.LBE124:
 502:lvgl/src/widgets/lv_roller.c **** 
 1339              		.loc 1 502 13 is_stmt 1 view .LVU387
 1340              	.LBB126:
 1341              	.LBI126:
 109:lvgl/src/widgets/../core/lv_obj_style_gen.h **** {
 1342              		.loc 2 109 26 view .LVU388
 1343              	.LBB127:
 111:lvgl/src/widgets/../core/lv_obj_style_gen.h ****     return (lv_coord_t)v.num;
 1344              		.loc 2 111 5 view .LVU389
 111:lvgl/src/widgets/../core/lv_obj_style_gen.h ****     return (lv_coord_t)v.num;
 1345              		.loc 2 111 26 is_stmt 0 view .LVU390
 1346 013c 41F61302 		movw	r2, #6163
 1347 0140 0021     		movs	r1, #0
 1348 0142 3046     		mov	r0, r6
 1349 0144 FFF7FEFF 		bl	lv_obj_get_style_prop
 1350              	.LVL168:
 112:lvgl/src/widgets/../core/lv_obj_style_gen.h **** }
 1351              		.loc 2 112 5 is_stmt 1 view .LVU391
 112:lvgl/src/widgets/../core/lv_obj_style_gen.h **** }
ARM GAS  C:\usertemp\cc2TdG63.s 			page 59


 1352              		.loc 2 112 5 is_stmt 0 view .LVU392
 1353              	.LBE127:
 1354              	.LBE126:
 505:lvgl/src/widgets/lv_roller.c ****             label_sel_area.x1 = obj->coords.x1 + pleft + bwidth;
 1355              		.loc 1 505 13 is_stmt 1 view .LVU393
 506:lvgl/src/widgets/lv_roller.c ****             label_sel_area.y1 = label_sel_y;
 1356              		.loc 1 506 13 view .LVU394
 506:lvgl/src/widgets/lv_roller.c ****             label_sel_area.y1 = label_sel_y;
 1357              		.loc 1 506 44 is_stmt 0 view .LVU395
 1358 0148 B38A     		ldrh	r3, [r6, #20]
 506:lvgl/src/widgets/lv_roller.c ****             label_sel_area.y1 = label_sel_y;
 1359              		.loc 1 506 48 view .LVU396
 1360 014a 4B44     		add	r3, r3, r9
 506:lvgl/src/widgets/lv_roller.c ****             label_sel_area.y1 = label_sel_y;
 1361              		.loc 1 506 56 view .LVU397
 1362 014c 1FFA88F2 		uxth	r2, r8
 1363 0150 12FA83F3 		uxtah	r3, r2, r3
 506:lvgl/src/widgets/lv_roller.c ****             label_sel_area.y1 = label_sel_y;
 1364              		.loc 1 506 31 view .LVU398
 1365 0154 ADF82830 		strh	r3, [sp, #40]	@ movhi
 507:lvgl/src/widgets/lv_roller.c ****             label_sel_area.x2 = obj->coords.x2 - pright - bwidth;
 1366              		.loc 1 507 13 is_stmt 1 view .LVU399
 507:lvgl/src/widgets/lv_roller.c ****             label_sel_area.x2 = obj->coords.x2 - pright - bwidth;
 1367              		.loc 1 507 31 is_stmt 0 view .LVU400
 1368 0158 ADF82A50 		strh	r5, [sp, #42]	@ movhi
 508:lvgl/src/widgets/lv_roller.c ****             label_sel_area.y2 = label_sel_area.y1 + res_p.y;
 1369              		.loc 1 508 13 is_stmt 1 view .LVU401
 508:lvgl/src/widgets/lv_roller.c ****             label_sel_area.y2 = label_sel_area.y1 + res_p.y;
 1370              		.loc 1 508 44 is_stmt 0 view .LVU402
 1371 015c 338B     		ldrh	r3, [r6, #24]
 508:lvgl/src/widgets/lv_roller.c ****             label_sel_area.y2 = label_sel_area.y1 + res_p.y;
 1372              		.loc 1 508 48 view .LVU403
 1373 015e 181A     		subs	r0, r3, r0
 1374              	.LVL169:
 508:lvgl/src/widgets/lv_roller.c ****             label_sel_area.y2 = label_sel_area.y1 + res_p.y;
 1375              		.loc 1 508 48 view .LVU404
 1376 0160 80B2     		uxth	r0, r0
 508:lvgl/src/widgets/lv_roller.c ****             label_sel_area.y2 = label_sel_area.y1 + res_p.y;
 1377              		.loc 1 508 57 view .LVU405
 1378 0162 801A     		subs	r0, r0, r2
 508:lvgl/src/widgets/lv_roller.c ****             label_sel_area.y2 = label_sel_area.y1 + res_p.y;
 1379              		.loc 1 508 31 view .LVU406
 1380 0164 ADF82C00 		strh	r0, [sp, #44]	@ movhi
 509:lvgl/src/widgets/lv_roller.c **** 
 1381              		.loc 1 509 13 is_stmt 1 view .LVU407
 509:lvgl/src/widgets/lv_roller.c **** 
 1382              		.loc 1 509 58 is_stmt 0 view .LVU408
 1383 0168 BDF81630 		ldrh	r3, [sp, #22]
 509:lvgl/src/widgets/lv_roller.c **** 
 1384              		.loc 1 509 51 view .LVU409
 1385 016c 13FA85F5 		uxtah	r5, r3, r5
 1386              	.LVL170:
 509:lvgl/src/widgets/lv_roller.c **** 
 1387              		.loc 1 509 31 view .LVU410
 1388 0170 ADF82E50 		strh	r5, [sp, #46]	@ movhi
 511:lvgl/src/widgets/lv_roller.c ****             const lv_area_t * clip_area_ori = draw_ctx->clip_area;
 1389              		.loc 1 511 13 is_stmt 1 view .LVU411
ARM GAS  C:\usertemp\cc2TdG63.s 			page 60


 511:lvgl/src/widgets/lv_roller.c ****             const lv_area_t * clip_area_ori = draw_ctx->clip_area;
 1390              		.loc 1 511 22 is_stmt 0 view .LVU412
 1391 0174 9DF84D30 		ldrb	r3, [sp, #77]	@ zero_extendqisi2
 511:lvgl/src/widgets/lv_roller.c ****             const lv_area_t * clip_area_ori = draw_ctx->clip_area;
 1392              		.loc 1 511 28 view .LVU413
 1393 0178 43F00203 		orr	r3, r3, #2
 1394 017c 8DF84D30 		strb	r3, [sp, #77]
 512:lvgl/src/widgets/lv_roller.c ****             draw_ctx->clip_area = &mask_sel;
 1395              		.loc 1 512 13 is_stmt 1 view .LVU414
 512:lvgl/src/widgets/lv_roller.c ****             draw_ctx->clip_area = &mask_sel;
 1396              		.loc 1 512 31 is_stmt 0 view .LVU415
 1397 0180 A568     		ldr	r5, [r4, #8]
 1398              	.LVL171:
 513:lvgl/src/widgets/lv_roller.c ****             lv_draw_label(draw_ctx, &label_dsc, &label_sel_area, lv_label_get_text(label), NULL);
 1399              		.loc 1 513 13 is_stmt 1 view .LVU416
 513:lvgl/src/widgets/lv_roller.c ****             lv_draw_label(draw_ctx, &label_dsc, &label_sel_area, lv_label_get_text(label), NULL);
 1400              		.loc 1 513 33 is_stmt 0 view .LVU417
 1401 0182 08AB     		add	r3, sp, #32
 1402 0184 A360     		str	r3, [r4, #8]
 514:lvgl/src/widgets/lv_roller.c ****             draw_ctx->clip_area = clip_area_ori;
 1403              		.loc 1 514 13 is_stmt 1 view .LVU418
 514:lvgl/src/widgets/lv_roller.c ****             draw_ctx->clip_area = clip_area_ori;
 1404              		.loc 1 514 66 is_stmt 0 view .LVU419
 1405 0186 3846     		mov	r0, r7
 1406 0188 FFF7FEFF 		bl	lv_label_get_text
 1407              	.LVL172:
 1408 018c 0346     		mov	r3, r0
 514:lvgl/src/widgets/lv_roller.c ****             draw_ctx->clip_area = clip_area_ori;
 1409              		.loc 1 514 13 discriminator 1 view .LVU420
 1410 018e 0022     		movs	r2, #0
 1411 0190 0092     		str	r2, [sp]
 1412 0192 0AAA     		add	r2, sp, #40
 1413 0194 0CA9     		add	r1, sp, #48
 1414 0196 2046     		mov	r0, r4
 1415 0198 FFF7FEFF 		bl	lv_draw_label
 1416              	.LVL173:
 515:lvgl/src/widgets/lv_roller.c ****         }
 1417              		.loc 1 515 13 is_stmt 1 view .LVU421
 515:lvgl/src/widgets/lv_roller.c ****         }
 1418              		.loc 1 515 33 is_stmt 0 view .LVU422
 1419 019c A560     		str	r5, [r4, #8]
 1420              	.LBE119:
 1421              	.LBE118:
 518:lvgl/src/widgets/lv_roller.c **** 
 1422              		.loc 1 518 1 view .LVU423
 1423 019e 3EE7     		b	.L47
 1424              	.LVL174:
 1425              	.L56:
 1426              	.LBB129:
 1427              	.LBB128:
 485:lvgl/src/widgets/lv_roller.c ****                                                        obj->coords.y1); /*label offset from the mid
 1428              		.loc 1 485 65 view .LVU424
 1429 01a0 451C     		adds	r5, r0, #1
 1430 01a2 91E7     		b	.L51
 1431              	.LVL175:
 1432              	.L57:
 492:lvgl/src/widgets/lv_roller.c **** 
ARM GAS  C:\usertemp\cc2TdG63.s 			page 61


 1433              		.loc 1 492 94 view .LVU425
 1434 01a4 0132     		adds	r2, r2, #1
 1435 01a6 AAE7     		b	.L52
 1436              	.LBE128:
 1437              	.LBE129:
 1438              		.cfi_endproc
 1439              	.LFE167:
 1441              		.section	.text.draw_label,"ax",%progbits
 1442              		.align	1
 1443              		.syntax unified
 1444              		.thumb
 1445              		.thumb_func
 1447              	draw_label:
 1448              	.LVL176:
 1449              	.LFB168:
 521:lvgl/src/widgets/lv_roller.c ****     /* Split the drawing of the label into  an upper (above the selected area)
 1450              		.loc 1 521 1 is_stmt 1 view -0
 1451              		.cfi_startproc
 1452              		@ args = 0, pretend = 0, frame = 56
 1453              		@ frame_needed = 0, uses_anonymous_args = 0
 521:lvgl/src/widgets/lv_roller.c ****     /* Split the drawing of the label into  an upper (above the selected area)
 1454              		.loc 1 521 1 is_stmt 0 view .LVU427
 1455 0000 2DE9F041 		push	{r4, r5, r6, r7, r8, lr}
 1456              	.LCFI20:
 1457              		.cfi_def_cfa_offset 24
 1458              		.cfi_offset 4, -24
 1459              		.cfi_offset 5, -20
 1460              		.cfi_offset 6, -16
 1461              		.cfi_offset 7, -12
 1462              		.cfi_offset 8, -8
 1463              		.cfi_offset 14, -4
 1464 0004 90B0     		sub	sp, sp, #64
 1465              	.LCFI21:
 1466              		.cfi_def_cfa_offset 88
 1467 0006 0446     		mov	r4, r0
 524:lvgl/src/widgets/lv_roller.c ****     lv_obj_t * roller = lv_obj_get_parent(label_obj);
 1468              		.loc 1 524 5 is_stmt 1 view .LVU428
 524:lvgl/src/widgets/lv_roller.c ****     lv_obj_t * roller = lv_obj_get_parent(label_obj);
 1469              		.loc 1 524 28 is_stmt 0 view .LVU429
 1470 0008 FFF7FEFF 		bl	lv_event_get_target
 1471              	.LVL177:
 524:lvgl/src/widgets/lv_roller.c ****     lv_obj_t * roller = lv_obj_get_parent(label_obj);
 1472              		.loc 1 524 28 view .LVU430
 1473 000c 0646     		mov	r6, r0
 1474              	.LVL178:
 525:lvgl/src/widgets/lv_roller.c ****     lv_draw_label_dsc_t label_draw_dsc;
 1475              		.loc 1 525 5 is_stmt 1 view .LVU431
 525:lvgl/src/widgets/lv_roller.c ****     lv_draw_label_dsc_t label_draw_dsc;
 1476              		.loc 1 525 25 is_stmt 0 view .LVU432
 1477 000e FFF7FEFF 		bl	lv_obj_get_parent
 1478              	.LVL179:
 525:lvgl/src/widgets/lv_roller.c ****     lv_draw_label_dsc_t label_draw_dsc;
 1479              		.loc 1 525 25 view .LVU433
 1480 0012 0546     		mov	r5, r0
 1481              	.LVL180:
 526:lvgl/src/widgets/lv_roller.c ****     lv_draw_label_dsc_init(&label_draw_dsc);
 1482              		.loc 1 526 5 is_stmt 1 view .LVU434
ARM GAS  C:\usertemp\cc2TdG63.s 			page 62


 527:lvgl/src/widgets/lv_roller.c ****     lv_obj_init_draw_label_dsc(roller, LV_PART_MAIN, &label_draw_dsc);
 1483              		.loc 1 527 5 view .LVU435
 1484 0014 08A8     		add	r0, sp, #32
 1485              	.LVL181:
 527:lvgl/src/widgets/lv_roller.c ****     lv_obj_init_draw_label_dsc(roller, LV_PART_MAIN, &label_draw_dsc);
 1486              		.loc 1 527 5 is_stmt 0 view .LVU436
 1487 0016 FFF7FEFF 		bl	lv_draw_label_dsc_init
 1488              	.LVL182:
 528:lvgl/src/widgets/lv_roller.c ****     lv_draw_ctx_t * draw_ctx = lv_event_get_draw_ctx(e);
 1489              		.loc 1 528 5 is_stmt 1 view .LVU437
 1490 001a 08AA     		add	r2, sp, #32
 1491 001c 0021     		movs	r1, #0
 1492 001e 2846     		mov	r0, r5
 1493 0020 FFF7FEFF 		bl	lv_obj_init_draw_label_dsc
 1494              	.LVL183:
 529:lvgl/src/widgets/lv_roller.c **** 
 1495              		.loc 1 529 5 view .LVU438
 529:lvgl/src/widgets/lv_roller.c **** 
 1496              		.loc 1 529 32 is_stmt 0 view .LVU439
 1497 0024 2046     		mov	r0, r4
 1498 0026 FFF7FEFF 		bl	lv_event_get_draw_ctx
 1499              	.LVL184:
 1500 002a 0446     		mov	r4, r0
 1501              	.LVL185:
 534:lvgl/src/widgets/lv_roller.c ****     lv_area_t roller_clip_area;
 1502              		.loc 1 534 5 is_stmt 1 view .LVU440
 534:lvgl/src/widgets/lv_roller.c ****     lv_area_t roller_clip_area;
 1503              		.loc 1 534 23 is_stmt 0 view .LVU441
 1504 002c 8768     		ldr	r7, [r0, #8]
 1505              	.LVL186:
 535:lvgl/src/widgets/lv_roller.c ****     if(!_lv_area_intersect(&roller_clip_area, draw_ctx->clip_area, &roller->coords)) return;
 1506              		.loc 1 535 5 is_stmt 1 view .LVU442
 536:lvgl/src/widgets/lv_roller.c ****     draw_ctx->clip_area = &roller_clip_area;
 1507              		.loc 1 536 5 view .LVU443
 536:lvgl/src/widgets/lv_roller.c ****     draw_ctx->clip_area = &roller_clip_area;
 1508              		.loc 1 536 9 is_stmt 0 view .LVU444
 1509 002e 05F11402 		add	r2, r5, #20
 1510 0032 3946     		mov	r1, r7
 1511 0034 06A8     		add	r0, sp, #24
 1512              	.LVL187:
 536:lvgl/src/widgets/lv_roller.c ****     draw_ctx->clip_area = &roller_clip_area;
 1513              		.loc 1 536 9 view .LVU445
 1514 0036 FFF7FEFF 		bl	_lv_area_intersect
 1515              	.LVL188:
 536:lvgl/src/widgets/lv_roller.c ****     draw_ctx->clip_area = &roller_clip_area;
 1516              		.loc 1 536 7 discriminator 1 view .LVU446
 1517 003a 10B9     		cbnz	r0, .L64
 1518              	.LVL189:
 1519              	.L58:
 566:lvgl/src/widgets/lv_roller.c **** 
 1520              		.loc 1 566 1 view .LVU447
 1521 003c 10B0     		add	sp, sp, #64
 1522              	.LCFI22:
 1523              		.cfi_remember_state
 1524              		.cfi_def_cfa_offset 24
 1525              		@ sp needed
 1526 003e BDE8F081 		pop	{r4, r5, r6, r7, r8, pc}
ARM GAS  C:\usertemp\cc2TdG63.s 			page 63


 1527              	.LVL190:
 1528              	.L64:
 1529              	.LCFI23:
 1530              		.cfi_restore_state
 537:lvgl/src/widgets/lv_roller.c **** 
 1531              		.loc 1 537 5 is_stmt 1 view .LVU448
 537:lvgl/src/widgets/lv_roller.c **** 
 1532              		.loc 1 537 25 is_stmt 0 view .LVU449
 1533 0042 06AB     		add	r3, sp, #24
 1534 0044 A360     		str	r3, [r4, #8]
 539:lvgl/src/widgets/lv_roller.c ****     get_sel_area(roller, &sel_area);
 1535              		.loc 1 539 5 is_stmt 1 view .LVU450
 540:lvgl/src/widgets/lv_roller.c **** 
 1536              		.loc 1 540 5 view .LVU451
 1537 0046 04A9     		add	r1, sp, #16
 1538 0048 2846     		mov	r0, r5
 1539 004a FFF7FEFF 		bl	get_sel_area
 1540              	.LVL191:
 542:lvgl/src/widgets/lv_roller.c ****     clip2.x1 = label_obj->coords.x1;
 1541              		.loc 1 542 5 view .LVU452
 543:lvgl/src/widgets/lv_roller.c ****     clip2.y1 = label_obj->coords.y1;
 1542              		.loc 1 543 5 view .LVU453
 543:lvgl/src/widgets/lv_roller.c ****     clip2.y1 = label_obj->coords.y1;
 1543              		.loc 1 543 33 is_stmt 0 view .LVU454
 1544 004e B6F91430 		ldrsh	r3, [r6, #20]
 543:lvgl/src/widgets/lv_roller.c ****     clip2.y1 = label_obj->coords.y1;
 1545              		.loc 1 543 14 view .LVU455
 1546 0052 ADF80830 		strh	r3, [sp, #8]	@ movhi
 544:lvgl/src/widgets/lv_roller.c ****     clip2.x2 = label_obj->coords.x2;
 1547              		.loc 1 544 5 is_stmt 1 view .LVU456
 544:lvgl/src/widgets/lv_roller.c ****     clip2.x2 = label_obj->coords.x2;
 1548              		.loc 1 544 33 is_stmt 0 view .LVU457
 1549 0056 B6F91630 		ldrsh	r3, [r6, #22]
 544:lvgl/src/widgets/lv_roller.c ****     clip2.x2 = label_obj->coords.x2;
 1550              		.loc 1 544 14 view .LVU458
 1551 005a ADF80A30 		strh	r3, [sp, #10]	@ movhi
 545:lvgl/src/widgets/lv_roller.c ****     clip2.y2 = sel_area.y1;
 1552              		.loc 1 545 5 is_stmt 1 view .LVU459
 545:lvgl/src/widgets/lv_roller.c ****     clip2.y2 = sel_area.y1;
 1553              		.loc 1 545 33 is_stmt 0 view .LVU460
 1554 005e B6F91830 		ldrsh	r3, [r6, #24]
 545:lvgl/src/widgets/lv_roller.c ****     clip2.y2 = sel_area.y1;
 1555              		.loc 1 545 14 view .LVU461
 1556 0062 ADF80C30 		strh	r3, [sp, #12]	@ movhi
 546:lvgl/src/widgets/lv_roller.c ****     if(_lv_area_intersect(&clip2, draw_ctx->clip_area, &clip2)) {
 1557              		.loc 1 546 5 is_stmt 1 view .LVU462
 546:lvgl/src/widgets/lv_roller.c ****     if(_lv_area_intersect(&clip2, draw_ctx->clip_area, &clip2)) {
 1558              		.loc 1 546 24 is_stmt 0 view .LVU463
 1559 0066 BDF91230 		ldrsh	r3, [sp, #18]
 546:lvgl/src/widgets/lv_roller.c ****     if(_lv_area_intersect(&clip2, draw_ctx->clip_area, &clip2)) {
 1560              		.loc 1 546 14 view .LVU464
 1561 006a ADF80E30 		strh	r3, [sp, #14]	@ movhi
 547:lvgl/src/widgets/lv_roller.c ****         const lv_area_t * clip_area_ori2 = draw_ctx->clip_area;
 1562              		.loc 1 547 5 is_stmt 1 view .LVU465
 547:lvgl/src/widgets/lv_roller.c ****         const lv_area_t * clip_area_ori2 = draw_ctx->clip_area;
 1563              		.loc 1 547 8 is_stmt 0 view .LVU466
 1564 006e 02AA     		add	r2, sp, #8
ARM GAS  C:\usertemp\cc2TdG63.s 			page 64


 1565 0070 A168     		ldr	r1, [r4, #8]
 1566 0072 1046     		mov	r0, r2
 1567 0074 FFF7FEFF 		bl	_lv_area_intersect
 1568              	.LVL192:
 547:lvgl/src/widgets/lv_roller.c ****         const lv_area_t * clip_area_ori2 = draw_ctx->clip_area;
 1569              		.loc 1 547 7 discriminator 1 view .LVU467
 1570 0078 B8B9     		cbnz	r0, .L65
 1571              	.LVL193:
 1572              	.L61:
 554:lvgl/src/widgets/lv_roller.c ****     clip2.y1 = sel_area.y2;
 1573              		.loc 1 554 5 is_stmt 1 view .LVU468
 554:lvgl/src/widgets/lv_roller.c ****     clip2.y1 = sel_area.y2;
 1574              		.loc 1 554 33 is_stmt 0 view .LVU469
 1575 007a B6F91430 		ldrsh	r3, [r6, #20]
 554:lvgl/src/widgets/lv_roller.c ****     clip2.y1 = sel_area.y2;
 1576              		.loc 1 554 14 view .LVU470
 1577 007e ADF80830 		strh	r3, [sp, #8]	@ movhi
 555:lvgl/src/widgets/lv_roller.c ****     clip2.x2 = label_obj->coords.x2;
 1578              		.loc 1 555 5 is_stmt 1 view .LVU471
 555:lvgl/src/widgets/lv_roller.c ****     clip2.x2 = label_obj->coords.x2;
 1579              		.loc 1 555 24 is_stmt 0 view .LVU472
 1580 0082 BDF91630 		ldrsh	r3, [sp, #22]
 555:lvgl/src/widgets/lv_roller.c ****     clip2.x2 = label_obj->coords.x2;
 1581              		.loc 1 555 14 view .LVU473
 1582 0086 ADF80A30 		strh	r3, [sp, #10]	@ movhi
 556:lvgl/src/widgets/lv_roller.c ****     clip2.y2 = label_obj->coords.y2;
 1583              		.loc 1 556 5 is_stmt 1 view .LVU474
 556:lvgl/src/widgets/lv_roller.c ****     clip2.y2 = label_obj->coords.y2;
 1584              		.loc 1 556 33 is_stmt 0 view .LVU475
 1585 008a B6F91830 		ldrsh	r3, [r6, #24]
 556:lvgl/src/widgets/lv_roller.c ****     clip2.y2 = label_obj->coords.y2;
 1586              		.loc 1 556 14 view .LVU476
 1587 008e ADF80C30 		strh	r3, [sp, #12]	@ movhi
 557:lvgl/src/widgets/lv_roller.c ****     if(_lv_area_intersect(&clip2, draw_ctx->clip_area, &clip2)) {
 1588              		.loc 1 557 5 is_stmt 1 view .LVU477
 557:lvgl/src/widgets/lv_roller.c ****     if(_lv_area_intersect(&clip2, draw_ctx->clip_area, &clip2)) {
 1589              		.loc 1 557 33 is_stmt 0 view .LVU478
 1590 0092 B6F91A30 		ldrsh	r3, [r6, #26]
 557:lvgl/src/widgets/lv_roller.c ****     if(_lv_area_intersect(&clip2, draw_ctx->clip_area, &clip2)) {
 1591              		.loc 1 557 14 view .LVU479
 1592 0096 ADF80E30 		strh	r3, [sp, #14]	@ movhi
 558:lvgl/src/widgets/lv_roller.c ****         const lv_area_t * clip_area_ori2 = draw_ctx->clip_area;
 1593              		.loc 1 558 5 is_stmt 1 view .LVU480
 558:lvgl/src/widgets/lv_roller.c ****         const lv_area_t * clip_area_ori2 = draw_ctx->clip_area;
 1594              		.loc 1 558 8 is_stmt 0 view .LVU481
 1595 009a 02AA     		add	r2, sp, #8
 1596 009c A168     		ldr	r1, [r4, #8]
 1597 009e 1046     		mov	r0, r2
 1598 00a0 FFF7FEFF 		bl	_lv_area_intersect
 1599              	.LVL194:
 558:lvgl/src/widgets/lv_roller.c ****         const lv_area_t * clip_area_ori2 = draw_ctx->clip_area;
 1600              		.loc 1 558 7 discriminator 1 view .LVU482
 1601 00a4 A8B9     		cbnz	r0, .L66
 1602              	.L62:
 565:lvgl/src/widgets/lv_roller.c **** }
 1603              		.loc 1 565 5 is_stmt 1 view .LVU483
 565:lvgl/src/widgets/lv_roller.c **** }
ARM GAS  C:\usertemp\cc2TdG63.s 			page 65


 1604              		.loc 1 565 25 is_stmt 0 view .LVU484
 1605 00a6 A760     		str	r7, [r4, #8]
 1606 00a8 C8E7     		b	.L58
 1607              	.LVL195:
 1608              	.L65:
 1609              	.LBB130:
 548:lvgl/src/widgets/lv_roller.c ****         draw_ctx->clip_area = &clip2;
 1610              		.loc 1 548 9 is_stmt 1 view .LVU485
 548:lvgl/src/widgets/lv_roller.c ****         draw_ctx->clip_area = &clip2;
 1611              		.loc 1 548 27 is_stmt 0 view .LVU486
 1612 00aa D4F80880 		ldr	r8, [r4, #8]
 1613              	.LVL196:
 549:lvgl/src/widgets/lv_roller.c ****         lv_draw_label(draw_ctx, &label_draw_dsc, &label_obj->coords, lv_label_get_text(label_obj), 
 1614              		.loc 1 549 9 is_stmt 1 view .LVU487
 549:lvgl/src/widgets/lv_roller.c ****         lv_draw_label(draw_ctx, &label_draw_dsc, &label_obj->coords, lv_label_get_text(label_obj), 
 1615              		.loc 1 549 29 is_stmt 0 view .LVU488
 1616 00ae 02AB     		add	r3, sp, #8
 1617 00b0 A360     		str	r3, [r4, #8]
 550:lvgl/src/widgets/lv_roller.c ****         draw_ctx->clip_area = clip_area_ori2;
 1618              		.loc 1 550 9 is_stmt 1 view .LVU489
 550:lvgl/src/widgets/lv_roller.c ****         draw_ctx->clip_area = clip_area_ori2;
 1619              		.loc 1 550 50 is_stmt 0 view .LVU490
 1620 00b2 06F11405 		add	r5, r6, #20
 1621              	.LVL197:
 550:lvgl/src/widgets/lv_roller.c ****         draw_ctx->clip_area = clip_area_ori2;
 1622              		.loc 1 550 70 view .LVU491
 1623 00b6 3046     		mov	r0, r6
 1624 00b8 FFF7FEFF 		bl	lv_label_get_text
 1625              	.LVL198:
 1626 00bc 0346     		mov	r3, r0
 550:lvgl/src/widgets/lv_roller.c ****         draw_ctx->clip_area = clip_area_ori2;
 1627              		.loc 1 550 9 discriminator 1 view .LVU492
 1628 00be 0022     		movs	r2, #0
 1629 00c0 0092     		str	r2, [sp]
 1630 00c2 2A46     		mov	r2, r5
 1631 00c4 08A9     		add	r1, sp, #32
 1632 00c6 2046     		mov	r0, r4
 1633 00c8 FFF7FEFF 		bl	lv_draw_label
 1634              	.LVL199:
 551:lvgl/src/widgets/lv_roller.c ****     }
 1635              		.loc 1 551 9 is_stmt 1 view .LVU493
 551:lvgl/src/widgets/lv_roller.c ****     }
 1636              		.loc 1 551 29 is_stmt 0 view .LVU494
 1637 00cc C4F80880 		str	r8, [r4, #8]
 1638 00d0 D3E7     		b	.L61
 1639              	.LVL200:
 1640              	.L66:
 551:lvgl/src/widgets/lv_roller.c ****     }
 1641              		.loc 1 551 29 view .LVU495
 1642              	.LBE130:
 1643              	.LBB131:
 559:lvgl/src/widgets/lv_roller.c ****         draw_ctx->clip_area = &clip2;
 1644              		.loc 1 559 9 is_stmt 1 view .LVU496
 559:lvgl/src/widgets/lv_roller.c ****         draw_ctx->clip_area = &clip2;
 1645              		.loc 1 559 27 is_stmt 0 view .LVU497
 1646 00d2 A568     		ldr	r5, [r4, #8]
 1647              	.LVL201:
ARM GAS  C:\usertemp\cc2TdG63.s 			page 66


 560:lvgl/src/widgets/lv_roller.c ****         lv_draw_label(draw_ctx, &label_draw_dsc, &label_obj->coords, lv_label_get_text(label_obj), 
 1648              		.loc 1 560 9 is_stmt 1 view .LVU498
 560:lvgl/src/widgets/lv_roller.c ****         lv_draw_label(draw_ctx, &label_draw_dsc, &label_obj->coords, lv_label_get_text(label_obj), 
 1649              		.loc 1 560 29 is_stmt 0 view .LVU499
 1650 00d4 02AB     		add	r3, sp, #8
 1651 00d6 A360     		str	r3, [r4, #8]
 561:lvgl/src/widgets/lv_roller.c ****         draw_ctx->clip_area = clip_area_ori2;
 1652              		.loc 1 561 9 is_stmt 1 view .LVU500
 561:lvgl/src/widgets/lv_roller.c ****         draw_ctx->clip_area = clip_area_ori2;
 1653              		.loc 1 561 50 is_stmt 0 view .LVU501
 1654 00d8 06F11408 		add	r8, r6, #20
 561:lvgl/src/widgets/lv_roller.c ****         draw_ctx->clip_area = clip_area_ori2;
 1655              		.loc 1 561 70 view .LVU502
 1656 00dc 3046     		mov	r0, r6
 1657 00de FFF7FEFF 		bl	lv_label_get_text
 1658              	.LVL202:
 1659 00e2 0346     		mov	r3, r0
 561:lvgl/src/widgets/lv_roller.c ****         draw_ctx->clip_area = clip_area_ori2;
 1660              		.loc 1 561 9 discriminator 1 view .LVU503
 1661 00e4 0022     		movs	r2, #0
 1662 00e6 0092     		str	r2, [sp]
 1663 00e8 4246     		mov	r2, r8
 1664 00ea 08A9     		add	r1, sp, #32
 1665 00ec 2046     		mov	r0, r4
 1666 00ee FFF7FEFF 		bl	lv_draw_label
 1667              	.LVL203:
 562:lvgl/src/widgets/lv_roller.c ****     }
 1668              		.loc 1 562 9 is_stmt 1 view .LVU504
 562:lvgl/src/widgets/lv_roller.c ****     }
 1669              		.loc 1 562 29 is_stmt 0 view .LVU505
 1670 00f2 A560     		str	r5, [r4, #8]
 1671 00f4 D7E7     		b	.L62
 1672              	.LBE131:
 1673              		.cfi_endproc
 1674              	.LFE168:
 1676              		.section	.text.lv_roller_label_event,"ax",%progbits
 1677              		.align	1
 1678              		.syntax unified
 1679              		.thumb
 1680              		.thumb_func
 1682              	lv_roller_label_event:
 1683              	.LVL204:
 1684              	.LFB166:
 416:lvgl/src/widgets/lv_roller.c ****     LV_UNUSED(class_p);
 1685              		.loc 1 416 1 is_stmt 1 view -0
 1686              		.cfi_startproc
 1687              		@ args = 0, pretend = 0, frame = 0
 1688              		@ frame_needed = 0, uses_anonymous_args = 0
 416:lvgl/src/widgets/lv_roller.c ****     LV_UNUSED(class_p);
 1689              		.loc 1 416 1 is_stmt 0 view .LVU507
 1690 0000 70B5     		push	{r4, r5, r6, lr}
 1691              	.LCFI24:
 1692              		.cfi_def_cfa_offset 16
 1693              		.cfi_offset 4, -16
 1694              		.cfi_offset 5, -12
 1695              		.cfi_offset 6, -8
 1696              		.cfi_offset 14, -4
ARM GAS  C:\usertemp\cc2TdG63.s 			page 67


 1697 0002 0D46     		mov	r5, r1
 417:lvgl/src/widgets/lv_roller.c **** 
 1698              		.loc 1 417 5 is_stmt 1 view .LVU508
 419:lvgl/src/widgets/lv_roller.c **** 
 1699              		.loc 1 419 5 view .LVU509
 421:lvgl/src/widgets/lv_roller.c ****     /*LV_EVENT_DRAW_MAIN will be called in the draw function*/
 1700              		.loc 1 421 5 view .LVU510
 421:lvgl/src/widgets/lv_roller.c ****     /*LV_EVENT_DRAW_MAIN will be called in the draw function*/
 1701              		.loc 1 421 28 is_stmt 0 view .LVU511
 1702 0004 0846     		mov	r0, r1
 1703              	.LVL205:
 421:lvgl/src/widgets/lv_roller.c ****     /*LV_EVENT_DRAW_MAIN will be called in the draw function*/
 1704              		.loc 1 421 28 view .LVU512
 1705 0006 FFF7FEFF 		bl	lv_event_get_code
 1706              	.LVL206:
 421:lvgl/src/widgets/lv_roller.c ****     /*LV_EVENT_DRAW_MAIN will be called in the draw function*/
 1707              		.loc 1 421 28 view .LVU513
 1708 000a 0446     		mov	r4, r0
 1709              	.LVL207:
 423:lvgl/src/widgets/lv_roller.c ****         /* Call the ancestor's event handler */
 1710              		.loc 1 423 5 is_stmt 1 view .LVU514
 423:lvgl/src/widgets/lv_roller.c ****         /* Call the ancestor's event handler */
 1711              		.loc 1 423 7 is_stmt 0 view .LVU515
 1712 000c 1528     		cmp	r0, #21
 1713 000e 05D0     		beq	.L68
 425:lvgl/src/widgets/lv_roller.c ****         if(res != LV_RES_OK) return;
 1714              		.loc 1 425 9 is_stmt 1 view .LVU516
 425:lvgl/src/widgets/lv_roller.c ****         if(res != LV_RES_OK) return;
 1715              		.loc 1 425 15 is_stmt 0 view .LVU517
 1716 0010 2946     		mov	r1, r5
 1717 0012 1748     		ldr	r0, .L76
 1718              	.LVL208:
 425:lvgl/src/widgets/lv_roller.c ****         if(res != LV_RES_OK) return;
 1719              		.loc 1 425 15 view .LVU518
 1720 0014 FFF7FEFF 		bl	lv_obj_event_base
 1721              	.LVL209:
 426:lvgl/src/widgets/lv_roller.c ****     }
 1722              		.loc 1 426 9 is_stmt 1 view .LVU519
 426:lvgl/src/widgets/lv_roller.c ****     }
 1723              		.loc 1 426 11 is_stmt 0 view .LVU520
 1724 0018 0128     		cmp	r0, #1
 1725 001a 09D1     		bne	.L67
 1726              	.LVL210:
 1727              	.L68:
 429:lvgl/src/widgets/lv_roller.c ****     if(code == LV_EVENT_REFR_EXT_DRAW_SIZE) {
 1728              		.loc 1 429 5 is_stmt 1 view .LVU521
 429:lvgl/src/widgets/lv_roller.c ****     if(code == LV_EVENT_REFR_EXT_DRAW_SIZE) {
 1729              		.loc 1 429 24 is_stmt 0 view .LVU522
 1730 001c 2846     		mov	r0, r5
 1731 001e FFF7FEFF 		bl	lv_event_get_target
 1732              	.LVL211:
 1733 0022 0646     		mov	r6, r0
 1734              	.LVL212:
 430:lvgl/src/widgets/lv_roller.c ****         /*If the selected text has a larger font it needs some extra space to draw it*/
 1735              		.loc 1 430 5 is_stmt 1 view .LVU523
 430:lvgl/src/widgets/lv_roller.c ****         /*If the selected text has a larger font it needs some extra space to draw it*/
 1736              		.loc 1 430 7 is_stmt 0 view .LVU524
ARM GAS  C:\usertemp\cc2TdG63.s 			page 68


 1737 0024 132C     		cmp	r4, #19
 1738 0026 04D0     		beq	.L73
 438:lvgl/src/widgets/lv_roller.c ****         refr_position(lv_obj_get_parent(label), LV_ANIM_OFF);
 1739              		.loc 1 438 10 is_stmt 1 view .LVU525
 438:lvgl/src/widgets/lv_roller.c ****         refr_position(lv_obj_get_parent(label), LV_ANIM_OFF);
 1740              		.loc 1 438 12 is_stmt 0 view .LVU526
 1741 0028 292C     		cmp	r4, #41
 1742 002a 17D0     		beq	.L74
 441:lvgl/src/widgets/lv_roller.c ****         draw_label(e);
 1743              		.loc 1 441 10 is_stmt 1 view .LVU527
 441:lvgl/src/widgets/lv_roller.c ****         draw_label(e);
 1744              		.loc 1 441 12 is_stmt 0 view .LVU528
 1745 002c 152C     		cmp	r4, #21
 1746 002e 1BD0     		beq	.L75
 1747              	.LVL213:
 1748              	.L67:
 444:lvgl/src/widgets/lv_roller.c **** 
 1749              		.loc 1 444 1 view .LVU529
 1750 0030 70BD     		pop	{r4, r5, r6, pc}
 1751              	.LVL214:
 1752              	.L73:
 1753              	.LBB132:
 432:lvgl/src/widgets/lv_roller.c ****         lv_obj_t * obj = lv_obj_get_parent(label);
 1754              		.loc 1 432 9 is_stmt 1 view .LVU530
 432:lvgl/src/widgets/lv_roller.c ****         lv_obj_t * obj = lv_obj_get_parent(label);
 1755              		.loc 1 432 26 is_stmt 0 view .LVU531
 1756 0032 2846     		mov	r0, r5
 1757              	.LVL215:
 432:lvgl/src/widgets/lv_roller.c ****         lv_obj_t * obj = lv_obj_get_parent(label);
 1758              		.loc 1 432 26 view .LVU532
 1759 0034 FFF7FEFF 		bl	lv_event_get_param
 1760              	.LVL216:
 1761 0038 0546     		mov	r5, r0
 1762              	.LVL217:
 433:lvgl/src/widgets/lv_roller.c ****         lv_coord_t sel_w = get_selected_label_width(obj);
 1763              		.loc 1 433 9 is_stmt 1 view .LVU533
 433:lvgl/src/widgets/lv_roller.c ****         lv_coord_t sel_w = get_selected_label_width(obj);
 1764              		.loc 1 433 26 is_stmt 0 view .LVU534
 1765 003a 3046     		mov	r0, r6
 1766              	.LVL218:
 433:lvgl/src/widgets/lv_roller.c ****         lv_coord_t sel_w = get_selected_label_width(obj);
 1767              		.loc 1 433 26 view .LVU535
 1768 003c FFF7FEFF 		bl	lv_obj_get_parent
 1769              	.LVL219:
 434:lvgl/src/widgets/lv_roller.c ****         lv_coord_t label_w = lv_obj_get_width(label);
 1770              		.loc 1 434 9 is_stmt 1 view .LVU536
 434:lvgl/src/widgets/lv_roller.c ****         lv_coord_t label_w = lv_obj_get_width(label);
 1771              		.loc 1 434 28 is_stmt 0 view .LVU537
 1772 0040 FFF7FEFF 		bl	get_selected_label_width
 1773              	.LVL220:
 434:lvgl/src/widgets/lv_roller.c ****         lv_coord_t label_w = lv_obj_get_width(label);
 1774              		.loc 1 434 28 view .LVU538
 1775 0044 0446     		mov	r4, r0
 1776              	.LVL221:
 435:lvgl/src/widgets/lv_roller.c ****         *s = LV_MAX(*s, sel_w - label_w);
 1777              		.loc 1 435 9 is_stmt 1 view .LVU539
 435:lvgl/src/widgets/lv_roller.c ****         *s = LV_MAX(*s, sel_w - label_w);
ARM GAS  C:\usertemp\cc2TdG63.s 			page 69


 1778              		.loc 1 435 30 is_stmt 0 view .LVU540
 1779 0046 3046     		mov	r0, r6
 1780 0048 FFF7FEFF 		bl	lv_obj_get_width
 1781              	.LVL222:
 436:lvgl/src/widgets/lv_roller.c ****     }
 1782              		.loc 1 436 9 is_stmt 1 view .LVU541
 436:lvgl/src/widgets/lv_roller.c ****     }
 1783              		.loc 1 436 14 is_stmt 0 view .LVU542
 1784 004c 241A     		subs	r4, r4, r0
 1785              	.LVL223:
 436:lvgl/src/widgets/lv_roller.c ****     }
 1786              		.loc 1 436 14 view .LVU543
 1787 004e B5F90030 		ldrsh	r3, [r5]
 1788 0052 9C42     		cmp	r4, r3
 1789 0054 B8BF     		it	lt
 1790 0056 1C46     		movlt	r4, r3
 436:lvgl/src/widgets/lv_roller.c ****     }
 1791              		.loc 1 436 12 view .LVU544
 1792 0058 2C80     		strh	r4, [r5]	@ movhi
 1793              	.LBE132:
 1794 005a E9E7     		b	.L67
 1795              	.LVL224:
 1796              	.L74:
 439:lvgl/src/widgets/lv_roller.c ****     }
 1797              		.loc 1 439 9 is_stmt 1 view .LVU545
 439:lvgl/src/widgets/lv_roller.c ****     }
 1798              		.loc 1 439 23 is_stmt 0 view .LVU546
 1799 005c FFF7FEFF 		bl	lv_obj_get_parent
 1800              	.LVL225:
 439:lvgl/src/widgets/lv_roller.c ****     }
 1801              		.loc 1 439 9 discriminator 1 view .LVU547
 1802 0060 0021     		movs	r1, #0
 1803 0062 FFF7FEFF 		bl	refr_position
 1804              	.LVL226:
 1805 0066 E3E7     		b	.L67
 1806              	.LVL227:
 1807              	.L75:
 442:lvgl/src/widgets/lv_roller.c ****     }
 1808              		.loc 1 442 9 is_stmt 1 view .LVU548
 1809 0068 2846     		mov	r0, r5
 1810              	.LVL228:
 442:lvgl/src/widgets/lv_roller.c ****     }
 1811              		.loc 1 442 9 is_stmt 0 view .LVU549
 1812 006a FFF7FEFF 		bl	draw_label
 1813              	.LVL229:
 1814 006e DFE7     		b	.L67
 1815              	.L77:
 1816              		.align	2
 1817              	.L76:
 1818 0070 00000000 		.word	lv_roller_label_class
 1819              		.cfi_endproc
 1820              	.LFE166:
 1822              		.section	.text.lv_roller_create,"ax",%progbits
 1823              		.align	1
 1824              		.global	lv_roller_create
 1825              		.syntax unified
 1826              		.thumb
ARM GAS  C:\usertemp\cc2TdG63.s 			page 70


 1827              		.thumb_func
 1829              	lv_roller_create:
 1830              	.LVL230:
 1831              	.LFB156:
  79:lvgl/src/widgets/lv_roller.c ****     LV_LOG_INFO("begin");
 1832              		.loc 1 79 1 is_stmt 1 view -0
 1833              		.cfi_startproc
 1834              		@ args = 0, pretend = 0, frame = 0
 1835              		@ frame_needed = 0, uses_anonymous_args = 0
  79:lvgl/src/widgets/lv_roller.c ****     LV_LOG_INFO("begin");
 1836              		.loc 1 79 1 is_stmt 0 view .LVU551
 1837 0000 10B5     		push	{r4, lr}
 1838              	.LCFI25:
 1839              		.cfi_def_cfa_offset 8
 1840              		.cfi_offset 4, -8
 1841              		.cfi_offset 14, -4
 1842 0002 0146     		mov	r1, r0
  80:lvgl/src/widgets/lv_roller.c ****     lv_obj_t * obj = lv_obj_class_create_obj(MY_CLASS, parent);
 1843              		.loc 1 80 5 is_stmt 1 view .LVU552
  80:lvgl/src/widgets/lv_roller.c ****     lv_obj_t * obj = lv_obj_class_create_obj(MY_CLASS, parent);
 1844              		.loc 1 80 5 view .LVU553
  80:lvgl/src/widgets/lv_roller.c ****     lv_obj_t * obj = lv_obj_class_create_obj(MY_CLASS, parent);
 1845              		.loc 1 80 5 view .LVU554
  81:lvgl/src/widgets/lv_roller.c ****     lv_obj_class_init_obj(obj);
 1846              		.loc 1 81 5 view .LVU555
  81:lvgl/src/widgets/lv_roller.c ****     lv_obj_class_init_obj(obj);
 1847              		.loc 1 81 22 is_stmt 0 view .LVU556
 1848 0004 0348     		ldr	r0, .L80
 1849              	.LVL231:
  81:lvgl/src/widgets/lv_roller.c ****     lv_obj_class_init_obj(obj);
 1850              		.loc 1 81 22 view .LVU557
 1851 0006 FFF7FEFF 		bl	lv_obj_class_create_obj
 1852              	.LVL232:
  81:lvgl/src/widgets/lv_roller.c ****     lv_obj_class_init_obj(obj);
 1853              		.loc 1 81 22 view .LVU558
 1854 000a 0446     		mov	r4, r0
 1855              	.LVL233:
  82:lvgl/src/widgets/lv_roller.c ****     return obj;
 1856              		.loc 1 82 5 is_stmt 1 view .LVU559
 1857 000c FFF7FEFF 		bl	lv_obj_class_init_obj
 1858              	.LVL234:
  83:lvgl/src/widgets/lv_roller.c **** }
 1859              		.loc 1 83 5 view .LVU560
  84:lvgl/src/widgets/lv_roller.c **** 
 1860              		.loc 1 84 1 is_stmt 0 view .LVU561
 1861 0010 2046     		mov	r0, r4
 1862 0012 10BD     		pop	{r4, pc}
 1863              	.LVL235:
 1864              	.L81:
  84:lvgl/src/widgets/lv_roller.c **** 
 1865              		.loc 1 84 1 view .LVU562
 1866              		.align	2
 1867              	.L80:
 1868 0014 00000000 		.word	lv_roller_class
 1869              		.cfi_endproc
 1870              	.LFE156:
 1872              		.section	.text.lv_roller_set_options,"ax",%progbits
ARM GAS  C:\usertemp\cc2TdG63.s 			page 71


 1873              		.align	1
 1874              		.global	lv_roller_set_options
 1875              		.syntax unified
 1876              		.thumb
 1877              		.thumb_func
 1879              	lv_roller_set_options:
 1880              	.LVL236:
 1881              	.LFB157:
  97:lvgl/src/widgets/lv_roller.c ****     LV_ASSERT_OBJ(obj, MY_CLASS);
 1882              		.loc 1 97 1 is_stmt 1 view -0
 1883              		.cfi_startproc
 1884              		@ args = 0, pretend = 0, frame = 0
 1885              		@ frame_needed = 0, uses_anonymous_args = 0
  98:lvgl/src/widgets/lv_roller.c ****     LV_ASSERT_NULL(options);
 1886              		.loc 1 98 5 view .LVU564
  98:lvgl/src/widgets/lv_roller.c ****     LV_ASSERT_NULL(options);
 1887              		.loc 1 98 5 view .LVU565
  98:lvgl/src/widgets/lv_roller.c ****     LV_ASSERT_NULL(options);
 1888              		.loc 1 98 5 view .LVU566
  99:lvgl/src/widgets/lv_roller.c **** 
 1889              		.loc 1 99 5 view .LVU567
  99:lvgl/src/widgets/lv_roller.c **** 
 1890              		.loc 1 99 5 view .LVU568
 1891 0000 61B1     		cbz	r1, .L84
  97:lvgl/src/widgets/lv_roller.c ****     LV_ASSERT_OBJ(obj, MY_CLASS);
 1892              		.loc 1 97 1 is_stmt 0 view .LVU569
 1893 0002 2DE9F047 		push	{r4, r5, r6, r7, r8, r9, r10, lr}
 1894              	.LCFI26:
 1895              		.cfi_def_cfa_offset 32
 1896              		.cfi_offset 4, -32
 1897              		.cfi_offset 5, -28
 1898              		.cfi_offset 6, -24
 1899              		.cfi_offset 7, -20
 1900              		.cfi_offset 8, -16
 1901              		.cfi_offset 9, -12
 1902              		.cfi_offset 10, -8
 1903              		.cfi_offset 14, -4
 1904 0006 0546     		mov	r5, r0
 1905 0008 1746     		mov	r7, r2
 1906 000a 0E46     		mov	r6, r1
  99:lvgl/src/widgets/lv_roller.c **** 
 1907              		.loc 1 99 5 is_stmt 1 discriminator 2 view .LVU570
  99:lvgl/src/widgets/lv_roller.c **** 
 1908              		.loc 1 99 28 discriminator 2 view .LVU571
 101:lvgl/src/widgets/lv_roller.c ****     lv_obj_t * label = get_label(obj);
 1909              		.loc 1 101 5 view .LVU572
 1910              	.LVL237:
 102:lvgl/src/widgets/lv_roller.c **** 
 1911              		.loc 1 102 5 view .LVU573
 102:lvgl/src/widgets/lv_roller.c **** 
 1912              		.loc 1 102 24 is_stmt 0 view .LVU574
 1913 000c FFF7FEFF 		bl	get_label
 1914              	.LVL238:
 102:lvgl/src/widgets/lv_roller.c **** 
 1915              		.loc 1 102 24 view .LVU575
 1916 0010 8046     		mov	r8, r0
 1917              	.LVL239:
ARM GAS  C:\usertemp\cc2TdG63.s 			page 72


 104:lvgl/src/widgets/lv_roller.c ****     roller->sel_opt_id_ori = 0;
 1918              		.loc 1 104 5 is_stmt 1 view .LVU576
 104:lvgl/src/widgets/lv_roller.c ****     roller->sel_opt_id_ori = 0;
 1919              		.loc 1 104 28 is_stmt 0 view .LVU577
 1920 0012 0023     		movs	r3, #0
 1921 0014 EB84     		strh	r3, [r5, #38]	@ movhi
 105:lvgl/src/widgets/lv_roller.c **** 
 1922              		.loc 1 105 5 is_stmt 1 view .LVU578
 105:lvgl/src/widgets/lv_roller.c **** 
 1923              		.loc 1 105 28 is_stmt 0 view .LVU579
 1924 0016 2B85     		strh	r3, [r5, #40]	@ movhi
 108:lvgl/src/widgets/lv_roller.c ****     uint32_t cnt;
 1925              		.loc 1 108 5 is_stmt 1 view .LVU580
 108:lvgl/src/widgets/lv_roller.c ****     uint32_t cnt;
 1926              		.loc 1 108 24 is_stmt 0 view .LVU581
 1927 0018 AB84     		strh	r3, [r5, #36]	@ movhi
 109:lvgl/src/widgets/lv_roller.c ****     for(cnt = 0; options[cnt] != '\0'; cnt++) {
 1928              		.loc 1 109 5 is_stmt 1 view .LVU582
 110:lvgl/src/widgets/lv_roller.c ****         if(options[cnt] == '\n') roller->option_cnt++;
 1929              		.loc 1 110 5 view .LVU583
 1930              	.LVL240:
 110:lvgl/src/widgets/lv_roller.c ****         if(options[cnt] == '\n') roller->option_cnt++;
 1931              		.loc 1 110 5 is_stmt 0 view .LVU584
 1932 001a 01E0     		b	.L85
 1933              	.LVL241:
 1934              	.L84:
 1935              	.LCFI27:
 1936              		.cfi_def_cfa_offset 0
 1937              		.cfi_restore 4
 1938              		.cfi_restore 5
 1939              		.cfi_restore 6
 1940              		.cfi_restore 7
 1941              		.cfi_restore 8
 1942              		.cfi_restore 9
 1943              		.cfi_restore 10
 1944              		.cfi_restore 14
  99:lvgl/src/widgets/lv_roller.c **** 
 1945              		.loc 1 99 5 is_stmt 1 discriminator 1 view .LVU585
  99:lvgl/src/widgets/lv_roller.c **** 
 1946              		.loc 1 99 5 discriminator 1 view .LVU586
  99:lvgl/src/widgets/lv_roller.c **** 
 1947              		.loc 1 99 5 discriminator 1 view .LVU587
  99:lvgl/src/widgets/lv_roller.c **** 
 1948              		.loc 1 99 5 discriminator 1 view .LVU588
  99:lvgl/src/widgets/lv_roller.c **** 
 1949              		.loc 1 99 5 discriminator 1 view .LVU589
 1950 001c FEE7     		b	.L84
 1951              	.LVL242:
 1952              	.L86:
 1953              	.LCFI28:
 1954              		.cfi_def_cfa_offset 32
 1955              		.cfi_offset 4, -32
 1956              		.cfi_offset 5, -28
 1957              		.cfi_offset 6, -24
 1958              		.cfi_offset 7, -20
 1959              		.cfi_offset 8, -16
 1960              		.cfi_offset 9, -12
ARM GAS  C:\usertemp\cc2TdG63.s 			page 73


 1961              		.cfi_offset 10, -8
 1962              		.cfi_offset 14, -4
 110:lvgl/src/widgets/lv_roller.c ****         if(options[cnt] == '\n') roller->option_cnt++;
 1963              		.loc 1 110 43 discriminator 2 view .LVU590
 1964 001e 0133     		adds	r3, r3, #1
 1965              	.LVL243:
 1966              	.L85:
 110:lvgl/src/widgets/lv_roller.c ****         if(options[cnt] == '\n') roller->option_cnt++;
 1967              		.loc 1 110 31 discriminator 1 view .LVU591
 110:lvgl/src/widgets/lv_roller.c ****         if(options[cnt] == '\n') roller->option_cnt++;
 1968              		.loc 1 110 25 is_stmt 0 discriminator 1 view .LVU592
 1969 0020 F45C     		ldrb	r4, [r6, r3]	@ zero_extendqisi2
 110:lvgl/src/widgets/lv_roller.c ****         if(options[cnt] == '\n') roller->option_cnt++;
 1970              		.loc 1 110 31 discriminator 1 view .LVU593
 1971 0022 2CB1     		cbz	r4, .L94
 111:lvgl/src/widgets/lv_roller.c ****     }
 1972              		.loc 1 111 9 is_stmt 1 view .LVU594
 111:lvgl/src/widgets/lv_roller.c ****     }
 1973              		.loc 1 111 11 is_stmt 0 view .LVU595
 1974 0024 0A2C     		cmp	r4, #10
 1975 0026 FAD1     		bne	.L86
 111:lvgl/src/widgets/lv_roller.c ****     }
 1976              		.loc 1 111 34 is_stmt 1 discriminator 1 view .LVU596
 111:lvgl/src/widgets/lv_roller.c ****     }
 1977              		.loc 1 111 40 is_stmt 0 discriminator 1 view .LVU597
 1978 0028 A98C     		ldrh	r1, [r5, #36]
 111:lvgl/src/widgets/lv_roller.c ****     }
 1979              		.loc 1 111 52 discriminator 1 view .LVU598
 1980 002a 0131     		adds	r1, r1, #1
 1981 002c A984     		strh	r1, [r5, #36]	@ movhi
 1982 002e F6E7     		b	.L86
 1983              	.L94:
 113:lvgl/src/widgets/lv_roller.c **** 
 1984              		.loc 1 113 5 is_stmt 1 view .LVU599
 113:lvgl/src/widgets/lv_roller.c **** 
 1985              		.loc 1 113 11 is_stmt 0 view .LVU600
 1986 0030 AB8C     		ldrh	r3, [r5, #36]
 1987              	.LVL244:
 113:lvgl/src/widgets/lv_roller.c **** 
 1988              		.loc 1 113 23 view .LVU601
 1989 0032 0133     		adds	r3, r3, #1
 1990 0034 AB84     		strh	r3, [r5, #36]	@ movhi
 115:lvgl/src/widgets/lv_roller.c ****         roller->mode = LV_ROLLER_MODE_NORMAL;
 1991              		.loc 1 115 5 is_stmt 1 view .LVU602
 115:lvgl/src/widgets/lv_roller.c ****         roller->mode = LV_ROLLER_MODE_NORMAL;
 1992              		.loc 1 115 7 is_stmt 0 view .LVU603
 1993 0036 87B9     		cbnz	r7, .L88
 116:lvgl/src/widgets/lv_roller.c ****         lv_label_set_text(label, options);
 1994              		.loc 1 116 9 is_stmt 1 view .LVU604
 116:lvgl/src/widgets/lv_roller.c ****         lv_label_set_text(label, options);
 1995              		.loc 1 116 22 is_stmt 0 view .LVU605
 1996 0038 95F82A30 		ldrb	r3, [r5, #42]	@ zero_extendqisi2
 1997 003c 23F00103 		bic	r3, r3, #1
 1998 0040 85F82A30 		strb	r3, [r5, #42]
 117:lvgl/src/widgets/lv_roller.c ****     }
 1999              		.loc 1 117 9 is_stmt 1 view .LVU606
 2000 0044 3146     		mov	r1, r6
ARM GAS  C:\usertemp\cc2TdG63.s 			page 74


 2001 0046 4046     		mov	r0, r8
 2002              	.LVL245:
 117:lvgl/src/widgets/lv_roller.c ****     }
 2003              		.loc 1 117 9 is_stmt 0 view .LVU607
 2004 0048 FFF7FEFF 		bl	lv_label_set_text
 2005              	.LVL246:
 2006              	.L89:
 139:lvgl/src/widgets/lv_roller.c **** 
 2007              		.loc 1 139 5 is_stmt 1 view .LVU608
 139:lvgl/src/widgets/lv_roller.c **** 
 2008              		.loc 1 139 36 is_stmt 0 view .LVU609
 2009 004c EB8C     		ldrh	r3, [r5, #38]
 139:lvgl/src/widgets/lv_roller.c **** 
 2010              		.loc 1 139 28 view .LVU610
 2011 004e 2B85     		strh	r3, [r5, #40]	@ movhi
 142:lvgl/src/widgets/lv_roller.c **** 
 2012              		.loc 1 142 5 is_stmt 1 view .LVU611
 2013 0050 4046     		mov	r0, r8
 2014 0052 FFF7FEFF 		bl	lv_obj_refresh_ext_draw_size
 2015              	.LVL247:
 144:lvgl/src/widgets/lv_roller.c **** 
 2016              		.loc 1 144 1 is_stmt 0 view .LVU612
 2017 0056 BDE8F087 		pop	{r4, r5, r6, r7, r8, r9, r10, pc}
 2018              	.LVL248:
 2019              	.L88:
 2020              	.LBB133:
 120:lvgl/src/widgets/lv_roller.c **** 
 2021              		.loc 1 120 9 is_stmt 1 view .LVU613
 120:lvgl/src/widgets/lv_roller.c **** 
 2022              		.loc 1 120 22 is_stmt 0 view .LVU614
 2023 005a 95F82A30 		ldrb	r3, [r5, #42]	@ zero_extendqisi2
 2024 005e 43F00103 		orr	r3, r3, #1
 2025 0062 85F82A30 		strb	r3, [r5, #42]
 122:lvgl/src/widgets/lv_roller.c ****         char * opt_extra = lv_mem_buf_get(opt_len * LV_ROLLER_INF_PAGES);
 2026              		.loc 1 122 9 is_stmt 1 view .LVU615
 122:lvgl/src/widgets/lv_roller.c ****         char * opt_extra = lv_mem_buf_get(opt_len * LV_ROLLER_INF_PAGES);
 2027              		.loc 1 122 26 is_stmt 0 view .LVU616
 2028 0066 3046     		mov	r0, r6
 2029              	.LVL249:
 122:lvgl/src/widgets/lv_roller.c ****         char * opt_extra = lv_mem_buf_get(opt_len * LV_ROLLER_INF_PAGES);
 2030              		.loc 1 122 26 view .LVU617
 2031 0068 FFF7FEFF 		bl	strlen
 2032              	.LVL250:
 122:lvgl/src/widgets/lv_roller.c ****         char * opt_extra = lv_mem_buf_get(opt_len * LV_ROLLER_INF_PAGES);
 2033              		.loc 1 122 16 discriminator 1 view .LVU618
 2034 006c 471C     		adds	r7, r0, #1
 2035              	.LVL251:
 123:lvgl/src/widgets/lv_roller.c ****         uint8_t i;
 2036              		.loc 1 123 9 is_stmt 1 view .LVU619
 123:lvgl/src/widgets/lv_roller.c ****         uint8_t i;
 2037              		.loc 1 123 51 is_stmt 0 view .LVU620
 2038 006e C7EBC70A 		rsb	r10, r7, r7, lsl #3
 123:lvgl/src/widgets/lv_roller.c ****         uint8_t i;
 2039              		.loc 1 123 28 view .LVU621
 2040 0072 5046     		mov	r0, r10
 2041 0074 FFF7FEFF 		bl	lv_mem_buf_get
 2042              	.LVL252:
ARM GAS  C:\usertemp\cc2TdG63.s 			page 75


 2043 0078 8146     		mov	r9, r0
 2044              	.LVL253:
 124:lvgl/src/widgets/lv_roller.c ****         for(i = 0; i < LV_ROLLER_INF_PAGES; i++) {
 2045              		.loc 1 124 9 is_stmt 1 view .LVU622
 125:lvgl/src/widgets/lv_roller.c ****             strcpy(&opt_extra[opt_len * i], options);
 2046              		.loc 1 125 9 view .LVU623
 125:lvgl/src/widgets/lv_roller.c ****             strcpy(&opt_extra[opt_len * i], options);
 2047              		.loc 1 125 9 is_stmt 0 view .LVU624
 2048 007a 0CE0     		b	.L90
 2049              	.LVL254:
 2050              	.L91:
 126:lvgl/src/widgets/lv_roller.c ****             opt_extra[opt_len * (i + 1) - 1] = '\n';
 2051              		.loc 1 126 13 is_stmt 1 view .LVU625
 2052 007c 3146     		mov	r1, r6
 2053 007e 07FB0490 		mla	r0, r7, r4, r9
 2054 0082 FFF7FEFF 		bl	strcpy
 2055              	.LVL255:
 127:lvgl/src/widgets/lv_roller.c ****         }
 2056              		.loc 1 127 13 view .LVU626
 127:lvgl/src/widgets/lv_roller.c ****         }
 2057              		.loc 1 127 36 is_stmt 0 view .LVU627
 2058 0086 631C     		adds	r3, r4, #1
 127:lvgl/src/widgets/lv_roller.c ****         }
 2059              		.loc 1 127 31 view .LVU628
 2060 0088 04FB0774 		mla	r4, r4, r7, r7
 2061              	.LVL256:
 127:lvgl/src/widgets/lv_roller.c ****         }
 2062              		.loc 1 127 22 view .LVU629
 2063 008c 013C     		subs	r4, r4, #1
 127:lvgl/src/widgets/lv_roller.c ****         }
 2064              		.loc 1 127 46 view .LVU630
 2065 008e 0A22     		movs	r2, #10
 2066 0090 09F80420 		strb	r2, [r9, r4]
 125:lvgl/src/widgets/lv_roller.c ****             strcpy(&opt_extra[opt_len * i], options);
 2067              		.loc 1 125 46 is_stmt 1 discriminator 3 view .LVU631
 2068 0094 DCB2     		uxtb	r4, r3
 2069              	.LVL257:
 2070              	.L90:
 125:lvgl/src/widgets/lv_roller.c ****             strcpy(&opt_extra[opt_len * i], options);
 2071              		.loc 1 125 22 discriminator 1 view .LVU632
 2072 0096 062C     		cmp	r4, #6
 2073 0098 F0D9     		bls	.L91
 129:lvgl/src/widgets/lv_roller.c ****         lv_label_set_text(label, opt_extra);
 2074              		.loc 1 129 9 view .LVU633
 129:lvgl/src/widgets/lv_roller.c ****         lv_label_set_text(label, opt_extra);
 2075              		.loc 1 129 18 is_stmt 0 view .LVU634
 2076 009a 0AF1FF3A 		add	r10, r10, #-1
 129:lvgl/src/widgets/lv_roller.c ****         lv_label_set_text(label, opt_extra);
 2077              		.loc 1 129 54 view .LVU635
 2078 009e 0023     		movs	r3, #0
 2079 00a0 09F80A30 		strb	r3, [r9, r10]
 130:lvgl/src/widgets/lv_roller.c ****         lv_mem_buf_release(opt_extra);
 2080              		.loc 1 130 9 is_stmt 1 view .LVU636
 2081 00a4 4946     		mov	r1, r9
 2082 00a6 4046     		mov	r0, r8
 2083 00a8 FFF7FEFF 		bl	lv_label_set_text
 2084              	.LVL258:
ARM GAS  C:\usertemp\cc2TdG63.s 			page 76


 131:lvgl/src/widgets/lv_roller.c **** 
 2085              		.loc 1 131 9 view .LVU637
 2086 00ac 4846     		mov	r0, r9
 2087 00ae FFF7FEFF 		bl	lv_mem_buf_release
 2088              	.LVL259:
 133:lvgl/src/widgets/lv_roller.c **** 
 2089              		.loc 1 133 9 view .LVU638
 133:lvgl/src/widgets/lv_roller.c **** 
 2090              		.loc 1 133 74 is_stmt 0 view .LVU639
 2091 00b2 AB8C     		ldrh	r3, [r5, #36]
 133:lvgl/src/widgets/lv_roller.c **** 
 2092              		.loc 1 133 32 view .LVU640
 2093 00b4 03EB4302 		add	r2, r3, r3, lsl #1
 2094 00b8 EA84     		strh	r2, [r5, #38]	@ movhi
 135:lvgl/src/widgets/lv_roller.c ****         inf_normalize(obj);
 2095              		.loc 1 135 9 is_stmt 1 view .LVU641
 135:lvgl/src/widgets/lv_roller.c ****         inf_normalize(obj);
 2096              		.loc 1 135 28 is_stmt 0 view .LVU642
 2097 00ba C3EBC303 		rsb	r3, r3, r3, lsl #3
 2098 00be AB84     		strh	r3, [r5, #36]	@ movhi
 136:lvgl/src/widgets/lv_roller.c ****     }
 2099              		.loc 1 136 9 is_stmt 1 view .LVU643
 2100 00c0 2846     		mov	r0, r5
 2101 00c2 FFF7FEFF 		bl	inf_normalize
 2102              	.LVL260:
 2103 00c6 C1E7     		b	.L89
 2104              	.LBE133:
 2105              		.cfi_endproc
 2106              	.LFE157:
 2108              		.section	.rodata.lv_roller_constructor.str1.4,"aMS",%progbits,1
 2109              		.align	2
 2110              	.LC0:
 2111 0000 4F707469 		.ascii	"Option 1\012Option 2\012Option 3\012Option 4\012Opt"
 2111      6F6E2031 
 2111      0A4F7074 
 2111      696F6E20 
 2111      320A4F70 
 2112 0027 696F6E20 		.ascii	"ion 5\000"
 2112      3500
 2113              		.section	.text.lv_roller_constructor,"ax",%progbits
 2114              		.align	1
 2115              		.syntax unified
 2116              		.thumb
 2117              		.thumb_func
 2119              	lv_roller_constructor:
 2120              	.LVL261:
 2121              	.LFB164:
 292:lvgl/src/widgets/lv_roller.c ****     LV_UNUSED(class_p);
 2122              		.loc 1 292 1 view -0
 2123              		.cfi_startproc
 2124              		@ args = 0, pretend = 0, frame = 0
 2125              		@ frame_needed = 0, uses_anonymous_args = 0
 292:lvgl/src/widgets/lv_roller.c ****     LV_UNUSED(class_p);
 2126              		.loc 1 292 1 is_stmt 0 view .LVU645
 2127 0000 38B5     		push	{r3, r4, r5, lr}
 2128              	.LCFI29:
 2129              		.cfi_def_cfa_offset 16
ARM GAS  C:\usertemp\cc2TdG63.s 			page 77


 2130              		.cfi_offset 3, -16
 2131              		.cfi_offset 4, -12
 2132              		.cfi_offset 5, -8
 2133              		.cfi_offset 14, -4
 2134 0002 0C46     		mov	r4, r1
 293:lvgl/src/widgets/lv_roller.c ****     lv_roller_t * roller = (lv_roller_t *)obj;
 2135              		.loc 1 293 5 is_stmt 1 view .LVU646
 294:lvgl/src/widgets/lv_roller.c **** 
 2136              		.loc 1 294 5 view .LVU647
 2137              	.LVL262:
 296:lvgl/src/widgets/lv_roller.c ****     roller->option_cnt = 0;
 2138              		.loc 1 296 5 view .LVU648
 296:lvgl/src/widgets/lv_roller.c ****     roller->option_cnt = 0;
 2139              		.loc 1 296 18 is_stmt 0 view .LVU649
 2140 0004 91F82A30 		ldrb	r3, [r1, #42]	@ zero_extendqisi2
 2141 0008 23F00103 		bic	r3, r3, #1
 2142 000c 81F82A30 		strb	r3, [r1, #42]
 297:lvgl/src/widgets/lv_roller.c ****     roller->sel_opt_id = 0;
 2143              		.loc 1 297 5 is_stmt 1 view .LVU650
 297:lvgl/src/widgets/lv_roller.c ****     roller->sel_opt_id = 0;
 2144              		.loc 1 297 24 is_stmt 0 view .LVU651
 2145 0010 0025     		movs	r5, #0
 2146 0012 8D84     		strh	r5, [r1, #36]	@ movhi
 298:lvgl/src/widgets/lv_roller.c ****     roller->sel_opt_id_ori = 0;
 2147              		.loc 1 298 5 is_stmt 1 view .LVU652
 298:lvgl/src/widgets/lv_roller.c ****     roller->sel_opt_id_ori = 0;
 2148              		.loc 1 298 24 is_stmt 0 view .LVU653
 2149 0014 CD84     		strh	r5, [r1, #38]	@ movhi
 299:lvgl/src/widgets/lv_roller.c **** 
 2150              		.loc 1 299 5 is_stmt 1 view .LVU654
 299:lvgl/src/widgets/lv_roller.c **** 
 2151              		.loc 1 299 28 is_stmt 0 view .LVU655
 2152 0016 0D85     		strh	r5, [r1, #40]	@ movhi
 301:lvgl/src/widgets/lv_roller.c ****     lv_obj_clear_flag(obj, LV_OBJ_FLAG_SCROLL_CHAIN_VER);
 2153              		.loc 1 301 5 is_stmt 1 view .LVU656
 2154 0018 1021     		movs	r1, #16
 2155              	.LVL263:
 301:lvgl/src/widgets/lv_roller.c ****     lv_obj_clear_flag(obj, LV_OBJ_FLAG_SCROLL_CHAIN_VER);
 2156              		.loc 1 301 5 is_stmt 0 view .LVU657
 2157 001a 2046     		mov	r0, r4
 2158              	.LVL264:
 301:lvgl/src/widgets/lv_roller.c ****     lv_obj_clear_flag(obj, LV_OBJ_FLAG_SCROLL_CHAIN_VER);
 2159              		.loc 1 301 5 view .LVU658
 2160 001c FFF7FEFF 		bl	lv_obj_clear_flag
 2161              	.LVL265:
 302:lvgl/src/widgets/lv_roller.c **** 
 2162              		.loc 1 302 5 is_stmt 1 view .LVU659
 2163 0020 4FF40071 		mov	r1, #512
 2164 0024 2046     		mov	r0, r4
 2165 0026 FFF7FEFF 		bl	lv_obj_clear_flag
 2166              	.LVL266:
 304:lvgl/src/widgets/lv_roller.c ****     lv_obj_t * label = lv_obj_class_create_obj(&lv_roller_label_class, obj);
 2167              		.loc 1 304 5 view .LVU660
 304:lvgl/src/widgets/lv_roller.c ****     lv_obj_t * label = lv_obj_class_create_obj(&lv_roller_label_class, obj);
 2168              		.loc 1 304 5 view .LVU661
 304:lvgl/src/widgets/lv_roller.c ****     lv_obj_t * label = lv_obj_class_create_obj(&lv_roller_label_class, obj);
 2169              		.loc 1 304 5 view .LVU662
ARM GAS  C:\usertemp\cc2TdG63.s 			page 78


 305:lvgl/src/widgets/lv_roller.c ****     lv_obj_class_init_obj(label);
 2170              		.loc 1 305 5 view .LVU663
 305:lvgl/src/widgets/lv_roller.c ****     lv_obj_class_init_obj(label);
 2171              		.loc 1 305 24 is_stmt 0 view .LVU664
 2172 002a 2146     		mov	r1, r4
 2173 002c 0548     		ldr	r0, .L97
 2174 002e FFF7FEFF 		bl	lv_obj_class_create_obj
 2175              	.LVL267:
 306:lvgl/src/widgets/lv_roller.c ****     lv_roller_set_options(obj, "Option 1\nOption 2\nOption 3\nOption 4\nOption 5", LV_ROLLER_MODE_N
 2176              		.loc 1 306 5 is_stmt 1 view .LVU665
 2177 0032 FFF7FEFF 		bl	lv_obj_class_init_obj
 2178              	.LVL268:
 307:lvgl/src/widgets/lv_roller.c **** 
 2179              		.loc 1 307 5 view .LVU666
 2180 0036 2A46     		mov	r2, r5
 2181 0038 0349     		ldr	r1, .L97+4
 2182 003a 2046     		mov	r0, r4
 2183 003c FFF7FEFF 		bl	lv_roller_set_options
 2184              	.LVL269:
 309:lvgl/src/widgets/lv_roller.c **** }
 2185              		.loc 1 309 5 view .LVU667
 309:lvgl/src/widgets/lv_roller.c **** }
 2186              		.loc 1 309 5 view .LVU668
 309:lvgl/src/widgets/lv_roller.c **** }
 2187              		.loc 1 309 5 view .LVU669
 310:lvgl/src/widgets/lv_roller.c **** 
 2188              		.loc 1 310 1 is_stmt 0 view .LVU670
 2189 0040 38BD     		pop	{r3, r4, r5, pc}
 2190              	.LVL270:
 2191              	.L98:
 310:lvgl/src/widgets/lv_roller.c **** 
 2192              		.loc 1 310 1 view .LVU671
 2193 0042 00BF     		.align	2
 2194              	.L97:
 2195 0044 00000000 		.word	lv_roller_label_class
 2196 0048 00000000 		.word	.LC0
 2197              		.cfi_endproc
 2198              	.LFE164:
 2200              		.section	.text.lv_roller_set_selected,"ax",%progbits
 2201              		.align	1
 2202              		.global	lv_roller_set_selected
 2203              		.syntax unified
 2204              		.thumb
 2205              		.thumb_func
 2207              	lv_roller_set_selected:
 2208              	.LVL271:
 2209              	.LFB158:
 153:lvgl/src/widgets/lv_roller.c ****     LV_ASSERT_OBJ(obj, MY_CLASS);
 2210              		.loc 1 153 1 is_stmt 1 view -0
 2211              		.cfi_startproc
 2212              		@ args = 0, pretend = 0, frame = 0
 2213              		@ frame_needed = 0, uses_anonymous_args = 0
 153:lvgl/src/widgets/lv_roller.c ****     LV_ASSERT_OBJ(obj, MY_CLASS);
 2214              		.loc 1 153 1 is_stmt 0 view .LVU673
 2215 0000 10B5     		push	{r4, lr}
 2216              	.LCFI30:
 2217              		.cfi_def_cfa_offset 8
ARM GAS  C:\usertemp\cc2TdG63.s 			page 79


 2218              		.cfi_offset 4, -8
 2219              		.cfi_offset 14, -4
 2220 0002 0B46     		mov	r3, r1
 2221 0004 1146     		mov	r1, r2
 2222              	.LVL272:
 154:lvgl/src/widgets/lv_roller.c **** 
 2223              		.loc 1 154 5 is_stmt 1 view .LVU674
 154:lvgl/src/widgets/lv_roller.c **** 
 2224              		.loc 1 154 5 view .LVU675
 154:lvgl/src/widgets/lv_roller.c **** 
 2225              		.loc 1 154 5 view .LVU676
 160:lvgl/src/widgets/lv_roller.c **** 
 2226              		.loc 1 160 5 view .LVU677
 163:lvgl/src/widgets/lv_roller.c ****         int32_t sel_opt_signed = sel_opt;
 2227              		.loc 1 163 5 view .LVU678
 163:lvgl/src/widgets/lv_roller.c ****         int32_t sel_opt_signed = sel_opt;
 2228              		.loc 1 163 21 is_stmt 0 view .LVU679
 2229 0006 90F82A20 		ldrb	r2, [r0, #42]	@ zero_extendqisi2
 2230              	.LVL273:
 163:lvgl/src/widgets/lv_roller.c ****         int32_t sel_opt_signed = sel_opt;
 2231              		.loc 1 163 7 view .LVU680
 2232 000a 12F0010F 		tst	r2, #1
 2233 000e 18D0     		beq	.L100
 2234              	.LBB134:
 164:lvgl/src/widgets/lv_roller.c ****         uint16_t page = roller->sel_opt_id / LV_ROLLER_INF_PAGES;
 2235              		.loc 1 164 9 is_stmt 1 view .LVU681
 164:lvgl/src/widgets/lv_roller.c ****         uint16_t page = roller->sel_opt_id / LV_ROLLER_INF_PAGES;
 2236              		.loc 1 164 17 is_stmt 0 view .LVU682
 2237 0010 1A46     		mov	r2, r3
 2238              	.LVL274:
 165:lvgl/src/widgets/lv_roller.c **** 
 2239              		.loc 1 165 9 is_stmt 1 view .LVU683
 165:lvgl/src/widgets/lv_roller.c **** 
 2240              		.loc 1 165 31 is_stmt 0 view .LVU684
 2241 0012 B0F826E0 		ldrh	lr, [r0, #38]
 165:lvgl/src/widgets/lv_roller.c **** 
 2242              		.loc 1 165 18 view .LVU685
 2243 0016 104C     		ldr	r4, .L104
 2244 0018 A4FB0E4C 		umull	r4, ip, r4, lr
 2245 001c AEEB0C04 		sub	r4, lr, ip
 2246 0020 0CEB540C 		add	ip, ip, r4, lsr #1
 2247 0024 CCF38F0C 		ubfx	ip, ip, #2, #16
 2248              	.LVL275:
 170:lvgl/src/widgets/lv_roller.c ****             sel_opt_signed -= page * LV_ROLLER_INF_PAGES;
 2249              		.loc 1 170 9 is_stmt 1 view .LVU686
 170:lvgl/src/widgets/lv_roller.c ****             sel_opt_signed -= page * LV_ROLLER_INF_PAGES;
 2250              		.loc 1 170 11 is_stmt 0 view .LVU687
 2251 0028 BEF1060F 		cmp	lr, #6
 2252 002c 02D9     		bls	.L101
 171:lvgl/src/widgets/lv_roller.c ****         }
 2253              		.loc 1 171 13 is_stmt 1 view .LVU688
 171:lvgl/src/widgets/lv_roller.c ****         }
 2254              		.loc 1 171 36 is_stmt 0 view .LVU689
 2255 002e ACEBCC02 		sub	r2, ip, ip, lsl #3
 171:lvgl/src/widgets/lv_roller.c ****         }
 2256              		.loc 1 171 28 view .LVU690
 2257 0032 1A44     		add	r2, r2, r3
ARM GAS  C:\usertemp\cc2TdG63.s 			page 80


 2258              	.LVL276:
 2259              	.L101:
 174:lvgl/src/widgets/lv_roller.c ****     }
 2260              		.loc 1 174 9 is_stmt 1 view .LVU691
 174:lvgl/src/widgets/lv_roller.c ****     }
 2261              		.loc 1 174 46 is_stmt 0 view .LVU692
 2262 0034 CCEBCC0C 		rsb	ip, ip, ip, lsl #3
 2263              	.LVL277:
 174:lvgl/src/widgets/lv_roller.c ****     }
 2264              		.loc 1 174 46 view .LVU693
 2265 0038 92B2     		uxth	r2, r2
 2266              	.LVL278:
 174:lvgl/src/widgets/lv_roller.c ****     }
 2267              		.loc 1 174 17 view .LVU694
 2268 003a 12FA8CFC 		uxtah	ip, r2, ip
 2269 003e 1FFA8CF3 		uxth	r3, ip
 2270              	.LVL279:
 2271              	.L100:
 174:lvgl/src/widgets/lv_roller.c ****     }
 2272              		.loc 1 174 17 view .LVU695
 2273              	.LBE134:
 177:lvgl/src/widgets/lv_roller.c ****     roller->sel_opt_id_ori = roller->sel_opt_id;
 2274              		.loc 1 177 5 is_stmt 1 view .LVU696
 177:lvgl/src/widgets/lv_roller.c ****     roller->sel_opt_id_ori = roller->sel_opt_id;
 2275              		.loc 1 177 46 is_stmt 0 view .LVU697
 2276 0042 828C     		ldrh	r2, [r0, #36]
 177:lvgl/src/widgets/lv_roller.c ****     roller->sel_opt_id_ori = roller->sel_opt_id;
 2277              		.loc 1 177 28 view .LVU698
 2278 0044 9A42     		cmp	r2, r3
 2279 0046 01D8     		bhi	.L102
 177:lvgl/src/widgets/lv_roller.c ****     roller->sel_opt_id_ori = roller->sel_opt_id;
 2280              		.loc 1 177 28 discriminator 1 view .LVU699
 2281 0048 013A     		subs	r2, r2, #1
 2282 004a 93B2     		uxth	r3, r2
 2283              	.LVL280:
 2284              	.L102:
 177:lvgl/src/widgets/lv_roller.c ****     roller->sel_opt_id_ori = roller->sel_opt_id;
 2285              		.loc 1 177 28 discriminator 4 view .LVU700
 2286 004c C384     		strh	r3, [r0, #38]	@ movhi
 178:lvgl/src/widgets/lv_roller.c **** 
 2287              		.loc 1 178 5 is_stmt 1 view .LVU701
 178:lvgl/src/widgets/lv_roller.c **** 
 2288              		.loc 1 178 28 is_stmt 0 view .LVU702
 2289 004e 0385     		strh	r3, [r0, #40]	@ movhi
 180:lvgl/src/widgets/lv_roller.c **** }
 2290              		.loc 1 180 5 is_stmt 1 view .LVU703
 2291 0050 FFF7FEFF 		bl	refr_position
 2292              	.LVL281:
 181:lvgl/src/widgets/lv_roller.c **** 
 2293              		.loc 1 181 1 is_stmt 0 view .LVU704
 2294 0054 10BD     		pop	{r4, pc}
 2295              	.L105:
 2296 0056 00BF     		.align	2
 2297              	.L104:
 2298 0058 25499224 		.word	613566757
 2299              		.cfi_endproc
 2300              	.LFE158:
ARM GAS  C:\usertemp\cc2TdG63.s 			page 81


 2302              		.section	.text.release_handler,"ax",%progbits
 2303              		.align	1
 2304              		.syntax unified
 2305              		.thumb
 2306              		.thumb_func
 2308              	release_handler:
 2309              	.LVL282:
 2310              	.LFB171:
 648:lvgl/src/widgets/lv_roller.c ****     lv_obj_t * label = get_label(obj);
 2311              		.loc 1 648 1 is_stmt 1 view -0
 2312              		.cfi_startproc
 2313              		@ args = 0, pretend = 0, frame = 16
 2314              		@ frame_needed = 0, uses_anonymous_args = 0
 648:lvgl/src/widgets/lv_roller.c ****     lv_obj_t * label = get_label(obj);
 2315              		.loc 1 648 1 is_stmt 0 view .LVU706
 2316 0000 2DE9F043 		push	{r4, r5, r6, r7, r8, r9, lr}
 2317              	.LCFI31:
 2318              		.cfi_def_cfa_offset 28
 2319              		.cfi_offset 4, -28
 2320              		.cfi_offset 5, -24
 2321              		.cfi_offset 6, -20
 2322              		.cfi_offset 7, -16
 2323              		.cfi_offset 8, -12
 2324              		.cfi_offset 9, -8
 2325              		.cfi_offset 14, -4
 2326 0004 85B0     		sub	sp, sp, #20
 2327              	.LCFI32:
 2328              		.cfi_def_cfa_offset 48
 2329 0006 0546     		mov	r5, r0
 649:lvgl/src/widgets/lv_roller.c ****     if(label == NULL) return LV_RES_OK;
 2330              		.loc 1 649 5 is_stmt 1 view .LVU707
 649:lvgl/src/widgets/lv_roller.c ****     if(label == NULL) return LV_RES_OK;
 2331              		.loc 1 649 24 is_stmt 0 view .LVU708
 2332 0008 FFF7FEFF 		bl	get_label
 2333              	.LVL283:
 650:lvgl/src/widgets/lv_roller.c **** 
 2334              		.loc 1 650 5 is_stmt 1 view .LVU709
 650:lvgl/src/widgets/lv_roller.c **** 
 2335              		.loc 1 650 7 is_stmt 0 view .LVU710
 2336 000c 0028     		cmp	r0, #0
 2337 000e 00F0A580 		beq	.L119
 2338 0012 8046     		mov	r8, r0
 652:lvgl/src/widgets/lv_roller.c ****     lv_roller_t * roller = (lv_roller_t *)obj;
 2339              		.loc 1 652 5 is_stmt 1 view .LVU711
 652:lvgl/src/widgets/lv_roller.c ****     lv_roller_t * roller = (lv_roller_t *)obj;
 2340              		.loc 1 652 26 is_stmt 0 view .LVU712
 2341 0014 FFF7FEFF 		bl	lv_indev_get_act
 2342              	.LVL284:
 652:lvgl/src/widgets/lv_roller.c ****     lv_roller_t * roller = (lv_roller_t *)obj;
 2343              		.loc 1 652 26 view .LVU713
 2344 0018 0646     		mov	r6, r0
 2345              	.LVL285:
 653:lvgl/src/widgets/lv_roller.c **** 
 2346              		.loc 1 653 5 is_stmt 1 view .LVU714
 656:lvgl/src/widgets/lv_roller.c ****     if(indev_type == LV_INDEV_TYPE_ENCODER || indev_type == LV_INDEV_TYPE_KEYPAD) {
 2347              		.loc 1 656 5 view .LVU715
 656:lvgl/src/widgets/lv_roller.c ****     if(indev_type == LV_INDEV_TYPE_ENCODER || indev_type == LV_INDEV_TYPE_KEYPAD) {
ARM GAS  C:\usertemp\cc2TdG63.s 			page 82


 2348              		.loc 1 656 34 is_stmt 0 view .LVU716
 2349 001a FFF7FEFF 		bl	lv_indev_get_type
 2350              	.LVL286:
 657:lvgl/src/widgets/lv_roller.c ****         roller->sel_opt_id_ori = roller->sel_opt_id;
 2351              		.loc 1 657 5 is_stmt 1 view .LVU717
 657:lvgl/src/widgets/lv_roller.c ****         roller->sel_opt_id_ori = roller->sel_opt_id;
 2352              		.loc 1 657 7 is_stmt 0 view .LVU718
 2353 001e 0228     		cmp	r0, #2
 2354 0020 18BF     		it	ne
 2355 0022 0428     		cmpne	r0, #4
 2356 0024 03D1     		bne	.L108
 658:lvgl/src/widgets/lv_roller.c **** 
 2357              		.loc 1 658 9 is_stmt 1 view .LVU719
 658:lvgl/src/widgets/lv_roller.c **** 
 2358              		.loc 1 658 40 is_stmt 0 view .LVU720
 2359 0026 EB8C     		ldrh	r3, [r5, #38]
 658:lvgl/src/widgets/lv_roller.c **** 
 2360              		.loc 1 658 32 view .LVU721
 2361 0028 2B85     		strh	r3, [r5, #40]	@ movhi
 660:lvgl/src/widgets/lv_roller.c ****             lv_group_t * g      = lv_obj_get_group(obj);
 2362              		.loc 1 660 9 is_stmt 1 view .LVU722
 660:lvgl/src/widgets/lv_roller.c ****             lv_group_t * g      = lv_obj_get_group(obj);
 2363              		.loc 1 660 11 is_stmt 0 view .LVU723
 2364 002a 0428     		cmp	r0, #4
 2365 002c 29D0     		beq	.L122
 2366              	.LVL287:
 2367              	.L108:
 668:lvgl/src/widgets/lv_roller.c ****         /*Search the clicked option (For KEYPAD and ENCODER the new value should be already set)*/
 2368              		.loc 1 668 5 is_stmt 1 view .LVU724
 668:lvgl/src/widgets/lv_roller.c ****         /*Search the clicked option (For KEYPAD and ENCODER the new value should be already set)*/
 2369              		.loc 1 668 8 is_stmt 0 view .LVU725
 2370 002e 3046     		mov	r0, r6
 2371 0030 FFF7FEFF 		bl	lv_indev_get_type
 2372              	.LVL288:
 668:lvgl/src/widgets/lv_roller.c ****         /*Search the clicked option (For KEYPAD and ENCODER the new value should be already set)*/
 2373              		.loc 1 668 7 discriminator 1 view .LVU726
 2374 0034 0128     		cmp	r0, #1
 2375 0036 31D1     		bne	.L123
 2376              	.L109:
 2377              	.LBB135:
 670:lvgl/src/widgets/lv_roller.c ****         if(roller->moved == 0) {
 2378              		.loc 1 670 9 is_stmt 1 view .LVU727
 2379              	.LVL289:
 671:lvgl/src/widgets/lv_roller.c ****             new_opt = 0;
 2380              		.loc 1 671 9 view .LVU728
 671:lvgl/src/widgets/lv_roller.c ****             new_opt = 0;
 2381              		.loc 1 671 26 is_stmt 0 view .LVU729
 2382 0038 95F82A30 		ldrb	r3, [r5, #42]	@ zero_extendqisi2
 671:lvgl/src/widgets/lv_roller.c ****             new_opt = 0;
 2383              		.loc 1 671 11 view .LVU730
 2384 003c 13F0020F 		tst	r3, #2
 2385 0040 48D1     		bne	.L111
 2386              	.LBB136:
 672:lvgl/src/widgets/lv_roller.c ****             lv_point_t p;
 2387              		.loc 1 672 13 is_stmt 1 view .LVU731
 2388              	.LVL290:
 673:lvgl/src/widgets/lv_roller.c ****             lv_indev_get_point(indev, &p);
ARM GAS  C:\usertemp\cc2TdG63.s 			page 83


 2389              		.loc 1 673 13 view .LVU732
 674:lvgl/src/widgets/lv_roller.c ****             p.y -= label->coords.y1;
 2390              		.loc 1 674 13 view .LVU733
 2391 0042 01A9     		add	r1, sp, #4
 2392 0044 3046     		mov	r0, r6
 2393 0046 FFF7FEFF 		bl	lv_indev_get_point
 2394              	.LVL291:
 675:lvgl/src/widgets/lv_roller.c ****             p.x -= label->coords.x1;
 2395              		.loc 1 675 13 view .LVU734
 675:lvgl/src/widgets/lv_roller.c ****             p.x -= label->coords.x1;
 2396              		.loc 1 675 14 is_stmt 0 view .LVU735
 2397 004a BDF80630 		ldrh	r3, [sp, #6]
 675:lvgl/src/widgets/lv_roller.c ****             p.x -= label->coords.x1;
 2398              		.loc 1 675 33 view .LVU736
 2399 004e B8F81620 		ldrh	r2, [r8, #22]
 675:lvgl/src/widgets/lv_roller.c ****             p.x -= label->coords.x1;
 2400              		.loc 1 675 17 view .LVU737
 2401 0052 9B1A     		subs	r3, r3, r2
 2402 0054 ADF80630 		strh	r3, [sp, #6]	@ movhi
 676:lvgl/src/widgets/lv_roller.c ****             uint32_t letter_i;
 2403              		.loc 1 676 13 is_stmt 1 view .LVU738
 676:lvgl/src/widgets/lv_roller.c ****             uint32_t letter_i;
 2404              		.loc 1 676 14 is_stmt 0 view .LVU739
 2405 0058 BDF80430 		ldrh	r3, [sp, #4]
 676:lvgl/src/widgets/lv_roller.c ****             uint32_t letter_i;
 2406              		.loc 1 676 33 view .LVU740
 2407 005c B8F81420 		ldrh	r2, [r8, #20]
 676:lvgl/src/widgets/lv_roller.c ****             uint32_t letter_i;
 2408              		.loc 1 676 17 view .LVU741
 2409 0060 9B1A     		subs	r3, r3, r2
 2410 0062 ADF80430 		strh	r3, [sp, #4]	@ movhi
 677:lvgl/src/widgets/lv_roller.c ****             letter_i = lv_label_get_letter_on(label, &p);
 2411              		.loc 1 677 13 is_stmt 1 view .LVU742
 678:lvgl/src/widgets/lv_roller.c **** 
 2412              		.loc 1 678 13 view .LVU743
 678:lvgl/src/widgets/lv_roller.c **** 
 2413              		.loc 1 678 24 is_stmt 0 view .LVU744
 2414 0066 01A9     		add	r1, sp, #4
 2415 0068 4046     		mov	r0, r8
 2416 006a FFF7FEFF 		bl	lv_label_get_letter_on
 2417              	.LVL292:
 2418 006e 0746     		mov	r7, r0
 2419              	.LVL293:
 680:lvgl/src/widgets/lv_roller.c ****             uint32_t i        = 0;
 2420              		.loc 1 680 13 is_stmt 1 view .LVU745
 680:lvgl/src/widgets/lv_roller.c ****             uint32_t i        = 0;
 2421              		.loc 1 680 33 is_stmt 0 view .LVU746
 2422 0070 4046     		mov	r0, r8
 2423              	.LVL294:
 680:lvgl/src/widgets/lv_roller.c ****             uint32_t i        = 0;
 2424              		.loc 1 680 33 view .LVU747
 2425 0072 FFF7FEFF 		bl	lv_label_get_text
 2426              	.LVL295:
 2427 0076 8146     		mov	r9, r0
 2428              	.LVL296:
 681:lvgl/src/widgets/lv_roller.c ****             uint32_t i_prev   = 0;
 2429              		.loc 1 681 13 is_stmt 1 view .LVU748
ARM GAS  C:\usertemp\cc2TdG63.s 			page 84


 681:lvgl/src/widgets/lv_roller.c ****             uint32_t i_prev   = 0;
 2430              		.loc 1 681 22 is_stmt 0 view .LVU749
 2431 0078 0024     		movs	r4, #0
 2432 007a 0294     		str	r4, [sp, #8]
 682:lvgl/src/widgets/lv_roller.c **** 
 2433              		.loc 1 682 13 is_stmt 1 view .LVU750
 2434              	.LVL297:
 684:lvgl/src/widgets/lv_roller.c ****             for(letter_cnt = 0; letter_cnt < letter_i; letter_cnt++) {
 2435              		.loc 1 684 13 view .LVU751
 685:lvgl/src/widgets/lv_roller.c ****                 uint32_t letter = _lv_txt_encoded_next(txt, &i);
 2436              		.loc 1 685 13 view .LVU752
 685:lvgl/src/widgets/lv_roller.c ****                 uint32_t letter = _lv_txt_encoded_next(txt, &i);
 2437              		.loc 1 685 28 is_stmt 0 view .LVU753
 2438 007c 2646     		mov	r6, r4
 2439              	.LVL298:
 682:lvgl/src/widgets/lv_roller.c **** 
 2440              		.loc 1 682 22 view .LVU754
 2441 007e A046     		mov	r8, r4
 2442              	.LVL299:
 685:lvgl/src/widgets/lv_roller.c ****                 uint32_t letter = _lv_txt_encoded_next(txt, &i);
 2443              		.loc 1 685 13 view .LVU755
 2444 0080 15E0     		b	.L112
 2445              	.LVL300:
 2446              	.L122:
 685:lvgl/src/widgets/lv_roller.c ****                 uint32_t letter = _lv_txt_encoded_next(txt, &i);
 2447              		.loc 1 685 13 view .LVU756
 2448              	.LBE136:
 2449              	.LBE135:
 2450              	.LBB148:
 661:lvgl/src/widgets/lv_roller.c ****             if(lv_group_get_editing(g)) {
 2451              		.loc 1 661 13 is_stmt 1 view .LVU757
 661:lvgl/src/widgets/lv_roller.c ****             if(lv_group_get_editing(g)) {
 2452              		.loc 1 661 35 is_stmt 0 view .LVU758
 2453 0082 2846     		mov	r0, r5
 2454              	.LVL301:
 661:lvgl/src/widgets/lv_roller.c ****             if(lv_group_get_editing(g)) {
 2455              		.loc 1 661 35 view .LVU759
 2456 0084 FFF7FEFF 		bl	lv_obj_get_group
 2457              	.LVL302:
 2458 0088 0446     		mov	r4, r0
 2459              	.LVL303:
 662:lvgl/src/widgets/lv_roller.c ****                 lv_group_set_editing(g, false);
 2460              		.loc 1 662 13 is_stmt 1 view .LVU760
 662:lvgl/src/widgets/lv_roller.c ****                 lv_group_set_editing(g, false);
 2461              		.loc 1 662 16 is_stmt 0 view .LVU761
 2462 008a FFF7FEFF 		bl	lv_group_get_editing
 2463              	.LVL304:
 662:lvgl/src/widgets/lv_roller.c ****                 lv_group_set_editing(g, false);
 2464              		.loc 1 662 15 discriminator 1 view .LVU762
 2465 008e 0028     		cmp	r0, #0
 2466 0090 CDD0     		beq	.L108
 663:lvgl/src/widgets/lv_roller.c ****             }
 2467              		.loc 1 663 17 is_stmt 1 view .LVU763
 2468 0092 0021     		movs	r1, #0
 2469 0094 2046     		mov	r0, r4
 2470 0096 FFF7FEFF 		bl	lv_group_set_editing
 2471              	.LVL305:
ARM GAS  C:\usertemp\cc2TdG63.s 			page 85


 2472 009a C8E7     		b	.L108
 2473              	.LVL306:
 2474              	.L123:
 663:lvgl/src/widgets/lv_roller.c ****             }
 2475              		.loc 1 663 17 is_stmt 0 view .LVU764
 2476              	.LBE148:
 668:lvgl/src/widgets/lv_roller.c ****         /*Search the clicked option (For KEYPAD and ENCODER the new value should be already set)*/
 2477              		.loc 1 668 61 discriminator 1 view .LVU765
 2478 009c 3046     		mov	r0, r6
 2479 009e FFF7FEFF 		bl	lv_indev_get_type
 2480              	.LVL307:
 668:lvgl/src/widgets/lv_roller.c ****         /*Search the clicked option (For KEYPAD and ENCODER the new value should be already set)*/
 2481              		.loc 1 668 58 discriminator 1 view .LVU766
 2482 00a2 0328     		cmp	r0, #3
 2483 00a4 46D1     		bne	.L110
 2484 00a6 C7E7     		b	.L109
 2485              	.LVL308:
 2486              	.L113:
 2487              	.LBB149:
 2488              	.LBB139:
 2489              	.LBB137:
 690:lvgl/src/widgets/lv_roller.c ****             }
 2490              		.loc 1 690 17 is_stmt 1 view .LVU767
 690:lvgl/src/widgets/lv_roller.c ****             }
 2491              		.loc 1 690 24 is_stmt 0 view .LVU768
 2492 00a8 DDF80880 		ldr	r8, [sp, #8]
 2493              	.LVL309:
 690:lvgl/src/widgets/lv_roller.c ****             }
 2494              		.loc 1 690 24 view .LVU769
 2495              	.LBE137:
 685:lvgl/src/widgets/lv_roller.c ****                 uint32_t letter = _lv_txt_encoded_next(txt, &i);
 2496              		.loc 1 685 66 is_stmt 1 discriminator 2 view .LVU770
 2497 00ac 0136     		adds	r6, r6, #1
 2498              	.LVL310:
 2499              	.L112:
 685:lvgl/src/widgets/lv_roller.c ****                 uint32_t letter = _lv_txt_encoded_next(txt, &i);
 2500              		.loc 1 685 44 discriminator 1 view .LVU771
 2501 00ae BE42     		cmp	r6, r7
 2502 00b0 3ED2     		bcs	.L115
 2503              	.LBB138:
 686:lvgl/src/widgets/lv_roller.c ****                 /*Count he lines to reach the clicked letter. But ignore the last '\n' because it
 2504              		.loc 1 686 17 view .LVU772
 686:lvgl/src/widgets/lv_roller.c ****                 /*Count he lines to reach the clicked letter. But ignore the last '\n' because it
 2505              		.loc 1 686 35 is_stmt 0 view .LVU773
 2506 00b2 2B4B     		ldr	r3, .L127
 2507 00b4 1B68     		ldr	r3, [r3]
 2508 00b6 02A9     		add	r1, sp, #8
 2509 00b8 4846     		mov	r0, r9
 2510 00ba 9847     		blx	r3
 2511              	.LVL311:
 689:lvgl/src/widgets/lv_roller.c ****                 i_prev = i;
 2512              		.loc 1 689 17 is_stmt 1 view .LVU774
 689:lvgl/src/widgets/lv_roller.c ****                 i_prev = i;
 2513              		.loc 1 689 35 is_stmt 0 view .LVU775
 2514 00bc 0A28     		cmp	r0, #10
 2515 00be 14BF     		ite	ne
 2516 00c0 0020     		movne	r0, #0
ARM GAS  C:\usertemp\cc2TdG63.s 			page 86


 2517              	.LVL312:
 689:lvgl/src/widgets/lv_roller.c ****                 i_prev = i;
 2518              		.loc 1 689 35 view .LVU776
 2519 00c2 0120     		moveq	r0, #1
 2520 00c4 B845     		cmp	r8, r7
 2521 00c6 08BF     		it	eq
 2522 00c8 0020     		moveq	r0, #0
 689:lvgl/src/widgets/lv_roller.c ****                 i_prev = i;
 2523              		.loc 1 689 19 view .LVU777
 2524 00ca 0028     		cmp	r0, #0
 2525 00cc ECD0     		beq	.L113
 689:lvgl/src/widgets/lv_roller.c ****                 i_prev = i;
 2526              		.loc 1 689 58 is_stmt 1 discriminator 1 view .LVU778
 689:lvgl/src/widgets/lv_roller.c ****                 i_prev = i;
 2527              		.loc 1 689 65 is_stmt 0 discriminator 1 view .LVU779
 2528 00ce 0134     		adds	r4, r4, #1
 2529              	.LVL313:
 689:lvgl/src/widgets/lv_roller.c ****                 i_prev = i;
 2530              		.loc 1 689 65 discriminator 1 view .LVU780
 2531 00d0 24B2     		sxth	r4, r4
 2532              	.LVL314:
 689:lvgl/src/widgets/lv_roller.c ****                 i_prev = i;
 2533              		.loc 1 689 65 discriminator 1 view .LVU781
 2534 00d2 E9E7     		b	.L113
 2535              	.LVL315:
 2536              	.L111:
 689:lvgl/src/widgets/lv_roller.c ****                 i_prev = i;
 2537              		.loc 1 689 65 discriminator 1 view .LVU782
 2538              	.LBE138:
 2539              	.LBE139:
 2540              	.LBB140:
 695:lvgl/src/widgets/lv_roller.c ****             lv_coord_t line_space = lv_obj_get_style_text_line_space(obj, LV_PART_MAIN);
 2541              		.loc 1 695 13 is_stmt 1 view .LVU783
 2542              	.LBB141:
 2543              	.LBI141:
 451:lvgl/src/widgets/../core/lv_obj_style_gen.h **** {
 2544              		.loc 2 451 33 view .LVU784
 2545              	.LBB142:
 453:lvgl/src/widgets/../core/lv_obj_style_gen.h ****     return (const lv_font_t *)v.ptr;
 2546              		.loc 2 453 5 view .LVU785
 453:lvgl/src/widgets/../core/lv_obj_style_gen.h ****     return (const lv_font_t *)v.ptr;
 2547              		.loc 2 453 26 is_stmt 0 view .LVU786
 2548 00d4 41F25942 		movw	r2, #5209
 2549 00d8 0021     		movs	r1, #0
 2550 00da 2846     		mov	r0, r5
 2551 00dc FFF7FEFF 		bl	lv_obj_get_style_prop
 2552              	.LVL316:
 2553 00e0 0446     		mov	r4, r0
 2554              	.LVL317:
 454:lvgl/src/widgets/../core/lv_obj_style_gen.h **** }
 2555              		.loc 2 454 5 is_stmt 1 view .LVU787
 454:lvgl/src/widgets/../core/lv_obj_style_gen.h **** }
 2556              		.loc 2 454 5 is_stmt 0 view .LVU788
 2557              	.LBE142:
 2558              	.LBE141:
 696:lvgl/src/widgets/lv_roller.c ****             lv_coord_t font_h              = lv_font_get_line_height(font);
 2559              		.loc 1 696 13 is_stmt 1 view .LVU789
ARM GAS  C:\usertemp\cc2TdG63.s 			page 87


 2560              	.LBB143:
 2561              	.LBI143:
 463:lvgl/src/widgets/../core/lv_obj_style_gen.h **** {
 2562              		.loc 2 463 26 view .LVU790
 2563              	.LBB144:
 465:lvgl/src/widgets/../core/lv_obj_style_gen.h ****     return (lv_coord_t)v.num;
 2564              		.loc 2 465 5 view .LVU791
 465:lvgl/src/widgets/../core/lv_obj_style_gen.h ****     return (lv_coord_t)v.num;
 2565              		.loc 2 465 26 is_stmt 0 view .LVU792
 2566 00e2 41F25B42 		movw	r2, #5211
 2567 00e6 0021     		movs	r1, #0
 2568 00e8 2846     		mov	r0, r5
 2569              	.LVL318:
 465:lvgl/src/widgets/../core/lv_obj_style_gen.h ****     return (lv_coord_t)v.num;
 2570              		.loc 2 465 26 view .LVU793
 2571 00ea FFF7FEFF 		bl	lv_obj_get_style_prop
 2572              	.LVL319:
 466:lvgl/src/widgets/../core/lv_obj_style_gen.h **** }
 2573              		.loc 2 466 5 is_stmt 1 view .LVU794
 466:lvgl/src/widgets/../core/lv_obj_style_gen.h **** }
 2574              		.loc 2 466 5 is_stmt 0 view .LVU795
 2575              	.LBE144:
 2576              	.LBE143:
 697:lvgl/src/widgets/lv_roller.c **** 
 2577              		.loc 1 697 13 is_stmt 1 view .LVU796
 2578              	.LBB145:
 2579              	.LBI145:
 121:lvgl/src/widgets/../core/../misc/../font/lv_font.h **** {
 2580              		.loc 3 121 26 view .LVU797
 2581              	.LBB146:
 2582              		.loc 3 123 5 view .LVU798
 2583              		.loc 3 123 18 is_stmt 0 view .LVU799
 2584 00ee B4F90870 		ldrsh	r7, [r4, #8]
 2585              	.LVL320:
 2586              		.loc 3 123 18 view .LVU800
 2587              	.LBE146:
 2588              	.LBE145:
 699:lvgl/src/widgets/lv_roller.c ****             lv_coord_t mid        = obj->coords.y1 + (obj->coords.y2 - obj->coords.y1) / 2;
 2589              		.loc 1 699 13 is_stmt 1 view .LVU801
 699:lvgl/src/widgets/lv_roller.c ****             lv_coord_t mid        = obj->coords.y1 + (obj->coords.y2 - obj->coords.y1) / 2;
 2590              		.loc 1 699 44 is_stmt 0 view .LVU802
 2591 00f2 0744     		add	r7, r7, r0
 699:lvgl/src/widgets/lv_roller.c ****             lv_coord_t mid        = obj->coords.y1 + (obj->coords.y2 - obj->coords.y1) / 2;
 2592              		.loc 1 699 24 view .LVU803
 2593 00f4 3FB2     		sxth	r7, r7
 2594              	.LVL321:
 700:lvgl/src/widgets/lv_roller.c ****             lv_coord_t label_y1 = label->coords.y1 + lv_indev_scroll_throw_predict(indev, LV_DIR_VE
 2595              		.loc 1 700 13 is_stmt 1 view .LVU804
 700:lvgl/src/widgets/lv_roller.c ****             lv_coord_t label_y1 = label->coords.y1 + lv_indev_scroll_throw_predict(indev, LV_DIR_VE
 2596              		.loc 1 700 48 is_stmt 0 view .LVU805
 2597 00f6 B5F91620 		ldrsh	r2, [r5, #22]
 2598 00fa 94B2     		uxth	r4, r2
 2599              	.LVL322:
 700:lvgl/src/widgets/lv_roller.c ****             lv_coord_t label_y1 = label->coords.y1 + lv_indev_scroll_throw_predict(indev, LV_DIR_VE
 2600              		.loc 1 700 66 view .LVU806
 2601 00fc B5F91A30 		ldrsh	r3, [r5, #26]
 700:lvgl/src/widgets/lv_roller.c ****             lv_coord_t label_y1 = label->coords.y1 + lv_indev_scroll_throw_predict(indev, LV_DIR_VE
ARM GAS  C:\usertemp\cc2TdG63.s 			page 88


 2602              		.loc 1 700 88 view .LVU807
 2603 0100 9B1A     		subs	r3, r3, r2
 2604 0102 21D4     		bmi	.L124
 2605              	.L116:
 700:lvgl/src/widgets/lv_roller.c ****             lv_coord_t label_y1 = label->coords.y1 + lv_indev_scroll_throw_predict(indev, LV_DIR_VE
 2606              		.loc 1 700 52 view .LVU808
 2607 0104 04EB6304 		add	r4, r4, r3, asr #1
 700:lvgl/src/widgets/lv_roller.c ****             lv_coord_t label_y1 = label->coords.y1 + lv_indev_scroll_throw_predict(indev, LV_DIR_VE
 2608              		.loc 1 700 24 view .LVU809
 2609 0108 24B2     		sxth	r4, r4
 2610              	.LVL323:
 701:lvgl/src/widgets/lv_roller.c ****             int32_t id = (mid - label_y1) / label_unit;
 2611              		.loc 1 701 13 is_stmt 1 view .LVU810
 701:lvgl/src/widgets/lv_roller.c ****             int32_t id = (mid - label_y1) / label_unit;
 2612              		.loc 1 701 48 is_stmt 0 view .LVU811
 2613 010a B8F81680 		ldrh	r8, [r8, #22]
 2614              	.LVL324:
 701:lvgl/src/widgets/lv_roller.c ****             int32_t id = (mid - label_y1) / label_unit;
 2615              		.loc 1 701 54 view .LVU812
 2616 010e 0C21     		movs	r1, #12
 2617 0110 3046     		mov	r0, r6
 2618              	.LVL325:
 701:lvgl/src/widgets/lv_roller.c ****             int32_t id = (mid - label_y1) / label_unit;
 2619              		.loc 1 701 54 view .LVU813
 2620 0112 FFF7FEFF 		bl	lv_indev_scroll_throw_predict
 2621              	.LVL326:
 701:lvgl/src/widgets/lv_roller.c ****             int32_t id = (mid - label_y1) / label_unit;
 2622              		.loc 1 701 52 discriminator 1 view .LVU814
 2623 0116 18FA80F0 		uxtah	r0, r8, r0
 701:lvgl/src/widgets/lv_roller.c ****             int32_t id = (mid - label_y1) / label_unit;
 2624              		.loc 1 701 24 discriminator 1 view .LVU815
 2625 011a 00B2     		sxth	r0, r0
 2626              	.LVL327:
 702:lvgl/src/widgets/lv_roller.c **** 
 2627              		.loc 1 702 13 is_stmt 1 view .LVU816
 702:lvgl/src/widgets/lv_roller.c **** 
 2628              		.loc 1 702 31 is_stmt 0 view .LVU817
 2629 011c 241A     		subs	r4, r4, r0
 2630              	.LVL328:
 702:lvgl/src/widgets/lv_roller.c **** 
 2631              		.loc 1 702 21 view .LVU818
 2632 011e 94FBF7F4 		sdiv	r4, r4, r7
 2633              	.LVL329:
 704:lvgl/src/widgets/lv_roller.c ****             if(id >= roller->option_cnt) id = roller->option_cnt - 1;
 2634              		.loc 1 704 13 is_stmt 1 view .LVU819
 704:lvgl/src/widgets/lv_roller.c ****             if(id >= roller->option_cnt) id = roller->option_cnt - 1;
 2635              		.loc 1 704 15 is_stmt 0 view .LVU820
 2636 0122 002C     		cmp	r4, #0
 2637 0124 12DB     		blt	.L125
 2638              	.LVL330:
 2639              	.L117:
 705:lvgl/src/widgets/lv_roller.c **** 
 2640              		.loc 1 705 13 is_stmt 1 view .LVU821
 705:lvgl/src/widgets/lv_roller.c **** 
 2641              		.loc 1 705 28 is_stmt 0 view .LVU822
 2642 0126 AB8C     		ldrh	r3, [r5, #36]
 705:lvgl/src/widgets/lv_roller.c **** 
ARM GAS  C:\usertemp\cc2TdG63.s 			page 89


 2643              		.loc 1 705 15 view .LVU823
 2644 0128 A342     		cmp	r3, r4
 2645 012a 00DC     		bgt	.L118
 705:lvgl/src/widgets/lv_roller.c **** 
 2646              		.loc 1 705 42 is_stmt 1 discriminator 1 view .LVU824
 705:lvgl/src/widgets/lv_roller.c **** 
 2647              		.loc 1 705 45 is_stmt 0 discriminator 1 view .LVU825
 2648 012c 5C1E     		subs	r4, r3, #1
 2649              	.LVL331:
 2650              	.L118:
 707:lvgl/src/widgets/lv_roller.c ****         }
 2651              		.loc 1 707 13 is_stmt 1 view .LVU826
 707:lvgl/src/widgets/lv_roller.c ****         }
 2652              		.loc 1 707 21 is_stmt 0 view .LVU827
 2653 012e 24B2     		sxth	r4, r4
 2654              	.LVL332:
 2655              	.L115:
 707:lvgl/src/widgets/lv_roller.c ****         }
 2656              		.loc 1 707 21 view .LVU828
 2657              	.LBE140:
 710:lvgl/src/widgets/lv_roller.c ****             lv_roller_set_selected(obj, new_opt, LV_ANIM_ON);
 2658              		.loc 1 710 9 is_stmt 1 view .LVU829
 710:lvgl/src/widgets/lv_roller.c ****             lv_roller_set_selected(obj, new_opt, LV_ANIM_ON);
 2659              		.loc 1 710 11 is_stmt 0 view .LVU830
 2660 0130 002C     		cmp	r4, #0
 2661 0132 0DDA     		bge	.L126
 2662              	.LVL333:
 2663              	.L110:
 710:lvgl/src/widgets/lv_roller.c ****             lv_roller_set_selected(obj, new_opt, LV_ANIM_ON);
 2664              		.loc 1 710 11 view .LVU831
 2665              	.LBE149:
 715:lvgl/src/widgets/lv_roller.c ****     lv_res_t res = lv_event_send(obj, LV_EVENT_VALUE_CHANGED, &id);
 2666              		.loc 1 715 5 is_stmt 1 view .LVU832
 715:lvgl/src/widgets/lv_roller.c ****     lv_res_t res = lv_event_send(obj, LV_EVENT_VALUE_CHANGED, &id);
 2667              		.loc 1 715 26 is_stmt 0 view .LVU833
 2668 0134 EB8C     		ldrh	r3, [r5, #38]
 715:lvgl/src/widgets/lv_roller.c ****     lv_res_t res = lv_event_send(obj, LV_EVENT_VALUE_CHANGED, &id);
 2669              		.loc 1 715 14 view .LVU834
 2670 0136 0393     		str	r3, [sp, #12]
 716:lvgl/src/widgets/lv_roller.c ****     return res;
 2671              		.loc 1 716 5 is_stmt 1 view .LVU835
 716:lvgl/src/widgets/lv_roller.c ****     return res;
 2672              		.loc 1 716 20 is_stmt 0 view .LVU836
 2673 0138 03AA     		add	r2, sp, #12
 2674 013a 1C21     		movs	r1, #28
 2675 013c 2846     		mov	r0, r5
 2676 013e FFF7FEFF 		bl	lv_event_send
 2677              	.LVL334:
 717:lvgl/src/widgets/lv_roller.c **** }
 2678              		.loc 1 717 5 is_stmt 1 view .LVU837
 2679              	.L107:
 718:lvgl/src/widgets/lv_roller.c **** 
 2680              		.loc 1 718 1 is_stmt 0 view .LVU838
 2681 0142 05B0     		add	sp, sp, #20
 2682              	.LCFI33:
 2683              		.cfi_remember_state
 2684              		.cfi_def_cfa_offset 28
ARM GAS  C:\usertemp\cc2TdG63.s 			page 90


 2685              		@ sp needed
 2686 0144 BDE8F083 		pop	{r4, r5, r6, r7, r8, r9, pc}
 2687              	.LVL335:
 2688              	.L124:
 2689              	.LCFI34:
 2690              		.cfi_restore_state
 2691              	.LBB150:
 2692              	.LBB147:
 700:lvgl/src/widgets/lv_roller.c ****             lv_coord_t label_y1 = label->coords.y1 + lv_indev_scroll_throw_predict(indev, LV_DIR_VE
 2693              		.loc 1 700 88 view .LVU839
 2694 0148 0133     		adds	r3, r3, #1
 2695 014a DBE7     		b	.L116
 2696              	.LVL336:
 2697              	.L125:
 704:lvgl/src/widgets/lv_roller.c ****             if(id >= roller->option_cnt) id = roller->option_cnt - 1;
 2698              		.loc 1 704 27 discriminator 1 view .LVU840
 2699 014c 0024     		movs	r4, #0
 2700              	.LVL337:
 704:lvgl/src/widgets/lv_roller.c ****             if(id >= roller->option_cnt) id = roller->option_cnt - 1;
 2701              		.loc 1 704 27 discriminator 1 view .LVU841
 2702 014e EAE7     		b	.L117
 2703              	.LVL338:
 2704              	.L126:
 704:lvgl/src/widgets/lv_roller.c ****             if(id >= roller->option_cnt) id = roller->option_cnt - 1;
 2705              		.loc 1 704 27 discriminator 1 view .LVU842
 2706              	.LBE147:
 711:lvgl/src/widgets/lv_roller.c ****         }
 2707              		.loc 1 711 13 is_stmt 1 view .LVU843
 2708 0150 0122     		movs	r2, #1
 2709 0152 A1B2     		uxth	r1, r4
 2710 0154 2846     		mov	r0, r5
 2711 0156 FFF7FEFF 		bl	lv_roller_set_selected
 2712              	.LVL339:
 2713 015a EBE7     		b	.L110
 2714              	.LVL340:
 2715              	.L119:
 711:lvgl/src/widgets/lv_roller.c ****         }
 2716              		.loc 1 711 13 is_stmt 0 view .LVU844
 2717              	.LBE150:
 650:lvgl/src/widgets/lv_roller.c **** 
 2718              		.loc 1 650 30 discriminator 1 view .LVU845
 2719 015c 0120     		movs	r0, #1
 2720              	.LVL341:
 650:lvgl/src/widgets/lv_roller.c **** 
 2721              		.loc 1 650 30 discriminator 1 view .LVU846
 2722 015e F0E7     		b	.L107
 2723              	.L128:
 2724              		.align	2
 2725              	.L127:
 2726 0160 00000000 		.word	_lv_txt_encoded_next
 2727              		.cfi_endproc
 2728              	.LFE171:
 2730              		.section	.text.lv_roller_event,"ax",%progbits
 2731              		.align	1
 2732              		.syntax unified
 2733              		.thumb
 2734              		.thumb_func
ARM GAS  C:\usertemp\cc2TdG63.s 			page 91


 2736              	lv_roller_event:
 2737              	.LVL342:
 2738              	.LFB165:
 313:lvgl/src/widgets/lv_roller.c ****     LV_UNUSED(class_p);
 2739              		.loc 1 313 1 is_stmt 1 view -0
 2740              		.cfi_startproc
 2741              		@ args = 0, pretend = 0, frame = 8
 2742              		@ frame_needed = 0, uses_anonymous_args = 0
 313:lvgl/src/widgets/lv_roller.c ****     LV_UNUSED(class_p);
 2743              		.loc 1 313 1 is_stmt 0 view .LVU848
 2744 0000 70B5     		push	{r4, r5, r6, lr}
 2745              	.LCFI35:
 2746              		.cfi_def_cfa_offset 16
 2747              		.cfi_offset 4, -16
 2748              		.cfi_offset 5, -12
 2749              		.cfi_offset 6, -8
 2750              		.cfi_offset 14, -4
 2751 0002 82B0     		sub	sp, sp, #8
 2752              	.LCFI36:
 2753              		.cfi_def_cfa_offset 24
 2754 0004 0C46     		mov	r4, r1
 314:lvgl/src/widgets/lv_roller.c **** 
 2755              		.loc 1 314 5 is_stmt 1 view .LVU849
 316:lvgl/src/widgets/lv_roller.c **** 
 2756              		.loc 1 316 5 view .LVU850
 319:lvgl/src/widgets/lv_roller.c ****     if(res != LV_RES_OK) return;
 2757              		.loc 1 319 5 view .LVU851
 319:lvgl/src/widgets/lv_roller.c ****     if(res != LV_RES_OK) return;
 2758              		.loc 1 319 11 is_stmt 0 view .LVU852
 2759 0006 8848     		ldr	r0, .L153
 2760              	.LVL343:
 319:lvgl/src/widgets/lv_roller.c ****     if(res != LV_RES_OK) return;
 2761              		.loc 1 319 11 view .LVU853
 2762 0008 FFF7FEFF 		bl	lv_obj_event_base
 2763              	.LVL344:
 320:lvgl/src/widgets/lv_roller.c **** 
 2764              		.loc 1 320 5 is_stmt 1 view .LVU854
 320:lvgl/src/widgets/lv_roller.c **** 
 2765              		.loc 1 320 7 is_stmt 0 view .LVU855
 2766 000c 0128     		cmp	r0, #1
 2767 000e 01D0     		beq	.L150
 2768              	.LVL345:
 2769              	.L129:
 413:lvgl/src/widgets/lv_roller.c **** 
 2770              		.loc 1 413 1 view .LVU856
 2771 0010 02B0     		add	sp, sp, #8
 2772              	.LCFI37:
 2773              		.cfi_remember_state
 2774              		.cfi_def_cfa_offset 16
 2775              		@ sp needed
 2776 0012 70BD     		pop	{r4, r5, r6, pc}
 2777              	.LVL346:
 2778              	.L150:
 2779              	.LCFI38:
 2780              		.cfi_restore_state
 322:lvgl/src/widgets/lv_roller.c ****     lv_obj_t * obj = lv_event_get_target(e);
 2781              		.loc 1 322 5 is_stmt 1 view .LVU857
ARM GAS  C:\usertemp\cc2TdG63.s 			page 92


 322:lvgl/src/widgets/lv_roller.c ****     lv_obj_t * obj = lv_event_get_target(e);
 2782              		.loc 1 322 28 is_stmt 0 view .LVU858
 2783 0014 2046     		mov	r0, r4
 2784              	.LVL347:
 322:lvgl/src/widgets/lv_roller.c ****     lv_obj_t * obj = lv_event_get_target(e);
 2785              		.loc 1 322 28 view .LVU859
 2786 0016 FFF7FEFF 		bl	lv_event_get_code
 2787              	.LVL348:
 2788 001a 0546     		mov	r5, r0
 2789              	.LVL349:
 323:lvgl/src/widgets/lv_roller.c ****     lv_roller_t * roller = (lv_roller_t *)obj;
 2790              		.loc 1 323 5 is_stmt 1 view .LVU860
 323:lvgl/src/widgets/lv_roller.c ****     lv_roller_t * roller = (lv_roller_t *)obj;
 2791              		.loc 1 323 22 is_stmt 0 view .LVU861
 2792 001c 2046     		mov	r0, r4
 2793 001e FFF7FEFF 		bl	lv_event_get_target
 2794              	.LVL350:
 2795 0022 0646     		mov	r6, r0
 2796              	.LVL351:
 324:lvgl/src/widgets/lv_roller.c **** 
 2797              		.loc 1 324 5 is_stmt 1 view .LVU862
 326:lvgl/src/widgets/lv_roller.c ****         lv_point_t * p = lv_event_get_param(e);
 2798              		.loc 1 326 5 view .LVU863
 2799 0024 6B1E     		subs	r3, r5, #1
 2800 0026 2B2B     		cmp	r3, #43
 2801 0028 F2D8     		bhi	.L129
 2802 002a 01A2     		adr	r2, .L132
 2803 002c 52F823F0 		ldr	pc, [r2, r3, lsl #2]
 2804              		.p2align 2
 2805              	.L132:
 2806 0030 19010000 		.word	.L142+1
 2807 0034 31010000 		.word	.L141+1
 2808 0038 6F010000 		.word	.L140+1
 2809 003c 11000000 		.word	.L129+1
 2810 0040 11000000 		.word	.L129+1
 2811 0044 11000000 		.word	.L129+1
 2812 0048 11000000 		.word	.L129+1
 2813 004c 6F010000 		.word	.L140+1
 2814 0050 11000000 		.word	.L129+1
 2815 0054 11000000 		.word	.L129+1
 2816 0058 11000000 		.word	.L129+1
 2817 005c 11000000 		.word	.L129+1
 2818 0060 C3010000 		.word	.L139+1
 2819 0064 75010000 		.word	.L138+1
 2820 0068 AF010000 		.word	.L137+1
 2821 006c 11000000 		.word	.L129+1
 2822 0070 11000000 		.word	.L129+1
 2823 0074 11000000 		.word	.L129+1
 2824 0078 15020000 		.word	.L136+1
 2825 007c 11000000 		.word	.L129+1
 2826 0080 1F020000 		.word	.L135+1
 2827 0084 11000000 		.word	.L129+1
 2828 0088 11000000 		.word	.L129+1
 2829 008c 1F020000 		.word	.L135+1
 2830 0090 11000000 		.word	.L129+1
 2831 0094 11000000 		.word	.L129+1
 2832 0098 11000000 		.word	.L129+1
ARM GAS  C:\usertemp\cc2TdG63.s 			page 93


 2833 009c 11000000 		.word	.L129+1
 2834 00a0 11000000 		.word	.L129+1
 2835 00a4 11000000 		.word	.L129+1
 2836 00a8 11000000 		.word	.L129+1
 2837 00ac 11000000 		.word	.L129+1
 2838 00b0 11000000 		.word	.L129+1
 2839 00b4 11000000 		.word	.L129+1
 2840 00b8 11000000 		.word	.L129+1
 2841 00bc 11000000 		.word	.L129+1
 2842 00c0 11000000 		.word	.L129+1
 2843 00c4 11000000 		.word	.L129+1
 2844 00c8 11000000 		.word	.L129+1
 2845 00cc 11000000 		.word	.L129+1
 2846 00d0 11010000 		.word	.L134+1
 2847 00d4 F3000000 		.word	.L133+1
 2848 00d8 11000000 		.word	.L129+1
 2849 00dc E1000000 		.word	.L131+1
 2850              		.p2align 1
 2851              	.L131:
 2852              	.LBB151:
 327:lvgl/src/widgets/lv_roller.c ****         p->x = get_selected_label_width(obj);
 2853              		.loc 1 327 9 view .LVU864
 327:lvgl/src/widgets/lv_roller.c ****         p->x = get_selected_label_width(obj);
 2854              		.loc 1 327 26 is_stmt 0 view .LVU865
 2855 00e0 2046     		mov	r0, r4
 2856              	.LVL352:
 327:lvgl/src/widgets/lv_roller.c ****         p->x = get_selected_label_width(obj);
 2857              		.loc 1 327 26 view .LVU866
 2858 00e2 FFF7FEFF 		bl	lv_event_get_param
 2859              	.LVL353:
 2860 00e6 0446     		mov	r4, r0
 2861              	.LVL354:
 328:lvgl/src/widgets/lv_roller.c ****     }
 2862              		.loc 1 328 9 is_stmt 1 view .LVU867
 328:lvgl/src/widgets/lv_roller.c ****     }
 2863              		.loc 1 328 16 is_stmt 0 view .LVU868
 2864 00e8 3046     		mov	r0, r6
 2865              	.LVL355:
 328:lvgl/src/widgets/lv_roller.c ****     }
 2866              		.loc 1 328 16 view .LVU869
 2867 00ea FFF7FEFF 		bl	get_selected_label_width
 2868              	.LVL356:
 328:lvgl/src/widgets/lv_roller.c ****     }
 2869              		.loc 1 328 14 discriminator 1 view .LVU870
 2870 00ee 2080     		strh	r0, [r4]	@ movhi
 2871              	.LBE151:
 2872 00f0 8EE7     		b	.L129
 2873              	.LVL357:
 2874              	.L133:
 2875              	.LBB152:
 331:lvgl/src/widgets/lv_roller.c ****         /*Be sure the label's style is updated before processing the roller*/
 2876              		.loc 1 331 9 is_stmt 1 view .LVU871
 331:lvgl/src/widgets/lv_roller.c ****         /*Be sure the label's style is updated before processing the roller*/
 2877              		.loc 1 331 28 is_stmt 0 view .LVU872
 2878 00f2 FFF7FEFF 		bl	get_label
 2879              	.LVL358:
 333:lvgl/src/widgets/lv_roller.c ****         lv_obj_refresh_self_size(obj);
ARM GAS  C:\usertemp\cc2TdG63.s 			page 94


 2880              		.loc 1 333 9 is_stmt 1 view .LVU873
 333:lvgl/src/widgets/lv_roller.c ****         lv_obj_refresh_self_size(obj);
 2881              		.loc 1 333 11 is_stmt 0 view .LVU874
 2882 00f6 18B1     		cbz	r0, .L143
 333:lvgl/src/widgets/lv_roller.c ****         lv_obj_refresh_self_size(obj);
 2883              		.loc 1 333 19 is_stmt 1 discriminator 1 view .LVU875
 2884 00f8 0022     		movs	r2, #0
 2885 00fa 2A21     		movs	r1, #42
 2886 00fc FFF7FEFF 		bl	lv_event_send
 2887              	.LVL359:
 2888              	.L143:
 334:lvgl/src/widgets/lv_roller.c ****         refr_position(obj, LV_ANIM_OFF);
 2889              		.loc 1 334 9 view .LVU876
 2890 0100 3046     		mov	r0, r6
 2891 0102 FFF7FEFF 		bl	lv_obj_refresh_self_size
 2892              	.LVL360:
 335:lvgl/src/widgets/lv_roller.c ****     }
 2893              		.loc 1 335 9 view .LVU877
 2894 0106 0021     		movs	r1, #0
 2895 0108 3046     		mov	r0, r6
 2896 010a FFF7FEFF 		bl	refr_position
 2897              	.LVL361:
 2898              	.LBE152:
 2899 010e 7FE7     		b	.L129
 2900              	.LVL362:
 2901              	.L134:
 338:lvgl/src/widgets/lv_roller.c ****     }
 2902              		.loc 1 338 9 view .LVU878
 2903 0110 0021     		movs	r1, #0
 2904 0112 FFF7FEFF 		bl	refr_position
 2905              	.LVL363:
 338:lvgl/src/widgets/lv_roller.c ****     }
 2906              		.loc 1 338 9 is_stmt 0 view .LVU879
 2907 0116 7BE7     		b	.L129
 2908              	.LVL364:
 2909              	.L142:
 341:lvgl/src/widgets/lv_roller.c ****         lv_anim_del(get_label(obj), set_y_anim);
 2910              		.loc 1 341 9 is_stmt 1 view .LVU880
 341:lvgl/src/widgets/lv_roller.c ****         lv_anim_del(get_label(obj), set_y_anim);
 2911              		.loc 1 341 23 is_stmt 0 view .LVU881
 2912 0118 90F82A30 		ldrb	r3, [r0, #42]	@ zero_extendqisi2
 2913 011c 23F00203 		bic	r3, r3, #2
 2914 0120 80F82A30 		strb	r3, [r0, #42]
 342:lvgl/src/widgets/lv_roller.c ****     }
 2915              		.loc 1 342 9 is_stmt 1 view .LVU882
 342:lvgl/src/widgets/lv_roller.c ****     }
 2916              		.loc 1 342 21 is_stmt 0 view .LVU883
 2917 0124 FFF7FEFF 		bl	get_label
 2918              	.LVL365:
 342:lvgl/src/widgets/lv_roller.c ****     }
 2919              		.loc 1 342 9 discriminator 1 view .LVU884
 2920 0128 4049     		ldr	r1, .L153+4
 2921 012a FFF7FEFF 		bl	lv_anim_del
 2922              	.LVL366:
 2923 012e 6FE7     		b	.L129
 2924              	.LVL367:
 2925              	.L141:
ARM GAS  C:\usertemp\cc2TdG63.s 			page 95


 2926              	.LBB153:
 345:lvgl/src/widgets/lv_roller.c ****         lv_point_t p;
 2927              		.loc 1 345 9 is_stmt 1 view .LVU885
 345:lvgl/src/widgets/lv_roller.c ****         lv_point_t p;
 2928              		.loc 1 345 30 is_stmt 0 view .LVU886
 2929 0130 FFF7FEFF 		bl	lv_indev_get_act
 2930              	.LVL368:
 346:lvgl/src/widgets/lv_roller.c ****         lv_indev_get_vect(indev, &p);
 2931              		.loc 1 346 9 is_stmt 1 view .LVU887
 347:lvgl/src/widgets/lv_roller.c ****         if(p.y) {
 2932              		.loc 1 347 9 view .LVU888
 2933 0134 01A9     		add	r1, sp, #4
 2934 0136 FFF7FEFF 		bl	lv_indev_get_vect
 2935              	.LVL369:
 348:lvgl/src/widgets/lv_roller.c ****             lv_obj_t * label = get_label(obj);
 2936              		.loc 1 348 9 view .LVU889
 348:lvgl/src/widgets/lv_roller.c ****             lv_obj_t * label = get_label(obj);
 2937              		.loc 1 348 13 is_stmt 0 view .LVU890
 2938 013a BDF90630 		ldrsh	r3, [sp, #6]
 348:lvgl/src/widgets/lv_roller.c ****             lv_obj_t * label = get_label(obj);
 2939              		.loc 1 348 11 view .LVU891
 2940 013e 002B     		cmp	r3, #0
 2941 0140 3FF466AF 		beq	.L129
 2942              	.LBB154:
 349:lvgl/src/widgets/lv_roller.c ****             lv_obj_set_y(label, lv_obj_get_y(label) + p.y);
 2943              		.loc 1 349 13 is_stmt 1 view .LVU892
 349:lvgl/src/widgets/lv_roller.c ****             lv_obj_set_y(label, lv_obj_get_y(label) + p.y);
 2944              		.loc 1 349 32 is_stmt 0 view .LVU893
 2945 0144 3046     		mov	r0, r6
 2946 0146 FFF7FEFF 		bl	get_label
 2947              	.LVL370:
 2948 014a 0446     		mov	r4, r0
 2949              	.LVL371:
 350:lvgl/src/widgets/lv_roller.c ****             roller->moved = 1;
 2950              		.loc 1 350 13 is_stmt 1 view .LVU894
 350:lvgl/src/widgets/lv_roller.c ****             roller->moved = 1;
 2951              		.loc 1 350 33 is_stmt 0 view .LVU895
 2952 014c FFF7FEFF 		bl	lv_obj_get_y
 2953              	.LVL372:
 350:lvgl/src/widgets/lv_roller.c ****             roller->moved = 1;
 2954              		.loc 1 350 56 discriminator 1 view .LVU896
 2955 0150 BDF80630 		ldrh	r3, [sp, #6]
 350:lvgl/src/widgets/lv_roller.c ****             roller->moved = 1;
 2956              		.loc 1 350 53 discriminator 1 view .LVU897
 2957 0154 13FA80F1 		uxtah	r1, r3, r0
 350:lvgl/src/widgets/lv_roller.c ****             roller->moved = 1;
 2958              		.loc 1 350 13 discriminator 1 view .LVU898
 2959 0158 09B2     		sxth	r1, r1
 2960 015a 2046     		mov	r0, r4
 2961 015c FFF7FEFF 		bl	lv_obj_set_y
 2962              	.LVL373:
 351:lvgl/src/widgets/lv_roller.c ****         }
 2963              		.loc 1 351 13 is_stmt 1 view .LVU899
 351:lvgl/src/widgets/lv_roller.c ****         }
 2964              		.loc 1 351 27 is_stmt 0 view .LVU900
 2965 0160 96F82A30 		ldrb	r3, [r6, #42]	@ zero_extendqisi2
 2966 0164 43F00203 		orr	r3, r3, #2
ARM GAS  C:\usertemp\cc2TdG63.s 			page 96


 2967 0168 86F82A30 		strb	r3, [r6, #42]
 2968 016c 50E7     		b	.L129
 2969              	.LVL374:
 2970              	.L140:
 351:lvgl/src/widgets/lv_roller.c ****         }
 2971              		.loc 1 351 27 view .LVU901
 2972              	.LBE154:
 2973              	.LBE153:
 355:lvgl/src/widgets/lv_roller.c ****     }
 2974              		.loc 1 355 9 is_stmt 1 view .LVU902
 2975 016e FFF7FEFF 		bl	release_handler
 2976              	.LVL375:
 355:lvgl/src/widgets/lv_roller.c ****     }
 2977              		.loc 1 355 9 is_stmt 0 view .LVU903
 2978 0172 4DE7     		b	.L129
 2979              	.LVL376:
 2980              	.L138:
 2981              	.LBB155:
 358:lvgl/src/widgets/lv_roller.c ****         bool editing               = lv_group_get_editing(g);
 2982              		.loc 1 358 9 is_stmt 1 view .LVU904
 358:lvgl/src/widgets/lv_roller.c ****         bool editing               = lv_group_get_editing(g);
 2983              		.loc 1 358 38 is_stmt 0 view .LVU905
 2984 0174 FFF7FEFF 		bl	lv_obj_get_group
 2985              	.LVL377:
 359:lvgl/src/widgets/lv_roller.c ****         lv_indev_type_t indev_type = lv_indev_get_type(lv_indev_get_act());
 2986              		.loc 1 359 9 is_stmt 1 view .LVU906
 359:lvgl/src/widgets/lv_roller.c ****         lv_indev_type_t indev_type = lv_indev_get_type(lv_indev_get_act());
 2987              		.loc 1 359 38 is_stmt 0 view .LVU907
 2988 0178 FFF7FEFF 		bl	lv_group_get_editing
 2989              	.LVL378:
 359:lvgl/src/widgets/lv_roller.c ****         lv_indev_type_t indev_type = lv_indev_get_type(lv_indev_get_act());
 2990              		.loc 1 359 38 view .LVU908
 2991 017c 0446     		mov	r4, r0
 2992              	.LVL379:
 360:lvgl/src/widgets/lv_roller.c **** 
 2993              		.loc 1 360 9 is_stmt 1 view .LVU909
 360:lvgl/src/widgets/lv_roller.c **** 
 2994              		.loc 1 360 56 is_stmt 0 view .LVU910
 2995 017e FFF7FEFF 		bl	lv_indev_get_act
 2996              	.LVL380:
 360:lvgl/src/widgets/lv_roller.c **** 
 2997              		.loc 1 360 38 discriminator 1 view .LVU911
 2998 0182 FFF7FEFF 		bl	lv_indev_get_type
 2999              	.LVL381:
 363:lvgl/src/widgets/lv_roller.c ****             /*In navigate mode revert the original value*/
 3000              		.loc 1 363 9 is_stmt 1 view .LVU912
 363:lvgl/src/widgets/lv_roller.c ****             /*In navigate mode revert the original value*/
 3001              		.loc 1 363 11 is_stmt 0 view .LVU913
 3002 0186 0428     		cmp	r0, #4
 3003 0188 02D0     		beq	.L151
 377:lvgl/src/widgets/lv_roller.c ****                                                                     ENTER won't be pressed*/
 3004              		.loc 1 377 13 is_stmt 1 view .LVU914
 377:lvgl/src/widgets/lv_roller.c ****                                                                     ENTER won't be pressed*/
 3005              		.loc 1 377 44 is_stmt 0 view .LVU915
 3006 018a F38C     		ldrh	r3, [r6, #38]
 377:lvgl/src/widgets/lv_roller.c ****                                                                     ENTER won't be pressed*/
 3007              		.loc 1 377 36 view .LVU916
ARM GAS  C:\usertemp\cc2TdG63.s 			page 97


 3008 018c 3385     		strh	r3, [r6, #40]	@ movhi
 3009 018e 3FE7     		b	.L129
 3010              	.L151:
 365:lvgl/src/widgets/lv_roller.c ****                 if(roller->sel_opt_id != roller->sel_opt_id_ori) {
 3011              		.loc 1 365 13 is_stmt 1 view .LVU917
 365:lvgl/src/widgets/lv_roller.c ****                 if(roller->sel_opt_id != roller->sel_opt_id_ori) {
 3012              		.loc 1 365 15 is_stmt 0 view .LVU918
 3013 0190 54B9     		cbnz	r4, .L146
 366:lvgl/src/widgets/lv_roller.c ****                     roller->sel_opt_id = roller->sel_opt_id_ori;
 3014              		.loc 1 366 17 is_stmt 1 view .LVU919
 366:lvgl/src/widgets/lv_roller.c ****                     roller->sel_opt_id = roller->sel_opt_id_ori;
 3015              		.loc 1 366 26 is_stmt 0 view .LVU920
 3016 0192 F28C     		ldrh	r2, [r6, #38]
 366:lvgl/src/widgets/lv_roller.c ****                     roller->sel_opt_id = roller->sel_opt_id_ori;
 3017              		.loc 1 366 48 view .LVU921
 3018 0194 338D     		ldrh	r3, [r6, #40]
 366:lvgl/src/widgets/lv_roller.c ****                     roller->sel_opt_id = roller->sel_opt_id_ori;
 3019              		.loc 1 366 19 view .LVU922
 3020 0196 9A42     		cmp	r2, r3
 3021 0198 3FF43AAF 		beq	.L129
 367:lvgl/src/widgets/lv_roller.c ****                     refr_position(obj, LV_ANIM_ON);
 3022              		.loc 1 367 21 is_stmt 1 view .LVU923
 367:lvgl/src/widgets/lv_roller.c ****                     refr_position(obj, LV_ANIM_ON);
 3023              		.loc 1 367 40 is_stmt 0 view .LVU924
 3024 019c F384     		strh	r3, [r6, #38]	@ movhi
 368:lvgl/src/widgets/lv_roller.c ****                 }
 3025              		.loc 1 368 21 is_stmt 1 view .LVU925
 3026 019e 0121     		movs	r1, #1
 3027 01a0 3046     		mov	r0, r6
 3028              	.LVL382:
 368:lvgl/src/widgets/lv_roller.c ****                 }
 3029              		.loc 1 368 21 is_stmt 0 view .LVU926
 3030 01a2 FFF7FEFF 		bl	refr_position
 3031              	.LVL383:
 3032 01a6 33E7     		b	.L129
 3033              	.LVL384:
 3034              	.L146:
 373:lvgl/src/widgets/lv_roller.c ****             }
 3035              		.loc 1 373 17 is_stmt 1 view .LVU927
 373:lvgl/src/widgets/lv_roller.c ****             }
 3036              		.loc 1 373 48 is_stmt 0 view .LVU928
 3037 01a8 F38C     		ldrh	r3, [r6, #38]
 373:lvgl/src/widgets/lv_roller.c ****             }
 3038              		.loc 1 373 40 view .LVU929
 3039 01aa 3385     		strh	r3, [r6, #40]	@ movhi
 3040 01ac 30E7     		b	.L129
 3041              	.LVL385:
 3042              	.L137:
 373:lvgl/src/widgets/lv_roller.c ****             }
 3043              		.loc 1 373 40 view .LVU930
 3044              	.LBE155:
 383:lvgl/src/widgets/lv_roller.c ****             roller->sel_opt_id = roller->sel_opt_id_ori;
 3045              		.loc 1 383 9 is_stmt 1 view .LVU931
 383:lvgl/src/widgets/lv_roller.c ****             roller->sel_opt_id = roller->sel_opt_id_ori;
 3046              		.loc 1 383 18 is_stmt 0 view .LVU932
 3047 01ae C28C     		ldrh	r2, [r0, #38]
 383:lvgl/src/widgets/lv_roller.c ****             roller->sel_opt_id = roller->sel_opt_id_ori;
ARM GAS  C:\usertemp\cc2TdG63.s 			page 98


 3048              		.loc 1 383 40 view .LVU933
 3049 01b0 038D     		ldrh	r3, [r0, #40]
 383:lvgl/src/widgets/lv_roller.c ****             roller->sel_opt_id = roller->sel_opt_id_ori;
 3050              		.loc 1 383 11 view .LVU934
 3051 01b2 9A42     		cmp	r2, r3
 3052 01b4 3FF42CAF 		beq	.L129
 384:lvgl/src/widgets/lv_roller.c ****             refr_position(obj, LV_ANIM_ON);
 3053              		.loc 1 384 13 is_stmt 1 view .LVU935
 384:lvgl/src/widgets/lv_roller.c ****             refr_position(obj, LV_ANIM_ON);
 3054              		.loc 1 384 32 is_stmt 0 view .LVU936
 3055 01b8 C384     		strh	r3, [r0, #38]	@ movhi
 385:lvgl/src/widgets/lv_roller.c ****         }
 3056              		.loc 1 385 13 is_stmt 1 view .LVU937
 3057 01ba 0121     		movs	r1, #1
 3058 01bc FFF7FEFF 		bl	refr_position
 3059              	.LVL386:
 385:lvgl/src/widgets/lv_roller.c ****         }
 3060              		.loc 1 385 13 is_stmt 0 view .LVU938
 3061 01c0 26E7     		b	.L129
 3062              	.LVL387:
 3063              	.L139:
 3064              	.LBB156:
 389:lvgl/src/widgets/lv_roller.c ****         if(c == LV_KEY_RIGHT || c == LV_KEY_DOWN) {
 3065              		.loc 1 389 9 is_stmt 1 view .LVU939
 389:lvgl/src/widgets/lv_roller.c ****         if(c == LV_KEY_RIGHT || c == LV_KEY_DOWN) {
 3066              		.loc 1 389 28 is_stmt 0 view .LVU940
 3067 01c2 2046     		mov	r0, r4
 3068              	.LVL388:
 389:lvgl/src/widgets/lv_roller.c ****         if(c == LV_KEY_RIGHT || c == LV_KEY_DOWN) {
 3069              		.loc 1 389 28 view .LVU941
 3070 01c4 FFF7FEFF 		bl	lv_event_get_param
 3071              	.LVL389:
 389:lvgl/src/widgets/lv_roller.c ****         if(c == LV_KEY_RIGHT || c == LV_KEY_DOWN) {
 3072              		.loc 1 389 14 discriminator 1 view .LVU942
 3073 01c8 0278     		ldrb	r2, [r0]	@ zero_extendqisi2
 3074              	.LVL390:
 390:lvgl/src/widgets/lv_roller.c ****             if(roller->sel_opt_id + 1 < roller->option_cnt) {
 3075              		.loc 1 390 9 is_stmt 1 view .LVU943
 390:lvgl/src/widgets/lv_roller.c ****             if(roller->sel_opt_id + 1 < roller->option_cnt) {
 3076              		.loc 1 390 30 is_stmt 0 view .LVU944
 3077 01ca A2F11203 		sub	r3, r2, #18
 3078 01ce DBB2     		uxtb	r3, r3
 390:lvgl/src/widgets/lv_roller.c ****             if(roller->sel_opt_id + 1 < roller->option_cnt) {
 3079              		.loc 1 390 11 view .LVU945
 3080 01d0 012B     		cmp	r3, #1
 3081 01d2 11D9     		bls	.L152
 397:lvgl/src/widgets/lv_roller.c ****             if(roller->sel_opt_id > 0) {
 3082              		.loc 1 397 14 is_stmt 1 view .LVU946
 397:lvgl/src/widgets/lv_roller.c ****             if(roller->sel_opt_id > 0) {
 3083              		.loc 1 397 16 is_stmt 0 view .LVU947
 3084 01d4 112A     		cmp	r2, #17
 3085 01d6 18BF     		it	ne
 3086 01d8 142A     		cmpne	r2, #20
 3087 01da 7FF419AF 		bne	.L129
 398:lvgl/src/widgets/lv_roller.c ****                 uint16_t ori_id = roller->sel_opt_id_ori; /*lv_roller_set_selected will overwrite t
 3088              		.loc 1 398 13 is_stmt 1 view .LVU948
 398:lvgl/src/widgets/lv_roller.c ****                 uint16_t ori_id = roller->sel_opt_id_ori; /*lv_roller_set_selected will overwrite t
ARM GAS  C:\usertemp\cc2TdG63.s 			page 99


 3089              		.loc 1 398 22 is_stmt 0 view .LVU949
 3090 01de F38C     		ldrh	r3, [r6, #38]
 398:lvgl/src/widgets/lv_roller.c ****                 uint16_t ori_id = roller->sel_opt_id_ori; /*lv_roller_set_selected will overwrite t
 3091              		.loc 1 398 15 view .LVU950
 3092 01e0 002B     		cmp	r3, #0
 3093 01e2 3FF415AF 		beq	.L129
 3094              	.LBB157:
 399:lvgl/src/widgets/lv_roller.c **** 
 3095              		.loc 1 399 17 is_stmt 1 view .LVU951
 399:lvgl/src/widgets/lv_roller.c **** 
 3096              		.loc 1 399 26 is_stmt 0 view .LVU952
 3097 01e6 348D     		ldrh	r4, [r6, #40]
 3098              	.LVL391:
 401:lvgl/src/widgets/lv_roller.c ****                 roller->sel_opt_id_ori = ori_id;
 3099              		.loc 1 401 17 is_stmt 1 view .LVU953
 3100 01e8 013B     		subs	r3, r3, #1
 3101 01ea 0122     		movs	r2, #1
 3102              	.LVL392:
 401:lvgl/src/widgets/lv_roller.c ****                 roller->sel_opt_id_ori = ori_id;
 3103              		.loc 1 401 17 is_stmt 0 view .LVU954
 3104 01ec 99B2     		uxth	r1, r3
 3105 01ee 3046     		mov	r0, r6
 3106              	.LVL393:
 401:lvgl/src/widgets/lv_roller.c ****                 roller->sel_opt_id_ori = ori_id;
 3107              		.loc 1 401 17 view .LVU955
 3108 01f0 FFF7FEFF 		bl	lv_roller_set_selected
 3109              	.LVL394:
 402:lvgl/src/widgets/lv_roller.c ****             }
 3110              		.loc 1 402 17 is_stmt 1 view .LVU956
 402:lvgl/src/widgets/lv_roller.c ****             }
 3111              		.loc 1 402 40 is_stmt 0 view .LVU957
 3112 01f4 3485     		strh	r4, [r6, #40]	@ movhi
 3113 01f6 0BE7     		b	.L129
 3114              	.LVL395:
 3115              	.L152:
 402:lvgl/src/widgets/lv_roller.c ****             }
 3116              		.loc 1 402 40 view .LVU958
 3117              	.LBE157:
 391:lvgl/src/widgets/lv_roller.c ****                 uint16_t ori_id = roller->sel_opt_id_ori; /*lv_roller_set_selected will overwrite t
 3118              		.loc 1 391 13 is_stmt 1 view .LVU959
 391:lvgl/src/widgets/lv_roller.c ****                 uint16_t ori_id = roller->sel_opt_id_ori; /*lv_roller_set_selected will overwrite t
 3119              		.loc 1 391 22 is_stmt 0 view .LVU960
 3120 01f8 F38C     		ldrh	r3, [r6, #38]
 391:lvgl/src/widgets/lv_roller.c ****                 uint16_t ori_id = roller->sel_opt_id_ori; /*lv_roller_set_selected will overwrite t
 3121              		.loc 1 391 35 view .LVU961
 3122 01fa 591C     		adds	r1, r3, #1
 391:lvgl/src/widgets/lv_roller.c ****                 uint16_t ori_id = roller->sel_opt_id_ori; /*lv_roller_set_selected will overwrite t
 3123              		.loc 1 391 47 view .LVU962
 3124 01fc B28C     		ldrh	r2, [r6, #36]
 3125              	.LVL396:
 391:lvgl/src/widgets/lv_roller.c ****                 uint16_t ori_id = roller->sel_opt_id_ori; /*lv_roller_set_selected will overwrite t
 3126              		.loc 1 391 15 view .LVU963
 3127 01fe 9142     		cmp	r1, r2
 3128 0200 BFF606AF 		bge	.L129
 3129              	.LBB158:
 392:lvgl/src/widgets/lv_roller.c ****                 lv_roller_set_selected(obj, roller->sel_opt_id + 1, LV_ANIM_ON);
 3130              		.loc 1 392 17 is_stmt 1 view .LVU964
ARM GAS  C:\usertemp\cc2TdG63.s 			page 100


 392:lvgl/src/widgets/lv_roller.c ****                 lv_roller_set_selected(obj, roller->sel_opt_id + 1, LV_ANIM_ON);
 3131              		.loc 1 392 26 is_stmt 0 view .LVU965
 3132 0204 348D     		ldrh	r4, [r6, #40]
 3133              	.LVL397:
 393:lvgl/src/widgets/lv_roller.c ****                 roller->sel_opt_id_ori = ori_id;
 3134              		.loc 1 393 17 is_stmt 1 view .LVU966
 3135 0206 0122     		movs	r2, #1
 3136 0208 89B2     		uxth	r1, r1
 3137 020a 3046     		mov	r0, r6
 3138              	.LVL398:
 393:lvgl/src/widgets/lv_roller.c ****                 roller->sel_opt_id_ori = ori_id;
 3139              		.loc 1 393 17 is_stmt 0 view .LVU967
 3140 020c FFF7FEFF 		bl	lv_roller_set_selected
 3141              	.LVL399:
 394:lvgl/src/widgets/lv_roller.c ****             }
 3142              		.loc 1 394 17 is_stmt 1 view .LVU968
 394:lvgl/src/widgets/lv_roller.c ****             }
 3143              		.loc 1 394 40 is_stmt 0 view .LVU969
 3144 0210 3485     		strh	r4, [r6, #40]	@ movhi
 3145 0212 FDE6     		b	.L129
 3146              	.LVL400:
 3147              	.L136:
 394:lvgl/src/widgets/lv_roller.c ****             }
 3148              		.loc 1 394 40 view .LVU970
 3149              	.LBE158:
 3150              	.LBE156:
 3151              	.LBB159:
 407:lvgl/src/widgets/lv_roller.c ****         lv_obj_refresh_ext_draw_size(label);
 3152              		.loc 1 407 9 is_stmt 1 view .LVU971
 407:lvgl/src/widgets/lv_roller.c ****         lv_obj_refresh_ext_draw_size(label);
 3153              		.loc 1 407 28 is_stmt 0 view .LVU972
 3154 0214 FFF7FEFF 		bl	get_label
 3155              	.LVL401:
 408:lvgl/src/widgets/lv_roller.c ****     }
 3156              		.loc 1 408 9 is_stmt 1 view .LVU973
 3157 0218 FFF7FEFF 		bl	lv_obj_refresh_ext_draw_size
 3158              	.LVL402:
 408:lvgl/src/widgets/lv_roller.c ****     }
 3159              		.loc 1 408 9 is_stmt 0 view .LVU974
 3160              	.LBE159:
 3161 021c F8E6     		b	.L129
 3162              	.LVL403:
 3163              	.L135:
 411:lvgl/src/widgets/lv_roller.c ****     }
 3164              		.loc 1 411 9 is_stmt 1 view .LVU975
 3165 021e 2046     		mov	r0, r4
 3166              	.LVL404:
 411:lvgl/src/widgets/lv_roller.c ****     }
 3167              		.loc 1 411 9 is_stmt 0 view .LVU976
 3168 0220 FFF7FEFF 		bl	draw_main
 3169              	.LVL405:
 3170 0224 F4E6     		b	.L129
 3171              	.L154:
 3172 0226 00BF     		.align	2
 3173              	.L153:
 3174 0228 00000000 		.word	lv_roller_class
 3175 022c 00000000 		.word	set_y_anim
ARM GAS  C:\usertemp\cc2TdG63.s 			page 101


 3176              		.cfi_endproc
 3177              	.LFE165:
 3179              		.section	.text.lv_roller_set_visible_row_count,"ax",%progbits
 3180              		.align	1
 3181              		.global	lv_roller_set_visible_row_count
 3182              		.syntax unified
 3183              		.thumb
 3184              		.thumb_func
 3186              	lv_roller_set_visible_row_count:
 3187              	.LVL406:
 3188              	.LFB159:
 189:lvgl/src/widgets/lv_roller.c ****     LV_ASSERT_OBJ(obj, MY_CLASS);
 3189              		.loc 1 189 1 is_stmt 1 view -0
 3190              		.cfi_startproc
 3191              		@ args = 0, pretend = 0, frame = 0
 3192              		@ frame_needed = 0, uses_anonymous_args = 0
 189:lvgl/src/widgets/lv_roller.c ****     LV_ASSERT_OBJ(obj, MY_CLASS);
 3193              		.loc 1 189 1 is_stmt 0 view .LVU978
 3194 0000 F8B5     		push	{r3, r4, r5, r6, r7, lr}
 3195              	.LCFI39:
 3196              		.cfi_def_cfa_offset 24
 3197              		.cfi_offset 3, -24
 3198              		.cfi_offset 4, -20
 3199              		.cfi_offset 5, -16
 3200              		.cfi_offset 6, -12
 3201              		.cfi_offset 7, -8
 3202              		.cfi_offset 14, -4
 3203 0002 0546     		mov	r5, r0
 3204 0004 0E46     		mov	r6, r1
 190:lvgl/src/widgets/lv_roller.c **** 
 3205              		.loc 1 190 5 is_stmt 1 view .LVU979
 190:lvgl/src/widgets/lv_roller.c **** 
 3206              		.loc 1 190 5 view .LVU980
 190:lvgl/src/widgets/lv_roller.c **** 
 3207              		.loc 1 190 5 view .LVU981
 192:lvgl/src/widgets/lv_roller.c ****     lv_coord_t line_space = lv_obj_get_style_text_line_space(obj, LV_PART_MAIN);
 3208              		.loc 1 192 5 view .LVU982
 3209              	.LVL407:
 3210              	.LBB160:
 3211              	.LBI160:
 451:lvgl/src/widgets/../core/lv_obj_style_gen.h **** {
 3212              		.loc 2 451 33 view .LVU983
 3213              	.LBB161:
 453:lvgl/src/widgets/../core/lv_obj_style_gen.h ****     return (const lv_font_t *)v.ptr;
 3214              		.loc 2 453 5 view .LVU984
 453:lvgl/src/widgets/../core/lv_obj_style_gen.h ****     return (const lv_font_t *)v.ptr;
 3215              		.loc 2 453 26 is_stmt 0 view .LVU985
 3216 0006 41F25942 		movw	r2, #5209
 3217 000a 0021     		movs	r1, #0
 3218              	.LVL408:
 453:lvgl/src/widgets/../core/lv_obj_style_gen.h ****     return (const lv_font_t *)v.ptr;
 3219              		.loc 2 453 26 view .LVU986
 3220 000c FFF7FEFF 		bl	lv_obj_get_style_prop
 3221              	.LVL409:
 453:lvgl/src/widgets/../core/lv_obj_style_gen.h ****     return (const lv_font_t *)v.ptr;
 3222              		.loc 2 453 26 view .LVU987
 3223 0010 0746     		mov	r7, r0
ARM GAS  C:\usertemp\cc2TdG63.s 			page 102


 3224              	.LVL410:
 454:lvgl/src/widgets/../core/lv_obj_style_gen.h **** }
 3225              		.loc 2 454 5 is_stmt 1 view .LVU988
 454:lvgl/src/widgets/../core/lv_obj_style_gen.h **** }
 3226              		.loc 2 454 5 is_stmt 0 view .LVU989
 3227              	.LBE161:
 3228              	.LBE160:
 193:lvgl/src/widgets/lv_roller.c ****     lv_coord_t border_width = lv_obj_get_style_border_width(obj, LV_PART_MAIN);
 3229              		.loc 1 193 5 is_stmt 1 view .LVU990
 3230              	.LBB162:
 3231              	.LBI162:
 463:lvgl/src/widgets/../core/lv_obj_style_gen.h **** {
 3232              		.loc 2 463 26 view .LVU991
 3233              	.LBB163:
 465:lvgl/src/widgets/../core/lv_obj_style_gen.h ****     return (lv_coord_t)v.num;
 3234              		.loc 2 465 5 view .LVU992
 465:lvgl/src/widgets/../core/lv_obj_style_gen.h ****     return (lv_coord_t)v.num;
 3235              		.loc 2 465 26 is_stmt 0 view .LVU993
 3236 0012 41F25B42 		movw	r2, #5211
 3237 0016 0021     		movs	r1, #0
 3238 0018 2846     		mov	r0, r5
 3239              	.LVL411:
 465:lvgl/src/widgets/../core/lv_obj_style_gen.h ****     return (lv_coord_t)v.num;
 3240              		.loc 2 465 26 view .LVU994
 3241 001a FFF7FEFF 		bl	lv_obj_get_style_prop
 3242              	.LVL412:
 466:lvgl/src/widgets/../core/lv_obj_style_gen.h **** }
 3243              		.loc 2 466 5 is_stmt 1 view .LVU995
 466:lvgl/src/widgets/../core/lv_obj_style_gen.h **** }
 3244              		.loc 2 466 12 is_stmt 0 view .LVU996
 3245 001e 04B2     		sxth	r4, r0
 3246              	.LVL413:
 466:lvgl/src/widgets/../core/lv_obj_style_gen.h **** }
 3247              		.loc 2 466 12 view .LVU997
 3248              	.LBE163:
 3249              	.LBE162:
 194:lvgl/src/widgets/lv_roller.c ****     lv_obj_set_height(obj, (lv_font_get_line_height(font) + line_space) * row_cnt + 2 * border_widt
 3250              		.loc 1 194 5 is_stmt 1 view .LVU998
 3251              	.LBB164:
 3252              	.LBI164:
 241:lvgl/src/widgets/../core/lv_obj_style_gen.h **** {
 3253              		.loc 2 241 26 view .LVU999
 3254              	.LBB165:
 243:lvgl/src/widgets/../core/lv_obj_style_gen.h ****     return (lv_coord_t)v.num;
 3255              		.loc 2 243 5 view .LVU1000
 243:lvgl/src/widgets/../core/lv_obj_style_gen.h ****     return (lv_coord_t)v.num;
 3256              		.loc 2 243 26 is_stmt 0 view .LVU1001
 3257 0020 41F23202 		movw	r2, #4146
 3258 0024 0021     		movs	r1, #0
 3259 0026 2846     		mov	r0, r5
 3260 0028 FFF7FEFF 		bl	lv_obj_get_style_prop
 3261              	.LVL414:
 244:lvgl/src/widgets/../core/lv_obj_style_gen.h **** }
 3262              		.loc 2 244 5 is_stmt 1 view .LVU1002
 244:lvgl/src/widgets/../core/lv_obj_style_gen.h **** }
 3263              		.loc 2 244 5 is_stmt 0 view .LVU1003
 3264              	.LBE165:
ARM GAS  C:\usertemp\cc2TdG63.s 			page 103


 3265              	.LBE164:
 195:lvgl/src/widgets/lv_roller.c **** }
 3266              		.loc 1 195 5 is_stmt 1 view .LVU1004
 3267              	.LBB166:
 3268              	.LBI166:
 121:lvgl/src/widgets/../core/../misc/../font/lv_font.h **** {
 3269              		.loc 3 121 26 view .LVU1005
 3270              	.LBB167:
 3271              		.loc 3 123 5 view .LVU1006
 3272              		.loc 3 123 18 is_stmt 0 view .LVU1007
 3273 002c B7F90830 		ldrsh	r3, [r7, #8]
 3274              	.LVL415:
 3275              		.loc 3 123 18 view .LVU1008
 3276              	.LBE167:
 3277              	.LBE166:
 195:lvgl/src/widgets/lv_roller.c **** }
 3278              		.loc 1 195 59 discriminator 1 view .LVU1009
 3279 0030 1C44     		add	r4, r4, r3
 3280              	.LVL416:
 195:lvgl/src/widgets/lv_roller.c **** }
 3281              		.loc 1 195 87 discriminator 1 view .LVU1010
 3282 0032 4300     		lsls	r3, r0, #1
 3283 0034 9BB2     		uxth	r3, r3
 195:lvgl/src/widgets/lv_roller.c **** }
 3284              		.loc 1 195 83 discriminator 1 view .LVU1011
 3285 0036 14FB06F4 		smulbb	r4, r4, r6
 3286 003a 1919     		adds	r1, r3, r4
 195:lvgl/src/widgets/lv_roller.c **** }
 3287              		.loc 1 195 5 discriminator 1 view .LVU1012
 3288 003c 09B2     		sxth	r1, r1
 3289 003e 2846     		mov	r0, r5
 3290              	.LVL417:
 195:lvgl/src/widgets/lv_roller.c **** }
 3291              		.loc 1 195 5 discriminator 1 view .LVU1013
 3292 0040 FFF7FEFF 		bl	lv_obj_set_height
 3293              	.LVL418:
 196:lvgl/src/widgets/lv_roller.c **** 
 3294              		.loc 1 196 1 view .LVU1014
 3295 0044 F8BD     		pop	{r3, r4, r5, r6, r7, pc}
 196:lvgl/src/widgets/lv_roller.c **** 
 3296              		.loc 1 196 1 view .LVU1015
 3297              		.cfi_endproc
 3298              	.LFE159:
 3300              		.section	.text.lv_roller_get_selected,"ax",%progbits
 3301              		.align	1
 3302              		.global	lv_roller_get_selected
 3303              		.syntax unified
 3304              		.thumb
 3305              		.thumb_func
 3307              	lv_roller_get_selected:
 3308              	.LVL419:
 3309              	.LFB160:
 208:lvgl/src/widgets/lv_roller.c ****     LV_ASSERT_OBJ(obj, MY_CLASS);
 3310              		.loc 1 208 1 is_stmt 1 view -0
 3311              		.cfi_startproc
 3312              		@ args = 0, pretend = 0, frame = 0
 3313              		@ frame_needed = 0, uses_anonymous_args = 0
ARM GAS  C:\usertemp\cc2TdG63.s 			page 104


 3314              		@ link register save eliminated.
 209:lvgl/src/widgets/lv_roller.c **** 
 3315              		.loc 1 209 5 view .LVU1017
 209:lvgl/src/widgets/lv_roller.c **** 
 3316              		.loc 1 209 5 view .LVU1018
 209:lvgl/src/widgets/lv_roller.c **** 
 3317              		.loc 1 209 5 view .LVU1019
 211:lvgl/src/widgets/lv_roller.c ****     if(roller->mode == LV_ROLLER_MODE_INFINITE) {
 3318              		.loc 1 211 5 view .LVU1020
 212:lvgl/src/widgets/lv_roller.c ****         uint16_t real_id_cnt = roller->option_cnt / LV_ROLLER_INF_PAGES;
 3319              		.loc 1 212 5 view .LVU1021
 212:lvgl/src/widgets/lv_roller.c ****         uint16_t real_id_cnt = roller->option_cnt / LV_ROLLER_INF_PAGES;
 3320              		.loc 1 212 21 is_stmt 0 view .LVU1022
 3321 0000 90F82A30 		ldrb	r3, [r0, #42]	@ zero_extendqisi2
 212:lvgl/src/widgets/lv_roller.c ****         uint16_t real_id_cnt = roller->option_cnt / LV_ROLLER_INF_PAGES;
 3322              		.loc 1 212 7 view .LVU1023
 3323 0004 13F0010F 		tst	r3, #1
 3324 0008 0FD0     		beq	.L158
 3325              	.LBB168:
 213:lvgl/src/widgets/lv_roller.c ****         return roller->sel_opt_id % real_id_cnt;
 3326              		.loc 1 213 9 is_stmt 1 view .LVU1024
 213:lvgl/src/widgets/lv_roller.c ****         return roller->sel_opt_id % real_id_cnt;
 3327              		.loc 1 213 38 is_stmt 0 view .LVU1025
 3328 000a 828C     		ldrh	r2, [r0, #36]
 213:lvgl/src/widgets/lv_roller.c ****         return roller->sel_opt_id % real_id_cnt;
 3329              		.loc 1 213 18 view .LVU1026
 3330 000c 084B     		ldr	r3, .L160
 3331 000e A3FB0213 		umull	r1, r3, r3, r2
 3332 0012 D21A     		subs	r2, r2, r3
 3333 0014 03EB5203 		add	r3, r3, r2, lsr #1
 3334 0018 C3F38F03 		ubfx	r3, r3, #2, #16
 3335              	.LVL420:
 214:lvgl/src/widgets/lv_roller.c ****     }
 3336              		.loc 1 214 9 is_stmt 1 view .LVU1027
 214:lvgl/src/widgets/lv_roller.c ****     }
 3337              		.loc 1 214 22 is_stmt 0 view .LVU1028
 3338 001c C08C     		ldrh	r0, [r0, #38]
 3339              	.LVL421:
 214:lvgl/src/widgets/lv_roller.c ****     }
 3340              		.loc 1 214 35 view .LVU1029
 3341 001e B0FBF3F2 		udiv	r2, r0, r3
 3342 0022 03FB1200 		mls	r0, r3, r2, r0
 3343 0026 80B2     		uxth	r0, r0
 3344 0028 7047     		bx	lr
 3345              	.LVL422:
 3346              	.L158:
 214:lvgl/src/widgets/lv_roller.c ****     }
 3347              		.loc 1 214 35 view .LVU1030
 3348              	.LBE168:
 217:lvgl/src/widgets/lv_roller.c ****     }
 3349              		.loc 1 217 9 is_stmt 1 view .LVU1031
 217:lvgl/src/widgets/lv_roller.c ****     }
 3350              		.loc 1 217 22 is_stmt 0 view .LVU1032
 3351 002a C08C     		ldrh	r0, [r0, #38]
 3352              	.LVL423:
 219:lvgl/src/widgets/lv_roller.c **** 
 3353              		.loc 1 219 1 view .LVU1033
ARM GAS  C:\usertemp\cc2TdG63.s 			page 105


 3354 002c 7047     		bx	lr
 3355              	.L161:
 3356 002e 00BF     		.align	2
 3357              	.L160:
 3358 0030 25499224 		.word	613566757
 3359              		.cfi_endproc
 3360              	.LFE160:
 3362              		.section	.text.lv_roller_get_selected_str,"ax",%progbits
 3363              		.align	1
 3364              		.global	lv_roller_get_selected_str
 3365              		.syntax unified
 3366              		.thumb
 3367              		.thumb_func
 3369              	lv_roller_get_selected_str:
 3370              	.LVL424:
 3371              	.LFB161:
 228:lvgl/src/widgets/lv_roller.c ****     LV_ASSERT_OBJ(obj, MY_CLASS);
 3372              		.loc 1 228 1 is_stmt 1 view -0
 3373              		.cfi_startproc
 3374              		@ args = 0, pretend = 0, frame = 0
 3375              		@ frame_needed = 0, uses_anonymous_args = 0
 228:lvgl/src/widgets/lv_roller.c ****     LV_ASSERT_OBJ(obj, MY_CLASS);
 3376              		.loc 1 228 1 is_stmt 0 view .LVU1035
 3377 0000 F8B5     		push	{r3, r4, r5, r6, r7, lr}
 3378              	.LCFI40:
 3379              		.cfi_def_cfa_offset 24
 3380              		.cfi_offset 3, -24
 3381              		.cfi_offset 4, -20
 3382              		.cfi_offset 5, -16
 3383              		.cfi_offset 6, -12
 3384              		.cfi_offset 7, -8
 3385              		.cfi_offset 14, -4
 3386 0002 0746     		mov	r7, r0
 3387 0004 0E46     		mov	r6, r1
 3388 0006 1546     		mov	r5, r2
 229:lvgl/src/widgets/lv_roller.c **** 
 3389              		.loc 1 229 5 is_stmt 1 view .LVU1036
 229:lvgl/src/widgets/lv_roller.c **** 
 3390              		.loc 1 229 5 view .LVU1037
 229:lvgl/src/widgets/lv_roller.c **** 
 3391              		.loc 1 229 5 view .LVU1038
 231:lvgl/src/widgets/lv_roller.c ****     lv_obj_t * label = get_label(obj);
 3392              		.loc 1 231 5 view .LVU1039
 3393              	.LVL425:
 232:lvgl/src/widgets/lv_roller.c ****     uint32_t i;
 3394              		.loc 1 232 5 view .LVU1040
 232:lvgl/src/widgets/lv_roller.c ****     uint32_t i;
 3395              		.loc 1 232 24 is_stmt 0 view .LVU1041
 3396 0008 FFF7FEFF 		bl	get_label
 3397              	.LVL426:
 233:lvgl/src/widgets/lv_roller.c ****     uint16_t line        = 0;
 3398              		.loc 1 233 5 is_stmt 1 view .LVU1042
 234:lvgl/src/widgets/lv_roller.c ****     const char * opt_txt = lv_label_get_text(label);
 3399              		.loc 1 234 5 view .LVU1043
 235:lvgl/src/widgets/lv_roller.c ****     size_t txt_len     = strlen(opt_txt);
 3400              		.loc 1 235 5 view .LVU1044
 235:lvgl/src/widgets/lv_roller.c ****     size_t txt_len     = strlen(opt_txt);
ARM GAS  C:\usertemp\cc2TdG63.s 			page 106


 3401              		.loc 1 235 28 is_stmt 0 view .LVU1045
 3402 000c FFF7FEFF 		bl	lv_label_get_text
 3403              	.LVL427:
 235:lvgl/src/widgets/lv_roller.c ****     size_t txt_len     = strlen(opt_txt);
 3404              		.loc 1 235 28 view .LVU1046
 3405 0010 0446     		mov	r4, r0
 3406              	.LVL428:
 236:lvgl/src/widgets/lv_roller.c **** 
 3407              		.loc 1 236 5 is_stmt 1 view .LVU1047
 236:lvgl/src/widgets/lv_roller.c **** 
 3408              		.loc 1 236 26 is_stmt 0 view .LVU1048
 3409 0012 FFF7FEFF 		bl	strlen
 3410              	.LVL429:
 238:lvgl/src/widgets/lv_roller.c ****         if(opt_txt[i] == '\n') line++;
 3411              		.loc 1 238 5 is_stmt 1 view .LVU1049
 234:lvgl/src/widgets/lv_roller.c ****     const char * opt_txt = lv_label_get_text(label);
 3412              		.loc 1 234 14 is_stmt 0 view .LVU1050
 3413 0016 0022     		movs	r2, #0
 238:lvgl/src/widgets/lv_roller.c ****         if(opt_txt[i] == '\n') line++;
 3414              		.loc 1 238 11 view .LVU1051
 3415 0018 1346     		mov	r3, r2
 238:lvgl/src/widgets/lv_roller.c ****         if(opt_txt[i] == '\n') line++;
 3416              		.loc 1 238 5 view .LVU1052
 3417 001a 00E0     		b	.L163
 3418              	.LVL430:
 3419              	.L164:
 238:lvgl/src/widgets/lv_roller.c ****         if(opt_txt[i] == '\n') line++;
 3420              		.loc 1 238 60 is_stmt 1 discriminator 2 view .LVU1053
 3421 001c 0133     		adds	r3, r3, #1
 3422              	.LVL431:
 3423              	.L163:
 238:lvgl/src/widgets/lv_roller.c ****         if(opt_txt[i] == '\n') line++;
 3424              		.loc 1 238 28 discriminator 1 view .LVU1054
 3425 001e 8342     		cmp	r3, r0
 3426 0020 20D2     		bcs	.L171
 238:lvgl/src/widgets/lv_roller.c ****         if(opt_txt[i] == '\n') line++;
 3427              		.loc 1 238 45 is_stmt 0 discriminator 3 view .LVU1055
 3428 0022 F98C     		ldrh	r1, [r7, #38]
 238:lvgl/src/widgets/lv_roller.c ****         if(opt_txt[i] == '\n') line++;
 3429              		.loc 1 238 28 discriminator 3 view .LVU1056
 3430 0024 9142     		cmp	r1, r2
 3431 0026 05D0     		beq	.L173
 239:lvgl/src/widgets/lv_roller.c ****     }
 3432              		.loc 1 239 9 is_stmt 1 view .LVU1057
 239:lvgl/src/widgets/lv_roller.c ****     }
 3433              		.loc 1 239 19 is_stmt 0 view .LVU1058
 3434 0028 E15C     		ldrb	r1, [r4, r3]	@ zero_extendqisi2
 239:lvgl/src/widgets/lv_roller.c ****     }
 3435              		.loc 1 239 11 view .LVU1059
 3436 002a 0A29     		cmp	r1, #10
 3437 002c F6D1     		bne	.L164
 239:lvgl/src/widgets/lv_roller.c ****     }
 3438              		.loc 1 239 32 is_stmt 1 discriminator 1 view .LVU1060
 239:lvgl/src/widgets/lv_roller.c ****     }
 3439              		.loc 1 239 36 is_stmt 0 discriminator 1 view .LVU1061
 3440 002e 0132     		adds	r2, r2, #1
 3441              	.LVL432:
ARM GAS  C:\usertemp\cc2TdG63.s 			page 107


 239:lvgl/src/widgets/lv_roller.c ****     }
 3442              		.loc 1 239 36 discriminator 1 view .LVU1062
 3443 0030 92B2     		uxth	r2, r2
 3444              	.LVL433:
 239:lvgl/src/widgets/lv_roller.c ****     }
 3445              		.loc 1 239 36 discriminator 1 view .LVU1063
 3446 0032 F3E7     		b	.L164
 3447              	.L173:
 239:lvgl/src/widgets/lv_roller.c ****     }
 3448              		.loc 1 239 36 discriminator 1 view .LVU1064
 3449 0034 4FF0000C 		mov	ip, #0
 3450 0038 04E0     		b	.L169
 3451              	.LVL434:
 3452              	.L167:
 248:lvgl/src/widgets/lv_roller.c ****     }
 3453              		.loc 1 248 9 is_stmt 1 view .LVU1065
 248:lvgl/src/widgets/lv_roller.c ****     }
 3454              		.loc 1 248 16 is_stmt 0 view .LVU1066
 3455 003a 06F80CE0 		strb	lr, [r6, ip]
 243:lvgl/src/widgets/lv_roller.c ****         if(buf_size && c >= buf_size - 1) {
 3456              		.loc 1 243 54 is_stmt 1 discriminator 2 view .LVU1067
 243:lvgl/src/widgets/lv_roller.c ****         if(buf_size && c >= buf_size - 1) {
 3457              		.loc 1 243 52 is_stmt 0 discriminator 2 view .LVU1068
 3458 003e 0CF1010C 		add	ip, ip, #1
 3459              	.LVL435:
 243:lvgl/src/widgets/lv_roller.c ****         if(buf_size && c >= buf_size - 1) {
 3460              		.loc 1 243 57 discriminator 2 view .LVU1069
 3461 0042 0133     		adds	r3, r3, #1
 3462              	.LVL436:
 3463              	.L169:
 243:lvgl/src/widgets/lv_roller.c ****         if(buf_size && c >= buf_size - 1) {
 3464              		.loc 1 243 28 is_stmt 1 discriminator 1 view .LVU1070
 3465 0044 8342     		cmp	r3, r0
 3466 0046 09D2     		bcs	.L168
 243:lvgl/src/widgets/lv_roller.c ****         if(buf_size && c >= buf_size - 1) {
 3467              		.loc 1 243 38 is_stmt 0 discriminator 3 view .LVU1071
 3468 0048 14F803E0 		ldrb	lr, [r4, r3]	@ zero_extendqisi2
 243:lvgl/src/widgets/lv_roller.c ****         if(buf_size && c >= buf_size - 1) {
 3469              		.loc 1 243 28 discriminator 3 view .LVU1072
 3470 004c BEF10A0F 		cmp	lr, #10
 3471 0050 04D0     		beq	.L168
 244:lvgl/src/widgets/lv_roller.c ****             LV_LOG_WARN("lv_dropdown_get_selected_str: the buffer was too small");
 3472              		.loc 1 244 9 is_stmt 1 view .LVU1073
 244:lvgl/src/widgets/lv_roller.c ****             LV_LOG_WARN("lv_dropdown_get_selected_str: the buffer was too small");
 3473              		.loc 1 244 11 is_stmt 0 view .LVU1074
 3474 0052 002D     		cmp	r5, #0
 3475 0054 F1D0     		beq	.L167
 244:lvgl/src/widgets/lv_roller.c ****             LV_LOG_WARN("lv_dropdown_get_selected_str: the buffer was too small");
 3476              		.loc 1 244 38 discriminator 1 view .LVU1075
 3477 0056 6A1E     		subs	r2, r5, #1
 244:lvgl/src/widgets/lv_roller.c ****             LV_LOG_WARN("lv_dropdown_get_selected_str: the buffer was too small");
 3478              		.loc 1 244 21 discriminator 1 view .LVU1076
 3479 0058 6245     		cmp	r2, ip
 3480 005a EED8     		bhi	.L167
 3481              	.L168:
 251:lvgl/src/widgets/lv_roller.c **** }
 3482              		.loc 1 251 5 is_stmt 1 view .LVU1077
ARM GAS  C:\usertemp\cc2TdG63.s 			page 108


 251:lvgl/src/widgets/lv_roller.c **** }
 3483              		.loc 1 251 12 is_stmt 0 view .LVU1078
 3484 005c 0023     		movs	r3, #0
 3485              	.LVL437:
 251:lvgl/src/widgets/lv_roller.c **** }
 3486              		.loc 1 251 12 view .LVU1079
 3487 005e 06F80C30 		strb	r3, [r6, ip]
 252:lvgl/src/widgets/lv_roller.c **** 
 3488              		.loc 1 252 1 view .LVU1080
 3489 0062 F8BD     		pop	{r3, r4, r5, r6, r7, pc}
 3490              	.LVL438:
 3491              	.L171:
 252:lvgl/src/widgets/lv_roller.c **** 
 3492              		.loc 1 252 1 view .LVU1081
 3493 0064 4FF0000C 		mov	ip, #0
 3494 0068 ECE7     		b	.L169
 3495              		.cfi_endproc
 3496              	.LFE161:
 3498              		.section	.text.lv_roller_get_options,"ax",%progbits
 3499              		.align	1
 3500              		.global	lv_roller_get_options
 3501              		.syntax unified
 3502              		.thumb
 3503              		.thumb_func
 3505              	lv_roller_get_options:
 3506              	.LVL439:
 3507              	.LFB162:
 261:lvgl/src/widgets/lv_roller.c ****     LV_ASSERT_OBJ(obj, MY_CLASS);
 3508              		.loc 1 261 1 is_stmt 1 view -0
 3509              		.cfi_startproc
 3510              		@ args = 0, pretend = 0, frame = 0
 3511              		@ frame_needed = 0, uses_anonymous_args = 0
 261:lvgl/src/widgets/lv_roller.c ****     LV_ASSERT_OBJ(obj, MY_CLASS);
 3512              		.loc 1 261 1 is_stmt 0 view .LVU1083
 3513 0000 08B5     		push	{r3, lr}
 3514              	.LCFI41:
 3515              		.cfi_def_cfa_offset 8
 3516              		.cfi_offset 3, -8
 3517              		.cfi_offset 14, -4
 262:lvgl/src/widgets/lv_roller.c **** 
 3518              		.loc 1 262 5 is_stmt 1 view .LVU1084
 262:lvgl/src/widgets/lv_roller.c **** 
 3519              		.loc 1 262 5 view .LVU1085
 262:lvgl/src/widgets/lv_roller.c **** 
 3520              		.loc 1 262 5 view .LVU1086
 264:lvgl/src/widgets/lv_roller.c **** }
 3521              		.loc 1 264 5 view .LVU1087
 264:lvgl/src/widgets/lv_roller.c **** }
 3522              		.loc 1 264 30 is_stmt 0 view .LVU1088
 3523 0002 FFF7FEFF 		bl	get_label
 3524              	.LVL440:
 264:lvgl/src/widgets/lv_roller.c **** }
 3525              		.loc 1 264 12 discriminator 1 view .LVU1089
 3526 0006 FFF7FEFF 		bl	lv_label_get_text
 3527              	.LVL441:
 265:lvgl/src/widgets/lv_roller.c **** 
 3528              		.loc 1 265 1 view .LVU1090
ARM GAS  C:\usertemp\cc2TdG63.s 			page 109


 3529 000a 08BD     		pop	{r3, pc}
 3530              		.cfi_endproc
 3531              	.LFE162:
 3533              		.section	.text.lv_roller_get_option_cnt,"ax",%progbits
 3534              		.align	1
 3535              		.global	lv_roller_get_option_cnt
 3536              		.syntax unified
 3537              		.thumb
 3538              		.thumb_func
 3540              	lv_roller_get_option_cnt:
 3541              	.LVL442:
 3542              	.LFB163:
 274:lvgl/src/widgets/lv_roller.c ****     LV_ASSERT_OBJ(obj, MY_CLASS);
 3543              		.loc 1 274 1 is_stmt 1 view -0
 3544              		.cfi_startproc
 3545              		@ args = 0, pretend = 0, frame = 0
 3546              		@ frame_needed = 0, uses_anonymous_args = 0
 3547              		@ link register save eliminated.
 275:lvgl/src/widgets/lv_roller.c **** 
 3548              		.loc 1 275 5 view .LVU1092
 275:lvgl/src/widgets/lv_roller.c **** 
 3549              		.loc 1 275 5 view .LVU1093
 275:lvgl/src/widgets/lv_roller.c **** 
 3550              		.loc 1 275 5 view .LVU1094
 277:lvgl/src/widgets/lv_roller.c ****     if(roller->mode == LV_ROLLER_MODE_INFINITE) {
 3551              		.loc 1 277 5 view .LVU1095
 278:lvgl/src/widgets/lv_roller.c ****         return roller->option_cnt / LV_ROLLER_INF_PAGES;
 3552              		.loc 1 278 5 view .LVU1096
 278:lvgl/src/widgets/lv_roller.c ****         return roller->option_cnt / LV_ROLLER_INF_PAGES;
 3553              		.loc 1 278 21 is_stmt 0 view .LVU1097
 3554 0000 90F82A30 		ldrb	r3, [r0, #42]	@ zero_extendqisi2
 278:lvgl/src/widgets/lv_roller.c ****         return roller->option_cnt / LV_ROLLER_INF_PAGES;
 3555              		.loc 1 278 7 view .LVU1098
 3556 0004 13F0010F 		tst	r3, #1
 3557 0008 09D0     		beq	.L177
 279:lvgl/src/widgets/lv_roller.c ****     }
 3558              		.loc 1 279 9 is_stmt 1 view .LVU1099
 279:lvgl/src/widgets/lv_roller.c ****     }
 3559              		.loc 1 279 22 is_stmt 0 view .LVU1100
 3560 000a 838C     		ldrh	r3, [r0, #36]
 279:lvgl/src/widgets/lv_roller.c ****     }
 3561              		.loc 1 279 35 view .LVU1101
 3562 000c 0548     		ldr	r0, .L179
 3563              	.LVL443:
 279:lvgl/src/widgets/lv_roller.c ****     }
 3564              		.loc 1 279 35 view .LVU1102
 3565 000e A0FB0320 		umull	r2, r0, r0, r3
 3566 0012 1B1A     		subs	r3, r3, r0
 3567 0014 00EB5300 		add	r0, r0, r3, lsr #1
 3568 0018 C0F38F00 		ubfx	r0, r0, #2, #16
 3569 001c 7047     		bx	lr
 3570              	.LVL444:
 3571              	.L177:
 282:lvgl/src/widgets/lv_roller.c ****     }
 3572              		.loc 1 282 9 is_stmt 1 view .LVU1103
 282:lvgl/src/widgets/lv_roller.c ****     }
 3573              		.loc 1 282 22 is_stmt 0 view .LVU1104
ARM GAS  C:\usertemp\cc2TdG63.s 			page 110


 3574 001e 808C     		ldrh	r0, [r0, #36]
 3575              	.LVL445:
 284:lvgl/src/widgets/lv_roller.c **** 
 3576              		.loc 1 284 1 view .LVU1105
 3577 0020 7047     		bx	lr
 3578              	.L180:
 3579 0022 00BF     		.align	2
 3580              	.L179:
 3581 0024 25499224 		.word	613566757
 3582              		.cfi_endproc
 3583              	.LFE163:
 3585              		.global	lv_roller_label_class
 3586              		.section	.rodata.lv_roller_label_class,"a"
 3587              		.align	2
 3590              	lv_roller_label_class:
 3591 0000 00000000 		.word	lv_label_class
 3592 0004 00000000 		.space	12
 3592      00000000 
 3592      00000000 
 3593 0010 00000000 		.word	lv_roller_label_event
 3594 0014 00000000 		.space	4
 3595 0018 C0       		.byte	192
 3596 0019 04       		.byte	4
 3597 001a 00       		.byte	0
 3598 001b 00       		.space	1
 3599              		.global	lv_roller_class
 3600              		.section	.rodata.lv_roller_class,"a"
 3601              		.align	2
 3604              	lv_roller_class:
 3605 0000 00000000 		.word	lv_obj_class
 3606 0004 00000000 		.word	lv_roller_constructor
 3607 0008 00000000 		.space	8
 3607      00000000 
 3608 0010 00000000 		.word	lv_roller_event
 3609 0014 D127     		.short	10193
 3610 0016 8200     		.short	130
 3611 0018 C5       		.byte	197
 3612 0019 02       		.byte	2
 3613 001a 00       		.byte	0
 3614 001b 00       		.space	1
 3615              		.text
 3616              	.Letext0:
 3617              		.file 5 "D:/armtoolchain/arm-gnu-toolchain-13.3.rel1-mingw-w64-i686-arm-none-eabi/arm-none-eabi/in
 3618              		.file 6 "D:/armtoolchain/arm-gnu-toolchain-13.3.rel1-mingw-w64-i686-arm-none-eabi/arm-none-eabi/in
 3619              		.file 7 "D:/armtoolchain/arm-gnu-toolchain-13.3.rel1-mingw-w64-i686-arm-none-eabi/lib/gcc/arm-none
 3620              		.file 8 "lvgl/src/widgets/../core/../misc/../font/../misc/lv_area.h"
 3621              		.file 9 "lvgl/src/widgets/../core/../misc/lv_types.h"
 3622              		.file 10 "lvgl/src/widgets/../core/../misc/lv_color.h"
 3623              		.file 11 "lvgl/src/widgets/../core/../misc/lv_txt.h"
 3624              		.file 12 "lvgl/src/widgets/../core/../misc/lv_bidi.h"
 3625              		.file 13 "lvgl/src/widgets/../core/../misc/lv_style.h"
 3626              		.file 14 "lvgl/src/widgets/../core/../hal/../draw/lv_img_buf.h"
 3627              		.file 15 "lvgl/src/widgets/../core/lv_obj.h"
 3628              		.file 16 "lvgl/src/widgets/../core/../hal/../draw/lv_draw_rect.h"
 3629              		.file 17 "lvgl/src/widgets/../core/../hal/../draw/lv_draw_label.h"
 3630              		.file 18 "lvgl/src/widgets/../core/../hal/../draw/lv_draw_img.h"
 3631              		.file 19 "lvgl/src/widgets/../core/../hal/../draw/lv_draw_line.h"
ARM GAS  C:\usertemp\cc2TdG63.s 			page 111


 3632              		.file 20 "lvgl/src/widgets/../core/../hal/../draw/lv_draw_arc.h"
 3633              		.file 21 "lvgl/src/widgets/../core/../hal/../draw/lv_draw.h"
 3634              		.file 22 "lvgl/src/widgets/../core/../hal/../misc/lv_ll.h"
 3635              		.file 23 "lvgl/src/widgets/../core/../hal/../misc/lv_timer.h"
 3636              		.file 24 "lvgl/src/widgets/../core/../hal/lv_hal_disp.h"
 3637              		.file 25 "lvgl/src/widgets/../core/../hal/lv_hal_indev.h"
 3638              		.file 26 "lvgl/src/widgets/../core/lv_group.h"
 3639              		.file 27 "lvgl/src/widgets/../core/lv_obj_scroll.h"
 3640              		.file 28 "lvgl/src/widgets/../core/lv_obj_style.h"
 3641              		.file 29 "lvgl/src/widgets/../core/lv_obj_class.h"
 3642              		.file 30 "lvgl/src/widgets/../core/lv_event.h"
 3643              		.file 31 "lvgl/src/widgets/lv_label.h"
 3644              		.file 32 "lvgl/src/widgets/lv_roller.h"
 3645              		.file 33 "D:/update_2024EL/changeform/743zit6/lvgl/src/core/lv_obj_pos.h"
 3646              		.file 34 "lvgl/src/widgets/../core/../misc/lv_mem.h"
 3647              		.file 35 "D:/armtoolchain/arm-gnu-toolchain-13.3.rel1-mingw-w64-i686-arm-none-eabi/arm-none-eabi/i
 3648              		.file 36 "lvgl/src/widgets/../core/lv_obj_draw.h"
 3649              		.file 37 "lvgl/src/widgets/../core/lv_obj_tree.h"
 3650              		.file 38 "lvgl/src/widgets/../core/lv_indev_scroll.h"
 3651              		.file 39 "lvgl/src/widgets/../core/lv_indev.h"
ARM GAS  C:\usertemp\cc2TdG63.s 			page 112


DEFINED SYMBOLS
                            *ABS*:00000000 lv_roller.c
C:\usertemp\cc2TdG63.s:20     .text.set_y_anim:00000000 $t
C:\usertemp\cc2TdG63.s:25     .text.set_y_anim:00000000 set_y_anim
C:\usertemp\cc2TdG63.s:50     .text.get_label:00000000 $t
C:\usertemp\cc2TdG63.s:55     .text.get_label:00000000 get_label
C:\usertemp\cc2TdG63.s:79     .text.get_selected_label_width:00000000 $t
C:\usertemp\cc2TdG63.s:84     .text.get_selected_label_width:00000000 get_selected_label_width
C:\usertemp\cc2TdG63.s:200    .text.inf_normalize:00000000 $t
C:\usertemp\cc2TdG63.s:205    .text.inf_normalize:00000000 inf_normalize
C:\usertemp\cc2TdG63.s:394    .text.inf_normalize:000000ac $d
C:\usertemp\cc2TdG63.s:400    .text.scroll_anim_ready_cb:00000000 $t
C:\usertemp\cc2TdG63.s:405    .text.scroll_anim_ready_cb:00000000 scroll_anim_ready_cb
C:\usertemp\cc2TdG63.s:434    .text.refr_position:00000000 $t
C:\usertemp\cc2TdG63.s:439    .text.refr_position:00000000 refr_position
C:\usertemp\cc2TdG63.s:833    .text.refr_position:00000140 $d
C:\usertemp\cc2TdG63.s:841    .text.get_sel_area:00000000 $t
C:\usertemp\cc2TdG63.s:846    .text.get_sel_area:00000000 get_sel_area
C:\usertemp\cc2TdG63.s:1032   .text.draw_main:00000000 $t
C:\usertemp\cc2TdG63.s:1037   .text.draw_main:00000000 draw_main
C:\usertemp\cc2TdG63.s:1442   .text.draw_label:00000000 $t
C:\usertemp\cc2TdG63.s:1447   .text.draw_label:00000000 draw_label
C:\usertemp\cc2TdG63.s:1677   .text.lv_roller_label_event:00000000 $t
C:\usertemp\cc2TdG63.s:1682   .text.lv_roller_label_event:00000000 lv_roller_label_event
C:\usertemp\cc2TdG63.s:1818   .text.lv_roller_label_event:00000070 $d
C:\usertemp\cc2TdG63.s:3590   .rodata.lv_roller_label_class:00000000 lv_roller_label_class
C:\usertemp\cc2TdG63.s:1823   .text.lv_roller_create:00000000 $t
C:\usertemp\cc2TdG63.s:1829   .text.lv_roller_create:00000000 lv_roller_create
C:\usertemp\cc2TdG63.s:1868   .text.lv_roller_create:00000014 $d
C:\usertemp\cc2TdG63.s:3604   .rodata.lv_roller_class:00000000 lv_roller_class
C:\usertemp\cc2TdG63.s:1873   .text.lv_roller_set_options:00000000 $t
C:\usertemp\cc2TdG63.s:1879   .text.lv_roller_set_options:00000000 lv_roller_set_options
C:\usertemp\cc2TdG63.s:2109   .rodata.lv_roller_constructor.str1.4:00000000 $d
C:\usertemp\cc2TdG63.s:2114   .text.lv_roller_constructor:00000000 $t
C:\usertemp\cc2TdG63.s:2119   .text.lv_roller_constructor:00000000 lv_roller_constructor
C:\usertemp\cc2TdG63.s:2195   .text.lv_roller_constructor:00000044 $d
C:\usertemp\cc2TdG63.s:2201   .text.lv_roller_set_selected:00000000 $t
C:\usertemp\cc2TdG63.s:2207   .text.lv_roller_set_selected:00000000 lv_roller_set_selected
C:\usertemp\cc2TdG63.s:2298   .text.lv_roller_set_selected:00000058 $d
C:\usertemp\cc2TdG63.s:2303   .text.release_handler:00000000 $t
C:\usertemp\cc2TdG63.s:2308   .text.release_handler:00000000 release_handler
C:\usertemp\cc2TdG63.s:2726   .text.release_handler:00000160 $d
C:\usertemp\cc2TdG63.s:2731   .text.lv_roller_event:00000000 $t
C:\usertemp\cc2TdG63.s:2736   .text.lv_roller_event:00000000 lv_roller_event
C:\usertemp\cc2TdG63.s:2806   .text.lv_roller_event:00000030 $d
C:\usertemp\cc2TdG63.s:2850   .text.lv_roller_event:000000e0 $t
C:\usertemp\cc2TdG63.s:3174   .text.lv_roller_event:00000228 $d
C:\usertemp\cc2TdG63.s:3180   .text.lv_roller_set_visible_row_count:00000000 $t
C:\usertemp\cc2TdG63.s:3186   .text.lv_roller_set_visible_row_count:00000000 lv_roller_set_visible_row_count
C:\usertemp\cc2TdG63.s:3301   .text.lv_roller_get_selected:00000000 $t
C:\usertemp\cc2TdG63.s:3307   .text.lv_roller_get_selected:00000000 lv_roller_get_selected
C:\usertemp\cc2TdG63.s:3358   .text.lv_roller_get_selected:00000030 $d
C:\usertemp\cc2TdG63.s:3363   .text.lv_roller_get_selected_str:00000000 $t
C:\usertemp\cc2TdG63.s:3369   .text.lv_roller_get_selected_str:00000000 lv_roller_get_selected_str
C:\usertemp\cc2TdG63.s:3499   .text.lv_roller_get_options:00000000 $t
C:\usertemp\cc2TdG63.s:3505   .text.lv_roller_get_options:00000000 lv_roller_get_options
C:\usertemp\cc2TdG63.s:3534   .text.lv_roller_get_option_cnt:00000000 $t
ARM GAS  C:\usertemp\cc2TdG63.s 			page 113


C:\usertemp\cc2TdG63.s:3540   .text.lv_roller_get_option_cnt:00000000 lv_roller_get_option_cnt
C:\usertemp\cc2TdG63.s:3581   .text.lv_roller_get_option_cnt:00000024 $d
C:\usertemp\cc2TdG63.s:3587   .rodata.lv_roller_label_class:00000000 $d
C:\usertemp\cc2TdG63.s:3601   .rodata.lv_roller_class:00000000 $d

UNDEFINED SYMBOLS
lv_obj_set_y
lv_obj_get_child
lv_obj_get_style_prop
lv_label_get_text
lv_txt_get_size
lv_obj_get_content_height
lv_obj_get_parent
lv_obj_calculate_style_text_align
lv_anim_del
lv_obj_get_content_width
lv_obj_get_width
lv_obj_set_x
lv_anim_init
lv_obj_get_y
lv_anim_start
lv_anim_path_ease_out
lv_obj_get_height
lv_obj_get_coords
lv_event_get_code
lv_event_get_target
lv_event_get_draw_ctx
lv_draw_rect_dsc_init
lv_obj_init_draw_rect_dsc
lv_draw_rect
lv_draw_label_dsc_init
lv_obj_init_draw_label_dsc
_lv_area_intersect
lv_draw_label
lv_obj_event_base
lv_event_get_param
lv_obj_class_create_obj
lv_obj_class_init_obj
lv_label_set_text
lv_obj_refresh_ext_draw_size
strlen
lv_mem_buf_get
strcpy
lv_mem_buf_release
lv_obj_clear_flag
lv_indev_get_act
lv_indev_get_type
lv_indev_get_point
lv_label_get_letter_on
lv_obj_get_group
lv_group_get_editing
lv_group_set_editing
lv_indev_scroll_throw_predict
lv_event_send
_lv_txt_encoded_next
lv_obj_refresh_self_size
lv_indev_get_vect
ARM GAS  C:\usertemp\cc2TdG63.s 			page 114


lv_obj_set_height
lv_label_class
lv_obj_class
