ARM GAS  C:\usertemp\ccKDNimi.s 			page 1


   1              		.cpu cortex-m7
   2              		.arch armv7e-m
   3              		.fpu fpv5-d16
   4              		.eabi_attribute 28, 1
   5              		.eabi_attribute 20, 1
   6              		.eabi_attribute 21, 1
   7              		.eabi_attribute 23, 3
   8              		.eabi_attribute 24, 1
   9              		.eabi_attribute 25, 1
  10              		.eabi_attribute 26, 1
  11              		.eabi_attribute 30, 1
  12              		.eabi_attribute 34, 1
  13              		.eabi_attribute 18, 4
  14              		.file	"lv_sjpg.c"
  15              		.text
  16              	.Ltext0:
  17              		.cfi_sections	.debug_frame
  18              		.file 1 "lvgl/src/extra/libs/sjpg/lv_sjpg.c"
  19              		.section	.text.decoder_read_line,"ax",%progbits
  20              		.align	1
  21              		.syntax unified
  22              		.thumb
  23              		.thumb_func
  25              	decoder_read_line:
  26              	.LVL0:
  27              	.LFB201:
   1:lvgl/src/extra/libs/sjpg/lv_sjpg.c **** /**
   2:lvgl/src/extra/libs/sjpg/lv_sjpg.c ****  * @file lv_sjpg.c
   3:lvgl/src/extra/libs/sjpg/lv_sjpg.c ****  *
   4:lvgl/src/extra/libs/sjpg/lv_sjpg.c ****  */
   5:lvgl/src/extra/libs/sjpg/lv_sjpg.c **** 
   6:lvgl/src/extra/libs/sjpg/lv_sjpg.c **** /*-------------------------------------------------------------------------------------------------
   7:lvgl/src/extra/libs/sjpg/lv_sjpg.c **** /    Added normal JPG support [7/10/2020]
   8:lvgl/src/extra/libs/sjpg/lv_sjpg.c **** /    ----------
   9:lvgl/src/extra/libs/sjpg/lv_sjpg.c **** /    SJPEG is a custom created modified JPEG file format for small embedded platforms.
  10:lvgl/src/extra/libs/sjpg/lv_sjpg.c **** /    It will contain multiple JPEG fragments all embedded into a single file with a custom header.
  11:lvgl/src/extra/libs/sjpg/lv_sjpg.c **** /    This makes JPEG decoding easier using any JPEG library. Overall file size will be almost
  12:lvgl/src/extra/libs/sjpg/lv_sjpg.c **** /    similar to the parent jpeg file. We can generate sjpeg from any jpeg using a python script
  13:lvgl/src/extra/libs/sjpg/lv_sjpg.c **** /    provided along with this project.
  14:lvgl/src/extra/libs/sjpg/lv_sjpg.c **** /                                                                                     (by vinodstan
  15:lvgl/src/extra/libs/sjpg/lv_sjpg.c **** /    SJPEG FILE STRUCTURE
  16:lvgl/src/extra/libs/sjpg/lv_sjpg.c **** /    ----------------------------------------------------------------------------------------------
  17:lvgl/src/extra/libs/sjpg/lv_sjpg.c **** /    Bytes                       |   Value                                                         
  18:lvgl/src/extra/libs/sjpg/lv_sjpg.c **** /    ----------------------------------------------------------------------------------------------
  19:lvgl/src/extra/libs/sjpg/lv_sjpg.c **** /
  20:lvgl/src/extra/libs/sjpg/lv_sjpg.c **** /    0 - 7                       |   "_SJPG__" followed by '\0'
  21:lvgl/src/extra/libs/sjpg/lv_sjpg.c **** /
  22:lvgl/src/extra/libs/sjpg/lv_sjpg.c **** /    8 - 13                      |   "V1.00" followed by '\0'       [VERSION OF SJPG FILE for futur
  23:lvgl/src/extra/libs/sjpg/lv_sjpg.c **** /
  24:lvgl/src/extra/libs/sjpg/lv_sjpg.c **** /    14 - 15                     |   X_RESOLUTION (width)            [little endian]
  25:lvgl/src/extra/libs/sjpg/lv_sjpg.c **** /
  26:lvgl/src/extra/libs/sjpg/lv_sjpg.c **** /    16 - 17                     |   Y_RESOLUTION (height)           [little endian]
  27:lvgl/src/extra/libs/sjpg/lv_sjpg.c **** /
  28:lvgl/src/extra/libs/sjpg/lv_sjpg.c **** /    18 - 19                     |   TOTAL_FRAMES inside sjpeg       [little endian]
  29:lvgl/src/extra/libs/sjpg/lv_sjpg.c **** /
  30:lvgl/src/extra/libs/sjpg/lv_sjpg.c **** /    20 - 21                     |   JPEG BLOCK WIDTH (16 normally)  [little endian]
  31:lvgl/src/extra/libs/sjpg/lv_sjpg.c **** /
ARM GAS  C:\usertemp\ccKDNimi.s 			page 2


  32:lvgl/src/extra/libs/sjpg/lv_sjpg.c **** /    22 - [(TOTAL_FRAMES*2 )]    |   SIZE OF EACH JPEG SPLIT FRAGMENTS   (FRAME_INFO_ARRAY)
  33:lvgl/src/extra/libs/sjpg/lv_sjpg.c **** /
  34:lvgl/src/extra/libs/sjpg/lv_sjpg.c **** /   SJPEG data                   |   Each JPEG frame can be extracted from SJPEG data by parsing th
  35:lvgl/src/extra/libs/sjpg/lv_sjpg.c **** /
  36:lvgl/src/extra/libs/sjpg/lv_sjpg.c **** /--------------------------------------------------------------------------------------------------
  37:lvgl/src/extra/libs/sjpg/lv_sjpg.c **** /                   JPEG DECODER
  38:lvgl/src/extra/libs/sjpg/lv_sjpg.c **** /                   ------------
  39:lvgl/src/extra/libs/sjpg/lv_sjpg.c **** /   We are using TJpgDec - Tiny JPEG Decompressor library from ELM-CHAN for decoding each split-jpe
  40:lvgl/src/extra/libs/sjpg/lv_sjpg.c **** /   The tjpgd.c and tjpgd.h is not modified and those are used as it is. So if any update comes for
  41:lvgl/src/extra/libs/sjpg/lv_sjpg.c **** /   just replace those files with updated files.
  42:lvgl/src/extra/libs/sjpg/lv_sjpg.c **** /--------------------------------------------------------------------------------------------------
  43:lvgl/src/extra/libs/sjpg/lv_sjpg.c **** 
  44:lvgl/src/extra/libs/sjpg/lv_sjpg.c **** /*********************
  45:lvgl/src/extra/libs/sjpg/lv_sjpg.c ****  *      INCLUDES
  46:lvgl/src/extra/libs/sjpg/lv_sjpg.c ****  *********************/
  47:lvgl/src/extra/libs/sjpg/lv_sjpg.c **** 
  48:lvgl/src/extra/libs/sjpg/lv_sjpg.c **** #include "../../../lvgl.h"
  49:lvgl/src/extra/libs/sjpg/lv_sjpg.c **** #if LV_USE_SJPG
  50:lvgl/src/extra/libs/sjpg/lv_sjpg.c **** 
  51:lvgl/src/extra/libs/sjpg/lv_sjpg.c **** #include "tjpgd.h"
  52:lvgl/src/extra/libs/sjpg/lv_sjpg.c **** #include "lv_sjpg.h"
  53:lvgl/src/extra/libs/sjpg/lv_sjpg.c **** #include "../../../misc/lv_fs.h"
  54:lvgl/src/extra/libs/sjpg/lv_sjpg.c **** 
  55:lvgl/src/extra/libs/sjpg/lv_sjpg.c **** /*********************
  56:lvgl/src/extra/libs/sjpg/lv_sjpg.c ****  *      DEFINES
  57:lvgl/src/extra/libs/sjpg/lv_sjpg.c ****  *********************/
  58:lvgl/src/extra/libs/sjpg/lv_sjpg.c **** #define TJPGD_WORKBUFF_SIZE             4096    //Recommended by TJPGD libray
  59:lvgl/src/extra/libs/sjpg/lv_sjpg.c **** 
  60:lvgl/src/extra/libs/sjpg/lv_sjpg.c **** //NEVER EDIT THESE OFFSET VALUES
  61:lvgl/src/extra/libs/sjpg/lv_sjpg.c **** #define SJPEG_VERSION_OFFSET            8
  62:lvgl/src/extra/libs/sjpg/lv_sjpg.c **** #define SJPEG_X_RES_OFFSET              14
  63:lvgl/src/extra/libs/sjpg/lv_sjpg.c **** #define SJPEG_y_RES_OFFSET              16
  64:lvgl/src/extra/libs/sjpg/lv_sjpg.c **** #define SJPEG_TOTAL_FRAMES_OFFSET       18
  65:lvgl/src/extra/libs/sjpg/lv_sjpg.c **** #define SJPEG_BLOCK_WIDTH_OFFSET        20
  66:lvgl/src/extra/libs/sjpg/lv_sjpg.c **** #define SJPEG_FRAME_INFO_ARRAY_OFFSET   22
  67:lvgl/src/extra/libs/sjpg/lv_sjpg.c **** 
  68:lvgl/src/extra/libs/sjpg/lv_sjpg.c **** /**********************
  69:lvgl/src/extra/libs/sjpg/lv_sjpg.c ****  *      TYPEDEFS
  70:lvgl/src/extra/libs/sjpg/lv_sjpg.c ****  **********************/
  71:lvgl/src/extra/libs/sjpg/lv_sjpg.c **** 
  72:lvgl/src/extra/libs/sjpg/lv_sjpg.c **** enum io_source_type {
  73:lvgl/src/extra/libs/sjpg/lv_sjpg.c ****     SJPEG_IO_SOURCE_C_ARRAY,
  74:lvgl/src/extra/libs/sjpg/lv_sjpg.c ****     SJPEG_IO_SOURCE_DISK,
  75:lvgl/src/extra/libs/sjpg/lv_sjpg.c **** };
  76:lvgl/src/extra/libs/sjpg/lv_sjpg.c **** 
  77:lvgl/src/extra/libs/sjpg/lv_sjpg.c **** typedef struct {
  78:lvgl/src/extra/libs/sjpg/lv_sjpg.c ****     enum io_source_type type;
  79:lvgl/src/extra/libs/sjpg/lv_sjpg.c ****     lv_fs_file_t lv_file;
  80:lvgl/src/extra/libs/sjpg/lv_sjpg.c ****     uint8_t * img_cache_buff;
  81:lvgl/src/extra/libs/sjpg/lv_sjpg.c ****     int img_cache_x_res;
  82:lvgl/src/extra/libs/sjpg/lv_sjpg.c ****     int img_cache_y_res;
  83:lvgl/src/extra/libs/sjpg/lv_sjpg.c ****     uint8_t * raw_sjpg_data;              //Used when type==SJPEG_IO_SOURCE_C_ARRAY.
  84:lvgl/src/extra/libs/sjpg/lv_sjpg.c ****     uint32_t raw_sjpg_data_size;          //Num bytes pointed to by raw_sjpg_data.
  85:lvgl/src/extra/libs/sjpg/lv_sjpg.c ****     uint32_t raw_sjpg_data_next_read_pos; //Used for all types.
  86:lvgl/src/extra/libs/sjpg/lv_sjpg.c **** } io_source_t;
  87:lvgl/src/extra/libs/sjpg/lv_sjpg.c **** 
  88:lvgl/src/extra/libs/sjpg/lv_sjpg.c **** 
ARM GAS  C:\usertemp\ccKDNimi.s 			page 3


  89:lvgl/src/extra/libs/sjpg/lv_sjpg.c **** typedef struct {
  90:lvgl/src/extra/libs/sjpg/lv_sjpg.c ****     uint8_t * sjpeg_data;
  91:lvgl/src/extra/libs/sjpg/lv_sjpg.c ****     uint32_t sjpeg_data_size;
  92:lvgl/src/extra/libs/sjpg/lv_sjpg.c ****     int sjpeg_x_res;
  93:lvgl/src/extra/libs/sjpg/lv_sjpg.c ****     int sjpeg_y_res;
  94:lvgl/src/extra/libs/sjpg/lv_sjpg.c ****     int sjpeg_total_frames;
  95:lvgl/src/extra/libs/sjpg/lv_sjpg.c ****     int sjpeg_single_frame_height;
  96:lvgl/src/extra/libs/sjpg/lv_sjpg.c ****     int sjpeg_cache_frame_index;
  97:lvgl/src/extra/libs/sjpg/lv_sjpg.c ****     uint8_t ** frame_base_array;        //to save base address of each split frames upto sjpeg_tota
  98:lvgl/src/extra/libs/sjpg/lv_sjpg.c ****     int * frame_base_offset;            //to save base offset for fseek
  99:lvgl/src/extra/libs/sjpg/lv_sjpg.c ****     uint8_t * frame_cache;
 100:lvgl/src/extra/libs/sjpg/lv_sjpg.c ****     uint8_t * workb;                    //JPG work buffer for jpeg library
 101:lvgl/src/extra/libs/sjpg/lv_sjpg.c ****     JDEC * tjpeg_jd;
 102:lvgl/src/extra/libs/sjpg/lv_sjpg.c ****     io_source_t io;
 103:lvgl/src/extra/libs/sjpg/lv_sjpg.c **** } SJPEG;
 104:lvgl/src/extra/libs/sjpg/lv_sjpg.c **** 
 105:lvgl/src/extra/libs/sjpg/lv_sjpg.c **** /**********************
 106:lvgl/src/extra/libs/sjpg/lv_sjpg.c ****  *  STATIC PROTOTYPES
 107:lvgl/src/extra/libs/sjpg/lv_sjpg.c ****  **********************/
 108:lvgl/src/extra/libs/sjpg/lv_sjpg.c **** static lv_res_t decoder_info(lv_img_decoder_t * decoder, const void * src, lv_img_header_t * header
 109:lvgl/src/extra/libs/sjpg/lv_sjpg.c **** static lv_res_t decoder_open(lv_img_decoder_t * decoder, lv_img_decoder_dsc_t * dsc);
 110:lvgl/src/extra/libs/sjpg/lv_sjpg.c **** static lv_res_t decoder_read_line(lv_img_decoder_t * decoder, lv_img_decoder_dsc_t * dsc, lv_coord_
 111:lvgl/src/extra/libs/sjpg/lv_sjpg.c ****                                   lv_coord_t len, uint8_t * buf);
 112:lvgl/src/extra/libs/sjpg/lv_sjpg.c **** static void decoder_close(lv_img_decoder_t * decoder, lv_img_decoder_dsc_t * dsc);
 113:lvgl/src/extra/libs/sjpg/lv_sjpg.c **** static size_t input_func(JDEC * jd, uint8_t * buff, size_t ndata);
 114:lvgl/src/extra/libs/sjpg/lv_sjpg.c **** static int is_jpg(const uint8_t * raw_data);
 115:lvgl/src/extra/libs/sjpg/lv_sjpg.c **** static void lv_sjpg_cleanup(SJPEG * sjpeg);
 116:lvgl/src/extra/libs/sjpg/lv_sjpg.c **** static void lv_sjpg_free(SJPEG * sjpeg);
 117:lvgl/src/extra/libs/sjpg/lv_sjpg.c **** 
 118:lvgl/src/extra/libs/sjpg/lv_sjpg.c **** /**********************
 119:lvgl/src/extra/libs/sjpg/lv_sjpg.c ****  *  STATIC VARIABLES
 120:lvgl/src/extra/libs/sjpg/lv_sjpg.c ****  **********************/
 121:lvgl/src/extra/libs/sjpg/lv_sjpg.c **** 
 122:lvgl/src/extra/libs/sjpg/lv_sjpg.c **** /**********************
 123:lvgl/src/extra/libs/sjpg/lv_sjpg.c ****  *      MACROS
 124:lvgl/src/extra/libs/sjpg/lv_sjpg.c ****  **********************/
 125:lvgl/src/extra/libs/sjpg/lv_sjpg.c **** 
 126:lvgl/src/extra/libs/sjpg/lv_sjpg.c **** /**********************
 127:lvgl/src/extra/libs/sjpg/lv_sjpg.c ****  *   GLOBAL FUNCTIONS
 128:lvgl/src/extra/libs/sjpg/lv_sjpg.c ****  **********************/
 129:lvgl/src/extra/libs/sjpg/lv_sjpg.c **** void lv_split_jpeg_init(void)
 130:lvgl/src/extra/libs/sjpg/lv_sjpg.c **** {
 131:lvgl/src/extra/libs/sjpg/lv_sjpg.c ****     lv_img_decoder_t * dec = lv_img_decoder_create();
 132:lvgl/src/extra/libs/sjpg/lv_sjpg.c ****     lv_img_decoder_set_info_cb(dec, decoder_info);
 133:lvgl/src/extra/libs/sjpg/lv_sjpg.c ****     lv_img_decoder_set_open_cb(dec, decoder_open);
 134:lvgl/src/extra/libs/sjpg/lv_sjpg.c ****     lv_img_decoder_set_close_cb(dec, decoder_close);
 135:lvgl/src/extra/libs/sjpg/lv_sjpg.c ****     lv_img_decoder_set_read_line_cb(dec, decoder_read_line);
 136:lvgl/src/extra/libs/sjpg/lv_sjpg.c **** }
 137:lvgl/src/extra/libs/sjpg/lv_sjpg.c **** 
 138:lvgl/src/extra/libs/sjpg/lv_sjpg.c **** /**********************
 139:lvgl/src/extra/libs/sjpg/lv_sjpg.c ****  *   STATIC FUNCTIONS
 140:lvgl/src/extra/libs/sjpg/lv_sjpg.c ****  **********************/
 141:lvgl/src/extra/libs/sjpg/lv_sjpg.c **** /**
 142:lvgl/src/extra/libs/sjpg/lv_sjpg.c ****  * Get info about an SJPG / JPG image
 143:lvgl/src/extra/libs/sjpg/lv_sjpg.c ****  * @param decoder pointer to the decoder where this function belongs
 144:lvgl/src/extra/libs/sjpg/lv_sjpg.c ****  * @param src can be file name or pointer to a C array
 145:lvgl/src/extra/libs/sjpg/lv_sjpg.c ****  * @param header store the info here
ARM GAS  C:\usertemp\ccKDNimi.s 			page 4


 146:lvgl/src/extra/libs/sjpg/lv_sjpg.c ****  * @return LV_RES_OK: no error; LV_RES_INV: can't get the info
 147:lvgl/src/extra/libs/sjpg/lv_sjpg.c ****  */
 148:lvgl/src/extra/libs/sjpg/lv_sjpg.c **** static lv_res_t decoder_info(lv_img_decoder_t * decoder, const void * src, lv_img_header_t * header
 149:lvgl/src/extra/libs/sjpg/lv_sjpg.c **** {
 150:lvgl/src/extra/libs/sjpg/lv_sjpg.c ****     LV_UNUSED(decoder);
 151:lvgl/src/extra/libs/sjpg/lv_sjpg.c **** 
 152:lvgl/src/extra/libs/sjpg/lv_sjpg.c ****     /*Check whether the type `src` is known by the decoder*/
 153:lvgl/src/extra/libs/sjpg/lv_sjpg.c ****     /* Read the SJPG/JPG header and find `width` and `height` */
 154:lvgl/src/extra/libs/sjpg/lv_sjpg.c **** 
 155:lvgl/src/extra/libs/sjpg/lv_sjpg.c ****     lv_img_src_t src_type = lv_img_src_get_type(src);          /*Get the source type*/
 156:lvgl/src/extra/libs/sjpg/lv_sjpg.c **** 
 157:lvgl/src/extra/libs/sjpg/lv_sjpg.c ****     lv_res_t ret = LV_RES_OK;
 158:lvgl/src/extra/libs/sjpg/lv_sjpg.c **** 
 159:lvgl/src/extra/libs/sjpg/lv_sjpg.c ****     if(src_type == LV_IMG_SRC_VARIABLE) {
 160:lvgl/src/extra/libs/sjpg/lv_sjpg.c ****         uint8_t * raw_sjpeg_data = (uint8_t *)((lv_img_dsc_t *)src)->data;
 161:lvgl/src/extra/libs/sjpg/lv_sjpg.c ****         const uint32_t raw_sjpeg_data_size = ((lv_img_dsc_t *)src)->data_size;
 162:lvgl/src/extra/libs/sjpg/lv_sjpg.c **** 
 163:lvgl/src/extra/libs/sjpg/lv_sjpg.c ****         if(!strncmp((char *)raw_sjpeg_data, "_SJPG__", strlen("_SJPG__"))) {
 164:lvgl/src/extra/libs/sjpg/lv_sjpg.c **** 
 165:lvgl/src/extra/libs/sjpg/lv_sjpg.c ****             raw_sjpeg_data += 14; //seek to res info ... refer sjpeg format
 166:lvgl/src/extra/libs/sjpg/lv_sjpg.c ****             header->always_zero = 0;
 167:lvgl/src/extra/libs/sjpg/lv_sjpg.c ****             header->cf = LV_IMG_CF_RAW;
 168:lvgl/src/extra/libs/sjpg/lv_sjpg.c **** 
 169:lvgl/src/extra/libs/sjpg/lv_sjpg.c ****             header->w = *raw_sjpeg_data++;
 170:lvgl/src/extra/libs/sjpg/lv_sjpg.c ****             header->w |= *raw_sjpeg_data++ << 8;
 171:lvgl/src/extra/libs/sjpg/lv_sjpg.c **** 
 172:lvgl/src/extra/libs/sjpg/lv_sjpg.c ****             header->h = *raw_sjpeg_data++;
 173:lvgl/src/extra/libs/sjpg/lv_sjpg.c ****             header->h |= *raw_sjpeg_data++ << 8;
 174:lvgl/src/extra/libs/sjpg/lv_sjpg.c **** 
 175:lvgl/src/extra/libs/sjpg/lv_sjpg.c ****             return ret;
 176:lvgl/src/extra/libs/sjpg/lv_sjpg.c **** 
 177:lvgl/src/extra/libs/sjpg/lv_sjpg.c ****         }
 178:lvgl/src/extra/libs/sjpg/lv_sjpg.c ****         else if(is_jpg(raw_sjpeg_data) == true) {
 179:lvgl/src/extra/libs/sjpg/lv_sjpg.c ****             header->always_zero = 0;
 180:lvgl/src/extra/libs/sjpg/lv_sjpg.c ****             header->cf = LV_IMG_CF_RAW;
 181:lvgl/src/extra/libs/sjpg/lv_sjpg.c **** 
 182:lvgl/src/extra/libs/sjpg/lv_sjpg.c ****             uint8_t * workb_temp = lv_mem_alloc(TJPGD_WORKBUFF_SIZE);
 183:lvgl/src/extra/libs/sjpg/lv_sjpg.c ****             if(!workb_temp) return LV_RES_INV;
 184:lvgl/src/extra/libs/sjpg/lv_sjpg.c **** 
 185:lvgl/src/extra/libs/sjpg/lv_sjpg.c ****             io_source_t io_source_temp;
 186:lvgl/src/extra/libs/sjpg/lv_sjpg.c ****             io_source_temp.type = SJPEG_IO_SOURCE_C_ARRAY;
 187:lvgl/src/extra/libs/sjpg/lv_sjpg.c ****             io_source_temp.raw_sjpg_data = raw_sjpeg_data;
 188:lvgl/src/extra/libs/sjpg/lv_sjpg.c ****             io_source_temp.raw_sjpg_data_size = raw_sjpeg_data_size;
 189:lvgl/src/extra/libs/sjpg/lv_sjpg.c ****             io_source_temp.raw_sjpg_data_next_read_pos = 0;
 190:lvgl/src/extra/libs/sjpg/lv_sjpg.c **** 
 191:lvgl/src/extra/libs/sjpg/lv_sjpg.c ****             JDEC jd_tmp;
 192:lvgl/src/extra/libs/sjpg/lv_sjpg.c **** 
 193:lvgl/src/extra/libs/sjpg/lv_sjpg.c ****             JRESULT rc = jd_prepare(&jd_tmp, input_func, workb_temp, (size_t)TJPGD_WORKBUFF_SIZE, &
 194:lvgl/src/extra/libs/sjpg/lv_sjpg.c ****             if(rc == JDR_OK) {
 195:lvgl/src/extra/libs/sjpg/lv_sjpg.c ****                 header->w = jd_tmp.width;
 196:lvgl/src/extra/libs/sjpg/lv_sjpg.c ****                 header->h = jd_tmp.height;
 197:lvgl/src/extra/libs/sjpg/lv_sjpg.c **** 
 198:lvgl/src/extra/libs/sjpg/lv_sjpg.c ****             }
 199:lvgl/src/extra/libs/sjpg/lv_sjpg.c ****             else {
 200:lvgl/src/extra/libs/sjpg/lv_sjpg.c ****                 ret = LV_RES_INV;
 201:lvgl/src/extra/libs/sjpg/lv_sjpg.c ****                 goto end;
 202:lvgl/src/extra/libs/sjpg/lv_sjpg.c ****             }
ARM GAS  C:\usertemp\ccKDNimi.s 			page 5


 203:lvgl/src/extra/libs/sjpg/lv_sjpg.c **** 
 204:lvgl/src/extra/libs/sjpg/lv_sjpg.c **** end:
 205:lvgl/src/extra/libs/sjpg/lv_sjpg.c ****             lv_mem_free(workb_temp);
 206:lvgl/src/extra/libs/sjpg/lv_sjpg.c **** 
 207:lvgl/src/extra/libs/sjpg/lv_sjpg.c ****             return ret;
 208:lvgl/src/extra/libs/sjpg/lv_sjpg.c **** 
 209:lvgl/src/extra/libs/sjpg/lv_sjpg.c ****         }
 210:lvgl/src/extra/libs/sjpg/lv_sjpg.c ****     }
 211:lvgl/src/extra/libs/sjpg/lv_sjpg.c ****     else if(src_type == LV_IMG_SRC_FILE) {
 212:lvgl/src/extra/libs/sjpg/lv_sjpg.c ****         const char * fn = src;
 213:lvgl/src/extra/libs/sjpg/lv_sjpg.c ****         if(!strcmp(&fn[strlen(fn) - 5], ".sjpg")) {
 214:lvgl/src/extra/libs/sjpg/lv_sjpg.c **** 
 215:lvgl/src/extra/libs/sjpg/lv_sjpg.c ****             uint8_t buff[22];
 216:lvgl/src/extra/libs/sjpg/lv_sjpg.c ****             memset(buff, 0, sizeof(buff));
 217:lvgl/src/extra/libs/sjpg/lv_sjpg.c **** 
 218:lvgl/src/extra/libs/sjpg/lv_sjpg.c ****             lv_fs_file_t file;
 219:lvgl/src/extra/libs/sjpg/lv_sjpg.c ****             lv_fs_res_t res = lv_fs_open(&file, fn, LV_FS_MODE_RD);
 220:lvgl/src/extra/libs/sjpg/lv_sjpg.c ****             if(res != LV_FS_RES_OK) return 78;
 221:lvgl/src/extra/libs/sjpg/lv_sjpg.c **** 
 222:lvgl/src/extra/libs/sjpg/lv_sjpg.c ****             uint32_t rn;
 223:lvgl/src/extra/libs/sjpg/lv_sjpg.c ****             res = lv_fs_read(&file, buff, 8, &rn);
 224:lvgl/src/extra/libs/sjpg/lv_sjpg.c ****             if(res != LV_FS_RES_OK || rn != 8) {
 225:lvgl/src/extra/libs/sjpg/lv_sjpg.c ****                 lv_fs_close(&file);
 226:lvgl/src/extra/libs/sjpg/lv_sjpg.c ****                 return LV_RES_INV;
 227:lvgl/src/extra/libs/sjpg/lv_sjpg.c ****             }
 228:lvgl/src/extra/libs/sjpg/lv_sjpg.c **** 
 229:lvgl/src/extra/libs/sjpg/lv_sjpg.c ****             if(strcmp((char *)buff, "_SJPG__") == 0) {
 230:lvgl/src/extra/libs/sjpg/lv_sjpg.c ****                 lv_fs_seek(&file, 14, LV_FS_SEEK_SET);
 231:lvgl/src/extra/libs/sjpg/lv_sjpg.c ****                 res = lv_fs_read(&file, buff, 4, &rn);
 232:lvgl/src/extra/libs/sjpg/lv_sjpg.c ****                 if(res != LV_FS_RES_OK || rn != 4) {
 233:lvgl/src/extra/libs/sjpg/lv_sjpg.c ****                     lv_fs_close(&file);
 234:lvgl/src/extra/libs/sjpg/lv_sjpg.c ****                     return LV_RES_INV;
 235:lvgl/src/extra/libs/sjpg/lv_sjpg.c ****                 }
 236:lvgl/src/extra/libs/sjpg/lv_sjpg.c ****                 header->always_zero = 0;
 237:lvgl/src/extra/libs/sjpg/lv_sjpg.c ****                 header->cf = LV_IMG_CF_RAW;
 238:lvgl/src/extra/libs/sjpg/lv_sjpg.c ****                 uint8_t * raw_sjpeg_data = buff;
 239:lvgl/src/extra/libs/sjpg/lv_sjpg.c ****                 header->w = *raw_sjpeg_data++;
 240:lvgl/src/extra/libs/sjpg/lv_sjpg.c ****                 header->w |= *raw_sjpeg_data++ << 8;
 241:lvgl/src/extra/libs/sjpg/lv_sjpg.c ****                 header->h = *raw_sjpeg_data++;
 242:lvgl/src/extra/libs/sjpg/lv_sjpg.c ****                 header->h |= *raw_sjpeg_data++ << 8;
 243:lvgl/src/extra/libs/sjpg/lv_sjpg.c ****                 lv_fs_close(&file);
 244:lvgl/src/extra/libs/sjpg/lv_sjpg.c ****                 return LV_RES_OK;
 245:lvgl/src/extra/libs/sjpg/lv_sjpg.c **** 
 246:lvgl/src/extra/libs/sjpg/lv_sjpg.c ****             }
 247:lvgl/src/extra/libs/sjpg/lv_sjpg.c ****         }
 248:lvgl/src/extra/libs/sjpg/lv_sjpg.c ****         else if(!strcmp(&fn[strlen(fn) - 4], ".jpg")) {
 249:lvgl/src/extra/libs/sjpg/lv_sjpg.c ****             lv_fs_file_t file;
 250:lvgl/src/extra/libs/sjpg/lv_sjpg.c ****             lv_fs_res_t res = lv_fs_open(&file, fn, LV_FS_MODE_RD);
 251:lvgl/src/extra/libs/sjpg/lv_sjpg.c ****             if(res != LV_FS_RES_OK) return 78;
 252:lvgl/src/extra/libs/sjpg/lv_sjpg.c **** 
 253:lvgl/src/extra/libs/sjpg/lv_sjpg.c ****             uint8_t * workb_temp = lv_mem_alloc(TJPGD_WORKBUFF_SIZE);
 254:lvgl/src/extra/libs/sjpg/lv_sjpg.c ****             if(!workb_temp) {
 255:lvgl/src/extra/libs/sjpg/lv_sjpg.c ****                 lv_fs_close(&file);
 256:lvgl/src/extra/libs/sjpg/lv_sjpg.c ****                 return LV_RES_INV;
 257:lvgl/src/extra/libs/sjpg/lv_sjpg.c ****             }
 258:lvgl/src/extra/libs/sjpg/lv_sjpg.c **** 
 259:lvgl/src/extra/libs/sjpg/lv_sjpg.c ****             io_source_t io_source_temp;
ARM GAS  C:\usertemp\ccKDNimi.s 			page 6


 260:lvgl/src/extra/libs/sjpg/lv_sjpg.c ****             io_source_temp.type = SJPEG_IO_SOURCE_DISK;
 261:lvgl/src/extra/libs/sjpg/lv_sjpg.c ****             io_source_temp.raw_sjpg_data_next_read_pos = 0;
 262:lvgl/src/extra/libs/sjpg/lv_sjpg.c ****             io_source_temp.img_cache_buff = NULL;
 263:lvgl/src/extra/libs/sjpg/lv_sjpg.c ****             io_source_temp.lv_file = file;
 264:lvgl/src/extra/libs/sjpg/lv_sjpg.c ****             JDEC jd_tmp;
 265:lvgl/src/extra/libs/sjpg/lv_sjpg.c **** 
 266:lvgl/src/extra/libs/sjpg/lv_sjpg.c ****             JRESULT rc = jd_prepare(&jd_tmp, input_func, workb_temp, (size_t)TJPGD_WORKBUFF_SIZE, &
 267:lvgl/src/extra/libs/sjpg/lv_sjpg.c ****             lv_mem_free(workb_temp);
 268:lvgl/src/extra/libs/sjpg/lv_sjpg.c ****             lv_fs_close(&file);
 269:lvgl/src/extra/libs/sjpg/lv_sjpg.c **** 
 270:lvgl/src/extra/libs/sjpg/lv_sjpg.c ****             if(rc == JDR_OK) {
 271:lvgl/src/extra/libs/sjpg/lv_sjpg.c ****                 header->always_zero = 0;
 272:lvgl/src/extra/libs/sjpg/lv_sjpg.c ****                 header->cf = LV_IMG_CF_RAW;
 273:lvgl/src/extra/libs/sjpg/lv_sjpg.c ****                 header->w = jd_tmp.width;
 274:lvgl/src/extra/libs/sjpg/lv_sjpg.c ****                 header->h = jd_tmp.height;
 275:lvgl/src/extra/libs/sjpg/lv_sjpg.c ****                 return LV_RES_OK;
 276:lvgl/src/extra/libs/sjpg/lv_sjpg.c ****             }
 277:lvgl/src/extra/libs/sjpg/lv_sjpg.c ****         }
 278:lvgl/src/extra/libs/sjpg/lv_sjpg.c ****     }
 279:lvgl/src/extra/libs/sjpg/lv_sjpg.c ****     return LV_RES_INV;
 280:lvgl/src/extra/libs/sjpg/lv_sjpg.c **** }
 281:lvgl/src/extra/libs/sjpg/lv_sjpg.c **** 
 282:lvgl/src/extra/libs/sjpg/lv_sjpg.c **** static int img_data_cb(JDEC * jd, void * data, JRECT * rect)
 283:lvgl/src/extra/libs/sjpg/lv_sjpg.c **** {
 284:lvgl/src/extra/libs/sjpg/lv_sjpg.c ****     io_source_t * io = jd->device;
 285:lvgl/src/extra/libs/sjpg/lv_sjpg.c ****     uint8_t * cache = io->img_cache_buff;
 286:lvgl/src/extra/libs/sjpg/lv_sjpg.c ****     const int xres = io->img_cache_x_res;
 287:lvgl/src/extra/libs/sjpg/lv_sjpg.c ****     uint8_t * buf = data;
 288:lvgl/src/extra/libs/sjpg/lv_sjpg.c ****     const int INPUT_PIXEL_SIZE = 3;
 289:lvgl/src/extra/libs/sjpg/lv_sjpg.c ****     const int row_width = rect->right - rect->left + 1; // Row width in pixels.
 290:lvgl/src/extra/libs/sjpg/lv_sjpg.c ****     const int row_size = row_width * INPUT_PIXEL_SIZE;  // Row size (bytes).
 291:lvgl/src/extra/libs/sjpg/lv_sjpg.c **** 
 292:lvgl/src/extra/libs/sjpg/lv_sjpg.c ****     for(int y = rect->top; y <= rect->bottom; y++) {
 293:lvgl/src/extra/libs/sjpg/lv_sjpg.c ****         int row_offset = y * xres * INPUT_PIXEL_SIZE + rect->left * INPUT_PIXEL_SIZE;
 294:lvgl/src/extra/libs/sjpg/lv_sjpg.c ****         memcpy(cache + row_offset, buf, row_size);
 295:lvgl/src/extra/libs/sjpg/lv_sjpg.c ****         buf += row_size;
 296:lvgl/src/extra/libs/sjpg/lv_sjpg.c ****     }
 297:lvgl/src/extra/libs/sjpg/lv_sjpg.c **** 
 298:lvgl/src/extra/libs/sjpg/lv_sjpg.c ****     return 1;
 299:lvgl/src/extra/libs/sjpg/lv_sjpg.c **** }
 300:lvgl/src/extra/libs/sjpg/lv_sjpg.c **** 
 301:lvgl/src/extra/libs/sjpg/lv_sjpg.c **** static size_t input_func(JDEC * jd, uint8_t * buff, size_t ndata)
 302:lvgl/src/extra/libs/sjpg/lv_sjpg.c **** {
 303:lvgl/src/extra/libs/sjpg/lv_sjpg.c ****     io_source_t * io = jd->device;
 304:lvgl/src/extra/libs/sjpg/lv_sjpg.c **** 
 305:lvgl/src/extra/libs/sjpg/lv_sjpg.c ****     if(!io) return 0;
 306:lvgl/src/extra/libs/sjpg/lv_sjpg.c **** 
 307:lvgl/src/extra/libs/sjpg/lv_sjpg.c ****     if(io->type == SJPEG_IO_SOURCE_C_ARRAY) {
 308:lvgl/src/extra/libs/sjpg/lv_sjpg.c ****         const uint32_t bytes_left = io->raw_sjpg_data_size - io->raw_sjpg_data_next_read_pos;
 309:lvgl/src/extra/libs/sjpg/lv_sjpg.c ****         const uint32_t to_read = ndata <= bytes_left ? (uint32_t)ndata : bytes_left;
 310:lvgl/src/extra/libs/sjpg/lv_sjpg.c ****         if(to_read == 0)
 311:lvgl/src/extra/libs/sjpg/lv_sjpg.c ****             return 0;
 312:lvgl/src/extra/libs/sjpg/lv_sjpg.c ****         if(buff) {
 313:lvgl/src/extra/libs/sjpg/lv_sjpg.c ****             memcpy(buff, io->raw_sjpg_data + io->raw_sjpg_data_next_read_pos, to_read);
 314:lvgl/src/extra/libs/sjpg/lv_sjpg.c ****         }
 315:lvgl/src/extra/libs/sjpg/lv_sjpg.c ****         io->raw_sjpg_data_next_read_pos += to_read;
 316:lvgl/src/extra/libs/sjpg/lv_sjpg.c ****         return to_read;
ARM GAS  C:\usertemp\ccKDNimi.s 			page 7


 317:lvgl/src/extra/libs/sjpg/lv_sjpg.c ****     }
 318:lvgl/src/extra/libs/sjpg/lv_sjpg.c ****     else if(io->type == SJPEG_IO_SOURCE_DISK) {
 319:lvgl/src/extra/libs/sjpg/lv_sjpg.c **** 
 320:lvgl/src/extra/libs/sjpg/lv_sjpg.c ****         lv_fs_file_t * lv_file_p = &(io->lv_file);
 321:lvgl/src/extra/libs/sjpg/lv_sjpg.c **** 
 322:lvgl/src/extra/libs/sjpg/lv_sjpg.c ****         if(buff) {
 323:lvgl/src/extra/libs/sjpg/lv_sjpg.c ****             uint32_t rn = 0;
 324:lvgl/src/extra/libs/sjpg/lv_sjpg.c ****             lv_fs_read(lv_file_p, buff, (uint32_t)ndata, &rn);
 325:lvgl/src/extra/libs/sjpg/lv_sjpg.c ****             return rn;
 326:lvgl/src/extra/libs/sjpg/lv_sjpg.c ****         }
 327:lvgl/src/extra/libs/sjpg/lv_sjpg.c ****         else {
 328:lvgl/src/extra/libs/sjpg/lv_sjpg.c ****             uint32_t pos;
 329:lvgl/src/extra/libs/sjpg/lv_sjpg.c ****             lv_fs_tell(lv_file_p, &pos);
 330:lvgl/src/extra/libs/sjpg/lv_sjpg.c ****             lv_fs_seek(lv_file_p, (uint32_t)(ndata + pos),  LV_FS_SEEK_SET);
 331:lvgl/src/extra/libs/sjpg/lv_sjpg.c ****             return ndata;
 332:lvgl/src/extra/libs/sjpg/lv_sjpg.c ****         }
 333:lvgl/src/extra/libs/sjpg/lv_sjpg.c ****     }
 334:lvgl/src/extra/libs/sjpg/lv_sjpg.c ****     return 0;
 335:lvgl/src/extra/libs/sjpg/lv_sjpg.c **** }
 336:lvgl/src/extra/libs/sjpg/lv_sjpg.c **** 
 337:lvgl/src/extra/libs/sjpg/lv_sjpg.c **** /**
 338:lvgl/src/extra/libs/sjpg/lv_sjpg.c ****  * Open SJPG image and return the decided image
 339:lvgl/src/extra/libs/sjpg/lv_sjpg.c ****  * @param decoder pointer to the decoder where this function belongs
 340:lvgl/src/extra/libs/sjpg/lv_sjpg.c ****  * @param dsc pointer to a descriptor which describes this decoding session
 341:lvgl/src/extra/libs/sjpg/lv_sjpg.c ****  * @return LV_RES_OK: no error; LV_RES_INV: can't get the info
 342:lvgl/src/extra/libs/sjpg/lv_sjpg.c ****  */
 343:lvgl/src/extra/libs/sjpg/lv_sjpg.c **** static lv_res_t decoder_open(lv_img_decoder_t * decoder, lv_img_decoder_dsc_t * dsc)
 344:lvgl/src/extra/libs/sjpg/lv_sjpg.c **** {
 345:lvgl/src/extra/libs/sjpg/lv_sjpg.c ****     LV_UNUSED(decoder);
 346:lvgl/src/extra/libs/sjpg/lv_sjpg.c ****     lv_res_t lv_ret = LV_RES_OK;
 347:lvgl/src/extra/libs/sjpg/lv_sjpg.c **** 
 348:lvgl/src/extra/libs/sjpg/lv_sjpg.c ****     if(dsc->src_type == LV_IMG_SRC_VARIABLE) {
 349:lvgl/src/extra/libs/sjpg/lv_sjpg.c ****         uint8_t * data;
 350:lvgl/src/extra/libs/sjpg/lv_sjpg.c ****         SJPEG * sjpeg = (SJPEG *) dsc->user_data;
 351:lvgl/src/extra/libs/sjpg/lv_sjpg.c ****         if(sjpeg == NULL) {
 352:lvgl/src/extra/libs/sjpg/lv_sjpg.c ****             sjpeg =  lv_mem_alloc(sizeof(SJPEG));
 353:lvgl/src/extra/libs/sjpg/lv_sjpg.c ****             if(!sjpeg) return LV_RES_INV;
 354:lvgl/src/extra/libs/sjpg/lv_sjpg.c **** 
 355:lvgl/src/extra/libs/sjpg/lv_sjpg.c ****             memset(sjpeg, 0, sizeof(SJPEG));
 356:lvgl/src/extra/libs/sjpg/lv_sjpg.c **** 
 357:lvgl/src/extra/libs/sjpg/lv_sjpg.c ****             dsc->user_data = sjpeg;
 358:lvgl/src/extra/libs/sjpg/lv_sjpg.c ****             sjpeg->sjpeg_data = (uint8_t *)((lv_img_dsc_t *)(dsc->src))->data;
 359:lvgl/src/extra/libs/sjpg/lv_sjpg.c ****             sjpeg->sjpeg_data_size = ((lv_img_dsc_t *)(dsc->src))->data_size;
 360:lvgl/src/extra/libs/sjpg/lv_sjpg.c ****         }
 361:lvgl/src/extra/libs/sjpg/lv_sjpg.c **** 
 362:lvgl/src/extra/libs/sjpg/lv_sjpg.c ****         if(!strncmp((char *) sjpeg->sjpeg_data, "_SJPG__", strlen("_SJPG__"))) {
 363:lvgl/src/extra/libs/sjpg/lv_sjpg.c **** 
 364:lvgl/src/extra/libs/sjpg/lv_sjpg.c ****             data = sjpeg->sjpeg_data;
 365:lvgl/src/extra/libs/sjpg/lv_sjpg.c ****             data += 14;
 366:lvgl/src/extra/libs/sjpg/lv_sjpg.c **** 
 367:lvgl/src/extra/libs/sjpg/lv_sjpg.c ****             sjpeg->sjpeg_x_res = *data++;
 368:lvgl/src/extra/libs/sjpg/lv_sjpg.c ****             sjpeg->sjpeg_x_res |= *data++ << 8;
 369:lvgl/src/extra/libs/sjpg/lv_sjpg.c **** 
 370:lvgl/src/extra/libs/sjpg/lv_sjpg.c ****             sjpeg->sjpeg_y_res = *data++;
 371:lvgl/src/extra/libs/sjpg/lv_sjpg.c ****             sjpeg->sjpeg_y_res |= *data++ << 8;
 372:lvgl/src/extra/libs/sjpg/lv_sjpg.c **** 
 373:lvgl/src/extra/libs/sjpg/lv_sjpg.c ****             sjpeg->sjpeg_total_frames = *data++;
ARM GAS  C:\usertemp\ccKDNimi.s 			page 8


 374:lvgl/src/extra/libs/sjpg/lv_sjpg.c ****             sjpeg->sjpeg_total_frames |= *data++ << 8;
 375:lvgl/src/extra/libs/sjpg/lv_sjpg.c **** 
 376:lvgl/src/extra/libs/sjpg/lv_sjpg.c ****             sjpeg->sjpeg_single_frame_height = *data++;
 377:lvgl/src/extra/libs/sjpg/lv_sjpg.c ****             sjpeg->sjpeg_single_frame_height |= *data++ << 8;
 378:lvgl/src/extra/libs/sjpg/lv_sjpg.c **** 
 379:lvgl/src/extra/libs/sjpg/lv_sjpg.c ****             sjpeg->frame_base_array = lv_mem_alloc(sizeof(uint8_t *) * sjpeg->sjpeg_total_frames);
 380:lvgl/src/extra/libs/sjpg/lv_sjpg.c ****             if(! sjpeg->frame_base_array) {
 381:lvgl/src/extra/libs/sjpg/lv_sjpg.c ****                 lv_sjpg_cleanup(sjpeg);
 382:lvgl/src/extra/libs/sjpg/lv_sjpg.c ****                 sjpeg = NULL;
 383:lvgl/src/extra/libs/sjpg/lv_sjpg.c ****                 return LV_RES_INV;
 384:lvgl/src/extra/libs/sjpg/lv_sjpg.c ****             }
 385:lvgl/src/extra/libs/sjpg/lv_sjpg.c **** 
 386:lvgl/src/extra/libs/sjpg/lv_sjpg.c ****             sjpeg->frame_base_offset = NULL;
 387:lvgl/src/extra/libs/sjpg/lv_sjpg.c **** 
 388:lvgl/src/extra/libs/sjpg/lv_sjpg.c ****             uint8_t * img_frame_base = data +  sjpeg->sjpeg_total_frames * 2;
 389:lvgl/src/extra/libs/sjpg/lv_sjpg.c ****             sjpeg->frame_base_array[0] = img_frame_base;
 390:lvgl/src/extra/libs/sjpg/lv_sjpg.c **** 
 391:lvgl/src/extra/libs/sjpg/lv_sjpg.c ****             for(int i = 1; i <  sjpeg->sjpeg_total_frames; i++) {
 392:lvgl/src/extra/libs/sjpg/lv_sjpg.c ****                 int offset = *data++;
 393:lvgl/src/extra/libs/sjpg/lv_sjpg.c ****                 offset |= *data++ << 8;
 394:lvgl/src/extra/libs/sjpg/lv_sjpg.c ****                 sjpeg->frame_base_array[i] = sjpeg->frame_base_array[i - 1] + offset;
 395:lvgl/src/extra/libs/sjpg/lv_sjpg.c ****             }
 396:lvgl/src/extra/libs/sjpg/lv_sjpg.c ****             sjpeg->sjpeg_cache_frame_index = -1;
 397:lvgl/src/extra/libs/sjpg/lv_sjpg.c ****             sjpeg->frame_cache = (void *)lv_mem_alloc(sjpeg->sjpeg_x_res * sjpeg->sjpeg_single_fram
 398:lvgl/src/extra/libs/sjpg/lv_sjpg.c ****             if(! sjpeg->frame_cache) {
 399:lvgl/src/extra/libs/sjpg/lv_sjpg.c ****                 lv_sjpg_cleanup(sjpeg);
 400:lvgl/src/extra/libs/sjpg/lv_sjpg.c ****                 sjpeg = NULL;
 401:lvgl/src/extra/libs/sjpg/lv_sjpg.c ****                 return LV_RES_INV;
 402:lvgl/src/extra/libs/sjpg/lv_sjpg.c ****             }
 403:lvgl/src/extra/libs/sjpg/lv_sjpg.c ****             sjpeg->io.img_cache_buff = sjpeg->frame_cache;
 404:lvgl/src/extra/libs/sjpg/lv_sjpg.c ****             sjpeg->io.img_cache_x_res = sjpeg->sjpeg_x_res;
 405:lvgl/src/extra/libs/sjpg/lv_sjpg.c ****             sjpeg->workb =   lv_mem_alloc(TJPGD_WORKBUFF_SIZE);
 406:lvgl/src/extra/libs/sjpg/lv_sjpg.c ****             if(! sjpeg->workb) {
 407:lvgl/src/extra/libs/sjpg/lv_sjpg.c ****                 lv_sjpg_cleanup(sjpeg);
 408:lvgl/src/extra/libs/sjpg/lv_sjpg.c ****                 sjpeg = NULL;
 409:lvgl/src/extra/libs/sjpg/lv_sjpg.c ****                 return LV_RES_INV;
 410:lvgl/src/extra/libs/sjpg/lv_sjpg.c ****             }
 411:lvgl/src/extra/libs/sjpg/lv_sjpg.c **** 
 412:lvgl/src/extra/libs/sjpg/lv_sjpg.c ****             sjpeg->tjpeg_jd =   lv_mem_alloc(sizeof(JDEC));
 413:lvgl/src/extra/libs/sjpg/lv_sjpg.c ****             if(! sjpeg->tjpeg_jd) {
 414:lvgl/src/extra/libs/sjpg/lv_sjpg.c ****                 lv_sjpg_cleanup(sjpeg);
 415:lvgl/src/extra/libs/sjpg/lv_sjpg.c ****                 sjpeg = NULL;
 416:lvgl/src/extra/libs/sjpg/lv_sjpg.c ****                 return LV_RES_INV;
 417:lvgl/src/extra/libs/sjpg/lv_sjpg.c ****             }
 418:lvgl/src/extra/libs/sjpg/lv_sjpg.c ****             sjpeg->io.type = SJPEG_IO_SOURCE_C_ARRAY;
 419:lvgl/src/extra/libs/sjpg/lv_sjpg.c ****             sjpeg->io.lv_file.file_d = NULL;
 420:lvgl/src/extra/libs/sjpg/lv_sjpg.c ****             dsc->img_data = NULL;
 421:lvgl/src/extra/libs/sjpg/lv_sjpg.c ****             return lv_ret;
 422:lvgl/src/extra/libs/sjpg/lv_sjpg.c ****         }
 423:lvgl/src/extra/libs/sjpg/lv_sjpg.c **** 
 424:lvgl/src/extra/libs/sjpg/lv_sjpg.c ****         else if(is_jpg(sjpeg->sjpeg_data) == true) {
 425:lvgl/src/extra/libs/sjpg/lv_sjpg.c **** 
 426:lvgl/src/extra/libs/sjpg/lv_sjpg.c ****             uint8_t * workb_temp = lv_mem_alloc(TJPGD_WORKBUFF_SIZE);
 427:lvgl/src/extra/libs/sjpg/lv_sjpg.c ****             if(! workb_temp) {
 428:lvgl/src/extra/libs/sjpg/lv_sjpg.c ****                 lv_sjpg_cleanup(sjpeg);
 429:lvgl/src/extra/libs/sjpg/lv_sjpg.c ****                 sjpeg = NULL;
 430:lvgl/src/extra/libs/sjpg/lv_sjpg.c ****                 return LV_RES_INV;
ARM GAS  C:\usertemp\ccKDNimi.s 			page 9


 431:lvgl/src/extra/libs/sjpg/lv_sjpg.c ****             }
 432:lvgl/src/extra/libs/sjpg/lv_sjpg.c ****             io_source_t io_source_temp;
 433:lvgl/src/extra/libs/sjpg/lv_sjpg.c ****             io_source_temp.type = SJPEG_IO_SOURCE_C_ARRAY;
 434:lvgl/src/extra/libs/sjpg/lv_sjpg.c ****             io_source_temp.raw_sjpg_data =  sjpeg->sjpeg_data;
 435:lvgl/src/extra/libs/sjpg/lv_sjpg.c ****             io_source_temp.raw_sjpg_data_size = sjpeg->sjpeg_data_size;
 436:lvgl/src/extra/libs/sjpg/lv_sjpg.c ****             io_source_temp.raw_sjpg_data_next_read_pos = 0;
 437:lvgl/src/extra/libs/sjpg/lv_sjpg.c **** 
 438:lvgl/src/extra/libs/sjpg/lv_sjpg.c ****             JDEC jd_tmp;
 439:lvgl/src/extra/libs/sjpg/lv_sjpg.c ****             JRESULT rc = jd_prepare(&jd_tmp, input_func, workb_temp, (size_t)TJPGD_WORKBUFF_SIZE, &
 440:lvgl/src/extra/libs/sjpg/lv_sjpg.c ****             lv_mem_free(workb_temp);
 441:lvgl/src/extra/libs/sjpg/lv_sjpg.c **** 
 442:lvgl/src/extra/libs/sjpg/lv_sjpg.c **** 
 443:lvgl/src/extra/libs/sjpg/lv_sjpg.c ****             if(rc == JDR_OK) {
 444:lvgl/src/extra/libs/sjpg/lv_sjpg.c ****                 sjpeg->sjpeg_x_res = jd_tmp.width;
 445:lvgl/src/extra/libs/sjpg/lv_sjpg.c ****                 sjpeg->sjpeg_y_res = jd_tmp.height;
 446:lvgl/src/extra/libs/sjpg/lv_sjpg.c ****                 sjpeg->sjpeg_total_frames = 1;
 447:lvgl/src/extra/libs/sjpg/lv_sjpg.c ****                 sjpeg->sjpeg_single_frame_height = jd_tmp.height;
 448:lvgl/src/extra/libs/sjpg/lv_sjpg.c **** 
 449:lvgl/src/extra/libs/sjpg/lv_sjpg.c ****                 sjpeg->frame_base_array = lv_mem_alloc(sizeof(uint8_t *) * sjpeg->sjpeg_total_frame
 450:lvgl/src/extra/libs/sjpg/lv_sjpg.c ****                 if(! sjpeg->frame_base_array) {
 451:lvgl/src/extra/libs/sjpg/lv_sjpg.c ****                     lv_sjpg_cleanup(sjpeg);
 452:lvgl/src/extra/libs/sjpg/lv_sjpg.c ****                     sjpeg = NULL;
 453:lvgl/src/extra/libs/sjpg/lv_sjpg.c ****                     return LV_RES_INV;
 454:lvgl/src/extra/libs/sjpg/lv_sjpg.c ****                 }
 455:lvgl/src/extra/libs/sjpg/lv_sjpg.c ****                 sjpeg->frame_base_offset = NULL;
 456:lvgl/src/extra/libs/sjpg/lv_sjpg.c **** 
 457:lvgl/src/extra/libs/sjpg/lv_sjpg.c ****                 uint8_t * img_frame_base = sjpeg->sjpeg_data;
 458:lvgl/src/extra/libs/sjpg/lv_sjpg.c ****                 sjpeg->frame_base_array[0] = img_frame_base;
 459:lvgl/src/extra/libs/sjpg/lv_sjpg.c **** 
 460:lvgl/src/extra/libs/sjpg/lv_sjpg.c ****                 sjpeg->sjpeg_cache_frame_index = -1;
 461:lvgl/src/extra/libs/sjpg/lv_sjpg.c ****                 sjpeg->frame_cache = (void *)lv_mem_alloc(sjpeg->sjpeg_x_res * sjpeg->sjpeg_single_
 462:lvgl/src/extra/libs/sjpg/lv_sjpg.c ****                 if(! sjpeg->frame_cache) {
 463:lvgl/src/extra/libs/sjpg/lv_sjpg.c ****                     lv_sjpg_cleanup(sjpeg);
 464:lvgl/src/extra/libs/sjpg/lv_sjpg.c ****                     sjpeg = NULL;
 465:lvgl/src/extra/libs/sjpg/lv_sjpg.c ****                     return LV_RES_INV;
 466:lvgl/src/extra/libs/sjpg/lv_sjpg.c ****                 }
 467:lvgl/src/extra/libs/sjpg/lv_sjpg.c **** 
 468:lvgl/src/extra/libs/sjpg/lv_sjpg.c ****                 sjpeg->io.img_cache_buff = sjpeg->frame_cache;
 469:lvgl/src/extra/libs/sjpg/lv_sjpg.c ****                 sjpeg->io.img_cache_x_res = sjpeg->sjpeg_x_res;
 470:lvgl/src/extra/libs/sjpg/lv_sjpg.c ****                 sjpeg->workb =   lv_mem_alloc(TJPGD_WORKBUFF_SIZE);
 471:lvgl/src/extra/libs/sjpg/lv_sjpg.c ****                 if(! sjpeg->workb) {
 472:lvgl/src/extra/libs/sjpg/lv_sjpg.c ****                     lv_sjpg_cleanup(sjpeg);
 473:lvgl/src/extra/libs/sjpg/lv_sjpg.c ****                     sjpeg = NULL;
 474:lvgl/src/extra/libs/sjpg/lv_sjpg.c ****                     return LV_RES_INV;
 475:lvgl/src/extra/libs/sjpg/lv_sjpg.c ****                 }
 476:lvgl/src/extra/libs/sjpg/lv_sjpg.c **** 
 477:lvgl/src/extra/libs/sjpg/lv_sjpg.c ****                 sjpeg->tjpeg_jd =   lv_mem_alloc(sizeof(JDEC));
 478:lvgl/src/extra/libs/sjpg/lv_sjpg.c ****                 if(! sjpeg->tjpeg_jd) {
 479:lvgl/src/extra/libs/sjpg/lv_sjpg.c ****                     lv_sjpg_cleanup(sjpeg);
 480:lvgl/src/extra/libs/sjpg/lv_sjpg.c ****                     sjpeg = NULL;
 481:lvgl/src/extra/libs/sjpg/lv_sjpg.c ****                     return LV_RES_INV;
 482:lvgl/src/extra/libs/sjpg/lv_sjpg.c ****                 }
 483:lvgl/src/extra/libs/sjpg/lv_sjpg.c **** 
 484:lvgl/src/extra/libs/sjpg/lv_sjpg.c ****                 sjpeg->io.type = SJPEG_IO_SOURCE_C_ARRAY;
 485:lvgl/src/extra/libs/sjpg/lv_sjpg.c ****                 sjpeg->io.lv_file.file_d = NULL;
 486:lvgl/src/extra/libs/sjpg/lv_sjpg.c ****                 dsc->img_data = NULL;
 487:lvgl/src/extra/libs/sjpg/lv_sjpg.c ****                 return lv_ret;
ARM GAS  C:\usertemp\ccKDNimi.s 			page 10


 488:lvgl/src/extra/libs/sjpg/lv_sjpg.c ****             }
 489:lvgl/src/extra/libs/sjpg/lv_sjpg.c ****             else {
 490:lvgl/src/extra/libs/sjpg/lv_sjpg.c ****                 lv_ret = LV_RES_INV;
 491:lvgl/src/extra/libs/sjpg/lv_sjpg.c ****                 goto end;
 492:lvgl/src/extra/libs/sjpg/lv_sjpg.c ****             }
 493:lvgl/src/extra/libs/sjpg/lv_sjpg.c **** 
 494:lvgl/src/extra/libs/sjpg/lv_sjpg.c **** end:
 495:lvgl/src/extra/libs/sjpg/lv_sjpg.c ****             lv_mem_free(workb_temp);
 496:lvgl/src/extra/libs/sjpg/lv_sjpg.c **** 
 497:lvgl/src/extra/libs/sjpg/lv_sjpg.c ****             return lv_ret;
 498:lvgl/src/extra/libs/sjpg/lv_sjpg.c ****         }
 499:lvgl/src/extra/libs/sjpg/lv_sjpg.c ****     }
 500:lvgl/src/extra/libs/sjpg/lv_sjpg.c ****     else if(dsc->src_type == LV_IMG_SRC_FILE) {
 501:lvgl/src/extra/libs/sjpg/lv_sjpg.c ****         /* If all fine, then the file will be kept open */
 502:lvgl/src/extra/libs/sjpg/lv_sjpg.c ****         const char * fn = dsc->src;
 503:lvgl/src/extra/libs/sjpg/lv_sjpg.c ****         uint8_t * data;
 504:lvgl/src/extra/libs/sjpg/lv_sjpg.c **** 
 505:lvgl/src/extra/libs/sjpg/lv_sjpg.c ****         if(!strcmp(&fn[strlen(fn) - 5], ".sjpg")) {
 506:lvgl/src/extra/libs/sjpg/lv_sjpg.c **** 
 507:lvgl/src/extra/libs/sjpg/lv_sjpg.c ****             uint8_t buff[22];
 508:lvgl/src/extra/libs/sjpg/lv_sjpg.c ****             memset(buff, 0, sizeof(buff));
 509:lvgl/src/extra/libs/sjpg/lv_sjpg.c **** 
 510:lvgl/src/extra/libs/sjpg/lv_sjpg.c **** 
 511:lvgl/src/extra/libs/sjpg/lv_sjpg.c ****             lv_fs_file_t lv_file;
 512:lvgl/src/extra/libs/sjpg/lv_sjpg.c ****             lv_fs_res_t res = lv_fs_open(&lv_file, fn, LV_FS_MODE_RD);
 513:lvgl/src/extra/libs/sjpg/lv_sjpg.c ****             if(res != LV_FS_RES_OK) {
 514:lvgl/src/extra/libs/sjpg/lv_sjpg.c ****                 return 78;
 515:lvgl/src/extra/libs/sjpg/lv_sjpg.c ****             }
 516:lvgl/src/extra/libs/sjpg/lv_sjpg.c **** 
 517:lvgl/src/extra/libs/sjpg/lv_sjpg.c **** 
 518:lvgl/src/extra/libs/sjpg/lv_sjpg.c ****             uint32_t rn;
 519:lvgl/src/extra/libs/sjpg/lv_sjpg.c ****             res = lv_fs_read(&lv_file, buff, 22, &rn);
 520:lvgl/src/extra/libs/sjpg/lv_sjpg.c ****             if(res != LV_FS_RES_OK || rn != 22) {
 521:lvgl/src/extra/libs/sjpg/lv_sjpg.c ****                 lv_fs_close(&lv_file);
 522:lvgl/src/extra/libs/sjpg/lv_sjpg.c ****                 return LV_RES_INV;
 523:lvgl/src/extra/libs/sjpg/lv_sjpg.c ****             }
 524:lvgl/src/extra/libs/sjpg/lv_sjpg.c **** 
 525:lvgl/src/extra/libs/sjpg/lv_sjpg.c ****             if(strcmp((char *)buff, "_SJPG__") == 0) {
 526:lvgl/src/extra/libs/sjpg/lv_sjpg.c **** 
 527:lvgl/src/extra/libs/sjpg/lv_sjpg.c ****                 SJPEG * sjpeg = (SJPEG *) dsc->user_data;
 528:lvgl/src/extra/libs/sjpg/lv_sjpg.c ****                 if(sjpeg == NULL) {
 529:lvgl/src/extra/libs/sjpg/lv_sjpg.c ****                     sjpeg = lv_mem_alloc(sizeof(SJPEG));
 530:lvgl/src/extra/libs/sjpg/lv_sjpg.c **** 
 531:lvgl/src/extra/libs/sjpg/lv_sjpg.c ****                     if(! sjpeg) {
 532:lvgl/src/extra/libs/sjpg/lv_sjpg.c ****                         lv_fs_close(&lv_file);
 533:lvgl/src/extra/libs/sjpg/lv_sjpg.c ****                         return LV_RES_INV;
 534:lvgl/src/extra/libs/sjpg/lv_sjpg.c ****                     }
 535:lvgl/src/extra/libs/sjpg/lv_sjpg.c ****                     memset(sjpeg, 0, sizeof(SJPEG));
 536:lvgl/src/extra/libs/sjpg/lv_sjpg.c **** 
 537:lvgl/src/extra/libs/sjpg/lv_sjpg.c ****                     dsc->user_data = sjpeg;
 538:lvgl/src/extra/libs/sjpg/lv_sjpg.c ****                     sjpeg->sjpeg_data = (uint8_t *)((lv_img_dsc_t *)(dsc->src))->data;
 539:lvgl/src/extra/libs/sjpg/lv_sjpg.c ****                     sjpeg->sjpeg_data_size = ((lv_img_dsc_t *)(dsc->src))->data_size;
 540:lvgl/src/extra/libs/sjpg/lv_sjpg.c ****                 }
 541:lvgl/src/extra/libs/sjpg/lv_sjpg.c ****                 data = buff;
 542:lvgl/src/extra/libs/sjpg/lv_sjpg.c ****                 data += 14;
 543:lvgl/src/extra/libs/sjpg/lv_sjpg.c **** 
 544:lvgl/src/extra/libs/sjpg/lv_sjpg.c ****                 sjpeg->sjpeg_x_res = *data++;
ARM GAS  C:\usertemp\ccKDNimi.s 			page 11


 545:lvgl/src/extra/libs/sjpg/lv_sjpg.c ****                 sjpeg->sjpeg_x_res |= *data++ << 8;
 546:lvgl/src/extra/libs/sjpg/lv_sjpg.c **** 
 547:lvgl/src/extra/libs/sjpg/lv_sjpg.c ****                 sjpeg->sjpeg_y_res = *data++;
 548:lvgl/src/extra/libs/sjpg/lv_sjpg.c ****                 sjpeg->sjpeg_y_res |= *data++ << 8;
 549:lvgl/src/extra/libs/sjpg/lv_sjpg.c **** 
 550:lvgl/src/extra/libs/sjpg/lv_sjpg.c ****                 sjpeg->sjpeg_total_frames = *data++;
 551:lvgl/src/extra/libs/sjpg/lv_sjpg.c ****                 sjpeg->sjpeg_total_frames |= *data++ << 8;
 552:lvgl/src/extra/libs/sjpg/lv_sjpg.c **** 
 553:lvgl/src/extra/libs/sjpg/lv_sjpg.c ****                 sjpeg->sjpeg_single_frame_height = *data++;
 554:lvgl/src/extra/libs/sjpg/lv_sjpg.c ****                 sjpeg->sjpeg_single_frame_height |= *data++ << 8;
 555:lvgl/src/extra/libs/sjpg/lv_sjpg.c **** 
 556:lvgl/src/extra/libs/sjpg/lv_sjpg.c ****                 sjpeg->frame_base_array = NULL;//lv_mem_alloc( sizeof(uint8_t *) * sjpeg->sjpeg_tot
 557:lvgl/src/extra/libs/sjpg/lv_sjpg.c ****                 sjpeg->frame_base_offset = lv_mem_alloc(sizeof(int) * sjpeg->sjpeg_total_frames);
 558:lvgl/src/extra/libs/sjpg/lv_sjpg.c ****                 if(! sjpeg->frame_base_offset) {
 559:lvgl/src/extra/libs/sjpg/lv_sjpg.c ****                     lv_fs_close(&lv_file);
 560:lvgl/src/extra/libs/sjpg/lv_sjpg.c ****                     lv_sjpg_cleanup(sjpeg);
 561:lvgl/src/extra/libs/sjpg/lv_sjpg.c ****                     return LV_RES_INV;
 562:lvgl/src/extra/libs/sjpg/lv_sjpg.c ****                 }
 563:lvgl/src/extra/libs/sjpg/lv_sjpg.c ****                 int img_frame_start_offset = (SJPEG_FRAME_INFO_ARRAY_OFFSET + sjpeg->sjpeg_total_fr
 564:lvgl/src/extra/libs/sjpg/lv_sjpg.c ****                 sjpeg->frame_base_offset[0] = img_frame_start_offset; //pointer used to save intege
 565:lvgl/src/extra/libs/sjpg/lv_sjpg.c **** 
 566:lvgl/src/extra/libs/sjpg/lv_sjpg.c ****                 for(int i = 1; i <  sjpeg->sjpeg_total_frames; i++) {
 567:lvgl/src/extra/libs/sjpg/lv_sjpg.c ****                     res = lv_fs_read(&lv_file, buff, 2, &rn);
 568:lvgl/src/extra/libs/sjpg/lv_sjpg.c ****                     if(res != LV_FS_RES_OK || rn != 2) {
 569:lvgl/src/extra/libs/sjpg/lv_sjpg.c ****                         lv_fs_close(&lv_file);
 570:lvgl/src/extra/libs/sjpg/lv_sjpg.c ****                         return LV_RES_INV;
 571:lvgl/src/extra/libs/sjpg/lv_sjpg.c ****                     }
 572:lvgl/src/extra/libs/sjpg/lv_sjpg.c **** 
 573:lvgl/src/extra/libs/sjpg/lv_sjpg.c ****                     data = buff;
 574:lvgl/src/extra/libs/sjpg/lv_sjpg.c ****                     int offset = *data++;
 575:lvgl/src/extra/libs/sjpg/lv_sjpg.c ****                     offset |= *data++ << 8;
 576:lvgl/src/extra/libs/sjpg/lv_sjpg.c ****                     sjpeg->frame_base_offset[i] = sjpeg->frame_base_offset[i - 1] + offset;
 577:lvgl/src/extra/libs/sjpg/lv_sjpg.c ****                 }
 578:lvgl/src/extra/libs/sjpg/lv_sjpg.c **** 
 579:lvgl/src/extra/libs/sjpg/lv_sjpg.c ****                 sjpeg->sjpeg_cache_frame_index = -1; //INVALID AT BEGINNING for a forced compare mi
 580:lvgl/src/extra/libs/sjpg/lv_sjpg.c ****                 sjpeg->frame_cache = (void *)lv_mem_alloc(sjpeg->sjpeg_x_res * sjpeg->sjpeg_single_
 581:lvgl/src/extra/libs/sjpg/lv_sjpg.c ****                 if(! sjpeg->frame_cache) {
 582:lvgl/src/extra/libs/sjpg/lv_sjpg.c ****                     lv_fs_close(&lv_file);
 583:lvgl/src/extra/libs/sjpg/lv_sjpg.c ****                     lv_sjpg_cleanup(sjpeg);
 584:lvgl/src/extra/libs/sjpg/lv_sjpg.c ****                     return LV_RES_INV;
 585:lvgl/src/extra/libs/sjpg/lv_sjpg.c ****                 }
 586:lvgl/src/extra/libs/sjpg/lv_sjpg.c ****                 sjpeg->io.img_cache_buff = sjpeg->frame_cache;
 587:lvgl/src/extra/libs/sjpg/lv_sjpg.c ****                 sjpeg->io.img_cache_x_res = sjpeg->sjpeg_x_res;
 588:lvgl/src/extra/libs/sjpg/lv_sjpg.c ****                 sjpeg->workb =   lv_mem_alloc(TJPGD_WORKBUFF_SIZE);
 589:lvgl/src/extra/libs/sjpg/lv_sjpg.c ****                 if(! sjpeg->workb) {
 590:lvgl/src/extra/libs/sjpg/lv_sjpg.c ****                     lv_fs_close(&lv_file);
 591:lvgl/src/extra/libs/sjpg/lv_sjpg.c ****                     lv_sjpg_cleanup(sjpeg);
 592:lvgl/src/extra/libs/sjpg/lv_sjpg.c ****                     return LV_RES_INV;
 593:lvgl/src/extra/libs/sjpg/lv_sjpg.c ****                 }
 594:lvgl/src/extra/libs/sjpg/lv_sjpg.c **** 
 595:lvgl/src/extra/libs/sjpg/lv_sjpg.c ****                 sjpeg->tjpeg_jd =    lv_mem_alloc(sizeof(JDEC));
 596:lvgl/src/extra/libs/sjpg/lv_sjpg.c ****                 if(! sjpeg->tjpeg_jd) {
 597:lvgl/src/extra/libs/sjpg/lv_sjpg.c ****                     lv_fs_close(&lv_file);
 598:lvgl/src/extra/libs/sjpg/lv_sjpg.c ****                     lv_sjpg_cleanup(sjpeg);
 599:lvgl/src/extra/libs/sjpg/lv_sjpg.c ****                     return LV_RES_INV;
 600:lvgl/src/extra/libs/sjpg/lv_sjpg.c ****                 }
 601:lvgl/src/extra/libs/sjpg/lv_sjpg.c **** 
ARM GAS  C:\usertemp\ccKDNimi.s 			page 12


 602:lvgl/src/extra/libs/sjpg/lv_sjpg.c ****                 sjpeg->io.type = SJPEG_IO_SOURCE_DISK;
 603:lvgl/src/extra/libs/sjpg/lv_sjpg.c ****                 sjpeg->io.lv_file = lv_file;
 604:lvgl/src/extra/libs/sjpg/lv_sjpg.c ****                 dsc->img_data = NULL;
 605:lvgl/src/extra/libs/sjpg/lv_sjpg.c ****                 return LV_RES_OK;
 606:lvgl/src/extra/libs/sjpg/lv_sjpg.c ****             }
 607:lvgl/src/extra/libs/sjpg/lv_sjpg.c ****         }
 608:lvgl/src/extra/libs/sjpg/lv_sjpg.c ****         else if(!strcmp(&fn[strlen(fn) - 4], ".jpg")) {
 609:lvgl/src/extra/libs/sjpg/lv_sjpg.c **** 
 610:lvgl/src/extra/libs/sjpg/lv_sjpg.c ****             lv_fs_file_t lv_file;
 611:lvgl/src/extra/libs/sjpg/lv_sjpg.c ****             lv_fs_res_t res = lv_fs_open(&lv_file, fn, LV_FS_MODE_RD);
 612:lvgl/src/extra/libs/sjpg/lv_sjpg.c ****             if(res != LV_FS_RES_OK) {
 613:lvgl/src/extra/libs/sjpg/lv_sjpg.c ****                 return LV_RES_INV;
 614:lvgl/src/extra/libs/sjpg/lv_sjpg.c ****             }
 615:lvgl/src/extra/libs/sjpg/lv_sjpg.c **** 
 616:lvgl/src/extra/libs/sjpg/lv_sjpg.c ****             SJPEG * sjpeg = (SJPEG *) dsc->user_data;
 617:lvgl/src/extra/libs/sjpg/lv_sjpg.c ****             if(sjpeg == NULL) {
 618:lvgl/src/extra/libs/sjpg/lv_sjpg.c ****                 sjpeg = lv_mem_alloc(sizeof(SJPEG));
 619:lvgl/src/extra/libs/sjpg/lv_sjpg.c ****                 if(! sjpeg) {
 620:lvgl/src/extra/libs/sjpg/lv_sjpg.c ****                     lv_fs_close(&lv_file);
 621:lvgl/src/extra/libs/sjpg/lv_sjpg.c ****                     return LV_RES_INV;
 622:lvgl/src/extra/libs/sjpg/lv_sjpg.c ****                 }
 623:lvgl/src/extra/libs/sjpg/lv_sjpg.c **** 
 624:lvgl/src/extra/libs/sjpg/lv_sjpg.c ****                 memset(sjpeg, 0, sizeof(SJPEG));
 625:lvgl/src/extra/libs/sjpg/lv_sjpg.c ****                 dsc->user_data = sjpeg;
 626:lvgl/src/extra/libs/sjpg/lv_sjpg.c ****                 sjpeg->sjpeg_data = (uint8_t *)((lv_img_dsc_t *)(dsc->src))->data;
 627:lvgl/src/extra/libs/sjpg/lv_sjpg.c ****                 sjpeg->sjpeg_data_size = ((lv_img_dsc_t *)(dsc->src))->data_size;
 628:lvgl/src/extra/libs/sjpg/lv_sjpg.c ****             }
 629:lvgl/src/extra/libs/sjpg/lv_sjpg.c **** 
 630:lvgl/src/extra/libs/sjpg/lv_sjpg.c ****             uint8_t * workb_temp = lv_mem_alloc(TJPGD_WORKBUFF_SIZE);
 631:lvgl/src/extra/libs/sjpg/lv_sjpg.c ****             if(! workb_temp) {
 632:lvgl/src/extra/libs/sjpg/lv_sjpg.c ****                 lv_fs_close(&lv_file);
 633:lvgl/src/extra/libs/sjpg/lv_sjpg.c ****                 lv_sjpg_cleanup(sjpeg);
 634:lvgl/src/extra/libs/sjpg/lv_sjpg.c ****                 return LV_RES_INV;
 635:lvgl/src/extra/libs/sjpg/lv_sjpg.c ****             }
 636:lvgl/src/extra/libs/sjpg/lv_sjpg.c **** 
 637:lvgl/src/extra/libs/sjpg/lv_sjpg.c ****             io_source_t io_source_temp;
 638:lvgl/src/extra/libs/sjpg/lv_sjpg.c ****             io_source_temp.type = SJPEG_IO_SOURCE_DISK;
 639:lvgl/src/extra/libs/sjpg/lv_sjpg.c ****             io_source_temp.raw_sjpg_data_next_read_pos = 0;
 640:lvgl/src/extra/libs/sjpg/lv_sjpg.c ****             io_source_temp.img_cache_buff = NULL;
 641:lvgl/src/extra/libs/sjpg/lv_sjpg.c ****             io_source_temp.lv_file = lv_file;
 642:lvgl/src/extra/libs/sjpg/lv_sjpg.c **** 
 643:lvgl/src/extra/libs/sjpg/lv_sjpg.c ****             JDEC jd_tmp;
 644:lvgl/src/extra/libs/sjpg/lv_sjpg.c **** 
 645:lvgl/src/extra/libs/sjpg/lv_sjpg.c ****             JRESULT rc = jd_prepare(&jd_tmp, input_func, workb_temp, (size_t)TJPGD_WORKBUFF_SIZE, &
 646:lvgl/src/extra/libs/sjpg/lv_sjpg.c **** 
 647:lvgl/src/extra/libs/sjpg/lv_sjpg.c ****             lv_mem_free(workb_temp);
 648:lvgl/src/extra/libs/sjpg/lv_sjpg.c **** 
 649:lvgl/src/extra/libs/sjpg/lv_sjpg.c **** 
 650:lvgl/src/extra/libs/sjpg/lv_sjpg.c ****             if(rc == JDR_OK) {
 651:lvgl/src/extra/libs/sjpg/lv_sjpg.c ****                 sjpeg->sjpeg_x_res = jd_tmp.width;
 652:lvgl/src/extra/libs/sjpg/lv_sjpg.c ****                 sjpeg->sjpeg_y_res = jd_tmp.height;
 653:lvgl/src/extra/libs/sjpg/lv_sjpg.c ****                 sjpeg->sjpeg_total_frames = 1;
 654:lvgl/src/extra/libs/sjpg/lv_sjpg.c ****                 sjpeg->sjpeg_single_frame_height = jd_tmp.height;
 655:lvgl/src/extra/libs/sjpg/lv_sjpg.c **** 
 656:lvgl/src/extra/libs/sjpg/lv_sjpg.c ****                 sjpeg->frame_base_array = NULL;
 657:lvgl/src/extra/libs/sjpg/lv_sjpg.c ****                 sjpeg->frame_base_offset =  lv_mem_alloc(sizeof(uint8_t *) * sjpeg->sjpeg_total_fra
 658:lvgl/src/extra/libs/sjpg/lv_sjpg.c ****                 if(! sjpeg->frame_base_offset) {
ARM GAS  C:\usertemp\ccKDNimi.s 			page 13


 659:lvgl/src/extra/libs/sjpg/lv_sjpg.c ****                     lv_fs_close(&lv_file);
 660:lvgl/src/extra/libs/sjpg/lv_sjpg.c ****                     lv_sjpg_cleanup(sjpeg);
 661:lvgl/src/extra/libs/sjpg/lv_sjpg.c ****                     return LV_RES_INV;
 662:lvgl/src/extra/libs/sjpg/lv_sjpg.c ****                 }
 663:lvgl/src/extra/libs/sjpg/lv_sjpg.c **** 
 664:lvgl/src/extra/libs/sjpg/lv_sjpg.c ****                 int img_frame_start_offset = 0;
 665:lvgl/src/extra/libs/sjpg/lv_sjpg.c ****                 sjpeg->frame_base_offset[0] = img_frame_start_offset;
 666:lvgl/src/extra/libs/sjpg/lv_sjpg.c **** 
 667:lvgl/src/extra/libs/sjpg/lv_sjpg.c ****                 sjpeg->sjpeg_cache_frame_index = -1;
 668:lvgl/src/extra/libs/sjpg/lv_sjpg.c ****                 sjpeg->frame_cache = (void *)lv_mem_alloc(sjpeg->sjpeg_x_res * sjpeg->sjpeg_single_
 669:lvgl/src/extra/libs/sjpg/lv_sjpg.c ****                 if(! sjpeg->frame_cache) {
 670:lvgl/src/extra/libs/sjpg/lv_sjpg.c ****                     lv_fs_close(&lv_file);
 671:lvgl/src/extra/libs/sjpg/lv_sjpg.c ****                     lv_sjpg_cleanup(sjpeg);
 672:lvgl/src/extra/libs/sjpg/lv_sjpg.c ****                     return LV_RES_INV;
 673:lvgl/src/extra/libs/sjpg/lv_sjpg.c ****                 }
 674:lvgl/src/extra/libs/sjpg/lv_sjpg.c **** 
 675:lvgl/src/extra/libs/sjpg/lv_sjpg.c ****                 sjpeg->io.img_cache_buff = sjpeg->frame_cache;
 676:lvgl/src/extra/libs/sjpg/lv_sjpg.c ****                 sjpeg->io.img_cache_x_res = sjpeg->sjpeg_x_res;
 677:lvgl/src/extra/libs/sjpg/lv_sjpg.c ****                 sjpeg->workb =   lv_mem_alloc(TJPGD_WORKBUFF_SIZE);
 678:lvgl/src/extra/libs/sjpg/lv_sjpg.c ****                 if(! sjpeg->workb) {
 679:lvgl/src/extra/libs/sjpg/lv_sjpg.c ****                     lv_fs_close(&lv_file);
 680:lvgl/src/extra/libs/sjpg/lv_sjpg.c ****                     lv_sjpg_cleanup(sjpeg);
 681:lvgl/src/extra/libs/sjpg/lv_sjpg.c ****                     return LV_RES_INV;
 682:lvgl/src/extra/libs/sjpg/lv_sjpg.c ****                 }
 683:lvgl/src/extra/libs/sjpg/lv_sjpg.c **** 
 684:lvgl/src/extra/libs/sjpg/lv_sjpg.c ****                 sjpeg->tjpeg_jd =   lv_mem_alloc(sizeof(JDEC));
 685:lvgl/src/extra/libs/sjpg/lv_sjpg.c ****                 if(! sjpeg->tjpeg_jd) {
 686:lvgl/src/extra/libs/sjpg/lv_sjpg.c ****                     lv_fs_close(&lv_file);
 687:lvgl/src/extra/libs/sjpg/lv_sjpg.c ****                     lv_sjpg_cleanup(sjpeg);
 688:lvgl/src/extra/libs/sjpg/lv_sjpg.c ****                     return LV_RES_INV;
 689:lvgl/src/extra/libs/sjpg/lv_sjpg.c ****                 }
 690:lvgl/src/extra/libs/sjpg/lv_sjpg.c **** 
 691:lvgl/src/extra/libs/sjpg/lv_sjpg.c ****                 sjpeg->io.type = SJPEG_IO_SOURCE_DISK;
 692:lvgl/src/extra/libs/sjpg/lv_sjpg.c ****                 sjpeg->io.lv_file = lv_file;
 693:lvgl/src/extra/libs/sjpg/lv_sjpg.c ****                 dsc->img_data = NULL;
 694:lvgl/src/extra/libs/sjpg/lv_sjpg.c ****                 return LV_RES_OK;
 695:lvgl/src/extra/libs/sjpg/lv_sjpg.c **** 
 696:lvgl/src/extra/libs/sjpg/lv_sjpg.c ****             }
 697:lvgl/src/extra/libs/sjpg/lv_sjpg.c ****             else {
 698:lvgl/src/extra/libs/sjpg/lv_sjpg.c ****                 if(dsc->user_data) lv_mem_free(dsc->user_data);
 699:lvgl/src/extra/libs/sjpg/lv_sjpg.c ****                 lv_fs_close(&lv_file);
 700:lvgl/src/extra/libs/sjpg/lv_sjpg.c ****                 return  LV_RES_INV;
 701:lvgl/src/extra/libs/sjpg/lv_sjpg.c ****             }
 702:lvgl/src/extra/libs/sjpg/lv_sjpg.c ****         }
 703:lvgl/src/extra/libs/sjpg/lv_sjpg.c ****     }
 704:lvgl/src/extra/libs/sjpg/lv_sjpg.c **** 
 705:lvgl/src/extra/libs/sjpg/lv_sjpg.c ****     return LV_RES_INV;
 706:lvgl/src/extra/libs/sjpg/lv_sjpg.c **** }
 707:lvgl/src/extra/libs/sjpg/lv_sjpg.c **** 
 708:lvgl/src/extra/libs/sjpg/lv_sjpg.c **** /**
 709:lvgl/src/extra/libs/sjpg/lv_sjpg.c ****  * Decode `len` pixels starting from the given `x`, `y` coordinates and store them in `buf`.
 710:lvgl/src/extra/libs/sjpg/lv_sjpg.c ****  * Required only if the "open" function can't open the whole decoded pixel array. (dsc->img_data ==
 711:lvgl/src/extra/libs/sjpg/lv_sjpg.c ****  * @param decoder pointer to the decoder the function associated with
 712:lvgl/src/extra/libs/sjpg/lv_sjpg.c ****  * @param dsc pointer to decoder descriptor
 713:lvgl/src/extra/libs/sjpg/lv_sjpg.c ****  * @param x start x coordinate
 714:lvgl/src/extra/libs/sjpg/lv_sjpg.c ****  * @param y start y coordinate
 715:lvgl/src/extra/libs/sjpg/lv_sjpg.c ****  * @param len number of pixels to decode
ARM GAS  C:\usertemp\ccKDNimi.s 			page 14


 716:lvgl/src/extra/libs/sjpg/lv_sjpg.c ****  * @param buf a buffer to store the decoded pixels
 717:lvgl/src/extra/libs/sjpg/lv_sjpg.c ****  * @return LV_RES_OK: ok; LV_RES_INV: failed
 718:lvgl/src/extra/libs/sjpg/lv_sjpg.c ****  */
 719:lvgl/src/extra/libs/sjpg/lv_sjpg.c **** 
 720:lvgl/src/extra/libs/sjpg/lv_sjpg.c **** static lv_res_t decoder_read_line(lv_img_decoder_t * decoder, lv_img_decoder_dsc_t * dsc, lv_coord_
 721:lvgl/src/extra/libs/sjpg/lv_sjpg.c ****                                   lv_coord_t len, uint8_t * buf)
 722:lvgl/src/extra/libs/sjpg/lv_sjpg.c **** {
  28              		.loc 1 722 1 view -0
  29              		.cfi_startproc
  30              		@ args = 8, pretend = 0, frame = 0
  31              		@ frame_needed = 0, uses_anonymous_args = 0
  32              		.loc 1 722 1 is_stmt 0 view .LVU1
  33 0000 2DE9F04F 		push	{r4, r5, r6, r7, r8, r9, r10, fp, lr}
  34              	.LCFI0:
  35              		.cfi_def_cfa_offset 36
  36              		.cfi_offset 4, -36
  37              		.cfi_offset 5, -32
  38              		.cfi_offset 6, -28
  39              		.cfi_offset 7, -24
  40              		.cfi_offset 8, -20
  41              		.cfi_offset 9, -16
  42              		.cfi_offset 10, -12
  43              		.cfi_offset 11, -8
  44              		.cfi_offset 14, -4
  45 0004 83B0     		sub	sp, sp, #12
  46              	.LCFI1:
  47              		.cfi_def_cfa_offset 48
  48 0006 9246     		mov	r10, r2
  49 0008 9846     		mov	r8, r3
  50 000a BDF93050 		ldrsh	r5, [sp, #48]
  51 000e 0D9C     		ldr	r4, [sp, #52]
 723:lvgl/src/extra/libs/sjpg/lv_sjpg.c ****     LV_UNUSED(decoder);
  52              		.loc 1 723 5 is_stmt 1 view .LVU2
 724:lvgl/src/extra/libs/sjpg/lv_sjpg.c ****     if(dsc->src_type == LV_IMG_SRC_VARIABLE) {
  53              		.loc 1 724 5 view .LVU3
  54              		.loc 1 724 11 is_stmt 0 view .LVU4
  55 0010 0E7C     		ldrb	r6, [r1, #16]	@ zero_extendqisi2
  56              		.loc 1 724 7 view .LVU5
  57 0012 002E     		cmp	r6, #0
  58 0014 5ED1     		bne	.L2
  59              	.LBB2:
 725:lvgl/src/extra/libs/sjpg/lv_sjpg.c ****         SJPEG * sjpeg = (SJPEG *) dsc->user_data;
  60              		.loc 1 725 9 is_stmt 1 view .LVU6
  61              		.loc 1 725 17 is_stmt 0 view .LVU7
  62 0016 4F6A     		ldr	r7, [r1, #36]
  63              	.LVL1:
 726:lvgl/src/extra/libs/sjpg/lv_sjpg.c ****         JRESULT rc;
  64              		.loc 1 726 9 is_stmt 1 view .LVU8
 727:lvgl/src/extra/libs/sjpg/lv_sjpg.c **** 
 728:lvgl/src/extra/libs/sjpg/lv_sjpg.c ****         int sjpeg_req_frame_index = y / sjpeg->sjpeg_single_frame_height;
  65              		.loc 1 728 9 view .LVU9
  66              		.loc 1 728 46 is_stmt 0 view .LVU10
  67 0018 7B69     		ldr	r3, [r7, #20]
  68              	.LVL2:
  69              		.loc 1 728 13 view .LVU11
  70 001a 98FBF3F9 		sdiv	r9, r8, r3
  71              	.LVL3:
ARM GAS  C:\usertemp\ccKDNimi.s 			page 15


 729:lvgl/src/extra/libs/sjpg/lv_sjpg.c **** 
 730:lvgl/src/extra/libs/sjpg/lv_sjpg.c ****         /*If line not from cache, refresh cache */
 731:lvgl/src/extra/libs/sjpg/lv_sjpg.c ****         if(sjpeg_req_frame_index != sjpeg->sjpeg_cache_frame_index) {
  72              		.loc 1 731 9 is_stmt 1 view .LVU12
  73              		.loc 1 731 42 is_stmt 0 view .LVU13
  74 001e BB69     		ldr	r3, [r7, #24]
  75              		.loc 1 731 11 view .LVU14
  76 0020 4B45     		cmp	r3, r9
  77 0022 26D0     		beq	.L3
 732:lvgl/src/extra/libs/sjpg/lv_sjpg.c ****             sjpeg->io.raw_sjpg_data = sjpeg->frame_base_array[ sjpeg_req_frame_index ];
  78              		.loc 1 732 13 is_stmt 1 view .LVU15
  79              		.loc 1 732 44 is_stmt 0 view .LVU16
  80 0024 F969     		ldr	r1, [r7, #28]
  81              	.LVL4:
  82              		.loc 1 732 62 view .LVU17
  83 0026 51F82920 		ldr	r2, [r1, r9, lsl #2]
  84              	.LVL5:
  85              		.loc 1 732 37 view .LVU18
  86 002a FA64     		str	r2, [r7, #76]
 733:lvgl/src/extra/libs/sjpg/lv_sjpg.c ****             if(sjpeg_req_frame_index == (sjpeg->sjpeg_total_frames - 1)) {
  87              		.loc 1 733 13 is_stmt 1 view .LVU19
  88              		.loc 1 733 47 is_stmt 0 view .LVU20
  89 002c 3B69     		ldr	r3, [r7, #16]
  90              		.loc 1 733 68 view .LVU21
  91 002e 013B     		subs	r3, r3, #1
  92              		.loc 1 733 15 view .LVU22
  93 0030 4B45     		cmp	r3, r9
  94 0032 30D0     		beq	.L18
 734:lvgl/src/extra/libs/sjpg/lv_sjpg.c ****                 /*This is the last frame. */
 735:lvgl/src/extra/libs/sjpg/lv_sjpg.c ****                 const uint32_t frame_offset = (uint32_t)(sjpeg->io.raw_sjpg_data - sjpeg->sjpeg_dat
 736:lvgl/src/extra/libs/sjpg/lv_sjpg.c ****                 sjpeg->io.raw_sjpg_data_size = sjpeg->sjpeg_data_size - frame_offset;
 737:lvgl/src/extra/libs/sjpg/lv_sjpg.c ****             }
 738:lvgl/src/extra/libs/sjpg/lv_sjpg.c ****             else {
 739:lvgl/src/extra/libs/sjpg/lv_sjpg.c ****                 sjpeg->io.raw_sjpg_data_size =
  95              		.loc 1 739 17 is_stmt 1 view .LVU23
 740:lvgl/src/extra/libs/sjpg/lv_sjpg.c ****                     (uint32_t)(sjpeg->frame_base_array[sjpeg_req_frame_index + 1] - sjpeg->io.raw_s
  96              		.loc 1 740 55 is_stmt 0 view .LVU24
  97 0034 09F10103 		add	r3, r9, #1
  98 0038 51F82330 		ldr	r3, [r1, r3, lsl #2]
  99              		.loc 1 740 83 view .LVU25
 100 003c 9B1A     		subs	r3, r3, r2
 739:lvgl/src/extra/libs/sjpg/lv_sjpg.c ****                     (uint32_t)(sjpeg->frame_base_array[sjpeg_req_frame_index + 1] - sjpeg->io.raw_s
 101              		.loc 1 739 46 view .LVU26
 102 003e 3B65     		str	r3, [r7, #80]
 103              	.L5:
 741:lvgl/src/extra/libs/sjpg/lv_sjpg.c ****             }
 742:lvgl/src/extra/libs/sjpg/lv_sjpg.c ****             sjpeg->io.raw_sjpg_data_next_read_pos = 0;
 104              		.loc 1 742 13 is_stmt 1 view .LVU27
 105              		.loc 1 742 51 is_stmt 0 view .LVU28
 106 0040 0023     		movs	r3, #0
 107 0042 7B65     		str	r3, [r7, #84]
 743:lvgl/src/extra/libs/sjpg/lv_sjpg.c ****             rc = jd_prepare(sjpeg->tjpeg_jd, input_func, sjpeg->workb, (size_t)TJPGD_WORKBUFF_SIZE,
 108              		.loc 1 743 13 is_stmt 1 view .LVU29
 109              		.loc 1 743 63 is_stmt 0 view .LVU30
 110 0044 BA6A     		ldr	r2, [r7, #40]
 111              		.loc 1 743 101 view .LVU31
 112 0046 07F13003 		add	r3, r7, #48
ARM GAS  C:\usertemp\ccKDNimi.s 			page 16


 113              		.loc 1 743 18 view .LVU32
 114 004a F86A     		ldr	r0, [r7, #44]
 115              	.LVL6:
 116              		.loc 1 743 18 view .LVU33
 117 004c 0093     		str	r3, [sp]
 118 004e 4FF48053 		mov	r3, #4096
 119 0052 4F49     		ldr	r1, .L21
 120 0054 FFF7FEFF 		bl	jd_prepare
 121              	.LVL7:
 744:lvgl/src/extra/libs/sjpg/lv_sjpg.c ****             if(rc != JDR_OK) return LV_RES_INV;
 122              		.loc 1 744 13 is_stmt 1 view .LVU34
 123              		.loc 1 744 15 is_stmt 0 view .LVU35
 124 0058 8346     		mov	fp, r0
 125 005a 0028     		cmp	r0, #0
 126 005c 3DD1     		bne	.L6
 745:lvgl/src/extra/libs/sjpg/lv_sjpg.c ****             rc = jd_decomp(sjpeg->tjpeg_jd, img_data_cb, 0);
 127              		.loc 1 745 13 is_stmt 1 view .LVU36
 128              		.loc 1 745 18 is_stmt 0 view .LVU37
 129 005e 0022     		movs	r2, #0
 130 0060 4C49     		ldr	r1, .L21+4
 131 0062 F86A     		ldr	r0, [r7, #44]
 132              	.LVL8:
 133              		.loc 1 745 18 view .LVU38
 134 0064 FFF7FEFF 		bl	jd_decomp
 135              	.LVL9:
 746:lvgl/src/extra/libs/sjpg/lv_sjpg.c ****             if(rc != JDR_OK) return LV_RES_INV;
 136              		.loc 1 746 13 is_stmt 1 view .LVU39
 137              		.loc 1 746 15 is_stmt 0 view .LVU40
 138 0068 0028     		cmp	r0, #0
 139 006a 40F08B80 		bne	.L12
 747:lvgl/src/extra/libs/sjpg/lv_sjpg.c ****             sjpeg->sjpeg_cache_frame_index = sjpeg_req_frame_index;
 140              		.loc 1 747 13 is_stmt 1 view .LVU41
 141              		.loc 1 747 44 is_stmt 0 view .LVU42
 142 006e C7F81890 		str	r9, [r7, #24]
 143              	.LVL10:
 144              	.L3:
 748:lvgl/src/extra/libs/sjpg/lv_sjpg.c ****         }
 749:lvgl/src/extra/libs/sjpg/lv_sjpg.c **** 
 750:lvgl/src/extra/libs/sjpg/lv_sjpg.c ****         int offset = 0;
 145              		.loc 1 750 9 is_stmt 1 view .LVU43
 751:lvgl/src/extra/libs/sjpg/lv_sjpg.c ****         uint8_t * cache = (uint8_t *)sjpeg->frame_cache + x * 3 + (y % sjpeg->sjpeg_single_frame_he
 146              		.loc 1 751 9 view .LVU44
 147              		.loc 1 751 43 is_stmt 0 view .LVU45
 148 0072 7A6A     		ldr	r2, [r7, #36]
 149              		.loc 1 751 61 view .LVU46
 150 0074 0AEB4A0A 		add	r10, r10, r10, lsl #1
 151              	.LVL11:
 152              		.loc 1 751 77 view .LVU47
 153 0078 7969     		ldr	r1, [r7, #20]
 154              		.loc 1 751 70 view .LVU48
 155 007a 98FBF1F3 		sdiv	r3, r8, r1
 156 007e 01FB1383 		mls	r3, r1, r3, r8
 157              		.loc 1 751 113 view .LVU49
 158 0082 B968     		ldr	r1, [r7, #8]
 159              		.loc 1 751 106 view .LVU50
 160 0084 01FB03F3 		mul	r3, r1, r3
 161              		.loc 1 751 127 view .LVU51
ARM GAS  C:\usertemp\ccKDNimi.s 			page 17


 162 0088 03EB4303 		add	r3, r3, r3, lsl #1
 163              		.loc 1 751 65 view .LVU52
 164 008c 9A44     		add	r10, r10, r3
 165              		.loc 1 751 19 view .LVU53
 166 008e 5244     		add	r2, r2, r10
 167              	.LVL12:
 752:lvgl/src/extra/libs/sjpg/lv_sjpg.c ****                           3;
 753:lvgl/src/extra/libs/sjpg/lv_sjpg.c **** 
 754:lvgl/src/extra/libs/sjpg/lv_sjpg.c **** #if  LV_COLOR_DEPTH == 32
 755:lvgl/src/extra/libs/sjpg/lv_sjpg.c ****         for(int i = 0; i < len; i++) {
 756:lvgl/src/extra/libs/sjpg/lv_sjpg.c ****             buf[offset + 3] = 0xff;
 757:lvgl/src/extra/libs/sjpg/lv_sjpg.c ****             buf[offset + 2] = *cache++;
 758:lvgl/src/extra/libs/sjpg/lv_sjpg.c ****             buf[offset + 1] = *cache++;
 759:lvgl/src/extra/libs/sjpg/lv_sjpg.c ****             buf[offset + 0] = *cache++;
 760:lvgl/src/extra/libs/sjpg/lv_sjpg.c ****             offset += 4;
 761:lvgl/src/extra/libs/sjpg/lv_sjpg.c ****         }
 762:lvgl/src/extra/libs/sjpg/lv_sjpg.c **** 
 763:lvgl/src/extra/libs/sjpg/lv_sjpg.c **** #elif  LV_COLOR_DEPTH == 16
 764:lvgl/src/extra/libs/sjpg/lv_sjpg.c **** 
 765:lvgl/src/extra/libs/sjpg/lv_sjpg.c ****         for(int i = 0; i < len; i++) {
 168              		.loc 1 765 9 is_stmt 1 view .LVU54
 169              	.LBB3:
 170              		.loc 1 765 13 view .LVU55
 171              		.loc 1 765 17 is_stmt 0 view .LVU56
 172 0090 0026     		movs	r6, #0
 173              	.LBE3:
 750:lvgl/src/extra/libs/sjpg/lv_sjpg.c ****         uint8_t * cache = (uint8_t *)sjpeg->frame_cache + x * 3 + (y % sjpeg->sjpeg_single_frame_he
 174              		.loc 1 750 13 view .LVU57
 175 0092 3146     		mov	r1, r6
 176              	.LBB6:
 177              		.loc 1 765 9 view .LVU58
 178 0094 1AE0     		b	.L7
 179              	.LVL13:
 180              	.L18:
 181              		.loc 1 765 9 view .LVU59
 182              	.LBE6:
 183              	.LBB7:
 735:lvgl/src/extra/libs/sjpg/lv_sjpg.c ****                 sjpeg->io.raw_sjpg_data_size = sjpeg->sjpeg_data_size - frame_offset;
 184              		.loc 1 735 17 is_stmt 1 view .LVU60
 735:lvgl/src/extra/libs/sjpg/lv_sjpg.c ****                 sjpeg->io.raw_sjpg_data_size = sjpeg->sjpeg_data_size - frame_offset;
 185              		.loc 1 735 89 is_stmt 0 view .LVU61
 186 0096 3B68     		ldr	r3, [r7]
 735:lvgl/src/extra/libs/sjpg/lv_sjpg.c ****                 sjpeg->io.raw_sjpg_data_size = sjpeg->sjpeg_data_size - frame_offset;
 187              		.loc 1 735 82 view .LVU62
 188 0098 D21A     		subs	r2, r2, r3
 189              	.LVL14:
 736:lvgl/src/extra/libs/sjpg/lv_sjpg.c ****             }
 190              		.loc 1 736 17 is_stmt 1 view .LVU63
 736:lvgl/src/extra/libs/sjpg/lv_sjpg.c ****             }
 191              		.loc 1 736 53 is_stmt 0 view .LVU64
 192 009a 7B68     		ldr	r3, [r7, #4]
 736:lvgl/src/extra/libs/sjpg/lv_sjpg.c ****             }
 193              		.loc 1 736 71 view .LVU65
 194 009c 9B1A     		subs	r3, r3, r2
 736:lvgl/src/extra/libs/sjpg/lv_sjpg.c ****             }
 195              		.loc 1 736 46 view .LVU66
 196 009e 3B65     		str	r3, [r7, #80]
ARM GAS  C:\usertemp\ccKDNimi.s 			page 18


 197              	.LBE7:
 198 00a0 CEE7     		b	.L5
 199              	.LVL15:
 200              	.L8:
 201              	.LBB8:
 202              	.LBB4:
 766:lvgl/src/extra/libs/sjpg/lv_sjpg.c ****             uint16_t col_16bit = (*cache++ & 0xf8) << 8;
 203              		.loc 1 766 13 is_stmt 1 view .LVU67
 204              		.loc 1 766 35 is_stmt 0 view .LVU68
 205 00a2 1378     		ldrb	r3, [r2]	@ zero_extendqisi2
 206              		.loc 1 766 22 view .LVU69
 207 00a4 3C48     		ldr	r0, .L21+8
 208 00a6 00EA0320 		and	r0, r0, r3, lsl #8
 209              	.LVL16:
 767:lvgl/src/extra/libs/sjpg/lv_sjpg.c ****             col_16bit |= (*cache++ & 0xFC) << 3;
 210              		.loc 1 767 13 is_stmt 1 view .LVU70
 211              		.loc 1 767 27 is_stmt 0 view .LVU71
 212 00aa 5378     		ldrb	r3, [r2, #1]	@ zero_extendqisi2
 213              		.loc 1 767 44 view .LVU72
 214 00ac DB00     		lsls	r3, r3, #3
 215 00ae 03F4FC63 		and	r3, r3, #2016
 216              		.loc 1 767 23 view .LVU73
 217 00b2 0343     		orrs	r3, r3, r0
 218 00b4 1BB2     		sxth	r3, r3
 219              	.LVL17:
 768:lvgl/src/extra/libs/sjpg/lv_sjpg.c ****             col_16bit |= (*cache++ >> 3);
 220              		.loc 1 768 13 is_stmt 1 view .LVU74
 221              		.loc 1 768 27 is_stmt 0 view .LVU75
 222 00b6 9078     		ldrb	r0, [r2, #2]	@ zero_extendqisi2
 223              		.loc 1 768 23 view .LVU76
 224 00b8 43EAD003 		orr	r3, r3, r0, lsr #3
 225              	.LVL18:
 769:lvgl/src/extra/libs/sjpg/lv_sjpg.c **** #if  LV_BIG_ENDIAN_SYSTEM == 1
 770:lvgl/src/extra/libs/sjpg/lv_sjpg.c ****             buf[offset++] = col_16bit >> 8;
 771:lvgl/src/extra/libs/sjpg/lv_sjpg.c ****             buf[offset++] = col_16bit & 0xff;
 772:lvgl/src/extra/libs/sjpg/lv_sjpg.c **** #else
 773:lvgl/src/extra/libs/sjpg/lv_sjpg.c ****             buf[offset++] = col_16bit & 0xff;
 226              		.loc 1 773 13 is_stmt 1 view .LVU77
 227              		.loc 1 773 23 is_stmt 0 view .LVU78
 228 00bc 481C     		adds	r0, r1, #1
 229              	.LVL19:
 230              		.loc 1 773 27 view .LVU79
 231 00be 6354     		strb	r3, [r4, r1]
 774:lvgl/src/extra/libs/sjpg/lv_sjpg.c ****             buf[offset++] = col_16bit >> 8;
 232              		.loc 1 774 13 is_stmt 1 view .LVU80
 233              	.LVL20:
 234              		.loc 1 774 27 is_stmt 0 view .LVU81
 235 00c0 C3F30723 		ubfx	r3, r3, #8, #8
 236              	.LVL21:
 237              		.loc 1 774 27 view .LVU82
 238 00c4 2354     		strb	r3, [r4, r0]
 239 00c6 0231     		adds	r1, r1, #2
 240              	.LVL22:
 241              		.loc 1 774 27 view .LVU83
 242              	.LBE4:
 765:lvgl/src/extra/libs/sjpg/lv_sjpg.c ****             uint16_t col_16bit = (*cache++ & 0xf8) << 8;
 243              		.loc 1 765 34 is_stmt 1 discriminator 3 view .LVU84
ARM GAS  C:\usertemp\ccKDNimi.s 			page 19


 244 00c8 0136     		adds	r6, r6, #1
 245              	.LVL23:
 246              	.LBB5:
 768:lvgl/src/extra/libs/sjpg/lv_sjpg.c **** #if  LV_BIG_ENDIAN_SYSTEM == 1
 247              		.loc 1 768 33 is_stmt 0 view .LVU85
 248 00ca 0332     		adds	r2, r2, #3
 249              	.LVL24:
 250              	.L7:
 768:lvgl/src/extra/libs/sjpg/lv_sjpg.c **** #if  LV_BIG_ENDIAN_SYSTEM == 1
 251              		.loc 1 768 33 view .LVU86
 252              	.LBE5:
 765:lvgl/src/extra/libs/sjpg/lv_sjpg.c ****             uint16_t col_16bit = (*cache++ & 0xf8) << 8;
 253              		.loc 1 765 26 is_stmt 1 discriminator 1 view .LVU87
 254 00cc B542     		cmp	r5, r6
 255 00ce E8DC     		bgt	.L8
 765:lvgl/src/extra/libs/sjpg/lv_sjpg.c ****             uint16_t col_16bit = (*cache++ & 0xf8) << 8;
 256              		.loc 1 765 26 is_stmt 0 discriminator 1 view .LVU88
 257              	.LBE8:
 775:lvgl/src/extra/libs/sjpg/lv_sjpg.c **** #endif // LV_BIG_ENDIAN_SYSTEM
 776:lvgl/src/extra/libs/sjpg/lv_sjpg.c ****         }
 777:lvgl/src/extra/libs/sjpg/lv_sjpg.c **** 
 778:lvgl/src/extra/libs/sjpg/lv_sjpg.c **** #elif  LV_COLOR_DEPTH == 8
 779:lvgl/src/extra/libs/sjpg/lv_sjpg.c **** 
 780:lvgl/src/extra/libs/sjpg/lv_sjpg.c ****         for(int i = 0; i < len; i++) {
 781:lvgl/src/extra/libs/sjpg/lv_sjpg.c ****             uint8_t col_8bit = (*cache++ & 0xC0);
 782:lvgl/src/extra/libs/sjpg/lv_sjpg.c ****             col_8bit |= (*cache++ & 0xe0) >> 2;
 783:lvgl/src/extra/libs/sjpg/lv_sjpg.c ****             col_8bit |= (*cache++ & 0xe0) >> 5;
 784:lvgl/src/extra/libs/sjpg/lv_sjpg.c ****             buf[offset++] = col_8bit;
 785:lvgl/src/extra/libs/sjpg/lv_sjpg.c ****         }
 786:lvgl/src/extra/libs/sjpg/lv_sjpg.c **** #else
 787:lvgl/src/extra/libs/sjpg/lv_sjpg.c **** #error Unsupported LV_COLOR_DEPTH
 788:lvgl/src/extra/libs/sjpg/lv_sjpg.c **** 
 789:lvgl/src/extra/libs/sjpg/lv_sjpg.c **** 
 790:lvgl/src/extra/libs/sjpg/lv_sjpg.c **** #endif // LV_COLOR_DEPTH
 791:lvgl/src/extra/libs/sjpg/lv_sjpg.c ****         return LV_RES_OK;
 258              		.loc 1 791 16 view .LVU89
 259 00d0 0126     		movs	r6, #1
 260              	.LVL25:
 261              		.loc 1 791 16 view .LVU90
 262 00d2 02E0     		b	.L6
 263              	.LVL26:
 264              	.L2:
 265              		.loc 1 791 16 view .LVU91
 266              	.LBE2:
 792:lvgl/src/extra/libs/sjpg/lv_sjpg.c ****     }
 793:lvgl/src/extra/libs/sjpg/lv_sjpg.c ****     else if(dsc->src_type == LV_IMG_SRC_FILE) {
 267              		.loc 1 793 10 is_stmt 1 view .LVU92
 268              		.loc 1 793 12 is_stmt 0 view .LVU93
 269 00d4 012E     		cmp	r6, #1
 270 00d6 04D0     		beq	.L19
 794:lvgl/src/extra/libs/sjpg/lv_sjpg.c ****         SJPEG * sjpeg = (SJPEG *) dsc->user_data;
 795:lvgl/src/extra/libs/sjpg/lv_sjpg.c ****         JRESULT rc;
 796:lvgl/src/extra/libs/sjpg/lv_sjpg.c ****         int sjpeg_req_frame_index = y / sjpeg->sjpeg_single_frame_height;
 797:lvgl/src/extra/libs/sjpg/lv_sjpg.c **** 
 798:lvgl/src/extra/libs/sjpg/lv_sjpg.c ****         lv_fs_file_t * lv_file_p = &(sjpeg->io.lv_file);
 799:lvgl/src/extra/libs/sjpg/lv_sjpg.c ****         if(!lv_file_p) goto end;
 800:lvgl/src/extra/libs/sjpg/lv_sjpg.c **** 
ARM GAS  C:\usertemp\ccKDNimi.s 			page 20


 801:lvgl/src/extra/libs/sjpg/lv_sjpg.c ****         /*If line not from cache, refresh cache */
 802:lvgl/src/extra/libs/sjpg/lv_sjpg.c ****         if(sjpeg_req_frame_index != sjpeg->sjpeg_cache_frame_index) {
 803:lvgl/src/extra/libs/sjpg/lv_sjpg.c ****             sjpeg->io.raw_sjpg_data_next_read_pos = (int)(sjpeg->frame_base_offset [ sjpeg_req_fram
 804:lvgl/src/extra/libs/sjpg/lv_sjpg.c ****             lv_fs_seek(&(sjpeg->io.lv_file), sjpeg->io.raw_sjpg_data_next_read_pos, LV_FS_SEEK_SET)
 805:lvgl/src/extra/libs/sjpg/lv_sjpg.c **** 
 806:lvgl/src/extra/libs/sjpg/lv_sjpg.c ****             rc = jd_prepare(sjpeg->tjpeg_jd, input_func, sjpeg->workb, (size_t)TJPGD_WORKBUFF_SIZE,
 807:lvgl/src/extra/libs/sjpg/lv_sjpg.c ****             if(rc != JDR_OK) return LV_RES_INV;
 808:lvgl/src/extra/libs/sjpg/lv_sjpg.c **** 
 809:lvgl/src/extra/libs/sjpg/lv_sjpg.c ****             rc = jd_decomp(sjpeg->tjpeg_jd, img_data_cb, 0);
 810:lvgl/src/extra/libs/sjpg/lv_sjpg.c ****             if(rc != JDR_OK) return LV_RES_INV;
 811:lvgl/src/extra/libs/sjpg/lv_sjpg.c **** 
 812:lvgl/src/extra/libs/sjpg/lv_sjpg.c ****             sjpeg->sjpeg_cache_frame_index = sjpeg_req_frame_index;
 813:lvgl/src/extra/libs/sjpg/lv_sjpg.c ****         }
 814:lvgl/src/extra/libs/sjpg/lv_sjpg.c **** 
 815:lvgl/src/extra/libs/sjpg/lv_sjpg.c ****         int offset = 0;
 816:lvgl/src/extra/libs/sjpg/lv_sjpg.c ****         uint8_t * cache = (uint8_t *)sjpeg->frame_cache + x * 3 + (y % sjpeg->sjpeg_single_frame_he
 817:lvgl/src/extra/libs/sjpg/lv_sjpg.c ****                           3;
 818:lvgl/src/extra/libs/sjpg/lv_sjpg.c **** 
 819:lvgl/src/extra/libs/sjpg/lv_sjpg.c **** #if LV_COLOR_DEPTH == 32
 820:lvgl/src/extra/libs/sjpg/lv_sjpg.c ****         for(int i = 0; i < len; i++) {
 821:lvgl/src/extra/libs/sjpg/lv_sjpg.c ****             buf[offset + 3] = 0xff;
 822:lvgl/src/extra/libs/sjpg/lv_sjpg.c ****             buf[offset + 2] = *cache++;
 823:lvgl/src/extra/libs/sjpg/lv_sjpg.c ****             buf[offset + 1] = *cache++;
 824:lvgl/src/extra/libs/sjpg/lv_sjpg.c ****             buf[offset + 0] = *cache++;
 825:lvgl/src/extra/libs/sjpg/lv_sjpg.c ****             offset += 4;
 826:lvgl/src/extra/libs/sjpg/lv_sjpg.c ****         }
 827:lvgl/src/extra/libs/sjpg/lv_sjpg.c **** #elif  LV_COLOR_DEPTH == 16
 828:lvgl/src/extra/libs/sjpg/lv_sjpg.c **** 
 829:lvgl/src/extra/libs/sjpg/lv_sjpg.c ****         for(int i = 0; i < len; i++) {
 830:lvgl/src/extra/libs/sjpg/lv_sjpg.c ****             uint16_t col_8bit = (*cache++ & 0xf8) << 8;
 831:lvgl/src/extra/libs/sjpg/lv_sjpg.c ****             col_8bit |= (*cache++ & 0xFC) << 3;
 832:lvgl/src/extra/libs/sjpg/lv_sjpg.c ****             col_8bit |= (*cache++ >> 3);
 833:lvgl/src/extra/libs/sjpg/lv_sjpg.c **** #if  LV_BIG_ENDIAN_SYSTEM == 1
 834:lvgl/src/extra/libs/sjpg/lv_sjpg.c ****             buf[offset++] = col_8bit >> 8;
 835:lvgl/src/extra/libs/sjpg/lv_sjpg.c ****             buf[offset++] = col_8bit & 0xff;
 836:lvgl/src/extra/libs/sjpg/lv_sjpg.c **** #else
 837:lvgl/src/extra/libs/sjpg/lv_sjpg.c ****             buf[offset++] = col_8bit & 0xff;
 838:lvgl/src/extra/libs/sjpg/lv_sjpg.c ****             buf[offset++] = col_8bit >> 8;
 839:lvgl/src/extra/libs/sjpg/lv_sjpg.c **** #endif // LV_BIG_ENDIAN_SYSTEM
 840:lvgl/src/extra/libs/sjpg/lv_sjpg.c ****         }
 841:lvgl/src/extra/libs/sjpg/lv_sjpg.c **** 
 842:lvgl/src/extra/libs/sjpg/lv_sjpg.c **** #elif  LV_COLOR_DEPTH == 8
 843:lvgl/src/extra/libs/sjpg/lv_sjpg.c **** 
 844:lvgl/src/extra/libs/sjpg/lv_sjpg.c ****         for(int i = 0; i < len; i++) {
 845:lvgl/src/extra/libs/sjpg/lv_sjpg.c ****             uint8_t col_8bit = (*cache++ & 0xC0);
 846:lvgl/src/extra/libs/sjpg/lv_sjpg.c ****             col_8bit |= (*cache++ & 0xe0) >> 2;
 847:lvgl/src/extra/libs/sjpg/lv_sjpg.c ****             col_8bit |= (*cache++ & 0xe0) >> 5;
 848:lvgl/src/extra/libs/sjpg/lv_sjpg.c ****             buf[offset++] = col_8bit;
 849:lvgl/src/extra/libs/sjpg/lv_sjpg.c ****         }
 850:lvgl/src/extra/libs/sjpg/lv_sjpg.c **** 
 851:lvgl/src/extra/libs/sjpg/lv_sjpg.c **** #else
 852:lvgl/src/extra/libs/sjpg/lv_sjpg.c **** #error Unsupported LV_COLOR_DEPTH
 853:lvgl/src/extra/libs/sjpg/lv_sjpg.c **** 
 854:lvgl/src/extra/libs/sjpg/lv_sjpg.c **** 
 855:lvgl/src/extra/libs/sjpg/lv_sjpg.c **** #endif // LV_COLOR_DEPTH
 856:lvgl/src/extra/libs/sjpg/lv_sjpg.c **** 
 857:lvgl/src/extra/libs/sjpg/lv_sjpg.c ****         return LV_RES_OK;
ARM GAS  C:\usertemp\ccKDNimi.s 			page 21


 858:lvgl/src/extra/libs/sjpg/lv_sjpg.c ****     }
 859:lvgl/src/extra/libs/sjpg/lv_sjpg.c **** end:
 860:lvgl/src/extra/libs/sjpg/lv_sjpg.c ****     return LV_RES_INV;
 271              		.loc 1 860 12 view .LVU94
 272 00d8 0026     		movs	r6, #0
 273              	.LVL27:
 274              	.L6:
 861:lvgl/src/extra/libs/sjpg/lv_sjpg.c **** }
 275              		.loc 1 861 1 view .LVU95
 276 00da 3046     		mov	r0, r6
 277 00dc 03B0     		add	sp, sp, #12
 278              	.LCFI2:
 279              		.cfi_remember_state
 280              		.cfi_def_cfa_offset 36
 281              		@ sp needed
 282 00de BDE8F08F 		pop	{r4, r5, r6, r7, r8, r9, r10, fp, pc}
 283              	.LVL28:
 284              	.L19:
 285              	.LCFI3:
 286              		.cfi_restore_state
 287              	.LBB9:
 794:lvgl/src/extra/libs/sjpg/lv_sjpg.c ****         SJPEG * sjpeg = (SJPEG *) dsc->user_data;
 288              		.loc 1 794 9 is_stmt 1 view .LVU96
 794:lvgl/src/extra/libs/sjpg/lv_sjpg.c ****         SJPEG * sjpeg = (SJPEG *) dsc->user_data;
 289              		.loc 1 794 17 is_stmt 0 view .LVU97
 290 00e2 4F6A     		ldr	r7, [r1, #36]
 291              	.LVL29:
 795:lvgl/src/extra/libs/sjpg/lv_sjpg.c ****         int sjpeg_req_frame_index = y / sjpeg->sjpeg_single_frame_height;
 292              		.loc 1 795 9 is_stmt 1 view .LVU98
 796:lvgl/src/extra/libs/sjpg/lv_sjpg.c **** 
 293              		.loc 1 796 9 view .LVU99
 796:lvgl/src/extra/libs/sjpg/lv_sjpg.c **** 
 294              		.loc 1 796 46 is_stmt 0 view .LVU100
 295 00e4 7B69     		ldr	r3, [r7, #20]
 296              	.LVL30:
 796:lvgl/src/extra/libs/sjpg/lv_sjpg.c **** 
 297              		.loc 1 796 13 view .LVU101
 298 00e6 98FBF3F9 		sdiv	r9, r8, r3
 299              	.LVL31:
 798:lvgl/src/extra/libs/sjpg/lv_sjpg.c ****         if(!lv_file_p) goto end;
 300              		.loc 1 798 9 is_stmt 1 view .LVU102
 799:lvgl/src/extra/libs/sjpg/lv_sjpg.c **** 
 301              		.loc 1 799 9 view .LVU103
 799:lvgl/src/extra/libs/sjpg/lv_sjpg.c **** 
 302              		.loc 1 799 11 is_stmt 0 view .LVU104
 303 00ea 17F13400 		adds	r0, r7, #52
 304              	.LVL32:
 799:lvgl/src/extra/libs/sjpg/lv_sjpg.c **** 
 305              		.loc 1 799 11 view .LVU105
 306 00ee 4BD0     		beq	.L14
 802:lvgl/src/extra/libs/sjpg/lv_sjpg.c ****             sjpeg->io.raw_sjpg_data_next_read_pos = (int)(sjpeg->frame_base_offset [ sjpeg_req_fram
 307              		.loc 1 802 9 is_stmt 1 view .LVU106
 802:lvgl/src/extra/libs/sjpg/lv_sjpg.c ****             sjpeg->io.raw_sjpg_data_next_read_pos = (int)(sjpeg->frame_base_offset [ sjpeg_req_fram
 308              		.loc 1 802 42 is_stmt 0 view .LVU107
 309 00f0 BB69     		ldr	r3, [r7, #24]
 802:lvgl/src/extra/libs/sjpg/lv_sjpg.c ****             sjpeg->io.raw_sjpg_data_next_read_pos = (int)(sjpeg->frame_base_offset [ sjpeg_req_fram
 310              		.loc 1 802 11 view .LVU108
ARM GAS  C:\usertemp\ccKDNimi.s 			page 22


 311 00f2 4B45     		cmp	r3, r9
 312 00f4 1CD0     		beq	.L9
 803:lvgl/src/extra/libs/sjpg/lv_sjpg.c ****             lv_fs_seek(&(sjpeg->io.lv_file), sjpeg->io.raw_sjpg_data_next_read_pos, LV_FS_SEEK_SET)
 313              		.loc 1 803 13 is_stmt 1 view .LVU109
 803:lvgl/src/extra/libs/sjpg/lv_sjpg.c ****             lv_fs_seek(&(sjpeg->io.lv_file), sjpeg->io.raw_sjpg_data_next_read_pos, LV_FS_SEEK_SET)
 314              		.loc 1 803 64 is_stmt 0 view .LVU110
 315 00f6 3B6A     		ldr	r3, [r7, #32]
 803:lvgl/src/extra/libs/sjpg/lv_sjpg.c ****             lv_fs_seek(&(sjpeg->io.lv_file), sjpeg->io.raw_sjpg_data_next_read_pos, LV_FS_SEEK_SET)
 316              		.loc 1 803 53 view .LVU111
 317 00f8 53F82910 		ldr	r1, [r3, r9, lsl #2]
 318              	.LVL33:
 803:lvgl/src/extra/libs/sjpg/lv_sjpg.c ****             lv_fs_seek(&(sjpeg->io.lv_file), sjpeg->io.raw_sjpg_data_next_read_pos, LV_FS_SEEK_SET)
 319              		.loc 1 803 51 view .LVU112
 320 00fc 7965     		str	r1, [r7, #84]
 804:lvgl/src/extra/libs/sjpg/lv_sjpg.c **** 
 321              		.loc 1 804 13 is_stmt 1 view .LVU113
 322 00fe 0022     		movs	r2, #0
 323              	.LVL34:
 804:lvgl/src/extra/libs/sjpg/lv_sjpg.c **** 
 324              		.loc 1 804 13 is_stmt 0 view .LVU114
 325 0100 FFF7FEFF 		bl	lv_fs_seek
 326              	.LVL35:
 806:lvgl/src/extra/libs/sjpg/lv_sjpg.c ****             if(rc != JDR_OK) return LV_RES_INV;
 327              		.loc 1 806 13 is_stmt 1 view .LVU115
 806:lvgl/src/extra/libs/sjpg/lv_sjpg.c ****             if(rc != JDR_OK) return LV_RES_INV;
 328              		.loc 1 806 63 is_stmt 0 view .LVU116
 329 0104 BA6A     		ldr	r2, [r7, #40]
 806:lvgl/src/extra/libs/sjpg/lv_sjpg.c ****             if(rc != JDR_OK) return LV_RES_INV;
 330              		.loc 1 806 101 view .LVU117
 331 0106 07F13003 		add	r3, r7, #48
 806:lvgl/src/extra/libs/sjpg/lv_sjpg.c ****             if(rc != JDR_OK) return LV_RES_INV;
 332              		.loc 1 806 18 view .LVU118
 333 010a F86A     		ldr	r0, [r7, #44]
 334 010c 0093     		str	r3, [sp]
 335 010e 4FF48053 		mov	r3, #4096
 336 0112 1F49     		ldr	r1, .L21
 337 0114 FFF7FEFF 		bl	jd_prepare
 338              	.LVL36:
 807:lvgl/src/extra/libs/sjpg/lv_sjpg.c **** 
 339              		.loc 1 807 13 is_stmt 1 view .LVU119
 807:lvgl/src/extra/libs/sjpg/lv_sjpg.c **** 
 340              		.loc 1 807 15 is_stmt 0 view .LVU120
 341 0118 8346     		mov	fp, r0
 342 011a 08B1     		cbz	r0, .L20
 807:lvgl/src/extra/libs/sjpg/lv_sjpg.c **** 
 343              		.loc 1 807 37 discriminator 1 view .LVU121
 344 011c 0026     		movs	r6, #0
 345 011e DCE7     		b	.L6
 346              	.L20:
 809:lvgl/src/extra/libs/sjpg/lv_sjpg.c ****             if(rc != JDR_OK) return LV_RES_INV;
 347              		.loc 1 809 13 is_stmt 1 view .LVU122
 809:lvgl/src/extra/libs/sjpg/lv_sjpg.c ****             if(rc != JDR_OK) return LV_RES_INV;
 348              		.loc 1 809 18 is_stmt 0 view .LVU123
 349 0120 0022     		movs	r2, #0
 350 0122 1C49     		ldr	r1, .L21+4
 351 0124 F86A     		ldr	r0, [r7, #44]
 352              	.LVL37:
ARM GAS  C:\usertemp\ccKDNimi.s 			page 23


 809:lvgl/src/extra/libs/sjpg/lv_sjpg.c ****             if(rc != JDR_OK) return LV_RES_INV;
 353              		.loc 1 809 18 view .LVU124
 354 0126 FFF7FEFF 		bl	jd_decomp
 355              	.LVL38:
 810:lvgl/src/extra/libs/sjpg/lv_sjpg.c **** 
 356              		.loc 1 810 13 is_stmt 1 view .LVU125
 810:lvgl/src/extra/libs/sjpg/lv_sjpg.c **** 
 357              		.loc 1 810 15 is_stmt 0 view .LVU126
 358 012a 78BB     		cbnz	r0, .L16
 812:lvgl/src/extra/libs/sjpg/lv_sjpg.c ****         }
 359              		.loc 1 812 13 is_stmt 1 view .LVU127
 812:lvgl/src/extra/libs/sjpg/lv_sjpg.c ****         }
 360              		.loc 1 812 44 is_stmt 0 view .LVU128
 361 012c C7F81890 		str	r9, [r7, #24]
 362              	.LVL39:
 363              	.L9:
 815:lvgl/src/extra/libs/sjpg/lv_sjpg.c ****         uint8_t * cache = (uint8_t *)sjpeg->frame_cache + x * 3 + (y % sjpeg->sjpeg_single_frame_he
 364              		.loc 1 815 9 is_stmt 1 view .LVU129
 816:lvgl/src/extra/libs/sjpg/lv_sjpg.c ****                           3;
 365              		.loc 1 816 9 view .LVU130
 816:lvgl/src/extra/libs/sjpg/lv_sjpg.c ****                           3;
 366              		.loc 1 816 43 is_stmt 0 view .LVU131
 367 0130 7A6A     		ldr	r2, [r7, #36]
 816:lvgl/src/extra/libs/sjpg/lv_sjpg.c ****                           3;
 368              		.loc 1 816 61 view .LVU132
 369 0132 0AEB4A0A 		add	r10, r10, r10, lsl #1
 370              	.LVL40:
 816:lvgl/src/extra/libs/sjpg/lv_sjpg.c ****                           3;
 371              		.loc 1 816 77 view .LVU133
 372 0136 7B69     		ldr	r3, [r7, #20]
 816:lvgl/src/extra/libs/sjpg/lv_sjpg.c ****                           3;
 373              		.loc 1 816 70 view .LVU134
 374 0138 98FBF3F1 		sdiv	r1, r8, r3
 375 013c 03FB1188 		mls	r8, r3, r1, r8
 376              	.LVL41:
 816:lvgl/src/extra/libs/sjpg/lv_sjpg.c ****                           3;
 377              		.loc 1 816 113 view .LVU135
 378 0140 BB68     		ldr	r3, [r7, #8]
 816:lvgl/src/extra/libs/sjpg/lv_sjpg.c ****                           3;
 379              		.loc 1 816 106 view .LVU136
 380 0142 03FB08F8 		mul	r8, r3, r8
 816:lvgl/src/extra/libs/sjpg/lv_sjpg.c ****                           3;
 381              		.loc 1 816 127 view .LVU137
 382 0146 08EB4808 		add	r8, r8, r8, lsl #1
 816:lvgl/src/extra/libs/sjpg/lv_sjpg.c ****                           3;
 383              		.loc 1 816 65 view .LVU138
 384 014a C244     		add	r10, r10, r8
 816:lvgl/src/extra/libs/sjpg/lv_sjpg.c ****                           3;
 385              		.loc 1 816 19 view .LVU139
 386 014c 5244     		add	r2, r2, r10
 387              	.LVL42:
 829:lvgl/src/extra/libs/sjpg/lv_sjpg.c ****             uint16_t col_8bit = (*cache++ & 0xf8) << 8;
 388              		.loc 1 829 9 is_stmt 1 view .LVU140
 389              	.LBB10:
 829:lvgl/src/extra/libs/sjpg/lv_sjpg.c ****             uint16_t col_8bit = (*cache++ & 0xf8) << 8;
 390              		.loc 1 829 13 view .LVU141
 829:lvgl/src/extra/libs/sjpg/lv_sjpg.c ****             uint16_t col_8bit = (*cache++ & 0xf8) << 8;
ARM GAS  C:\usertemp\ccKDNimi.s 			page 24


 391              		.loc 1 829 17 is_stmt 0 view .LVU142
 392 014e 0027     		movs	r7, #0
 393              	.LVL43:
 829:lvgl/src/extra/libs/sjpg/lv_sjpg.c ****             uint16_t col_8bit = (*cache++ & 0xf8) << 8;
 394              		.loc 1 829 17 view .LVU143
 395              	.LBE10:
 815:lvgl/src/extra/libs/sjpg/lv_sjpg.c ****         uint8_t * cache = (uint8_t *)sjpeg->frame_cache + x * 3 + (y % sjpeg->sjpeg_single_frame_he
 396              		.loc 1 815 13 view .LVU144
 397 0150 3946     		mov	r1, r7
 398              	.LBB13:
 829:lvgl/src/extra/libs/sjpg/lv_sjpg.c ****             uint16_t col_8bit = (*cache++ & 0xf8) << 8;
 399              		.loc 1 829 9 view .LVU145
 400 0152 14E0     		b	.L10
 401              	.LVL44:
 402              	.L11:
 403              	.LBB11:
 830:lvgl/src/extra/libs/sjpg/lv_sjpg.c ****             col_8bit |= (*cache++ & 0xFC) << 3;
 404              		.loc 1 830 13 is_stmt 1 view .LVU146
 830:lvgl/src/extra/libs/sjpg/lv_sjpg.c ****             col_8bit |= (*cache++ & 0xFC) << 3;
 405              		.loc 1 830 34 is_stmt 0 view .LVU147
 406 0154 1378     		ldrb	r3, [r2]	@ zero_extendqisi2
 830:lvgl/src/extra/libs/sjpg/lv_sjpg.c ****             col_8bit |= (*cache++ & 0xFC) << 3;
 407              		.loc 1 830 22 view .LVU148
 408 0156 1048     		ldr	r0, .L21+8
 409 0158 00EA0320 		and	r0, r0, r3, lsl #8
 410              	.LVL45:
 831:lvgl/src/extra/libs/sjpg/lv_sjpg.c ****             col_8bit |= (*cache++ >> 3);
 411              		.loc 1 831 13 is_stmt 1 view .LVU149
 831:lvgl/src/extra/libs/sjpg/lv_sjpg.c ****             col_8bit |= (*cache++ >> 3);
 412              		.loc 1 831 26 is_stmt 0 view .LVU150
 413 015c 5378     		ldrb	r3, [r2, #1]	@ zero_extendqisi2
 831:lvgl/src/extra/libs/sjpg/lv_sjpg.c ****             col_8bit |= (*cache++ >> 3);
 414              		.loc 1 831 43 view .LVU151
 415 015e DB00     		lsls	r3, r3, #3
 416 0160 03F4FC63 		and	r3, r3, #2016
 831:lvgl/src/extra/libs/sjpg/lv_sjpg.c ****             col_8bit |= (*cache++ >> 3);
 417              		.loc 1 831 22 view .LVU152
 418 0164 0343     		orrs	r3, r3, r0
 419 0166 1BB2     		sxth	r3, r3
 420              	.LVL46:
 832:lvgl/src/extra/libs/sjpg/lv_sjpg.c **** #if  LV_BIG_ENDIAN_SYSTEM == 1
 421              		.loc 1 832 13 is_stmt 1 view .LVU153
 832:lvgl/src/extra/libs/sjpg/lv_sjpg.c **** #if  LV_BIG_ENDIAN_SYSTEM == 1
 422              		.loc 1 832 26 is_stmt 0 view .LVU154
 423 0168 9078     		ldrb	r0, [r2, #2]	@ zero_extendqisi2
 832:lvgl/src/extra/libs/sjpg/lv_sjpg.c **** #if  LV_BIG_ENDIAN_SYSTEM == 1
 424              		.loc 1 832 22 view .LVU155
 425 016a 43EAD003 		orr	r3, r3, r0, lsr #3
 426              	.LVL47:
 837:lvgl/src/extra/libs/sjpg/lv_sjpg.c ****             buf[offset++] = col_8bit >> 8;
 427              		.loc 1 837 13 is_stmt 1 view .LVU156
 837:lvgl/src/extra/libs/sjpg/lv_sjpg.c ****             buf[offset++] = col_8bit >> 8;
 428              		.loc 1 837 23 is_stmt 0 view .LVU157
 429 016e 481C     		adds	r0, r1, #1
 430              	.LVL48:
 837:lvgl/src/extra/libs/sjpg/lv_sjpg.c ****             buf[offset++] = col_8bit >> 8;
 431              		.loc 1 837 27 view .LVU158
ARM GAS  C:\usertemp\ccKDNimi.s 			page 25


 432 0170 6354     		strb	r3, [r4, r1]
 838:lvgl/src/extra/libs/sjpg/lv_sjpg.c **** #endif // LV_BIG_ENDIAN_SYSTEM
 433              		.loc 1 838 13 is_stmt 1 view .LVU159
 434              	.LVL49:
 838:lvgl/src/extra/libs/sjpg/lv_sjpg.c **** #endif // LV_BIG_ENDIAN_SYSTEM
 435              		.loc 1 838 27 is_stmt 0 view .LVU160
 436 0172 C3F30723 		ubfx	r3, r3, #8, #8
 437              	.LVL50:
 838:lvgl/src/extra/libs/sjpg/lv_sjpg.c **** #endif // LV_BIG_ENDIAN_SYSTEM
 438              		.loc 1 838 27 view .LVU161
 439 0176 2354     		strb	r3, [r4, r0]
 440 0178 0231     		adds	r1, r1, #2
 441              	.LVL51:
 838:lvgl/src/extra/libs/sjpg/lv_sjpg.c **** #endif // LV_BIG_ENDIAN_SYSTEM
 442              		.loc 1 838 27 view .LVU162
 443              	.LBE11:
 829:lvgl/src/extra/libs/sjpg/lv_sjpg.c ****             uint16_t col_8bit = (*cache++ & 0xf8) << 8;
 444              		.loc 1 829 34 is_stmt 1 discriminator 3 view .LVU163
 445 017a 0137     		adds	r7, r7, #1
 446              	.LVL52:
 447              	.LBB12:
 832:lvgl/src/extra/libs/sjpg/lv_sjpg.c **** #if  LV_BIG_ENDIAN_SYSTEM == 1
 448              		.loc 1 832 32 is_stmt 0 view .LVU164
 449 017c 0332     		adds	r2, r2, #3
 450              	.LVL53:
 451              	.L10:
 832:lvgl/src/extra/libs/sjpg/lv_sjpg.c **** #if  LV_BIG_ENDIAN_SYSTEM == 1
 452              		.loc 1 832 32 view .LVU165
 453              	.LBE12:
 829:lvgl/src/extra/libs/sjpg/lv_sjpg.c ****             uint16_t col_8bit = (*cache++ & 0xf8) << 8;
 454              		.loc 1 829 26 is_stmt 1 discriminator 1 view .LVU166
 455 017e BD42     		cmp	r5, r7
 456 0180 E8DC     		bgt	.L11
 829:lvgl/src/extra/libs/sjpg/lv_sjpg.c ****             uint16_t col_8bit = (*cache++ & 0xf8) << 8;
 457              		.loc 1 829 26 is_stmt 0 discriminator 1 view .LVU167
 458 0182 AAE7     		b	.L6
 459              	.LVL54:
 460              	.L12:
 829:lvgl/src/extra/libs/sjpg/lv_sjpg.c ****             uint16_t col_8bit = (*cache++ & 0xf8) << 8;
 461              		.loc 1 829 26 discriminator 1 view .LVU168
 462              	.LBE13:
 463              	.LBE9:
 464              	.LBB14:
 746:lvgl/src/extra/libs/sjpg/lv_sjpg.c ****             sjpeg->sjpeg_cache_frame_index = sjpeg_req_frame_index;
 465              		.loc 1 746 37 discriminator 1 view .LVU169
 466 0184 5E46     		mov	r6, fp
 467 0186 A8E7     		b	.L6
 468              	.LVL55:
 469              	.L14:
 746:lvgl/src/extra/libs/sjpg/lv_sjpg.c ****             sjpeg->sjpeg_cache_frame_index = sjpeg_req_frame_index;
 470              		.loc 1 746 37 discriminator 1 view .LVU170
 471              	.LBE14:
 860:lvgl/src/extra/libs/sjpg/lv_sjpg.c **** }
 472              		.loc 1 860 12 view .LVU171
 473 0188 0026     		movs	r6, #0
 474 018a A6E7     		b	.L6
 475              	.LVL56:
ARM GAS  C:\usertemp\ccKDNimi.s 			page 26


 476              	.L16:
 477              	.LBB15:
 810:lvgl/src/extra/libs/sjpg/lv_sjpg.c **** 
 478              		.loc 1 810 37 discriminator 1 view .LVU172
 479 018c 5E46     		mov	r6, fp
 480 018e A4E7     		b	.L6
 481              	.L22:
 482              		.align	2
 483              	.L21:
 484 0190 00000000 		.word	input_func
 485 0194 00000000 		.word	img_data_cb
 486 0198 00F8FFFF 		.word	-2048
 487              	.LBE15:
 488              		.cfi_endproc
 489              	.LFE201:
 491              		.section	.text.img_data_cb,"ax",%progbits
 492              		.align	1
 493              		.syntax unified
 494              		.thumb
 495              		.thumb_func
 497              	img_data_cb:
 498              	.LVL57:
 499              	.LFB198:
 283:lvgl/src/extra/libs/sjpg/lv_sjpg.c ****     io_source_t * io = jd->device;
 500              		.loc 1 283 1 is_stmt 1 view -0
 501              		.cfi_startproc
 502              		@ args = 0, pretend = 0, frame = 0
 503              		@ frame_needed = 0, uses_anonymous_args = 0
 283:lvgl/src/extra/libs/sjpg/lv_sjpg.c ****     io_source_t * io = jd->device;
 504              		.loc 1 283 1 is_stmt 0 view .LVU174
 505 0000 2DE9F843 		push	{r3, r4, r5, r6, r7, r8, r9, lr}
 506              	.LCFI4:
 507              		.cfi_def_cfa_offset 32
 508              		.cfi_offset 3, -32
 509              		.cfi_offset 4, -28
 510              		.cfi_offset 5, -24
 511              		.cfi_offset 6, -20
 512              		.cfi_offset 7, -16
 513              		.cfi_offset 8, -12
 514              		.cfi_offset 9, -8
 515              		.cfi_offset 14, -4
 516 0004 0D46     		mov	r5, r1
 517 0006 1746     		mov	r7, r2
 284:lvgl/src/extra/libs/sjpg/lv_sjpg.c ****     uint8_t * cache = io->img_cache_buff;
 518              		.loc 1 284 5 is_stmt 1 view .LVU175
 284:lvgl/src/extra/libs/sjpg/lv_sjpg.c ****     uint8_t * cache = io->img_cache_buff;
 519              		.loc 1 284 19 is_stmt 0 view .LVU176
 520 0008 436F     		ldr	r3, [r0, #116]
 521              	.LVL58:
 285:lvgl/src/extra/libs/sjpg/lv_sjpg.c ****     const int xres = io->img_cache_x_res;
 522              		.loc 1 285 5 is_stmt 1 view .LVU177
 285:lvgl/src/extra/libs/sjpg/lv_sjpg.c ****     const int xres = io->img_cache_x_res;
 523              		.loc 1 285 15 is_stmt 0 view .LVU178
 524 000a D3F81090 		ldr	r9, [r3, #16]
 525              	.LVL59:
 286:lvgl/src/extra/libs/sjpg/lv_sjpg.c ****     uint8_t * buf = data;
 526              		.loc 1 286 5 is_stmt 1 view .LVU179
ARM GAS  C:\usertemp\ccKDNimi.s 			page 27


 286:lvgl/src/extra/libs/sjpg/lv_sjpg.c ****     uint8_t * buf = data;
 527              		.loc 1 286 15 is_stmt 0 view .LVU180
 528 000e D3F81480 		ldr	r8, [r3, #20]
 529              	.LVL60:
 287:lvgl/src/extra/libs/sjpg/lv_sjpg.c ****     const int INPUT_PIXEL_SIZE = 3;
 530              		.loc 1 287 5 is_stmt 1 view .LVU181
 288:lvgl/src/extra/libs/sjpg/lv_sjpg.c ****     const int row_width = rect->right - rect->left + 1; // Row width in pixels.
 531              		.loc 1 288 5 view .LVU182
 289:lvgl/src/extra/libs/sjpg/lv_sjpg.c ****     const int row_size = row_width * INPUT_PIXEL_SIZE;  // Row size (bytes).
 532              		.loc 1 289 5 view .LVU183
 289:lvgl/src/extra/libs/sjpg/lv_sjpg.c ****     const int row_size = row_width * INPUT_PIXEL_SIZE;  // Row size (bytes).
 533              		.loc 1 289 31 is_stmt 0 view .LVU184
 534 0012 5688     		ldrh	r6, [r2, #2]
 289:lvgl/src/extra/libs/sjpg/lv_sjpg.c ****     const int row_size = row_width * INPUT_PIXEL_SIZE;  // Row size (bytes).
 535              		.loc 1 289 45 view .LVU185
 536 0014 1388     		ldrh	r3, [r2]
 537              	.LVL61:
 289:lvgl/src/extra/libs/sjpg/lv_sjpg.c ****     const int row_size = row_width * INPUT_PIXEL_SIZE;  // Row size (bytes).
 538              		.loc 1 289 39 view .LVU186
 539 0016 F61A     		subs	r6, r6, r3
 289:lvgl/src/extra/libs/sjpg/lv_sjpg.c ****     const int row_size = row_width * INPUT_PIXEL_SIZE;  // Row size (bytes).
 540              		.loc 1 289 15 view .LVU187
 541 0018 0136     		adds	r6, r6, #1
 542              	.LVL62:
 290:lvgl/src/extra/libs/sjpg/lv_sjpg.c **** 
 543              		.loc 1 290 5 is_stmt 1 view .LVU188
 290:lvgl/src/extra/libs/sjpg/lv_sjpg.c **** 
 544              		.loc 1 290 15 is_stmt 0 view .LVU189
 545 001a 06EB4606 		add	r6, r6, r6, lsl #1
 546              	.LVL63:
 292:lvgl/src/extra/libs/sjpg/lv_sjpg.c ****         int row_offset = y * xres * INPUT_PIXEL_SIZE + rect->left * INPUT_PIXEL_SIZE;
 547              		.loc 1 292 5 is_stmt 1 view .LVU190
 548              	.LBB16:
 292:lvgl/src/extra/libs/sjpg/lv_sjpg.c ****         int row_offset = y * xres * INPUT_PIXEL_SIZE + rect->left * INPUT_PIXEL_SIZE;
 549              		.loc 1 292 9 view .LVU191
 292:lvgl/src/extra/libs/sjpg/lv_sjpg.c ****         int row_offset = y * xres * INPUT_PIXEL_SIZE + rect->left * INPUT_PIXEL_SIZE;
 550              		.loc 1 292 21 is_stmt 0 view .LVU192
 551 001e 9488     		ldrh	r4, [r2, #4]
 552              	.LVL64:
 292:lvgl/src/extra/libs/sjpg/lv_sjpg.c ****         int row_offset = y * xres * INPUT_PIXEL_SIZE + rect->left * INPUT_PIXEL_SIZE;
 553              		.loc 1 292 5 view .LVU193
 554 0020 0BE0     		b	.L24
 555              	.LVL65:
 556              	.L25:
 557              	.LBB17:
 293:lvgl/src/extra/libs/sjpg/lv_sjpg.c ****         memcpy(cache + row_offset, buf, row_size);
 558              		.loc 1 293 9 is_stmt 1 view .LVU194
 293:lvgl/src/extra/libs/sjpg/lv_sjpg.c ****         memcpy(cache + row_offset, buf, row_size);
 559              		.loc 1 293 60 is_stmt 0 view .LVU195
 560 0022 3888     		ldrh	r0, [r7]
 293:lvgl/src/extra/libs/sjpg/lv_sjpg.c ****         memcpy(cache + row_offset, buf, row_size);
 561              		.loc 1 293 54 view .LVU196
 562 0024 08FB0400 		mla	r0, r8, r4, r0
 293:lvgl/src/extra/libs/sjpg/lv_sjpg.c ****         memcpy(cache + row_offset, buf, row_size);
 563              		.loc 1 293 13 view .LVU197
 564 0028 00EB4000 		add	r0, r0, r0, lsl #1
 565              	.LVL66:
ARM GAS  C:\usertemp\ccKDNimi.s 			page 28


 294:lvgl/src/extra/libs/sjpg/lv_sjpg.c ****         buf += row_size;
 566              		.loc 1 294 9 is_stmt 1 view .LVU198
 567 002c 3246     		mov	r2, r6
 568 002e 2946     		mov	r1, r5
 569 0030 4844     		add	r0, r0, r9
 570              	.LVL67:
 294:lvgl/src/extra/libs/sjpg/lv_sjpg.c ****         buf += row_size;
 571              		.loc 1 294 9 is_stmt 0 view .LVU199
 572 0032 FFF7FEFF 		bl	memcpy
 573              	.LVL68:
 295:lvgl/src/extra/libs/sjpg/lv_sjpg.c ****     }
 574              		.loc 1 295 9 is_stmt 1 view .LVU200
 295:lvgl/src/extra/libs/sjpg/lv_sjpg.c ****     }
 575              		.loc 1 295 13 is_stmt 0 view .LVU201
 576 0036 3544     		add	r5, r5, r6
 577              	.LVL69:
 295:lvgl/src/extra/libs/sjpg/lv_sjpg.c ****     }
 578              		.loc 1 295 13 view .LVU202
 579              	.LBE17:
 292:lvgl/src/extra/libs/sjpg/lv_sjpg.c ****         int row_offset = y * xres * INPUT_PIXEL_SIZE + rect->left * INPUT_PIXEL_SIZE;
 580              		.loc 1 292 48 is_stmt 1 discriminator 3 view .LVU203
 581 0038 0134     		adds	r4, r4, #1
 582              	.LVL70:
 583              	.L24:
 292:lvgl/src/extra/libs/sjpg/lv_sjpg.c ****         int row_offset = y * xres * INPUT_PIXEL_SIZE + rect->left * INPUT_PIXEL_SIZE;
 584              		.loc 1 292 30 discriminator 1 view .LVU204
 292:lvgl/src/extra/libs/sjpg/lv_sjpg.c ****         int row_offset = y * xres * INPUT_PIXEL_SIZE + rect->left * INPUT_PIXEL_SIZE;
 585              		.loc 1 292 37 is_stmt 0 discriminator 1 view .LVU205
 586 003a FB88     		ldrh	r3, [r7, #6]
 292:lvgl/src/extra/libs/sjpg/lv_sjpg.c ****         int row_offset = y * xres * INPUT_PIXEL_SIZE + rect->left * INPUT_PIXEL_SIZE;
 587              		.loc 1 292 30 discriminator 1 view .LVU206
 588 003c A342     		cmp	r3, r4
 589 003e F0DA     		bge	.L25
 292:lvgl/src/extra/libs/sjpg/lv_sjpg.c ****         int row_offset = y * xres * INPUT_PIXEL_SIZE + rect->left * INPUT_PIXEL_SIZE;
 590              		.loc 1 292 30 discriminator 1 view .LVU207
 591              	.LBE16:
 298:lvgl/src/extra/libs/sjpg/lv_sjpg.c **** }
 592              		.loc 1 298 5 is_stmt 1 view .LVU208
 299:lvgl/src/extra/libs/sjpg/lv_sjpg.c **** 
 593              		.loc 1 299 1 is_stmt 0 view .LVU209
 594 0040 0120     		movs	r0, #1
 595 0042 BDE8F883 		pop	{r3, r4, r5, r6, r7, r8, r9, pc}
 299:lvgl/src/extra/libs/sjpg/lv_sjpg.c **** 
 596              		.loc 1 299 1 view .LVU210
 597              		.cfi_endproc
 598              	.LFE198:
 600              		.section	.text.input_func,"ax",%progbits
 601              		.align	1
 602              		.syntax unified
 603              		.thumb
 604              		.thumb_func
 606              	input_func:
 607              	.LVL71:
 608              	.LFB199:
 302:lvgl/src/extra/libs/sjpg/lv_sjpg.c ****     io_source_t * io = jd->device;
 609              		.loc 1 302 1 is_stmt 1 view -0
 610              		.cfi_startproc
ARM GAS  C:\usertemp\ccKDNimi.s 			page 29


 611              		@ args = 0, pretend = 0, frame = 8
 612              		@ frame_needed = 0, uses_anonymous_args = 0
 302:lvgl/src/extra/libs/sjpg/lv_sjpg.c ****     io_source_t * io = jd->device;
 613              		.loc 1 302 1 is_stmt 0 view .LVU212
 614 0000 70B5     		push	{r4, r5, r6, lr}
 615              	.LCFI5:
 616              		.cfi_def_cfa_offset 16
 617              		.cfi_offset 4, -16
 618              		.cfi_offset 5, -12
 619              		.cfi_offset 6, -8
 620              		.cfi_offset 14, -4
 621 0002 82B0     		sub	sp, sp, #8
 622              	.LCFI6:
 623              		.cfi_def_cfa_offset 24
 303:lvgl/src/extra/libs/sjpg/lv_sjpg.c **** 
 624              		.loc 1 303 5 is_stmt 1 view .LVU213
 303:lvgl/src/extra/libs/sjpg/lv_sjpg.c **** 
 625              		.loc 1 303 19 is_stmt 0 view .LVU214
 626 0004 446F     		ldr	r4, [r0, #116]
 627              	.LVL72:
 305:lvgl/src/extra/libs/sjpg/lv_sjpg.c **** 
 628              		.loc 1 305 5 is_stmt 1 view .LVU215
 305:lvgl/src/extra/libs/sjpg/lv_sjpg.c **** 
 629              		.loc 1 305 7 is_stmt 0 view .LVU216
 630 0006 84B3     		cbz	r4, .L32
 631 0008 0E46     		mov	r6, r1
 632 000a 1546     		mov	r5, r2
 307:lvgl/src/extra/libs/sjpg/lv_sjpg.c ****         const uint32_t bytes_left = io->raw_sjpg_data_size - io->raw_sjpg_data_next_read_pos;
 633              		.loc 1 307 5 is_stmt 1 view .LVU217
 307:lvgl/src/extra/libs/sjpg/lv_sjpg.c ****         const uint32_t bytes_left = io->raw_sjpg_data_size - io->raw_sjpg_data_next_read_pos;
 634              		.loc 1 307 10 is_stmt 0 view .LVU218
 635 000c 2378     		ldrb	r3, [r4]	@ zero_extendqisi2
 307:lvgl/src/extra/libs/sjpg/lv_sjpg.c ****         const uint32_t bytes_left = io->raw_sjpg_data_size - io->raw_sjpg_data_next_read_pos;
 636              		.loc 1 307 7 view .LVU219
 637 000e 8BB9     		cbnz	r3, .L29
 638              	.LBB18:
 308:lvgl/src/extra/libs/sjpg/lv_sjpg.c ****         const uint32_t to_read = ndata <= bytes_left ? (uint32_t)ndata : bytes_left;
 639              		.loc 1 308 9 is_stmt 1 view .LVU220
 308:lvgl/src/extra/libs/sjpg/lv_sjpg.c ****         const uint32_t to_read = ndata <= bytes_left ? (uint32_t)ndata : bytes_left;
 640              		.loc 1 308 39 is_stmt 0 view .LVU221
 641 0010 236A     		ldr	r3, [r4, #32]
 308:lvgl/src/extra/libs/sjpg/lv_sjpg.c ****         const uint32_t to_read = ndata <= bytes_left ? (uint32_t)ndata : bytes_left;
 642              		.loc 1 308 64 view .LVU222
 643 0012 616A     		ldr	r1, [r4, #36]
 644              	.LVL73:
 308:lvgl/src/extra/libs/sjpg/lv_sjpg.c ****         const uint32_t to_read = ndata <= bytes_left ? (uint32_t)ndata : bytes_left;
 645              		.loc 1 308 24 view .LVU223
 646 0014 5B1A     		subs	r3, r3, r1
 647              	.LVL74:
 309:lvgl/src/extra/libs/sjpg/lv_sjpg.c ****         if(to_read == 0)
 648              		.loc 1 309 9 is_stmt 1 view .LVU224
 309:lvgl/src/extra/libs/sjpg/lv_sjpg.c ****         if(to_read == 0)
 649              		.loc 1 309 24 is_stmt 0 view .LVU225
 650 0016 9A42     		cmp	r2, r3
 651 0018 28BF     		it	cs
 652 001a 1D46     		movcs	r5, r3
 653              	.LVL75:
ARM GAS  C:\usertemp\ccKDNimi.s 			page 30


 310:lvgl/src/extra/libs/sjpg/lv_sjpg.c ****             return 0;
 654              		.loc 1 310 9 is_stmt 1 view .LVU226
 310:lvgl/src/extra/libs/sjpg/lv_sjpg.c ****             return 0;
 655              		.loc 1 310 11 is_stmt 0 view .LVU227
 656 001c 6DB1     		cbz	r5, .L27
 312:lvgl/src/extra/libs/sjpg/lv_sjpg.c ****             memcpy(buff, io->raw_sjpg_data + io->raw_sjpg_data_next_read_pos, to_read);
 657              		.loc 1 312 9 is_stmt 1 view .LVU228
 312:lvgl/src/extra/libs/sjpg/lv_sjpg.c ****             memcpy(buff, io->raw_sjpg_data + io->raw_sjpg_data_next_read_pos, to_read);
 658              		.loc 1 312 11 is_stmt 0 view .LVU229
 659 001e 2EB1     		cbz	r6, .L30
 313:lvgl/src/extra/libs/sjpg/lv_sjpg.c ****         }
 660              		.loc 1 313 13 is_stmt 1 view .LVU230
 313:lvgl/src/extra/libs/sjpg/lv_sjpg.c ****         }
 661              		.loc 1 313 28 is_stmt 0 view .LVU231
 662 0020 E369     		ldr	r3, [r4, #28]
 663              	.LVL76:
 313:lvgl/src/extra/libs/sjpg/lv_sjpg.c ****         }
 664              		.loc 1 313 13 view .LVU232
 665 0022 2A46     		mov	r2, r5
 666              	.LVL77:
 313:lvgl/src/extra/libs/sjpg/lv_sjpg.c ****         }
 667              		.loc 1 313 13 view .LVU233
 668 0024 1944     		add	r1, r1, r3
 669              	.LVL78:
 313:lvgl/src/extra/libs/sjpg/lv_sjpg.c ****         }
 670              		.loc 1 313 13 view .LVU234
 671 0026 3046     		mov	r0, r6
 672              	.LVL79:
 313:lvgl/src/extra/libs/sjpg/lv_sjpg.c ****         }
 673              		.loc 1 313 13 view .LVU235
 674 0028 FFF7FEFF 		bl	memcpy
 675              	.LVL80:
 676              	.L30:
 315:lvgl/src/extra/libs/sjpg/lv_sjpg.c ****         return to_read;
 677              		.loc 1 315 9 is_stmt 1 view .LVU236
 315:lvgl/src/extra/libs/sjpg/lv_sjpg.c ****         return to_read;
 678              		.loc 1 315 11 is_stmt 0 view .LVU237
 679 002c 636A     		ldr	r3, [r4, #36]
 315:lvgl/src/extra/libs/sjpg/lv_sjpg.c ****         return to_read;
 680              		.loc 1 315 41 view .LVU238
 681 002e 2B44     		add	r3, r3, r5
 682 0030 6362     		str	r3, [r4, #36]
 316:lvgl/src/extra/libs/sjpg/lv_sjpg.c ****     }
 683              		.loc 1 316 9 is_stmt 1 view .LVU239
 316:lvgl/src/extra/libs/sjpg/lv_sjpg.c ****     }
 684              		.loc 1 316 16 is_stmt 0 view .LVU240
 685 0032 02E0     		b	.L27
 686              	.LVL81:
 687              	.L29:
 316:lvgl/src/extra/libs/sjpg/lv_sjpg.c ****     }
 688              		.loc 1 316 16 view .LVU241
 689              	.LBE18:
 318:lvgl/src/extra/libs/sjpg/lv_sjpg.c **** 
 690              		.loc 1 318 10 is_stmt 1 view .LVU242
 318:lvgl/src/extra/libs/sjpg/lv_sjpg.c **** 
 691              		.loc 1 318 12 is_stmt 0 view .LVU243
 692 0034 012B     		cmp	r3, #1
ARM GAS  C:\usertemp\ccKDNimi.s 			page 31


 693 0036 03D0     		beq	.L35
 334:lvgl/src/extra/libs/sjpg/lv_sjpg.c **** }
 694              		.loc 1 334 12 view .LVU244
 695 0038 0025     		movs	r5, #0
 696              	.LVL82:
 697              	.L27:
 335:lvgl/src/extra/libs/sjpg/lv_sjpg.c **** 
 698              		.loc 1 335 1 view .LVU245
 699 003a 2846     		mov	r0, r5
 700 003c 02B0     		add	sp, sp, #8
 701              	.LCFI7:
 702              		.cfi_remember_state
 703              		.cfi_def_cfa_offset 16
 704              		@ sp needed
 705 003e 70BD     		pop	{r4, r5, r6, pc}
 706              	.LVL83:
 707              	.L35:
 708              	.LCFI8:
 709              		.cfi_restore_state
 710              	.LBB19:
 320:lvgl/src/extra/libs/sjpg/lv_sjpg.c **** 
 711              		.loc 1 320 9 is_stmt 1 view .LVU246
 320:lvgl/src/extra/libs/sjpg/lv_sjpg.c **** 
 712              		.loc 1 320 24 is_stmt 0 view .LVU247
 713 0040 0434     		adds	r4, r4, #4
 714              	.LVL84:
 322:lvgl/src/extra/libs/sjpg/lv_sjpg.c ****             uint32_t rn = 0;
 715              		.loc 1 322 9 is_stmt 1 view .LVU248
 322:lvgl/src/extra/libs/sjpg/lv_sjpg.c ****             uint32_t rn = 0;
 716              		.loc 1 322 11 is_stmt 0 view .LVU249
 717 0042 39B1     		cbz	r1, .L31
 718              	.LBB20:
 323:lvgl/src/extra/libs/sjpg/lv_sjpg.c ****             lv_fs_read(lv_file_p, buff, (uint32_t)ndata, &rn);
 719              		.loc 1 323 13 is_stmt 1 view .LVU250
 323:lvgl/src/extra/libs/sjpg/lv_sjpg.c ****             lv_fs_read(lv_file_p, buff, (uint32_t)ndata, &rn);
 720              		.loc 1 323 22 is_stmt 0 view .LVU251
 721 0044 0023     		movs	r3, #0
 722 0046 0193     		str	r3, [sp, #4]
 723              	.LVL85:
 324:lvgl/src/extra/libs/sjpg/lv_sjpg.c ****             return rn;
 724              		.loc 1 324 13 is_stmt 1 view .LVU252
 725 0048 01AB     		add	r3, sp, #4
 726 004a 2046     		mov	r0, r4
 727              	.LVL86:
 324:lvgl/src/extra/libs/sjpg/lv_sjpg.c ****             return rn;
 728              		.loc 1 324 13 is_stmt 0 view .LVU253
 729 004c FFF7FEFF 		bl	lv_fs_read
 730              	.LVL87:
 325:lvgl/src/extra/libs/sjpg/lv_sjpg.c ****         }
 731              		.loc 1 325 13 is_stmt 1 view .LVU254
 325:lvgl/src/extra/libs/sjpg/lv_sjpg.c ****         }
 732              		.loc 1 325 20 is_stmt 0 view .LVU255
 733 0050 019D     		ldr	r5, [sp, #4]
 734              	.LVL88:
 325:lvgl/src/extra/libs/sjpg/lv_sjpg.c ****         }
 735              		.loc 1 325 20 view .LVU256
 736 0052 F2E7     		b	.L27
ARM GAS  C:\usertemp\ccKDNimi.s 			page 32


 737              	.LVL89:
 738              	.L31:
 325:lvgl/src/extra/libs/sjpg/lv_sjpg.c ****         }
 739              		.loc 1 325 20 view .LVU257
 740              	.LBE20:
 741              	.LBB21:
 328:lvgl/src/extra/libs/sjpg/lv_sjpg.c ****             lv_fs_tell(lv_file_p, &pos);
 742              		.loc 1 328 13 is_stmt 1 view .LVU258
 329:lvgl/src/extra/libs/sjpg/lv_sjpg.c ****             lv_fs_seek(lv_file_p, (uint32_t)(ndata + pos),  LV_FS_SEEK_SET);
 743              		.loc 1 329 13 view .LVU259
 744 0054 01A9     		add	r1, sp, #4
 745              	.LVL90:
 329:lvgl/src/extra/libs/sjpg/lv_sjpg.c ****             lv_fs_seek(lv_file_p, (uint32_t)(ndata + pos),  LV_FS_SEEK_SET);
 746              		.loc 1 329 13 is_stmt 0 view .LVU260
 747 0056 2046     		mov	r0, r4
 748              	.LVL91:
 329:lvgl/src/extra/libs/sjpg/lv_sjpg.c ****             lv_fs_seek(lv_file_p, (uint32_t)(ndata + pos),  LV_FS_SEEK_SET);
 749              		.loc 1 329 13 view .LVU261
 750 0058 FFF7FEFF 		bl	lv_fs_tell
 751              	.LVL92:
 330:lvgl/src/extra/libs/sjpg/lv_sjpg.c ****             return ndata;
 752              		.loc 1 330 13 is_stmt 1 view .LVU262
 753 005c 0022     		movs	r2, #0
 754 005e 0199     		ldr	r1, [sp, #4]
 755 0060 2944     		add	r1, r1, r5
 756 0062 2046     		mov	r0, r4
 757 0064 FFF7FEFF 		bl	lv_fs_seek
 758              	.LVL93:
 331:lvgl/src/extra/libs/sjpg/lv_sjpg.c ****         }
 759              		.loc 1 331 13 view .LVU263
 760 0068 E7E7     		b	.L27
 761              	.LVL94:
 762              	.L32:
 331:lvgl/src/extra/libs/sjpg/lv_sjpg.c ****         }
 763              		.loc 1 331 13 is_stmt 0 view .LVU264
 764              	.LBE21:
 765              	.LBE19:
 305:lvgl/src/extra/libs/sjpg/lv_sjpg.c **** 
 766              		.loc 1 305 20 discriminator 1 view .LVU265
 767 006a 0025     		movs	r5, #0
 768 006c E5E7     		b	.L27
 769              		.cfi_endproc
 770              	.LFE199:
 772              		.section	.text.lv_sjpg_free,"ax",%progbits
 773              		.align	1
 774              		.syntax unified
 775              		.thumb
 776              		.thumb_func
 778              	lv_sjpg_free:
 779              	.LVL95:
 780              	.LFB204:
 862:lvgl/src/extra/libs/sjpg/lv_sjpg.c **** 
 863:lvgl/src/extra/libs/sjpg/lv_sjpg.c **** /**
 864:lvgl/src/extra/libs/sjpg/lv_sjpg.c ****  * Free the allocated resources
 865:lvgl/src/extra/libs/sjpg/lv_sjpg.c ****  * @param decoder pointer to the decoder where this function belongs
 866:lvgl/src/extra/libs/sjpg/lv_sjpg.c ****  * @param dsc pointer to a descriptor which describes this decoding session
 867:lvgl/src/extra/libs/sjpg/lv_sjpg.c ****  */
ARM GAS  C:\usertemp\ccKDNimi.s 			page 33


 868:lvgl/src/extra/libs/sjpg/lv_sjpg.c **** static void decoder_close(lv_img_decoder_t * decoder, lv_img_decoder_dsc_t * dsc)
 869:lvgl/src/extra/libs/sjpg/lv_sjpg.c **** {
 870:lvgl/src/extra/libs/sjpg/lv_sjpg.c ****     LV_UNUSED(decoder);
 871:lvgl/src/extra/libs/sjpg/lv_sjpg.c ****     /*Free all allocated data*/
 872:lvgl/src/extra/libs/sjpg/lv_sjpg.c ****     SJPEG * sjpeg = (SJPEG *) dsc->user_data;
 873:lvgl/src/extra/libs/sjpg/lv_sjpg.c ****     if(!sjpeg) return;
 874:lvgl/src/extra/libs/sjpg/lv_sjpg.c **** 
 875:lvgl/src/extra/libs/sjpg/lv_sjpg.c ****     switch(dsc->src_type) {
 876:lvgl/src/extra/libs/sjpg/lv_sjpg.c ****         case LV_IMG_SRC_FILE:
 877:lvgl/src/extra/libs/sjpg/lv_sjpg.c ****             if(sjpeg->io.lv_file.file_d) {
 878:lvgl/src/extra/libs/sjpg/lv_sjpg.c ****                 lv_fs_close(&(sjpeg->io.lv_file));
 879:lvgl/src/extra/libs/sjpg/lv_sjpg.c ****             }
 880:lvgl/src/extra/libs/sjpg/lv_sjpg.c ****             lv_sjpg_cleanup(sjpeg);
 881:lvgl/src/extra/libs/sjpg/lv_sjpg.c ****             break;
 882:lvgl/src/extra/libs/sjpg/lv_sjpg.c **** 
 883:lvgl/src/extra/libs/sjpg/lv_sjpg.c ****         case LV_IMG_SRC_VARIABLE:
 884:lvgl/src/extra/libs/sjpg/lv_sjpg.c ****             lv_sjpg_cleanup(sjpeg);
 885:lvgl/src/extra/libs/sjpg/lv_sjpg.c ****             break;
 886:lvgl/src/extra/libs/sjpg/lv_sjpg.c **** 
 887:lvgl/src/extra/libs/sjpg/lv_sjpg.c ****         default:
 888:lvgl/src/extra/libs/sjpg/lv_sjpg.c ****             ;
 889:lvgl/src/extra/libs/sjpg/lv_sjpg.c ****     }
 890:lvgl/src/extra/libs/sjpg/lv_sjpg.c **** }
 891:lvgl/src/extra/libs/sjpg/lv_sjpg.c **** 
 892:lvgl/src/extra/libs/sjpg/lv_sjpg.c **** static int is_jpg(const uint8_t * raw_data)
 893:lvgl/src/extra/libs/sjpg/lv_sjpg.c **** {
 894:lvgl/src/extra/libs/sjpg/lv_sjpg.c ****     const uint8_t jpg_signature[] = {0xFF, 0xD8, 0xFF,  0xE0,  0x00,  0x10, 0x4A,  0x46, 0x49, 0x46
 895:lvgl/src/extra/libs/sjpg/lv_sjpg.c ****     return memcmp(jpg_signature, raw_data, sizeof(jpg_signature)) == 0;
 896:lvgl/src/extra/libs/sjpg/lv_sjpg.c **** }
 897:lvgl/src/extra/libs/sjpg/lv_sjpg.c **** 
 898:lvgl/src/extra/libs/sjpg/lv_sjpg.c **** static void lv_sjpg_free(SJPEG * sjpeg)
 899:lvgl/src/extra/libs/sjpg/lv_sjpg.c **** {
 781              		.loc 1 899 1 is_stmt 1 view -0
 782              		.cfi_startproc
 783              		@ args = 0, pretend = 0, frame = 0
 784              		@ frame_needed = 0, uses_anonymous_args = 0
 785              		.loc 1 899 1 is_stmt 0 view .LVU267
 786 0000 10B5     		push	{r4, lr}
 787              	.LCFI9:
 788              		.cfi_def_cfa_offset 8
 789              		.cfi_offset 4, -8
 790              		.cfi_offset 14, -4
 791 0002 0446     		mov	r4, r0
 900:lvgl/src/extra/libs/sjpg/lv_sjpg.c ****     if(sjpeg->frame_cache) lv_mem_free(sjpeg->frame_cache);
 792              		.loc 1 900 5 is_stmt 1 view .LVU268
 793              		.loc 1 900 13 is_stmt 0 view .LVU269
 794 0004 406A     		ldr	r0, [r0, #36]
 795              	.LVL96:
 796              		.loc 1 900 7 view .LVU270
 797 0006 08B1     		cbz	r0, .L37
 798              		.loc 1 900 28 is_stmt 1 discriminator 1 view .LVU271
 799 0008 FFF7FEFF 		bl	lv_mem_free
 800              	.LVL97:
 801              	.L37:
 901:lvgl/src/extra/libs/sjpg/lv_sjpg.c ****     if(sjpeg->frame_base_array) lv_mem_free(sjpeg->frame_base_array);
 802              		.loc 1 901 5 view .LVU272
 803              		.loc 1 901 13 is_stmt 0 view .LVU273
ARM GAS  C:\usertemp\ccKDNimi.s 			page 34


 804 000c E069     		ldr	r0, [r4, #28]
 805              		.loc 1 901 7 view .LVU274
 806 000e 08B1     		cbz	r0, .L38
 807              		.loc 1 901 33 is_stmt 1 discriminator 1 view .LVU275
 808 0010 FFF7FEFF 		bl	lv_mem_free
 809              	.LVL98:
 810              	.L38:
 902:lvgl/src/extra/libs/sjpg/lv_sjpg.c ****     if(sjpeg->frame_base_offset) lv_mem_free(sjpeg->frame_base_offset);
 811              		.loc 1 902 5 view .LVU276
 812              		.loc 1 902 13 is_stmt 0 view .LVU277
 813 0014 206A     		ldr	r0, [r4, #32]
 814              		.loc 1 902 7 view .LVU278
 815 0016 08B1     		cbz	r0, .L39
 816              		.loc 1 902 34 is_stmt 1 discriminator 1 view .LVU279
 817 0018 FFF7FEFF 		bl	lv_mem_free
 818              	.LVL99:
 819              	.L39:
 903:lvgl/src/extra/libs/sjpg/lv_sjpg.c ****     if(sjpeg->tjpeg_jd) lv_mem_free(sjpeg->tjpeg_jd);
 820              		.loc 1 903 5 view .LVU280
 821              		.loc 1 903 13 is_stmt 0 view .LVU281
 822 001c E06A     		ldr	r0, [r4, #44]
 823              		.loc 1 903 7 view .LVU282
 824 001e 08B1     		cbz	r0, .L40
 825              		.loc 1 903 25 is_stmt 1 discriminator 1 view .LVU283
 826 0020 FFF7FEFF 		bl	lv_mem_free
 827              	.LVL100:
 828              	.L40:
 904:lvgl/src/extra/libs/sjpg/lv_sjpg.c ****     if(sjpeg->workb) lv_mem_free(sjpeg->workb);
 829              		.loc 1 904 5 view .LVU284
 830              		.loc 1 904 13 is_stmt 0 view .LVU285
 831 0024 A06A     		ldr	r0, [r4, #40]
 832              		.loc 1 904 7 view .LVU286
 833 0026 08B1     		cbz	r0, .L36
 834              		.loc 1 904 22 is_stmt 1 discriminator 1 view .LVU287
 835 0028 FFF7FEFF 		bl	lv_mem_free
 836              	.LVL101:
 837              	.L36:
 905:lvgl/src/extra/libs/sjpg/lv_sjpg.c **** }
 838              		.loc 1 905 1 is_stmt 0 view .LVU288
 839 002c 10BD     		pop	{r4, pc}
 840              		.loc 1 905 1 view .LVU289
 841              		.cfi_endproc
 842              	.LFE204:
 844              		.section	.text.lv_sjpg_cleanup,"ax",%progbits
 845              		.align	1
 846              		.syntax unified
 847              		.thumb
 848              		.thumb_func
 850              	lv_sjpg_cleanup:
 851              	.LVL102:
 852              	.LFB205:
 906:lvgl/src/extra/libs/sjpg/lv_sjpg.c **** 
 907:lvgl/src/extra/libs/sjpg/lv_sjpg.c **** static void lv_sjpg_cleanup(SJPEG * sjpeg)
 908:lvgl/src/extra/libs/sjpg/lv_sjpg.c **** {
 853              		.loc 1 908 1 is_stmt 1 view -0
 854              		.cfi_startproc
 855              		@ args = 0, pretend = 0, frame = 0
ARM GAS  C:\usertemp\ccKDNimi.s 			page 35


 856              		@ frame_needed = 0, uses_anonymous_args = 0
 909:lvgl/src/extra/libs/sjpg/lv_sjpg.c ****     if(! sjpeg) return;
 857              		.loc 1 909 5 view .LVU291
 858              		.loc 1 909 7 is_stmt 0 view .LVU292
 859 0000 38B1     		cbz	r0, .L46
 908:lvgl/src/extra/libs/sjpg/lv_sjpg.c ****     if(! sjpeg) return;
 860              		.loc 1 908 1 view .LVU293
 861 0002 10B5     		push	{r4, lr}
 862              	.LCFI10:
 863              		.cfi_def_cfa_offset 8
 864              		.cfi_offset 4, -8
 865              		.cfi_offset 14, -4
 866 0004 0446     		mov	r4, r0
 910:lvgl/src/extra/libs/sjpg/lv_sjpg.c **** 
 911:lvgl/src/extra/libs/sjpg/lv_sjpg.c ****     lv_sjpg_free(sjpeg);
 867              		.loc 1 911 5 is_stmt 1 view .LVU294
 868 0006 FFF7FEFF 		bl	lv_sjpg_free
 869              	.LVL103:
 912:lvgl/src/extra/libs/sjpg/lv_sjpg.c ****     lv_mem_free(sjpeg);
 870              		.loc 1 912 5 view .LVU295
 871 000a 2046     		mov	r0, r4
 872 000c FFF7FEFF 		bl	lv_mem_free
 873              	.LVL104:
 913:lvgl/src/extra/libs/sjpg/lv_sjpg.c **** }
 874              		.loc 1 913 1 is_stmt 0 view .LVU296
 875 0010 10BD     		pop	{r4, pc}
 876              	.LVL105:
 877              	.L46:
 878              	.LCFI11:
 879              		.cfi_def_cfa_offset 0
 880              		.cfi_restore 4
 881              		.cfi_restore 14
 882              		.loc 1 913 1 view .LVU297
 883 0012 7047     		bx	lr
 884              		.cfi_endproc
 885              	.LFE205:
 887              		.section	.text.decoder_close,"ax",%progbits
 888              		.align	1
 889              		.syntax unified
 890              		.thumb
 891              		.thumb_func
 893              	decoder_close:
 894              	.LVL106:
 895              	.LFB202:
 869:lvgl/src/extra/libs/sjpg/lv_sjpg.c ****     LV_UNUSED(decoder);
 896              		.loc 1 869 1 is_stmt 1 view -0
 897              		.cfi_startproc
 898              		@ args = 0, pretend = 0, frame = 0
 899              		@ frame_needed = 0, uses_anonymous_args = 0
 869:lvgl/src/extra/libs/sjpg/lv_sjpg.c ****     LV_UNUSED(decoder);
 900              		.loc 1 869 1 is_stmt 0 view .LVU299
 901 0000 10B5     		push	{r4, lr}
 902              	.LCFI12:
 903              		.cfi_def_cfa_offset 8
 904              		.cfi_offset 4, -8
 905              		.cfi_offset 14, -4
 870:lvgl/src/extra/libs/sjpg/lv_sjpg.c ****     /*Free all allocated data*/
ARM GAS  C:\usertemp\ccKDNimi.s 			page 36


 906              		.loc 1 870 5 is_stmt 1 view .LVU300
 872:lvgl/src/extra/libs/sjpg/lv_sjpg.c ****     if(!sjpeg) return;
 907              		.loc 1 872 5 view .LVU301
 872:lvgl/src/extra/libs/sjpg/lv_sjpg.c ****     if(!sjpeg) return;
 908              		.loc 1 872 13 is_stmt 0 view .LVU302
 909 0002 4C6A     		ldr	r4, [r1, #36]
 910              	.LVL107:
 873:lvgl/src/extra/libs/sjpg/lv_sjpg.c **** 
 911              		.loc 1 873 5 is_stmt 1 view .LVU303
 873:lvgl/src/extra/libs/sjpg/lv_sjpg.c **** 
 912              		.loc 1 873 7 is_stmt 0 view .LVU304
 913 0004 64B1     		cbz	r4, .L49
 875:lvgl/src/extra/libs/sjpg/lv_sjpg.c ****         case LV_IMG_SRC_FILE:
 914              		.loc 1 875 5 is_stmt 1 view .LVU305
 875:lvgl/src/extra/libs/sjpg/lv_sjpg.c ****         case LV_IMG_SRC_FILE:
 915              		.loc 1 875 15 is_stmt 0 view .LVU306
 916 0006 0B7C     		ldrb	r3, [r1, #16]	@ zero_extendqisi2
 875:lvgl/src/extra/libs/sjpg/lv_sjpg.c ****         case LV_IMG_SRC_FILE:
 917              		.loc 1 875 5 view .LVU307
 918 0008 5BB1     		cbz	r3, .L51
 919 000a 012B     		cmp	r3, #1
 920 000c 08D1     		bne	.L49
 877:lvgl/src/extra/libs/sjpg/lv_sjpg.c ****                 lv_fs_close(&(sjpeg->io.lv_file));
 921              		.loc 1 877 13 is_stmt 1 view .LVU308
 877:lvgl/src/extra/libs/sjpg/lv_sjpg.c ****                 lv_fs_close(&(sjpeg->io.lv_file));
 922              		.loc 1 877 33 is_stmt 0 view .LVU309
 923 000e 636B     		ldr	r3, [r4, #52]
 877:lvgl/src/extra/libs/sjpg/lv_sjpg.c ****                 lv_fs_close(&(sjpeg->io.lv_file));
 924              		.loc 1 877 15 view .LVU310
 925 0010 1BB1     		cbz	r3, .L52
 878:lvgl/src/extra/libs/sjpg/lv_sjpg.c ****             }
 926              		.loc 1 878 17 is_stmt 1 view .LVU311
 927 0012 04F13400 		add	r0, r4, #52
 928              	.LVL108:
 878:lvgl/src/extra/libs/sjpg/lv_sjpg.c ****             }
 929              		.loc 1 878 17 is_stmt 0 view .LVU312
 930 0016 FFF7FEFF 		bl	lv_fs_close
 931              	.LVL109:
 932              	.L52:
 880:lvgl/src/extra/libs/sjpg/lv_sjpg.c ****             break;
 933              		.loc 1 880 13 is_stmt 1 view .LVU313
 934 001a 2046     		mov	r0, r4
 935 001c FFF7FEFF 		bl	lv_sjpg_cleanup
 936              	.LVL110:
 881:lvgl/src/extra/libs/sjpg/lv_sjpg.c **** 
 937              		.loc 1 881 13 view .LVU314
 938              	.L49:
 890:lvgl/src/extra/libs/sjpg/lv_sjpg.c **** 
 939              		.loc 1 890 1 is_stmt 0 view .LVU315
 940 0020 10BD     		pop	{r4, pc}
 941              	.LVL111:
 942              	.L51:
 884:lvgl/src/extra/libs/sjpg/lv_sjpg.c ****             break;
 943              		.loc 1 884 13 is_stmt 1 view .LVU316
 944 0022 2046     		mov	r0, r4
 945              	.LVL112:
 884:lvgl/src/extra/libs/sjpg/lv_sjpg.c ****             break;
ARM GAS  C:\usertemp\ccKDNimi.s 			page 37


 946              		.loc 1 884 13 is_stmt 0 view .LVU317
 947 0024 FFF7FEFF 		bl	lv_sjpg_cleanup
 948              	.LVL113:
 885:lvgl/src/extra/libs/sjpg/lv_sjpg.c **** 
 949              		.loc 1 885 13 is_stmt 1 view .LVU318
 888:lvgl/src/extra/libs/sjpg/lv_sjpg.c ****     }
 950              		.loc 1 888 13 view .LVU319
 885:lvgl/src/extra/libs/sjpg/lv_sjpg.c **** 
 951              		.loc 1 885 13 is_stmt 0 view .LVU320
 952 0028 FAE7     		b	.L49
 953              		.cfi_endproc
 954              	.LFE202:
 956              		.section	.text.is_jpg,"ax",%progbits
 957              		.align	1
 958              		.syntax unified
 959              		.thumb
 960              		.thumb_func
 962              	is_jpg:
 963              	.LVL114:
 964              	.LFB203:
 893:lvgl/src/extra/libs/sjpg/lv_sjpg.c ****     const uint8_t jpg_signature[] = {0xFF, 0xD8, 0xFF,  0xE0,  0x00,  0x10, 0x4A,  0x46, 0x49, 0x46
 965              		.loc 1 893 1 is_stmt 1 view -0
 966              		.cfi_startproc
 967              		@ args = 0, pretend = 0, frame = 16
 968              		@ frame_needed = 0, uses_anonymous_args = 0
 893:lvgl/src/extra/libs/sjpg/lv_sjpg.c ****     const uint8_t jpg_signature[] = {0xFF, 0xD8, 0xFF,  0xE0,  0x00,  0x10, 0x4A,  0x46, 0x49, 0x46
 969              		.loc 1 893 1 is_stmt 0 view .LVU322
 970 0000 00B5     		push	{lr}
 971              	.LCFI13:
 972              		.cfi_def_cfa_offset 4
 973              		.cfi_offset 14, -4
 974 0002 85B0     		sub	sp, sp, #20
 975              	.LCFI14:
 976              		.cfi_def_cfa_offset 24
 977 0004 8446     		mov	ip, r0
 894:lvgl/src/extra/libs/sjpg/lv_sjpg.c ****     return memcmp(jpg_signature, raw_data, sizeof(jpg_signature)) == 0;
 978              		.loc 1 894 5 is_stmt 1 view .LVU323
 894:lvgl/src/extra/libs/sjpg/lv_sjpg.c ****     return memcmp(jpg_signature, raw_data, sizeof(jpg_signature)) == 0;
 979              		.loc 1 894 19 is_stmt 0 view .LVU324
 980 0006 084A     		ldr	r2, .L56
 981 0008 01AB     		add	r3, sp, #4
 982 000a 07CA     		ldm	r2, {r0, r1, r2}
 983              	.LVL115:
 894:lvgl/src/extra/libs/sjpg/lv_sjpg.c ****     return memcmp(jpg_signature, raw_data, sizeof(jpg_signature)) == 0;
 984              		.loc 1 894 19 view .LVU325
 985 000c 03C3     		stmia	r3!, {r0, r1}
 986 000e 1A80     		strh	r2, [r3]	@ movhi
 895:lvgl/src/extra/libs/sjpg/lv_sjpg.c **** }
 987              		.loc 1 895 5 is_stmt 1 view .LVU326
 895:lvgl/src/extra/libs/sjpg/lv_sjpg.c **** }
 988              		.loc 1 895 12 is_stmt 0 view .LVU327
 989 0010 0A22     		movs	r2, #10
 990 0012 6146     		mov	r1, ip
 991 0014 01A8     		add	r0, sp, #4
 992 0016 FFF7FEFF 		bl	memcmp
 993              	.LVL116:
 896:lvgl/src/extra/libs/sjpg/lv_sjpg.c **** 
ARM GAS  C:\usertemp\ccKDNimi.s 			page 38


 994              		.loc 1 896 1 view .LVU328
 995 001a B0FA80F0 		clz	r0, r0
 996 001e 4009     		lsrs	r0, r0, #5
 997 0020 05B0     		add	sp, sp, #20
 998              	.LCFI15:
 999              		.cfi_def_cfa_offset 4
 1000              		@ sp needed
 1001 0022 5DF804FB 		ldr	pc, [sp], #4
 1002              	.L57:
 1003 0026 00BF     		.align	2
 1004              	.L56:
 1005 0028 00000000 		.word	.LANCHOR0
 1006              		.cfi_endproc
 1007              	.LFE203:
 1009              		.section	.rodata.decoder_open.str1.4,"aMS",%progbits,1
 1010              		.align	2
 1011              	.LC1:
 1012 0000 5F534A50 		.ascii	"_SJPG__\000"
 1012      475F5F00 
 1013              		.align	2
 1014              	.LC2:
 1015 0008 2E736A70 		.ascii	".sjpg\000"
 1015      6700
 1016 000e 0000     		.align	2
 1017              	.LC3:
 1018 0010 2E6A7067 		.ascii	".jpg\000"
 1018      00
 1019              		.section	.text.decoder_open,"ax",%progbits
 1020              		.align	1
 1021              		.syntax unified
 1022              		.thumb
 1023              		.thumb_func
 1025              	decoder_open:
 1026              	.LVL117:
 1027              	.LFB200:
 344:lvgl/src/extra/libs/sjpg/lv_sjpg.c ****     LV_UNUSED(decoder);
 1028              		.loc 1 344 1 is_stmt 1 view -0
 1029              		.cfi_startproc
 1030              		@ args = 0, pretend = 0, frame = 176
 1031              		@ frame_needed = 0, uses_anonymous_args = 0
 344:lvgl/src/extra/libs/sjpg/lv_sjpg.c ****     LV_UNUSED(decoder);
 1032              		.loc 1 344 1 is_stmt 0 view .LVU330
 1033 0000 2DE9F043 		push	{r4, r5, r6, r7, r8, r9, lr}
 1034              	.LCFI16:
 1035              		.cfi_def_cfa_offset 28
 1036              		.cfi_offset 4, -28
 1037              		.cfi_offset 5, -24
 1038              		.cfi_offset 6, -20
 1039              		.cfi_offset 7, -16
 1040              		.cfi_offset 8, -12
 1041              		.cfi_offset 9, -8
 1042              		.cfi_offset 14, -4
 1043 0004 AFB0     		sub	sp, sp, #188
 1044              	.LCFI17:
 1045              		.cfi_def_cfa_offset 216
 1046 0006 0D46     		mov	r5, r1
 345:lvgl/src/extra/libs/sjpg/lv_sjpg.c ****     lv_res_t lv_ret = LV_RES_OK;
ARM GAS  C:\usertemp\ccKDNimi.s 			page 39


 1047              		.loc 1 345 5 is_stmt 1 view .LVU331
 346:lvgl/src/extra/libs/sjpg/lv_sjpg.c **** 
 1048              		.loc 1 346 5 view .LVU332
 1049              	.LVL118:
 348:lvgl/src/extra/libs/sjpg/lv_sjpg.c ****         uint8_t * data;
 1050              		.loc 1 348 5 view .LVU333
 348:lvgl/src/extra/libs/sjpg/lv_sjpg.c ****         uint8_t * data;
 1051              		.loc 1 348 11 is_stmt 0 view .LVU334
 1052 0008 0E7C     		ldrb	r6, [r1, #16]	@ zero_extendqisi2
 348:lvgl/src/extra/libs/sjpg/lv_sjpg.c ****         uint8_t * data;
 1053              		.loc 1 348 7 view .LVU335
 1054 000a 002E     		cmp	r6, #0
 1055 000c 40F01481 		bne	.L59
 1056              	.LBB22:
 349:lvgl/src/extra/libs/sjpg/lv_sjpg.c ****         SJPEG * sjpeg = (SJPEG *) dsc->user_data;
 1057              		.loc 1 349 9 is_stmt 1 view .LVU336
 350:lvgl/src/extra/libs/sjpg/lv_sjpg.c ****         if(sjpeg == NULL) {
 1058              		.loc 1 350 9 view .LVU337
 350:lvgl/src/extra/libs/sjpg/lv_sjpg.c ****         if(sjpeg == NULL) {
 1059              		.loc 1 350 17 is_stmt 0 view .LVU338
 1060 0010 4C6A     		ldr	r4, [r1, #36]
 1061              	.LVL119:
 351:lvgl/src/extra/libs/sjpg/lv_sjpg.c ****             sjpeg =  lv_mem_alloc(sizeof(SJPEG));
 1062              		.loc 1 351 9 is_stmt 1 view .LVU339
 351:lvgl/src/extra/libs/sjpg/lv_sjpg.c ****             sjpeg =  lv_mem_alloc(sizeof(SJPEG));
 1063              		.loc 1 351 11 is_stmt 0 view .LVU340
 1064 0012 002C     		cmp	r4, #0
 1065 0014 6CD0     		beq	.L106
 1066              	.LVL120:
 1067              	.L60:
 362:lvgl/src/extra/libs/sjpg/lv_sjpg.c **** 
 1068              		.loc 1 362 9 is_stmt 1 view .LVU341
 362:lvgl/src/extra/libs/sjpg/lv_sjpg.c **** 
 1069              		.loc 1 362 35 is_stmt 0 view .LVU342
 1070 0016 D4F80080 		ldr	r8, [r4]
 362:lvgl/src/extra/libs/sjpg/lv_sjpg.c **** 
 1071              		.loc 1 362 13 view .LVU343
 1072 001a 0722     		movs	r2, #7
 1073 001c A549     		ldr	r1, .L136
 1074 001e 4046     		mov	r0, r8
 1075 0020 FFF7FEFF 		bl	strncmp
 1076              	.LVL121:
 362:lvgl/src/extra/libs/sjpg/lv_sjpg.c **** 
 1077              		.loc 1 362 11 discriminator 1 view .LVU344
 1078 0024 0028     		cmp	r0, #0
 1079 0026 76D0     		beq	.L107
 424:lvgl/src/extra/libs/sjpg/lv_sjpg.c **** 
 1080              		.loc 1 424 14 is_stmt 1 view .LVU345
 424:lvgl/src/extra/libs/sjpg/lv_sjpg.c **** 
 1081              		.loc 1 424 17 is_stmt 0 view .LVU346
 1082 0028 4046     		mov	r0, r8
 1083 002a FFF7FEFF 		bl	is_jpg
 1084              	.LVL122:
 424:lvgl/src/extra/libs/sjpg/lv_sjpg.c **** 
 1085              		.loc 1 424 16 discriminator 1 view .LVU347
 1086 002e 0128     		cmp	r0, #1
 1087 0030 40F00581 		bne	.L61
ARM GAS  C:\usertemp\ccKDNimi.s 			page 40


 1088              	.LBB23:
 426:lvgl/src/extra/libs/sjpg/lv_sjpg.c ****             if(! workb_temp) {
 1089              		.loc 1 426 13 is_stmt 1 view .LVU348
 426:lvgl/src/extra/libs/sjpg/lv_sjpg.c ****             if(! workb_temp) {
 1090              		.loc 1 426 36 is_stmt 0 view .LVU349
 1091 0034 4FF48050 		mov	r0, #4096
 1092 0038 FFF7FEFF 		bl	lv_mem_alloc
 1093              	.LVL123:
 427:lvgl/src/extra/libs/sjpg/lv_sjpg.c ****                 lv_sjpg_cleanup(sjpeg);
 1094              		.loc 1 427 13 is_stmt 1 view .LVU350
 427:lvgl/src/extra/libs/sjpg/lv_sjpg.c ****                 lv_sjpg_cleanup(sjpeg);
 1095              		.loc 1 427 15 is_stmt 0 view .LVU351
 1096 003c 8046     		mov	r8, r0
 1097 003e 0028     		cmp	r0, #0
 1098 0040 00F0DE80 		beq	.L108
 432:lvgl/src/extra/libs/sjpg/lv_sjpg.c ****             io_source_temp.type = SJPEG_IO_SOURCE_C_ARRAY;
 1099              		.loc 1 432 13 is_stmt 1 view .LVU352
 433:lvgl/src/extra/libs/sjpg/lv_sjpg.c ****             io_source_temp.raw_sjpg_data =  sjpeg->sjpeg_data;
 1100              		.loc 1 433 13 view .LVU353
 433:lvgl/src/extra/libs/sjpg/lv_sjpg.c ****             io_source_temp.raw_sjpg_data =  sjpeg->sjpeg_data;
 1101              		.loc 1 433 33 is_stmt 0 view .LVU354
 1102 0044 0023     		movs	r3, #0
 1103 0046 8DF81830 		strb	r3, [sp, #24]
 434:lvgl/src/extra/libs/sjpg/lv_sjpg.c ****             io_source_temp.raw_sjpg_data_size = sjpeg->sjpeg_data_size;
 1104              		.loc 1 434 13 is_stmt 1 view .LVU355
 434:lvgl/src/extra/libs/sjpg/lv_sjpg.c ****             io_source_temp.raw_sjpg_data_size = sjpeg->sjpeg_data_size;
 1105              		.loc 1 434 50 is_stmt 0 view .LVU356
 1106 004a 2268     		ldr	r2, [r4]
 434:lvgl/src/extra/libs/sjpg/lv_sjpg.c ****             io_source_temp.raw_sjpg_data_size = sjpeg->sjpeg_data_size;
 1107              		.loc 1 434 42 view .LVU357
 1108 004c 0D92     		str	r2, [sp, #52]
 435:lvgl/src/extra/libs/sjpg/lv_sjpg.c ****             io_source_temp.raw_sjpg_data_next_read_pos = 0;
 1109              		.loc 1 435 13 is_stmt 1 view .LVU358
 435:lvgl/src/extra/libs/sjpg/lv_sjpg.c ****             io_source_temp.raw_sjpg_data_next_read_pos = 0;
 1110              		.loc 1 435 54 is_stmt 0 view .LVU359
 1111 004e 6268     		ldr	r2, [r4, #4]
 435:lvgl/src/extra/libs/sjpg/lv_sjpg.c ****             io_source_temp.raw_sjpg_data_next_read_pos = 0;
 1112              		.loc 1 435 47 view .LVU360
 1113 0050 0E92     		str	r2, [sp, #56]
 436:lvgl/src/extra/libs/sjpg/lv_sjpg.c **** 
 1114              		.loc 1 436 13 is_stmt 1 view .LVU361
 436:lvgl/src/extra/libs/sjpg/lv_sjpg.c **** 
 1115              		.loc 1 436 56 is_stmt 0 view .LVU362
 1116 0052 0F93     		str	r3, [sp, #60]
 438:lvgl/src/extra/libs/sjpg/lv_sjpg.c ****             JRESULT rc = jd_prepare(&jd_tmp, input_func, workb_temp, (size_t)TJPGD_WORKBUFF_SIZE, &
 1117              		.loc 1 438 13 is_stmt 1 view .LVU363
 439:lvgl/src/extra/libs/sjpg/lv_sjpg.c ****             lv_mem_free(workb_temp);
 1118              		.loc 1 439 13 view .LVU364
 439:lvgl/src/extra/libs/sjpg/lv_sjpg.c ****             lv_mem_free(workb_temp);
 1119              		.loc 1 439 26 is_stmt 0 view .LVU365
 1120 0054 06AB     		add	r3, sp, #24
 1121 0056 0093     		str	r3, [sp]
 1122 0058 4FF48053 		mov	r3, #4096
 1123 005c 0246     		mov	r2, r0
 1124 005e 9649     		ldr	r1, .L136+4
 1125 0060 10A8     		add	r0, sp, #64
 1126              	.LVL124:
ARM GAS  C:\usertemp\ccKDNimi.s 			page 41


 439:lvgl/src/extra/libs/sjpg/lv_sjpg.c ****             lv_mem_free(workb_temp);
 1127              		.loc 1 439 26 view .LVU366
 1128 0062 FFF7FEFF 		bl	jd_prepare
 1129              	.LVL125:
 439:lvgl/src/extra/libs/sjpg/lv_sjpg.c ****             lv_mem_free(workb_temp);
 1130              		.loc 1 439 26 view .LVU367
 1131 0066 0746     		mov	r7, r0
 1132              	.LVL126:
 440:lvgl/src/extra/libs/sjpg/lv_sjpg.c **** 
 1133              		.loc 1 440 13 is_stmt 1 view .LVU368
 1134 0068 4046     		mov	r0, r8
 1135 006a FFF7FEFF 		bl	lv_mem_free
 1136              	.LVL127:
 443:lvgl/src/extra/libs/sjpg/lv_sjpg.c ****                 sjpeg->sjpeg_x_res = jd_tmp.width;
 1137              		.loc 1 443 13 view .LVU369
 443:lvgl/src/extra/libs/sjpg/lv_sjpg.c ****                 sjpeg->sjpeg_x_res = jd_tmp.width;
 1138              		.loc 1 443 15 is_stmt 0 view .LVU370
 1139 006e 002F     		cmp	r7, #0
 1140 0070 40F0DE80 		bne	.L71
 1141              	.LBB24:
 444:lvgl/src/extra/libs/sjpg/lv_sjpg.c ****                 sjpeg->sjpeg_y_res = jd_tmp.height;
 1142              		.loc 1 444 17 is_stmt 1 view .LVU371
 444:lvgl/src/extra/libs/sjpg/lv_sjpg.c ****                 sjpeg->sjpeg_y_res = jd_tmp.height;
 1143              		.loc 1 444 44 is_stmt 0 view .LVU372
 1144 0074 BDF85C30 		ldrh	r3, [sp, #92]
 444:lvgl/src/extra/libs/sjpg/lv_sjpg.c ****                 sjpeg->sjpeg_y_res = jd_tmp.height;
 1145              		.loc 1 444 36 view .LVU373
 1146 0078 A360     		str	r3, [r4, #8]
 445:lvgl/src/extra/libs/sjpg/lv_sjpg.c ****                 sjpeg->sjpeg_total_frames = 1;
 1147              		.loc 1 445 17 is_stmt 1 view .LVU374
 445:lvgl/src/extra/libs/sjpg/lv_sjpg.c ****                 sjpeg->sjpeg_total_frames = 1;
 1148              		.loc 1 445 44 is_stmt 0 view .LVU375
 1149 007a BDF85E30 		ldrh	r3, [sp, #94]
 445:lvgl/src/extra/libs/sjpg/lv_sjpg.c ****                 sjpeg->sjpeg_total_frames = 1;
 1150              		.loc 1 445 36 view .LVU376
 1151 007e E360     		str	r3, [r4, #12]
 446:lvgl/src/extra/libs/sjpg/lv_sjpg.c ****                 sjpeg->sjpeg_single_frame_height = jd_tmp.height;
 1152              		.loc 1 446 17 is_stmt 1 view .LVU377
 446:lvgl/src/extra/libs/sjpg/lv_sjpg.c ****                 sjpeg->sjpeg_single_frame_height = jd_tmp.height;
 1153              		.loc 1 446 43 is_stmt 0 view .LVU378
 1154 0080 0123     		movs	r3, #1
 1155 0082 2361     		str	r3, [r4, #16]
 447:lvgl/src/extra/libs/sjpg/lv_sjpg.c **** 
 1156              		.loc 1 447 17 is_stmt 1 view .LVU379
 447:lvgl/src/extra/libs/sjpg/lv_sjpg.c **** 
 1157              		.loc 1 447 58 is_stmt 0 view .LVU380
 1158 0084 BDF85E30 		ldrh	r3, [sp, #94]
 447:lvgl/src/extra/libs/sjpg/lv_sjpg.c **** 
 1159              		.loc 1 447 50 view .LVU381
 1160 0088 6361     		str	r3, [r4, #20]
 449:lvgl/src/extra/libs/sjpg/lv_sjpg.c ****                 if(! sjpeg->frame_base_array) {
 1161              		.loc 1 449 17 is_stmt 1 view .LVU382
 449:lvgl/src/extra/libs/sjpg/lv_sjpg.c ****                 if(! sjpeg->frame_base_array) {
 1162              		.loc 1 449 43 is_stmt 0 view .LVU383
 1163 008a 0420     		movs	r0, #4
 1164 008c FFF7FEFF 		bl	lv_mem_alloc
 1165              	.LVL128:
ARM GAS  C:\usertemp\ccKDNimi.s 			page 42


 449:lvgl/src/extra/libs/sjpg/lv_sjpg.c ****                 if(! sjpeg->frame_base_array) {
 1166              		.loc 1 449 41 discriminator 1 view .LVU384
 1167 0090 E061     		str	r0, [r4, #28]
 450:lvgl/src/extra/libs/sjpg/lv_sjpg.c ****                     lv_sjpg_cleanup(sjpeg);
 1168              		.loc 1 450 17 is_stmt 1 view .LVU385
 450:lvgl/src/extra/libs/sjpg/lv_sjpg.c ****                     lv_sjpg_cleanup(sjpeg);
 1169              		.loc 1 450 19 is_stmt 0 view .LVU386
 1170 0092 0028     		cmp	r0, #0
 1171 0094 00F0B880 		beq	.L109
 455:lvgl/src/extra/libs/sjpg/lv_sjpg.c **** 
 1172              		.loc 1 455 17 is_stmt 1 view .LVU387
 455:lvgl/src/extra/libs/sjpg/lv_sjpg.c **** 
 1173              		.loc 1 455 42 is_stmt 0 view .LVU388
 1174 0098 0023     		movs	r3, #0
 1175 009a 2362     		str	r3, [r4, #32]
 457:lvgl/src/extra/libs/sjpg/lv_sjpg.c ****                 sjpeg->frame_base_array[0] = img_frame_base;
 1176              		.loc 1 457 17 is_stmt 1 view .LVU389
 457:lvgl/src/extra/libs/sjpg/lv_sjpg.c ****                 sjpeg->frame_base_array[0] = img_frame_base;
 1177              		.loc 1 457 27 is_stmt 0 view .LVU390
 1178 009c 2368     		ldr	r3, [r4]
 1179              	.LVL129:
 458:lvgl/src/extra/libs/sjpg/lv_sjpg.c **** 
 1180              		.loc 1 458 17 is_stmt 1 view .LVU391
 458:lvgl/src/extra/libs/sjpg/lv_sjpg.c **** 
 1181              		.loc 1 458 44 is_stmt 0 view .LVU392
 1182 009e 0360     		str	r3, [r0]
 460:lvgl/src/extra/libs/sjpg/lv_sjpg.c ****                 sjpeg->frame_cache = (void *)lv_mem_alloc(sjpeg->sjpeg_x_res * sjpeg->sjpeg_single_
 1183              		.loc 1 460 17 is_stmt 1 view .LVU393
 460:lvgl/src/extra/libs/sjpg/lv_sjpg.c ****                 sjpeg->frame_cache = (void *)lv_mem_alloc(sjpeg->sjpeg_x_res * sjpeg->sjpeg_single_
 1184              		.loc 1 460 48 is_stmt 0 view .LVU394
 1185 00a0 4FF0FF33 		mov	r3, #-1
 1186              	.LVL130:
 460:lvgl/src/extra/libs/sjpg/lv_sjpg.c ****                 sjpeg->frame_cache = (void *)lv_mem_alloc(sjpeg->sjpeg_x_res * sjpeg->sjpeg_single_
 1187              		.loc 1 460 48 view .LVU395
 1188 00a4 A361     		str	r3, [r4, #24]
 1189              	.LVL131:
 461:lvgl/src/extra/libs/sjpg/lv_sjpg.c ****                 if(! sjpeg->frame_cache) {
 1190              		.loc 1 461 17 is_stmt 1 view .LVU396
 461:lvgl/src/extra/libs/sjpg/lv_sjpg.c ****                 if(! sjpeg->frame_cache) {
 1191              		.loc 1 461 64 is_stmt 0 view .LVU397
 1192 00a6 A068     		ldr	r0, [r4, #8]
 461:lvgl/src/extra/libs/sjpg/lv_sjpg.c ****                 if(! sjpeg->frame_cache) {
 1193              		.loc 1 461 85 view .LVU398
 1194 00a8 6369     		ldr	r3, [r4, #20]
 461:lvgl/src/extra/libs/sjpg/lv_sjpg.c ****                 if(! sjpeg->frame_cache) {
 1195              		.loc 1 461 78 view .LVU399
 1196 00aa 03FB00F0 		mul	r0, r3, r0
 461:lvgl/src/extra/libs/sjpg/lv_sjpg.c ****                 if(! sjpeg->frame_cache) {
 1197              		.loc 1 461 38 view .LVU400
 1198 00ae 00EB4000 		add	r0, r0, r0, lsl #1
 1199 00b2 FFF7FEFF 		bl	lv_mem_alloc
 1200              	.LVL132:
 461:lvgl/src/extra/libs/sjpg/lv_sjpg.c ****                 if(! sjpeg->frame_cache) {
 1201              		.loc 1 461 36 discriminator 1 view .LVU401
 1202 00b6 6062     		str	r0, [r4, #36]
 462:lvgl/src/extra/libs/sjpg/lv_sjpg.c ****                     lv_sjpg_cleanup(sjpeg);
 1203              		.loc 1 462 17 is_stmt 1 view .LVU402
ARM GAS  C:\usertemp\ccKDNimi.s 			page 43


 462:lvgl/src/extra/libs/sjpg/lv_sjpg.c ****                     lv_sjpg_cleanup(sjpeg);
 1204              		.loc 1 462 19 is_stmt 0 view .LVU403
 1205 00b8 0028     		cmp	r0, #0
 1206 00ba 00F0AA80 		beq	.L110
 468:lvgl/src/extra/libs/sjpg/lv_sjpg.c ****                 sjpeg->io.img_cache_x_res = sjpeg->sjpeg_x_res;
 1207              		.loc 1 468 17 is_stmt 1 view .LVU404
 468:lvgl/src/extra/libs/sjpg/lv_sjpg.c ****                 sjpeg->io.img_cache_x_res = sjpeg->sjpeg_x_res;
 1208              		.loc 1 468 42 is_stmt 0 view .LVU405
 1209 00be 2064     		str	r0, [r4, #64]
 469:lvgl/src/extra/libs/sjpg/lv_sjpg.c ****                 sjpeg->workb =   lv_mem_alloc(TJPGD_WORKBUFF_SIZE);
 1210              		.loc 1 469 17 is_stmt 1 view .LVU406
 469:lvgl/src/extra/libs/sjpg/lv_sjpg.c ****                 sjpeg->workb =   lv_mem_alloc(TJPGD_WORKBUFF_SIZE);
 1211              		.loc 1 469 50 is_stmt 0 view .LVU407
 1212 00c0 A368     		ldr	r3, [r4, #8]
 469:lvgl/src/extra/libs/sjpg/lv_sjpg.c ****                 sjpeg->workb =   lv_mem_alloc(TJPGD_WORKBUFF_SIZE);
 1213              		.loc 1 469 43 view .LVU408
 1214 00c2 6364     		str	r3, [r4, #68]
 470:lvgl/src/extra/libs/sjpg/lv_sjpg.c ****                 if(! sjpeg->workb) {
 1215              		.loc 1 470 17 is_stmt 1 view .LVU409
 470:lvgl/src/extra/libs/sjpg/lv_sjpg.c ****                 if(! sjpeg->workb) {
 1216              		.loc 1 470 34 is_stmt 0 view .LVU410
 1217 00c4 4FF48050 		mov	r0, #4096
 1218 00c8 FFF7FEFF 		bl	lv_mem_alloc
 1219              	.LVL133:
 470:lvgl/src/extra/libs/sjpg/lv_sjpg.c ****                 if(! sjpeg->workb) {
 1220              		.loc 1 470 30 discriminator 1 view .LVU411
 1221 00cc A062     		str	r0, [r4, #40]
 471:lvgl/src/extra/libs/sjpg/lv_sjpg.c ****                     lv_sjpg_cleanup(sjpeg);
 1222              		.loc 1 471 17 is_stmt 1 view .LVU412
 471:lvgl/src/extra/libs/sjpg/lv_sjpg.c ****                     lv_sjpg_cleanup(sjpeg);
 1223              		.loc 1 471 19 is_stmt 0 view .LVU413
 1224 00ce 0028     		cmp	r0, #0
 1225 00d0 00F0A480 		beq	.L111
 477:lvgl/src/extra/libs/sjpg/lv_sjpg.c ****                 if(! sjpeg->tjpeg_jd) {
 1226              		.loc 1 477 17 is_stmt 1 view .LVU414
 477:lvgl/src/extra/libs/sjpg/lv_sjpg.c ****                 if(! sjpeg->tjpeg_jd) {
 1227              		.loc 1 477 37 is_stmt 0 view .LVU415
 1228 00d4 7820     		movs	r0, #120
 1229 00d6 FFF7FEFF 		bl	lv_mem_alloc
 1230              	.LVL134:
 477:lvgl/src/extra/libs/sjpg/lv_sjpg.c ****                 if(! sjpeg->tjpeg_jd) {
 1231              		.loc 1 477 33 discriminator 1 view .LVU416
 1232 00da E062     		str	r0, [r4, #44]
 478:lvgl/src/extra/libs/sjpg/lv_sjpg.c ****                     lv_sjpg_cleanup(sjpeg);
 1233              		.loc 1 478 17 is_stmt 1 view .LVU417
 478:lvgl/src/extra/libs/sjpg/lv_sjpg.c ****                     lv_sjpg_cleanup(sjpeg);
 1234              		.loc 1 478 19 is_stmt 0 view .LVU418
 1235 00dc 0028     		cmp	r0, #0
 1236 00de 00F0A280 		beq	.L112
 484:lvgl/src/extra/libs/sjpg/lv_sjpg.c ****                 sjpeg->io.lv_file.file_d = NULL;
 1237              		.loc 1 484 17 is_stmt 1 view .LVU419
 484:lvgl/src/extra/libs/sjpg/lv_sjpg.c ****                 sjpeg->io.lv_file.file_d = NULL;
 1238              		.loc 1 484 32 is_stmt 0 view .LVU420
 1239 00e2 0023     		movs	r3, #0
 1240 00e4 84F83030 		strb	r3, [r4, #48]
 485:lvgl/src/extra/libs/sjpg/lv_sjpg.c ****                 dsc->img_data = NULL;
 1241              		.loc 1 485 17 is_stmt 1 view .LVU421
ARM GAS  C:\usertemp\ccKDNimi.s 			page 44


 485:lvgl/src/extra/libs/sjpg/lv_sjpg.c ****                 dsc->img_data = NULL;
 1242              		.loc 1 485 42 is_stmt 0 view .LVU422
 1243 00e8 6363     		str	r3, [r4, #52]
 486:lvgl/src/extra/libs/sjpg/lv_sjpg.c ****                 return lv_ret;
 1244              		.loc 1 486 17 is_stmt 1 view .LVU423
 486:lvgl/src/extra/libs/sjpg/lv_sjpg.c ****                 return lv_ret;
 1245              		.loc 1 486 31 is_stmt 0 view .LVU424
 1246 00ea AB61     		str	r3, [r5, #24]
 487:lvgl/src/extra/libs/sjpg/lv_sjpg.c ****             }
 1247              		.loc 1 487 17 is_stmt 1 view .LVU425
 487:lvgl/src/extra/libs/sjpg/lv_sjpg.c ****             }
 1248              		.loc 1 487 24 is_stmt 0 view .LVU426
 1249 00ec 0126     		movs	r6, #1
 1250 00ee A6E0     		b	.L61
 1251              	.LVL135:
 1252              	.L106:
 487:lvgl/src/extra/libs/sjpg/lv_sjpg.c ****             }
 1253              		.loc 1 487 24 view .LVU427
 1254              	.LBE24:
 1255              	.LBE23:
 352:lvgl/src/extra/libs/sjpg/lv_sjpg.c ****             if(!sjpeg) return LV_RES_INV;
 1256              		.loc 1 352 13 is_stmt 1 view .LVU428
 352:lvgl/src/extra/libs/sjpg/lv_sjpg.c ****             if(!sjpeg) return LV_RES_INV;
 1257              		.loc 1 352 22 is_stmt 0 view .LVU429
 1258 00f0 5820     		movs	r0, #88
 1259              	.LVL136:
 352:lvgl/src/extra/libs/sjpg/lv_sjpg.c ****             if(!sjpeg) return LV_RES_INV;
 1260              		.loc 1 352 22 view .LVU430
 1261 00f2 FFF7FEFF 		bl	lv_mem_alloc
 1262              	.LVL137:
 353:lvgl/src/extra/libs/sjpg/lv_sjpg.c **** 
 1263              		.loc 1 353 13 is_stmt 1 view .LVU431
 353:lvgl/src/extra/libs/sjpg/lv_sjpg.c **** 
 1264              		.loc 1 353 15 is_stmt 0 view .LVU432
 1265 00f6 0446     		mov	r4, r0
 1266 00f8 0028     		cmp	r0, #0
 1267 00fa 00F0A080 		beq	.L61
 355:lvgl/src/extra/libs/sjpg/lv_sjpg.c **** 
 1268              		.loc 1 355 13 is_stmt 1 view .LVU433
 1269 00fe 5822     		movs	r2, #88
 1270 0100 0021     		movs	r1, #0
 1271 0102 FFF7FEFF 		bl	memset
 1272              	.LVL138:
 357:lvgl/src/extra/libs/sjpg/lv_sjpg.c ****             sjpeg->sjpeg_data = (uint8_t *)((lv_img_dsc_t *)(dsc->src))->data;
 1273              		.loc 1 357 13 view .LVU434
 357:lvgl/src/extra/libs/sjpg/lv_sjpg.c ****             sjpeg->sjpeg_data = (uint8_t *)((lv_img_dsc_t *)(dsc->src))->data;
 1274              		.loc 1 357 28 is_stmt 0 view .LVU435
 1275 0106 6C62     		str	r4, [r5, #36]
 358:lvgl/src/extra/libs/sjpg/lv_sjpg.c ****             sjpeg->sjpeg_data_size = ((lv_img_dsc_t *)(dsc->src))->data_size;
 1276              		.loc 1 358 13 is_stmt 1 view .LVU436
 358:lvgl/src/extra/libs/sjpg/lv_sjpg.c ****             sjpeg->sjpeg_data_size = ((lv_img_dsc_t *)(dsc->src))->data_size;
 1277              		.loc 1 358 65 is_stmt 0 view .LVU437
 1278 0108 6B68     		ldr	r3, [r5, #4]
 358:lvgl/src/extra/libs/sjpg/lv_sjpg.c ****             sjpeg->sjpeg_data_size = ((lv_img_dsc_t *)(dsc->src))->data_size;
 1279              		.loc 1 358 72 view .LVU438
 1280 010a 9B68     		ldr	r3, [r3, #8]
 358:lvgl/src/extra/libs/sjpg/lv_sjpg.c ****             sjpeg->sjpeg_data_size = ((lv_img_dsc_t *)(dsc->src))->data_size;
ARM GAS  C:\usertemp\ccKDNimi.s 			page 45


 1281              		.loc 1 358 31 view .LVU439
 1282 010c 2360     		str	r3, [r4]
 359:lvgl/src/extra/libs/sjpg/lv_sjpg.c ****         }
 1283              		.loc 1 359 13 is_stmt 1 view .LVU440
 359:lvgl/src/extra/libs/sjpg/lv_sjpg.c ****         }
 1284              		.loc 1 359 59 is_stmt 0 view .LVU441
 1285 010e 6B68     		ldr	r3, [r5, #4]
 359:lvgl/src/extra/libs/sjpg/lv_sjpg.c ****         }
 1286              		.loc 1 359 66 view .LVU442
 1287 0110 5B68     		ldr	r3, [r3, #4]
 359:lvgl/src/extra/libs/sjpg/lv_sjpg.c ****         }
 1288              		.loc 1 359 36 view .LVU443
 1289 0112 6360     		str	r3, [r4, #4]
 1290 0114 7FE7     		b	.L60
 1291              	.L107:
 1292              	.LBB26:
 364:lvgl/src/extra/libs/sjpg/lv_sjpg.c ****             data += 14;
 1293              		.loc 1 364 13 is_stmt 1 view .LVU444
 1294              	.LVL139:
 365:lvgl/src/extra/libs/sjpg/lv_sjpg.c **** 
 1295              		.loc 1 365 13 view .LVU445
 367:lvgl/src/extra/libs/sjpg/lv_sjpg.c ****             sjpeg->sjpeg_x_res |= *data++ << 8;
 1296              		.loc 1 367 13 view .LVU446
 367:lvgl/src/extra/libs/sjpg/lv_sjpg.c ****             sjpeg->sjpeg_x_res |= *data++ << 8;
 1297              		.loc 1 367 34 is_stmt 0 view .LVU447
 1298 0116 98F80E30 		ldrb	r3, [r8, #14]	@ zero_extendqisi2
 367:lvgl/src/extra/libs/sjpg/lv_sjpg.c ****             sjpeg->sjpeg_x_res |= *data++ << 8;
 1299              		.loc 1 367 32 view .LVU448
 1300 011a A360     		str	r3, [r4, #8]
 368:lvgl/src/extra/libs/sjpg/lv_sjpg.c **** 
 1301              		.loc 1 368 13 is_stmt 1 view .LVU449
 1302              	.LVL140:
 368:lvgl/src/extra/libs/sjpg/lv_sjpg.c **** 
 1303              		.loc 1 368 35 is_stmt 0 view .LVU450
 1304 011c 98F80F20 		ldrb	r2, [r8, #15]	@ zero_extendqisi2
 368:lvgl/src/extra/libs/sjpg/lv_sjpg.c **** 
 1305              		.loc 1 368 32 view .LVU451
 1306 0120 43EA0223 		orr	r3, r3, r2, lsl #8
 1307 0124 A360     		str	r3, [r4, #8]
 370:lvgl/src/extra/libs/sjpg/lv_sjpg.c ****             sjpeg->sjpeg_y_res |= *data++ << 8;
 1308              		.loc 1 370 13 is_stmt 1 view .LVU452
 1309              	.LVL141:
 370:lvgl/src/extra/libs/sjpg/lv_sjpg.c ****             sjpeg->sjpeg_y_res |= *data++ << 8;
 1310              		.loc 1 370 34 is_stmt 0 view .LVU453
 1311 0126 98F81030 		ldrb	r3, [r8, #16]	@ zero_extendqisi2
 370:lvgl/src/extra/libs/sjpg/lv_sjpg.c ****             sjpeg->sjpeg_y_res |= *data++ << 8;
 1312              		.loc 1 370 32 view .LVU454
 1313 012a E360     		str	r3, [r4, #12]
 371:lvgl/src/extra/libs/sjpg/lv_sjpg.c **** 
 1314              		.loc 1 371 13 is_stmt 1 view .LVU455
 1315              	.LVL142:
 371:lvgl/src/extra/libs/sjpg/lv_sjpg.c **** 
 1316              		.loc 1 371 35 is_stmt 0 view .LVU456
 1317 012c 98F81120 		ldrb	r2, [r8, #17]	@ zero_extendqisi2
 371:lvgl/src/extra/libs/sjpg/lv_sjpg.c **** 
 1318              		.loc 1 371 32 view .LVU457
 1319 0130 43EA0223 		orr	r3, r3, r2, lsl #8
ARM GAS  C:\usertemp\ccKDNimi.s 			page 46


 1320 0134 E360     		str	r3, [r4, #12]
 373:lvgl/src/extra/libs/sjpg/lv_sjpg.c ****             sjpeg->sjpeg_total_frames |= *data++ << 8;
 1321              		.loc 1 373 13 is_stmt 1 view .LVU458
 1322              	.LVL143:
 373:lvgl/src/extra/libs/sjpg/lv_sjpg.c ****             sjpeg->sjpeg_total_frames |= *data++ << 8;
 1323              		.loc 1 373 41 is_stmt 0 view .LVU459
 1324 0136 98F81200 		ldrb	r0, [r8, #18]	@ zero_extendqisi2
 373:lvgl/src/extra/libs/sjpg/lv_sjpg.c ****             sjpeg->sjpeg_total_frames |= *data++ << 8;
 1325              		.loc 1 373 39 view .LVU460
 1326 013a 2061     		str	r0, [r4, #16]
 374:lvgl/src/extra/libs/sjpg/lv_sjpg.c **** 
 1327              		.loc 1 374 13 is_stmt 1 view .LVU461
 1328              	.LVL144:
 374:lvgl/src/extra/libs/sjpg/lv_sjpg.c **** 
 1329              		.loc 1 374 42 is_stmt 0 view .LVU462
 1330 013c 98F81330 		ldrb	r3, [r8, #19]	@ zero_extendqisi2
 374:lvgl/src/extra/libs/sjpg/lv_sjpg.c **** 
 1331              		.loc 1 374 39 view .LVU463
 1332 0140 40EA0320 		orr	r0, r0, r3, lsl #8
 1333 0144 2061     		str	r0, [r4, #16]
 376:lvgl/src/extra/libs/sjpg/lv_sjpg.c ****             sjpeg->sjpeg_single_frame_height |= *data++ << 8;
 1334              		.loc 1 376 13 is_stmt 1 view .LVU464
 1335              	.LVL145:
 376:lvgl/src/extra/libs/sjpg/lv_sjpg.c ****             sjpeg->sjpeg_single_frame_height |= *data++ << 8;
 1336              		.loc 1 376 48 is_stmt 0 view .LVU465
 1337 0146 98F81430 		ldrb	r3, [r8, #20]	@ zero_extendqisi2
 376:lvgl/src/extra/libs/sjpg/lv_sjpg.c ****             sjpeg->sjpeg_single_frame_height |= *data++ << 8;
 1338              		.loc 1 376 46 view .LVU466
 1339 014a 6361     		str	r3, [r4, #20]
 377:lvgl/src/extra/libs/sjpg/lv_sjpg.c **** 
 1340              		.loc 1 377 13 is_stmt 1 view .LVU467
 377:lvgl/src/extra/libs/sjpg/lv_sjpg.c **** 
 1341              		.loc 1 377 54 is_stmt 0 view .LVU468
 1342 014c 08F11607 		add	r7, r8, #22
 1343              	.LVL146:
 377:lvgl/src/extra/libs/sjpg/lv_sjpg.c **** 
 1344              		.loc 1 377 49 view .LVU469
 1345 0150 98F81520 		ldrb	r2, [r8, #21]	@ zero_extendqisi2
 377:lvgl/src/extra/libs/sjpg/lv_sjpg.c **** 
 1346              		.loc 1 377 46 view .LVU470
 1347 0154 43EA0223 		orr	r3, r3, r2, lsl #8
 1348 0158 6361     		str	r3, [r4, #20]
 379:lvgl/src/extra/libs/sjpg/lv_sjpg.c ****             if(! sjpeg->frame_base_array) {
 1349              		.loc 1 379 13 is_stmt 1 view .LVU471
 379:lvgl/src/extra/libs/sjpg/lv_sjpg.c ****             if(! sjpeg->frame_base_array) {
 1350              		.loc 1 379 39 is_stmt 0 view .LVU472
 1351 015a 8000     		lsls	r0, r0, #2
 1352 015c FFF7FEFF 		bl	lv_mem_alloc
 1353              	.LVL147:
 379:lvgl/src/extra/libs/sjpg/lv_sjpg.c ****             if(! sjpeg->frame_base_array) {
 1354              		.loc 1 379 37 discriminator 1 view .LVU473
 1355 0160 E061     		str	r0, [r4, #28]
 380:lvgl/src/extra/libs/sjpg/lv_sjpg.c ****                 lv_sjpg_cleanup(sjpeg);
 1356              		.loc 1 380 13 is_stmt 1 view .LVU474
 380:lvgl/src/extra/libs/sjpg/lv_sjpg.c ****                 lv_sjpg_cleanup(sjpeg);
 1357              		.loc 1 380 15 is_stmt 0 view .LVU475
 1358 0162 38B1     		cbz	r0, .L113
ARM GAS  C:\usertemp\ccKDNimi.s 			page 47


 386:lvgl/src/extra/libs/sjpg/lv_sjpg.c **** 
 1359              		.loc 1 386 13 is_stmt 1 view .LVU476
 386:lvgl/src/extra/libs/sjpg/lv_sjpg.c **** 
 1360              		.loc 1 386 38 is_stmt 0 view .LVU477
 1361 0164 0023     		movs	r3, #0
 1362 0166 2362     		str	r3, [r4, #32]
 388:lvgl/src/extra/libs/sjpg/lv_sjpg.c ****             sjpeg->frame_base_array[0] = img_frame_base;
 1363              		.loc 1 388 13 is_stmt 1 view .LVU478
 388:lvgl/src/extra/libs/sjpg/lv_sjpg.c ****             sjpeg->frame_base_array[0] = img_frame_base;
 1364              		.loc 1 388 53 is_stmt 0 view .LVU479
 1365 0168 2369     		ldr	r3, [r4, #16]
 388:lvgl/src/extra/libs/sjpg/lv_sjpg.c ****             sjpeg->frame_base_array[0] = img_frame_base;
 1366              		.loc 1 388 23 view .LVU480
 1367 016a 07EB4303 		add	r3, r7, r3, lsl #1
 1368              	.LVL148:
 389:lvgl/src/extra/libs/sjpg/lv_sjpg.c **** 
 1369              		.loc 1 389 13 is_stmt 1 view .LVU481
 389:lvgl/src/extra/libs/sjpg/lv_sjpg.c **** 
 1370              		.loc 1 389 40 is_stmt 0 view .LVU482
 1371 016e 0360     		str	r3, [r0]
 391:lvgl/src/extra/libs/sjpg/lv_sjpg.c ****                 int offset = *data++;
 1372              		.loc 1 391 13 is_stmt 1 view .LVU483
 1373              	.LBB27:
 391:lvgl/src/extra/libs/sjpg/lv_sjpg.c ****                 int offset = *data++;
 1374              		.loc 1 391 17 view .LVU484
 1375              	.LVL149:
 391:lvgl/src/extra/libs/sjpg/lv_sjpg.c ****                 int offset = *data++;
 1376              		.loc 1 391 21 is_stmt 0 view .LVU485
 1377 0170 0123     		movs	r3, #1
 1378              	.LVL150:
 391:lvgl/src/extra/libs/sjpg/lv_sjpg.c ****                 int offset = *data++;
 1379              		.loc 1 391 13 view .LVU486
 1380 0172 14E0     		b	.L64
 1381              	.LVL151:
 1382              	.L113:
 391:lvgl/src/extra/libs/sjpg/lv_sjpg.c ****                 int offset = *data++;
 1383              		.loc 1 391 13 view .LVU487
 1384              	.LBE27:
 381:lvgl/src/extra/libs/sjpg/lv_sjpg.c ****                 sjpeg = NULL;
 1385              		.loc 1 381 17 is_stmt 1 view .LVU488
 1386 0174 2046     		mov	r0, r4
 1387 0176 FFF7FEFF 		bl	lv_sjpg_cleanup
 1388              	.LVL152:
 382:lvgl/src/extra/libs/sjpg/lv_sjpg.c ****                 return LV_RES_INV;
 1389              		.loc 1 382 17 view .LVU489
 383:lvgl/src/extra/libs/sjpg/lv_sjpg.c ****             }
 1390              		.loc 1 383 17 view .LVU490
 383:lvgl/src/extra/libs/sjpg/lv_sjpg.c ****             }
 1391              		.loc 1 383 24 is_stmt 0 view .LVU491
 1392 017a 60E0     		b	.L61
 1393              	.LVL153:
 1394              	.L65:
 1395              	.LBB30:
 1396              	.LBB28:
 392:lvgl/src/extra/libs/sjpg/lv_sjpg.c ****                 offset |= *data++ << 8;
 1397              		.loc 1 392 17 is_stmt 1 view .LVU492
 392:lvgl/src/extra/libs/sjpg/lv_sjpg.c ****                 offset |= *data++ << 8;
ARM GAS  C:\usertemp\ccKDNimi.s 			page 48


 1398              		.loc 1 392 30 is_stmt 0 view .LVU493
 1399 017c 3A46     		mov	r2, r7
 1400 017e 12F8020B 		ldrb	r0, [r2], #2	@ zero_extendqisi2
 1401              	.LVL154:
 393:lvgl/src/extra/libs/sjpg/lv_sjpg.c ****                 sjpeg->frame_base_array[i] = sjpeg->frame_base_array[i - 1] + offset;
 1402              		.loc 1 393 17 is_stmt 1 view .LVU494
 393:lvgl/src/extra/libs/sjpg/lv_sjpg.c ****                 sjpeg->frame_base_array[i] = sjpeg->frame_base_array[i - 1] + offset;
 1403              		.loc 1 393 27 is_stmt 0 view .LVU495
 1404 0182 7978     		ldrb	r1, [r7, #1]	@ zero_extendqisi2
 393:lvgl/src/extra/libs/sjpg/lv_sjpg.c ****                 sjpeg->frame_base_array[i] = sjpeg->frame_base_array[i - 1] + offset;
 1405              		.loc 1 393 24 view .LVU496
 1406 0184 40EA0120 		orr	r0, r0, r1, lsl #8
 1407              	.LVL155:
 394:lvgl/src/extra/libs/sjpg/lv_sjpg.c ****             }
 1408              		.loc 1 394 17 is_stmt 1 view .LVU497
 394:lvgl/src/extra/libs/sjpg/lv_sjpg.c ****             }
 1409              		.loc 1 394 51 is_stmt 0 view .LVU498
 1410 0188 E769     		ldr	r7, [r4, #28]
 394:lvgl/src/extra/libs/sjpg/lv_sjpg.c ****             }
 1411              		.loc 1 394 69 view .LVU499
 1412 018a 6FF04041 		mvn	r1, #-1073741824
 1413 018e 1944     		add	r1, r1, r3
 1414 0190 57F82110 		ldr	r1, [r7, r1, lsl #2]
 394:lvgl/src/extra/libs/sjpg/lv_sjpg.c ****             }
 1415              		.loc 1 394 77 view .LVU500
 1416 0194 0144     		add	r1, r1, r0
 394:lvgl/src/extra/libs/sjpg/lv_sjpg.c ****             }
 1417              		.loc 1 394 44 view .LVU501
 1418 0196 47F82310 		str	r1, [r7, r3, lsl #2]
 1419              	.LBE28:
 391:lvgl/src/extra/libs/sjpg/lv_sjpg.c ****                 int offset = *data++;
 1420              		.loc 1 391 61 is_stmt 1 discriminator 3 view .LVU502
 1421 019a 0133     		adds	r3, r3, #1
 1422              	.LVL156:
 1423              	.LBB29:
 393:lvgl/src/extra/libs/sjpg/lv_sjpg.c ****                 sjpeg->frame_base_array[i] = sjpeg->frame_base_array[i - 1] + offset;
 1424              		.loc 1 393 32 is_stmt 0 view .LVU503
 1425 019c 1746     		mov	r7, r2
 1426              	.LVL157:
 1427              	.L64:
 393:lvgl/src/extra/libs/sjpg/lv_sjpg.c ****                 sjpeg->frame_base_array[i] = sjpeg->frame_base_array[i - 1] + offset;
 1428              		.loc 1 393 32 view .LVU504
 1429              	.LBE29:
 391:lvgl/src/extra/libs/sjpg/lv_sjpg.c ****                 int offset = *data++;
 1430              		.loc 1 391 30 is_stmt 1 discriminator 1 view .LVU505
 391:lvgl/src/extra/libs/sjpg/lv_sjpg.c ****                 int offset = *data++;
 1431              		.loc 1 391 38 is_stmt 0 discriminator 1 view .LVU506
 1432 019e 2269     		ldr	r2, [r4, #16]
 391:lvgl/src/extra/libs/sjpg/lv_sjpg.c ****                 int offset = *data++;
 1433              		.loc 1 391 30 discriminator 1 view .LVU507
 1434 01a0 9A42     		cmp	r2, r3
 1435 01a2 EBDC     		bgt	.L65
 391:lvgl/src/extra/libs/sjpg/lv_sjpg.c ****                 int offset = *data++;
 1436              		.loc 1 391 30 discriminator 1 view .LVU508
 1437              	.LBE30:
 396:lvgl/src/extra/libs/sjpg/lv_sjpg.c ****             sjpeg->frame_cache = (void *)lv_mem_alloc(sjpeg->sjpeg_x_res * sjpeg->sjpeg_single_fram
 1438              		.loc 1 396 13 is_stmt 1 view .LVU509
ARM GAS  C:\usertemp\ccKDNimi.s 			page 49


 396:lvgl/src/extra/libs/sjpg/lv_sjpg.c ****             sjpeg->frame_cache = (void *)lv_mem_alloc(sjpeg->sjpeg_x_res * sjpeg->sjpeg_single_fram
 1439              		.loc 1 396 44 is_stmt 0 view .LVU510
 1440 01a4 4FF0FF33 		mov	r3, #-1
 1441              	.LVL158:
 396:lvgl/src/extra/libs/sjpg/lv_sjpg.c ****             sjpeg->frame_cache = (void *)lv_mem_alloc(sjpeg->sjpeg_x_res * sjpeg->sjpeg_single_fram
 1442              		.loc 1 396 44 view .LVU511
 1443 01a8 A361     		str	r3, [r4, #24]
 397:lvgl/src/extra/libs/sjpg/lv_sjpg.c ****             if(! sjpeg->frame_cache) {
 1444              		.loc 1 397 13 is_stmt 1 view .LVU512
 397:lvgl/src/extra/libs/sjpg/lv_sjpg.c ****             if(! sjpeg->frame_cache) {
 1445              		.loc 1 397 60 is_stmt 0 view .LVU513
 1446 01aa A068     		ldr	r0, [r4, #8]
 397:lvgl/src/extra/libs/sjpg/lv_sjpg.c ****             if(! sjpeg->frame_cache) {
 1447              		.loc 1 397 81 view .LVU514
 1448 01ac 6369     		ldr	r3, [r4, #20]
 397:lvgl/src/extra/libs/sjpg/lv_sjpg.c ****             if(! sjpeg->frame_cache) {
 1449              		.loc 1 397 74 view .LVU515
 1450 01ae 03FB00F0 		mul	r0, r3, r0
 397:lvgl/src/extra/libs/sjpg/lv_sjpg.c ****             if(! sjpeg->frame_cache) {
 1451              		.loc 1 397 34 view .LVU516
 1452 01b2 00EB4000 		add	r0, r0, r0, lsl #1
 1453 01b6 FFF7FEFF 		bl	lv_mem_alloc
 1454              	.LVL159:
 397:lvgl/src/extra/libs/sjpg/lv_sjpg.c ****             if(! sjpeg->frame_cache) {
 1455              		.loc 1 397 32 discriminator 1 view .LVU517
 1456 01ba 6062     		str	r0, [r4, #36]
 398:lvgl/src/extra/libs/sjpg/lv_sjpg.c ****                 lv_sjpg_cleanup(sjpeg);
 1457              		.loc 1 398 13 is_stmt 1 view .LVU518
 398:lvgl/src/extra/libs/sjpg/lv_sjpg.c ****                 lv_sjpg_cleanup(sjpeg);
 1458              		.loc 1 398 15 is_stmt 0 view .LVU519
 1459 01bc A0B1     		cbz	r0, .L114
 403:lvgl/src/extra/libs/sjpg/lv_sjpg.c ****             sjpeg->io.img_cache_x_res = sjpeg->sjpeg_x_res;
 1460              		.loc 1 403 13 is_stmt 1 view .LVU520
 403:lvgl/src/extra/libs/sjpg/lv_sjpg.c ****             sjpeg->io.img_cache_x_res = sjpeg->sjpeg_x_res;
 1461              		.loc 1 403 38 is_stmt 0 view .LVU521
 1462 01be 2064     		str	r0, [r4, #64]
 404:lvgl/src/extra/libs/sjpg/lv_sjpg.c ****             sjpeg->workb =   lv_mem_alloc(TJPGD_WORKBUFF_SIZE);
 1463              		.loc 1 404 13 is_stmt 1 view .LVU522
 404:lvgl/src/extra/libs/sjpg/lv_sjpg.c ****             sjpeg->workb =   lv_mem_alloc(TJPGD_WORKBUFF_SIZE);
 1464              		.loc 1 404 46 is_stmt 0 view .LVU523
 1465 01c0 A368     		ldr	r3, [r4, #8]
 404:lvgl/src/extra/libs/sjpg/lv_sjpg.c ****             sjpeg->workb =   lv_mem_alloc(TJPGD_WORKBUFF_SIZE);
 1466              		.loc 1 404 39 view .LVU524
 1467 01c2 6364     		str	r3, [r4, #68]
 405:lvgl/src/extra/libs/sjpg/lv_sjpg.c ****             if(! sjpeg->workb) {
 1468              		.loc 1 405 13 is_stmt 1 view .LVU525
 405:lvgl/src/extra/libs/sjpg/lv_sjpg.c ****             if(! sjpeg->workb) {
 1469              		.loc 1 405 30 is_stmt 0 view .LVU526
 1470 01c4 4FF48050 		mov	r0, #4096
 1471 01c8 FFF7FEFF 		bl	lv_mem_alloc
 1472              	.LVL160:
 405:lvgl/src/extra/libs/sjpg/lv_sjpg.c ****             if(! sjpeg->workb) {
 1473              		.loc 1 405 26 discriminator 1 view .LVU527
 1474 01cc A062     		str	r0, [r4, #40]
 406:lvgl/src/extra/libs/sjpg/lv_sjpg.c ****                 lv_sjpg_cleanup(sjpeg);
 1475              		.loc 1 406 13 is_stmt 1 view .LVU528
 406:lvgl/src/extra/libs/sjpg/lv_sjpg.c ****                 lv_sjpg_cleanup(sjpeg);
ARM GAS  C:\usertemp\ccKDNimi.s 			page 50


 1476              		.loc 1 406 15 is_stmt 0 view .LVU529
 1477 01ce 78B1     		cbz	r0, .L115
 412:lvgl/src/extra/libs/sjpg/lv_sjpg.c ****             if(! sjpeg->tjpeg_jd) {
 1478              		.loc 1 412 13 is_stmt 1 view .LVU530
 412:lvgl/src/extra/libs/sjpg/lv_sjpg.c ****             if(! sjpeg->tjpeg_jd) {
 1479              		.loc 1 412 33 is_stmt 0 view .LVU531
 1480 01d0 7820     		movs	r0, #120
 1481 01d2 FFF7FEFF 		bl	lv_mem_alloc
 1482              	.LVL161:
 412:lvgl/src/extra/libs/sjpg/lv_sjpg.c ****             if(! sjpeg->tjpeg_jd) {
 1483              		.loc 1 412 29 discriminator 1 view .LVU532
 1484 01d6 E062     		str	r0, [r4, #44]
 413:lvgl/src/extra/libs/sjpg/lv_sjpg.c ****                 lv_sjpg_cleanup(sjpeg);
 1485              		.loc 1 413 13 is_stmt 1 view .LVU533
 413:lvgl/src/extra/libs/sjpg/lv_sjpg.c ****                 lv_sjpg_cleanup(sjpeg);
 1486              		.loc 1 413 15 is_stmt 0 view .LVU534
 1487 01d8 70B1     		cbz	r0, .L116
 418:lvgl/src/extra/libs/sjpg/lv_sjpg.c ****             sjpeg->io.lv_file.file_d = NULL;
 1488              		.loc 1 418 13 is_stmt 1 view .LVU535
 418:lvgl/src/extra/libs/sjpg/lv_sjpg.c ****             sjpeg->io.lv_file.file_d = NULL;
 1489              		.loc 1 418 28 is_stmt 0 view .LVU536
 1490 01da 0023     		movs	r3, #0
 1491 01dc 84F83030 		strb	r3, [r4, #48]
 419:lvgl/src/extra/libs/sjpg/lv_sjpg.c ****             dsc->img_data = NULL;
 1492              		.loc 1 419 13 is_stmt 1 view .LVU537
 419:lvgl/src/extra/libs/sjpg/lv_sjpg.c ****             dsc->img_data = NULL;
 1493              		.loc 1 419 38 is_stmt 0 view .LVU538
 1494 01e0 6363     		str	r3, [r4, #52]
 420:lvgl/src/extra/libs/sjpg/lv_sjpg.c ****             return lv_ret;
 1495              		.loc 1 420 13 is_stmt 1 view .LVU539
 420:lvgl/src/extra/libs/sjpg/lv_sjpg.c ****             return lv_ret;
 1496              		.loc 1 420 27 is_stmt 0 view .LVU540
 1497 01e2 AB61     		str	r3, [r5, #24]
 421:lvgl/src/extra/libs/sjpg/lv_sjpg.c ****         }
 1498              		.loc 1 421 13 is_stmt 1 view .LVU541
 421:lvgl/src/extra/libs/sjpg/lv_sjpg.c ****         }
 1499              		.loc 1 421 20 is_stmt 0 view .LVU542
 1500 01e4 0126     		movs	r6, #1
 1501 01e6 2AE0     		b	.L61
 1502              	.L114:
 399:lvgl/src/extra/libs/sjpg/lv_sjpg.c ****                 sjpeg = NULL;
 1503              		.loc 1 399 17 is_stmt 1 view .LVU543
 1504 01e8 2046     		mov	r0, r4
 1505 01ea FFF7FEFF 		bl	lv_sjpg_cleanup
 1506              	.LVL162:
 400:lvgl/src/extra/libs/sjpg/lv_sjpg.c ****                 return LV_RES_INV;
 1507              		.loc 1 400 17 view .LVU544
 401:lvgl/src/extra/libs/sjpg/lv_sjpg.c ****             }
 1508              		.loc 1 401 17 view .LVU545
 401:lvgl/src/extra/libs/sjpg/lv_sjpg.c ****             }
 1509              		.loc 1 401 24 is_stmt 0 view .LVU546
 1510 01ee 26E0     		b	.L61
 1511              	.LVL163:
 1512              	.L115:
 407:lvgl/src/extra/libs/sjpg/lv_sjpg.c ****                 sjpeg = NULL;
 1513              		.loc 1 407 17 is_stmt 1 view .LVU547
 1514 01f0 2046     		mov	r0, r4
ARM GAS  C:\usertemp\ccKDNimi.s 			page 51


 1515 01f2 FFF7FEFF 		bl	lv_sjpg_cleanup
 1516              	.LVL164:
 408:lvgl/src/extra/libs/sjpg/lv_sjpg.c ****                 return LV_RES_INV;
 1517              		.loc 1 408 17 view .LVU548
 409:lvgl/src/extra/libs/sjpg/lv_sjpg.c ****             }
 1518              		.loc 1 409 17 view .LVU549
 409:lvgl/src/extra/libs/sjpg/lv_sjpg.c ****             }
 1519              		.loc 1 409 24 is_stmt 0 view .LVU550
 1520 01f6 22E0     		b	.L61
 1521              	.LVL165:
 1522              	.L116:
 414:lvgl/src/extra/libs/sjpg/lv_sjpg.c ****                 sjpeg = NULL;
 1523              		.loc 1 414 17 is_stmt 1 view .LVU551
 1524 01f8 2046     		mov	r0, r4
 1525 01fa FFF7FEFF 		bl	lv_sjpg_cleanup
 1526              	.LVL166:
 415:lvgl/src/extra/libs/sjpg/lv_sjpg.c ****                 return LV_RES_INV;
 1527              		.loc 1 415 17 view .LVU552
 416:lvgl/src/extra/libs/sjpg/lv_sjpg.c ****             }
 1528              		.loc 1 416 17 view .LVU553
 416:lvgl/src/extra/libs/sjpg/lv_sjpg.c ****             }
 1529              		.loc 1 416 24 is_stmt 0 view .LVU554
 1530 01fe 1EE0     		b	.L61
 1531              	.LVL167:
 1532              	.L108:
 416:lvgl/src/extra/libs/sjpg/lv_sjpg.c ****             }
 1533              		.loc 1 416 24 view .LVU555
 1534              	.LBE26:
 1535              	.LBB31:
 428:lvgl/src/extra/libs/sjpg/lv_sjpg.c ****                 sjpeg = NULL;
 1536              		.loc 1 428 17 is_stmt 1 view .LVU556
 1537 0200 2046     		mov	r0, r4
 1538              	.LVL168:
 428:lvgl/src/extra/libs/sjpg/lv_sjpg.c ****                 sjpeg = NULL;
 1539              		.loc 1 428 17 is_stmt 0 view .LVU557
 1540 0202 FFF7FEFF 		bl	lv_sjpg_cleanup
 1541              	.LVL169:
 429:lvgl/src/extra/libs/sjpg/lv_sjpg.c ****                 return LV_RES_INV;
 1542              		.loc 1 429 17 is_stmt 1 view .LVU558
 430:lvgl/src/extra/libs/sjpg/lv_sjpg.c ****             }
 1543              		.loc 1 430 17 view .LVU559
 430:lvgl/src/extra/libs/sjpg/lv_sjpg.c ****             }
 1544              		.loc 1 430 24 is_stmt 0 view .LVU560
 1545 0206 1AE0     		b	.L61
 1546              	.LVL170:
 1547              	.L109:
 1548              	.LBB25:
 451:lvgl/src/extra/libs/sjpg/lv_sjpg.c ****                     sjpeg = NULL;
 1549              		.loc 1 451 21 is_stmt 1 view .LVU561
 1550 0208 2046     		mov	r0, r4
 1551 020a FFF7FEFF 		bl	lv_sjpg_cleanup
 1552              	.LVL171:
 452:lvgl/src/extra/libs/sjpg/lv_sjpg.c ****                     return LV_RES_INV;
 1553              		.loc 1 452 21 view .LVU562
 453:lvgl/src/extra/libs/sjpg/lv_sjpg.c ****                 }
 1554              		.loc 1 453 21 view .LVU563
 453:lvgl/src/extra/libs/sjpg/lv_sjpg.c ****                 }
ARM GAS  C:\usertemp\ccKDNimi.s 			page 52


 1555              		.loc 1 453 28 is_stmt 0 view .LVU564
 1556 020e 3E46     		mov	r6, r7
 1557 0210 15E0     		b	.L61
 1558              	.LVL172:
 1559              	.L110:
 463:lvgl/src/extra/libs/sjpg/lv_sjpg.c ****                     sjpeg = NULL;
 1560              		.loc 1 463 21 is_stmt 1 view .LVU565
 1561 0212 2046     		mov	r0, r4
 1562 0214 FFF7FEFF 		bl	lv_sjpg_cleanup
 1563              	.LVL173:
 464:lvgl/src/extra/libs/sjpg/lv_sjpg.c ****                     return LV_RES_INV;
 1564              		.loc 1 464 21 view .LVU566
 465:lvgl/src/extra/libs/sjpg/lv_sjpg.c ****                 }
 1565              		.loc 1 465 21 view .LVU567
 465:lvgl/src/extra/libs/sjpg/lv_sjpg.c ****                 }
 1566              		.loc 1 465 28 is_stmt 0 view .LVU568
 1567 0218 3E46     		mov	r6, r7
 1568 021a 10E0     		b	.L61
 1569              	.LVL174:
 1570              	.L111:
 472:lvgl/src/extra/libs/sjpg/lv_sjpg.c ****                     sjpeg = NULL;
 1571              		.loc 1 472 21 is_stmt 1 view .LVU569
 1572 021c 2046     		mov	r0, r4
 1573 021e FFF7FEFF 		bl	lv_sjpg_cleanup
 1574              	.LVL175:
 473:lvgl/src/extra/libs/sjpg/lv_sjpg.c ****                     return LV_RES_INV;
 1575              		.loc 1 473 21 view .LVU570
 474:lvgl/src/extra/libs/sjpg/lv_sjpg.c ****                 }
 1576              		.loc 1 474 21 view .LVU571
 474:lvgl/src/extra/libs/sjpg/lv_sjpg.c ****                 }
 1577              		.loc 1 474 28 is_stmt 0 view .LVU572
 1578 0222 3E46     		mov	r6, r7
 1579 0224 0BE0     		b	.L61
 1580              	.LVL176:
 1581              	.L112:
 479:lvgl/src/extra/libs/sjpg/lv_sjpg.c ****                     sjpeg = NULL;
 1582              		.loc 1 479 21 is_stmt 1 view .LVU573
 1583 0226 2046     		mov	r0, r4
 1584 0228 FFF7FEFF 		bl	lv_sjpg_cleanup
 1585              	.LVL177:
 480:lvgl/src/extra/libs/sjpg/lv_sjpg.c ****                     return LV_RES_INV;
 1586              		.loc 1 480 21 view .LVU574
 481:lvgl/src/extra/libs/sjpg/lv_sjpg.c ****                 }
 1587              		.loc 1 481 21 view .LVU575
 481:lvgl/src/extra/libs/sjpg/lv_sjpg.c ****                 }
 1588              		.loc 1 481 28 is_stmt 0 view .LVU576
 1589 022c 3E46     		mov	r6, r7
 1590 022e 06E0     		b	.L61
 1591              	.LVL178:
 1592              	.L71:
 481:lvgl/src/extra/libs/sjpg/lv_sjpg.c ****                 }
 1593              		.loc 1 481 28 view .LVU577
 1594              	.LBE25:
 490:lvgl/src/extra/libs/sjpg/lv_sjpg.c ****                 goto end;
 1595              		.loc 1 490 17 is_stmt 1 view .LVU578
 491:lvgl/src/extra/libs/sjpg/lv_sjpg.c ****             }
 1596              		.loc 1 491 17 view .LVU579
ARM GAS  C:\usertemp\ccKDNimi.s 			page 53


 1597              	.LDL1:
 495:lvgl/src/extra/libs/sjpg/lv_sjpg.c **** 
 1598              		.loc 1 495 13 view .LVU580
 1599 0230 4046     		mov	r0, r8
 1600 0232 FFF7FEFF 		bl	lv_mem_free
 1601              	.LVL179:
 497:lvgl/src/extra/libs/sjpg/lv_sjpg.c ****         }
 1602              		.loc 1 497 13 view .LVU581
 497:lvgl/src/extra/libs/sjpg/lv_sjpg.c ****         }
 1603              		.loc 1 497 20 is_stmt 0 view .LVU582
 1604 0236 02E0     		b	.L61
 1605              	.LVL180:
 1606              	.L59:
 497:lvgl/src/extra/libs/sjpg/lv_sjpg.c ****         }
 1607              		.loc 1 497 20 view .LVU583
 1608              	.LBE31:
 1609              	.LBE22:
 500:lvgl/src/extra/libs/sjpg/lv_sjpg.c ****         /* If all fine, then the file will be kept open */
 1610              		.loc 1 500 10 is_stmt 1 view .LVU584
 500:lvgl/src/extra/libs/sjpg/lv_sjpg.c ****         /* If all fine, then the file will be kept open */
 1611              		.loc 1 500 12 is_stmt 0 view .LVU585
 1612 0238 012E     		cmp	r6, #1
 1613 023a 04D0     		beq	.L117
 705:lvgl/src/extra/libs/sjpg/lv_sjpg.c **** }
 1614              		.loc 1 705 12 view .LVU586
 1615 023c 0026     		movs	r6, #0
 1616              	.LVL181:
 1617              	.L61:
 706:lvgl/src/extra/libs/sjpg/lv_sjpg.c **** 
 1618              		.loc 1 706 1 view .LVU587
 1619 023e 3046     		mov	r0, r6
 1620 0240 2FB0     		add	sp, sp, #188
 1621              	.LCFI18:
 1622              		.cfi_remember_state
 1623              		.cfi_def_cfa_offset 28
 1624              		@ sp needed
 1625 0242 BDE8F083 		pop	{r4, r5, r6, r7, r8, r9, pc}
 1626              	.LVL182:
 1627              	.L117:
 1628              	.LCFI19:
 1629              		.cfi_restore_state
 1630              	.LBB32:
 502:lvgl/src/extra/libs/sjpg/lv_sjpg.c ****         uint8_t * data;
 1631              		.loc 1 502 9 is_stmt 1 view .LVU588
 502:lvgl/src/extra/libs/sjpg/lv_sjpg.c ****         uint8_t * data;
 1632              		.loc 1 502 22 is_stmt 0 view .LVU589
 1633 0246 4F68     		ldr	r7, [r1, #4]
 1634              	.LVL183:
 503:lvgl/src/extra/libs/sjpg/lv_sjpg.c **** 
 1635              		.loc 1 503 9 is_stmt 1 view .LVU590
 505:lvgl/src/extra/libs/sjpg/lv_sjpg.c **** 
 1636              		.loc 1 505 9 view .LVU591
 505:lvgl/src/extra/libs/sjpg/lv_sjpg.c **** 
 1637              		.loc 1 505 24 is_stmt 0 view .LVU592
 1638 0248 3846     		mov	r0, r7
 1639              	.LVL184:
 505:lvgl/src/extra/libs/sjpg/lv_sjpg.c **** 
ARM GAS  C:\usertemp\ccKDNimi.s 			page 54


 1640              		.loc 1 505 24 view .LVU593
 1641 024a FFF7FEFF 		bl	strlen
 1642              	.LVL185:
 505:lvgl/src/extra/libs/sjpg/lv_sjpg.c **** 
 1643              		.loc 1 505 24 view .LVU594
 1644 024e 0446     		mov	r4, r0
 505:lvgl/src/extra/libs/sjpg/lv_sjpg.c **** 
 1645              		.loc 1 505 23 discriminator 1 view .LVU595
 1646 0250 0538     		subs	r0, r0, #5
 505:lvgl/src/extra/libs/sjpg/lv_sjpg.c **** 
 1647              		.loc 1 505 13 discriminator 1 view .LVU596
 1648 0252 1A49     		ldr	r1, .L136+8
 1649 0254 3844     		add	r0, r0, r7
 1650 0256 FFF7FEFF 		bl	strcmp
 1651              	.LVL186:
 505:lvgl/src/extra/libs/sjpg/lv_sjpg.c **** 
 1652              		.loc 1 505 11 discriminator 2 view .LVU597
 1653 025a 48B1     		cbz	r0, .L118
 608:lvgl/src/extra/libs/sjpg/lv_sjpg.c **** 
 1654              		.loc 1 608 14 is_stmt 1 view .LVU598
 608:lvgl/src/extra/libs/sjpg/lv_sjpg.c **** 
 1655              		.loc 1 608 28 is_stmt 0 discriminator 1 view .LVU599
 1656 025c 201F     		subs	r0, r4, #4
 608:lvgl/src/extra/libs/sjpg/lv_sjpg.c **** 
 1657              		.loc 1 608 18 discriminator 1 view .LVU600
 1658 025e 1849     		ldr	r1, .L136+12
 1659 0260 3844     		add	r0, r0, r7
 1660 0262 FFF7FEFF 		bl	strcmp
 1661              	.LVL187:
 608:lvgl/src/extra/libs/sjpg/lv_sjpg.c **** 
 1662              		.loc 1 608 16 discriminator 2 view .LVU601
 1663 0266 0028     		cmp	r0, #0
 1664 0268 00F0E580 		beq	.L119
 1665              	.LBE32:
 705:lvgl/src/extra/libs/sjpg/lv_sjpg.c **** }
 1666              		.loc 1 705 12 view .LVU602
 1667 026c 0026     		movs	r6, #0
 1668 026e E6E7     		b	.L61
 1669              	.L118:
 1670              	.LBB41:
 1671              	.LBB33:
 507:lvgl/src/extra/libs/sjpg/lv_sjpg.c ****             memset(buff, 0, sizeof(buff));
 1672              		.loc 1 507 13 is_stmt 1 view .LVU603
 508:lvgl/src/extra/libs/sjpg/lv_sjpg.c **** 
 1673              		.loc 1 508 13 view .LVU604
 1674 0270 0023     		movs	r3, #0
 1675 0272 1093     		str	r3, [sp, #64]
 1676 0274 1193     		str	r3, [sp, #68]
 1677 0276 1293     		str	r3, [sp, #72]
 1678 0278 1393     		str	r3, [sp, #76]
 1679 027a 1493     		str	r3, [sp, #80]
 1680 027c ADF85430 		strh	r3, [sp, #84]	@ movhi
 511:lvgl/src/extra/libs/sjpg/lv_sjpg.c ****             lv_fs_res_t res = lv_fs_open(&lv_file, fn, LV_FS_MODE_RD);
 1681              		.loc 1 511 13 view .LVU605
 512:lvgl/src/extra/libs/sjpg/lv_sjpg.c ****             if(res != LV_FS_RES_OK) {
 1682              		.loc 1 512 13 view .LVU606
 512:lvgl/src/extra/libs/sjpg/lv_sjpg.c ****             if(res != LV_FS_RES_OK) {
ARM GAS  C:\usertemp\ccKDNimi.s 			page 55


 1683              		.loc 1 512 31 is_stmt 0 view .LVU607
 1684 0280 0222     		movs	r2, #2
 1685 0282 3946     		mov	r1, r7
 1686 0284 06A8     		add	r0, sp, #24
 1687 0286 FFF7FEFF 		bl	lv_fs_open
 1688              	.LVL188:
 513:lvgl/src/extra/libs/sjpg/lv_sjpg.c ****                 return 78;
 1689              		.loc 1 513 13 is_stmt 1 view .LVU608
 513:lvgl/src/extra/libs/sjpg/lv_sjpg.c ****                 return 78;
 1690              		.loc 1 513 15 is_stmt 0 view .LVU609
 1691 028a 0446     		mov	r4, r0
 1692 028c 08B1     		cbz	r0, .L120
 514:lvgl/src/extra/libs/sjpg/lv_sjpg.c ****             }
 1693              		.loc 1 514 24 view .LVU610
 1694 028e 4E26     		movs	r6, #78
 1695 0290 D5E7     		b	.L61
 1696              	.L120:
 518:lvgl/src/extra/libs/sjpg/lv_sjpg.c ****             res = lv_fs_read(&lv_file, buff, 22, &rn);
 1697              		.loc 1 518 13 is_stmt 1 view .LVU611
 519:lvgl/src/extra/libs/sjpg/lv_sjpg.c ****             if(res != LV_FS_RES_OK || rn != 22) {
 1698              		.loc 1 519 13 view .LVU612
 519:lvgl/src/extra/libs/sjpg/lv_sjpg.c ****             if(res != LV_FS_RES_OK || rn != 22) {
 1699              		.loc 1 519 19 is_stmt 0 view .LVU613
 1700 0292 03AB     		add	r3, sp, #12
 1701 0294 1622     		movs	r2, #22
 1702 0296 10A9     		add	r1, sp, #64
 1703 0298 06A8     		add	r0, sp, #24
 1704              	.LVL189:
 519:lvgl/src/extra/libs/sjpg/lv_sjpg.c ****             if(res != LV_FS_RES_OK || rn != 22) {
 1705              		.loc 1 519 19 view .LVU614
 1706 029a FFF7FEFF 		bl	lv_fs_read
 1707              	.LVL190:
 520:lvgl/src/extra/libs/sjpg/lv_sjpg.c ****                 lv_fs_close(&lv_file);
 1708              		.loc 1 520 13 is_stmt 1 view .LVU615
 520:lvgl/src/extra/libs/sjpg/lv_sjpg.c ****                 lv_fs_close(&lv_file);
 1709              		.loc 1 520 15 is_stmt 0 view .LVU616
 1710 029e 8046     		mov	r8, r0
 1711 02a0 10B9     		cbnz	r0, .L78
 520:lvgl/src/extra/libs/sjpg/lv_sjpg.c ****                 lv_fs_close(&lv_file);
 1712              		.loc 1 520 42 discriminator 1 view .LVU617
 1713 02a2 039B     		ldr	r3, [sp, #12]
 520:lvgl/src/extra/libs/sjpg/lv_sjpg.c ****                 lv_fs_close(&lv_file);
 1714              		.loc 1 520 36 discriminator 1 view .LVU618
 1715 02a4 162B     		cmp	r3, #22
 1716 02a6 0DD0     		beq	.L79
 1717              	.L78:
 521:lvgl/src/extra/libs/sjpg/lv_sjpg.c ****                 return LV_RES_INV;
 1718              		.loc 1 521 17 is_stmt 1 view .LVU619
 1719 02a8 06A8     		add	r0, sp, #24
 1720              	.LVL191:
 521:lvgl/src/extra/libs/sjpg/lv_sjpg.c ****                 return LV_RES_INV;
 1721              		.loc 1 521 17 is_stmt 0 view .LVU620
 1722 02aa FFF7FEFF 		bl	lv_fs_close
 1723              	.LVL192:
 522:lvgl/src/extra/libs/sjpg/lv_sjpg.c ****             }
 1724              		.loc 1 522 17 is_stmt 1 view .LVU621
 522:lvgl/src/extra/libs/sjpg/lv_sjpg.c ****             }
ARM GAS  C:\usertemp\ccKDNimi.s 			page 56


 1725              		.loc 1 522 24 is_stmt 0 view .LVU622
 1726 02ae 2646     		mov	r6, r4
 1727 02b0 C5E7     		b	.L61
 1728              	.L137:
 1729 02b2 00BF     		.align	2
 1730              	.L136:
 1731 02b4 00000000 		.word	.LC1
 1732 02b8 00000000 		.word	input_func
 1733 02bc 08000000 		.word	.LC2
 1734 02c0 10000000 		.word	.LC3
 1735              	.LVL193:
 1736              	.L79:
 525:lvgl/src/extra/libs/sjpg/lv_sjpg.c **** 
 1737              		.loc 1 525 13 is_stmt 1 view .LVU623
 525:lvgl/src/extra/libs/sjpg/lv_sjpg.c **** 
 1738              		.loc 1 525 16 is_stmt 0 view .LVU624
 1739 02c4 AE49     		ldr	r1, .L138
 1740 02c6 10A8     		add	r0, sp, #64
 1741              	.LVL194:
 525:lvgl/src/extra/libs/sjpg/lv_sjpg.c **** 
 1742              		.loc 1 525 16 view .LVU625
 1743 02c8 FFF7FEFF 		bl	strcmp
 1744              	.LVL195:
 525:lvgl/src/extra/libs/sjpg/lv_sjpg.c **** 
 1745              		.loc 1 525 15 discriminator 1 view .LVU626
 1746 02cc 0028     		cmp	r0, #0
 1747 02ce 40F0B080 		bne	.L80
 1748              	.LBB34:
 527:lvgl/src/extra/libs/sjpg/lv_sjpg.c ****                 if(sjpeg == NULL) {
 1749              		.loc 1 527 17 is_stmt 1 view .LVU627
 527:lvgl/src/extra/libs/sjpg/lv_sjpg.c ****                 if(sjpeg == NULL) {
 1750              		.loc 1 527 25 is_stmt 0 view .LVU628
 1751 02d2 6F6A     		ldr	r7, [r5, #36]
 1752              	.LVL196:
 528:lvgl/src/extra/libs/sjpg/lv_sjpg.c ****                     sjpeg = lv_mem_alloc(sizeof(SJPEG));
 1753              		.loc 1 528 17 is_stmt 1 view .LVU629
 528:lvgl/src/extra/libs/sjpg/lv_sjpg.c ****                     sjpeg = lv_mem_alloc(sizeof(SJPEG));
 1754              		.loc 1 528 19 is_stmt 0 view .LVU630
 1755 02d4 002F     		cmp	r7, #0
 1756 02d6 4AD0     		beq	.L121
 1757              	.L81:
 541:lvgl/src/extra/libs/sjpg/lv_sjpg.c ****                 data += 14;
 1758              		.loc 1 541 17 is_stmt 1 view .LVU631
 1759              	.LVL197:
 542:lvgl/src/extra/libs/sjpg/lv_sjpg.c **** 
 1760              		.loc 1 542 17 view .LVU632
 544:lvgl/src/extra/libs/sjpg/lv_sjpg.c ****                 sjpeg->sjpeg_x_res |= *data++ << 8;
 1761              		.loc 1 544 17 view .LVU633
 544:lvgl/src/extra/libs/sjpg/lv_sjpg.c ****                 sjpeg->sjpeg_x_res |= *data++ << 8;
 1762              		.loc 1 544 38 is_stmt 0 view .LVU634
 1763 02d8 9DF84E30 		ldrb	r3, [sp, #78]	@ zero_extendqisi2
 544:lvgl/src/extra/libs/sjpg/lv_sjpg.c ****                 sjpeg->sjpeg_x_res |= *data++ << 8;
 1764              		.loc 1 544 36 view .LVU635
 1765 02dc BB60     		str	r3, [r7, #8]
 545:lvgl/src/extra/libs/sjpg/lv_sjpg.c **** 
 1766              		.loc 1 545 17 is_stmt 1 view .LVU636
 1767              	.LVL198:
ARM GAS  C:\usertemp\ccKDNimi.s 			page 57


 545:lvgl/src/extra/libs/sjpg/lv_sjpg.c **** 
 1768              		.loc 1 545 39 is_stmt 0 view .LVU637
 1769 02de 9DF84F20 		ldrb	r2, [sp, #79]	@ zero_extendqisi2
 545:lvgl/src/extra/libs/sjpg/lv_sjpg.c **** 
 1770              		.loc 1 545 36 view .LVU638
 1771 02e2 43EA0223 		orr	r3, r3, r2, lsl #8
 1772 02e6 BB60     		str	r3, [r7, #8]
 547:lvgl/src/extra/libs/sjpg/lv_sjpg.c ****                 sjpeg->sjpeg_y_res |= *data++ << 8;
 1773              		.loc 1 547 17 is_stmt 1 view .LVU639
 1774              	.LVL199:
 547:lvgl/src/extra/libs/sjpg/lv_sjpg.c ****                 sjpeg->sjpeg_y_res |= *data++ << 8;
 1775              		.loc 1 547 38 is_stmt 0 view .LVU640
 1776 02e8 9DF85030 		ldrb	r3, [sp, #80]	@ zero_extendqisi2
 547:lvgl/src/extra/libs/sjpg/lv_sjpg.c ****                 sjpeg->sjpeg_y_res |= *data++ << 8;
 1777              		.loc 1 547 36 view .LVU641
 1778 02ec FB60     		str	r3, [r7, #12]
 548:lvgl/src/extra/libs/sjpg/lv_sjpg.c **** 
 1779              		.loc 1 548 17 is_stmt 1 view .LVU642
 1780              	.LVL200:
 548:lvgl/src/extra/libs/sjpg/lv_sjpg.c **** 
 1781              		.loc 1 548 39 is_stmt 0 view .LVU643
 1782 02ee 9DF85120 		ldrb	r2, [sp, #81]	@ zero_extendqisi2
 548:lvgl/src/extra/libs/sjpg/lv_sjpg.c **** 
 1783              		.loc 1 548 36 view .LVU644
 1784 02f2 43EA0223 		orr	r3, r3, r2, lsl #8
 1785 02f6 FB60     		str	r3, [r7, #12]
 550:lvgl/src/extra/libs/sjpg/lv_sjpg.c ****                 sjpeg->sjpeg_total_frames |= *data++ << 8;
 1786              		.loc 1 550 17 is_stmt 1 view .LVU645
 1787              	.LVL201:
 550:lvgl/src/extra/libs/sjpg/lv_sjpg.c ****                 sjpeg->sjpeg_total_frames |= *data++ << 8;
 1788              		.loc 1 550 45 is_stmt 0 view .LVU646
 1789 02f8 9DF85200 		ldrb	r0, [sp, #82]	@ zero_extendqisi2
 550:lvgl/src/extra/libs/sjpg/lv_sjpg.c ****                 sjpeg->sjpeg_total_frames |= *data++ << 8;
 1790              		.loc 1 550 43 view .LVU647
 1791 02fc 3861     		str	r0, [r7, #16]
 551:lvgl/src/extra/libs/sjpg/lv_sjpg.c **** 
 1792              		.loc 1 551 17 is_stmt 1 view .LVU648
 1793              	.LVL202:
 551:lvgl/src/extra/libs/sjpg/lv_sjpg.c **** 
 1794              		.loc 1 551 46 is_stmt 0 view .LVU649
 1795 02fe 9DF85330 		ldrb	r3, [sp, #83]	@ zero_extendqisi2
 551:lvgl/src/extra/libs/sjpg/lv_sjpg.c **** 
 1796              		.loc 1 551 43 view .LVU650
 1797 0302 40EA0320 		orr	r0, r0, r3, lsl #8
 1798 0306 3861     		str	r0, [r7, #16]
 553:lvgl/src/extra/libs/sjpg/lv_sjpg.c ****                 sjpeg->sjpeg_single_frame_height |= *data++ << 8;
 1799              		.loc 1 553 17 is_stmt 1 view .LVU651
 1800              	.LVL203:
 553:lvgl/src/extra/libs/sjpg/lv_sjpg.c ****                 sjpeg->sjpeg_single_frame_height |= *data++ << 8;
 1801              		.loc 1 553 52 is_stmt 0 view .LVU652
 1802 0308 9DF85430 		ldrb	r3, [sp, #84]	@ zero_extendqisi2
 553:lvgl/src/extra/libs/sjpg/lv_sjpg.c ****                 sjpeg->sjpeg_single_frame_height |= *data++ << 8;
 1803              		.loc 1 553 50 view .LVU653
 1804 030c 7B61     		str	r3, [r7, #20]
 554:lvgl/src/extra/libs/sjpg/lv_sjpg.c **** 
 1805              		.loc 1 554 17 is_stmt 1 view .LVU654
 1806              	.LVL204:
ARM GAS  C:\usertemp\ccKDNimi.s 			page 58


 554:lvgl/src/extra/libs/sjpg/lv_sjpg.c **** 
 1807              		.loc 1 554 53 is_stmt 0 view .LVU655
 1808 030e 9DF85520 		ldrb	r2, [sp, #85]	@ zero_extendqisi2
 554:lvgl/src/extra/libs/sjpg/lv_sjpg.c **** 
 1809              		.loc 1 554 50 view .LVU656
 1810 0312 43EA0223 		orr	r3, r3, r2, lsl #8
 1811 0316 7B61     		str	r3, [r7, #20]
 556:lvgl/src/extra/libs/sjpg/lv_sjpg.c ****                 sjpeg->frame_base_offset = lv_mem_alloc(sizeof(int) * sjpeg->sjpeg_total_frames);
 1812              		.loc 1 556 17 is_stmt 1 view .LVU657
 556:lvgl/src/extra/libs/sjpg/lv_sjpg.c ****                 sjpeg->frame_base_offset = lv_mem_alloc(sizeof(int) * sjpeg->sjpeg_total_frames);
 1813              		.loc 1 556 41 is_stmt 0 view .LVU658
 1814 0318 0023     		movs	r3, #0
 1815 031a FB61     		str	r3, [r7, #28]
 557:lvgl/src/extra/libs/sjpg/lv_sjpg.c ****                 if(! sjpeg->frame_base_offset) {
 1816              		.loc 1 557 17 is_stmt 1 view .LVU659
 557:lvgl/src/extra/libs/sjpg/lv_sjpg.c ****                 if(! sjpeg->frame_base_offset) {
 1817              		.loc 1 557 44 is_stmt 0 view .LVU660
 1818 031c 8000     		lsls	r0, r0, #2
 1819 031e FFF7FEFF 		bl	lv_mem_alloc
 1820              	.LVL205:
 557:lvgl/src/extra/libs/sjpg/lv_sjpg.c ****                 if(! sjpeg->frame_base_offset) {
 1821              		.loc 1 557 42 discriminator 1 view .LVU661
 1822 0322 3862     		str	r0, [r7, #32]
 558:lvgl/src/extra/libs/sjpg/lv_sjpg.c ****                     lv_fs_close(&lv_file);
 1823              		.loc 1 558 17 is_stmt 1 view .LVU662
 558:lvgl/src/extra/libs/sjpg/lv_sjpg.c ****                     lv_fs_close(&lv_file);
 1824              		.loc 1 558 19 is_stmt 0 view .LVU663
 1825 0324 0028     		cmp	r0, #0
 1826 0326 38D0     		beq	.L122
 563:lvgl/src/extra/libs/sjpg/lv_sjpg.c ****                 sjpeg->frame_base_offset[0] = img_frame_start_offset; //pointer used to save intege
 1827              		.loc 1 563 17 is_stmt 1 view .LVU664
 563:lvgl/src/extra/libs/sjpg/lv_sjpg.c ****                 sjpeg->frame_base_offset[0] = img_frame_start_offset; //pointer used to save intege
 1828              		.loc 1 563 84 is_stmt 0 view .LVU665
 1829 0328 3B69     		ldr	r3, [r7, #16]
 563:lvgl/src/extra/libs/sjpg/lv_sjpg.c ****                 sjpeg->frame_base_offset[0] = img_frame_start_offset; //pointer used to save intege
 1830              		.loc 1 563 77 view .LVU666
 1831 032a 0B33     		adds	r3, r3, #11
 563:lvgl/src/extra/libs/sjpg/lv_sjpg.c ****                 sjpeg->frame_base_offset[0] = img_frame_start_offset; //pointer used to save intege
 1832              		.loc 1 563 21 view .LVU667
 1833 032c 5B00     		lsls	r3, r3, #1
 1834              	.LVL206:
 564:lvgl/src/extra/libs/sjpg/lv_sjpg.c **** 
 1835              		.loc 1 564 17 is_stmt 1 view .LVU668
 564:lvgl/src/extra/libs/sjpg/lv_sjpg.c **** 
 1836              		.loc 1 564 45 is_stmt 0 view .LVU669
 1837 032e 0360     		str	r3, [r0]
 566:lvgl/src/extra/libs/sjpg/lv_sjpg.c ****                     res = lv_fs_read(&lv_file, buff, 2, &rn);
 1838              		.loc 1 566 17 is_stmt 1 view .LVU670
 1839              	.LBB35:
 566:lvgl/src/extra/libs/sjpg/lv_sjpg.c ****                     res = lv_fs_read(&lv_file, buff, 2, &rn);
 1840              		.loc 1 566 21 view .LVU671
 1841              	.LVL207:
 566:lvgl/src/extra/libs/sjpg/lv_sjpg.c ****                     res = lv_fs_read(&lv_file, buff, 2, &rn);
 1842              		.loc 1 566 25 is_stmt 0 view .LVU672
 1843 0330 0124     		movs	r4, #1
 1844              	.LVL208:
 1845              	.L84:
ARM GAS  C:\usertemp\ccKDNimi.s 			page 59


 566:lvgl/src/extra/libs/sjpg/lv_sjpg.c ****                     res = lv_fs_read(&lv_file, buff, 2, &rn);
 1846              		.loc 1 566 34 is_stmt 1 discriminator 1 view .LVU673
 566:lvgl/src/extra/libs/sjpg/lv_sjpg.c ****                     res = lv_fs_read(&lv_file, buff, 2, &rn);
 1847              		.loc 1 566 42 is_stmt 0 discriminator 1 view .LVU674
 1848 0332 3B69     		ldr	r3, [r7, #16]
 566:lvgl/src/extra/libs/sjpg/lv_sjpg.c ****                     res = lv_fs_read(&lv_file, buff, 2, &rn);
 1849              		.loc 1 566 34 discriminator 1 view .LVU675
 1850 0334 A342     		cmp	r3, r4
 1851 0336 3DDD     		ble	.L123
 1852              	.LBB36:
 567:lvgl/src/extra/libs/sjpg/lv_sjpg.c ****                     if(res != LV_FS_RES_OK || rn != 2) {
 1853              		.loc 1 567 21 is_stmt 1 view .LVU676
 567:lvgl/src/extra/libs/sjpg/lv_sjpg.c ****                     if(res != LV_FS_RES_OK || rn != 2) {
 1854              		.loc 1 567 27 is_stmt 0 view .LVU677
 1855 0338 03AB     		add	r3, sp, #12
 1856 033a 0222     		movs	r2, #2
 1857 033c 10A9     		add	r1, sp, #64
 1858 033e 06A8     		add	r0, sp, #24
 1859 0340 FFF7FEFF 		bl	lv_fs_read
 1860              	.LVL209:
 568:lvgl/src/extra/libs/sjpg/lv_sjpg.c ****                         lv_fs_close(&lv_file);
 1861              		.loc 1 568 21 is_stmt 1 view .LVU678
 568:lvgl/src/extra/libs/sjpg/lv_sjpg.c ****                         lv_fs_close(&lv_file);
 1862              		.loc 1 568 23 is_stmt 0 view .LVU679
 1863 0344 88BB     		cbnz	r0, .L85
 568:lvgl/src/extra/libs/sjpg/lv_sjpg.c ****                         lv_fs_close(&lv_file);
 1864              		.loc 1 568 50 discriminator 1 view .LVU680
 1865 0346 039B     		ldr	r3, [sp, #12]
 568:lvgl/src/extra/libs/sjpg/lv_sjpg.c ****                         lv_fs_close(&lv_file);
 1866              		.loc 1 568 44 discriminator 1 view .LVU681
 1867 0348 022B     		cmp	r3, #2
 1868 034a 2ED1     		bne	.L85
 573:lvgl/src/extra/libs/sjpg/lv_sjpg.c ****                     int offset = *data++;
 1869              		.loc 1 573 21 is_stmt 1 view .LVU682
 1870              	.LVL210:
 574:lvgl/src/extra/libs/sjpg/lv_sjpg.c ****                     offset |= *data++ << 8;
 1871              		.loc 1 574 21 view .LVU683
 574:lvgl/src/extra/libs/sjpg/lv_sjpg.c ****                     offset |= *data++ << 8;
 1872              		.loc 1 574 34 is_stmt 0 view .LVU684
 1873 034c 9DF84020 		ldrb	r2, [sp, #64]	@ zero_extendqisi2
 1874              	.LVL211:
 575:lvgl/src/extra/libs/sjpg/lv_sjpg.c ****                     sjpeg->frame_base_offset[i] = sjpeg->frame_base_offset[i - 1] + offset;
 1875              		.loc 1 575 21 is_stmt 1 view .LVU685
 575:lvgl/src/extra/libs/sjpg/lv_sjpg.c ****                     sjpeg->frame_base_offset[i] = sjpeg->frame_base_offset[i - 1] + offset;
 1876              		.loc 1 575 31 is_stmt 0 view .LVU686
 1877 0350 9DF84130 		ldrb	r3, [sp, #65]	@ zero_extendqisi2
 575:lvgl/src/extra/libs/sjpg/lv_sjpg.c ****                     sjpeg->frame_base_offset[i] = sjpeg->frame_base_offset[i - 1] + offset;
 1878              		.loc 1 575 28 view .LVU687
 1879 0354 42EA0322 		orr	r2, r2, r3, lsl #8
 1880              	.LVL212:
 576:lvgl/src/extra/libs/sjpg/lv_sjpg.c ****                 }
 1881              		.loc 1 576 21 is_stmt 1 view .LVU688
 576:lvgl/src/extra/libs/sjpg/lv_sjpg.c ****                 }
 1882              		.loc 1 576 56 is_stmt 0 view .LVU689
 1883 0358 396A     		ldr	r1, [r7, #32]
 576:lvgl/src/extra/libs/sjpg/lv_sjpg.c ****                 }
 1884              		.loc 1 576 75 view .LVU690
ARM GAS  C:\usertemp\ccKDNimi.s 			page 60


 1885 035a 6FF04043 		mvn	r3, #-1073741824
 1886 035e 2344     		add	r3, r3, r4
 1887 0360 51F82330 		ldr	r3, [r1, r3, lsl #2]
 576:lvgl/src/extra/libs/sjpg/lv_sjpg.c ****                 }
 1888              		.loc 1 576 83 view .LVU691
 1889 0364 1344     		add	r3, r3, r2
 576:lvgl/src/extra/libs/sjpg/lv_sjpg.c ****                 }
 1890              		.loc 1 576 49 view .LVU692
 1891 0366 41F82430 		str	r3, [r1, r4, lsl #2]
 1892              	.LBE36:
 566:lvgl/src/extra/libs/sjpg/lv_sjpg.c ****                     res = lv_fs_read(&lv_file, buff, 2, &rn);
 1893              		.loc 1 566 65 is_stmt 1 discriminator 2 view .LVU693
 1894 036a 0134     		adds	r4, r4, #1
 1895              	.LVL213:
 566:lvgl/src/extra/libs/sjpg/lv_sjpg.c ****                     res = lv_fs_read(&lv_file, buff, 2, &rn);
 1896              		.loc 1 566 65 is_stmt 0 discriminator 2 view .LVU694
 1897 036c E1E7     		b	.L84
 1898              	.LVL214:
 1899              	.L121:
 566:lvgl/src/extra/libs/sjpg/lv_sjpg.c ****                     res = lv_fs_read(&lv_file, buff, 2, &rn);
 1900              		.loc 1 566 65 discriminator 2 view .LVU695
 1901              	.LBE35:
 529:lvgl/src/extra/libs/sjpg/lv_sjpg.c **** 
 1902              		.loc 1 529 21 is_stmt 1 view .LVU696
 529:lvgl/src/extra/libs/sjpg/lv_sjpg.c **** 
 1903              		.loc 1 529 29 is_stmt 0 view .LVU697
 1904 036e 5820     		movs	r0, #88
 1905 0370 FFF7FEFF 		bl	lv_mem_alloc
 1906              	.LVL215:
 531:lvgl/src/extra/libs/sjpg/lv_sjpg.c ****                         lv_fs_close(&lv_file);
 1907              		.loc 1 531 21 is_stmt 1 view .LVU698
 531:lvgl/src/extra/libs/sjpg/lv_sjpg.c ****                         lv_fs_close(&lv_file);
 1908              		.loc 1 531 23 is_stmt 0 view .LVU699
 1909 0374 0746     		mov	r7, r0
 1910 0376 58B1     		cbz	r0, .L124
 535:lvgl/src/extra/libs/sjpg/lv_sjpg.c **** 
 1911              		.loc 1 535 21 is_stmt 1 view .LVU700
 1912 0378 5822     		movs	r2, #88
 1913 037a 0021     		movs	r1, #0
 1914 037c FFF7FEFF 		bl	memset
 1915              	.LVL216:
 537:lvgl/src/extra/libs/sjpg/lv_sjpg.c ****                     sjpeg->sjpeg_data = (uint8_t *)((lv_img_dsc_t *)(dsc->src))->data;
 1916              		.loc 1 537 21 view .LVU701
 537:lvgl/src/extra/libs/sjpg/lv_sjpg.c ****                     sjpeg->sjpeg_data = (uint8_t *)((lv_img_dsc_t *)(dsc->src))->data;
 1917              		.loc 1 537 36 is_stmt 0 view .LVU702
 1918 0380 6F62     		str	r7, [r5, #36]
 538:lvgl/src/extra/libs/sjpg/lv_sjpg.c ****                     sjpeg->sjpeg_data_size = ((lv_img_dsc_t *)(dsc->src))->data_size;
 1919              		.loc 1 538 21 is_stmt 1 view .LVU703
 538:lvgl/src/extra/libs/sjpg/lv_sjpg.c ****                     sjpeg->sjpeg_data_size = ((lv_img_dsc_t *)(dsc->src))->data_size;
 1920              		.loc 1 538 73 is_stmt 0 view .LVU704
 1921 0382 6B68     		ldr	r3, [r5, #4]
 538:lvgl/src/extra/libs/sjpg/lv_sjpg.c ****                     sjpeg->sjpeg_data_size = ((lv_img_dsc_t *)(dsc->src))->data_size;
 1922              		.loc 1 538 80 view .LVU705
 1923 0384 9B68     		ldr	r3, [r3, #8]
 538:lvgl/src/extra/libs/sjpg/lv_sjpg.c ****                     sjpeg->sjpeg_data_size = ((lv_img_dsc_t *)(dsc->src))->data_size;
 1924              		.loc 1 538 39 view .LVU706
 1925 0386 3B60     		str	r3, [r7]
ARM GAS  C:\usertemp\ccKDNimi.s 			page 61


 539:lvgl/src/extra/libs/sjpg/lv_sjpg.c ****                 }
 1926              		.loc 1 539 21 is_stmt 1 view .LVU707
 539:lvgl/src/extra/libs/sjpg/lv_sjpg.c ****                 }
 1927              		.loc 1 539 67 is_stmt 0 view .LVU708
 1928 0388 6B68     		ldr	r3, [r5, #4]
 539:lvgl/src/extra/libs/sjpg/lv_sjpg.c ****                 }
 1929              		.loc 1 539 74 view .LVU709
 1930 038a 5B68     		ldr	r3, [r3, #4]
 539:lvgl/src/extra/libs/sjpg/lv_sjpg.c ****                 }
 1931              		.loc 1 539 44 view .LVU710
 1932 038c 7B60     		str	r3, [r7, #4]
 1933 038e A3E7     		b	.L81
 1934              	.LVL217:
 1935              	.L124:
 532:lvgl/src/extra/libs/sjpg/lv_sjpg.c ****                         return LV_RES_INV;
 1936              		.loc 1 532 25 is_stmt 1 view .LVU711
 1937 0390 06A8     		add	r0, sp, #24
 1938              	.LVL218:
 532:lvgl/src/extra/libs/sjpg/lv_sjpg.c ****                         return LV_RES_INV;
 1939              		.loc 1 532 25 is_stmt 0 view .LVU712
 1940 0392 FFF7FEFF 		bl	lv_fs_close
 1941              	.LVL219:
 533:lvgl/src/extra/libs/sjpg/lv_sjpg.c ****                     }
 1942              		.loc 1 533 25 is_stmt 1 view .LVU713
 533:lvgl/src/extra/libs/sjpg/lv_sjpg.c ****                     }
 1943              		.loc 1 533 32 is_stmt 0 view .LVU714
 1944 0396 4646     		mov	r6, r8
 1945 0398 51E7     		b	.L61
 1946              	.LVL220:
 1947              	.L122:
 559:lvgl/src/extra/libs/sjpg/lv_sjpg.c ****                     lv_sjpg_cleanup(sjpeg);
 1948              		.loc 1 559 21 is_stmt 1 view .LVU715
 1949 039a 06A8     		add	r0, sp, #24
 1950 039c FFF7FEFF 		bl	lv_fs_close
 1951              	.LVL221:
 560:lvgl/src/extra/libs/sjpg/lv_sjpg.c ****                     return LV_RES_INV;
 1952              		.loc 1 560 21 view .LVU716
 1953 03a0 3846     		mov	r0, r7
 1954 03a2 FFF7FEFF 		bl	lv_sjpg_cleanup
 1955              	.LVL222:
 561:lvgl/src/extra/libs/sjpg/lv_sjpg.c ****                 }
 1956              		.loc 1 561 21 view .LVU717
 561:lvgl/src/extra/libs/sjpg/lv_sjpg.c ****                 }
 1957              		.loc 1 561 28 is_stmt 0 view .LVU718
 1958 03a6 4646     		mov	r6, r8
 1959 03a8 49E7     		b	.L61
 1960              	.LVL223:
 1961              	.L85:
 1962              	.LBB38:
 1963              	.LBB37:
 569:lvgl/src/extra/libs/sjpg/lv_sjpg.c ****                         return LV_RES_INV;
 1964              		.loc 1 569 25 is_stmt 1 view .LVU719
 1965 03aa 06A8     		add	r0, sp, #24
 1966              	.LVL224:
 569:lvgl/src/extra/libs/sjpg/lv_sjpg.c ****                         return LV_RES_INV;
 1967              		.loc 1 569 25 is_stmt 0 view .LVU720
 1968 03ac FFF7FEFF 		bl	lv_fs_close
ARM GAS  C:\usertemp\ccKDNimi.s 			page 62


 1969              	.LVL225:
 570:lvgl/src/extra/libs/sjpg/lv_sjpg.c ****                     }
 1970              		.loc 1 570 25 is_stmt 1 view .LVU721
 570:lvgl/src/extra/libs/sjpg/lv_sjpg.c ****                     }
 1971              		.loc 1 570 32 is_stmt 0 view .LVU722
 1972 03b0 4646     		mov	r6, r8
 1973 03b2 44E7     		b	.L61
 1974              	.LVL226:
 1975              	.L123:
 570:lvgl/src/extra/libs/sjpg/lv_sjpg.c ****                     }
 1976              		.loc 1 570 32 view .LVU723
 1977              	.LBE37:
 1978              	.LBE38:
 579:lvgl/src/extra/libs/sjpg/lv_sjpg.c ****                 sjpeg->frame_cache = (void *)lv_mem_alloc(sjpeg->sjpeg_x_res * sjpeg->sjpeg_single_
 1979              		.loc 1 579 17 is_stmt 1 view .LVU724
 579:lvgl/src/extra/libs/sjpg/lv_sjpg.c ****                 sjpeg->frame_cache = (void *)lv_mem_alloc(sjpeg->sjpeg_x_res * sjpeg->sjpeg_single_
 1980              		.loc 1 579 48 is_stmt 0 view .LVU725
 1981 03b4 4FF0FF33 		mov	r3, #-1
 1982 03b8 BB61     		str	r3, [r7, #24]
 580:lvgl/src/extra/libs/sjpg/lv_sjpg.c ****                 if(! sjpeg->frame_cache) {
 1983              		.loc 1 580 17 is_stmt 1 view .LVU726
 580:lvgl/src/extra/libs/sjpg/lv_sjpg.c ****                 if(! sjpeg->frame_cache) {
 1984              		.loc 1 580 64 is_stmt 0 view .LVU727
 1985 03ba B868     		ldr	r0, [r7, #8]
 580:lvgl/src/extra/libs/sjpg/lv_sjpg.c ****                 if(! sjpeg->frame_cache) {
 1986              		.loc 1 580 85 view .LVU728
 1987 03bc 7B69     		ldr	r3, [r7, #20]
 580:lvgl/src/extra/libs/sjpg/lv_sjpg.c ****                 if(! sjpeg->frame_cache) {
 1988              		.loc 1 580 78 view .LVU729
 1989 03be 03FB00F0 		mul	r0, r3, r0
 580:lvgl/src/extra/libs/sjpg/lv_sjpg.c ****                 if(! sjpeg->frame_cache) {
 1990              		.loc 1 580 38 view .LVU730
 1991 03c2 00EB4000 		add	r0, r0, r0, lsl #1
 1992 03c6 FFF7FEFF 		bl	lv_mem_alloc
 1993              	.LVL227:
 580:lvgl/src/extra/libs/sjpg/lv_sjpg.c ****                 if(! sjpeg->frame_cache) {
 1994              		.loc 1 580 36 discriminator 1 view .LVU731
 1995 03ca 7862     		str	r0, [r7, #36]
 581:lvgl/src/extra/libs/sjpg/lv_sjpg.c ****                     lv_fs_close(&lv_file);
 1996              		.loc 1 581 17 is_stmt 1 view .LVU732
 581:lvgl/src/extra/libs/sjpg/lv_sjpg.c ****                     lv_fs_close(&lv_file);
 1997              		.loc 1 581 19 is_stmt 0 view .LVU733
 1998 03cc C8B1     		cbz	r0, .L125
 586:lvgl/src/extra/libs/sjpg/lv_sjpg.c ****                 sjpeg->io.img_cache_x_res = sjpeg->sjpeg_x_res;
 1999              		.loc 1 586 17 is_stmt 1 view .LVU734
 586:lvgl/src/extra/libs/sjpg/lv_sjpg.c ****                 sjpeg->io.img_cache_x_res = sjpeg->sjpeg_x_res;
 2000              		.loc 1 586 42 is_stmt 0 view .LVU735
 2001 03ce 3864     		str	r0, [r7, #64]
 587:lvgl/src/extra/libs/sjpg/lv_sjpg.c ****                 sjpeg->workb =   lv_mem_alloc(TJPGD_WORKBUFF_SIZE);
 2002              		.loc 1 587 17 is_stmt 1 view .LVU736
 587:lvgl/src/extra/libs/sjpg/lv_sjpg.c ****                 sjpeg->workb =   lv_mem_alloc(TJPGD_WORKBUFF_SIZE);
 2003              		.loc 1 587 50 is_stmt 0 view .LVU737
 2004 03d0 BB68     		ldr	r3, [r7, #8]
 587:lvgl/src/extra/libs/sjpg/lv_sjpg.c ****                 sjpeg->workb =   lv_mem_alloc(TJPGD_WORKBUFF_SIZE);
 2005              		.loc 1 587 43 view .LVU738
 2006 03d2 7B64     		str	r3, [r7, #68]
 588:lvgl/src/extra/libs/sjpg/lv_sjpg.c ****                 if(! sjpeg->workb) {
ARM GAS  C:\usertemp\ccKDNimi.s 			page 63


 2007              		.loc 1 588 17 is_stmt 1 view .LVU739
 588:lvgl/src/extra/libs/sjpg/lv_sjpg.c ****                 if(! sjpeg->workb) {
 2008              		.loc 1 588 34 is_stmt 0 view .LVU740
 2009 03d4 4FF48050 		mov	r0, #4096
 2010 03d8 FFF7FEFF 		bl	lv_mem_alloc
 2011              	.LVL228:
 588:lvgl/src/extra/libs/sjpg/lv_sjpg.c ****                 if(! sjpeg->workb) {
 2012              		.loc 1 588 30 discriminator 1 view .LVU741
 2013 03dc B862     		str	r0, [r7, #40]
 589:lvgl/src/extra/libs/sjpg/lv_sjpg.c ****                     lv_fs_close(&lv_file);
 2014              		.loc 1 589 17 is_stmt 1 view .LVU742
 589:lvgl/src/extra/libs/sjpg/lv_sjpg.c ****                     lv_fs_close(&lv_file);
 2015              		.loc 1 589 19 is_stmt 0 view .LVU743
 2016 03de C0B1     		cbz	r0, .L126
 595:lvgl/src/extra/libs/sjpg/lv_sjpg.c ****                 if(! sjpeg->tjpeg_jd) {
 2017              		.loc 1 595 17 is_stmt 1 view .LVU744
 595:lvgl/src/extra/libs/sjpg/lv_sjpg.c ****                 if(! sjpeg->tjpeg_jd) {
 2018              		.loc 1 595 38 is_stmt 0 view .LVU745
 2019 03e0 7820     		movs	r0, #120
 2020 03e2 FFF7FEFF 		bl	lv_mem_alloc
 2021              	.LVL229:
 595:lvgl/src/extra/libs/sjpg/lv_sjpg.c ****                 if(! sjpeg->tjpeg_jd) {
 2022              		.loc 1 595 33 discriminator 1 view .LVU746
 2023 03e6 F862     		str	r0, [r7, #44]
 596:lvgl/src/extra/libs/sjpg/lv_sjpg.c ****                     lv_fs_close(&lv_file);
 2024              		.loc 1 596 17 is_stmt 1 view .LVU747
 596:lvgl/src/extra/libs/sjpg/lv_sjpg.c ****                     lv_fs_close(&lv_file);
 2025              		.loc 1 596 19 is_stmt 0 view .LVU748
 2026 03e8 D8B1     		cbz	r0, .L127
 602:lvgl/src/extra/libs/sjpg/lv_sjpg.c ****                 sjpeg->io.lv_file = lv_file;
 2027              		.loc 1 602 17 is_stmt 1 view .LVU749
 602:lvgl/src/extra/libs/sjpg/lv_sjpg.c ****                 sjpeg->io.lv_file = lv_file;
 2028              		.loc 1 602 32 is_stmt 0 view .LVU750
 2029 03ea 0123     		movs	r3, #1
 2030 03ec 87F83030 		strb	r3, [r7, #48]
 603:lvgl/src/extra/libs/sjpg/lv_sjpg.c ****                 dsc->img_data = NULL;
 2031              		.loc 1 603 17 is_stmt 1 view .LVU751
 603:lvgl/src/extra/libs/sjpg/lv_sjpg.c ****                 dsc->img_data = NULL;
 2032              		.loc 1 603 35 is_stmt 0 view .LVU752
 2033 03f0 3437     		adds	r7, r7, #52
 2034              	.LVL230:
 603:lvgl/src/extra/libs/sjpg/lv_sjpg.c ****                 dsc->img_data = NULL;
 2035              		.loc 1 603 35 view .LVU753
 2036 03f2 06AB     		add	r3, sp, #24
 2037 03f4 93E80700 		ldm	r3, {r0, r1, r2}
 2038 03f8 87E80700 		stm	r7, {r0, r1, r2}
 604:lvgl/src/extra/libs/sjpg/lv_sjpg.c ****                 return LV_RES_OK;
 2039              		.loc 1 604 17 is_stmt 1 view .LVU754
 604:lvgl/src/extra/libs/sjpg/lv_sjpg.c ****                 return LV_RES_OK;
 2040              		.loc 1 604 31 is_stmt 0 view .LVU755
 2041 03fc 0023     		movs	r3, #0
 2042 03fe AB61     		str	r3, [r5, #24]
 605:lvgl/src/extra/libs/sjpg/lv_sjpg.c ****             }
 2043              		.loc 1 605 17 is_stmt 1 view .LVU756
 605:lvgl/src/extra/libs/sjpg/lv_sjpg.c ****             }
 2044              		.loc 1 605 24 is_stmt 0 view .LVU757
 2045 0400 1DE7     		b	.L61
ARM GAS  C:\usertemp\ccKDNimi.s 			page 64


 2046              	.LVL231:
 2047              	.L125:
 582:lvgl/src/extra/libs/sjpg/lv_sjpg.c ****                     lv_sjpg_cleanup(sjpeg);
 2048              		.loc 1 582 21 is_stmt 1 view .LVU758
 2049 0402 06A8     		add	r0, sp, #24
 2050 0404 FFF7FEFF 		bl	lv_fs_close
 2051              	.LVL232:
 583:lvgl/src/extra/libs/sjpg/lv_sjpg.c ****                     return LV_RES_INV;
 2052              		.loc 1 583 21 view .LVU759
 2053 0408 3846     		mov	r0, r7
 2054 040a FFF7FEFF 		bl	lv_sjpg_cleanup
 2055              	.LVL233:
 584:lvgl/src/extra/libs/sjpg/lv_sjpg.c ****                 }
 2056              		.loc 1 584 21 view .LVU760
 584:lvgl/src/extra/libs/sjpg/lv_sjpg.c ****                 }
 2057              		.loc 1 584 28 is_stmt 0 view .LVU761
 2058 040e 4646     		mov	r6, r8
 2059 0410 15E7     		b	.L61
 2060              	.L126:
 590:lvgl/src/extra/libs/sjpg/lv_sjpg.c ****                     lv_sjpg_cleanup(sjpeg);
 2061              		.loc 1 590 21 is_stmt 1 view .LVU762
 2062 0412 06A8     		add	r0, sp, #24
 2063 0414 FFF7FEFF 		bl	lv_fs_close
 2064              	.LVL234:
 591:lvgl/src/extra/libs/sjpg/lv_sjpg.c ****                     return LV_RES_INV;
 2065              		.loc 1 591 21 view .LVU763
 2066 0418 3846     		mov	r0, r7
 2067 041a FFF7FEFF 		bl	lv_sjpg_cleanup
 2068              	.LVL235:
 592:lvgl/src/extra/libs/sjpg/lv_sjpg.c ****                 }
 2069              		.loc 1 592 21 view .LVU764
 592:lvgl/src/extra/libs/sjpg/lv_sjpg.c ****                 }
 2070              		.loc 1 592 28 is_stmt 0 view .LVU765
 2071 041e 4646     		mov	r6, r8
 2072 0420 0DE7     		b	.L61
 2073              	.L127:
 597:lvgl/src/extra/libs/sjpg/lv_sjpg.c ****                     lv_sjpg_cleanup(sjpeg);
 2074              		.loc 1 597 21 is_stmt 1 view .LVU766
 2075 0422 06A8     		add	r0, sp, #24
 2076 0424 FFF7FEFF 		bl	lv_fs_close
 2077              	.LVL236:
 598:lvgl/src/extra/libs/sjpg/lv_sjpg.c ****                     return LV_RES_INV;
 2078              		.loc 1 598 21 view .LVU767
 2079 0428 3846     		mov	r0, r7
 2080 042a FFF7FEFF 		bl	lv_sjpg_cleanup
 2081              	.LVL237:
 599:lvgl/src/extra/libs/sjpg/lv_sjpg.c ****                 }
 2082              		.loc 1 599 21 view .LVU768
 599:lvgl/src/extra/libs/sjpg/lv_sjpg.c ****                 }
 2083              		.loc 1 599 28 is_stmt 0 view .LVU769
 2084 042e 4646     		mov	r6, r8
 2085 0430 05E7     		b	.L61
 2086              	.LVL238:
 2087              	.L80:
 599:lvgl/src/extra/libs/sjpg/lv_sjpg.c ****                 }
 2088              		.loc 1 599 28 view .LVU770
 2089              	.LBE34:
ARM GAS  C:\usertemp\ccKDNimi.s 			page 65


 2090              	.LBE33:
 2091              	.LBE41:
 705:lvgl/src/extra/libs/sjpg/lv_sjpg.c **** }
 2092              		.loc 1 705 12 view .LVU771
 2093 0432 4646     		mov	r6, r8
 2094              	.LBB42:
 2095 0434 03E7     		b	.L61
 2096              	.LVL239:
 2097              	.L119:
 2098              	.LBB39:
 610:lvgl/src/extra/libs/sjpg/lv_sjpg.c ****             lv_fs_res_t res = lv_fs_open(&lv_file, fn, LV_FS_MODE_RD);
 2099              		.loc 1 610 13 is_stmt 1 view .LVU772
 611:lvgl/src/extra/libs/sjpg/lv_sjpg.c ****             if(res != LV_FS_RES_OK) {
 2100              		.loc 1 611 13 view .LVU773
 611:lvgl/src/extra/libs/sjpg/lv_sjpg.c ****             if(res != LV_FS_RES_OK) {
 2101              		.loc 1 611 31 is_stmt 0 view .LVU774
 2102 0436 0222     		movs	r2, #2
 2103 0438 3946     		mov	r1, r7
 2104 043a 03A8     		add	r0, sp, #12
 2105 043c FFF7FEFF 		bl	lv_fs_open
 2106              	.LVL240:
 612:lvgl/src/extra/libs/sjpg/lv_sjpg.c ****                 return LV_RES_INV;
 2107              		.loc 1 612 13 is_stmt 1 view .LVU775
 612:lvgl/src/extra/libs/sjpg/lv_sjpg.c ****                 return LV_RES_INV;
 2108              		.loc 1 612 15 is_stmt 0 view .LVU776
 2109 0440 8046     		mov	r8, r0
 2110 0442 0028     		cmp	r0, #0
 2111 0444 40F0A880 		bne	.L104
 616:lvgl/src/extra/libs/sjpg/lv_sjpg.c ****             if(sjpeg == NULL) {
 2112              		.loc 1 616 13 is_stmt 1 view .LVU777
 616:lvgl/src/extra/libs/sjpg/lv_sjpg.c ****             if(sjpeg == NULL) {
 2113              		.loc 1 616 21 is_stmt 0 view .LVU778
 2114 0448 6C6A     		ldr	r4, [r5, #36]
 2115              	.LVL241:
 617:lvgl/src/extra/libs/sjpg/lv_sjpg.c ****                 sjpeg = lv_mem_alloc(sizeof(SJPEG));
 2116              		.loc 1 617 13 is_stmt 1 view .LVU779
 617:lvgl/src/extra/libs/sjpg/lv_sjpg.c ****                 sjpeg = lv_mem_alloc(sizeof(SJPEG));
 2117              		.loc 1 617 15 is_stmt 0 view .LVU780
 2118 044a 44B3     		cbz	r4, .L128
 2119              	.LVL242:
 2120              	.L92:
 630:lvgl/src/extra/libs/sjpg/lv_sjpg.c ****             if(! workb_temp) {
 2121              		.loc 1 630 13 is_stmt 1 view .LVU781
 630:lvgl/src/extra/libs/sjpg/lv_sjpg.c ****             if(! workb_temp) {
 2122              		.loc 1 630 36 is_stmt 0 view .LVU782
 2123 044c 4FF48050 		mov	r0, #4096
 2124 0450 FFF7FEFF 		bl	lv_mem_alloc
 2125              	.LVL243:
 631:lvgl/src/extra/libs/sjpg/lv_sjpg.c ****                 lv_fs_close(&lv_file);
 2126              		.loc 1 631 13 is_stmt 1 view .LVU783
 631:lvgl/src/extra/libs/sjpg/lv_sjpg.c ****                 lv_fs_close(&lv_file);
 2127              		.loc 1 631 15 is_stmt 0 view .LVU784
 2128 0454 8146     		mov	r9, r0
 2129 0456 0028     		cmp	r0, #0
 2130 0458 37D0     		beq	.L129
 637:lvgl/src/extra/libs/sjpg/lv_sjpg.c ****             io_source_temp.type = SJPEG_IO_SOURCE_DISK;
 2131              		.loc 1 637 13 is_stmt 1 view .LVU785
ARM GAS  C:\usertemp\ccKDNimi.s 			page 66


 638:lvgl/src/extra/libs/sjpg/lv_sjpg.c ****             io_source_temp.raw_sjpg_data_next_read_pos = 0;
 2132              		.loc 1 638 13 view .LVU786
 638:lvgl/src/extra/libs/sjpg/lv_sjpg.c ****             io_source_temp.raw_sjpg_data_next_read_pos = 0;
 2133              		.loc 1 638 33 is_stmt 0 view .LVU787
 2134 045a 0123     		movs	r3, #1
 2135 045c 8DF81830 		strb	r3, [sp, #24]
 639:lvgl/src/extra/libs/sjpg/lv_sjpg.c ****             io_source_temp.img_cache_buff = NULL;
 2136              		.loc 1 639 13 is_stmt 1 view .LVU788
 639:lvgl/src/extra/libs/sjpg/lv_sjpg.c ****             io_source_temp.img_cache_buff = NULL;
 2137              		.loc 1 639 56 is_stmt 0 view .LVU789
 2138 0460 0023     		movs	r3, #0
 2139 0462 0F93     		str	r3, [sp, #60]
 640:lvgl/src/extra/libs/sjpg/lv_sjpg.c ****             io_source_temp.lv_file = lv_file;
 2140              		.loc 1 640 13 is_stmt 1 view .LVU790
 640:lvgl/src/extra/libs/sjpg/lv_sjpg.c ****             io_source_temp.lv_file = lv_file;
 2141              		.loc 1 640 43 is_stmt 0 view .LVU791
 2142 0464 0A93     		str	r3, [sp, #40]
 641:lvgl/src/extra/libs/sjpg/lv_sjpg.c **** 
 2143              		.loc 1 641 13 is_stmt 1 view .LVU792
 641:lvgl/src/extra/libs/sjpg/lv_sjpg.c **** 
 2144              		.loc 1 641 36 is_stmt 0 view .LVU793
 2145 0466 07AB     		add	r3, sp, #28
 2146 0468 03AA     		add	r2, sp, #12
 2147 046a 07CA     		ldm	r2, {r0, r1, r2}
 2148              	.LVL244:
 641:lvgl/src/extra/libs/sjpg/lv_sjpg.c **** 
 2149              		.loc 1 641 36 view .LVU794
 2150 046c 83E80700 		stm	r3, {r0, r1, r2}
 643:lvgl/src/extra/libs/sjpg/lv_sjpg.c **** 
 2151              		.loc 1 643 13 is_stmt 1 view .LVU795
 645:lvgl/src/extra/libs/sjpg/lv_sjpg.c **** 
 2152              		.loc 1 645 13 view .LVU796
 645:lvgl/src/extra/libs/sjpg/lv_sjpg.c **** 
 2153              		.loc 1 645 26 is_stmt 0 view .LVU797
 2154 0470 06AB     		add	r3, sp, #24
 2155 0472 0093     		str	r3, [sp]
 2156 0474 4FF48053 		mov	r3, #4096
 2157 0478 4A46     		mov	r2, r9
 2158 047a 4249     		ldr	r1, .L138+4
 2159 047c 10A8     		add	r0, sp, #64
 2160 047e FFF7FEFF 		bl	jd_prepare
 2161              	.LVL245:
 2162 0482 0746     		mov	r7, r0
 2163              	.LVL246:
 647:lvgl/src/extra/libs/sjpg/lv_sjpg.c **** 
 2164              		.loc 1 647 13 is_stmt 1 view .LVU798
 2165 0484 4846     		mov	r0, r9
 2166 0486 FFF7FEFF 		bl	lv_mem_free
 2167              	.LVL247:
 650:lvgl/src/extra/libs/sjpg/lv_sjpg.c ****                 sjpeg->sjpeg_x_res = jd_tmp.width;
 2168              		.loc 1 650 13 view .LVU799
 650:lvgl/src/extra/libs/sjpg/lv_sjpg.c ****                 sjpeg->sjpeg_x_res = jd_tmp.width;
 2169              		.loc 1 650 15 is_stmt 0 view .LVU800
 2170 048a 37B3     		cbz	r7, .L130
 698:lvgl/src/extra/libs/sjpg/lv_sjpg.c ****                 lv_fs_close(&lv_file);
 2171              		.loc 1 698 17 is_stmt 1 view .LVU801
 698:lvgl/src/extra/libs/sjpg/lv_sjpg.c ****                 lv_fs_close(&lv_file);
ARM GAS  C:\usertemp\ccKDNimi.s 			page 67


 2172              		.loc 1 698 23 is_stmt 0 view .LVU802
 2173 048c 686A     		ldr	r0, [r5, #36]
 698:lvgl/src/extra/libs/sjpg/lv_sjpg.c ****                 lv_fs_close(&lv_file);
 2174              		.loc 1 698 19 view .LVU803
 2175 048e 08B1     		cbz	r0, .L100
 698:lvgl/src/extra/libs/sjpg/lv_sjpg.c ****                 lv_fs_close(&lv_file);
 2176              		.loc 1 698 36 is_stmt 1 discriminator 1 view .LVU804
 2177 0490 FFF7FEFF 		bl	lv_mem_free
 2178              	.LVL248:
 2179              	.L100:
 699:lvgl/src/extra/libs/sjpg/lv_sjpg.c ****                 return  LV_RES_INV;
 2180              		.loc 1 699 17 view .LVU805
 2181 0494 03A8     		add	r0, sp, #12
 2182 0496 FFF7FEFF 		bl	lv_fs_close
 2183              	.LVL249:
 700:lvgl/src/extra/libs/sjpg/lv_sjpg.c ****             }
 2184              		.loc 1 700 17 view .LVU806
 700:lvgl/src/extra/libs/sjpg/lv_sjpg.c ****             }
 2185              		.loc 1 700 25 is_stmt 0 view .LVU807
 2186 049a 4646     		mov	r6, r8
 2187 049c CFE6     		b	.L61
 2188              	.LVL250:
 2189              	.L128:
 618:lvgl/src/extra/libs/sjpg/lv_sjpg.c ****                 if(! sjpeg) {
 2190              		.loc 1 618 17 is_stmt 1 view .LVU808
 618:lvgl/src/extra/libs/sjpg/lv_sjpg.c ****                 if(! sjpeg) {
 2191              		.loc 1 618 25 is_stmt 0 view .LVU809
 2192 049e 5820     		movs	r0, #88
 2193              	.LVL251:
 618:lvgl/src/extra/libs/sjpg/lv_sjpg.c ****                 if(! sjpeg) {
 2194              		.loc 1 618 25 view .LVU810
 2195 04a0 FFF7FEFF 		bl	lv_mem_alloc
 2196              	.LVL252:
 619:lvgl/src/extra/libs/sjpg/lv_sjpg.c ****                     lv_fs_close(&lv_file);
 2197              		.loc 1 619 17 is_stmt 1 view .LVU811
 619:lvgl/src/extra/libs/sjpg/lv_sjpg.c ****                     lv_fs_close(&lv_file);
 2198              		.loc 1 619 19 is_stmt 0 view .LVU812
 2199 04a4 0446     		mov	r4, r0
 2200 04a6 58B1     		cbz	r0, .L131
 624:lvgl/src/extra/libs/sjpg/lv_sjpg.c ****                 dsc->user_data = sjpeg;
 2201              		.loc 1 624 17 is_stmt 1 view .LVU813
 2202 04a8 5822     		movs	r2, #88
 2203 04aa 0021     		movs	r1, #0
 2204 04ac FFF7FEFF 		bl	memset
 2205              	.LVL253:
 625:lvgl/src/extra/libs/sjpg/lv_sjpg.c ****                 sjpeg->sjpeg_data = (uint8_t *)((lv_img_dsc_t *)(dsc->src))->data;
 2206              		.loc 1 625 17 view .LVU814
 625:lvgl/src/extra/libs/sjpg/lv_sjpg.c ****                 sjpeg->sjpeg_data = (uint8_t *)((lv_img_dsc_t *)(dsc->src))->data;
 2207              		.loc 1 625 32 is_stmt 0 view .LVU815
 2208 04b0 6C62     		str	r4, [r5, #36]
 626:lvgl/src/extra/libs/sjpg/lv_sjpg.c ****                 sjpeg->sjpeg_data_size = ((lv_img_dsc_t *)(dsc->src))->data_size;
 2209              		.loc 1 626 17 is_stmt 1 view .LVU816
 626:lvgl/src/extra/libs/sjpg/lv_sjpg.c ****                 sjpeg->sjpeg_data_size = ((lv_img_dsc_t *)(dsc->src))->data_size;
 2210              		.loc 1 626 69 is_stmt 0 view .LVU817
 2211 04b2 6B68     		ldr	r3, [r5, #4]
 626:lvgl/src/extra/libs/sjpg/lv_sjpg.c ****                 sjpeg->sjpeg_data_size = ((lv_img_dsc_t *)(dsc->src))->data_size;
 2212              		.loc 1 626 76 view .LVU818
ARM GAS  C:\usertemp\ccKDNimi.s 			page 68


 2213 04b4 9B68     		ldr	r3, [r3, #8]
 626:lvgl/src/extra/libs/sjpg/lv_sjpg.c ****                 sjpeg->sjpeg_data_size = ((lv_img_dsc_t *)(dsc->src))->data_size;
 2214              		.loc 1 626 35 view .LVU819
 2215 04b6 2360     		str	r3, [r4]
 627:lvgl/src/extra/libs/sjpg/lv_sjpg.c ****             }
 2216              		.loc 1 627 17 is_stmt 1 view .LVU820
 627:lvgl/src/extra/libs/sjpg/lv_sjpg.c ****             }
 2217              		.loc 1 627 63 is_stmt 0 view .LVU821
 2218 04b8 6B68     		ldr	r3, [r5, #4]
 627:lvgl/src/extra/libs/sjpg/lv_sjpg.c ****             }
 2219              		.loc 1 627 70 view .LVU822
 2220 04ba 5B68     		ldr	r3, [r3, #4]
 627:lvgl/src/extra/libs/sjpg/lv_sjpg.c ****             }
 2221              		.loc 1 627 40 view .LVU823
 2222 04bc 6360     		str	r3, [r4, #4]
 2223 04be C5E7     		b	.L92
 2224              	.LVL254:
 2225              	.L131:
 620:lvgl/src/extra/libs/sjpg/lv_sjpg.c ****                     return LV_RES_INV;
 2226              		.loc 1 620 21 is_stmt 1 view .LVU824
 2227 04c0 03A8     		add	r0, sp, #12
 2228              	.LVL255:
 620:lvgl/src/extra/libs/sjpg/lv_sjpg.c ****                     return LV_RES_INV;
 2229              		.loc 1 620 21 is_stmt 0 view .LVU825
 2230 04c2 FFF7FEFF 		bl	lv_fs_close
 2231              	.LVL256:
 621:lvgl/src/extra/libs/sjpg/lv_sjpg.c ****                 }
 2232              		.loc 1 621 21 is_stmt 1 view .LVU826
 621:lvgl/src/extra/libs/sjpg/lv_sjpg.c ****                 }
 2233              		.loc 1 621 28 is_stmt 0 view .LVU827
 2234 04c6 4646     		mov	r6, r8
 2235 04c8 B9E6     		b	.L61
 2236              	.LVL257:
 2237              	.L129:
 632:lvgl/src/extra/libs/sjpg/lv_sjpg.c ****                 lv_sjpg_cleanup(sjpeg);
 2238              		.loc 1 632 17 is_stmt 1 view .LVU828
 2239 04ca 03A8     		add	r0, sp, #12
 2240              	.LVL258:
 632:lvgl/src/extra/libs/sjpg/lv_sjpg.c ****                 lv_sjpg_cleanup(sjpeg);
 2241              		.loc 1 632 17 is_stmt 0 view .LVU829
 2242 04cc FFF7FEFF 		bl	lv_fs_close
 2243              	.LVL259:
 633:lvgl/src/extra/libs/sjpg/lv_sjpg.c ****                 return LV_RES_INV;
 2244              		.loc 1 633 17 is_stmt 1 view .LVU830
 2245 04d0 2046     		mov	r0, r4
 2246 04d2 FFF7FEFF 		bl	lv_sjpg_cleanup
 2247              	.LVL260:
 634:lvgl/src/extra/libs/sjpg/lv_sjpg.c ****             }
 2248              		.loc 1 634 17 view .LVU831
 634:lvgl/src/extra/libs/sjpg/lv_sjpg.c ****             }
 2249              		.loc 1 634 24 is_stmt 0 view .LVU832
 2250 04d6 4646     		mov	r6, r8
 2251 04d8 B1E6     		b	.L61
 2252              	.LVL261:
 2253              	.L130:
 2254              	.LBB40:
 651:lvgl/src/extra/libs/sjpg/lv_sjpg.c ****                 sjpeg->sjpeg_y_res = jd_tmp.height;
ARM GAS  C:\usertemp\ccKDNimi.s 			page 69


 2255              		.loc 1 651 17 is_stmt 1 view .LVU833
 651:lvgl/src/extra/libs/sjpg/lv_sjpg.c ****                 sjpeg->sjpeg_y_res = jd_tmp.height;
 2256              		.loc 1 651 44 is_stmt 0 view .LVU834
 2257 04da BDF85C30 		ldrh	r3, [sp, #92]
 651:lvgl/src/extra/libs/sjpg/lv_sjpg.c ****                 sjpeg->sjpeg_y_res = jd_tmp.height;
 2258              		.loc 1 651 36 view .LVU835
 2259 04de A360     		str	r3, [r4, #8]
 652:lvgl/src/extra/libs/sjpg/lv_sjpg.c ****                 sjpeg->sjpeg_total_frames = 1;
 2260              		.loc 1 652 17 is_stmt 1 view .LVU836
 652:lvgl/src/extra/libs/sjpg/lv_sjpg.c ****                 sjpeg->sjpeg_total_frames = 1;
 2261              		.loc 1 652 44 is_stmt 0 view .LVU837
 2262 04e0 BDF85E30 		ldrh	r3, [sp, #94]
 652:lvgl/src/extra/libs/sjpg/lv_sjpg.c ****                 sjpeg->sjpeg_total_frames = 1;
 2263              		.loc 1 652 36 view .LVU838
 2264 04e4 E360     		str	r3, [r4, #12]
 653:lvgl/src/extra/libs/sjpg/lv_sjpg.c ****                 sjpeg->sjpeg_single_frame_height = jd_tmp.height;
 2265              		.loc 1 653 17 is_stmt 1 view .LVU839
 653:lvgl/src/extra/libs/sjpg/lv_sjpg.c ****                 sjpeg->sjpeg_single_frame_height = jd_tmp.height;
 2266              		.loc 1 653 43 is_stmt 0 view .LVU840
 2267 04e6 0123     		movs	r3, #1
 2268 04e8 2361     		str	r3, [r4, #16]
 654:lvgl/src/extra/libs/sjpg/lv_sjpg.c **** 
 2269              		.loc 1 654 17 is_stmt 1 view .LVU841
 654:lvgl/src/extra/libs/sjpg/lv_sjpg.c **** 
 2270              		.loc 1 654 58 is_stmt 0 view .LVU842
 2271 04ea BDF85E30 		ldrh	r3, [sp, #94]
 654:lvgl/src/extra/libs/sjpg/lv_sjpg.c **** 
 2272              		.loc 1 654 50 view .LVU843
 2273 04ee 6361     		str	r3, [r4, #20]
 656:lvgl/src/extra/libs/sjpg/lv_sjpg.c ****                 sjpeg->frame_base_offset =  lv_mem_alloc(sizeof(uint8_t *) * sjpeg->sjpeg_total_fra
 2274              		.loc 1 656 17 is_stmt 1 view .LVU844
 656:lvgl/src/extra/libs/sjpg/lv_sjpg.c ****                 sjpeg->frame_base_offset =  lv_mem_alloc(sizeof(uint8_t *) * sjpeg->sjpeg_total_fra
 2275              		.loc 1 656 41 is_stmt 0 view .LVU845
 2276 04f0 0023     		movs	r3, #0
 2277 04f2 E361     		str	r3, [r4, #28]
 657:lvgl/src/extra/libs/sjpg/lv_sjpg.c ****                 if(! sjpeg->frame_base_offset) {
 2278              		.loc 1 657 17 is_stmt 1 view .LVU846
 657:lvgl/src/extra/libs/sjpg/lv_sjpg.c ****                 if(! sjpeg->frame_base_offset) {
 2279              		.loc 1 657 45 is_stmt 0 view .LVU847
 2280 04f4 0420     		movs	r0, #4
 2281 04f6 FFF7FEFF 		bl	lv_mem_alloc
 2282              	.LVL262:
 657:lvgl/src/extra/libs/sjpg/lv_sjpg.c ****                 if(! sjpeg->frame_base_offset) {
 2283              		.loc 1 657 42 discriminator 1 view .LVU848
 2284 04fa 2062     		str	r0, [r4, #32]
 658:lvgl/src/extra/libs/sjpg/lv_sjpg.c ****                     lv_fs_close(&lv_file);
 2285              		.loc 1 658 17 is_stmt 1 view .LVU849
 658:lvgl/src/extra/libs/sjpg/lv_sjpg.c ****                     lv_fs_close(&lv_file);
 2286              		.loc 1 658 19 is_stmt 0 view .LVU850
 2287 04fc 40B3     		cbz	r0, .L132
 664:lvgl/src/extra/libs/sjpg/lv_sjpg.c ****                 sjpeg->frame_base_offset[0] = img_frame_start_offset;
 2288              		.loc 1 664 17 is_stmt 1 view .LVU851
 2289              	.LVL263:
 665:lvgl/src/extra/libs/sjpg/lv_sjpg.c **** 
 2290              		.loc 1 665 17 view .LVU852
 665:lvgl/src/extra/libs/sjpg/lv_sjpg.c **** 
 2291              		.loc 1 665 45 is_stmt 0 view .LVU853
ARM GAS  C:\usertemp\ccKDNimi.s 			page 70


 2292 04fe 0023     		movs	r3, #0
 2293 0500 0360     		str	r3, [r0]
 667:lvgl/src/extra/libs/sjpg/lv_sjpg.c ****                 sjpeg->frame_cache = (void *)lv_mem_alloc(sjpeg->sjpeg_x_res * sjpeg->sjpeg_single_
 2294              		.loc 1 667 17 is_stmt 1 view .LVU854
 667:lvgl/src/extra/libs/sjpg/lv_sjpg.c ****                 sjpeg->frame_cache = (void *)lv_mem_alloc(sjpeg->sjpeg_x_res * sjpeg->sjpeg_single_
 2295              		.loc 1 667 48 is_stmt 0 view .LVU855
 2296 0502 4FF0FF33 		mov	r3, #-1
 2297 0506 A361     		str	r3, [r4, #24]
 668:lvgl/src/extra/libs/sjpg/lv_sjpg.c ****                 if(! sjpeg->frame_cache) {
 2298              		.loc 1 668 17 is_stmt 1 view .LVU856
 668:lvgl/src/extra/libs/sjpg/lv_sjpg.c ****                 if(! sjpeg->frame_cache) {
 2299              		.loc 1 668 64 is_stmt 0 view .LVU857
 2300 0508 A068     		ldr	r0, [r4, #8]
 668:lvgl/src/extra/libs/sjpg/lv_sjpg.c ****                 if(! sjpeg->frame_cache) {
 2301              		.loc 1 668 85 view .LVU858
 2302 050a 6369     		ldr	r3, [r4, #20]
 668:lvgl/src/extra/libs/sjpg/lv_sjpg.c ****                 if(! sjpeg->frame_cache) {
 2303              		.loc 1 668 78 view .LVU859
 2304 050c 03FB00F0 		mul	r0, r3, r0
 668:lvgl/src/extra/libs/sjpg/lv_sjpg.c ****                 if(! sjpeg->frame_cache) {
 2305              		.loc 1 668 38 view .LVU860
 2306 0510 00EB4000 		add	r0, r0, r0, lsl #1
 2307 0514 FFF7FEFF 		bl	lv_mem_alloc
 2308              	.LVL264:
 668:lvgl/src/extra/libs/sjpg/lv_sjpg.c ****                 if(! sjpeg->frame_cache) {
 2309              		.loc 1 668 36 discriminator 1 view .LVU861
 2310 0518 6062     		str	r0, [r4, #36]
 669:lvgl/src/extra/libs/sjpg/lv_sjpg.c ****                     lv_fs_close(&lv_file);
 2311              		.loc 1 669 17 is_stmt 1 view .LVU862
 669:lvgl/src/extra/libs/sjpg/lv_sjpg.c ****                     lv_fs_close(&lv_file);
 2312              		.loc 1 669 19 is_stmt 0 view .LVU863
 2313 051a 08B3     		cbz	r0, .L133
 675:lvgl/src/extra/libs/sjpg/lv_sjpg.c ****                 sjpeg->io.img_cache_x_res = sjpeg->sjpeg_x_res;
 2314              		.loc 1 675 17 is_stmt 1 view .LVU864
 675:lvgl/src/extra/libs/sjpg/lv_sjpg.c ****                 sjpeg->io.img_cache_x_res = sjpeg->sjpeg_x_res;
 2315              		.loc 1 675 42 is_stmt 0 view .LVU865
 2316 051c 2064     		str	r0, [r4, #64]
 676:lvgl/src/extra/libs/sjpg/lv_sjpg.c ****                 sjpeg->workb =   lv_mem_alloc(TJPGD_WORKBUFF_SIZE);
 2317              		.loc 1 676 17 is_stmt 1 view .LVU866
 676:lvgl/src/extra/libs/sjpg/lv_sjpg.c ****                 sjpeg->workb =   lv_mem_alloc(TJPGD_WORKBUFF_SIZE);
 2318              		.loc 1 676 50 is_stmt 0 view .LVU867
 2319 051e A368     		ldr	r3, [r4, #8]
 676:lvgl/src/extra/libs/sjpg/lv_sjpg.c ****                 sjpeg->workb =   lv_mem_alloc(TJPGD_WORKBUFF_SIZE);
 2320              		.loc 1 676 43 view .LVU868
 2321 0520 6364     		str	r3, [r4, #68]
 677:lvgl/src/extra/libs/sjpg/lv_sjpg.c ****                 if(! sjpeg->workb) {
 2322              		.loc 1 677 17 is_stmt 1 view .LVU869
 677:lvgl/src/extra/libs/sjpg/lv_sjpg.c ****                 if(! sjpeg->workb) {
 2323              		.loc 1 677 34 is_stmt 0 view .LVU870
 2324 0522 4FF48050 		mov	r0, #4096
 2325 0526 FFF7FEFF 		bl	lv_mem_alloc
 2326              	.LVL265:
 677:lvgl/src/extra/libs/sjpg/lv_sjpg.c ****                 if(! sjpeg->workb) {
 2327              		.loc 1 677 30 discriminator 1 view .LVU871
 2328 052a A062     		str	r0, [r4, #40]
 678:lvgl/src/extra/libs/sjpg/lv_sjpg.c ****                     lv_fs_close(&lv_file);
 2329              		.loc 1 678 17 is_stmt 1 view .LVU872
ARM GAS  C:\usertemp\ccKDNimi.s 			page 71


 678:lvgl/src/extra/libs/sjpg/lv_sjpg.c ****                     lv_fs_close(&lv_file);
 2330              		.loc 1 678 19 is_stmt 0 view .LVU873
 2331 052c 00B3     		cbz	r0, .L134
 684:lvgl/src/extra/libs/sjpg/lv_sjpg.c ****                 if(! sjpeg->tjpeg_jd) {
 2332              		.loc 1 684 17 is_stmt 1 view .LVU874
 684:lvgl/src/extra/libs/sjpg/lv_sjpg.c ****                 if(! sjpeg->tjpeg_jd) {
 2333              		.loc 1 684 37 is_stmt 0 view .LVU875
 2334 052e 7820     		movs	r0, #120
 2335 0530 FFF7FEFF 		bl	lv_mem_alloc
 2336              	.LVL266:
 684:lvgl/src/extra/libs/sjpg/lv_sjpg.c ****                 if(! sjpeg->tjpeg_jd) {
 2337              		.loc 1 684 33 discriminator 1 view .LVU876
 2338 0534 E062     		str	r0, [r4, #44]
 685:lvgl/src/extra/libs/sjpg/lv_sjpg.c ****                     lv_fs_close(&lv_file);
 2339              		.loc 1 685 17 is_stmt 1 view .LVU877
 685:lvgl/src/extra/libs/sjpg/lv_sjpg.c ****                     lv_fs_close(&lv_file);
 2340              		.loc 1 685 19 is_stmt 0 view .LVU878
 2341 0536 38B3     		cbz	r0, .L135
 691:lvgl/src/extra/libs/sjpg/lv_sjpg.c ****                 sjpeg->io.lv_file = lv_file;
 2342              		.loc 1 691 17 is_stmt 1 view .LVU879
 691:lvgl/src/extra/libs/sjpg/lv_sjpg.c ****                 sjpeg->io.lv_file = lv_file;
 2343              		.loc 1 691 32 is_stmt 0 view .LVU880
 2344 0538 0123     		movs	r3, #1
 2345 053a 84F83030 		strb	r3, [r4, #48]
 692:lvgl/src/extra/libs/sjpg/lv_sjpg.c ****                 dsc->img_data = NULL;
 2346              		.loc 1 692 17 is_stmt 1 view .LVU881
 692:lvgl/src/extra/libs/sjpg/lv_sjpg.c ****                 dsc->img_data = NULL;
 2347              		.loc 1 692 35 is_stmt 0 view .LVU882
 2348 053e 3434     		adds	r4, r4, #52
 2349              	.LVL267:
 692:lvgl/src/extra/libs/sjpg/lv_sjpg.c ****                 dsc->img_data = NULL;
 2350              		.loc 1 692 35 view .LVU883
 2351 0540 03AB     		add	r3, sp, #12
 2352 0542 93E80700 		ldm	r3, {r0, r1, r2}
 2353 0546 84E80700 		stm	r4, {r0, r1, r2}
 693:lvgl/src/extra/libs/sjpg/lv_sjpg.c ****                 return LV_RES_OK;
 2354              		.loc 1 693 17 is_stmt 1 view .LVU884
 693:lvgl/src/extra/libs/sjpg/lv_sjpg.c ****                 return LV_RES_OK;
 2355              		.loc 1 693 31 is_stmt 0 view .LVU885
 2356 054a 0023     		movs	r3, #0
 2357 054c AB61     		str	r3, [r5, #24]
 694:lvgl/src/extra/libs/sjpg/lv_sjpg.c **** 
 2358              		.loc 1 694 17 is_stmt 1 view .LVU886
 694:lvgl/src/extra/libs/sjpg/lv_sjpg.c **** 
 2359              		.loc 1 694 24 is_stmt 0 view .LVU887
 2360 054e 76E6     		b	.L61
 2361              	.LVL268:
 2362              	.L132:
 659:lvgl/src/extra/libs/sjpg/lv_sjpg.c ****                     lv_sjpg_cleanup(sjpeg);
 2363              		.loc 1 659 21 is_stmt 1 view .LVU888
 2364 0550 03A8     		add	r0, sp, #12
 2365 0552 FFF7FEFF 		bl	lv_fs_close
 2366              	.LVL269:
 660:lvgl/src/extra/libs/sjpg/lv_sjpg.c ****                     return LV_RES_INV;
 2367              		.loc 1 660 21 view .LVU889
 2368 0556 2046     		mov	r0, r4
 2369 0558 FFF7FEFF 		bl	lv_sjpg_cleanup
ARM GAS  C:\usertemp\ccKDNimi.s 			page 72


 2370              	.LVL270:
 661:lvgl/src/extra/libs/sjpg/lv_sjpg.c ****                 }
 2371              		.loc 1 661 21 view .LVU890
 661:lvgl/src/extra/libs/sjpg/lv_sjpg.c ****                 }
 2372              		.loc 1 661 28 is_stmt 0 view .LVU891
 2373 055c 3E46     		mov	r6, r7
 2374 055e 6EE6     		b	.L61
 2375              	.LVL271:
 2376              	.L133:
 670:lvgl/src/extra/libs/sjpg/lv_sjpg.c ****                     lv_sjpg_cleanup(sjpeg);
 2377              		.loc 1 670 21 is_stmt 1 view .LVU892
 2378 0560 03A8     		add	r0, sp, #12
 2379 0562 FFF7FEFF 		bl	lv_fs_close
 2380              	.LVL272:
 671:lvgl/src/extra/libs/sjpg/lv_sjpg.c ****                     return LV_RES_INV;
 2381              		.loc 1 671 21 view .LVU893
 2382 0566 2046     		mov	r0, r4
 2383 0568 FFF7FEFF 		bl	lv_sjpg_cleanup
 2384              	.LVL273:
 672:lvgl/src/extra/libs/sjpg/lv_sjpg.c ****                 }
 2385              		.loc 1 672 21 view .LVU894
 672:lvgl/src/extra/libs/sjpg/lv_sjpg.c ****                 }
 2386              		.loc 1 672 28 is_stmt 0 view .LVU895
 2387 056c 3E46     		mov	r6, r7
 2388 056e 66E6     		b	.L61
 2389              	.L134:
 679:lvgl/src/extra/libs/sjpg/lv_sjpg.c ****                     lv_sjpg_cleanup(sjpeg);
 2390              		.loc 1 679 21 is_stmt 1 view .LVU896
 2391 0570 03A8     		add	r0, sp, #12
 2392 0572 FFF7FEFF 		bl	lv_fs_close
 2393              	.LVL274:
 680:lvgl/src/extra/libs/sjpg/lv_sjpg.c ****                     return LV_RES_INV;
 2394              		.loc 1 680 21 view .LVU897
 2395 0576 2046     		mov	r0, r4
 2396 0578 FFF7FEFF 		bl	lv_sjpg_cleanup
 2397              	.LVL275:
 681:lvgl/src/extra/libs/sjpg/lv_sjpg.c ****                 }
 2398              		.loc 1 681 21 view .LVU898
 681:lvgl/src/extra/libs/sjpg/lv_sjpg.c ****                 }
 2399              		.loc 1 681 28 is_stmt 0 view .LVU899
 2400 057c 3E46     		mov	r6, r7
 2401 057e 5EE6     		b	.L61
 2402              	.L139:
 2403              		.align	2
 2404              	.L138:
 2405 0580 00000000 		.word	.LC1
 2406 0584 00000000 		.word	input_func
 2407              	.L135:
 686:lvgl/src/extra/libs/sjpg/lv_sjpg.c ****                     lv_sjpg_cleanup(sjpeg);
 2408              		.loc 1 686 21 is_stmt 1 view .LVU900
 2409 0588 03A8     		add	r0, sp, #12
 2410 058a FFF7FEFF 		bl	lv_fs_close
 2411              	.LVL276:
 687:lvgl/src/extra/libs/sjpg/lv_sjpg.c ****                     return LV_RES_INV;
 2412              		.loc 1 687 21 view .LVU901
 2413 058e 2046     		mov	r0, r4
 2414 0590 FFF7FEFF 		bl	lv_sjpg_cleanup
ARM GAS  C:\usertemp\ccKDNimi.s 			page 73


 2415              	.LVL277:
 688:lvgl/src/extra/libs/sjpg/lv_sjpg.c ****                 }
 2416              		.loc 1 688 21 view .LVU902
 688:lvgl/src/extra/libs/sjpg/lv_sjpg.c ****                 }
 2417              		.loc 1 688 28 is_stmt 0 view .LVU903
 2418 0594 3E46     		mov	r6, r7
 2419 0596 52E6     		b	.L61
 2420              	.LVL278:
 2421              	.L104:
 688:lvgl/src/extra/libs/sjpg/lv_sjpg.c ****                 }
 2422              		.loc 1 688 28 view .LVU904
 2423              	.LBE40:
 613:lvgl/src/extra/libs/sjpg/lv_sjpg.c ****             }
 2424              		.loc 1 613 24 view .LVU905
 2425 0598 0026     		movs	r6, #0
 2426 059a 50E6     		b	.L61
 2427              	.LBE39:
 2428              	.LBE42:
 2429              		.cfi_endproc
 2430              	.LFE200:
 2432              		.section	.text.decoder_info,"ax",%progbits
 2433              		.align	1
 2434              		.syntax unified
 2435              		.thumb
 2436              		.thumb_func
 2438              	decoder_info:
 2439              	.LVL279:
 2440              	.LFB197:
 149:lvgl/src/extra/libs/sjpg/lv_sjpg.c ****     LV_UNUSED(decoder);
 2441              		.loc 1 149 1 is_stmt 1 view -0
 2442              		.cfi_startproc
 2443              		@ args = 0, pretend = 0, frame = 176
 2444              		@ frame_needed = 0, uses_anonymous_args = 0
 149:lvgl/src/extra/libs/sjpg/lv_sjpg.c ****     LV_UNUSED(decoder);
 2445              		.loc 1 149 1 is_stmt 0 view .LVU907
 2446 0000 2DE9F043 		push	{r4, r5, r6, r7, r8, r9, lr}
 2447              	.LCFI20:
 2448              		.cfi_def_cfa_offset 28
 2449              		.cfi_offset 4, -28
 2450              		.cfi_offset 5, -24
 2451              		.cfi_offset 6, -20
 2452              		.cfi_offset 7, -16
 2453              		.cfi_offset 8, -12
 2454              		.cfi_offset 9, -8
 2455              		.cfi_offset 14, -4
 2456 0004 AFB0     		sub	sp, sp, #188
 2457              	.LCFI21:
 2458              		.cfi_def_cfa_offset 216
 2459 0006 0C46     		mov	r4, r1
 2460 0008 1746     		mov	r7, r2
 150:lvgl/src/extra/libs/sjpg/lv_sjpg.c **** 
 2461              		.loc 1 150 5 is_stmt 1 view .LVU908
 155:lvgl/src/extra/libs/sjpg/lv_sjpg.c **** 
 2462              		.loc 1 155 5 view .LVU909
 155:lvgl/src/extra/libs/sjpg/lv_sjpg.c **** 
 2463              		.loc 1 155 29 is_stmt 0 view .LVU910
 2464 000a 0846     		mov	r0, r1
ARM GAS  C:\usertemp\ccKDNimi.s 			page 74


 2465              	.LVL280:
 155:lvgl/src/extra/libs/sjpg/lv_sjpg.c **** 
 2466              		.loc 1 155 29 view .LVU911
 2467 000c FFF7FEFF 		bl	lv_img_src_get_type
 2468              	.LVL281:
 157:lvgl/src/extra/libs/sjpg/lv_sjpg.c **** 
 2469              		.loc 1 157 5 is_stmt 1 view .LVU912
 159:lvgl/src/extra/libs/sjpg/lv_sjpg.c ****         uint8_t * raw_sjpeg_data = (uint8_t *)((lv_img_dsc_t *)src)->data;
 2470              		.loc 1 159 5 view .LVU913
 159:lvgl/src/extra/libs/sjpg/lv_sjpg.c ****         uint8_t * raw_sjpeg_data = (uint8_t *)((lv_img_dsc_t *)src)->data;
 2471              		.loc 1 159 7 is_stmt 0 view .LVU914
 2472 0010 0546     		mov	r5, r0
 2473 0012 0028     		cmp	r0, #0
 2474 0014 5ED1     		bne	.L141
 2475              	.LBB43:
 160:lvgl/src/extra/libs/sjpg/lv_sjpg.c ****         const uint32_t raw_sjpeg_data_size = ((lv_img_dsc_t *)src)->data_size;
 2476              		.loc 1 160 9 is_stmt 1 view .LVU915
 160:lvgl/src/extra/libs/sjpg/lv_sjpg.c ****         const uint32_t raw_sjpeg_data_size = ((lv_img_dsc_t *)src)->data_size;
 2477              		.loc 1 160 19 is_stmt 0 view .LVU916
 2478 0016 A668     		ldr	r6, [r4, #8]
 2479              	.LVL282:
 161:lvgl/src/extra/libs/sjpg/lv_sjpg.c **** 
 2480              		.loc 1 161 9 is_stmt 1 view .LVU917
 161:lvgl/src/extra/libs/sjpg/lv_sjpg.c **** 
 2481              		.loc 1 161 24 is_stmt 0 view .LVU918
 2482 0018 6468     		ldr	r4, [r4, #4]
 2483              	.LVL283:
 163:lvgl/src/extra/libs/sjpg/lv_sjpg.c **** 
 2484              		.loc 1 163 9 is_stmt 1 view .LVU919
 163:lvgl/src/extra/libs/sjpg/lv_sjpg.c **** 
 2485              		.loc 1 163 13 is_stmt 0 view .LVU920
 2486 001a 0722     		movs	r2, #7
 2487 001c 9049     		ldr	r1, .L170
 2488 001e 3046     		mov	r0, r6
 2489              	.LVL284:
 163:lvgl/src/extra/libs/sjpg/lv_sjpg.c **** 
 2490              		.loc 1 163 13 view .LVU921
 2491 0020 FFF7FEFF 		bl	strncmp
 2492              	.LVL285:
 163:lvgl/src/extra/libs/sjpg/lv_sjpg.c **** 
 2493              		.loc 1 163 11 discriminator 1 view .LVU922
 2494 0024 0028     		cmp	r0, #0
 2495 0026 35D0     		beq	.L161
 178:lvgl/src/extra/libs/sjpg/lv_sjpg.c ****             header->always_zero = 0;
 2496              		.loc 1 178 14 is_stmt 1 view .LVU923
 178:lvgl/src/extra/libs/sjpg/lv_sjpg.c ****             header->always_zero = 0;
 2497              		.loc 1 178 17 is_stmt 0 view .LVU924
 2498 0028 3046     		mov	r0, r6
 2499 002a FFF7FEFF 		bl	is_jpg
 2500              	.LVL286:
 178:lvgl/src/extra/libs/sjpg/lv_sjpg.c ****             header->always_zero = 0;
 2501              		.loc 1 178 16 discriminator 1 view .LVU925
 2502 002e 0128     		cmp	r0, #1
 2503 0030 53D1     		bne	.L143
 2504              	.LBB44:
 179:lvgl/src/extra/libs/sjpg/lv_sjpg.c ****             header->cf = LV_IMG_CF_RAW;
 2505              		.loc 1 179 13 is_stmt 1 view .LVU926
ARM GAS  C:\usertemp\ccKDNimi.s 			page 75


 179:lvgl/src/extra/libs/sjpg/lv_sjpg.c ****             header->cf = LV_IMG_CF_RAW;
 2506              		.loc 1 179 33 is_stmt 0 view .LVU927
 2507 0032 3B78     		ldrb	r3, [r7]	@ zero_extendqisi2
 2508 0034 23F0E003 		bic	r3, r3, #224
 2509 0038 3B70     		strb	r3, [r7]
 180:lvgl/src/extra/libs/sjpg/lv_sjpg.c **** 
 2510              		.loc 1 180 13 is_stmt 1 view .LVU928
 180:lvgl/src/extra/libs/sjpg/lv_sjpg.c **** 
 2511              		.loc 1 180 24 is_stmt 0 view .LVU929
 2512 003a DBB2     		uxtb	r3, r3
 2513 003c 0122     		movs	r2, #1
 2514 003e 62F30403 		bfi	r3, r2, #0, #5
 2515 0042 3B70     		strb	r3, [r7]
 182:lvgl/src/extra/libs/sjpg/lv_sjpg.c ****             if(!workb_temp) return LV_RES_INV;
 2516              		.loc 1 182 13 is_stmt 1 view .LVU930
 182:lvgl/src/extra/libs/sjpg/lv_sjpg.c ****             if(!workb_temp) return LV_RES_INV;
 2517              		.loc 1 182 36 is_stmt 0 view .LVU931
 2518 0044 4FF48050 		mov	r0, #4096
 2519 0048 FFF7FEFF 		bl	lv_mem_alloc
 2520              	.LVL287:
 183:lvgl/src/extra/libs/sjpg/lv_sjpg.c **** 
 2521              		.loc 1 183 13 is_stmt 1 view .LVU932
 183:lvgl/src/extra/libs/sjpg/lv_sjpg.c **** 
 2522              		.loc 1 183 15 is_stmt 0 view .LVU933
 2523 004c 8046     		mov	r8, r0
 2524 004e 0028     		cmp	r0, #0
 2525 0050 43D0     		beq	.L143
 185:lvgl/src/extra/libs/sjpg/lv_sjpg.c ****             io_source_temp.type = SJPEG_IO_SOURCE_C_ARRAY;
 2526              		.loc 1 185 13 is_stmt 1 view .LVU934
 186:lvgl/src/extra/libs/sjpg/lv_sjpg.c ****             io_source_temp.raw_sjpg_data = raw_sjpeg_data;
 2527              		.loc 1 186 13 view .LVU935
