ARM GAS  C:\usertemp\ccJd89Xr.s 			page 1


   1              		.cpu cortex-m7
   2              		.arch armv7e-m
   3              		.fpu fpv5-d16
   4              		.eabi_attribute 28, 1
   5              		.eabi_attribute 20, 1
   6              		.eabi_attribute 21, 1
   7              		.eabi_attribute 23, 3
   8              		.eabi_attribute 24, 1
   9              		.eabi_attribute 25, 1
  10              		.eabi_attribute 26, 1
  11              		.eabi_attribute 30, 1
  12              		.eabi_attribute 34, 1
  13              		.eabi_attribute 18, 4
  14              		.file	"lv_table.c"
  15              		.text
  16              	.Ltext0:
  17              		.cfi_sections	.debug_frame
  18              		.file 1 "lvgl/src/widgets/lv_table.c"
  19              		.section	.text.get_row_height,"ax",%progbits
  20              		.align	1
  21              		.syntax unified
  22              		.thumb
  23              		.thumb_func
  25              	get_row_height:
  26              	.LVL0:
  27              	.LFB175:
   1:lvgl/src/widgets/lv_table.c **** /**
   2:lvgl/src/widgets/lv_table.c ****  * @file lv_table.c
   3:lvgl/src/widgets/lv_table.c ****  *
   4:lvgl/src/widgets/lv_table.c ****  */
   5:lvgl/src/widgets/lv_table.c **** 
   6:lvgl/src/widgets/lv_table.c **** /*********************
   7:lvgl/src/widgets/lv_table.c ****  *      INCLUDES
   8:lvgl/src/widgets/lv_table.c ****  *********************/
   9:lvgl/src/widgets/lv_table.c **** #include "lv_table.h"
  10:lvgl/src/widgets/lv_table.c **** #if LV_USE_TABLE != 0
  11:lvgl/src/widgets/lv_table.c **** 
  12:lvgl/src/widgets/lv_table.c **** #include "../core/lv_indev.h"
  13:lvgl/src/widgets/lv_table.c **** #include "../misc/lv_assert.h"
  14:lvgl/src/widgets/lv_table.c **** #include "../misc/lv_txt.h"
  15:lvgl/src/widgets/lv_table.c **** #include "../misc/lv_txt_ap.h"
  16:lvgl/src/widgets/lv_table.c **** #include "../misc/lv_math.h"
  17:lvgl/src/widgets/lv_table.c **** #include "../misc/lv_printf.h"
  18:lvgl/src/widgets/lv_table.c **** #include "../draw/lv_draw.h"
  19:lvgl/src/widgets/lv_table.c **** 
  20:lvgl/src/widgets/lv_table.c **** /*********************
  21:lvgl/src/widgets/lv_table.c ****  *      DEFINES
  22:lvgl/src/widgets/lv_table.c ****  *********************/
  23:lvgl/src/widgets/lv_table.c **** #define MY_CLASS &lv_table_class
  24:lvgl/src/widgets/lv_table.c **** 
  25:lvgl/src/widgets/lv_table.c **** /**********************
  26:lvgl/src/widgets/lv_table.c ****  *      TYPEDEFS
  27:lvgl/src/widgets/lv_table.c ****  **********************/
  28:lvgl/src/widgets/lv_table.c **** 
  29:lvgl/src/widgets/lv_table.c **** /**********************
  30:lvgl/src/widgets/lv_table.c ****  *  STATIC PROTOTYPES
  31:lvgl/src/widgets/lv_table.c ****  **********************/
ARM GAS  C:\usertemp\ccJd89Xr.s 			page 2


  32:lvgl/src/widgets/lv_table.c **** static void lv_table_constructor(const lv_obj_class_t * class_p, lv_obj_t * obj);
  33:lvgl/src/widgets/lv_table.c **** static void lv_table_destructor(const lv_obj_class_t * class_p, lv_obj_t * obj);
  34:lvgl/src/widgets/lv_table.c **** static void lv_table_event(const lv_obj_class_t * class_p, lv_event_t * e);
  35:lvgl/src/widgets/lv_table.c **** static void draw_main(lv_event_t * e);
  36:lvgl/src/widgets/lv_table.c **** static lv_coord_t get_row_height(lv_obj_t * obj, uint16_t row_id, const lv_font_t * font,
  37:lvgl/src/widgets/lv_table.c ****                                  lv_coord_t letter_space, lv_coord_t line_space,
  38:lvgl/src/widgets/lv_table.c ****                                  lv_coord_t cell_left, lv_coord_t cell_right, lv_coord_t cell_top, 
  39:lvgl/src/widgets/lv_table.c **** static void refr_size(lv_obj_t * obj, uint32_t strat_row);
  40:lvgl/src/widgets/lv_table.c **** static lv_res_t get_pressed_cell(lv_obj_t * obj, uint16_t * row, uint16_t * col);
  41:lvgl/src/widgets/lv_table.c **** 
  42:lvgl/src/widgets/lv_table.c **** /**********************
  43:lvgl/src/widgets/lv_table.c ****  *  STATIC VARIABLES
  44:lvgl/src/widgets/lv_table.c ****  **********************/
  45:lvgl/src/widgets/lv_table.c **** const lv_obj_class_t lv_table_class  = {
  46:lvgl/src/widgets/lv_table.c ****     .constructor_cb = lv_table_constructor,
  47:lvgl/src/widgets/lv_table.c ****     .destructor_cb = lv_table_destructor,
  48:lvgl/src/widgets/lv_table.c ****     .event_cb = lv_table_event,
  49:lvgl/src/widgets/lv_table.c ****     .width_def = LV_SIZE_CONTENT,
  50:lvgl/src/widgets/lv_table.c ****     .height_def = LV_SIZE_CONTENT,
  51:lvgl/src/widgets/lv_table.c ****     .base_class = &lv_obj_class,
  52:lvgl/src/widgets/lv_table.c ****     .editable = LV_OBJ_CLASS_EDITABLE_TRUE,
  53:lvgl/src/widgets/lv_table.c ****     .group_def = LV_OBJ_CLASS_GROUP_DEF_TRUE,
  54:lvgl/src/widgets/lv_table.c ****     .instance_size = sizeof(lv_table_t),
  55:lvgl/src/widgets/lv_table.c **** };
  56:lvgl/src/widgets/lv_table.c **** /**********************
  57:lvgl/src/widgets/lv_table.c ****  *      MACROS
  58:lvgl/src/widgets/lv_table.c ****  **********************/
  59:lvgl/src/widgets/lv_table.c **** 
  60:lvgl/src/widgets/lv_table.c **** /**********************
  61:lvgl/src/widgets/lv_table.c ****  *   GLOBAL FUNCTIONS
  62:lvgl/src/widgets/lv_table.c ****  **********************/
  63:lvgl/src/widgets/lv_table.c **** 
  64:lvgl/src/widgets/lv_table.c **** lv_obj_t * lv_table_create(lv_obj_t * parent)
  65:lvgl/src/widgets/lv_table.c **** {
  66:lvgl/src/widgets/lv_table.c ****     LV_LOG_INFO("begin");
  67:lvgl/src/widgets/lv_table.c ****     lv_obj_t * obj = lv_obj_class_create_obj(MY_CLASS, parent);
  68:lvgl/src/widgets/lv_table.c ****     lv_obj_class_init_obj(obj);
  69:lvgl/src/widgets/lv_table.c ****     return obj;
  70:lvgl/src/widgets/lv_table.c **** }
  71:lvgl/src/widgets/lv_table.c **** 
  72:lvgl/src/widgets/lv_table.c **** /*=====================
  73:lvgl/src/widgets/lv_table.c ****  * Setter functions
  74:lvgl/src/widgets/lv_table.c ****  *====================*/
  75:lvgl/src/widgets/lv_table.c **** 
  76:lvgl/src/widgets/lv_table.c **** void lv_table_set_cell_value(lv_obj_t * obj, uint16_t row, uint16_t col, const char * txt)
  77:lvgl/src/widgets/lv_table.c **** {
  78:lvgl/src/widgets/lv_table.c ****     LV_ASSERT_OBJ(obj, MY_CLASS);
  79:lvgl/src/widgets/lv_table.c ****     LV_ASSERT_NULL(txt);
  80:lvgl/src/widgets/lv_table.c **** 
  81:lvgl/src/widgets/lv_table.c ****     lv_table_t * table = (lv_table_t *)obj;
  82:lvgl/src/widgets/lv_table.c **** 
  83:lvgl/src/widgets/lv_table.c ****     /*Auto expand*/
  84:lvgl/src/widgets/lv_table.c ****     if(col >= table->col_cnt) lv_table_set_col_cnt(obj, col + 1);
  85:lvgl/src/widgets/lv_table.c ****     if(row >= table->row_cnt) lv_table_set_row_cnt(obj, row + 1);
  86:lvgl/src/widgets/lv_table.c **** 
  87:lvgl/src/widgets/lv_table.c ****     uint32_t cell = row * table->col_cnt + col;
  88:lvgl/src/widgets/lv_table.c ****     lv_table_cell_ctrl_t ctrl = 0;
ARM GAS  C:\usertemp\ccJd89Xr.s 			page 3


  89:lvgl/src/widgets/lv_table.c **** 
  90:lvgl/src/widgets/lv_table.c ****     /*Save the control byte*/
  91:lvgl/src/widgets/lv_table.c ****     if(table->cell_data[cell]) ctrl = table->cell_data[cell][0];
  92:lvgl/src/widgets/lv_table.c **** 
  93:lvgl/src/widgets/lv_table.c **** #if LV_USE_ARABIC_PERSIAN_CHARS
  94:lvgl/src/widgets/lv_table.c ****     /*Get the size of the Arabic text and process it*/
  95:lvgl/src/widgets/lv_table.c ****     size_t len_ap = _lv_txt_ap_calc_bytes_cnt(txt);
  96:lvgl/src/widgets/lv_table.c ****     table->cell_data[cell] = lv_mem_realloc(table->cell_data[cell], len_ap + 1);
  97:lvgl/src/widgets/lv_table.c ****     LV_ASSERT_MALLOC(table->cell_data[cell]);
  98:lvgl/src/widgets/lv_table.c ****     if(table->cell_data[cell] == NULL) return;
  99:lvgl/src/widgets/lv_table.c **** 
 100:lvgl/src/widgets/lv_table.c ****     _lv_txt_ap_proc(txt, &table->cell_data[cell][1]);
 101:lvgl/src/widgets/lv_table.c **** #else
 102:lvgl/src/widgets/lv_table.c ****     table->cell_data[cell] = lv_mem_realloc(table->cell_data[cell], strlen(txt) + 2); /*+1: trailin
 103:lvgl/src/widgets/lv_table.c ****     LV_ASSERT_MALLOC(table->cell_data[cell]);
 104:lvgl/src/widgets/lv_table.c **** 
 105:lvgl/src/widgets/lv_table.c ****     strcpy(table->cell_data[cell] + 1, txt);  /*+1 to skip the format byte*/
 106:lvgl/src/widgets/lv_table.c **** #endif
 107:lvgl/src/widgets/lv_table.c **** 
 108:lvgl/src/widgets/lv_table.c ****     table->cell_data[cell][0] = ctrl;
 109:lvgl/src/widgets/lv_table.c ****     refr_size(obj, row);
 110:lvgl/src/widgets/lv_table.c **** 
 111:lvgl/src/widgets/lv_table.c ****     lv_obj_invalidate(obj);
 112:lvgl/src/widgets/lv_table.c **** }
 113:lvgl/src/widgets/lv_table.c **** 
 114:lvgl/src/widgets/lv_table.c **** void lv_table_set_cell_value_fmt(lv_obj_t * obj, uint16_t row, uint16_t col, const char * fmt, ...)
 115:lvgl/src/widgets/lv_table.c **** {
 116:lvgl/src/widgets/lv_table.c ****     LV_ASSERT_OBJ(obj, MY_CLASS);
 117:lvgl/src/widgets/lv_table.c ****     LV_ASSERT_NULL(fmt);
 118:lvgl/src/widgets/lv_table.c **** 
 119:lvgl/src/widgets/lv_table.c ****     lv_table_t * table = (lv_table_t *)obj;
 120:lvgl/src/widgets/lv_table.c ****     if(col >= table->col_cnt) {
 121:lvgl/src/widgets/lv_table.c ****         LV_LOG_WARN("lv_table_set_cell_value: invalid column");
 122:lvgl/src/widgets/lv_table.c ****         return;
 123:lvgl/src/widgets/lv_table.c ****     }
 124:lvgl/src/widgets/lv_table.c **** 
 125:lvgl/src/widgets/lv_table.c ****     /*Auto expand*/
 126:lvgl/src/widgets/lv_table.c ****     if(row >= table->row_cnt) {
 127:lvgl/src/widgets/lv_table.c ****         lv_table_set_row_cnt(obj, row + 1);
 128:lvgl/src/widgets/lv_table.c ****     }
 129:lvgl/src/widgets/lv_table.c **** 
 130:lvgl/src/widgets/lv_table.c ****     uint32_t cell = row * table->col_cnt + col;
 131:lvgl/src/widgets/lv_table.c ****     lv_table_cell_ctrl_t ctrl = 0;
 132:lvgl/src/widgets/lv_table.c **** 
 133:lvgl/src/widgets/lv_table.c ****     /*Save the control byte*/
 134:lvgl/src/widgets/lv_table.c ****     if(table->cell_data[cell]) ctrl = table->cell_data[cell][0];
 135:lvgl/src/widgets/lv_table.c **** 
 136:lvgl/src/widgets/lv_table.c ****     va_list ap, ap2;
 137:lvgl/src/widgets/lv_table.c ****     va_start(ap, fmt);
 138:lvgl/src/widgets/lv_table.c ****     va_copy(ap2, ap);
 139:lvgl/src/widgets/lv_table.c **** 
 140:lvgl/src/widgets/lv_table.c ****     /*Allocate space for the new text by using trick from C99 standard section 7.19.6.12*/
 141:lvgl/src/widgets/lv_table.c ****     uint32_t len = lv_vsnprintf(NULL, 0, fmt, ap);
 142:lvgl/src/widgets/lv_table.c ****     va_end(ap);
 143:lvgl/src/widgets/lv_table.c **** 
 144:lvgl/src/widgets/lv_table.c **** #if LV_USE_ARABIC_PERSIAN_CHARS
 145:lvgl/src/widgets/lv_table.c ****     /*Put together the text according to the format string*/
ARM GAS  C:\usertemp\ccJd89Xr.s 			page 4


 146:lvgl/src/widgets/lv_table.c ****     char * raw_txt = lv_mem_buf_get(len + 1);
 147:lvgl/src/widgets/lv_table.c ****     LV_ASSERT_MALLOC(raw_txt);
 148:lvgl/src/widgets/lv_table.c ****     if(raw_txt == NULL) {
 149:lvgl/src/widgets/lv_table.c ****         va_end(ap2);
 150:lvgl/src/widgets/lv_table.c ****         return;
 151:lvgl/src/widgets/lv_table.c ****     }
 152:lvgl/src/widgets/lv_table.c **** 
 153:lvgl/src/widgets/lv_table.c ****     lv_vsnprintf(raw_txt, len + 1, fmt, ap2);
 154:lvgl/src/widgets/lv_table.c **** 
 155:lvgl/src/widgets/lv_table.c ****     /*Get the size of the Arabic text and process it*/
 156:lvgl/src/widgets/lv_table.c ****     size_t len_ap = _lv_txt_ap_calc_bytes_cnt(raw_txt);
 157:lvgl/src/widgets/lv_table.c ****     table->cell_data[cell] = lv_mem_realloc(table->cell_data[cell], len_ap + 1);
 158:lvgl/src/widgets/lv_table.c ****     LV_ASSERT_MALLOC(table->cell_data[cell]);
 159:lvgl/src/widgets/lv_table.c ****     if(table->cell_data[cell] == NULL) {
 160:lvgl/src/widgets/lv_table.c ****         va_end(ap2);
 161:lvgl/src/widgets/lv_table.c ****         return;
 162:lvgl/src/widgets/lv_table.c ****     }
 163:lvgl/src/widgets/lv_table.c ****     _lv_txt_ap_proc(raw_txt, &table->cell_data[cell][1]);
 164:lvgl/src/widgets/lv_table.c **** 
 165:lvgl/src/widgets/lv_table.c ****     lv_mem_buf_release(raw_txt);
 166:lvgl/src/widgets/lv_table.c **** #else
 167:lvgl/src/widgets/lv_table.c ****     table->cell_data[cell] = lv_mem_realloc(table->cell_data[cell], len + 2); /*+1: trailing '\0; +
 168:lvgl/src/widgets/lv_table.c ****     LV_ASSERT_MALLOC(table->cell_data[cell]);
 169:lvgl/src/widgets/lv_table.c ****     if(table->cell_data[cell] == NULL) {
 170:lvgl/src/widgets/lv_table.c ****         va_end(ap2);
 171:lvgl/src/widgets/lv_table.c ****         return;
 172:lvgl/src/widgets/lv_table.c ****     }
 173:lvgl/src/widgets/lv_table.c **** 
 174:lvgl/src/widgets/lv_table.c ****     table->cell_data[cell][len + 1] = 0; /*Ensure NULL termination*/
 175:lvgl/src/widgets/lv_table.c **** 
 176:lvgl/src/widgets/lv_table.c ****     lv_vsnprintf(&table->cell_data[cell][1], len + 1, fmt, ap2);
 177:lvgl/src/widgets/lv_table.c **** #endif
 178:lvgl/src/widgets/lv_table.c **** 
 179:lvgl/src/widgets/lv_table.c ****     va_end(ap2);
 180:lvgl/src/widgets/lv_table.c **** 
 181:lvgl/src/widgets/lv_table.c ****     table->cell_data[cell][0] = ctrl;
 182:lvgl/src/widgets/lv_table.c **** 
 183:lvgl/src/widgets/lv_table.c ****     /*Refresh the row height*/
 184:lvgl/src/widgets/lv_table.c ****     lv_coord_t cell_left = lv_obj_get_style_pad_left(obj, LV_PART_ITEMS);
 185:lvgl/src/widgets/lv_table.c ****     lv_coord_t cell_right = lv_obj_get_style_pad_right(obj, LV_PART_ITEMS);
 186:lvgl/src/widgets/lv_table.c ****     lv_coord_t cell_top = lv_obj_get_style_pad_top(obj, LV_PART_ITEMS);
 187:lvgl/src/widgets/lv_table.c ****     lv_coord_t cell_bottom = lv_obj_get_style_pad_bottom(obj, LV_PART_ITEMS);
 188:lvgl/src/widgets/lv_table.c **** 
 189:lvgl/src/widgets/lv_table.c ****     lv_coord_t letter_space = lv_obj_get_style_text_letter_space(obj, LV_PART_ITEMS);
 190:lvgl/src/widgets/lv_table.c ****     lv_coord_t line_space = lv_obj_get_style_text_line_space(obj, LV_PART_ITEMS);
 191:lvgl/src/widgets/lv_table.c ****     const lv_font_t * font = lv_obj_get_style_text_font(obj, LV_PART_ITEMS);
 192:lvgl/src/widgets/lv_table.c **** 
 193:lvgl/src/widgets/lv_table.c ****     lv_coord_t h = get_row_height(obj, row, font, letter_space, line_space,
 194:lvgl/src/widgets/lv_table.c ****                                   cell_left, cell_right, cell_top, cell_bottom);
 195:lvgl/src/widgets/lv_table.c **** 
 196:lvgl/src/widgets/lv_table.c **** 
 197:lvgl/src/widgets/lv_table.c ****     lv_coord_t minh = lv_obj_get_style_min_height(obj, LV_PART_ITEMS);
 198:lvgl/src/widgets/lv_table.c ****     lv_coord_t maxh = lv_obj_get_style_max_height(obj, LV_PART_ITEMS);
 199:lvgl/src/widgets/lv_table.c **** 
 200:lvgl/src/widgets/lv_table.c ****     table->row_h[row] = LV_CLAMP(minh, h, maxh);
 201:lvgl/src/widgets/lv_table.c **** 
 202:lvgl/src/widgets/lv_table.c ****     lv_obj_invalidate(obj);
ARM GAS  C:\usertemp\ccJd89Xr.s 			page 5


 203:lvgl/src/widgets/lv_table.c **** }
 204:lvgl/src/widgets/lv_table.c **** 
 205:lvgl/src/widgets/lv_table.c **** void lv_table_set_row_cnt(lv_obj_t * obj, uint16_t row_cnt)
 206:lvgl/src/widgets/lv_table.c **** {
 207:lvgl/src/widgets/lv_table.c ****     LV_ASSERT_OBJ(obj, MY_CLASS);
 208:lvgl/src/widgets/lv_table.c **** 
 209:lvgl/src/widgets/lv_table.c ****     lv_table_t * table = (lv_table_t *)obj;
 210:lvgl/src/widgets/lv_table.c ****     uint16_t old_row_cnt = table->row_cnt;
 211:lvgl/src/widgets/lv_table.c ****     table->row_cnt         = row_cnt;
 212:lvgl/src/widgets/lv_table.c **** 
 213:lvgl/src/widgets/lv_table.c ****     table->row_h = lv_mem_realloc(table->row_h, table->row_cnt * sizeof(table->row_h[0]));
 214:lvgl/src/widgets/lv_table.c ****     LV_ASSERT_MALLOC(table->row_h);
 215:lvgl/src/widgets/lv_table.c ****     if(table->row_h == NULL) return;
 216:lvgl/src/widgets/lv_table.c **** 
 217:lvgl/src/widgets/lv_table.c ****     /*Free the unused cells*/
 218:lvgl/src/widgets/lv_table.c ****     if(old_row_cnt > row_cnt) {
 219:lvgl/src/widgets/lv_table.c ****         uint16_t old_cell_cnt = old_row_cnt * table->col_cnt;
 220:lvgl/src/widgets/lv_table.c ****         uint32_t new_cell_cnt = table->col_cnt * table->row_cnt;
 221:lvgl/src/widgets/lv_table.c ****         uint32_t i;
 222:lvgl/src/widgets/lv_table.c ****         for(i = new_cell_cnt; i < old_cell_cnt; i++) {
 223:lvgl/src/widgets/lv_table.c ****             lv_mem_free(table->cell_data[i]);
 224:lvgl/src/widgets/lv_table.c ****         }
 225:lvgl/src/widgets/lv_table.c ****     }
 226:lvgl/src/widgets/lv_table.c **** 
 227:lvgl/src/widgets/lv_table.c ****     table->cell_data = lv_mem_realloc(table->cell_data, table->row_cnt * table->col_cnt * sizeof(ch
 228:lvgl/src/widgets/lv_table.c ****     LV_ASSERT_MALLOC(table->cell_data);
 229:lvgl/src/widgets/lv_table.c ****     if(table->cell_data == NULL) return;
 230:lvgl/src/widgets/lv_table.c **** 
 231:lvgl/src/widgets/lv_table.c ****     /*Initialize the new fields*/
 232:lvgl/src/widgets/lv_table.c ****     if(old_row_cnt < row_cnt) {
 233:lvgl/src/widgets/lv_table.c ****         uint32_t old_cell_cnt = old_row_cnt * table->col_cnt;
 234:lvgl/src/widgets/lv_table.c ****         uint32_t new_cell_cnt = table->col_cnt * table->row_cnt;
 235:lvgl/src/widgets/lv_table.c ****         lv_memset_00(&table->cell_data[old_cell_cnt], (new_cell_cnt - old_cell_cnt) * sizeof(table-
 236:lvgl/src/widgets/lv_table.c ****     }
 237:lvgl/src/widgets/lv_table.c **** 
 238:lvgl/src/widgets/lv_table.c ****     refr_size(obj, 0) ;
 239:lvgl/src/widgets/lv_table.c **** }
 240:lvgl/src/widgets/lv_table.c **** 
 241:lvgl/src/widgets/lv_table.c **** void lv_table_set_col_cnt(lv_obj_t * obj, uint16_t col_cnt)
 242:lvgl/src/widgets/lv_table.c **** {
 243:lvgl/src/widgets/lv_table.c ****     LV_ASSERT_OBJ(obj, MY_CLASS);
 244:lvgl/src/widgets/lv_table.c **** 
 245:lvgl/src/widgets/lv_table.c ****     lv_table_t * table = (lv_table_t *)obj;
 246:lvgl/src/widgets/lv_table.c ****     uint16_t old_col_cnt = table->col_cnt;
 247:lvgl/src/widgets/lv_table.c ****     table->col_cnt         = col_cnt;
 248:lvgl/src/widgets/lv_table.c ****     table->col_w = lv_mem_realloc(table->col_w, col_cnt * sizeof(table->row_h[0]));
 249:lvgl/src/widgets/lv_table.c ****     LV_ASSERT_MALLOC(table->col_w);
 250:lvgl/src/widgets/lv_table.c ****     if(table->col_w == NULL) return;
 251:lvgl/src/widgets/lv_table.c **** 
 252:lvgl/src/widgets/lv_table.c ****     /*Free the unused cells*/
 253:lvgl/src/widgets/lv_table.c ****     if(old_col_cnt > col_cnt) {
 254:lvgl/src/widgets/lv_table.c ****         uint16_t old_cell_cnt = old_col_cnt * table->row_cnt;
 255:lvgl/src/widgets/lv_table.c ****         uint32_t new_cell_cnt = table->col_cnt * table->row_cnt;
 256:lvgl/src/widgets/lv_table.c ****         uint32_t i;
 257:lvgl/src/widgets/lv_table.c ****         for(i = new_cell_cnt; i < old_cell_cnt; i++) {
 258:lvgl/src/widgets/lv_table.c ****             lv_mem_free(table->cell_data[i]);
 259:lvgl/src/widgets/lv_table.c ****         }
ARM GAS  C:\usertemp\ccJd89Xr.s 			page 6


 260:lvgl/src/widgets/lv_table.c ****     }
 261:lvgl/src/widgets/lv_table.c **** 
 262:lvgl/src/widgets/lv_table.c ****     char ** new_cell_data = lv_mem_alloc(table->row_cnt * table->col_cnt * sizeof(char *));
 263:lvgl/src/widgets/lv_table.c ****     LV_ASSERT_MALLOC(new_cell_data);
 264:lvgl/src/widgets/lv_table.c ****     if(new_cell_data == NULL) return;
 265:lvgl/src/widgets/lv_table.c ****     uint32_t new_cell_cnt = table->col_cnt * table->row_cnt;
 266:lvgl/src/widgets/lv_table.c ****     lv_memset_00(new_cell_data, new_cell_cnt * sizeof(table->cell_data[0]));
 267:lvgl/src/widgets/lv_table.c **** 
 268:lvgl/src/widgets/lv_table.c ****     /*Initialize the new fields*/
 269:lvgl/src/widgets/lv_table.c ****     if(old_col_cnt < col_cnt) {
 270:lvgl/src/widgets/lv_table.c ****         uint32_t col;
 271:lvgl/src/widgets/lv_table.c ****         for(col = old_col_cnt; col < col_cnt; col++) {
 272:lvgl/src/widgets/lv_table.c ****             table->col_w[col] = LV_DPI_DEF;
 273:lvgl/src/widgets/lv_table.c ****         }
 274:lvgl/src/widgets/lv_table.c ****     }
 275:lvgl/src/widgets/lv_table.c **** 
 276:lvgl/src/widgets/lv_table.c ****     /*The new column(s) messes up the mapping of `cell_data`*/
 277:lvgl/src/widgets/lv_table.c ****     uint32_t old_col_start;
 278:lvgl/src/widgets/lv_table.c ****     uint32_t new_col_start;
 279:lvgl/src/widgets/lv_table.c ****     uint32_t min_col_cnt = LV_MIN(old_col_cnt, col_cnt);
 280:lvgl/src/widgets/lv_table.c ****     uint32_t row;
 281:lvgl/src/widgets/lv_table.c ****     for(row = 0; row < table->row_cnt; row++) {
 282:lvgl/src/widgets/lv_table.c ****         old_col_start = row * old_col_cnt;
 283:lvgl/src/widgets/lv_table.c ****         new_col_start = row * col_cnt;
 284:lvgl/src/widgets/lv_table.c **** 
 285:lvgl/src/widgets/lv_table.c ****         lv_memcpy_small(&new_cell_data[new_col_start], &table->cell_data[old_col_start],
 286:lvgl/src/widgets/lv_table.c ****                         sizeof(new_cell_data[0]) * min_col_cnt);
 287:lvgl/src/widgets/lv_table.c ****     }
 288:lvgl/src/widgets/lv_table.c **** 
 289:lvgl/src/widgets/lv_table.c ****     lv_mem_free(table->cell_data);
 290:lvgl/src/widgets/lv_table.c ****     table->cell_data = new_cell_data;
 291:lvgl/src/widgets/lv_table.c **** 
 292:lvgl/src/widgets/lv_table.c **** 
 293:lvgl/src/widgets/lv_table.c ****     refr_size(obj, 0) ;
 294:lvgl/src/widgets/lv_table.c **** }
 295:lvgl/src/widgets/lv_table.c **** 
 296:lvgl/src/widgets/lv_table.c **** void lv_table_set_col_width(lv_obj_t * obj, uint16_t col_id, lv_coord_t w)
 297:lvgl/src/widgets/lv_table.c **** {
 298:lvgl/src/widgets/lv_table.c ****     LV_ASSERT_OBJ(obj, MY_CLASS);
 299:lvgl/src/widgets/lv_table.c **** 
 300:lvgl/src/widgets/lv_table.c ****     lv_table_t * table = (lv_table_t *)obj;
 301:lvgl/src/widgets/lv_table.c **** 
 302:lvgl/src/widgets/lv_table.c ****     /*Auto expand*/
 303:lvgl/src/widgets/lv_table.c ****     if(col_id >= table->col_cnt) lv_table_set_col_cnt(obj, col_id + 1);
 304:lvgl/src/widgets/lv_table.c **** 
 305:lvgl/src/widgets/lv_table.c ****     table->col_w[col_id] = w;
 306:lvgl/src/widgets/lv_table.c ****     refr_size(obj, 0) ;
 307:lvgl/src/widgets/lv_table.c **** }
 308:lvgl/src/widgets/lv_table.c **** 
 309:lvgl/src/widgets/lv_table.c **** void lv_table_add_cell_ctrl(lv_obj_t * obj, uint16_t row, uint16_t col, lv_table_cell_ctrl_t ctrl)
 310:lvgl/src/widgets/lv_table.c **** {
 311:lvgl/src/widgets/lv_table.c ****     LV_ASSERT_OBJ(obj, MY_CLASS);
 312:lvgl/src/widgets/lv_table.c **** 
 313:lvgl/src/widgets/lv_table.c ****     lv_table_t * table = (lv_table_t *)obj;
 314:lvgl/src/widgets/lv_table.c **** 
 315:lvgl/src/widgets/lv_table.c ****     /*Auto expand*/
 316:lvgl/src/widgets/lv_table.c ****     if(col >= table->col_cnt) lv_table_set_col_cnt(obj, col + 1);
ARM GAS  C:\usertemp\ccJd89Xr.s 			page 7


 317:lvgl/src/widgets/lv_table.c ****     if(row >= table->row_cnt) lv_table_set_row_cnt(obj, row + 1);
 318:lvgl/src/widgets/lv_table.c **** 
 319:lvgl/src/widgets/lv_table.c ****     uint32_t cell = row * table->col_cnt + col;
 320:lvgl/src/widgets/lv_table.c **** 
 321:lvgl/src/widgets/lv_table.c ****     if(table->cell_data[cell] == NULL) {
 322:lvgl/src/widgets/lv_table.c ****         table->cell_data[cell]    = lv_mem_alloc(2); /*+1: trailing '\0; +1: format byte*/
 323:lvgl/src/widgets/lv_table.c ****         LV_ASSERT_MALLOC(table->cell_data[cell]);
 324:lvgl/src/widgets/lv_table.c ****         if(table->cell_data[cell] == NULL) return;
 325:lvgl/src/widgets/lv_table.c **** 
 326:lvgl/src/widgets/lv_table.c ****         table->cell_data[cell][0] = 0;
 327:lvgl/src/widgets/lv_table.c ****         table->cell_data[cell][1] = '\0';
 328:lvgl/src/widgets/lv_table.c ****     }
 329:lvgl/src/widgets/lv_table.c **** 
 330:lvgl/src/widgets/lv_table.c ****     table->cell_data[cell][0] |= ctrl;
 331:lvgl/src/widgets/lv_table.c **** }
 332:lvgl/src/widgets/lv_table.c **** 
 333:lvgl/src/widgets/lv_table.c **** void lv_table_clear_cell_ctrl(lv_obj_t * obj, uint16_t row, uint16_t col, lv_table_cell_ctrl_t ctrl
 334:lvgl/src/widgets/lv_table.c **** {
 335:lvgl/src/widgets/lv_table.c ****     LV_ASSERT_OBJ(obj, MY_CLASS);
 336:lvgl/src/widgets/lv_table.c **** 
 337:lvgl/src/widgets/lv_table.c ****     lv_table_t * table = (lv_table_t *)obj;
 338:lvgl/src/widgets/lv_table.c **** 
 339:lvgl/src/widgets/lv_table.c ****     /*Auto expand*/
 340:lvgl/src/widgets/lv_table.c ****     if(col >= table->col_cnt) lv_table_set_col_cnt(obj, col + 1);
 341:lvgl/src/widgets/lv_table.c ****     if(row >= table->row_cnt) lv_table_set_row_cnt(obj, row + 1);
 342:lvgl/src/widgets/lv_table.c **** 
 343:lvgl/src/widgets/lv_table.c ****     uint32_t cell = row * table->col_cnt + col;
 344:lvgl/src/widgets/lv_table.c **** 
 345:lvgl/src/widgets/lv_table.c ****     if(table->cell_data[cell] == NULL) {
 346:lvgl/src/widgets/lv_table.c ****         table->cell_data[cell]    = lv_mem_alloc(2); /*+1: trailing '\0; +1: format byte*/
 347:lvgl/src/widgets/lv_table.c ****         LV_ASSERT_MALLOC(table->cell_data[cell]);
 348:lvgl/src/widgets/lv_table.c ****         if(table->cell_data[cell] == NULL) return;
 349:lvgl/src/widgets/lv_table.c **** 
 350:lvgl/src/widgets/lv_table.c ****         table->cell_data[cell][0] = 0;
 351:lvgl/src/widgets/lv_table.c ****         table->cell_data[cell][1] = '\0';
 352:lvgl/src/widgets/lv_table.c ****     }
 353:lvgl/src/widgets/lv_table.c **** 
 354:lvgl/src/widgets/lv_table.c ****     table->cell_data[cell][0] &= (~ctrl);
 355:lvgl/src/widgets/lv_table.c **** }
 356:lvgl/src/widgets/lv_table.c **** 
 357:lvgl/src/widgets/lv_table.c **** /*=====================
 358:lvgl/src/widgets/lv_table.c ****  * Getter functions
 359:lvgl/src/widgets/lv_table.c ****  *====================*/
 360:lvgl/src/widgets/lv_table.c **** 
 361:lvgl/src/widgets/lv_table.c **** const char * lv_table_get_cell_value(lv_obj_t * obj, uint16_t row, uint16_t col)
 362:lvgl/src/widgets/lv_table.c **** {
 363:lvgl/src/widgets/lv_table.c ****     LV_ASSERT_OBJ(obj, MY_CLASS);
 364:lvgl/src/widgets/lv_table.c **** 
 365:lvgl/src/widgets/lv_table.c ****     lv_table_t * table = (lv_table_t *)obj;
 366:lvgl/src/widgets/lv_table.c ****     if(row >= table->row_cnt || col >= table->col_cnt) {
 367:lvgl/src/widgets/lv_table.c ****         LV_LOG_WARN("lv_table_set_cell_value: invalid row or column");
 368:lvgl/src/widgets/lv_table.c ****         return "";
 369:lvgl/src/widgets/lv_table.c ****     }
 370:lvgl/src/widgets/lv_table.c ****     uint32_t cell = row * table->col_cnt + col;
 371:lvgl/src/widgets/lv_table.c **** 
 372:lvgl/src/widgets/lv_table.c ****     if(table->cell_data[cell] == NULL) return "";
 373:lvgl/src/widgets/lv_table.c **** 
ARM GAS  C:\usertemp\ccJd89Xr.s 			page 8


 374:lvgl/src/widgets/lv_table.c ****     return &table->cell_data[cell][1]; /*Skip the format byte*/
 375:lvgl/src/widgets/lv_table.c **** }
 376:lvgl/src/widgets/lv_table.c **** 
 377:lvgl/src/widgets/lv_table.c **** uint16_t lv_table_get_row_cnt(lv_obj_t * obj)
 378:lvgl/src/widgets/lv_table.c **** {
 379:lvgl/src/widgets/lv_table.c ****     LV_ASSERT_OBJ(obj, MY_CLASS);
 380:lvgl/src/widgets/lv_table.c **** 
 381:lvgl/src/widgets/lv_table.c ****     lv_table_t * table = (lv_table_t *)obj;
 382:lvgl/src/widgets/lv_table.c ****     return table->row_cnt;
 383:lvgl/src/widgets/lv_table.c **** }
 384:lvgl/src/widgets/lv_table.c **** 
 385:lvgl/src/widgets/lv_table.c **** uint16_t lv_table_get_col_cnt(lv_obj_t * obj)
 386:lvgl/src/widgets/lv_table.c **** {
 387:lvgl/src/widgets/lv_table.c ****     LV_ASSERT_OBJ(obj, MY_CLASS);
 388:lvgl/src/widgets/lv_table.c **** 
 389:lvgl/src/widgets/lv_table.c ****     lv_table_t * table = (lv_table_t *)obj;
 390:lvgl/src/widgets/lv_table.c ****     return table->col_cnt;
 391:lvgl/src/widgets/lv_table.c **** }
 392:lvgl/src/widgets/lv_table.c **** 
 393:lvgl/src/widgets/lv_table.c **** lv_coord_t lv_table_get_col_width(lv_obj_t * obj, uint16_t col)
 394:lvgl/src/widgets/lv_table.c **** {
 395:lvgl/src/widgets/lv_table.c ****     LV_ASSERT_OBJ(obj, MY_CLASS);
 396:lvgl/src/widgets/lv_table.c **** 
 397:lvgl/src/widgets/lv_table.c ****     lv_table_t * table = (lv_table_t *)obj;
 398:lvgl/src/widgets/lv_table.c **** 
 399:lvgl/src/widgets/lv_table.c ****     if(col >= table->col_cnt) {
 400:lvgl/src/widgets/lv_table.c ****         LV_LOG_WARN("lv_table_set_col_width: too big 'col_id'. Must be < LV_TABLE_COL_MAX.");
 401:lvgl/src/widgets/lv_table.c ****         return 0;
 402:lvgl/src/widgets/lv_table.c ****     }
 403:lvgl/src/widgets/lv_table.c **** 
 404:lvgl/src/widgets/lv_table.c ****     return table->col_w[col];
 405:lvgl/src/widgets/lv_table.c **** }
 406:lvgl/src/widgets/lv_table.c **** 
 407:lvgl/src/widgets/lv_table.c **** bool lv_table_has_cell_ctrl(lv_obj_t * obj, uint16_t row, uint16_t col, lv_table_cell_ctrl_t ctrl)
 408:lvgl/src/widgets/lv_table.c **** {
 409:lvgl/src/widgets/lv_table.c ****     LV_ASSERT_OBJ(obj, MY_CLASS);
 410:lvgl/src/widgets/lv_table.c **** 
 411:lvgl/src/widgets/lv_table.c ****     lv_table_t * table = (lv_table_t *)obj;
 412:lvgl/src/widgets/lv_table.c ****     if(row >= table->row_cnt || col >= table->col_cnt) {
 413:lvgl/src/widgets/lv_table.c ****         LV_LOG_WARN("lv_table_get_cell_crop: invalid row or column");
 414:lvgl/src/widgets/lv_table.c ****         return false;
 415:lvgl/src/widgets/lv_table.c ****     }
 416:lvgl/src/widgets/lv_table.c ****     uint32_t cell = row * table->col_cnt + col;
 417:lvgl/src/widgets/lv_table.c **** 
 418:lvgl/src/widgets/lv_table.c ****     if(table->cell_data[cell] == NULL) return false;
 419:lvgl/src/widgets/lv_table.c ****     else return (table->cell_data[cell][0] & ctrl) == ctrl ? true : false;
 420:lvgl/src/widgets/lv_table.c **** }
 421:lvgl/src/widgets/lv_table.c **** 
 422:lvgl/src/widgets/lv_table.c **** void lv_table_get_selected_cell(lv_obj_t * obj, uint16_t * row, uint16_t * col)
 423:lvgl/src/widgets/lv_table.c **** {
 424:lvgl/src/widgets/lv_table.c ****     lv_table_t * table = (lv_table_t *)obj;
 425:lvgl/src/widgets/lv_table.c ****     *row = table->row_act;
 426:lvgl/src/widgets/lv_table.c ****     *col = table->col_act;
 427:lvgl/src/widgets/lv_table.c **** }
 428:lvgl/src/widgets/lv_table.c **** 
 429:lvgl/src/widgets/lv_table.c **** /**********************
 430:lvgl/src/widgets/lv_table.c ****  *   STATIC FUNCTIONS
ARM GAS  C:\usertemp\ccJd89Xr.s 			page 9


 431:lvgl/src/widgets/lv_table.c ****  **********************/
 432:lvgl/src/widgets/lv_table.c **** 
 433:lvgl/src/widgets/lv_table.c **** static void lv_table_constructor(const lv_obj_class_t * class_p, lv_obj_t * obj)
 434:lvgl/src/widgets/lv_table.c **** {
 435:lvgl/src/widgets/lv_table.c ****     LV_UNUSED(class_p);
 436:lvgl/src/widgets/lv_table.c ****     LV_TRACE_OBJ_CREATE("begin");
 437:lvgl/src/widgets/lv_table.c **** 
 438:lvgl/src/widgets/lv_table.c ****     lv_table_t * table = (lv_table_t *)obj;
 439:lvgl/src/widgets/lv_table.c **** 
 440:lvgl/src/widgets/lv_table.c ****     table->col_cnt = 1;
 441:lvgl/src/widgets/lv_table.c ****     table->row_cnt = 1;
 442:lvgl/src/widgets/lv_table.c ****     table->col_w = lv_mem_alloc(table->col_cnt * sizeof(table->col_w[0]));
 443:lvgl/src/widgets/lv_table.c ****     table->row_h = lv_mem_alloc(table->row_cnt * sizeof(table->row_h[0]));
 444:lvgl/src/widgets/lv_table.c ****     table->col_w[0] = LV_DPI_DEF;
 445:lvgl/src/widgets/lv_table.c ****     table->row_h[0] = LV_DPI_DEF;
 446:lvgl/src/widgets/lv_table.c ****     table->cell_data = lv_mem_realloc(table->cell_data, table->row_cnt * table->col_cnt * sizeof(ch
 447:lvgl/src/widgets/lv_table.c ****     table->cell_data[0] = NULL;
 448:lvgl/src/widgets/lv_table.c **** 
 449:lvgl/src/widgets/lv_table.c ****     LV_TRACE_OBJ_CREATE("finished");
 450:lvgl/src/widgets/lv_table.c **** }
 451:lvgl/src/widgets/lv_table.c **** 
 452:lvgl/src/widgets/lv_table.c **** static void lv_table_destructor(const lv_obj_class_t * class_p, lv_obj_t * obj)
 453:lvgl/src/widgets/lv_table.c **** {
 454:lvgl/src/widgets/lv_table.c ****     LV_UNUSED(class_p);
 455:lvgl/src/widgets/lv_table.c ****     lv_table_t * table = (lv_table_t *)obj;
 456:lvgl/src/widgets/lv_table.c ****     /*Free the cell texts*/
 457:lvgl/src/widgets/lv_table.c ****     uint16_t i;
 458:lvgl/src/widgets/lv_table.c ****     for(i = 0; i < table->col_cnt * table->row_cnt; i++) {
 459:lvgl/src/widgets/lv_table.c ****         if(table->cell_data[i]) {
 460:lvgl/src/widgets/lv_table.c ****             lv_mem_free(table->cell_data[i]);
 461:lvgl/src/widgets/lv_table.c ****             table->cell_data[i] = NULL;
 462:lvgl/src/widgets/lv_table.c ****         }
 463:lvgl/src/widgets/lv_table.c ****     }
 464:lvgl/src/widgets/lv_table.c **** 
 465:lvgl/src/widgets/lv_table.c ****     if(table->cell_data) lv_mem_free(table->cell_data);
 466:lvgl/src/widgets/lv_table.c ****     if(table->row_h) lv_mem_free(table->row_h);
 467:lvgl/src/widgets/lv_table.c ****     if(table->col_w) lv_mem_free(table->col_w);
 468:lvgl/src/widgets/lv_table.c **** }
 469:lvgl/src/widgets/lv_table.c **** 
 470:lvgl/src/widgets/lv_table.c **** static void lv_table_event(const lv_obj_class_t * class_p, lv_event_t * e)
 471:lvgl/src/widgets/lv_table.c **** {
 472:lvgl/src/widgets/lv_table.c ****     LV_UNUSED(class_p);
 473:lvgl/src/widgets/lv_table.c **** 
 474:lvgl/src/widgets/lv_table.c ****     lv_res_t res;
 475:lvgl/src/widgets/lv_table.c **** 
 476:lvgl/src/widgets/lv_table.c ****     /*Call the ancestor's event handler*/
 477:lvgl/src/widgets/lv_table.c ****     res = lv_obj_event_base(MY_CLASS, e);
 478:lvgl/src/widgets/lv_table.c ****     if(res != LV_RES_OK) return;
 479:lvgl/src/widgets/lv_table.c **** 
 480:lvgl/src/widgets/lv_table.c ****     lv_event_code_t code = lv_event_get_code(e);
 481:lvgl/src/widgets/lv_table.c ****     lv_obj_t * obj = lv_event_get_target(e);
 482:lvgl/src/widgets/lv_table.c ****     lv_table_t * table = (lv_table_t *)obj;
 483:lvgl/src/widgets/lv_table.c **** 
 484:lvgl/src/widgets/lv_table.c ****     if(code == LV_EVENT_STYLE_CHANGED) {
 485:lvgl/src/widgets/lv_table.c ****         refr_size(obj, 0);
 486:lvgl/src/widgets/lv_table.c ****     }
 487:lvgl/src/widgets/lv_table.c ****     else if(code == LV_EVENT_GET_SELF_SIZE) {
ARM GAS  C:\usertemp\ccJd89Xr.s 			page 10


 488:lvgl/src/widgets/lv_table.c ****         lv_point_t * p = lv_event_get_param(e);
 489:lvgl/src/widgets/lv_table.c ****         uint32_t i;
 490:lvgl/src/widgets/lv_table.c ****         lv_coord_t w = 0;
 491:lvgl/src/widgets/lv_table.c ****         for(i = 0; i < table->col_cnt; i++) w += table->col_w[i];
 492:lvgl/src/widgets/lv_table.c **** 
 493:lvgl/src/widgets/lv_table.c ****         lv_coord_t h = 0;
 494:lvgl/src/widgets/lv_table.c ****         for(i = 0; i < table->row_cnt; i++) h += table->row_h[i];
 495:lvgl/src/widgets/lv_table.c **** 
 496:lvgl/src/widgets/lv_table.c ****         p->x = w - 1;
 497:lvgl/src/widgets/lv_table.c ****         p->y = h - 1;
 498:lvgl/src/widgets/lv_table.c ****     }
 499:lvgl/src/widgets/lv_table.c ****     else if(code == LV_EVENT_PRESSED || code == LV_EVENT_PRESSING) {
 500:lvgl/src/widgets/lv_table.c ****         uint16_t col;
 501:lvgl/src/widgets/lv_table.c ****         uint16_t row;
 502:lvgl/src/widgets/lv_table.c ****         lv_res_t pr_res = get_pressed_cell(obj, &row, &col);
 503:lvgl/src/widgets/lv_table.c **** 
 504:lvgl/src/widgets/lv_table.c ****         if(pr_res == LV_RES_OK && (table->col_act != col || table->row_act != row)) {
 505:lvgl/src/widgets/lv_table.c ****             table->col_act = col;
 506:lvgl/src/widgets/lv_table.c ****             table->row_act = row;
 507:lvgl/src/widgets/lv_table.c ****             lv_obj_invalidate(obj);
 508:lvgl/src/widgets/lv_table.c ****         }
 509:lvgl/src/widgets/lv_table.c ****     }
 510:lvgl/src/widgets/lv_table.c ****     else if(code == LV_EVENT_RELEASED) {
 511:lvgl/src/widgets/lv_table.c ****         lv_obj_invalidate(obj);
 512:lvgl/src/widgets/lv_table.c ****         lv_indev_t * indev = lv_indev_get_act();
 513:lvgl/src/widgets/lv_table.c ****         lv_obj_t * scroll_obj = lv_indev_get_scroll_obj(indev);
 514:lvgl/src/widgets/lv_table.c ****         if(table->col_act != LV_TABLE_CELL_NONE && table->row_act != LV_TABLE_CELL_NONE && scroll_o
 515:lvgl/src/widgets/lv_table.c ****             res = lv_event_send(obj, LV_EVENT_VALUE_CHANGED, NULL);
 516:lvgl/src/widgets/lv_table.c ****             if(res != LV_RES_OK) return;
 517:lvgl/src/widgets/lv_table.c ****         }
 518:lvgl/src/widgets/lv_table.c **** 
 519:lvgl/src/widgets/lv_table.c ****         lv_indev_type_t indev_type = lv_indev_get_type(lv_indev_get_act());
 520:lvgl/src/widgets/lv_table.c ****         if(indev_type == LV_INDEV_TYPE_POINTER || indev_type == LV_INDEV_TYPE_BUTTON) {
 521:lvgl/src/widgets/lv_table.c ****             table->col_act = LV_TABLE_CELL_NONE;
 522:lvgl/src/widgets/lv_table.c ****             table->row_act = LV_TABLE_CELL_NONE;
 523:lvgl/src/widgets/lv_table.c ****         }
 524:lvgl/src/widgets/lv_table.c ****     }
 525:lvgl/src/widgets/lv_table.c ****     else if(code == LV_EVENT_FOCUSED) {
 526:lvgl/src/widgets/lv_table.c ****         lv_obj_invalidate(obj);
 527:lvgl/src/widgets/lv_table.c ****     }
 528:lvgl/src/widgets/lv_table.c ****     else if(code == LV_EVENT_KEY) {
 529:lvgl/src/widgets/lv_table.c ****         int32_t c = *((int32_t *)lv_event_get_param(e));
 530:lvgl/src/widgets/lv_table.c ****         int32_t col = table->col_act;
 531:lvgl/src/widgets/lv_table.c ****         int32_t row = table->row_act;
 532:lvgl/src/widgets/lv_table.c ****         if(col == LV_TABLE_CELL_NONE || row == LV_TABLE_CELL_NONE) {
 533:lvgl/src/widgets/lv_table.c ****             table->col_act = 0;
 534:lvgl/src/widgets/lv_table.c ****             table->row_act = 0;
 535:lvgl/src/widgets/lv_table.c ****             lv_obj_invalidate(obj);
 536:lvgl/src/widgets/lv_table.c ****             return;
 537:lvgl/src/widgets/lv_table.c ****         }
 538:lvgl/src/widgets/lv_table.c **** 
 539:lvgl/src/widgets/lv_table.c ****         if(col >= table->col_cnt) col = 0;
 540:lvgl/src/widgets/lv_table.c ****         if(row >= table->row_cnt) row = 0;
 541:lvgl/src/widgets/lv_table.c **** 
 542:lvgl/src/widgets/lv_table.c ****         if(c == LV_KEY_LEFT) col--;
 543:lvgl/src/widgets/lv_table.c ****         else if(c == LV_KEY_RIGHT) col++;
 544:lvgl/src/widgets/lv_table.c ****         else if(c == LV_KEY_UP) row--;
ARM GAS  C:\usertemp\ccJd89Xr.s 			page 11


 545:lvgl/src/widgets/lv_table.c ****         else if(c == LV_KEY_DOWN) row++;
 546:lvgl/src/widgets/lv_table.c ****         else return;
 547:lvgl/src/widgets/lv_table.c **** 
 548:lvgl/src/widgets/lv_table.c ****         if(col >= table->col_cnt) {
 549:lvgl/src/widgets/lv_table.c ****             if(row < table->row_cnt - 1) {
 550:lvgl/src/widgets/lv_table.c ****                 col = 0;
 551:lvgl/src/widgets/lv_table.c ****                 row++;
 552:lvgl/src/widgets/lv_table.c ****             }
 553:lvgl/src/widgets/lv_table.c ****             else {
 554:lvgl/src/widgets/lv_table.c ****                 col = table->col_cnt - 1;
 555:lvgl/src/widgets/lv_table.c ****             }
 556:lvgl/src/widgets/lv_table.c ****         }
 557:lvgl/src/widgets/lv_table.c ****         else if(col < 0) {
 558:lvgl/src/widgets/lv_table.c ****             if(row != 0) {
 559:lvgl/src/widgets/lv_table.c ****                 col = table->col_cnt - 1;
 560:lvgl/src/widgets/lv_table.c ****                 row--;
 561:lvgl/src/widgets/lv_table.c ****             }
 562:lvgl/src/widgets/lv_table.c ****             else {
 563:lvgl/src/widgets/lv_table.c ****                 col = 0;
 564:lvgl/src/widgets/lv_table.c ****             }
 565:lvgl/src/widgets/lv_table.c ****         }
 566:lvgl/src/widgets/lv_table.c **** 
 567:lvgl/src/widgets/lv_table.c ****         if(row >= table->row_cnt) {
 568:lvgl/src/widgets/lv_table.c ****             row = table->row_cnt - 1;
 569:lvgl/src/widgets/lv_table.c ****         }
 570:lvgl/src/widgets/lv_table.c ****         else if(row < 0) {
 571:lvgl/src/widgets/lv_table.c ****             row = 0;
 572:lvgl/src/widgets/lv_table.c ****         }
 573:lvgl/src/widgets/lv_table.c **** 
 574:lvgl/src/widgets/lv_table.c ****         if(table->col_act != col || table->row_act != row) {
 575:lvgl/src/widgets/lv_table.c ****             table->col_act = col;
 576:lvgl/src/widgets/lv_table.c ****             table->row_act = row;
 577:lvgl/src/widgets/lv_table.c ****             lv_obj_invalidate(obj);
 578:lvgl/src/widgets/lv_table.c **** 
 579:lvgl/src/widgets/lv_table.c ****             res = lv_event_send(obj, LV_EVENT_VALUE_CHANGED, NULL);
 580:lvgl/src/widgets/lv_table.c ****             if(res != LV_RES_OK) return;
 581:lvgl/src/widgets/lv_table.c ****         }
 582:lvgl/src/widgets/lv_table.c ****     }
 583:lvgl/src/widgets/lv_table.c ****     else if(code == LV_EVENT_DRAW_MAIN) {
 584:lvgl/src/widgets/lv_table.c ****         draw_main(e);
 585:lvgl/src/widgets/lv_table.c ****     }
 586:lvgl/src/widgets/lv_table.c **** }
 587:lvgl/src/widgets/lv_table.c **** 
 588:lvgl/src/widgets/lv_table.c **** 
 589:lvgl/src/widgets/lv_table.c **** static void draw_main(lv_event_t * e)
 590:lvgl/src/widgets/lv_table.c **** {
 591:lvgl/src/widgets/lv_table.c ****     lv_obj_t * obj = lv_event_get_target(e);
 592:lvgl/src/widgets/lv_table.c ****     lv_table_t * table = (lv_table_t *)obj;
 593:lvgl/src/widgets/lv_table.c ****     lv_draw_ctx_t * draw_ctx = lv_event_get_draw_ctx(e);
 594:lvgl/src/widgets/lv_table.c ****     lv_area_t clip_area;
 595:lvgl/src/widgets/lv_table.c ****     if(!_lv_area_intersect(&clip_area, &obj->coords, draw_ctx->clip_area)) return;
 596:lvgl/src/widgets/lv_table.c **** 
 597:lvgl/src/widgets/lv_table.c ****     const lv_area_t * clip_area_ori = draw_ctx->clip_area;
 598:lvgl/src/widgets/lv_table.c ****     draw_ctx->clip_area = &clip_area;
 599:lvgl/src/widgets/lv_table.c **** 
 600:lvgl/src/widgets/lv_table.c ****     lv_point_t txt_size;
 601:lvgl/src/widgets/lv_table.c ****     lv_area_t cell_area;
ARM GAS  C:\usertemp\ccJd89Xr.s 			page 12


 602:lvgl/src/widgets/lv_table.c ****     lv_area_t txt_area;
 603:lvgl/src/widgets/lv_table.c ****     lv_text_flag_t txt_flags;
 604:lvgl/src/widgets/lv_table.c **** 
 605:lvgl/src/widgets/lv_table.c ****     lv_coord_t border_width = lv_obj_get_style_border_width(obj, LV_PART_MAIN);
 606:lvgl/src/widgets/lv_table.c ****     lv_coord_t bg_top = lv_obj_get_style_pad_top(obj, LV_PART_MAIN);
 607:lvgl/src/widgets/lv_table.c ****     lv_coord_t bg_bottom = lv_obj_get_style_pad_bottom(obj, LV_PART_MAIN);
 608:lvgl/src/widgets/lv_table.c ****     lv_coord_t bg_left = lv_obj_get_style_pad_left(obj, LV_PART_MAIN);
 609:lvgl/src/widgets/lv_table.c ****     lv_coord_t bg_right = lv_obj_get_style_pad_right(obj, LV_PART_MAIN);
 610:lvgl/src/widgets/lv_table.c **** 
 611:lvgl/src/widgets/lv_table.c ****     lv_coord_t cell_left = lv_obj_get_style_pad_left(obj, LV_PART_ITEMS);
 612:lvgl/src/widgets/lv_table.c ****     lv_coord_t cell_right = lv_obj_get_style_pad_right(obj, LV_PART_ITEMS);
 613:lvgl/src/widgets/lv_table.c ****     lv_coord_t cell_top = lv_obj_get_style_pad_top(obj, LV_PART_ITEMS);
 614:lvgl/src/widgets/lv_table.c ****     lv_coord_t cell_bottom = lv_obj_get_style_pad_bottom(obj, LV_PART_ITEMS);
 615:lvgl/src/widgets/lv_table.c **** 
 616:lvgl/src/widgets/lv_table.c ****     lv_state_t state_ori = obj->state;
 617:lvgl/src/widgets/lv_table.c ****     obj->state = LV_STATE_DEFAULT;
 618:lvgl/src/widgets/lv_table.c ****     obj->skip_trans = 1;
 619:lvgl/src/widgets/lv_table.c ****     lv_draw_rect_dsc_t rect_dsc_def;
 620:lvgl/src/widgets/lv_table.c ****     lv_draw_rect_dsc_t rect_dsc_act; /*Passed to the event to modify it*/
 621:lvgl/src/widgets/lv_table.c ****     lv_draw_rect_dsc_init(&rect_dsc_def);
 622:lvgl/src/widgets/lv_table.c ****     lv_obj_init_draw_rect_dsc(obj, LV_PART_ITEMS, &rect_dsc_def);
 623:lvgl/src/widgets/lv_table.c **** 
 624:lvgl/src/widgets/lv_table.c ****     lv_draw_label_dsc_t label_dsc_def;
 625:lvgl/src/widgets/lv_table.c ****     lv_draw_label_dsc_t label_dsc_act;  /*Passed to the event to modify it*/
 626:lvgl/src/widgets/lv_table.c ****     lv_draw_label_dsc_init(&label_dsc_def);
 627:lvgl/src/widgets/lv_table.c ****     lv_obj_init_draw_label_dsc(obj, LV_PART_ITEMS, &label_dsc_def);
 628:lvgl/src/widgets/lv_table.c ****     obj->state = state_ori;
 629:lvgl/src/widgets/lv_table.c ****     obj->skip_trans = 0;
 630:lvgl/src/widgets/lv_table.c **** 
 631:lvgl/src/widgets/lv_table.c ****     uint16_t col;
 632:lvgl/src/widgets/lv_table.c ****     uint16_t row;
 633:lvgl/src/widgets/lv_table.c ****     uint16_t cell = 0;
 634:lvgl/src/widgets/lv_table.c **** 
 635:lvgl/src/widgets/lv_table.c ****     cell_area.y2 = obj->coords.y1 + bg_top - 1 - lv_obj_get_scroll_y(obj) + border_width;
 636:lvgl/src/widgets/lv_table.c ****     lv_coord_t scroll_x = lv_obj_get_scroll_x(obj) ;
 637:lvgl/src/widgets/lv_table.c ****     bool rtl = lv_obj_get_style_base_dir(obj, LV_PART_MAIN) == LV_BASE_DIR_RTL ? true : false;
 638:lvgl/src/widgets/lv_table.c **** 
 639:lvgl/src/widgets/lv_table.c ****     /*Handle custom drawer*/
 640:lvgl/src/widgets/lv_table.c ****     lv_obj_draw_part_dsc_t part_draw_dsc;
 641:lvgl/src/widgets/lv_table.c ****     lv_obj_draw_dsc_init(&part_draw_dsc, draw_ctx);
 642:lvgl/src/widgets/lv_table.c ****     part_draw_dsc.part = LV_PART_ITEMS;
 643:lvgl/src/widgets/lv_table.c ****     part_draw_dsc.class_p = MY_CLASS;
 644:lvgl/src/widgets/lv_table.c ****     part_draw_dsc.type = LV_TABLE_DRAW_PART_CELL;
 645:lvgl/src/widgets/lv_table.c ****     part_draw_dsc.rect_dsc = &rect_dsc_act;
 646:lvgl/src/widgets/lv_table.c ****     part_draw_dsc.label_dsc = &label_dsc_act;
 647:lvgl/src/widgets/lv_table.c **** 
 648:lvgl/src/widgets/lv_table.c ****     for(row = 0; row < table->row_cnt; row++) {
 649:lvgl/src/widgets/lv_table.c ****         lv_coord_t h_row = table->row_h[row];
 650:lvgl/src/widgets/lv_table.c **** 
 651:lvgl/src/widgets/lv_table.c ****         cell_area.y1 = cell_area.y2 + 1;
 652:lvgl/src/widgets/lv_table.c ****         cell_area.y2 = cell_area.y1 + h_row - 1;
 653:lvgl/src/widgets/lv_table.c **** 
 654:lvgl/src/widgets/lv_table.c ****         if(cell_area.y1 > clip_area.y2) break;
 655:lvgl/src/widgets/lv_table.c **** 
 656:lvgl/src/widgets/lv_table.c ****         if(rtl) cell_area.x1 = obj->coords.x2 - bg_right - 1 - scroll_x - border_width;
 657:lvgl/src/widgets/lv_table.c ****         else cell_area.x2 = obj->coords.x1 + bg_left - 1 - scroll_x + border_width;
 658:lvgl/src/widgets/lv_table.c **** 
ARM GAS  C:\usertemp\ccJd89Xr.s 			page 13


 659:lvgl/src/widgets/lv_table.c ****         for(col = 0; col < table->col_cnt; col++) {
 660:lvgl/src/widgets/lv_table.c ****             lv_table_cell_ctrl_t ctrl = 0;
 661:lvgl/src/widgets/lv_table.c ****             if(table->cell_data[cell]) ctrl = table->cell_data[cell][0];
 662:lvgl/src/widgets/lv_table.c **** 
 663:lvgl/src/widgets/lv_table.c ****             if(rtl) {
 664:lvgl/src/widgets/lv_table.c ****                 cell_area.x2 = cell_area.x1 - 1;
 665:lvgl/src/widgets/lv_table.c ****                 cell_area.x1 = cell_area.x2 - table->col_w[col] + 1;
 666:lvgl/src/widgets/lv_table.c ****             }
 667:lvgl/src/widgets/lv_table.c ****             else {
 668:lvgl/src/widgets/lv_table.c ****                 cell_area.x1 = cell_area.x2 + 1;
 669:lvgl/src/widgets/lv_table.c ****                 cell_area.x2 = cell_area.x1 + table->col_w[col] - 1;
 670:lvgl/src/widgets/lv_table.c ****             }
 671:lvgl/src/widgets/lv_table.c **** 
 672:lvgl/src/widgets/lv_table.c ****             uint16_t col_merge = 0;
 673:lvgl/src/widgets/lv_table.c ****             for(col_merge = 0; col_merge + col < table->col_cnt - 1; col_merge++) {
 674:lvgl/src/widgets/lv_table.c ****                 if(table->cell_data[cell + col_merge]) {
 675:lvgl/src/widgets/lv_table.c ****                     char * next_cell_data = table->cell_data[cell + col_merge];
 676:lvgl/src/widgets/lv_table.c ****                     if(next_cell_data) ctrl = next_cell_data[0];
 677:lvgl/src/widgets/lv_table.c ****                     if(ctrl & LV_TABLE_CELL_CTRL_MERGE_RIGHT)
 678:lvgl/src/widgets/lv_table.c ****                         if(rtl) cell_area.x1 -= table->col_w[col + col_merge + 1];
 679:lvgl/src/widgets/lv_table.c ****                         else cell_area.x2 += table->col_w[col + col_merge + 1];
 680:lvgl/src/widgets/lv_table.c ****                     else {
 681:lvgl/src/widgets/lv_table.c ****                         break;
 682:lvgl/src/widgets/lv_table.c ****                     }
 683:lvgl/src/widgets/lv_table.c ****                 }
 684:lvgl/src/widgets/lv_table.c ****                 else {
 685:lvgl/src/widgets/lv_table.c ****                     break;
 686:lvgl/src/widgets/lv_table.c ****                 }
 687:lvgl/src/widgets/lv_table.c ****             }
 688:lvgl/src/widgets/lv_table.c **** 
 689:lvgl/src/widgets/lv_table.c ****             if(cell_area.y2 < clip_area.y1) {
 690:lvgl/src/widgets/lv_table.c ****                 cell += col_merge + 1;
 691:lvgl/src/widgets/lv_table.c ****                 col += col_merge;
 692:lvgl/src/widgets/lv_table.c ****                 continue;
 693:lvgl/src/widgets/lv_table.c ****             }
 694:lvgl/src/widgets/lv_table.c **** 
 695:lvgl/src/widgets/lv_table.c ****             /*Expand the cell area with a half border to avoid drawing 2 borders next to each other
 696:lvgl/src/widgets/lv_table.c ****             lv_area_t cell_area_border;
 697:lvgl/src/widgets/lv_table.c ****             lv_area_copy(&cell_area_border, &cell_area);
 698:lvgl/src/widgets/lv_table.c ****             if((rect_dsc_def.border_side & LV_BORDER_SIDE_LEFT) && cell_area_border.x1 > obj->coord
 699:lvgl/src/widgets/lv_table.c ****                 cell_area_border.x1 -= rect_dsc_def.border_width / 2;
 700:lvgl/src/widgets/lv_table.c ****             }
 701:lvgl/src/widgets/lv_table.c ****             if((rect_dsc_def.border_side & LV_BORDER_SIDE_TOP) && cell_area_border.y1 > obj->coords
 702:lvgl/src/widgets/lv_table.c ****                 cell_area_border.y1 -= rect_dsc_def.border_width / 2;
 703:lvgl/src/widgets/lv_table.c ****             }
 704:lvgl/src/widgets/lv_table.c ****             if((rect_dsc_def.border_side & LV_BORDER_SIDE_RIGHT) && cell_area_border.x2 < obj->coor
 705:lvgl/src/widgets/lv_table.c ****                 cell_area_border.x2 += rect_dsc_def.border_width / 2 + (rect_dsc_def.border_width &
 706:lvgl/src/widgets/lv_table.c ****             }
 707:lvgl/src/widgets/lv_table.c ****             if((rect_dsc_def.border_side & LV_BORDER_SIDE_BOTTOM) &&
 708:lvgl/src/widgets/lv_table.c ****                cell_area_border.y2 < obj->coords.y2 - bg_bottom - 1) {
 709:lvgl/src/widgets/lv_table.c ****                 cell_area_border.y2 += rect_dsc_def.border_width / 2 + (rect_dsc_def.border_width &
 710:lvgl/src/widgets/lv_table.c ****             }
 711:lvgl/src/widgets/lv_table.c **** 
 712:lvgl/src/widgets/lv_table.c ****             lv_state_t cell_state = LV_STATE_DEFAULT;
 713:lvgl/src/widgets/lv_table.c ****             if(row == table->row_act && col == table->col_act) {
 714:lvgl/src/widgets/lv_table.c ****                 if(!(obj->state & LV_STATE_SCROLLED) && (obj->state & LV_STATE_PRESSED)) cell_state
 715:lvgl/src/widgets/lv_table.c ****                 if(obj->state & LV_STATE_FOCUSED) cell_state |= LV_STATE_FOCUSED;
ARM GAS  C:\usertemp\ccJd89Xr.s 			page 14


 716:lvgl/src/widgets/lv_table.c ****                 if(obj->state & LV_STATE_FOCUS_KEY) cell_state |= LV_STATE_FOCUS_KEY;
 717:lvgl/src/widgets/lv_table.c ****                 if(obj->state & LV_STATE_EDITED) cell_state |= LV_STATE_EDITED;
 718:lvgl/src/widgets/lv_table.c ****             }
 719:lvgl/src/widgets/lv_table.c **** 
 720:lvgl/src/widgets/lv_table.c ****             /*Set up the draw descriptors*/
 721:lvgl/src/widgets/lv_table.c ****             if(cell_state == LV_STATE_DEFAULT) {
 722:lvgl/src/widgets/lv_table.c ****                 lv_memcpy(&rect_dsc_act, &rect_dsc_def, sizeof(lv_draw_rect_dsc_t));
 723:lvgl/src/widgets/lv_table.c ****                 lv_memcpy(&label_dsc_act, &label_dsc_def, sizeof(lv_draw_label_dsc_t));
 724:lvgl/src/widgets/lv_table.c ****             }
 725:lvgl/src/widgets/lv_table.c ****             /*In other cases get the styles directly without caching them*/
 726:lvgl/src/widgets/lv_table.c ****             else {
 727:lvgl/src/widgets/lv_table.c ****                 obj->state = cell_state;
 728:lvgl/src/widgets/lv_table.c ****                 obj->skip_trans = 1;
 729:lvgl/src/widgets/lv_table.c ****                 lv_draw_rect_dsc_init(&rect_dsc_act);
 730:lvgl/src/widgets/lv_table.c ****                 lv_draw_label_dsc_init(&label_dsc_act);
 731:lvgl/src/widgets/lv_table.c ****                 lv_obj_init_draw_rect_dsc(obj, LV_PART_ITEMS, &rect_dsc_act);
 732:lvgl/src/widgets/lv_table.c ****                 lv_obj_init_draw_label_dsc(obj, LV_PART_ITEMS, &label_dsc_act);
 733:lvgl/src/widgets/lv_table.c ****                 obj->state = state_ori;
 734:lvgl/src/widgets/lv_table.c ****                 obj->skip_trans = 0;
 735:lvgl/src/widgets/lv_table.c ****             }
 736:lvgl/src/widgets/lv_table.c **** 
 737:lvgl/src/widgets/lv_table.c ****             part_draw_dsc.draw_area = &cell_area_border;
 738:lvgl/src/widgets/lv_table.c ****             part_draw_dsc.id = row * table->col_cnt + col;
 739:lvgl/src/widgets/lv_table.c ****             lv_event_send(obj, LV_EVENT_DRAW_PART_BEGIN, &part_draw_dsc);
 740:lvgl/src/widgets/lv_table.c **** 
 741:lvgl/src/widgets/lv_table.c ****             lv_draw_rect(draw_ctx, &rect_dsc_act, &cell_area_border);
 742:lvgl/src/widgets/lv_table.c **** 
 743:lvgl/src/widgets/lv_table.c ****             if(table->cell_data[cell]) {
 744:lvgl/src/widgets/lv_table.c ****                 txt_area.x1 = cell_area.x1 + cell_left;
 745:lvgl/src/widgets/lv_table.c ****                 txt_area.x2 = cell_area.x2 - cell_right;
 746:lvgl/src/widgets/lv_table.c ****                 txt_area.y1 = cell_area.y1 + cell_top;
 747:lvgl/src/widgets/lv_table.c ****                 txt_area.y2 = cell_area.y2 - cell_bottom;
 748:lvgl/src/widgets/lv_table.c **** 
 749:lvgl/src/widgets/lv_table.c ****                 /*Align the content to the middle if not cropped*/
 750:lvgl/src/widgets/lv_table.c ****                 bool crop = ctrl & LV_TABLE_CELL_CTRL_TEXT_CROP ? true : false;
 751:lvgl/src/widgets/lv_table.c ****                 if(crop) txt_flags = LV_TEXT_FLAG_EXPAND;
 752:lvgl/src/widgets/lv_table.c ****                 else txt_flags = LV_TEXT_FLAG_NONE;
 753:lvgl/src/widgets/lv_table.c **** 
 754:lvgl/src/widgets/lv_table.c ****                 lv_txt_get_size(&txt_size, table->cell_data[cell] + 1, label_dsc_def.font,
 755:lvgl/src/widgets/lv_table.c ****                                 label_dsc_act.letter_space, label_dsc_act.line_space,
 756:lvgl/src/widgets/lv_table.c ****                                 lv_area_get_width(&txt_area), txt_flags);
 757:lvgl/src/widgets/lv_table.c **** 
 758:lvgl/src/widgets/lv_table.c ****                 /*Align the content to the middle if not cropped*/
 759:lvgl/src/widgets/lv_table.c ****                 if(!crop) {
 760:lvgl/src/widgets/lv_table.c ****                     txt_area.y1 = cell_area.y1 + h_row / 2 - txt_size.y / 2;
 761:lvgl/src/widgets/lv_table.c ****                     txt_area.y2 = cell_area.y1 + h_row / 2 + txt_size.y / 2;
 762:lvgl/src/widgets/lv_table.c ****                 }
 763:lvgl/src/widgets/lv_table.c **** 
 764:lvgl/src/widgets/lv_table.c ****                 lv_area_t label_clip_area;
 765:lvgl/src/widgets/lv_table.c ****                 bool label_mask_ok;
 766:lvgl/src/widgets/lv_table.c ****                 label_mask_ok = _lv_area_intersect(&label_clip_area, &clip_area, &cell_area);
 767:lvgl/src/widgets/lv_table.c ****                 if(label_mask_ok) {
 768:lvgl/src/widgets/lv_table.c ****                     draw_ctx->clip_area = &label_clip_area;
 769:lvgl/src/widgets/lv_table.c ****                     lv_draw_label(draw_ctx, &label_dsc_act, &txt_area, table->cell_data[cell] + 1, 
 770:lvgl/src/widgets/lv_table.c ****                     draw_ctx->clip_area = &clip_area;
 771:lvgl/src/widgets/lv_table.c ****                 }
 772:lvgl/src/widgets/lv_table.c ****             }
ARM GAS  C:\usertemp\ccJd89Xr.s 			page 15


 773:lvgl/src/widgets/lv_table.c **** 
 774:lvgl/src/widgets/lv_table.c ****             lv_event_send(obj, LV_EVENT_DRAW_PART_END, &part_draw_dsc);
 775:lvgl/src/widgets/lv_table.c **** 
 776:lvgl/src/widgets/lv_table.c ****             cell += col_merge + 1;
 777:lvgl/src/widgets/lv_table.c ****             col += col_merge;
 778:lvgl/src/widgets/lv_table.c ****         }
 779:lvgl/src/widgets/lv_table.c ****     }
 780:lvgl/src/widgets/lv_table.c **** 
 781:lvgl/src/widgets/lv_table.c ****     draw_ctx->clip_area = clip_area_ori;
 782:lvgl/src/widgets/lv_table.c **** }
 783:lvgl/src/widgets/lv_table.c **** 
 784:lvgl/src/widgets/lv_table.c **** static void refr_size(lv_obj_t * obj, uint32_t strat_row)
 785:lvgl/src/widgets/lv_table.c **** {
 786:lvgl/src/widgets/lv_table.c ****     lv_table_t * table = (lv_table_t *)obj;
 787:lvgl/src/widgets/lv_table.c **** 
 788:lvgl/src/widgets/lv_table.c ****     uint32_t i;
 789:lvgl/src/widgets/lv_table.c **** 
 790:lvgl/src/widgets/lv_table.c ****     lv_coord_t cell_left = lv_obj_get_style_pad_left(obj, LV_PART_ITEMS);
 791:lvgl/src/widgets/lv_table.c ****     lv_coord_t cell_right = lv_obj_get_style_pad_right(obj, LV_PART_ITEMS);
 792:lvgl/src/widgets/lv_table.c ****     lv_coord_t cell_top = lv_obj_get_style_pad_top(obj, LV_PART_ITEMS);
 793:lvgl/src/widgets/lv_table.c ****     lv_coord_t cell_bottom = lv_obj_get_style_pad_bottom(obj, LV_PART_ITEMS);
 794:lvgl/src/widgets/lv_table.c **** 
 795:lvgl/src/widgets/lv_table.c ****     lv_coord_t letter_space = lv_obj_get_style_text_letter_space(obj, LV_PART_ITEMS);
 796:lvgl/src/widgets/lv_table.c ****     lv_coord_t line_space = lv_obj_get_style_text_line_space(obj, LV_PART_ITEMS);
 797:lvgl/src/widgets/lv_table.c ****     const lv_font_t * font = lv_obj_get_style_text_font(obj, LV_PART_ITEMS);
 798:lvgl/src/widgets/lv_table.c **** 
 799:lvgl/src/widgets/lv_table.c ****     lv_coord_t minh = lv_obj_get_style_min_height(obj, LV_PART_ITEMS);
 800:lvgl/src/widgets/lv_table.c ****     lv_coord_t maxh = lv_obj_get_style_max_height(obj, LV_PART_ITEMS);
 801:lvgl/src/widgets/lv_table.c **** 
 802:lvgl/src/widgets/lv_table.c ****     for(i = strat_row; i < table->row_cnt; i++) {
 803:lvgl/src/widgets/lv_table.c ****         table->row_h[i] = get_row_height(obj, i, font, letter_space, line_space,
 804:lvgl/src/widgets/lv_table.c ****                                          cell_left, cell_right, cell_top, cell_bottom);
 805:lvgl/src/widgets/lv_table.c ****         table->row_h[i] = LV_CLAMP(minh, table->row_h[i], maxh);
 806:lvgl/src/widgets/lv_table.c ****     }
 807:lvgl/src/widgets/lv_table.c **** 
 808:lvgl/src/widgets/lv_table.c ****     lv_obj_refresh_self_size(obj) ;
 809:lvgl/src/widgets/lv_table.c **** }
 810:lvgl/src/widgets/lv_table.c **** 
 811:lvgl/src/widgets/lv_table.c **** static lv_coord_t get_row_height(lv_obj_t * obj, uint16_t row_id, const lv_font_t * font,
 812:lvgl/src/widgets/lv_table.c ****                                  lv_coord_t letter_space, lv_coord_t line_space,
 813:lvgl/src/widgets/lv_table.c ****                                  lv_coord_t cell_left, lv_coord_t cell_right, lv_coord_t cell_top, 
 814:lvgl/src/widgets/lv_table.c **** {
  28              		.loc 1 814 1 view -0
  29              		.cfi_startproc
  30              		@ args = 20, pretend = 0, frame = 48
  31              		@ frame_needed = 0, uses_anonymous_args = 0
  32              		.loc 1 814 1 is_stmt 0 view .LVU1
  33 0000 2DE9F04F 		push	{r4, r5, r6, r7, r8, r9, r10, fp, lr}
  34              	.LCFI0:
  35              		.cfi_def_cfa_offset 36
  36              		.cfi_offset 4, -36
  37              		.cfi_offset 5, -32
  38              		.cfi_offset 6, -28
  39              		.cfi_offset 7, -24
  40              		.cfi_offset 8, -20
  41              		.cfi_offset 9, -16
  42              		.cfi_offset 10, -12
ARM GAS  C:\usertemp\ccJd89Xr.s 			page 16


  43              		.cfi_offset 11, -8
  44              		.cfi_offset 14, -4
  45 0004 91B0     		sub	sp, sp, #68
  46              	.LCFI1:
  47              		.cfi_def_cfa_offset 104
  48 0006 8046     		mov	r8, r0
  49 0008 0692     		str	r2, [sp, #24]
  50 000a 0A93     		str	r3, [sp, #40]
  51 000c BDF96830 		ldrsh	r3, [sp, #104]
  52              	.LVL1:
  53              		.loc 1 814 1 view .LVU2
  54 0010 0B93     		str	r3, [sp, #44]
  55 0012 BDF96C30 		ldrsh	r3, [sp, #108]
  56 0016 0C93     		str	r3, [sp, #48]
  57 0018 BDF97030 		ldrsh	r3, [sp, #112]
  58 001c 0D93     		str	r3, [sp, #52]
  59 001e BDF974B0 		ldrsh	fp, [sp, #116]
  60 0022 BDF97830 		ldrsh	r3, [sp, #120]
  61 0026 0793     		str	r3, [sp, #28]
 815:lvgl/src/widgets/lv_table.c ****     lv_table_t * table = (lv_table_t *)obj;
  62              		.loc 1 815 5 is_stmt 1 view .LVU3
  63              	.LVL2:
 816:lvgl/src/widgets/lv_table.c ****     lv_point_t txt_size;
  64              		.loc 1 816 5 view .LVU4
 817:lvgl/src/widgets/lv_table.c ****     lv_coord_t txt_w;
  65              		.loc 1 817 5 view .LVU5
 818:lvgl/src/widgets/lv_table.c **** 
 819:lvgl/src/widgets/lv_table.c ****     uint16_t row_start = row_id * table->col_cnt;
  66              		.loc 1 819 5 view .LVU6
  67              		.loc 1 819 40 is_stmt 0 view .LVU7
  68 0028 B0F82490 		ldrh	r9, [r0, #36]
  69              		.loc 1 819 14 view .LVU8
  70 002c 19FB01F9 		smulbb	r9, r9, r1
  71 0030 1FFA89F9 		uxth	r9, r9
  72              	.LVL3:
 820:lvgl/src/widgets/lv_table.c ****     uint16_t cell;
  73              		.loc 1 820 5 is_stmt 1 view .LVU9
 821:lvgl/src/widgets/lv_table.c ****     uint16_t col;
  74              		.loc 1 821 5 view .LVU10
 822:lvgl/src/widgets/lv_table.c ****     lv_coord_t h_max = lv_font_get_line_height(font) + cell_top + cell_bottom;
  75              		.loc 1 822 5 view .LVU11
  76              	.LBB88:
  77              	.LBI88:
  78              		.file 2 "lvgl/src/widgets/../core/../misc/../font/lv_font.h"
   1:lvgl/src/widgets/../core/../misc/../font/lv_font.h **** /**
   2:lvgl/src/widgets/../core/../misc/../font/lv_font.h ****  * @file lv_font.h
   3:lvgl/src/widgets/../core/../misc/../font/lv_font.h ****  *
   4:lvgl/src/widgets/../core/../misc/../font/lv_font.h ****  */
   5:lvgl/src/widgets/../core/../misc/../font/lv_font.h **** 
   6:lvgl/src/widgets/../core/../misc/../font/lv_font.h **** #ifndef LV_FONT_H
   7:lvgl/src/widgets/../core/../misc/../font/lv_font.h **** #define LV_FONT_H
   8:lvgl/src/widgets/../core/../misc/../font/lv_font.h **** 
   9:lvgl/src/widgets/../core/../misc/../font/lv_font.h **** #ifdef __cplusplus
  10:lvgl/src/widgets/../core/../misc/../font/lv_font.h **** extern "C" {
  11:lvgl/src/widgets/../core/../misc/../font/lv_font.h **** #endif
  12:lvgl/src/widgets/../core/../misc/../font/lv_font.h **** 
  13:lvgl/src/widgets/../core/../misc/../font/lv_font.h **** /*********************
ARM GAS  C:\usertemp\ccJd89Xr.s 			page 17


  14:lvgl/src/widgets/../core/../misc/../font/lv_font.h ****  *      INCLUDES
  15:lvgl/src/widgets/../core/../misc/../font/lv_font.h ****  *********************/
  16:lvgl/src/widgets/../core/../misc/../font/lv_font.h **** #include "../lv_conf_internal.h"
  17:lvgl/src/widgets/../core/../misc/../font/lv_font.h **** #include <stdint.h>
  18:lvgl/src/widgets/../core/../misc/../font/lv_font.h **** #include <stddef.h>
  19:lvgl/src/widgets/../core/../misc/../font/lv_font.h **** #include <stdbool.h>
  20:lvgl/src/widgets/../core/../misc/../font/lv_font.h **** 
  21:lvgl/src/widgets/../core/../misc/../font/lv_font.h **** #include "lv_symbol_def.h"
  22:lvgl/src/widgets/../core/../misc/../font/lv_font.h **** #include "../misc/lv_area.h"
  23:lvgl/src/widgets/../core/../misc/../font/lv_font.h **** 
  24:lvgl/src/widgets/../core/../misc/../font/lv_font.h **** /*********************
  25:lvgl/src/widgets/../core/../misc/../font/lv_font.h ****  *      DEFINES
  26:lvgl/src/widgets/../core/../misc/../font/lv_font.h ****  *********************/
  27:lvgl/src/widgets/../core/../misc/../font/lv_font.h **** 
  28:lvgl/src/widgets/../core/../misc/../font/lv_font.h **** /**********************
  29:lvgl/src/widgets/../core/../misc/../font/lv_font.h ****  *      TYPEDEFS
  30:lvgl/src/widgets/../core/../misc/../font/lv_font.h ****  **********************/
  31:lvgl/src/widgets/../core/../misc/../font/lv_font.h **** 
  32:lvgl/src/widgets/../core/../misc/../font/lv_font.h **** /*------------------
  33:lvgl/src/widgets/../core/../misc/../font/lv_font.h ****  * General types
  34:lvgl/src/widgets/../core/../misc/../font/lv_font.h ****  *-----------------*/
  35:lvgl/src/widgets/../core/../misc/../font/lv_font.h **** 
  36:lvgl/src/widgets/../core/../misc/../font/lv_font.h **** struct _lv_font_t;
  37:lvgl/src/widgets/../core/../misc/../font/lv_font.h **** /** Describes the properties of a glyph.*/
  38:lvgl/src/widgets/../core/../misc/../font/lv_font.h **** typedef struct {
  39:lvgl/src/widgets/../core/../misc/../font/lv_font.h ****     const struct _lv_font_t *
  40:lvgl/src/widgets/../core/../misc/../font/lv_font.h ****         resolved_font; /**< Pointer to a font where the gylph was actually found after handling fal
  41:lvgl/src/widgets/../core/../misc/../font/lv_font.h ****     uint16_t adv_w; /**< The glyph needs this space. Draw the next glyph after this width.*/
  42:lvgl/src/widgets/../core/../misc/../font/lv_font.h ****     uint16_t box_w; /**< Width of the glyph's bounding box*/
  43:lvgl/src/widgets/../core/../misc/../font/lv_font.h ****     uint16_t box_h; /**< Height of the glyph's bounding box*/
  44:lvgl/src/widgets/../core/../misc/../font/lv_font.h ****     int16_t ofs_x;  /**< x offset of the bounding box*/
  45:lvgl/src/widgets/../core/../misc/../font/lv_font.h ****     int16_t ofs_y;  /**< y offset of the bounding box*/
  46:lvgl/src/widgets/../core/../misc/../font/lv_font.h ****     uint8_t bpp: 4;  /**< Bit-per-pixel: 1, 2, 4, 8*/
  47:lvgl/src/widgets/../core/../misc/../font/lv_font.h ****     uint8_t is_placeholder: 1; /** Glyph is missing. But placeholder will still be displayed */
  48:lvgl/src/widgets/../core/../misc/../font/lv_font.h **** } lv_font_glyph_dsc_t;
  49:lvgl/src/widgets/../core/../misc/../font/lv_font.h **** 
  50:lvgl/src/widgets/../core/../misc/../font/lv_font.h **** /** The bitmaps might be upscaled by 3 to achieve subpixel rendering.*/
  51:lvgl/src/widgets/../core/../misc/../font/lv_font.h **** enum {
  52:lvgl/src/widgets/../core/../misc/../font/lv_font.h ****     LV_FONT_SUBPX_NONE,
  53:lvgl/src/widgets/../core/../misc/../font/lv_font.h ****     LV_FONT_SUBPX_HOR,
  54:lvgl/src/widgets/../core/../misc/../font/lv_font.h ****     LV_FONT_SUBPX_VER,
  55:lvgl/src/widgets/../core/../misc/../font/lv_font.h ****     LV_FONT_SUBPX_BOTH,
  56:lvgl/src/widgets/../core/../misc/../font/lv_font.h **** };
  57:lvgl/src/widgets/../core/../misc/../font/lv_font.h **** 
  58:lvgl/src/widgets/../core/../misc/../font/lv_font.h **** typedef uint8_t lv_font_subpx_t;
  59:lvgl/src/widgets/../core/../misc/../font/lv_font.h **** 
  60:lvgl/src/widgets/../core/../misc/../font/lv_font.h **** /** Describe the properties of a font*/
  61:lvgl/src/widgets/../core/../misc/../font/lv_font.h **** typedef struct _lv_font_t {
  62:lvgl/src/widgets/../core/../misc/../font/lv_font.h ****     /** Get a glyph's descriptor from a font*/
  63:lvgl/src/widgets/../core/../misc/../font/lv_font.h ****     bool (*get_glyph_dsc)(const struct _lv_font_t *, lv_font_glyph_dsc_t *, uint32_t letter, uint32
  64:lvgl/src/widgets/../core/../misc/../font/lv_font.h **** 
  65:lvgl/src/widgets/../core/../misc/../font/lv_font.h ****     /** Get a glyph's bitmap from a font*/
  66:lvgl/src/widgets/../core/../misc/../font/lv_font.h ****     const uint8_t * (*get_glyph_bitmap)(const struct _lv_font_t *, uint32_t);
  67:lvgl/src/widgets/../core/../misc/../font/lv_font.h **** 
  68:lvgl/src/widgets/../core/../misc/../font/lv_font.h ****     /*Pointer to the font in a font pack (must have the same line height)*/
  69:lvgl/src/widgets/../core/../misc/../font/lv_font.h ****     lv_coord_t line_height;         /**< The real line height where any text fits*/
  70:lvgl/src/widgets/../core/../misc/../font/lv_font.h ****     lv_coord_t base_line;           /**< Base line measured from the top of the line_height*/
ARM GAS  C:\usertemp\ccJd89Xr.s 			page 18


  71:lvgl/src/widgets/../core/../misc/../font/lv_font.h ****     uint8_t subpx  : 2;             /**< An element of `lv_font_subpx_t`*/
  72:lvgl/src/widgets/../core/../misc/../font/lv_font.h **** 
  73:lvgl/src/widgets/../core/../misc/../font/lv_font.h ****     int8_t underline_position;      /**< Distance between the top of the underline and base line (<
  74:lvgl/src/widgets/../core/../misc/../font/lv_font.h ****     int8_t underline_thickness;     /**< Thickness of the underline*/
  75:lvgl/src/widgets/../core/../misc/../font/lv_font.h **** 
  76:lvgl/src/widgets/../core/../misc/../font/lv_font.h ****     const void * dsc;               /**< Store implementation specific or run_time data or caching 
  77:lvgl/src/widgets/../core/../misc/../font/lv_font.h ****     const struct _lv_font_t * fallback;   /**< Fallback font for missing glyph. Resolved recursivel
  78:lvgl/src/widgets/../core/../misc/../font/lv_font.h **** #if LV_USE_USER_DATA
  79:lvgl/src/widgets/../core/../misc/../font/lv_font.h ****     void * user_data;               /**< Custom user data for font.*/
  80:lvgl/src/widgets/../core/../misc/../font/lv_font.h **** #endif
  81:lvgl/src/widgets/../core/../misc/../font/lv_font.h **** } lv_font_t;
  82:lvgl/src/widgets/../core/../misc/../font/lv_font.h **** 
  83:lvgl/src/widgets/../core/../misc/../font/lv_font.h **** /**********************
  84:lvgl/src/widgets/../core/../misc/../font/lv_font.h ****  * GLOBAL PROTOTYPES
  85:lvgl/src/widgets/../core/../misc/../font/lv_font.h ****  **********************/
  86:lvgl/src/widgets/../core/../misc/../font/lv_font.h **** 
  87:lvgl/src/widgets/../core/../misc/../font/lv_font.h **** /**
  88:lvgl/src/widgets/../core/../misc/../font/lv_font.h ****  * Return with the bitmap of a font.
  89:lvgl/src/widgets/../core/../misc/../font/lv_font.h ****  * @param font_p pointer to a font
  90:lvgl/src/widgets/../core/../misc/../font/lv_font.h ****  * @param letter an UNICODE character code
  91:lvgl/src/widgets/../core/../misc/../font/lv_font.h ****  * @return pointer to the bitmap of the letter
  92:lvgl/src/widgets/../core/../misc/../font/lv_font.h ****  */
  93:lvgl/src/widgets/../core/../misc/../font/lv_font.h **** const uint8_t * lv_font_get_glyph_bitmap(const lv_font_t * font_p, uint32_t letter);
  94:lvgl/src/widgets/../core/../misc/../font/lv_font.h **** 
  95:lvgl/src/widgets/../core/../misc/../font/lv_font.h **** /**
  96:lvgl/src/widgets/../core/../misc/../font/lv_font.h ****  * Get the descriptor of a glyph
  97:lvgl/src/widgets/../core/../misc/../font/lv_font.h ****  * @param font_p pointer to font
  98:lvgl/src/widgets/../core/../misc/../font/lv_font.h ****  * @param dsc_out store the result descriptor here
  99:lvgl/src/widgets/../core/../misc/../font/lv_font.h ****  * @param letter an UNICODE letter code
 100:lvgl/src/widgets/../core/../misc/../font/lv_font.h ****  * @param letter_next the next letter after `letter`. Used for kerning
 101:lvgl/src/widgets/../core/../misc/../font/lv_font.h ****  * @return true: descriptor is successfully loaded into `dsc_out`.
 102:lvgl/src/widgets/../core/../misc/../font/lv_font.h ****  *         false: the letter was not found, no data is loaded to `dsc_out`
 103:lvgl/src/widgets/../core/../misc/../font/lv_font.h ****  */
 104:lvgl/src/widgets/../core/../misc/../font/lv_font.h **** bool lv_font_get_glyph_dsc(const lv_font_t * font_p, lv_font_glyph_dsc_t * dsc_out, uint32_t letter
 105:lvgl/src/widgets/../core/../misc/../font/lv_font.h ****                            uint32_t letter_next);
 106:lvgl/src/widgets/../core/../misc/../font/lv_font.h **** 
 107:lvgl/src/widgets/../core/../misc/../font/lv_font.h **** /**
 108:lvgl/src/widgets/../core/../misc/../font/lv_font.h ****  * Get the width of a glyph with kerning
 109:lvgl/src/widgets/../core/../misc/../font/lv_font.h ****  * @param font pointer to a font
 110:lvgl/src/widgets/../core/../misc/../font/lv_font.h ****  * @param letter an UNICODE letter
 111:lvgl/src/widgets/../core/../misc/../font/lv_font.h ****  * @param letter_next the next letter after `letter`. Used for kerning
 112:lvgl/src/widgets/../core/../misc/../font/lv_font.h ****  * @return the width of the glyph
 113:lvgl/src/widgets/../core/../misc/../font/lv_font.h ****  */
 114:lvgl/src/widgets/../core/../misc/../font/lv_font.h **** uint16_t lv_font_get_glyph_width(const lv_font_t * font, uint32_t letter, uint32_t letter_next);
 115:lvgl/src/widgets/../core/../misc/../font/lv_font.h **** 
 116:lvgl/src/widgets/../core/../misc/../font/lv_font.h **** /**
 117:lvgl/src/widgets/../core/../misc/../font/lv_font.h ****  * Get the line height of a font. All characters fit into this height
 118:lvgl/src/widgets/../core/../misc/../font/lv_font.h ****  * @param font_p pointer to a font
 119:lvgl/src/widgets/../core/../misc/../font/lv_font.h ****  * @return the height of a font
 120:lvgl/src/widgets/../core/../misc/../font/lv_font.h ****  */
 121:lvgl/src/widgets/../core/../misc/../font/lv_font.h **** static inline lv_coord_t lv_font_get_line_height(const lv_font_t * font_p)
  79              		.loc 2 121 26 view .LVU12
  80              	.LBB89:
 122:lvgl/src/widgets/../core/../misc/../font/lv_font.h **** {
 123:lvgl/src/widgets/../core/../misc/../font/lv_font.h ****     return font_p->line_height;
  81              		.loc 2 123 5 view .LVU13
  82              		.loc 2 123 18 is_stmt 0 view .LVU14
ARM GAS  C:\usertemp\ccJd89Xr.s 			page 19


  83 0034 B2F90870 		ldrsh	r7, [r2, #8]
  84              	.LVL4:
  85              		.loc 2 123 18 view .LVU15
  86              	.LBE89:
  87              	.LBE88:
  88              		.loc 1 822 54 discriminator 1 view .LVU16
  89 0038 1FFA8BF2 		uxth	r2, fp
  90              	.LVL5:
  91              		.loc 1 822 54 discriminator 1 view .LVU17
  92 003c 0892     		str	r2, [sp, #32]
  93 003e 12FA87F7 		uxtah	r7, r2, r7
  94              		.loc 1 822 65 discriminator 1 view .LVU18
  95 0042 9BB2     		uxth	r3, r3
  96 0044 0993     		str	r3, [sp, #36]
  97 0046 13FA87F7 		uxtah	r7, r3, r7
  98              		.loc 1 822 16 discriminator 1 view .LVU19
  99 004a 3FB2     		sxth	r7, r7
 100              	.LVL6:
 823:lvgl/src/widgets/lv_table.c **** 
 824:lvgl/src/widgets/lv_table.c ****     for(cell = row_start, col = 0; cell < row_start + table->col_cnt; cell++, col++) {
 101              		.loc 1 824 5 is_stmt 1 view .LVU20
 102              		.loc 1 824 14 is_stmt 0 view .LVU21
 103 004c 4E46     		mov	r6, r9
 104              		.loc 1 824 31 view .LVU22
 105 004e 0025     		movs	r5, #0
 106              		.loc 1 824 5 view .LVU23
 107 0050 18E0     		b	.L2
 108              	.LVL7:
 109              	.L5:
 110              	.LBB90:
 825:lvgl/src/widgets/lv_table.c ****         if(table->cell_data[cell] != NULL) {
 826:lvgl/src/widgets/lv_table.c ****             txt_w              = table->col_w[col];
 827:lvgl/src/widgets/lv_table.c ****             uint16_t col_merge = 0;
 828:lvgl/src/widgets/lv_table.c ****             for(col_merge = 0; col_merge + col < table->col_cnt - 1; col_merge++) {
 829:lvgl/src/widgets/lv_table.c **** 
 830:lvgl/src/widgets/lv_table.c ****                 if(table->cell_data[cell + col_merge] != NULL) {
 831:lvgl/src/widgets/lv_table.c ****                     lv_table_cell_ctrl_t ctrl = 0;
 832:lvgl/src/widgets/lv_table.c ****                     char * next_cell_data = table->cell_data[cell + col_merge];
 833:lvgl/src/widgets/lv_table.c ****                     if(next_cell_data) ctrl = next_cell_data[0];
 834:lvgl/src/widgets/lv_table.c ****                     if(ctrl & LV_TABLE_CELL_CTRL_MERGE_RIGHT)
 835:lvgl/src/widgets/lv_table.c ****                         txt_w += table->col_w[col + col_merge + 1];
 836:lvgl/src/widgets/lv_table.c ****                     else
 837:lvgl/src/widgets/lv_table.c ****                         break;
 838:lvgl/src/widgets/lv_table.c ****                 }
 839:lvgl/src/widgets/lv_table.c ****                 else {
 840:lvgl/src/widgets/lv_table.c ****                     break;
 841:lvgl/src/widgets/lv_table.c ****                 }
 842:lvgl/src/widgets/lv_table.c ****             }
 843:lvgl/src/widgets/lv_table.c **** 
 844:lvgl/src/widgets/lv_table.c ****             lv_table_cell_ctrl_t ctrl = 0;
 845:lvgl/src/widgets/lv_table.c ****             if(table->cell_data[cell]) ctrl = table->cell_data[cell][0];
 111              		.loc 1 845 45 discriminator 1 view .LVU24
 112 0052 0598     		ldr	r0, [sp, #20]
 844:lvgl/src/widgets/lv_table.c ****             if(table->cell_data[cell]) ctrl = table->cell_data[cell][0];
 113              		.loc 1 844 13 is_stmt 1 view .LVU25
 114              	.LVL8:
 115              		.loc 1 845 13 view .LVU26
ARM GAS  C:\usertemp\ccJd89Xr.s 			page 20


 116              		.loc 1 845 40 discriminator 1 view .LVU27
 117              		.loc 1 845 45 is_stmt 0 discriminator 1 view .LVU28
 118 0054 0278     		ldrb	r2, [r0]	@ zero_extendqisi2
 119              	.LVL9:
 846:lvgl/src/widgets/lv_table.c **** 
 847:lvgl/src/widgets/lv_table.c ****             /*With text crop assume 1 line*/
 848:lvgl/src/widgets/lv_table.c ****             if(ctrl & LV_TABLE_CELL_CTRL_TEXT_CROP) {
 120              		.loc 1 848 13 is_stmt 1 view .LVU29
 121              		.loc 1 848 15 is_stmt 0 view .LVU30
 122 0056 12F0020F 		tst	r2, #2
 123 005a 3DD0     		beq	.L7
 849:lvgl/src/widgets/lv_table.c ****                 h_max = LV_MAX(lv_font_get_line_height(font) + cell_top + cell_bottom,
 124              		.loc 1 849 17 is_stmt 1 view .LVU31
 125              	.LVL10:
 126              	.LBB91:
 127              	.LBI91:
 121:lvgl/src/widgets/../core/../misc/../font/lv_font.h **** {
 128              		.loc 2 121 26 view .LVU32
 129              	.LBB92:
 130              		.loc 2 123 5 view .LVU33
 131              		.loc 2 123 18 is_stmt 0 view .LVU34
 132 005c 069B     		ldr	r3, [sp, #24]
 133              	.LVL11:
 134              		.loc 2 123 18 view .LVU35
 135 005e B3F90830 		ldrsh	r3, [r3, #8]
 136              	.LVL12:
 137              		.loc 2 123 18 view .LVU36
 138              	.LBE92:
 139              	.LBE91:
 140              		.loc 1 849 25 discriminator 1 view .LVU37
 141 0062 0BEB0302 		add	r2, fp, r3
 142 0066 0799     		ldr	r1, [sp, #28]
 143 0068 0A44     		add	r2, r2, r1
 144              		.loc 1 849 23 discriminator 1 view .LVU38
 145 006a BA42     		cmp	r2, r7
 146 006c 06DD     		ble	.L3
 147              		.loc 1 849 25 discriminator 1 view .LVU39
 148 006e 089A     		ldr	r2, [sp, #32]
 149 0070 12FA83F3 		uxtah	r3, r2, r3
 150 0074 099A     		ldr	r2, [sp, #36]
 151 0076 12FA83F3 		uxtah	r3, r2, r3
 152              		.loc 1 849 23 discriminator 1 view .LVU40
 153 007a 1FB2     		sxth	r7, r3
 154              	.LVL13:
 155              	.L3:
 156              		.loc 1 849 23 discriminator 1 view .LVU41
 157              	.LBE90:
 824:lvgl/src/widgets/lv_table.c ****         if(table->cell_data[cell] != NULL) {
 158              		.loc 1 824 77 is_stmt 1 discriminator 2 view .LVU42
 824:lvgl/src/widgets/lv_table.c ****         if(table->cell_data[cell] != NULL) {
 159              		.loc 1 824 75 is_stmt 0 discriminator 2 view .LVU43
 160 007c 0136     		adds	r6, r6, #1
 161              	.LVL14:
 824:lvgl/src/widgets/lv_table.c ****         if(table->cell_data[cell] != NULL) {
 162              		.loc 1 824 75 discriminator 2 view .LVU44
 163 007e B6B2     		uxth	r6, r6
 164              	.LVL15:
ARM GAS  C:\usertemp\ccJd89Xr.s 			page 21


 824:lvgl/src/widgets/lv_table.c ****         if(table->cell_data[cell] != NULL) {
 165              		.loc 1 824 82 discriminator 2 view .LVU45
 166 0080 0135     		adds	r5, r5, #1
 167              	.LVL16:
 824:lvgl/src/widgets/lv_table.c ****         if(table->cell_data[cell] != NULL) {
 168              		.loc 1 824 82 discriminator 2 view .LVU46
 169 0082 ADB2     		uxth	r5, r5
 170              	.LVL17:
 171              	.L2:
 824:lvgl/src/widgets/lv_table.c ****         if(table->cell_data[cell] != NULL) {
 172              		.loc 1 824 41 is_stmt 1 discriminator 1 view .LVU47
 173 0084 B646     		mov	lr, r6
 824:lvgl/src/widgets/lv_table.c ****         if(table->cell_data[cell] != NULL) {
 174              		.loc 1 824 60 is_stmt 0 discriminator 1 view .LVU48
 175 0086 B8F824C0 		ldrh	ip, [r8, #36]
 824:lvgl/src/widgets/lv_table.c ****         if(table->cell_data[cell] != NULL) {
 176              		.loc 1 824 53 discriminator 1 view .LVU49
 177 008a 09EB0C03 		add	r3, r9, ip
 824:lvgl/src/widgets/lv_table.c ****         if(table->cell_data[cell] != NULL) {
 178              		.loc 1 824 41 discriminator 1 view .LVU50
 179 008e 9E42     		cmp	r6, r3
 180 0090 41DA     		bge	.L10
 825:lvgl/src/widgets/lv_table.c ****             txt_w              = table->col_w[col];
 181              		.loc 1 825 9 is_stmt 1 view .LVU51
 825:lvgl/src/widgets/lv_table.c ****             txt_w              = table->col_w[col];
 182              		.loc 1 825 17 is_stmt 0 view .LVU52
 183 0092 D8F82810 		ldr	r1, [r8, #40]
 825:lvgl/src/widgets/lv_table.c ****             txt_w              = table->col_w[col];
 184              		.loc 1 825 28 view .LVU53
 185 0096 51F82600 		ldr	r0, [r1, r6, lsl #2]
 825:lvgl/src/widgets/lv_table.c ****             txt_w              = table->col_w[col];
 186              		.loc 1 825 11 view .LVU54
 187 009a 0028     		cmp	r0, #0
 188 009c EED0     		beq	.L3
 189              	.LBB94:
 826:lvgl/src/widgets/lv_table.c ****             uint16_t col_merge = 0;
 190              		.loc 1 826 13 is_stmt 1 view .LVU55
 826:lvgl/src/widgets/lv_table.c ****             uint16_t col_merge = 0;
 191              		.loc 1 826 39 is_stmt 0 view .LVU56
 192 009e D8F830A0 		ldr	r10, [r8, #48]
 826:lvgl/src/widgets/lv_table.c ****             uint16_t col_merge = 0;
 193              		.loc 1 826 32 view .LVU57
 194 00a2 3AF91530 		ldrsh	r3, [r10, r5, lsl #1]
 195              	.LVL18:
 827:lvgl/src/widgets/lv_table.c ****             for(col_merge = 0; col_merge + col < table->col_cnt - 1; col_merge++) {
 196              		.loc 1 827 13 is_stmt 1 view .LVU58
 828:lvgl/src/widgets/lv_table.c **** 
 197              		.loc 1 828 13 view .LVU59
 828:lvgl/src/widgets/lv_table.c **** 
 198              		.loc 1 828 27 is_stmt 0 view .LVU60
 199 00a6 0024     		movs	r4, #0
 200 00a8 0590     		str	r0, [sp, #20]
 201              	.LVL19:
 202              	.L4:
 828:lvgl/src/widgets/lv_table.c **** 
 203              		.loc 1 828 48 is_stmt 1 discriminator 1 view .LVU61
 828:lvgl/src/widgets/lv_table.c **** 
ARM GAS  C:\usertemp\ccJd89Xr.s 			page 22


 204              		.loc 1 828 42 is_stmt 0 discriminator 1 view .LVU62
 205 00aa 2A19     		adds	r2, r5, r4
 828:lvgl/src/widgets/lv_table.c **** 
 206              		.loc 1 828 65 discriminator 1 view .LVU63
 207 00ac 0CF1FF30 		add	r0, ip, #-1
 828:lvgl/src/widgets/lv_table.c **** 
 208              		.loc 1 828 48 discriminator 1 view .LVU64
 209 00b0 8242     		cmp	r2, r0
 210 00b2 CEDA     		bge	.L5
 830:lvgl/src/widgets/lv_table.c ****                     lv_table_cell_ctrl_t ctrl = 0;
 211              		.loc 1 830 17 is_stmt 1 view .LVU65
 830:lvgl/src/widgets/lv_table.c ****                     lv_table_cell_ctrl_t ctrl = 0;
 212              		.loc 1 830 42 is_stmt 0 view .LVU66
 213 00b4 04EB0E00 		add	r0, r4, lr
 830:lvgl/src/widgets/lv_table.c ****                     lv_table_cell_ctrl_t ctrl = 0;
 214              		.loc 1 830 36 view .LVU67
 215 00b8 51F82000 		ldr	r0, [r1, r0, lsl #2]
 830:lvgl/src/widgets/lv_table.c ****                     lv_table_cell_ctrl_t ctrl = 0;
 216              		.loc 1 830 19 view .LVU68
 217 00bc 0028     		cmp	r0, #0
 218 00be C8D0     		beq	.L5
 219              	.LBB93:
 831:lvgl/src/widgets/lv_table.c ****                     char * next_cell_data = table->cell_data[cell + col_merge];
 220              		.loc 1 831 21 is_stmt 1 view .LVU69
 221              	.LVL20:
 832:lvgl/src/widgets/lv_table.c ****                     if(next_cell_data) ctrl = next_cell_data[0];
 222              		.loc 1 832 21 view .LVU70
 833:lvgl/src/widgets/lv_table.c ****                     if(ctrl & LV_TABLE_CELL_CTRL_MERGE_RIGHT)
 223              		.loc 1 833 21 view .LVU71
 833:lvgl/src/widgets/lv_table.c ****                     if(ctrl & LV_TABLE_CELL_CTRL_MERGE_RIGHT)
 224              		.loc 1 833 40 discriminator 1 view .LVU72
 833:lvgl/src/widgets/lv_table.c ****                     if(ctrl & LV_TABLE_CELL_CTRL_MERGE_RIGHT)
 225              		.loc 1 833 45 is_stmt 0 discriminator 1 view .LVU73
 226 00c0 0078     		ldrb	r0, [r0]	@ zero_extendqisi2
 227              	.LVL21:
 834:lvgl/src/widgets/lv_table.c ****                         txt_w += table->col_w[col + col_merge + 1];
 228              		.loc 1 834 21 is_stmt 1 view .LVU74
 834:lvgl/src/widgets/lv_table.c ****                         txt_w += table->col_w[col + col_merge + 1];
 229              		.loc 1 834 23 is_stmt 0 view .LVU75
 230 00c2 10F0010F 		tst	r0, #1
 231 00c6 C4D0     		beq	.L5
 835:lvgl/src/widgets/lv_table.c ****                     else
 232              		.loc 1 835 25 is_stmt 1 view .LVU76
 835:lvgl/src/widgets/lv_table.c ****                     else
 233              		.loc 1 835 46 is_stmt 0 view .LVU77
 234 00c8 0132     		adds	r2, r2, #1
 235 00ca 3AF81220 		ldrh	r2, [r10, r2, lsl #1]
 835:lvgl/src/widgets/lv_table.c ****                     else
 236              		.loc 1 835 31 view .LVU78
 237 00ce 1344     		add	r3, r3, r2
 238              	.LVL22:
 835:lvgl/src/widgets/lv_table.c ****                     else
 239              		.loc 1 835 31 view .LVU79
 240 00d0 1BB2     		sxth	r3, r3
 241              	.LVL23:
 835:lvgl/src/widgets/lv_table.c ****                     else
 242              		.loc 1 835 31 view .LVU80
ARM GAS  C:\usertemp\ccJd89Xr.s 			page 23


 243              	.LBE93:
 828:lvgl/src/widgets/lv_table.c **** 
 244              		.loc 1 828 79 is_stmt 1 discriminator 2 view .LVU81
 245 00d2 0134     		adds	r4, r4, #1
 246              	.LVL24:
 828:lvgl/src/widgets/lv_table.c **** 
 247              		.loc 1 828 79 is_stmt 0 discriminator 2 view .LVU82
 248 00d4 A4B2     		uxth	r4, r4
 249              	.LVL25:
 828:lvgl/src/widgets/lv_table.c **** 
 250              		.loc 1 828 79 discriminator 2 view .LVU83
 251 00d6 E8E7     		b	.L4
 252              	.LVL26:
 253              	.L7:
 850:lvgl/src/widgets/lv_table.c ****                                h_max);
 851:lvgl/src/widgets/lv_table.c ****             }
 852:lvgl/src/widgets/lv_table.c ****             /*Without text crop calculate the height of the text in the cell*/
 853:lvgl/src/widgets/lv_table.c ****             else {
 854:lvgl/src/widgets/lv_table.c ****                 txt_w -= cell_left + cell_right;
 254              		.loc 1 854 17 is_stmt 1 view .LVU84
 255              		.loc 1 854 36 is_stmt 0 view .LVU85
 256 00d8 0C9A     		ldr	r2, [sp, #48]
 257 00da 0D99     		ldr	r1, [sp, #52]
 258 00dc 0A44     		add	r2, r2, r1
 259 00de 92B2     		uxth	r2, r2
 260              		.loc 1 854 23 view .LVU86
 261 00e0 9B1A     		subs	r3, r3, r2
 262              	.LVL27:
 263              		.loc 1 854 23 view .LVU87
 264 00e2 1BB2     		sxth	r3, r3
 265              	.LVL28:
 855:lvgl/src/widgets/lv_table.c **** 
 856:lvgl/src/widgets/lv_table.c ****                 lv_txt_get_size(&txt_size, table->cell_data[cell] + 1, font,
 266              		.loc 1 856 17 is_stmt 1 view .LVU88
 267 00e4 0022     		movs	r2, #0
 268 00e6 0292     		str	r2, [sp, #8]
 269              	.LVL29:
 270              		.loc 1 856 17 is_stmt 0 view .LVU89
 271 00e8 0193     		str	r3, [sp, #4]
 272 00ea 0B9B     		ldr	r3, [sp, #44]
 273              	.LVL30:
 274              		.loc 1 856 17 view .LVU90
 275 00ec 0093     		str	r3, [sp]
 276 00ee 0A9B     		ldr	r3, [sp, #40]
 277 00f0 069A     		ldr	r2, [sp, #24]
 278 00f2 411C     		adds	r1, r0, #1
 279 00f4 0FA8     		add	r0, sp, #60
 280 00f6 FFF7FEFF 		bl	lv_txt_get_size
 281              	.LVL31:
 857:lvgl/src/widgets/lv_table.c ****                                 letter_space, line_space, txt_w, LV_TEXT_FLAG_NONE);
 858:lvgl/src/widgets/lv_table.c **** 
 859:lvgl/src/widgets/lv_table.c ****                 h_max = LV_MAX(txt_size.y + cell_top + cell_bottom, h_max);
 282              		.loc 1 859 17 is_stmt 1 view .LVU91
 283              		.loc 1 859 25 is_stmt 0 view .LVU92
 284 00fa BDF93E30 		ldrsh	r3, [sp, #62]
 285 00fe 5B44     		add	r3, r3, fp
 286 0100 079A     		ldr	r2, [sp, #28]
ARM GAS  C:\usertemp\ccJd89Xr.s 			page 24


 287 0102 1344     		add	r3, r3, r2
 288 0104 BB42     		cmp	r3, r7
 289 0106 B8BF     		it	lt
 290 0108 3B46     		movlt	r3, r7
 291              		.loc 1 859 23 view .LVU93
 292 010a 1FB2     		sxth	r7, r3
 293              	.LVL32:
 860:lvgl/src/widgets/lv_table.c ****                 cell += col_merge;
 294              		.loc 1 860 17 is_stmt 1 view .LVU94
 295              		.loc 1 860 22 is_stmt 0 view .LVU95
 296 010c 2644     		add	r6, r6, r4
 297              	.LVL33:
 298              		.loc 1 860 22 view .LVU96
 299 010e B6B2     		uxth	r6, r6
 300              	.LVL34:
 861:lvgl/src/widgets/lv_table.c ****                 col += col_merge;
 301              		.loc 1 861 17 is_stmt 1 view .LVU97
 302              		.loc 1 861 21 is_stmt 0 view .LVU98
 303 0110 2C44     		add	r4, r4, r5
 304              	.LVL35:
 305              		.loc 1 861 21 view .LVU99
 306 0112 A5B2     		uxth	r5, r4
 307              	.LVL36:
 308              		.loc 1 861 21 view .LVU100
 309 0114 B2E7     		b	.L3
 310              	.LVL37:
 311              	.L10:
 312              		.loc 1 861 21 view .LVU101
 313              	.LBE94:
 862:lvgl/src/widgets/lv_table.c ****             }
 863:lvgl/src/widgets/lv_table.c ****         }
 864:lvgl/src/widgets/lv_table.c ****     }
 865:lvgl/src/widgets/lv_table.c **** 
 866:lvgl/src/widgets/lv_table.c ****     return h_max;
 314              		.loc 1 866 5 is_stmt 1 view .LVU102
 867:lvgl/src/widgets/lv_table.c **** }
 315              		.loc 1 867 1 is_stmt 0 view .LVU103
 316 0116 3846     		mov	r0, r7
 317 0118 11B0     		add	sp, sp, #68
 318              	.LCFI2:
 319              		.cfi_def_cfa_offset 36
 320              		@ sp needed
 321 011a BDE8F08F 		pop	{r4, r5, r6, r7, r8, r9, r10, fp, pc}
 322              		.loc 1 867 1 view .LVU104
 323              		.cfi_endproc
 324              	.LFE175:
 326              		.section	.text.refr_size,"ax",%progbits
 327              		.align	1
 328              		.syntax unified
 329              		.thumb
 330              		.thumb_func
 332              	refr_size:
 333              	.LVL38:
 334              	.LFB174:
 785:lvgl/src/widgets/lv_table.c ****     lv_table_t * table = (lv_table_t *)obj;
 335              		.loc 1 785 1 is_stmt 1 view -0
 336              		.cfi_startproc
ARM GAS  C:\usertemp\ccJd89Xr.s 			page 25


 337              		@ args = 0, pretend = 0, frame = 16
 338              		@ frame_needed = 0, uses_anonymous_args = 0
 785:lvgl/src/widgets/lv_table.c ****     lv_table_t * table = (lv_table_t *)obj;
 339              		.loc 1 785 1 is_stmt 0 view .LVU106
 340 0000 2DE9F04F 		push	{r4, r5, r6, r7, r8, r9, r10, fp, lr}
 341              	.LCFI3:
 342              		.cfi_def_cfa_offset 36
 343              		.cfi_offset 4, -36
 344              		.cfi_offset 5, -32
 345              		.cfi_offset 6, -28
 346              		.cfi_offset 7, -24
 347              		.cfi_offset 8, -20
 348              		.cfi_offset 9, -16
 349              		.cfi_offset 10, -12
 350              		.cfi_offset 11, -8
 351              		.cfi_offset 14, -4
 352 0004 8BB0     		sub	sp, sp, #44
 353              	.LCFI4:
 354              		.cfi_def_cfa_offset 80
 355 0006 0546     		mov	r5, r0
 356 0008 0C46     		mov	r4, r1
 786:lvgl/src/widgets/lv_table.c **** 
 357              		.loc 1 786 5 is_stmt 1 view .LVU107
 358              	.LVL39:
 788:lvgl/src/widgets/lv_table.c **** 
 359              		.loc 1 788 5 view .LVU108
 790:lvgl/src/widgets/lv_table.c ****     lv_coord_t cell_right = lv_obj_get_style_pad_right(obj, LV_PART_ITEMS);
 360              		.loc 1 790 5 view .LVU109
 361              	.LBB95:
 362              	.LBI95:
 363              		.file 3 "lvgl/src/widgets/../core/lv_obj_style_gen.h"
   1:lvgl/src/widgets/../core/lv_obj_style_gen.h **** static inline lv_coord_t lv_obj_get_style_width(const struct _lv_obj_t * obj, uint32_t part)
   2:lvgl/src/widgets/../core/lv_obj_style_gen.h **** {
   3:lvgl/src/widgets/../core/lv_obj_style_gen.h ****     lv_style_value_t v = lv_obj_get_style_prop(obj, part, LV_STYLE_WIDTH);
   4:lvgl/src/widgets/../core/lv_obj_style_gen.h ****     return (lv_coord_t)v.num;
   5:lvgl/src/widgets/../core/lv_obj_style_gen.h **** }
   6:lvgl/src/widgets/../core/lv_obj_style_gen.h **** 
   7:lvgl/src/widgets/../core/lv_obj_style_gen.h **** static inline lv_coord_t lv_obj_get_style_min_width(const struct _lv_obj_t * obj, uint32_t part)
   8:lvgl/src/widgets/../core/lv_obj_style_gen.h **** {
   9:lvgl/src/widgets/../core/lv_obj_style_gen.h ****     lv_style_value_t v = lv_obj_get_style_prop(obj, part, LV_STYLE_MIN_WIDTH);
  10:lvgl/src/widgets/../core/lv_obj_style_gen.h ****     return (lv_coord_t)v.num;
  11:lvgl/src/widgets/../core/lv_obj_style_gen.h **** }
  12:lvgl/src/widgets/../core/lv_obj_style_gen.h **** 
  13:lvgl/src/widgets/../core/lv_obj_style_gen.h **** static inline lv_coord_t lv_obj_get_style_max_width(const struct _lv_obj_t * obj, uint32_t part)
  14:lvgl/src/widgets/../core/lv_obj_style_gen.h **** {
  15:lvgl/src/widgets/../core/lv_obj_style_gen.h ****     lv_style_value_t v = lv_obj_get_style_prop(obj, part, LV_STYLE_MAX_WIDTH);
  16:lvgl/src/widgets/../core/lv_obj_style_gen.h ****     return (lv_coord_t)v.num;
  17:lvgl/src/widgets/../core/lv_obj_style_gen.h **** }
  18:lvgl/src/widgets/../core/lv_obj_style_gen.h **** 
  19:lvgl/src/widgets/../core/lv_obj_style_gen.h **** static inline lv_coord_t lv_obj_get_style_height(const struct _lv_obj_t * obj, uint32_t part)
  20:lvgl/src/widgets/../core/lv_obj_style_gen.h **** {
  21:lvgl/src/widgets/../core/lv_obj_style_gen.h ****     lv_style_value_t v = lv_obj_get_style_prop(obj, part, LV_STYLE_HEIGHT);
  22:lvgl/src/widgets/../core/lv_obj_style_gen.h ****     return (lv_coord_t)v.num;
  23:lvgl/src/widgets/../core/lv_obj_style_gen.h **** }
  24:lvgl/src/widgets/../core/lv_obj_style_gen.h **** 
  25:lvgl/src/widgets/../core/lv_obj_style_gen.h **** static inline lv_coord_t lv_obj_get_style_min_height(const struct _lv_obj_t * obj, uint32_t part)
  26:lvgl/src/widgets/../core/lv_obj_style_gen.h **** {
ARM GAS  C:\usertemp\ccJd89Xr.s 			page 26


  27:lvgl/src/widgets/../core/lv_obj_style_gen.h ****     lv_style_value_t v = lv_obj_get_style_prop(obj, part, LV_STYLE_MIN_HEIGHT);
  28:lvgl/src/widgets/../core/lv_obj_style_gen.h ****     return (lv_coord_t)v.num;
  29:lvgl/src/widgets/../core/lv_obj_style_gen.h **** }
  30:lvgl/src/widgets/../core/lv_obj_style_gen.h **** 
  31:lvgl/src/widgets/../core/lv_obj_style_gen.h **** static inline lv_coord_t lv_obj_get_style_max_height(const struct _lv_obj_t * obj, uint32_t part)
  32:lvgl/src/widgets/../core/lv_obj_style_gen.h **** {
  33:lvgl/src/widgets/../core/lv_obj_style_gen.h ****     lv_style_value_t v = lv_obj_get_style_prop(obj, part, LV_STYLE_MAX_HEIGHT);
  34:lvgl/src/widgets/../core/lv_obj_style_gen.h ****     return (lv_coord_t)v.num;
  35:lvgl/src/widgets/../core/lv_obj_style_gen.h **** }
  36:lvgl/src/widgets/../core/lv_obj_style_gen.h **** 
  37:lvgl/src/widgets/../core/lv_obj_style_gen.h **** static inline lv_coord_t lv_obj_get_style_x(const struct _lv_obj_t * obj, uint32_t part)
  38:lvgl/src/widgets/../core/lv_obj_style_gen.h **** {
  39:lvgl/src/widgets/../core/lv_obj_style_gen.h ****     lv_style_value_t v = lv_obj_get_style_prop(obj, part, LV_STYLE_X);
  40:lvgl/src/widgets/../core/lv_obj_style_gen.h ****     return (lv_coord_t)v.num;
  41:lvgl/src/widgets/../core/lv_obj_style_gen.h **** }
  42:lvgl/src/widgets/../core/lv_obj_style_gen.h **** 
  43:lvgl/src/widgets/../core/lv_obj_style_gen.h **** static inline lv_coord_t lv_obj_get_style_y(const struct _lv_obj_t * obj, uint32_t part)
  44:lvgl/src/widgets/../core/lv_obj_style_gen.h **** {
  45:lvgl/src/widgets/../core/lv_obj_style_gen.h ****     lv_style_value_t v = lv_obj_get_style_prop(obj, part, LV_STYLE_Y);
  46:lvgl/src/widgets/../core/lv_obj_style_gen.h ****     return (lv_coord_t)v.num;
  47:lvgl/src/widgets/../core/lv_obj_style_gen.h **** }
  48:lvgl/src/widgets/../core/lv_obj_style_gen.h **** 
  49:lvgl/src/widgets/../core/lv_obj_style_gen.h **** static inline lv_align_t lv_obj_get_style_align(const struct _lv_obj_t * obj, uint32_t part)
  50:lvgl/src/widgets/../core/lv_obj_style_gen.h **** {
  51:lvgl/src/widgets/../core/lv_obj_style_gen.h ****     lv_style_value_t v = lv_obj_get_style_prop(obj, part, LV_STYLE_ALIGN);
  52:lvgl/src/widgets/../core/lv_obj_style_gen.h ****     return (lv_align_t)v.num;
  53:lvgl/src/widgets/../core/lv_obj_style_gen.h **** }
  54:lvgl/src/widgets/../core/lv_obj_style_gen.h **** 
  55:lvgl/src/widgets/../core/lv_obj_style_gen.h **** static inline lv_coord_t lv_obj_get_style_transform_width(const struct _lv_obj_t * obj, uint32_t pa
  56:lvgl/src/widgets/../core/lv_obj_style_gen.h **** {
  57:lvgl/src/widgets/../core/lv_obj_style_gen.h ****     lv_style_value_t v = lv_obj_get_style_prop(obj, part, LV_STYLE_TRANSFORM_WIDTH);
  58:lvgl/src/widgets/../core/lv_obj_style_gen.h ****     return (lv_coord_t)v.num;
  59:lvgl/src/widgets/../core/lv_obj_style_gen.h **** }
  60:lvgl/src/widgets/../core/lv_obj_style_gen.h **** 
  61:lvgl/src/widgets/../core/lv_obj_style_gen.h **** static inline lv_coord_t lv_obj_get_style_transform_height(const struct _lv_obj_t * obj, uint32_t p
  62:lvgl/src/widgets/../core/lv_obj_style_gen.h **** {
  63:lvgl/src/widgets/../core/lv_obj_style_gen.h ****     lv_style_value_t v = lv_obj_get_style_prop(obj, part, LV_STYLE_TRANSFORM_HEIGHT);
  64:lvgl/src/widgets/../core/lv_obj_style_gen.h ****     return (lv_coord_t)v.num;
  65:lvgl/src/widgets/../core/lv_obj_style_gen.h **** }
  66:lvgl/src/widgets/../core/lv_obj_style_gen.h **** 
  67:lvgl/src/widgets/../core/lv_obj_style_gen.h **** static inline lv_coord_t lv_obj_get_style_translate_x(const struct _lv_obj_t * obj, uint32_t part)
  68:lvgl/src/widgets/../core/lv_obj_style_gen.h **** {
  69:lvgl/src/widgets/../core/lv_obj_style_gen.h ****     lv_style_value_t v = lv_obj_get_style_prop(obj, part, LV_STYLE_TRANSLATE_X);
  70:lvgl/src/widgets/../core/lv_obj_style_gen.h ****     return (lv_coord_t)v.num;
  71:lvgl/src/widgets/../core/lv_obj_style_gen.h **** }
  72:lvgl/src/widgets/../core/lv_obj_style_gen.h **** 
  73:lvgl/src/widgets/../core/lv_obj_style_gen.h **** static inline lv_coord_t lv_obj_get_style_translate_y(const struct _lv_obj_t * obj, uint32_t part)
  74:lvgl/src/widgets/../core/lv_obj_style_gen.h **** {
  75:lvgl/src/widgets/../core/lv_obj_style_gen.h ****     lv_style_value_t v = lv_obj_get_style_prop(obj, part, LV_STYLE_TRANSLATE_Y);
  76:lvgl/src/widgets/../core/lv_obj_style_gen.h ****     return (lv_coord_t)v.num;
  77:lvgl/src/widgets/../core/lv_obj_style_gen.h **** }
  78:lvgl/src/widgets/../core/lv_obj_style_gen.h **** 
  79:lvgl/src/widgets/../core/lv_obj_style_gen.h **** static inline lv_coord_t lv_obj_get_style_transform_zoom(const struct _lv_obj_t * obj, uint32_t par
  80:lvgl/src/widgets/../core/lv_obj_style_gen.h **** {
  81:lvgl/src/widgets/../core/lv_obj_style_gen.h ****     lv_style_value_t v = lv_obj_get_style_prop(obj, part, LV_STYLE_TRANSFORM_ZOOM);
  82:lvgl/src/widgets/../core/lv_obj_style_gen.h ****     return (lv_coord_t)v.num;
  83:lvgl/src/widgets/../core/lv_obj_style_gen.h **** }
ARM GAS  C:\usertemp\ccJd89Xr.s 			page 27


  84:lvgl/src/widgets/../core/lv_obj_style_gen.h **** 
  85:lvgl/src/widgets/../core/lv_obj_style_gen.h **** static inline lv_coord_t lv_obj_get_style_transform_angle(const struct _lv_obj_t * obj, uint32_t pa
  86:lvgl/src/widgets/../core/lv_obj_style_gen.h **** {
  87:lvgl/src/widgets/../core/lv_obj_style_gen.h ****     lv_style_value_t v = lv_obj_get_style_prop(obj, part, LV_STYLE_TRANSFORM_ANGLE);
  88:lvgl/src/widgets/../core/lv_obj_style_gen.h ****     return (lv_coord_t)v.num;
  89:lvgl/src/widgets/../core/lv_obj_style_gen.h **** }
  90:lvgl/src/widgets/../core/lv_obj_style_gen.h **** 
  91:lvgl/src/widgets/../core/lv_obj_style_gen.h **** static inline lv_coord_t lv_obj_get_style_pad_top(const struct _lv_obj_t * obj, uint32_t part)
  92:lvgl/src/widgets/../core/lv_obj_style_gen.h **** {
  93:lvgl/src/widgets/../core/lv_obj_style_gen.h ****     lv_style_value_t v = lv_obj_get_style_prop(obj, part, LV_STYLE_PAD_TOP);
  94:lvgl/src/widgets/../core/lv_obj_style_gen.h ****     return (lv_coord_t)v.num;
  95:lvgl/src/widgets/../core/lv_obj_style_gen.h **** }
  96:lvgl/src/widgets/../core/lv_obj_style_gen.h **** 
  97:lvgl/src/widgets/../core/lv_obj_style_gen.h **** static inline lv_coord_t lv_obj_get_style_pad_bottom(const struct _lv_obj_t * obj, uint32_t part)
  98:lvgl/src/widgets/../core/lv_obj_style_gen.h **** {
  99:lvgl/src/widgets/../core/lv_obj_style_gen.h ****     lv_style_value_t v = lv_obj_get_style_prop(obj, part, LV_STYLE_PAD_BOTTOM);
 100:lvgl/src/widgets/../core/lv_obj_style_gen.h ****     return (lv_coord_t)v.num;
 101:lvgl/src/widgets/../core/lv_obj_style_gen.h **** }
 102:lvgl/src/widgets/../core/lv_obj_style_gen.h **** 
 103:lvgl/src/widgets/../core/lv_obj_style_gen.h **** static inline lv_coord_t lv_obj_get_style_pad_left(const struct _lv_obj_t * obj, uint32_t part)
 364              		.loc 3 103 26 view .LVU110
 365              	.LBB96:
 104:lvgl/src/widgets/../core/lv_obj_style_gen.h **** {
 105:lvgl/src/widgets/../core/lv_obj_style_gen.h ****     lv_style_value_t v = lv_obj_get_style_prop(obj, part, LV_STYLE_PAD_LEFT);
 366              		.loc 3 105 5 view .LVU111
 367              		.loc 3 105 26 is_stmt 0 view .LVU112
 368 000a 41F61202 		movw	r2, #6162
 369 000e 4FF4A021 		mov	r1, #327680
 370              	.LVL40:
 371              		.loc 3 105 26 view .LVU113
 372 0012 FFF7FEFF 		bl	lv_obj_get_style_prop
 373              	.LVL41:
 106:lvgl/src/widgets/../core/lv_obj_style_gen.h ****     return (lv_coord_t)v.num;
 374              		.loc 3 106 5 is_stmt 1 view .LVU114
 375              		.loc 3 106 12 is_stmt 0 view .LVU115
 376 0016 0FFA80FB 		sxth	fp, r0
 377              	.LVL42:
 378              		.loc 3 106 12 view .LVU116
 379              	.LBE96:
 380              	.LBE95:
 791:lvgl/src/widgets/lv_table.c ****     lv_coord_t cell_top = lv_obj_get_style_pad_top(obj, LV_PART_ITEMS);
 381              		.loc 1 791 5 is_stmt 1 view .LVU117
 382              	.LBB97:
 383              	.LBI97:
 107:lvgl/src/widgets/../core/lv_obj_style_gen.h **** }
 108:lvgl/src/widgets/../core/lv_obj_style_gen.h **** 
 109:lvgl/src/widgets/../core/lv_obj_style_gen.h **** static inline lv_coord_t lv_obj_get_style_pad_right(const struct _lv_obj_t * obj, uint32_t part)
 384              		.loc 3 109 26 view .LVU118
 385              	.LBB98:
 110:lvgl/src/widgets/../core/lv_obj_style_gen.h **** {
 111:lvgl/src/widgets/../core/lv_obj_style_gen.h ****     lv_style_value_t v = lv_obj_get_style_prop(obj, part, LV_STYLE_PAD_RIGHT);
 386              		.loc 3 111 5 view .LVU119
 387              		.loc 3 111 26 is_stmt 0 view .LVU120
 388 001a 41F61302 		movw	r2, #6163
 389 001e 4FF4A021 		mov	r1, #327680
 390 0022 2846     		mov	r0, r5
 391 0024 FFF7FEFF 		bl	lv_obj_get_style_prop
ARM GAS  C:\usertemp\ccJd89Xr.s 			page 28


 392              	.LVL43:
 112:lvgl/src/widgets/../core/lv_obj_style_gen.h ****     return (lv_coord_t)v.num;
 393              		.loc 3 112 5 is_stmt 1 view .LVU121
 394              		.loc 3 112 12 is_stmt 0 view .LVU122
 395 0028 0FFA80FA 		sxth	r10, r0
 396              	.LVL44:
 397              		.loc 3 112 12 view .LVU123
 398              	.LBE98:
 399              	.LBE97:
 792:lvgl/src/widgets/lv_table.c ****     lv_coord_t cell_bottom = lv_obj_get_style_pad_bottom(obj, LV_PART_ITEMS);
 400              		.loc 1 792 5 is_stmt 1 view .LVU124
 401              	.LBB99:
 402              	.LBI99:
  91:lvgl/src/widgets/../core/lv_obj_style_gen.h **** {
 403              		.loc 3 91 26 view .LVU125
 404              	.LBB100:
  93:lvgl/src/widgets/../core/lv_obj_style_gen.h ****     return (lv_coord_t)v.num;
 405              		.loc 3 93 5 view .LVU126
  93:lvgl/src/widgets/../core/lv_obj_style_gen.h ****     return (lv_coord_t)v.num;
 406              		.loc 3 93 26 is_stmt 0 view .LVU127
 407 002c 41F61002 		movw	r2, #6160
 408 0030 4FF4A021 		mov	r1, #327680
 409 0034 2846     		mov	r0, r5
 410 0036 FFF7FEFF 		bl	lv_obj_get_style_prop
 411              	.LVL45:
  94:lvgl/src/widgets/../core/lv_obj_style_gen.h **** }
 412              		.loc 3 94 5 is_stmt 1 view .LVU128
  94:lvgl/src/widgets/../core/lv_obj_style_gen.h **** }
 413              		.loc 3 94 12 is_stmt 0 view .LVU129
 414 003a 0FFA80F9 		sxth	r9, r0
 415              	.LVL46:
  94:lvgl/src/widgets/../core/lv_obj_style_gen.h **** }
 416              		.loc 3 94 12 view .LVU130
 417              	.LBE100:
 418              	.LBE99:
 793:lvgl/src/widgets/lv_table.c **** 
 419              		.loc 1 793 5 is_stmt 1 view .LVU131
 420              	.LBB101:
 421              	.LBI101:
  97:lvgl/src/widgets/../core/lv_obj_style_gen.h **** {
 422              		.loc 3 97 26 view .LVU132
 423              	.LBB102:
  99:lvgl/src/widgets/../core/lv_obj_style_gen.h ****     return (lv_coord_t)v.num;
 424              		.loc 3 99 5 view .LVU133
  99:lvgl/src/widgets/../core/lv_obj_style_gen.h ****     return (lv_coord_t)v.num;
 425              		.loc 3 99 26 is_stmt 0 view .LVU134
 426 003e 41F61102 		movw	r2, #6161
 427 0042 4FF4A021 		mov	r1, #327680
 428 0046 2846     		mov	r0, r5
 429 0048 FFF7FEFF 		bl	lv_obj_get_style_prop
 430              	.LVL47:
 100:lvgl/src/widgets/../core/lv_obj_style_gen.h **** }
 431              		.loc 3 100 5 is_stmt 1 view .LVU135
 100:lvgl/src/widgets/../core/lv_obj_style_gen.h **** }
 432              		.loc 3 100 12 is_stmt 0 view .LVU136
 433 004c 03B2     		sxth	r3, r0
 434 004e 0993     		str	r3, [sp, #36]
ARM GAS  C:\usertemp\ccJd89Xr.s 			page 29


 435              	.LVL48:
 100:lvgl/src/widgets/../core/lv_obj_style_gen.h **** }
 436              		.loc 3 100 12 view .LVU137
 437              	.LBE102:
 438              	.LBE101:
 795:lvgl/src/widgets/lv_table.c ****     lv_coord_t line_space = lv_obj_get_style_text_line_space(obj, LV_PART_ITEMS);
 439              		.loc 1 795 5 is_stmt 1 view .LVU138
 440              	.LBB103:
 441              	.LBI103:
 113:lvgl/src/widgets/../core/lv_obj_style_gen.h **** }
 114:lvgl/src/widgets/../core/lv_obj_style_gen.h **** 
 115:lvgl/src/widgets/../core/lv_obj_style_gen.h **** static inline lv_coord_t lv_obj_get_style_pad_row(const struct _lv_obj_t * obj, uint32_t part)
 116:lvgl/src/widgets/../core/lv_obj_style_gen.h **** {
 117:lvgl/src/widgets/../core/lv_obj_style_gen.h ****     lv_style_value_t v = lv_obj_get_style_prop(obj, part, LV_STYLE_PAD_ROW);
 118:lvgl/src/widgets/../core/lv_obj_style_gen.h ****     return (lv_coord_t)v.num;
 119:lvgl/src/widgets/../core/lv_obj_style_gen.h **** }
 120:lvgl/src/widgets/../core/lv_obj_style_gen.h **** 
 121:lvgl/src/widgets/../core/lv_obj_style_gen.h **** static inline lv_coord_t lv_obj_get_style_pad_column(const struct _lv_obj_t * obj, uint32_t part)
 122:lvgl/src/widgets/../core/lv_obj_style_gen.h **** {
 123:lvgl/src/widgets/../core/lv_obj_style_gen.h ****     lv_style_value_t v = lv_obj_get_style_prop(obj, part, LV_STYLE_PAD_COLUMN);
 124:lvgl/src/widgets/../core/lv_obj_style_gen.h ****     return (lv_coord_t)v.num;
 125:lvgl/src/widgets/../core/lv_obj_style_gen.h **** }
 126:lvgl/src/widgets/../core/lv_obj_style_gen.h **** 
 127:lvgl/src/widgets/../core/lv_obj_style_gen.h **** static inline lv_color_t lv_obj_get_style_bg_color(const struct _lv_obj_t * obj, uint32_t part)
 128:lvgl/src/widgets/../core/lv_obj_style_gen.h **** {
 129:lvgl/src/widgets/../core/lv_obj_style_gen.h ****     lv_style_value_t v = lv_obj_get_style_prop(obj, part, LV_STYLE_BG_COLOR);
 130:lvgl/src/widgets/../core/lv_obj_style_gen.h ****     return v.color;
 131:lvgl/src/widgets/../core/lv_obj_style_gen.h **** }
 132:lvgl/src/widgets/../core/lv_obj_style_gen.h **** 
 133:lvgl/src/widgets/../core/lv_obj_style_gen.h **** static inline lv_color_t lv_obj_get_style_bg_color_filtered(const struct _lv_obj_t * obj, uint32_t 
 134:lvgl/src/widgets/../core/lv_obj_style_gen.h **** {
 135:lvgl/src/widgets/../core/lv_obj_style_gen.h ****     lv_style_value_t v = lv_obj_get_style_prop(obj, part, LV_STYLE_BG_COLOR_FILTERED);
 136:lvgl/src/widgets/../core/lv_obj_style_gen.h ****     return v.color;
 137:lvgl/src/widgets/../core/lv_obj_style_gen.h **** }
 138:lvgl/src/widgets/../core/lv_obj_style_gen.h **** 
 139:lvgl/src/widgets/../core/lv_obj_style_gen.h **** static inline lv_opa_t lv_obj_get_style_bg_opa(const struct _lv_obj_t * obj, uint32_t part)
 140:lvgl/src/widgets/../core/lv_obj_style_gen.h **** {
 141:lvgl/src/widgets/../core/lv_obj_style_gen.h ****     lv_style_value_t v = lv_obj_get_style_prop(obj, part, LV_STYLE_BG_OPA);
 142:lvgl/src/widgets/../core/lv_obj_style_gen.h ****     return (lv_opa_t)v.num;
 143:lvgl/src/widgets/../core/lv_obj_style_gen.h **** }
 144:lvgl/src/widgets/../core/lv_obj_style_gen.h **** 
 145:lvgl/src/widgets/../core/lv_obj_style_gen.h **** static inline lv_color_t lv_obj_get_style_bg_grad_color(const struct _lv_obj_t * obj, uint32_t part
 146:lvgl/src/widgets/../core/lv_obj_style_gen.h **** {
 147:lvgl/src/widgets/../core/lv_obj_style_gen.h ****     lv_style_value_t v = lv_obj_get_style_prop(obj, part, LV_STYLE_BG_GRAD_COLOR);
 148:lvgl/src/widgets/../core/lv_obj_style_gen.h ****     return v.color;
 149:lvgl/src/widgets/../core/lv_obj_style_gen.h **** }
 150:lvgl/src/widgets/../core/lv_obj_style_gen.h **** 
 151:lvgl/src/widgets/../core/lv_obj_style_gen.h **** static inline lv_color_t lv_obj_get_style_bg_grad_color_filtered(const struct _lv_obj_t * obj, uint
 152:lvgl/src/widgets/../core/lv_obj_style_gen.h **** {
 153:lvgl/src/widgets/../core/lv_obj_style_gen.h ****     lv_style_value_t v = lv_obj_get_style_prop(obj, part, LV_STYLE_BG_GRAD_COLOR_FILTERED);
 154:lvgl/src/widgets/../core/lv_obj_style_gen.h ****     return v.color;
 155:lvgl/src/widgets/../core/lv_obj_style_gen.h **** }
 156:lvgl/src/widgets/../core/lv_obj_style_gen.h **** 
 157:lvgl/src/widgets/../core/lv_obj_style_gen.h **** static inline lv_grad_dir_t lv_obj_get_style_bg_grad_dir(const struct _lv_obj_t * obj, uint32_t par
 158:lvgl/src/widgets/../core/lv_obj_style_gen.h **** {
 159:lvgl/src/widgets/../core/lv_obj_style_gen.h ****     lv_style_value_t v = lv_obj_get_style_prop(obj, part, LV_STYLE_BG_GRAD_DIR);
 160:lvgl/src/widgets/../core/lv_obj_style_gen.h ****     return (lv_grad_dir_t)v.num;
ARM GAS  C:\usertemp\ccJd89Xr.s 			page 30


 161:lvgl/src/widgets/../core/lv_obj_style_gen.h **** }
 162:lvgl/src/widgets/../core/lv_obj_style_gen.h **** 
 163:lvgl/src/widgets/../core/lv_obj_style_gen.h **** static inline lv_coord_t lv_obj_get_style_bg_main_stop(const struct _lv_obj_t * obj, uint32_t part)
 164:lvgl/src/widgets/../core/lv_obj_style_gen.h **** {
 165:lvgl/src/widgets/../core/lv_obj_style_gen.h ****     lv_style_value_t v = lv_obj_get_style_prop(obj, part, LV_STYLE_BG_MAIN_STOP);
 166:lvgl/src/widgets/../core/lv_obj_style_gen.h ****     return (lv_coord_t)v.num;
 167:lvgl/src/widgets/../core/lv_obj_style_gen.h **** }
 168:lvgl/src/widgets/../core/lv_obj_style_gen.h **** 
 169:lvgl/src/widgets/../core/lv_obj_style_gen.h **** static inline lv_coord_t lv_obj_get_style_bg_grad_stop(const struct _lv_obj_t * obj, uint32_t part)
 170:lvgl/src/widgets/../core/lv_obj_style_gen.h **** {
 171:lvgl/src/widgets/../core/lv_obj_style_gen.h ****     lv_style_value_t v = lv_obj_get_style_prop(obj, part, LV_STYLE_BG_GRAD_STOP);
 172:lvgl/src/widgets/../core/lv_obj_style_gen.h ****     return (lv_coord_t)v.num;
 173:lvgl/src/widgets/../core/lv_obj_style_gen.h **** }
 174:lvgl/src/widgets/../core/lv_obj_style_gen.h **** 
 175:lvgl/src/widgets/../core/lv_obj_style_gen.h **** static inline const lv_grad_dsc_t * lv_obj_get_style_bg_grad(const struct _lv_obj_t * obj, uint32_t
 176:lvgl/src/widgets/../core/lv_obj_style_gen.h **** {
 177:lvgl/src/widgets/../core/lv_obj_style_gen.h ****     lv_style_value_t v = lv_obj_get_style_prop(obj, part, LV_STYLE_BG_GRAD);
 178:lvgl/src/widgets/../core/lv_obj_style_gen.h ****     return (const lv_grad_dsc_t *)v.ptr;
 179:lvgl/src/widgets/../core/lv_obj_style_gen.h **** }
 180:lvgl/src/widgets/../core/lv_obj_style_gen.h **** 
 181:lvgl/src/widgets/../core/lv_obj_style_gen.h **** static inline lv_dither_mode_t lv_obj_get_style_bg_dither_mode(const struct _lv_obj_t * obj, uint32
 182:lvgl/src/widgets/../core/lv_obj_style_gen.h **** {
 183:lvgl/src/widgets/../core/lv_obj_style_gen.h ****     lv_style_value_t v = lv_obj_get_style_prop(obj, part, LV_STYLE_BG_DITHER_MODE);
 184:lvgl/src/widgets/../core/lv_obj_style_gen.h ****     return (lv_dither_mode_t)v.num;
 185:lvgl/src/widgets/../core/lv_obj_style_gen.h **** }
 186:lvgl/src/widgets/../core/lv_obj_style_gen.h **** 
 187:lvgl/src/widgets/../core/lv_obj_style_gen.h **** static inline const void * lv_obj_get_style_bg_img_src(const struct _lv_obj_t * obj, uint32_t part)
 188:lvgl/src/widgets/../core/lv_obj_style_gen.h **** {
 189:lvgl/src/widgets/../core/lv_obj_style_gen.h ****     lv_style_value_t v = lv_obj_get_style_prop(obj, part, LV_STYLE_BG_IMG_SRC);
 190:lvgl/src/widgets/../core/lv_obj_style_gen.h ****     return (const void *)v.ptr;
 191:lvgl/src/widgets/../core/lv_obj_style_gen.h **** }
 192:lvgl/src/widgets/../core/lv_obj_style_gen.h **** 
 193:lvgl/src/widgets/../core/lv_obj_style_gen.h **** static inline lv_opa_t lv_obj_get_style_bg_img_opa(const struct _lv_obj_t * obj, uint32_t part)
 194:lvgl/src/widgets/../core/lv_obj_style_gen.h **** {
 195:lvgl/src/widgets/../core/lv_obj_style_gen.h ****     lv_style_value_t v = lv_obj_get_style_prop(obj, part, LV_STYLE_BG_IMG_OPA);
 196:lvgl/src/widgets/../core/lv_obj_style_gen.h ****     return (lv_opa_t)v.num;
 197:lvgl/src/widgets/../core/lv_obj_style_gen.h **** }
 198:lvgl/src/widgets/../core/lv_obj_style_gen.h **** 
 199:lvgl/src/widgets/../core/lv_obj_style_gen.h **** static inline lv_color_t lv_obj_get_style_bg_img_recolor(const struct _lv_obj_t * obj, uint32_t par
 200:lvgl/src/widgets/../core/lv_obj_style_gen.h **** {
 201:lvgl/src/widgets/../core/lv_obj_style_gen.h ****     lv_style_value_t v = lv_obj_get_style_prop(obj, part, LV_STYLE_BG_IMG_RECOLOR);
 202:lvgl/src/widgets/../core/lv_obj_style_gen.h ****     return v.color;
 203:lvgl/src/widgets/../core/lv_obj_style_gen.h **** }
 204:lvgl/src/widgets/../core/lv_obj_style_gen.h **** 
 205:lvgl/src/widgets/../core/lv_obj_style_gen.h **** static inline lv_color_t lv_obj_get_style_bg_img_recolor_filtered(const struct _lv_obj_t * obj, uin
 206:lvgl/src/widgets/../core/lv_obj_style_gen.h **** {
 207:lvgl/src/widgets/../core/lv_obj_style_gen.h ****     lv_style_value_t v = lv_obj_get_style_prop(obj, part, LV_STYLE_BG_IMG_RECOLOR_FILTERED);
 208:lvgl/src/widgets/../core/lv_obj_style_gen.h ****     return v.color;
 209:lvgl/src/widgets/../core/lv_obj_style_gen.h **** }
 210:lvgl/src/widgets/../core/lv_obj_style_gen.h **** 
 211:lvgl/src/widgets/../core/lv_obj_style_gen.h **** static inline lv_opa_t lv_obj_get_style_bg_img_recolor_opa(const struct _lv_obj_t * obj, uint32_t p
 212:lvgl/src/widgets/../core/lv_obj_style_gen.h **** {
 213:lvgl/src/widgets/../core/lv_obj_style_gen.h ****     lv_style_value_t v = lv_obj_get_style_prop(obj, part, LV_STYLE_BG_IMG_RECOLOR_OPA);
 214:lvgl/src/widgets/../core/lv_obj_style_gen.h ****     return (lv_opa_t)v.num;
 215:lvgl/src/widgets/../core/lv_obj_style_gen.h **** }
 216:lvgl/src/widgets/../core/lv_obj_style_gen.h **** 
 217:lvgl/src/widgets/../core/lv_obj_style_gen.h **** static inline bool lv_obj_get_style_bg_img_tiled(const struct _lv_obj_t * obj, uint32_t part)
ARM GAS  C:\usertemp\ccJd89Xr.s 			page 31


 218:lvgl/src/widgets/../core/lv_obj_style_gen.h **** {
 219:lvgl/src/widgets/../core/lv_obj_style_gen.h ****     lv_style_value_t v = lv_obj_get_style_prop(obj, part, LV_STYLE_BG_IMG_TILED);
 220:lvgl/src/widgets/../core/lv_obj_style_gen.h ****     return (bool)v.num;
 221:lvgl/src/widgets/../core/lv_obj_style_gen.h **** }
 222:lvgl/src/widgets/../core/lv_obj_style_gen.h **** 
 223:lvgl/src/widgets/../core/lv_obj_style_gen.h **** static inline lv_color_t lv_obj_get_style_border_color(const struct _lv_obj_t * obj, uint32_t part)
 224:lvgl/src/widgets/../core/lv_obj_style_gen.h **** {
 225:lvgl/src/widgets/../core/lv_obj_style_gen.h ****     lv_style_value_t v = lv_obj_get_style_prop(obj, part, LV_STYLE_BORDER_COLOR);
 226:lvgl/src/widgets/../core/lv_obj_style_gen.h ****     return v.color;
 227:lvgl/src/widgets/../core/lv_obj_style_gen.h **** }
 228:lvgl/src/widgets/../core/lv_obj_style_gen.h **** 
 229:lvgl/src/widgets/../core/lv_obj_style_gen.h **** static inline lv_color_t lv_obj_get_style_border_color_filtered(const struct _lv_obj_t * obj, uint3
 230:lvgl/src/widgets/../core/lv_obj_style_gen.h **** {
 231:lvgl/src/widgets/../core/lv_obj_style_gen.h ****     lv_style_value_t v = lv_obj_get_style_prop(obj, part, LV_STYLE_BORDER_COLOR_FILTERED);
 232:lvgl/src/widgets/../core/lv_obj_style_gen.h ****     return v.color;
 233:lvgl/src/widgets/../core/lv_obj_style_gen.h **** }
 234:lvgl/src/widgets/../core/lv_obj_style_gen.h **** 
 235:lvgl/src/widgets/../core/lv_obj_style_gen.h **** static inline lv_opa_t lv_obj_get_style_border_opa(const struct _lv_obj_t * obj, uint32_t part)
 236:lvgl/src/widgets/../core/lv_obj_style_gen.h **** {
 237:lvgl/src/widgets/../core/lv_obj_style_gen.h ****     lv_style_value_t v = lv_obj_get_style_prop(obj, part, LV_STYLE_BORDER_OPA);
 238:lvgl/src/widgets/../core/lv_obj_style_gen.h ****     return (lv_opa_t)v.num;
 239:lvgl/src/widgets/../core/lv_obj_style_gen.h **** }
 240:lvgl/src/widgets/../core/lv_obj_style_gen.h **** 
 241:lvgl/src/widgets/../core/lv_obj_style_gen.h **** static inline lv_coord_t lv_obj_get_style_border_width(const struct _lv_obj_t * obj, uint32_t part)
 242:lvgl/src/widgets/../core/lv_obj_style_gen.h **** {
 243:lvgl/src/widgets/../core/lv_obj_style_gen.h ****     lv_style_value_t v = lv_obj_get_style_prop(obj, part, LV_STYLE_BORDER_WIDTH);
 244:lvgl/src/widgets/../core/lv_obj_style_gen.h ****     return (lv_coord_t)v.num;
 245:lvgl/src/widgets/../core/lv_obj_style_gen.h **** }
 246:lvgl/src/widgets/../core/lv_obj_style_gen.h **** 
 247:lvgl/src/widgets/../core/lv_obj_style_gen.h **** static inline lv_border_side_t lv_obj_get_style_border_side(const struct _lv_obj_t * obj, uint32_t 
 248:lvgl/src/widgets/../core/lv_obj_style_gen.h **** {
 249:lvgl/src/widgets/../core/lv_obj_style_gen.h ****     lv_style_value_t v = lv_obj_get_style_prop(obj, part, LV_STYLE_BORDER_SIDE);
 250:lvgl/src/widgets/../core/lv_obj_style_gen.h ****     return (lv_border_side_t)v.num;
 251:lvgl/src/widgets/../core/lv_obj_style_gen.h **** }
 252:lvgl/src/widgets/../core/lv_obj_style_gen.h **** 
 253:lvgl/src/widgets/../core/lv_obj_style_gen.h **** static inline bool lv_obj_get_style_border_post(const struct _lv_obj_t * obj, uint32_t part)
 254:lvgl/src/widgets/../core/lv_obj_style_gen.h **** {
 255:lvgl/src/widgets/../core/lv_obj_style_gen.h ****     lv_style_value_t v = lv_obj_get_style_prop(obj, part, LV_STYLE_BORDER_POST);
 256:lvgl/src/widgets/../core/lv_obj_style_gen.h ****     return (bool)v.num;
 257:lvgl/src/widgets/../core/lv_obj_style_gen.h **** }
 258:lvgl/src/widgets/../core/lv_obj_style_gen.h **** 
 259:lvgl/src/widgets/../core/lv_obj_style_gen.h **** static inline lv_coord_t lv_obj_get_style_outline_width(const struct _lv_obj_t * obj, uint32_t part
 260:lvgl/src/widgets/../core/lv_obj_style_gen.h **** {
 261:lvgl/src/widgets/../core/lv_obj_style_gen.h ****     lv_style_value_t v = lv_obj_get_style_prop(obj, part, LV_STYLE_OUTLINE_WIDTH);
 262:lvgl/src/widgets/../core/lv_obj_style_gen.h ****     return (lv_coord_t)v.num;
 263:lvgl/src/widgets/../core/lv_obj_style_gen.h **** }
 264:lvgl/src/widgets/../core/lv_obj_style_gen.h **** 
 265:lvgl/src/widgets/../core/lv_obj_style_gen.h **** static inline lv_color_t lv_obj_get_style_outline_color(const struct _lv_obj_t * obj, uint32_t part
 266:lvgl/src/widgets/../core/lv_obj_style_gen.h **** {
 267:lvgl/src/widgets/../core/lv_obj_style_gen.h ****     lv_style_value_t v = lv_obj_get_style_prop(obj, part, LV_STYLE_OUTLINE_COLOR);
 268:lvgl/src/widgets/../core/lv_obj_style_gen.h ****     return v.color;
 269:lvgl/src/widgets/../core/lv_obj_style_gen.h **** }
 270:lvgl/src/widgets/../core/lv_obj_style_gen.h **** 
 271:lvgl/src/widgets/../core/lv_obj_style_gen.h **** static inline lv_color_t lv_obj_get_style_outline_color_filtered(const struct _lv_obj_t * obj, uint
 272:lvgl/src/widgets/../core/lv_obj_style_gen.h **** {
 273:lvgl/src/widgets/../core/lv_obj_style_gen.h ****     lv_style_value_t v = lv_obj_get_style_prop(obj, part, LV_STYLE_OUTLINE_COLOR_FILTERED);
 274:lvgl/src/widgets/../core/lv_obj_style_gen.h ****     return v.color;
ARM GAS  C:\usertemp\ccJd89Xr.s 			page 32


 275:lvgl/src/widgets/../core/lv_obj_style_gen.h **** }
 276:lvgl/src/widgets/../core/lv_obj_style_gen.h **** 
 277:lvgl/src/widgets/../core/lv_obj_style_gen.h **** static inline lv_opa_t lv_obj_get_style_outline_opa(const struct _lv_obj_t * obj, uint32_t part)
 278:lvgl/src/widgets/../core/lv_obj_style_gen.h **** {
 279:lvgl/src/widgets/../core/lv_obj_style_gen.h ****     lv_style_value_t v = lv_obj_get_style_prop(obj, part, LV_STYLE_OUTLINE_OPA);
 280:lvgl/src/widgets/../core/lv_obj_style_gen.h ****     return (lv_opa_t)v.num;
 281:lvgl/src/widgets/../core/lv_obj_style_gen.h **** }
 282:lvgl/src/widgets/../core/lv_obj_style_gen.h **** 
 283:lvgl/src/widgets/../core/lv_obj_style_gen.h **** static inline lv_coord_t lv_obj_get_style_outline_pad(const struct _lv_obj_t * obj, uint32_t part)
 284:lvgl/src/widgets/../core/lv_obj_style_gen.h **** {
 285:lvgl/src/widgets/../core/lv_obj_style_gen.h ****     lv_style_value_t v = lv_obj_get_style_prop(obj, part, LV_STYLE_OUTLINE_PAD);
 286:lvgl/src/widgets/../core/lv_obj_style_gen.h ****     return (lv_coord_t)v.num;
 287:lvgl/src/widgets/../core/lv_obj_style_gen.h **** }
 288:lvgl/src/widgets/../core/lv_obj_style_gen.h **** 
 289:lvgl/src/widgets/../core/lv_obj_style_gen.h **** static inline lv_coord_t lv_obj_get_style_shadow_width(const struct _lv_obj_t * obj, uint32_t part)
 290:lvgl/src/widgets/../core/lv_obj_style_gen.h **** {
 291:lvgl/src/widgets/../core/lv_obj_style_gen.h ****     lv_style_value_t v = lv_obj_get_style_prop(obj, part, LV_STYLE_SHADOW_WIDTH);
 292:lvgl/src/widgets/../core/lv_obj_style_gen.h ****     return (lv_coord_t)v.num;
 293:lvgl/src/widgets/../core/lv_obj_style_gen.h **** }
 294:lvgl/src/widgets/../core/lv_obj_style_gen.h **** 
 295:lvgl/src/widgets/../core/lv_obj_style_gen.h **** static inline lv_coord_t lv_obj_get_style_shadow_ofs_x(const struct _lv_obj_t * obj, uint32_t part)
 296:lvgl/src/widgets/../core/lv_obj_style_gen.h **** {
 297:lvgl/src/widgets/../core/lv_obj_style_gen.h ****     lv_style_value_t v = lv_obj_get_style_prop(obj, part, LV_STYLE_SHADOW_OFS_X);
 298:lvgl/src/widgets/../core/lv_obj_style_gen.h ****     return (lv_coord_t)v.num;
 299:lvgl/src/widgets/../core/lv_obj_style_gen.h **** }
 300:lvgl/src/widgets/../core/lv_obj_style_gen.h **** 
 301:lvgl/src/widgets/../core/lv_obj_style_gen.h **** static inline lv_coord_t lv_obj_get_style_shadow_ofs_y(const struct _lv_obj_t * obj, uint32_t part)
 302:lvgl/src/widgets/../core/lv_obj_style_gen.h **** {
 303:lvgl/src/widgets/../core/lv_obj_style_gen.h ****     lv_style_value_t v = lv_obj_get_style_prop(obj, part, LV_STYLE_SHADOW_OFS_Y);
 304:lvgl/src/widgets/../core/lv_obj_style_gen.h ****     return (lv_coord_t)v.num;
 305:lvgl/src/widgets/../core/lv_obj_style_gen.h **** }
 306:lvgl/src/widgets/../core/lv_obj_style_gen.h **** 
 307:lvgl/src/widgets/../core/lv_obj_style_gen.h **** static inline lv_coord_t lv_obj_get_style_shadow_spread(const struct _lv_obj_t * obj, uint32_t part
 308:lvgl/src/widgets/../core/lv_obj_style_gen.h **** {
 309:lvgl/src/widgets/../core/lv_obj_style_gen.h ****     lv_style_value_t v = lv_obj_get_style_prop(obj, part, LV_STYLE_SHADOW_SPREAD);
 310:lvgl/src/widgets/../core/lv_obj_style_gen.h ****     return (lv_coord_t)v.num;
 311:lvgl/src/widgets/../core/lv_obj_style_gen.h **** }
 312:lvgl/src/widgets/../core/lv_obj_style_gen.h **** 
 313:lvgl/src/widgets/../core/lv_obj_style_gen.h **** static inline lv_color_t lv_obj_get_style_shadow_color(const struct _lv_obj_t * obj, uint32_t part)
 314:lvgl/src/widgets/../core/lv_obj_style_gen.h **** {
 315:lvgl/src/widgets/../core/lv_obj_style_gen.h ****     lv_style_value_t v = lv_obj_get_style_prop(obj, part, LV_STYLE_SHADOW_COLOR);
 316:lvgl/src/widgets/../core/lv_obj_style_gen.h ****     return v.color;
 317:lvgl/src/widgets/../core/lv_obj_style_gen.h **** }
 318:lvgl/src/widgets/../core/lv_obj_style_gen.h **** 
 319:lvgl/src/widgets/../core/lv_obj_style_gen.h **** static inline lv_color_t lv_obj_get_style_shadow_color_filtered(const struct _lv_obj_t * obj, uint3
 320:lvgl/src/widgets/../core/lv_obj_style_gen.h **** {
 321:lvgl/src/widgets/../core/lv_obj_style_gen.h ****     lv_style_value_t v = lv_obj_get_style_prop(obj, part, LV_STYLE_SHADOW_COLOR_FILTERED);
 322:lvgl/src/widgets/../core/lv_obj_style_gen.h ****     return v.color;
 323:lvgl/src/widgets/../core/lv_obj_style_gen.h **** }
 324:lvgl/src/widgets/../core/lv_obj_style_gen.h **** 
 325:lvgl/src/widgets/../core/lv_obj_style_gen.h **** static inline lv_opa_t lv_obj_get_style_shadow_opa(const struct _lv_obj_t * obj, uint32_t part)
 326:lvgl/src/widgets/../core/lv_obj_style_gen.h **** {
 327:lvgl/src/widgets/../core/lv_obj_style_gen.h ****     lv_style_value_t v = lv_obj_get_style_prop(obj, part, LV_STYLE_SHADOW_OPA);
 328:lvgl/src/widgets/../core/lv_obj_style_gen.h ****     return (lv_opa_t)v.num;
 329:lvgl/src/widgets/../core/lv_obj_style_gen.h **** }
 330:lvgl/src/widgets/../core/lv_obj_style_gen.h **** 
 331:lvgl/src/widgets/../core/lv_obj_style_gen.h **** static inline lv_opa_t lv_obj_get_style_img_opa(const struct _lv_obj_t * obj, uint32_t part)
ARM GAS  C:\usertemp\ccJd89Xr.s 			page 33


 332:lvgl/src/widgets/../core/lv_obj_style_gen.h **** {
 333:lvgl/src/widgets/../core/lv_obj_style_gen.h ****     lv_style_value_t v = lv_obj_get_style_prop(obj, part, LV_STYLE_IMG_OPA);
 334:lvgl/src/widgets/../core/lv_obj_style_gen.h ****     return (lv_opa_t)v.num;
 335:lvgl/src/widgets/../core/lv_obj_style_gen.h **** }
 336:lvgl/src/widgets/../core/lv_obj_style_gen.h **** 
 337:lvgl/src/widgets/../core/lv_obj_style_gen.h **** static inline lv_color_t lv_obj_get_style_img_recolor(const struct _lv_obj_t * obj, uint32_t part)
 338:lvgl/src/widgets/../core/lv_obj_style_gen.h **** {
 339:lvgl/src/widgets/../core/lv_obj_style_gen.h ****     lv_style_value_t v = lv_obj_get_style_prop(obj, part, LV_STYLE_IMG_RECOLOR);
 340:lvgl/src/widgets/../core/lv_obj_style_gen.h ****     return v.color;
 341:lvgl/src/widgets/../core/lv_obj_style_gen.h **** }
 342:lvgl/src/widgets/../core/lv_obj_style_gen.h **** 
 343:lvgl/src/widgets/../core/lv_obj_style_gen.h **** static inline lv_color_t lv_obj_get_style_img_recolor_filtered(const struct _lv_obj_t * obj, uint32
 344:lvgl/src/widgets/../core/lv_obj_style_gen.h **** {
 345:lvgl/src/widgets/../core/lv_obj_style_gen.h ****     lv_style_value_t v = lv_obj_get_style_prop(obj, part, LV_STYLE_IMG_RECOLOR_FILTERED);
 346:lvgl/src/widgets/../core/lv_obj_style_gen.h ****     return v.color;
 347:lvgl/src/widgets/../core/lv_obj_style_gen.h **** }
 348:lvgl/src/widgets/../core/lv_obj_style_gen.h **** 
 349:lvgl/src/widgets/../core/lv_obj_style_gen.h **** static inline lv_opa_t lv_obj_get_style_img_recolor_opa(const struct _lv_obj_t * obj, uint32_t part
 350:lvgl/src/widgets/../core/lv_obj_style_gen.h **** {
 351:lvgl/src/widgets/../core/lv_obj_style_gen.h ****     lv_style_value_t v = lv_obj_get_style_prop(obj, part, LV_STYLE_IMG_RECOLOR_OPA);
 352:lvgl/src/widgets/../core/lv_obj_style_gen.h ****     return (lv_opa_t)v.num;
 353:lvgl/src/widgets/../core/lv_obj_style_gen.h **** }
 354:lvgl/src/widgets/../core/lv_obj_style_gen.h **** 
 355:lvgl/src/widgets/../core/lv_obj_style_gen.h **** static inline lv_coord_t lv_obj_get_style_line_width(const struct _lv_obj_t * obj, uint32_t part)
 356:lvgl/src/widgets/../core/lv_obj_style_gen.h **** {
 357:lvgl/src/widgets/../core/lv_obj_style_gen.h ****     lv_style_value_t v = lv_obj_get_style_prop(obj, part, LV_STYLE_LINE_WIDTH);
 358:lvgl/src/widgets/../core/lv_obj_style_gen.h ****     return (lv_coord_t)v.num;
 359:lvgl/src/widgets/../core/lv_obj_style_gen.h **** }
 360:lvgl/src/widgets/../core/lv_obj_style_gen.h **** 
 361:lvgl/src/widgets/../core/lv_obj_style_gen.h **** static inline lv_coord_t lv_obj_get_style_line_dash_width(const struct _lv_obj_t * obj, uint32_t pa
 362:lvgl/src/widgets/../core/lv_obj_style_gen.h **** {
 363:lvgl/src/widgets/../core/lv_obj_style_gen.h ****     lv_style_value_t v = lv_obj_get_style_prop(obj, part, LV_STYLE_LINE_DASH_WIDTH);
 364:lvgl/src/widgets/../core/lv_obj_style_gen.h ****     return (lv_coord_t)v.num;
 365:lvgl/src/widgets/../core/lv_obj_style_gen.h **** }
 366:lvgl/src/widgets/../core/lv_obj_style_gen.h **** 
 367:lvgl/src/widgets/../core/lv_obj_style_gen.h **** static inline lv_coord_t lv_obj_get_style_line_dash_gap(const struct _lv_obj_t * obj, uint32_t part
 368:lvgl/src/widgets/../core/lv_obj_style_gen.h **** {
 369:lvgl/src/widgets/../core/lv_obj_style_gen.h ****     lv_style_value_t v = lv_obj_get_style_prop(obj, part, LV_STYLE_LINE_DASH_GAP);
 370:lvgl/src/widgets/../core/lv_obj_style_gen.h ****     return (lv_coord_t)v.num;
 371:lvgl/src/widgets/../core/lv_obj_style_gen.h **** }
 372:lvgl/src/widgets/../core/lv_obj_style_gen.h **** 
 373:lvgl/src/widgets/../core/lv_obj_style_gen.h **** static inline bool lv_obj_get_style_line_rounded(const struct _lv_obj_t * obj, uint32_t part)
 374:lvgl/src/widgets/../core/lv_obj_style_gen.h **** {
 375:lvgl/src/widgets/../core/lv_obj_style_gen.h ****     lv_style_value_t v = lv_obj_get_style_prop(obj, part, LV_STYLE_LINE_ROUNDED);
 376:lvgl/src/widgets/../core/lv_obj_style_gen.h ****     return (bool)v.num;
 377:lvgl/src/widgets/../core/lv_obj_style_gen.h **** }
 378:lvgl/src/widgets/../core/lv_obj_style_gen.h **** 
 379:lvgl/src/widgets/../core/lv_obj_style_gen.h **** static inline lv_color_t lv_obj_get_style_line_color(const struct _lv_obj_t * obj, uint32_t part)
 380:lvgl/src/widgets/../core/lv_obj_style_gen.h **** {
 381:lvgl/src/widgets/../core/lv_obj_style_gen.h ****     lv_style_value_t v = lv_obj_get_style_prop(obj, part, LV_STYLE_LINE_COLOR);
 382:lvgl/src/widgets/../core/lv_obj_style_gen.h ****     return v.color;
 383:lvgl/src/widgets/../core/lv_obj_style_gen.h **** }
 384:lvgl/src/widgets/../core/lv_obj_style_gen.h **** 
 385:lvgl/src/widgets/../core/lv_obj_style_gen.h **** static inline lv_color_t lv_obj_get_style_line_color_filtered(const struct _lv_obj_t * obj, uint32_
 386:lvgl/src/widgets/../core/lv_obj_style_gen.h **** {
 387:lvgl/src/widgets/../core/lv_obj_style_gen.h ****     lv_style_value_t v = lv_obj_get_style_prop(obj, part, LV_STYLE_LINE_COLOR_FILTERED);
 388:lvgl/src/widgets/../core/lv_obj_style_gen.h ****     return v.color;
ARM GAS  C:\usertemp\ccJd89Xr.s 			page 34


 389:lvgl/src/widgets/../core/lv_obj_style_gen.h **** }
 390:lvgl/src/widgets/../core/lv_obj_style_gen.h **** 
 391:lvgl/src/widgets/../core/lv_obj_style_gen.h **** static inline lv_opa_t lv_obj_get_style_line_opa(const struct _lv_obj_t * obj, uint32_t part)
 392:lvgl/src/widgets/../core/lv_obj_style_gen.h **** {
 393:lvgl/src/widgets/../core/lv_obj_style_gen.h ****     lv_style_value_t v = lv_obj_get_style_prop(obj, part, LV_STYLE_LINE_OPA);
 394:lvgl/src/widgets/../core/lv_obj_style_gen.h ****     return (lv_opa_t)v.num;
 395:lvgl/src/widgets/../core/lv_obj_style_gen.h **** }
 396:lvgl/src/widgets/../core/lv_obj_style_gen.h **** 
 397:lvgl/src/widgets/../core/lv_obj_style_gen.h **** static inline lv_coord_t lv_obj_get_style_arc_width(const struct _lv_obj_t * obj, uint32_t part)
 398:lvgl/src/widgets/../core/lv_obj_style_gen.h **** {
 399:lvgl/src/widgets/../core/lv_obj_style_gen.h ****     lv_style_value_t v = lv_obj_get_style_prop(obj, part, LV_STYLE_ARC_WIDTH);
 400:lvgl/src/widgets/../core/lv_obj_style_gen.h ****     return (lv_coord_t)v.num;
 401:lvgl/src/widgets/../core/lv_obj_style_gen.h **** }
 402:lvgl/src/widgets/../core/lv_obj_style_gen.h **** 
 403:lvgl/src/widgets/../core/lv_obj_style_gen.h **** static inline bool lv_obj_get_style_arc_rounded(const struct _lv_obj_t * obj, uint32_t part)
 404:lvgl/src/widgets/../core/lv_obj_style_gen.h **** {
 405:lvgl/src/widgets/../core/lv_obj_style_gen.h ****     lv_style_value_t v = lv_obj_get_style_prop(obj, part, LV_STYLE_ARC_ROUNDED);
 406:lvgl/src/widgets/../core/lv_obj_style_gen.h ****     return (bool)v.num;
 407:lvgl/src/widgets/../core/lv_obj_style_gen.h **** }
 408:lvgl/src/widgets/../core/lv_obj_style_gen.h **** 
 409:lvgl/src/widgets/../core/lv_obj_style_gen.h **** static inline lv_color_t lv_obj_get_style_arc_color(const struct _lv_obj_t * obj, uint32_t part)
 410:lvgl/src/widgets/../core/lv_obj_style_gen.h **** {
 411:lvgl/src/widgets/../core/lv_obj_style_gen.h ****     lv_style_value_t v = lv_obj_get_style_prop(obj, part, LV_STYLE_ARC_COLOR);
 412:lvgl/src/widgets/../core/lv_obj_style_gen.h ****     return v.color;
 413:lvgl/src/widgets/../core/lv_obj_style_gen.h **** }
 414:lvgl/src/widgets/../core/lv_obj_style_gen.h **** 
 415:lvgl/src/widgets/../core/lv_obj_style_gen.h **** static inline lv_color_t lv_obj_get_style_arc_color_filtered(const struct _lv_obj_t * obj, uint32_t
 416:lvgl/src/widgets/../core/lv_obj_style_gen.h **** {
 417:lvgl/src/widgets/../core/lv_obj_style_gen.h ****     lv_style_value_t v = lv_obj_get_style_prop(obj, part, LV_STYLE_ARC_COLOR_FILTERED);
 418:lvgl/src/widgets/../core/lv_obj_style_gen.h ****     return v.color;
 419:lvgl/src/widgets/../core/lv_obj_style_gen.h **** }
 420:lvgl/src/widgets/../core/lv_obj_style_gen.h **** 
 421:lvgl/src/widgets/../core/lv_obj_style_gen.h **** static inline lv_opa_t lv_obj_get_style_arc_opa(const struct _lv_obj_t * obj, uint32_t part)
 422:lvgl/src/widgets/../core/lv_obj_style_gen.h **** {
 423:lvgl/src/widgets/../core/lv_obj_style_gen.h ****     lv_style_value_t v = lv_obj_get_style_prop(obj, part, LV_STYLE_ARC_OPA);
 424:lvgl/src/widgets/../core/lv_obj_style_gen.h ****     return (lv_opa_t)v.num;
 425:lvgl/src/widgets/../core/lv_obj_style_gen.h **** }
 426:lvgl/src/widgets/../core/lv_obj_style_gen.h **** 
 427:lvgl/src/widgets/../core/lv_obj_style_gen.h **** static inline const void * lv_obj_get_style_arc_img_src(const struct _lv_obj_t * obj, uint32_t part
 428:lvgl/src/widgets/../core/lv_obj_style_gen.h **** {
 429:lvgl/src/widgets/../core/lv_obj_style_gen.h ****     lv_style_value_t v = lv_obj_get_style_prop(obj, part, LV_STYLE_ARC_IMG_SRC);
 430:lvgl/src/widgets/../core/lv_obj_style_gen.h ****     return (const void *)v.ptr;
 431:lvgl/src/widgets/../core/lv_obj_style_gen.h **** }
 432:lvgl/src/widgets/../core/lv_obj_style_gen.h **** 
 433:lvgl/src/widgets/../core/lv_obj_style_gen.h **** static inline lv_color_t lv_obj_get_style_text_color(const struct _lv_obj_t * obj, uint32_t part)
 434:lvgl/src/widgets/../core/lv_obj_style_gen.h **** {
 435:lvgl/src/widgets/../core/lv_obj_style_gen.h ****     lv_style_value_t v = lv_obj_get_style_prop(obj, part, LV_STYLE_TEXT_COLOR);
 436:lvgl/src/widgets/../core/lv_obj_style_gen.h ****     return v.color;
 437:lvgl/src/widgets/../core/lv_obj_style_gen.h **** }
 438:lvgl/src/widgets/../core/lv_obj_style_gen.h **** 
 439:lvgl/src/widgets/../core/lv_obj_style_gen.h **** static inline lv_color_t lv_obj_get_style_text_color_filtered(const struct _lv_obj_t * obj, uint32_
 440:lvgl/src/widgets/../core/lv_obj_style_gen.h **** {
 441:lvgl/src/widgets/../core/lv_obj_style_gen.h ****     lv_style_value_t v = lv_obj_get_style_prop(obj, part, LV_STYLE_TEXT_COLOR_FILTERED);
 442:lvgl/src/widgets/../core/lv_obj_style_gen.h ****     return v.color;
 443:lvgl/src/widgets/../core/lv_obj_style_gen.h **** }
 444:lvgl/src/widgets/../core/lv_obj_style_gen.h **** 
 445:lvgl/src/widgets/../core/lv_obj_style_gen.h **** static inline lv_opa_t lv_obj_get_style_text_opa(const struct _lv_obj_t * obj, uint32_t part)
ARM GAS  C:\usertemp\ccJd89Xr.s 			page 35


 446:lvgl/src/widgets/../core/lv_obj_style_gen.h **** {
 447:lvgl/src/widgets/../core/lv_obj_style_gen.h ****     lv_style_value_t v = lv_obj_get_style_prop(obj, part, LV_STYLE_TEXT_OPA);
 448:lvgl/src/widgets/../core/lv_obj_style_gen.h ****     return (lv_opa_t)v.num;
 449:lvgl/src/widgets/../core/lv_obj_style_gen.h **** }
 450:lvgl/src/widgets/../core/lv_obj_style_gen.h **** 
 451:lvgl/src/widgets/../core/lv_obj_style_gen.h **** static inline const lv_font_t * lv_obj_get_style_text_font(const struct _lv_obj_t * obj, uint32_t p
 452:lvgl/src/widgets/../core/lv_obj_style_gen.h **** {
 453:lvgl/src/widgets/../core/lv_obj_style_gen.h ****     lv_style_value_t v = lv_obj_get_style_prop(obj, part, LV_STYLE_TEXT_FONT);
 454:lvgl/src/widgets/../core/lv_obj_style_gen.h ****     return (const lv_font_t *)v.ptr;
 455:lvgl/src/widgets/../core/lv_obj_style_gen.h **** }
 456:lvgl/src/widgets/../core/lv_obj_style_gen.h **** 
 457:lvgl/src/widgets/../core/lv_obj_style_gen.h **** static inline lv_coord_t lv_obj_get_style_text_letter_space(const struct _lv_obj_t * obj, uint32_t 
 442              		.loc 3 457 26 view .LVU139
 443              	.LBB104:
 458:lvgl/src/widgets/../core/lv_obj_style_gen.h **** {
 459:lvgl/src/widgets/../core/lv_obj_style_gen.h ****     lv_style_value_t v = lv_obj_get_style_prop(obj, part, LV_STYLE_TEXT_LETTER_SPACE);
 444              		.loc 3 459 5 view .LVU140
 445              		.loc 3 459 26 is_stmt 0 view .LVU141
 446 0050 41F25A42 		movw	r2, #5210
 447 0054 4FF4A021 		mov	r1, #327680
 448 0058 2846     		mov	r0, r5
 449 005a FFF7FEFF 		bl	lv_obj_get_style_prop
 450              	.LVL49:
 460:lvgl/src/widgets/../core/lv_obj_style_gen.h ****     return (lv_coord_t)v.num;
 451              		.loc 3 460 5 is_stmt 1 view .LVU142
 452              		.loc 3 460 12 is_stmt 0 view .LVU143
 453 005e 03B2     		sxth	r3, r0
 454 0060 0893     		str	r3, [sp, #32]
 455              	.LVL50:
 456              		.loc 3 460 12 view .LVU144
 457              	.LBE104:
 458              	.LBE103:
 796:lvgl/src/widgets/lv_table.c ****     const lv_font_t * font = lv_obj_get_style_text_font(obj, LV_PART_ITEMS);
 459              		.loc 1 796 5 is_stmt 1 view .LVU145
 460              	.LBB105:
 461              	.LBI105:
 461:lvgl/src/widgets/../core/lv_obj_style_gen.h **** }
 462:lvgl/src/widgets/../core/lv_obj_style_gen.h **** 
 463:lvgl/src/widgets/../core/lv_obj_style_gen.h **** static inline lv_coord_t lv_obj_get_style_text_line_space(const struct _lv_obj_t * obj, uint32_t pa
 462              		.loc 3 463 26 view .LVU146
 463              	.LBB106:
 464:lvgl/src/widgets/../core/lv_obj_style_gen.h **** {
 465:lvgl/src/widgets/../core/lv_obj_style_gen.h ****     lv_style_value_t v = lv_obj_get_style_prop(obj, part, LV_STYLE_TEXT_LINE_SPACE);
 464              		.loc 3 465 5 view .LVU147
 465              		.loc 3 465 26 is_stmt 0 view .LVU148
 466 0062 41F25B42 		movw	r2, #5211
 467 0066 4FF4A021 		mov	r1, #327680
 468 006a 2846     		mov	r0, r5
 469 006c FFF7FEFF 		bl	lv_obj_get_style_prop
 470              	.LVL51:
 466:lvgl/src/widgets/../core/lv_obj_style_gen.h ****     return (lv_coord_t)v.num;
 471              		.loc 3 466 5 is_stmt 1 view .LVU149
 472              		.loc 3 466 12 is_stmt 0 view .LVU150
 473 0070 03B2     		sxth	r3, r0
 474 0072 0793     		str	r3, [sp, #28]
 475              	.LVL52:
 476              		.loc 3 466 12 view .LVU151
ARM GAS  C:\usertemp\ccJd89Xr.s 			page 36


 477              	.LBE106:
 478              	.LBE105:
 797:lvgl/src/widgets/lv_table.c **** 
 479              		.loc 1 797 5 is_stmt 1 view .LVU152
 480              	.LBB107:
 481              	.LBI107:
 451:lvgl/src/widgets/../core/lv_obj_style_gen.h **** {
 482              		.loc 3 451 33 view .LVU153
 483              	.LBB108:
 453:lvgl/src/widgets/../core/lv_obj_style_gen.h ****     return (const lv_font_t *)v.ptr;
 484              		.loc 3 453 5 view .LVU154
 453:lvgl/src/widgets/../core/lv_obj_style_gen.h ****     return (const lv_font_t *)v.ptr;
 485              		.loc 3 453 26 is_stmt 0 view .LVU155
 486 0074 41F25942 		movw	r2, #5209
 487 0078 4FF4A021 		mov	r1, #327680
 488 007c 2846     		mov	r0, r5
 489 007e FFF7FEFF 		bl	lv_obj_get_style_prop
 490              	.LVL53:
 491 0082 0690     		str	r0, [sp, #24]
 454:lvgl/src/widgets/../core/lv_obj_style_gen.h **** }
 492              		.loc 3 454 5 is_stmt 1 view .LVU156
 493              	.LVL54:
 454:lvgl/src/widgets/../core/lv_obj_style_gen.h **** }
 494              		.loc 3 454 5 is_stmt 0 view .LVU157
 495              	.LBE108:
 496              	.LBE107:
 799:lvgl/src/widgets/lv_table.c ****     lv_coord_t maxh = lv_obj_get_style_max_height(obj, LV_PART_ITEMS);
 497              		.loc 1 799 5 is_stmt 1 view .LVU158
 498              	.LBB109:
 499              	.LBI109:
  25:lvgl/src/widgets/../core/lv_obj_style_gen.h **** {
 500              		.loc 3 25 26 view .LVU159
 501              	.LBB110:
  27:lvgl/src/widgets/../core/lv_obj_style_gen.h ****     return (lv_coord_t)v.num;
 502              		.loc 3 27 5 view .LVU160
  27:lvgl/src/widgets/../core/lv_obj_style_gen.h ****     return (lv_coord_t)v.num;
 503              		.loc 3 27 26 is_stmt 0 view .LVU161
 504 0084 41F20502 		movw	r2, #4101
 505 0088 4FF4A021 		mov	r1, #327680
 506 008c 2846     		mov	r0, r5
 507              	.LVL55:
  27:lvgl/src/widgets/../core/lv_obj_style_gen.h ****     return (lv_coord_t)v.num;
 508              		.loc 3 27 26 view .LVU162
 509 008e FFF7FEFF 		bl	lv_obj_get_style_prop
 510              	.LVL56:
  28:lvgl/src/widgets/../core/lv_obj_style_gen.h **** }
 511              		.loc 3 28 5 is_stmt 1 view .LVU163
  28:lvgl/src/widgets/../core/lv_obj_style_gen.h **** }
 512              		.loc 3 28 12 is_stmt 0 view .LVU164
 513 0092 0FFA80F8 		sxth	r8, r0
 514              	.LVL57:
  28:lvgl/src/widgets/../core/lv_obj_style_gen.h **** }
 515              		.loc 3 28 12 view .LVU165
 516              	.LBE110:
 517              	.LBE109:
 800:lvgl/src/widgets/lv_table.c **** 
 518              		.loc 1 800 5 is_stmt 1 view .LVU166
ARM GAS  C:\usertemp\ccJd89Xr.s 			page 37


 519              	.LBB111:
 520              	.LBI111:
  31:lvgl/src/widgets/../core/lv_obj_style_gen.h **** {
 521              		.loc 3 31 26 view .LVU167
 522              	.LBB112:
  33:lvgl/src/widgets/../core/lv_obj_style_gen.h ****     return (lv_coord_t)v.num;
 523              		.loc 3 33 5 view .LVU168
  33:lvgl/src/widgets/../core/lv_obj_style_gen.h ****     return (lv_coord_t)v.num;
 524              		.loc 3 33 26 is_stmt 0 view .LVU169
 525 0096 41F20602 		movw	r2, #4102
 526 009a 4FF4A021 		mov	r1, #327680
 527 009e 2846     		mov	r0, r5
 528 00a0 FFF7FEFF 		bl	lv_obj_get_style_prop
 529              	.LVL58:
  34:lvgl/src/widgets/../core/lv_obj_style_gen.h **** }
 530              		.loc 3 34 5 is_stmt 1 view .LVU170
  34:lvgl/src/widgets/../core/lv_obj_style_gen.h **** }
 531              		.loc 3 34 12 is_stmt 0 view .LVU171
 532 00a4 07B2     		sxth	r7, r0
 533              	.LVL59:
  34:lvgl/src/widgets/../core/lv_obj_style_gen.h **** }
 534              		.loc 3 34 12 view .LVU172
 535              	.LBE112:
 536              	.LBE111:
 802:lvgl/src/widgets/lv_table.c ****         table->row_h[i] = get_row_height(obj, i, font, letter_space, line_space,
 537              		.loc 1 802 5 is_stmt 1 view .LVU173
 802:lvgl/src/widgets/lv_table.c ****         table->row_h[i] = get_row_height(obj, i, font, letter_space, line_space,
 538              		.loc 1 802 5 is_stmt 0 view .LVU174
 539 00a6 1EE0     		b	.L12
 540              	.LVL60:
 541              	.L13:
 803:lvgl/src/widgets/lv_table.c ****                                          cell_left, cell_right, cell_top, cell_bottom);
 542              		.loc 1 803 9 is_stmt 1 view .LVU175
 803:lvgl/src/widgets/lv_table.c ****                                          cell_left, cell_right, cell_top, cell_bottom);
 543              		.loc 1 803 14 is_stmt 0 view .LVU176
 544 00a8 EE6A     		ldr	r6, [r5, #44]
 803:lvgl/src/widgets/lv_table.c ****                                          cell_left, cell_right, cell_top, cell_bottom);
 545              		.loc 1 803 27 view .LVU177
 546 00aa 099B     		ldr	r3, [sp, #36]
 547 00ac 0493     		str	r3, [sp, #16]
 548 00ae CDF80C90 		str	r9, [sp, #12]
 549 00b2 CDF808A0 		str	r10, [sp, #8]
 550 00b6 CDF804B0 		str	fp, [sp, #4]
 551 00ba 079B     		ldr	r3, [sp, #28]
 552 00bc 0093     		str	r3, [sp]
 553 00be 089B     		ldr	r3, [sp, #32]
 554 00c0 069A     		ldr	r2, [sp, #24]
 555 00c2 A1B2     		uxth	r1, r4
 556 00c4 2846     		mov	r0, r5
 557 00c6 FFF7FEFF 		bl	get_row_height
 558              	.LVL61:
 803:lvgl/src/widgets/lv_table.c ****                                          cell_left, cell_right, cell_top, cell_bottom);
 559              		.loc 1 803 25 discriminator 1 view .LVU178
 560 00ca 26F81400 		strh	r0, [r6, r4, lsl #1]	@ movhi
 805:lvgl/src/widgets/lv_table.c ****     }
 561              		.loc 1 805 9 is_stmt 1 view .LVU179
 805:lvgl/src/widgets/lv_table.c ****     }
ARM GAS  C:\usertemp\ccJd89Xr.s 			page 38


 562              		.loc 1 805 27 is_stmt 0 view .LVU180
 563 00ce EA6A     		ldr	r2, [r5, #44]
 564 00d0 32F91430 		ldrsh	r3, [r2, r4, lsl #1]
 565 00d4 BB42     		cmp	r3, r7
 566 00d6 A8BF     		it	ge
 567 00d8 3B46     		movge	r3, r7
 568 00da 4345     		cmp	r3, r8
 569 00dc B8BF     		it	lt
 570 00de 4346     		movlt	r3, r8
 805:lvgl/src/widgets/lv_table.c ****     }
 571              		.loc 1 805 25 view .LVU181
 572 00e0 22F81430 		strh	r3, [r2, r4, lsl #1]	@ movhi
 802:lvgl/src/widgets/lv_table.c ****         table->row_h[i] = get_row_height(obj, i, font, letter_space, line_space,
 573              		.loc 1 802 45 is_stmt 1 discriminator 3 view .LVU182
 574 00e4 0134     		adds	r4, r4, #1
 575              	.LVL62:
 576              	.L12:
 802:lvgl/src/widgets/lv_table.c ****         table->row_h[i] = get_row_height(obj, i, font, letter_space, line_space,
 577              		.loc 1 802 26 discriminator 1 view .LVU183
 802:lvgl/src/widgets/lv_table.c ****         table->row_h[i] = get_row_height(obj, i, font, letter_space, line_space,
 578              		.loc 1 802 33 is_stmt 0 discriminator 1 view .LVU184
 579 00e6 EB8C     		ldrh	r3, [r5, #38]
 802:lvgl/src/widgets/lv_table.c ****         table->row_h[i] = get_row_height(obj, i, font, letter_space, line_space,
 580              		.loc 1 802 26 discriminator 1 view .LVU185
 581 00e8 A342     		cmp	r3, r4
 582 00ea DDD8     		bhi	.L13
 808:lvgl/src/widgets/lv_table.c **** }
 583              		.loc 1 808 5 is_stmt 1 view .LVU186
 584 00ec 2846     		mov	r0, r5
 585 00ee FFF7FEFF 		bl	lv_obj_refresh_self_size
 586              	.LVL63:
 809:lvgl/src/widgets/lv_table.c **** 
 587              		.loc 1 809 1 is_stmt 0 view .LVU187
 588 00f2 0BB0     		add	sp, sp, #44
 589              	.LCFI5:
 590              		.cfi_def_cfa_offset 36
 591              		@ sp needed
 592 00f4 BDE8F08F 		pop	{r4, r5, r6, r7, r8, r9, r10, fp, pc}
 809:lvgl/src/widgets/lv_table.c **** 
 593              		.loc 1 809 1 view .LVU188
 594              		.cfi_endproc
 595              	.LFE174:
 597              		.section	.text.get_pressed_cell,"ax",%progbits
 598              		.align	1
 599              		.syntax unified
 600              		.thumb
 601              		.thumb_func
 603              	get_pressed_cell:
 604              	.LVL64:
 605              	.LFB176:
 868:lvgl/src/widgets/lv_table.c **** 
 869:lvgl/src/widgets/lv_table.c **** static lv_res_t get_pressed_cell(lv_obj_t * obj, uint16_t * row, uint16_t * col)
 870:lvgl/src/widgets/lv_table.c **** {
 606              		.loc 1 870 1 is_stmt 1 view -0
 607              		.cfi_startproc
 608              		@ args = 0, pretend = 0, frame = 8
 609              		@ frame_needed = 0, uses_anonymous_args = 0
ARM GAS  C:\usertemp\ccJd89Xr.s 			page 39


 610              		.loc 1 870 1 is_stmt 0 view .LVU190
 611 0000 2DE9F041 		push	{r4, r5, r6, r7, r8, lr}
 612              	.LCFI6:
 613              		.cfi_def_cfa_offset 24
 614              		.cfi_offset 4, -24
 615              		.cfi_offset 5, -20
 616              		.cfi_offset 6, -16
 617              		.cfi_offset 7, -12
 618              		.cfi_offset 8, -8
 619              		.cfi_offset 14, -4
 620 0004 82B0     		sub	sp, sp, #8
 621              	.LCFI7:
 622              		.cfi_def_cfa_offset 32
 623 0006 0446     		mov	r4, r0
 624 0008 0D46     		mov	r5, r1
 625 000a 1646     		mov	r6, r2
 871:lvgl/src/widgets/lv_table.c ****     lv_table_t * table = (lv_table_t *)obj;
 626              		.loc 1 871 5 is_stmt 1 view .LVU191
 627              	.LVL65:
 872:lvgl/src/widgets/lv_table.c **** 
 873:lvgl/src/widgets/lv_table.c ****     lv_indev_type_t type = lv_indev_get_type(lv_indev_get_act());
 628              		.loc 1 873 5 view .LVU192
 629              		.loc 1 873 46 is_stmt 0 view .LVU193
 630 000c FFF7FEFF 		bl	lv_indev_get_act
 631              	.LVL66:
 632              		.loc 1 873 28 discriminator 1 view .LVU194
 633 0010 FFF7FEFF 		bl	lv_indev_get_type
 634              	.LVL67:
 874:lvgl/src/widgets/lv_table.c ****     if(type != LV_INDEV_TYPE_POINTER && type != LV_INDEV_TYPE_BUTTON) {
 635              		.loc 1 874 5 is_stmt 1 view .LVU195
 636              		.loc 1 874 7 is_stmt 0 view .LVU196
 637 0014 0128     		cmp	r0, #1
 638 0016 18BF     		it	ne
 639 0018 0328     		cmpne	r0, #3
 640 001a 0BD0     		beq	.L16
 875:lvgl/src/widgets/lv_table.c ****         if(col) *col = LV_TABLE_CELL_NONE;
 641              		.loc 1 875 9 is_stmt 1 view .LVU197
 642              		.loc 1 875 11 is_stmt 0 view .LVU198
 643 001c 16B1     		cbz	r6, .L17
 644              		.loc 1 875 17 is_stmt 1 discriminator 1 view .LVU199
 645              		.loc 1 875 22 is_stmt 0 discriminator 1 view .LVU200
 646 001e 4FF6FF73 		movw	r3, #65535
 647 0022 3380     		strh	r3, [r6]	@ movhi
 648              	.L17:
 876:lvgl/src/widgets/lv_table.c ****         if(row) *row = LV_TABLE_CELL_NONE;
 649              		.loc 1 876 9 is_stmt 1 view .LVU201
 650              		.loc 1 876 11 is_stmt 0 view .LVU202
 651 0024 15B1     		cbz	r5, .L18
 652              		.loc 1 876 17 is_stmt 1 discriminator 1 view .LVU203
 653              		.loc 1 876 22 is_stmt 0 discriminator 1 view .LVU204
 654 0026 4FF6FF73 		movw	r3, #65535
 655 002a 2B80     		strh	r3, [r5]	@ movhi
 656              	.L18:
 877:lvgl/src/widgets/lv_table.c ****         return LV_RES_INV;
 657              		.loc 1 877 9 is_stmt 1 view .LVU205
 658              		.loc 1 877 16 is_stmt 0 view .LVU206
 659 002c 0020     		movs	r0, #0
ARM GAS  C:\usertemp\ccJd89Xr.s 			page 40


 660              	.LVL68:
 661              	.L19:
 878:lvgl/src/widgets/lv_table.c ****     }
 879:lvgl/src/widgets/lv_table.c **** 
 880:lvgl/src/widgets/lv_table.c ****     lv_point_t p;
 881:lvgl/src/widgets/lv_table.c ****     lv_indev_get_point(lv_indev_get_act(), &p);
 882:lvgl/src/widgets/lv_table.c **** 
 883:lvgl/src/widgets/lv_table.c ****     lv_coord_t tmp;
 884:lvgl/src/widgets/lv_table.c ****     if(col) {
 885:lvgl/src/widgets/lv_table.c ****         lv_coord_t x = p.x + lv_obj_get_scroll_x(obj);
 886:lvgl/src/widgets/lv_table.c **** 
 887:lvgl/src/widgets/lv_table.c ****         if(lv_obj_get_style_base_dir(obj, LV_PART_MAIN) == LV_BASE_DIR_RTL) {
 888:lvgl/src/widgets/lv_table.c ****             x = obj->coords.x2 - lv_obj_get_style_pad_right(obj, LV_PART_MAIN) - x;
 889:lvgl/src/widgets/lv_table.c ****         }
 890:lvgl/src/widgets/lv_table.c ****         else {
 891:lvgl/src/widgets/lv_table.c ****             x -= obj->coords.x1;
 892:lvgl/src/widgets/lv_table.c ****             x -= lv_obj_get_style_pad_left(obj, LV_PART_MAIN);
 893:lvgl/src/widgets/lv_table.c ****         }
 894:lvgl/src/widgets/lv_table.c **** 
 895:lvgl/src/widgets/lv_table.c ****         *col = 0;
 896:lvgl/src/widgets/lv_table.c ****         tmp = 0;
 897:lvgl/src/widgets/lv_table.c ****         for(*col = 0; *col < table->col_cnt; (*col)++) {
 898:lvgl/src/widgets/lv_table.c ****             tmp += table->col_w[*col];
 899:lvgl/src/widgets/lv_table.c ****             if(x < tmp) break;
 900:lvgl/src/widgets/lv_table.c ****         }
 901:lvgl/src/widgets/lv_table.c ****     }
 902:lvgl/src/widgets/lv_table.c **** 
 903:lvgl/src/widgets/lv_table.c ****     if(row) {
 904:lvgl/src/widgets/lv_table.c ****         lv_coord_t y = p.y + lv_obj_get_scroll_y(obj);;
 905:lvgl/src/widgets/lv_table.c ****         y -= obj->coords.y1;
 906:lvgl/src/widgets/lv_table.c ****         y -= lv_obj_get_style_pad_top(obj, LV_PART_MAIN);
 907:lvgl/src/widgets/lv_table.c **** 
 908:lvgl/src/widgets/lv_table.c ****         *row = 0;
 909:lvgl/src/widgets/lv_table.c ****         tmp = 0;
 910:lvgl/src/widgets/lv_table.c **** 
 911:lvgl/src/widgets/lv_table.c ****         for(*row = 0; *row < table->row_cnt; (*row)++) {
 912:lvgl/src/widgets/lv_table.c ****             tmp += table->row_h[*row];
 913:lvgl/src/widgets/lv_table.c ****             if(y < tmp) break;
 914:lvgl/src/widgets/lv_table.c ****         }
 915:lvgl/src/widgets/lv_table.c ****     }
 916:lvgl/src/widgets/lv_table.c **** 
 917:lvgl/src/widgets/lv_table.c ****     return LV_RES_OK;
 918:lvgl/src/widgets/lv_table.c **** }
 662              		.loc 1 918 1 view .LVU207
 663 002e 02B0     		add	sp, sp, #8
 664              	.LCFI8:
 665              		.cfi_remember_state
 666              		.cfi_def_cfa_offset 24
 667              		@ sp needed
 668 0030 BDE8F081 		pop	{r4, r5, r6, r7, r8, pc}
 669              	.LVL69:
 670              	.L16:
 671              	.LCFI9:
 672              		.cfi_restore_state
 880:lvgl/src/widgets/lv_table.c ****     lv_indev_get_point(lv_indev_get_act(), &p);
 673              		.loc 1 880 5 is_stmt 1 view .LVU208
 881:lvgl/src/widgets/lv_table.c **** 
ARM GAS  C:\usertemp\ccJd89Xr.s 			page 41


 674              		.loc 1 881 5 view .LVU209
 881:lvgl/src/widgets/lv_table.c **** 
 675              		.loc 1 881 24 is_stmt 0 view .LVU210
 676 0034 FFF7FEFF 		bl	lv_indev_get_act
 677              	.LVL70:
 881:lvgl/src/widgets/lv_table.c **** 
 678              		.loc 1 881 5 discriminator 1 view .LVU211
 679 0038 01A9     		add	r1, sp, #4
 680 003a FFF7FEFF 		bl	lv_indev_get_point
 681              	.LVL71:
 883:lvgl/src/widgets/lv_table.c ****     if(col) {
 682              		.loc 1 883 5 is_stmt 1 view .LVU212
 884:lvgl/src/widgets/lv_table.c ****         lv_coord_t x = p.x + lv_obj_get_scroll_x(obj);
 683              		.loc 1 884 5 view .LVU213
 884:lvgl/src/widgets/lv_table.c ****         lv_coord_t x = p.x + lv_obj_get_scroll_x(obj);
 684              		.loc 1 884 7 is_stmt 0 view .LVU214
 685 003e 002E     		cmp	r6, #0
 686 0040 3BD0     		beq	.L20
 687              	.LBB113:
 885:lvgl/src/widgets/lv_table.c **** 
 688              		.loc 1 885 9 is_stmt 1 view .LVU215
 885:lvgl/src/widgets/lv_table.c **** 
 689              		.loc 1 885 25 is_stmt 0 view .LVU216
 690 0042 BDF80470 		ldrh	r7, [sp, #4]
 885:lvgl/src/widgets/lv_table.c **** 
 691              		.loc 1 885 30 view .LVU217
 692 0046 2046     		mov	r0, r4
 693 0048 FFF7FEFF 		bl	lv_obj_get_scroll_x
 694              	.LVL72:
 885:lvgl/src/widgets/lv_table.c **** 
 695              		.loc 1 885 28 discriminator 1 view .LVU218
 696 004c 17FA80F7 		uxtah	r7, r7, r0
 697 0050 BFB2     		uxth	r7, r7
 698              	.LVL73:
 887:lvgl/src/widgets/lv_table.c ****             x = obj->coords.x2 - lv_obj_get_style_pad_right(obj, LV_PART_MAIN) - x;
 699              		.loc 1 887 9 is_stmt 1 view .LVU219
 700              	.LBB114:
 701              	.LBI114:
 467:lvgl/src/widgets/../core/lv_obj_style_gen.h **** }
 468:lvgl/src/widgets/../core/lv_obj_style_gen.h **** 
 469:lvgl/src/widgets/../core/lv_obj_style_gen.h **** static inline lv_text_decor_t lv_obj_get_style_text_decor(const struct _lv_obj_t * obj, uint32_t pa
 470:lvgl/src/widgets/../core/lv_obj_style_gen.h **** {
 471:lvgl/src/widgets/../core/lv_obj_style_gen.h ****     lv_style_value_t v = lv_obj_get_style_prop(obj, part, LV_STYLE_TEXT_DECOR);
 472:lvgl/src/widgets/../core/lv_obj_style_gen.h ****     return (lv_text_decor_t)v.num;
 473:lvgl/src/widgets/../core/lv_obj_style_gen.h **** }
 474:lvgl/src/widgets/../core/lv_obj_style_gen.h **** 
 475:lvgl/src/widgets/../core/lv_obj_style_gen.h **** static inline lv_text_align_t lv_obj_get_style_text_align(const struct _lv_obj_t * obj, uint32_t pa
 476:lvgl/src/widgets/../core/lv_obj_style_gen.h **** {
 477:lvgl/src/widgets/../core/lv_obj_style_gen.h ****     lv_style_value_t v = lv_obj_get_style_prop(obj, part, LV_STYLE_TEXT_ALIGN);
 478:lvgl/src/widgets/../core/lv_obj_style_gen.h ****     return (lv_text_align_t)v.num;
 479:lvgl/src/widgets/../core/lv_obj_style_gen.h **** }
 480:lvgl/src/widgets/../core/lv_obj_style_gen.h **** 
 481:lvgl/src/widgets/../core/lv_obj_style_gen.h **** static inline lv_coord_t lv_obj_get_style_radius(const struct _lv_obj_t * obj, uint32_t part)
 482:lvgl/src/widgets/../core/lv_obj_style_gen.h **** {
 483:lvgl/src/widgets/../core/lv_obj_style_gen.h ****     lv_style_value_t v = lv_obj_get_style_prop(obj, part, LV_STYLE_RADIUS);
 484:lvgl/src/widgets/../core/lv_obj_style_gen.h ****     return (lv_coord_t)v.num;
 485:lvgl/src/widgets/../core/lv_obj_style_gen.h **** }
ARM GAS  C:\usertemp\ccJd89Xr.s 			page 42


 486:lvgl/src/widgets/../core/lv_obj_style_gen.h **** 
 487:lvgl/src/widgets/../core/lv_obj_style_gen.h **** static inline bool lv_obj_get_style_clip_corner(const struct _lv_obj_t * obj, uint32_t part)
 488:lvgl/src/widgets/../core/lv_obj_style_gen.h **** {
 489:lvgl/src/widgets/../core/lv_obj_style_gen.h ****     lv_style_value_t v = lv_obj_get_style_prop(obj, part, LV_STYLE_CLIP_CORNER);
 490:lvgl/src/widgets/../core/lv_obj_style_gen.h ****     return (bool)v.num;
 491:lvgl/src/widgets/../core/lv_obj_style_gen.h **** }
 492:lvgl/src/widgets/../core/lv_obj_style_gen.h **** 
 493:lvgl/src/widgets/../core/lv_obj_style_gen.h **** static inline lv_opa_t lv_obj_get_style_opa(const struct _lv_obj_t * obj, uint32_t part)
 494:lvgl/src/widgets/../core/lv_obj_style_gen.h **** {
 495:lvgl/src/widgets/../core/lv_obj_style_gen.h ****     lv_style_value_t v = lv_obj_get_style_prop(obj, part, LV_STYLE_OPA);
 496:lvgl/src/widgets/../core/lv_obj_style_gen.h ****     return (lv_opa_t)v.num;
 497:lvgl/src/widgets/../core/lv_obj_style_gen.h **** }
 498:lvgl/src/widgets/../core/lv_obj_style_gen.h **** 
 499:lvgl/src/widgets/../core/lv_obj_style_gen.h **** static inline const lv_color_filter_dsc_t * lv_obj_get_style_color_filter_dsc(const struct _lv_obj_
 500:lvgl/src/widgets/../core/lv_obj_style_gen.h ****                                                                               uint32_t part)
 501:lvgl/src/widgets/../core/lv_obj_style_gen.h **** {
 502:lvgl/src/widgets/../core/lv_obj_style_gen.h ****     lv_style_value_t v = lv_obj_get_style_prop(obj, part, LV_STYLE_COLOR_FILTER_DSC);
 503:lvgl/src/widgets/../core/lv_obj_style_gen.h ****     return (const lv_color_filter_dsc_t *)v.ptr;
 504:lvgl/src/widgets/../core/lv_obj_style_gen.h **** }
 505:lvgl/src/widgets/../core/lv_obj_style_gen.h **** 
 506:lvgl/src/widgets/../core/lv_obj_style_gen.h **** static inline lv_opa_t lv_obj_get_style_color_filter_opa(const struct _lv_obj_t * obj, uint32_t par
 507:lvgl/src/widgets/../core/lv_obj_style_gen.h **** {
 508:lvgl/src/widgets/../core/lv_obj_style_gen.h ****     lv_style_value_t v = lv_obj_get_style_prop(obj, part, LV_STYLE_COLOR_FILTER_OPA);
 509:lvgl/src/widgets/../core/lv_obj_style_gen.h ****     return (lv_opa_t)v.num;
 510:lvgl/src/widgets/../core/lv_obj_style_gen.h **** }
 511:lvgl/src/widgets/../core/lv_obj_style_gen.h **** 
 512:lvgl/src/widgets/../core/lv_obj_style_gen.h **** static inline uint32_t lv_obj_get_style_anim_time(const struct _lv_obj_t * obj, uint32_t part)
 513:lvgl/src/widgets/../core/lv_obj_style_gen.h **** {
 514:lvgl/src/widgets/../core/lv_obj_style_gen.h ****     lv_style_value_t v = lv_obj_get_style_prop(obj, part, LV_STYLE_ANIM_TIME);
 515:lvgl/src/widgets/../core/lv_obj_style_gen.h ****     return (uint32_t)v.num;
 516:lvgl/src/widgets/../core/lv_obj_style_gen.h **** }
 517:lvgl/src/widgets/../core/lv_obj_style_gen.h **** 
 518:lvgl/src/widgets/../core/lv_obj_style_gen.h **** static inline uint32_t lv_obj_get_style_anim_speed(const struct _lv_obj_t * obj, uint32_t part)
 519:lvgl/src/widgets/../core/lv_obj_style_gen.h **** {
 520:lvgl/src/widgets/../core/lv_obj_style_gen.h ****     lv_style_value_t v = lv_obj_get_style_prop(obj, part, LV_STYLE_ANIM_SPEED);
 521:lvgl/src/widgets/../core/lv_obj_style_gen.h ****     return (uint32_t)v.num;
 522:lvgl/src/widgets/../core/lv_obj_style_gen.h **** }
 523:lvgl/src/widgets/../core/lv_obj_style_gen.h **** 
 524:lvgl/src/widgets/../core/lv_obj_style_gen.h **** static inline const lv_style_transition_dsc_t * lv_obj_get_style_transition(const struct _lv_obj_t 
 525:lvgl/src/widgets/../core/lv_obj_style_gen.h **** {
 526:lvgl/src/widgets/../core/lv_obj_style_gen.h ****     lv_style_value_t v = lv_obj_get_style_prop(obj, part, LV_STYLE_TRANSITION);
 527:lvgl/src/widgets/../core/lv_obj_style_gen.h ****     return (const lv_style_transition_dsc_t *)v.ptr;
 528:lvgl/src/widgets/../core/lv_obj_style_gen.h **** }
 529:lvgl/src/widgets/../core/lv_obj_style_gen.h **** 
 530:lvgl/src/widgets/../core/lv_obj_style_gen.h **** static inline lv_blend_mode_t lv_obj_get_style_blend_mode(const struct _lv_obj_t * obj, uint32_t pa
 531:lvgl/src/widgets/../core/lv_obj_style_gen.h **** {
 532:lvgl/src/widgets/../core/lv_obj_style_gen.h ****     lv_style_value_t v = lv_obj_get_style_prop(obj, part, LV_STYLE_BLEND_MODE);
 533:lvgl/src/widgets/../core/lv_obj_style_gen.h ****     return (lv_blend_mode_t)v.num;
 534:lvgl/src/widgets/../core/lv_obj_style_gen.h **** }
 535:lvgl/src/widgets/../core/lv_obj_style_gen.h **** 
 536:lvgl/src/widgets/../core/lv_obj_style_gen.h **** static inline uint16_t lv_obj_get_style_layout(const struct _lv_obj_t * obj, uint32_t part)
 537:lvgl/src/widgets/../core/lv_obj_style_gen.h **** {
 538:lvgl/src/widgets/../core/lv_obj_style_gen.h ****     lv_style_value_t v = lv_obj_get_style_prop(obj, part, LV_STYLE_LAYOUT);
 539:lvgl/src/widgets/../core/lv_obj_style_gen.h ****     return (uint16_t)v.num;
 540:lvgl/src/widgets/../core/lv_obj_style_gen.h **** }
 541:lvgl/src/widgets/../core/lv_obj_style_gen.h **** 
 542:lvgl/src/widgets/../core/lv_obj_style_gen.h **** static inline lv_base_dir_t lv_obj_get_style_base_dir(const struct _lv_obj_t * obj, uint32_t part)
ARM GAS  C:\usertemp\ccJd89Xr.s 			page 43


 702              		.loc 3 542 29 view .LVU220
 703              	.LBB115:
 543:lvgl/src/widgets/../core/lv_obj_style_gen.h **** {
 544:lvgl/src/widgets/../core/lv_obj_style_gen.h ****     lv_style_value_t v = lv_obj_get_style_prop(obj, part, LV_STYLE_BASE_DIR);
 704              		.loc 3 544 5 view .LVU221
 705              		.loc 3 544 26 is_stmt 0 view .LVU222
 706 0052 41F26A42 		movw	r2, #5226
 707 0056 0021     		movs	r1, #0
 708 0058 2046     		mov	r0, r4
 709 005a FFF7FEFF 		bl	lv_obj_get_style_prop
 710              	.LVL74:
 545:lvgl/src/widgets/../core/lv_obj_style_gen.h ****     return (lv_base_dir_t)v.num;
 711              		.loc 3 545 5 is_stmt 1 view .LVU223
 712              		.loc 3 545 12 is_stmt 0 view .LVU224
 713 005e C0B2     		uxtb	r0, r0
 714              	.LVL75:
 715              		.loc 3 545 12 view .LVU225
 716              	.LBE115:
 717              	.LBE114:
 887:lvgl/src/widgets/lv_table.c ****             x = obj->coords.x2 - lv_obj_get_style_pad_right(obj, LV_PART_MAIN) - x;
 718              		.loc 1 887 11 discriminator 1 view .LVU226
 719 0060 0128     		cmp	r0, #1
 720 0062 1BD0     		beq	.L30
 891:lvgl/src/widgets/lv_table.c ****             x -= lv_obj_get_style_pad_left(obj, LV_PART_MAIN);
 721              		.loc 1 891 13 is_stmt 1 view .LVU227
 891:lvgl/src/widgets/lv_table.c ****             x -= lv_obj_get_style_pad_left(obj, LV_PART_MAIN);
 722              		.loc 1 891 29 is_stmt 0 view .LVU228
 723 0064 A38A     		ldrh	r3, [r4, #20]
 891:lvgl/src/widgets/lv_table.c ****             x -= lv_obj_get_style_pad_left(obj, LV_PART_MAIN);
 724              		.loc 1 891 15 view .LVU229
 725 0066 FF1A     		subs	r7, r7, r3
 726              	.LVL76:
 891:lvgl/src/widgets/lv_table.c ****             x -= lv_obj_get_style_pad_left(obj, LV_PART_MAIN);
 727              		.loc 1 891 15 view .LVU230
 728 0068 BFB2     		uxth	r7, r7
 729              	.LVL77:
 892:lvgl/src/widgets/lv_table.c ****         }
 730              		.loc 1 892 13 is_stmt 1 view .LVU231
 731              	.LBB116:
 732              	.LBI116:
 103:lvgl/src/widgets/../core/lv_obj_style_gen.h **** {
 733              		.loc 3 103 26 view .LVU232
 734              	.LBB117:
 105:lvgl/src/widgets/../core/lv_obj_style_gen.h ****     return (lv_coord_t)v.num;
 735              		.loc 3 105 5 view .LVU233
 105:lvgl/src/widgets/../core/lv_obj_style_gen.h ****     return (lv_coord_t)v.num;
 736              		.loc 3 105 26 is_stmt 0 view .LVU234
 737 006a 41F61202 		movw	r2, #6162
 738 006e 0021     		movs	r1, #0
 739 0070 2046     		mov	r0, r4
 740 0072 FFF7FEFF 		bl	lv_obj_get_style_prop
 741              	.LVL78:
 106:lvgl/src/widgets/../core/lv_obj_style_gen.h **** }
 742              		.loc 3 106 5 is_stmt 1 view .LVU235
 106:lvgl/src/widgets/../core/lv_obj_style_gen.h **** }
 743              		.loc 3 106 5 is_stmt 0 view .LVU236
 744              	.LBE117:
ARM GAS  C:\usertemp\ccJd89Xr.s 			page 44


 745              	.LBE116:
 892:lvgl/src/widgets/lv_table.c ****         }
 746              		.loc 1 892 18 discriminator 1 view .LVU237
 747 0076 80B2     		uxth	r0, r0
 892:lvgl/src/widgets/lv_table.c ****         }
 748              		.loc 1 892 15 discriminator 1 view .LVU238
 749 0078 381A     		subs	r0, r7, r0
 750 007a 00B2     		sxth	r0, r0
 751              	.LVL79:
 752              	.L22:
 895:lvgl/src/widgets/lv_table.c ****         tmp = 0;
 753              		.loc 1 895 9 is_stmt 1 view .LVU239
 895:lvgl/src/widgets/lv_table.c ****         tmp = 0;
 754              		.loc 1 895 14 is_stmt 0 view .LVU240
 755 007c 0021     		movs	r1, #0
 756 007e 3180     		strh	r1, [r6]	@ movhi
 896:lvgl/src/widgets/lv_table.c ****         for(*col = 0; *col < table->col_cnt; (*col)++) {
 757              		.loc 1 896 9 is_stmt 1 view .LVU241
 758              	.LVL80:
 897:lvgl/src/widgets/lv_table.c ****             tmp += table->col_w[*col];
 759              		.loc 1 897 9 view .LVU242
 760              	.L23:
 897:lvgl/src/widgets/lv_table.c ****             tmp += table->col_w[*col];
 761              		.loc 1 897 28 discriminator 1 view .LVU243
 897:lvgl/src/widgets/lv_table.c ****             tmp += table->col_w[*col];
 762              		.loc 1 897 23 is_stmt 0 discriminator 1 view .LVU244
 763 0080 3388     		ldrh	r3, [r6]
 897:lvgl/src/widgets/lv_table.c ****             tmp += table->col_w[*col];
 764              		.loc 1 897 35 discriminator 1 view .LVU245
 765 0082 A28C     		ldrh	r2, [r4, #36]
 897:lvgl/src/widgets/lv_table.c ****             tmp += table->col_w[*col];
 766              		.loc 1 897 28 discriminator 1 view .LVU246
 767 0084 9342     		cmp	r3, r2
 768 0086 18D2     		bcs	.L20
 898:lvgl/src/widgets/lv_table.c ****             if(x < tmp) break;
 769              		.loc 1 898 13 is_stmt 1 view .LVU247
 898:lvgl/src/widgets/lv_table.c ****             if(x < tmp) break;
 770              		.loc 1 898 25 is_stmt 0 view .LVU248
 771 0088 226B     		ldr	r2, [r4, #48]
 898:lvgl/src/widgets/lv_table.c ****             if(x < tmp) break;
 772              		.loc 1 898 32 view .LVU249
 773 008a 32F81320 		ldrh	r2, [r2, r3, lsl #1]
 898:lvgl/src/widgets/lv_table.c ****             if(x < tmp) break;
 774              		.loc 1 898 17 view .LVU250
 775 008e 1144     		add	r1, r1, r2
 776              	.LVL81:
 898:lvgl/src/widgets/lv_table.c ****             if(x < tmp) break;
 777              		.loc 1 898 17 view .LVU251
 778 0090 09B2     		sxth	r1, r1
 779              	.LVL82:
 899:lvgl/src/widgets/lv_table.c ****         }
 780              		.loc 1 899 13 is_stmt 1 view .LVU252
 899:lvgl/src/widgets/lv_table.c ****         }
 781              		.loc 1 899 15 is_stmt 0 view .LVU253
 782 0092 8842     		cmp	r0, r1
 783 0094 11DB     		blt	.L20
 897:lvgl/src/widgets/lv_table.c ****             tmp += table->col_w[*col];
ARM GAS  C:\usertemp\ccJd89Xr.s 			page 45


 784              		.loc 1 897 52 is_stmt 1 discriminator 2 view .LVU254
 785 0096 0133     		adds	r3, r3, #1
 786 0098 3380     		strh	r3, [r6]	@ movhi
 787 009a F1E7     		b	.L23
 788              	.LVL83:
 789              	.L30:
 888:lvgl/src/widgets/lv_table.c ****         }
 790              		.loc 1 888 13 view .LVU255
 888:lvgl/src/widgets/lv_table.c ****         }
 791              		.loc 1 888 28 is_stmt 0 view .LVU256
 792 009c B4F81880 		ldrh	r8, [r4, #24]
 793              	.LVL84:
 794              	.LBB118:
 795              	.LBI118:
 109:lvgl/src/widgets/../core/lv_obj_style_gen.h **** {
 796              		.loc 3 109 26 is_stmt 1 view .LVU257
 797              	.LBB119:
 111:lvgl/src/widgets/../core/lv_obj_style_gen.h ****     return (lv_coord_t)v.num;
 798              		.loc 3 111 5 view .LVU258
 111:lvgl/src/widgets/../core/lv_obj_style_gen.h ****     return (lv_coord_t)v.num;
 799              		.loc 3 111 26 is_stmt 0 view .LVU259
 800 00a0 41F61302 		movw	r2, #6163
 801 00a4 0021     		movs	r1, #0
 802 00a6 2046     		mov	r0, r4
 803 00a8 FFF7FEFF 		bl	lv_obj_get_style_prop
 804              	.LVL85:
 112:lvgl/src/widgets/../core/lv_obj_style_gen.h **** }
 805              		.loc 3 112 5 is_stmt 1 view .LVU260
 112:lvgl/src/widgets/../core/lv_obj_style_gen.h **** }
 806              		.loc 3 112 5 is_stmt 0 view .LVU261
 807              	.LBE119:
 808              	.LBE118:
 888:lvgl/src/widgets/lv_table.c ****         }
 809              		.loc 1 888 34 discriminator 1 view .LVU262
 810 00ac 80B2     		uxth	r0, r0
 888:lvgl/src/widgets/lv_table.c ****         }
 811              		.loc 1 888 32 discriminator 1 view .LVU263
 812 00ae A8EB0003 		sub	r3, r8, r0
 813 00b2 9BB2     		uxth	r3, r3
 888:lvgl/src/widgets/lv_table.c ****         }
 814              		.loc 1 888 80 discriminator 1 view .LVU264
 815 00b4 DB1B     		subs	r3, r3, r7
 888:lvgl/src/widgets/lv_table.c ****         }
 816              		.loc 1 888 15 discriminator 1 view .LVU265
 817 00b6 18B2     		sxth	r0, r3
 818              	.LVL86:
 888:lvgl/src/widgets/lv_table.c ****         }
 819              		.loc 1 888 15 discriminator 1 view .LVU266
 820 00b8 E0E7     		b	.L22
 821              	.LVL87:
 822              	.L20:
 888:lvgl/src/widgets/lv_table.c ****         }
 823              		.loc 1 888 15 discriminator 1 view .LVU267
 824              	.LBE113:
 903:lvgl/src/widgets/lv_table.c ****         lv_coord_t y = p.y + lv_obj_get_scroll_y(obj);;
 825              		.loc 1 903 5 is_stmt 1 view .LVU268
 903:lvgl/src/widgets/lv_table.c ****         lv_coord_t y = p.y + lv_obj_get_scroll_y(obj);;
ARM GAS  C:\usertemp\ccJd89Xr.s 			page 46


 826              		.loc 1 903 7 is_stmt 0 view .LVU269
 827 00ba 2DB3     		cbz	r5, .L27
 828              	.LBB120:
 904:lvgl/src/widgets/lv_table.c ****         y -= obj->coords.y1;
 829              		.loc 1 904 9 is_stmt 1 view .LVU270
 904:lvgl/src/widgets/lv_table.c ****         y -= obj->coords.y1;
 830              		.loc 1 904 25 is_stmt 0 view .LVU271
 831 00bc BDF80660 		ldrh	r6, [sp, #6]
 832              	.LVL88:
 904:lvgl/src/widgets/lv_table.c ****         y -= obj->coords.y1;
 833              		.loc 1 904 30 view .LVU272
 834 00c0 2046     		mov	r0, r4
 835 00c2 FFF7FEFF 		bl	lv_obj_get_scroll_y
 836              	.LVL89:
 904:lvgl/src/widgets/lv_table.c ****         y -= obj->coords.y1;
 837              		.loc 1 904 28 discriminator 1 view .LVU273
 838 00c6 16FA80F6 		uxtah	r6, r6, r0
 839 00ca B6B2     		uxth	r6, r6
 840              	.LVL90:
 904:lvgl/src/widgets/lv_table.c ****         y -= obj->coords.y1;
 841              		.loc 1 904 55 is_stmt 1 discriminator 1 view .LVU274
 905:lvgl/src/widgets/lv_table.c ****         y -= lv_obj_get_style_pad_top(obj, LV_PART_MAIN);
 842              		.loc 1 905 9 view .LVU275
 905:lvgl/src/widgets/lv_table.c ****         y -= lv_obj_get_style_pad_top(obj, LV_PART_MAIN);
 843              		.loc 1 905 25 is_stmt 0 view .LVU276
 844 00cc E38A     		ldrh	r3, [r4, #22]
 905:lvgl/src/widgets/lv_table.c ****         y -= lv_obj_get_style_pad_top(obj, LV_PART_MAIN);
 845              		.loc 1 905 11 view .LVU277
 846 00ce F61A     		subs	r6, r6, r3
 847              	.LVL91:
 905:lvgl/src/widgets/lv_table.c ****         y -= lv_obj_get_style_pad_top(obj, LV_PART_MAIN);
 848              		.loc 1 905 11 view .LVU278
 849 00d0 B6B2     		uxth	r6, r6
 850              	.LVL92:
 906:lvgl/src/widgets/lv_table.c **** 
 851              		.loc 1 906 9 is_stmt 1 view .LVU279
 852              	.LBB121:
 853              	.LBI121:
  91:lvgl/src/widgets/../core/lv_obj_style_gen.h **** {
 854              		.loc 3 91 26 view .LVU280
 855              	.LBB122:
  93:lvgl/src/widgets/../core/lv_obj_style_gen.h ****     return (lv_coord_t)v.num;
 856              		.loc 3 93 5 view .LVU281
  93:lvgl/src/widgets/../core/lv_obj_style_gen.h ****     return (lv_coord_t)v.num;
 857              		.loc 3 93 26 is_stmt 0 view .LVU282
 858 00d2 41F61002 		movw	r2, #6160
 859 00d6 0021     		movs	r1, #0
 860 00d8 2046     		mov	r0, r4
 861 00da FFF7FEFF 		bl	lv_obj_get_style_prop
 862              	.LVL93:
  94:lvgl/src/widgets/../core/lv_obj_style_gen.h **** }
 863              		.loc 3 94 5 is_stmt 1 view .LVU283
  94:lvgl/src/widgets/../core/lv_obj_style_gen.h **** }
 864              		.loc 3 94 5 is_stmt 0 view .LVU284
 865              	.LBE122:
 866              	.LBE121:
 906:lvgl/src/widgets/lv_table.c **** 
ARM GAS  C:\usertemp\ccJd89Xr.s 			page 47


 867              		.loc 1 906 14 discriminator 1 view .LVU285
 868 00de 80B2     		uxth	r0, r0
 906:lvgl/src/widgets/lv_table.c **** 
 869              		.loc 1 906 11 discriminator 1 view .LVU286
 870 00e0 311A     		subs	r1, r6, r0
 871 00e2 09B2     		sxth	r1, r1
 872              	.LVL94:
 908:lvgl/src/widgets/lv_table.c ****         tmp = 0;
 873              		.loc 1 908 9 is_stmt 1 view .LVU287
 908:lvgl/src/widgets/lv_table.c ****         tmp = 0;
 874              		.loc 1 908 14 is_stmt 0 view .LVU288
 875 00e4 0022     		movs	r2, #0
 876 00e6 2A80     		strh	r2, [r5]	@ movhi
 909:lvgl/src/widgets/lv_table.c **** 
 877              		.loc 1 909 9 is_stmt 1 view .LVU289
 878              	.LVL95:
 911:lvgl/src/widgets/lv_table.c ****             tmp += table->row_h[*row];
 879              		.loc 1 911 9 view .LVU290
 880              	.L25:
 911:lvgl/src/widgets/lv_table.c ****             tmp += table->row_h[*row];
 881              		.loc 1 911 28 discriminator 1 view .LVU291
 911:lvgl/src/widgets/lv_table.c ****             tmp += table->row_h[*row];
 882              		.loc 1 911 23 is_stmt 0 discriminator 1 view .LVU292
 883 00e8 2B88     		ldrh	r3, [r5]
 911:lvgl/src/widgets/lv_table.c ****             tmp += table->row_h[*row];
 884              		.loc 1 911 35 discriminator 1 view .LVU293
 885 00ea E08C     		ldrh	r0, [r4, #38]
 911:lvgl/src/widgets/lv_table.c ****             tmp += table->row_h[*row];
 886              		.loc 1 911 28 discriminator 1 view .LVU294
 887 00ec 8342     		cmp	r3, r0
 888 00ee 09D2     		bcs	.L31
 912:lvgl/src/widgets/lv_table.c ****             if(y < tmp) break;
 889              		.loc 1 912 13 is_stmt 1 view .LVU295
 912:lvgl/src/widgets/lv_table.c ****             if(y < tmp) break;
 890              		.loc 1 912 25 is_stmt 0 view .LVU296
 891 00f0 E06A     		ldr	r0, [r4, #44]
 912:lvgl/src/widgets/lv_table.c ****             if(y < tmp) break;
 892              		.loc 1 912 32 view .LVU297
 893 00f2 30F81300 		ldrh	r0, [r0, r3, lsl #1]
 912:lvgl/src/widgets/lv_table.c ****             if(y < tmp) break;
 894              		.loc 1 912 17 view .LVU298
 895 00f6 0244     		add	r2, r2, r0
 896              	.LVL96:
 912:lvgl/src/widgets/lv_table.c ****             if(y < tmp) break;
 897              		.loc 1 912 17 view .LVU299
 898 00f8 12B2     		sxth	r2, r2
 899              	.LVL97:
 913:lvgl/src/widgets/lv_table.c ****         }
 900              		.loc 1 913 13 is_stmt 1 view .LVU300
 913:lvgl/src/widgets/lv_table.c ****         }
 901              		.loc 1 913 15 is_stmt 0 view .LVU301
 902 00fa 9142     		cmp	r1, r2
 903 00fc 06DB     		blt	.L28
 911:lvgl/src/widgets/lv_table.c ****             tmp += table->row_h[*row];
 904              		.loc 1 911 52 is_stmt 1 discriminator 2 view .LVU302
 905 00fe 0133     		adds	r3, r3, #1
 906 0100 2B80     		strh	r3, [r5]	@ movhi
ARM GAS  C:\usertemp\ccJd89Xr.s 			page 48


 907 0102 F1E7     		b	.L25
 908              	.L31:
 911:lvgl/src/widgets/lv_table.c ****             tmp += table->row_h[*row];
 909              		.loc 1 911 52 is_stmt 0 discriminator 2 view .LVU303
 910              	.LBE120:
 917:lvgl/src/widgets/lv_table.c **** }
 911              		.loc 1 917 12 view .LVU304
 912 0104 0120     		movs	r0, #1
 913              	.LBB123:
 914 0106 92E7     		b	.L19
 915              	.LVL98:
 916              	.L27:
 917:lvgl/src/widgets/lv_table.c **** }
 917              		.loc 1 917 12 view .LVU305
 918              	.LBE123:
 919 0108 0120     		movs	r0, #1
 920 010a 90E7     		b	.L19
 921              	.LVL99:
 922              	.L28:
 917:lvgl/src/widgets/lv_table.c **** }
 923              		.loc 1 917 12 view .LVU306
 924 010c 0120     		movs	r0, #1
 925 010e 8EE7     		b	.L19
 926              		.cfi_endproc
 927              	.LFE176:
 929              		.section	.text.draw_main,"ax",%progbits
 930              		.align	1
 931              		.syntax unified
 932              		.thumb
 933              		.thumb_func
 935              	draw_main:
 936              	.LVL100:
 937              	.LFB173:
 590:lvgl/src/widgets/lv_table.c ****     lv_obj_t * obj = lv_event_get_target(e);
 938              		.loc 1 590 1 is_stmt 1 view -0
 939              		.cfi_startproc
 940              		@ args = 0, pretend = 0, frame = 376
 941              		@ frame_needed = 0, uses_anonymous_args = 0
 590:lvgl/src/widgets/lv_table.c ****     lv_obj_t * obj = lv_event_get_target(e);
 942              		.loc 1 590 1 is_stmt 0 view .LVU308
 943 0000 2DE9F04F 		push	{r4, r5, r6, r7, r8, r9, r10, fp, lr}
 944              	.LCFI10:
 945              		.cfi_def_cfa_offset 36
 946              		.cfi_offset 4, -36
 947              		.cfi_offset 5, -32
 948              		.cfi_offset 6, -28
 949              		.cfi_offset 7, -24
 950              		.cfi_offset 8, -20
 951              		.cfi_offset 9, -16
 952              		.cfi_offset 10, -12
 953              		.cfi_offset 11, -8
 954              		.cfi_offset 14, -4
 955 0004 E3B0     		sub	sp, sp, #396
 956              	.LCFI11:
 957              		.cfi_def_cfa_offset 432
 958 0006 0446     		mov	r4, r0
 591:lvgl/src/widgets/lv_table.c ****     lv_table_t * table = (lv_table_t *)obj;
ARM GAS  C:\usertemp\ccJd89Xr.s 			page 49


 959              		.loc 1 591 5 is_stmt 1 view .LVU309
 591:lvgl/src/widgets/lv_table.c ****     lv_table_t * table = (lv_table_t *)obj;
 960              		.loc 1 591 22 is_stmt 0 view .LVU310
 961 0008 FFF7FEFF 		bl	lv_event_get_target
 962              	.LVL101:
 591:lvgl/src/widgets/lv_table.c ****     lv_table_t * table = (lv_table_t *)obj;
 963              		.loc 1 591 22 view .LVU311
 964 000c 0746     		mov	r7, r0
 965              	.LVL102:
 592:lvgl/src/widgets/lv_table.c ****     lv_draw_ctx_t * draw_ctx = lv_event_get_draw_ctx(e);
 966              		.loc 1 592 5 is_stmt 1 view .LVU312
 593:lvgl/src/widgets/lv_table.c ****     lv_area_t clip_area;
 967              		.loc 1 593 5 view .LVU313
 593:lvgl/src/widgets/lv_table.c ****     lv_area_t clip_area;
 968              		.loc 1 593 32 is_stmt 0 view .LVU314
 969 000e 2046     		mov	r0, r4
 970              	.LVL103:
 593:lvgl/src/widgets/lv_table.c ****     lv_area_t clip_area;
 971              		.loc 1 593 32 view .LVU315
 972 0010 FFF7FEFF 		bl	lv_event_get_draw_ctx
 973              	.LVL104:
 974 0014 0446     		mov	r4, r0
 975              	.LVL105:
 594:lvgl/src/widgets/lv_table.c ****     if(!_lv_area_intersect(&clip_area, &obj->coords, draw_ctx->clip_area)) return;
 976              		.loc 1 594 5 is_stmt 1 view .LVU316
 595:lvgl/src/widgets/lv_table.c **** 
 977              		.loc 1 595 5 view .LVU317
 595:lvgl/src/widgets/lv_table.c **** 
 978              		.loc 1 595 9 is_stmt 0 view .LVU318
 979 0016 8268     		ldr	r2, [r0, #8]
 980 0018 07F11401 		add	r1, r7, #20
 981 001c 60A8     		add	r0, sp, #384
 982              	.LVL106:
 595:lvgl/src/widgets/lv_table.c **** 
 983              		.loc 1 595 9 view .LVU319
 984 001e FFF7FEFF 		bl	_lv_area_intersect
 985              	.LVL107:
 595:lvgl/src/widgets/lv_table.c **** 
 986              		.loc 1 595 7 discriminator 1 view .LVU320
 987 0022 10B9     		cbnz	r0, .L76
 988              	.LVL108:
 989              	.L32:
 782:lvgl/src/widgets/lv_table.c **** 
 990              		.loc 1 782 1 view .LVU321
 991 0024 63B0     		add	sp, sp, #396
 992              	.LCFI12:
 993              		.cfi_remember_state
 994              		.cfi_def_cfa_offset 36
 995              		@ sp needed
 996 0026 BDE8F08F 		pop	{r4, r5, r6, r7, r8, r9, r10, fp, pc}
 997              	.LVL109:
 998              	.L76:
 999              	.LCFI13:
 1000              		.cfi_restore_state
 597:lvgl/src/widgets/lv_table.c ****     draw_ctx->clip_area = &clip_area;
 1001              		.loc 1 597 5 is_stmt 1 view .LVU322
 597:lvgl/src/widgets/lv_table.c ****     draw_ctx->clip_area = &clip_area;
ARM GAS  C:\usertemp\ccJd89Xr.s 			page 50


 1002              		.loc 1 597 23 is_stmt 0 view .LVU323
 1003 002a A668     		ldr	r6, [r4, #8]
 1004              	.LVL110:
 598:lvgl/src/widgets/lv_table.c **** 
 1005              		.loc 1 598 5 is_stmt 1 view .LVU324
 598:lvgl/src/widgets/lv_table.c **** 
 1006              		.loc 1 598 25 is_stmt 0 view .LVU325
 1007 002c 60AB     		add	r3, sp, #384
 1008 002e 0894     		str	r4, [sp, #32]
 1009 0030 A360     		str	r3, [r4, #8]
 600:lvgl/src/widgets/lv_table.c ****     lv_area_t cell_area;
 1010              		.loc 1 600 5 is_stmt 1 view .LVU326
 601:lvgl/src/widgets/lv_table.c ****     lv_area_t txt_area;
 1011              		.loc 1 601 5 view .LVU327
 602:lvgl/src/widgets/lv_table.c ****     lv_text_flag_t txt_flags;
 1012              		.loc 1 602 5 view .LVU328
 603:lvgl/src/widgets/lv_table.c **** 
 1013              		.loc 1 603 5 view .LVU329
 605:lvgl/src/widgets/lv_table.c ****     lv_coord_t bg_top = lv_obj_get_style_pad_top(obj, LV_PART_MAIN);
 1014              		.loc 1 605 5 view .LVU330
 1015              	.LVL111:
 1016              	.LBB124:
 1017              	.LBI124:
 241:lvgl/src/widgets/../core/lv_obj_style_gen.h **** {
 1018              		.loc 3 241 26 view .LVU331
 1019              	.LBB125:
 243:lvgl/src/widgets/../core/lv_obj_style_gen.h ****     return (lv_coord_t)v.num;
 1020              		.loc 3 243 5 view .LVU332
 243:lvgl/src/widgets/../core/lv_obj_style_gen.h ****     return (lv_coord_t)v.num;
 1021              		.loc 3 243 26 is_stmt 0 view .LVU333
 1022 0032 41F23202 		movw	r2, #4146
 1023 0036 0021     		movs	r1, #0
 1024 0038 3846     		mov	r0, r7
 1025 003a FFF7FEFF 		bl	lv_obj_get_style_prop
 1026              	.LVL112:
 1027 003e 8146     		mov	r9, r0
 1028              	.LVL113:
 244:lvgl/src/widgets/../core/lv_obj_style_gen.h **** }
 1029              		.loc 3 244 5 is_stmt 1 view .LVU334
 244:lvgl/src/widgets/../core/lv_obj_style_gen.h **** }
 1030              		.loc 3 244 5 is_stmt 0 view .LVU335
 1031              	.LBE125:
 1032              	.LBE124:
 606:lvgl/src/widgets/lv_table.c ****     lv_coord_t bg_bottom = lv_obj_get_style_pad_bottom(obj, LV_PART_MAIN);
 1033              		.loc 1 606 5 is_stmt 1 view .LVU336
 1034              	.LBB126:
 1035              	.LBI126:
  91:lvgl/src/widgets/../core/lv_obj_style_gen.h **** {
 1036              		.loc 3 91 26 view .LVU337
 1037              	.LBB127:
  93:lvgl/src/widgets/../core/lv_obj_style_gen.h ****     return (lv_coord_t)v.num;
 1038              		.loc 3 93 5 view .LVU338
  93:lvgl/src/widgets/../core/lv_obj_style_gen.h ****     return (lv_coord_t)v.num;
 1039              		.loc 3 93 26 is_stmt 0 view .LVU339
 1040 0040 41F61002 		movw	r2, #6160
 1041 0044 0021     		movs	r1, #0
 1042 0046 3846     		mov	r0, r7
ARM GAS  C:\usertemp\ccJd89Xr.s 			page 51


 1043 0048 FFF7FEFF 		bl	lv_obj_get_style_prop
 1044              	.LVL114:
 1045 004c 0446     		mov	r4, r0
 1046              	.LVL115:
  94:lvgl/src/widgets/../core/lv_obj_style_gen.h **** }
 1047              		.loc 3 94 5 is_stmt 1 view .LVU340
  94:lvgl/src/widgets/../core/lv_obj_style_gen.h **** }
 1048              		.loc 3 94 12 is_stmt 0 view .LVU341
 1049 004e 03B2     		sxth	r3, r0
 1050 0050 1193     		str	r3, [sp, #68]
 1051              	.LVL116:
  94:lvgl/src/widgets/../core/lv_obj_style_gen.h **** }
 1052              		.loc 3 94 12 view .LVU342
 1053              	.LBE127:
 1054              	.LBE126:
 607:lvgl/src/widgets/lv_table.c ****     lv_coord_t bg_left = lv_obj_get_style_pad_left(obj, LV_PART_MAIN);
 1055              		.loc 1 607 5 is_stmt 1 view .LVU343
 1056              	.LBB128:
 1057              	.LBI128:
  97:lvgl/src/widgets/../core/lv_obj_style_gen.h **** {
 1058              		.loc 3 97 26 view .LVU344
 1059              	.LBB129:
  99:lvgl/src/widgets/../core/lv_obj_style_gen.h ****     return (lv_coord_t)v.num;
 1060              		.loc 3 99 5 view .LVU345
  99:lvgl/src/widgets/../core/lv_obj_style_gen.h ****     return (lv_coord_t)v.num;
 1061              		.loc 3 99 26 is_stmt 0 view .LVU346
 1062 0052 41F61102 		movw	r2, #6161
 1063 0056 0021     		movs	r1, #0
 1064 0058 3846     		mov	r0, r7
  99:lvgl/src/widgets/../core/lv_obj_style_gen.h ****     return (lv_coord_t)v.num;
 1065              		.loc 3 99 26 view .LVU347
 1066 005a FFF7FEFF 		bl	lv_obj_get_style_prop
 1067              	.LVL117:
 100:lvgl/src/widgets/../core/lv_obj_style_gen.h **** }
 1068              		.loc 3 100 5 is_stmt 1 view .LVU348
 100:lvgl/src/widgets/../core/lv_obj_style_gen.h **** }
 1069              		.loc 3 100 12 is_stmt 0 view .LVU349
 1070 005e 03B2     		sxth	r3, r0
 1071 0060 1093     		str	r3, [sp, #64]
 1072              	.LVL118:
 100:lvgl/src/widgets/../core/lv_obj_style_gen.h **** }
 1073              		.loc 3 100 12 view .LVU350
 1074              	.LBE129:
 1075              	.LBE128:
 608:lvgl/src/widgets/lv_table.c ****     lv_coord_t bg_right = lv_obj_get_style_pad_right(obj, LV_PART_MAIN);
 1076              		.loc 1 608 5 is_stmt 1 view .LVU351
 1077              	.LBB130:
 1078              	.LBI130:
 103:lvgl/src/widgets/../core/lv_obj_style_gen.h **** {
 1079              		.loc 3 103 26 view .LVU352
 1080              	.LBB131:
 105:lvgl/src/widgets/../core/lv_obj_style_gen.h ****     return (lv_coord_t)v.num;
 1081              		.loc 3 105 5 view .LVU353
 105:lvgl/src/widgets/../core/lv_obj_style_gen.h ****     return (lv_coord_t)v.num;
 1082              		.loc 3 105 26 is_stmt 0 view .LVU354
 1083 0062 41F61202 		movw	r2, #6162
 1084 0066 0021     		movs	r1, #0
ARM GAS  C:\usertemp\ccJd89Xr.s 			page 52


 1085 0068 3846     		mov	r0, r7
 1086 006a FFF7FEFF 		bl	lv_obj_get_style_prop
 1087              	.LVL119:
 1088 006e 1590     		str	r0, [sp, #84]
 106:lvgl/src/widgets/../core/lv_obj_style_gen.h **** }
 1089              		.loc 3 106 5 is_stmt 1 view .LVU355
 106:lvgl/src/widgets/../core/lv_obj_style_gen.h **** }
 1090              		.loc 3 106 12 is_stmt 0 view .LVU356
 1091 0070 03B2     		sxth	r3, r0
 1092 0072 0F93     		str	r3, [sp, #60]
 1093              	.LVL120:
 106:lvgl/src/widgets/../core/lv_obj_style_gen.h **** }
 1094              		.loc 3 106 12 view .LVU357
 1095              	.LBE131:
 1096              	.LBE130:
 609:lvgl/src/widgets/lv_table.c **** 
 1097              		.loc 1 609 5 is_stmt 1 view .LVU358
 1098              	.LBB132:
 1099              	.LBI132:
 109:lvgl/src/widgets/../core/lv_obj_style_gen.h **** {
 1100              		.loc 3 109 26 view .LVU359
 1101              	.LBB133:
 111:lvgl/src/widgets/../core/lv_obj_style_gen.h ****     return (lv_coord_t)v.num;
 1102              		.loc 3 111 5 view .LVU360
 111:lvgl/src/widgets/../core/lv_obj_style_gen.h ****     return (lv_coord_t)v.num;
 1103              		.loc 3 111 26 is_stmt 0 view .LVU361
 1104 0074 41F61302 		movw	r2, #6163
 1105 0078 0021     		movs	r1, #0
 1106 007a 3846     		mov	r0, r7
 1107 007c FFF7FEFF 		bl	lv_obj_get_style_prop
 1108              	.LVL121:
 1109 0080 1690     		str	r0, [sp, #88]
 112:lvgl/src/widgets/../core/lv_obj_style_gen.h **** }
 1110              		.loc 3 112 5 is_stmt 1 view .LVU362
 112:lvgl/src/widgets/../core/lv_obj_style_gen.h **** }
 1111              		.loc 3 112 12 is_stmt 0 view .LVU363
 1112 0082 03B2     		sxth	r3, r0
 1113 0084 0E93     		str	r3, [sp, #56]
 1114              	.LVL122:
 112:lvgl/src/widgets/../core/lv_obj_style_gen.h **** }
 1115              		.loc 3 112 12 view .LVU364
 1116              	.LBE133:
 1117              	.LBE132:
 611:lvgl/src/widgets/lv_table.c ****     lv_coord_t cell_right = lv_obj_get_style_pad_right(obj, LV_PART_ITEMS);
 1118              		.loc 1 611 5 is_stmt 1 view .LVU365
 1119              	.LBB134:
 1120              	.LBI134:
 103:lvgl/src/widgets/../core/lv_obj_style_gen.h **** {
 1121              		.loc 3 103 26 view .LVU366
 1122              	.LBB135:
 105:lvgl/src/widgets/../core/lv_obj_style_gen.h ****     return (lv_coord_t)v.num;
 1123              		.loc 3 105 5 view .LVU367
 105:lvgl/src/widgets/../core/lv_obj_style_gen.h ****     return (lv_coord_t)v.num;
 1124              		.loc 3 105 26 is_stmt 0 view .LVU368
 1125 0086 41F61202 		movw	r2, #6162
 1126 008a 4FF4A021 		mov	r1, #327680
 1127 008e 3846     		mov	r0, r7
ARM GAS  C:\usertemp\ccJd89Xr.s 			page 53


 1128 0090 FFF7FEFF 		bl	lv_obj_get_style_prop
 1129              	.LVL123:
 1130 0094 0C90     		str	r0, [sp, #48]
 106:lvgl/src/widgets/../core/lv_obj_style_gen.h **** }
 1131              		.loc 3 106 5 is_stmt 1 view .LVU369
 1132              	.LVL124:
 106:lvgl/src/widgets/../core/lv_obj_style_gen.h **** }
 1133              		.loc 3 106 5 is_stmt 0 view .LVU370
 1134              	.LBE135:
 1135              	.LBE134:
 612:lvgl/src/widgets/lv_table.c ****     lv_coord_t cell_top = lv_obj_get_style_pad_top(obj, LV_PART_ITEMS);
 1136              		.loc 1 612 5 is_stmt 1 view .LVU371
 1137              	.LBB136:
 1138              	.LBI136:
 109:lvgl/src/widgets/../core/lv_obj_style_gen.h **** {
 1139              		.loc 3 109 26 view .LVU372
 1140              	.LBB137:
 111:lvgl/src/widgets/../core/lv_obj_style_gen.h ****     return (lv_coord_t)v.num;
 1141              		.loc 3 111 5 view .LVU373
 111:lvgl/src/widgets/../core/lv_obj_style_gen.h ****     return (lv_coord_t)v.num;
 1142              		.loc 3 111 26 is_stmt 0 view .LVU374
 1143 0096 41F61302 		movw	r2, #6163
 1144 009a 4FF4A021 		mov	r1, #327680
 1145 009e 3846     		mov	r0, r7
 1146 00a0 FFF7FEFF 		bl	lv_obj_get_style_prop
 1147              	.LVL125:
 1148 00a4 0B90     		str	r0, [sp, #44]
 112:lvgl/src/widgets/../core/lv_obj_style_gen.h **** }
 1149              		.loc 3 112 5 is_stmt 1 view .LVU375
 1150              	.LVL126:
 112:lvgl/src/widgets/../core/lv_obj_style_gen.h **** }
 1151              		.loc 3 112 5 is_stmt 0 view .LVU376
 1152              	.LBE137:
 1153              	.LBE136:
 613:lvgl/src/widgets/lv_table.c ****     lv_coord_t cell_bottom = lv_obj_get_style_pad_bottom(obj, LV_PART_ITEMS);
 1154              		.loc 1 613 5 is_stmt 1 view .LVU377
 1155              	.LBB138:
 1156              	.LBI138:
  91:lvgl/src/widgets/../core/lv_obj_style_gen.h **** {
 1157              		.loc 3 91 26 view .LVU378
 1158              	.LBB139:
  93:lvgl/src/widgets/../core/lv_obj_style_gen.h ****     return (lv_coord_t)v.num;
 1159              		.loc 3 93 5 view .LVU379
  93:lvgl/src/widgets/../core/lv_obj_style_gen.h ****     return (lv_coord_t)v.num;
 1160              		.loc 3 93 26 is_stmt 0 view .LVU380
 1161 00a6 41F61002 		movw	r2, #6160
 1162 00aa 4FF4A021 		mov	r1, #327680
 1163 00ae 3846     		mov	r0, r7
 1164 00b0 FFF7FEFF 		bl	lv_obj_get_style_prop
 1165              	.LVL127:
 1166 00b4 0A90     		str	r0, [sp, #40]
  94:lvgl/src/widgets/../core/lv_obj_style_gen.h **** }
 1167              		.loc 3 94 5 is_stmt 1 view .LVU381
 1168              	.LVL128:
  94:lvgl/src/widgets/../core/lv_obj_style_gen.h **** }
 1169              		.loc 3 94 5 is_stmt 0 view .LVU382
 1170              	.LBE139:
ARM GAS  C:\usertemp\ccJd89Xr.s 			page 54


 1171              	.LBE138:
 614:lvgl/src/widgets/lv_table.c **** 
 1172              		.loc 1 614 5 is_stmt 1 view .LVU383
 1173              	.LBB140:
 1174              	.LBI140:
  97:lvgl/src/widgets/../core/lv_obj_style_gen.h **** {
 1175              		.loc 3 97 26 view .LVU384
 1176              	.LBB141:
  99:lvgl/src/widgets/../core/lv_obj_style_gen.h ****     return (lv_coord_t)v.num;
 1177              		.loc 3 99 5 view .LVU385
  99:lvgl/src/widgets/../core/lv_obj_style_gen.h ****     return (lv_coord_t)v.num;
 1178              		.loc 3 99 26 is_stmt 0 view .LVU386
 1179 00b6 41F61102 		movw	r2, #6161
 1180 00ba 4FF4A021 		mov	r1, #327680
 1181 00be 3846     		mov	r0, r7
 1182 00c0 FFF7FEFF 		bl	lv_obj_get_style_prop
 1183              	.LVL129:
 1184 00c4 0990     		str	r0, [sp, #36]
 100:lvgl/src/widgets/../core/lv_obj_style_gen.h **** }
 1185              		.loc 3 100 5 is_stmt 1 view .LVU387
 1186              	.LVL130:
 100:lvgl/src/widgets/../core/lv_obj_style_gen.h **** }
 1187              		.loc 3 100 5 is_stmt 0 view .LVU388
 1188              	.LBE141:
 1189              	.LBE140:
 616:lvgl/src/widgets/lv_table.c ****     obj->state = LV_STATE_DEFAULT;
 1190              		.loc 1 616 5 is_stmt 1 view .LVU389
 616:lvgl/src/widgets/lv_table.c ****     obj->state = LV_STATE_DEFAULT;
 1191              		.loc 1 616 16 is_stmt 0 view .LVU390
 1192 00c6 3B8C     		ldrh	r3, [r7, #32]
 1193 00c8 1493     		str	r3, [sp, #80]
 1194              	.LVL131:
 617:lvgl/src/widgets/lv_table.c ****     obj->skip_trans = 1;
 1195              		.loc 1 617 5 is_stmt 1 view .LVU391
 617:lvgl/src/widgets/lv_table.c ****     obj->skip_trans = 1;
 1196              		.loc 1 617 16 is_stmt 0 view .LVU392
 1197 00ca 0025     		movs	r5, #0
 1198 00cc 3D84     		strh	r5, [r7, #32]	@ movhi
 618:lvgl/src/widgets/lv_table.c ****     lv_draw_rect_dsc_t rect_dsc_def;
 1199              		.loc 1 618 5 is_stmt 1 view .LVU393
 618:lvgl/src/widgets/lv_table.c ****     lv_draw_rect_dsc_t rect_dsc_def;
 1200              		.loc 1 618 21 is_stmt 0 view .LVU394
 1201 00ce 97F82230 		ldrb	r3, [r7, #34]	@ zero_extendqisi2
 1202 00d2 43F00403 		orr	r3, r3, #4
 1203 00d6 87F82230 		strb	r3, [r7, #34]
 619:lvgl/src/widgets/lv_table.c ****     lv_draw_rect_dsc_t rect_dsc_act; /*Passed to the event to modify it*/
 1204              		.loc 1 619 5 is_stmt 1 view .LVU395
 620:lvgl/src/widgets/lv_table.c ****     lv_draw_rect_dsc_init(&rect_dsc_def);
 1205              		.loc 1 620 5 view .LVU396
 621:lvgl/src/widgets/lv_table.c ****     lv_obj_init_draw_rect_dsc(obj, LV_PART_ITEMS, &rect_dsc_def);
 1206              		.loc 1 621 5 view .LVU397
 1207 00da 4DA8     		add	r0, sp, #308
 1208 00dc FFF7FEFF 		bl	lv_draw_rect_dsc_init
 1209              	.LVL132:
 622:lvgl/src/widgets/lv_table.c **** 
 1210              		.loc 1 622 5 view .LVU398
 1211 00e0 4DA8     		add	r0, sp, #308
ARM GAS  C:\usertemp\ccJd89Xr.s 			page 55


 1212 00e2 0246     		mov	r2, r0
 1213 00e4 4FF4A021 		mov	r1, #327680
 1214 00e8 3846     		mov	r0, r7
 1215 00ea FFF7FEFF 		bl	lv_obj_init_draw_rect_dsc
 1216              	.LVL133:
 624:lvgl/src/widgets/lv_table.c ****     lv_draw_label_dsc_t label_dsc_act;  /*Passed to the event to modify it*/
 1217              		.loc 1 624 5 view .LVU399
 625:lvgl/src/widgets/lv_table.c ****     lv_draw_label_dsc_init(&label_dsc_def);
 1218              		.loc 1 625 5 view .LVU400
 626:lvgl/src/widgets/lv_table.c ****     lv_obj_init_draw_label_dsc(obj, LV_PART_ITEMS, &label_dsc_def);
 1219              		.loc 1 626 5 view .LVU401
 1220 00ee 37A8     		add	r0, sp, #220
 1221 00f0 FFF7FEFF 		bl	lv_draw_label_dsc_init
 1222              	.LVL134:
 627:lvgl/src/widgets/lv_table.c ****     obj->state = state_ori;
 1223              		.loc 1 627 5 view .LVU402
 1224 00f4 37A8     		add	r0, sp, #220
 1225 00f6 0246     		mov	r2, r0
 1226 00f8 4FF4A021 		mov	r1, #327680
 1227 00fc 3846     		mov	r0, r7
 1228 00fe FFF7FEFF 		bl	lv_obj_init_draw_label_dsc
 1229              	.LVL135:
 628:lvgl/src/widgets/lv_table.c ****     obj->skip_trans = 0;
 1230              		.loc 1 628 5 view .LVU403
 628:lvgl/src/widgets/lv_table.c ****     obj->skip_trans = 0;
 1231              		.loc 1 628 16 is_stmt 0 view .LVU404
 1232 0102 149B     		ldr	r3, [sp, #80]
 1233 0104 3B84     		strh	r3, [r7, #32]	@ movhi
 629:lvgl/src/widgets/lv_table.c **** 
 1234              		.loc 1 629 5 is_stmt 1 view .LVU405
 629:lvgl/src/widgets/lv_table.c **** 
 1235              		.loc 1 629 21 is_stmt 0 view .LVU406
 1236 0106 97F82230 		ldrb	r3, [r7, #34]	@ zero_extendqisi2
 1237 010a 65F38203 		bfi	r3, r5, #2, #1
 1238 010e 87F82230 		strb	r3, [r7, #34]
 631:lvgl/src/widgets/lv_table.c ****     uint16_t row;
 1239              		.loc 1 631 5 is_stmt 1 view .LVU407
 632:lvgl/src/widgets/lv_table.c ****     uint16_t cell = 0;
 1240              		.loc 1 632 5 view .LVU408
 633:lvgl/src/widgets/lv_table.c **** 
 1241              		.loc 1 633 5 view .LVU409
 1242              	.LVL136:
 635:lvgl/src/widgets/lv_table.c ****     lv_coord_t scroll_x = lv_obj_get_scroll_x(obj) ;
 1243              		.loc 1 635 5 view .LVU410
 635:lvgl/src/widgets/lv_table.c ****     lv_coord_t scroll_x = lv_obj_get_scroll_x(obj) ;
 1244              		.loc 1 635 31 is_stmt 0 view .LVU411
 1245 0112 FB8A     		ldrh	r3, [r7, #22]
 1246              	.LVL137:
 635:lvgl/src/widgets/lv_table.c ****     lv_coord_t scroll_x = lv_obj_get_scroll_x(obj) ;
 1247              		.loc 1 635 35 view .LVU412
 1248 0114 2344     		add	r3, r3, r4
 1249 0116 9CB2     		uxth	r4, r3
 1250              	.LVL138:
 635:lvgl/src/widgets/lv_table.c ****     lv_coord_t scroll_x = lv_obj_get_scroll_x(obj) ;
 1251              		.loc 1 635 50 view .LVU413
 1252 0118 3846     		mov	r0, r7
 1253 011a FFF7FEFF 		bl	lv_obj_get_scroll_y
ARM GAS  C:\usertemp\ccJd89Xr.s 			page 56


 1254              	.LVL139:
 635:lvgl/src/widgets/lv_table.c ****     lv_coord_t scroll_x = lv_obj_get_scroll_x(obj) ;
 1255              		.loc 1 635 48 discriminator 1 view .LVU414
 1256 011e 231A     		subs	r3, r4, r0
 635:lvgl/src/widgets/lv_table.c ****     lv_coord_t scroll_x = lv_obj_get_scroll_x(obj) ;
 1257              		.loc 1 635 75 discriminator 1 view .LVU415
 1258 0120 1FFA89F9 		uxth	r9, r9
 635:lvgl/src/widgets/lv_table.c ****     lv_coord_t scroll_x = lv_obj_get_scroll_x(obj) ;
 1259              		.loc 1 635 75 discriminator 1 view .LVU416
 1260 0124 19FA83F3 		uxtah	r3, r9, r3
 1261 0128 013B     		subs	r3, r3, #1
 635:lvgl/src/widgets/lv_table.c ****     lv_coord_t scroll_x = lv_obj_get_scroll_x(obj) ;
 1262              		.loc 1 635 18 discriminator 1 view .LVU417
 1263 012a ADF87A31 		strh	r3, [sp, #378]	@ movhi
 636:lvgl/src/widgets/lv_table.c ****     bool rtl = lv_obj_get_style_base_dir(obj, LV_PART_MAIN) == LV_BASE_DIR_RTL ? true : false;
 1264              		.loc 1 636 5 is_stmt 1 view .LVU418
 636:lvgl/src/widgets/lv_table.c ****     bool rtl = lv_obj_get_style_base_dir(obj, LV_PART_MAIN) == LV_BASE_DIR_RTL ? true : false;
 1265              		.loc 1 636 27 is_stmt 0 view .LVU419
 1266 012e 3846     		mov	r0, r7
 1267 0130 FFF7FEFF 		bl	lv_obj_get_scroll_x
 1268              	.LVL140:
 1269 0134 8246     		mov	r10, r0
 1270              	.LVL141:
 637:lvgl/src/widgets/lv_table.c **** 
 1271              		.loc 1 637 5 is_stmt 1 view .LVU420
 1272              	.LBB142:
 1273              	.LBI142:
 542:lvgl/src/widgets/../core/lv_obj_style_gen.h **** {
 1274              		.loc 3 542 29 view .LVU421
 1275              	.LBB143:
 544:lvgl/src/widgets/../core/lv_obj_style_gen.h ****     return (lv_base_dir_t)v.num;
 1276              		.loc 3 544 5 view .LVU422
 544:lvgl/src/widgets/../core/lv_obj_style_gen.h ****     return (lv_base_dir_t)v.num;
 1277              		.loc 3 544 26 is_stmt 0 view .LVU423
 1278 0136 41F26A42 		movw	r2, #5226
 1279 013a 2946     		mov	r1, r5
 1280 013c 3846     		mov	r0, r7
 1281 013e FFF7FEFF 		bl	lv_obj_get_style_prop
 1282              	.LVL142:
 1283              		.loc 3 545 5 is_stmt 1 view .LVU424
 1284              		.loc 3 545 12 is_stmt 0 view .LVU425
 1285 0142 5FFA80FB 		uxtb	fp, r0
 1286              	.LVL143:
 1287              		.loc 3 545 12 view .LVU426
 1288              	.LBE143:
 1289              	.LBE142:
 640:lvgl/src/widgets/lv_table.c ****     lv_obj_draw_dsc_init(&part_draw_dsc, draw_ctx);
 1290              		.loc 1 640 5 is_stmt 1 view .LVU427
 641:lvgl/src/widgets/lv_table.c ****     part_draw_dsc.part = LV_PART_ITEMS;
 1291              		.loc 1 641 5 view .LVU428
 1292 0146 0899     		ldr	r1, [sp, #32]
 1293 0148 1DA8     		add	r0, sp, #116
 1294 014a FFF7FEFF 		bl	lv_obj_draw_dsc_init
 1295              	.LVL144:
 642:lvgl/src/widgets/lv_table.c ****     part_draw_dsc.class_p = MY_CLASS;
 1296              		.loc 1 642 5 view .LVU429
 642:lvgl/src/widgets/lv_table.c ****     part_draw_dsc.class_p = MY_CLASS;
ARM GAS  C:\usertemp\ccJd89Xr.s 			page 57


 1297              		.loc 1 642 24 is_stmt 0 view .LVU430
 1298 014e 4FF4A023 		mov	r3, #327680
 1299 0152 2A93     		str	r3, [sp, #168]
 643:lvgl/src/widgets/lv_table.c ****     part_draw_dsc.type = LV_TABLE_DRAW_PART_CELL;
 1300              		.loc 1 643 5 is_stmt 1 view .LVU431
 643:lvgl/src/widgets/lv_table.c ****     part_draw_dsc.type = LV_TABLE_DRAW_PART_CELL;
 1301              		.loc 1 643 27 is_stmt 0 view .LVU432
 1302 0154 BE4B     		ldr	r3, .L90
 1303 0156 1E93     		str	r3, [sp, #120]
 644:lvgl/src/widgets/lv_table.c ****     part_draw_dsc.rect_dsc = &rect_dsc_act;
 1304              		.loc 1 644 5 is_stmt 1 view .LVU433
 644:lvgl/src/widgets/lv_table.c ****     part_draw_dsc.rect_dsc = &rect_dsc_act;
 1305              		.loc 1 644 24 is_stmt 0 view .LVU434
 1306 0158 1F95     		str	r5, [sp, #124]
 645:lvgl/src/widgets/lv_table.c ****     part_draw_dsc.label_dsc = &label_dsc_act;
 1307              		.loc 1 645 5 is_stmt 1 view .LVU435
 645:lvgl/src/widgets/lv_table.c ****     part_draw_dsc.label_dsc = &label_dsc_act;
 1308              		.loc 1 645 28 is_stmt 0 view .LVU436
 1309 015a 3FAB     		add	r3, sp, #252
 1310 015c 2193     		str	r3, [sp, #132]
 646:lvgl/src/widgets/lv_table.c **** 
 1311              		.loc 1 646 5 is_stmt 1 view .LVU437
 646:lvgl/src/widgets/lv_table.c **** 
 1312              		.loc 1 646 29 is_stmt 0 view .LVU438
 1313 015e 2FAB     		add	r3, sp, #188
 1314 0160 2293     		str	r3, [sp, #136]
 648:lvgl/src/widgets/lv_table.c ****         lv_coord_t h_row = table->row_h[row];
 1315              		.loc 1 648 5 is_stmt 1 view .LVU439
 1316              	.LVL145:
 633:lvgl/src/widgets/lv_table.c **** 
 1317              		.loc 1 633 14 is_stmt 0 view .LVU440
 1318 0162 A846     		mov	r8, r5
 648:lvgl/src/widgets/lv_table.c ****         lv_coord_t h_row = table->row_h[row];
 1319              		.loc 1 648 13 view .LVU441
 1320 0164 0695     		str	r5, [sp, #24]
 1321 0166 CDF84890 		str	r9, [sp, #72]
 1322 016a 1796     		str	r6, [sp, #92]
 1323 016c CDF84CA0 		str	r10, [sp, #76]
 1324 0170 5C46     		mov	r4, fp
 648:lvgl/src/widgets/lv_table.c ****         lv_coord_t h_row = table->row_h[row];
 1325              		.loc 1 648 5 view .LVU442
 1326 0172 DAE1     		b	.L35
 1327              	.LVL146:
 1328              	.L89:
 1329              	.LBB144:
 656:lvgl/src/widgets/lv_table.c ****         else cell_area.x2 = obj->coords.x1 + bg_left - 1 - scroll_x + border_width;
 1330              		.loc 1 656 17 is_stmt 1 discriminator 1 view .LVU443
 656:lvgl/src/widgets/lv_table.c ****         else cell_area.x2 = obj->coords.x1 + bg_left - 1 - scroll_x + border_width;
 1331              		.loc 1 656 43 is_stmt 0 discriminator 1 view .LVU444
 1332 0174 3B8B     		ldrh	r3, [r7, #24]
 656:lvgl/src/widgets/lv_table.c ****         else cell_area.x2 = obj->coords.x1 + bg_left - 1 - scroll_x + border_width;
 1333              		.loc 1 656 47 discriminator 1 view .LVU445
 1334 0176 169A     		ldr	r2, [sp, #88]
 1335 0178 9B1A     		subs	r3, r3, r2
 1336 017a 9BB2     		uxth	r3, r3
 656:lvgl/src/widgets/lv_table.c ****         else cell_area.x2 = obj->coords.x1 + bg_left - 1 - scroll_x + border_width;
 1337              		.loc 1 656 62 discriminator 1 view .LVU446
ARM GAS  C:\usertemp\ccJd89Xr.s 			page 58


 1338 017c 139A     		ldr	r2, [sp, #76]
 1339 017e 9B1A     		subs	r3, r3, r2
 1340 0180 9BB2     		uxth	r3, r3
 656:lvgl/src/widgets/lv_table.c ****         else cell_area.x2 = obj->coords.x1 + bg_left - 1 - scroll_x + border_width;
 1341              		.loc 1 656 73 discriminator 1 view .LVU447
 1342 0182 129A     		ldr	r2, [sp, #72]
 1343 0184 9B1A     		subs	r3, r3, r2
 1344 0186 013B     		subs	r3, r3, #1
 656:lvgl/src/widgets/lv_table.c ****         else cell_area.x2 = obj->coords.x1 + bg_left - 1 - scroll_x + border_width;
 1345              		.loc 1 656 30 discriminator 1 view .LVU448
 1346 0188 ADF87431 		strh	r3, [sp, #372]	@ movhi
 1347 018c F5E1     		b	.L38
 1348              	.LVL147:
 1349              	.L73:
 1350              	.LBB145:
 660:lvgl/src/widgets/lv_table.c ****             if(table->cell_data[cell]) ctrl = table->cell_data[cell][0];
 1351              		.loc 1 660 34 view .LVU449
 1352 018e 4FF00009 		mov	r9, #0
 1353 0192 4AE1     		b	.L39
 1354              	.LVL148:
 1355              	.L88:
 664:lvgl/src/widgets/lv_table.c ****                 cell_area.x1 = cell_area.x2 - table->col_w[col] + 1;
 1356              		.loc 1 664 17 is_stmt 1 view .LVU450
 664:lvgl/src/widgets/lv_table.c ****                 cell_area.x1 = cell_area.x2 - table->col_w[col] + 1;
 1357              		.loc 1 664 41 is_stmt 0 view .LVU451
 1358 0194 BDF87421 		ldrh	r2, [sp, #372]
 664:lvgl/src/widgets/lv_table.c ****                 cell_area.x1 = cell_area.x2 - table->col_w[col] + 1;
 1359              		.loc 1 664 45 view .LVU452
 1360 0198 013A     		subs	r2, r2, #1
 1361 019a 93B2     		uxth	r3, r2
 664:lvgl/src/widgets/lv_table.c ****                 cell_area.x1 = cell_area.x2 - table->col_w[col] + 1;
 1362              		.loc 1 664 30 view .LVU453
 1363 019c ADF87821 		strh	r2, [sp, #376]	@ movhi
 665:lvgl/src/widgets/lv_table.c ****             }
 1364              		.loc 1 665 17 is_stmt 1 view .LVU454
 665:lvgl/src/widgets/lv_table.c ****             }
 1365              		.loc 1 665 52 is_stmt 0 view .LVU455
 1366 01a0 3A6B     		ldr	r2, [r7, #48]
 665:lvgl/src/widgets/lv_table.c ****             }
 1367              		.loc 1 665 59 view .LVU456
 1368 01a2 32F81520 		ldrh	r2, [r2, r5, lsl #1]
 665:lvgl/src/widgets/lv_table.c ****             }
 1369              		.loc 1 665 45 view .LVU457
 1370 01a6 9B1A     		subs	r3, r3, r2
 1371 01a8 9BB2     		uxth	r3, r3
 665:lvgl/src/widgets/lv_table.c ****             }
 1372              		.loc 1 665 65 view .LVU458
 1373 01aa 0133     		adds	r3, r3, #1
 665:lvgl/src/widgets/lv_table.c ****             }
 1374              		.loc 1 665 30 view .LVU459
 1375 01ac ADF87431 		strh	r3, [sp, #372]	@ movhi
 1376 01b0 4CE1     		b	.L41
 1377              	.LVL149:
 1378              	.L77:
 1379              	.LBB146:
 678:lvgl/src/widgets/lv_table.c ****                         else cell_area.x2 += table->col_w[col + col_merge + 1];
 1380              		.loc 1 678 33 is_stmt 1 discriminator 1 view .LVU460
ARM GAS  C:\usertemp\ccJd89Xr.s 			page 59


 678:lvgl/src/widgets/lv_table.c ****                         else cell_area.x2 += table->col_w[col + col_merge + 1];
 1381              		.loc 1 678 42 is_stmt 0 discriminator 1 view .LVU461
 1382 01b2 BDF874C1 		ldrh	ip, [sp, #372]
 678:lvgl/src/widgets/lv_table.c ****                         else cell_area.x2 += table->col_w[col + col_merge + 1];
 1383              		.loc 1 678 54 discriminator 1 view .LVU462
 1384 01b6 3A6B     		ldr	r2, [r7, #48]
 1385              	.LVL150:
 678:lvgl/src/widgets/lv_table.c ****                         else cell_area.x2 += table->col_w[col + col_merge + 1];
 1386              		.loc 1 678 61 discriminator 1 view .LVU463
 1387 01b8 0133     		adds	r3, r3, #1
 1388 01ba 32F81330 		ldrh	r3, [r2, r3, lsl #1]
 678:lvgl/src/widgets/lv_table.c ****                         else cell_area.x2 += table->col_w[col + col_merge + 1];
 1389              		.loc 1 678 46 discriminator 1 view .LVU464
 1390 01be ACEB0303 		sub	r3, ip, r3
 1391 01c2 ADF87431 		strh	r3, [sp, #372]	@ movhi
 1392              	.LVL151:
 1393              	.L44:
 678:lvgl/src/widgets/lv_table.c ****                         else cell_area.x2 += table->col_w[col + col_merge + 1];
 1394              		.loc 1 678 46 discriminator 1 view .LVU465
 1395              	.LBE146:
 673:lvgl/src/widgets/lv_table.c ****                 if(table->cell_data[cell + col_merge]) {
 1396              		.loc 1 673 79 is_stmt 1 discriminator 2 view .LVU466
 1397 01c6 0136     		adds	r6, r6, #1
 1398              	.LVL152:
 673:lvgl/src/widgets/lv_table.c ****                 if(table->cell_data[cell + col_merge]) {
 1399              		.loc 1 673 79 is_stmt 0 discriminator 2 view .LVU467
 1400 01c8 B6B2     		uxth	r6, r6
 1401              	.LVL153:
 1402              	.L45:
 673:lvgl/src/widgets/lv_table.c ****                 if(table->cell_data[cell + col_merge]) {
 1403              		.loc 1 673 48 is_stmt 1 discriminator 1 view .LVU468
 673:lvgl/src/widgets/lv_table.c ****                 if(table->cell_data[cell + col_merge]) {
 1404              		.loc 1 673 42 is_stmt 0 discriminator 1 view .LVU469
 1405 01ca 0595     		str	r5, [sp, #20]
 1406 01cc 7319     		adds	r3, r6, r5
 673:lvgl/src/widgets/lv_table.c ****                 if(table->cell_data[cell + col_merge]) {
 1407              		.loc 1 673 65 discriminator 1 view .LVU470
 1408 01ce 4A1E     		subs	r2, r1, #1
 673:lvgl/src/widgets/lv_table.c ****                 if(table->cell_data[cell + col_merge]) {
 1409              		.loc 1 673 48 discriminator 1 view .LVU471
 1410 01d0 9342     		cmp	r3, r2
 1411 01d2 15DA     		bge	.L42
 674:lvgl/src/widgets/lv_table.c ****                     char * next_cell_data = table->cell_data[cell + col_merge];
 1412              		.loc 1 674 17 is_stmt 1 view .LVU472
 674:lvgl/src/widgets/lv_table.c ****                     char * next_cell_data = table->cell_data[cell + col_merge];
 1413              		.loc 1 674 42 is_stmt 0 view .LVU473
 1414 01d4 08EB0602 		add	r2, r8, r6
 674:lvgl/src/widgets/lv_table.c ****                     char * next_cell_data = table->cell_data[cell + col_merge];
 1415              		.loc 1 674 36 view .LVU474
 1416 01d8 50F82220 		ldr	r2, [r0, r2, lsl #2]
 674:lvgl/src/widgets/lv_table.c ****                     char * next_cell_data = table->cell_data[cell + col_merge];
 1417              		.loc 1 674 19 view .LVU475
 1418 01dc 82B1     		cbz	r2, .L42
 1419              	.LBB147:
 675:lvgl/src/widgets/lv_table.c ****                     if(next_cell_data) ctrl = next_cell_data[0];
 1420              		.loc 1 675 21 is_stmt 1 view .LVU476
 1421              	.LVL154:
ARM GAS  C:\usertemp\ccJd89Xr.s 			page 60


 676:lvgl/src/widgets/lv_table.c ****                     if(ctrl & LV_TABLE_CELL_CTRL_MERGE_RIGHT)
 1422              		.loc 1 676 21 view .LVU477
 676:lvgl/src/widgets/lv_table.c ****                     if(ctrl & LV_TABLE_CELL_CTRL_MERGE_RIGHT)
 1423              		.loc 1 676 40 discriminator 1 view .LVU478
 676:lvgl/src/widgets/lv_table.c ****                     if(ctrl & LV_TABLE_CELL_CTRL_MERGE_RIGHT)
 1424              		.loc 1 676 45 is_stmt 0 discriminator 1 view .LVU479
 1425 01de 92F80090 		ldrb	r9, [r2]	@ zero_extendqisi2
 1426              	.LVL155:
 677:lvgl/src/widgets/lv_table.c ****                         if(rtl) cell_area.x1 -= table->col_w[col + col_merge + 1];
 1427              		.loc 1 677 21 is_stmt 1 view .LVU480
 677:lvgl/src/widgets/lv_table.c ****                         if(rtl) cell_area.x1 -= table->col_w[col + col_merge + 1];
 1428              		.loc 1 677 23 is_stmt 0 view .LVU481
 1429 01e2 19F0010F 		tst	r9, #1
 1430 01e6 0BD0     		beq	.L42
 678:lvgl/src/widgets/lv_table.c ****                         else cell_area.x2 += table->col_w[col + col_merge + 1];
 1431              		.loc 1 678 25 is_stmt 1 view .LVU482
 678:lvgl/src/widgets/lv_table.c ****                         else cell_area.x2 += table->col_w[col + col_merge + 1];
 1432              		.loc 1 678 27 is_stmt 0 view .LVU483
 1433 01e8 012C     		cmp	r4, #1
 1434 01ea E2D0     		beq	.L77
 679:lvgl/src/widgets/lv_table.c ****                     else {
 1435              		.loc 1 679 30 is_stmt 1 view .LVU484
 679:lvgl/src/widgets/lv_table.c ****                     else {
 1436              		.loc 1 679 39 is_stmt 0 view .LVU485
 1437 01ec BDF878C1 		ldrh	ip, [sp, #376]
 679:lvgl/src/widgets/lv_table.c ****                     else {
 1438              		.loc 1 679 51 view .LVU486
 1439 01f0 3A6B     		ldr	r2, [r7, #48]
 1440              	.LVL156:
 679:lvgl/src/widgets/lv_table.c ****                     else {
 1441              		.loc 1 679 58 view .LVU487
 1442 01f2 0133     		adds	r3, r3, #1
 1443 01f4 32F81330 		ldrh	r3, [r2, r3, lsl #1]
 679:lvgl/src/widgets/lv_table.c ****                     else {
 1444              		.loc 1 679 43 view .LVU488
 1445 01f8 6344     		add	r3, r3, ip
 1446 01fa ADF87831 		strh	r3, [sp, #376]	@ movhi
 1447              	.LVL157:
 679:lvgl/src/widgets/lv_table.c ****                     else {
 1448              		.loc 1 679 43 view .LVU489
 1449 01fe E2E7     		b	.L44
 1450              	.LVL158:
 1451              	.L42:
 679:lvgl/src/widgets/lv_table.c ****                     else {
 1452              		.loc 1 679 43 view .LVU490
 1453              	.LBE147:
 689:lvgl/src/widgets/lv_table.c ****                 cell += col_merge + 1;
 1454              		.loc 1 689 13 is_stmt 1 view .LVU491
 689:lvgl/src/widgets/lv_table.c ****                 cell += col_merge + 1;
 1455              		.loc 1 689 25 is_stmt 0 view .LVU492
 1456 0200 BDF97A31 		ldrsh	r3, [sp, #378]
 689:lvgl/src/widgets/lv_table.c ****                 cell += col_merge + 1;
 1457              		.loc 1 689 40 view .LVU493
 1458 0204 BDF98221 		ldrsh	r2, [sp, #386]
 689:lvgl/src/widgets/lv_table.c ****                 cell += col_merge + 1;
 1459              		.loc 1 689 15 view .LVU494
 1460 0208 9342     		cmp	r3, r2
ARM GAS  C:\usertemp\ccJd89Xr.s 			page 61


 1461 020a C0F22381 		blt	.L78
 696:lvgl/src/widgets/lv_table.c ****             lv_area_copy(&cell_area_border, &cell_area);
 1462              		.loc 1 696 13 is_stmt 1 view .LVU495
 697:lvgl/src/widgets/lv_table.c ****             if((rect_dsc_def.border_side & LV_BORDER_SIDE_LEFT) && cell_area_border.x1 > obj->coord
 1463              		.loc 1 697 13 view .LVU496
 1464              	.LVL159:
 1465              	.LBB148:
 1466              	.LBI148:
 1467              		.file 4 "lvgl/src/widgets/../core/../misc/../font/../misc/lv_area.h"
   1:lvgl/src/widgets/../core/../misc/../font/../misc/lv_area.h **** /**
   2:lvgl/src/widgets/../core/../misc/../font/../misc/lv_area.h ****  * @file lv_area.h
   3:lvgl/src/widgets/../core/../misc/../font/../misc/lv_area.h ****  *
   4:lvgl/src/widgets/../core/../misc/../font/../misc/lv_area.h ****  */
   5:lvgl/src/widgets/../core/../misc/../font/../misc/lv_area.h **** 
   6:lvgl/src/widgets/../core/../misc/../font/../misc/lv_area.h **** #ifndef LV_AREA_H
   7:lvgl/src/widgets/../core/../misc/../font/../misc/lv_area.h **** #define LV_AREA_H
   8:lvgl/src/widgets/../core/../misc/../font/../misc/lv_area.h **** 
   9:lvgl/src/widgets/../core/../misc/../font/../misc/lv_area.h **** #ifdef __cplusplus
  10:lvgl/src/widgets/../core/../misc/../font/../misc/lv_area.h **** extern "C" {
  11:lvgl/src/widgets/../core/../misc/../font/../misc/lv_area.h **** #endif
  12:lvgl/src/widgets/../core/../misc/../font/../misc/lv_area.h **** 
  13:lvgl/src/widgets/../core/../misc/../font/../misc/lv_area.h **** /*********************
  14:lvgl/src/widgets/../core/../misc/../font/../misc/lv_area.h ****  *      INCLUDES
  15:lvgl/src/widgets/../core/../misc/../font/../misc/lv_area.h ****  *********************/
  16:lvgl/src/widgets/../core/../misc/../font/../misc/lv_area.h **** #include "../lv_conf_internal.h"
  17:lvgl/src/widgets/../core/../misc/../font/../misc/lv_area.h **** #include <stdbool.h>
  18:lvgl/src/widgets/../core/../misc/../font/../misc/lv_area.h **** #include <stdint.h>
  19:lvgl/src/widgets/../core/../misc/../font/../misc/lv_area.h **** 
  20:lvgl/src/widgets/../core/../misc/../font/../misc/lv_area.h **** /*********************
  21:lvgl/src/widgets/../core/../misc/../font/../misc/lv_area.h ****  *      DEFINES
  22:lvgl/src/widgets/../core/../misc/../font/../misc/lv_area.h ****  *********************/
  23:lvgl/src/widgets/../core/../misc/../font/../misc/lv_area.h **** 
  24:lvgl/src/widgets/../core/../misc/../font/../misc/lv_area.h **** #if LV_USE_LARGE_COORD
  25:lvgl/src/widgets/../core/../misc/../font/../misc/lv_area.h **** typedef int32_t lv_coord_t;
  26:lvgl/src/widgets/../core/../misc/../font/../misc/lv_area.h **** #else
  27:lvgl/src/widgets/../core/../misc/../font/../misc/lv_area.h **** typedef int16_t lv_coord_t;
  28:lvgl/src/widgets/../core/../misc/../font/../misc/lv_area.h **** #endif
  29:lvgl/src/widgets/../core/../misc/../font/../misc/lv_area.h **** 
  30:lvgl/src/widgets/../core/../misc/../font/../misc/lv_area.h **** /**********************
  31:lvgl/src/widgets/../core/../misc/../font/../misc/lv_area.h ****  *      TYPEDEFS
  32:lvgl/src/widgets/../core/../misc/../font/../misc/lv_area.h ****  **********************/
  33:lvgl/src/widgets/../core/../misc/../font/../misc/lv_area.h **** 
  34:lvgl/src/widgets/../core/../misc/../font/../misc/lv_area.h **** /**
  35:lvgl/src/widgets/../core/../misc/../font/../misc/lv_area.h ****  * Represents a point on the screen.
  36:lvgl/src/widgets/../core/../misc/../font/../misc/lv_area.h ****  */
  37:lvgl/src/widgets/../core/../misc/../font/../misc/lv_area.h **** typedef struct {
  38:lvgl/src/widgets/../core/../misc/../font/../misc/lv_area.h ****     lv_coord_t x;
  39:lvgl/src/widgets/../core/../misc/../font/../misc/lv_area.h ****     lv_coord_t y;
  40:lvgl/src/widgets/../core/../misc/../font/../misc/lv_area.h **** } lv_point_t;
  41:lvgl/src/widgets/../core/../misc/../font/../misc/lv_area.h **** 
  42:lvgl/src/widgets/../core/../misc/../font/../misc/lv_area.h **** /** Represents an area of the screen.*/
  43:lvgl/src/widgets/../core/../misc/../font/../misc/lv_area.h **** typedef struct {
  44:lvgl/src/widgets/../core/../misc/../font/../misc/lv_area.h ****     lv_coord_t x1;
  45:lvgl/src/widgets/../core/../misc/../font/../misc/lv_area.h ****     lv_coord_t y1;
  46:lvgl/src/widgets/../core/../misc/../font/../misc/lv_area.h ****     lv_coord_t x2;
  47:lvgl/src/widgets/../core/../misc/../font/../misc/lv_area.h ****     lv_coord_t y2;
  48:lvgl/src/widgets/../core/../misc/../font/../misc/lv_area.h **** } lv_area_t;
ARM GAS  C:\usertemp\ccJd89Xr.s 			page 62


  49:lvgl/src/widgets/../core/../misc/../font/../misc/lv_area.h **** 
  50:lvgl/src/widgets/../core/../misc/../font/../misc/lv_area.h **** /** Alignments*/
  51:lvgl/src/widgets/../core/../misc/../font/../misc/lv_area.h **** enum {
  52:lvgl/src/widgets/../core/../misc/../font/../misc/lv_area.h ****     LV_ALIGN_DEFAULT = 0,
  53:lvgl/src/widgets/../core/../misc/../font/../misc/lv_area.h ****     LV_ALIGN_TOP_LEFT,
  54:lvgl/src/widgets/../core/../misc/../font/../misc/lv_area.h ****     LV_ALIGN_TOP_MID,
  55:lvgl/src/widgets/../core/../misc/../font/../misc/lv_area.h ****     LV_ALIGN_TOP_RIGHT,
  56:lvgl/src/widgets/../core/../misc/../font/../misc/lv_area.h ****     LV_ALIGN_BOTTOM_LEFT,
  57:lvgl/src/widgets/../core/../misc/../font/../misc/lv_area.h ****     LV_ALIGN_BOTTOM_MID,
  58:lvgl/src/widgets/../core/../misc/../font/../misc/lv_area.h ****     LV_ALIGN_BOTTOM_RIGHT,
  59:lvgl/src/widgets/../core/../misc/../font/../misc/lv_area.h ****     LV_ALIGN_LEFT_MID,
  60:lvgl/src/widgets/../core/../misc/../font/../misc/lv_area.h ****     LV_ALIGN_RIGHT_MID,
  61:lvgl/src/widgets/../core/../misc/../font/../misc/lv_area.h ****     LV_ALIGN_CENTER,
  62:lvgl/src/widgets/../core/../misc/../font/../misc/lv_area.h **** 
  63:lvgl/src/widgets/../core/../misc/../font/../misc/lv_area.h ****     LV_ALIGN_OUT_TOP_LEFT,
  64:lvgl/src/widgets/../core/../misc/../font/../misc/lv_area.h ****     LV_ALIGN_OUT_TOP_MID,
  65:lvgl/src/widgets/../core/../misc/../font/../misc/lv_area.h ****     LV_ALIGN_OUT_TOP_RIGHT,
  66:lvgl/src/widgets/../core/../misc/../font/../misc/lv_area.h ****     LV_ALIGN_OUT_BOTTOM_LEFT,
  67:lvgl/src/widgets/../core/../misc/../font/../misc/lv_area.h ****     LV_ALIGN_OUT_BOTTOM_MID,
  68:lvgl/src/widgets/../core/../misc/../font/../misc/lv_area.h ****     LV_ALIGN_OUT_BOTTOM_RIGHT,
  69:lvgl/src/widgets/../core/../misc/../font/../misc/lv_area.h ****     LV_ALIGN_OUT_LEFT_TOP,
  70:lvgl/src/widgets/../core/../misc/../font/../misc/lv_area.h ****     LV_ALIGN_OUT_LEFT_MID,
  71:lvgl/src/widgets/../core/../misc/../font/../misc/lv_area.h ****     LV_ALIGN_OUT_LEFT_BOTTOM,
  72:lvgl/src/widgets/../core/../misc/../font/../misc/lv_area.h ****     LV_ALIGN_OUT_RIGHT_TOP,
  73:lvgl/src/widgets/../core/../misc/../font/../misc/lv_area.h ****     LV_ALIGN_OUT_RIGHT_MID,
  74:lvgl/src/widgets/../core/../misc/../font/../misc/lv_area.h ****     LV_ALIGN_OUT_RIGHT_BOTTOM,
  75:lvgl/src/widgets/../core/../misc/../font/../misc/lv_area.h **** };
  76:lvgl/src/widgets/../core/../misc/../font/../misc/lv_area.h **** typedef uint8_t lv_align_t;
  77:lvgl/src/widgets/../core/../misc/../font/../misc/lv_area.h **** 
  78:lvgl/src/widgets/../core/../misc/../font/../misc/lv_area.h **** enum {
  79:lvgl/src/widgets/../core/../misc/../font/../misc/lv_area.h ****     LV_DIR_NONE     = 0x00,
  80:lvgl/src/widgets/../core/../misc/../font/../misc/lv_area.h ****     LV_DIR_LEFT     = (1 << 0),
  81:lvgl/src/widgets/../core/../misc/../font/../misc/lv_area.h ****     LV_DIR_RIGHT    = (1 << 1),
  82:lvgl/src/widgets/../core/../misc/../font/../misc/lv_area.h ****     LV_DIR_TOP      = (1 << 2),
  83:lvgl/src/widgets/../core/../misc/../font/../misc/lv_area.h ****     LV_DIR_BOTTOM   = (1 << 3),
  84:lvgl/src/widgets/../core/../misc/../font/../misc/lv_area.h ****     LV_DIR_HOR      = LV_DIR_LEFT | LV_DIR_RIGHT,
  85:lvgl/src/widgets/../core/../misc/../font/../misc/lv_area.h ****     LV_DIR_VER      = LV_DIR_TOP | LV_DIR_BOTTOM,
  86:lvgl/src/widgets/../core/../misc/../font/../misc/lv_area.h ****     LV_DIR_ALL      = LV_DIR_HOR | LV_DIR_VER,
  87:lvgl/src/widgets/../core/../misc/../font/../misc/lv_area.h **** };
  88:lvgl/src/widgets/../core/../misc/../font/../misc/lv_area.h **** 
  89:lvgl/src/widgets/../core/../misc/../font/../misc/lv_area.h **** typedef uint8_t lv_dir_t;
  90:lvgl/src/widgets/../core/../misc/../font/../misc/lv_area.h **** 
  91:lvgl/src/widgets/../core/../misc/../font/../misc/lv_area.h **** /**********************
  92:lvgl/src/widgets/../core/../misc/../font/../misc/lv_area.h ****  * GLOBAL PROTOTYPES
  93:lvgl/src/widgets/../core/../misc/../font/../misc/lv_area.h ****  **********************/
  94:lvgl/src/widgets/../core/../misc/../font/../misc/lv_area.h **** 
  95:lvgl/src/widgets/../core/../misc/../font/../misc/lv_area.h **** /**
  96:lvgl/src/widgets/../core/../misc/../font/../misc/lv_area.h ****  * Initialize an area
  97:lvgl/src/widgets/../core/../misc/../font/../misc/lv_area.h ****  * @param area_p pointer to an area
  98:lvgl/src/widgets/../core/../misc/../font/../misc/lv_area.h ****  * @param x1 left coordinate of the area
  99:lvgl/src/widgets/../core/../misc/../font/../misc/lv_area.h ****  * @param y1 top coordinate of the area
 100:lvgl/src/widgets/../core/../misc/../font/../misc/lv_area.h ****  * @param x2 right coordinate of the area
 101:lvgl/src/widgets/../core/../misc/../font/../misc/lv_area.h ****  * @param y2 bottom coordinate of the area
 102:lvgl/src/widgets/../core/../misc/../font/../misc/lv_area.h ****  */
 103:lvgl/src/widgets/../core/../misc/../font/../misc/lv_area.h **** void lv_area_set(lv_area_t * area_p, lv_coord_t x1, lv_coord_t y1, lv_coord_t x2, lv_coord_t y2);
 104:lvgl/src/widgets/../core/../misc/../font/../misc/lv_area.h **** 
 105:lvgl/src/widgets/../core/../misc/../font/../misc/lv_area.h **** /**
ARM GAS  C:\usertemp\ccJd89Xr.s 			page 63


 106:lvgl/src/widgets/../core/../misc/../font/../misc/lv_area.h ****  * Copy an area
 107:lvgl/src/widgets/../core/../misc/../font/../misc/lv_area.h ****  * @param dest pointer to the destination area
 108:lvgl/src/widgets/../core/../misc/../font/../misc/lv_area.h ****  * @param src pointer to the source area
 109:lvgl/src/widgets/../core/../misc/../font/../misc/lv_area.h ****  */
 110:lvgl/src/widgets/../core/../misc/../font/../misc/lv_area.h **** inline static void lv_area_copy(lv_area_t * dest, const lv_area_t * src)
 1468              		.loc 4 110 20 view .LVU497
 1469              	.LBB149:
 111:lvgl/src/widgets/../core/../misc/../font/../misc/lv_area.h **** {
 112:lvgl/src/widgets/../core/../misc/../font/../misc/lv_area.h ****     dest->x1 = src->x1;
 1470              		.loc 4 112 5 view .LVU498
 1471              		.loc 4 112 19 is_stmt 0 view .LVU499
 1472 020e BDF97401 		ldrsh	r0, [sp, #372]
 1473              		.loc 4 112 14 view .LVU500
 1474 0212 ADF86400 		strh	r0, [sp, #100]	@ movhi
 113:lvgl/src/widgets/../core/../misc/../font/../misc/lv_area.h ****     dest->y1 = src->y1;
 1475              		.loc 4 113 5 is_stmt 1 view .LVU501
 1476              		.loc 4 113 19 is_stmt 0 view .LVU502
 1477 0216 BDF97621 		ldrsh	r2, [sp, #374]
 1478 021a 0792     		str	r2, [sp, #28]
 1479              		.loc 4 113 14 view .LVU503
 1480 021c ADF86620 		strh	r2, [sp, #102]	@ movhi
 114:lvgl/src/widgets/../core/../misc/../font/../misc/lv_area.h ****     dest->x2 = src->x2;
 1481              		.loc 4 114 5 is_stmt 1 view .LVU504
 1482              		.loc 4 114 19 is_stmt 0 view .LVU505
 1483 0220 BDF978C1 		ldrsh	ip, [sp, #376]
 1484              		.loc 4 114 14 view .LVU506
 1485 0224 ADF868C0 		strh	ip, [sp, #104]	@ movhi
 115:lvgl/src/widgets/../core/../misc/../font/../misc/lv_area.h ****     dest->y2 = src->y2;
 1486              		.loc 4 115 5 is_stmt 1 view .LVU507
 1487              		.loc 4 115 14 is_stmt 0 view .LVU508
 1488 0228 ADF86A30 		strh	r3, [sp, #106]	@ movhi
 1489              	.LVL160:
 1490              		.loc 4 115 14 view .LVU509
 1491              	.LBE149:
 1492              	.LBE148:
 698:lvgl/src/widgets/lv_table.c ****                 cell_area_border.x1 -= rect_dsc_def.border_width / 2;
 1493              		.loc 1 698 13 is_stmt 1 view .LVU510
 698:lvgl/src/widgets/lv_table.c ****                 cell_area_border.x1 -= rect_dsc_def.border_width / 2;
 1494              		.loc 1 698 29 is_stmt 0 view .LVU511
 1495 022c 9DF857E1 		ldrb	lr, [sp, #343]	@ zero_extendqisi2
 1496 0230 CEF34402 		ubfx	r2, lr, #1, #5
 698:lvgl/src/widgets/lv_table.c ****                 cell_area_border.x1 -= rect_dsc_def.border_width / 2;
 1497              		.loc 1 698 15 view .LVU512
 1498 0234 1EF0080F 		tst	lr, #8
 1499 0238 11D0     		beq	.L49
 698:lvgl/src/widgets/lv_table.c ****                 cell_area_border.x1 -= rect_dsc_def.border_width / 2;
 1500              		.loc 1 698 101 discriminator 1 view .LVU513
 1501 023a B7F914E0 		ldrsh	lr, [r7, #20]
 698:lvgl/src/widgets/lv_table.c ****                 cell_area_border.x1 -= rect_dsc_def.border_width / 2;
 1502              		.loc 1 698 105 discriminator 1 view .LVU514
 1503 023e 0F99     		ldr	r1, [sp, #60]
 1504 0240 8E44     		add	lr, lr, r1
 698:lvgl/src/widgets/lv_table.c ****                 cell_area_border.x1 -= rect_dsc_def.border_width / 2;
 1505              		.loc 1 698 65 discriminator 1 view .LVU515
 1506 0242 7045     		cmp	r0, lr
 1507 0244 0BDD     		ble	.L49
 699:lvgl/src/widgets/lv_table.c ****             }
ARM GAS  C:\usertemp\ccJd89Xr.s 			page 64


 1508              		.loc 1 699 17 is_stmt 1 view .LVU516
 699:lvgl/src/widgets/lv_table.c ****             }
 1509              		.loc 1 699 33 is_stmt 0 view .LVU517
 1510 0246 80B2     		uxth	r0, r0
 699:lvgl/src/widgets/lv_table.c ****             }
 1511              		.loc 1 699 52 view .LVU518
 1512 0248 BDF954E1 		ldrsh	lr, [sp, #340]
 699:lvgl/src/widgets/lv_table.c ****             }
 1513              		.loc 1 699 37 view .LVU519
 1514 024c F346     		mov	fp, lr
 1515 024e BEF1000F 		cmp	lr, #0
 1516 0252 C0F20981 		blt	.L79
 1517              	.L50:
 1518 0256 A0EB6B00 		sub	r0, r0, fp, asr #1
 1519 025a ADF86400 		strh	r0, [sp, #100]	@ movhi
 1520              	.L49:
 701:lvgl/src/widgets/lv_table.c ****                 cell_area_border.y1 -= rect_dsc_def.border_width / 2;
 1521              		.loc 1 701 13 is_stmt 1 view .LVU520
 701:lvgl/src/widgets/lv_table.c ****                 cell_area_border.y1 -= rect_dsc_def.border_width / 2;
 1522              		.loc 1 701 15 is_stmt 0 view .LVU521
 1523 025e 12F0020F 		tst	r2, #2
 1524 0262 11D0     		beq	.L51
 701:lvgl/src/widgets/lv_table.c ****                 cell_area_border.y1 -= rect_dsc_def.border_width / 2;
 1525              		.loc 1 701 100 discriminator 1 view .LVU522
 1526 0264 B7F91600 		ldrsh	r0, [r7, #22]
 701:lvgl/src/widgets/lv_table.c ****                 cell_area_border.y1 -= rect_dsc_def.border_width / 2;
 1527              		.loc 1 701 104 discriminator 1 view .LVU523
 1528 0268 1199     		ldr	r1, [sp, #68]
 1529 026a 0844     		add	r0, r0, r1
 701:lvgl/src/widgets/lv_table.c ****                 cell_area_border.y1 -= rect_dsc_def.border_width / 2;
 1530              		.loc 1 701 64 discriminator 1 view .LVU524
 1531 026c 0799     		ldr	r1, [sp, #28]
 1532 026e 8142     		cmp	r1, r0
 1533 0270 0ADD     		ble	.L51
 702:lvgl/src/widgets/lv_table.c ****             }
 1534              		.loc 1 702 17 is_stmt 1 view .LVU525
 702:lvgl/src/widgets/lv_table.c ****             }
 1535              		.loc 1 702 33 is_stmt 0 view .LVU526
 1536 0272 89B2     		uxth	r1, r1
 702:lvgl/src/widgets/lv_table.c ****             }
 1537              		.loc 1 702 52 view .LVU527
 1538 0274 BDF95401 		ldrsh	r0, [sp, #340]
 702:lvgl/src/widgets/lv_table.c ****             }
 1539              		.loc 1 702 37 view .LVU528
 1540 0278 8646     		mov	lr, r0
 1541 027a 0028     		cmp	r0, #0
 1542 027c C0F2F780 		blt	.L80
 1543              	.L52:
 1544 0280 A1EB6E01 		sub	r1, r1, lr, asr #1
 1545 0284 ADF86610 		strh	r1, [sp, #102]	@ movhi
 1546              	.L51:
 704:lvgl/src/widgets/lv_table.c ****                 cell_area_border.x2 += rect_dsc_def.border_width / 2 + (rect_dsc_def.border_width &
 1547              		.loc 1 704 13 is_stmt 1 view .LVU529
 704:lvgl/src/widgets/lv_table.c ****                 cell_area_border.x2 += rect_dsc_def.border_width / 2 + (rect_dsc_def.border_width &
 1548              		.loc 1 704 15 is_stmt 0 view .LVU530
 1549 0288 12F0080F 		tst	r2, #8
 1550 028c 16D0     		beq	.L53
ARM GAS  C:\usertemp\ccJd89Xr.s 			page 65


 704:lvgl/src/widgets/lv_table.c ****                 cell_area_border.x2 += rect_dsc_def.border_width / 2 + (rect_dsc_def.border_width &
 1551              		.loc 1 704 102 discriminator 1 view .LVU531
 1552 028e B7F91810 		ldrsh	r1, [r7, #24]
 704:lvgl/src/widgets/lv_table.c ****                 cell_area_border.x2 += rect_dsc_def.border_width / 2 + (rect_dsc_def.border_width &
 1553              		.loc 1 704 106 discriminator 1 view .LVU532
 1554 0292 0E98     		ldr	r0, [sp, #56]
 1555 0294 091A     		subs	r1, r1, r0
 704:lvgl/src/widgets/lv_table.c ****                 cell_area_border.x2 += rect_dsc_def.border_width / 2 + (rect_dsc_def.border_width &
 1556              		.loc 1 704 117 discriminator 1 view .LVU533
 1557 0296 0139     		subs	r1, r1, #1
 704:lvgl/src/widgets/lv_table.c ****                 cell_area_border.x2 += rect_dsc_def.border_width / 2 + (rect_dsc_def.border_width &
 1558              		.loc 1 704 66 discriminator 1 view .LVU534
 1559 0298 8C45     		cmp	ip, r1
 1560 029a 0FDA     		bge	.L53
 705:lvgl/src/widgets/lv_table.c ****             }
 1561              		.loc 1 705 17 is_stmt 1 view .LVU535
 705:lvgl/src/widgets/lv_table.c ****             }
 1562              		.loc 1 705 33 is_stmt 0 view .LVU536
 1563 029c 1FFA8CFC 		uxth	ip, ip
 705:lvgl/src/widgets/lv_table.c ****             }
 1564              		.loc 1 705 52 view .LVU537
 1565 02a0 BDF95401 		ldrsh	r0, [sp, #340]
 705:lvgl/src/widgets/lv_table.c ****             }
 1566              		.loc 1 705 99 view .LVU538
 1567 02a4 00F00101 		and	r1, r0, #1
 705:lvgl/src/widgets/lv_table.c ****             }
 1568              		.loc 1 705 70 view .LVU539
 1569 02a8 8646     		mov	lr, r0
 1570 02aa 0028     		cmp	r0, #0
 1571 02ac C0F2E280 		blt	.L81
 1572              	.L54:
 1573 02b0 01EB6E01 		add	r1, r1, lr, asr #1
 705:lvgl/src/widgets/lv_table.c ****             }
 1574              		.loc 1 705 37 view .LVU540
 1575 02b4 1CFA81F1 		uxtah	r1, ip, r1
 1576 02b8 ADF86810 		strh	r1, [sp, #104]	@ movhi
 1577              	.L53:
 707:lvgl/src/widgets/lv_table.c ****                cell_area_border.y2 < obj->coords.y2 - bg_bottom - 1) {
 1578              		.loc 1 707 13 is_stmt 1 view .LVU541
 707:lvgl/src/widgets/lv_table.c ****                cell_area_border.y2 < obj->coords.y2 - bg_bottom - 1) {
 1579              		.loc 1 707 15 is_stmt 0 view .LVU542
 1580 02bc 12F0010F 		tst	r2, #1
 1581 02c0 15D0     		beq	.L55
 708:lvgl/src/widgets/lv_table.c ****                 cell_area_border.y2 += rect_dsc_def.border_width / 2 + (rect_dsc_def.border_width &
 1582              		.loc 1 708 49 view .LVU543
 1583 02c2 B7F91A20 		ldrsh	r2, [r7, #26]
 708:lvgl/src/widgets/lv_table.c ****                 cell_area_border.y2 += rect_dsc_def.border_width / 2 + (rect_dsc_def.border_width &
 1584              		.loc 1 708 53 view .LVU544
 1585 02c6 1099     		ldr	r1, [sp, #64]
 1586 02c8 521A     		subs	r2, r2, r1
 708:lvgl/src/widgets/lv_table.c ****                 cell_area_border.y2 += rect_dsc_def.border_width / 2 + (rect_dsc_def.border_width &
 1587              		.loc 1 708 65 view .LVU545
 1588 02ca 013A     		subs	r2, r2, #1
 707:lvgl/src/widgets/lv_table.c ****                cell_area_border.y2 < obj->coords.y2 - bg_bottom - 1) {
 1589              		.loc 1 707 67 discriminator 1 view .LVU546
 1590 02cc 9342     		cmp	r3, r2
 1591 02ce 0EDA     		bge	.L55
ARM GAS  C:\usertemp\ccJd89Xr.s 			page 66


 709:lvgl/src/widgets/lv_table.c ****             }
 1592              		.loc 1 709 17 is_stmt 1 view .LVU547
 709:lvgl/src/widgets/lv_table.c ****             }
 1593              		.loc 1 709 33 is_stmt 0 view .LVU548
 1594 02d0 9BB2     		uxth	r3, r3
 709:lvgl/src/widgets/lv_table.c ****             }
 1595              		.loc 1 709 52 view .LVU549
 1596 02d2 BDF95411 		ldrsh	r1, [sp, #340]
 709:lvgl/src/widgets/lv_table.c ****             }
 1597              		.loc 1 709 99 view .LVU550
 1598 02d6 01F00102 		and	r2, r1, #1
 709:lvgl/src/widgets/lv_table.c ****             }
 1599              		.loc 1 709 70 view .LVU551
 1600 02da 0846     		mov	r0, r1
 1601 02dc 0029     		cmp	r1, #0
 1602 02de C0F2CC80 		blt	.L82
 1603              	.L56:
 1604 02e2 02EB6002 		add	r2, r2, r0, asr #1
 709:lvgl/src/widgets/lv_table.c ****             }
 1605              		.loc 1 709 37 view .LVU552
 1606 02e6 13FA82F3 		uxtah	r3, r3, r2
 1607 02ea ADF86A30 		strh	r3, [sp, #106]	@ movhi
 1608              	.L55:
 712:lvgl/src/widgets/lv_table.c ****             if(row == table->row_act && col == table->col_act) {
 1609              		.loc 1 712 13 is_stmt 1 view .LVU553
 1610              	.LVL161:
 713:lvgl/src/widgets/lv_table.c ****                 if(!(obj->state & LV_STATE_SCROLLED) && (obj->state & LV_STATE_PRESSED)) cell_state
 1611              		.loc 1 713 13 view .LVU554
 713:lvgl/src/widgets/lv_table.c ****                 if(!(obj->state & LV_STATE_SCROLLED) && (obj->state & LV_STATE_PRESSED)) cell_state
 1612              		.loc 1 713 28 is_stmt 0 view .LVU555
 1613 02ee FB8E     		ldrh	r3, [r7, #54]
 713:lvgl/src/widgets/lv_table.c ****                 if(!(obj->state & LV_STATE_SCROLLED) && (obj->state & LV_STATE_PRESSED)) cell_state
 1614              		.loc 1 713 15 view .LVU556
 1615 02f0 069A     		ldr	r2, [sp, #24]
 1616 02f2 9342     		cmp	r3, r2
 1617 02f4 03D1     		bne	.L57
 713:lvgl/src/widgets/lv_table.c ****                 if(!(obj->state & LV_STATE_SCROLLED) && (obj->state & LV_STATE_PRESSED)) cell_state
 1618              		.loc 1 713 53 discriminator 1 view .LVU557
 1619 02f6 BB8E     		ldrh	r3, [r7, #52]
 713:lvgl/src/widgets/lv_table.c ****                 if(!(obj->state & LV_STATE_SCROLLED) && (obj->state & LV_STATE_PRESSED)) cell_state
 1620              		.loc 1 713 38 discriminator 1 view .LVU558
 1621 02f8 AB42     		cmp	r3, r5
 1622 02fa 00F0C080 		beq	.L83
 1623              	.LVL162:
 1624              	.L57:
 722:lvgl/src/widgets/lv_table.c ****                 lv_memcpy(&label_dsc_act, &label_dsc_def, sizeof(lv_draw_label_dsc_t));
 1625              		.loc 1 722 17 is_stmt 1 view .LVU559
 1626 02fe 3822     		movs	r2, #56
 1627 0300 4DA9     		add	r1, sp, #308
 1628 0302 3FA8     		add	r0, sp, #252
 1629 0304 FFF7FEFF 		bl	lv_memcpy
 1630              	.LVL163:
 723:lvgl/src/widgets/lv_table.c ****             }
 1631              		.loc 1 723 17 view .LVU560
 1632 0308 2022     		movs	r2, #32
 1633 030a 37A9     		add	r1, sp, #220
 1634 030c 2FA8     		add	r0, sp, #188
ARM GAS  C:\usertemp\ccJd89Xr.s 			page 67


 1635 030e FFF7FEFF 		bl	lv_memcpy
 1636              	.LVL164:
 1637              	.L63:
 737:lvgl/src/widgets/lv_table.c ****             part_draw_dsc.id = row * table->col_cnt + col;
 1638              		.loc 1 737 13 view .LVU561
 737:lvgl/src/widgets/lv_table.c ****             part_draw_dsc.id = row * table->col_cnt + col;
 1639              		.loc 1 737 37 is_stmt 0 view .LVU562
 1640 0312 0DF1640B 		add	fp, sp, #100
 1641 0316 CDF880B0 		str	fp, [sp, #128]
 738:lvgl/src/widgets/lv_table.c ****             lv_event_send(obj, LV_EVENT_DRAW_PART_BEGIN, &part_draw_dsc);
 1642              		.loc 1 738 13 is_stmt 1 view .LVU563
 738:lvgl/src/widgets/lv_table.c ****             lv_event_send(obj, LV_EVENT_DRAW_PART_BEGIN, &part_draw_dsc);
 1643              		.loc 1 738 43 is_stmt 0 view .LVU564
 1644 031a BB8C     		ldrh	r3, [r7, #36]
 738:lvgl/src/widgets/lv_table.c ****             lv_event_send(obj, LV_EVENT_DRAW_PART_BEGIN, &part_draw_dsc);
 1645              		.loc 1 738 53 view .LVU565
 1646 031c 059A     		ldr	r2, [sp, #20]
 1647 031e 0699     		ldr	r1, [sp, #24]
 1648 0320 03FB0123 		mla	r3, r3, r1, r2
 738:lvgl/src/widgets/lv_table.c ****             lv_event_send(obj, LV_EVENT_DRAW_PART_BEGIN, &part_draw_dsc);
 1649              		.loc 1 738 30 view .LVU566
 1650 0324 2B93     		str	r3, [sp, #172]
 739:lvgl/src/widgets/lv_table.c **** 
 1651              		.loc 1 739 13 is_stmt 1 view .LVU567
 1652 0326 1DAA     		add	r2, sp, #116
 1653 0328 1A21     		movs	r1, #26
 1654 032a 3846     		mov	r0, r7
 1655 032c FFF7FEFF 		bl	lv_event_send
 1656              	.LVL165:
 741:lvgl/src/widgets/lv_table.c **** 
 1657              		.loc 1 741 13 view .LVU568
 1658 0330 5A46     		mov	r2, fp
 1659 0332 3FA9     		add	r1, sp, #252
 1660 0334 0898     		ldr	r0, [sp, #32]
 1661 0336 FFF7FEFF 		bl	lv_draw_rect
 1662              	.LVL166:
 743:lvgl/src/widgets/lv_table.c ****                 txt_area.x1 = cell_area.x1 + cell_left;
 1663              		.loc 1 743 13 view .LVU569
 743:lvgl/src/widgets/lv_table.c ****                 txt_area.x1 = cell_area.x1 + cell_left;
 1664              		.loc 1 743 21 is_stmt 0 view .LVU570
 1665 033a B96A     		ldr	r1, [r7, #40]
 743:lvgl/src/widgets/lv_table.c ****                 txt_area.x1 = cell_area.x1 + cell_left;
 1666              		.loc 1 743 32 view .LVU571
 1667 033c 51F80A30 		ldr	r3, [r1, r10]
 743:lvgl/src/widgets/lv_table.c ****                 txt_area.x1 = cell_area.x1 + cell_left;
 1668              		.loc 1 743 15 view .LVU572
 1669 0340 002B     		cmp	r3, #0
 1670 0342 54D0     		beq	.L64
 1671              	.LBB150:
 744:lvgl/src/widgets/lv_table.c ****                 txt_area.x2 = cell_area.x2 - cell_right;
 1672              		.loc 1 744 17 is_stmt 1 view .LVU573
 744:lvgl/src/widgets/lv_table.c ****                 txt_area.x2 = cell_area.x2 - cell_right;
 1673              		.loc 1 744 40 is_stmt 0 view .LVU574
 1674 0344 BDF87431 		ldrh	r3, [sp, #372]
 744:lvgl/src/widgets/lv_table.c ****                 txt_area.x2 = cell_area.x2 - cell_right;
 1675              		.loc 1 744 44 view .LVU575
 1676 0348 0C9A     		ldr	r2, [sp, #48]
ARM GAS  C:\usertemp\ccJd89Xr.s 			page 68


 1677 034a 1344     		add	r3, r3, r2
 1678 034c 98B2     		uxth	r0, r3
 744:lvgl/src/widgets/lv_table.c ****                 txt_area.x2 = cell_area.x2 - cell_right;
 1679              		.loc 1 744 29 view .LVU576
 1680 034e ADF86C31 		strh	r3, [sp, #364]	@ movhi
 745:lvgl/src/widgets/lv_table.c ****                 txt_area.y1 = cell_area.y1 + cell_top;
 1681              		.loc 1 745 17 is_stmt 1 view .LVU577
 745:lvgl/src/widgets/lv_table.c ****                 txt_area.y1 = cell_area.y1 + cell_top;
 1682              		.loc 1 745 40 is_stmt 0 view .LVU578
 1683 0352 BDF87821 		ldrh	r2, [sp, #376]
 745:lvgl/src/widgets/lv_table.c ****                 txt_area.y1 = cell_area.y1 + cell_top;
 1684              		.loc 1 745 44 view .LVU579
 1685 0356 0B9B     		ldr	r3, [sp, #44]
 1686 0358 D21A     		subs	r2, r2, r3
 1687 035a 1FFA82FC 		uxth	ip, r2
 745:lvgl/src/widgets/lv_table.c ****                 txt_area.y1 = cell_area.y1 + cell_top;
 1688              		.loc 1 745 29 view .LVU580
 1689 035e ADF87021 		strh	r2, [sp, #368]	@ movhi
 746:lvgl/src/widgets/lv_table.c ****                 txt_area.y2 = cell_area.y2 - cell_bottom;
 1690              		.loc 1 746 17 is_stmt 1 view .LVU581
 746:lvgl/src/widgets/lv_table.c ****                 txt_area.y2 = cell_area.y2 - cell_bottom;
 1691              		.loc 1 746 40 is_stmt 0 view .LVU582
 1692 0362 BDF87621 		ldrh	r2, [sp, #374]
 746:lvgl/src/widgets/lv_table.c ****                 txt_area.y2 = cell_area.y2 - cell_bottom;
 1693              		.loc 1 746 44 view .LVU583
 1694 0366 0A9B     		ldr	r3, [sp, #40]
 1695 0368 1A44     		add	r2, r2, r3
 746:lvgl/src/widgets/lv_table.c ****                 txt_area.y2 = cell_area.y2 - cell_bottom;
 1696              		.loc 1 746 29 view .LVU584
 1697 036a ADF86E21 		strh	r2, [sp, #366]	@ movhi
 747:lvgl/src/widgets/lv_table.c **** 
 1698              		.loc 1 747 17 is_stmt 1 view .LVU585
 747:lvgl/src/widgets/lv_table.c **** 
 1699              		.loc 1 747 40 is_stmt 0 view .LVU586
 1700 036e BDF87A21 		ldrh	r2, [sp, #378]
 747:lvgl/src/widgets/lv_table.c **** 
 1701              		.loc 1 747 44 view .LVU587
 1702 0372 099B     		ldr	r3, [sp, #36]
 1703 0374 D21A     		subs	r2, r2, r3
 747:lvgl/src/widgets/lv_table.c **** 
 1704              		.loc 1 747 29 view .LVU588
 1705 0376 ADF87221 		strh	r2, [sp, #370]	@ movhi
 750:lvgl/src/widgets/lv_table.c ****                 if(crop) txt_flags = LV_TEXT_FLAG_EXPAND;
 1706              		.loc 1 750 17 is_stmt 1 view .LVU589
 1707              	.LVL167:
 751:lvgl/src/widgets/lv_table.c ****                 else txt_flags = LV_TEXT_FLAG_NONE;
 1708              		.loc 1 751 17 view .LVU590
 751:lvgl/src/widgets/lv_table.c ****                 else txt_flags = LV_TEXT_FLAG_NONE;
 1709              		.loc 1 751 19 is_stmt 0 view .LVU591
 1710 037a 19F00209 		ands	r9, r9, #2
 1711              	.LVL168:
 751:lvgl/src/widgets/lv_table.c ****                 else txt_flags = LV_TEXT_FLAG_NONE;
 1712              		.loc 1 751 19 view .LVU592
 1713 037e 00F0B880 		beq	.L74
 751:lvgl/src/widgets/lv_table.c ****                 else txt_flags = LV_TEXT_FLAG_NONE;
 1714              		.loc 1 751 36 discriminator 1 view .LVU593
 1715 0382 0222     		movs	r2, #2
ARM GAS  C:\usertemp\ccJd89Xr.s 			page 69


 1716              	.L65:
 1717              	.LVL169:
 754:lvgl/src/widgets/lv_table.c ****                                 label_dsc_act.letter_space, label_dsc_act.line_space,
 1718              		.loc 1 754 17 is_stmt 1 view .LVU594
 754:lvgl/src/widgets/lv_table.c ****                                 label_dsc_act.letter_space, label_dsc_act.line_space,
 1719              		.loc 1 754 60 is_stmt 0 view .LVU595
 1720 0384 51F80A10 		ldr	r1, [r1, r10]
 1721              	.LVL170:
 1722              	.LBB151:
 1723              	.LBI151:
 116:lvgl/src/widgets/../core/../misc/../font/../misc/lv_area.h **** }
 117:lvgl/src/widgets/../core/../misc/../font/../misc/lv_area.h **** 
 118:lvgl/src/widgets/../core/../misc/../font/../misc/lv_area.h **** /**
 119:lvgl/src/widgets/../core/../misc/../font/../misc/lv_area.h ****  * Get the width of an area
 120:lvgl/src/widgets/../core/../misc/../font/../misc/lv_area.h ****  * @param area_p pointer to an area
 121:lvgl/src/widgets/../core/../misc/../font/../misc/lv_area.h ****  * @return the width of the area (if x1 == x2 -> width = 1)
 122:lvgl/src/widgets/../core/../misc/../font/../misc/lv_area.h ****  */
 123:lvgl/src/widgets/../core/../misc/../font/../misc/lv_area.h **** static inline lv_coord_t lv_area_get_width(const lv_area_t * area_p)
 1724              		.loc 4 123 26 is_stmt 1 view .LVU596
 1725              	.LBB152:
 124:lvgl/src/widgets/../core/../misc/../font/../misc/lv_area.h **** {
 125:lvgl/src/widgets/../core/../misc/../font/../misc/lv_area.h ****     return (lv_coord_t)(area_p->x2 - area_p->x1 + 1);
 1726              		.loc 4 125 5 view .LVU597
 1727              		.loc 4 125 36 is_stmt 0 view .LVU598
 1728 0388 ACEB0003 		sub	r3, ip, r0
 1729 038c 9BB2     		uxth	r3, r3
 1730              		.loc 4 125 49 view .LVU599
 1731 038e 0133     		adds	r3, r3, #1
 1732              		.loc 4 125 12 view .LVU600
 1733 0390 1BB2     		sxth	r3, r3
 1734              	.LVL171:
 1735              		.loc 4 125 12 view .LVU601
 1736              	.LBE152:
 1737              	.LBE151:
 754:lvgl/src/widgets/lv_table.c ****                                 label_dsc_act.letter_space, label_dsc_act.line_space,
 1738              		.loc 1 754 17 discriminator 1 view .LVU602
 1739 0392 0292     		str	r2, [sp, #8]
 1740 0394 0193     		str	r3, [sp, #4]
 1741 0396 BDF9CE30 		ldrsh	r3, [sp, #206]
 1742 039a 0093     		str	r3, [sp]
 1743 039c BDF9D030 		ldrsh	r3, [sp, #208]
 1744 03a0 379A     		ldr	r2, [sp, #220]
 1745              	.LVL172:
 754:lvgl/src/widgets/lv_table.c ****                                 label_dsc_act.letter_space, label_dsc_act.line_space,
 1746              		.loc 1 754 17 discriminator 1 view .LVU603
 1747 03a2 0131     		adds	r1, r1, #1
 1748 03a4 5FA8     		add	r0, sp, #380
 1749 03a6 FFF7FEFF 		bl	lv_txt_get_size
 1750              	.LVL173:
 759:lvgl/src/widgets/lv_table.c ****                     txt_area.y1 = cell_area.y1 + h_row / 2 - txt_size.y / 2;
 1751              		.loc 1 759 17 is_stmt 1 view .LVU604
 759:lvgl/src/widgets/lv_table.c ****                     txt_area.y1 = cell_area.y1 + h_row / 2 - txt_size.y / 2;
 1752              		.loc 1 759 19 is_stmt 0 view .LVU605
 1753 03aa B9F1000F 		cmp	r9, #0
 1754 03ae 16D1     		bne	.L66
 760:lvgl/src/widgets/lv_table.c ****                     txt_area.y2 = cell_area.y1 + h_row / 2 + txt_size.y / 2;
 1755              		.loc 1 760 21 is_stmt 1 view .LVU606
ARM GAS  C:\usertemp\ccJd89Xr.s 			page 70


 760:lvgl/src/widgets/lv_table.c ****                     txt_area.y2 = cell_area.y1 + h_row / 2 + txt_size.y / 2;
 1756              		.loc 1 760 44 is_stmt 0 view .LVU607
 1757 03b0 BDF87631 		ldrh	r3, [sp, #374]
 760:lvgl/src/widgets/lv_table.c ****                     txt_area.y2 = cell_area.y1 + h_row / 2 + txt_size.y / 2;
 1758              		.loc 1 760 48 view .LVU608
 1759 03b4 0D99     		ldr	r1, [sp, #52]
 1760 03b6 0A46     		mov	r2, r1
 1761 03b8 0029     		cmp	r1, #0
 1762 03ba C0F29C80 		blt	.L84
 1763              	.L67:
 1764 03be 03EB6203 		add	r3, r3, r2, asr #1
 1765 03c2 9BB2     		uxth	r3, r3
 760:lvgl/src/widgets/lv_table.c ****                     txt_area.y2 = cell_area.y1 + h_row / 2 + txt_size.y / 2;
 1766              		.loc 1 760 70 view .LVU609
 1767 03c4 BDF97E21 		ldrsh	r2, [sp, #382]
 760:lvgl/src/widgets/lv_table.c ****                     txt_area.y2 = cell_area.y1 + h_row / 2 + txt_size.y / 2;
 1768              		.loc 1 760 60 view .LVU610
 1769 03c8 002A     		cmp	r2, #0
 1770 03ca C0F29680 		blt	.L85
 1771              	.L68:
 1772 03ce C2F34F02 		ubfx	r2, r2, #1, #16
 1773 03d2 991A     		subs	r1, r3, r2
 760:lvgl/src/widgets/lv_table.c ****                     txt_area.y2 = cell_area.y1 + h_row / 2 + txt_size.y / 2;
 1774              		.loc 1 760 33 view .LVU611
 1775 03d4 ADF86E11 		strh	r1, [sp, #366]	@ movhi
 761:lvgl/src/widgets/lv_table.c ****                 }
 1776              		.loc 1 761 21 is_stmt 1 view .LVU612
 761:lvgl/src/widgets/lv_table.c ****                 }
 1777              		.loc 1 761 60 is_stmt 0 view .LVU613
 1778 03d8 1344     		add	r3, r3, r2
 761:lvgl/src/widgets/lv_table.c ****                 }
 1779              		.loc 1 761 33 view .LVU614
 1780 03da ADF87231 		strh	r3, [sp, #370]	@ movhi
 1781              	.L66:
 764:lvgl/src/widgets/lv_table.c ****                 bool label_mask_ok;
 1782              		.loc 1 764 17 is_stmt 1 view .LVU615
 765:lvgl/src/widgets/lv_table.c ****                 label_mask_ok = _lv_area_intersect(&label_clip_area, &clip_area, &cell_area);
 1783              		.loc 1 765 17 view .LVU616
 766:lvgl/src/widgets/lv_table.c ****                 if(label_mask_ok) {
 1784              		.loc 1 766 17 view .LVU617
 766:lvgl/src/widgets/lv_table.c ****                 if(label_mask_ok) {
 1785              		.loc 1 766 33 is_stmt 0 view .LVU618
 1786 03de 5DAA     		add	r2, sp, #372
 1787 03e0 60A9     		add	r1, sp, #384
 1788 03e2 1BA8     		add	r0, sp, #108
 1789 03e4 FFF7FEFF 		bl	_lv_area_intersect
 1790              	.LVL174:
 767:lvgl/src/widgets/lv_table.c ****                     draw_ctx->clip_area = &label_clip_area;
 1791              		.loc 1 767 17 is_stmt 1 view .LVU619
 767:lvgl/src/widgets/lv_table.c ****                     draw_ctx->clip_area = &label_clip_area;
 1792              		.loc 1 767 19 is_stmt 0 view .LVU620
 1793 03e8 0028     		cmp	r0, #0
 1794 03ea 40F08880 		bne	.L86
 1795              	.LVL175:
 1796              	.L64:
 767:lvgl/src/widgets/lv_table.c ****                     draw_ctx->clip_area = &label_clip_area;
 1797              		.loc 1 767 19 view .LVU621
ARM GAS  C:\usertemp\ccJd89Xr.s 			page 71


 1798              	.LBE150:
 774:lvgl/src/widgets/lv_table.c **** 
 1799              		.loc 1 774 13 is_stmt 1 view .LVU622
 1800 03ee 1DAA     		add	r2, sp, #116
 1801 03f0 1B21     		movs	r1, #27
 1802 03f2 3846     		mov	r0, r7
 1803 03f4 FFF7FEFF 		bl	lv_event_send
 1804              	.LVL176:
 776:lvgl/src/widgets/lv_table.c ****             col += col_merge;
 1805              		.loc 1 776 13 view .LVU623
 776:lvgl/src/widgets/lv_table.c ****             col += col_merge;
 1806              		.loc 1 776 18 is_stmt 0 view .LVU624
 1807 03f8 B044     		add	r8, r8, r6
 1808              	.LVL177:
 776:lvgl/src/widgets/lv_table.c ****             col += col_merge;
 1809              		.loc 1 776 18 view .LVU625
 1810 03fa 1FFA88F8 		uxth	r8, r8
 1811 03fe 08F10108 		add	r8, r8, #1
 1812 0402 1FFA88F8 		uxth	r8, r8
 1813              	.LVL178:
 777:lvgl/src/widgets/lv_table.c ****         }
 1814              		.loc 1 777 13 is_stmt 1 view .LVU626
 777:lvgl/src/widgets/lv_table.c ****         }
 1815              		.loc 1 777 17 is_stmt 0 view .LVU627
 1816 0406 2E44     		add	r6, r6, r5
 1817              	.LVL179:
 777:lvgl/src/widgets/lv_table.c ****         }
 1818              		.loc 1 777 17 view .LVU628
 1819 0408 B6B2     		uxth	r6, r6
 1820              	.LVL180:
 1821              	.L48:
 777:lvgl/src/widgets/lv_table.c ****         }
 1822              		.loc 1 777 17 view .LVU629
 1823              	.LBE145:
 659:lvgl/src/widgets/lv_table.c ****             lv_table_cell_ctrl_t ctrl = 0;
 1824              		.loc 1 659 47 is_stmt 1 discriminator 2 view .LVU630
 1825 040a 0136     		adds	r6, r6, #1
 1826              	.LVL181:
 659:lvgl/src/widgets/lv_table.c ****             lv_table_cell_ctrl_t ctrl = 0;
 1827              		.loc 1 659 47 is_stmt 0 discriminator 2 view .LVU631
 1828 040c B5B2     		uxth	r5, r6
 1829              	.LVL182:
 1830              	.L70:
 659:lvgl/src/widgets/lv_table.c ****             lv_table_cell_ctrl_t ctrl = 0;
 1831              		.loc 1 659 26 is_stmt 1 discriminator 1 view .LVU632
 659:lvgl/src/widgets/lv_table.c ****             lv_table_cell_ctrl_t ctrl = 0;
 1832              		.loc 1 659 33 is_stmt 0 discriminator 1 view .LVU633
 1833 040e B98C     		ldrh	r1, [r7, #36]
 659:lvgl/src/widgets/lv_table.c ****             lv_table_cell_ctrl_t ctrl = 0;
 1834              		.loc 1 659 26 discriminator 1 view .LVU634
 1835 0410 A942     		cmp	r1, r5
 1836 0412 40F28680 		bls	.L87
 1837              	.LBB155:
 660:lvgl/src/widgets/lv_table.c ****             if(table->cell_data[cell]) ctrl = table->cell_data[cell][0];
 1838              		.loc 1 660 13 is_stmt 1 view .LVU635
 1839              	.LVL183:
 661:lvgl/src/widgets/lv_table.c **** 
ARM GAS  C:\usertemp\ccJd89Xr.s 			page 72


 1840              		.loc 1 661 13 view .LVU636
 661:lvgl/src/widgets/lv_table.c **** 
 1841              		.loc 1 661 21 is_stmt 0 view .LVU637
 1842 0416 B86A     		ldr	r0, [r7, #40]
 661:lvgl/src/widgets/lv_table.c **** 
 1843              		.loc 1 661 32 view .LVU638
 1844 0418 4FEA880A 		lsl	r10, r8, #2
 1845 041c 50F82830 		ldr	r3, [r0, r8, lsl #2]
 661:lvgl/src/widgets/lv_table.c **** 
 1846              		.loc 1 661 15 view .LVU639
 1847 0420 002B     		cmp	r3, #0
 1848 0422 3FF4B4AE 		beq	.L73
 661:lvgl/src/widgets/lv_table.c **** 
 1849              		.loc 1 661 40 is_stmt 1 discriminator 1 view .LVU640
 661:lvgl/src/widgets/lv_table.c **** 
 1850              		.loc 1 661 45 is_stmt 0 discriminator 1 view .LVU641
 1851 0426 93F80090 		ldrb	r9, [r3]	@ zero_extendqisi2
 1852              	.LVL184:
 1853              	.L39:
 663:lvgl/src/widgets/lv_table.c ****                 cell_area.x2 = cell_area.x1 - 1;
 1854              		.loc 1 663 13 is_stmt 1 view .LVU642
 663:lvgl/src/widgets/lv_table.c ****                 cell_area.x2 = cell_area.x1 - 1;
 1855              		.loc 1 663 15 is_stmt 0 view .LVU643
 1856 042a 012C     		cmp	r4, #1
 1857 042c 3FF4B2AE 		beq	.L88
 668:lvgl/src/widgets/lv_table.c ****                 cell_area.x2 = cell_area.x1 + table->col_w[col] - 1;
 1858              		.loc 1 668 17 is_stmt 1 view .LVU644
 668:lvgl/src/widgets/lv_table.c ****                 cell_area.x2 = cell_area.x1 + table->col_w[col] - 1;
 1859              		.loc 1 668 41 is_stmt 0 view .LVU645
 1860 0430 BDF87831 		ldrh	r3, [sp, #376]
 668:lvgl/src/widgets/lv_table.c ****                 cell_area.x2 = cell_area.x1 + table->col_w[col] - 1;
 1861              		.loc 1 668 45 view .LVU646
 1862 0434 0133     		adds	r3, r3, #1
 668:lvgl/src/widgets/lv_table.c ****                 cell_area.x2 = cell_area.x1 + table->col_w[col] - 1;
 1863              		.loc 1 668 30 view .LVU647
 1864 0436 ADF87431 		strh	r3, [sp, #372]	@ movhi
 669:lvgl/src/widgets/lv_table.c ****             }
 1865              		.loc 1 669 17 is_stmt 1 view .LVU648
 669:lvgl/src/widgets/lv_table.c ****             }
 1866              		.loc 1 669 52 is_stmt 0 view .LVU649
 1867 043a 3A6B     		ldr	r2, [r7, #48]
 669:lvgl/src/widgets/lv_table.c ****             }
 1868              		.loc 1 669 59 view .LVU650
 1869 043c 32F81520 		ldrh	r2, [r2, r5, lsl #1]
 669:lvgl/src/widgets/lv_table.c ****             }
 1870              		.loc 1 669 45 view .LVU651
 1871 0440 12FA83F3 		uxtah	r3, r2, r3
 1872 0444 9BB2     		uxth	r3, r3
 669:lvgl/src/widgets/lv_table.c ****             }
 1873              		.loc 1 669 65 view .LVU652
 1874 0446 013B     		subs	r3, r3, #1
 669:lvgl/src/widgets/lv_table.c ****             }
 1875              		.loc 1 669 30 view .LVU653
 1876 0448 ADF87831 		strh	r3, [sp, #376]	@ movhi
 1877              	.L41:
 660:lvgl/src/widgets/lv_table.c ****             if(table->cell_data[cell]) ctrl = table->cell_data[cell][0];
 1878              		.loc 1 660 34 view .LVU654
ARM GAS  C:\usertemp\ccJd89Xr.s 			page 73


 1879 044c 0026     		movs	r6, #0
 1880 044e BCE6     		b	.L45
 1881              	.L91:
 1882              		.align	2
 1883              	.L90:
 1884 0450 00000000 		.word	lv_table_class
 1885              	.LVL185:
 1886              	.L78:
 690:lvgl/src/widgets/lv_table.c ****                 col += col_merge;
 1887              		.loc 1 690 17 is_stmt 1 view .LVU655
 690:lvgl/src/widgets/lv_table.c ****                 col += col_merge;
 1888              		.loc 1 690 22 is_stmt 0 view .LVU656
 1889 0454 B044     		add	r8, r8, r6
 1890              	.LVL186:
 690:lvgl/src/widgets/lv_table.c ****                 col += col_merge;
 1891              		.loc 1 690 22 view .LVU657
 1892 0456 1FFA88F8 		uxth	r8, r8
 1893 045a 08F10108 		add	r8, r8, #1
 1894 045e 1FFA88F8 		uxth	r8, r8
 1895              	.LVL187:
 691:lvgl/src/widgets/lv_table.c ****                 continue;
 1896              		.loc 1 691 17 is_stmt 1 view .LVU658
 691:lvgl/src/widgets/lv_table.c ****                 continue;
 1897              		.loc 1 691 21 is_stmt 0 view .LVU659
 1898 0462 2E44     		add	r6, r6, r5
 1899              	.LVL188:
 691:lvgl/src/widgets/lv_table.c ****                 continue;
 1900              		.loc 1 691 21 view .LVU660
 1901 0464 B6B2     		uxth	r6, r6
 1902              	.LVL189:
 692:lvgl/src/widgets/lv_table.c ****             }
 1903              		.loc 1 692 17 is_stmt 1 view .LVU661
 1904 0466 D0E7     		b	.L48
 1905              	.LVL190:
 1906              	.L79:
 699:lvgl/src/widgets/lv_table.c ****             }
 1907              		.loc 1 699 37 is_stmt 0 view .LVU662
 1908 0468 0EF1010B 		add	fp, lr, #1
 1909 046c F3E6     		b	.L50
 1910              	.L80:
 702:lvgl/src/widgets/lv_table.c ****             }
 1911              		.loc 1 702 37 view .LVU663
 1912 046e 00F1010E 		add	lr, r0, #1
 1913 0472 05E7     		b	.L52
 1914              	.L81:
 705:lvgl/src/widgets/lv_table.c ****             }
 1915              		.loc 1 705 70 view .LVU664
 1916 0474 00F1010E 		add	lr, r0, #1
 1917 0478 1AE7     		b	.L54
 1918              	.L82:
 709:lvgl/src/widgets/lv_table.c ****             }
 1919              		.loc 1 709 70 view .LVU665
 1920 047a 481C     		adds	r0, r1, #1
 1921 047c 31E7     		b	.L56
 1922              	.LVL191:
 1923              	.L83:
 714:lvgl/src/widgets/lv_table.c ****                 if(obj->state & LV_STATE_FOCUSED) cell_state |= LV_STATE_FOCUSED;
ARM GAS  C:\usertemp\ccJd89Xr.s 			page 74


 1924              		.loc 1 714 17 is_stmt 1 view .LVU666
 714:lvgl/src/widgets/lv_table.c ****                 if(obj->state & LV_STATE_FOCUSED) cell_state |= LV_STATE_FOCUSED;
 1925              		.loc 1 714 25 is_stmt 0 view .LVU667
 1926 047e 3A8C     		ldrh	r2, [r7, #32]
 1927 0480 02F06003 		and	r3, r2, #96
 714:lvgl/src/widgets/lv_table.c ****                 if(obj->state & LV_STATE_FOCUSED) cell_state |= LV_STATE_FOCUSED;
 1928              		.loc 1 714 19 view .LVU668
 1929 0484 202B     		cmp	r3, #32
 1930 0486 00D0     		beq	.L58
 712:lvgl/src/widgets/lv_table.c ****             if(row == table->row_act && col == table->col_act) {
 1931              		.loc 1 712 24 view .LVU669
 1932 0488 0023     		movs	r3, #0
 1933              	.L58:
 1934              	.LVL192:
 715:lvgl/src/widgets/lv_table.c ****                 if(obj->state & LV_STATE_FOCUS_KEY) cell_state |= LV_STATE_FOCUS_KEY;
 1935              		.loc 1 715 17 is_stmt 1 view .LVU670
 715:lvgl/src/widgets/lv_table.c ****                 if(obj->state & LV_STATE_FOCUS_KEY) cell_state |= LV_STATE_FOCUS_KEY;
 1936              		.loc 1 715 19 is_stmt 0 view .LVU671
 1937 048a 12F0020F 		tst	r2, #2
 1938 048e 01D0     		beq	.L59
 715:lvgl/src/widgets/lv_table.c ****                 if(obj->state & LV_STATE_FOCUS_KEY) cell_state |= LV_STATE_FOCUS_KEY;
 1939              		.loc 1 715 51 is_stmt 1 discriminator 1 view .LVU672
 715:lvgl/src/widgets/lv_table.c ****                 if(obj->state & LV_STATE_FOCUS_KEY) cell_state |= LV_STATE_FOCUS_KEY;
 1940              		.loc 1 715 62 is_stmt 0 discriminator 1 view .LVU673
 1941 0490 43F00203 		orr	r3, r3, #2
 1942              	.LVL193:
 1943              	.L59:
 716:lvgl/src/widgets/lv_table.c ****                 if(obj->state & LV_STATE_EDITED) cell_state |= LV_STATE_EDITED;
 1944              		.loc 1 716 17 is_stmt 1 view .LVU674
 716:lvgl/src/widgets/lv_table.c ****                 if(obj->state & LV_STATE_EDITED) cell_state |= LV_STATE_EDITED;
 1945              		.loc 1 716 19 is_stmt 0 view .LVU675
 1946 0494 12F0040F 		tst	r2, #4
 1947 0498 01D0     		beq	.L60
 716:lvgl/src/widgets/lv_table.c ****                 if(obj->state & LV_STATE_EDITED) cell_state |= LV_STATE_EDITED;
 1948              		.loc 1 716 53 is_stmt 1 discriminator 1 view .LVU676
 716:lvgl/src/widgets/lv_table.c ****                 if(obj->state & LV_STATE_EDITED) cell_state |= LV_STATE_EDITED;
 1949              		.loc 1 716 64 is_stmt 0 discriminator 1 view .LVU677
 1950 049a 43F00403 		orr	r3, r3, #4
 1951              	.LVL194:
 1952              	.L60:
 717:lvgl/src/widgets/lv_table.c ****             }
 1953              		.loc 1 717 17 is_stmt 1 view .LVU678
 717:lvgl/src/widgets/lv_table.c ****             }
 1954              		.loc 1 717 19 is_stmt 0 view .LVU679
 1955 049e 12F0080F 		tst	r2, #8
 1956 04a2 23D0     		beq	.L61
 717:lvgl/src/widgets/lv_table.c ****             }
 1957              		.loc 1 717 50 is_stmt 1 discriminator 1 view .LVU680
 717:lvgl/src/widgets/lv_table.c ****             }
 1958              		.loc 1 717 61 is_stmt 0 discriminator 1 view .LVU681
 1959 04a4 43F00803 		orr	r3, r3, #8
 1960              	.LVL195:
 721:lvgl/src/widgets/lv_table.c ****                 lv_memcpy(&rect_dsc_act, &rect_dsc_def, sizeof(lv_draw_rect_dsc_t));
 1961              		.loc 1 721 13 is_stmt 1 view .LVU682
 1962              	.L62:
 727:lvgl/src/widgets/lv_table.c ****                 obj->skip_trans = 1;
 1963              		.loc 1 727 17 view .LVU683
ARM GAS  C:\usertemp\ccJd89Xr.s 			page 75


 727:lvgl/src/widgets/lv_table.c ****                 obj->skip_trans = 1;
 1964              		.loc 1 727 28 is_stmt 0 view .LVU684
 1965 04a8 3B84     		strh	r3, [r7, #32]	@ movhi
 728:lvgl/src/widgets/lv_table.c ****                 lv_draw_rect_dsc_init(&rect_dsc_act);
 1966              		.loc 1 728 17 is_stmt 1 view .LVU685
 728:lvgl/src/widgets/lv_table.c ****                 lv_draw_rect_dsc_init(&rect_dsc_act);
 1967              		.loc 1 728 33 is_stmt 0 view .LVU686
 1968 04aa 97F82230 		ldrb	r3, [r7, #34]	@ zero_extendqisi2
 1969              	.LVL196:
 728:lvgl/src/widgets/lv_table.c ****                 lv_draw_rect_dsc_init(&rect_dsc_act);
 1970              		.loc 1 728 33 view .LVU687
 1971 04ae 43F00403 		orr	r3, r3, #4
 1972 04b2 87F82230 		strb	r3, [r7, #34]
 729:lvgl/src/widgets/lv_table.c ****                 lv_draw_label_dsc_init(&label_dsc_act);
 1973              		.loc 1 729 17 is_stmt 1 view .LVU688
 1974 04b6 3FA8     		add	r0, sp, #252
 1975 04b8 FFF7FEFF 		bl	lv_draw_rect_dsc_init
 1976              	.LVL197:
 730:lvgl/src/widgets/lv_table.c ****                 lv_obj_init_draw_rect_dsc(obj, LV_PART_ITEMS, &rect_dsc_act);
 1977              		.loc 1 730 17 view .LVU689
 1978 04bc 2FA8     		add	r0, sp, #188
 1979 04be FFF7FEFF 		bl	lv_draw_label_dsc_init
 1980              	.LVL198:
 731:lvgl/src/widgets/lv_table.c ****                 lv_obj_init_draw_label_dsc(obj, LV_PART_ITEMS, &label_dsc_act);
 1981              		.loc 1 731 17 view .LVU690
 1982 04c2 3FAA     		add	r2, sp, #252
 1983 04c4 4FF4A021 		mov	r1, #327680
 1984 04c8 3846     		mov	r0, r7
 1985 04ca FFF7FEFF 		bl	lv_obj_init_draw_rect_dsc
 1986              	.LVL199:
 732:lvgl/src/widgets/lv_table.c ****                 obj->state = state_ori;
 1987              		.loc 1 732 17 view .LVU691
 1988 04ce 2FAA     		add	r2, sp, #188
 1989 04d0 4FF4A021 		mov	r1, #327680
 1990 04d4 3846     		mov	r0, r7
 1991 04d6 FFF7FEFF 		bl	lv_obj_init_draw_label_dsc
 1992              	.LVL200:
 733:lvgl/src/widgets/lv_table.c ****                 obj->skip_trans = 0;
 1993              		.loc 1 733 17 view .LVU692
 733:lvgl/src/widgets/lv_table.c ****                 obj->skip_trans = 0;
 1994              		.loc 1 733 28 is_stmt 0 view .LVU693
 1995 04da 149B     		ldr	r3, [sp, #80]
 1996 04dc 3B84     		strh	r3, [r7, #32]	@ movhi
 734:lvgl/src/widgets/lv_table.c ****             }
 1997              		.loc 1 734 17 is_stmt 1 view .LVU694
 734:lvgl/src/widgets/lv_table.c ****             }
 1998              		.loc 1 734 33 is_stmt 0 view .LVU695
 1999 04de 97F82230 		ldrb	r3, [r7, #34]	@ zero_extendqisi2
 2000 04e2 23F00403 		bic	r3, r3, #4
 2001 04e6 87F82230 		strb	r3, [r7, #34]
 2002 04ea 12E7     		b	.L63
 2003              	.LVL201:
 2004              	.L61:
 721:lvgl/src/widgets/lv_table.c ****                 lv_memcpy(&rect_dsc_act, &rect_dsc_def, sizeof(lv_draw_rect_dsc_t));
 2005              		.loc 1 721 13 is_stmt 1 view .LVU696
 721:lvgl/src/widgets/lv_table.c ****                 lv_memcpy(&rect_dsc_act, &rect_dsc_def, sizeof(lv_draw_rect_dsc_t));
 2006              		.loc 1 721 15 is_stmt 0 view .LVU697
ARM GAS  C:\usertemp\ccJd89Xr.s 			page 76


 2007 04ec 002B     		cmp	r3, #0
 2008 04ee DBD1     		bne	.L62
 2009 04f0 05E7     		b	.L57
 2010              	.LVL202:
 2011              	.L74:
 2012              	.LBB153:
 752:lvgl/src/widgets/lv_table.c **** 
 2013              		.loc 1 752 32 view .LVU698
 2014 04f2 4A46     		mov	r2, r9
 2015 04f4 46E7     		b	.L65
 2016              	.LVL203:
 2017              	.L84:
 760:lvgl/src/widgets/lv_table.c ****                     txt_area.y2 = cell_area.y1 + h_row / 2 + txt_size.y / 2;
 2018              		.loc 1 760 48 view .LVU699
 2019 04f6 4A1C     		adds	r2, r1, #1
 2020 04f8 61E7     		b	.L67
 2021              	.L85:
 760:lvgl/src/widgets/lv_table.c ****                     txt_area.y2 = cell_area.y1 + h_row / 2 + txt_size.y / 2;
 2022              		.loc 1 760 60 view .LVU700
 2023 04fa 0132     		adds	r2, r2, #1
 2024 04fc 67E7     		b	.L68
 2025              	.LVL204:
 2026              	.L86:
 768:lvgl/src/widgets/lv_table.c ****                     lv_draw_label(draw_ctx, &label_dsc_act, &txt_area, table->cell_data[cell] + 1, 
 2027              		.loc 1 768 21 is_stmt 1 view .LVU701
 768:lvgl/src/widgets/lv_table.c ****                     lv_draw_label(draw_ctx, &label_dsc_act, &txt_area, table->cell_data[cell] + 1, 
 2028              		.loc 1 768 41 is_stmt 0 view .LVU702
 2029 04fe 1BAB     		add	r3, sp, #108
 2030 0500 0898     		ldr	r0, [sp, #32]
 2031              	.LVL205:
 768:lvgl/src/widgets/lv_table.c ****                     lv_draw_label(draw_ctx, &label_dsc_act, &txt_area, table->cell_data[cell] + 1, 
 2032              		.loc 1 768 41 view .LVU703
 2033 0502 8360     		str	r3, [r0, #8]
 769:lvgl/src/widgets/lv_table.c ****                     draw_ctx->clip_area = &clip_area;
 2034              		.loc 1 769 21 is_stmt 1 view .LVU704
 769:lvgl/src/widgets/lv_table.c ****                     draw_ctx->clip_area = &clip_area;
 2035              		.loc 1 769 77 is_stmt 0 view .LVU705
 2036 0504 BB6A     		ldr	r3, [r7, #40]
 769:lvgl/src/widgets/lv_table.c ****                     draw_ctx->clip_area = &clip_area;
 2037              		.loc 1 769 88 view .LVU706
 2038 0506 53F80A30 		ldr	r3, [r3, r10]
 769:lvgl/src/widgets/lv_table.c ****                     draw_ctx->clip_area = &clip_area;
 2039              		.loc 1 769 21 view .LVU707
 2040 050a 0022     		movs	r2, #0
 2041 050c 0092     		str	r2, [sp]
 2042 050e 0133     		adds	r3, r3, #1
 2043 0510 5BAA     		add	r2, sp, #364
 2044 0512 2FA9     		add	r1, sp, #188
 2045 0514 8146     		mov	r9, r0
 2046 0516 FFF7FEFF 		bl	lv_draw_label
 2047              	.LVL206:
 770:lvgl/src/widgets/lv_table.c ****                 }
 2048              		.loc 1 770 21 is_stmt 1 view .LVU708
 770:lvgl/src/widgets/lv_table.c ****                 }
 2049              		.loc 1 770 41 is_stmt 0 view .LVU709
 2050 051a 60AB     		add	r3, sp, #384
 2051 051c C9F80830 		str	r3, [r9, #8]
ARM GAS  C:\usertemp\ccJd89Xr.s 			page 77


 2052 0520 65E7     		b	.L64
 2053              	.LVL207:
 2054              	.L87:
 770:lvgl/src/widgets/lv_table.c ****                 }
 2055              		.loc 1 770 41 view .LVU710
 2056              	.LBE153:
 2057              	.LBE155:
 2058              	.LBE144:
 648:lvgl/src/widgets/lv_table.c ****         lv_coord_t h_row = table->row_h[row];
 2059              		.loc 1 648 43 is_stmt 1 discriminator 2 view .LVU711
 2060 0522 069B     		ldr	r3, [sp, #24]
 2061 0524 0133     		adds	r3, r3, #1
 2062 0526 9BB2     		uxth	r3, r3
 2063 0528 0693     		str	r3, [sp, #24]
 2064              	.LVL208:
 2065              	.L35:
 648:lvgl/src/widgets/lv_table.c ****         lv_coord_t h_row = table->row_h[row];
 2066              		.loc 1 648 22 discriminator 1 view .LVU712
 648:lvgl/src/widgets/lv_table.c ****         lv_coord_t h_row = table->row_h[row];
 2067              		.loc 1 648 29 is_stmt 0 discriminator 1 view .LVU713
 2068 052a FB8C     		ldrh	r3, [r7, #38]
 648:lvgl/src/widgets/lv_table.c ****         lv_coord_t h_row = table->row_h[row];
 2069              		.loc 1 648 22 discriminator 1 view .LVU714
 2070 052c 069A     		ldr	r2, [sp, #24]
 2071 052e 9342     		cmp	r3, r2
 2072 0530 25D9     		bls	.L36
 2073              	.LBB157:
 649:lvgl/src/widgets/lv_table.c **** 
 2074              		.loc 1 649 9 is_stmt 1 view .LVU715
 649:lvgl/src/widgets/lv_table.c **** 
 2075              		.loc 1 649 33 is_stmt 0 view .LVU716
 2076 0532 FB6A     		ldr	r3, [r7, #44]
 649:lvgl/src/widgets/lv_table.c **** 
 2077              		.loc 1 649 20 view .LVU717
 2078 0534 069A     		ldr	r2, [sp, #24]
 2079 0536 33F91210 		ldrsh	r1, [r3, r2, lsl #1]
 2080 053a 0D91     		str	r1, [sp, #52]
 2081              	.LVL209:
 651:lvgl/src/widgets/lv_table.c ****         cell_area.y2 = cell_area.y1 + h_row - 1;
 2082              		.loc 1 651 9 is_stmt 1 view .LVU718
 651:lvgl/src/widgets/lv_table.c ****         cell_area.y2 = cell_area.y1 + h_row - 1;
 2083              		.loc 1 651 33 is_stmt 0 view .LVU719
 2084 053c BDF87A31 		ldrh	r3, [sp, #378]
 651:lvgl/src/widgets/lv_table.c ****         cell_area.y2 = cell_area.y1 + h_row - 1;
 2085              		.loc 1 651 37 view .LVU720
 2086 0540 0133     		adds	r3, r3, #1
 2087 0542 1AB2     		sxth	r2, r3
 651:lvgl/src/widgets/lv_table.c ****         cell_area.y2 = cell_area.y1 + h_row - 1;
 2088              		.loc 1 651 22 view .LVU721
 2089 0544 ADF87621 		strh	r2, [sp, #374]	@ movhi
 652:lvgl/src/widgets/lv_table.c **** 
 2090              		.loc 1 652 9 is_stmt 1 view .LVU722
 652:lvgl/src/widgets/lv_table.c **** 
 2091              		.loc 1 652 37 is_stmt 0 view .LVU723
 2092 0548 11FA83F3 		uxtah	r3, r1, r3
 2093 054c 9BB2     		uxth	r3, r3
 652:lvgl/src/widgets/lv_table.c **** 
ARM GAS  C:\usertemp\ccJd89Xr.s 			page 78


 2094              		.loc 1 652 45 view .LVU724
 2095 054e 013B     		subs	r3, r3, #1
 652:lvgl/src/widgets/lv_table.c **** 
 2096              		.loc 1 652 22 view .LVU725
 2097 0550 ADF87A31 		strh	r3, [sp, #378]	@ movhi
 654:lvgl/src/widgets/lv_table.c **** 
 2098              		.loc 1 654 9 is_stmt 1 view .LVU726
 654:lvgl/src/widgets/lv_table.c **** 
 2099              		.loc 1 654 36 is_stmt 0 view .LVU727
 2100 0554 BDF98631 		ldrsh	r3, [sp, #390]
 654:lvgl/src/widgets/lv_table.c **** 
 2101              		.loc 1 654 11 view .LVU728
 2102 0558 9A42     		cmp	r2, r3
 2103 055a 10DC     		bgt	.L36
 656:lvgl/src/widgets/lv_table.c ****         else cell_area.x2 = obj->coords.x1 + bg_left - 1 - scroll_x + border_width;
 2104              		.loc 1 656 9 is_stmt 1 view .LVU729
 656:lvgl/src/widgets/lv_table.c ****         else cell_area.x2 = obj->coords.x1 + bg_left - 1 - scroll_x + border_width;
 2105              		.loc 1 656 11 is_stmt 0 view .LVU730
 2106 055c 012C     		cmp	r4, #1
 2107 055e 3FF409AE 		beq	.L89
 657:lvgl/src/widgets/lv_table.c **** 
 2108              		.loc 1 657 14 is_stmt 1 view .LVU731
 657:lvgl/src/widgets/lv_table.c **** 
 2109              		.loc 1 657 40 is_stmt 0 view .LVU732
 2110 0562 BB8A     		ldrh	r3, [r7, #20]
 657:lvgl/src/widgets/lv_table.c **** 
 2111              		.loc 1 657 44 view .LVU733
 2112 0564 159A     		ldr	r2, [sp, #84]
 2113 0566 1344     		add	r3, r3, r2
 2114 0568 9BB2     		uxth	r3, r3
 657:lvgl/src/widgets/lv_table.c **** 
 2115              		.loc 1 657 58 view .LVU734
 2116 056a 139A     		ldr	r2, [sp, #76]
 2117 056c 9B1A     		subs	r3, r3, r2
 657:lvgl/src/widgets/lv_table.c **** 
 2118              		.loc 1 657 69 view .LVU735
 2119 056e 129A     		ldr	r2, [sp, #72]
 2120 0570 12FA83F3 		uxtah	r3, r2, r3
 2121 0574 013B     		subs	r3, r3, #1
 657:lvgl/src/widgets/lv_table.c **** 
 2122              		.loc 1 657 27 view .LVU736
 2123 0576 ADF87831 		strh	r3, [sp, #376]	@ movhi
 2124              	.L38:
 2125              	.LBB156:
 2126              	.LBB154:
 752:lvgl/src/widgets/lv_table.c **** 
 2127              		.loc 1 752 32 view .LVU737
 2128 057a 0025     		movs	r5, #0
 2129 057c 47E7     		b	.L70
 2130              	.LVL210:
 2131              	.L36:
 752:lvgl/src/widgets/lv_table.c **** 
 2132              		.loc 1 752 32 view .LVU738
 2133              	.LBE154:
 2134              	.LBE156:
 2135              	.LBE157:
 781:lvgl/src/widgets/lv_table.c **** }
ARM GAS  C:\usertemp\ccJd89Xr.s 			page 79


 2136              		.loc 1 781 25 view .LVU739
 2137 057e 179E     		ldr	r6, [sp, #92]
 781:lvgl/src/widgets/lv_table.c **** }
 2138              		.loc 1 781 5 is_stmt 1 view .LVU740
 781:lvgl/src/widgets/lv_table.c **** }
 2139              		.loc 1 781 25 is_stmt 0 view .LVU741
 2140 0580 089B     		ldr	r3, [sp, #32]
 2141 0582 9E60     		str	r6, [r3, #8]
 2142 0584 4EE5     		b	.L32
 2143              		.cfi_endproc
 2144              	.LFE173:
 2146 0586 00BF     		.section	.text.lv_table_event,"ax",%progbits
 2147              		.align	1
 2148              		.syntax unified
 2149              		.thumb
 2150              		.thumb_func
 2152              	lv_table_event:
 2153              	.LVL211:
 2154              	.LFB172:
 471:lvgl/src/widgets/lv_table.c ****     LV_UNUSED(class_p);
 2155              		.loc 1 471 1 is_stmt 1 view -0
 2156              		.cfi_startproc
 2157              		@ args = 0, pretend = 0, frame = 8
 2158              		@ frame_needed = 0, uses_anonymous_args = 0
 471:lvgl/src/widgets/lv_table.c ****     LV_UNUSED(class_p);
 2159              		.loc 1 471 1 is_stmt 0 view .LVU743
 2160 0000 70B5     		push	{r4, r5, r6, lr}
 2161              	.LCFI14:
 2162              		.cfi_def_cfa_offset 16
 2163              		.cfi_offset 4, -16
 2164              		.cfi_offset 5, -12
 2165              		.cfi_offset 6, -8
 2166              		.cfi_offset 14, -4
 2167 0002 82B0     		sub	sp, sp, #8
 2168              	.LCFI15:
 2169              		.cfi_def_cfa_offset 24
 2170 0004 0C46     		mov	r4, r1
 472:lvgl/src/widgets/lv_table.c **** 
 2171              		.loc 1 472 5 is_stmt 1 view .LVU744
 474:lvgl/src/widgets/lv_table.c **** 
 2172              		.loc 1 474 5 view .LVU745
 477:lvgl/src/widgets/lv_table.c ****     if(res != LV_RES_OK) return;
 2173              		.loc 1 477 5 view .LVU746
 477:lvgl/src/widgets/lv_table.c ****     if(res != LV_RES_OK) return;
 2174              		.loc 1 477 11 is_stmt 0 view .LVU747
 2175 0006 9B48     		ldr	r0, .L135
 2176              	.LVL212:
 477:lvgl/src/widgets/lv_table.c ****     if(res != LV_RES_OK) return;
 2177              		.loc 1 477 11 view .LVU748
 2178 0008 FFF7FEFF 		bl	lv_obj_event_base
 2179              	.LVL213:
 478:lvgl/src/widgets/lv_table.c **** 
 2180              		.loc 1 478 5 is_stmt 1 view .LVU749
 478:lvgl/src/widgets/lv_table.c **** 
 2181              		.loc 1 478 7 is_stmt 0 view .LVU750
 2182 000c 0128     		cmp	r0, #1
 2183 000e 01D0     		beq	.L131
ARM GAS  C:\usertemp\ccJd89Xr.s 			page 80


 2184              	.LVL214:
 2185              	.L92:
 586:lvgl/src/widgets/lv_table.c **** 
 2186              		.loc 1 586 1 view .LVU751
 2187 0010 02B0     		add	sp, sp, #8
 2188              	.LCFI16:
 2189              		.cfi_remember_state
 2190              		.cfi_def_cfa_offset 16
 2191              		@ sp needed
 2192 0012 70BD     		pop	{r4, r5, r6, pc}
 2193              	.LVL215:
 2194              	.L131:
 2195              	.LCFI17:
 2196              		.cfi_restore_state
 480:lvgl/src/widgets/lv_table.c ****     lv_obj_t * obj = lv_event_get_target(e);
 2197              		.loc 1 480 5 is_stmt 1 view .LVU752
 480:lvgl/src/widgets/lv_table.c ****     lv_obj_t * obj = lv_event_get_target(e);
 2198              		.loc 1 480 28 is_stmt 0 view .LVU753
 2199 0014 2046     		mov	r0, r4
 2200              	.LVL216:
 480:lvgl/src/widgets/lv_table.c ****     lv_obj_t * obj = lv_event_get_target(e);
 2201              		.loc 1 480 28 view .LVU754
 2202 0016 FFF7FEFF 		bl	lv_event_get_code
 2203              	.LVL217:
 2204 001a 0646     		mov	r6, r0
 2205              	.LVL218:
 481:lvgl/src/widgets/lv_table.c ****     lv_table_t * table = (lv_table_t *)obj;
 2206              		.loc 1 481 5 is_stmt 1 view .LVU755
 481:lvgl/src/widgets/lv_table.c ****     lv_table_t * table = (lv_table_t *)obj;
 2207              		.loc 1 481 22 is_stmt 0 view .LVU756
 2208 001c 2046     		mov	r0, r4
 2209 001e FFF7FEFF 		bl	lv_event_get_target
 2210              	.LVL219:
 2211 0022 0546     		mov	r5, r0
 2212              	.LVL220:
 482:lvgl/src/widgets/lv_table.c **** 
 2213              		.loc 1 482 5 is_stmt 1 view .LVU757
 484:lvgl/src/widgets/lv_table.c ****         refr_size(obj, 0);
 2214              		.loc 1 484 5 view .LVU758
 2215 0024 701E     		subs	r0, r6, #1
 2216              	.LVL221:
 484:lvgl/src/widgets/lv_table.c ****         refr_size(obj, 0);
 2217              		.loc 1 484 5 is_stmt 0 view .LVU759
 2218 0026 2B28     		cmp	r0, #43
 2219 0028 F2D8     		bhi	.L92
 2220 002a 01A3     		adr	r3, .L95
 2221 002c 53F820F0 		ldr	pc, [r3, r0, lsl #2]
 2222              		.p2align 2
 2223              	.L95:
 2224 0030 2B010000 		.word	.L101+1
 2225 0034 2B010000 		.word	.L101+1
 2226 0038 11000000 		.word	.L92+1
 2227 003c 11000000 		.word	.L92+1
 2228 0040 11000000 		.word	.L92+1
 2229 0044 11000000 		.word	.L92+1
 2230 0048 11000000 		.word	.L92+1
 2231 004c 63010000 		.word	.L100+1
ARM GAS  C:\usertemp\ccJd89Xr.s 			page 81


 2232 0050 11000000 		.word	.L92+1
 2233 0054 11000000 		.word	.L92+1
 2234 0058 11000000 		.word	.L92+1
 2235 005c 11000000 		.word	.L92+1
 2236 0060 B9010000 		.word	.L99+1
 2237 0064 B1010000 		.word	.L98+1
 2238 0068 11000000 		.word	.L92+1
 2239 006c 11000000 		.word	.L92+1
 2240 0070 11000000 		.word	.L92+1
 2241 0074 11000000 		.word	.L92+1
 2242 0078 11000000 		.word	.L92+1
 2243 007c 11000000 		.word	.L92+1
 2244 0080 6D020000 		.word	.L97+1
 2245 0084 11000000 		.word	.L92+1
 2246 0088 11000000 		.word	.L92+1
 2247 008c 11000000 		.word	.L92+1
 2248 0090 11000000 		.word	.L92+1
 2249 0094 11000000 		.word	.L92+1
 2250 0098 11000000 		.word	.L92+1
 2251 009c 11000000 		.word	.L92+1
 2252 00a0 11000000 		.word	.L92+1
 2253 00a4 11000000 		.word	.L92+1
 2254 00a8 11000000 		.word	.L92+1
 2255 00ac 11000000 		.word	.L92+1
 2256 00b0 11000000 		.word	.L92+1
 2257 00b4 11000000 		.word	.L92+1
 2258 00b8 11000000 		.word	.L92+1
 2259 00bc 11000000 		.word	.L92+1
 2260 00c0 11000000 		.word	.L92+1
 2261 00c4 11000000 		.word	.L92+1
 2262 00c8 11000000 		.word	.L92+1
 2263 00cc 11000000 		.word	.L92+1
 2264 00d0 11000000 		.word	.L92+1
 2265 00d4 E1000000 		.word	.L96+1
 2266 00d8 11000000 		.word	.L92+1
 2267 00dc EB000000 		.word	.L94+1
 2268              		.p2align 1
 2269              	.L96:
 485:lvgl/src/widgets/lv_table.c ****     }
 2270              		.loc 1 485 9 is_stmt 1 view .LVU760
 2271 00e0 0021     		movs	r1, #0
 2272 00e2 2846     		mov	r0, r5
 2273 00e4 FFF7FEFF 		bl	refr_size
 2274              	.LVL222:
 2275 00e8 92E7     		b	.L92
 2276              	.L94:
 2277              	.LBB158:
 488:lvgl/src/widgets/lv_table.c ****         uint32_t i;
 2278              		.loc 1 488 9 view .LVU761
 488:lvgl/src/widgets/lv_table.c ****         uint32_t i;
 2279              		.loc 1 488 26 is_stmt 0 view .LVU762
 2280 00ea 2046     		mov	r0, r4
 2281 00ec FFF7FEFF 		bl	lv_event_get_param
 2282              	.LVL223:
 489:lvgl/src/widgets/lv_table.c ****         lv_coord_t w = 0;
 2283              		.loc 1 489 9 is_stmt 1 view .LVU763
 490:lvgl/src/widgets/lv_table.c ****         for(i = 0; i < table->col_cnt; i++) w += table->col_w[i];
ARM GAS  C:\usertemp\ccJd89Xr.s 			page 82


 2284              		.loc 1 490 9 view .LVU764
 491:lvgl/src/widgets/lv_table.c **** 
 2285              		.loc 1 491 9 view .LVU765
 490:lvgl/src/widgets/lv_table.c ****         for(i = 0; i < table->col_cnt; i++) w += table->col_w[i];
 2286              		.loc 1 490 20 is_stmt 0 view .LVU766
 2287 00f0 0022     		movs	r2, #0
 491:lvgl/src/widgets/lv_table.c **** 
 2288              		.loc 1 491 15 view .LVU767
 2289 00f2 1346     		mov	r3, r2
 491:lvgl/src/widgets/lv_table.c **** 
 2290              		.loc 1 491 9 view .LVU768
 2291 00f4 05E0     		b	.L102
 2292              	.LVL224:
 2293              	.L103:
 491:lvgl/src/widgets/lv_table.c **** 
 2294              		.loc 1 491 45 is_stmt 1 discriminator 3 view .LVU769
 491:lvgl/src/widgets/lv_table.c **** 
 2295              		.loc 1 491 55 is_stmt 0 discriminator 3 view .LVU770
 2296 00f6 296B     		ldr	r1, [r5, #48]
 491:lvgl/src/widgets/lv_table.c **** 
 2297              		.loc 1 491 62 discriminator 3 view .LVU771
 2298 00f8 31F81310 		ldrh	r1, [r1, r3, lsl #1]
 491:lvgl/src/widgets/lv_table.c **** 
 2299              		.loc 1 491 47 discriminator 3 view .LVU772
 2300 00fc 0A44     		add	r2, r2, r1
 2301              	.LVL225:
 491:lvgl/src/widgets/lv_table.c **** 
 2302              		.loc 1 491 47 discriminator 3 view .LVU773
 2303 00fe 12B2     		sxth	r2, r2
 2304              	.LVL226:
 491:lvgl/src/widgets/lv_table.c **** 
 2305              		.loc 1 491 41 is_stmt 1 discriminator 3 view .LVU774
 2306 0100 0133     		adds	r3, r3, #1
 2307              	.LVL227:
 2308              	.L102:
 491:lvgl/src/widgets/lv_table.c **** 
 2309              		.loc 1 491 22 discriminator 1 view .LVU775
 491:lvgl/src/widgets/lv_table.c **** 
 2310              		.loc 1 491 29 is_stmt 0 discriminator 1 view .LVU776
 2311 0102 A98C     		ldrh	r1, [r5, #36]
 491:lvgl/src/widgets/lv_table.c **** 
 2312              		.loc 1 491 22 discriminator 1 view .LVU777
 2313 0104 9942     		cmp	r1, r3
 2314 0106 F6D8     		bhi	.L103
 493:lvgl/src/widgets/lv_table.c ****         for(i = 0; i < table->row_cnt; i++) h += table->row_h[i];
 2315              		.loc 1 493 20 view .LVU778
 2316 0108 0023     		movs	r3, #0
 2317              	.LVL228:
 494:lvgl/src/widgets/lv_table.c **** 
 2318              		.loc 1 494 15 view .LVU779
 2319 010a 1946     		mov	r1, r3
 2320 010c 05E0     		b	.L104
 2321              	.LVL229:
 2322              	.L105:
 494:lvgl/src/widgets/lv_table.c **** 
 2323              		.loc 1 494 45 is_stmt 1 discriminator 3 view .LVU780
 494:lvgl/src/widgets/lv_table.c **** 
ARM GAS  C:\usertemp\ccJd89Xr.s 			page 83


 2324              		.loc 1 494 55 is_stmt 0 discriminator 3 view .LVU781
 2325 010e EC6A     		ldr	r4, [r5, #44]
 494:lvgl/src/widgets/lv_table.c **** 
 2326              		.loc 1 494 62 discriminator 3 view .LVU782
 2327 0110 34F81140 		ldrh	r4, [r4, r1, lsl #1]
 494:lvgl/src/widgets/lv_table.c **** 
 2328              		.loc 1 494 47 discriminator 3 view .LVU783
 2329 0114 2344     		add	r3, r3, r4
 2330              	.LVL230:
 494:lvgl/src/widgets/lv_table.c **** 
 2331              		.loc 1 494 47 discriminator 3 view .LVU784
 2332 0116 1BB2     		sxth	r3, r3
 2333              	.LVL231:
 494:lvgl/src/widgets/lv_table.c **** 
 2334              		.loc 1 494 41 is_stmt 1 discriminator 3 view .LVU785
 2335 0118 0131     		adds	r1, r1, #1
 2336              	.LVL232:
 2337              	.L104:
 494:lvgl/src/widgets/lv_table.c **** 
 2338              		.loc 1 494 22 discriminator 1 view .LVU786
 494:lvgl/src/widgets/lv_table.c **** 
 2339              		.loc 1 494 29 is_stmt 0 discriminator 1 view .LVU787
 2340 011a EC8C     		ldrh	r4, [r5, #38]
 494:lvgl/src/widgets/lv_table.c **** 
 2341              		.loc 1 494 22 discriminator 1 view .LVU788
 2342 011c 8C42     		cmp	r4, r1
 2343 011e F6D8     		bhi	.L105
 496:lvgl/src/widgets/lv_table.c ****         p->y = h - 1;
 2344              		.loc 1 496 9 is_stmt 1 view .LVU789
 496:lvgl/src/widgets/lv_table.c ****         p->y = h - 1;
 2345              		.loc 1 496 18 is_stmt 0 view .LVU790
 2346 0120 013A     		subs	r2, r2, #1
 2347              	.LVL233:
 496:lvgl/src/widgets/lv_table.c ****         p->y = h - 1;
 2348              		.loc 1 496 14 view .LVU791
 2349 0122 0280     		strh	r2, [r0]	@ movhi
 497:lvgl/src/widgets/lv_table.c ****     }
 2350              		.loc 1 497 9 is_stmt 1 view .LVU792
 497:lvgl/src/widgets/lv_table.c ****     }
 2351              		.loc 1 497 18 is_stmt 0 view .LVU793
 2352 0124 013B     		subs	r3, r3, #1
 2353              	.LVL234:
 497:lvgl/src/widgets/lv_table.c ****     }
 2354              		.loc 1 497 14 view .LVU794
 2355 0126 4380     		strh	r3, [r0, #2]	@ movhi
 2356              	.LBE158:
 2357 0128 72E7     		b	.L92
 2358              	.LVL235:
 2359              	.L101:
 2360              	.LBB159:
 500:lvgl/src/widgets/lv_table.c ****         uint16_t row;
 2361              		.loc 1 500 9 is_stmt 1 view .LVU795
 501:lvgl/src/widgets/lv_table.c ****         lv_res_t pr_res = get_pressed_cell(obj, &row, &col);
 2362              		.loc 1 501 9 view .LVU796
 502:lvgl/src/widgets/lv_table.c **** 
 2363              		.loc 1 502 9 view .LVU797
 502:lvgl/src/widgets/lv_table.c **** 
ARM GAS  C:\usertemp\ccJd89Xr.s 			page 84


 2364              		.loc 1 502 27 is_stmt 0 view .LVU798
 2365 012a 01AA     		add	r2, sp, #4
 2366 012c 0DF10601 		add	r1, sp, #6
 2367 0130 2846     		mov	r0, r5
 2368 0132 FFF7FEFF 		bl	get_pressed_cell
 2369              	.LVL236:
 504:lvgl/src/widgets/lv_table.c ****             table->col_act = col;
 2370              		.loc 1 504 9 is_stmt 1 view .LVU799
 504:lvgl/src/widgets/lv_table.c ****             table->col_act = col;
 2371              		.loc 1 504 11 is_stmt 0 view .LVU800
 2372 0136 0128     		cmp	r0, #1
 2373 0138 7FF46AAF 		bne	.L92
 504:lvgl/src/widgets/lv_table.c ****             table->col_act = col;
 2374              		.loc 1 504 41 discriminator 1 view .LVU801
 2375 013c AA8E     		ldrh	r2, [r5, #52]
 504:lvgl/src/widgets/lv_table.c ****             table->col_act = col;
 2376              		.loc 1 504 51 discriminator 1 view .LVU802
 2377 013e BDF80430 		ldrh	r3, [sp, #4]
 504:lvgl/src/widgets/lv_table.c ****             table->col_act = col;
 2378              		.loc 1 504 32 discriminator 1 view .LVU803
 2379 0142 9A42     		cmp	r2, r3
 2380 0144 05D1     		bne	.L107
 504:lvgl/src/widgets/lv_table.c ****             table->col_act = col;
 2381              		.loc 1 504 66 discriminator 2 view .LVU804
 2382 0146 E98E     		ldrh	r1, [r5, #54]
 504:lvgl/src/widgets/lv_table.c ****             table->col_act = col;
 2383              		.loc 1 504 76 discriminator 2 view .LVU805
 2384 0148 BDF80620 		ldrh	r2, [sp, #6]
 504:lvgl/src/widgets/lv_table.c ****             table->col_act = col;
 2385              		.loc 1 504 58 discriminator 2 view .LVU806
 2386 014c 9142     		cmp	r1, r2
 2387 014e 3FF45FAF 		beq	.L92
 2388              	.L107:
 505:lvgl/src/widgets/lv_table.c ****             table->row_act = row;
 2389              		.loc 1 505 13 is_stmt 1 view .LVU807
 505:lvgl/src/widgets/lv_table.c ****             table->row_act = row;
 2390              		.loc 1 505 28 is_stmt 0 view .LVU808
 2391 0152 AB86     		strh	r3, [r5, #52]	@ movhi
 506:lvgl/src/widgets/lv_table.c ****             lv_obj_invalidate(obj);
 2392              		.loc 1 506 13 is_stmt 1 view .LVU809
 506:lvgl/src/widgets/lv_table.c ****             lv_obj_invalidate(obj);
 2393              		.loc 1 506 28 is_stmt 0 view .LVU810
 2394 0154 BDF80630 		ldrh	r3, [sp, #6]
 2395 0158 EB86     		strh	r3, [r5, #54]	@ movhi
 507:lvgl/src/widgets/lv_table.c ****         }
 2396              		.loc 1 507 13 is_stmt 1 view .LVU811
 2397 015a 2846     		mov	r0, r5
 2398              	.LVL237:
 507:lvgl/src/widgets/lv_table.c ****         }
 2399              		.loc 1 507 13 is_stmt 0 view .LVU812
 2400 015c FFF7FEFF 		bl	lv_obj_invalidate
 2401              	.LVL238:
 2402 0160 56E7     		b	.L92
 2403              	.LVL239:
 2404              	.L100:
 507:lvgl/src/widgets/lv_table.c ****         }
 2405              		.loc 1 507 13 view .LVU813
ARM GAS  C:\usertemp\ccJd89Xr.s 			page 85


 2406              	.LBE159:
 2407              	.LBB160:
 511:lvgl/src/widgets/lv_table.c ****         lv_indev_t * indev = lv_indev_get_act();
 2408              		.loc 1 511 9 is_stmt 1 view .LVU814
 2409 0162 2846     		mov	r0, r5
 2410 0164 FFF7FEFF 		bl	lv_obj_invalidate
 2411              	.LVL240:
 512:lvgl/src/widgets/lv_table.c ****         lv_obj_t * scroll_obj = lv_indev_get_scroll_obj(indev);
 2412              		.loc 1 512 9 view .LVU815
 512:lvgl/src/widgets/lv_table.c ****         lv_obj_t * scroll_obj = lv_indev_get_scroll_obj(indev);
 2413              		.loc 1 512 30 is_stmt 0 view .LVU816
 2414 0168 FFF7FEFF 		bl	lv_indev_get_act
 2415              	.LVL241:
 513:lvgl/src/widgets/lv_table.c ****         if(table->col_act != LV_TABLE_CELL_NONE && table->row_act != LV_TABLE_CELL_NONE && scroll_o
 2416              		.loc 1 513 9 is_stmt 1 view .LVU817
 513:lvgl/src/widgets/lv_table.c ****         if(table->col_act != LV_TABLE_CELL_NONE && table->row_act != LV_TABLE_CELL_NONE && scroll_o
 2417              		.loc 1 513 33 is_stmt 0 view .LVU818
 2418 016c FFF7FEFF 		bl	lv_indev_get_scroll_obj
 2419              	.LVL242:
 514:lvgl/src/widgets/lv_table.c ****             res = lv_event_send(obj, LV_EVENT_VALUE_CHANGED, NULL);
 2420              		.loc 1 514 9 is_stmt 1 view .LVU819
 514:lvgl/src/widgets/lv_table.c ****             res = lv_event_send(obj, LV_EVENT_VALUE_CHANGED, NULL);
 2421              		.loc 1 514 17 is_stmt 0 view .LVU820
 2422 0170 AA8E     		ldrh	r2, [r5, #52]
 514:lvgl/src/widgets/lv_table.c ****             res = lv_event_send(obj, LV_EVENT_VALUE_CHANGED, NULL);
 2423              		.loc 1 514 11 view .LVU821
 2424 0172 4FF6FF73 		movw	r3, #65535
 2425 0176 9A42     		cmp	r2, r3
 2426 0178 03D0     		beq	.L108
 514:lvgl/src/widgets/lv_table.c ****             res = lv_event_send(obj, LV_EVENT_VALUE_CHANGED, NULL);
 2427              		.loc 1 514 57 discriminator 1 view .LVU822
 2428 017a EA8E     		ldrh	r2, [r5, #54]
 514:lvgl/src/widgets/lv_table.c ****             res = lv_event_send(obj, LV_EVENT_VALUE_CHANGED, NULL);
 2429              		.loc 1 514 49 discriminator 1 view .LVU823
 2430 017c 9A42     		cmp	r2, r3
 2431 017e 00D0     		beq	.L108
 514:lvgl/src/widgets/lv_table.c ****             res = lv_event_send(obj, LV_EVENT_VALUE_CHANGED, NULL);
 2432              		.loc 1 514 89 discriminator 2 view .LVU824
 2433 0180 68B1     		cbz	r0, .L132
 2434              	.LVL243:
 2435              	.L108:
 519:lvgl/src/widgets/lv_table.c ****         if(indev_type == LV_INDEV_TYPE_POINTER || indev_type == LV_INDEV_TYPE_BUTTON) {
 2436              		.loc 1 519 9 is_stmt 1 view .LVU825
 519:lvgl/src/widgets/lv_table.c ****         if(indev_type == LV_INDEV_TYPE_POINTER || indev_type == LV_INDEV_TYPE_BUTTON) {
 2437              		.loc 1 519 56 is_stmt 0 view .LVU826
 2438 0182 FFF7FEFF 		bl	lv_indev_get_act
 2439              	.LVL244:
 519:lvgl/src/widgets/lv_table.c ****         if(indev_type == LV_INDEV_TYPE_POINTER || indev_type == LV_INDEV_TYPE_BUTTON) {
 2440              		.loc 1 519 38 discriminator 1 view .LVU827
 2441 0186 FFF7FEFF 		bl	lv_indev_get_type
 2442              	.LVL245:
 520:lvgl/src/widgets/lv_table.c ****             table->col_act = LV_TABLE_CELL_NONE;
 2443              		.loc 1 520 9 is_stmt 1 view .LVU828
 520:lvgl/src/widgets/lv_table.c ****             table->col_act = LV_TABLE_CELL_NONE;
 2444              		.loc 1 520 11 is_stmt 0 view .LVU829
 2445 018a 0328     		cmp	r0, #3
 2446 018c 18BF     		it	ne
ARM GAS  C:\usertemp\ccJd89Xr.s 			page 86


 2447 018e 0128     		cmpne	r0, #1
 2448 0190 7FF43EAF 		bne	.L92
 521:lvgl/src/widgets/lv_table.c ****             table->row_act = LV_TABLE_CELL_NONE;
 2449              		.loc 1 521 13 is_stmt 1 view .LVU830
 521:lvgl/src/widgets/lv_table.c ****             table->row_act = LV_TABLE_CELL_NONE;
 2450              		.loc 1 521 28 is_stmt 0 view .LVU831
 2451 0194 4FF6FF73 		movw	r3, #65535
 2452 0198 AB86     		strh	r3, [r5, #52]	@ movhi
 522:lvgl/src/widgets/lv_table.c ****         }
 2453              		.loc 1 522 13 is_stmt 1 view .LVU832
 522:lvgl/src/widgets/lv_table.c ****         }
 2454              		.loc 1 522 28 is_stmt 0 view .LVU833
 2455 019a EB86     		strh	r3, [r5, #54]	@ movhi
 2456 019c 38E7     		b	.L92
 2457              	.LVL246:
 2458              	.L132:
 515:lvgl/src/widgets/lv_table.c ****             if(res != LV_RES_OK) return;
 2459              		.loc 1 515 13 is_stmt 1 view .LVU834
 515:lvgl/src/widgets/lv_table.c ****             if(res != LV_RES_OK) return;
 2460              		.loc 1 515 19 is_stmt 0 view .LVU835
 2461 019e 0022     		movs	r2, #0
 2462 01a0 1C21     		movs	r1, #28
 2463 01a2 2846     		mov	r0, r5
 2464              	.LVL247:
 515:lvgl/src/widgets/lv_table.c ****             if(res != LV_RES_OK) return;
 2465              		.loc 1 515 19 view .LVU836
 2466 01a4 FFF7FEFF 		bl	lv_event_send
 2467              	.LVL248:
 516:lvgl/src/widgets/lv_table.c ****         }
 2468              		.loc 1 516 13 is_stmt 1 view .LVU837
 516:lvgl/src/widgets/lv_table.c ****         }
 2469              		.loc 1 516 15 is_stmt 0 view .LVU838
 2470 01a8 0128     		cmp	r0, #1
 2471 01aa 7FF431AF 		bne	.L92
 2472 01ae E8E7     		b	.L108
 2473              	.LVL249:
 2474              	.L98:
 516:lvgl/src/widgets/lv_table.c ****         }
 2475              		.loc 1 516 15 view .LVU839
 2476              	.LBE160:
 526:lvgl/src/widgets/lv_table.c ****     }
 2477              		.loc 1 526 9 is_stmt 1 view .LVU840
 2478 01b0 2846     		mov	r0, r5
 2479 01b2 FFF7FEFF 		bl	lv_obj_invalidate
 2480              	.LVL250:
 2481 01b6 2BE7     		b	.L92
 2482              	.L99:
 2483              	.LBB161:
 529:lvgl/src/widgets/lv_table.c ****         int32_t col = table->col_act;
 2484              		.loc 1 529 9 view .LVU841
 529:lvgl/src/widgets/lv_table.c ****         int32_t col = table->col_act;
 2485              		.loc 1 529 34 is_stmt 0 view .LVU842
 2486 01b8 2046     		mov	r0, r4
 2487 01ba FFF7FEFF 		bl	lv_event_get_param
 2488              	.LVL251:
 529:lvgl/src/widgets/lv_table.c ****         int32_t col = table->col_act;
 2489              		.loc 1 529 17 discriminator 1 view .LVU843
ARM GAS  C:\usertemp\ccJd89Xr.s 			page 87


 2490 01be 0268     		ldr	r2, [r0]
 2491              	.LVL252:
 530:lvgl/src/widgets/lv_table.c ****         int32_t row = table->row_act;
 2492              		.loc 1 530 9 is_stmt 1 view .LVU844
 530:lvgl/src/widgets/lv_table.c ****         int32_t row = table->row_act;
 2493              		.loc 1 530 28 is_stmt 0 view .LVU845
 2494 01c0 A88E     		ldrh	r0, [r5, #52]
 2495              	.LVL253:
 531:lvgl/src/widgets/lv_table.c ****         if(col == LV_TABLE_CELL_NONE || row == LV_TABLE_CELL_NONE) {
 2496              		.loc 1 531 9 is_stmt 1 view .LVU846
 531:lvgl/src/widgets/lv_table.c ****         if(col == LV_TABLE_CELL_NONE || row == LV_TABLE_CELL_NONE) {
 2497              		.loc 1 531 28 is_stmt 0 view .LVU847
 2498 01c2 EC8E     		ldrh	r4, [r5, #54]
 2499              	.LVL254:
 532:lvgl/src/widgets/lv_table.c ****             table->col_act = 0;
 2500              		.loc 1 532 9 is_stmt 1 view .LVU848
 532:lvgl/src/widgets/lv_table.c ****             table->col_act = 0;
 2501              		.loc 1 532 16 is_stmt 0 view .LVU849
 2502 01c4 4FF6FF73 		movw	r3, #65535
 532:lvgl/src/widgets/lv_table.c ****             table->col_act = 0;
 2503              		.loc 1 532 11 view .LVU850
 2504 01c8 9C42     		cmp	r4, r3
 2505 01ca 18BF     		it	ne
 2506 01cc 9842     		cmpne	r0, r3
 2507 01ce 10D0     		beq	.L133
 539:lvgl/src/widgets/lv_table.c ****         if(row >= table->row_cnt) row = 0;
 2508              		.loc 1 539 9 is_stmt 1 view .LVU851
 539:lvgl/src/widgets/lv_table.c ****         if(row >= table->row_cnt) row = 0;
 2509              		.loc 1 539 24 is_stmt 0 view .LVU852
 2510 01d0 B5F824C0 		ldrh	ip, [r5, #36]
 539:lvgl/src/widgets/lv_table.c ****         if(row >= table->row_cnt) row = 0;
 2511              		.loc 1 539 11 view .LVU853
 2512 01d4 6045     		cmp	r0, ip
 2513 01d6 13D2     		bcs	.L124
 530:lvgl/src/widgets/lv_table.c ****         int32_t row = table->row_act;
 2514              		.loc 1 530 17 view .LVU854
 2515 01d8 0146     		mov	r1, r0
 2516              	.L110:
 2517              	.LVL255:
 540:lvgl/src/widgets/lv_table.c **** 
 2518              		.loc 1 540 9 is_stmt 1 view .LVU855
 540:lvgl/src/widgets/lv_table.c **** 
 2519              		.loc 1 540 24 is_stmt 0 view .LVU856
 2520 01da EE8C     		ldrh	r6, [r5, #38]
 2521              	.LVL256:
 540:lvgl/src/widgets/lv_table.c **** 
 2522              		.loc 1 540 11 view .LVU857
 2523 01dc B442     		cmp	r4, r6
 2524 01de 11D2     		bcs	.L125
 531:lvgl/src/widgets/lv_table.c ****         if(col == LV_TABLE_CELL_NONE || row == LV_TABLE_CELL_NONE) {
 2525              		.loc 1 531 17 view .LVU858
 2526 01e0 2346     		mov	r3, r4
 2527              	.L111:
 2528              	.LVL257:
 542:lvgl/src/widgets/lv_table.c ****         else if(c == LV_KEY_RIGHT) col++;
 2529              		.loc 1 542 9 is_stmt 1 view .LVU859
 2530 01e2 113A     		subs	r2, r2, #17
ARM GAS  C:\usertemp\ccJd89Xr.s 			page 88


 2531              	.LVL258:
 542:lvgl/src/widgets/lv_table.c ****         else if(c == LV_KEY_RIGHT) col++;
 2532              		.loc 1 542 9 is_stmt 0 view .LVU860
 2533 01e4 032A     		cmp	r2, #3
 2534 01e6 3FF613AF 		bhi	.L92
 2535 01ea DFE802F0 		tbb	[pc, r2]
 2536              	.L113:
 2537 01ee 18       		.byte	(.L116-.L113)/2
 2538 01ef 1A       		.byte	(.L115-.L113)/2
 2539 01f0 16       		.byte	(.L114-.L113)/2
 2540 01f1 0D       		.byte	(.L112-.L113)/2
 2541              	.LVL259:
 2542              		.p2align 1
 2543              	.L133:
 533:lvgl/src/widgets/lv_table.c ****             table->row_act = 0;
 2544              		.loc 1 533 13 is_stmt 1 view .LVU861
 533:lvgl/src/widgets/lv_table.c ****             table->row_act = 0;
 2545              		.loc 1 533 28 is_stmt 0 view .LVU862
 2546 01f2 0023     		movs	r3, #0
 2547 01f4 AB86     		strh	r3, [r5, #52]	@ movhi
 534:lvgl/src/widgets/lv_table.c ****             lv_obj_invalidate(obj);
 2548              		.loc 1 534 13 is_stmt 1 view .LVU863
 534:lvgl/src/widgets/lv_table.c ****             lv_obj_invalidate(obj);
 2549              		.loc 1 534 28 is_stmt 0 view .LVU864
 2550 01f6 EB86     		strh	r3, [r5, #54]	@ movhi
 535:lvgl/src/widgets/lv_table.c ****             return;
 2551              		.loc 1 535 13 is_stmt 1 view .LVU865
 2552 01f8 2846     		mov	r0, r5
 2553              	.LVL260:
 535:lvgl/src/widgets/lv_table.c ****             return;
 2554              		.loc 1 535 13 is_stmt 0 view .LVU866
 2555 01fa FFF7FEFF 		bl	lv_obj_invalidate
 2556              	.LVL261:
 536:lvgl/src/widgets/lv_table.c ****         }
 2557              		.loc 1 536 13 is_stmt 1 view .LVU867
 2558 01fe 07E7     		b	.L92
 2559              	.LVL262:
 2560              	.L124:
 539:lvgl/src/widgets/lv_table.c ****         if(row >= table->row_cnt) row = 0;
 2561              		.loc 1 539 39 is_stmt 0 discriminator 1 view .LVU868
 2562 0200 0021     		movs	r1, #0
 2563 0202 EAE7     		b	.L110
 2564              	.LVL263:
 2565              	.L125:
 540:lvgl/src/widgets/lv_table.c **** 
 2566              		.loc 1 540 39 discriminator 1 view .LVU869
 2567 0204 0023     		movs	r3, #0
 2568 0206 ECE7     		b	.L111
 2569              	.LVL264:
 2570              	.L112:
 542:lvgl/src/widgets/lv_table.c ****         else if(c == LV_KEY_RIGHT) col++;
 2571              		.loc 1 542 30 is_stmt 1 discriminator 1 view .LVU870
 542:lvgl/src/widgets/lv_table.c ****         else if(c == LV_KEY_RIGHT) col++;
 2572              		.loc 1 542 33 is_stmt 0 discriminator 1 view .LVU871
 2573 0208 0139     		subs	r1, r1, #1
 2574              	.LVL265:
 2575              	.L117:
ARM GAS  C:\usertemp\ccJd89Xr.s 			page 89


 548:lvgl/src/widgets/lv_table.c ****             if(row < table->row_cnt - 1) {
 2576              		.loc 1 548 9 is_stmt 1 view .LVU872
 548:lvgl/src/widgets/lv_table.c ****             if(row < table->row_cnt - 1) {
 2577              		.loc 1 548 11 is_stmt 0 view .LVU873
 2578 020a 8C45     		cmp	ip, r1
 2579 020c 0EDC     		bgt	.L118
 549:lvgl/src/widgets/lv_table.c ****                 col = 0;
 2580              		.loc 1 549 13 is_stmt 1 view .LVU874
 549:lvgl/src/widgets/lv_table.c ****                 col = 0;
 2581              		.loc 1 549 37 is_stmt 0 view .LVU875
 2582 020e 721E     		subs	r2, r6, #1
 2583              	.LVL266:
 549:lvgl/src/widgets/lv_table.c ****                 col = 0;
 2584              		.loc 1 549 15 view .LVU876
 2585 0210 9A42     		cmp	r2, r3
 2586 0212 08DD     		ble	.L119
 550:lvgl/src/widgets/lv_table.c ****                 row++;
 2587              		.loc 1 550 17 is_stmt 1 view .LVU877
 2588              	.LVL267:
 551:lvgl/src/widgets/lv_table.c ****             }
 2589              		.loc 1 551 17 view .LVU878
 551:lvgl/src/widgets/lv_table.c ****             }
 2590              		.loc 1 551 20 is_stmt 0 view .LVU879
 2591 0214 0133     		adds	r3, r3, #1
 2592              	.LVL268:
 550:lvgl/src/widgets/lv_table.c ****                 row++;
 2593              		.loc 1 550 21 view .LVU880
 2594 0216 0021     		movs	r1, #0
 2595 0218 0AE0     		b	.L120
 2596              	.LVL269:
 2597              	.L114:
 543:lvgl/src/widgets/lv_table.c ****         else if(c == LV_KEY_UP) row--;
 2598              		.loc 1 543 36 is_stmt 1 discriminator 1 view .LVU881
 543:lvgl/src/widgets/lv_table.c ****         else if(c == LV_KEY_UP) row--;
 2599              		.loc 1 543 39 is_stmt 0 discriminator 1 view .LVU882
 2600 021a 0131     		adds	r1, r1, #1
 2601              	.LVL270:
 543:lvgl/src/widgets/lv_table.c ****         else if(c == LV_KEY_UP) row--;
 2602              		.loc 1 543 39 discriminator 1 view .LVU883
 2603 021c F5E7     		b	.L117
 2604              	.L116:
 544:lvgl/src/widgets/lv_table.c ****         else if(c == LV_KEY_DOWN) row++;
 2605              		.loc 1 544 33 is_stmt 1 discriminator 1 view .LVU884
 544:lvgl/src/widgets/lv_table.c ****         else if(c == LV_KEY_DOWN) row++;
 2606              		.loc 1 544 36 is_stmt 0 discriminator 1 view .LVU885
 2607 021e 013B     		subs	r3, r3, #1
 2608              	.LVL271:
 544:lvgl/src/widgets/lv_table.c ****         else if(c == LV_KEY_DOWN) row++;
 2609              		.loc 1 544 36 discriminator 1 view .LVU886
 2610 0220 F3E7     		b	.L117
 2611              	.L115:
 545:lvgl/src/widgets/lv_table.c ****         else return;
 2612              		.loc 1 545 35 is_stmt 1 discriminator 1 view .LVU887
 545:lvgl/src/widgets/lv_table.c ****         else return;
 2613              		.loc 1 545 38 is_stmt 0 discriminator 1 view .LVU888
 2614 0222 0133     		adds	r3, r3, #1
 2615              	.LVL272:
ARM GAS  C:\usertemp\ccJd89Xr.s 			page 90


 545:lvgl/src/widgets/lv_table.c ****         else return;
 2616              		.loc 1 545 38 discriminator 1 view .LVU889
 2617 0224 F1E7     		b	.L117
 2618              	.LVL273:
 2619              	.L119:
 554:lvgl/src/widgets/lv_table.c ****             }
 2620              		.loc 1 554 17 is_stmt 1 view .LVU890
 554:lvgl/src/widgets/lv_table.c ****             }
 2621              		.loc 1 554 21 is_stmt 0 view .LVU891
 2622 0226 0CF1FF31 		add	r1, ip, #-1
 2623              	.LVL274:
 554:lvgl/src/widgets/lv_table.c ****             }
 2624              		.loc 1 554 21 view .LVU892
 2625 022a 01E0     		b	.L120
 2626              	.LVL275:
 2627              	.L118:
 557:lvgl/src/widgets/lv_table.c ****             if(row != 0) {
 2628              		.loc 1 557 14 is_stmt 1 view .LVU893
 557:lvgl/src/widgets/lv_table.c ****             if(row != 0) {
 2629              		.loc 1 557 16 is_stmt 0 view .LVU894
 2630 022c 0029     		cmp	r1, #0
 2631 022e 12DB     		blt	.L134
 2632              	.LVL276:
 2633              	.L120:
 567:lvgl/src/widgets/lv_table.c ****             row = table->row_cnt - 1;
 2634              		.loc 1 567 9 is_stmt 1 view .LVU895
 567:lvgl/src/widgets/lv_table.c ****             row = table->row_cnt - 1;
 2635              		.loc 1 567 11 is_stmt 0 view .LVU896
 2636 0230 9E42     		cmp	r6, r3
 2637 0232 17DC     		bgt	.L121
 568:lvgl/src/widgets/lv_table.c ****         }
 2638              		.loc 1 568 13 is_stmt 1 view .LVU897
 568:lvgl/src/widgets/lv_table.c ****         }
 2639              		.loc 1 568 17 is_stmt 0 view .LVU898
 2640 0234 731E     		subs	r3, r6, #1
 2641              	.LVL277:
 2642              	.L122:
 574:lvgl/src/widgets/lv_table.c ****             table->col_act = col;
 2643              		.loc 1 574 9 is_stmt 1 view .LVU899
 574:lvgl/src/widgets/lv_table.c ****             table->col_act = col;
 2644              		.loc 1 574 11 is_stmt 0 view .LVU900
 2645 0236 8142     		cmp	r1, r0
 2646 0238 02D1     		bne	.L123
 574:lvgl/src/widgets/lv_table.c ****             table->col_act = col;
 2647              		.loc 1 574 34 discriminator 1 view .LVU901
 2648 023a A342     		cmp	r3, r4
 2649 023c 3FF4E8AE 		beq	.L92
 2650              	.L123:
 575:lvgl/src/widgets/lv_table.c ****             table->row_act = row;
 2651              		.loc 1 575 13 is_stmt 1 view .LVU902
 575:lvgl/src/widgets/lv_table.c ****             table->row_act = row;
 2652              		.loc 1 575 28 is_stmt 0 view .LVU903
 2653 0240 A986     		strh	r1, [r5, #52]	@ movhi
 576:lvgl/src/widgets/lv_table.c ****             lv_obj_invalidate(obj);
 2654              		.loc 1 576 13 is_stmt 1 view .LVU904
 576:lvgl/src/widgets/lv_table.c ****             lv_obj_invalidate(obj);
 2655              		.loc 1 576 28 is_stmt 0 view .LVU905
ARM GAS  C:\usertemp\ccJd89Xr.s 			page 91


 2656 0242 EB86     		strh	r3, [r5, #54]	@ movhi
 577:lvgl/src/widgets/lv_table.c **** 
 2657              		.loc 1 577 13 is_stmt 1 view .LVU906
 2658 0244 2846     		mov	r0, r5
 2659 0246 FFF7FEFF 		bl	lv_obj_invalidate
 2660              	.LVL278:
 579:lvgl/src/widgets/lv_table.c ****             if(res != LV_RES_OK) return;
 2661              		.loc 1 579 13 view .LVU907
 579:lvgl/src/widgets/lv_table.c ****             if(res != LV_RES_OK) return;
 2662              		.loc 1 579 19 is_stmt 0 view .LVU908
 2663 024a 0022     		movs	r2, #0
 2664 024c 1C21     		movs	r1, #28
 2665 024e 2846     		mov	r0, r5
 2666 0250 FFF7FEFF 		bl	lv_event_send
 2667              	.LVL279:
 580:lvgl/src/widgets/lv_table.c ****         }
 2668              		.loc 1 580 13 is_stmt 1 view .LVU909
 580:lvgl/src/widgets/lv_table.c ****         }
 2669              		.loc 1 580 34 discriminator 1 view .LVU910
 2670 0254 DCE6     		b	.L92
 2671              	.LVL280:
 2672              	.L134:
 558:lvgl/src/widgets/lv_table.c ****                 col = table->col_cnt - 1;
 2673              		.loc 1 558 13 view .LVU911
 558:lvgl/src/widgets/lv_table.c ****                 col = table->col_cnt - 1;
 2674              		.loc 1 558 15 is_stmt 0 view .LVU912
 2675 0256 1BB1     		cbz	r3, .L126
 559:lvgl/src/widgets/lv_table.c ****                 row--;
 2676              		.loc 1 559 17 is_stmt 1 view .LVU913
 559:lvgl/src/widgets/lv_table.c ****                 row--;
 2677              		.loc 1 559 21 is_stmt 0 view .LVU914
 2678 0258 0CF1FF31 		add	r1, ip, #-1
 2679              	.LVL281:
 560:lvgl/src/widgets/lv_table.c ****             }
 2680              		.loc 1 560 17 is_stmt 1 view .LVU915
 560:lvgl/src/widgets/lv_table.c ****             }
 2681              		.loc 1 560 20 is_stmt 0 view .LVU916
 2682 025c 013B     		subs	r3, r3, #1
 2683              	.LVL282:
 560:lvgl/src/widgets/lv_table.c ****             }
 2684              		.loc 1 560 20 view .LVU917
 2685 025e E7E7     		b	.L120
 2686              	.L126:
 563:lvgl/src/widgets/lv_table.c ****             }
 2687              		.loc 1 563 21 view .LVU918
 2688 0260 1946     		mov	r1, r3
 2689              	.LVL283:
 563:lvgl/src/widgets/lv_table.c ****             }
 2690              		.loc 1 563 21 view .LVU919
 2691 0262 E5E7     		b	.L120
 2692              	.LVL284:
 2693              	.L121:
 570:lvgl/src/widgets/lv_table.c ****             row = 0;
 2694              		.loc 1 570 14 is_stmt 1 view .LVU920
 570:lvgl/src/widgets/lv_table.c ****             row = 0;
 2695              		.loc 1 570 16 is_stmt 0 view .LVU921
 2696 0264 002B     		cmp	r3, #0
ARM GAS  C:\usertemp\ccJd89Xr.s 			page 92


 2697 0266 E6DA     		bge	.L122
 571:lvgl/src/widgets/lv_table.c ****         }
 2698              		.loc 1 571 17 view .LVU922
 2699 0268 0023     		movs	r3, #0
 2700              	.LVL285:
 571:lvgl/src/widgets/lv_table.c ****         }
 2701              		.loc 1 571 17 view .LVU923
 2702 026a E4E7     		b	.L122
 2703              	.LVL286:
 2704              	.L97:
 571:lvgl/src/widgets/lv_table.c ****         }
 2705              		.loc 1 571 17 view .LVU924
 2706              	.LBE161:
 584:lvgl/src/widgets/lv_table.c ****     }
 2707              		.loc 1 584 9 is_stmt 1 view .LVU925
 2708 026c 2046     		mov	r0, r4
 2709 026e FFF7FEFF 		bl	draw_main
 2710              	.LVL287:
 2711 0272 CDE6     		b	.L92
 2712              	.L136:
 2713              		.align	2
 2714              	.L135:
 2715 0274 00000000 		.word	lv_table_class
 2716              		.cfi_endproc
 2717              	.LFE172:
 2719              		.section	.text.lv_table_destructor,"ax",%progbits
 2720              		.align	1
 2721              		.syntax unified
 2722              		.thumb
 2723              		.thumb_func
 2725              	lv_table_destructor:
 2726              	.LVL288:
 2727              	.LFB171:
 453:lvgl/src/widgets/lv_table.c ****     LV_UNUSED(class_p);
 2728              		.loc 1 453 1 view -0
 2729              		.cfi_startproc
 2730              		@ args = 0, pretend = 0, frame = 0
 2731              		@ frame_needed = 0, uses_anonymous_args = 0
 453:lvgl/src/widgets/lv_table.c ****     LV_UNUSED(class_p);
 2732              		.loc 1 453 1 is_stmt 0 view .LVU927
 2733 0000 38B5     		push	{r3, r4, r5, lr}
 2734              	.LCFI18:
 2735              		.cfi_def_cfa_offset 16
 2736              		.cfi_offset 3, -16
 2737              		.cfi_offset 4, -12
 2738              		.cfi_offset 5, -8
 2739              		.cfi_offset 14, -4
 2740 0002 0D46     		mov	r5, r1
 454:lvgl/src/widgets/lv_table.c ****     lv_table_t * table = (lv_table_t *)obj;
 2741              		.loc 1 454 5 is_stmt 1 view .LVU928
 455:lvgl/src/widgets/lv_table.c ****     /*Free the cell texts*/
 2742              		.loc 1 455 5 view .LVU929
 2743              	.LVL289:
 457:lvgl/src/widgets/lv_table.c ****     for(i = 0; i < table->col_cnt * table->row_cnt; i++) {
 2744              		.loc 1 457 5 view .LVU930
 458:lvgl/src/widgets/lv_table.c ****         if(table->cell_data[i]) {
 2745              		.loc 1 458 5 view .LVU931
ARM GAS  C:\usertemp\ccJd89Xr.s 			page 93


 458:lvgl/src/widgets/lv_table.c ****         if(table->cell_data[i]) {
 2746              		.loc 1 458 11 is_stmt 0 view .LVU932
 2747 0004 0024     		movs	r4, #0
 458:lvgl/src/widgets/lv_table.c ****         if(table->cell_data[i]) {
 2748              		.loc 1 458 5 view .LVU933
 2749 0006 01E0     		b	.L138
 2750              	.LVL290:
 2751              	.L139:
 458:lvgl/src/widgets/lv_table.c ****         if(table->cell_data[i]) {
 2752              		.loc 1 458 54 is_stmt 1 discriminator 2 view .LVU934
 2753 0008 0134     		adds	r4, r4, #1
 2754              	.LVL291:
 458:lvgl/src/widgets/lv_table.c ****         if(table->cell_data[i]) {
 2755              		.loc 1 458 54 is_stmt 0 discriminator 2 view .LVU935
 2756 000a A4B2     		uxth	r4, r4
 2757              	.LVL292:
 2758              	.L138:
 458:lvgl/src/widgets/lv_table.c ****         if(table->cell_data[i]) {
 2759              		.loc 1 458 18 is_stmt 1 discriminator 1 view .LVU936
 458:lvgl/src/widgets/lv_table.c ****         if(table->cell_data[i]) {
 2760              		.loc 1 458 25 is_stmt 0 discriminator 1 view .LVU937
 2761 000c AB8C     		ldrh	r3, [r5, #36]
 458:lvgl/src/widgets/lv_table.c ****         if(table->cell_data[i]) {
 2762              		.loc 1 458 42 discriminator 1 view .LVU938
 2763 000e EA8C     		ldrh	r2, [r5, #38]
 458:lvgl/src/widgets/lv_table.c ****         if(table->cell_data[i]) {
 2764              		.loc 1 458 35 discriminator 1 view .LVU939
 2765 0010 02FB03F3 		mul	r3, r2, r3
 458:lvgl/src/widgets/lv_table.c ****         if(table->cell_data[i]) {
 2766              		.loc 1 458 18 discriminator 1 view .LVU940
 2767 0014 9C42     		cmp	r4, r3
 2768 0016 0BDA     		bge	.L145
 459:lvgl/src/widgets/lv_table.c ****             lv_mem_free(table->cell_data[i]);
 2769              		.loc 1 459 9 is_stmt 1 view .LVU941
 459:lvgl/src/widgets/lv_table.c ****             lv_mem_free(table->cell_data[i]);
 2770              		.loc 1 459 17 is_stmt 0 view .LVU942
 2771 0018 AB6A     		ldr	r3, [r5, #40]
 459:lvgl/src/widgets/lv_table.c ****             lv_mem_free(table->cell_data[i]);
 2772              		.loc 1 459 28 view .LVU943
 2773 001a 53F82400 		ldr	r0, [r3, r4, lsl #2]
 459:lvgl/src/widgets/lv_table.c ****             lv_mem_free(table->cell_data[i]);
 2774              		.loc 1 459 11 view .LVU944
 2775 001e 0028     		cmp	r0, #0
 2776 0020 F2D0     		beq	.L139
 460:lvgl/src/widgets/lv_table.c ****             table->cell_data[i] = NULL;
 2777              		.loc 1 460 13 is_stmt 1 view .LVU945
 2778 0022 FFF7FEFF 		bl	lv_mem_free
 2779              	.LVL293:
 461:lvgl/src/widgets/lv_table.c ****         }
 2780              		.loc 1 461 13 view .LVU946
 461:lvgl/src/widgets/lv_table.c ****         }
 2781              		.loc 1 461 18 is_stmt 0 view .LVU947
 2782 0026 AB6A     		ldr	r3, [r5, #40]
 461:lvgl/src/widgets/lv_table.c ****         }
 2783              		.loc 1 461 33 view .LVU948
 2784 0028 0022     		movs	r2, #0
 2785 002a 43F82420 		str	r2, [r3, r4, lsl #2]
ARM GAS  C:\usertemp\ccJd89Xr.s 			page 94


 2786 002e EBE7     		b	.L139
 2787              	.L145:
 465:lvgl/src/widgets/lv_table.c ****     if(table->row_h) lv_mem_free(table->row_h);
 2788              		.loc 1 465 5 is_stmt 1 view .LVU949
 465:lvgl/src/widgets/lv_table.c ****     if(table->row_h) lv_mem_free(table->row_h);
 2789              		.loc 1 465 13 is_stmt 0 view .LVU950
 2790 0030 A86A     		ldr	r0, [r5, #40]
 465:lvgl/src/widgets/lv_table.c ****     if(table->row_h) lv_mem_free(table->row_h);
 2791              		.loc 1 465 7 view .LVU951
 2792 0032 08B1     		cbz	r0, .L141
 465:lvgl/src/widgets/lv_table.c ****     if(table->row_h) lv_mem_free(table->row_h);
 2793              		.loc 1 465 26 is_stmt 1 discriminator 1 view .LVU952
 2794 0034 FFF7FEFF 		bl	lv_mem_free
 2795              	.LVL294:
 2796              	.L141:
 466:lvgl/src/widgets/lv_table.c ****     if(table->col_w) lv_mem_free(table->col_w);
 2797              		.loc 1 466 5 view .LVU953
 466:lvgl/src/widgets/lv_table.c ****     if(table->col_w) lv_mem_free(table->col_w);
 2798              		.loc 1 466 13 is_stmt 0 view .LVU954
 2799 0038 E86A     		ldr	r0, [r5, #44]
 466:lvgl/src/widgets/lv_table.c ****     if(table->col_w) lv_mem_free(table->col_w);
 2800              		.loc 1 466 7 view .LVU955
 2801 003a 08B1     		cbz	r0, .L142
 466:lvgl/src/widgets/lv_table.c ****     if(table->col_w) lv_mem_free(table->col_w);
 2802              		.loc 1 466 22 is_stmt 1 discriminator 1 view .LVU956
 2803 003c FFF7FEFF 		bl	lv_mem_free
 2804              	.LVL295:
 2805              	.L142:
 467:lvgl/src/widgets/lv_table.c **** }
 2806              		.loc 1 467 5 view .LVU957
 467:lvgl/src/widgets/lv_table.c **** }
 2807              		.loc 1 467 13 is_stmt 0 view .LVU958
 2808 0040 286B     		ldr	r0, [r5, #48]
 467:lvgl/src/widgets/lv_table.c **** }
 2809              		.loc 1 467 7 view .LVU959
 2810 0042 08B1     		cbz	r0, .L137
 467:lvgl/src/widgets/lv_table.c **** }
 2811              		.loc 1 467 22 is_stmt 1 discriminator 1 view .LVU960
 2812 0044 FFF7FEFF 		bl	lv_mem_free
 2813              	.LVL296:
 2814              	.L137:
 468:lvgl/src/widgets/lv_table.c **** 
 2815              		.loc 1 468 1 is_stmt 0 view .LVU961
 2816 0048 38BD     		pop	{r3, r4, r5, pc}
 468:lvgl/src/widgets/lv_table.c **** 
 2817              		.loc 1 468 1 view .LVU962
 2818              		.cfi_endproc
 2819              	.LFE171:
 2821              		.section	.text.lv_table_constructor,"ax",%progbits
 2822              		.align	1
 2823              		.syntax unified
 2824              		.thumb
 2825              		.thumb_func
 2827              	lv_table_constructor:
 2828              	.LVL297:
 2829              	.LFB170:
 434:lvgl/src/widgets/lv_table.c ****     LV_UNUSED(class_p);
ARM GAS  C:\usertemp\ccJd89Xr.s 			page 95


 2830              		.loc 1 434 1 is_stmt 1 view -0
 2831              		.cfi_startproc
 2832              		@ args = 0, pretend = 0, frame = 0
 2833              		@ frame_needed = 0, uses_anonymous_args = 0
 434:lvgl/src/widgets/lv_table.c ****     LV_UNUSED(class_p);
 2834              		.loc 1 434 1 is_stmt 0 view .LVU964
 2835 0000 10B5     		push	{r4, lr}
 2836              	.LCFI19:
 2837              		.cfi_def_cfa_offset 8
 2838              		.cfi_offset 4, -8
 2839              		.cfi_offset 14, -4
 2840 0002 0C46     		mov	r4, r1
 435:lvgl/src/widgets/lv_table.c ****     LV_TRACE_OBJ_CREATE("begin");
 2841              		.loc 1 435 5 is_stmt 1 view .LVU965
 436:lvgl/src/widgets/lv_table.c **** 
 2842              		.loc 1 436 5 view .LVU966
 436:lvgl/src/widgets/lv_table.c **** 
 2843              		.loc 1 436 5 view .LVU967
 436:lvgl/src/widgets/lv_table.c **** 
 2844              		.loc 1 436 5 view .LVU968
 438:lvgl/src/widgets/lv_table.c **** 
 2845              		.loc 1 438 5 view .LVU969
 2846              	.LVL298:
 440:lvgl/src/widgets/lv_table.c ****     table->row_cnt = 1;
 2847              		.loc 1 440 5 view .LVU970
 440:lvgl/src/widgets/lv_table.c ****     table->row_cnt = 1;
 2848              		.loc 1 440 20 is_stmt 0 view .LVU971
 2849 0004 0123     		movs	r3, #1
 2850 0006 8B84     		strh	r3, [r1, #36]	@ movhi
 441:lvgl/src/widgets/lv_table.c ****     table->col_w = lv_mem_alloc(table->col_cnt * sizeof(table->col_w[0]));
 2851              		.loc 1 441 5 is_stmt 1 view .LVU972
 441:lvgl/src/widgets/lv_table.c ****     table->col_w = lv_mem_alloc(table->col_cnt * sizeof(table->col_w[0]));
 2852              		.loc 1 441 20 is_stmt 0 view .LVU973
 2853 0008 CB84     		strh	r3, [r1, #38]	@ movhi
 442:lvgl/src/widgets/lv_table.c ****     table->row_h = lv_mem_alloc(table->row_cnt * sizeof(table->row_h[0]));
 2854              		.loc 1 442 5 is_stmt 1 view .LVU974
 442:lvgl/src/widgets/lv_table.c ****     table->row_h = lv_mem_alloc(table->row_cnt * sizeof(table->row_h[0]));
 2855              		.loc 1 442 20 is_stmt 0 view .LVU975
 2856 000a 0220     		movs	r0, #2
 2857              	.LVL299:
 442:lvgl/src/widgets/lv_table.c ****     table->row_h = lv_mem_alloc(table->row_cnt * sizeof(table->row_h[0]));
 2858              		.loc 1 442 20 view .LVU976
 2859 000c FFF7FEFF 		bl	lv_mem_alloc
 2860              	.LVL300:
 442:lvgl/src/widgets/lv_table.c ****     table->row_h = lv_mem_alloc(table->row_cnt * sizeof(table->row_h[0]));
 2861              		.loc 1 442 18 discriminator 1 view .LVU977
 2862 0010 2063     		str	r0, [r4, #48]
 443:lvgl/src/widgets/lv_table.c ****     table->col_w[0] = LV_DPI_DEF;
 2863              		.loc 1 443 5 is_stmt 1 view .LVU978
 443:lvgl/src/widgets/lv_table.c ****     table->col_w[0] = LV_DPI_DEF;
 2864              		.loc 1 443 38 is_stmt 0 view .LVU979
 2865 0012 E08C     		ldrh	r0, [r4, #38]
 443:lvgl/src/widgets/lv_table.c ****     table->col_w[0] = LV_DPI_DEF;
 2866              		.loc 1 443 20 view .LVU980
 2867 0014 4000     		lsls	r0, r0, #1
 2868 0016 FFF7FEFF 		bl	lv_mem_alloc
 2869              	.LVL301:
ARM GAS  C:\usertemp\ccJd89Xr.s 			page 96


 443:lvgl/src/widgets/lv_table.c ****     table->col_w[0] = LV_DPI_DEF;
 2870              		.loc 1 443 18 discriminator 1 view .LVU981
 2871 001a E062     		str	r0, [r4, #44]
 444:lvgl/src/widgets/lv_table.c ****     table->row_h[0] = LV_DPI_DEF;
 2872              		.loc 1 444 5 is_stmt 1 view .LVU982
 444:lvgl/src/widgets/lv_table.c ****     table->row_h[0] = LV_DPI_DEF;
 2873              		.loc 1 444 10 is_stmt 0 view .LVU983
 2874 001c 226B     		ldr	r2, [r4, #48]
 444:lvgl/src/widgets/lv_table.c ****     table->row_h[0] = LV_DPI_DEF;
 2875              		.loc 1 444 21 view .LVU984
 2876 001e 8223     		movs	r3, #130
 2877 0020 1380     		strh	r3, [r2]	@ movhi
 445:lvgl/src/widgets/lv_table.c ****     table->cell_data = lv_mem_realloc(table->cell_data, table->row_cnt * table->col_cnt * sizeof(ch
 2878              		.loc 1 445 5 is_stmt 1 view .LVU985
 445:lvgl/src/widgets/lv_table.c ****     table->cell_data = lv_mem_realloc(table->cell_data, table->row_cnt * table->col_cnt * sizeof(ch
 2879              		.loc 1 445 10 is_stmt 0 view .LVU986
 2880 0022 E26A     		ldr	r2, [r4, #44]
 445:lvgl/src/widgets/lv_table.c ****     table->cell_data = lv_mem_realloc(table->cell_data, table->row_cnt * table->col_cnt * sizeof(ch
 2881              		.loc 1 445 21 view .LVU987
 2882 0024 1380     		strh	r3, [r2]	@ movhi
 446:lvgl/src/widgets/lv_table.c ****     table->cell_data[0] = NULL;
 2883              		.loc 1 446 5 is_stmt 1 view .LVU988
 446:lvgl/src/widgets/lv_table.c ****     table->cell_data[0] = NULL;
 2884              		.loc 1 446 62 is_stmt 0 view .LVU989
 2885 0026 E18C     		ldrh	r1, [r4, #38]
 446:lvgl/src/widgets/lv_table.c ****     table->cell_data[0] = NULL;
 2886              		.loc 1 446 79 view .LVU990
 2887 0028 A38C     		ldrh	r3, [r4, #36]
 446:lvgl/src/widgets/lv_table.c ****     table->cell_data[0] = NULL;
 2888              		.loc 1 446 72 view .LVU991
 2889 002a 03FB01F1 		mul	r1, r3, r1
 446:lvgl/src/widgets/lv_table.c ****     table->cell_data[0] = NULL;
 2890              		.loc 1 446 24 view .LVU992
 2891 002e 8900     		lsls	r1, r1, #2
 2892 0030 A06A     		ldr	r0, [r4, #40]
 2893 0032 FFF7FEFF 		bl	lv_mem_realloc
 2894              	.LVL302:
 446:lvgl/src/widgets/lv_table.c ****     table->cell_data[0] = NULL;
 2895              		.loc 1 446 22 discriminator 1 view .LVU993
 2896 0036 A062     		str	r0, [r4, #40]
 447:lvgl/src/widgets/lv_table.c **** 
 2897              		.loc 1 447 5 is_stmt 1 view .LVU994
 447:lvgl/src/widgets/lv_table.c **** 
 2898              		.loc 1 447 25 is_stmt 0 view .LVU995
 2899 0038 0023     		movs	r3, #0
 2900 003a 0360     		str	r3, [r0]
 449:lvgl/src/widgets/lv_table.c **** }
 2901              		.loc 1 449 5 is_stmt 1 view .LVU996
 449:lvgl/src/widgets/lv_table.c **** }
 2902              		.loc 1 449 5 view .LVU997
 449:lvgl/src/widgets/lv_table.c **** }
 2903              		.loc 1 449 5 view .LVU998
 450:lvgl/src/widgets/lv_table.c **** 
 2904              		.loc 1 450 1 is_stmt 0 view .LVU999
 2905 003c 10BD     		pop	{r4, pc}
 450:lvgl/src/widgets/lv_table.c **** 
 2906              		.loc 1 450 1 view .LVU1000
ARM GAS  C:\usertemp\ccJd89Xr.s 			page 97


 2907              		.cfi_endproc
 2908              	.LFE170:
 2910              		.section	.text.lv_table_create,"ax",%progbits
 2911              		.align	1
 2912              		.global	lv_table_create
 2913              		.syntax unified
 2914              		.thumb
 2915              		.thumb_func
 2917              	lv_table_create:
 2918              	.LVL303:
 2919              	.LFB156:
  65:lvgl/src/widgets/lv_table.c ****     LV_LOG_INFO("begin");
 2920              		.loc 1 65 1 is_stmt 1 view -0
 2921              		.cfi_startproc
 2922              		@ args = 0, pretend = 0, frame = 0
 2923              		@ frame_needed = 0, uses_anonymous_args = 0
  65:lvgl/src/widgets/lv_table.c ****     LV_LOG_INFO("begin");
 2924              		.loc 1 65 1 is_stmt 0 view .LVU1002
 2925 0000 10B5     		push	{r4, lr}
 2926              	.LCFI20:
 2927              		.cfi_def_cfa_offset 8
 2928              		.cfi_offset 4, -8
 2929              		.cfi_offset 14, -4
 2930 0002 0146     		mov	r1, r0
  66:lvgl/src/widgets/lv_table.c ****     lv_obj_t * obj = lv_obj_class_create_obj(MY_CLASS, parent);
 2931              		.loc 1 66 5 is_stmt 1 view .LVU1003
  66:lvgl/src/widgets/lv_table.c ****     lv_obj_t * obj = lv_obj_class_create_obj(MY_CLASS, parent);
 2932              		.loc 1 66 5 view .LVU1004
  66:lvgl/src/widgets/lv_table.c ****     lv_obj_t * obj = lv_obj_class_create_obj(MY_CLASS, parent);
 2933              		.loc 1 66 5 view .LVU1005
  67:lvgl/src/widgets/lv_table.c ****     lv_obj_class_init_obj(obj);
 2934              		.loc 1 67 5 view .LVU1006
  67:lvgl/src/widgets/lv_table.c ****     lv_obj_class_init_obj(obj);
 2935              		.loc 1 67 22 is_stmt 0 view .LVU1007
 2936 0004 0348     		ldr	r0, .L150
 2937              	.LVL304:
  67:lvgl/src/widgets/lv_table.c ****     lv_obj_class_init_obj(obj);
 2938              		.loc 1 67 22 view .LVU1008
 2939 0006 FFF7FEFF 		bl	lv_obj_class_create_obj
 2940              	.LVL305:
  67:lvgl/src/widgets/lv_table.c ****     lv_obj_class_init_obj(obj);
 2941              		.loc 1 67 22 view .LVU1009
 2942 000a 0446     		mov	r4, r0
 2943              	.LVL306:
  68:lvgl/src/widgets/lv_table.c ****     return obj;
 2944              		.loc 1 68 5 is_stmt 1 view .LVU1010
 2945 000c FFF7FEFF 		bl	lv_obj_class_init_obj
 2946              	.LVL307:
  69:lvgl/src/widgets/lv_table.c **** }
 2947              		.loc 1 69 5 view .LVU1011
  70:lvgl/src/widgets/lv_table.c **** 
 2948              		.loc 1 70 1 is_stmt 0 view .LVU1012
 2949 0010 2046     		mov	r0, r4
 2950 0012 10BD     		pop	{r4, pc}
 2951              	.LVL308:
 2952              	.L151:
  70:lvgl/src/widgets/lv_table.c **** 
ARM GAS  C:\usertemp\ccJd89Xr.s 			page 98


 2953              		.loc 1 70 1 view .LVU1013
 2954              		.align	2
 2955              	.L150:
 2956 0014 00000000 		.word	lv_table_class
 2957              		.cfi_endproc
 2958              	.LFE156:
 2960              		.section	.text.lv_table_set_row_cnt,"ax",%progbits
 2961              		.align	1
 2962              		.global	lv_table_set_row_cnt
 2963              		.syntax unified
 2964              		.thumb
 2965              		.thumb_func
 2967              	lv_table_set_row_cnt:
 2968              	.LVL309:
 2969              	.LFB159:
 206:lvgl/src/widgets/lv_table.c ****     LV_ASSERT_OBJ(obj, MY_CLASS);
 2970              		.loc 1 206 1 is_stmt 1 view -0
 2971              		.cfi_startproc
 2972              		@ args = 0, pretend = 0, frame = 0
 2973              		@ frame_needed = 0, uses_anonymous_args = 0
 206:lvgl/src/widgets/lv_table.c ****     LV_ASSERT_OBJ(obj, MY_CLASS);
 2974              		.loc 1 206 1 is_stmt 0 view .LVU1015
 2975 0000 2DE9F041 		push	{r4, r5, r6, r7, r8, lr}
 2976              	.LCFI21:
 2977              		.cfi_def_cfa_offset 24
 2978              		.cfi_offset 4, -24
 2979              		.cfi_offset 5, -20
 2980              		.cfi_offset 6, -16
 2981              		.cfi_offset 7, -12
 2982              		.cfi_offset 8, -8
 2983              		.cfi_offset 14, -4
 2984 0004 0446     		mov	r4, r0
 2985 0006 0E46     		mov	r6, r1
 207:lvgl/src/widgets/lv_table.c **** 
 2986              		.loc 1 207 5 is_stmt 1 view .LVU1016
 207:lvgl/src/widgets/lv_table.c **** 
 2987              		.loc 1 207 5 view .LVU1017
 207:lvgl/src/widgets/lv_table.c **** 
 2988              		.loc 1 207 5 view .LVU1018
 209:lvgl/src/widgets/lv_table.c ****     uint16_t old_row_cnt = table->row_cnt;
 2989              		.loc 1 209 5 view .LVU1019
 2990              	.LVL310:
 210:lvgl/src/widgets/lv_table.c ****     table->row_cnt         = row_cnt;
 2991              		.loc 1 210 5 view .LVU1020
 210:lvgl/src/widgets/lv_table.c ****     table->row_cnt         = row_cnt;
 2992              		.loc 1 210 14 is_stmt 0 view .LVU1021
 2993 0008 C78C     		ldrh	r7, [r0, #38]
 2994              	.LVL311:
 211:lvgl/src/widgets/lv_table.c **** 
 2995              		.loc 1 211 5 is_stmt 1 view .LVU1022
 211:lvgl/src/widgets/lv_table.c **** 
 2996              		.loc 1 211 28 is_stmt 0 view .LVU1023
 2997 000a C184     		strh	r1, [r0, #38]	@ movhi
 213:lvgl/src/widgets/lv_table.c ****     LV_ASSERT_MALLOC(table->row_h);
 2998              		.loc 1 213 5 is_stmt 1 view .LVU1024
 213:lvgl/src/widgets/lv_table.c ****     LV_ASSERT_MALLOC(table->row_h);
 2999              		.loc 1 213 20 is_stmt 0 view .LVU1025
ARM GAS  C:\usertemp\ccJd89Xr.s 			page 99


 3000 000c 4900     		lsls	r1, r1, #1
 3001              	.LVL312:
 213:lvgl/src/widgets/lv_table.c ****     LV_ASSERT_MALLOC(table->row_h);
 3002              		.loc 1 213 20 view .LVU1026
 3003 000e C06A     		ldr	r0, [r0, #44]
 3004              	.LVL313:
 213:lvgl/src/widgets/lv_table.c ****     LV_ASSERT_MALLOC(table->row_h);
 3005              		.loc 1 213 20 view .LVU1027
 3006 0010 FFF7FEFF 		bl	lv_mem_realloc
 3007              	.LVL314:
 213:lvgl/src/widgets/lv_table.c ****     LV_ASSERT_MALLOC(table->row_h);
 3008              		.loc 1 213 18 discriminator 1 view .LVU1028
 3009 0014 E062     		str	r0, [r4, #44]
 214:lvgl/src/widgets/lv_table.c ****     if(table->row_h == NULL) return;
 3010              		.loc 1 214 5 is_stmt 1 view .LVU1029
 214:lvgl/src/widgets/lv_table.c ****     if(table->row_h == NULL) return;
 3011              		.loc 1 214 5 view .LVU1030
 3012 0016 50B1     		cbz	r0, .L154
 214:lvgl/src/widgets/lv_table.c ****     if(table->row_h == NULL) return;
 3013              		.loc 1 214 5 discriminator 2 view .LVU1031
 214:lvgl/src/widgets/lv_table.c ****     if(table->row_h == NULL) return;
 3014              		.loc 1 214 35 discriminator 2 view .LVU1032
 215:lvgl/src/widgets/lv_table.c **** 
 3015              		.loc 1 215 5 view .LVU1033
 218:lvgl/src/widgets/lv_table.c ****         uint16_t old_cell_cnt = old_row_cnt * table->col_cnt;
 3016              		.loc 1 218 5 view .LVU1034
 218:lvgl/src/widgets/lv_table.c ****         uint16_t old_cell_cnt = old_row_cnt * table->col_cnt;
 3017              		.loc 1 218 7 is_stmt 0 view .LVU1035
 3018 0018 B742     		cmp	r7, r6
 3019 001a 11D9     		bls	.L155
 3020              	.LBB162:
 219:lvgl/src/widgets/lv_table.c ****         uint32_t new_cell_cnt = table->col_cnt * table->row_cnt;
 3021              		.loc 1 219 9 is_stmt 1 view .LVU1036
 219:lvgl/src/widgets/lv_table.c ****         uint32_t new_cell_cnt = table->col_cnt * table->row_cnt;
 3022              		.loc 1 219 52 is_stmt 0 view .LVU1037
 3023 001c A58C     		ldrh	r5, [r4, #36]
 219:lvgl/src/widgets/lv_table.c ****         uint32_t new_cell_cnt = table->col_cnt * table->row_cnt;
 3024              		.loc 1 219 18 view .LVU1038
 3025 001e 15FB07F8 		smulbb	r8, r5, r7
 3026 0022 1FFA88F8 		uxth	r8, r8
 3027              	.LVL315:
 220:lvgl/src/widgets/lv_table.c ****         uint32_t i;
 3028              		.loc 1 220 9 is_stmt 1 view .LVU1039
 220:lvgl/src/widgets/lv_table.c ****         uint32_t i;
 3029              		.loc 1 220 55 is_stmt 0 view .LVU1040
 3030 0026 E38C     		ldrh	r3, [r4, #38]
 220:lvgl/src/widgets/lv_table.c ****         uint32_t i;
 3031              		.loc 1 220 48 view .LVU1041
 3032 0028 03FB05F5 		mul	r5, r3, r5
 3033              	.LVL316:
 221:lvgl/src/widgets/lv_table.c ****         for(i = new_cell_cnt; i < old_cell_cnt; i++) {
 3034              		.loc 1 221 9 is_stmt 1 view .LVU1042
 222:lvgl/src/widgets/lv_table.c ****             lv_mem_free(table->cell_data[i]);
 3035              		.loc 1 222 9 view .LVU1043
 222:lvgl/src/widgets/lv_table.c ****             lv_mem_free(table->cell_data[i]);
 3036              		.loc 1 222 9 is_stmt 0 view .LVU1044
 3037 002c 06E0     		b	.L156
ARM GAS  C:\usertemp\ccJd89Xr.s 			page 100


 3038              	.LVL317:
 3039              	.L154:
 222:lvgl/src/widgets/lv_table.c ****             lv_mem_free(table->cell_data[i]);
 3040              		.loc 1 222 9 view .LVU1045
 3041              	.LBE162:
 214:lvgl/src/widgets/lv_table.c ****     if(table->row_h == NULL) return;
 3042              		.loc 1 214 5 is_stmt 1 discriminator 1 view .LVU1046
 214:lvgl/src/widgets/lv_table.c ****     if(table->row_h == NULL) return;
 3043              		.loc 1 214 5 discriminator 1 view .LVU1047
 214:lvgl/src/widgets/lv_table.c ****     if(table->row_h == NULL) return;
 3044              		.loc 1 214 5 discriminator 1 view .LVU1048
 214:lvgl/src/widgets/lv_table.c ****     if(table->row_h == NULL) return;
 3045              		.loc 1 214 5 discriminator 1 view .LVU1049
 214:lvgl/src/widgets/lv_table.c ****     if(table->row_h == NULL) return;
 3046              		.loc 1 214 5 discriminator 1 view .LVU1050
 3047 002e FEE7     		b	.L154
 3048              	.LVL318:
 3049              	.L157:
 3050              	.LBB163:
 223:lvgl/src/widgets/lv_table.c ****         }
 3051              		.loc 1 223 13 view .LVU1051
 223:lvgl/src/widgets/lv_table.c ****         }
 3052              		.loc 1 223 30 is_stmt 0 view .LVU1052
 3053 0030 A36A     		ldr	r3, [r4, #40]
 223:lvgl/src/widgets/lv_table.c ****         }
 3054              		.loc 1 223 13 view .LVU1053
 3055 0032 53F82500 		ldr	r0, [r3, r5, lsl #2]
 3056 0036 FFF7FEFF 		bl	lv_mem_free
 3057              	.LVL319:
 222:lvgl/src/widgets/lv_table.c ****             lv_mem_free(table->cell_data[i]);
 3058              		.loc 1 222 50 is_stmt 1 discriminator 3 view .LVU1054
 3059 003a 0135     		adds	r5, r5, #1
 3060              	.LVL320:
 3061              	.L156:
 222:lvgl/src/widgets/lv_table.c ****             lv_mem_free(table->cell_data[i]);
 3062              		.loc 1 222 33 discriminator 1 view .LVU1055
 3063 003c A845     		cmp	r8, r5
 3064 003e F7D8     		bhi	.L157
 3065              	.LVL321:
 3066              	.L155:
 222:lvgl/src/widgets/lv_table.c ****             lv_mem_free(table->cell_data[i]);
 3067              		.loc 1 222 33 is_stmt 0 discriminator 1 view .LVU1056
 3068              	.LBE163:
 227:lvgl/src/widgets/lv_table.c ****     LV_ASSERT_MALLOC(table->cell_data);
 3069              		.loc 1 227 5 is_stmt 1 view .LVU1057
 227:lvgl/src/widgets/lv_table.c ****     LV_ASSERT_MALLOC(table->cell_data);
 3070              		.loc 1 227 62 is_stmt 0 view .LVU1058
 3071 0040 E18C     		ldrh	r1, [r4, #38]
 227:lvgl/src/widgets/lv_table.c ****     LV_ASSERT_MALLOC(table->cell_data);
 3072              		.loc 1 227 79 view .LVU1059
 3073 0042 A38C     		ldrh	r3, [r4, #36]
 227:lvgl/src/widgets/lv_table.c ****     LV_ASSERT_MALLOC(table->cell_data);
 3074              		.loc 1 227 72 view .LVU1060
 3075 0044 03FB01F1 		mul	r1, r3, r1
 227:lvgl/src/widgets/lv_table.c ****     LV_ASSERT_MALLOC(table->cell_data);
 3076              		.loc 1 227 24 view .LVU1061
 3077 0048 8900     		lsls	r1, r1, #2
ARM GAS  C:\usertemp\ccJd89Xr.s 			page 101


 3078 004a A06A     		ldr	r0, [r4, #40]
 3079 004c FFF7FEFF 		bl	lv_mem_realloc
 3080              	.LVL322:
 227:lvgl/src/widgets/lv_table.c ****     LV_ASSERT_MALLOC(table->cell_data);
 3081              		.loc 1 227 22 discriminator 1 view .LVU1062
 3082 0050 A062     		str	r0, [r4, #40]
 228:lvgl/src/widgets/lv_table.c ****     if(table->cell_data == NULL) return;
 3083              		.loc 1 228 5 is_stmt 1 view .LVU1063
 228:lvgl/src/widgets/lv_table.c ****     if(table->cell_data == NULL) return;
 3084              		.loc 1 228 5 view .LVU1064
 3085 0052 38B1     		cbz	r0, .L159
 228:lvgl/src/widgets/lv_table.c ****     if(table->cell_data == NULL) return;
 3086              		.loc 1 228 5 discriminator 2 view .LVU1065
 228:lvgl/src/widgets/lv_table.c ****     if(table->cell_data == NULL) return;
 3087              		.loc 1 228 39 discriminator 2 view .LVU1066
 229:lvgl/src/widgets/lv_table.c **** 
 3088              		.loc 1 229 5 view .LVU1067
 232:lvgl/src/widgets/lv_table.c ****         uint32_t old_cell_cnt = old_row_cnt * table->col_cnt;
 3089              		.loc 1 232 5 view .LVU1068
 232:lvgl/src/widgets/lv_table.c ****         uint32_t old_cell_cnt = old_row_cnt * table->col_cnt;
 3090              		.loc 1 232 7 is_stmt 0 view .LVU1069
 3091 0054 B742     		cmp	r7, r6
 3092 0056 06D3     		bcc	.L162
 3093              	.LVL323:
 3094              	.L160:
 238:lvgl/src/widgets/lv_table.c **** }
 3095              		.loc 1 238 5 is_stmt 1 view .LVU1070
 3096 0058 0021     		movs	r1, #0
 3097 005a 2046     		mov	r0, r4
 3098 005c FFF7FEFF 		bl	refr_size
 3099              	.LVL324:
 239:lvgl/src/widgets/lv_table.c **** 
 3100              		.loc 1 239 1 is_stmt 0 view .LVU1071
 3101 0060 BDE8F081 		pop	{r4, r5, r6, r7, r8, pc}
 3102              	.LVL325:
 3103              	.L159:
 228:lvgl/src/widgets/lv_table.c ****     if(table->cell_data == NULL) return;
 3104              		.loc 1 228 5 is_stmt 1 discriminator 1 view .LVU1072
 228:lvgl/src/widgets/lv_table.c ****     if(table->cell_data == NULL) return;
 3105              		.loc 1 228 5 discriminator 1 view .LVU1073
 228:lvgl/src/widgets/lv_table.c ****     if(table->cell_data == NULL) return;
 3106              		.loc 1 228 5 discriminator 1 view .LVU1074
 228:lvgl/src/widgets/lv_table.c ****     if(table->cell_data == NULL) return;
 3107              		.loc 1 228 5 discriminator 1 view .LVU1075
 228:lvgl/src/widgets/lv_table.c ****     if(table->cell_data == NULL) return;
 3108              		.loc 1 228 5 discriminator 1 view .LVU1076
 3109 0064 FEE7     		b	.L159
 3110              	.L162:
 3111              	.LBB164:
 233:lvgl/src/widgets/lv_table.c ****         uint32_t new_cell_cnt = table->col_cnt * table->row_cnt;
 3112              		.loc 1 233 9 view .LVU1077
 233:lvgl/src/widgets/lv_table.c ****         uint32_t new_cell_cnt = table->col_cnt * table->row_cnt;
 3113              		.loc 1 233 52 is_stmt 0 view .LVU1078
 3114 0066 A38C     		ldrh	r3, [r4, #36]
 233:lvgl/src/widgets/lv_table.c ****         uint32_t new_cell_cnt = table->col_cnt * table->row_cnt;
 3115              		.loc 1 233 45 view .LVU1079
 3116 0068 03FB07F7 		mul	r7, r3, r7
ARM GAS  C:\usertemp\ccJd89Xr.s 			page 102


 3117              	.LVL326:
 234:lvgl/src/widgets/lv_table.c ****         lv_memset_00(&table->cell_data[old_cell_cnt], (new_cell_cnt - old_cell_cnt) * sizeof(table-
 3118              		.loc 1 234 9 is_stmt 1 view .LVU1080
 234:lvgl/src/widgets/lv_table.c ****         lv_memset_00(&table->cell_data[old_cell_cnt], (new_cell_cnt - old_cell_cnt) * sizeof(table-
 3119              		.loc 1 234 55 is_stmt 0 view .LVU1081
 3120 006c E28C     		ldrh	r2, [r4, #38]
 234:lvgl/src/widgets/lv_table.c ****         lv_memset_00(&table->cell_data[old_cell_cnt], (new_cell_cnt - old_cell_cnt) * sizeof(table-
 3121              		.loc 1 234 48 view .LVU1082
 3122 006e 02FB03F3 		mul	r3, r2, r3
 3123              	.LVL327:
 235:lvgl/src/widgets/lv_table.c ****     }
 3124              		.loc 1 235 9 is_stmt 1 view .LVU1083
 235:lvgl/src/widgets/lv_table.c ****     }
 3125              		.loc 1 235 69 is_stmt 0 view .LVU1084
 3126 0072 D91B     		subs	r1, r3, r7
 235:lvgl/src/widgets/lv_table.c ****     }
 3127              		.loc 1 235 9 view .LVU1085
 3128 0074 8900     		lsls	r1, r1, #2
 3129 0076 00EB8700 		add	r0, r0, r7, lsl #2
 3130 007a FFF7FEFF 		bl	lv_memset_00
 3131              	.LVL328:
 235:lvgl/src/widgets/lv_table.c ****     }
 3132              		.loc 1 235 9 view .LVU1086
 3133 007e EBE7     		b	.L160
 3134              	.LBE164:
 3135              		.cfi_endproc
 3136              	.LFE159:
 3138              		.section	.text.lv_table_set_cell_value_fmt,"ax",%progbits
 3139              		.align	1
 3140              		.global	lv_table_set_cell_value_fmt
 3141              		.syntax unified
 3142              		.thumb
 3143              		.thumb_func
 3145              	lv_table_set_cell_value_fmt:
 3146              	.LVL329:
 3147              	.LFB158:
 115:lvgl/src/widgets/lv_table.c ****     LV_ASSERT_OBJ(obj, MY_CLASS);
 3148              		.loc 1 115 1 is_stmt 1 view -0
 3149              		.cfi_startproc
 3150              		@ args = 4, pretend = 4, frame = 8
 3151              		@ frame_needed = 0, uses_anonymous_args = 1
 115:lvgl/src/widgets/lv_table.c ****     LV_ASSERT_OBJ(obj, MY_CLASS);
 3152              		.loc 1 115 1 is_stmt 0 view .LVU1088
 3153 0000 08B4     		push	{r3}
 3154              	.LCFI22:
 3155              		.cfi_def_cfa_offset 4
 3156              		.cfi_offset 3, -4
 3157 0002 2DE9F04F 		push	{r4, r5, r6, r7, r8, r9, r10, fp, lr}
 3158              	.LCFI23:
 3159              		.cfi_def_cfa_offset 40
 3160              		.cfi_offset 4, -40
 3161              		.cfi_offset 5, -36
 3162              		.cfi_offset 6, -32
 3163              		.cfi_offset 7, -28
 3164              		.cfi_offset 8, -24
 3165              		.cfi_offset 9, -20
 3166              		.cfi_offset 10, -16
ARM GAS  C:\usertemp\ccJd89Xr.s 			page 103


 3167              		.cfi_offset 11, -12
 3168              		.cfi_offset 14, -8
 3169 0006 88B0     		sub	sp, sp, #32
 3170              	.LCFI24:
 3171              		.cfi_def_cfa_offset 72
 3172 0008 DDF84480 		ldr	r8, [sp, #68]
 116:lvgl/src/widgets/lv_table.c ****     LV_ASSERT_NULL(fmt);
 3173              		.loc 1 116 5 is_stmt 1 view .LVU1089
 116:lvgl/src/widgets/lv_table.c ****     LV_ASSERT_NULL(fmt);
 3174              		.loc 1 116 5 view .LVU1090
 116:lvgl/src/widgets/lv_table.c ****     LV_ASSERT_NULL(fmt);
 3175              		.loc 1 116 5 view .LVU1091
 117:lvgl/src/widgets/lv_table.c **** 
 3176              		.loc 1 117 5 view .LVU1092
 117:lvgl/src/widgets/lv_table.c **** 
 3177              		.loc 1 117 5 view .LVU1093
 3178 000c B8F1000F 		cmp	r8, #0
 3179 0010 00F0AB80 		beq	.L165
 3180 0014 0446     		mov	r4, r0
 3181 0016 0E46     		mov	r6, r1
 3182 0018 1546     		mov	r5, r2
 117:lvgl/src/widgets/lv_table.c **** 
 3183              		.loc 1 117 5 discriminator 2 view .LVU1094
 117:lvgl/src/widgets/lv_table.c **** 
 3184              		.loc 1 117 24 discriminator 2 view .LVU1095
 119:lvgl/src/widgets/lv_table.c ****     if(col >= table->col_cnt) {
 3185              		.loc 1 119 5 view .LVU1096
 3186              	.LVL330:
 120:lvgl/src/widgets/lv_table.c ****         LV_LOG_WARN("lv_table_set_cell_value: invalid column");
 3187              		.loc 1 120 5 view .LVU1097
 120:lvgl/src/widgets/lv_table.c ****         LV_LOG_WARN("lv_table_set_cell_value: invalid column");
 3188              		.loc 1 120 20 is_stmt 0 view .LVU1098
 3189 001a 838C     		ldrh	r3, [r0, #36]
 120:lvgl/src/widgets/lv_table.c ****         LV_LOG_WARN("lv_table_set_cell_value: invalid column");
 3190              		.loc 1 120 7 view .LVU1099
 3191 001c 9342     		cmp	r3, r2
 3192 001e 40F29F80 		bls	.L163
 126:lvgl/src/widgets/lv_table.c ****         lv_table_set_row_cnt(obj, row + 1);
 3193              		.loc 1 126 5 is_stmt 1 view .LVU1100
 126:lvgl/src/widgets/lv_table.c ****         lv_table_set_row_cnt(obj, row + 1);
 3194              		.loc 1 126 20 is_stmt 0 view .LVU1101
 3195 0022 C38C     		ldrh	r3, [r0, #38]
 126:lvgl/src/widgets/lv_table.c ****         lv_table_set_row_cnt(obj, row + 1);
 3196              		.loc 1 126 7 view .LVU1102
 3197 0024 8B42     		cmp	r3, r1
 3198 0026 40F2A180 		bls	.L174
 3199              	.LVL331:
 3200              	.L168:
 130:lvgl/src/widgets/lv_table.c ****     lv_table_cell_ctrl_t ctrl = 0;
 3201              		.loc 1 130 5 is_stmt 1 view .LVU1103
 130:lvgl/src/widgets/lv_table.c ****     lv_table_cell_ctrl_t ctrl = 0;
 3202              		.loc 1 130 32 is_stmt 0 view .LVU1104
 3203 002a A38C     		ldrh	r3, [r4, #36]
 130:lvgl/src/widgets/lv_table.c ****     lv_table_cell_ctrl_t ctrl = 0;
 3204              		.loc 1 130 42 view .LVU1105
 3205 002c 03FB0655 		mla	r5, r3, r6, r5
 3206              	.LVL332:
ARM GAS  C:\usertemp\ccJd89Xr.s 			page 104


 131:lvgl/src/widgets/lv_table.c **** 
 3207              		.loc 1 131 5 is_stmt 1 view .LVU1106
 134:lvgl/src/widgets/lv_table.c **** 
 3208              		.loc 1 134 5 view .LVU1107
 134:lvgl/src/widgets/lv_table.c **** 
 3209              		.loc 1 134 13 is_stmt 0 view .LVU1108
 3210 0030 A36A     		ldr	r3, [r4, #40]
 134:lvgl/src/widgets/lv_table.c **** 
 3211              		.loc 1 134 24 view .LVU1109
 3212 0032 53F82530 		ldr	r3, [r3, r5, lsl #2]
 134:lvgl/src/widgets/lv_table.c **** 
 3213              		.loc 1 134 7 view .LVU1110
 3214 0036 002B     		cmp	r3, #0
 3215 0038 00F09D80 		beq	.L172
 134:lvgl/src/widgets/lv_table.c **** 
 3216              		.loc 1 134 32 is_stmt 1 discriminator 1 view .LVU1111
 134:lvgl/src/widgets/lv_table.c **** 
 3217              		.loc 1 134 37 is_stmt 0 discriminator 1 view .LVU1112
 3218 003c 93F80090 		ldrb	r9, [r3]	@ zero_extendqisi2
 3219              	.LVL333:
 3220              	.L169:
 136:lvgl/src/widgets/lv_table.c ****     va_start(ap, fmt);
 3221              		.loc 1 136 5 is_stmt 1 view .LVU1113
 137:lvgl/src/widgets/lv_table.c ****     va_copy(ap2, ap);
 3222              		.loc 1 137 5 view .LVU1114
 3223 0040 12AB     		add	r3, sp, #72
 3224 0042 0793     		str	r3, [sp, #28]
 138:lvgl/src/widgets/lv_table.c **** 
 3225              		.loc 1 138 5 view .LVU1115
 3226 0044 0693     		str	r3, [sp, #24]
 141:lvgl/src/widgets/lv_table.c ****     va_end(ap);
 3227              		.loc 1 141 5 view .LVU1116
 141:lvgl/src/widgets/lv_table.c ****     va_end(ap);
 3228              		.loc 1 141 20 is_stmt 0 view .LVU1117
 3229 0046 4246     		mov	r2, r8
 3230 0048 0021     		movs	r1, #0
 3231 004a 0846     		mov	r0, r1
 3232 004c FFF7FEFF 		bl	vsnprintf
 3233              	.LVL334:
 3234 0050 0746     		mov	r7, r0
 3235              	.LVL335:
 142:lvgl/src/widgets/lv_table.c **** 
 3236              		.loc 1 142 5 is_stmt 1 view .LVU1118
 167:lvgl/src/widgets/lv_table.c ****     LV_ASSERT_MALLOC(table->cell_data[cell]);
 3237              		.loc 1 167 5 view .LVU1119
 167:lvgl/src/widgets/lv_table.c ****     LV_ASSERT_MALLOC(table->cell_data[cell]);
 3238              		.loc 1 167 50 is_stmt 0 view .LVU1120
 3239 0052 D4F828A0 		ldr	r10, [r4, #40]
 167:lvgl/src/widgets/lv_table.c ****     LV_ASSERT_MALLOC(table->cell_data[cell]);
 3240              		.loc 1 167 30 view .LVU1121
 3241 0056 811C     		adds	r1, r0, #2
 3242 0058 5AF82500 		ldr	r0, [r10, r5, lsl #2]
 3243              	.LVL336:
 167:lvgl/src/widgets/lv_table.c ****     LV_ASSERT_MALLOC(table->cell_data[cell]);
 3244              		.loc 1 167 30 view .LVU1122
 3245 005c FFF7FEFF 		bl	lv_mem_realloc
 3246              	.LVL337:
ARM GAS  C:\usertemp\ccJd89Xr.s 			page 105


 167:lvgl/src/widgets/lv_table.c ****     LV_ASSERT_MALLOC(table->cell_data[cell]);
 3247              		.loc 1 167 28 discriminator 1 view .LVU1123
 3248 0060 4AF82500 		str	r0, [r10, r5, lsl #2]
 168:lvgl/src/widgets/lv_table.c ****     if(table->cell_data[cell] == NULL) {
 3249              		.loc 1 168 5 is_stmt 1 view .LVU1124
 168:lvgl/src/widgets/lv_table.c ****     if(table->cell_data[cell] == NULL) {
 3250              		.loc 1 168 5 view .LVU1125
 3251 0064 A36A     		ldr	r3, [r4, #40]
 3252 0066 53F82530 		ldr	r3, [r3, r5, lsl #2]
 3253 006a 002B     		cmp	r3, #0
 3254 006c 00F08680 		beq	.L171
 168:lvgl/src/widgets/lv_table.c ****     if(table->cell_data[cell] == NULL) {
 3255              		.loc 1 168 5 discriminator 2 view .LVU1126
 168:lvgl/src/widgets/lv_table.c ****     if(table->cell_data[cell] == NULL) {
 3256              		.loc 1 168 45 discriminator 2 view .LVU1127
 169:lvgl/src/widgets/lv_table.c ****         va_end(ap2);
 3257              		.loc 1 169 5 view .LVU1128
 174:lvgl/src/widgets/lv_table.c **** 
 3258              		.loc 1 174 5 view .LVU1129
 174:lvgl/src/widgets/lv_table.c **** 
 3259              		.loc 1 174 27 is_stmt 0 view .LVU1130
 3260 0070 791C     		adds	r1, r7, #1
 174:lvgl/src/widgets/lv_table.c **** 
 3261              		.loc 1 174 37 view .LVU1131
 3262 0072 0022     		movs	r2, #0
 3263 0074 5A54     		strb	r2, [r3, r1]
 176:lvgl/src/widgets/lv_table.c **** #endif
 3264              		.loc 1 176 5 is_stmt 1 view .LVU1132
 176:lvgl/src/widgets/lv_table.c **** #endif
 3265              		.loc 1 176 24 is_stmt 0 view .LVU1133
 3266 0076 A36A     		ldr	r3, [r4, #40]
 176:lvgl/src/widgets/lv_table.c **** #endif
 3267              		.loc 1 176 35 view .LVU1134
 3268 0078 53F82500 		ldr	r0, [r3, r5, lsl #2]
 176:lvgl/src/widgets/lv_table.c **** #endif
 3269              		.loc 1 176 5 view .LVU1135
 3270 007c 069B     		ldr	r3, [sp, #24]
 3271 007e 4246     		mov	r2, r8
 3272 0080 0130     		adds	r0, r0, #1
 3273 0082 FFF7FEFF 		bl	vsnprintf
 3274              	.LVL338:
 179:lvgl/src/widgets/lv_table.c **** 
 3275              		.loc 1 179 5 is_stmt 1 view .LVU1136
 181:lvgl/src/widgets/lv_table.c **** 
 3276              		.loc 1 181 5 view .LVU1137
 181:lvgl/src/widgets/lv_table.c **** 
 3277              		.loc 1 181 10 is_stmt 0 view .LVU1138
 3278 0086 A36A     		ldr	r3, [r4, #40]
 181:lvgl/src/widgets/lv_table.c **** 
 3279              		.loc 1 181 21 view .LVU1139
 3280 0088 53F82530 		ldr	r3, [r3, r5, lsl #2]
 181:lvgl/src/widgets/lv_table.c **** 
 3281              		.loc 1 181 31 view .LVU1140
 3282 008c 83F80090 		strb	r9, [r3]
 184:lvgl/src/widgets/lv_table.c ****     lv_coord_t cell_right = lv_obj_get_style_pad_right(obj, LV_PART_ITEMS);
 3283              		.loc 1 184 5 is_stmt 1 view .LVU1141
 3284              	.LVL339:
ARM GAS  C:\usertemp\ccJd89Xr.s 			page 106


 3285              	.LBB165:
 3286              	.LBI165:
 103:lvgl/src/widgets/../core/lv_obj_style_gen.h **** {
 3287              		.loc 3 103 26 view .LVU1142
 3288              	.LBB166:
 105:lvgl/src/widgets/../core/lv_obj_style_gen.h ****     return (lv_coord_t)v.num;
 3289              		.loc 3 105 5 view .LVU1143
 105:lvgl/src/widgets/../core/lv_obj_style_gen.h ****     return (lv_coord_t)v.num;
 3290              		.loc 3 105 26 is_stmt 0 view .LVU1144
 3291 0090 41F61202 		movw	r2, #6162
 3292 0094 4FF4A021 		mov	r1, #327680
 3293 0098 2046     		mov	r0, r4
 3294 009a FFF7FEFF 		bl	lv_obj_get_style_prop
 3295              	.LVL340:
 106:lvgl/src/widgets/../core/lv_obj_style_gen.h **** }
 3296              		.loc 3 106 5 is_stmt 1 view .LVU1145
 106:lvgl/src/widgets/../core/lv_obj_style_gen.h **** }
 3297              		.loc 3 106 12 is_stmt 0 view .LVU1146
 3298 009e 0FFA80F8 		sxth	r8, r0
 3299              	.LVL341:
 106:lvgl/src/widgets/../core/lv_obj_style_gen.h **** }
 3300              		.loc 3 106 12 view .LVU1147
 3301              	.LBE166:
 3302              	.LBE165:
 185:lvgl/src/widgets/lv_table.c ****     lv_coord_t cell_top = lv_obj_get_style_pad_top(obj, LV_PART_ITEMS);
 3303              		.loc 1 185 5 is_stmt 1 view .LVU1148
 3304              	.LBB167:
 3305              	.LBI167:
 109:lvgl/src/widgets/../core/lv_obj_style_gen.h **** {
 3306              		.loc 3 109 26 view .LVU1149
 3307              	.LBB168:
 111:lvgl/src/widgets/../core/lv_obj_style_gen.h ****     return (lv_coord_t)v.num;
 3308              		.loc 3 111 5 view .LVU1150
 111:lvgl/src/widgets/../core/lv_obj_style_gen.h ****     return (lv_coord_t)v.num;
 3309              		.loc 3 111 26 is_stmt 0 view .LVU1151
 3310 00a2 41F61302 		movw	r2, #6163
 3311 00a6 4FF4A021 		mov	r1, #327680
 3312 00aa 2046     		mov	r0, r4
 3313 00ac FFF7FEFF 		bl	lv_obj_get_style_prop
 3314              	.LVL342:
 112:lvgl/src/widgets/../core/lv_obj_style_gen.h **** }
 3315              		.loc 3 112 5 is_stmt 1 view .LVU1152
 112:lvgl/src/widgets/../core/lv_obj_style_gen.h **** }
 3316              		.loc 3 112 12 is_stmt 0 view .LVU1153
 3317 00b0 0FFA80F9 		sxth	r9, r0
 3318              	.LVL343:
 112:lvgl/src/widgets/../core/lv_obj_style_gen.h **** }
 3319              		.loc 3 112 12 view .LVU1154
 3320              	.LBE168:
 3321              	.LBE167:
 186:lvgl/src/widgets/lv_table.c ****     lv_coord_t cell_bottom = lv_obj_get_style_pad_bottom(obj, LV_PART_ITEMS);
 3322              		.loc 1 186 5 is_stmt 1 view .LVU1155
 3323              	.LBB169:
 3324              	.LBI169:
  91:lvgl/src/widgets/../core/lv_obj_style_gen.h **** {
 3325              		.loc 3 91 26 view .LVU1156
 3326              	.LBB170:
ARM GAS  C:\usertemp\ccJd89Xr.s 			page 107


  93:lvgl/src/widgets/../core/lv_obj_style_gen.h ****     return (lv_coord_t)v.num;
 3327              		.loc 3 93 5 view .LVU1157
  93:lvgl/src/widgets/../core/lv_obj_style_gen.h ****     return (lv_coord_t)v.num;
 3328              		.loc 3 93 26 is_stmt 0 view .LVU1158
 3329 00b4 41F61002 		movw	r2, #6160
 3330 00b8 4FF4A021 		mov	r1, #327680
 3331 00bc 2046     		mov	r0, r4
 3332 00be FFF7FEFF 		bl	lv_obj_get_style_prop
 3333              	.LVL344:
  94:lvgl/src/widgets/../core/lv_obj_style_gen.h **** }
 3334              		.loc 3 94 5 is_stmt 1 view .LVU1159
  94:lvgl/src/widgets/../core/lv_obj_style_gen.h **** }
 3335              		.loc 3 94 12 is_stmt 0 view .LVU1160
 3336 00c2 0FFA80FA 		sxth	r10, r0
 3337              	.LVL345:
  94:lvgl/src/widgets/../core/lv_obj_style_gen.h **** }
 3338              		.loc 3 94 12 view .LVU1161
 3339              	.LBE170:
 3340              	.LBE169:
 187:lvgl/src/widgets/lv_table.c **** 
 3341              		.loc 1 187 5 is_stmt 1 view .LVU1162
 3342              	.LBB171:
 3343              	.LBI171:
  97:lvgl/src/widgets/../core/lv_obj_style_gen.h **** {
 3344              		.loc 3 97 26 view .LVU1163
 3345              	.LBB172:
  99:lvgl/src/widgets/../core/lv_obj_style_gen.h ****     return (lv_coord_t)v.num;
 3346              		.loc 3 99 5 view .LVU1164
  99:lvgl/src/widgets/../core/lv_obj_style_gen.h ****     return (lv_coord_t)v.num;
 3347              		.loc 3 99 26 is_stmt 0 view .LVU1165
 3348 00c6 41F61102 		movw	r2, #6161
 3349 00ca 4FF4A021 		mov	r1, #327680
 3350 00ce 2046     		mov	r0, r4
 3351 00d0 FFF7FEFF 		bl	lv_obj_get_style_prop
 3352              	.LVL346:
 100:lvgl/src/widgets/../core/lv_obj_style_gen.h **** }
 3353              		.loc 3 100 5 is_stmt 1 view .LVU1166
 100:lvgl/src/widgets/../core/lv_obj_style_gen.h **** }
 3354              		.loc 3 100 12 is_stmt 0 view .LVU1167
 3355 00d4 0FFA80FB 		sxth	fp, r0
 3356              	.LVL347:
 100:lvgl/src/widgets/../core/lv_obj_style_gen.h **** }
 3357              		.loc 3 100 12 view .LVU1168
 3358              	.LBE172:
 3359              	.LBE171:
 189:lvgl/src/widgets/lv_table.c ****     lv_coord_t line_space = lv_obj_get_style_text_line_space(obj, LV_PART_ITEMS);
 3360              		.loc 1 189 5 is_stmt 1 view .LVU1169
 3361              	.LBB173:
 3362              	.LBI173:
 457:lvgl/src/widgets/../core/lv_obj_style_gen.h **** {
 3363              		.loc 3 457 26 view .LVU1170
 3364              	.LBB174:
 459:lvgl/src/widgets/../core/lv_obj_style_gen.h ****     return (lv_coord_t)v.num;
 3365              		.loc 3 459 5 view .LVU1171
 459:lvgl/src/widgets/../core/lv_obj_style_gen.h ****     return (lv_coord_t)v.num;
 3366              		.loc 3 459 26 is_stmt 0 view .LVU1172
 3367 00d8 41F25A42 		movw	r2, #5210
ARM GAS  C:\usertemp\ccJd89Xr.s 			page 108


 3368 00dc 4FF4A021 		mov	r1, #327680
 3369 00e0 2046     		mov	r0, r4
 3370 00e2 FFF7FEFF 		bl	lv_obj_get_style_prop
 3371              	.LVL348:
 460:lvgl/src/widgets/../core/lv_obj_style_gen.h **** }
 3372              		.loc 3 460 5 is_stmt 1 view .LVU1173
 460:lvgl/src/widgets/../core/lv_obj_style_gen.h **** }
 3373              		.loc 3 460 12 is_stmt 0 view .LVU1174
 3374 00e6 05B2     		sxth	r5, r0
 3375              	.LVL349:
 460:lvgl/src/widgets/../core/lv_obj_style_gen.h **** }
 3376              		.loc 3 460 12 view .LVU1175
 3377              	.LBE174:
 3378              	.LBE173:
 190:lvgl/src/widgets/lv_table.c ****     const lv_font_t * font = lv_obj_get_style_text_font(obj, LV_PART_ITEMS);
 3379              		.loc 1 190 5 is_stmt 1 view .LVU1176
 3380              	.LBB175:
 3381              	.LBI175:
 463:lvgl/src/widgets/../core/lv_obj_style_gen.h **** {
 3382              		.loc 3 463 26 view .LVU1177
 3383              	.LBB176:
 465:lvgl/src/widgets/../core/lv_obj_style_gen.h ****     return (lv_coord_t)v.num;
 3384              		.loc 3 465 5 view .LVU1178
 465:lvgl/src/widgets/../core/lv_obj_style_gen.h ****     return (lv_coord_t)v.num;
 3385              		.loc 3 465 26 is_stmt 0 view .LVU1179
 3386 00e8 41F25B42 		movw	r2, #5211
 3387 00ec 4FF4A021 		mov	r1, #327680
 3388 00f0 2046     		mov	r0, r4
 3389 00f2 FFF7FEFF 		bl	lv_obj_get_style_prop
 3390              	.LVL350:
 466:lvgl/src/widgets/../core/lv_obj_style_gen.h **** }
 3391              		.loc 3 466 5 is_stmt 1 view .LVU1180
 466:lvgl/src/widgets/../core/lv_obj_style_gen.h **** }
 3392              		.loc 3 466 12 is_stmt 0 view .LVU1181
 3393 00f6 07B2     		sxth	r7, r0
 3394              	.LVL351:
 466:lvgl/src/widgets/../core/lv_obj_style_gen.h **** }
 3395              		.loc 3 466 12 view .LVU1182
 3396              	.LBE176:
 3397              	.LBE175:
 191:lvgl/src/widgets/lv_table.c **** 
 3398              		.loc 1 191 5 is_stmt 1 view .LVU1183
 3399              	.LBB177:
 3400              	.LBI177:
 451:lvgl/src/widgets/../core/lv_obj_style_gen.h **** {
 3401              		.loc 3 451 33 view .LVU1184
 3402              	.LBB178:
 453:lvgl/src/widgets/../core/lv_obj_style_gen.h ****     return (const lv_font_t *)v.ptr;
 3403              		.loc 3 453 5 view .LVU1185
 453:lvgl/src/widgets/../core/lv_obj_style_gen.h ****     return (const lv_font_t *)v.ptr;
 3404              		.loc 3 453 26 is_stmt 0 view .LVU1186
 3405 00f8 41F25942 		movw	r2, #5209
 3406 00fc 4FF4A021 		mov	r1, #327680
 3407 0100 2046     		mov	r0, r4
 3408 0102 FFF7FEFF 		bl	lv_obj_get_style_prop
 3409              	.LVL352:
 3410 0106 0246     		mov	r2, r0
ARM GAS  C:\usertemp\ccJd89Xr.s 			page 109


 454:lvgl/src/widgets/../core/lv_obj_style_gen.h **** }
 3411              		.loc 3 454 5 is_stmt 1 view .LVU1187
 3412              	.LVL353:
 454:lvgl/src/widgets/../core/lv_obj_style_gen.h **** }
 3413              		.loc 3 454 5 is_stmt 0 view .LVU1188
 3414              	.LBE178:
 3415              	.LBE177:
 193:lvgl/src/widgets/lv_table.c ****                                   cell_left, cell_right, cell_top, cell_bottom);
 3416              		.loc 1 193 5 is_stmt 1 view .LVU1189
 193:lvgl/src/widgets/lv_table.c ****                                   cell_left, cell_right, cell_top, cell_bottom);
 3417              		.loc 1 193 20 is_stmt 0 view .LVU1190
 3418 0108 CDF810B0 		str	fp, [sp, #16]
 3419 010c CDF80CA0 		str	r10, [sp, #12]
 3420 0110 CDF80890 		str	r9, [sp, #8]
 3421 0114 CDF80480 		str	r8, [sp, #4]
 3422 0118 0097     		str	r7, [sp]
 3423 011a 2B46     		mov	r3, r5
 3424 011c 3146     		mov	r1, r6
 3425 011e 2046     		mov	r0, r4
 3426              	.LVL354:
 193:lvgl/src/widgets/lv_table.c ****                                   cell_left, cell_right, cell_top, cell_bottom);
 3427              		.loc 1 193 20 view .LVU1191
 3428 0120 FFF7FEFF 		bl	get_row_height
 3429              	.LVL355:
 193:lvgl/src/widgets/lv_table.c ****                                   cell_left, cell_right, cell_top, cell_bottom);
 3430              		.loc 1 193 20 view .LVU1192
 3431 0124 0546     		mov	r5, r0
 3432              	.LVL356:
 197:lvgl/src/widgets/lv_table.c ****     lv_coord_t maxh = lv_obj_get_style_max_height(obj, LV_PART_ITEMS);
 3433              		.loc 1 197 5 is_stmt 1 view .LVU1193
 3434              	.LBB179:
 3435              	.LBI179:
  25:lvgl/src/widgets/../core/lv_obj_style_gen.h **** {
 3436              		.loc 3 25 26 view .LVU1194
 3437              	.LBB180:
  27:lvgl/src/widgets/../core/lv_obj_style_gen.h ****     return (lv_coord_t)v.num;
 3438              		.loc 3 27 5 view .LVU1195
  27:lvgl/src/widgets/../core/lv_obj_style_gen.h ****     return (lv_coord_t)v.num;
 3439              		.loc 3 27 26 is_stmt 0 view .LVU1196
 3440 0126 41F20502 		movw	r2, #4101
 3441 012a 4FF4A021 		mov	r1, #327680
 3442 012e 2046     		mov	r0, r4
 3443 0130 FFF7FEFF 		bl	lv_obj_get_style_prop
 3444              	.LVL357:
  28:lvgl/src/widgets/../core/lv_obj_style_gen.h **** }
 3445              		.loc 3 28 5 is_stmt 1 view .LVU1197
  28:lvgl/src/widgets/../core/lv_obj_style_gen.h **** }
 3446              		.loc 3 28 12 is_stmt 0 view .LVU1198
 3447 0134 07B2     		sxth	r7, r0
 3448              	.LVL358:
  28:lvgl/src/widgets/../core/lv_obj_style_gen.h **** }
 3449              		.loc 3 28 12 view .LVU1199
 3450              	.LBE180:
 3451              	.LBE179:
 198:lvgl/src/widgets/lv_table.c **** 
 3452              		.loc 1 198 5 is_stmt 1 view .LVU1200
 3453              	.LBB181:
ARM GAS  C:\usertemp\ccJd89Xr.s 			page 110


 3454              	.LBI181:
  31:lvgl/src/widgets/../core/lv_obj_style_gen.h **** {
 3455              		.loc 3 31 26 view .LVU1201
 3456              	.LBB182:
  33:lvgl/src/widgets/../core/lv_obj_style_gen.h ****     return (lv_coord_t)v.num;
 3457              		.loc 3 33 5 view .LVU1202
  33:lvgl/src/widgets/../core/lv_obj_style_gen.h ****     return (lv_coord_t)v.num;
 3458              		.loc 3 33 26 is_stmt 0 view .LVU1203
 3459 0136 41F20602 		movw	r2, #4102
 3460 013a 4FF4A021 		mov	r1, #327680
 3461 013e 2046     		mov	r0, r4
 3462 0140 FFF7FEFF 		bl	lv_obj_get_style_prop
 3463              	.LVL359:
  34:lvgl/src/widgets/../core/lv_obj_style_gen.h **** }
 3464              		.loc 3 34 5 is_stmt 1 view .LVU1204
  34:lvgl/src/widgets/../core/lv_obj_style_gen.h **** }
 3465              		.loc 3 34 12 is_stmt 0 view .LVU1205
 3466 0144 03B2     		sxth	r3, r0
 3467              	.LVL360:
  34:lvgl/src/widgets/../core/lv_obj_style_gen.h **** }
 3468              		.loc 3 34 12 view .LVU1206
 3469              	.LBE182:
 3470              	.LBE181:
 200:lvgl/src/widgets/lv_table.c **** 
 3471              		.loc 1 200 5 is_stmt 1 view .LVU1207
 200:lvgl/src/widgets/lv_table.c **** 
 3472              		.loc 1 200 25 is_stmt 0 view .LVU1208
 3473 0146 9D42     		cmp	r5, r3
 3474 0148 A8BF     		it	ge
 3475 014a 1D46     		movge	r5, r3
 3476              	.LVL361:
 200:lvgl/src/widgets/lv_table.c **** 
 3477              		.loc 1 200 25 view .LVU1209
 3478 014c 2BB2     		sxth	r3, r5
 3479              	.LVL362:
 200:lvgl/src/widgets/lv_table.c **** 
 3480              		.loc 1 200 10 view .LVU1210
 3481 014e E26A     		ldr	r2, [r4, #44]
 200:lvgl/src/widgets/lv_table.c **** 
 3482              		.loc 1 200 25 view .LVU1211
 3483 0150 BB42     		cmp	r3, r7
 3484 0152 B8BF     		it	lt
 3485 0154 3B46     		movlt	r3, r7
 200:lvgl/src/widgets/lv_table.c **** 
 3486              		.loc 1 200 23 view .LVU1212
 3487 0156 22F81630 		strh	r3, [r2, r6, lsl #1]	@ movhi
 202:lvgl/src/widgets/lv_table.c **** }
 3488              		.loc 1 202 5 is_stmt 1 view .LVU1213
 3489 015a 2046     		mov	r0, r4
 3490              	.LVL363:
 202:lvgl/src/widgets/lv_table.c **** }
 3491              		.loc 1 202 5 is_stmt 0 view .LVU1214
 3492 015c FFF7FEFF 		bl	lv_obj_invalidate
 3493              	.LVL364:
 3494              	.L163:
 203:lvgl/src/widgets/lv_table.c **** 
 3495              		.loc 1 203 1 view .LVU1215
ARM GAS  C:\usertemp\ccJd89Xr.s 			page 111


 3496 0160 08B0     		add	sp, sp, #32
 3497              	.LCFI25:
 3498              		.cfi_remember_state
 3499              		.cfi_def_cfa_offset 40
 3500              		@ sp needed
 3501 0162 BDE8F04F 		pop	{r4, r5, r6, r7, r8, r9, r10, fp, lr}
 3502              	.LCFI26:
 3503              		.cfi_restore 14
 3504              		.cfi_restore 11
 3505              		.cfi_restore 10
 3506              		.cfi_restore 9
 3507              		.cfi_restore 8
 3508              		.cfi_restore 7
 3509              		.cfi_restore 6
 3510              		.cfi_restore 5
 3511              		.cfi_restore 4
 3512              		.cfi_def_cfa_offset 4
 3513              	.LVL365:
 203:lvgl/src/widgets/lv_table.c **** 
 3514              		.loc 1 203 1 view .LVU1216
 3515 0166 01B0     		add	sp, sp, #4
 3516              	.LCFI27:
 3517              		.cfi_restore 3
 3518              		.cfi_def_cfa_offset 0
 3519 0168 7047     		bx	lr
 3520              	.LVL366:
 3521              	.L165:
 3522              	.LCFI28:
 3523              		.cfi_restore_state
 117:lvgl/src/widgets/lv_table.c **** 
 3524              		.loc 1 117 5 is_stmt 1 discriminator 1 view .LVU1217
 117:lvgl/src/widgets/lv_table.c **** 
 3525              		.loc 1 117 5 discriminator 1 view .LVU1218
 117:lvgl/src/widgets/lv_table.c **** 
 3526              		.loc 1 117 5 discriminator 1 view .LVU1219
 117:lvgl/src/widgets/lv_table.c **** 
 3527              		.loc 1 117 5 discriminator 1 view .LVU1220
 117:lvgl/src/widgets/lv_table.c **** 
 3528              		.loc 1 117 5 discriminator 1 view .LVU1221
 3529 016a FEE7     		b	.L165
 3530              	.LVL367:
 3531              	.L174:
 127:lvgl/src/widgets/lv_table.c ****     }
 3532              		.loc 1 127 9 view .LVU1222
 3533 016c 0131     		adds	r1, r1, #1
 3534              	.LVL368:
 127:lvgl/src/widgets/lv_table.c ****     }
 3535              		.loc 1 127 9 is_stmt 0 view .LVU1223
 3536 016e 89B2     		uxth	r1, r1
 3537 0170 FFF7FEFF 		bl	lv_table_set_row_cnt
 3538              	.LVL369:
 127:lvgl/src/widgets/lv_table.c ****     }
 3539              		.loc 1 127 9 view .LVU1224
 3540 0174 59E7     		b	.L168
 3541              	.LVL370:
 3542              	.L172:
 131:lvgl/src/widgets/lv_table.c **** 
ARM GAS  C:\usertemp\ccJd89Xr.s 			page 112


 3543              		.loc 1 131 26 view .LVU1225
 3544 0176 4FF00009 		mov	r9, #0
 3545 017a 61E7     		b	.L169
 3546              	.LVL371:
 3547              	.L171:
 168:lvgl/src/widgets/lv_table.c ****     if(table->cell_data[cell] == NULL) {
 3548              		.loc 1 168 5 is_stmt 1 discriminator 1 view .LVU1226
 168:lvgl/src/widgets/lv_table.c ****     if(table->cell_data[cell] == NULL) {
 3549              		.loc 1 168 5 discriminator 1 view .LVU1227
 168:lvgl/src/widgets/lv_table.c ****     if(table->cell_data[cell] == NULL) {
 3550              		.loc 1 168 5 discriminator 1 view .LVU1228
 168:lvgl/src/widgets/lv_table.c ****     if(table->cell_data[cell] == NULL) {
 3551              		.loc 1 168 5 discriminator 1 view .LVU1229
 168:lvgl/src/widgets/lv_table.c ****     if(table->cell_data[cell] == NULL) {
 3552              		.loc 1 168 5 discriminator 1 view .LVU1230
 3553 017c FEE7     		b	.L171
 3554              		.cfi_endproc
 3555              	.LFE158:
 3557              		.section	.text.lv_table_set_col_cnt,"ax",%progbits
 3558              		.align	1
 3559              		.global	lv_table_set_col_cnt
 3560              		.syntax unified
 3561              		.thumb
 3562              		.thumb_func
 3564              	lv_table_set_col_cnt:
 3565              	.LVL372:
 3566              	.LFB160:
 242:lvgl/src/widgets/lv_table.c ****     LV_ASSERT_OBJ(obj, MY_CLASS);
 3567              		.loc 1 242 1 view -0
 3568              		.cfi_startproc
 3569              		@ args = 0, pretend = 0, frame = 0
 3570              		@ frame_needed = 0, uses_anonymous_args = 0
 242:lvgl/src/widgets/lv_table.c ****     LV_ASSERT_OBJ(obj, MY_CLASS);
 3571              		.loc 1 242 1 is_stmt 0 view .LVU1232
 3572 0000 2DE9F041 		push	{r4, r5, r6, r7, r8, lr}
 3573              	.LCFI29:
 3574              		.cfi_def_cfa_offset 24
 3575              		.cfi_offset 4, -24
 3576              		.cfi_offset 5, -20
 3577              		.cfi_offset 6, -16
 3578              		.cfi_offset 7, -12
 3579              		.cfi_offset 8, -8
 3580              		.cfi_offset 14, -4
 3581 0004 0446     		mov	r4, r0
 3582 0006 0D46     		mov	r5, r1
 243:lvgl/src/widgets/lv_table.c **** 
 3583              		.loc 1 243 5 is_stmt 1 view .LVU1233
 243:lvgl/src/widgets/lv_table.c **** 
 3584              		.loc 1 243 5 view .LVU1234
 243:lvgl/src/widgets/lv_table.c **** 
 3585              		.loc 1 243 5 view .LVU1235
 245:lvgl/src/widgets/lv_table.c ****     uint16_t old_col_cnt = table->col_cnt;
 3586              		.loc 1 245 5 view .LVU1236
 3587              	.LVL373:
 246:lvgl/src/widgets/lv_table.c ****     table->col_cnt         = col_cnt;
 3588              		.loc 1 246 5 view .LVU1237
 246:lvgl/src/widgets/lv_table.c ****     table->col_cnt         = col_cnt;
ARM GAS  C:\usertemp\ccJd89Xr.s 			page 113


 3589              		.loc 1 246 14 is_stmt 0 view .LVU1238
 3590 0008 868C     		ldrh	r6, [r0, #36]
 3591              	.LVL374:
 247:lvgl/src/widgets/lv_table.c ****     table->col_w = lv_mem_realloc(table->col_w, col_cnt * sizeof(table->row_h[0]));
 3592              		.loc 1 247 5 is_stmt 1 view .LVU1239
 247:lvgl/src/widgets/lv_table.c ****     table->col_w = lv_mem_realloc(table->col_w, col_cnt * sizeof(table->row_h[0]));
 3593              		.loc 1 247 28 is_stmt 0 view .LVU1240
 3594 000a 8184     		strh	r1, [r0, #36]	@ movhi
 248:lvgl/src/widgets/lv_table.c ****     LV_ASSERT_MALLOC(table->col_w);
 3595              		.loc 1 248 5 is_stmt 1 view .LVU1241
 248:lvgl/src/widgets/lv_table.c ****     LV_ASSERT_MALLOC(table->col_w);
 3596              		.loc 1 248 20 is_stmt 0 view .LVU1242
 3597 000c 4900     		lsls	r1, r1, #1
 3598              	.LVL375:
 248:lvgl/src/widgets/lv_table.c ****     LV_ASSERT_MALLOC(table->col_w);
 3599              		.loc 1 248 20 view .LVU1243
 3600 000e 006B     		ldr	r0, [r0, #48]
 3601              	.LVL376:
 248:lvgl/src/widgets/lv_table.c ****     LV_ASSERT_MALLOC(table->col_w);
 3602              		.loc 1 248 20 view .LVU1244
 3603 0010 FFF7FEFF 		bl	lv_mem_realloc
 3604              	.LVL377:
 248:lvgl/src/widgets/lv_table.c ****     LV_ASSERT_MALLOC(table->col_w);
 3605              		.loc 1 248 18 discriminator 1 view .LVU1245
 3606 0014 2063     		str	r0, [r4, #48]
 249:lvgl/src/widgets/lv_table.c ****     if(table->col_w == NULL) return;
 3607              		.loc 1 249 5 is_stmt 1 view .LVU1246
 249:lvgl/src/widgets/lv_table.c ****     if(table->col_w == NULL) return;
 3608              		.loc 1 249 5 view .LVU1247
 3609 0016 50B1     		cbz	r0, .L177
 249:lvgl/src/widgets/lv_table.c ****     if(table->col_w == NULL) return;
 3610              		.loc 1 249 5 discriminator 2 view .LVU1248
 249:lvgl/src/widgets/lv_table.c ****     if(table->col_w == NULL) return;
 3611              		.loc 1 249 35 discriminator 2 view .LVU1249
 250:lvgl/src/widgets/lv_table.c **** 
 3612              		.loc 1 250 5 view .LVU1250
 253:lvgl/src/widgets/lv_table.c ****         uint16_t old_cell_cnt = old_col_cnt * table->row_cnt;
 3613              		.loc 1 253 5 view .LVU1251
 253:lvgl/src/widgets/lv_table.c ****         uint16_t old_cell_cnt = old_col_cnt * table->row_cnt;
 3614              		.loc 1 253 7 is_stmt 0 view .LVU1252
 3615 0018 AE42     		cmp	r6, r5
 3616 001a 11D9     		bls	.L178
 3617              	.LBB183:
 254:lvgl/src/widgets/lv_table.c ****         uint32_t new_cell_cnt = table->col_cnt * table->row_cnt;
 3618              		.loc 1 254 9 is_stmt 1 view .LVU1253
 254:lvgl/src/widgets/lv_table.c ****         uint32_t new_cell_cnt = table->col_cnt * table->row_cnt;
 3619              		.loc 1 254 52 is_stmt 0 view .LVU1254
 3620 001c E38C     		ldrh	r3, [r4, #38]
 254:lvgl/src/widgets/lv_table.c ****         uint32_t new_cell_cnt = table->col_cnt * table->row_cnt;
 3621              		.loc 1 254 18 view .LVU1255
 3622 001e 13FB06F8 		smulbb	r8, r3, r6
 3623 0022 1FFA88F8 		uxth	r8, r8
 3624              	.LVL378:
 255:lvgl/src/widgets/lv_table.c ****         uint32_t i;
 3625              		.loc 1 255 9 is_stmt 1 view .LVU1256
 255:lvgl/src/widgets/lv_table.c ****         uint32_t i;
 3626              		.loc 1 255 38 is_stmt 0 view .LVU1257
ARM GAS  C:\usertemp\ccJd89Xr.s 			page 114


 3627 0026 A78C     		ldrh	r7, [r4, #36]
 255:lvgl/src/widgets/lv_table.c ****         uint32_t i;
 3628              		.loc 1 255 48 view .LVU1258
 3629 0028 03FB07F7 		mul	r7, r3, r7
 3630              	.LVL379:
 256:lvgl/src/widgets/lv_table.c ****         for(i = new_cell_cnt; i < old_cell_cnt; i++) {
 3631              		.loc 1 256 9 is_stmt 1 view .LVU1259
 257:lvgl/src/widgets/lv_table.c ****             lv_mem_free(table->cell_data[i]);
 3632              		.loc 1 257 9 view .LVU1260
 257:lvgl/src/widgets/lv_table.c ****             lv_mem_free(table->cell_data[i]);
 3633              		.loc 1 257 9 is_stmt 0 view .LVU1261
 3634 002c 06E0     		b	.L179
 3635              	.LVL380:
 3636              	.L177:
 257:lvgl/src/widgets/lv_table.c ****             lv_mem_free(table->cell_data[i]);
 3637              		.loc 1 257 9 view .LVU1262
 3638              	.LBE183:
 249:lvgl/src/widgets/lv_table.c ****     if(table->col_w == NULL) return;
 3639              		.loc 1 249 5 is_stmt 1 discriminator 1 view .LVU1263
 249:lvgl/src/widgets/lv_table.c ****     if(table->col_w == NULL) return;
 3640              		.loc 1 249 5 discriminator 1 view .LVU1264
 249:lvgl/src/widgets/lv_table.c ****     if(table->col_w == NULL) return;
 3641              		.loc 1 249 5 discriminator 1 view .LVU1265
 249:lvgl/src/widgets/lv_table.c ****     if(table->col_w == NULL) return;
 3642              		.loc 1 249 5 discriminator 1 view .LVU1266
 249:lvgl/src/widgets/lv_table.c ****     if(table->col_w == NULL) return;
 3643              		.loc 1 249 5 discriminator 1 view .LVU1267
 3644 002e FEE7     		b	.L177
 3645              	.LVL381:
 3646              	.L180:
 3647              	.LBB184:
 258:lvgl/src/widgets/lv_table.c ****         }
 3648              		.loc 1 258 13 view .LVU1268
 258:lvgl/src/widgets/lv_table.c ****         }
 3649              		.loc 1 258 30 is_stmt 0 view .LVU1269
 3650 0030 A36A     		ldr	r3, [r4, #40]
 258:lvgl/src/widgets/lv_table.c ****         }
 3651              		.loc 1 258 13 view .LVU1270
 3652 0032 53F82700 		ldr	r0, [r3, r7, lsl #2]
 3653 0036 FFF7FEFF 		bl	lv_mem_free
 3654              	.LVL382:
 257:lvgl/src/widgets/lv_table.c ****             lv_mem_free(table->cell_data[i]);
 3655              		.loc 1 257 50 is_stmt 1 discriminator 3 view .LVU1271
 3656 003a 0137     		adds	r7, r7, #1
 3657              	.LVL383:
 3658              	.L179:
 257:lvgl/src/widgets/lv_table.c ****             lv_mem_free(table->cell_data[i]);
 3659              		.loc 1 257 33 discriminator 1 view .LVU1272
 3660 003c B845     		cmp	r8, r7
 3661 003e F7D8     		bhi	.L180
 3662              	.LVL384:
 3663              	.L178:
 257:lvgl/src/widgets/lv_table.c ****             lv_mem_free(table->cell_data[i]);
 3664              		.loc 1 257 33 is_stmt 0 discriminator 1 view .LVU1273
 3665              	.LBE184:
 262:lvgl/src/widgets/lv_table.c ****     LV_ASSERT_MALLOC(new_cell_data);
 3666              		.loc 1 262 5 is_stmt 1 view .LVU1274
ARM GAS  C:\usertemp\ccJd89Xr.s 			page 115


 262:lvgl/src/widgets/lv_table.c ****     LV_ASSERT_MALLOC(new_cell_data);
 3667              		.loc 1 262 47 is_stmt 0 view .LVU1275
 3668 0040 E08C     		ldrh	r0, [r4, #38]
 262:lvgl/src/widgets/lv_table.c ****     LV_ASSERT_MALLOC(new_cell_data);
 3669              		.loc 1 262 64 view .LVU1276
 3670 0042 A38C     		ldrh	r3, [r4, #36]
 262:lvgl/src/widgets/lv_table.c ****     LV_ASSERT_MALLOC(new_cell_data);
 3671              		.loc 1 262 57 view .LVU1277
 3672 0044 03FB00F0 		mul	r0, r3, r0
 262:lvgl/src/widgets/lv_table.c ****     LV_ASSERT_MALLOC(new_cell_data);
 3673              		.loc 1 262 29 view .LVU1278
 3674 0048 8000     		lsls	r0, r0, #2
 3675 004a FFF7FEFF 		bl	lv_mem_alloc
 3676              	.LVL385:
 263:lvgl/src/widgets/lv_table.c ****     if(new_cell_data == NULL) return;
 3677              		.loc 1 263 5 is_stmt 1 view .LVU1279
 263:lvgl/src/widgets/lv_table.c ****     if(new_cell_data == NULL) return;
 3678              		.loc 1 263 5 view .LVU1280
 3679 004e 0746     		mov	r7, r0
 3680 0050 50B1     		cbz	r0, .L182
 263:lvgl/src/widgets/lv_table.c ****     if(new_cell_data == NULL) return;
 3681              		.loc 1 263 5 discriminator 2 view .LVU1281
 263:lvgl/src/widgets/lv_table.c ****     if(new_cell_data == NULL) return;
 3682              		.loc 1 263 36 discriminator 2 view .LVU1282
 264:lvgl/src/widgets/lv_table.c ****     uint32_t new_cell_cnt = table->col_cnt * table->row_cnt;
 3683              		.loc 1 264 5 view .LVU1283
 265:lvgl/src/widgets/lv_table.c ****     lv_memset_00(new_cell_data, new_cell_cnt * sizeof(table->cell_data[0]));
 3684              		.loc 1 265 5 view .LVU1284
 265:lvgl/src/widgets/lv_table.c ****     lv_memset_00(new_cell_data, new_cell_cnt * sizeof(table->cell_data[0]));
 3685              		.loc 1 265 34 is_stmt 0 view .LVU1285
 3686 0052 A18C     		ldrh	r1, [r4, #36]
 265:lvgl/src/widgets/lv_table.c ****     lv_memset_00(new_cell_data, new_cell_cnt * sizeof(table->cell_data[0]));
 3687              		.loc 1 265 51 view .LVU1286
 3688 0054 E38C     		ldrh	r3, [r4, #38]
 265:lvgl/src/widgets/lv_table.c ****     lv_memset_00(new_cell_data, new_cell_cnt * sizeof(table->cell_data[0]));
 3689              		.loc 1 265 44 view .LVU1287
 3690 0056 03FB01F1 		mul	r1, r3, r1
 3691              	.LVL386:
 266:lvgl/src/widgets/lv_table.c **** 
 3692              		.loc 1 266 5 is_stmt 1 view .LVU1288
 3693 005a 8900     		lsls	r1, r1, #2
 3694              	.LVL387:
 266:lvgl/src/widgets/lv_table.c **** 
 3695              		.loc 1 266 5 is_stmt 0 view .LVU1289
 3696 005c FFF7FEFF 		bl	lv_memset_00
 3697              	.LVL388:
 269:lvgl/src/widgets/lv_table.c ****         uint32_t col;
 3698              		.loc 1 269 5 is_stmt 1 view .LVU1290
 269:lvgl/src/widgets/lv_table.c ****         uint32_t col;
 3699              		.loc 1 269 7 is_stmt 0 view .LVU1291
 3700 0060 AE42     		cmp	r6, r5
 3701 0062 09D2     		bcs	.L183
 3702              	.LBB185:
 270:lvgl/src/widgets/lv_table.c ****         for(col = old_col_cnt; col < col_cnt; col++) {
 3703              		.loc 1 270 9 is_stmt 1 view .LVU1292
 271:lvgl/src/widgets/lv_table.c ****             table->col_w[col] = LV_DPI_DEF;
 3704              		.loc 1 271 9 view .LVU1293
ARM GAS  C:\usertemp\ccJd89Xr.s 			page 116


 271:lvgl/src/widgets/lv_table.c ****             table->col_w[col] = LV_DPI_DEF;
 3705              		.loc 1 271 17 is_stmt 0 view .LVU1294
 3706 0064 3346     		mov	r3, r6
 3707              	.LVL389:
 271:lvgl/src/widgets/lv_table.c ****             table->col_w[col] = LV_DPI_DEF;
 3708              		.loc 1 271 9 view .LVU1295
 3709 0066 05E0     		b	.L184
 3710              	.LVL390:
 3711              	.L182:
 271:lvgl/src/widgets/lv_table.c ****             table->col_w[col] = LV_DPI_DEF;
 3712              		.loc 1 271 9 view .LVU1296
 3713              	.LBE185:
 263:lvgl/src/widgets/lv_table.c ****     if(new_cell_data == NULL) return;
 3714              		.loc 1 263 5 is_stmt 1 discriminator 1 view .LVU1297
 263:lvgl/src/widgets/lv_table.c ****     if(new_cell_data == NULL) return;
 3715              		.loc 1 263 5 discriminator 1 view .LVU1298
 263:lvgl/src/widgets/lv_table.c ****     if(new_cell_data == NULL) return;
 3716              		.loc 1 263 5 discriminator 1 view .LVU1299
 263:lvgl/src/widgets/lv_table.c ****     if(new_cell_data == NULL) return;
 3717              		.loc 1 263 5 discriminator 1 view .LVU1300
 263:lvgl/src/widgets/lv_table.c ****     if(new_cell_data == NULL) return;
 3718              		.loc 1 263 5 discriminator 1 view .LVU1301
 3719 0068 FEE7     		b	.L182
 3720              	.LVL391:
 3721              	.L185:
 3722              	.LBB186:
 272:lvgl/src/widgets/lv_table.c ****         }
 3723              		.loc 1 272 13 view .LVU1302
 272:lvgl/src/widgets/lv_table.c ****         }
 3724              		.loc 1 272 18 is_stmt 0 view .LVU1303
 3725 006a 226B     		ldr	r2, [r4, #48]
 272:lvgl/src/widgets/lv_table.c ****         }
 3726              		.loc 1 272 31 view .LVU1304
 3727 006c 8221     		movs	r1, #130
 3728 006e 22F81310 		strh	r1, [r2, r3, lsl #1]	@ movhi
 271:lvgl/src/widgets/lv_table.c ****             table->col_w[col] = LV_DPI_DEF;
 3729              		.loc 1 271 50 is_stmt 1 discriminator 3 view .LVU1305
 3730 0072 0133     		adds	r3, r3, #1
 3731              	.LVL392:
 3732              	.L184:
 271:lvgl/src/widgets/lv_table.c ****             table->col_w[col] = LV_DPI_DEF;
 3733              		.loc 1 271 36 discriminator 1 view .LVU1306
 3734 0074 9D42     		cmp	r5, r3
 3735 0076 F8D8     		bhi	.L185
 3736              	.LVL393:
 3737              	.L183:
 271:lvgl/src/widgets/lv_table.c ****             table->col_w[col] = LV_DPI_DEF;
 3738              		.loc 1 271 36 is_stmt 0 discriminator 1 view .LVU1307
 3739              	.LBE186:
 277:lvgl/src/widgets/lv_table.c ****     uint32_t new_col_start;
 3740              		.loc 1 277 5 is_stmt 1 view .LVU1308
 278:lvgl/src/widgets/lv_table.c ****     uint32_t min_col_cnt = LV_MIN(old_col_cnt, col_cnt);
 3741              		.loc 1 278 5 view .LVU1309
 279:lvgl/src/widgets/lv_table.c ****     uint32_t row;
 3742              		.loc 1 279 5 view .LVU1310
 279:lvgl/src/widgets/lv_table.c ****     uint32_t row;
 3743              		.loc 1 279 28 is_stmt 0 view .LVU1311
ARM GAS  C:\usertemp\ccJd89Xr.s 			page 117


 3744 0078 B646     		mov	lr, r6
 3745 007a AE42     		cmp	r6, r5
 3746 007c 28BF     		it	cs
 3747 007e AE46     		movcs	lr, r5
 3748              	.LVL394:
 280:lvgl/src/widgets/lv_table.c ****     for(row = 0; row < table->row_cnt; row++) {
 3749              		.loc 1 280 5 is_stmt 1 view .LVU1312
 281:lvgl/src/widgets/lv_table.c ****         old_col_start = row * old_col_cnt;
 3750              		.loc 1 281 5 view .LVU1313
 281:lvgl/src/widgets/lv_table.c ****         old_col_start = row * old_col_cnt;
 3751              		.loc 1 281 13 is_stmt 0 view .LVU1314
 3752 0080 0020     		movs	r0, #0
 281:lvgl/src/widgets/lv_table.c ****         old_col_start = row * old_col_cnt;
 3753              		.loc 1 281 5 view .LVU1315
 3754 0082 07E0     		b	.L186
 3755              	.LVL395:
 3756              	.L188:
 3757              	.LBB187:
 3758              	.LBB188:
 3759              		.file 5 "lvgl/src/widgets/../core/../misc/lv_mem.h"
   1:lvgl/src/widgets/../core/../misc/lv_mem.h **** /**
   2:lvgl/src/widgets/../core/../misc/lv_mem.h ****  * @file lv_mem.h
   3:lvgl/src/widgets/../core/../misc/lv_mem.h ****  *
   4:lvgl/src/widgets/../core/../misc/lv_mem.h ****  */
   5:lvgl/src/widgets/../core/../misc/lv_mem.h **** 
   6:lvgl/src/widgets/../core/../misc/lv_mem.h **** #ifndef LV_MEM_H
   7:lvgl/src/widgets/../core/../misc/lv_mem.h **** #define LV_MEM_H
   8:lvgl/src/widgets/../core/../misc/lv_mem.h **** 
   9:lvgl/src/widgets/../core/../misc/lv_mem.h **** #ifdef __cplusplus
  10:lvgl/src/widgets/../core/../misc/lv_mem.h **** extern "C" {
  11:lvgl/src/widgets/../core/../misc/lv_mem.h **** #endif
  12:lvgl/src/widgets/../core/../misc/lv_mem.h **** 
  13:lvgl/src/widgets/../core/../misc/lv_mem.h **** /*********************
  14:lvgl/src/widgets/../core/../misc/lv_mem.h ****  *      INCLUDES
  15:lvgl/src/widgets/../core/../misc/lv_mem.h ****  *********************/
  16:lvgl/src/widgets/../core/../misc/lv_mem.h **** #include "../lv_conf_internal.h"
  17:lvgl/src/widgets/../core/../misc/lv_mem.h **** 
  18:lvgl/src/widgets/../core/../misc/lv_mem.h **** #include <stdint.h>
  19:lvgl/src/widgets/../core/../misc/lv_mem.h **** #include <stddef.h>
  20:lvgl/src/widgets/../core/../misc/lv_mem.h **** #include <string.h>
  21:lvgl/src/widgets/../core/../misc/lv_mem.h **** 
  22:lvgl/src/widgets/../core/../misc/lv_mem.h **** #include "lv_types.h"
  23:lvgl/src/widgets/../core/../misc/lv_mem.h **** 
  24:lvgl/src/widgets/../core/../misc/lv_mem.h **** /*********************
  25:lvgl/src/widgets/../core/../misc/lv_mem.h ****  *      DEFINES
  26:lvgl/src/widgets/../core/../misc/lv_mem.h ****  *********************/
  27:lvgl/src/widgets/../core/../misc/lv_mem.h **** 
  28:lvgl/src/widgets/../core/../misc/lv_mem.h **** /**********************
  29:lvgl/src/widgets/../core/../misc/lv_mem.h ****  *      TYPEDEFS
  30:lvgl/src/widgets/../core/../misc/lv_mem.h ****  **********************/
  31:lvgl/src/widgets/../core/../misc/lv_mem.h **** 
  32:lvgl/src/widgets/../core/../misc/lv_mem.h **** /**
  33:lvgl/src/widgets/../core/../misc/lv_mem.h ****  * Heap information structure.
  34:lvgl/src/widgets/../core/../misc/lv_mem.h ****  */
  35:lvgl/src/widgets/../core/../misc/lv_mem.h **** typedef struct {
  36:lvgl/src/widgets/../core/../misc/lv_mem.h ****     uint32_t total_size; /**< Total heap size*/
  37:lvgl/src/widgets/../core/../misc/lv_mem.h ****     uint32_t free_cnt;
ARM GAS  C:\usertemp\ccJd89Xr.s 			page 118


  38:lvgl/src/widgets/../core/../misc/lv_mem.h ****     uint32_t free_size; /**< Size of available memory*/
  39:lvgl/src/widgets/../core/../misc/lv_mem.h ****     uint32_t free_biggest_size;
  40:lvgl/src/widgets/../core/../misc/lv_mem.h ****     uint32_t used_cnt;
  41:lvgl/src/widgets/../core/../misc/lv_mem.h ****     uint32_t max_used; /**< Max size of Heap memory used*/
  42:lvgl/src/widgets/../core/../misc/lv_mem.h ****     uint8_t used_pct; /**< Percentage used*/
  43:lvgl/src/widgets/../core/../misc/lv_mem.h ****     uint8_t frag_pct; /**< Amount of fragmentation*/
  44:lvgl/src/widgets/../core/../misc/lv_mem.h **** } lv_mem_monitor_t;
  45:lvgl/src/widgets/../core/../misc/lv_mem.h **** 
  46:lvgl/src/widgets/../core/../misc/lv_mem.h **** typedef struct {
  47:lvgl/src/widgets/../core/../misc/lv_mem.h ****     void * p;
  48:lvgl/src/widgets/../core/../misc/lv_mem.h ****     uint16_t size;
  49:lvgl/src/widgets/../core/../misc/lv_mem.h ****     uint8_t used : 1;
  50:lvgl/src/widgets/../core/../misc/lv_mem.h **** } lv_mem_buf_t;
  51:lvgl/src/widgets/../core/../misc/lv_mem.h **** 
  52:lvgl/src/widgets/../core/../misc/lv_mem.h **** typedef lv_mem_buf_t lv_mem_buf_arr_t[LV_MEM_BUF_MAX_NUM];
  53:lvgl/src/widgets/../core/../misc/lv_mem.h **** 
  54:lvgl/src/widgets/../core/../misc/lv_mem.h **** /**********************
  55:lvgl/src/widgets/../core/../misc/lv_mem.h ****  * GLOBAL PROTOTYPES
  56:lvgl/src/widgets/../core/../misc/lv_mem.h ****  **********************/
  57:lvgl/src/widgets/../core/../misc/lv_mem.h **** 
  58:lvgl/src/widgets/../core/../misc/lv_mem.h **** /**
  59:lvgl/src/widgets/../core/../misc/lv_mem.h ****  * Initialize the dyn_mem module (work memory and other variables)
  60:lvgl/src/widgets/../core/../misc/lv_mem.h ****  */
  61:lvgl/src/widgets/../core/../misc/lv_mem.h **** void lv_mem_init(void);
  62:lvgl/src/widgets/../core/../misc/lv_mem.h **** 
  63:lvgl/src/widgets/../core/../misc/lv_mem.h **** /**
  64:lvgl/src/widgets/../core/../misc/lv_mem.h ****  * Clean up the memory buffer which frees all the allocated memories.
  65:lvgl/src/widgets/../core/../misc/lv_mem.h ****  * @note It work only if `LV_MEM_CUSTOM == 0`
  66:lvgl/src/widgets/../core/../misc/lv_mem.h ****  */
  67:lvgl/src/widgets/../core/../misc/lv_mem.h **** void lv_mem_deinit(void);
  68:lvgl/src/widgets/../core/../misc/lv_mem.h **** 
  69:lvgl/src/widgets/../core/../misc/lv_mem.h **** /**
  70:lvgl/src/widgets/../core/../misc/lv_mem.h ****  * Allocate a memory dynamically
  71:lvgl/src/widgets/../core/../misc/lv_mem.h ****  * @param size size of the memory to allocate in bytes
  72:lvgl/src/widgets/../core/../misc/lv_mem.h ****  * @return pointer to the allocated memory
  73:lvgl/src/widgets/../core/../misc/lv_mem.h ****  */
  74:lvgl/src/widgets/../core/../misc/lv_mem.h **** void * lv_mem_alloc(size_t size);
  75:lvgl/src/widgets/../core/../misc/lv_mem.h **** 
  76:lvgl/src/widgets/../core/../misc/lv_mem.h **** /**
  77:lvgl/src/widgets/../core/../misc/lv_mem.h ****  * Free an allocated data
  78:lvgl/src/widgets/../core/../misc/lv_mem.h ****  * @param data pointer to an allocated memory
  79:lvgl/src/widgets/../core/../misc/lv_mem.h ****  */
  80:lvgl/src/widgets/../core/../misc/lv_mem.h **** void lv_mem_free(void * data);
  81:lvgl/src/widgets/../core/../misc/lv_mem.h **** 
  82:lvgl/src/widgets/../core/../misc/lv_mem.h **** /**
  83:lvgl/src/widgets/../core/../misc/lv_mem.h ****  * Reallocate a memory with a new size. The old content will be kept.
  84:lvgl/src/widgets/../core/../misc/lv_mem.h ****  * @param data pointer to an allocated memory.
  85:lvgl/src/widgets/../core/../misc/lv_mem.h ****  * Its content will be copied to the new memory block and freed
  86:lvgl/src/widgets/../core/../misc/lv_mem.h ****  * @param new_size the desired new size in byte
  87:lvgl/src/widgets/../core/../misc/lv_mem.h ****  * @return pointer to the new memory, NULL on failure
  88:lvgl/src/widgets/../core/../misc/lv_mem.h ****  */
  89:lvgl/src/widgets/../core/../misc/lv_mem.h **** void * lv_mem_realloc(void * data_p, size_t new_size);
  90:lvgl/src/widgets/../core/../misc/lv_mem.h **** 
  91:lvgl/src/widgets/../core/../misc/lv_mem.h **** /**
  92:lvgl/src/widgets/../core/../misc/lv_mem.h ****  *
  93:lvgl/src/widgets/../core/../misc/lv_mem.h ****  * @return
  94:lvgl/src/widgets/../core/../misc/lv_mem.h ****  */
ARM GAS  C:\usertemp\ccJd89Xr.s 			page 119


  95:lvgl/src/widgets/../core/../misc/lv_mem.h **** lv_res_t lv_mem_test(void);
  96:lvgl/src/widgets/../core/../misc/lv_mem.h **** 
  97:lvgl/src/widgets/../core/../misc/lv_mem.h **** /**
  98:lvgl/src/widgets/../core/../misc/lv_mem.h ****  * Give information about the work memory of dynamic allocation
  99:lvgl/src/widgets/../core/../misc/lv_mem.h ****  * @param mon_p pointer to a lv_mem_monitor_t variable,
 100:lvgl/src/widgets/../core/../misc/lv_mem.h ****  *              the result of the analysis will be stored here
 101:lvgl/src/widgets/../core/../misc/lv_mem.h ****  */
 102:lvgl/src/widgets/../core/../misc/lv_mem.h **** void lv_mem_monitor(lv_mem_monitor_t * mon_p);
 103:lvgl/src/widgets/../core/../misc/lv_mem.h **** 
 104:lvgl/src/widgets/../core/../misc/lv_mem.h **** 
 105:lvgl/src/widgets/../core/../misc/lv_mem.h **** /**
 106:lvgl/src/widgets/../core/../misc/lv_mem.h ****  * Get a temporal buffer with the given size.
 107:lvgl/src/widgets/../core/../misc/lv_mem.h ****  * @param size the required size
 108:lvgl/src/widgets/../core/../misc/lv_mem.h ****  */
 109:lvgl/src/widgets/../core/../misc/lv_mem.h **** void * lv_mem_buf_get(uint32_t size);
 110:lvgl/src/widgets/../core/../misc/lv_mem.h **** 
 111:lvgl/src/widgets/../core/../misc/lv_mem.h **** /**
 112:lvgl/src/widgets/../core/../misc/lv_mem.h ****  * Release a memory buffer
 113:lvgl/src/widgets/../core/../misc/lv_mem.h ****  * @param p buffer to release
 114:lvgl/src/widgets/../core/../misc/lv_mem.h ****  */
 115:lvgl/src/widgets/../core/../misc/lv_mem.h **** void lv_mem_buf_release(void * p);
 116:lvgl/src/widgets/../core/../misc/lv_mem.h **** 
 117:lvgl/src/widgets/../core/../misc/lv_mem.h **** /**
 118:lvgl/src/widgets/../core/../misc/lv_mem.h ****  * Free all memory buffers
 119:lvgl/src/widgets/../core/../misc/lv_mem.h ****  */
 120:lvgl/src/widgets/../core/../misc/lv_mem.h **** void lv_mem_buf_free_all(void);
 121:lvgl/src/widgets/../core/../misc/lv_mem.h **** 
 122:lvgl/src/widgets/../core/../misc/lv_mem.h **** //! @cond Doxygen_Suppress
 123:lvgl/src/widgets/../core/../misc/lv_mem.h **** 
 124:lvgl/src/widgets/../core/../misc/lv_mem.h **** #if LV_MEMCPY_MEMSET_STD
 125:lvgl/src/widgets/../core/../misc/lv_mem.h **** 
 126:lvgl/src/widgets/../core/../misc/lv_mem.h **** /**
 127:lvgl/src/widgets/../core/../misc/lv_mem.h ****  * Wrapper for the standard memcpy
 128:lvgl/src/widgets/../core/../misc/lv_mem.h ****  * @param dst pointer to the destination buffer
 129:lvgl/src/widgets/../core/../misc/lv_mem.h ****  * @param src pointer to the source buffer
 130:lvgl/src/widgets/../core/../misc/lv_mem.h ****  * @param len number of byte to copy
 131:lvgl/src/widgets/../core/../misc/lv_mem.h ****  */
 132:lvgl/src/widgets/../core/../misc/lv_mem.h **** static inline void * lv_memcpy(void * dst, const void * src, size_t len)
 133:lvgl/src/widgets/../core/../misc/lv_mem.h **** {
 134:lvgl/src/widgets/../core/../misc/lv_mem.h ****     return memcpy(dst, src, len);
 135:lvgl/src/widgets/../core/../misc/lv_mem.h **** }
 136:lvgl/src/widgets/../core/../misc/lv_mem.h **** 
 137:lvgl/src/widgets/../core/../misc/lv_mem.h **** /**
 138:lvgl/src/widgets/../core/../misc/lv_mem.h ****  * Wrapper for the standard memcpy
 139:lvgl/src/widgets/../core/../misc/lv_mem.h ****  * @param dst pointer to the destination buffer
 140:lvgl/src/widgets/../core/../misc/lv_mem.h ****  * @param src pointer to the source buffer
 141:lvgl/src/widgets/../core/../misc/lv_mem.h ****  * @param len number of byte to copy
 142:lvgl/src/widgets/../core/../misc/lv_mem.h ****  */
 143:lvgl/src/widgets/../core/../misc/lv_mem.h **** static inline void * lv_memcpy_small(void * dst, const void * src, size_t len)
 144:lvgl/src/widgets/../core/../misc/lv_mem.h **** {
 145:lvgl/src/widgets/../core/../misc/lv_mem.h ****     return memcpy(dst, src, len);
 146:lvgl/src/widgets/../core/../misc/lv_mem.h **** }
 147:lvgl/src/widgets/../core/../misc/lv_mem.h **** 
 148:lvgl/src/widgets/../core/../misc/lv_mem.h **** /**
 149:lvgl/src/widgets/../core/../misc/lv_mem.h ****  * Wrapper for the standard memset
 150:lvgl/src/widgets/../core/../misc/lv_mem.h ****  * @param dst pointer to the destination buffer
 151:lvgl/src/widgets/../core/../misc/lv_mem.h ****  * @param v value to set [0..255]
ARM GAS  C:\usertemp\ccJd89Xr.s 			page 120


 152:lvgl/src/widgets/../core/../misc/lv_mem.h ****  * @param len number of byte to set
 153:lvgl/src/widgets/../core/../misc/lv_mem.h ****  */
 154:lvgl/src/widgets/../core/../misc/lv_mem.h **** static inline void lv_memset(void * dst, uint8_t v, size_t len)
 155:lvgl/src/widgets/../core/../misc/lv_mem.h **** {
 156:lvgl/src/widgets/../core/../misc/lv_mem.h ****     memset(dst, v, len);
 157:lvgl/src/widgets/../core/../misc/lv_mem.h **** }
 158:lvgl/src/widgets/../core/../misc/lv_mem.h **** 
 159:lvgl/src/widgets/../core/../misc/lv_mem.h **** /**
 160:lvgl/src/widgets/../core/../misc/lv_mem.h ****  * Wrapper for the standard memset with fixed 0x00 value
 161:lvgl/src/widgets/../core/../misc/lv_mem.h ****  * @param dst pointer to the destination buffer
 162:lvgl/src/widgets/../core/../misc/lv_mem.h ****  * @param len number of byte to set
 163:lvgl/src/widgets/../core/../misc/lv_mem.h ****  */
 164:lvgl/src/widgets/../core/../misc/lv_mem.h **** static inline void lv_memset_00(void * dst, size_t len)
 165:lvgl/src/widgets/../core/../misc/lv_mem.h **** {
 166:lvgl/src/widgets/../core/../misc/lv_mem.h ****     memset(dst, 0x00, len);
 167:lvgl/src/widgets/../core/../misc/lv_mem.h **** }
 168:lvgl/src/widgets/../core/../misc/lv_mem.h **** 
 169:lvgl/src/widgets/../core/../misc/lv_mem.h **** /**
 170:lvgl/src/widgets/../core/../misc/lv_mem.h ****  * Wrapper for the standard memset with fixed 0xFF value
 171:lvgl/src/widgets/../core/../misc/lv_mem.h ****  * @param dst pointer to the destination buffer
 172:lvgl/src/widgets/../core/../misc/lv_mem.h ****  * @param len number of byte to set
 173:lvgl/src/widgets/../core/../misc/lv_mem.h ****  */
 174:lvgl/src/widgets/../core/../misc/lv_mem.h **** static inline void lv_memset_ff(void * dst, size_t len)
 175:lvgl/src/widgets/../core/../misc/lv_mem.h **** {
 176:lvgl/src/widgets/../core/../misc/lv_mem.h ****     memset(dst, 0xFF, len);
 177:lvgl/src/widgets/../core/../misc/lv_mem.h **** }
 178:lvgl/src/widgets/../core/../misc/lv_mem.h **** 
 179:lvgl/src/widgets/../core/../misc/lv_mem.h **** #else
 180:lvgl/src/widgets/../core/../misc/lv_mem.h **** /**
 181:lvgl/src/widgets/../core/../misc/lv_mem.h ****  * Same as `memcpy` but optimized for 4 byte operation.
 182:lvgl/src/widgets/../core/../misc/lv_mem.h ****  * @param dst pointer to the destination buffer
 183:lvgl/src/widgets/../core/../misc/lv_mem.h ****  * @param src pointer to the source buffer
 184:lvgl/src/widgets/../core/../misc/lv_mem.h ****  * @param len number of byte to copy
 185:lvgl/src/widgets/../core/../misc/lv_mem.h ****  */
 186:lvgl/src/widgets/../core/../misc/lv_mem.h **** LV_ATTRIBUTE_FAST_MEM void * lv_memcpy(void * dst, const void * src, size_t len);
 187:lvgl/src/widgets/../core/../misc/lv_mem.h **** 
 188:lvgl/src/widgets/../core/../misc/lv_mem.h **** /**
 189:lvgl/src/widgets/../core/../misc/lv_mem.h ****  * Same as `memcpy` but optimized to copy only a few bytes.
 190:lvgl/src/widgets/../core/../misc/lv_mem.h ****  * @param dst pointer to the destination buffer
 191:lvgl/src/widgets/../core/../misc/lv_mem.h ****  * @param src pointer to the source buffer
 192:lvgl/src/widgets/../core/../misc/lv_mem.h ****  * @param len number of byte to copy
 193:lvgl/src/widgets/../core/../misc/lv_mem.h ****  */
 194:lvgl/src/widgets/../core/../misc/lv_mem.h **** LV_ATTRIBUTE_FAST_MEM static inline void * lv_memcpy_small(void * dst, const void * src, size_t len
 195:lvgl/src/widgets/../core/../misc/lv_mem.h **** {
 196:lvgl/src/widgets/../core/../misc/lv_mem.h ****     uint8_t * d8 = (uint8_t *)dst;
 197:lvgl/src/widgets/../core/../misc/lv_mem.h ****     const uint8_t * s8 = (const uint8_t *)src;
 198:lvgl/src/widgets/../core/../misc/lv_mem.h **** 
 199:lvgl/src/widgets/../core/../misc/lv_mem.h ****     while(len) {
 200:lvgl/src/widgets/../core/../misc/lv_mem.h ****         *d8 = *s8;
 3760              		.loc 5 200 9 is_stmt 1 view .LVU1316
 3761              		.loc 5 200 15 is_stmt 0 view .LVU1317
 3762 0084 12F8011B 		ldrb	r1, [r2], #1	@ zero_extendqisi2
 3763              	.LVL396:
 3764              		.loc 5 200 13 view .LVU1318
 3765 0088 0CF8011B 		strb	r1, [ip], #1
 3766              	.LVL397:
 201:lvgl/src/widgets/../core/../misc/lv_mem.h ****         d8++;
ARM GAS  C:\usertemp\ccJd89Xr.s 			page 121


 3767              		.loc 5 201 9 is_stmt 1 view .LVU1319
 202:lvgl/src/widgets/../core/../misc/lv_mem.h ****         s8++;
 3768              		.loc 5 202 9 view .LVU1320
 203:lvgl/src/widgets/../core/../misc/lv_mem.h ****         len--;
 3769              		.loc 5 203 9 view .LVU1321
 3770              		.loc 5 203 12 is_stmt 0 view .LVU1322
 3771 008c 013B     		subs	r3, r3, #1
 3772              	.LVL398:
 3773              	.L187:
 199:lvgl/src/widgets/../core/../misc/lv_mem.h ****         *d8 = *s8;
 3774              		.loc 5 199 11 is_stmt 1 view .LVU1323
 3775 008e 002B     		cmp	r3, #0
 3776 0090 F8D1     		bne	.L188
 204:lvgl/src/widgets/../core/../misc/lv_mem.h ****     }
 205:lvgl/src/widgets/../core/../misc/lv_mem.h **** 
 206:lvgl/src/widgets/../core/../misc/lv_mem.h ****     return dst;
 3777              		.loc 5 206 5 view .LVU1324
 3778              	.LVL399:
 3779              		.loc 5 206 5 is_stmt 0 view .LVU1325
 3780              	.LBE188:
 3781              	.LBE187:
 281:lvgl/src/widgets/lv_table.c ****         old_col_start = row * old_col_cnt;
 3782              		.loc 1 281 43 is_stmt 1 discriminator 3 view .LVU1326
 3783 0092 0130     		adds	r0, r0, #1
 3784              	.LVL400:
 3785              	.L186:
 281:lvgl/src/widgets/lv_table.c ****         old_col_start = row * old_col_cnt;
 3786              		.loc 1 281 22 discriminator 1 view .LVU1327
 281:lvgl/src/widgets/lv_table.c ****         old_col_start = row * old_col_cnt;
 3787              		.loc 1 281 29 is_stmt 0 discriminator 1 view .LVU1328
 3788 0094 E38C     		ldrh	r3, [r4, #38]
 281:lvgl/src/widgets/lv_table.c ****         old_col_start = row * old_col_cnt;
 3789              		.loc 1 281 22 discriminator 1 view .LVU1329
 3790 0096 8342     		cmp	r3, r0
 3791 0098 0BD9     		bls	.L191
 282:lvgl/src/widgets/lv_table.c ****         new_col_start = row * col_cnt;
 3792              		.loc 1 282 9 is_stmt 1 view .LVU1330
 282:lvgl/src/widgets/lv_table.c ****         new_col_start = row * col_cnt;
 3793              		.loc 1 282 23 is_stmt 0 view .LVU1331
 3794 009a 00FB06F3 		mul	r3, r0, r6
 283:lvgl/src/widgets/lv_table.c **** 
 3795              		.loc 1 283 9 is_stmt 1 view .LVU1332
 283:lvgl/src/widgets/lv_table.c **** 
 3796              		.loc 1 283 23 is_stmt 0 view .LVU1333
 3797 009e 00FB05FC 		mul	ip, r0, r5
 3798              	.LVL401:
 285:lvgl/src/widgets/lv_table.c ****                         sizeof(new_cell_data[0]) * min_col_cnt);
 3799              		.loc 1 285 9 is_stmt 1 view .LVU1334
 285:lvgl/src/widgets/lv_table.c ****                         sizeof(new_cell_data[0]) * min_col_cnt);
 3800              		.loc 1 285 25 is_stmt 0 view .LVU1335
 3801 00a2 07EB8C0C 		add	ip, r7, ip, lsl #2
 3802              	.LVL402:
 285:lvgl/src/widgets/lv_table.c ****                         sizeof(new_cell_data[0]) * min_col_cnt);
 3803              		.loc 1 285 62 view .LVU1336
 3804 00a6 A26A     		ldr	r2, [r4, #40]
 285:lvgl/src/widgets/lv_table.c ****                         sizeof(new_cell_data[0]) * min_col_cnt);
 3805              		.loc 1 285 56 view .LVU1337
ARM GAS  C:\usertemp\ccJd89Xr.s 			page 122


 3806 00a8 02EB8302 		add	r2, r2, r3, lsl #2
 286:lvgl/src/widgets/lv_table.c ****     }
 3807              		.loc 1 286 50 view .LVU1338
 3808 00ac 4FEA8E03 		lsl	r3, lr, #2
 3809              	.LVL403:
 3810              	.LBB190:
 3811              	.LBI187:
 194:lvgl/src/widgets/../core/../misc/lv_mem.h **** {
 3812              		.loc 5 194 44 is_stmt 1 view .LVU1339
 3813              	.LBB189:
 196:lvgl/src/widgets/../core/../misc/lv_mem.h ****     const uint8_t * s8 = (const uint8_t *)src;
 3814              		.loc 5 196 5 view .LVU1340
 197:lvgl/src/widgets/../core/../misc/lv_mem.h **** 
 3815              		.loc 5 197 5 view .LVU1341
 199:lvgl/src/widgets/../core/../misc/lv_mem.h ****         *d8 = *s8;
 3816              		.loc 5 199 5 view .LVU1342
 199:lvgl/src/widgets/../core/../misc/lv_mem.h ****         *d8 = *s8;
 3817              		.loc 5 199 10 is_stmt 0 view .LVU1343
 3818 00b0 EDE7     		b	.L187
 3819              	.LVL404:
 3820              	.L191:
 199:lvgl/src/widgets/../core/../misc/lv_mem.h ****         *d8 = *s8;
 3821              		.loc 5 199 10 view .LVU1344
 3822              	.LBE189:
 3823              	.LBE190:
 289:lvgl/src/widgets/lv_table.c ****     table->cell_data = new_cell_data;
 3824              		.loc 1 289 5 is_stmt 1 view .LVU1345
 3825 00b2 A06A     		ldr	r0, [r4, #40]
 3826              	.LVL405:
 289:lvgl/src/widgets/lv_table.c ****     table->cell_data = new_cell_data;
 3827              		.loc 1 289 5 is_stmt 0 view .LVU1346
 3828 00b4 FFF7FEFF 		bl	lv_mem_free
 3829              	.LVL406:
 290:lvgl/src/widgets/lv_table.c **** 
 3830              		.loc 1 290 5 is_stmt 1 view .LVU1347
 290:lvgl/src/widgets/lv_table.c **** 
 3831              		.loc 1 290 22 is_stmt 0 view .LVU1348
 3832 00b8 A762     		str	r7, [r4, #40]
 293:lvgl/src/widgets/lv_table.c **** }
 3833              		.loc 1 293 5 is_stmt 1 view .LVU1349
 3834 00ba 0021     		movs	r1, #0
 3835 00bc 2046     		mov	r0, r4
 3836 00be FFF7FEFF 		bl	refr_size
 3837              	.LVL407:
 294:lvgl/src/widgets/lv_table.c **** 
 3838              		.loc 1 294 1 is_stmt 0 view .LVU1350
 3839 00c2 BDE8F081 		pop	{r4, r5, r6, r7, r8, pc}
 294:lvgl/src/widgets/lv_table.c **** 
 3840              		.loc 1 294 1 view .LVU1351
 3841              		.cfi_endproc
 3842              	.LFE160:
 3844              		.section	.text.lv_table_set_cell_value,"ax",%progbits
 3845              		.align	1
 3846              		.global	lv_table_set_cell_value
 3847              		.syntax unified
 3848              		.thumb
 3849              		.thumb_func
ARM GAS  C:\usertemp\ccJd89Xr.s 			page 123


 3851              	lv_table_set_cell_value:
 3852              	.LVL408:
 3853              	.LFB157:
  77:lvgl/src/widgets/lv_table.c ****     LV_ASSERT_OBJ(obj, MY_CLASS);
 3854              		.loc 1 77 1 is_stmt 1 view -0
 3855              		.cfi_startproc
 3856              		@ args = 0, pretend = 0, frame = 0
 3857              		@ frame_needed = 0, uses_anonymous_args = 0
  78:lvgl/src/widgets/lv_table.c ****     LV_ASSERT_NULL(txt);
 3858              		.loc 1 78 5 view .LVU1353
  78:lvgl/src/widgets/lv_table.c ****     LV_ASSERT_NULL(txt);
 3859              		.loc 1 78 5 view .LVU1354
  78:lvgl/src/widgets/lv_table.c ****     LV_ASSERT_NULL(txt);
 3860              		.loc 1 78 5 view .LVU1355
  79:lvgl/src/widgets/lv_table.c **** 
 3861              		.loc 1 79 5 view .LVU1356
  79:lvgl/src/widgets/lv_table.c **** 
 3862              		.loc 1 79 5 view .LVU1357
 3863 0000 A3B3     		cbz	r3, .L194
  77:lvgl/src/widgets/lv_table.c ****     LV_ASSERT_OBJ(obj, MY_CLASS);
 3864              		.loc 1 77 1 is_stmt 0 view .LVU1358
 3865 0002 2DE9F047 		push	{r4, r5, r6, r7, r8, r9, r10, lr}
 3866              	.LCFI30:
 3867              		.cfi_def_cfa_offset 32
 3868              		.cfi_offset 4, -32
 3869              		.cfi_offset 5, -28
 3870              		.cfi_offset 6, -24
 3871              		.cfi_offset 7, -20
 3872              		.cfi_offset 8, -16
 3873              		.cfi_offset 9, -12
 3874              		.cfi_offset 10, -8
 3875              		.cfi_offset 14, -4
 3876 0006 0446     		mov	r4, r0
 3877 0008 0F46     		mov	r7, r1
 3878 000a 1546     		mov	r5, r2
 3879 000c 9946     		mov	r9, r3
  79:lvgl/src/widgets/lv_table.c **** 
 3880              		.loc 1 79 5 is_stmt 1 discriminator 2 view .LVU1359
  79:lvgl/src/widgets/lv_table.c **** 
 3881              		.loc 1 79 24 discriminator 2 view .LVU1360
  81:lvgl/src/widgets/lv_table.c **** 
 3882              		.loc 1 81 5 view .LVU1361
 3883              	.LVL409:
  84:lvgl/src/widgets/lv_table.c ****     if(row >= table->row_cnt) lv_table_set_row_cnt(obj, row + 1);
 3884              		.loc 1 84 5 view .LVU1362
  84:lvgl/src/widgets/lv_table.c ****     if(row >= table->row_cnt) lv_table_set_row_cnt(obj, row + 1);
 3885              		.loc 1 84 20 is_stmt 0 view .LVU1363
 3886 000e 838C     		ldrh	r3, [r0, #36]
 3887              	.LVL410:
  84:lvgl/src/widgets/lv_table.c ****     if(row >= table->row_cnt) lv_table_set_row_cnt(obj, row + 1);
 3888              		.loc 1 84 7 view .LVU1364
 3889 0010 9342     		cmp	r3, r2
 3890 0012 2CD9     		bls	.L203
 3891              	.LVL411:
 3892              	.L195:
  85:lvgl/src/widgets/lv_table.c **** 
 3893              		.loc 1 85 5 is_stmt 1 view .LVU1365
ARM GAS  C:\usertemp\ccJd89Xr.s 			page 124


  85:lvgl/src/widgets/lv_table.c **** 
 3894              		.loc 1 85 20 is_stmt 0 view .LVU1366
 3895 0014 E38C     		ldrh	r3, [r4, #38]
  85:lvgl/src/widgets/lv_table.c **** 
 3896              		.loc 1 85 7 view .LVU1367
 3897 0016 BB42     		cmp	r3, r7
 3898 0018 2ED9     		bls	.L204
 3899              	.L196:
  87:lvgl/src/widgets/lv_table.c ****     lv_table_cell_ctrl_t ctrl = 0;
 3900              		.loc 1 87 5 is_stmt 1 view .LVU1368
  87:lvgl/src/widgets/lv_table.c ****     lv_table_cell_ctrl_t ctrl = 0;
 3901              		.loc 1 87 32 is_stmt 0 view .LVU1369
 3902 001a A38C     		ldrh	r3, [r4, #36]
  87:lvgl/src/widgets/lv_table.c ****     lv_table_cell_ctrl_t ctrl = 0;
 3903              		.loc 1 87 42 view .LVU1370
 3904 001c 03FB0755 		mla	r5, r3, r7, r5
 3905              	.LVL412:
  88:lvgl/src/widgets/lv_table.c **** 
 3906              		.loc 1 88 5 is_stmt 1 view .LVU1371
  91:lvgl/src/widgets/lv_table.c **** 
 3907              		.loc 1 91 5 view .LVU1372
  91:lvgl/src/widgets/lv_table.c **** 
 3908              		.loc 1 91 13 is_stmt 0 view .LVU1373
 3909 0020 D4F82880 		ldr	r8, [r4, #40]
  91:lvgl/src/widgets/lv_table.c **** 
 3910              		.loc 1 91 24 view .LVU1374
 3911 0024 58F82560 		ldr	r6, [r8, r5, lsl #2]
  91:lvgl/src/widgets/lv_table.c **** 
 3912              		.loc 1 91 7 view .LVU1375
 3913 0028 66B3     		cbz	r6, .L200
  91:lvgl/src/widgets/lv_table.c **** 
 3914              		.loc 1 91 32 is_stmt 1 discriminator 1 view .LVU1376
  91:lvgl/src/widgets/lv_table.c **** 
 3915              		.loc 1 91 37 is_stmt 0 discriminator 1 view .LVU1377
 3916 002a 96F800A0 		ldrb	r10, [r6]	@ zero_extendqisi2
 3917              	.LVL413:
 3918              	.L197:
 102:lvgl/src/widgets/lv_table.c ****     LV_ASSERT_MALLOC(table->cell_data[cell]);
 3919              		.loc 1 102 5 is_stmt 1 view .LVU1378
 102:lvgl/src/widgets/lv_table.c ****     LV_ASSERT_MALLOC(table->cell_data[cell]);
 3920              		.loc 1 102 69 is_stmt 0 view .LVU1379
 3921 002e 4846     		mov	r0, r9
 3922 0030 FFF7FEFF 		bl	strlen
 3923              	.LVL414:
 102:lvgl/src/widgets/lv_table.c ****     LV_ASSERT_MALLOC(table->cell_data[cell]);
 3924              		.loc 1 102 30 discriminator 1 view .LVU1380
 3925 0034 811C     		adds	r1, r0, #2
 3926 0036 3046     		mov	r0, r6
 3927 0038 FFF7FEFF 		bl	lv_mem_realloc
 3928              	.LVL415:
 102:lvgl/src/widgets/lv_table.c ****     LV_ASSERT_MALLOC(table->cell_data[cell]);
 3929              		.loc 1 102 28 discriminator 2 view .LVU1381
 3930 003c 48F82500 		str	r0, [r8, r5, lsl #2]
 103:lvgl/src/widgets/lv_table.c **** 
 3931              		.loc 1 103 5 is_stmt 1 view .LVU1382
 103:lvgl/src/widgets/lv_table.c **** 
 3932              		.loc 1 103 5 view .LVU1383
ARM GAS  C:\usertemp\ccJd89Xr.s 			page 125


 3933 0040 A36A     		ldr	r3, [r4, #40]
 3934 0042 53F82500 		ldr	r0, [r3, r5, lsl #2]
 3935 0046 00B3     		cbz	r0, .L199
 103:lvgl/src/widgets/lv_table.c **** 
 3936              		.loc 1 103 5 discriminator 2 view .LVU1384
 103:lvgl/src/widgets/lv_table.c **** 
 3937              		.loc 1 103 45 discriminator 2 view .LVU1385
 105:lvgl/src/widgets/lv_table.c **** #endif
 3938              		.loc 1 105 5 view .LVU1386
 3939 0048 4946     		mov	r1, r9
 3940 004a 0130     		adds	r0, r0, #1
 3941 004c FFF7FEFF 		bl	strcpy
 3942              	.LVL416:
 108:lvgl/src/widgets/lv_table.c ****     refr_size(obj, row);
 3943              		.loc 1 108 5 view .LVU1387
 108:lvgl/src/widgets/lv_table.c ****     refr_size(obj, row);
 3944              		.loc 1 108 10 is_stmt 0 view .LVU1388
 3945 0050 A36A     		ldr	r3, [r4, #40]
 108:lvgl/src/widgets/lv_table.c ****     refr_size(obj, row);
 3946              		.loc 1 108 21 view .LVU1389
 3947 0052 53F82530 		ldr	r3, [r3, r5, lsl #2]
 108:lvgl/src/widgets/lv_table.c ****     refr_size(obj, row);
 3948              		.loc 1 108 31 view .LVU1390
 3949 0056 83F800A0 		strb	r10, [r3]
 109:lvgl/src/widgets/lv_table.c **** 
 3950              		.loc 1 109 5 is_stmt 1 view .LVU1391
 3951 005a 3946     		mov	r1, r7
 3952 005c 2046     		mov	r0, r4
 3953 005e FFF7FEFF 		bl	refr_size
 3954              	.LVL417:
 111:lvgl/src/widgets/lv_table.c **** }
 3955              		.loc 1 111 5 view .LVU1392
 3956 0062 2046     		mov	r0, r4
 3957 0064 FFF7FEFF 		bl	lv_obj_invalidate
 3958              	.LVL418:
 112:lvgl/src/widgets/lv_table.c **** 
 3959              		.loc 1 112 1 is_stmt 0 view .LVU1393
 3960 0068 BDE8F087 		pop	{r4, r5, r6, r7, r8, r9, r10, pc}
 3961              	.LVL419:
 3962              	.L194:
 3963              	.LCFI31:
 3964              		.cfi_def_cfa_offset 0
 3965              		.cfi_restore 4
 3966              		.cfi_restore 5
 3967              		.cfi_restore 6
 3968              		.cfi_restore 7
 3969              		.cfi_restore 8
 3970              		.cfi_restore 9
 3971              		.cfi_restore 10
 3972              		.cfi_restore 14
  79:lvgl/src/widgets/lv_table.c **** 
 3973              		.loc 1 79 5 is_stmt 1 discriminator 1 view .LVU1394
  79:lvgl/src/widgets/lv_table.c **** 
 3974              		.loc 1 79 5 discriminator 1 view .LVU1395
  79:lvgl/src/widgets/lv_table.c **** 
 3975              		.loc 1 79 5 discriminator 1 view .LVU1396
  79:lvgl/src/widgets/lv_table.c **** 
ARM GAS  C:\usertemp\ccJd89Xr.s 			page 126


 3976              		.loc 1 79 5 discriminator 1 view .LVU1397
  79:lvgl/src/widgets/lv_table.c **** 
 3977              		.loc 1 79 5 discriminator 1 view .LVU1398
 3978 006c FEE7     		b	.L194
 3979              	.LVL420:
 3980              	.L203:
 3981              	.LCFI32:
 3982              		.cfi_def_cfa_offset 32
 3983              		.cfi_offset 4, -32
 3984              		.cfi_offset 5, -28
 3985              		.cfi_offset 6, -24
 3986              		.cfi_offset 7, -20
 3987              		.cfi_offset 8, -16
 3988              		.cfi_offset 9, -12
 3989              		.cfi_offset 10, -8
 3990              		.cfi_offset 14, -4
  84:lvgl/src/widgets/lv_table.c ****     if(row >= table->row_cnt) lv_table_set_row_cnt(obj, row + 1);
 3991              		.loc 1 84 31 discriminator 1 view .LVU1399
 3992 006e 511C     		adds	r1, r2, #1
 3993              	.LVL421:
  84:lvgl/src/widgets/lv_table.c ****     if(row >= table->row_cnt) lv_table_set_row_cnt(obj, row + 1);
 3994              		.loc 1 84 31 is_stmt 0 discriminator 1 view .LVU1400
 3995 0070 89B2     		uxth	r1, r1
 3996 0072 FFF7FEFF 		bl	lv_table_set_col_cnt
 3997              	.LVL422:
  84:lvgl/src/widgets/lv_table.c ****     if(row >= table->row_cnt) lv_table_set_row_cnt(obj, row + 1);
 3998              		.loc 1 84 31 discriminator 1 view .LVU1401
 3999 0076 CDE7     		b	.L195
 4000              	.L204:
  85:lvgl/src/widgets/lv_table.c **** 
 4001              		.loc 1 85 31 is_stmt 1 discriminator 1 view .LVU1402
 4002 0078 791C     		adds	r1, r7, #1
 4003 007a 89B2     		uxth	r1, r1
 4004 007c 2046     		mov	r0, r4
 4005 007e FFF7FEFF 		bl	lv_table_set_row_cnt
 4006              	.LVL423:
 4007 0082 CAE7     		b	.L196
 4008              	.LVL424:
 4009              	.L200:
  88:lvgl/src/widgets/lv_table.c **** 
 4010              		.loc 1 88 26 is_stmt 0 view .LVU1403
 4011 0084 4FF0000A 		mov	r10, #0
 4012 0088 D1E7     		b	.L197
 4013              	.LVL425:
 4014              	.L199:
 103:lvgl/src/widgets/lv_table.c **** 
 4015              		.loc 1 103 5 is_stmt 1 discriminator 1 view .LVU1404
 103:lvgl/src/widgets/lv_table.c **** 
 4016              		.loc 1 103 5 discriminator 1 view .LVU1405
 103:lvgl/src/widgets/lv_table.c **** 
 4017              		.loc 1 103 5 discriminator 1 view .LVU1406
 103:lvgl/src/widgets/lv_table.c **** 
 4018              		.loc 1 103 5 discriminator 1 view .LVU1407
 103:lvgl/src/widgets/lv_table.c **** 
 4019              		.loc 1 103 5 discriminator 1 view .LVU1408
 4020 008a FEE7     		b	.L199
 4021              		.cfi_endproc
ARM GAS  C:\usertemp\ccJd89Xr.s 			page 127


 4022              	.LFE157:
 4024              		.section	.text.lv_table_set_col_width,"ax",%progbits
 4025              		.align	1
 4026              		.global	lv_table_set_col_width
 4027              		.syntax unified
 4028              		.thumb
 4029              		.thumb_func
 4031              	lv_table_set_col_width:
 4032              	.LVL426:
 4033              	.LFB161:
 297:lvgl/src/widgets/lv_table.c ****     LV_ASSERT_OBJ(obj, MY_CLASS);
 4034              		.loc 1 297 1 view -0
 4035              		.cfi_startproc
 4036              		@ args = 0, pretend = 0, frame = 0
 4037              		@ frame_needed = 0, uses_anonymous_args = 0
 297:lvgl/src/widgets/lv_table.c ****     LV_ASSERT_OBJ(obj, MY_CLASS);
 4038              		.loc 1 297 1 is_stmt 0 view .LVU1410
 4039 0000 70B5     		push	{r4, r5, r6, lr}
 4040              	.LCFI33:
 4041              		.cfi_def_cfa_offset 16
 4042              		.cfi_offset 4, -16
 4043              		.cfi_offset 5, -12
 4044              		.cfi_offset 6, -8
 4045              		.cfi_offset 14, -4
 4046 0002 0446     		mov	r4, r0
 4047 0004 0D46     		mov	r5, r1
 4048 0006 1646     		mov	r6, r2
 298:lvgl/src/widgets/lv_table.c **** 
 4049              		.loc 1 298 5 is_stmt 1 view .LVU1411
 298:lvgl/src/widgets/lv_table.c **** 
 4050              		.loc 1 298 5 view .LVU1412
 298:lvgl/src/widgets/lv_table.c **** 
 4051              		.loc 1 298 5 view .LVU1413
 300:lvgl/src/widgets/lv_table.c **** 
 4052              		.loc 1 300 5 view .LVU1414
 4053              	.LVL427:
 303:lvgl/src/widgets/lv_table.c **** 
 4054              		.loc 1 303 5 view .LVU1415
 303:lvgl/src/widgets/lv_table.c **** 
 4055              		.loc 1 303 23 is_stmt 0 view .LVU1416
 4056 0008 838C     		ldrh	r3, [r0, #36]
 303:lvgl/src/widgets/lv_table.c **** 
 4057              		.loc 1 303 7 view .LVU1417
 4058 000a 8B42     		cmp	r3, r1
 4059 000c 07D9     		bls	.L208
 4060              	.LVL428:
 4061              	.L206:
 305:lvgl/src/widgets/lv_table.c ****     refr_size(obj, 0) ;
 4062              		.loc 1 305 5 is_stmt 1 view .LVU1418
 305:lvgl/src/widgets/lv_table.c ****     refr_size(obj, 0) ;
 4063              		.loc 1 305 10 is_stmt 0 view .LVU1419
 4064 000e 236B     		ldr	r3, [r4, #48]
 305:lvgl/src/widgets/lv_table.c ****     refr_size(obj, 0) ;
 4065              		.loc 1 305 26 view .LVU1420
 4066 0010 23F81560 		strh	r6, [r3, r5, lsl #1]	@ movhi
 306:lvgl/src/widgets/lv_table.c **** }
 4067              		.loc 1 306 5 is_stmt 1 view .LVU1421
ARM GAS  C:\usertemp\ccJd89Xr.s 			page 128


 4068 0014 0021     		movs	r1, #0
 4069 0016 2046     		mov	r0, r4
 4070 0018 FFF7FEFF 		bl	refr_size
 4071              	.LVL429:
 307:lvgl/src/widgets/lv_table.c **** 
 4072              		.loc 1 307 1 is_stmt 0 view .LVU1422
 4073 001c 70BD     		pop	{r4, r5, r6, pc}
 4074              	.LVL430:
 4075              	.L208:
 303:lvgl/src/widgets/lv_table.c **** 
 4076              		.loc 1 303 34 is_stmt 1 discriminator 1 view .LVU1423
 4077 001e 0131     		adds	r1, r1, #1
 4078              	.LVL431:
 303:lvgl/src/widgets/lv_table.c **** 
 4079              		.loc 1 303 34 is_stmt 0 discriminator 1 view .LVU1424
 4080 0020 89B2     		uxth	r1, r1
 4081 0022 FFF7FEFF 		bl	lv_table_set_col_cnt
 4082              	.LVL432:
 303:lvgl/src/widgets/lv_table.c **** 
 4083              		.loc 1 303 34 discriminator 1 view .LVU1425
 4084 0026 F2E7     		b	.L206
 4085              		.cfi_endproc
 4086              	.LFE161:
 4088              		.section	.text.lv_table_add_cell_ctrl,"ax",%progbits
 4089              		.align	1
 4090              		.global	lv_table_add_cell_ctrl
 4091              		.syntax unified
 4092              		.thumb
 4093              		.thumb_func
 4095              	lv_table_add_cell_ctrl:
 4096              	.LVL433:
 4097              	.LFB162:
 310:lvgl/src/widgets/lv_table.c ****     LV_ASSERT_OBJ(obj, MY_CLASS);
 4098              		.loc 1 310 1 is_stmt 1 view -0
 4099              		.cfi_startproc
 4100              		@ args = 0, pretend = 0, frame = 0
 4101              		@ frame_needed = 0, uses_anonymous_args = 0
 310:lvgl/src/widgets/lv_table.c ****     LV_ASSERT_OBJ(obj, MY_CLASS);
 4102              		.loc 1 310 1 is_stmt 0 view .LVU1427
 4103 0000 2DE9F041 		push	{r4, r5, r6, r7, r8, lr}
 4104              	.LCFI34:
 4105              		.cfi_def_cfa_offset 24
 4106              		.cfi_offset 4, -24
 4107              		.cfi_offset 5, -20
 4108              		.cfi_offset 6, -16
 4109              		.cfi_offset 7, -12
 4110              		.cfi_offset 8, -8
 4111              		.cfi_offset 14, -4
 4112 0004 0446     		mov	r4, r0
 4113 0006 8846     		mov	r8, r1
 4114 0008 1646     		mov	r6, r2
 4115 000a 1F46     		mov	r7, r3
 311:lvgl/src/widgets/lv_table.c **** 
 4116              		.loc 1 311 5 is_stmt 1 view .LVU1428
 311:lvgl/src/widgets/lv_table.c **** 
 4117              		.loc 1 311 5 view .LVU1429
 311:lvgl/src/widgets/lv_table.c **** 
ARM GAS  C:\usertemp\ccJd89Xr.s 			page 129


 4118              		.loc 1 311 5 view .LVU1430
 313:lvgl/src/widgets/lv_table.c **** 
 4119              		.loc 1 313 5 view .LVU1431
 4120              	.LVL434:
 316:lvgl/src/widgets/lv_table.c ****     if(row >= table->row_cnt) lv_table_set_row_cnt(obj, row + 1);
 4121              		.loc 1 316 5 view .LVU1432
 316:lvgl/src/widgets/lv_table.c ****     if(row >= table->row_cnt) lv_table_set_row_cnt(obj, row + 1);
 4122              		.loc 1 316 20 is_stmt 0 view .LVU1433
 4123 000c 838C     		ldrh	r3, [r0, #36]
 4124              	.LVL435:
 316:lvgl/src/widgets/lv_table.c ****     if(row >= table->row_cnt) lv_table_set_row_cnt(obj, row + 1);
 4125              		.loc 1 316 7 view .LVU1434
 4126 000e 9342     		cmp	r3, r2
 4127 0010 12D9     		bls	.L216
 4128              	.LVL436:
 4129              	.L210:
 317:lvgl/src/widgets/lv_table.c **** 
 4130              		.loc 1 317 5 is_stmt 1 view .LVU1435
 317:lvgl/src/widgets/lv_table.c **** 
 4131              		.loc 1 317 20 is_stmt 0 view .LVU1436
 4132 0012 E38C     		ldrh	r3, [r4, #38]
 317:lvgl/src/widgets/lv_table.c **** 
 4133              		.loc 1 317 7 view .LVU1437
 4134 0014 4345     		cmp	r3, r8
 4135 0016 14D9     		bls	.L217
 4136              	.L211:
 319:lvgl/src/widgets/lv_table.c **** 
 4137              		.loc 1 319 5 is_stmt 1 view .LVU1438
 319:lvgl/src/widgets/lv_table.c **** 
 4138              		.loc 1 319 32 is_stmt 0 view .LVU1439
 4139 0018 A58C     		ldrh	r5, [r4, #36]
 319:lvgl/src/widgets/lv_table.c **** 
 4140              		.loc 1 319 42 view .LVU1440
 4141 001a 05FB0865 		mla	r5, r5, r8, r6
 4142              	.LVL437:
 321:lvgl/src/widgets/lv_table.c ****         table->cell_data[cell]    = lv_mem_alloc(2); /*+1: trailing '\0; +1: format byte*/
 4143              		.loc 1 321 5 is_stmt 1 view .LVU1441
 321:lvgl/src/widgets/lv_table.c ****         table->cell_data[cell]    = lv_mem_alloc(2); /*+1: trailing '\0; +1: format byte*/
 4144              		.loc 1 321 13 is_stmt 0 view .LVU1442
 4145 001e A66A     		ldr	r6, [r4, #40]
 4146              	.LVL438:
 321:lvgl/src/widgets/lv_table.c ****         table->cell_data[cell]    = lv_mem_alloc(2); /*+1: trailing '\0; +1: format byte*/
 4147              		.loc 1 321 24 view .LVU1443
 4148 0020 56F82520 		ldr	r2, [r6, r5, lsl #2]
 321:lvgl/src/widgets/lv_table.c ****         table->cell_data[cell]    = lv_mem_alloc(2); /*+1: trailing '\0; +1: format byte*/
 4149              		.loc 1 321 7 view .LVU1444
 4150 0024 A2B1     		cbz	r2, .L218
 4151              	.L212:
 330:lvgl/src/widgets/lv_table.c **** }
 4152              		.loc 1 330 5 is_stmt 1 view .LVU1445
 330:lvgl/src/widgets/lv_table.c **** }
 4153              		.loc 1 330 10 is_stmt 0 view .LVU1446
 4154 0026 A36A     		ldr	r3, [r4, #40]
 330:lvgl/src/widgets/lv_table.c **** }
 4155              		.loc 1 330 21 view .LVU1447
 4156 0028 53F82510 		ldr	r1, [r3, r5, lsl #2]
 330:lvgl/src/widgets/lv_table.c **** }
ARM GAS  C:\usertemp\ccJd89Xr.s 			page 130


 4157              		.loc 1 330 27 view .LVU1448
 4158 002c 0A78     		ldrb	r2, [r1]	@ zero_extendqisi2
 330:lvgl/src/widgets/lv_table.c **** }
 4159              		.loc 1 330 31 view .LVU1449
 4160 002e 42EA0703 		orr	r3, r2, r7
 4161 0032 0B70     		strb	r3, [r1]
 331:lvgl/src/widgets/lv_table.c **** 
 4162              		.loc 1 331 1 view .LVU1450
 4163 0034 BDE8F081 		pop	{r4, r5, r6, r7, r8, pc}
 4164              	.LVL439:
 4165              	.L216:
 316:lvgl/src/widgets/lv_table.c ****     if(row >= table->row_cnt) lv_table_set_row_cnt(obj, row + 1);
 4166              		.loc 1 316 31 is_stmt 1 discriminator 1 view .LVU1451
 4167 0038 511C     		adds	r1, r2, #1
 4168              	.LVL440:
 316:lvgl/src/widgets/lv_table.c ****     if(row >= table->row_cnt) lv_table_set_row_cnt(obj, row + 1);
 4169              		.loc 1 316 31 is_stmt 0 discriminator 1 view .LVU1452
 4170 003a 89B2     		uxth	r1, r1
 4171 003c FFF7FEFF 		bl	lv_table_set_col_cnt
 4172              	.LVL441:
 316:lvgl/src/widgets/lv_table.c ****     if(row >= table->row_cnt) lv_table_set_row_cnt(obj, row + 1);
 4173              		.loc 1 316 31 discriminator 1 view .LVU1453
 4174 0040 E7E7     		b	.L210
 4175              	.L217:
 317:lvgl/src/widgets/lv_table.c **** 
 4176              		.loc 1 317 31 is_stmt 1 discriminator 1 view .LVU1454
 4177 0042 08F10101 		add	r1, r8, #1
 4178 0046 89B2     		uxth	r1, r1
 4179 0048 2046     		mov	r0, r4
 4180 004a FFF7FEFF 		bl	lv_table_set_row_cnt
 4181              	.LVL442:
 4182 004e E3E7     		b	.L211
 4183              	.LVL443:
 4184              	.L218:
 322:lvgl/src/widgets/lv_table.c ****         LV_ASSERT_MALLOC(table->cell_data[cell]);
 4185              		.loc 1 322 9 view .LVU1455
 322:lvgl/src/widgets/lv_table.c ****         LV_ASSERT_MALLOC(table->cell_data[cell]);
 4186              		.loc 1 322 37 is_stmt 0 view .LVU1456
 4187 0050 0220     		movs	r0, #2
 4188 0052 FFF7FEFF 		bl	lv_mem_alloc
 4189              	.LVL444:
 322:lvgl/src/widgets/lv_table.c ****         LV_ASSERT_MALLOC(table->cell_data[cell]);
 4190              		.loc 1 322 35 discriminator 1 view .LVU1457
 4191 0056 46F82500 		str	r0, [r6, r5, lsl #2]
 323:lvgl/src/widgets/lv_table.c ****         if(table->cell_data[cell] == NULL) return;
 4192              		.loc 1 323 9 is_stmt 1 view .LVU1458
 323:lvgl/src/widgets/lv_table.c ****         if(table->cell_data[cell] == NULL) return;
 4193              		.loc 1 323 9 view .LVU1459
 4194 005a A36A     		ldr	r3, [r4, #40]
 4195 005c 53F82530 		ldr	r3, [r3, r5, lsl #2]
 4196 0060 33B1     		cbz	r3, .L214
 323:lvgl/src/widgets/lv_table.c ****         if(table->cell_data[cell] == NULL) return;
 4197              		.loc 1 323 9 discriminator 2 view .LVU1460
 323:lvgl/src/widgets/lv_table.c ****         if(table->cell_data[cell] == NULL) return;
 4198              		.loc 1 323 49 discriminator 2 view .LVU1461
 324:lvgl/src/widgets/lv_table.c **** 
 4199              		.loc 1 324 9 view .LVU1462
ARM GAS  C:\usertemp\ccJd89Xr.s 			page 131


 326:lvgl/src/widgets/lv_table.c ****         table->cell_data[cell][1] = '\0';
 4200              		.loc 1 326 9 view .LVU1463
 326:lvgl/src/widgets/lv_table.c ****         table->cell_data[cell][1] = '\0';
 4201              		.loc 1 326 35 is_stmt 0 view .LVU1464
 4202 0062 0022     		movs	r2, #0
 4203 0064 1A70     		strb	r2, [r3]
 327:lvgl/src/widgets/lv_table.c ****     }
 4204              		.loc 1 327 9 is_stmt 1 view .LVU1465
 327:lvgl/src/widgets/lv_table.c ****     }
 4205              		.loc 1 327 14 is_stmt 0 view .LVU1466
 4206 0066 A36A     		ldr	r3, [r4, #40]
 327:lvgl/src/widgets/lv_table.c ****     }
 4207              		.loc 1 327 25 view .LVU1467
 4208 0068 53F82530 		ldr	r3, [r3, r5, lsl #2]
 327:lvgl/src/widgets/lv_table.c ****     }
 4209              		.loc 1 327 35 view .LVU1468
 4210 006c 5A70     		strb	r2, [r3, #1]
 4211 006e DAE7     		b	.L212
 4212              	.L214:
 323:lvgl/src/widgets/lv_table.c ****         if(table->cell_data[cell] == NULL) return;
 4213              		.loc 1 323 9 is_stmt 1 discriminator 1 view .LVU1469
 323:lvgl/src/widgets/lv_table.c ****         if(table->cell_data[cell] == NULL) return;
 4214              		.loc 1 323 9 discriminator 1 view .LVU1470
 323:lvgl/src/widgets/lv_table.c ****         if(table->cell_data[cell] == NULL) return;
 4215              		.loc 1 323 9 discriminator 1 view .LVU1471
 323:lvgl/src/widgets/lv_table.c ****         if(table->cell_data[cell] == NULL) return;
 4216              		.loc 1 323 9 discriminator 1 view .LVU1472
 323:lvgl/src/widgets/lv_table.c ****         if(table->cell_data[cell] == NULL) return;
 4217              		.loc 1 323 9 discriminator 1 view .LVU1473
 4218 0070 FEE7     		b	.L214
 4219              		.cfi_endproc
 4220              	.LFE162:
 4222              		.section	.text.lv_table_clear_cell_ctrl,"ax",%progbits
 4223              		.align	1
 4224              		.global	lv_table_clear_cell_ctrl
 4225              		.syntax unified
 4226              		.thumb
 4227              		.thumb_func
 4229              	lv_table_clear_cell_ctrl:
 4230              	.LVL445:
 4231              	.LFB163:
 334:lvgl/src/widgets/lv_table.c ****     LV_ASSERT_OBJ(obj, MY_CLASS);
 4232              		.loc 1 334 1 view -0
 4233              		.cfi_startproc
 4234              		@ args = 0, pretend = 0, frame = 0
 4235              		@ frame_needed = 0, uses_anonymous_args = 0
 334:lvgl/src/widgets/lv_table.c ****     LV_ASSERT_OBJ(obj, MY_CLASS);
 4236              		.loc 1 334 1 is_stmt 0 view .LVU1475
 4237 0000 2DE9F041 		push	{r4, r5, r6, r7, r8, lr}
 4238              	.LCFI35:
 4239              		.cfi_def_cfa_offset 24
 4240              		.cfi_offset 4, -24
 4241              		.cfi_offset 5, -20
 4242              		.cfi_offset 6, -16
 4243              		.cfi_offset 7, -12
 4244              		.cfi_offset 8, -8
 4245              		.cfi_offset 14, -4
ARM GAS  C:\usertemp\ccJd89Xr.s 			page 132


 4246 0004 0446     		mov	r4, r0
 4247 0006 8846     		mov	r8, r1
 4248 0008 1746     		mov	r7, r2
 4249 000a 1D46     		mov	r5, r3
 335:lvgl/src/widgets/lv_table.c **** 
 4250              		.loc 1 335 5 is_stmt 1 view .LVU1476
 335:lvgl/src/widgets/lv_table.c **** 
 4251              		.loc 1 335 5 view .LVU1477
 335:lvgl/src/widgets/lv_table.c **** 
 4252              		.loc 1 335 5 view .LVU1478
 337:lvgl/src/widgets/lv_table.c **** 
 4253              		.loc 1 337 5 view .LVU1479
 4254              	.LVL446:
 340:lvgl/src/widgets/lv_table.c ****     if(row >= table->row_cnt) lv_table_set_row_cnt(obj, row + 1);
 4255              		.loc 1 340 5 view .LVU1480
 340:lvgl/src/widgets/lv_table.c ****     if(row >= table->row_cnt) lv_table_set_row_cnt(obj, row + 1);
 4256              		.loc 1 340 20 is_stmt 0 view .LVU1481
 4257 000c 838C     		ldrh	r3, [r0, #36]
 4258              	.LVL447:
 340:lvgl/src/widgets/lv_table.c ****     if(row >= table->row_cnt) lv_table_set_row_cnt(obj, row + 1);
 4259              		.loc 1 340 7 view .LVU1482
 4260 000e 9342     		cmp	r3, r2
 4261 0010 13D9     		bls	.L226
 4262              	.LVL448:
 4263              	.L220:
 341:lvgl/src/widgets/lv_table.c **** 
 4264              		.loc 1 341 5 is_stmt 1 view .LVU1483
 341:lvgl/src/widgets/lv_table.c **** 
 4265              		.loc 1 341 20 is_stmt 0 view .LVU1484
 4266 0012 E38C     		ldrh	r3, [r4, #38]
 341:lvgl/src/widgets/lv_table.c **** 
 4267              		.loc 1 341 7 view .LVU1485
 4268 0014 4345     		cmp	r3, r8
 4269 0016 15D9     		bls	.L227
 4270              	.L221:
 343:lvgl/src/widgets/lv_table.c **** 
 4271              		.loc 1 343 5 is_stmt 1 view .LVU1486
 343:lvgl/src/widgets/lv_table.c **** 
 4272              		.loc 1 343 32 is_stmt 0 view .LVU1487
 4273 0018 A68C     		ldrh	r6, [r4, #36]
 343:lvgl/src/widgets/lv_table.c **** 
 4274              		.loc 1 343 42 view .LVU1488
 4275 001a 06FB0876 		mla	r6, r6, r8, r7
 4276              	.LVL449:
 345:lvgl/src/widgets/lv_table.c ****         table->cell_data[cell]    = lv_mem_alloc(2); /*+1: trailing '\0; +1: format byte*/
 4277              		.loc 1 345 5 is_stmt 1 view .LVU1489
 345:lvgl/src/widgets/lv_table.c ****         table->cell_data[cell]    = lv_mem_alloc(2); /*+1: trailing '\0; +1: format byte*/
 4278              		.loc 1 345 13 is_stmt 0 view .LVU1490
 4279 001e A76A     		ldr	r7, [r4, #40]
 4280              	.LVL450:
 345:lvgl/src/widgets/lv_table.c ****         table->cell_data[cell]    = lv_mem_alloc(2); /*+1: trailing '\0; +1: format byte*/
 4281              		.loc 1 345 24 view .LVU1491
 4282 0020 57F82630 		ldr	r3, [r7, r6, lsl #2]
 345:lvgl/src/widgets/lv_table.c ****         table->cell_data[cell]    = lv_mem_alloc(2); /*+1: trailing '\0; +1: format byte*/
 4283              		.loc 1 345 7 view .LVU1492
 4284 0024 ABB1     		cbz	r3, .L228
 4285              	.L222:
ARM GAS  C:\usertemp\ccJd89Xr.s 			page 133


 354:lvgl/src/widgets/lv_table.c **** }
 4286              		.loc 1 354 5 is_stmt 1 view .LVU1493
 354:lvgl/src/widgets/lv_table.c **** }
 4287              		.loc 1 354 10 is_stmt 0 view .LVU1494
 4288 0026 A36A     		ldr	r3, [r4, #40]
 354:lvgl/src/widgets/lv_table.c **** }
 4289              		.loc 1 354 21 view .LVU1495
 4290 0028 53F82620 		ldr	r2, [r3, r6, lsl #2]
 354:lvgl/src/widgets/lv_table.c **** }
 4291              		.loc 1 354 27 view .LVU1496
 4292 002c 1378     		ldrb	r3, [r2]	@ zero_extendqisi2
 354:lvgl/src/widgets/lv_table.c **** }
 4293              		.loc 1 354 31 view .LVU1497
 4294 002e ED43     		mvns	r5, r5
 4295              	.LVL451:
 354:lvgl/src/widgets/lv_table.c **** }
 4296              		.loc 1 354 31 view .LVU1498
 4297 0030 6DB2     		sxtb	r5, r5
 4298              	.LVL452:
 354:lvgl/src/widgets/lv_table.c **** }
 4299              		.loc 1 354 31 view .LVU1499
 4300 0032 2B40     		ands	r3, r3, r5
 4301 0034 1370     		strb	r3, [r2]
 355:lvgl/src/widgets/lv_table.c **** 
 4302              		.loc 1 355 1 view .LVU1500
 4303 0036 BDE8F081 		pop	{r4, r5, r6, r7, r8, pc}
 4304              	.LVL453:
 4305              	.L226:
 340:lvgl/src/widgets/lv_table.c ****     if(row >= table->row_cnt) lv_table_set_row_cnt(obj, row + 1);
 4306              		.loc 1 340 31 is_stmt 1 discriminator 1 view .LVU1501
 4307 003a 511C     		adds	r1, r2, #1
 4308              	.LVL454:
 340:lvgl/src/widgets/lv_table.c ****     if(row >= table->row_cnt) lv_table_set_row_cnt(obj, row + 1);
 4309              		.loc 1 340 31 is_stmt 0 discriminator 1 view .LVU1502
 4310 003c 89B2     		uxth	r1, r1
 4311 003e FFF7FEFF 		bl	lv_table_set_col_cnt
 4312              	.LVL455:
 340:lvgl/src/widgets/lv_table.c ****     if(row >= table->row_cnt) lv_table_set_row_cnt(obj, row + 1);
 4313              		.loc 1 340 31 discriminator 1 view .LVU1503
 4314 0042 E6E7     		b	.L220
 4315              	.L227:
 341:lvgl/src/widgets/lv_table.c **** 
 4316              		.loc 1 341 31 is_stmt 1 discriminator 1 view .LVU1504
 4317 0044 08F10101 		add	r1, r8, #1
 4318 0048 89B2     		uxth	r1, r1
 4319 004a 2046     		mov	r0, r4
 4320 004c FFF7FEFF 		bl	lv_table_set_row_cnt
 4321              	.LVL456:
 4322 0050 E2E7     		b	.L221
 4323              	.LVL457:
 4324              	.L228:
 346:lvgl/src/widgets/lv_table.c ****         LV_ASSERT_MALLOC(table->cell_data[cell]);
 4325              		.loc 1 346 9 view .LVU1505
 346:lvgl/src/widgets/lv_table.c ****         LV_ASSERT_MALLOC(table->cell_data[cell]);
 4326              		.loc 1 346 37 is_stmt 0 view .LVU1506
 4327 0052 0220     		movs	r0, #2
 4328 0054 FFF7FEFF 		bl	lv_mem_alloc
ARM GAS  C:\usertemp\ccJd89Xr.s 			page 134


 4329              	.LVL458:
 346:lvgl/src/widgets/lv_table.c ****         LV_ASSERT_MALLOC(table->cell_data[cell]);
 4330              		.loc 1 346 35 discriminator 1 view .LVU1507
 4331 0058 47F82600 		str	r0, [r7, r6, lsl #2]
 347:lvgl/src/widgets/lv_table.c ****         if(table->cell_data[cell] == NULL) return;
 4332              		.loc 1 347 9 is_stmt 1 view .LVU1508
 347:lvgl/src/widgets/lv_table.c ****         if(table->cell_data[cell] == NULL) return;
 4333              		.loc 1 347 9 view .LVU1509
 4334 005c A36A     		ldr	r3, [r4, #40]
 4335 005e 53F82630 		ldr	r3, [r3, r6, lsl #2]
 4336 0062 33B1     		cbz	r3, .L224
 347:lvgl/src/widgets/lv_table.c ****         if(table->cell_data[cell] == NULL) return;
 4337              		.loc 1 347 9 discriminator 2 view .LVU1510
 347:lvgl/src/widgets/lv_table.c ****         if(table->cell_data[cell] == NULL) return;
 4338              		.loc 1 347 49 discriminator 2 view .LVU1511
 348:lvgl/src/widgets/lv_table.c **** 
 4339              		.loc 1 348 9 view .LVU1512
 350:lvgl/src/widgets/lv_table.c ****         table->cell_data[cell][1] = '\0';
 4340              		.loc 1 350 9 view .LVU1513
 350:lvgl/src/widgets/lv_table.c ****         table->cell_data[cell][1] = '\0';
 4341              		.loc 1 350 35 is_stmt 0 view .LVU1514
 4342 0064 0022     		movs	r2, #0
 4343 0066 1A70     		strb	r2, [r3]
 351:lvgl/src/widgets/lv_table.c ****     }
 4344              		.loc 1 351 9 is_stmt 1 view .LVU1515
 351:lvgl/src/widgets/lv_table.c ****     }
 4345              		.loc 1 351 14 is_stmt 0 view .LVU1516
 4346 0068 A36A     		ldr	r3, [r4, #40]
 351:lvgl/src/widgets/lv_table.c ****     }
 4347              		.loc 1 351 25 view .LVU1517
 4348 006a 53F82630 		ldr	r3, [r3, r6, lsl #2]
 351:lvgl/src/widgets/lv_table.c ****     }
 4349              		.loc 1 351 35 view .LVU1518
 4350 006e 5A70     		strb	r2, [r3, #1]
 4351 0070 D9E7     		b	.L222
 4352              	.L224:
 347:lvgl/src/widgets/lv_table.c ****         if(table->cell_data[cell] == NULL) return;
 4353              		.loc 1 347 9 is_stmt 1 discriminator 1 view .LVU1519
 347:lvgl/src/widgets/lv_table.c ****         if(table->cell_data[cell] == NULL) return;
 4354              		.loc 1 347 9 discriminator 1 view .LVU1520
 347:lvgl/src/widgets/lv_table.c ****         if(table->cell_data[cell] == NULL) return;
 4355              		.loc 1 347 9 discriminator 1 view .LVU1521
 347:lvgl/src/widgets/lv_table.c ****         if(table->cell_data[cell] == NULL) return;
 4356              		.loc 1 347 9 discriminator 1 view .LVU1522
 347:lvgl/src/widgets/lv_table.c ****         if(table->cell_data[cell] == NULL) return;
 4357              		.loc 1 347 9 discriminator 1 view .LVU1523
 4358 0072 FEE7     		b	.L224
 4359              		.cfi_endproc
 4360              	.LFE163:
 4362              		.section	.rodata.lv_table_get_cell_value.str1.4,"aMS",%progbits,1
 4363              		.align	2
 4364              	.LC0:
 4365 0000 00       		.ascii	"\000"
 4366              		.section	.text.lv_table_get_cell_value,"ax",%progbits
 4367              		.align	1
 4368              		.global	lv_table_get_cell_value
 4369              		.syntax unified
ARM GAS  C:\usertemp\ccJd89Xr.s 			page 135


 4370              		.thumb
 4371              		.thumb_func
 4373              	lv_table_get_cell_value:
 4374              	.LVL459:
 4375              	.LFB164:
 362:lvgl/src/widgets/lv_table.c ****     LV_ASSERT_OBJ(obj, MY_CLASS);
 4376              		.loc 1 362 1 view -0
 4377              		.cfi_startproc
 4378              		@ args = 0, pretend = 0, frame = 0
 4379              		@ frame_needed = 0, uses_anonymous_args = 0
 4380              		@ link register save eliminated.
 363:lvgl/src/widgets/lv_table.c **** 
 4381              		.loc 1 363 5 view .LVU1525
 363:lvgl/src/widgets/lv_table.c **** 
 4382              		.loc 1 363 5 view .LVU1526
 363:lvgl/src/widgets/lv_table.c **** 
 4383              		.loc 1 363 5 view .LVU1527
 365:lvgl/src/widgets/lv_table.c ****     if(row >= table->row_cnt || col >= table->col_cnt) {
 4384              		.loc 1 365 5 view .LVU1528
 366:lvgl/src/widgets/lv_table.c ****         LV_LOG_WARN("lv_table_set_cell_value: invalid row or column");
 4385              		.loc 1 366 5 view .LVU1529
 366:lvgl/src/widgets/lv_table.c ****         LV_LOG_WARN("lv_table_set_cell_value: invalid row or column");
 4386              		.loc 1 366 20 is_stmt 0 view .LVU1530
 4387 0000 C38C     		ldrh	r3, [r0, #38]
 366:lvgl/src/widgets/lv_table.c ****         LV_LOG_WARN("lv_table_set_cell_value: invalid row or column");
 4388              		.loc 1 366 7 view .LVU1531
 4389 0002 8B42     		cmp	r3, r1
 4390 0004 0AD9     		bls	.L231
 366:lvgl/src/widgets/lv_table.c ****         LV_LOG_WARN("lv_table_set_cell_value: invalid row or column");
 4391              		.loc 1 366 45 discriminator 1 view .LVU1532
 4392 0006 838C     		ldrh	r3, [r0, #36]
 366:lvgl/src/widgets/lv_table.c ****         LV_LOG_WARN("lv_table_set_cell_value: invalid row or column");
 4393              		.loc 1 366 30 discriminator 1 view .LVU1533
 4394 0008 9342     		cmp	r3, r2
 4395 000a 09D9     		bls	.L232
 370:lvgl/src/widgets/lv_table.c **** 
 4396              		.loc 1 370 5 is_stmt 1 view .LVU1534
 370:lvgl/src/widgets/lv_table.c **** 
 4397              		.loc 1 370 42 is_stmt 0 view .LVU1535
 4398 000c 03FB0122 		mla	r2, r3, r1, r2
 4399              	.LVL460:
 372:lvgl/src/widgets/lv_table.c **** 
 4400              		.loc 1 372 5 is_stmt 1 view .LVU1536
 372:lvgl/src/widgets/lv_table.c **** 
 4401              		.loc 1 372 13 is_stmt 0 view .LVU1537
 4402 0010 836A     		ldr	r3, [r0, #40]
 372:lvgl/src/widgets/lv_table.c **** 
 4403              		.loc 1 372 24 view .LVU1538
 4404 0012 53F82200 		ldr	r0, [r3, r2, lsl #2]
 4405              	.LVL461:
 372:lvgl/src/widgets/lv_table.c **** 
 4406              		.loc 1 372 7 view .LVU1539
 4407 0016 28B1     		cbz	r0, .L233
 374:lvgl/src/widgets/lv_table.c **** }
 4408              		.loc 1 374 5 is_stmt 1 view .LVU1540
 374:lvgl/src/widgets/lv_table.c **** }
 4409              		.loc 1 374 12 is_stmt 0 view .LVU1541
ARM GAS  C:\usertemp\ccJd89Xr.s 			page 136


 4410 0018 0130     		adds	r0, r0, #1
 4411 001a 7047     		bx	lr
 4412              	.LVL462:
 4413              	.L231:
 368:lvgl/src/widgets/lv_table.c ****     }
 4414              		.loc 1 368 16 view .LVU1542
 4415 001c 0248     		ldr	r0, .L234
 4416              	.LVL463:
 368:lvgl/src/widgets/lv_table.c ****     }
 4417              		.loc 1 368 16 view .LVU1543
 4418 001e 7047     		bx	lr
 4419              	.LVL464:
 4420              	.L232:
 368:lvgl/src/widgets/lv_table.c ****     }
 4421              		.loc 1 368 16 view .LVU1544
 4422 0020 0148     		ldr	r0, .L234
 4423              	.LVL465:
 368:lvgl/src/widgets/lv_table.c ****     }
 4424              		.loc 1 368 16 view .LVU1545
 4425 0022 7047     		bx	lr
 4426              	.LVL466:
 4427              	.L233:
 372:lvgl/src/widgets/lv_table.c **** 
 4428              		.loc 1 372 47 discriminator 1 view .LVU1546
 4429 0024 0048     		ldr	r0, .L234
 375:lvgl/src/widgets/lv_table.c **** 
 4430              		.loc 1 375 1 view .LVU1547
 4431 0026 7047     		bx	lr
 4432              	.L235:
 4433              		.align	2
 4434              	.L234:
 4435 0028 00000000 		.word	.LC0
 4436              		.cfi_endproc
 4437              	.LFE164:
 4439              		.section	.text.lv_table_get_row_cnt,"ax",%progbits
 4440              		.align	1
 4441              		.global	lv_table_get_row_cnt
 4442              		.syntax unified
 4443              		.thumb
 4444              		.thumb_func
 4446              	lv_table_get_row_cnt:
 4447              	.LVL467:
 4448              	.LFB165:
 378:lvgl/src/widgets/lv_table.c ****     LV_ASSERT_OBJ(obj, MY_CLASS);
 4449              		.loc 1 378 1 is_stmt 1 view -0
 4450              		.cfi_startproc
 4451              		@ args = 0, pretend = 0, frame = 0
 4452              		@ frame_needed = 0, uses_anonymous_args = 0
 4453              		@ link register save eliminated.
 379:lvgl/src/widgets/lv_table.c **** 
 4454              		.loc 1 379 5 view .LVU1549
 379:lvgl/src/widgets/lv_table.c **** 
 4455              		.loc 1 379 5 view .LVU1550
 379:lvgl/src/widgets/lv_table.c **** 
 4456              		.loc 1 379 5 view .LVU1551
 381:lvgl/src/widgets/lv_table.c ****     return table->row_cnt;
 4457              		.loc 1 381 5 view .LVU1552
ARM GAS  C:\usertemp\ccJd89Xr.s 			page 137


 382:lvgl/src/widgets/lv_table.c **** }
 4458              		.loc 1 382 5 view .LVU1553
 383:lvgl/src/widgets/lv_table.c **** 
 4459              		.loc 1 383 1 is_stmt 0 view .LVU1554
 4460 0000 C08C     		ldrh	r0, [r0, #38]
 4461              	.LVL468:
 383:lvgl/src/widgets/lv_table.c **** 
 4462              		.loc 1 383 1 view .LVU1555
 4463 0002 7047     		bx	lr
 4464              		.cfi_endproc
 4465              	.LFE165:
 4467              		.section	.text.lv_table_get_col_cnt,"ax",%progbits
 4468              		.align	1
 4469              		.global	lv_table_get_col_cnt
 4470              		.syntax unified
 4471              		.thumb
 4472              		.thumb_func
 4474              	lv_table_get_col_cnt:
 4475              	.LVL469:
 4476              	.LFB166:
 386:lvgl/src/widgets/lv_table.c ****     LV_ASSERT_OBJ(obj, MY_CLASS);
 4477              		.loc 1 386 1 is_stmt 1 view -0
 4478              		.cfi_startproc
 4479              		@ args = 0, pretend = 0, frame = 0
 4480              		@ frame_needed = 0, uses_anonymous_args = 0
 4481              		@ link register save eliminated.
 387:lvgl/src/widgets/lv_table.c **** 
 4482              		.loc 1 387 5 view .LVU1557
 387:lvgl/src/widgets/lv_table.c **** 
 4483              		.loc 1 387 5 view .LVU1558
 387:lvgl/src/widgets/lv_table.c **** 
 4484              		.loc 1 387 5 view .LVU1559
 389:lvgl/src/widgets/lv_table.c ****     return table->col_cnt;
 4485              		.loc 1 389 5 view .LVU1560
 390:lvgl/src/widgets/lv_table.c **** }
 4486              		.loc 1 390 5 view .LVU1561
 391:lvgl/src/widgets/lv_table.c **** 
 4487              		.loc 1 391 1 is_stmt 0 view .LVU1562
 4488 0000 808C     		ldrh	r0, [r0, #36]
 4489              	.LVL470:
 391:lvgl/src/widgets/lv_table.c **** 
 4490              		.loc 1 391 1 view .LVU1563
 4491 0002 7047     		bx	lr
 4492              		.cfi_endproc
 4493              	.LFE166:
 4495              		.section	.text.lv_table_get_col_width,"ax",%progbits
 4496              		.align	1
 4497              		.global	lv_table_get_col_width
 4498              		.syntax unified
 4499              		.thumb
 4500              		.thumb_func
 4502              	lv_table_get_col_width:
 4503              	.LVL471:
 4504              	.LFB167:
 394:lvgl/src/widgets/lv_table.c ****     LV_ASSERT_OBJ(obj, MY_CLASS);
 4505              		.loc 1 394 1 is_stmt 1 view -0
 4506              		.cfi_startproc
ARM GAS  C:\usertemp\ccJd89Xr.s 			page 138


 4507              		@ args = 0, pretend = 0, frame = 0
 4508              		@ frame_needed = 0, uses_anonymous_args = 0
 4509              		@ link register save eliminated.
 395:lvgl/src/widgets/lv_table.c **** 
 4510              		.loc 1 395 5 view .LVU1565
 395:lvgl/src/widgets/lv_table.c **** 
 4511              		.loc 1 395 5 view .LVU1566
 395:lvgl/src/widgets/lv_table.c **** 
 4512              		.loc 1 395 5 view .LVU1567
 397:lvgl/src/widgets/lv_table.c **** 
 4513              		.loc 1 397 5 view .LVU1568
 399:lvgl/src/widgets/lv_table.c ****         LV_LOG_WARN("lv_table_set_col_width: too big 'col_id'. Must be < LV_TABLE_COL_MAX.");
 4514              		.loc 1 399 5 view .LVU1569
 399:lvgl/src/widgets/lv_table.c ****         LV_LOG_WARN("lv_table_set_col_width: too big 'col_id'. Must be < LV_TABLE_COL_MAX.");
 4515              		.loc 1 399 20 is_stmt 0 view .LVU1570
 4516 0000 838C     		ldrh	r3, [r0, #36]
 399:lvgl/src/widgets/lv_table.c ****         LV_LOG_WARN("lv_table_set_col_width: too big 'col_id'. Must be < LV_TABLE_COL_MAX.");
 4517              		.loc 1 399 7 view .LVU1571
 4518 0002 8B42     		cmp	r3, r1
 4519 0004 03D9     		bls	.L240
 404:lvgl/src/widgets/lv_table.c **** }
 4520              		.loc 1 404 5 is_stmt 1 view .LVU1572
 404:lvgl/src/widgets/lv_table.c **** }
 4521              		.loc 1 404 17 is_stmt 0 view .LVU1573
 4522 0006 036B     		ldr	r3, [r0, #48]
 404:lvgl/src/widgets/lv_table.c **** }
 4523              		.loc 1 404 24 view .LVU1574
 4524 0008 33F91100 		ldrsh	r0, [r3, r1, lsl #1]
 4525              	.LVL472:
 404:lvgl/src/widgets/lv_table.c **** }
 4526              		.loc 1 404 24 view .LVU1575
 4527 000c 7047     		bx	lr
 4528              	.LVL473:
 4529              	.L240:
 401:lvgl/src/widgets/lv_table.c ****     }
 4530              		.loc 1 401 16 view .LVU1576
 4531 000e 0020     		movs	r0, #0
 4532              	.LVL474:
 405:lvgl/src/widgets/lv_table.c **** 
 4533              		.loc 1 405 1 view .LVU1577
 4534 0010 7047     		bx	lr
 4535              		.cfi_endproc
 4536              	.LFE167:
 4538              		.section	.text.lv_table_has_cell_ctrl,"ax",%progbits
 4539              		.align	1
 4540              		.global	lv_table_has_cell_ctrl
 4541              		.syntax unified
 4542              		.thumb
 4543              		.thumb_func
 4545              	lv_table_has_cell_ctrl:
 4546              	.LVL475:
 4547              	.LFB168:
 408:lvgl/src/widgets/lv_table.c ****     LV_ASSERT_OBJ(obj, MY_CLASS);
 4548              		.loc 1 408 1 is_stmt 1 view -0
 4549              		.cfi_startproc
 4550              		@ args = 0, pretend = 0, frame = 0
 4551              		@ frame_needed = 0, uses_anonymous_args = 0
ARM GAS  C:\usertemp\ccJd89Xr.s 			page 139


 4552              		@ link register save eliminated.
 409:lvgl/src/widgets/lv_table.c **** 
 4553              		.loc 1 409 5 view .LVU1579
 409:lvgl/src/widgets/lv_table.c **** 
 4554              		.loc 1 409 5 view .LVU1580
 409:lvgl/src/widgets/lv_table.c **** 
 4555              		.loc 1 409 5 view .LVU1581
 411:lvgl/src/widgets/lv_table.c ****     if(row >= table->row_cnt || col >= table->col_cnt) {
 4556              		.loc 1 411 5 view .LVU1582
 412:lvgl/src/widgets/lv_table.c ****         LV_LOG_WARN("lv_table_get_cell_crop: invalid row or column");
 4557              		.loc 1 412 5 view .LVU1583
 412:lvgl/src/widgets/lv_table.c ****         LV_LOG_WARN("lv_table_get_cell_crop: invalid row or column");
 4558              		.loc 1 412 20 is_stmt 0 view .LVU1584
 4559 0000 B0F826C0 		ldrh	ip, [r0, #38]
 412:lvgl/src/widgets/lv_table.c ****         LV_LOG_WARN("lv_table_get_cell_crop: invalid row or column");
 4560              		.loc 1 412 7 view .LVU1585
 4561 0004 8C45     		cmp	ip, r1
 4562 0006 0FD9     		bls	.L243
 412:lvgl/src/widgets/lv_table.c ****         LV_LOG_WARN("lv_table_get_cell_crop: invalid row or column");
 4563              		.loc 1 412 45 discriminator 1 view .LVU1586
 4564 0008 B0F824C0 		ldrh	ip, [r0, #36]
 412:lvgl/src/widgets/lv_table.c ****         LV_LOG_WARN("lv_table_get_cell_crop: invalid row or column");
 4565              		.loc 1 412 30 discriminator 1 view .LVU1587
 4566 000c 9445     		cmp	ip, r2
 4567 000e 0DD9     		bls	.L244
 416:lvgl/src/widgets/lv_table.c **** 
 4568              		.loc 1 416 5 is_stmt 1 view .LVU1588
 416:lvgl/src/widgets/lv_table.c **** 
 4569              		.loc 1 416 42 is_stmt 0 view .LVU1589
 4570 0010 0CFB0122 		mla	r2, ip, r1, r2
 4571              	.LVL476:
 418:lvgl/src/widgets/lv_table.c ****     else return (table->cell_data[cell][0] & ctrl) == ctrl ? true : false;
 4572              		.loc 1 418 5 is_stmt 1 view .LVU1590
 418:lvgl/src/widgets/lv_table.c ****     else return (table->cell_data[cell][0] & ctrl) == ctrl ? true : false;
 4573              		.loc 1 418 13 is_stmt 0 view .LVU1591
 4574 0014 816A     		ldr	r1, [r0, #40]
 4575              	.LVL477:
 418:lvgl/src/widgets/lv_table.c ****     else return (table->cell_data[cell][0] & ctrl) == ctrl ? true : false;
 4576              		.loc 1 418 24 view .LVU1592
 4577 0016 51F82220 		ldr	r2, [r1, r2, lsl #2]
 4578              	.LVL478:
 418:lvgl/src/widgets/lv_table.c ****     else return (table->cell_data[cell][0] & ctrl) == ctrl ? true : false;
 4579              		.loc 1 418 7 view .LVU1593
 4580 001a 4AB1     		cbz	r2, .L245
 419:lvgl/src/widgets/lv_table.c **** }
 4581              		.loc 1 419 10 is_stmt 1 view .LVU1594
 419:lvgl/src/widgets/lv_table.c **** }
 4582              		.loc 1 419 40 is_stmt 0 view .LVU1595
 4583 001c 1278     		ldrb	r2, [r2]	@ zero_extendqisi2
 419:lvgl/src/widgets/lv_table.c **** }
 4584              		.loc 1 419 67 view .LVU1596
 4585 001e 9343     		bics	r3, r3, r2
 4586              	.LVL479:
 419:lvgl/src/widgets/lv_table.c **** }
 4587              		.loc 1 419 67 view .LVU1597
 4588 0020 0CBF     		ite	eq
 4589 0022 0120     		moveq	r0, #1
ARM GAS  C:\usertemp\ccJd89Xr.s 			page 140


 4590              	.LVL480:
 419:lvgl/src/widgets/lv_table.c **** }
 4591              		.loc 1 419 67 view .LVU1598
 4592 0024 0020     		movne	r0, #0
 4593 0026 7047     		bx	lr
 4594              	.LVL481:
 4595              	.L243:
 414:lvgl/src/widgets/lv_table.c ****     }
 4596              		.loc 1 414 16 view .LVU1599
 4597 0028 0020     		movs	r0, #0
 4598              	.LVL482:
 414:lvgl/src/widgets/lv_table.c ****     }
 4599              		.loc 1 414 16 view .LVU1600
 4600 002a 7047     		bx	lr
 4601              	.LVL483:
 4602              	.L244:
 414:lvgl/src/widgets/lv_table.c ****     }
 4603              		.loc 1 414 16 view .LVU1601
 4604 002c 0020     		movs	r0, #0
 4605              	.LVL484:
 414:lvgl/src/widgets/lv_table.c ****     }
 4606              		.loc 1 414 16 view .LVU1602
 4607 002e 7047     		bx	lr
 4608              	.LVL485:
 4609              	.L245:
 418:lvgl/src/widgets/lv_table.c ****     else return (table->cell_data[cell][0] & ctrl) == ctrl ? true : false;
 4610              		.loc 1 418 47 discriminator 1 view .LVU1603
 4611 0030 0020     		movs	r0, #0
 4612              	.LVL486:
 420:lvgl/src/widgets/lv_table.c **** 
 4613              		.loc 1 420 1 view .LVU1604
 4614 0032 7047     		bx	lr
 4615              		.cfi_endproc
 4616              	.LFE168:
 4618              		.section	.text.lv_table_get_selected_cell,"ax",%progbits
 4619              		.align	1
 4620              		.global	lv_table_get_selected_cell
 4621              		.syntax unified
 4622              		.thumb
 4623              		.thumb_func
 4625              	lv_table_get_selected_cell:
 4626              	.LVL487:
 4627              	.LFB169:
 423:lvgl/src/widgets/lv_table.c ****     lv_table_t * table = (lv_table_t *)obj;
 4628              		.loc 1 423 1 is_stmt 1 view -0
 4629              		.cfi_startproc
 4630              		@ args = 0, pretend = 0, frame = 0
 4631              		@ frame_needed = 0, uses_anonymous_args = 0
 4632              		@ link register save eliminated.
 424:lvgl/src/widgets/lv_table.c ****     *row = table->row_act;
 4633              		.loc 1 424 5 view .LVU1606
 425:lvgl/src/widgets/lv_table.c ****     *col = table->col_act;
 4634              		.loc 1 425 5 view .LVU1607
 425:lvgl/src/widgets/lv_table.c ****     *col = table->col_act;
 4635              		.loc 1 425 17 is_stmt 0 view .LVU1608
 4636 0000 C38E     		ldrh	r3, [r0, #54]
 425:lvgl/src/widgets/lv_table.c ****     *col = table->col_act;
ARM GAS  C:\usertemp\ccJd89Xr.s 			page 141


 4637              		.loc 1 425 10 view .LVU1609
 4638 0002 0B80     		strh	r3, [r1]	@ movhi
 426:lvgl/src/widgets/lv_table.c **** }
 4639              		.loc 1 426 5 is_stmt 1 view .LVU1610
 426:lvgl/src/widgets/lv_table.c **** }
 4640              		.loc 1 426 17 is_stmt 0 view .LVU1611
 4641 0004 838E     		ldrh	r3, [r0, #52]
 426:lvgl/src/widgets/lv_table.c **** }
 4642              		.loc 1 426 10 view .LVU1612
 4643 0006 1380     		strh	r3, [r2]	@ movhi
 427:lvgl/src/widgets/lv_table.c **** 
 4644              		.loc 1 427 1 view .LVU1613
 4645 0008 7047     		bx	lr
 4646              		.cfi_endproc
 4647              	.LFE169:
 4649              		.global	lv_table_class
 4650              		.section	.rodata.lv_table_class,"a"
 4651              		.align	2
 4654              	lv_table_class:
 4655 0000 00000000 		.word	lv_obj_class
 4656 0004 00000000 		.word	lv_table_constructor
 4657 0008 00000000 		.word	lv_table_destructor
 4658 000c 00000000 		.space	4
 4659 0010 00000000 		.word	lv_table_event
 4660 0014 D127     		.short	10193
 4661 0016 D127     		.short	10193
 4662 0018 85       		.byte	133
 4663 0019 03       		.byte	3
 4664 001a 00       		.byte	0
 4665 001b 00       		.space	1
 4666              		.text
 4667              	.Letext0:
 4668              		.file 6 "D:/armtoolchain/arm-gnu-toolchain-13.3.rel1-mingw-w64-i686-arm-none-eabi/arm-none-eabi/in
 4669              		.file 7 "D:/armtoolchain/arm-gnu-toolchain-13.3.rel1-mingw-w64-i686-arm-none-eabi/arm-none-eabi/in
 4670              		.file 8 "D:/armtoolchain/arm-gnu-toolchain-13.3.rel1-mingw-w64-i686-arm-none-eabi/lib/gcc/arm-none
 4671              		.file 9 "lvgl/src/widgets/../core/../misc/lv_types.h"
 4672              		.file 10 "lvgl/src/widgets/../core/../misc/lv_color.h"
 4673              		.file 11 "D:/armtoolchain/arm-gnu-toolchain-13.3.rel1-mingw-w64-i686-arm-none-eabi/lib/gcc/arm-non
 4674              		.file 12 "lvgl/src/widgets/../core/../misc/lv_txt.h"
 4675              		.file 13 "lvgl/src/widgets/../core/../misc/lv_bidi.h"
 4676              		.file 14 "lvgl/src/widgets/../core/../misc/lv_style.h"
 4677              		.file 15 "lvgl/src/widgets/../core/../hal/../draw/lv_img_buf.h"
 4678              		.file 16 "lvgl/src/widgets/../core/lv_obj.h"
 4679              		.file 17 "lvgl/src/widgets/../core/../hal/../draw/lv_draw_rect.h"
 4680              		.file 18 "lvgl/src/widgets/../core/../hal/../draw/lv_draw_label.h"
 4681              		.file 19 "lvgl/src/widgets/../core/../hal/../draw/lv_draw_img.h"
 4682              		.file 20 "lvgl/src/widgets/../core/../hal/../draw/lv_draw_line.h"
 4683              		.file 21 "lvgl/src/widgets/../core/../hal/../draw/lv_draw_arc.h"
 4684              		.file 22 "lvgl/src/widgets/../core/../hal/../draw/lv_draw.h"
 4685              		.file 23 "lvgl/src/widgets/../core/../hal/../misc/lv_ll.h"
 4686              		.file 24 "lvgl/src/widgets/../core/../hal/../misc/lv_timer.h"
 4687              		.file 25 "lvgl/src/widgets/../core/../hal/lv_hal_disp.h"
 4688              		.file 26 "lvgl/src/widgets/../core/../hal/lv_hal_indev.h"
 4689              		.file 27 "lvgl/src/widgets/../core/lv_group.h"
 4690              		.file 28 "lvgl/src/widgets/../core/lv_obj_scroll.h"
 4691              		.file 29 "lvgl/src/widgets/../core/lv_obj_style.h"
 4692              		.file 30 "lvgl/src/widgets/../core/lv_obj_draw.h"
ARM GAS  C:\usertemp\ccJd89Xr.s 			page 142


 4693              		.file 31 "lvgl/src/widgets/../core/lv_obj_class.h"
 4694              		.file 32 "lvgl/src/widgets/../core/lv_event.h"
 4695              		.file 33 "lvgl/src/widgets/lv_table.h"
 4696              		.file 34 "D:/armtoolchain/arm-gnu-toolchain-13.3.rel1-mingw-w64-i686-arm-none-eabi/arm-none-eabi/i
 4697              		.file 35 "D:/armtoolchain/arm-gnu-toolchain-13.3.rel1-mingw-w64-i686-arm-none-eabi/arm-none-eabi/i
 4698              		.file 36 "lvgl/src/widgets/../core/lv_indev.h"
 4699              		.file 37 "D:/update_2024EL/changeform/743zit6/lvgl/src/core/lv_obj_pos.h"
 4700              		.file 38 "<built-in>"
ARM GAS  C:\usertemp\ccJd89Xr.s 			page 143


DEFINED SYMBOLS
                            *ABS*:00000000 lv_table.c
C:\usertemp\ccJd89Xr.s:20     .text.get_row_height:00000000 $t
C:\usertemp\ccJd89Xr.s:25     .text.get_row_height:00000000 get_row_height
C:\usertemp\ccJd89Xr.s:327    .text.refr_size:00000000 $t
C:\usertemp\ccJd89Xr.s:332    .text.refr_size:00000000 refr_size
C:\usertemp\ccJd89Xr.s:598    .text.get_pressed_cell:00000000 $t
C:\usertemp\ccJd89Xr.s:603    .text.get_pressed_cell:00000000 get_pressed_cell
C:\usertemp\ccJd89Xr.s:930    .text.draw_main:00000000 $t
C:\usertemp\ccJd89Xr.s:935    .text.draw_main:00000000 draw_main
C:\usertemp\ccJd89Xr.s:1884   .text.draw_main:00000450 $d
C:\usertemp\ccJd89Xr.s:4654   .rodata.lv_table_class:00000000 lv_table_class
C:\usertemp\ccJd89Xr.s:1889   .text.draw_main:00000454 $t
C:\usertemp\ccJd89Xr.s:2147   .text.lv_table_event:00000000 $t
C:\usertemp\ccJd89Xr.s:2152   .text.lv_table_event:00000000 lv_table_event
C:\usertemp\ccJd89Xr.s:2224   .text.lv_table_event:00000030 $d
C:\usertemp\ccJd89Xr.s:2268   .text.lv_table_event:000000e0 $t
C:\usertemp\ccJd89Xr.s:2537   .text.lv_table_event:000001ee $d
C:\usertemp\ccJd89Xr.s:2542   .text.lv_table_event:000001f2 $t
C:\usertemp\ccJd89Xr.s:2715   .text.lv_table_event:00000274 $d
C:\usertemp\ccJd89Xr.s:2720   .text.lv_table_destructor:00000000 $t
C:\usertemp\ccJd89Xr.s:2725   .text.lv_table_destructor:00000000 lv_table_destructor
C:\usertemp\ccJd89Xr.s:2822   .text.lv_table_constructor:00000000 $t
C:\usertemp\ccJd89Xr.s:2827   .text.lv_table_constructor:00000000 lv_table_constructor
C:\usertemp\ccJd89Xr.s:2911   .text.lv_table_create:00000000 $t
C:\usertemp\ccJd89Xr.s:2917   .text.lv_table_create:00000000 lv_table_create
C:\usertemp\ccJd89Xr.s:2956   .text.lv_table_create:00000014 $d
C:\usertemp\ccJd89Xr.s:2961   .text.lv_table_set_row_cnt:00000000 $t
C:\usertemp\ccJd89Xr.s:2967   .text.lv_table_set_row_cnt:00000000 lv_table_set_row_cnt
C:\usertemp\ccJd89Xr.s:3139   .text.lv_table_set_cell_value_fmt:00000000 $t
C:\usertemp\ccJd89Xr.s:3145   .text.lv_table_set_cell_value_fmt:00000000 lv_table_set_cell_value_fmt
C:\usertemp\ccJd89Xr.s:3558   .text.lv_table_set_col_cnt:00000000 $t
C:\usertemp\ccJd89Xr.s:3564   .text.lv_table_set_col_cnt:00000000 lv_table_set_col_cnt
C:\usertemp\ccJd89Xr.s:3845   .text.lv_table_set_cell_value:00000000 $t
C:\usertemp\ccJd89Xr.s:3851   .text.lv_table_set_cell_value:00000000 lv_table_set_cell_value
C:\usertemp\ccJd89Xr.s:4025   .text.lv_table_set_col_width:00000000 $t
C:\usertemp\ccJd89Xr.s:4031   .text.lv_table_set_col_width:00000000 lv_table_set_col_width
C:\usertemp\ccJd89Xr.s:4089   .text.lv_table_add_cell_ctrl:00000000 $t
C:\usertemp\ccJd89Xr.s:4095   .text.lv_table_add_cell_ctrl:00000000 lv_table_add_cell_ctrl
C:\usertemp\ccJd89Xr.s:4223   .text.lv_table_clear_cell_ctrl:00000000 $t
C:\usertemp\ccJd89Xr.s:4229   .text.lv_table_clear_cell_ctrl:00000000 lv_table_clear_cell_ctrl
C:\usertemp\ccJd89Xr.s:4363   .rodata.lv_table_get_cell_value.str1.4:00000000 $d
C:\usertemp\ccJd89Xr.s:4367   .text.lv_table_get_cell_value:00000000 $t
C:\usertemp\ccJd89Xr.s:4373   .text.lv_table_get_cell_value:00000000 lv_table_get_cell_value
C:\usertemp\ccJd89Xr.s:4435   .text.lv_table_get_cell_value:00000028 $d
C:\usertemp\ccJd89Xr.s:4440   .text.lv_table_get_row_cnt:00000000 $t
C:\usertemp\ccJd89Xr.s:4446   .text.lv_table_get_row_cnt:00000000 lv_table_get_row_cnt
C:\usertemp\ccJd89Xr.s:4468   .text.lv_table_get_col_cnt:00000000 $t
C:\usertemp\ccJd89Xr.s:4474   .text.lv_table_get_col_cnt:00000000 lv_table_get_col_cnt
C:\usertemp\ccJd89Xr.s:4496   .text.lv_table_get_col_width:00000000 $t
C:\usertemp\ccJd89Xr.s:4502   .text.lv_table_get_col_width:00000000 lv_table_get_col_width
C:\usertemp\ccJd89Xr.s:4539   .text.lv_table_has_cell_ctrl:00000000 $t
C:\usertemp\ccJd89Xr.s:4545   .text.lv_table_has_cell_ctrl:00000000 lv_table_has_cell_ctrl
C:\usertemp\ccJd89Xr.s:4619   .text.lv_table_get_selected_cell:00000000 $t
C:\usertemp\ccJd89Xr.s:4625   .text.lv_table_get_selected_cell:00000000 lv_table_get_selected_cell
C:\usertemp\ccJd89Xr.s:4651   .rodata.lv_table_class:00000000 $d

ARM GAS  C:\usertemp\ccJd89Xr.s 			page 144


UNDEFINED SYMBOLS
lv_txt_get_size
lv_obj_get_style_prop
lv_obj_refresh_self_size
lv_indev_get_act
lv_indev_get_type
lv_indev_get_point
lv_obj_get_scroll_x
lv_obj_get_scroll_y
lv_event_get_target
lv_event_get_draw_ctx
_lv_area_intersect
lv_draw_rect_dsc_init
lv_obj_init_draw_rect_dsc
lv_draw_label_dsc_init
lv_obj_init_draw_label_dsc
lv_obj_draw_dsc_init
lv_memcpy
lv_event_send
lv_draw_rect
lv_draw_label
lv_obj_event_base
lv_event_get_code
lv_event_get_param
lv_obj_invalidate
lv_indev_get_scroll_obj
lv_mem_free
lv_mem_alloc
lv_mem_realloc
lv_obj_class_create_obj
lv_obj_class_init_obj
lv_memset_00
vsnprintf
strlen
strcpy
lv_obj_class
