ARM GAS  C:\usertemp\ccJd89Xr.s 			page 1


   1              		.cpu cortex-m7
   2              		.arch armv7e-m
   3              		.fpu fpv5-d16
   4              		.eabi_attribute 28, 1
   5              		.eabi_attribute 20, 1
   6              		.eabi_attribute 21, 1
   7              		.eabi_attribute 23, 3
   8              		.eabi_attribute 24, 1
   9              		.eabi_attribute 25, 1
  10              		.eabi_attribute 26, 1
  11              		.eabi_attribute 30, 1
  12              		.eabi_attribute 34, 1
  13              		.eabi_attribute 18, 4
  14              		.file	"lv_table.c"
  15              		.text
  16              	.Ltext0:
  17              		.cfi_sections	.debug_frame
  18              		.file 1 "lvgl/src/widgets/lv_table.c"
  19              		.section	.text.get_row_height,"ax",%progbits
  20              		.align	1
  21              		.syntax unified
  22              		.thumb
  23              		.thumb_func
  25              	get_row_height:
  26              	.LVL0:
  27              	.LFB175:
   1:lvgl/src/widgets/lv_table.c **** /**
   2:lvgl/src/widgets/lv_table.c ****  * @file lv_table.c
   3:lvgl/src/widgets/lv_table.c ****  *
   4:lvgl/src/widgets/lv_table.c ****  */
   5:lvgl/src/widgets/lv_table.c **** 
   6:lvgl/src/widgets/lv_table.c **** /*********************
   7:lvgl/src/widgets/lv_table.c ****  *      INCLUDES
   8:lvgl/src/widgets/lv_table.c ****  *********************/
   9:lvgl/src/widgets/lv_table.c **** #include "lv_table.h"
  10:lvgl/src/widgets/lv_table.c **** #if LV_USE_TABLE != 0
  11:lvgl/src/widgets/lv_table.c **** 
  12:lvgl/src/widgets/lv_table.c **** #include "../core/lv_indev.h"
  13:lvgl/src/widgets/lv_table.c **** #include "../misc/lv_assert.h"
  14:lvgl/src/widgets/lv_table.c **** #include "../misc/lv_txt.h"
  15:lvgl/src/widgets/lv_table.c **** #include "../misc/lv_txt_ap.h"
  16:lvgl/src/widgets/lv_table.c **** #include "../misc/lv_math.h"
  17:lvgl/src/widgets/lv_table.c **** #include "../misc/lv_printf.h"
  18:lvgl/src/widgets/lv_table.c **** #include "../draw/lv_draw.h"
  19:lvgl/src/widgets/lv_table.c **** 
  20:lvgl/src/widgets/lv_table.c **** /*********************
  21:lvgl/src/widgets/lv_table.c ****  *      DEFINES
  22:lvgl/src/widgets/lv_table.c ****  *********************/
  23:lvgl/src/widgets/lv_table.c **** #define MY_CLASS &lv_table_class
  24:lvgl/src/widgets/lv_table.c **** 
  25:lvgl/src/widgets/lv_table.c **** /**********************
  26:lvgl/src/widgets/lv_table.c ****  *      TYPEDEFS
  27:lvgl/src/widgets/lv_table.c ****  **********************/
  28:lvgl/src/widgets/lv_table.c **** 
  29:lvgl/src/widgets/lv_table.c **** /**********************
  30:lvgl/src/widgets/lv_table.c ****  *  STATIC PROTOTYPES
  31:lvgl/src/widgets/lv_table.c ****  **********************/
ARM GAS  C:\usertemp\ccJd89Xr.s 			page 2


  32:lvgl/src/widgets/lv_table.c **** static void lv_table_constructor(const lv_obj_class_t * class_p, lv_obj_t * obj);
  33:lvgl/src/widgets/lv_table.c **** static void lv_table_destructor(const lv_obj_class_t * class_p, lv_obj_t * obj);
  34:lvgl/src/widgets/lv_table.c **** static void lv_table_event(const lv_obj_class_t * class_p, lv_event_t * e);
  35:lvgl/src/widgets/lv_table.c **** static void draw_main(lv_event_t * e);
  36:lvgl/src/widgets/lv_table.c **** static lv_coord_t get_row_height(lv_obj_t * obj, uint16_t row_id, const lv_font_t * font,
  37:lvgl/src/widgets/lv_table.c ****                                  lv_coord_t letter_space, lv_coord_t line_space,
  38:lvgl/src/widgets/lv_table.c ****                                  lv_coord_t cell_left, lv_coord_t cell_right, lv_coord_t cell_top, 
  39:lvgl/src/widgets/lv_table.c **** static void refr_size(lv_obj_t * obj, uint32_t strat_row);
  40:lvgl/src/widgets/lv_table.c **** static lv_res_t get_pressed_cell(lv_obj_t * obj, uint16_t * row, uint16_t * col);
  41:lvgl/src/widgets/lv_table.c **** 
  42:lvgl/src/widgets/lv_table.c **** /**********************
  43:lvgl/src/widgets/lv_table.c ****  *  STATIC VARIABLES
  44:lvgl/src/widgets/lv_table.c ****  **********************/
  45:lvgl/src/widgets/lv_table.c **** const lv_obj_class_t lv_table_class  = {
  46:lvgl/src/widgets/lv_table.c ****     .constructor_cb = lv_table_constructor,
  47:lvgl/src/widgets/lv_table.c ****     .destructor_cb = lv_table_destructor,
  48:lvgl/src/widgets/lv_table.c ****     .event_cb = lv_table_event,
  49:lvgl/src/widgets/lv_table.c ****     .width_def = LV_SIZE_CONTENT,
  50:lvgl/src/widgets/lv_table.c ****     .height_def = LV_SIZE_CONTENT,
  51:lvgl/src/widgets/lv_table.c ****     .base_class = &lv_obj_class,
  52:lvgl/src/widgets/lv_table.c ****     .editable = LV_OBJ_CLASS_EDITABLE_TRUE,
  53:lvgl/src/widgets/lv_table.c ****     .group_def = LV_OBJ_CLASS_GROUP_DEF_TRUE,
  54:lvgl/src/widgets/lv_table.c ****     .instance_size = sizeof(lv_table_t),
  55:lvgl/src/widgets/lv_table.c **** };
  56:lvgl/src/widgets/lv_table.c **** /**********************
  57:lvgl/src/widgets/lv_table.c ****  *      MACROS
  58:lvgl/src/widgets/lv_table.c ****  **********************/
  59:lvgl/src/widgets/lv_table.c **** 
  60:lvgl/src/widgets/lv_table.c **** /**********************
  61:lvgl/src/widgets/lv_table.c ****  *   GLOBAL FUNCTIONS
  62:lvgl/src/widgets/lv_table.c ****  **********************/
  63:lvgl/src/widgets/lv_table.c **** 
  64:lvgl/src/widgets/lv_table.c **** lv_obj_t * lv_table_create(lv_obj_t * parent)
  65:lvgl/src/widgets/lv_table.c **** {
  66:lvgl/src/widgets/lv_table.c ****     LV_LOG_INFO("begin");
  67:lvgl/src/widgets/lv_table.c ****     lv_obj_t * obj = lv_obj_class_create_obj(MY_CLASS, parent);
  68:lvgl/src/widgets/lv_table.c ****     lv_obj_class_init_obj(obj);
  69:lvgl/src/widgets/lv_table.c ****     return obj;
  70:lvgl/src/widgets/lv_table.c **** }
  71:lvgl/src/widgets/lv_table.c **** 
  72:lvgl/src/widgets/lv_table.c **** /*=====================
  73:lvgl/src/widgets/lv_table.c ****  * Setter functions
  74:lvgl/src/widgets/lv_table.c ****  *====================*/
  75:lvgl/src/widgets/lv_table.c **** 
  76:lvgl/src/widgets/lv_table.c **** void lv_table_set_cell_value(lv_obj_t * obj, uint16_t row, uint16_t col, const char * txt)
  77:lvgl/src/widgets/lv_table.c **** {
  78:lvgl/src/widgets/lv_table.c ****     LV_ASSERT_OBJ(obj, MY_CLASS);
  79:lvgl/src/widgets/lv_table.c ****     LV_ASSERT_NULL(txt);
  80:lvgl/src/widgets/lv_table.c **** 
  81:lvgl/src/widgets/lv_table.c ****     lv_table_t * table = (lv_table_t *)obj;
  82:lvgl/src/widgets/lv_table.c **** 
  83:lvgl/src/widgets/lv_table.c ****     /*Auto expand*/
  84:lvgl/src/widgets/lv_table.c ****     if(col >= table->col_cnt) lv_table_set_col_cnt(obj, col + 1);
  85:lvgl/src/widgets/lv_table.c ****     if(row >= table->row_cnt) lv_table_set_row_cnt(obj, row + 1);
  86:lvgl/src/widgets/lv_table.c **** 
  87:lvgl/src/widgets/lv_table.c ****     uint32_t cell = row * table->col_cnt + col;
  88:lvgl/src/widgets/lv_table.c ****     lv_table_cell_ctrl_t ctrl = 0;
ARM GAS  C:\usertemp\ccJd89Xr.s 			page 3


  89:lvgl/src/widgets/lv_table.c **** 
  90:lvgl/src/widgets/lv_table.c ****     /*Save the control byte*/
  91:lvgl/src/widgets/lv_table.c ****     if(table->cell_data[cell]) ctrl = table->cell_data[cell][0];
  92:lvgl/src/widgets/lv_table.c **** 
  93:lvgl/src/widgets/lv_table.c **** #if LV_USE_ARABIC_PERSIAN_CHARS
  94:lvgl/src/widgets/lv_table.c ****     /*Get the size of the Arabic text and process it*/
  95:lvgl/src/widgets/lv_table.c ****     size_t len_ap = _lv_txt_ap_calc_bytes_cnt(txt);
  96:lvgl/src/widgets/lv_table.c ****     table->cell_data[cell] = lv_mem_realloc(table->cell_data[cell], len_ap + 1);
  97:lvgl/src/widgets/lv_table.c ****     LV_ASSERT_MALLOC(table->cell_data[cell]);
  98:lvgl/src/widgets/lv_table.c ****     if(table->cell_data[cell] == NULL) return;
  99:lvgl/src/widgets/lv_table.c **** 
 100:lvgl/src/widgets/lv_table.c ****     _lv_txt_ap_proc(txt, &table->cell_data[cell][1]);
 101:lvgl/src/widgets/lv_table.c **** #else
 102:lvgl/src/widgets/lv_table.c ****     table->cell_data[cell] = lv_mem_realloc(table->cell_data[cell], strlen(txt) + 2); /*+1: trailin
 103:lvgl/src/widgets/lv_table.c ****     LV_ASSERT_MALLOC(table->cell_data[cell]);
 104:lvgl/src/widgets/lv_table.c **** 
 105:lvgl/src/widgets/lv_table.c ****     strcpy(table->cell_data[cell] + 1, txt);  /*+1 to skip the format byte*/
 106:lvgl/src/widgets/lv_table.c **** #endif
 107:lvgl/src/widgets/lv_table.c **** 
 108:lvgl/src/widgets/lv_table.c ****     table->cell_data[cell][0] = ctrl;
 109:lvgl/src/widgets/lv_table.c ****     refr_size(obj, row);
 110:lvgl/src/widgets/lv_table.c **** 
 111:lvgl/src/widgets/lv_table.c ****     lv_obj_invalidate(obj);
 112:lvgl/src/widgets/lv_table.c **** }
 113:lvgl/src/widgets/lv_table.c **** 
 114:lvgl/src/widgets/lv_table.c **** void lv_table_set_cell_value_fmt(lv_obj_t * obj, uint16_t row, uint16_t col, const char * fmt, ...)
 115:lvgl/src/widgets/lv_table.c **** {
 116:lvgl/src/widgets/lv_table.c ****     LV_ASSERT_OBJ(obj, MY_CLASS);
 117:lvgl/src/widgets/lv_table.c ****     LV_ASSERT_NULL(fmt);
 118:lvgl/src/widgets/lv_table.c **** 
 119:lvgl/src/widgets/lv_table.c ****     lv_table_t * table = (lv_table_t *)obj;
 120:lvgl/src/widgets/lv_table.c ****     if(col >= table->col_cnt) {
 121:lvgl/src/widgets/lv_table.c ****         LV_LOG_WARN("lv_table_set_cell_value: invalid column");
 122:lvgl/src/widgets/lv_table.c ****         return;
 123:lvgl/src/widgets/lv_table.c ****     }
 124:lvgl/src/widgets/lv_table.c **** 
 125:lvgl/src/widgets/lv_table.c ****     /*Auto expand*/
 126:lvgl/src/widgets/lv_table.c ****     if(row >= table->row_cnt) {
 127:lvgl/src/widgets/lv_table.c ****         lv_table_set_row_cnt(obj, row + 1);
 128:lvgl/src/widgets/lv_table.c ****     }
 129:lvgl/src/widgets/lv_table.c **** 
 130:lvgl/src/widgets/lv_table.c ****     uint32_t cell = row * table->col_cnt + col;
 131:lvgl/src/widgets/lv_table.c ****     lv_table_cell_ctrl_t ctrl = 0;
 132:lvgl/src/widgets/lv_table.c **** 
 133:lvgl/src/widgets/lv_table.c ****     /*Save the control byte*/
 134:lvgl/src/widgets/lv_table.c ****     if(table->cell_data[cell]) ctrl = table->cell_data[cell][0];
 135:lvgl/src/widgets/lv_table.c **** 
 136:lvgl/src/widgets/lv_table.c ****     va_list ap, ap2;
 137:lvgl/src/widgets/lv_table.c ****     va_start(ap, fmt);
 138:lvgl/src/widgets/lv_table.c ****     va_copy(ap2, ap);
 139:lvgl/src/widgets/lv_table.c **** 
 140:lvgl/src/widgets/lv_table.c ****     /*Allocate space for the new text by using trick from C99 standard section 7.19.6.12*/
 141:lvgl/src/widgets/lv_table.c ****     uint32_t len = lv_vsnprintf(NULL, 0, fmt, ap);
 142:lvgl/src/widgets/lv_table.c ****     va_end(ap);
 143:lvgl/src/widgets/lv_table.c **** 
 144:lvgl/src/widgets/lv_table.c **** #if LV_USE_ARABIC_PERSIAN_CHARS
 145:lvgl/src/widgets/lv_table.c ****     /*Put together the text according to the format string*/
ARM GAS  C:\usertemp\ccJd89Xr.s 			page 4


 146:lvgl/src/widgets/lv_table.c ****     char * raw_txt = lv_mem_buf_get(len + 1);
 147:lvgl/src/widgets/lv_table.c ****     LV_ASSERT_MALLOC(raw_txt);
 148:lvgl/src/widgets/lv_table.c ****     if(raw_txt == NULL) {
 149:lvgl/src/widgets/lv_table.c ****         va_end(ap2);
 150:lvgl/src/widgets/lv_table.c ****         return;
 151:lvgl/src/widgets/lv_table.c ****     }
 152:lvgl/src/widgets/lv_table.c **** 
 153:lvgl/src/widgets/lv_table.c ****     lv_vsnprintf(raw_txt, len + 1, fmt, ap2);
 154:lvgl/src/widgets/lv_table.c **** 
 155:lvgl/src/widgets/lv_table.c ****     /*Get the size of the Arabic text and process it*/
 156:lvgl/src/widgets/lv_table.c ****     size_t len_ap = _lv_txt_ap_calc_bytes_cnt(raw_txt);
 157:lvgl/src/widgets/lv_table.c ****     table->cell_data[cell] = lv_mem_realloc(table->cell_data[cell], len_ap + 1);
 158:lvgl/src/widgets/lv_table.c ****     LV_ASSERT_MALLOC(table->cell_data[cell]);
 159:lvgl/src/widgets/lv_table.c ****     if(table->cell_data[cell] == NULL) {
 160:lvgl/src/widgets/lv_table.c ****         va_end(ap2);
 161:lvgl/src/widgets/lv_table.c ****         return;
 162:lvgl/src/widgets/lv_table.c ****     }
 163:lvgl/src/widgets/lv_table.c ****     _lv_txt_ap_proc(raw_txt, &table->cell_data[cell][1]);
 164:lvgl/src/widgets/lv_table.c **** 
 165:lvgl/src/widgets/lv_table.c ****     lv_mem_buf_release(raw_txt);
 166:lvgl/src/widgets/lv_table.c **** #else
 167:lvgl/src/widgets/lv_table.c ****     table->cell_data[cell] = lv_mem_realloc(table->cell_data[cell], len + 2); /*+1: trailing '\0; +
 168:lvgl/src/widgets/lv_table.c ****     LV_ASSERT_MALLOC(table->cell_data[cell]);
 169:lvgl/src/widgets/lv_table.c ****     if(table->cell_data[cell] == NULL) {
 170:lvgl/src/widgets/lv_table.c ****         va_end(ap2);
 171:lvgl/src/widgets/lv_table.c ****         return;
 172:lvgl/src/widgets/lv_table.c ****     }
 173:lvgl/src/widgets/lv_table.c **** 
 174:lvgl/src/widgets/lv_table.c ****     table->cell_data[cell][len + 1] = 0; /*Ensure NULL termination*/
 175:lvgl/src/widgets/lv_table.c **** 
 176:lvgl/src/widgets/lv_table.c ****     lv_vsnprintf(&table->cell_data[cell][1], len + 1, fmt, ap2);
 177:lvgl/src/widgets/lv_table.c **** #endif
 178:lvgl/src/widgets/lv_table.c **** 
 179:lvgl/src/widgets/lv_table.c ****     va_end(ap2);
 180:lvgl/src/widgets/lv_table.c **** 
 181:lvgl/src/widgets/lv_table.c ****     table->cell_data[cell][0] = ctrl;
 182:lvgl/src/widgets/lv_table.c **** 
 183:lvgl/src/widgets/lv_table.c ****     /*Refresh the row height*/
 184:lvgl/src/widgets/lv_table.c ****     lv_coord_t cell_left = lv_obj_get_style_pad_left(obj, LV_PART_ITEMS);
 185:lvgl/src/widgets/lv_table.c ****     lv_coord_t cell_right = lv_obj_get_style_pad_right(obj, LV_PART_ITEMS);
 186:lvgl/src/widgets/lv_table.c ****     lv_coord_t cell_top = lv_obj_get_style_pad_top(obj, LV_PART_ITEMS);
 187:lvgl/src/widgets/lv_table.c ****     lv_coord_t cell_bottom = lv_obj_get_style_pad_bottom(obj, LV_PART_ITEMS);
 188:lvgl/src/widgets/lv_table.c **** 
 189:lvgl/src/widgets/lv_table.c ****     lv_coord_t letter_space = lv_obj_get_style_text_letter_space(obj, LV_PART_ITEMS);
 190:lvgl/src/widgets/lv_table.c ****     lv_coord_t line_space = lv_obj_get_style_text_line_space(obj, LV_PART_ITEMS);
 191:lvgl/src/widgets/lv_table.c ****     const lv_font_t * font = lv_obj_get_style_text_font(obj, LV_PART_ITEMS);
 192:lvgl/src/widgets/lv_table.c **** 
 193:lvgl/src/widgets/lv_table.c ****     lv_coord_t h = get_row_height(obj, row, font, letter_space, line_space,
 194:lvgl/src/widgets/lv_table.c ****                                   cell_left, cell_right, cell_top, cell_bottom);
 195:lvgl/src/widgets/lv_table.c **** 
 196:lvgl/src/widgets/lv_table.c **** 
 197:lvgl/src/widgets/lv_table.c ****     lv_coord_t minh = lv_obj_get_style_min_height(obj, LV_PART_ITEMS);
 198:lvgl/src/widgets/lv_table.c ****     lv_coord_t maxh = lv_obj_get_style_max_height(obj, LV_PART_ITEMS);
 199:lvgl/src/widgets/lv_table.c **** 
 200:lvgl/src/widgets/lv_table.c ****     table->row_h[row] = LV_CLAMP(minh, h, maxh);
 201:lvgl/src/widgets/lv_table.c **** 
 202:lvgl/src/widgets/lv_table.c ****     lv_obj_invalidate(obj);
ARM GAS  C:\usertemp\ccJd89Xr.s 			page 5


 203:lvgl/src/widgets/lv_table.c **** }
 204:lvgl/src/widgets/lv_table.c **** 
 205:lvgl/src/widgets/lv_table.c **** void lv_table_set_row_cnt(lv_obj_t * obj, uint16_t row_cnt)
 206:lvgl/src/widgets/lv_table.c **** {
 207:lvgl/src/widgets/lv_table.c ****     LV_ASSERT_OBJ(obj, MY_CLASS);
 208:lvgl/src/widgets/lv_table.c **** 
 209:lvgl/src/widgets/lv_table.c ****     lv_table_t * table = (lv_table_t *)obj;
 210:lvgl/src/widgets/lv_table.c ****     uint16_t old_row_cnt = table->row_cnt;
 211:lvgl/src/widgets/lv_table.c ****     table->row_cnt         = row_cnt;
 212:lvgl/src/widgets/lv_table.c **** 
 213:lvgl/src/widgets/lv_table.c ****     table->row_h = lv_mem_realloc(table->row_h, table->row_cnt * sizeof(table->row_h[0]));
 214:lvgl/src/widgets/lv_table.c ****     LV_ASSERT_MALLOC(table->row_h);
 215:lvgl/src/widgets/lv_table.c ****     if(table->row_h == NULL) return;
 216:lvgl/src/widgets/lv_table.c **** 
 217:lvgl/src/widgets/lv_table.c ****     /*Free the unused cells*/
 218:lvgl/src/widgets/lv_table.c ****     if(old_row_cnt > row_cnt) {
 219:lvgl/src/widgets/lv_table.c ****         uint16_t old_cell_cnt = old_row_cnt * table->col_cnt;
 220:lvgl/src/widgets/lv_table.c ****         uint32_t new_cell_cnt = table->col_cnt * table->row_cnt;
 221:lvgl/src/widgets/lv_table.c ****         uint32_t i;
 222:lvgl/src/widgets/lv_table.c ****         for(i = new_cell_cnt; i < old_cell_cnt; i++) {
 223:lvgl/src/widgets/lv_table.c ****             lv_mem_free(table->cell_data[i]);
 224:lvgl/src/widgets/lv_table.c ****         }
 225:lvgl/src/widgets/lv_table.c ****     }
 226:lvgl/src/widgets/lv_table.c **** 
 227:lvgl/src/widgets/lv_table.c ****     table->cell_data = lv_mem_realloc(table->cell_data, table->row_cnt * table->col_cnt * sizeof(ch
 228:lvgl/src/widgets/lv_table.c ****     LV_ASSERT_MALLOC(table->cell_data);
 229:lvgl/src/widgets/lv_table.c ****     if(table->cell_data == NULL) return;
 230:lvgl/src/widgets/lv_table.c **** 
 231:lvgl/src/widgets/lv_table.c ****     /*Initialize the new fields*/
 232:lvgl/src/widgets/lv_table.c ****     if(old_row_cnt < row_cnt) {
 233:lvgl/src/widgets/lv_table.c ****         uint32_t old_cell_cnt = old_row_cnt * table->col_cnt;
 234:lvgl/src/widgets/lv_table.c ****         uint32_t new_cell_cnt = table->col_cnt * table->row_cnt;
 235:lvgl/src/widgets/lv_table.c ****         lv_memset_00(&table->cell_data[old_cell_cnt], (new_cell_cnt - old_cell_cnt) * sizeof(table-
 236:lvgl/src/widgets/lv_table.c ****     }
 237:lvgl/src/widgets/lv_table.c **** 
 238:lvgl/src/widgets/lv_table.c ****     refr_size(obj, 0) ;
 239:lvgl/src/widgets/lv_table.c **** }
 240:lvgl/src/widgets/lv_table.c **** 
 241:lvgl/src/widgets/lv_table.c **** void lv_table_set_col_cnt(lv_obj_t * obj, uint16_t col_cnt)
 242:lvgl/src/widgets/lv_table.c **** {
 243:lvgl/src/widgets/lv_table.c ****     LV_ASSERT_OBJ(obj, MY_CLASS);
 244:lvgl/src/widgets/lv_table.c **** 
 245:lvgl/src/widgets/lv_table.c ****     lv_table_t * table = (lv_table_t *)obj;
 246:lvgl/src/widgets/lv_table.c ****     uint16_t old_col_cnt = table->col_cnt;
 247:lvgl/src/widgets/lv_table.c ****     table->col_cnt         = col_cnt;
 248:lvgl/src/widgets/lv_table.c ****     table->col_w = lv_mem_realloc(table->col_w, col_cnt * sizeof(table->row_h[0]));
 249:lvgl/src/widgets/lv_table.c ****     LV_ASSERT_MALLOC(table->col_w);
 250:lvgl/src/widgets/lv_table.c ****     if(table->col_w == NULL) return;
 251:lvgl/src/widgets/lv_table.c **** 
 252:lvgl/src/widgets/lv_table.c ****     /*Free the unused cells*/
 253:lvgl/src/widgets/lv_table.c ****     if(old_col_cnt > col_cnt) {
 254:lvgl/src/widgets/lv_table.c ****         uint16_t old_cell_cnt = old_col_cnt * table->row_cnt;
 255:lvgl/src/widgets/lv_table.c ****         uint32_t new_cell_cnt = table->col_cnt * table->row_cnt;
 256:lvgl/src/widgets/lv_table.c ****         uint32_t i;
 257:lvgl/src/widgets/lv_table.c ****         for(i = new_cell_cnt; i < old_cell_cnt; i++) {
 258:lvgl/src/widgets/lv_table.c ****             lv_mem_free(table->cell_data[i]);
 259:lvgl/src/widgets/lv_table.c ****         }
ARM GAS  C:\usertemp\ccJd89Xr.s 			page 6


 260:lvgl/src/widgets/lv_table.c ****     }
 261:lvgl/src/widgets/lv_table.c **** 
 262:lvgl/src/widgets/lv_table.c ****     char ** new_cell_data = lv_mem_alloc(table->row_cnt * table->col_cnt * sizeof(char *));
 263:lvgl/src/widgets/lv_table.c ****     LV_ASSERT_MALLOC(new_cell_data);
 264:lvgl/src/widgets/lv_table.c ****     if(new_cell_data == NULL) return;
 265:lvgl/src/widgets/lv_table.c ****     uint32_t new_cell_cnt = table->col_cnt * table->row_cnt;
 266:lvgl/src/widgets/lv_table.c ****     lv_memset_00(new_cell_data, new_cell_cnt * sizeof(table->cell_data[0]));
 267:lvgl/src/widgets/lv_table.c **** 
 268:lvgl/src/widgets/lv_table.c ****     /*Initialize the new fields*/
 269:lvgl/src/widgets/lv_table.c ****     if(old_col_cnt < col_cnt) {
 270:lvgl/src/widgets/lv_table.c ****         uint32_t col;
 271:lvgl/src/widgets/lv_table.c ****         for(col = old_col_cnt; col < col_cnt; col++) {
 272:lvgl/src/widgets/lv_table.c ****             table->col_w[col] = LV_DPI_DEF;
 273:lvgl/src/widgets/lv_table.c ****         }
 274:lvgl/src/widgets/lv_table.c ****     }
 275:lvgl/src/widgets/lv_table.c **** 
 276:lvgl/src/widgets/lv_table.c ****     /*The new column(s) messes up the mapping of `cell_data`*/
 277:lvgl/src/widgets/lv_table.c ****     uint32_t old_col_start;
 278:lvgl/src/widgets/lv_table.c ****     uint32_t new_col_start;
 279:lvgl/src/widgets/lv_table.c ****     uint32_t min_col_cnt = LV_MIN(old_col_cnt, col_cnt);
 280:lvgl/src/widgets/lv_table.c ****     uint32_t row;
 281:lvgl/src/widgets/lv_table.c ****     for(row = 0; row < table->row_cnt; row++) {
 282:lvgl/src/widgets/lv_table.c ****         old_col_start = row * old_col_cnt;
 283:lvgl/src/widgets/lv_table.c ****         new_col_start = row * col_cnt;
 284:lvgl/src/widgets/lv_table.c **** 
 285:lvgl/src/widgets/lv_table.c ****         lv_memcpy_small(&new_cell_data[new_col_start], &table->cell_data[old_col_start],
 286:lvgl/src/widgets/lv_table.c ****                         sizeof(new_cell_data[0]) * min_col_cnt);
 287:lvgl/src/widgets/lv_table.c ****     }
 288:lvgl/src/widgets/lv_table.c **** 
 289:lvgl/src/widgets/lv_table.c ****     lv_mem_free(table->cell_data);
 290:lvgl/src/widgets/lv_table.c ****     table->cell_data = new_cell_data;
 291:lvgl/src/widgets/lv_table.c **** 
 292:lvgl/src/widgets/lv_table.c **** 
 293:lvgl/src/widgets/lv_table.c ****     refr_size(obj, 0) ;
 294:lvgl/src/widgets/lv_table.c **** }
 295:lvgl/src/widgets/lv_table.c **** 
 296:lvgl/src/widgets/lv_table.c **** void lv_table_set_col_width(lv_obj_t * obj, uint16_t col_id, lv_coord_t w)
 297:lvgl/src/widgets/lv_table.c **** {
 298:lvgl/src/widgets/lv_table.c ****     LV_ASSERT_OBJ(obj, MY_CLASS);
 299:lvgl/src/widgets/lv_table.c **** 
 300:lvgl/src/widgets/lv_table.c ****     lv_table_t * table = (lv_table_t *)obj;
 301:lvgl/src/widgets/lv_table.c **** 
 302:lvgl/src/widgets/lv_table.c ****     /*Auto expand*/
 303:lvgl/src/widgets/lv_table.c ****     if(col_id >= table->col_cnt) lv_table_set_col_cnt(obj, col_id + 1);
 304:lvgl/src/widgets/lv_table.c **** 
 305:lvgl/src/widgets/lv_table.c ****     table->col_w[col_id] = w;
 306:lvgl/src/widgets/lv_table.c ****     refr_size(obj, 0) ;
 307:lvgl/src/widgets/lv_table.c **** }
 308:lvgl/src/widgets/lv_table.c **** 
 309:lvgl/src/widgets/lv_table.c **** void lv_table_add_cell_ctrl(lv_obj_t * obj, uint16_t row, uint16_t col, lv_table_cell_ctrl_t ctrl)
 310:lvgl/src/widgets/lv_table.c **** {
 311:lvgl/src/widgets/lv_table.c ****     LV_ASSERT_OBJ(obj, MY_CLASS);
 312:lvgl/src/widgets/lv_table.c **** 
 313:lvgl/src/widgets/lv_table.c ****     lv_table_t * table = (lv_table_t *)obj;
 314:lvgl/src/widgets/lv_table.c **** 
 315:lvgl/src/widgets/lv_table.c ****     /*Auto expand*/
 316:lvgl/src/widgets/lv_table.c ****     if(col >= table->col_cnt) lv_table_set_col_cnt(obj, col + 1);
ARM GAS  C:\usertemp\ccJd89Xr.s 			page 7


 317:lvgl/src/widgets/lv_table.c ****     if(row >= table->row_cnt) lv_table_set_row_cnt(obj, row + 1);
 318:lvgl/src/widgets/lv_table.c **** 
 319:lvgl/src/widgets/lv_table.c ****     uint32_t cell = row * table->col_cnt + col;
 320:lvgl/src/widgets/lv_table.c **** 
 321:lvgl/src/widgets/lv_table.c ****     if(table->cell_data[cell] == NULL) {
 322:lvgl/src/widgets/lv_table.c ****         table->cell_data[cell]    = lv_mem_alloc(2); /*+1: trailing '\0; +1: format byte*/
 323:lvgl/src/widgets/lv_table.c ****         LV_ASSERT_MALLOC(table->cell_data[cell]);
 324:lvgl/src/widgets/lv_table.c ****         if(table->cell_data[cell] == NULL) return;
 325:lvgl/src/widgets/lv_table.c **** 
 326:lvgl/src/widgets/lv_table.c ****         table->cell_data[cell][0] = 0;
 327:lvgl/src/widgets/lv_table.c ****         table->cell_data[cell][1] = '\0';
 328:lvgl/src/widgets/lv_table.c ****     }
 329:lvgl/src/widgets/lv_table.c **** 
 330:lvgl/src/widgets/lv_table.c ****     table->cell_data[cell][0] |= ctrl;
 331:lvgl/src/widgets/lv_table.c **** }
 332:lvgl/src/widgets/lv_table.c **** 
 333:lvgl/src/widgets/lv_table.c **** void lv_table_clear_cell_ctrl(lv_obj_t * obj, uint16_t row, uint16_t col, lv_table_cell_ctrl_t ctrl
 334:lvgl/src/widgets/lv_table.c **** {
 335:lvgl/src/widgets/lv_table.c ****     LV_ASSERT_OBJ(obj, MY_CLASS);
 336:lvgl/src/widgets/lv_table.c **** 
 337:lvgl/src/widgets/lv_table.c ****     lv_table_t * table = (lv_table_t *)obj;
 338:lvgl/src/widgets/lv_table.c **** 
 339:lvgl/src/widgets/lv_table.c ****     /*Auto expand*/
 340:lvgl/src/widgets/lv_table.c ****     if(col >= table->col_cnt) lv_table_set_col_cnt(obj, col + 1);
 341:lvgl/src/widgets/lv_table.c ****     if(row >= table->row_cnt) lv_table_set_row_cnt(obj, row + 1);
 342:lvgl/src/widgets/lv_table.c **** 
 343:lvgl/src/widgets/lv_table.c ****     uint32_t cell = row * table->col_cnt + col;
 344:lvgl/src/widgets/lv_table.c **** 
 345:lvgl/src/widgets/lv_table.c ****     if(table->cell_data[cell] == NULL) {
 346:lvgl/src/widgets/lv_table.c ****         table->cell_data[cell]    = lv_mem_alloc(2); /*+1: trailing '\0; +1: format byte*/
 347:lvgl/src/widgets/lv_table.c ****         LV_ASSERT_MALLOC(table->cell_data[cell]);
 348:lvgl/src/widgets/lv_table.c ****         if(table->cell_data[cell] == NULL) return;
 349:lvgl/src/widgets/lv_table.c **** 
 350:lvgl/src/widgets/lv_table.c ****         table->cell_data[cell][0] = 0;
 351:lvgl/src/widgets/lv_table.c ****         table->cell_data[cell][1] = '\0';
 352:lvgl/src/widgets/lv_table.c ****     }
 353:lvgl/src/widgets/lv_table.c **** 
 354:lvgl/src/widgets/lv_table.c ****     table->cell_data[cell][0] &= (~ctrl);
 355:lvgl/src/widgets/lv_table.c **** }
 356:lvgl/src/widgets/lv_table.c **** 
 357:lvgl/src/widgets/lv_table.c **** /*=====================
 358:lvgl/src/widgets/lv_table.c ****  * Getter functions
 359:lvgl/src/widgets/lv_table.c ****  *====================*/
 360:lvgl/src/widgets/lv_table.c **** 
 361:lvgl/src/widgets/lv_table.c **** const char * lv_table_get_cell_value(lv_obj_t * obj, uint16_t row, uint16_t col)
 362:lvgl/src/widgets/lv_table.c **** {
 363:lvgl/src/widgets/lv_table.c ****     LV_ASSERT_OBJ(obj, MY_CLASS);
 364:lvgl/src/widgets/lv_table.c **** 
 365:lvgl/src/widgets/lv_table.c ****     lv_table_t * table = (lv_table_t *)obj;
 366:lvgl/src/widgets/lv_table.c ****     if(row >= table->row_cnt || col >= table->col_cnt) {
 367:lvgl/src/widgets/lv_table.c ****         LV_LOG_WARN("lv_table_set_cell_value: invalid row or column");
 368:lvgl/src/widgets/lv_table.c ****         return "";
 369:lvgl/src/widgets/lv_table.c ****     }
 370:lvgl/src/widgets/lv_table.c ****     uint32_t cell = row * table->col_cnt + col;
 371:lvgl/src/widgets/lv_table.c **** 
 372:lvgl/src/widgets/lv_table.c ****     if(table->cell_data[cell] == NULL) return "";
 373:lvgl/src/widgets/lv_table.c **** 
ARM GAS  C:\usertemp\ccJd89Xr.s 			page 8


 374:lvgl/src/widgets/lv_table.c ****     return &table->cell_data[cell][1]; /*Skip the format byte*/
 375:lvgl/src/widgets/lv_table.c **** }
 376:lvgl/src/widgets/lv_table.c **** 
 377:lvgl/src/widgets/lv_table.c **** uint16_t lv_table_get_row_cnt(lv_obj_t * obj)
 378:lvgl/src/widgets/lv_table.c **** {
 379:lvgl/src/widgets/lv_table.c ****     LV_ASSERT_OBJ(obj, MY_CLASS);
 380:lvgl/src/widgets/lv_table.c **** 
 381:lvgl/src/widgets/lv_table.c ****     lv_table_t * table = (lv_table_t *)obj;
 382:lvgl/src/widgets/lv_table.c ****     return table->row_cnt;
 383:lvgl/src/widgets/lv_table.c **** }
 384:lvgl/src/widgets/lv_table.c **** 
 385:lvgl/src/widgets/lv_table.c **** uint16_t lv_table_get_col_cnt(lv_obj_t * obj)
 386:lvgl/src/widgets/lv_table.c **** {
 387:lvgl/src/widgets/lv_table.c ****     LV_ASSERT_OBJ(obj, MY_CLASS);
 388:lvgl/src/widgets/lv_table.c **** 
 389:lvgl/src/widgets/lv_table.c ****     lv_table_t * table = (lv_table_t *)obj;
 390:lvgl/src/widgets/lv_table.c ****     return table->col_cnt;
 391:lvgl/src/widgets/lv_table.c **** }
 392:lvgl/src/widgets/lv_table.c **** 
 393:lvgl/src/widgets/lv_table.c **** lv_coord_t lv_table_get_col_width(lv_obj_t * obj, uint16_t col)
 394:lvgl/src/widgets/lv_table.c **** {
 395:lvgl/src/widgets/lv_table.c ****     LV_ASSERT_OBJ(obj, MY_CLASS);
 396:lvgl/src/widgets/lv_table.c **** 
 397:lvgl/src/widgets/lv_table.c ****     lv_table_t * table = (lv_table_t *)obj;
 398:lvgl/src/widgets/lv_table.c **** 
 399:lvgl/src/widgets/lv_table.c ****     if(col >= table->col_cnt) {
 400:lvgl/src/widgets/lv_table.c ****         LV_LOG_WARN("lv_table_set_col_width: too big 'col_id'. Must be < LV_TABLE_COL_MAX.");
 401:lvgl/src/widgets/lv_table.c ****         return 0;
 402:lvgl/src/widgets/lv_table.c ****     }
 403:lvgl/src/widgets/lv_table.c **** 
 404:lvgl/src/widgets/lv_table.c ****     return table->col_w[col];
 405:lvgl/src/widgets/lv_table.c **** }
 406:lvgl/src/widgets/lv_table.c **** 
 407:lvgl/src/widgets/lv_table.c **** bool lv_table_has_cell_ctrl(lv_obj_t * obj, uint16_t row, uint16_t col, lv_table_cell_ctrl_t ctrl)
 408:lvgl/src/widgets/lv_table.c **** {
 409:lvgl/src/widgets/lv_table.c ****     LV_ASSERT_OBJ(obj, MY_CLASS);
 410:lvgl/src/widgets/lv_table.c **** 
 411:lvgl/src/widgets/lv_table.c ****     lv_table_t * table = (lv_table_t *)obj;
 412:lvgl/src/widgets/lv_table.c ****     if(row >= table->row_cnt || col >= table->col_cnt) {
 413:lvgl/src/widgets/lv_table.c ****         LV_LOG_WARN("lv_table_get_cell_crop: invalid row or column");
 414:lvgl/src/widgets/lv_table.c ****         return false;
 415:lvgl/src/widgets/lv_table.c ****     }
 416:lvgl/src/widgets/lv_table.c ****     uint32_t cell = row * table->col_cnt + col;
 417:lvgl/src/widgets/lv_table.c **** 
 418:lvgl/src/widgets/lv_table.c ****     if(table->cell_data[cell] == NULL) return false;
 419:lvgl/src/widgets/lv_table.c ****     else return (table->cell_data[cell][0] & ctrl) == ctrl ? true : false;
 420:lvgl/src/widgets/lv_table.c **** }
 421:lvgl/src/widgets/lv_table.c **** 
 422:lvgl/src/widgets/lv_table.c **** void lv_table_get_selected_cell(lv_obj_t * obj, uint16_t * row, uint16_t * col)
 423:lvgl/src/widgets/lv_table.c **** {
 424:lvgl/src/widgets/lv_table.c ****     lv_table_t * table = (lv_table_t *)obj;
 425:lvgl/src/widgets/lv_table.c ****     *row = table->row_act;
 426:lvgl/src/widgets/lv_table.c ****     *col = table->col_act;
 427:lvgl/src/widgets/lv_table.c **** }
 428:lvgl/src/widgets/lv_table.c **** 
 429:lvgl/src/widgets/lv_table.c **** /**********************
 430:lvgl/src/widgets/lv_table.c ****  *   STATIC FUNCTIONS
ARM GAS  C:\usertemp\ccJd89Xr.s 			page 9


 431:lvgl/src/widgets/lv_table.c ****  **********************/
 432:lvgl/src/widgets/lv_table.c **** 
 433:lvgl/src/widgets/lv_table.c **** static void lv_table_constructor(const lv_obj_class_t * class_p, lv_obj_t * obj)
 434:lvgl/src/widgets/lv_table.c **** {
 435:lvgl/src/widgets/lv_table.c ****     LV_UNUSED(class_p);
 436:lvgl/src/widgets/lv_table.c ****     LV_TRACE_OBJ_CREATE("begin");
 437:lvgl/src/widgets/lv_table.c **** 
 438:lvgl/src/widgets/lv_table.c ****     lv_table_t * table = (lv_table_t *)obj;
 439:lvgl/src/widgets/lv_table.c **** 
 440:lvgl/src/widgets/lv_table.c ****     table->col_cnt = 1;
 441:lvgl/src/widgets/lv_table.c ****     table->row_cnt = 1;
 442:lvgl/src/widgets/lv_table.c ****     table->col_w = lv_mem_alloc(table->col_cnt * sizeof(table->col_w[0]));
 443:lvgl/src/widgets/lv_table.c ****     table->row_h = lv_mem_alloc(table->row_cnt * sizeof(table->row_h[0]));
 444:lvgl/src/widgets/lv_table.c ****     table->col_w[0] = LV_DPI_DEF;
 445:lvgl/src/widgets/lv_table.c ****     table->row_h[0] = LV_DPI_DEF;
 446:lvgl/src/widgets/lv_table.c ****     table->cell_data = lv_mem_realloc(table->cell_data, table->row_cnt * table->col_cnt * sizeof(ch
 447:lvgl/src/widgets/lv_table.c ****     table->cell_data[0] = NULL;
 448:lvgl/src/widgets/lv_table.c **** 
 449:lvgl/src/widgets/lv_table.c ****     LV_TRACE_OBJ_CREATE("finished");
 450:lvgl/src/widgets/lv_table.c **** }
 451:lvgl/src/widgets/lv_table.c **** 
 452:lvgl/src/widgets/lv_table.c **** static void lv_table_destructor(const lv_obj_class_t * class_p, lv_obj_t * obj)
 453:lvgl/src/widgets/lv_table.c **** {
 454:lvgl/src/widgets/lv_table.c ****     LV_UNUSED(class_p);
 455:lvgl/src/widgets/lv_table.c ****     lv_table_t * table = (lv_table_t *)obj;
 456:lvgl/src/widgets/lv_table.c ****     /*Free the cell texts*/
 457:lvgl/src/widgets/lv_table.c ****     uint16_t i;
 458:lvgl/src/widgets/lv_table.c ****     for(i = 0; i < table->col_cnt * table->row_cnt; i++) {
 459:lvgl/src/widgets/lv_table.c ****         if(table->cell_data[i]) {
 460:lvgl/src/widgets/lv_table.c ****             lv_mem_free(table->cell_data[i]);
 461:lvgl/src/widgets/lv_table.c ****             table->cell_data[i] = NULL;
 462:lvgl/src/widgets/lv_table.c ****         }
 463:lvgl/src/widgets/lv_table.c ****     }
 464:lvgl/src/widgets/lv_table.c **** 
 465:lvgl/src/widgets/lv_table.c ****     if(table->cell_data) lv_mem_free(table->cell_data);
 466:lvgl/src/widgets/lv_table.c ****     if(table->row_h) lv_mem_free(table->row_h);
 467:lvgl/src/widgets/lv_table.c ****     if(table->col_w) lv_mem_free(table->col_w);
 468:lvgl/src/widgets/lv_table.c **** }
 469:lvgl/src/widgets/lv_table.c **** 
 470:lvgl/src/widgets/lv_table.c **** static void lv_table_event(const lv_obj_class_t * class_p, lv_event_t * e)
 471:lvgl/src/widgets/lv_table.c **** {
 472:lvgl/src/widgets/lv_table.c ****     LV_UNUSED(class_p);
 473:lvgl/src/widgets/lv_table.c **** 
 474:lvgl/src/widgets/lv_table.c ****     lv_res_t res;
 475:lvgl/src/widgets/lv_table.c **** 
 476:lvgl/src/widgets/lv_table.c ****     /*Call the ancestor's event handler*/
 477:lvgl/src/widgets/lv_table.c ****     res = lv_obj_event_base(MY_CLASS, e);
 478:lvgl/src/widgets/lv_table.c ****     if(res != LV_RES_OK) return;
 479:lvgl/src/widgets/lv_table.c **** 
 480:lvgl/src/widgets/lv_table.c ****     lv_event_code_t code = lv_event_get_code(e);
 481:lvgl/src/widgets/lv_table.c ****     lv_obj_t * obj = lv_event_get_target(e);
 482:lvgl/src/widgets/lv_table.c ****     lv_table_t * table = (lv_table_t *)obj;
 483:lvgl/src/widgets/lv_table.c **** 
 484:lvgl/src/widgets/lv_table.c ****     if(code == LV_EVENT_STYLE_CHANGED) {
 485:lvgl/src/widgets/lv_table.c ****         refr_size(obj, 0);
 486:lvgl/src/widgets/lv_table.c ****     }
 487:lvgl/src/widgets/lv_table.c ****     else if(code == LV_EVENT_GET_SELF_SIZE) {
ARM GAS  C:\usertemp\ccJd89Xr.s 			page 10


 488:lvgl/src/widgets/lv_table.c ****         lv_point_t * p = lv_event_get_param(e);
 489:lvgl/src/widgets/lv_table.c ****         uint32_t i;
 490:lvgl/src/widgets/lv_table.c ****         lv_coord_t w = 0;
 491:lvgl/src/widgets/lv_table.c ****         for(i = 0; i < table->col_cnt; i++) w += table->col_w[i];
 492:lvgl/src/widgets/lv_table.c **** 
 493:lvgl/src/widgets/lv_table.c ****         lv_coord_t h = 0;
 494:lvgl/src/widgets/lv_table.c ****         for(i = 0; i < table->row_cnt; i++) h += table->row_h[i];
 495:lvgl/src/widgets/lv_table.c **** 
 496:lvgl/src/widgets/lv_table.c ****         p->x = w - 1;
 497:lvgl/src/widgets/lv_table.c ****         p->y = h - 1;
 498:lvgl/src/widgets/lv_table.c ****     }
 499:lvgl/src/widgets/lv_table.c ****     else if(code == LV_EVENT_PRESSED || code == LV_EVENT_PRESSING) {
 500:lvgl/src/widgets/lv_table.c ****         uint16_t col;
 501:lvgl/src/widgets/lv_table.c ****         uint16_t row;
 502:lvgl/src/widgets/lv_table.c ****         lv_res_t pr_res = get_pressed_cell(obj, &row, &col);
 503:lvgl/src/widgets/lv_table.c **** 
 504:lvgl/src/widgets/lv_table.c ****         if(pr_res == LV_RES_OK && (table->col_act != col || table->row_act != row)) {
 505:lvgl/src/widgets/lv_table.c ****             table->col_act = col;
 506:lvgl/src/widgets/lv_table.c ****             table->row_act = row;
 507:lvgl/src/widgets/lv_table.c ****             lv_obj_invalidate(obj);
 508:lvgl/src/widgets/lv_table.c ****         }
 509:lvgl/src/widgets/lv_table.c ****     }
 510:lvgl/src/widgets/lv_table.c ****     else if(code == LV_EVENT_RELEASED) {
 511:lvgl/src/widgets/lv_table.c ****         lv_obj_invalidate(obj);
 512:lvgl/src/widgets/lv_table.c ****         lv_indev_t * indev = lv_indev_get_act();
 513:lvgl/src/widgets/lv_table.c ****         lv_obj_t * scroll_obj = lv_indev_get_scroll_obj(indev);
 514:lvgl/src/widgets/lv_table.c ****         if(table->col_act != LV_TABLE_CELL_NONE && table->row_act != LV_TABLE_CELL_NONE && scroll_o
 515:lvgl/src/widgets/lv_table.c ****             res = lv_event_send(obj, LV_EVENT_VALUE_CHANGED, NULL);
 516:lvgl/src/widgets/lv_table.c ****             if(res != LV_RES_OK) return;
 517:lvgl/src/widgets/lv_table.c ****         }
 518:lvgl/src/widgets/lv_table.c **** 
 519:lvgl/src/widgets/lv_table.c ****         lv_indev_type_t indev_type = lv_indev_get_type(lv_indev_get_act());
 520:lvgl/src/widgets/lv_table.c ****         if(indev_type == LV_INDEV_TYPE_POINTER || indev_type == LV_INDEV_TYPE_BUTTON) {
 521:lvgl/src/widgets/lv_table.c ****             table->col_act = LV_TABLE_CELL_NONE;
 522:lvgl/src/widgets/lv_table.c ****             table->row_act = LV_TABLE_CELL_NONE;
 523:lvgl/src/widgets/lv_table.c ****         }
 524:lvgl/src/widgets/lv_table.c ****     }
 525:lvgl/src/widgets/lv_table.c ****     else if(code == LV_EVENT_FOCUSED) {
 526:lvgl/src/widgets/lv_table.c ****         lv_obj_invalidate(obj);
 527:lvgl/src/widgets/lv_table.c ****     }
 528:lvgl/src/widgets/lv_table.c ****     else if(code == LV_EVENT_KEY) {
 529:lvgl/src/widgets/lv_table.c ****         int32_t c = *((int32_t *)lv_event_get_param(e));
 530:lvgl/src/widgets/lv_table.c ****         int32_t col = table->col_act;
 531:lvgl/src/widgets/lv_table.c ****         int32_t row = table->row_act;
 532:lvgl/src/widgets/lv_table.c ****         if(col == LV_TABLE_CELL_NONE || row == LV_TABLE_CELL_NONE) {
 533:lvgl/src/widgets/lv_table.c ****             table->col_act = 0;
 534:lvgl/src/widgets/lv_table.c ****             table->row_act = 0;
 535:lvgl/src/widgets/lv_table.c ****             lv_obj_invalidate(obj);
 536:lvgl/src/widgets/lv_table.c ****             return;
 537:lvgl/src/widgets/lv_table.c ****         }
 538:lvgl/src/widgets/lv_table.c **** 
 539:lvgl/src/widgets/lv_table.c ****         if(col >= table->col_cnt) col = 0;
 540:lvgl/src/widgets/lv_table.c ****         if(row >= table->row_cnt) row = 0;
 541:lvgl/src/widgets/lv_table.c **** 
 542:lvgl/src/widgets/lv_table.c ****         if(c == LV_KEY_LEFT) col--;
 543:lvgl/src/widgets/lv_table.c ****         else if(c == LV_KEY_RIGHT) col++;
 544:lvgl/src/widgets/lv_table.c ****         else if(c == LV_KEY_UP) row--;
ARM GAS  C:\usertemp\ccJd89Xr.s 			page 11


 545:lvgl/src/widgets/lv_table.c ****         else if(c == LV_KEY_DOWN) row++;
 546:lvgl/src/widgets/lv_table.c ****         else return;
 547:lvgl/src/widgets/lv_table.c **** 
 548:lvgl/src/widgets/lv_table.c ****         if(col >= table->col_cnt) {
 549:lvgl/src/widgets/lv_table.c ****             if(row < table->row_cnt - 1) {
 550:lvgl/src/widgets/lv_table.c ****                 col = 0;
 551:lvgl/src/widgets/lv_table.c ****                 row++;
 552:lvgl/src/widgets/lv_table.c ****             }
 553:lvgl/src/widgets/lv_table.c ****             else {
 554:lvgl/src/widgets/lv_table.c ****                 col = table->col_cnt - 1;
 555:lvgl/src/widgets/lv_table.c ****             }
 556:lvgl/src/widgets/lv_table.c ****         }
 557:lvgl/src/widgets/lv_table.c ****         else if(col < 0) {
 558:lvgl/src/widgets/lv_table.c ****             if(row != 0) {
 559:lvgl/src/widgets/lv_table.c ****                 col = table->col_cnt - 1;
 560:lvgl/src/widgets/lv_table.c ****                 row--;
 561:lvgl/src/widgets/lv_table.c ****             }
 562:lvgl/src/widgets/lv_table.c ****             else {
 563:lvgl/src/widgets/lv_table.c ****                 col = 0;
 564:lvgl/src/widgets/lv_table.c ****             }
 565:lvgl/src/widgets/lv_table.c ****         }
 566:lvgl/src/widgets/lv_table.c **** 
 567:lvgl/src/widgets/lv_table.c ****         if(row >= table->row_cnt) {
 568:lvgl/src/widgets/lv_table.c ****             row = table->row_cnt - 1;
 569:lvgl/src/widgets/lv_table.c ****         }
 570:lvgl/src/widgets/lv_table.c ****         else if(row < 0) {
 571:lvgl/src/widgets/lv_table.c ****             row = 0;
 572:lvgl/src/widgets/lv_table.c ****         }
 573:lvgl/src/widgets/lv_table.c **** 
 574:lvgl/src/widgets/lv_table.c ****         if(table->col_act != col || table->row_act != row) {
 575:lvgl/src/widgets/lv_table.c ****             table->col_act = col;
 576:lvgl/src/widgets/lv_table.c ****             table->row_act = row;
 577:lvgl/src/widgets/lv_table.c ****             lv_obj_invalidate(obj);
 578:lvgl/src/widgets/lv_table.c **** 
 579:lvgl/src/widgets/lv_table.c ****             res = lv_event_send(obj, LV_EVENT_VALUE_CHANGED, NULL);
 580:lvgl/src/widgets/lv_table.c ****             if(res != LV_RES_OK) return;
 581:lvgl/src/widgets/lv_table.c ****         }
 582:lvgl/src/widgets/lv_table.c ****     }
 583:lvgl/src/widgets/lv_table.c ****     else if(code == LV_EVENT_DRAW_MAIN) {
 584:lvgl/src/widgets/lv_table.c ****         draw_main(e);
 585:lvgl/src/widgets/lv_table.c ****     }
 586:lvgl/src/widgets/lv_table.c **** }
 587:lvgl/src/widgets/lv_table.c **** 
 588:lvgl/src/widgets/lv_table.c **** 
 589:lvgl/src/widgets/lv_table.c **** static void draw_main(lv_event_t * e)
 590:lvgl/src/widgets/lv_table.c **** {
 591:lvgl/src/widgets/lv_table.c ****     lv_obj_t * obj = lv_event_get_target(e);
 592:lvgl/src/widgets/lv_table.c ****     lv_table_t * table = (lv_table_t *)obj;
 593:lvgl/src/widgets/lv_table.c ****     lv_draw_ctx_t * draw_ctx = lv_event_get_draw_ctx(e);
 594:lvgl/src/widgets/lv_table.c ****     lv_area_t clip_area;
 595:lvgl/src/widgets/lv_table.c ****     if(!_lv_area_intersect(&clip_area, &obj->coords, draw_ctx->clip_area)) return;
 596:lvgl/src/widgets/lv_table.c **** 
 597:lvgl/src/widgets/lv_table.c ****     const lv_area_t * clip_area_ori = draw_ctx->clip_area;
 598:lvgl/src/widgets/lv_table.c ****     draw_ctx->clip_area = &clip_area;
 599:lvgl/src/widgets/lv_table.c **** 
 600:lvgl/src/widgets/lv_table.c ****     lv_point_t txt_size;
 601:lvgl/src/widgets/lv_table.c ****     lv_area_t cell_area;
ARM GAS  C:\usertemp\ccJd89Xr.s 			page 12


 602:lvgl/src/widgets/lv_table.c ****     lv_area_t txt_area;
 603:lvgl/src/widgets/lv_table.c ****     lv_text_flag_t txt_flags;
 604:lvgl/src/widgets/lv_table.c **** 
 605:lvgl/src/widgets/lv_table.c ****     lv_coord_t border_width = lv_obj_get_style_border_width(obj, LV_PART_MAIN);
 606:lvgl/src/widgets/lv_table.c ****     lv_coord_t bg_top = lv_obj_get_style_pad_top(obj, LV_PART_MAIN);
 607:lvgl/src/widgets/lv_table.c ****     lv_coord_t bg_bottom = lv_obj_get_style_pad_bottom(obj, LV_PART_MAIN);
 608:lvgl/src/widgets/lv_table.c ****     lv_coord_t bg_left = lv_obj_get_style_pad_left(obj, LV_PART_MAIN);
 609:lvgl/src/widgets/lv_table.c ****     lv_coord_t bg_right = lv_obj_get_style_pad_right(obj, LV_PART_MAIN);
 610:lvgl/src/widgets/lv_table.c **** 
 611:lvgl/src/widgets/lv_table.c ****     lv_coord_t cell_left = lv_obj_get_style_pad_left(obj, LV_PART_ITEMS);
 612:lvgl/src/widgets/lv_table.c ****     lv_coord_t cell_right = lv_obj_get_style_pad_right(obj, LV_PART_ITEMS);
 613:lvgl/src/widgets/lv_table.c ****     lv_coord_t cell_top = lv_obj_get_style_pad_top(obj, LV_PART_ITEMS);
 614:lvgl/src/widgets/lv_table.c ****     lv_coord_t cell_bottom = lv_obj_get_style_pad_bottom(obj, LV_PART_ITEMS);
 615:lvgl/src/widgets/lv_table.c **** 
 616:lvgl/src/widgets/lv_table.c ****     lv_state_t state_ori = obj->state;
 617:lvgl/src/widgets/lv_table.c ****     obj->state = LV_STATE_DEFAULT;
 618:lvgl/src/widgets/lv_table.c ****     obj->skip_trans = 1;
 619:lvgl/src/widgets/lv_table.c ****     lv_draw_rect_dsc_t rect_dsc_def;
 620:lvgl/src/widgets/lv_table.c ****     lv_draw_rect_dsc_t rect_dsc_act; /*Passed to the event to modify it*/
 621:lvgl/src/widgets/lv_table.c ****     lv_draw_rect_dsc_init(&rect_dsc_def);
 622:lvgl/src/widgets/lv_table.c ****     lv_obj_init_draw_rect_dsc(obj, LV_PART_ITEMS, &rect_dsc_def);
 623:lvgl/src/widgets/lv_table.c **** 
 624:lvgl/src/widgets/lv_table.c ****     lv_draw_label_dsc_t label_dsc_def;
 625:lvgl/src/widgets/lv_table.c ****     lv_draw_label_dsc_t label_dsc_act;  /*Passed to the event to modify it*/
 626:lvgl/src/widgets/lv_table.c ****     lv_draw_label_dsc_init(&label_dsc_def);
 627:lvgl/src/widgets/lv_table.c ****     lv_obj_init_draw_label_dsc(obj, LV_PART_ITEMS, &label_dsc_def);
 628:lvgl/src/widgets/lv_table.c ****     obj->state = state_ori;
 629:lvgl/src/widgets/lv_table.c ****     obj->skip_trans = 0;
 630:lvgl/src/widgets/lv_table.c **** 
 631:lvgl/src/widgets/lv_table.c ****     uint16_t col;
 632:lvgl/src/widgets/lv_table.c ****     uint16_t row;
 633:lvgl/src/widgets/lv_table.c ****     uint16_t cell = 0;
 634:lvgl/src/widgets/lv_table.c **** 
 635:lvgl/src/widgets/lv_table.c ****     cell_area.y2 = obj->coords.y1 + bg_top - 1 - lv_obj_get_scroll_y(obj) + border_width;
 636:lvgl/src/widgets/lv_table.c ****     lv_coord_t scroll_x = lv_obj_get_scroll_x(obj) ;
 637:lvgl/src/widgets/lv_table.c ****     bool rtl = lv_obj_get_style_base_dir(obj, LV_PART_MAIN) == LV_BASE_DIR_RTL ? true : false;
 638:lvgl/src/widgets/lv_table.c **** 
 639:lvgl/src/widgets/lv_table.c ****     /*Handle custom drawer*/
 640:lvgl/src/widgets/lv_table.c ****     lv_obj_draw_part_dsc_t part_draw_dsc;
 641:lvgl/src/widgets/lv_table.c ****     lv_obj_draw_dsc_init(&part_draw_dsc, draw_ctx);
 642:lvgl/src/widgets/lv_table.c ****     part_draw_dsc.part = LV_PART_ITEMS;
 643:lvgl/src/widgets/lv_table.c ****     part_draw_dsc.class_p = MY_CLASS;
 644:lvgl/src/widgets/lv_table.c ****     part_draw_dsc.type = LV_TABLE_DRAW_PART_CELL;
 645:lvgl/src/widgets/lv_table.c ****     part_draw_dsc.rect_dsc = &rect_dsc_act;
 646:lvgl/src/widgets/lv_table.c ****     part_draw_dsc.label_dsc = &label_dsc_act;
 647:lvgl/src/widgets/lv_table.c **** 
 648:lvgl/src/widgets/lv_table.c ****     for(row = 0; row < table->row_cnt; row++) {
 649:lvgl/src/widgets/lv_table.c ****         lv_coord_t h_row = table->row_h[row];
 650:lvgl/src/widgets/lv_table.c **** 
 651:lvgl/src/widgets/lv_table.c ****         cell_area.y1 = cell_area.y2 + 1;
 652:lvgl/src/widgets/lv_table.c ****         cell_area.y2 = cell_area.y1 + h_row - 1;
 653:lvgl/src/widgets/lv_table.c **** 
 654:lvgl/src/widgets/lv_table.c ****         if(cell_area.y1 > clip_area.y2) break;
 655:lvgl/src/widgets/lv_table.c **** 
 656:lvgl/src/widgets/lv_table.c ****         if(rtl) cell_area.x1 = obj->coords.x2 - bg_right - 1 - scroll_x - border_width;
 657:lvgl/src/widgets/lv_table.c ****         else cell_area.x2 = obj->coords.x1 + bg_left - 1 - scroll_x + border_width;
 658:lvgl/src/widgets/lv_table.c **** 
ARM GAS  C:\usertemp\ccJd89Xr.s 			page 13


 659:lvgl/src/widgets/lv_table.c ****         for(col = 0; col < table->col_cnt; col++) {
 660:lvgl/src/widgets/lv_table.c ****             lv_table_cell_ctrl_t ctrl = 0;
 661:lvgl/src/widgets/lv_table.c ****             if(table->cell_data[cell]) ctrl = table->cell_data[cell][0];
 662:lvgl/src/widgets/lv_table.c **** 
 663:lvgl/src/widgets/lv_table.c ****             if(rtl) {
 664:lvgl/src/widgets/lv_table.c ****                 cell_area.x2 = cell_area.x1 - 1;
 665:lvgl/src/widgets/lv_table.c ****                 cell_area.x1 = cell_area.x2 - table->col_w[col] + 1;
 666:lvgl/src/widgets/lv_table.c ****             }
 667:lvgl/src/widgets/lv_table.c ****             else {
 668:lvgl/src/widgets/lv_table.c ****                 cell_area.x1 = cell_area.x2 + 1;
 669:lvgl/src/widgets/lv_table.c ****                 cell_area.x2 = cell_area.x1 + table->col_w[col] - 1;
 670:lvgl/src/widgets/lv_table.c ****             }
 671:lvgl/src/widgets/lv_table.c **** 
 672:lvgl/src/widgets/lv_table.c ****             uint16_t col_merge = 0;
 673:lvgl/src/widgets/lv_table.c ****             for(col_merge = 0; col_merge + col < table->col_cnt - 1; col_merge++) {
 674:lvgl/src/widgets/lv_table.c ****                 if(table->cell_data[cell + col_merge]) {
 675:lvgl/src/widgets/lv_table.c ****                     char * next_cell_data = table->cell_data[cell + col_merge];
 676:lvgl/src/widgets/lv_table.c ****                     if(next_cell_data) ctrl = next_cell_data[0];
 677:lvgl/src/widgets/lv_table.c ****                     if(ctrl & LV_TABLE_CELL_CTRL_MERGE_RIGHT)
 678:lvgl/src/widgets/lv_table.c ****                         if(rtl) cell_area.x1 -= table->col_w[col + col_merge + 1];
 679:lvgl/src/widgets/lv_table.c ****                         else cell_area.x2 += table->col_w[col + col_merge + 1];
 680:lvgl/src/widgets/lv_table.c ****                     else {
 681:lvgl/src/widgets/lv_table.c ****                         break;
 682:lvgl/src/widgets/lv_table.c ****                     }
 683:lvgl/src/widgets/lv_table.c ****                 }
 684:lvgl/src/widgets/lv_table.c ****                 else {
 685:lvgl/src/widgets/lv_table.c ****                     break;
 686:lvgl/src/widgets/lv_table.c ****                 }
 687:lvgl/src/widgets/lv_table.c ****             }
 688:lvgl/src/widgets/lv_table.c **** 
 689:lvgl/src/widgets/lv_table.c ****             if(cell_area.y2 < clip_area.y1) {
 690:lvgl/src/widgets/lv_table.c ****                 cell += col_merge + 1;
 691:lvgl/src/widgets/lv_table.c ****                 col += col_merge;
 692:lvgl/src/widgets/lv_table.c ****                 continue;
 693:lvgl/src/widgets/lv_table.c ****             }
 694:lvgl/src/widgets/lv_table.c **** 
 695:lvgl/src/widgets/lv_table.c ****             /*Expand the cell area with a half border to avoid drawing 2 borders next to each other
 696:lvgl/src/widgets/lv_table.c ****             lv_area_t cell_area_border;
 697:lvgl/src/widgets/lv_table.c ****             lv_area_copy(&cell_area_border, &cell_area);
 698:lvgl/src/widgets/lv_table.c ****             if((rect_dsc_def.border_side & LV_BORDER_SIDE_LEFT) && cell_area_border.x1 > obj->coord
 699:lvgl/src/widgets/lv_table.c ****                 cell_area_border.x1 -= rect_dsc_def.border_width / 2;
 700:lvgl/src/widgets/lv_table.c ****             }
 701:lvgl/src/widgets/lv_table.c ****             if((rect_dsc_def.border_side & LV_BORDER_SIDE_TOP) && cell_area_border.y1 > obj->coords
 702:lvgl/src/widgets/lv_table.c ****                 cell_area_border.y1 -= rect_dsc_def.border_width / 2;
 703:lvgl/src/widgets/lv_table.c ****             }
 704:lvgl/src/widgets/lv_table.c ****             if((rect_dsc_def.border_side & LV_BORDER_SIDE_RIGHT) && cell_area_border.x2 < obj->coor
 705:lvgl/src/widgets/lv_table.c ****                 cell_area_border.x2 += rect_dsc_def.border_width / 2 + (rect_dsc_def.border_width &
 706:lvgl/src/widgets/lv_table.c ****             }
 707:lvgl/src/widgets/lv_table.c ****             if((rect_dsc_def.border_side & LV_BORDER_SIDE_BOTTOM) &&
 708:lvgl/src/widgets/lv_table.c ****                cell_area_border.y2 < obj->coords.y2 - bg_bottom - 1) {
 709:lvgl/src/widgets/lv_table.c ****                 cell_area_border.y2 += rect_dsc_def.border_width / 2 + (rect_dsc_def.border_width &
 710:lvgl/src/widgets/lv_table.c ****             }
 711:lvgl/src/widgets/lv_table.c **** 
 712:lvgl/src/widgets/lv_table.c ****             lv_state_t cell_state = LV_STATE_DEFAULT;
 713:lvgl/src/widgets/lv_table.c ****             if(row == table->row_act && col == table->col_act) {
 714:lvgl/src/widgets/lv_table.c ****                 if(!(obj->state & LV_STATE_SCROLLED) && (obj->state & LV_STATE_PRESSED)) cell_state
 715:lvgl/src/widgets/lv_table.c ****                 if(obj->state & LV_STATE_FOCUSED) cell_state |= LV_STATE_FOCUSED;
ARM GAS  C:\usertemp\ccJd89Xr.s 			page 14


 716:lvgl/src/widgets/lv_table.c ****                 if(obj->state & LV_STATE_FOCUS_KEY) cell_state |= LV_STATE_FOCUS_KEY;
 717:lvgl/src/widgets/lv_table.c ****                 if(obj->state & LV_STATE_EDITED) cell_state |= LV_STATE_EDITED;
 718:lvgl/src/widgets/lv_table.c ****             }
 719:lvgl/src/widgets/lv_table.c **** 
 720:lvgl/src/widgets/lv_table.c ****             /*Set up the draw descriptors*/
 721:lvgl/src/widgets/lv_table.c ****             if(cell_state == LV_STATE_DEFAULT) {
 722:lvgl/src/widgets/lv_table.c ****                 lv_memcpy(&rect_dsc_act, &rect_dsc_def, sizeof(lv_draw_rect_dsc_t));
 723:lvgl/src/widgets/lv_table.c ****                 lv_memcpy(&label_dsc_act, &label_dsc_def, sizeof(lv_draw_label_dsc_t));
 724:lvgl/src/widgets/lv_table.c ****             }
 725:lvgl/src/widgets/lv_table.c ****             /*In other cases get the styles directly without caching them*/
 726:lvgl/src/widgets/lv_table.c ****             else {
 727:lvgl/src/widgets/lv_table.c ****                 obj->state = cell_state;
 728:lvgl/src/widgets/lv_table.c ****                 obj->skip_trans = 1;
 729:lvgl/src/widgets/lv_table.c ****                 lv_draw_rect_dsc_init(&rect_dsc_act);
 730:lvgl/src/widgets/lv_table.c ****                 lv_draw_label_dsc_init(&label_dsc_act);
 731:lvgl/src/widgets/lv_table.c ****                 lv_obj_init_draw_rect_dsc(obj, LV_PART_ITEMS, &rect_dsc_act);
 732:lvgl/src/widgets/lv_table.c ****                 lv_obj_init_draw_label_dsc(obj, LV_PART_ITEMS, &label_dsc_act);
 733:lvgl/src/widgets/lv_table.c ****                 obj->state = state_ori;
 734:lvgl/src/widgets/lv_table.c ****                 obj->skip_trans = 0;
 735:lvgl/src/widgets/lv_table.c ****             }
 736:lvgl/src/widgets/lv_table.c **** 
 737:lvgl/src/widgets/lv_table.c ****             part_draw_dsc.draw_area = &cell_area_border;
 738:lvgl/src/widgets/lv_table.c ****             part_draw_dsc.id = row * table->col_cnt + col;
 739:lvgl/src/widgets/lv_table.c ****             lv_event_send(obj, LV_EVENT_DRAW_PART_BEGIN, &part_draw_dsc);
 740:lvgl/src/widgets/lv_table.c **** 
 741:lvgl/src/widgets/lv_table.c ****             lv_draw_rect(draw_ctx, &rect_dsc_act, &cell_area_border);
 742:lvgl/src/widgets/lv_table.c **** 
 743:lvgl/src/widgets/lv_table.c ****             if(table->cell_data[cell]) {
 744:lvgl/src/widgets/lv_table.c ****                 txt_area.x1 = cell_area.x1 + cell_left;
 745:lvgl/src/widgets/lv_table.c ****                 txt_area.x2 = cell_area.x2 - cell_right;
 746:lvgl/src/widgets/lv_table.c ****                 txt_area.y1 = cell_area.y1 + cell_top;
 747:lvgl/src/widgets/lv_table.c ****                 txt_area.y2 = cell_area.y2 - cell_bottom;
 748:lvgl/src/widgets/lv_table.c **** 
 749:lvgl/src/widgets/lv_table.c ****                 /*Align the content to the middle if not cropped*/
 750:lvgl/src/widgets/lv_table.c ****                 bool crop = ctrl & LV_TABLE_CELL_CTRL_TEXT_CROP ? true : false;
 751:lvgl/src/widgets/lv_table.c ****                 if(crop) txt_flags = LV_TEXT_FLAG_EXPAND;
 752:lvgl/src/widgets/lv_table.c ****                 else txt_flags = LV_TEXT_FLAG_NONE;
 753:lvgl/src/widgets/lv_table.c **** 
 754:lvgl/src/widgets/lv_table.c ****                 lv_txt_get_size(&txt_size, table->cell_data[cell] + 1, label_dsc_def.font,
 755:lvgl/src/widgets/lv_table.c ****                                 label_dsc_act.letter_space, label_dsc_act.line_space,
 756:lvgl/src/widgets/lv_table.c ****                                 lv_area_get_width(&txt_area), txt_flags);
 757:lvgl/src/widgets/lv_table.c **** 
 758:lvgl/src/widgets/lv_table.c ****                 /*Align the content to the middle if not cropped*/
 759:lvgl/src/widgets/lv_table.c ****                 if(!crop) {
 760:lvgl/src/widgets/lv_table.c ****                     txt_area.y1 = cell_area.y1 + h_row / 2 - txt_size.y / 2;
 761:lvgl/src/widgets/lv_table.c ****                     txt_area.y2 = cell_area.y1 + h_row / 2 + txt_size.y / 2;
 762:lvgl/src/widgets/lv_table.c ****                 }
 763:lvgl/src/widgets/lv_table.c **** 
 764:lvgl/src/widgets/lv_table.c ****                 lv_area_t label_clip_area;
 765:lvgl/src/widgets/lv_table.c ****                 bool label_mask_ok;
 766:lvgl/src/widgets/lv_table.c ****                 label_mask_ok = _lv_area_intersect(&label_clip_area, &clip_area, &cell_area);
 767:lvgl/src/widgets/lv_table.c ****                 if(label_mask_ok) {
 768:lvgl/src/widgets/lv_table.c ****                     draw_ctx->clip_area = &label_clip_area;
 769:lvgl/src/widgets/lv_table.c ****                     lv_draw_label(draw_ctx, &label_dsc_act, &txt_area, table->cell_data[cell] + 1, 
 770:lvgl/src/widgets/lv_table.c ****                     draw_ctx->clip_area = &clip_area;
 771:lvgl/src/widgets/lv_table.c ****                 }
 772:lvgl/src/widgets/lv_table.c ****             }
ARM GAS  C:\usertemp\ccJd89Xr.s 			page 15


 773:lvgl/src/widgets/lv_table.c **** 
 774:lvgl/src/widgets/lv_table.c ****             lv_event_send(obj, LV_EVENT_DRAW_PART_END, &part_draw_dsc);
 775:lvgl/src/widgets/lv_table.c **** 
 776:lvgl/src/widgets/lv_table.c ****             cell += col_merge + 1;
 777:lvgl/src/widgets/lv_table.c ****             col += col_merge;
 778:lvgl/src/widgets/lv_table.c ****         }
 779:lvgl/src/widgets/lv_table.c ****     }
 780:lvgl/src/widgets/lv_table.c **** 
 781:lvgl/src/widgets/lv_table.c ****     draw_ctx->clip_area = clip_area_ori;
 782:lvgl/src/widgets/lv_table.c **** }
 783:lvgl/src/widgets/lv_table.c **** 
 784:lvgl/src/widgets/lv_table.c **** static void refr_size(lv_obj_t * obj, uint32_t strat_row)
 785:lvgl/src/widgets/lv_table.c **** {
 786:lvgl/src/widgets/lv_table.c ****     lv_table_t * table = (lv_table_t *)obj;
 787:lvgl/src/widgets/lv_table.c **** 
 788:lvgl/src/widgets/lv_table.c ****     uint32_t i;
 789:lvgl/src/widgets/lv_table.c **** 
 790:lvgl/src/widgets/lv_table.c ****     lv_coord_t cell_left = lv_obj_get_style_pad_left(obj, LV_PART_ITEMS);
 791:lvgl/src/widgets/lv_table.c ****     lv_coord_t cell_right = lv_obj_get_style_pad_right(obj, LV_PART_ITEMS);
 792:lvgl/src/widgets/lv_table.c ****     lv_coord_t cell_top = lv_obj_get_style_pad_top(obj, LV_PART_ITEMS);
 793:lvgl/src/widgets/lv_table.c ****     lv_coord_t cell_bottom = lv_obj_get_style_pad_bottom(obj, LV_PART_ITEMS);
 794:lvgl/src/widgets/lv_table.c **** 
 795:lvgl/src/widgets/lv_table.c ****     lv_coord_t letter_space = lv_obj_get_style_text_letter_space(obj, LV_PART_ITEMS);
 796:lvgl/src/widgets/lv_table.c ****     lv_coord_t line_space = lv_obj_get_style_text_line_space(obj, LV_PART_ITEMS);
 797:lvgl/src/widgets/lv_table.c ****     const lv_font_t * font = lv_obj_get_style_text_font(obj, LV_PART_ITEMS);
 798:lvgl/src/widgets/lv_table.c **** 
 799:lvgl/src/widgets/lv_table.c ****     lv_coord_t minh = lv_obj_get_style_min_height(obj, LV_PART_ITEMS);
 800:lvgl/src/widgets/lv_table.c ****     lv_coord_t maxh = lv_obj_get_style_max_height(obj, LV_PART_ITEMS);
 801:lvgl/src/widgets/lv_table.c **** 
 802:lvgl/src/widgets/lv_table.c ****     for(i = strat_row; i < table->row_cnt; i++) {
 803:lvgl/src/widgets/lv_table.c ****         table->row_h[i] = get_row_height(obj, i, font, letter_space, line_space,
 804:lvgl/src/widgets/lv_table.c ****                                          cell_left, cell_right, cell_top, cell_bottom);
 805:lvgl/src/widgets/lv_table.c ****         table->row_h[i] = LV_CLAMP(minh, table->row_h[i], maxh);
 806:lvgl/src/widgets/lv_table.c ****     }
 807:lvgl/src/widgets/lv_table.c **** 
 808:lvgl/src/widgets/lv_table.c ****     lv_obj_refresh_self_size(obj) ;
 809:lvgl/src/widgets/lv_table.c **** }
 810:lvgl/src/widgets/lv_table.c **** 
 811:lvgl/src/widgets/lv_table.c **** static lv_coord_t get_row_height(lv_obj_t * obj, uint16_t row_id, const lv_font_t * font,
 812:lvgl/src/widgets/lv_table.c ****                                  lv_coord_t letter_space, lv_coord_t line_space,
 813:lvgl/src/widgets/lv_table.c ****                                  lv_coord_t cell_left, lv_coord_t cell_right, lv_coord_t cell_top, 
 814:lvgl/src/widgets/lv_table.c **** {
  28              		.loc 1 814 1 view -0
  29              		.cfi_startproc
  30              		@ args = 20, pretend = 0, frame = 48
  31              		@ frame_needed = 0, uses_anonymous_args = 0
  32              		.loc 1 814 1 is_stmt 0 view .LVU1
  33 0000 2DE9F04F 		push	{r4, r5, r6, r7, r8, r9, r10, fp, lr}
  34              	.LCFI0:
  35              		.cfi_def_cfa_offset 36
  36              		.cfi_offset 4, -36
  37              		.cfi_offset 5, -32
  38              		.cfi_offset 6, -28
  39              		.cfi_offset 7, -24
  40              		.cfi_offset 8, -20
  41              		.cfi_offset 9, -16
  42              		.cfi_offset 10, -12
ARM GAS  C:\usertemp\ccJd89Xr.s 			page 16


  43              		.cfi_offset 11, -8
  44              		.cfi_offset 14, -4
  45 0004 91B0     		sub	sp, sp, #68
  46              	.LCFI1:
  47              		.cfi_def_cfa_offset 104
  48 0006 8046     		mov	r8, r0
  49 0008 0692     		str	r2, [sp, #24]
  50 000a 0A93     		str	r3, [sp, #40]
  51 000c BDF96830 		ldrsh	r3, [sp, #104]
  52              	.LVL1:
  53              		.loc 1 814 1 view .LVU2
  54 0010 0B93     		str	r3, [sp, #44]
  55 0012 BDF96C30 		ldrsh	r3, [sp, #108]
  56 0016 0C93     		str	r3, [sp, #48]
  57 0018 BDF97030 		ldrsh	r3, [sp, #112]
  58 001c 0D93     		str	r3, [sp, #52]
  59 001e BDF974B0 		ldrsh	fp, [sp, #116]
  60 0022 BDF97830 		ldrsh	r3, [sp, #120]
  61 0026 0793     		str	r3, [sp, #28]
 815:lvgl/src/widgets/lv_table.c ****     lv_table_t * table = (lv_table_t *)obj;
  62              		.loc 1 815 5 is_stmt 1 view .LVU3
  63              	.LVL2:
 816:lvgl/src/widgets/lv_table.c ****     lv_point_t txt_size;
  64              		.loc 1 816 5 view .LVU4
 817:lvgl/src/widgets/lv_table.c ****     lv_coord_t txt_w;
  65              		.loc 1 817 5 view .LVU5
 818:lvgl/src/widgets/lv_table.c **** 
 819:lvgl/src/widgets/lv_table.c ****     uint16_t row_start = row_id * table->col_cnt;
  66              		.loc 1 819 5 view .LVU6
  67              		.loc 1 819 40 is_stmt 0 view .LVU7
  68 0028 B0F82490 		ldrh	r9, [r0, #36]
  69              		.loc 1 819 14 view .LVU8
  70 002c 19FB01F9 		smulbb	r9, r9, r1
  71 0030 1FFA89F9 		uxth	r9, r9
  72              	.LVL3:
 820:lvgl/src/widgets/lv_table.c ****     uint16_t cell;
  73              		.loc 1 820 5 is_stmt 1 view .LVU9
 821:lvgl/src/widgets/lv_table.c ****     uint16_t col;
  74              		.loc 1 821 5 view .LVU10
 822:lvgl/src/widgets/lv_table.c ****     lv_coord_t h_max = lv_font_get_line_height(font) + cell_top + cell_bottom;
  75              		.loc 1 822 5 view .LVU11
  76              	.LBB88:
  77              	.LBI88:
  78              		.file 2 "lvgl/src/widgets/../core/../misc/../font/lv_font.h"
   1:lvgl/src/widgets/../core/../misc/../font/lv_font.h **** /**
   2:lvgl/src/widgets/../core/../misc/../font/lv_font.h ****  * @file lv_font.h
   3:lvgl/src/widgets/../core/../misc/../font/lv_font.h ****  *
   4:lvgl/src/widgets/../core/../misc/../font/lv_font.h ****  */
   5:lvgl/src/widgets/../core/../misc/../font/lv_font.h **** 
   6:lvgl/src/widgets/../core/../misc/../font/lv_font.h **** #ifndef LV_FONT_H
   7:lvgl/src/widgets/../core/../misc/../font/lv_font.h **** #define LV_FONT_H
   8:lvgl/src/widgets/../core/../misc/../font/lv_font.h **** 
   9:lvgl/src/widgets/../core/../misc/../font/lv_font.h **** #ifdef __cplusplus
  10:lvgl/src/widgets/../core/../misc/../font/lv_font.h **** extern "C" {
  11:lvgl/src/widgets/../core/../misc/../font/lv_font.h **** #endif
  12:lvgl/src/widgets/../core/../misc/../font/lv_font.h **** 
  13:lvgl/src/widgets/../core/../misc/../font/lv_font.h **** /*********************
ARM GAS  C:\usertemp\ccJd89Xr.s 			page 17


  14:lvgl/src/widgets/../core/../misc/../font/lv_font.h ****  *      INCLUDES
  15:lvgl/src/widgets/../core/../misc/../font/lv_font.h ****  *********************/
  16:lvgl/src/widgets/../core/../misc/../font/lv_font.h **** #include "../lv_conf_internal.h"
  17:lvgl/src/widgets/../core/../misc/../font/lv_font.h **** #include <stdint.h>
  18:lvgl/src/widgets/../core/../misc/../font/lv_font.h **** #include <stddef.h>
  19:lvgl/src/widgets/../core/../misc/../font/lv_font.h **** #include <stdbool.h>
  20:lvgl/src/widgets/../core/../misc/../font/lv_font.h **** 
  21:lvgl/src/widgets/../core/../misc/../font/lv_font.h **** #include "lv_symbol_def.h"
  22:lvgl/src/widgets/../core/../misc/../font/lv_font.h **** #include "../misc/lv_area.h"
  23:lvgl/src/widgets/../core/../misc/../font/lv_font.h **** 
  24:lvgl/src/widgets/../core/../misc/../font/lv_font.h **** /*********************
  25:lvgl/src/widgets/../core/../misc/../font/lv_font.h ****  *      DEFINES
  26:lvgl/src/widgets/../core/../misc/../font/lv_font.h ****  *********************/
  27:lvgl/src/widgets/../core/../misc/../font/lv_font.h **** 
  28:lvgl/src/widgets/../core/../misc/../font/lv_font.h **** /**********************
  29:lvgl/src/widgets/../core/../misc/../font/lv_font.h ****  *      TYPEDEFS
  30:lvgl/src/widgets/../core/../misc/../font/lv_font.h ****  **********************/
  31:lvgl/src/widgets/../core/../misc/../font/lv_font.h **** 
  32:lvgl/src/widgets/../core/../misc/../font/lv_font.h **** /*------------------
  33:lvgl/src/widgets/../core/../misc/../font/lv_font.h ****  * General types
  34:lvgl/src/widgets/../core/../misc/../font/lv_font.h ****  *-----------------*/
  35:lvgl/src/widgets/../core/../misc/../font/lv_font.h **** 
  36:lvgl/src/widgets/../core/../misc/../font/lv_font.h **** struct _lv_font_t;
  37:lvgl/src/widgets/../core/../misc/../font/lv_font.h **** /** Describes the properties of a glyph.*/
  38:lvgl/src/widgets/../core/../misc/../font/lv_font.h **** typedef struct {
  39:lvgl/src/widgets/../core/../misc/../font/lv_font.h ****     const struct _lv_font_t *
  40:lvgl/src/widgets/../core/../misc/../font/lv_font.h ****         resolved_font; /**< Pointer to a font where the gylph was actually found after handling fal
  41:lvgl/src/widgets/../core/../misc/../font/lv_font.h ****     uint16_t adv_w; /**< The glyph needs this space. Draw the next glyph after this width.*/
  42:lvgl/src/widgets/../core/../misc/../font/lv_font.h ****     uint16_t box_w; /**< Width of the glyph's bounding box*/
  43:lvgl/src/widgets/../core/../misc/../font/lv_font.h ****     uint16_t box_h; /**< Height of the glyph's bounding box*/
  44:lvgl/src/widgets/../core/../misc/../font/lv_font.h ****     int16_t ofs_x;  /**< x offset of the bounding box*/
  45:lvgl/src/widgets/../core/../misc/../font/lv_font.h ****     int16_t ofs_y;  /**< y offset of the bounding box*/
  46:lvgl/src/widgets/../core/../misc/../font/lv_font.h ****     uint8_t bpp: 4;  /**< Bit-per-pixel: 1, 2, 4, 8*/
  47:lvgl/src/widgets/../core/../misc/../font/lv_font.h ****     uint8_t is_placeholder: 1; /** Glyph is missing. But placeholder will still be displayed */
  48:lvgl/src/widgets/../core/../misc/../font/lv_font.h **** } lv_font_glyph_dsc_t;
  49:lvgl/src/widgets/../core/../misc/../font/lv_font.h **** 
  50:lvgl/src/widgets/../core/../misc/../font/lv_font.h **** /** The bitmaps might be upscaled by 3 to achieve subpixel rendering.*/
  51:lvgl/src/widgets/../core/../misc/../font/lv_font.h **** enum {
  52:lvgl/src/widgets/../core/../misc/../font/lv_font.h ****     LV_FONT_SUBPX_NONE,
  53:lvgl/src/widgets/../core/../misc/../font/lv_font.h ****     LV_FONT_SUBPX_HOR,
  54:lvgl/src/widgets/../core/../misc/../font/lv_font.h ****     LV_FONT_SUBPX_VER,
  55:lvgl/src/widgets/../core/../misc/../font/lv_font.h ****     LV_FONT_SUBPX_BOTH,
  56:lvgl/src/widgets/../core/../misc/../font/lv_font.h **** };
  57:lvgl/src/widgets/../core/../misc/../font/lv_font.h **** 
  58:lvgl/src/widgets/../core/../misc/../font/lv_font.h **** typedef uint8_t lv_font_subpx_t;
  59:lvgl/src/widgets/../core/../misc/../font/lv_font.h **** 
  60:lvgl/src/widgets/../core/../misc/../font/lv_font.h **** /** Describe the properties of a font*/
  61:lvgl/src/widgets/../core/../misc/../font/lv_font.h **** typedef struct _lv_font_t {
  62:lvgl/src/widgets/../core/../misc/../font/lv_font.h ****     /** Get a glyph's descriptor from a font*/
  63:lvgl/src/widgets/../core/../misc/../font/lv_font.h ****     bool (*get_glyph_dsc)(const struct _lv_font_t *, lv_font_glyph_dsc_t *, uint32_t letter, uint32
  64:lvgl/src/widgets/../core/../misc/../font/lv_font.h **** 
  65:lvgl/src/widgets/../core/../misc/../font/lv_font.h ****     /** Get a glyph's bitmap from a font*/
  66:lvgl/src/widgets/../core/../misc/../font/lv_font.h ****     const uint8_t * (*get_glyph_bitmap)(const struct _lv_font_t *, uint32_t);
  67:lvgl/src/widgets/../core/../misc/../font/lv_font.h **** 
  68:lvgl/src/widgets/../core/../misc/../font/lv_font.h ****     /*Pointer to the font in a font pack (must have the same line height)*/
  69:lvgl/src/widgets/../core/../misc/../font/lv_font.h ****     lv_coord_t line_height;         /**< The real line height where any text fits*/
  70:lvgl/src/widgets/../core/../misc/../font/lv_font.h ****     lv_coord_t base_line;           /**< Base line measured from the top of the line_height*/
ARM GAS  C:\usertemp\ccJd89Xr.s 			page 18


  71:lvgl/src/widgets/../core/../misc/../font/lv_font.h ****     uint8_t subpx  : 2;             /**< An element of `lv_font_subpx_t`*/
  72:lvgl/src/widgets/../core/../misc/../font/lv_font.h **** 
  73:lvgl/src/widgets/../core/../misc/../font/lv_font.h ****     int8_t underline_position;      /**< Distance between the top of the underline and base line (<
  74:lvgl/src/widgets/../core/../misc/../font/lv_font.h ****     int8_t underline_thickness;     /**< Thickness of the underline*/
  75:lvgl/src/widgets/../core/../misc/../font/lv_font.h **** 
  76:lvgl/src/widgets/../core/../misc/../font/lv_font.h ****     const void * dsc;               /**< Store implementation specific or run_time data or caching 
  77:lvgl/src/widgets/../core/../misc/../font/lv_font.h ****     const struct _lv_font_t * fallback;   /**< Fallback font for missing glyph. Resolved recursivel
  78:lvgl/src/widgets/../core/../misc/../font/lv_font.h **** #if LV_USE_USER_DATA
  79:lvgl/src/widgets/../core/../misc/../font/lv_font.h ****     void * user_data;               /**< Custom user data for font.*/
  80:lvgl/src/widgets/../core/../misc/../font/lv_font.h **** #endif
  81:lvgl/src/widgets/../core/../misc/../font/lv_font.h **** } lv_font_t;
  82:lvgl/src/widgets/../core/../misc/../font/lv_font.h **** 
  83:lvgl/src/widgets/../core/../misc/../font/lv_font.h **** /**********************
  84:lvgl/src/widgets/../core/../misc/../font/lv_font.h ****  * GLOBAL PROTOTYPES
  85:lvgl/src/widgets/../core/../misc/../font/lv_font.h ****  **********************/
  86:lvgl/src/widgets/../core/../misc/../font/lv_font.h **** 
  87:lvgl/src/widgets/../core/../misc/../font/lv_font.h **** /**
  88:lvgl/src/widgets/../core/../misc/../font/lv_font.h ****  * Return with the bitmap of a font.
  89:lvgl/src/widgets/../core/../misc/../font/lv_font.h ****  * @param font_p pointer to a font
  90:lvgl/src/widgets/../core/../misc/../font/lv_font.h ****  * @param letter an UNICODE character code
  91:lvgl/src/widgets/../core/../misc/../font/lv_font.h ****  * @return pointer to the bitmap of the letter
  92:lvgl/src/widgets/../core/../misc/../font/lv_font.h ****  */
  93:lvgl/src/widgets/../core/../misc/../font/lv_font.h **** const uint8_t * lv_font_get_glyph_bitmap(const lv_font_t * font_p, uint32_t letter);
  94:lvgl/src/widgets/../core/../misc/../font/lv_font.h **** 
  95:lvgl/src/widgets/../core/../misc/../font/lv_font.h **** /**
  96:lvgl/src/widgets/../core/../misc/../font/lv_font.h ****  * Get the descriptor of a glyph
  97:lvgl/src/widgets/../core/../misc/../font/lv_font.h ****  * @param font_p pointer to font
  98:lvgl/src/widgets/../core/../misc/../font/lv_font.h ****  * @param dsc_out store the result descriptor here
  99:lvgl/src/widgets/../core/../misc/../font/lv_font.h ****  * @param letter an UNICODE letter code
 100:lvgl/src/widgets/../core/../misc/../font/lv_font.h ****  * @param letter_next the next letter after `letter`. Used for kerning
 101:lvgl/src/widgets/../core/../misc/../font/lv_font.h ****  * @return true: descriptor is successfully loaded into `dsc_out`.
 102:lvgl/src/widgets/../core/../misc/../font/lv_font.h ****  *         false: the letter was not found, no data is loaded to `dsc_out`
 103:lvgl/src/widgets/../core/../misc/../font/lv_font.h ****  */
 104:lvgl/src/widgets/../core/../misc/../font/lv_font.h **** bool lv_font_get_glyph_dsc(const lv_font_t * font_p, lv_font_glyph_dsc_t * dsc_out, uint32_t letter
 105:lvgl/src/widgets/../core/../misc/../font/lv_font.h ****                            uint32_t letter_next);
 106:lvgl/src/widgets/../core/../misc/../font/lv_font.h **** 
 107:lvgl/src/widgets/../core/../misc/../font/lv_font.h **** /**
 108:lvgl/src/widgets/../core/../misc/../font/lv_font.h ****  * Get the width of a glyph with kerning
 109:lvgl/src/widgets/../core/../misc/../font/lv_font.h ****  * @param font pointer to a font
 110:lvgl/src/widgets/../core/../misc/../font/lv_font.h ****  * @param letter an UNICODE letter
 111:lvgl/src/widgets/../core/../misc/../font/lv_font.h ****  * @param letter_next the next letter after `letter`. Used for kerning
 112:lvgl/src/widgets/../core/../misc/../font/lv_font.h ****  * @return the width of the glyph
 113:lvgl/src/widgets/../core/../misc/../font/lv_font.h ****  */
 114:lvgl/src/widgets/../core/../misc/../font/lv_font.h **** uint16_t lv_font_get_glyph_width(const lv_font_t * font, uint32_t letter, uint32_t letter_next);
 115:lvgl/src/widgets/../core/../misc/../font/lv_font.h **** 
 116:lvgl/src/widgets/../core/../misc/../font/lv_font.h **** /**
 117:lvgl/src/widgets/../core/../misc/../font/lv_font.h ****  * Get the line height of a font. All characters fit into this height
 118:lvgl/src/widgets/../core/../misc/../font/lv_font.h ****  * @param font_p pointer to a font
 119:lvgl/src/widgets/../core/../misc/../font/lv_font.h ****  * @return the height of a font
 120:lvgl/src/widgets/../core/../misc/../font/lv_font.h ****  */
 121:lvgl/src/widgets/../core/../misc/../font/lv_font.h **** static inline lv_coord_t lv_font_get_line_height(const lv_font_t * font_p)
  79              		.loc 2 121 26 view .LVU12
  80              	.LBB89:
 122:lvgl/src/widgets/../core/../misc/../font/lv_font.h **** {
 123:lvgl/src/widgets/../core/../misc/../font/lv_font.h ****     return font_p->line_height;
  81              		.loc 2 123 5 view .LVU13
  82              		.loc 2 123 18 is_stmt 0 view .LVU14
ARM GAS  C:\usertemp\ccJd89Xr.s 			page 19


  83 0034 B2F90870 		ldrsh	r7, [r2, #8]
  84              	.LVL4:
  85              		.loc 2 123 18 view .LVU15
  86              	.LBE89:
  87              	.LBE88:
  88              		.loc 1 822 54 discriminator 1 view .LVU16
  89 0038 1FFA8BF2 		uxth	r2, fp
  90              	.LVL5:
  91              		.loc 1 822 54 discriminator 1 view .LVU17
  92 003c 0892     		str	r2, [sp, #32]
  93 003e 12FA87F7 		uxtah	r7, r2, r7
  94              		.loc 1 822 65 discriminator 1 view .LVU18
  95 0042 9BB2     		uxth	r3, r3
  96 0044 0993     		str	r3, [sp, #36]
  97 0046 13FA87F7 		uxtah	r7, r3, r7
  98              		.loc 1 822 16 discriminator 1 view .LVU19
  99 004a 3FB2     		sxth	r7, r7
 100              	.LVL6:
 823:lvgl/src/widgets/lv_table.c **** 
 824:lvgl/src/widgets/lv_table.c ****     for(cell = row_start, col = 0; cell < row_start + table->col_cnt; cell++, col++) {
 101              		.loc 1 824 5 is_stmt 1 view .LVU20
 102              		.loc 1 824 14 is_stmt 0 view .LVU21
 103 004c 4E46     		mov	r6, r9
 104              		.loc 1 824 31 view .LVU22
 105 004e 0025     		movs	r5, #0
 106              		.loc 1 824 5 view .LVU23
 107 0050 18E0     		b	.L2
 108              	.LVL7:
 109              	.L5:
 110              	.LBB90:
 825:lvgl/src/widgets/lv_table.c ****         if(table->cell_data[cell] != NULL) {
 826:lvgl/src/widgets/lv_table.c ****             txt_w              = table->col_w[col];
 827:lvgl/src/widgets/lv_table.c ****             uint16_t col_merge = 0;
 828:lvgl/src/widgets/lv_table.c ****             for(col_merge = 0; col_merge + col < table->col_cnt - 1; col_merge++) {
 829:lvgl/src/widgets/lv_table.c **** 
 830:lvgl/src/widgets/lv_table.c ****                 if(table->cell_data[cell + col_merge] != NULL) {
 831:lvgl/src/widgets/lv_table.c ****                     lv_table_cell_ctrl_t ctrl = 0;
 832:lvgl/src/widgets/lv_table.c ****                     char * next_cell_data = table->cell_data[cell + col_merge];
 833:lvgl/src/widgets/lv_table.c ****                     if(next_cell_data) ctrl = next_cell_data[0];
 834:lvgl/src/widgets/lv_table.c ****                     if(ctrl & LV_TABLE_CELL_CTRL_MERGE_RIGHT)
 835:lvgl/src/widgets/lv_table.c ****                         txt_w += table->col_w[col + col_merge + 1];
 836:lvgl/src/widgets/lv_table.c ****                     else
 837:lvgl/src/widgets/lv_table.c ****                         break;
 838:lvgl/src/widgets/lv_table.c ****                 }
 839:lvgl/src/widgets/lv_table.c ****                 else {
 840:lvgl/src/widgets/lv_table.c ****                     break;
 841:lvgl/src/widgets/lv_table.c ****                 }
 842:lvgl/src/widgets/lv_table.c ****             }
 843:lvgl/src/widgets/lv_table.c **** 
 844:lvgl/src/widgets/lv_table.c ****             lv_table_cell_ctrl_t ctrl = 0;
 845:lvgl/src/widgets/lv_table.c ****             if(table->cell_data[cell]) ctrl = table->cell_data[cell][0];
 111              		.loc 1 845 45 discriminator 1 view .LVU24
 112 0052 0598     		ldr	r0, [sp, #20]
 844:lvgl/src/widgets/lv_table.c ****             if(table->cell_data[cell]) ctrl = table->cell_data[cell][0];
 113              		.loc 1 844 13 is_stmt 1 view .LVU25
 114              	.LVL8:
 115              		.loc 1 845 13 view .LVU26
ARM GAS  C:\usertemp\ccJd89Xr.s 			page 20


 116              		.loc 1 845 40 discriminator 1 view .LVU27
 117              		.loc 1 845 45 is_stmt 0 discriminator 1 view .LVU28
 118 0054 0278     		ldrb	r2, [r0]	@ zero_extendqisi2
 119              	.LVL9:
 846:lvgl/src/widgets/lv_table.c **** 
 847:lvgl/src/widgets/lv_table.c ****             /*With text crop assume 1 line*/
 848:lvgl/src/widgets/lv_table.c ****             if(ctrl & LV_TABLE_CELL_CTRL_TEXT_CROP) {
 120              		.loc 1 848 13 is_stmt 1 view .LVU29
 121              		.loc 1 848 15 is_stmt 0 view .LVU30
 122 0056 12F0020F 		tst	r2, #2
 123 005a 3DD0     		beq	.L7
 849:lvgl/src/widgets/lv_table.c ****                 h_max = LV_MAX(lv_font_get_line_height(font) + cell_top + cell_bottom,
 124              		.loc 1 849 17 is_stmt 1 view .LVU31
 125              	.LVL10:
 126              	.LBB91:
 127              	.LBI91:
 121:lvgl/src/widgets/../core/../misc/../font/lv_font.h **** {
 128              		.loc 2 121 26 view .LVU32
 129              	.LBB92:
 130              		.loc 2 123 5 view .LVU33
 131              		.loc 2 123 18 is_stmt 0 view .LVU34
 132 005c 069B     		ldr	r3, [sp, #24]
 133              	.LVL11:
 134              		.loc 2 123 18 view .LVU35
 135 005e B3F90830 		ldrsh	r3, [r3, #8]
 136              	.LVL12:
 137              		.loc 2 123 18 view .LVU36
 138              	.LBE92:
 139              	.LBE91:
 140              		.loc 1 849 25 discriminator 1 view .LVU37
 141 0062 0BEB0302 		add	r2, fp, r3
 142 0066 0799     		ldr	r1, [sp, #28]
 143 0068 0A44     		add	r2, r2, r1
 144              		.loc 1 849 23 discriminator 1 view .LVU38
 145 006a BA42     		cmp	r2, r7
 146 006c 06DD     		ble	.L3
 147              		.loc 1 849 25 discriminator 1 view .LVU39
 148 006e 089A     		ldr	r2, [sp, #32]
 149 0070 12FA83F3 		uxtah	r3, r2, r3
 150 0074 099A     		ldr	r2, [sp, #36]
 151 0076 12FA83F3 		uxtah	r3, r2, r3
 152              		.loc 1 849 23 discriminator 1 view .LVU40
 153 007a 1FB2     		sxth	r7, r3
 154              	.LVL13:
 155              	.L3:
 156              		.loc 1 849 23 discriminator 1 view .LVU41
 157              	.LBE90:
 824:lvgl/src/widgets/lv_table.c ****         if(table->cell_data[cell] != NULL) {
 158              		.loc 1 824 77 is_stmt 1 discriminator 2 view .LVU42
 824:lvgl/src/widgets/lv_table.c ****         if(table->cell_data[cell] != NULL) {
 159              		.loc 1 824 75 is_stmt 0 discriminator 2 view .LVU43
 160 007c 0136     		adds	r6, r6, #1
 161              	.LVL14:
 824:lvgl/src/widgets/lv_table.c ****         if(table->cell_data[cell] != NULL) {
 162              		.loc 1 824 75 discriminator 2 view .LVU44
 163 007e B6B2     		uxth	r6, r6
 164              	.LVL15:
ARM GAS  C:\usertemp\ccJd89Xr.s 			page 21


 824:lvgl/src/widgets/lv_table.c ****         if(table->cell_data[cell] != NULL) {
 165              		.loc 1 824 82 discriminator 2 view .LVU45
 166 0080 0135     		adds	r5, r5, #1
 167              	.LVL16:
 824:lvgl/src/widgets/lv_table.c ****         if(table->cell_data[cell] != NULL) {
 168              		.loc 1 824 82 discriminator 2 view .LVU46
 169 0082 ADB2     		uxth	r5, r5
 170              	.LVL17:
 171              	.L2:
 824:lvgl/src/widgets/lv_table.c ****         if(table->cell_data[cell] != NULL) {
 172              		.loc 1 824 41 is_stmt 1 discriminator 1 view .LVU47
 173 0084 B646     		mov	lr, r6
 824:lvgl/src/widgets/lv_table.c ****         if(table->cell_data[cell] != NULL) {
 174              		.loc 1 824 60 is_stmt 0 discriminator 1 view .LVU48
 175 0086 B8F824C0 		ldrh	ip, [r8, #36]
 824:lvgl/src/widgets/lv_table.c ****         if(table->cell_data[cell] != NULL) {
 176              		.loc 1 824 53 discriminator 1 view .LVU49
 177 008a 09EB0C03 		add	r3, r9, ip
 824:lvgl/src/widgets/lv_table.c ****         if(table->cell_data[cell] != NULL) {
 178              		.loc 1 824 41 discriminator 1 view .LVU50
 179 008e 9E42     		cmp	r6, r3
 180 0090 41DA     		bge	.L10
 825:lvgl/src/widgets/lv_table.c ****             txt_w              = table->col_w[col];
 181              		.loc 1 825 9 is_stmt 1 view .LVU51
 825:lvgl/src/widgets/lv_table.c ****             txt_w              = table->col_w[col];
 182              		.loc 1 825 17 is_stmt 0 view .LVU52
 183 0092 D8F82810 		ldr	r1, [r8, #40]
 825:lvgl/src/widgets/lv_table.c ****             txt_w              = table->col_w[col];
 184              		.loc 1 825 28 view .LVU53
 185 0096 51F82600 		ldr	r0, [r1, r6, lsl #2]
 825:lvgl/src/widgets/lv_table.c ****             txt_w              = table->col_w[col];
 186              		.loc 1 825 11 view .LVU54
 187 009a 0028     		cmp	r0, #0
 188 009c EED0     		beq	.L3
 189              	.LBB94:
 826:lvgl/src/widgets/lv_table.c ****             uint16_t col_merge = 0;
 190              		.loc 1 826 13 is_stmt 1 view .LVU55
 826:lvgl/src/widgets/lv_table.c ****             uint16_t col_merge = 0;
 191              		.loc 1 826 39 is_stmt 0 view .LVU56
 192 009e D8F830A0 		ldr	r10, [r8, #48]
 826:lvgl/src/widgets/lv_table.c ****             uint16_t col_merge = 0;
 193              		.loc 1 826 32 view .LVU57
 194 00a2 3AF91530 		ldrsh	r3, [r10, r5, lsl #1]
 195              	.LVL18:
 827:lvgl/src/widgets/lv_table.c ****             for(col_merge = 0; col_merge + col < table->col_cnt - 1; col_merge++) {
 196              		.loc 1 827 13 is_stmt 1 view .LVU58
 828:lvgl/src/widgets/lv_table.c **** 
 197              		.loc 1 828 13 view .LVU59
 828:lvgl/src/widgets/lv_table.c **** 
 198              		.loc 1 828 27 is_stmt 0 view .LVU60
 199 00a6 0024     		movs	r4, #0
 200 00a8 0590     		str	r0, [sp, #20]
 201              	.LVL19:
 202              	.L4:
 828:lvgl/src/widgets/lv_table.c **** 
 203              		.loc 1 828 48 is_stmt 1 discriminator 1 view .LVU61
 828:lvgl/src/widgets/lv_table.c **** 
ARM GAS  C:\usertemp\ccJd89Xr.s 			page 22


 204              		.loc 1 828 42 is_stmt 0 discriminator 1 view .LVU62
 205 00aa 2A19     		adds	r2, r5, r4
 828:lvgl/src/widgets/lv_table.c **** 
 206              		.loc 1 828 65 discriminator 1 view .LVU63
 207 00ac 0CF1FF30 		add	r0, ip, #-1
 828:lvgl/src/widgets/lv_table.c **** 
 208              		.loc 1 828 48 discriminator 1 view .LVU64
 209 00b0 8242     		cmp	r2, r0
 210 00b2 CEDA     		bge	.L5
 830:lvgl/src/widgets/lv_table.c ****                     lv_table_cell_ctrl_t ctrl = 0;
 211              		.loc 1 830 17 is_stmt 1 view .LVU65
 830:lvgl/src/widgets/lv_table.c ****                     lv_table_cell_ctrl_t ctrl = 0;
 212              		.loc 1 830 42 is_stmt 0 view .LVU66
 213 00b4 04EB0E00 		add	r0, r4, lr
 830:lvgl/src/widgets/lv_table.c ****                     lv_table_cell_ctrl_t ctrl = 0;
 214              		.loc 1 830 36 view .LVU67
 215 00b8 51F82000 		ldr	r0, [r1, r0, lsl #2]
 830:lvgl/src/widgets/lv_table.c ****                     lv_table_cell_ctrl_t ctrl = 0;
 216              		.loc 1 830 19 view .LVU68
 217 00bc 0028     		cmp	r0, #0
 218 00be C8D0     		beq	.L5
 219              	.LBB93:
 831:lvgl/src/widgets/lv_table.c ****                     char * next_cell_data = table->cell_data[cell + col_merge];
 220              		.loc 1 831 21 is_stmt 1 view .LVU69
 221              	.LVL20:
 832:lvgl/src/widgets/lv_table.c ****                     if(next_cell_data) ctrl = next_cell_data[0];
 222              		.loc 1 832 21 view .LVU70
 833:lvgl/src/widgets/lv_table.c ****                     if(ctrl & LV_TABLE_CELL_CTRL_MERGE_RIGHT)
 223              		.loc 1 833 21 view .LVU71
 833:lvgl/src/widgets/lv_table.c ****                     if(ctrl & LV_TABLE_CELL_CTRL_MERGE_RIGHT)
 224              		.loc 1 833 40 discriminator 1 view .LVU72
 833:lvgl/src/widgets/lv_table.c ****                     if(ctrl & LV_TABLE_CELL_CTRL_MERGE_RIGHT)
 225              		.loc 1 833 45 is_stmt 0 discriminator 1 view .LVU73
 226 00c0 0078     		ldrb	r0, [r0]	@ zero_extendqisi2
 227              	.LVL21:
 834:lvgl/src/widgets/lv_table.c ****                         txt_w += table->col_w[col + col_merge + 1];
 228              		.loc 1 834 21 is_stmt 1 view .LVU74
 834:lvgl/src/widgets/lv_table.c ****                         txt_w += table->col_w[col + col_merge + 1];
 229              		.loc 1 834 23 is_stmt 0 view .LVU75
 230 00c2 10F0010F 		tst	r0, #1
 231 00c6 C4D0     		beq	.L5
 835:lvgl/src/widgets/lv_table.c ****                     else
 232              		.loc 1 835 25 is_stmt 1 view .LVU76
 835:lvgl/src/widgets/lv_table.c ****                     else
 233              		.loc 1 835 46 is_stmt 0 view .LVU77
 234 00c8 0132     		adds	r2, r2, #1
 235 00ca 3AF81220 		ldrh	r2, [r10, r2, lsl #1]
 835:lvgl/src/widgets/lv_table.c ****                     else
 236              		.loc 1 835 31 view .LVU78
 237 00ce 1344     		add	r3, r3, r2
 238              	.LVL22:
 835:lvgl/src/widgets/lv_table.c ****                     else
 239              		.loc 1 835 31 view .LVU79
 240 00d0 1BB2     		sxth	r3, r3
 241              	.LVL23:
 835:lvgl/src/widgets/lv_table.c ****                     else
 242              		.loc 1 835 31 view .LVU80
ARM GAS  C:\usertemp\ccJd89Xr.s 			page 23


 243              	.LBE93:
 828:lvgl/src/widgets/lv_table.c **** 
 244              		.loc 1 828 79 is_stmt 1 discriminator 2 view .LVU81
 245 00d2 0134     		adds	r4, r4, #1
 246              	.LVL24:
 828:lvgl/src/widgets/lv_table.c **** 
 247              		.loc 1 828 79 is_stmt 0 discriminator 2 view .LVU82
 248 00d4 A4B2     		uxth	r4, r4
 249              	.LVL25:
 828:lvgl/src/widgets/lv_table.c **** 
 250              		.loc 1 828 79 discriminator 2 view .LVU83
 251 00d6 E8E7     		b	.L4
 252              	.LVL26:
 253              	.L7:
 850:lvgl/src/widgets/lv_table.c ****                                h_max);
 851:lvgl/src/widgets/lv_table.c ****             }
 852:lvgl/src/widgets/lv_table.c ****             /*Without text crop calculate the height of the text in the cell*/
 853:lvgl/src/widgets/lv_table.c ****             else {
 854:lvgl/src/widgets/lv_table.c ****                 txt_w -= cell_left + cell_right;
 254              		.loc 1 854 17 is_stmt 1 view .LVU84
 255              		.loc 1 854 36 is_stmt 0 view .LVU85
 256 00d8 0C9A     		ldr	r2, [sp, #48]
 257 00da 0D99     		ldr	r1, [sp, #52]
 258 00dc 0A44     		add	r2, r2, r1
 259 00de 92B2     		uxth	r2, r2
 260              		.loc 1 854 23 view .LVU86
 261 00e0 9B1A     		subs	r3, r3, r2
 262              	.LVL27:
 263              		.loc 1 854 23 view .LVU87
 264 00e2 1BB2     		sxth	r3, r3
 265              	.LVL28:
 855:lvgl/src/widgets/lv_table.c **** 
 856:lvgl/src/widgets/lv_table.c ****                 lv_txt_get_size(&txt_size, table->cell_data[cell] + 1, font,
 266              		.loc 1 856 17 is_stmt 1 view .LVU88
 267 00e4 0022     		movs	r2, #0
 268 00e6 0292     		str	r2, [sp, #8]
 269              	.LVL29:
 270              		.loc 1 856 17 is_stmt 0 view .LVU89
 271 00e8 0193     		str	r3, [sp, #4]
 272 00ea 0B9B     		ldr	r3, [sp, #44]
 273              	.LVL30:
 274              		.loc 1 856 17 view .LVU90
 275 00ec 0093     		str	r3, [sp]
 276 00ee 0A9B     		ldr	r3, [sp, #40]
 277 00f0 069A     		ldr	r2, [sp, #24]
 278 00f2 411C     		adds	r1, r0, #1
 279 00f4 0FA8     		add	r0, sp, #60
 280 00f6 FFF7FEFF 		bl	lv_txt_get_size
 281              	.LVL31:
 857:lvgl/src/widgets/lv_table.c ****                                 letter_space, line_space, txt_w, LV_TEXT_FLAG_NONE);
 858:lvgl/src/widgets/lv_table.c **** 
 859:lvgl/src/widgets/lv_table.c ****                 h_max = LV_MAX(txt_size.y + cell_top + cell_bottom, h_max);
 282              		.loc 1 859 17 is_stmt 1 view .LVU91
 283              		.loc 1 859 25 is_stmt 0 view .LVU92
 284 00fa BDF93E30 		ldrsh	r3, [sp, #62]
 285 00fe 5B44     		add	r3, r3, fp
 286 0100 079A     		ldr	r2, [sp, #28]
ARM GAS  C:\usertemp\ccJd89Xr.s 			page 24


 287 0102 1344     		add	r3, r3, r2
 288 0104 BB42     		cmp	r3, r7
 289 0106 B8BF     		it	lt
 290 0108 3B46     		movlt	r3, r7
 291              		.loc 1 859 23 view .LVU93
 292 010a 1FB2     		sxth	r7, r3
 293              	.LVL32:
 860:lvgl/src/widgets/lv_table.c ****                 cell += col_merge;
 294              		.loc 1 860 17 is_stmt 1 view .LVU94
 295              		.loc 1 860 22 is_stmt 0 view .LVU95
 296 010c 2644     		add	r6, r6, r4
 297              	.LVL33:
 298              		.loc 1 860 22 view .LVU96
 299 010e B6B2     		uxth	r6, r6
 300              	.LVL34:
 861:lvgl/src/widgets/lv_table.c ****                 col += col_merge;
 301              		.loc 1 861 17 is_stmt 1 view .LVU97
 302              		.loc 1 861 21 is_stmt 0 view .LVU98
 303 0110 2C44     		add	r4, r4, r5
 304              	.LVL35:
 305              		.loc 1 861 21 view .LVU99
 306 0112 A5B2     		uxth	r5, r4
 307              	.LVL36:
 308              		.loc 1 861 21 view .LVU100
 309 0114 B2E7     		b	.L3
 310              	.LVL37:
 311              	.L10:
 312              		.loc 1 861 21 view .LVU101
 313              	.LBE94:
 862:lvgl/src/widgets/lv_table.c ****             }
 863:lvgl/src/widgets/lv_table.c ****         }
 864:lvgl/src/widgets/lv_table.c ****     }
 865:lvgl/src/widgets/lv_table.c **** 
 866:lvgl/src/widgets/lv_table.c ****     return h_max;
 314              		.loc 1 866 5 is_stmt 1 view .LVU102
 867:lvgl/src/widgets/lv_table.c **** }
 315              		.loc 1 867 1 is_stmt 0 view .LVU103
 316 0116 3846     		mov	r0, r7
 317 0118 11B0     		add	sp, sp, #68
 318              	.LCFI2:
 319              		.cfi_def_cfa_offset 36
 320              		@ sp needed
 321 011a BDE8F08F 		pop	{r4, r5, r6, r7, r8, r9, r10, fp, pc}
 322              		.loc 1 867 1 view .LVU104
 323              		.cfi_endproc
 324              	.LFE175:
 326              		.section	.text.refr_size,"ax",%progbits
 327              		.align	1
 328              		.syntax unified
 329              		.thumb
 330              		.thumb_func
 332              	refr_size:
 333              	.LVL38:
 334              	.LFB174:
 785:lvgl/src/widgets/lv_table.c ****     lv_table_t * table = (lv_table_t *)obj;
 335              		.loc 1 785 1 is_stmt 1 view -0
 336              		.cfi_startproc
ARM GAS  C:\usertemp\ccJd89Xr.s 			page 25


 337              		@ args = 0, pretend = 0, frame = 16
 338              		@ frame_needed = 0, uses_anonymous_args = 0
 785:lvgl/src/widgets/lv_table.c ****     lv_table_t * table = (lv_table_t *)obj;
 339              		.loc 1 785 1 is_stmt 0 view .LVU106
 340 0000 2DE9F04F 		push	{r4, r5, r6, r7, r8, r9, r10, fp, lr}
 341              	.LCFI3:
 342              		.cfi_def_cfa_offset 36
 343              		.cfi_offset 4, -36
 344              		.cfi_offset 5, -32
 345              		.cfi_offset 6, -28
 346              		.cfi_offset 7, -24
 347              		.cfi_offset 8, -20
 348              		.cfi_offset 9, -16
 349              		.cfi_offset 10, -12
 350              		.cfi_offset 11, -8
 351              		.cfi_offset 14, -4
 352 0004 8BB0     		sub	sp, sp, #44
 353              	.LCFI4:
 354              		.cfi_def_cfa_offset 80
 355 0006 0546     		mov	r5, r0
 356 0008 0C46     		mov	r4, r1
 786:lvgl/src/widgets/lv_table.c **** 
 357              		.loc 1 786 5 is_stmt 1 view .LVU107
 358              	.LVL39:
 788:lvgl/src/widgets/lv_table.c **** 
 359              		.loc 1 788 5 view .LVU108
 790:lvgl/src/widgets/lv_table.c ****     lv_coord_t cell_right = lv_obj_get_style_pad_right(obj, LV_PART_ITEMS);
 360              		.loc 1 790 5 view .LVU109
 361              	.LBB95:
 362              	.LBI95:
 363              		.file 3 "lvgl/src/widgets/../core/lv_obj_style_gen.h"
   1:lvgl/src/widgets/../core/lv_obj_style_gen.h **** static inline lv_coord_t lv_obj_get_style_width(const struct _lv_obj_t * obj, uint32_t part)
   2:lvgl/src/widgets/../core/lv_obj_style_gen.h **** {
   3:lvgl/src/widgets/../core/lv_obj_style_gen.h ****     lv_style_value_t v = lv_obj_get_style_prop(obj, part, LV_STYLE_WIDTH);
   4:lvgl/src/widgets/../core/lv_obj_style_gen.h ****     return (lv_coord_t)v.num;
   5:lvgl/src/widgets/../core/lv_obj_style_gen.h **** }
   6:lvgl/src/widgets/../core/lv_obj_style_gen.h **** 
   7:lvgl/src/widgets/../core/lv_obj_style_gen.h **** static inline lv_coord_t lv_obj_get_style_min_width(const struct _lv_obj_t * obj, uint32_t part)
   8:lvgl/src/widgets/../core/lv_obj_style_gen.h **** {
   9:lvgl/src/widgets/../core/lv_obj_style_gen.h ****     lv_style_value_t v = lv_obj_get_style_prop(obj, part, LV_STYLE_MIN_WIDTH);
  10:lvgl/src/widgets/../core/lv_obj_style_gen.h ****     return (lv_coord_t)v.num;
  11:lvgl/src/widgets/../core/lv_obj_style_gen.h **** }
  12:lvgl/src/widgets/../core/lv_obj_style_gen.h **** 
  13:lvgl/src/widgets/../core/lv_obj_style_gen.h **** static inline lv_coord_t lv_obj_get_style_max_width(const struct _lv_obj_t * obj, uint32_t part)
  14:lvgl/src/widgets/../core/lv_obj_style_gen.h **** {
  15:lvgl/src/widgets/../core/lv_obj_style_gen.h ****     lv_style_value_t v = lv_obj_get_style_prop(obj, part, LV_STYLE_MAX_WIDTH);
  16:lvgl/src/widgets/../core/lv_obj_style_gen.h ****     return (lv_coord_t)v.num;
  17:lvgl/src/widgets/../core/lv_obj_style_gen.h **** }
  18:lvgl/src/widgets/../core/lv_obj_style_gen.h **** 
  19:lvgl/src/widgets/../core/lv_obj_style_gen.h **** static inline lv_coord_t lv_obj_get_style_height(const struct _lv_obj_t * obj, uint32_t part)
  20:lvgl/src/widgets/../core/lv_obj_style_gen.h **** {
  21:lvgl/src/widgets/../core/lv_obj_style_gen.h ****     lv_style_value_t v = lv_obj_get_style_prop(obj, part, LV_STYLE_HEIGHT);
  22:lvgl/src/widgets/../core/lv_obj_style_gen.h ****     return (lv_coord_t)v.num;
  23:lvgl/src/widgets/../core/lv_obj_style_gen.h **** }
  24:lvgl/src/widgets/../core/lv_obj_style_gen.h **** 
  25:lvgl/src/widgets/../core/lv_obj_style_gen.h **** static inline lv_coord_t lv_obj_get_style_min_height(const struct _lv_obj_t * obj, uint32_t part)
  26:lvgl/src/widgets/../core/lv_obj_style_gen.h **** {
ARM GAS  C:\usertemp\ccJd89Xr.s 			page 26


  27:lvgl/src/widgets/../core/lv_obj_style_gen.h ****     lv_style_value_t v = lv_obj_get_style_prop(obj, part, LV_STYLE_MIN_HEIGHT);
  28:lvgl/src/widgets/../core/lv_obj_style_gen.h ****     return (lv_coord_t)v.num;
  29:lvgl/src/widgets/../core/lv_obj_style_gen.h **** }
  30:lvgl/src/widgets/../core/lv_obj_style_gen.h **** 
  31:lvgl/src/widgets/../core/lv_obj_style_gen.h **** static inline lv_coord_t lv_obj_get_style_max_height(const struct _lv_obj_t * obj, uint32_t part)
  32:lvgl/src/widgets/../core/lv_obj_style_gen.h **** {
  33:lvgl/src/widgets/../core/lv_obj_style_gen.h ****     lv_style_value_t v = lv_obj_get_style_prop(obj, part, LV_STYLE_MAX_HEIGHT);
  34:lvgl/src/widgets/../core/lv_obj_style_gen.h ****     return (lv_coord_t)v.num;
  35:lvgl/src/widgets/../core/lv_obj_style_gen.h **** }
  36:lvgl/src/widgets/../core/lv_obj_style_gen.h **** 
  37:lvgl/src/widgets/../core/lv_obj_style_gen.h **** static inline lv_coord_t lv_obj_get_style_x(const struct _lv_obj_t * obj, uint32_t part)
  38:lvgl/src/widgets/../core/lv_obj_style_gen.h **** {
  39:lvgl/src/widgets/../core/lv_obj_style_gen.h ****     lv_style_value_t v = lv_obj_get_style_prop(obj, part, LV_STYLE_X);
  40:lvgl/src/widgets/../core/lv_obj_style_gen.h ****     return (lv_coord_t)v.num;
  41:lvgl/src/widgets/../core/lv_obj_style_gen.h **** }
  42:lvgl/src/widgets/../core/lv_obj_style_gen.h **** 
  43:lvgl/src/widgets/../core/lv_obj_style_gen.h **** static inline lv_coord_t lv_obj_get_style_y(const struct _lv_obj_t * obj, uint32_t part)
  44:lvgl/src/widgets/../core/lv_obj_style_gen.h **** {
  45:lvgl/src/widgets/../core/lv_obj_style_gen.h ****     lv_style_value_t v = lv_obj_get_style_prop(obj, part, LV_STYLE_Y);
  46:lvgl/src/widgets/../core/lv_obj_style_gen.h ****     return (lv_coord_t)v.num;
  47:lvgl/src/widgets/../core/lv_obj_style_gen.h **** }
  48:lvgl/src/widgets/../core/lv_obj_style_gen.h **** 
  49:lvgl/src/widgets/../core/lv_obj_style_gen.h **** static inline lv_align_t lv_obj_get_style_align(const struct _lv_obj_t * obj, uint32_t part)
  50:lvgl/src/widgets/../core/lv_obj_style_gen.h **** {
  51:lvgl/src/widgets/../core/lv_obj_style_gen.h ****     lv_style_value_t v = lv_obj_get_style_prop(obj, part, LV_STYLE_ALIGN);
  52:lvgl/src/widgets/../core/lv_obj_style_gen.h ****     return (lv_align_t)v.num;
  53:lvgl/src/widgets/../core/lv_obj_style_gen.h **** }
  54:lvgl/src/widgets/../core/lv_obj_style_gen.h **** 
  55:lvgl/src/widgets/../core/lv_obj_style_gen.h **** static inline lv_coord_t lv_obj_get_style_transform_width(const struct _lv_obj_t * obj, uint32_t pa
  56:lvgl/src/widgets/../core/lv_obj_style_gen.h **** {
  57:lvgl/src/widgets/../core/lv_obj_style_gen.h ****     lv_style_value_t v = lv_obj_get_style_prop(obj, part, LV_STYLE_TRANSFORM_WIDTH);
  58:lvgl/src/widgets/../core/lv_obj_style_gen.h ****     return (lv_coord_t)v.num;
  59:lvgl/src/widgets/../core/lv_obj_style_gen.h **** }
  60:lvgl/src/widgets/../core/lv_obj_style_gen.h **** 
  61:lvgl/src/widgets/../core/lv_obj_style_gen.h **** static inline lv_coord_t lv_obj_get_style_transform_height(const struct _lv_obj_t * obj, uint32_t p
  62:lvgl/src/widgets/../core/lv_obj_style_gen.h **** {
  63:lvgl/src/widgets/../core/lv_obj_style_gen.h ****     lv_style_value_t v = lv_obj_get_style_prop(obj, part, LV_STYLE_TRANSFORM_HEIGHT);
  64:lvgl/src/widgets/../core/lv_obj_style_gen.h ****     return (lv_coord_t)v.num;
  65:lvgl/src/widgets/../core/lv_obj_style_gen.h **** }
  66:lvgl/src/widgets/../core/lv_obj_style_gen.h **** 
  67:lvgl/src/widgets/../core/lv_obj_style_gen.h **** static inline lv_coord_t lv_obj_get_style_translate_x(const struct _lv_obj_t * obj, uint32_t part)
  68:lvgl/src/widgets/../core/lv_obj_style_gen.h **** {
  69:lvgl/src/widgets/../core/lv_obj_style_gen.h ****     lv_style_value_t v = lv_obj_get_style_prop(obj, part, LV_STYLE_TRANSLATE_X);
  70:lvgl/src/widgets/../core/lv_obj_style_gen.h ****     return (lv_coord_t)v.num;
  71:lvgl/src/widgets/../core/lv_obj_style_gen.h **** }
  72:lvgl/src/widgets/../core/lv_obj_style_gen.h **** 
  73:lvgl/src/widgets/../core/lv_obj_style_gen.h **** static inline lv_coord_t lv_obj_get_style_translate_y(const struct _lv_obj_t * obj, uint32_t part)
  74:lvgl/src/widgets/../core/lv_obj_style_gen.h **** {
  75:lvgl/src/widgets/../core/lv_obj_style_gen.h ****     lv_style_value_t v = lv_obj_get_style_prop(obj, part, LV_STYLE_TRANSLATE_Y);
  76:lvgl/src/widgets/../core/lv_obj_style_gen.h ****     return (lv_coord_t)v.num;
  77:lvgl/src/widgets/../core/lv_obj_style_gen.h **** }
  78:lvgl/src/widgets/../core/lv_obj_style_gen.h **** 
  79:lvgl/src/widgets/../core/lv_obj_style_gen.h **** static inline lv_coord_t lv_obj_get_style_transform_zoom(const struct _lv_obj_t * obj, uint32_t par
  80:lvgl/src/widgets/../core/lv_obj_style_gen.h **** {
  81:lvgl/src/widgets/../core/lv_obj_style_gen.h ****     lv_style_value_t v = lv_obj_get_style_prop(obj, part, LV_STYLE_TRANSFORM_ZOOM);
  82:lvgl/src/widgets/../core/lv_obj_style_gen.h ****     return (lv_coord_t)v.num;
  83:lvgl/src/widgets/../core/lv_obj_style_gen.h **** }
ARM GAS  C:\usertemp\ccJd89Xr.s 			page 27


  84:lvgl/src/widgets/../core/lv_obj_style_gen.h **** 
  85:lvgl/src/widgets/../core/lv_obj_style_gen.h **** static inline lv_coord_t lv_obj_get_style_transform_angle(const struct _lv_obj_t * obj, uint32_t pa
  86:lvgl/src/widgets/../core/lv_obj_style_gen.h **** {
  87:lvgl/src/widgets/../core/lv_obj_style_gen.h ****     lv_style_value_t v = lv_obj_get_style_prop(obj, part, LV_STYLE_TRANSFORM_ANGLE);
  88:lvgl/src/widgets/../core/lv_obj_style_gen.h ****     return (lv_coord_t)v.num;
  89:lvgl/src/widgets/../core/lv_obj_style_gen.h **** }
  90:lvgl/src/widgets/../core/lv_obj_style_gen.h **** 
  91:lvgl/src/widgets/../core/lv_obj_style_gen.h **** static inline lv_coord_t lv_obj_get_style_pad_top(const struct _lv_obj_t * obj, uint32_t part)
  92:lvgl/src/widgets/../core/lv_obj_style_gen.h **** {
  93:lvgl/src/widgets/../core/lv_obj_style_gen.h ****     lv_style_value_t v = lv_obj_get_style_prop(obj, part, LV_STYLE_PAD_TOP);
  94:lvgl/src/widgets/../core/lv_obj_style_gen.h ****     return (lv_coord_t)v.num;
  95:lvgl/src/widgets/../core/lv_obj_style_gen.h **** }
  96:lvgl/src/widgets/../core/lv_obj_style_gen.h **** 
  97:lvgl/src/widgets/../core/lv_obj_style_gen.h **** static inline lv_coord_t lv_obj_get_style_pad_bottom(const struct _lv_obj_t * obj, uint32_t part)
  98:lvgl/src/widgets/../core/lv_obj_style_gen.h **** {
  99:lvgl/src/widgets/../core/lv_obj_style_gen.h ****     lv_style_value_t v = lv_obj_get_style_prop(obj, part, LV_STYLE_PAD_BOTTOM);
 100:lvgl/src/widgets/../core/lv_obj_style_gen.h ****     return (lv_coord_t)v.num;
 101:lvgl/src/widgets/../core/lv_obj_style_gen.h **** }
 102:lvgl/src/widgets/../core/lv_obj_style_gen.h **** 
 103:lvgl/src/widgets/../core/lv_obj_style_gen.h **** static inline lv_coord_t lv_obj_get_style_pad_left(const struct _lv_obj_t * obj, uint32_t part)
 364              		.loc 3 103 26 view .LVU110
 365              	.LBB96:
 104:lvgl/src/widgets/../core/lv_obj_style_gen.h **** {
 105:lvgl/src/widgets/../core/lv_obj_style_gen.h ****     lv_style_value_t v = lv_obj_get_style_prop(obj, part, LV_STYLE_PAD_LEFT);
 366              		.loc 3 105 5 view .LVU111
 367              		.loc 3 105 26 is_stmt 0 view .LVU112
 368 000a 41F61202 		movw	r2, #6162
 369 000e 4FF4A021 		mov	r1, #327680
 370              	.LVL40:
 371              		.loc 3 105 26 view .LVU113
 372 0012 FFF7FEFF 		bl	lv_obj_get_style_prop
 373              	.LVL41:
 106:lvgl/src/widgets/../core/lv_obj_style_gen.h ****     return (lv_coord_t)v.num;
 374              		.loc 3 106 5 is_stmt 1 view .LVU114
 375              		.loc 3 106 12 is_stmt 0 view .LVU115
 376 0016 0FFA80FB 		sxth	fp, r0
 377              	.LVL42:
 378              		.loc 3 106 12 view .LVU116
 379              	.LBE96:
 380              	.LBE95:
 791:lvgl/src/widgets/lv_table.c ****     lv_coord_t cell_top = lv_obj_get_style_pad_top(obj, LV_PART_ITEMS);
 381              		.loc 1 791 5 is_stmt 1 view .LVU117
 382              	.LBB97:
 383              	.LBI97:
 107:lvgl/src/widgets/../core/lv_obj_style_gen.h **** }
 108:lvgl/src/widgets/../core/lv_obj_style_gen.h **** 
 109:lvgl/src/widgets/../core/lv_obj_style_gen.h **** static inline lv_coord_t lv_obj_get_style_pad_right(const struct _lv_obj_t * obj, uint32_t part)
 384              		.loc 3 109 26 view .LVU118
 385              	.LBB98:
 110:lvgl/src/widgets/../core/lv_obj_style_gen.h **** {
 111:lvgl/src/widgets/../core/lv_obj_style_gen.h ****     lv_style_value_t v = lv_obj_get_style_prop(obj, part, LV_STYLE_PAD_RIGHT);
 386              		.loc 3 111 5 view .LVU119
 387              		.loc 3 111 26 is_stmt 0 view .LVU120
 388 001a 41F61302 		movw	r2, #6163
 389 001e 4FF4A021 		mov	r1, #327680
 390 0022 2846     		mov	r0, r5
 391 0024 FFF7FEFF 		bl	lv_obj_get_style_prop
ARM GAS  C:\usertemp\ccJd89Xr.s 			page 28


 392              	.LVL43:
 112:lvgl/src/widgets/../core/lv_obj_style_gen.h ****     return (lv_coord_t)v.num;
 393              		.loc 3 112 5 is_stmt 1 view .LVU121
 394              		.loc 3 112 12 is_stmt 0 view .LVU122
 395 0028 0FFA80FA 		sxth	r10, r0
 396              	.LVL44:
 397              		.loc 3 112 12 view .LVU123
 398              	.LBE98:
 399              	.LBE97:
 792:lvgl/src/widgets/lv_table.c ****     lv_coord_t cell_bottom = lv_obj_get_style_pad_bottom(obj, LV_PART_ITEMS);
 400              		.loc 1 792 5 is_stmt 1 view .LVU124
 401              	.LBB99:
 402              	.LBI99:
  91:lvgl/src/widgets/../core/lv_obj_style_gen.h **** {
 403              		.loc 3 91 26 view .LVU125
 404              	.LBB100:
  93:lvgl/src/widgets/../core/lv_obj_style_gen.h ****     return (lv_coord_t)v.num;
 405              		.loc 3 93 5 view .LVU126
  93:lvgl/src/widgets/../core/lv_obj_style_gen.h ****     return (lv_coord_t)v.num;
 406              		.loc 3 93 26 is_stmt 0 view .LVU127
 407 002c 41F61002 		movw	r2, #6160
 408 0030 4FF4A021 		mov	r1, #327680
 409 0034 2846     		mov	r0, r5
 410 0036 FFF7FEFF 		bl	lv_obj_get_style_prop
 411              	.LVL45:
  94:lvgl/src/widgets/../core/lv_obj_style_gen.h **** }
 412              		.loc 3 94 5 is_stmt 1 view .LVU128
  94:lvgl/src/widgets/../core/lv_obj_style_gen.h **** }
 413              		.loc 3 94 12 is_stmt 0 view .LVU129
 414 003a 0FFA80F9 		sxth	r9, r0
 415              	.LVL46:
  94:lvgl/src/widgets/../core/lv_obj_style_gen.h **** }
 416              		.loc 3 94 12 view .LVU130
 417              	.LBE100:
 418              	.LBE99:
 793:lvgl/src/widgets/lv_table.c **** 
 419              		.loc 1 793 5 is_stmt 1 view .LVU131
 420              	.LBB101:
 421              	.LBI101:
  97:lvgl/src/widgets/../core/lv_obj_style_gen.h **** {
 422              		.loc 3 97 26 view .LVU132
 423              	.LBB102:
  99:lvgl/src/widgets/../core/lv_obj_style_gen.h ****     return (lv_coord_t)v.num;
 424              		.loc 3 99 5 view .LVU133
  99:lvgl/src/widgets/../core/lv_obj_style_gen.h ****     return (lv_coord_t)v.num;
 425              		.loc 3 99 26 is_stmt 0 view .LVU134
 426 003e 41F61102 		movw	r2, #6161
 427 0042 4FF4A021 		mov	r1, #327680
 428 0046 2846     		mov	r0, r5
 429 0048 FFF7FEFF 		bl	lv_obj_get_style_prop
 430              	.LVL47:
 100:lvgl/src/widgets/../core/lv_obj_style_gen.h **** }
 431              		.loc 3 100 5 is_stmt 1 view .LVU135
 100:lvgl/src/widgets/../core/lv_obj_style_gen.h **** }
 432              		.loc 3 100 12 is_stmt 0 view .LVU136
 433 004c 03B2     		sxth	r3, r0
 434 004e 0993     		str	r3, [sp, #36]
ARM GAS  C:\usertemp\ccJd89Xr.s 			page 29


 435              	.LVL48:
 100:lvgl/src/widgets/../core/lv_obj_style_gen.h **** }
 436              		.loc 3 100 12 view .LVU137
 437              	.LBE102:
 438              	.LBE101:
 795:lvgl/src/widgets/lv_table.c ****     lv_coord_t line_space = lv_obj_get_style_text_line_space(obj, LV_PART_ITEMS);
 439              		.loc 1 795 5 is_stmt 1 view .LVU138
 440              	.LBB103:
 441              	.LBI103:
 113:lvgl/src/widgets/../core/lv_obj_style_gen.h **** }
 114:lvgl/src/widgets/../core/lv_obj_style_gen.h **** 
 115:lvgl/src/widgets/../core/lv_obj_style_gen.h **** static inline lv_coord_t lv_obj_get_style_pad_row(const struct _lv_obj_t * obj, uint32_t part)
 116:lvgl/src/widgets/../core/lv_obj_style_gen.h **** {
 117:lvgl/src/widgets/../core/lv_obj_style_gen.h ****     lv_style_value_t v = lv_obj_get_style_prop(obj, part, LV_STYLE_PAD_ROW);
 118:lvgl/src/widgets/../core/lv_obj_style_gen.h ****     return (lv_coord_t)v.num;
 119:lvgl/src/widgets/../core/lv_obj_style_gen.h **** }
 120:lvgl/src/widgets/../core/lv_obj_style_gen.h **** 
 121:lvgl/src/widgets/../core/lv_obj_style_gen.h **** static inline lv_coord_t lv_obj_get_style_pad_column(const struct _lv_obj_t * obj, uint32_t part)
 122:lvgl/src/widgets/../core/lv_obj_style_gen.h **** {
 123:lvgl/src/widgets/../core/lv_obj_style_gen.h ****     lv_style_value_t v = lv_obj_get_style_prop(obj, part, LV_STYLE_PAD_COLUMN);
 124:lvgl/src/widgets/../core/lv_obj_style_gen.h ****     return (lv_coord_t)v.num;
 125:lvgl/src/widgets/../core/lv_obj_style_gen.h **** }
 126:lvgl/src/widgets/../core/lv_obj_style_gen.h **** 
 127:lvgl/src/widgets/../core/lv_obj_style_gen.h **** static inline lv_color_t lv_obj_get_style_bg_color(const struct _lv_obj_t * obj, uint32_t part)
 128:lvgl/src/widgets/../core/lv_obj_style_gen.h **** {
 129:lvgl/src/widgets/../core/lv_obj_style_gen.h ****     lv_style_value_t v = lv_obj_get_style_prop(obj, part, LV_STYLE_BG_COLOR);
 130:lvgl/src/widgets/../core/lv_obj_style_gen.h ****     return v.color;
 131:lvgl/src/widgets/../core/lv_obj_style_gen.h **** }
 132:lvgl/src/widgets/../core/lv_obj_style_gen.h **** 
 133:lvgl/src/widgets/../core/lv_obj_style_gen.h **** static inline lv_color_t lv_obj_get_style_bg_color_filtered(const struct _lv_obj_t * obj, uint32_t 
 134:lvgl/src/widgets/../core/lv_obj_style_gen.h **** {
 135:lvgl/src/widgets/../core/lv_obj_style_gen.h ****     lv_style_value_t v = lv_obj_get_style_prop(obj, part, LV_STYLE_BG_COLOR_FILTERED);
 136:lvgl/src/widgets/../core/lv_obj_style_gen.h ****     return v.color;
 137:lvgl/src/widgets/../core/lv_obj_style_gen.h **** }
 138:lvgl/src/widgets/../core/lv_obj_style_gen.h **** 
 139:lvgl/src/widgets/../core/lv_obj_style_gen.h **** static inline lv_opa_t lv_obj_get_style_bg_opa(const struct _lv_obj_t * obj, uint32_t part)
 140:lvgl/src/widgets/../core/lv_obj_style_gen.h **** {
 141:lvgl/src/widgets/../core/lv_obj_style_gen.h ****     lv_style_value_t v = lv_obj_get_style_prop(obj, part, LV_STYLE_BG_OPA);
 142:lvgl/src/widgets/../core/lv_obj_style_gen.h ****     return (lv_opa_t)v.num;
 143:lvgl/src/widgets/../core/lv_obj_style_gen.h **** }
 144:lvgl/src/widgets/../core/lv_obj_style_gen.h **** 
 145:lvgl/src/widgets/../core/lv_obj_style_gen.h **** static inline lv_color_t lv_obj_get_style_bg_grad_color(const struct _lv_obj_t * obj, uint32_t part
 146:lvgl/src/widgets/../core/lv_obj_style_gen.h **** {
 147:lvgl/src/widgets/../core/lv_obj_style_gen.h ****     lv_style_value_t v = lv_obj_get_style_prop(obj, part, LV_STYLE_BG_GRAD_COLOR);
 148:lvgl/src/widgets/../core/lv_obj_style_gen.h ****     return v.color;
 149:lvgl/src/widgets/../core/lv_obj_style_gen.h **** }
 150:lvgl/src/widgets/../core/lv_obj_style_gen.h **** 
 151:lvgl/src/widgets/../core/lv_obj_style_gen.h **** static inline lv_color_t lv_obj_get_style_bg_grad_color_filtered(const struct _lv_obj_t * obj, uint
 152:lvgl/src/widgets/../core/lv_obj_style_gen.h **** {
 153:lvgl/src/widgets/../core/lv_obj_style_gen.h ****     lv_style_value_t v = lv_obj_get_style_prop(obj, part, LV_STYLE_BG_GRAD_COLOR_FILTERED);
 154:lvgl/src/widgets/../core/lv_obj_style_gen.h ****     return v.color;
 155:lvgl/src/widgets/../core/lv_obj_style_gen.h **** }
 156:lvgl/src/widgets/../core/lv_obj_style_gen.h **** 
 157:lvgl/src/widgets/../core/lv_obj_style_gen.h **** static inline lv_grad_dir_t lv_obj_get_style_bg_grad_dir(const struct _lv_obj_t * obj, uint32_t par
 158:lvgl/src/widgets/../core/lv_obj_style_gen.h **** {
 159:lvgl/src/widgets/../core/lv_obj_style_gen.h ****     lv_style_value_t v = lv_obj_get_style_prop(obj, part, LV_STYLE_BG_GRAD_DIR);
 160:lvgl/src/widgets/../core/lv_obj_style_gen.h ****     return (lv_grad_dir_t)v.num;
ARM GAS  C:\usertemp\ccJd89Xr.s 			page 30


 161:lvgl/src/widgets/../core/lv_obj_style_gen.h **** }
 162:lvgl/src/widgets/../core/lv_obj_style_gen.h **** 
 163:lvgl/src/widgets/../core/lv_obj_style_gen.h **** static inline lv_coord_t lv_obj_get_style_bg_main_stop(const struct _lv_obj_t * obj, uint32_t part)
 164:lvgl/src/widgets/../core/lv_obj_style_gen.h **** {
 165:lvgl/src/widgets/../core/lv_obj_style_gen.h ****     lv_style_value_t v = lv_obj_get_style_prop(obj, part, LV_STYLE_BG_MAIN_STOP);
 166:lvgl/src/widgets/../core/lv_obj_style_gen.h ****     return (lv_coord_t)v.num;
 167:lvgl/src/widgets/../core/lv_obj_style_gen.h **** }
 168:lvgl/src/widgets/../core/lv_obj_style_gen.h **** 
 169:lvgl/src/widgets/../core/lv_obj_style_gen.h **** static inline lv_coord_t lv_obj_get_style_bg_grad_stop(const struct _lv_obj_t * obj, uint32_t part)
 170:lvgl/src/widgets/../core/lv_obj_style_gen.h **** {
 171:lvgl/src/widgets/../core/lv_obj_style_gen.h ****     lv_style_value_t v = lv_obj_get_style_prop(obj, part, LV_STYLE_BG_GRAD_STOP);
 172:lvgl/src/widgets/../core/lv_obj_style_gen.h ****     return (lv_coord_t)v.num;
 173:lvgl/src/widgets/../core/lv_obj_style_gen.h **** }
 174:lvgl/src/widgets/../core/lv_obj_style_gen.h **** 
 175:lvgl/src/widgets/../core/lv_obj_style_gen.h **** static inline const lv_grad_dsc_t * lv_obj_get_style_bg_grad(const struct _lv_obj_t * obj, uint32_t
 176:lvgl/src/widgets/../core/lv_obj_style_gen.h **** {
 177:lvgl/src/widgets/../core/lv_obj_style_gen.h ****     lv_style_value_t v = lv_obj_get_style_prop(obj, part, LV_STYLE_BG_GRAD);
 178:lvgl/src/widgets/../core/lv_obj_style_gen.h ****     return (const lv_grad_dsc_t *)v.ptr;
 179:lvgl/src/widgets/../core/lv_obj_style_gen.h **** }
 180:lvgl/src/widgets/../core/lv_obj_style_gen.h **** 
 181:lvgl/src/widgets/../core/lv_obj_style_gen.h **** static inline lv_dither_mode_t lv_obj_get_style_bg_dither_mode(const struct _lv_obj_t * obj, uint32
 182:lvgl/src/widgets/../core/lv_obj_style_gen.h **** {
 183:lvgl/src/widgets/../core/lv_obj_style_gen.h ****     lv_style_value_t v = lv_obj_get_style_prop(obj, part, LV_STYLE_BG_DITHER_MODE);
 184:lvgl/src/widgets/../core/lv_obj_style_gen.h ****     return (lv_dither_mode_t)v.num;
 185:lvgl/src/widgets/../core/lv_obj_style_gen.h **** }
 186:lvgl/src/widgets/../core/lv_obj_style_gen.h **** 
 187:lvgl/src/widgets/../core/lv_obj_style_gen.h **** static inline const void * lv_obj_get_style_bg_img_src(const struct _lv_obj_t * obj, uint32_t part)
 188:lvgl/src/widgets/../core/lv_obj_style_gen.h **** {
 189:lvgl/src/widgets/../core/lv_obj_style_gen.h ****     lv_style_value_t v = lv_obj_get_style_prop(obj, part, LV_STYLE_BG_IMG_SRC);
 190:lvgl/src/widgets/../core/lv_obj_style_gen.h ****     return (const void *)v.ptr;
 191:lvgl/src/widgets/../core/lv_obj_style_gen.h **** }
 192:lvgl/src/widgets/../core/lv_obj_style_gen.h **** 
 193:lvgl/src/widgets/../core/lv_obj_style_gen.h **** static inline lv_opa_t lv_obj_get_style_bg_img_opa(const struct _lv_obj_t * obj, uint32_t part)
 194:lvgl/src/widgets/../core/lv_obj_style_gen.h **** {
 195:lvgl/src/widgets/../core/lv_obj_style_gen.h ****     lv_style_value_t v = lv_obj_get_style_prop(obj, part, LV_STYLE_BG_IMG_OPA);
 196:lvgl/src/widgets/../core/lv_obj_style_gen.h ****     return (lv_opa_t)v.num;
 197:lvgl/src/widgets/../core/lv_obj_style_gen.h **** }
 198:lvgl/src/widgets/../core/lv_obj_style_gen.h **** 
 199:lvgl/src/widgets/../core/lv_obj_style_gen.h **** static inline lv_color_t lv_obj_get_style_bg_img_recolor(const struct _lv_obj_t * obj, uint32_t par
 200:lvgl/src/widgets/../core/lv_obj_style_gen.h **** {
 201:lvgl/src/widgets/../core/lv_obj_style_gen.h ****     lv_style_value_t v = lv_obj_get_style_prop(obj, part, LV_STYLE_BG_IMG_RECOLOR);
 202:lvgl/src/widgets/../core/lv_obj_style_gen.h ****     return v.color;
 203:lvgl/src/widgets/../core/lv_obj_style_gen.h **** }
 204:lvgl/src/widgets/../core/lv_obj_style_gen.h **** 
 205:lvgl/src/widgets/../core/lv_obj_style_gen.h **** static inline lv_color_t lv_obj_get_style_bg_img_recolor_filtered(const struct _lv_obj_t * obj, uin
 206:lvgl/src/widgets/../core/lv_obj_style_gen.h **** {
 207:lvgl/src/widgets/../core/lv_obj_style_gen.h ****     lv_style_value_t v = lv_obj_get_style_prop(obj, part, LV_STYLE_BG_IMG_RECOLOR_FILTERED);
 208:lvgl/src/widgets/../core/lv_obj_style_gen.h ****     return v.color;
 209:lvgl/src/widgets/../core/lv_obj_style_gen.h **** }
 210:lvgl/src/widgets/../core/lv_obj_style_gen.h **** 
 211:lvgl/src/widgets/../core/lv_obj_style_gen.h **** static inline lv_opa_t lv_obj_get_style_bg_img_recolor_opa(const struct _lv_obj_t * obj, uint32_t p
 212:lvgl/src/widgets/../core/lv_obj_style_gen.h **** {
 213:lvgl/src/widgets/../core/lv_obj_style_gen.h ****     lv_style_value_t v = lv_obj_get_style_prop(obj, part, LV_STYLE_BG_IMG_RECOLOR_OPA);
 214:lvgl/src/widgets/../core/lv_obj_style_gen.h ****     return (lv_opa_t)v.num;
 215:lvgl/src/widgets/../core/lv_obj_style_gen.h **** }
 216:lvgl/src/widgets/../core/lv_obj_style_gen.h **** 
 217:lvgl/src/widgets/../core/lv_obj_style_gen.h **** static inline bool lv_obj_get_style_bg_img_tiled(const struct _lv_obj_t * obj, uint32_t part)
ARM GAS  C:\usertemp\ccJd89Xr.s 			page 31


 218:lvgl/src/widgets/../core/lv_obj_style_gen.h **** {
 219:lvgl/src/widgets/../core/lv_obj_style_gen.h ****     lv_style_value_t v = lv_obj_get_style_prop(obj, part, LV_STYLE_BG_IMG_TILED);
 220:lvgl/src/widgets/../core/lv_obj_style_gen.h ****     return (bool)v.num;
 221:lvgl/src/widgets/../core/lv_obj_style_gen.h **** }
 222:lvgl/src/widgets/../core/lv_obj_style_gen.h **** 
 223:lvgl/src/widgets/../core/lv_obj_style_gen.h **** static inline lv_color_t lv_obj_get_style_border_color(const struct _lv_obj_t * obj, uint32_t part)
 224:lvgl/src/widgets/../core/lv_obj_style_gen.h **** {
 225:lvgl/src/widgets/../core/lv_obj_style_gen.h ****     lv_style_value_t v = lv_obj_get_style_prop(obj, part, LV_STYLE_BORDER_COLOR);
 226:lvgl/src/widgets/../core/lv_obj_style_gen.h ****     return v.color;
 227:lvgl/src/widgets/../core/lv_obj_style_gen.h **** }
 228:lvgl/src/widgets/../core/lv_obj_style_gen.h **** 
 229:lvgl/src/widgets/../core/lv_obj_style_gen.h **** static inline lv_color_t lv_obj_get_style_border_color_filtered(const struct _lv_obj_t * obj, uint3
 230:lvgl/src/widgets/../core/lv_obj_style_gen.h **** {
 231:lvgl/src/widgets/../core/lv_obj_style_gen.h ****     lv_style_value_t v = lv_obj_get_style_prop(obj, part, LV_STYLE_BORDER_COLOR_FILTERED);
 232:lvgl/src/widgets/../core/lv_obj_style_gen.h ****     return v.color;
 233:lvgl/src/widgets/../core/lv_obj_style_gen.h **** }
 234:lvgl/src/widgets/../core/lv_obj_style_gen.h **** 
 235:lvgl/src/widgets/../core/lv_obj_style_gen.h **** static inline lv_opa_t lv_obj_get_style_border_opa(const struct _lv_obj_t * obj, uint32_t part)
 236:lvgl/src/widgets/../core/lv_obj_style_gen.h **** {
 237:lvgl/src/widgets/../core/lv_obj_style_gen.h ****     lv_style_value_t v = lv_obj_get_style_prop(obj, part, LV_STYLE_BORDER_OPA);
 238:lvgl/src/widgets/../core/lv_obj_style_gen.h ****     return (lv_opa_t)v.num;
 239:lvgl/src/widgets/../core/lv_obj_style_gen.h **** }
 240:lvgl/src/widgets/../core/lv_obj_style_gen.h **** 
 241:lvgl/src/widgets/../core/lv_obj_style_gen.h **** static inline lv_coord_t lv_obj_get_style_border_width(const struct _lv_obj_t * obj, uint32_t part)
 242:lvgl/src/widgets/../core/lv_obj_style_gen.h **** {
 243:lvgl/src/widgets/../core/lv_obj_style_gen.h ****     lv_style_value_t v = lv_obj_get_style_prop(obj, part, LV_STYLE_BORDER_WIDTH);
 244:lvgl/src/widgets/../core/lv_obj_style_gen.h ****     return (lv_coord_t)v.num;
 245:lvgl/src/widgets/../core/lv_obj_style_gen.h **** }
 246:lvgl/src/widgets/../core/lv_obj_style_gen.h **** 
 247:lvgl/src/widgets/../core/lv_obj_style_gen.h **** static inline lv_border_side_t lv_obj_get_style_border_side(const struct _lv_obj_t * obj, uint32_t 
 248:lvgl/src/widgets/../core/lv_obj_style_gen.h **** {
 249:lvgl/src/widgets/../core/lv_obj_style_gen.h ****     lv_style_value_t v = lv_obj_get_style_prop(obj, part, LV_STYLE_BORDER_SIDE);
 250:lvgl/src/widgets/../core/lv_obj_style_gen.h ****     return (lv_border_side_t)v.num;
 251:lvgl/src/widgets/../core/lv_obj_style_gen.h **** }
 252:lvgl/src/widgets/../core/lv_obj_style_gen.h **** 
 253:lvgl/src/widgets/../core/lv_obj_style_gen.h **** static inline bool lv_obj_get_style_border_post(const struct _lv_obj_t * obj, uint32_t part)
 254:lvgl/src/widgets/../core/lv_obj_style_gen.h **** {
 255:lvgl/src/widgets/../core/lv_obj_style_gen.h ****     lv_style_value_t v = lv_obj_get_style_prop(obj, part, LV_STYLE_BORDER_POST);
 256:lvgl/src/widgets/../core/lv_obj_style_gen.h ****     return (bool)v.num;
 257:lvgl/src/widgets/../core/lv_obj_style_gen.h **** }
 258:lvgl/src/widgets/../core/lv_obj_style_gen.h **** 
 259:lvgl/src/widgets/../core/lv_obj_style_gen.h **** static inline lv_coord_t lv_obj_get_style_outline_width(const struct _lv_obj_t * obj, uint32_t part
 260:lvgl/src/widgets/../core/lv_obj_style_gen.h **** {
 261:lvgl/src/widgets/../core/lv_obj_style_gen.h ****     lv_style_value_t v = lv_obj_get_style_prop(obj, part, LV_STYLE_OUTLINE_WIDTH);
 262:lvgl/src/widgets/../core/lv_obj_style_gen.h ****     return (lv_coord_t)v.num;
 263:lvgl/src/widgets/../core/lv_obj_style_gen.h **** }
 264:lvgl/src/widgets/../core/lv_obj_style_gen.h **** 
 265:lvgl/src/widgets/../core/lv_obj_style_gen.h **** static inline lv_color_t lv_obj_get_style_outline_color(const struct _lv_obj_t * obj, uint32_t part
 266:lvgl/src/widgets/../core/lv_obj_style_gen.h **** {
 267:lvgl/src/widgets/../core/lv_obj_style_gen.h ****     lv_style_value_t v = lv_obj_get_style_prop(obj, part, LV_STYLE_OUTLINE_COLOR);
 268:lvgl/src/widgets/../core/lv_obj_style_gen.h ****     return v.color;
 269:lvgl/src/widgets/../core/lv_obj_style_gen.h **** }
 270:lvgl/src/widgets/../core/lv_obj_style_gen.h **** 
 271:lvgl/src/widgets/../core/lv_obj_style_gen.h **** static inline lv_color_t lv_obj_get_style_outline_color_filtered(const struct _lv_obj_t * obj, uint
 272:lvgl/src/widgets/../core/lv_obj_style_gen.h **** {
 273:lvgl/src/widgets/../core/lv_obj_style_gen.h ****     lv_style_value_t v = lv_obj_get_style_prop(obj, part, LV_STYLE_OUTLINE_COLOR_FILTERED);
 274:lvgl/src/widgets/../core/lv_obj_style_gen.h ****     return v.color;
ARM GAS  C:\usertemp\ccJd89Xr.s 			page 32


 275:lvgl/src/widgets/../core/lv_obj_style_gen.h **** }
 276:lvgl/src/widgets/../core/lv_obj_style_gen.h **** 
 277:lvgl/src/widgets/../core/lv_obj_style_gen.h **** static inline lv_opa_t lv_obj_get_style_outline_opa(const struct _lv_obj_t * obj, uint32_t part)
 278:lvgl/src/widgets/../core/lv_obj_style_gen.h **** {
 279:lvgl/src/widgets/../core/lv_obj_style_gen.h ****     lv_style_value_t v = lv_obj_get_style_prop(obj, part, LV_STYLE_OUTLINE_OPA);
 280:lvgl/src/widgets/../core/lv_obj_style_gen.h ****     return (lv_opa_t)v.num;
 281:lvgl/src/widgets/../core/lv_obj_style_gen.h **** }
 282:lvgl/src/widgets/../core/lv_obj_style_gen.h **** 
 283:lvgl/src/widgets/../core/lv_obj_style_gen.h **** static inline lv_coord_t lv_obj_get_style_outline_pad(const struct _lv_obj_t * obj, uint32_t part)
 284:lvgl/src/widgets/../core/lv_obj_style_gen.h **** {
 285:lvgl/src/widgets/../core/lv_obj_style_gen.h ****     lv_style_value_t v = lv_obj_get_style_prop(obj, part, LV_STYLE_OUTLINE_PAD);
 286:lvgl/src/widgets/../core/lv_obj_style_gen.h ****     return (lv_coord_t)v.num;
 287:lvgl/src/widgets/../core/lv_obj_style_gen.h **** }
 288:lvgl/src/widgets/../core/lv_obj_style_gen.h **** 
 289:lvgl/src/widgets/../core/lv_obj_style_gen.h **** static inline lv_coord_t lv_obj_get_style_shadow_width(const struct _lv_obj_t * obj, uint32_t part)
 290:lvgl/src/widgets/../core/lv_obj_style_gen.h **** {
 291:lvgl/src/widgets/../core/lv_obj_style_gen.h ****     lv_style_value_t v = lv_obj_get_style_prop(obj, part, LV_STYLE_SHADOW_WIDTH);
 292:lvgl/src/widgets/../core/lv_obj_style_gen.h ****     return (lv_coord_t)v.num;
 293:lvgl/src/widgets/../core/lv_obj_style_gen.h **** }
 294:lvgl/src/widgets/../core/lv_obj_style_gen.h **** 
 295:lvgl/src/widgets/../core/lv_obj_style_gen.h **** static inline lv_coord_t lv_obj_get_style_shadow_ofs_x(const struct _lv_obj_t * obj, uint32_t part)
 296:lvgl/src/widgets/../core/lv_obj_style_gen.h **** {
 297:lvgl/src/widgets/../core/lv_obj_style_gen.h ****     lv_style_value_t v = lv_obj_get_style_prop(obj, part, LV_STYLE_SHADOW_OFS_X);
 298:lvgl/src/widgets/../core/lv_obj_style_gen.h ****     return (lv_coord_t)v.num;
 299:lvgl/src/widgets/../core/lv_obj_style_gen.h **** }
 300:lvgl/src/widgets/../core/lv_obj_style_gen.h **** 
 301:lvgl/src/widgets/../core/lv_obj_style_gen.h **** static inline lv_coord_t lv_obj_get_style_shadow_ofs_y(const struct _lv_obj_t * obj, uint32_t part)
 302:lvgl/src/widgets/../core/lv_obj_style_gen.h **** {
 303:lvgl/src/widgets/../core/lv_obj_style_gen.h ****     lv_style_value_t v = lv_obj_get_style_prop(obj, part, LV_STYLE_SHADOW_OFS_Y);
 304:lvgl/src/widgets/../core/lv_obj_style_gen.h ****     return (lv_coord_t)v.num;
 305:lvgl/src/widgets/../core/lv_obj_style_gen.h **** }
 306:lvgl/src/widgets/../core/lv_obj_style_gen.h **** 
 307:lvgl/src/widgets/../core/lv_obj_style_gen.h **** static inline lv_coord_t lv_obj_get_style_shadow_spread(const struct _lv_obj_t * obj, uint32_t part
 308:lvgl/src/widgets/../core/lv_obj_style_gen.h **** {
 309:lvgl/src/widgets/../core/lv_obj_style_gen.h ****     lv_style_value_t v = lv_obj_get_style_prop(obj, part, LV_STYLE_SHADOW_SPREAD);
 310:lvgl/src/widgets/../core/lv_obj_style_gen.h ****     return (lv_coord_t)v.num;
 311:lvgl/src/widgets/../core/lv_obj_style_gen.h **** }
 312:lvgl/src/widgets/../core/lv_obj_style_gen.h **** 
 313:lvgl/src/widgets/../core/lv_obj_style_gen.h **** static inline lv_color_t lv_obj_get_style_shadow_color(const struct _lv_obj_t * obj, uint32_t part)
 314:lvgl/src/widgets/../core/lv_obj_style_gen.h **** {
 315:lvgl/src/widgets/../core/lv_obj_style_gen.h ****     lv_style_value_t v = lv_obj_get_style_prop(obj, part, LV_STYLE_SHADOW_COLOR);
 316:lvgl/src/widgets/../core/lv_obj_style_gen.h ****     return v.color;
 317:lvgl/src/widgets/../core/lv_obj_style_gen.h **** }
 318:lvgl/src/widgets/../core/lv_obj_style_gen.h **** 
 319:lvgl/src/widgets/../core/lv_obj_style_gen.h **** static inline lv_color_t lv_obj_get_style_shadow_color_filtered(const struct _lv_obj_t * obj, uint3
 320:lvgl/src/widgets/../core/lv_obj_style_gen.h **** {
 321:lvgl/src/widgets/../core/lv_obj_style_gen.h ****     lv_style_value_t v = lv_obj_get_style_prop(obj, part, LV_STYLE_SHADOW_COLOR_FILTERED);
 322:lvgl/src/widgets/../core/lv_obj_style_gen.h ****     return v.color;
 323:lvgl/src/widgets/../core/lv_obj_style_gen.h **** }
 324:lvgl/src/widgets/../core/lv_obj_style_gen.h **** 
 325:lvgl/src/widgets/../core/lv_obj_style_gen.h **** static inline lv_opa_t lv_obj_get_style_shadow_opa(const struct _lv_obj_t * obj, uint32_t part)
 326:lvgl/src/widgets/../core/lv_obj_style_gen.h **** {
 327:lvgl/src/widgets/../core/lv_obj_style_gen.h ****     lv_style_value_t v = lv_obj_get_style_prop(obj, part, LV_STYLE_SHADOW_OPA);
 328:lvgl/src/widgets/../core/lv_obj_style_gen.h ****     return (lv_opa_t)v.num;
 329:lvgl/src/widgets/../core/lv_obj_style_gen.h **** }
 330:lvgl/src/widgets/../core/lv_obj_style_gen.h **** 
 331:lvgl/src/widgets/../core/lv_obj_style_gen.h **** static inline lv_opa_t lv_obj_get_style_img_opa(const struct _lv_obj_t * obj, uint32_t part)
ARM GAS  C:\usertemp\ccJd89Xr.s 			page 33


 332:lvgl/src/widgets/../core/lv_obj_style_gen.h **** {
 333:lvgl/src/widgets/../core/lv_obj_style_gen.h ****     lv_style_value_t v = lv_obj_get_style_prop(obj, part, LV_STYLE_IMG_OPA);
 334:lvgl/src/widgets/../core/lv_obj_style_gen.h ****     return (lv_opa_t)v.num;
 335:lvgl/src/widgets/../core/lv_obj_style_gen.h **** }
 336:lvgl/src/widgets/../core/lv_obj_style_gen.h **** 
 337:lvgl/src/widgets/../core/lv_obj_style_gen.h **** static inline lv_color_t lv_obj_get_style_img_recolor(const struct _lv_obj_t * obj, uint32_t part)
 338:lvgl/src/widgets/../core/lv_obj_style_gen.h **** {
 339:lvgl/src/widgets/../core/lv_obj_style_gen.h ****     lv_style_value_t v = lv_obj_get_style_prop(obj, part, LV_STYLE_IMG_RECOLOR);
 340:lvgl/src/widgets/../core/lv_obj_style_gen.h ****     return v.color;
 341:lvgl/src/widgets/../core/lv_obj_style_gen.h **** }
 342:lvgl/src/widgets/../core/lv_obj_style_gen.h **** 
 343:lvgl/src/widgets/../core/lv_obj_style_gen.h **** static inline lv_color_t lv_obj_get_style_img_recolor_filtered(const struct _lv_obj_t * obj, uint32
 344:lvgl/src/widgets/../core/lv_obj_style_gen.h **** {
 345:lvgl/src/widgets/../core/lv_obj_style_gen.h ****     lv_style_value_t v = lv_obj_get_style_prop(obj, part, LV_STYLE_IMG_RECOLOR_FILTERED);
 346:lvgl/src/widgets/../core/lv_obj_style_gen.h ****     return v.color;
 347:lvgl/src/widgets/../core/lv_obj_style_gen.h **** }
 348:lvgl/src/widgets/../core/lv_obj_style_gen.h **** 
 349:lvgl/src/widgets/../core/lv_obj_style_gen.h **** static inline lv_opa_t lv_obj_get_style_img_recolor_opa(const struct _lv_obj_t * obj, uint32_t part
 350:lvgl/src/widgets/../core/lv_obj_style_gen.h **** {
 351:lvgl/src/widgets/../core/lv_obj_style_gen.h ****     lv_style_value_t v = lv_obj_get_style_prop(obj, part, LV_STYLE_IMG_RECOLOR_OPA);
 352:lvgl/src/widgets/../core/lv_obj_style_gen.h ****     return (lv_opa_t)v.num;
 353:lvgl/src/widgets/../core/lv_obj_style_gen.h **** }
 354:lvgl/src/widgets/../core/lv_obj_style_gen.h **** 
 355:lvgl/src/widgets/../core/lv_obj_style_gen.h **** static inline lv_coord_t lv_obj_get_style_line_width(const struct _lv_obj_t * obj, uint32_t part)
 356:lvgl/src/widgets/../core/lv_obj_style_gen.h **** {
 357:lvgl/src/widgets/../core/lv_obj_style_gen.h ****     lv_style_value_t v = lv_obj_get_style_prop(obj, part, LV_STYLE_LINE_WIDTH);
 358:lvgl/src/widgets/../core/lv_obj_style_gen.h ****     return (lv_coord_t)v.num;
 359:lvgl/src/widgets/../core/lv_obj_style_gen.h **** }
 360:lvgl/src/widgets/../core/lv_obj_style_gen.h **** 
 361:lvgl/src/widgets/../core/lv_obj_style_gen.h **** static inline lv_coord_t lv_obj_get_style_line_dash_width(const struct _lv_obj_t * obj, uint32_t pa
 362:lvgl/src/widgets/../core/lv_obj_style_gen.h **** {
 363:lvgl/src/widgets/../core/lv_obj_style_gen.h ****     lv_style_value_t v = lv_obj_get_style_prop(obj, part, LV_STYLE_LINE_DASH_WIDTH);
 364:lvgl/src/widgets/../core/lv_obj_style_gen.h ****     return (lv_coord_t)v.num;
 365:lvgl/src/widgets/../core/lv_obj_style_gen.h **** }
 366:lvgl/src/widgets/../core/lv_obj_style_gen.h **** 
 367:lvgl/src/widgets/../core/lv_obj_style_gen.h **** static inline lv_coord_t lv_obj_get_style_line_dash_gap(const struct _lv_obj_t * obj, uint32_t part
 368:lvgl/src/widgets/../core/lv_obj_style_gen.h **** {
 369:lvgl/src/widgets/../core/lv_obj_style_gen.h ****     lv_style_value_t v = lv_obj_get_style_prop(obj, part, LV_STYLE_LINE_DASH_GAP);
 370:lvgl/src/widgets/../core/lv_obj_style_gen.h ****     return (lv_coord_t)v.num;
 371:lvgl/src/widgets/../core/lv_obj_style_gen.h **** }
 372:lvgl/src/widgets/../core/lv_obj_style_gen.h **** 
 373:lvgl/src/widgets/../core/lv_obj_style_gen.h **** static inline bool lv_obj_get_style_line_rounded(const struct _lv_obj_t * obj, uint32_t part)
 374:lvgl/src/widgets/../core/lv_obj_style_gen.h **** {
 375:lvgl/src/widgets/../core/lv_obj_style_gen.h ****     lv_style_value_t v = lv_obj_get_style_prop(obj, part, LV_STYLE_LINE_ROUNDED);
 376:lvgl/src/widgets/../core/lv_obj_style_gen.h ****     return (bool)v.num;
 377:lvgl/src/widgets/../core/lv_obj_style_gen.h **** }
 378:lvgl/src/widgets/../core/lv_obj_style_gen.h **** 
 379:lvgl/src/widgets/../core/lv_obj_style_gen.h **** static inline lv_color_t lv_obj_get_style_line_color(const struct _lv_obj_t * obj, uint32_t part)
 380:lvgl/src/widgets/../core/lv_obj_style_gen.h **** {
 381:lvgl/src/widgets/../core/lv_obj_style_gen.h ****     lv_style_value_t v = lv_obj_get_style_prop(obj, part, LV_STYLE_LINE_COLOR);
 382:lvgl/src/widgets/../core/lv_obj_style_gen.h ****     return v.color;
 383:lvgl/src/widgets/../core/lv_obj_style_gen.h **** }
 384:lvgl/src/widgets/../core/lv_obj_style_gen.h **** 
 385:lvgl/src/widgets/../core/lv_obj_style_gen.h **** static inline lv_color_t lv_obj_get_style_line_color_filtered(const struct _lv_obj_t * obj, uint32_
 386:lvgl/src/widgets/../core/lv_obj_style_gen.h **** {
 387:lvgl/src/widgets/../core/lv_obj_style_gen.h ****     lv_style_value_t v = lv_obj_get_style_prop(obj, part, LV_STYLE_LINE_COLOR_FILTERED);
 388:lvgl/src/widgets/../core/lv_obj_style_gen.h ****     return v.color;
ARM GAS  C:\usertemp\ccJd89Xr.s 			page 34


 389:lvgl/src/widgets/../core/lv_obj_style_gen.h **** }
 390:lvgl/src/widgets/../core/lv_obj_style_gen.h **** 
 391:lvgl/src/widgets/../core/lv_obj_style_gen.h **** static inline lv_opa_t lv_obj_get_style_line_opa(const struct _lv_obj_t * obj, uint32_t part)
 392:lvgl/src/widgets/../core/lv_obj_style_gen.h **** {
 393:lvgl/src/widgets/../core/lv_obj_style_gen.h ****     lv_style_value_t v = lv_obj_get_style_prop(obj, part, LV_STYLE_LINE_OPA);
 394:lvgl/src/widgets/../core/lv_obj_style_gen.h ****     return (lv_opa_t)v.num;
 395:lvgl/src/widgets/../core/lv_obj_style_gen.h **** }
 396:lvgl/src/widgets/../core/lv_obj_style_gen.h **** 
 397:lvgl/src/widgets/../core/lv_obj_style_gen.h **** static inline lv_coord_t lv_obj_get_style_arc_width(const struct _lv_obj_t * obj, uint32_t part)
 398:lvgl/src/widgets/../core/lv_obj_style_gen.h **** {
 399:lvgl/src/widgets/../core/lv_obj_style_gen.h ****     lv_style_value_t v = lv_obj_get_style_prop(obj, part, LV_STYLE_ARC_WIDTH);
 400:lvgl/src/widgets/../core/lv_obj_style_gen.h ****     return (lv_coord_t)v.num;
 401:lvgl/src/widgets/../core/lv_obj_style_gen.h **** }
 402:lvgl/src/widgets/../core/lv_obj_style_gen.h **** 
 403:lvgl/src/widgets/../core/lv_obj_style_gen.h **** static inline bool lv_obj_get_style_arc_rounded(const struct _lv_obj_t * obj, uint32_t part)
 404:lvgl/src/widgets/../core/lv_obj_style_gen.h **** {
 405:lvgl/src/widgets/../core/lv_obj_style_gen.h ****     lv_style_value_t v = lv_obj_get_style_prop(obj, part, LV_STYLE_ARC_ROUNDED);
 406:lvgl/src/widgets/../core/lv_obj_style_gen.h ****     return (bool)v.num;
 407:lvgl/src/widgets/../core/lv_obj_style_gen.h **** }
 408:lvgl/src/widgets/../core/lv_obj_style_gen.h **** 
 409:lvgl/src/widgets/../core/lv_obj_style_gen.h **** static inline lv_color_t lv_obj_get_style_arc_color(const struct _lv_obj_t * obj, uint32_t part)
 410:lvgl/src/widgets/../core/lv_obj_style_gen.h **** {
 411:lvgl/src/widgets/../core/lv_obj_style_gen.h ****     lv_style_value_t v = lv_obj_get_style_prop(obj, part, LV_STYLE_ARC_COLOR);
 412:lvgl/src/widgets/../core/lv_obj_style_gen.h ****     return v.color;
 413:lvgl/src/widgets/../core/lv_obj_style_gen.h **** }
 414:lvgl/src/widgets/../core/lv_obj_style_gen.h **** 
 415:lvgl/src/widgets/../core/lv_obj_style_gen.h **** static inline lv_color_t lv_obj_get_style_arc_color_filtered(const struct _lv_obj_t * obj, uint32_t
 416:lvgl/src/widgets/../core/lv_obj_style_gen.h **** {
 417:lvgl/src/widgets/../core/lv_obj_style_gen.h ****     lv_style_value_t v = lv_obj_get_style_prop(obj, part, LV_STYLE_ARC_COLOR_FILTERED);
 418:lvgl/src/widgets/../core/lv_obj_style_gen.h ****     return v.color;
 419:lvgl/src/widgets/../core/lv_obj_style_gen.h **** }
 420:lvgl/src/widgets/../core/lv_obj_style_gen.h **** 
 421:lvgl/src/widgets/../core/lv_obj_style_gen.h **** static inline lv_opa_t lv_obj_get_style_arc_opa(const struct _lv_obj_t * obj, uint32_t part)
 422:lvgl/src/widgets/../core/lv_obj_style_gen.h **** {
 423:lvgl/src/widgets/../core/lv_obj_style_gen.h ****     lv_style_value_t v = lv_obj_get_style_prop(obj, part, LV_STYLE_ARC_OPA);
 424:lvgl/src/widgets/../core/lv_obj_style_gen.h ****     return (lv_opa_t)v.num;
 425:lvgl/src/widgets/../core/lv_obj_style_gen.h **** }
 426:lvgl/src/widgets/../core/lv_obj_style_gen.h **** 
 427:lvgl/src/widgets/../core/lv_obj_style_gen.h **** static inline const void * lv_obj_get_style_arc_img_src(const struct _lv_obj_t * obj, uint32_t part
 428:lvgl/src/widgets/../core/lv_obj_style_gen.h **** {
 429:lvgl/src/widgets/../core/lv_obj_style_gen.h ****     lv_style_value_t v = lv_obj_get_style_prop(obj, part, LV_STYLE_ARC_IMG_SRC);
 430:lvgl/src/widgets/../core/lv_obj_style_gen.h ****     return (const void *)v.ptr;
 431:lvgl/src/widgets/../core/lv_obj_style_gen.h **** }
 432:lvgl/src/widgets/../core/lv_obj_style_gen.h **** 
 433:lvgl/src/widgets/../core/lv_obj_style_gen.h **** static inline lv_color_t lv_obj_get_style_text_color(const struct _lv_obj_t * obj, uint32_t part)
 434:lvgl/src/widgets/../core/lv_obj_style_gen.h **** {
 435:lvgl/src/widgets/../core/lv_obj_style_gen.h ****     lv_style_value_t v = lv_obj_get_style_prop(obj, part, LV_STYLE_TEXT_COLOR);
 436:lvgl/src/widgets/../core/lv_obj_style_gen.h ****     return v.color;
 437:lvgl/src/widgets/../core/lv_obj_style_gen.h **** }
 438:lvgl/src/widgets/../core/lv_obj_style_gen.h **** 
 439:lvgl/src/widgets/../core/lv_obj_style_gen.h **** static inline lv_color_t lv_obj_get_style_text_color_filtered(const struct _lv_obj_t * obj, uint32_
 440:lvgl/src/widgets/../core/lv_obj_style_gen.h **** {
 441:lvgl/src/widgets/../core/lv_obj_style_gen.h ****     lv_style_value_t v = lv_obj_get_style_prop(obj, part, LV_STYLE_TEXT_COLOR_FILTERED);
 442:lvgl/src/widgets/../core/lv_obj_style_gen.h ****     return v.color;
 443:lvgl/src/widgets/../core/lv_obj_style_gen.h **** }
 444:lvgl/src/widgets/../core/lv_obj_style_gen.h **** 
 445:lvgl/src/widgets/../core/lv_obj_style_gen.h **** static inline lv_opa_t lv_obj_get_style_text_opa(const struct _lv_obj_t * obj, uint32_t part)
ARM GAS  C:\usertemp\ccJd89Xr.s 			page 35


 446:lvgl/src/widgets/../core/lv_obj_style_gen.h **** {
 447:lvgl/src/widgets/../core/lv_obj_style_gen.h ****     lv_style_value_t v = lv_obj_get_style_prop(obj, part, LV_STYLE_TEXT_OPA);
 448:lvgl/src/widgets/../core/lv_obj_style_gen.h ****     return (lv_opa_t)v.num;
 449:lvgl/src/widgets/../core/lv_obj_style_gen.h **** }
 450:lvgl/src/widgets/../core/lv_obj_style_gen.h **** 
 451:lvgl/src/widgets/../core/lv_obj_style_gen.h **** static inline const lv_font_t * lv_obj_get_style_text_font(const struct _lv_obj_t * obj, uint32_t p
 452:lvgl/src/widgets/../core/lv_obj_style_gen.h **** {
 453:lvgl/src/widgets/../core/lv_obj_style_gen.h ****     lv_style_value_t v = lv_obj_get_style_prop(obj, part, LV_STYLE_TEXT_FONT);
 454:lvgl/src/widgets/../core/lv_obj_style_gen.h ****     return (const lv_font_t *)v.ptr;
 455:lvgl/src/widgets/../core/lv_obj_style_gen.h **** }
 456:lvgl/src/widgets/../core/lv_obj_style_gen.h **** 
 457:lvgl/src/widgets/../core/lv_obj_style_gen.h **** static inline lv_coord_t lv_obj_get_style_text_letter_space(const struct _lv_obj_t * obj, uint32_t 
 442              		.loc 3 457 26 view .LVU139
 443              	.LBB104:
 458:lvgl/src/widgets/../core/lv_obj_style_gen.h **** {
 459:lvgl/src/widgets/../core/lv_obj_style_gen.h ****     lv_style_value_t v = lv_obj_get_style_prop(obj, part, LV_STYLE_TEXT_LETTER_SPACE);
 444              		.loc 3 459 5 view .LVU140
 445              		.loc 3 459 26 is_stmt 0 view .LVU141
 446 0050 41F25A42 		movw	r2, #5210
 447 0054 4FF4A021 		mov	r1, #327680
 448 0058 2846     		mov	r0, r5
 449 005a FFF7FEFF 		bl	lv_obj_get_style_prop
 450              	.LVL49:
 460:lvgl/src/widgets/../core/lv_obj_style_gen.h ****     return (lv_coord_t)v.num;
 451              		.loc 3 460 5 is_stmt 1 view .LVU142
 452              		.loc 3 460 12 is_stmt 0 view .LVU143
 453 005e 03B2     		sxth	r3, r0
 454 0060 0893     		str	r3, [sp, #32]
 455              	.LVL50:
 456              		.loc 3 460 12 view .LVU144
 457              	.LBE104:
 458              	.LBE103:
 796:lvgl/src/widgets/lv_table.c ****     const lv_font_t * font = lv_obj_get_style_text_font(obj, LV_PART_ITEMS);
 459              		.loc 1 796 5 is_stmt 1 view .LVU145
 460              	.LBB105:
 461              	.LBI105:
 461:lvgl/src/widgets/../core/lv_obj_style_gen.h **** }
 462:lvgl/src/widgets/../core/lv_obj_style_gen.h **** 
 463:lvgl/src/widgets/../core/lv_obj_style_gen.h **** static inline lv_coord_t lv_obj_get_style_text_line_space(const struct _lv_obj_t * obj, uint32_t pa
 462              		.loc 3 463 26 view .LVU146
 463              	.LBB106:
 464:lvgl/src/widgets/../core/lv_obj_style_gen.h **** {
 465:lvgl/src/widgets/../core/lv_obj_style_gen.h ****     lv_style_value_t v = lv_obj_get_style_prop(obj, part, LV_STYLE_TEXT_LINE_SPACE);
 464              		.loc 3 465 5 view .LVU147
 465              		.loc 3 465 26 is_stmt 0 view .LVU148
 466 0062 41F25B42 		movw	r2, #5211
 467 0066 4FF4A021 		mov	r1, #327680
 468 006a 2846     		mov	r0, r5
 469 006c FFF7FEFF 		bl	lv_obj_get_style_prop
 470              	.LVL51:
 466:lvgl/src/widgets/../core/lv_obj_style_gen.h ****     return (lv_coord_t)v.num;
 471              		.loc 3 466 5 is_stmt 1 view .LVU149
 472              		.loc 3 466 12 is_stmt 0 view .LVU150
 473 0070 03B2     		sxth	r3, r0
 474 0072 0793     		str	r3, [sp, #28]
 475              	.LVL52:
 476              		.loc 3 466 12 view .LVU151
ARM GAS  C:\usertemp\ccJd89Xr.s 			page 36


 477              	.LBE106:
 478              	.LBE105:
 797:lvgl/src/widgets/lv_table.c **** 
 479              		.loc 1 797 5 is_stmt 1 view .LVU152
 480              	.LBB107:
 481              	.LBI107:
 451:lvgl/src/widgets/../core/lv_obj_style_gen.h **** {
 482              		.loc 3 451 33 view .LVU153
 483              	.LBB108:
 453:lvgl/src/widgets/../core/lv_obj_style_gen.h ****     return (const lv_font_t *)v.ptr;
 484              		.loc 3 453 5 view .LVU154
 453:lvgl/src/widgets/../core/lv_obj_style_gen.h ****     return (const lv_font_t *)v.ptr;
 485              		.loc 3 453 26 is_stmt 0 view .LVU155
 486 0074 41F25942 		movw	r2, #5209
 487 0078 4FF4A021 		mov	r1, #327680
 488 007c 2846     		mov	r0, r5
 489 007e FFF7FEFF 		bl	lv_obj_get_style_prop
 490              	.LVL53:
 491 0082 0690     		str	r0, [sp, #24]
 454:lvgl/src/widgets/../core/lv_obj_style_gen.h **** }
 492              		.loc 3 454 5 is_stmt 1 view .LVU156
 493              	.LVL54:
 454:lvgl/src/widgets/../core/lv_obj_style_gen.h **** }
 494              		.loc 3 454 5 is_stmt 0 view .LVU157
 495              	.LBE108:
 496              	.LBE107:
 799:lvgl/src/widgets/lv_table.c ****     lv_coord_t maxh = lv_obj_get_style_max_height(obj, LV_PART_ITEMS);
 497              		.loc 1 799 5 is_stmt 1 view .LVU158
 498              	.LBB109:
 499              	.LBI109:
  25:lvgl/src/widgets/../core/lv_obj_style_gen.h **** {
 500              		.loc 3 25 26 view .LVU159
 501              	.LBB110:
  27:lvgl/src/widgets/../core/lv_obj_style_gen.h ****     return (lv_coord_t)v.num;
 502              		.loc 3 27 5 view .LVU160
  27:lvgl/src/widgets/../core/lv_obj_style_gen.h ****     return (lv_coord_t)v.num;
 503              		.loc 3 27 26 is_stmt 0 view .LVU161
 504 0084 41F20502 		movw	r2, #4101
 505 0088 4FF4A021 		mov	r1, #327680
 506 008c 2846     		mov	r0, r5
 507              	.LVL55:
  27:lvgl/src/widgets/../core/lv_obj_style_gen.h ****     return (lv_coord_t)v.num;
 508              		.loc 3 27 26 view .LVU162
 509 008e FFF7FEFF 		bl	lv_obj_get_style_prop
 510              	.LVL56:
  28:lvgl/src/widgets/../core/lv_obj_style_gen.h **** }
 511              		.loc 3 28 5 is_stmt 1 view .LVU163
  28:lvgl/src/widgets/../core/lv_obj_style_gen.h **** }
 512              		.loc 3 28 12 is_stmt 0 view .LVU164
 513 0092 0FFA80F8 		sxth	r8, r0
 514              	.LVL57:
  28:lvgl/src/widgets/../core/lv_obj_style_gen.h **** }
 515              		.loc 3 28 12 view .LVU165
 516              	.LBE110:
 517              	.LBE109:
 800:lvgl/src/widgets/lv_table.c **** 
 518              		.loc 1 800 5 is_stmt 1 view .LVU166
ARM GAS  C:\usertemp\ccJd89Xr.s 			page 37


 519              	.LBB111:
 520              	.LBI111:
  31:lvgl/src/widgets/../core/lv_obj_style_gen.h **** {
 521              		.loc 3 31 26 view .LVU167
 522              	.LBB112:
  33:lvgl/src/widgets/../core/lv_obj_style_gen.h ****     return (lv_coord_t)v.num;
 523              		.loc 3 33 5 view .LVU168
  33:lvgl/src/widgets/../core/lv_obj_style_gen.h ****     return (lv_coord_t)v.num;
 524              		.loc 3 33 26 is_stmt 0 view .LVU169
 525 0096 41F20602 		movw	r2, #4102
 526 009a 4FF4A021 		mov	r1, #327680
 527 009e 2846     		mov	r0, r5
 528 00a0 FFF7FEFF 		bl	lv_obj_get_style_prop
 529              	.LVL58:
  34:lvgl/src/widgets/../core/lv_obj_style_gen.h **** }
 530              		.loc 3 34 5 is_stmt 1 view .LVU170
  34:lvgl/src/widgets/../core/lv_obj_style_gen.h **** }
 531              		.loc 3 34 12 is_stmt 0 view .LVU171
 532 00a4 07B2     		sxth	r7, r0
 533              	.LVL59:
  34:lvgl/src/widgets/../core/lv_obj_style_gen.h **** }
 534              		.loc 3 34 12 view .LVU172
 535              	.LBE112:
 536              	.LBE111:
 802:lvgl/src/widgets/lv_table.c ****         table->row_h[i] = get_row_height(obj, i, font, letter_space, line_space,
 537              		.loc 1 802 5 is_stmt 1 view .LVU173
 802:lvgl/src/widgets/lv_table.c ****         table->row_h[i] = get_row_height(obj, i, font, letter_space, line_space,
 538              		.loc 1 802 5 is_stmt 0 view .LVU174
 539 00a6 1EE0     		b	.L12
 540              	.LVL60:
 541              	.L13:
 803:lvgl/src/widgets/lv_table.c ****                                          cell_left, cell_right, cell_top, cell_bottom);
 542              		.loc 1 803 9 is_stmt 1 view .LVU175
 803:lvgl/src/widgets/lv_table.c ****                                          cell_left, cell_right, cell_top, cell_bottom);
 543              		.loc 1 803 14 is_stmt 0 view .LVU176
 544 00a8 EE6A     		ldr	r6, [r5, #44]
 803:lvgl/src/widgets/lv_table.c ****                                          cell_left, cell_right, cell_top, cell_bottom);
 545              		.loc 1 803 27 view .LVU177
 546 00aa 099B     		ldr	r3, [sp, #36]
 547 00ac 0493     		str	r3, [sp, #16]
 548 00ae CDF80C90 		str	r9, [sp, #12]
 549 00b2 CDF808A0 		str	r10, [sp, #8]
 550 00b6 CDF804B0 		str	fp, [sp, #4]
 551 00ba 079B     		ldr	r3, [sp, #28]
 552 00bc 0093     		str	r3, [sp]
 553 00be 089B     		ldr	r3, [sp, #32]
 554 00c0 069A     		ldr	r2, [sp, #24]
 555 00c2 A1B2     		uxth	r1, r4
 556 00c4 2846     		mov	r0, r5
 557 00c6 FFF7FEFF 		bl	get_row_height
 558              	.LVL61:
 803:lvgl/src/widgets/lv_table.c ****                                          cell_left, cell_right, cell_top, cell_bottom);
 559              		.loc 1 803 25 discriminator 1 view .LVU178
 560 00ca 26F81400 		strh	r0, [r6, r4, lsl #1]	@ movhi
 805:lvgl/src/widgets/lv_table.c ****     }
 561              		.loc 1 805 9 is_stmt 1 view .LVU179
 805:lvgl/src/widgets/lv_table.c ****     }
ARM GAS  C:\usertemp\ccJd89Xr.s 			page 38


 562              		.loc 1 805 27 is_stmt 0 view .LVU180
 563 00ce EA6A     		ldr	r2, [r5, #44]
 564 00d0 32F91430 		ldrsh	r3, [r2, r4, lsl #1]
 565 00d4 BB42     		cmp	r3, r7
 566 00d6 A8BF     		it	ge
 567 00d8 3B46     		movge	r3, r7
 568 00da 4345     		cmp	r3, r8
 569 00dc B8BF     		it	lt
 570 00de 4346     		movlt	r3, r8
 805:lvgl/src/widgets/lv_table.c ****     }
 571              		.loc 1 805 25 view .LVU181
 572 00e0 22F81430 		strh	r3, [r2, r4, lsl #1]	@ movhi
 802:lvgl/src/widgets/lv_table.c ****         table->row_h[i] = get_row_height(obj, i, font, letter_space, line_space,
 573              		.loc 1 802 45 is_stmt 1 discriminator 3 view .LVU182
 574 00e4 0134     		adds	r4, r4, #1
 575              	.LVL62:
 576              	.L12:
 802:lvgl/src/widgets/lv_table.c ****         table->row_h[i] = get_row_height(obj, i, font, letter_space, line_space,
 577              		.loc 1 802 26 discriminator 1 view .LVU183
 802:lvgl/src/widgets/lv_table.c ****         table->row_h[i] = get_row_height(obj, i, font, letter_space, line_space,
 578              		.loc 1 802 33 is_stmt 0 discriminator 1 view .LVU184
 579 00e6 EB8C     		ldrh	r3, [r5, #38]
 802:lvgl/src/widgets/lv_table.c ****         table->row_h[i] = get_row_height(obj, i, font, letter_space, line_space,
 580              		.loc 1 802 26 discriminator 1 view .LVU185
 581 00e8 A342     		cmp	r3, r4
 582 00ea DDD8     		bhi	.L13
 808:lvgl/src/widgets/lv_table.c **** }
 583              		.loc 1 808 5 is_stmt 1 view .LVU186
 584 00ec 2846     		mov	r0, r5
 585 00ee FFF7FEFF 		bl	lv_obj_refresh_self_size
 586              	.LVL63:
 809:lvgl/src/widgets/lv_table.c **** 
 587              		.loc 1 809 1 is_stmt 0 view .LVU187
 588 00f2 0BB0     		add	sp, sp, #44
 589              	.LCFI5:
 590              		.cfi_def_cfa_offset 36
 591              		@ sp needed
 592 00f4 BDE8F08F 		pop	{r4, r5, r6, r7, r8, r9, r10, fp, pc}
 809:lvgl/src/widgets/lv_table.c **** 
 593              		.loc 1 809 1 view .LVU188
 594              		.cfi_endproc
 595              	.LFE174:
 597              		.section	.text.get_pressed_cell,"ax",%progbits
 598              		.align	1
 599              		.syntax unified
 600              		.thumb
 601              		.thumb_func
 603              	get_pressed_cell:
 604              	.LVL64:
 605              	.LFB176:
 868:lvgl/src/widgets/lv_table.c **** 
 869:lvgl/src/widgets/lv_table.c **** static lv_res_t get_pressed_cell(lv_obj_t * obj, uint16_t * row, uint16_t * col)
 870:lvgl/src/widgets/lv_table.c **** {
 606              		.loc 1 870 1 is_stmt 1 view -0
 607              		.cfi_startproc
 608              		@ args = 0, pretend = 0, frame = 8
 609              		@ frame_needed = 0, uses_anonymous_args = 0
ARM GAS  C:\usertemp\ccJd89Xr.s 			page 39


 610              		.loc 1 870 1 is_stmt 0 view .LVU190
 611 0000 2DE9F041 		push	{r4, r5, r6, r7, r8, lr}
 612              	.LCFI6:
 613              		.cfi_def_cfa_offset 24
 614              		.cfi_offset 4, -24
 615              		.cfi_offset 5, -20
 616              		.cfi_offset 6, -16
 617              		.cfi_offset 7, -12
 618              		.cfi_offset 8, -8
 619              		.cfi_offset 14, -4
 620 0004 82B0     		sub	sp, sp, #8
 621              	.LCFI7:
 622              		.cfi_def_cfa_offset 32
 623 0006 0446     		mov	r4, r0
 624 0008 0D46     		mov	r5, r1
 625 000a 1646     		mov	r6, r2
 871:lvgl/src/widgets/lv_table.c ****     lv_table_t * table = (lv_table_t *)obj;
 626              		.loc 1 871 5 is_stmt 1 view .LVU191
 627              	.LVL65:
 872:lvgl/src/widgets/lv_table.c **** 
 873:lvgl/src/widgets/lv_table.c ****     lv_indev_type_t type = lv_indev_get_type(lv_indev_get_act());
 628              		.loc 1 873 5 view .LVU192
 629              		.loc 1 873 46 is_stmt 0 view .LVU193
 630 000c FFF7FEFF 		bl	lv_indev_get_act
 631              	.LVL66:
 632              		.loc 1 873 28 discriminator 1 view .LVU194
 633 0010 FFF7FEFF 		bl	lv_indev_get_type
 634              	.LVL67:
 874:lvgl/src/widgets/lv_table.c ****     if(type != LV_INDEV_TYPE_POINTER && type != LV_INDEV_TYPE_BUTTON) {
 635              		.loc 1 874 5 is_stmt 1 view .LVU195
 636              		.loc 1 874 7 is_stmt 0 view .LVU196
 637 0014 0128     		cmp	r0, #1
 638 0016 18BF     		it	ne
 639 0018 0328     		cmpne	r0, #3
 640 001a 0BD0     		beq	.L16
 875:lvgl/src/widgets/lv_table.c ****         if(col) *col = LV_TABLE_CELL_NONE;
 641              		.loc 1 875 9 is_stmt 1 view .LVU197
 642              		.loc 1 875 11 is_stmt 0 view .LVU198
 643 001c 16B1     		cbz	r6, .L17
 644              		.loc 1 875 17 is_stmt 1 discriminator 1 view .LVU199
 645              		.loc 1 875 22 is_stmt 0 discriminator 1 view .LVU200
 646 001e 4FF6FF73 		movw	r3, #65535
 647 0022 3380     		strh	r3, [r6]	@ movhi
 648              	.L17:
 876:lvgl/src/widgets/lv_table.c ****         if(row) *row = LV_TABLE_CELL_NONE;
 649              		.loc 1 876 9 is_stmt 1 view .LVU201
 650              		.loc 1 876 11 is_stmt 0 view .LVU202
 651 0024 15B1     		cbz	r5, .L18
 652              		.loc 1 876 17 is_stmt 1 discriminator 1 view .LVU203
 653              		.loc 1 876 22 is_stmt 0 discriminator 1 view .LVU204
 654 0026 4FF6FF73 		movw	r3, #65535
 655 002a 2B80     		strh	r3, [r5]	@ movhi
 656              	.L18:
 877:lvgl/src/widgets/lv_table.c ****         return LV_RES_INV;
 657              		.loc 1 877 9 is_stmt 1 view .LVU205
 658              		.loc 1 877 16 is_stmt 0 view .LVU206
 659 002c 0020     		movs	r0, #0
ARM GAS  C:\usertemp\ccJd89Xr.s 			page 40


 660              	.LVL68:
 661              	.L19:
 878:lvgl/src/widgets/lv_table.c ****     }
 879:lvgl/src/widgets/lv_table.c **** 
 880:lvgl/src/widgets/lv_table.c ****     lv_point_t p;
 881:lvgl/src/widgets/lv_table.c ****     lv_indev_get_point(lv_indev_get_act(), &p);
 882:lvgl/src/widgets/lv_table.c **** 
 883:lvgl/src/widgets/lv_table.c ****     lv_coord_t tmp;
 884:lvgl/src/widgets/lv_table.c ****     if(col) {
 885:lvgl/src/widgets/lv_table.c ****         lv_coord_t x = p.x + lv_obj_get_scroll_x(obj);
 886:lvgl/src/widgets/lv_table.c **** 
 887:lvgl/src/widgets/lv_table.c ****         if(lv_obj_get_style_base_dir(obj, LV_PART_MAIN) == LV_BASE_DIR_RTL) {
 888:lvgl/src/widgets/lv_table.c ****             x = obj->coords.x2 - lv_obj_get_style_pad_right(obj, LV_PART_MAIN) - x;
 889:lvgl/src/widgets/lv_table.c ****         }
 890:lvgl/src/widgets/lv_table.c ****         else {
 891:lvgl/src/widgets/lv_table.c ****             x -= obj->coords.x1;
 892:lvgl/src/widgets/lv_table.c ****             x -= lv_obj_get_style_pad_left(obj, LV_PART_MAIN);
 893:lvgl/src/widgets/lv_table.c ****         }
 894:lvgl/src/widgets/lv_table.c **** 
 895:lvgl/src/widgets/lv_table.c ****         *col = 0;
 896:lvgl/src/widgets/lv_table.c ****         tmp = 0;
 897:lvgl/src/widgets/lv_table.c ****         for(*col = 0; *col < table->col_cnt; (*col)++) {
 898:lvgl/src/widgets/lv_table.c ****             tmp += table->col_w[*col];
 899:lvgl/src/widgets/lv_table.c ****             if(x < tmp) break;
 900:lvgl/src/widgets/lv_table.c ****         }
 901:lvgl/src/widgets/lv_table.c ****     }
 902:lvgl/src/widgets/lv_table.c **** 
 903:lvgl/src/widgets/lv_table.c ****     if(row) {
 904:lvgl/src/widgets/lv_table.c ****         lv_coord_t y = p.y + lv_obj_get_scroll_y(obj);;
 905:lvgl/src/widgets/lv_table.c ****         y -= obj->coords.y1;
 906:lvgl/src/widgets/lv_table.c ****         y -= lv_obj_get_style_pad_top(obj, LV_PART_MAIN);
 907:lvgl/src/widgets/lv_table.c **** 
 908:lvgl/src/widgets/lv_table.c ****         *row = 0;
 909:lvgl/src/widgets/lv_table.c ****         tmp = 0;
 910:lvgl/src/widgets/lv_table.c **** 
 911:lvgl/src/widgets/lv_table.c ****         for(*row = 0; *row < table->row_cnt; (*row)++) {
 912:lvgl/src/widgets/lv_table.c ****             tmp += table->row_h[*row];
 913:lvgl/src/widgets/lv_table.c ****             if(y < tmp) break;
 914:lvgl/src/widgets/lv_table.c ****         }
 915:lvgl/src/widgets/lv_table.c ****     }
 916:lvgl/src/widgets/lv_table.c **** 
 917:lvgl/src/widgets/lv_table.c ****     return LV_RES_OK;
 918:lvgl/src/widgets/lv_table.c **** }
 662              		.loc 1 918 1 view .LVU207
 663 002e 02B0     		add	sp, sp, #8
 664              	.LCFI8:
 665              		.cfi_remember_state
 666              		.cfi_def_cfa_offset 24
 667              		@ sp needed
 668 0030 BDE8F081 		pop	{r4, r5, r6, r7, r8, pc}
 669              	.LVL69:
 670              	.L16:
 671              	.LCFI9:
 672              		.cfi_restore_state
 880:lvgl/src/widgets/lv_table.c ****     lv_indev_get_point(lv_indev_get_act(), &p);
 673              		.loc 1 880 5 is_stmt 1 view .LVU208
 881:lvgl/src/widgets/lv_table.c **** 
ARM GAS  C:\usertemp\ccJd89Xr.s 			page 41


 674              		.loc 1 881 5 view .LVU209
 881:lvgl/src/widgets/lv_table.c **** 
 675              		.loc 1 881 24 is_stmt 0 view .LVU210
 676 0034 FFF7FEFF 		bl	lv_indev_get_act
 677              	.LVL70:
 881:lvgl/src/widgets/lv_table.c **** 
 678              		.loc 1 881 5 discriminator 1 view .LVU211
 679 0038 01A9     		add	r1, sp, #4
 680 003a FFF7FEFF 		bl	lv_indev_get_point
 681              	.LVL71:
 883:lvgl/src/widgets/lv_table.c ****     if(col) {
 682              		.loc 1 883 5 is_stmt 1 view .LVU212
 884:lvgl/src/widgets/lv_table.c ****         lv_coord_t x = p.x + lv_obj_get_scroll_x(obj);
 683              		.loc 1 884 5 view .LVU213
 884:lvgl/src/widgets/lv_table.c ****         lv_coord_t x = p.x + lv_obj_get_scroll_x(obj);
 684              		.loc 1 884 7 is_stmt 0 view .LVU214
 685 003e 002E     		cmp	r6, #0
 686 0040 3BD0     		beq	.L20
 687              	.LBB113:
 885:lvgl/src/widgets/lv_table.c **** 
 688              		.loc 1 885 9 is_stmt 1 view .LVU215
 885:lvgl/src/widgets/lv_table.c **** 
 689              		.loc 1 885 25 is_stmt 0 view .LVU216
 690 0042 BDF80470 		ldrh	r7, [sp, #4]
 885:lvgl/src/widgets/lv_table.c **** 
 691              		.loc 1 885 30 view .LVU217
 692 0046 2046     		mov	r0, r4
 693 0048 FFF7FEFF 		bl	lv_obj_get_scroll_x
 694              	.LVL72:
 885:lvgl/src/widgets/lv_table.c **** 
 695              		.loc 1 885 28 discriminator 1 view .LVU218
 696 004c 17FA80F7 		uxtah	r7, r7, r0
 697 0050 BFB2     		uxth	r7, r7
 698              	.LVL73:
 887:lvgl/src/widgets/lv_table.c ****             x = obj->coords.x2 - lv_obj_get_style_pad_right(obj, LV_PART_MAIN) - x;
 699              		.loc 1 887 9 is_stmt 1 view .LVU219
 700              	.LBB114:
 701              	.LBI114:
 467:lvgl/src/widgets/../core/lv_obj_style_gen.h **** }
 468:lvgl/src/widgets/../core/lv_obj_style_gen.h **** 
 469:lvgl/src/widgets/../core/lv_obj_style_gen.h **** static inline lv_text_decor_t lv_obj_get_style_text_decor(const struct _lv_obj_t * obj, uint32_t pa
 470:lvgl/src/widgets/../core/lv_obj_style_gen.h **** {
 471:lvgl/src/widgets/../core/lv_obj_style_gen.h ****     lv_style_value_t v = lv_obj_get_style_prop(obj, part, LV_STYLE_TEXT_DECOR);
 472:lvgl/src/widgets/../core/lv_obj_style_gen.h ****     return (lv_text_decor_t)v.num;
 473:lvgl/src/widgets/../core/lv_obj_style_gen.h **** }
 474:lvgl/src/widgets/../core/lv_obj_style_gen.h **** 
 475:lvgl/src/widgets/../core/lv_obj_style_gen.h **** static inline lv_text_align_t lv_obj_get_style_text_align(const struct _lv_obj_t * obj, uint32_t pa
 476:lvgl/src/widgets/../core/lv_obj_style_gen.h **** {
 477:lvgl/src/widgets/../core/lv_obj_style_gen.h ****     lv_style_value_t v = lv_obj_get_style_prop(obj, part, LV_STYLE_TEXT_ALIGN);
 478:lvgl/src/widgets/../core/lv_obj_style_gen.h ****     return (lv_text_align_t)v.num;
 479:lvgl/src/widgets/../core/lv_obj_style_gen.h **** }
 480:lvgl/src/widgets/../core/lv_obj_style_gen.h **** 
 481:lvgl/src/widgets/../core/lv_obj_style_gen.h **** static inline lv_coord_t lv_obj_get_style_radius(const struct _lv_obj_t * obj, uint32_t part)
 482:lvgl/src/widgets/../core/lv_obj_style_gen.h **** {
 483:lvgl/src/widgets/../core/lv_obj_style_gen.h ****     lv_style_value_t v = lv_obj_get_style_prop(obj, part, LV_STYLE_RADIUS);
 484:lvgl/src/widgets/../core/lv_obj_style_gen.h ****     return (lv_coord_t)v.num;
 485:lvgl/src/widgets/../core/lv_obj_style_gen.h **** }
ARM GAS  C:\usertemp\ccJd89Xr.s 			page 42


 486:lvgl/src/widgets/../core/lv_obj_style_gen.h **** 
 487:lvgl/src/widgets/../core/lv_obj_style_gen.h **** static inline bool lv_obj_get_style_clip_corner(const struct _lv_obj_t * obj, uint32_t part)
 488:lvgl/src/widgets/../core/lv_obj_style_gen.h **** {
 489:lvgl/src/widgets/../core/lv_obj_style_gen.h ****     lv_style_value_t v = lv_obj_get_style_prop(obj, part, LV_STYLE_CLIP_CORNER);
 490:lvgl/src/widgets/../core/lv_obj_style_gen.h ****     return (bool)v.num;
 491:lvgl/src/widgets/../core/lv_obj_style_gen.h **** }
 492:lvgl/src/widgets/../core/lv_obj_style_gen.h **** 
 493:lvgl/src/widgets/../core/lv_obj_style_gen.h **** static inline lv_opa_t lv_obj_get_style_opa(const struct _lv_obj_t * obj, uint32_t part)
 494:lvgl/src/widgets/../core/lv_obj_style_gen.h **** {
 495:lvgl/src/widgets/../core/lv_obj_style_gen.h ****     lv_style_value_t v = lv_obj_get_style_prop(obj, part, LV_STYLE_OPA);
 496:lvgl/src/widgets/../core/lv_obj_style_gen.h ****     return (lv_opa_t)v.num;
 497:lvgl/src/widgets/../core/lv_obj_style_gen.h **** }
 498:lvgl/src/widgets/../core/lv_obj_style_gen.h **** 
 499:lvgl/src/widgets/../core/lv_obj_style_gen.h **** static inline const lv_color_filter_dsc_t * lv_obj_get_style_color_filter_dsc(const struct _lv_obj_
 500:lvgl/src/widgets/../core/lv_obj_style_gen.h ****                                                                               uint32_t part)
 501:lvgl/src/widgets/../core/lv_obj_style_gen.h **** {
 502:lvgl/src/widgets/../core/lv_obj_style_gen.h ****     lv_style_value_t v = lv_obj_get_style_prop(obj, part, LV_STYLE_COLOR_FILTER_DSC);
 503:lvgl/src/widgets/../core/lv_obj_style_gen.h ****     return (const lv_color_filter_dsc_t *)v.ptr;
 504:lvgl/src/widgets/../core/lv_obj_style_gen.h **** }
 505:lvgl/src/widgets/../core/lv_obj_style_gen.h **** 
 506:lvgl/src/widgets/../core/lv_obj_style_gen.h **** static inline lv_opa_t lv_obj_get_style_color_filter_opa(const struct _lv_obj_t * obj, uint32_t par
 507:lvgl/src/widgets/../core/lv_obj_style_gen.h **** {
 508:lvgl/src/widgets/../core/lv_obj_style_gen.h ****     lv_style_value_t v = lv_obj_get_style_prop(obj, part, LV_STYLE_COLOR_FILTER_OPA);
 509:lvgl/src/widgets/../core/lv_obj_style_gen.h ****     return (lv_opa_t)v.num;
 510:lvgl/src/widgets/../core/lv_obj_style_gen.h **** }
 511:lvgl/src/widgets/../core/lv_obj_style_gen.h **** 
 512:lvgl/src/widgets/../core/lv_obj_style_gen.h **** static inline uint32_t lv_obj_get_style_anim_time(const struct _lv_obj_t * obj, uint32_t part)
 513:lvgl/src/widgets/../core/lv_obj_style_gen.h **** {
 514:lvgl/src/widgets/../core/lv_obj_style_gen.h ****     lv_style_value_t v = lv_obj_get_style_prop(obj, part, LV_STYLE_ANIM_TIME);
 515:lvgl/src/widgets/../core/lv_obj_style_gen.h ****     return (uint32_t)v.num;
 516:lvgl/src/widgets/../core/lv_obj_style_gen.h **** }
 517:lvgl/src/widgets/../core/lv_obj_style_gen.h **** 
 518:lvgl/src/widgets/../core/lv_obj_style_gen.h **** static inline uint32_t lv_obj_get_style_anim_speed(const struct _lv_obj_t * obj, uint32_t part)
 519:lvgl/src/widgets/../core/lv_obj_style_gen.h **** {
 520:lvgl/src/widgets/../core/lv_obj_style_gen.h ****     lv_style_value_t v = lv_obj_get_style_prop(obj, part, LV_STYLE_ANIM_SPEED);
 521:lvgl/src/widgets/../core/lv_obj_style_gen.h ****     return (uint32_t)v.num;
 522:lvgl/src/widgets/../core/lv_obj_style_gen.h **** }
 523:lvgl/src/widgets/../core/lv_obj_style_gen.h **** 
 524:lvgl/src/widgets/../core/lv_obj_style_gen.h **** static inline const lv_style_transition_dsc_t * lv_obj_get_style_transition(const struct _lv_obj_t 
 525:lvgl/src/widgets/../core/lv_obj_style_gen.h **** {
 526:lvgl/src/widgets/../core/lv_obj_style_gen.h ****     lv_style_value_t v = lv_obj_get_style_prop(obj, part, LV_STYLE_TRANSITION);
 527:lvgl/src/widgets/../core/lv_obj_style_gen.h ****     return (const lv_style_transition_dsc_t *)v.ptr;
 528:lvgl/src/widgets/../core/lv_obj_style_gen.h **** }
 529:lvgl/src/widgets/../core/lv_obj_style_gen.h **** 
 530:lvgl/src/widgets/../core/lv_obj_style_gen.h **** static inline lv_blend_mode_t lv_obj_get_style_blend_mode(const struct _lv_obj_t * obj, uint32_t pa
 531:lvgl/src/widgets/../core/lv_obj_style_gen.h **** {
 532:lvgl/src/widgets/../core/lv_obj_style_gen.h ****     lv_style_value_t v = lv_obj_get_style_prop(obj, part, LV_STYLE_BLEND_MODE);
 533:lvgl/src/widgets/../core/lv_obj_style_gen.h ****     return (lv_blend_mode_t)v.num;
 534:lvgl/src/widgets/../core/lv_obj_style_gen.h **** }
 535:lvgl/src/widgets/../core/lv_obj_style_gen.h **** 
 536:lvgl/src/widgets/../core/lv_obj_style_gen.h **** static inline uint16_t lv_obj_get_style_layout(const struct _lv_obj_t * obj, uint32_t part)
 537:lvgl/src/widgets/../core/lv_obj_style_gen.h **** {
 538:lvgl/src/widgets/../core/lv_obj_style_gen.h ****     lv_style_value_t v = lv_obj_get_style_prop(obj, part, LV_STYLE_LAYOUT);
 539:lvgl/src/widgets/../core/lv_obj_style_gen.h ****     return (uint16_t)v.num;
 540:lvgl/src/widgets/../core/lv_obj_style_gen.h **** }
 541:lvgl/src/widgets/../core/lv_obj_style_gen.h **** 
 542:lvgl/src/widgets/../core/lv_obj_style_gen.h **** static inline lv_base_dir_t lv_obj_get_style_base_dir(const struct _lv_obj_t * obj, uint32_t part)
ARM GAS  C:\usertemp\ccJd89Xr.s 			page 43


 702              		.loc 3 542 29 view .LVU220
 703              	.LBB115:
 543:lvgl/src/widgets/../core/lv_obj_style_gen.h **** {
 544:lvgl/src/widgets/../core/lv_obj_style_gen.h ****     lv_style_value_t v = lv_obj_get_style_prop(obj, part, LV_STYLE_BASE_DIR);
 704              		.loc 3 544 5 view .LVU221
 705              		.loc 3 544 26 is_stmt 0 view .LVU222
 706 0052 41F26A42 		movw	r2, #5226
 707 0056 0021     		movs	r1, #0
 708 0058 2046     		mov	r0, r4
 709 005a FFF7FEFF 		bl	lv_obj_get_style_prop
 710              	.LVL74:
 545:lvgl/src/widgets/../core/lv_obj_style_gen.h ****     return (lv_base_dir_t)v.num;
 711              		.loc 3 545 5 is_stmt 1 view .LVU223
 712              		.loc 3 545 12 is_stmt 0 view .LVU224
 713 005e C0B2     		uxtb	r0, r0
 714              	.LVL75:
 715              		.loc 3 545 12 view .LVU225
 716              	.LBE115:
 717              	.LBE114:
 887:lvgl/src/widgets/lv_table.c ****             x = obj->coords.x2 - lv_obj_get_style_pad_right(obj, LV_PART_MAIN) - x;
 718              		.loc 1 887 11 discriminator 1 view .LVU226
 719 0060 0128     		cmp	r0, #1
 720 0062 1BD0     		beq	.L30
 891:lvgl/src/widgets/lv_table.c ****             x -= lv_obj_get_style_pad_left(obj, LV_PART_MAIN);
 721              		.loc 1 891 13 is_stmt 1 view .LVU227
 891:lvgl/src/widgets/lv_table.c ****             x -= lv_obj_get_style_pad_left(obj, LV_PART_MAIN);
 722              		.loc 1 891 29 is_stmt 0 view .LVU228
 723 0064 A38A     		ldrh	r3, [r4, #20]
 891:lvgl/src/widgets/lv_table.c ****             x -= lv_obj_get_style_pad_left(obj, LV_PART_MAIN);
 724              		.loc 1 891 15 view .LVU229
 725 0066 FF1A     		subs	r7, r7, r3
 726              	.LVL76:
 891:lvgl/src/widgets/lv_table.c ****             x -= lv_obj_get_style_pad_left(obj, LV_PART_MAIN);
 727              		.loc 1 891 15 view .LVU230
 728 0068 BFB2     		uxth	r7, r7
 729              	.LVL77:
 892:lvgl/src/widgets/lv_table.c ****         }
 730              		.loc 1 892 13 is_stmt 1 view .LVU231
 731              	.LBB116:
 732              	.LBI116:
 103:lvgl/src/widgets/../core/lv_obj_style_gen.h **** {
 733              		.loc 3 103 26 view .LVU232
 734              	.LBB117:
 105:lvgl/src/widgets/../core/lv_obj_style_gen.h ****     return (lv_coord_t)v.num;
 735              		.loc 3 105 5 view .LVU233
 105:lvgl/src/widgets/../core/lv_obj_style_gen.h ****     return (lv_coord_t)v.num;
 736              		.loc 3 105 26 is_stmt 0 view .LVU234
 737 006a 41F61202 		movw	r2, #6162
 738 006e 0021     		movs	r1, #0
 739 0070 2046     		mov	r0, r4
 740 0072 FFF7FEFF 		bl	lv_obj_get_style_prop
 741              	.LVL78:
 106:lvgl/src/widgets/../core/lv_obj_style_gen.h **** }
 742              		.loc 3 106 5 is_stmt 1 view .LVU235
 106:lvgl/src/widgets/../core/lv_obj_style_gen.h **** }
 743              		.loc 3 106 5 is_stmt 0 view .LVU236
 744              	.LBE117:
ARM GAS  C:\usertemp\ccJd89Xr.s 			page 44


 745              	.LBE116:
 892:lvgl/src/widgets/lv_table.c ****         }
 746              		.loc 1 892 18 discriminator 1 view .LVU237
 747 0076 80B2     		uxth	r0, r0
 892:lvgl/src/widgets/lv_table.c ****         }
 748              		.loc 1 892 15 discriminator 1 view .LVU238
 749 0078 381A     		subs	r0, r7, r0
 750 007a 00B2     		sxth	r0, r0
 751              	.LVL79:
 752              	.L22:
 895:lvgl/src/widgets/lv_table.c ****         tmp = 0;
 753              		.loc 1 895 9 is_stmt 1 view .LVU239
 895:lvgl/src/widgets/lv_table.c ****         tmp = 0;
 754              		.loc 1 895 14 is_stmt 0 view .LVU240
 755 007c 0021     		movs	r1, #0
 756 007e 3180     		strh	r1, [r6]	@ movhi
 896:lvgl/src/widgets/lv_table.c ****         for(*col = 0; *col < table->col_cnt; (*col)++) {
 757              		.loc 1 896 9 is_stmt 1 view .LVU241
 758              	.LVL80:
 897:lvgl/src/widgets/lv_table.c ****             tmp += table->col_w[*col];
 759              		.loc 1 897 9 view .LVU242
 760              	.L23:
 897:lvgl/src/widgets/lv_table.c ****             tmp += table->col_w[*col];
 761              		.loc 1 897 28 discriminator 1 view .LVU243
 897:lvgl/src/widgets/lv_table.c ****             tmp += table->col_w[*col];
 762              		.loc 1 897 23 is_stmt 0 discriminator 1 view .LVU244
 763 0080 3388     		ldrh	r3, [r6]
 897:lvgl/src/widgets/lv_table.c ****             tmp += table->col_w[*col];
 764              		.loc 1 897 35 discriminator 1 view .LVU245
 765 0082 A28C     		ldrh	r2, [r4, #36]
 897:lvgl/src/widgets/lv_table.c ****             tmp += table->col_w[*col];
 766              		.loc 1 897 28 discriminator 1 view .LVU246
 767 0084 9342     		cmp	r3, r2
 768 0086 18D2     		bcs	.L20
 898:lvgl/src/widgets/lv_table.c ****             if(x < tmp) break;
 769              		.loc 1 898 13 is_stmt 1 view .LVU247
 898:lvgl/src/widgets/lv_table.c ****             if(x < tmp) break;
 770              		.loc 1 898 25 is_stmt 0 view .LVU248
 771 0088 226B     		ldr	r2, [r4, #48]
 898:lvgl/src/widgets/lv_table.c ****             if(x < tmp) break;
 772              		.loc 1 898 32 view .LVU249
 773 008a 32F81320 		ldrh	r2, [r2, r3, lsl #1]
 898:lvgl/src/widgets/lv_table.c ****             if(x < tmp) break;
 774              		.loc 1 898 17 view .LVU250
 775 008e 1144     		add	r1, r1, r2
 776              	.LVL81:
 898:lvgl/src/widgets/lv_table.c ****             if(x < tmp) break;
 777              		.loc 1 898 17 view .LVU251
 778 0090 09B2     		sxth	r1, r1
 779              	.LVL82:
 899:lvgl/src/widgets/lv_table.c ****         }
 780              		.loc 1 899 13 is_stmt 1 view .LVU252
 899:lvgl/src/widgets/lv_table.c ****         }
 781              		.loc 1 899 15 is_stmt 0 view .LVU253
 782 0092 8842     		cmp	r0, r1
 783 0094 11DB     		blt	.L20
 897:lvgl/src/widgets/lv_table.c ****             tmp += table->col_w[*col];
ARM GAS  C:\usertemp\ccJd89Xr.s 			page 45


 784              		.loc 1 897 52 is_stmt 1 discriminator 2 view .LVU254
 785 0096 0133     		adds	r3, r3, #1
 786 0098 3380     		strh	r3, [r6]	@ movhi
 787 009a F1E7     		b	.L23
 788              	.LVL83:
 789              	.L30:
 888:lvgl/src/widgets/lv_table.c ****         }
 790              		.loc 1 888 13 view .LVU255
 888:lvgl/src/widgets/lv_table.c ****         }
 791              		.loc 1 888 28 is_stmt 0 view .LVU256
 792 009c B4F81880 		ldrh	r8, [r4, #24]
 793              	.LVL84:
 794              	.LBB118:
 795              	.LBI118:
 109:lvgl/src/widgets/../core/lv_obj_style_gen.h **** {
 796              		.loc 3 109 26 is_stmt 1 view .LVU257
 797              	.LBB119:
 111:lvgl/src/widgets/../core/lv_obj_style_gen.h ****     return (lv_coord_t)v.num;
 798              		.loc 3 111 5 view .LVU258
 111:lvgl/src/widgets/../core/lv_obj_style_gen.h ****     return (lv_coord_t)v.num;
 799              		.loc 3 111 26 is_stmt 0 view .LVU259
 800 00a0 41F61302 		movw	r2, #6163
 801 00a4 0021     		movs	r1, #0
 802 00a6 2046     		mov	r0, r4
 803 00a8 FFF7FEFF 		bl	lv_obj_get_style_prop
 804              	.LVL85:
 112:lvgl/src/widgets/../core/lv_obj_style_gen.h **** }
 805              		.loc 3 112 5 is_stmt 1 view .LVU260
 112:lvgl/src/widgets/../core/lv_obj_style_gen.h **** }
 806              		.loc 3 112 5 is_stmt 0 view .LVU261
 807              	.LBE119:
 808              	.LBE118:
 888:lvgl/src/widgets/lv_table.c ****         }
 809              		.loc 1 888 34 discriminator 1 view .LVU262
 810 00ac 80B2     		uxth	r0, r0
 888:lvgl/src/widgets/lv_table.c ****         }
 811              		.loc 1 888 32 discriminator 1 view .LVU263
 812 00ae A8EB0003 		sub	r3, r8, r0
 813 00b2 9BB2     		uxth	r3, r3
 888:lvgl/src/widgets/lv_table.c ****         }
 814              		.loc 1 888 80 discriminator 1 view .LVU264
 815 00b4 DB1B     		subs	r3, r3, r7
 888:lvgl/src/widgets/lv_table.c ****         }
 816              		.loc 1 888 15 discriminator 1 view .LVU265
 817 00b6 18B2     		sxth	r0, r3
 818              	.LVL86:
 888:lvgl/src/widgets/lv_table.c ****         }
 819              		.loc 1 888 15 discriminator 1 view .LVU266
 820 00b8 E0E7     		b	.L22
 821              	.LVL87:
 822              	.L20:
 888:lvgl/src/widgets/lv_table.c ****         }
 823              		.loc 1 888 15 discriminator 1 view .LVU267
 824              	.LBE113:
 903:lvgl/src/widgets/lv_table.c ****         lv_coord_t y = p.y + lv_obj_get_scroll_y(obj);;
 825              		.loc 1 903 5 is_stmt 1 view .LVU268
 903:lvgl/src/widgets/lv_table.c ****         lv_coord_t y = p.y + lv_obj_get_scroll_y(obj);;
ARM GAS  C:\usertemp\ccJd89Xr.s 			page 46


 826              		.loc 1 903 7 is_stmt 0 view .LVU269
 827 00ba 2DB3     		cbz	r5, .L27
 828              	.LBB120:
 904:lvgl/src/widgets/lv_table.c ****         y -= obj->coords.y1;
 829              		.loc 1 904 9 is_stmt 1 view .LVU270
 904:lvgl/src/widgets/lv_table.c ****         y -= obj->coords.y1;
 830              		.loc 1 904 25 is_stmt 0 view .LVU271
 831 00bc BDF80660 		ldrh	r6, [sp, #6]
 832              	.LVL88:
 904:lvgl/src/widgets/lv_table.c ****         y -= obj->coords.y1;
 833              		.loc 1 904 30 view .LVU272
 834 00c0 2046     		mov	r0, r4
 835 00c2 FFF7FEFF 		bl	lv_obj_get_scroll_y
 836              	.LVL89:
 904:lvgl/src/widgets/lv_table.c ****         y -= obj->coords.y1;
 837              		.loc 1 904 28 discriminator 1 view .LVU273
 838 00c6 16FA80F6 		uxtah	r6, r6, r0
 839 00ca B6B2     		uxth	r6, r6
 840              	.LVL90:
 904:lvgl/src/widgets/lv_table.c ****         y -= obj->coords.y1;
 841              		.loc 1 904 55 is_stmt 1 discriminator 1 view .LVU274
 905:lvgl/src/widgets/lv_table.c ****         y -= lv_obj_get_style_pad_top(obj, LV_PART_MAIN);
 842              		.loc 1 905 9 view .LVU275
 905:lvgl/src/widgets/lv_table.c ****         y -= lv_obj_get_style_pad_top(obj, LV_PART_MAIN);
 843              		.loc 1 905 25 is_stmt 0 view .LVU276
 844 00cc E38A     		ldrh	r3, [r4, #22]
 905:lvgl/src/widgets/lv_table.c ****         y -= lv_obj_get_style_pad_top(obj, LV_PART_MAIN);
 845              		.loc 1 905 11 view .LVU277
 846 00ce F61A     		subs	r6, r6, r3
 847              	.LVL91:
 905:lvgl/src/widgets/lv_table.c ****         y -= lv_obj_get_style_pad_top(obj, LV_PART_MAIN);
 848              		.loc 1 905 11 view .LVU278
 849 00d0 B6B2     		uxth	r6, r6
 850              	.LVL92:
 906:lvgl/src/widgets/lv_table.c **** 
 851              		.loc 1 906 9 is_stmt 1 view .LVU279
 852              	.LBB121:
 853              	.LBI121:
  91:lvgl/src/widgets/../core/lv_obj_style_gen.h **** {
 854              		.loc 3 91 26 view .LVU280
 855              	.LBB122:
  93:lvgl/src/widgets/../core/lv_obj_style_gen.h ****     return (lv_coord_t)v.num;
 856              		.loc 3 93 5 view .LVU281
  93:lvgl/src/widgets/../core/lv_obj_style_gen.h ****     return (lv_coord_t)v.num;
 857              		.loc 3 93 26 is_stmt 0 view .LVU282
 858 00d2 41F61002 		movw	r2, #6160
 859 00d6 0021     		movs	r1, #0
 860 00d8 2046     		mov	r0, r4
 861 00da FFF7FEFF 		bl	lv_obj_get_style_prop
 862              	.LVL93:
  94:lvgl/src/widgets/../core/lv_obj_style_gen.h **** }
 863              		.loc 3 94 5 is_stmt 1 view .LVU283
  94:lvgl/src/widgets/../core/lv_obj_style_gen.h **** }
 864              		.loc 3 94 5 is_stmt 0 view .LVU284
 865              	.LBE122:
 866              	.LBE121:
 906:lvgl/src/widgets/lv_table.c **** 
ARM GAS  C:\usertemp\ccJd89Xr.s 			page 47


 867              		.loc 1 906 14 discriminator 1 view .LVU285
 868 00de 80B2     		uxth	r0, r0
 906:lvgl/src/widgets/lv_table.c **** 
 869              		.loc 1 906 11 discriminator 1 view .LVU286
 870 00e0 311A     		subs	r1, r6, r0
 871 00e2 09B2     		sxth	r1, r1
 872              	.LVL94:
 908:lvgl/src/widgets/lv_table.c ****         tmp = 0;
 873              		.loc 1 908 9 is_stmt 1 view .LVU287
 908:lvgl/src/widgets/lv_table.c ****         tmp = 0;
 874              		.loc 1 908 14 is_stmt 0 view .LVU288
 875 00e4 0022     		movs	r2, #0
 876 00e6 2A80     		strh	r2, [r5]	@ movhi
 909:lvgl/src/widgets/lv_table.c **** 
 877              		.loc 1 909 9 is_stmt 1 view .LVU289
 878              	.LVL95:
 911:lvgl/src/widgets/lv_table.c ****             tmp += table->row_h[*row];
 879              		.loc 1 911 9 view .LVU290
 880              	.L25:
 911:lvgl/src/widgets/lv_table.c ****             tmp += table->row_h[*row];
 881              		.loc 1 911 28 discriminator 1 view .LVU291
 911:lvgl/src/widgets/lv_table.c ****             tmp += table->row_h[*row];
 882              		.loc 1 911 23 is_stmt 0 discriminator 1 view .LVU292
 883 00e8 2B88     		ldrh	r3, [r5]
 911:lvgl/src/widgets/lv_table.c ****             tmp += table->row_h[*row];
 884              		.loc 1 911 35 discriminator 1 view .LVU293
 885 00ea E08C     		ldrh	r0, [r4, #38]
 911:lvgl/src/widgets/lv_table.c ****             tmp += table->row_h[*row];
 886              		.loc 1 911 28 discriminator 1 view .LVU294
 887 00ec 8342     		cmp	r3, r0
 888 00ee 09D2     		bcs	.L31
 912:lvgl/src/widgets/lv_table.c ****             if(y < tmp) break;
 889              		.loc 1 912 13 is_stmt 1 view .LVU295
 912:lvgl/src/widgets/lv_table.c ****             if(y < tmp) break;
 890              		.loc 1 912 25 is_stmt 0 view .LVU296
 891 00f0 E06A     		ldr	r0, [r4, #44]
 912:lvgl/src/widgets/lv_table.c ****             if(y < tmp) break;
 892              		.loc 1 912 32 view .LVU297
 893 00f2 30F81300 		ldrh	r0, [r0, r3, lsl #1]
 912:lvgl/src/widgets/lv_table.c ****             if(y < tmp) break;
 894              		.loc 1 912 17 view .LVU298
 895 00f6 0244     		add	r2, r2, r0
 896              	.LVL96:
 912:lvgl/src/widgets/lv_table.c ****             if(y < tmp) break;
 897              		.loc 1 912 17 view .LVU299
 898 00f8 12B2     		sxth	r2, r2
 899              	.LVL97:
 913:lvgl/src/widgets/lv_table.c ****         }
 900              		.loc 1 913 13 is_stmt 1 view .LVU300
 913:lvgl/src/widgets/lv_table.c ****         }
 901              		.loc 1 913 15 is_stmt 0 view .LVU301
 902 00fa 9142     		cmp	r1, r2
 903 00fc 06DB     		blt	.L28
 911:lvgl/src/widgets/lv_table.c ****             tmp += table->row_h[*row];
 904              		.loc 1 911 52 is_stmt 1 discriminator 2 view .LVU302
 905 00fe 0133     		adds	r3, r3, #1
 906 0100 2B80     		strh	r3, [r5]	@ movhi
ARM GAS  C:\usertemp\ccJd89Xr.s 			page 48


 907 0102 F1E7     		b	.L25
 908              	.L31:
 911:lvgl/src/widgets/lv_table.c ****             tmp += table->row_h[*row];
 909              		.loc 1 911 52 is_stmt 0 discriminator 2 view .LVU303
 910              	.LBE120:
 917:lvgl/src/widgets/lv_table.c **** }
 911              		.loc 1 917 12 view .LVU304
 912 0104 0120     		movs	r0, #1
 913              	.LBB123:
 914 0106 92E7     		b	.L19
 915              	.LVL98:
 916              	.L27:
 917:lvgl/src/widgets/lv_table.c **** }
 917              		.loc 1 917 12 view .LVU305
 918              	.LBE123:
 919 0108 0120     		movs	r0, #1
 920 010a 90E7     		b	.L19
 921              	.LVL99:
 922              	.L28:
 917:lvgl/src/widgets/lv_table.c **** }
 923              		.loc 1 917 12 view .LVU306
 924 010c 0120     		movs	r0, #1
 925 010e 8EE7     		b	.L19
 926              		.cfi_endproc
 927              	.LFE176:
 929              		.section	.text.draw_main,"ax",%progbits
 930              		.align	1
 931              		.syntax unified
 932              		.thumb
 933              		.thumb_func
 935              	draw_main:
 936              	.LVL100:
 937              	.LFB173:
 590:lvgl/src/widgets/lv_table.c ****     lv_obj_t * obj = lv_event_get_target(e);
 938              		.loc 1 590 1 is_stmt 1 view -0
 939              		.cfi_startproc
 940              		@ args = 0, pretend = 0, frame = 376
 941              		@ frame_needed = 0, uses_anonymous_args = 0
 590:lvgl/src/widgets/lv_table.c ****     lv_obj_t * obj = lv_event_get_target(e);
 942              		.loc 1 590 1 is_stmt 0 view .LVU308
 943 0000 2DE9F04F 		push	{r4, r5, r6, r7, r8, r9, r10, fp, lr}
 944              	.LCFI10:
 945              		.cfi_def_cfa_offset 36
 946              		.cfi_offset 4, -36
 947              		.cfi_offset 5, -32
 948              		.cfi_offset 6, -28
 949              		.cfi_offset 7, -24
 950              		.cfi_offset 8, -20
 951              		.cfi_offset 9, -16
 952              		.cfi_offset 10, -12
 953              		.cfi_offset 11, -8
 954              		.cfi_offset 14, -4
 955 0004 E3B0     		sub	sp, sp, #396
 956              	.LCFI11:
 957              		.cfi_def_cfa_offset 432
 958 0006 0446     		mov	r4, r0
 591:lvgl/src/widgets/lv_table.c ****     lv_table_t * table = (lv_table_t *)obj;
ARM GAS  C:\usertemp\ccJd89Xr.s 			page 49


 959              		.loc 1 591 5 is_stmt 1 view .LVU309
 591:lvgl/src/widgets/lv_table.c ****     lv_table_t * table = (lv_table_t *)obj;
 960              		.loc 1 591 22 is_stmt 0 view .LVU310
 961 0008 FFF7FEFF 		bl	lv_event_get_target
 962              	.LVL101:
 591:lvgl/src/widgets/lv_table.c ****     lv_table_t * table = (lv_table_t *)obj;
 963              		.loc 1 591 22 view .LVU311
 964 000c 0746     		mov	r7, r0
 965              	.LVL102:
 592:lvgl/src/widgets/lv_table.c ****     lv_draw_ctx_t * draw_ctx = lv_event_get_draw_ctx(e);
 966              		.loc 1 592 5 is_stmt 1 view .LVU312
 593:lvgl/src/widgets/lv_table.c ****     lv_area_t clip_area;
 967              		.loc 1 593 5 view .LVU313
 593:lvgl/src/widgets/lv_table.c ****     lv_area_t clip_area;
 968              		.loc 1 593 32 is_stmt 0 view .LVU314
 969 000e 2046     		mov	r0, r4
 970              	.LVL103:
 593:lvgl/src/widgets/lv_table.c ****     lv_area_t clip_area;
 971              		.loc 1 593 32 view .LVU315
 972 0010 FFF7FEFF 		bl	lv_event_get_draw_ctx
 973              	.LVL104:
 974 0014 0446     		mov	r4, r0
 975              	.LVL105:
 594:lvgl/src/widgets/lv_table.c ****     if(!_lv_area_intersect(&clip_area, &obj->coords, draw_ctx->clip_area)) return;
 976              		.loc 1 594 5 is_stmt 1 view .LVU316
 595:lvgl/src/widgets/lv_table.c **** 
 977              		.loc 1 595 5 view .LVU317
 595:lvgl/src/widgets/lv_table.c **** 
 978              		.loc 1 595 9 is_stmt 0 view .LVU318
 979 0016 8268     		ldr	r2, [r0, #8]
 980 0018 07F11401 		add	r1, r7, #20
 981 001c 60A8     		add	r0, sp, #384
 982              	.LVL106:
 595:lvgl/src/widgets/lv_table.c **** 
 983              		.loc 1 595 9 view .LVU319
 984 001e FFF7FEFF 		bl	_lv_area_intersect
 985              	.LVL107:
 595:lvgl/src/widgets/lv_table.c **** 
 986              		.loc 1 595 7 discriminator 1 view .LVU320
 987 0022 10B9     		cbnz	r0, .L76
 988              	.LVL108:
 989              	.L32:
 782:lvgl/src/widgets/lv_table.c **** 
 990              		.loc 1 782 1 view .LVU321
 991 0024 63B0     		add	sp, sp, #396
 992              	.LCFI12:
 993              		.cfi_remember_state
 994              		.cfi_def_cfa_offset 36
 995              		@ sp needed
 996 0026 BDE8F08F 		pop	{r4, r5, r6, r7, r8, r9, r10, fp, pc}
 997              	.LVL109:
 998              	.L76:
 999              	.LCFI13:
 1000              		.cfi_restore_state
 597:lvgl/src/widgets/lv_table.c ****     draw_ctx->clip_area = &clip_area;
 1001              		.loc 1 597 5 is_stmt 1 view .LVU322
 597:lvgl/src/widgets/lv_table.c ****     draw_ctx->clip_area = &clip_area;
ARM GAS  C:\usertemp\ccJd89Xr.s 			page 50


 1002              		.loc 1 597 23 is_stmt 0 view .LVU323
 1003 002a A668     		ldr	r6, [r4, #8]
 1004              	.LVL110:
 598:lvgl/src/widgets/lv_table.c **** 
 1005              		.loc 1 598 5 is_stmt 1 view .LVU324
 598:lvgl/src/widgets/lv_table.c **** 
 1006              		.loc 1 598 25 is_stmt 0 view .LVU325
 1007 002c 60AB     		add	r3, sp, #384
 1008 002e 0894     		str	r4, [sp, #32]
 1009 0030 A360     		str	r3, [r4, #8]
 600:lvgl/src/widgets/lv_table.c ****     lv_area_t cell_area;
 1010              		.loc 1 600 5 is_stmt 1 view .LVU326
 601:lvgl/src/widgets/lv_table.c ****     lv_area_t txt_area;
 1011              		.loc 1 601 5 view .LVU327
 602:lvgl/src/widgets/lv_table.c ****     lv_text_flag_t txt_flags;
 1012              		.loc 1 602 5 view .LVU328
 603:lvgl/src/widgets/lv_table.c **** 
 1013              		.loc 1 603 5 view .LVU329
 605:lvgl/src/widgets/lv_table.c ****     lv_coord_t bg_top = lv_obj_get_style_pad_top(obj, LV_PART_MAIN);
 1014              		.loc 1 605 5 view .LVU330
 1015              	.LVL111:
 1016              	.LBB124:
 1017              	.LBI124:
 241:lvgl/src/widgets/../core/lv_obj_style_gen.h **** {
 1018              		.loc 3 241 26 view .LVU331
 1019              	.LBB125:
 243:lvgl/src/widgets/../core/lv_obj_style_gen.h ****     return (lv_coord_t)v.num;
 1020              		.loc 3 243 5 view .LVU332
 243:lvgl/src/widgets/../core/lv_obj_style_gen.h ****     return (lv_coord_t)v.num;
 1021              		.loc 3 243 26 is_stmt 0 view .LVU333
 1022 0032 41F23202 		movw	r2, #4146
 1023 0036 0021     		movs	r1, #0
 1024 0038 3846     		mov	r0, r7
 1025 003a FFF7FEFF 		bl	lv_obj_get_style_prop
 1026              	.LVL112:
 1027 003e 8146     		mov	r9, r0
 1028              	.LVL113:
 244:lvgl/src/widgets/../core/lv_obj_style_gen.h **** }
 1029              		.loc 3 244 5 is_stmt 1 view .LVU334
 244:lvgl/src/widgets/../core/lv_obj_style_gen.h **** }
 1030              		.loc 3 244 5 is_stmt 0 view .LVU335
 1031              	.LBE125:
 1032              	.LBE124:
 606:lvgl/src/widgets/lv_table.c ****     lv_coord_t bg_bottom = lv_obj_get_style_pad_bottom(obj, LV_PART_MAIN);
 1033              		.loc 1 606 5 is_stmt 1 view .LVU336
 1034              	.LBB126:
 1035              	.LBI126:
  91:lvgl/src/widgets/../core/lv_obj_style_gen.h **** {
 1036              		.loc 3 91 26 view .LVU337
 1037              	.LBB127:
  93:lvgl/src/widgets/../core/lv_obj_style_gen.h ****     return (lv_coord_t)v.num;
 1038              		.loc 3 93 5 view .LVU338
  93:lvgl/src/widgets/../core/lv_obj_style_gen.h ****     return (lv_coord_t)v.num;
 1039              		.loc 3 93 26 is_stmt 0 view .LVU339
 1040 0040 41F61002 		movw	r2, #6160
 1041 0044 0021     		movs	r1, #0
 1042 0046 3846     		mov	r0, r7
ARM GAS  C:\usertemp\ccJd89Xr.s 			page 51


 1043 0048 FFF7FEFF 		bl	lv_obj_get_style_prop
 1044              	.LVL114:
 1045 004c 0446     		mov	r4, r0
 1046              	.LVL115:
  94:lvgl/src/widgets/../core/lv_obj_style_gen.h **** }
 1047              		.loc 3 94 5 is_stmt 1 view .LVU340
  94:lvgl/src/widgets/../core/lv_obj_style_gen.h **** }
 1048              		.loc 3 94 12 is_stmt 0 view .LVU341
 1049 004e 03B2     		sxth	r3, r0
 1050 0050 1193     		str	r3, [sp, #68]
 1051              	.LVL116:
  94:lvgl/src/widgets/../core/lv_obj_style_gen.h **** }
 1052              		.loc 3 94 12 view .LVU342
 1053              	.LBE127:
 1054              	.LBE126:
 607:lvgl/src/widgets/lv_table.c ****     lv_coord_t bg_left = lv_obj_get_style_pad_left(obj, LV_PART_MAIN);
 1055              		.loc 1 607 5 is_stmt 1 view .LVU343
 1056              	.LBB128:
 1057              	.LBI128:
  97:lvgl/src/widgets/../core/lv_obj_style_gen.h **** {
 1058              		.loc 3 97 26 view .LVU344
 1059              	.LBB129:
  99:lvgl/src/widgets/../core/lv_obj_style_gen.h ****     return (lv_coord_t)v.num;
 1060              		.loc 3 99 5 view .LVU345
  99:lvgl/src/widgets/../core/lv_obj_style_gen.h ****     return (lv_coord_t)v.num;
 1061              		.loc 3 99 26 is_stmt 0 view .LVU346
 1062 0052 41F61102 		movw	r2, #6161
 1063 0056 0021     		movs	r1, #0
 1064 0058 3846     		mov	r0, r7
  99:lvgl/src/widgets/../core/lv_obj_style_gen.h ****     return (lv_coord_t)v.num;
 1065              		.loc 3 99 26 view .LVU347
 1066 005a FFF7FEFF 		bl	lv_obj_get_style_prop
 1067              	.LVL117:
 100:lvgl/src/widgets/../core/lv_obj_style_gen.h **** }
 1068              		.loc 3 100 5 is_stmt 1 view .LVU348
 100:lvgl/src/widgets/../core/lv_obj_style_gen.h **** }
 1069              		.loc 3 100 12 is_stmt 0 view .LVU349
 1070 005e 03B2     		sxth	r3, r0
 1071 0060 1093     		str	r3, [sp, #64]
 1072              	.LVL118:
 100:lvgl/src/widgets/../core/lv_obj_style_gen.h **** }
 1073              		.loc 3 100 12 view .LVU350
 1074              	.LBE129:
 1075              	.LBE128:
 608:lvgl/src/widgets/lv_table.c ****     lv_coord_t bg_right = lv_obj_get_style_pad_right(obj, LV_PART_MAIN);
 1076              		.loc 1 608 5 is_stmt 1 view .LVU351
 1077              	.LBB130:
 1078              	.LBI130:
 103:lvgl/src/widgets/../core/lv_obj_style_gen.h **** {
 1079              		.loc 3 103 26 view .LVU352
 1080              	.LBB131:
 105:lvgl/src/widgets/../core/lv_obj_style_gen.h ****     return (lv_coord_t)v.num;
 1081              		.loc 3 105 5 view .LVU353
 105:lvgl/src/widgets/../core/lv_obj_style_gen.h ****     return (lv_coord_t)v.num;
 1082              		.loc 3 105 26 is_stmt 0 view .LVU354
 1083 0062 41F61202 		movw	r2, #6162
 1084 0066 0021     		movs	r1, #0
ARM GAS  C:\usertemp\ccJd89Xr.s 			page 52


 1085 0068 3846     		mov	r0, r7
 1086 006a FFF7FEFF 		bl	lv_obj_get_style_prop
 1087              	.LVL119:
 1088 006e 1590     		str	r0, [sp, #84]
 106:lvgl/src/widgets/../core/lv_obj_style_gen.h **** }
 1089              		.loc 3 106 5 is_stmt 1 view .LVU355
 106:lvgl/src/widgets/../core/lv_obj_style_gen.h **** }
 1090              		.loc 3 106 12 is_stmt 0 view .LVU356
 1091 0070 03B2     		sxth	r3, r0
 1092 0072 0F93     		str	r3, [sp, #60]
 1093              	.LVL120:
 106:lvgl/src/widgets/../core/lv_obj_style_gen.h **** }
 1094              		.loc 3 106 12 view .LVU357
 1095              	.LBE131:
 1096              	.LBE130:
 609:lvgl/src/widgets/lv_table.c **** 
 1097              		.loc 1 609 5 is_stmt 1 view .LVU358
 1098              	.LBB132:
 1099              	.LBI132:
 109:lvgl/src/widgets/../core/lv_obj_style_gen.h **** {
 1100              		.loc 3 109 26 view .LVU359
 1101              	.LBB133:
 111:lvgl/src/widgets/../core/lv_obj_style_gen.h ****     return (lv_coord_t)v.num;
 1102              		.loc 3 111 5 view .LVU360
 111:lvgl/src/widgets/../core/lv_obj_style_gen.h ****     return (lv_coord_t)v.num;
 1103              		.loc 3 111 26 is_stmt 0 view .LVU361
 1104 0074 41F61302 		movw	r2, #6163
 1105 0078 0021     		movs	r1, #0
 1106 007a 3846     		mov	r0, r7
 1107 007c FFF7FEFF 		bl	lv_obj_get_style_prop
 1108              	.LVL121:
 1109 0080 1690     		str	r0, [sp, #88]
 112:lvgl/src/widgets/../core/lv_obj_style_gen.h **** }
 1110              		.loc 3 112 5 is_stmt 1 view .LVU362
 112:lvgl/src/widgets/../core/lv_obj_style_gen.h **** }
 1111              		.loc 3 112 12 is_stmt 0 view .LVU363
 1112 0082 03B2     		sxth	r3, r0
 1113 0084 0E93     		str	r3, [sp, #56]
 1114              	.LVL122:
 112:lvgl/src/widgets/../core/lv_obj_style_gen.h **** }
 1115              		.loc 3 112 12 view .LVU364
 1116              	.LBE133:
 1117              	.LBE132:
 611:lvgl/src/widgets/lv_table.c ****     lv_coord_t cell_right = lv_obj_get_style_pad_right(obj, LV_PART_ITEMS);
 1118              		.loc 1 611 5 is_stmt 1 view .LVU365
 1119              	.LBB134:
 1120              	.LBI134:
 103:lvgl/src/widgets/../core/lv_obj_style_gen.h **** {
 1121              		.loc 3 103 26 view .LVU366
 1122              	.LBB135:
 105:lvgl/src/widgets/../core/lv_obj_style_gen.h ****     return (lv_coord_t)v.num;
 1123              		.loc 3 105 5 view .LVU367
 105:lvgl/src/widgets/../core/lv_obj_style_gen.h ****     return (lv_coord_t)v.num;
 1124              		.loc 3 105 26 is_stmt 0 view .LVU368
 1125 0086 41F61202 		movw	r2, #6162
 1126 008a 4FF4A021 		mov	r1, #327680
 1127 008e 3846     		mov	r0, r7
ARM GAS  C:\usertemp\ccJd89Xr.s 			page 53


 1128 0090 FFF7FEFF 		bl	lv_obj_get_style_prop
 1129              	.LVL123:
 1130 0094 0C90     		str	r0, [sp, #48]
 106:lvgl/src/widgets/../core/lv_obj_style_gen.h **** }
 1131              		.loc 3 106 5 is_stmt 1 view .LVU369
 1132              	.LVL124:
 106:lvgl/src/widgets/../core/lv_obj_style_gen.h **** }
 1133              		.loc 3 106 5 is_stmt 0 view .LVU370
 1134              	.LBE135:
 1135              	.LBE134:
 612:lvgl/src/widgets/lv_table.c ****     lv_coord_t cell_top = lv_obj_get_style_pad_top(obj, LV_PART_ITEMS);
 1136              		.loc 1 612 5 is_stmt 1 view .LVU371
 1137              	.LBB136:
 1138              	.LBI136:
 109:lvgl/src/widgets/../core/lv_obj_style_gen.h **** {
 1139              		.loc 3 109 26 view .LVU372
 1140              	.LBB137:
 111:lvgl/src/widgets/../core/lv_obj_style_gen.h ****     return (lv_coord_t)v.num;
 1141              		.loc 3 111 5 view .LVU373
 111:lvgl/src/widgets/../core/lv_obj_style_gen.h ****     return (lv_coord_t)v.num;
 1142              		.loc 3 111 26 is_stmt 0 view .LVU374
 1143 0096 41F61302 		movw	r2, #6163
 1144 009a 4FF4A021 		mov	r1, #327680
 1145 009e 3846     		mov	r0, r7
 1146 00a0 FFF7FEFF 		bl	lv_obj_get_style_prop
 1147              	.LVL125:
 1148 00a4 0B90     		str	r0, [sp, #44]
 112:lvgl/src/widgets/../core/lv_obj_style_gen.h **** }
 1149              		.loc 3 112 5 is_stmt 1 view .LVU375
 1150              	.LVL126:
 112:lvgl/src/widgets/../core/lv_obj_style_gen.h **** }
 1151              		.loc 3 112 5 is_stmt 0 view .LVU376
 1152              	.LBE137:
 1153              	.LBE136:
 613:lvgl/src/widgets/lv_table.c ****     lv_coord_t cell_bottom = lv_obj_get_style_pad_bottom(obj, LV_PART_ITEMS);
 1154              		.loc 1 613 5 is_stmt 1 view .LVU377
 1155              	.LBB138:
 1156              	.LBI138:
  91:lvgl/src/widgets/../core/lv_obj_style_gen.h **** {
 1157              		.loc 3 91 26 view .LVU378
 1158              	.LBB139:
  93:lvgl/src/widgets/../core/lv_obj_style_gen.h ****     return (lv_coord_t)v.num;
 1159              		.loc 3 93 5 view .LVU379
  93:lvgl/src/widgets/../core/lv_obj_style_gen.h ****     return (lv_coord_t)v.num;
 1160              		.loc 3 93 26 is_stmt 0 view .LVU380
 1161 00a6 41F61002 		movw	r2, #6160
 1162 00aa 4FF4A021 		mov	r1, #327680
 1163 00ae 3846     		mov	r0, r7
 1164 00b0 FFF7FEFF 		bl	lv_obj_get_style_prop
 1165              	.LVL127:
 1166 00b4 0A90     		str	r0, [sp, #40]
  94:lvgl/src/widgets/../core/lv_obj_style_gen.h **** }
 1167              		.loc 3 94 5 is_stmt 1 view .LVU381
 1168              	.LVL128:
  94:lvgl/src/widgets/../core/lv_obj_style_gen.h **** }
 1169              		.loc 3 94 5 is_stmt 0 view .LVU382
 1170              	.LBE139:
ARM GAS  C:\usertemp\ccJd89Xr.s 			page 54


 1171              	.LBE138:
 614:lvgl/src/widgets/lv_table.c **** 
 1172              		.loc 1 614 5 is_stmt 1 view .LVU383
 1173              	.LBB140:
 1174              	.LBI140:
  97:lvgl/src/widgets/../core/lv_obj_style_gen.h **** {
 1175              		.loc 3 97 26 view .LVU384
 1176              	.LBB141:
  99:lvgl/src/widgets/../core/lv_obj_style_gen.h ****     return (lv_coord_t)v.num;
 1177              		.loc 3 99 5 view .LVU385
  99:lvgl/src/widgets/../core/lv_obj_style_gen.h ****     return (lv_coord_t)v.num;
 1178              		.loc 3 99 26 is_stmt 0 view .LVU386
 1179 00b6 41F61102 		movw	r2, #6161
 1180 00ba 4FF4A021 		mov	r1, #327680
 1181 00be 3846     		mov	r0, r7
 1182 00c0 FFF7FEFF 		bl	lv_obj_get_style_prop
 1183              	.LVL129:
 1184 00c4 0990     		str	r0, [sp, #36]
 100:lvgl/src/widgets/../core/lv_obj_style_gen.h **** }
 1185              		.loc 3 100 5 is_stmt 1 view .LVU387
 1186              	.LVL130:
 100:lvgl/src/widgets/../core/lv_obj_style_gen.h **** }
 1187              		.loc 3 100 5 is_stmt 0 view .LVU388
 1188              	.LBE141:
 1189              	.LBE140:
 616:lvgl/src/widgets/lv_table.c ****     obj->state = LV_STATE_DEFAULT;
 1190              		.loc 1 616 5 is_stmt 1 view .LVU389
 616:lvgl/src/widgets/lv_table.c ****     obj->state = LV_STATE_DEFAULT;
 1191              		.loc 1 616 16 is_stmt 0 view .LVU390
 1192 00c6 3B8C     		ldrh	r3, [r7, #32]
 1193 00c8 1493     		str	r3, [sp, #80]
 1194              	.LVL131:
 617:lvgl/src/widgets/lv_table.c ****     obj->skip_trans = 1;
 1195              		.loc 1 617 5 is_stmt 1 view .LVU391
 617:lvgl/src/widgets/lv_table.c ****     obj->skip_trans = 1;
 1196              		.loc 1 617 16 is_stmt 0 view .LVU392
 1197 00ca 0025     		movs	r5, #0
 1198 00cc 3D84     		strh	r5, [r7, #32]	@ movhi
 618:lvgl/src/widgets/lv_table.c ****     lv_draw_rect_dsc_t rect_dsc_def;
 1199              		.loc 1 618 5 is_stmt 1 view .LVU393
 618:lvgl/src/widgets/lv_table.c ****     lv_draw_rect_dsc_t rect_dsc_def;
 1200              		.loc 1 618 21 is_stmt 0 view .LVU394
 1201 00ce 97F82230 		ldrb	r3, [r7, #34]	@ zero_extendqisi2
 1202 00d2 43F00403 		orr	r3, r3, #4
 1203 00d6 87F82230 		strb	r3, [r7, #34]
 619:lvgl/src/widgets/lv_table.c ****     lv_draw_rect_dsc_t rect_dsc_act; /*Passed to the event to modify it*/
 1204              		.loc 1 619 5 is_stmt 1 view .LVU395
 620:lvgl/src/widgets/lv_table.c ****     lv_draw_rect_dsc_init(&rect_dsc_def);
 1205              		.loc 1 620 5 view .LVU396
 621:lvgl/src/widgets/lv_table.c ****     lv_obj_init_draw_rect_dsc(obj, LV_PART_ITEMS, &rect_dsc_def);
 1206              		.loc 1 621 5 view .LVU397
 1207 00da 4DA8     		add	r0, sp, #308
 1208 00dc FFF7FEFF 		bl	lv_draw_rect_dsc_init
 1209              	.LVL132:
 622:lvgl/src/widgets/lv_table.c **** 
 1210              		.loc 1 622 5 view .LVU398
 1211 00e0 4DA8     		add	r0, sp, #308
ARM GAS  C:\usertemp\ccJd89Xr.s 			page 55


 1212 00e2 0246     		mov	r2, r0
 1213 00e4 4FF4A021 		mov	r1, #327680
 1214 00e8 3846     		mov	r0, r7
 1215 00ea FFF7FEFF 		bl	lv_obj_init_draw_rect_dsc
 1216              	.LVL133:
 624:lvgl/src/widgets/lv_table.c ****     lv_draw_label_dsc_t label_dsc_act;  /*Passed to the event to modify it*/
 1217              		.loc 1 624 5 view .LVU399
 625:lvgl/src/widgets/lv_table.c ****     lv_draw_label_dsc_init(&label_dsc_def);
 1218              		.loc 1 625 5 view .LVU400
 626:lvgl/src/widgets/lv_table.c ****     lv_obj_init_draw_label_dsc(obj, LV_PART_ITEMS, &label_dsc_def);
 1219              		.loc 1 626 5 view .LVU401
 1220 00ee 37A8     		add	r0, sp, #220
 1221 00f0 FFF7FEFF 		bl	lv_draw_label_dsc_init
 1222              	.LVL134:
 627:lvgl/src/widgets/lv_table.c ****     obj->state = state_ori;
 1223              		.loc 1 627 5 view .LVU402
 1224 00f4 37A8     		add	r0, sp, #220
 1225 00f6 0246     		mov	r2, r0
 1226 00f8 4FF4A021 		mov	r1, #327680
 1227 00fc 3846     		mov	r0, r7
 1228 00fe FFF7FEFF 		bl	lv_obj_init_draw_label_dsc
 1229              	.LVL135:
 628:lvgl/src/widgets/lv_table.c ****     obj->skip_trans = 0;
 1230              		.loc 1 628 5 view .LVU403
 628:lvgl/src/widgets/lv_table.c ****     obj->skip_trans = 0;
 1231              		.loc 1 628 16 is_stmt 0 view .LVU404
 1232 0102 149B     		ldr	r3, [sp, #80]
 1233 0104 3B84     		strh	r3, [r7, #32]	@ movhi
 629:lvgl/src/widgets/lv_table.c **** 
 1234              		.loc 1 629 5 is_stmt 1 view .LVU405
 629:lvgl/src/widgets/lv_table.c **** 
 1235              		.loc 1 629 21 is_stmt 0 view .LVU406
 1236 0106 97F82230 		ldrb	r3, [r7, #34]	@ zero_extendqisi2
 1237 010a 65F38203 		bfi	r3, r5, #2, #1
 1238 010e 87F82230 		strb	r3, [r7, #34]
 631:lvgl/src/widgets/lv_table.c ****     uint16_t row;
 1239              		.loc 1 631 5 is_stmt 1 view .LVU407
 632:lvgl/src/widgets/lv_table.c ****     uint16_t cell = 0;
 1240              		.loc 1 632 5 view .LVU408
 633:lvgl/src/widgets/lv_table.c **** 
 1241              		.loc 1 633 5 view .LVU409
 1242              	.LVL136:
 635:lvgl/src/widgets/lv_table.c ****     lv_coord_t scroll_x = lv_obj_get_scroll_x(obj) ;
 1243              		.loc 1 635 5 view .LVU410
 635:lvgl/src/widgets/lv_table.c ****     lv_coord_t scroll_x = lv_obj_get_scroll_x(obj) ;
 1244              		.loc 1 635 31 is_stmt 0 view .LVU411
 1245 0112 FB8A     		ldrh	r3, [r7, #22]
 1246              	.LVL137:
 635:lvgl/src/widgets/lv_table.c ****     lv_coord_t scroll_x = lv_obj_get_scroll_x(obj) ;
 1247              		.loc 1 635 35 view .LVU412
 1248 0114 2344     		add	r3, r3, r4
 1249 0116 9CB2     		uxth	r4, r3
 1250              	.LVL138:
 635:lvgl/src/widgets/lv_table.c ****     lv_coord_t scroll_x = lv_obj_get_scroll_x(obj) ;
 1251              		.loc 1 635 50 view .LVU413
 1252 0118 3846     		mov	r0, r7
 1253 011a FFF7FEFF 		bl	lv_obj_get_scroll_y
ARM GAS  C:\usertemp\ccJd89Xr.s 			page 56


 1254              	.LVL139:
 635:lvgl/src/widgets/lv_table.c ****     lv_coord_t scroll_x = lv_obj_get_scroll_x(obj) ;
 1255              		.loc 1 635 48 discriminator 1 view .LVU414
 1256 011e 231A     		subs	r3, r4, r0
 635:lvgl/src/widgets/lv_table.c ****     lv_coord_t scroll_x = lv_obj_get_scroll_x(obj) ;
 1257              		.loc 1 635 75 discriminator 1 view .LVU415
 1258 0120 1FFA89F9 		uxth	r9, r9
 635:lvgl/src/widgets/lv_table.c ****     lv_coord_t scroll_x = lv_obj_get_scroll_x(obj) ;
 1259              		.loc 1 635 75 discriminator 1 view .LVU416
 1260 0124 19FA83F3 		uxtah	r3, r9, r3
 1261 0128 013B     		subs	r3, r3, #1
 635:lvgl/src/widgets/lv_table.c ****     lv_coord_t scroll_x = lv_obj_get_scroll_x(obj) ;
 1262              		.loc 1 635 18 discriminator 1 view .LVU417
 1263 012a ADF87A31 		strh	r3, [sp, #378]	@ movhi
 636:lvgl/src/widgets/lv_table.c ****     bool rtl = lv_obj_get_style_base_dir(obj, LV_PART_MAIN) == LV_BASE_DIR_RTL ? true : false;
 1264              		.loc 1 636 5 is_stmt 1 view .LVU418
 636:lvgl/src/widgets/lv_table.c ****     bool rtl = lv_obj_get_style_base_dir(obj, LV_PART_MAIN) == LV_BASE_DIR_RTL ? true : false;
 1265              		.loc 1 636 27 is_stmt 0 view .LVU419
 1266 012e 3846     		mov	r0, r7
 1267 0130 FFF7FEFF 		bl	lv_obj_get_scroll_x
 1268              	.LVL140:
 1269 0134 8246     		mov	r10, r0
 1270              	.LVL141:
 637:lvgl/src/widgets/lv_table.c **** 
 1271              		.loc 1 637 5 is_stmt 1 view .LVU420
 1272              	.LBB142:
 1273              	.LBI142:
 542:lvgl/src/widgets/../core/lv_obj_style_gen.h **** {
 1274              		.loc 3 542 29 view .LVU421
 1275              	.LBB143:
 544:lvgl/src/widgets/../core/lv_obj_style_gen.h ****     return (lv_base_dir_t)v.num;
 1276              		.loc 3 544 5 view .LVU422
 544:lvgl/src/widgets/../core/lv_obj_style_gen.h ****     return (lv_base_dir_t)v.num;
 1277              		.loc 3 544 26 is_stmt 0 view .LVU423
 1278 0136 41F26A42 		movw	r2, #5226
 1279 013a 2946     		mov	r1, r5
 1280 013c 3846     		mov	r0, r7
 1281 013e FFF7FEFF 		bl	lv_obj_get_style_prop
 1282              	.LVL142:
 1283              		.loc 3 545 5 is_stmt 1 view .LVU424
 1284              		.loc 3 545 12 is_stmt 0 view .LVU425
 1285 0142 5FFA80FB 		uxtb	fp, r0
 1286              	.LVL143:
 1287              		.loc 3 545 12 view .LVU426
 1288              	.LBE143:
 1289              	.LBE142:
 640:lvgl/src/widgets/lv_table.c ****     lv_obj_draw_dsc_init(&part_draw_dsc, draw_ctx);
 1290              		.loc 1 640 5 is_stmt 1 view .LVU427
 641:lvgl/src/widgets/lv_table.c ****     part_draw_dsc.part = LV_PART_ITEMS;
 1291              		.loc 1 641 5 view .LVU428
 1292 0146 0899     		ldr	r1, [sp, #32]
 1293 0148 1DA8     		add	r0, sp, #116
 1294 014a FFF7FEFF 		bl	lv_obj_draw_dsc_init
 1295              	.LVL144:
 642:lvgl/src/widgets/lv_table.c ****     part_draw_dsc.class_p = MY_CLASS;
 1296              		.loc 1 642 5 view .LVU429
 642:lvgl/src/widgets/lv_table.c ****     part_draw_dsc.class_p = MY_CLASS;
ARM GAS  C:\usertemp\ccJd89Xr.s 			page 57


 1297              		.loc 1 642 24 is_stmt 0 view .LVU430
 1298 014e 4FF4A023 		mov	r3, #327680
 1299 0152 2A93     		str	r3, [sp, #168]
 643:lvgl/src/widgets/lv_table.c ****     part_draw_dsc.type = LV_TABLE_DRAW_PART_CELL;
 1300              		.loc 1 643 5 is_stmt 1 view .LVU431
 643:lvgl/src/widgets/lv_table.c ****     part_draw_dsc.type = LV_TABLE_DRAW_PART_CELL;
 1301              		.loc 1 643 27 is_stmt 0 view .LVU432
 1302 0154 BE4B     		ldr	r3, .L90
 1303 0156 1E93     		str	r3, [sp, #120]
 644:lvgl/src/widgets/lv_table.c ****     part_draw_dsc.rect_dsc = &rect_dsc_act;
 1304              		.loc 1 644 5 is_stmt 1 view .LVU433
 644:lvgl/src/widgets/lv_table.c ****     part_draw_dsc.rect_dsc = &rect_dsc_act;
 1305              		.loc 1 644 24 is_stmt 0 view .LVU434
 1306 0158 1F95     		str	r5, [sp, #124]
 645:lvgl/src/widgets/lv_table.c ****     part_draw_dsc.label_dsc = &label_dsc_act;
 1307              		.loc 1 645 5 is_stmt 1 view .LVU435
 645:lvgl/src/widgets/lv_table.c ****     part_draw_dsc.label_dsc = &label_dsc_act;
 1308              		.loc 1 645 28 is_stmt 0 view .LVU436
 1309 015a 3FAB     		add	r3, sp, #252
 1310 015c 2193     		str	r3, [sp, #132]
 646:lvgl/src/widgets/lv_table.c **** 
 1311              		.loc 1 646 5 is_stmt 1 view .LVU437
 646:lvgl/src/widgets/lv_table.c **** 
 1312              		.loc 1 646 29 is_stmt 0 view .LVU438
 1313 015e 2FAB     		add	r3, sp, #188
 1314 0160 2293     		str	r3, [sp, #136]
 648:lvgl/src/widgets/lv_table.c ****         lv_coord_t h_row = table->row_h[row];
 1315              		.loc 1 648 5 is_stmt 1 view .LVU439
 1316              	.LVL145:
 633:lvgl/src/widgets/lv_table.c **** 
 1317              		.loc 1 633 14 is_stmt 0 view .LVU440
 1318 0162 A846     		mov	r8, r5
 648:lvgl/src/widgets/lv_table.c ****         lv_coord_t h_row = table->row_h[row];
 1319              		.loc 1 648 13 view .LVU441
 1320 0164 0695     		str	r5, [sp, #24]
 1321 0166 CDF84890 		str	r9, [sp, #72]
 1322 016a 1796     		str	r6, [sp, #92]
 1323 016c CDF84CA0 		str	r10, [sp, #76]
 1324 0170 5C46     		mov	r4, fp
 648:lvgl/src/widgets/lv_table.c ****         lv_coord_t h_row = table->row_h[row];
 1325              		.loc 1 648 5 view .LVU442
 1326 0172 DAE1     		b	.L35
 1327              	.LVL146:
 1328              	.L89:
 1329              	.LBB144:
 656:lvgl/src/widgets/lv_table.c ****         else cell_area.x2 = obj->coords.x1 + bg_left - 1 - scroll_x + border_width;
 1330              		.loc 1 656 17 is_stmt 1 discriminator 1 view .LVU443
 656:lvgl/src/widgets/lv_table.c ****         else cell_area.x2 = obj->coords.x1 + bg_left - 1 - scroll_x + border_width;
 1331              		.loc 1 656 43 is_stmt 0 discriminator 1 view .LVU444
 1332 0174 3B8B     		ldrh	r3, [r7, #24]
 656:lvgl/src/widgets/lv_table.c ****         else cell_area.x2 = obj->coords.x1 + bg_left - 1 - scroll_x + border_width;
 1333              		.loc 1 656 47 discriminator 1 view .LVU445
 1334 0176 169A     		ldr	r2, [sp, #88]
 1335 0178 9B1A     		subs	r3, r3, r2
 1336 017a 9BB2     		uxth	r3, r3
 656:lvgl/src/widgets/lv_table.c ****         else cell_area.x2 = obj->coords.x1 + bg_left - 1 - scroll_x + border_width;
 1337              		.loc 1 656 62 discriminator 1 view .LVU446
ARM GAS  C:\usertemp\ccJd89Xr.s 			page 58


 1338 017c 139A     		ldr	r2, [sp, #76]
 1339 017e 9B1A     		subs	r3, r3, r2
 1340 0180 9BB2     		uxth	r3, r3
 656:lvgl/src/widgets/lv_table.c ****         else cell_area.x2 = obj->coords.x1 + bg_left - 1 - scroll_x + border_width;
 1341              		.loc 1 656 73 discriminator 1 view .LVU447
 1342 0182 129A     		ldr	r2, [sp, #72]
 1343 0184 9B1A     		subs	r3, r3, r2
 1344 0186 013B     		subs	r3, r3, #1
 656:lvgl/src/widgets/lv_table.c ****         else cell_area.x2 = obj->coords.x1 + bg_left - 1 - scroll_x + border_width;
 1345              		.loc 1 656 30 discriminator 1 view .LVU448
 1346 0188 ADF87431 		strh	r3, [sp, #372]	@ movhi
 1347 018c F5E1     		b	.L38
 1348              	.LVL147:
 1349              	.L73:
 1350              	.LBB145:
 660:lvgl/src/widgets/lv_table.c ****             if(table->cell_data[cell]) ctrl = table->cell_data[cell][0];
 1351              		.loc 1 660 34 view .LVU449
 1352 018e 4FF00009 		mov	r9, #0
 1353 0192 4AE1     		b	.L39
 1354              	.LVL148:
 1355              	.L88:
 664:lvgl/src/widgets/lv_table.c ****                 cell_area.x1 = cell_area.x2 - table->col_w[col] + 1;
 1356              		.loc 1 664 17 is_stmt 1 view .LVU450
 664:lvgl/src/widgets/lv_table.c ****                 cell_area.x1 = cell_area.x2 - table->col_w[col] + 1;
 1357              		.loc 1 664 41 is_stmt 0 view .LVU451
 1358 0194 BDF87421 		ldrh	r2, [sp, #372]
 664:lvgl/src/widgets/lv_table.c ****                 cell_area.x1 = cell_area.x2 - table->col_w[col] + 1;
 1359              		.loc 1 664 45 view .LVU452
 1360 0198 013A     		subs	r2, r2, #1
 1361 019a 93B2     		uxth	r3, r2
 664:lvgl/src/widgets/lv_table.c ****                 cell_area.x1 = cell_area.x2 - table->col_w[col] + 1;
 1362              		.loc 1 664 30 view .LVU453
 1363 019c ADF87821 		strh	r2, [sp, #376]	@ movhi
 665:lvgl/src/widgets/lv_table.c ****             }
 1364              		.loc 1 665 17 is_stmt 1 view .LVU454
 665:lvgl/src/widgets/lv_table.c ****             }
 1365              		.loc 1 665 52 is_stmt 0 view .LVU455
 1366 01a0 3A6B     		ldr	r2, [r7, #48]
 665:lvgl/src/widgets/lv_table.c ****             }
 1367              		.loc 1 665 59 view .LVU456
 1368 01a2 32F81520 		ldrh	r2, [r2, r5, lsl #1]
 665:lvgl/src/widgets/lv_table.c ****             }
 1369              		.loc 1 665 45 view .LVU457
 1370 01a6 9B1A     		subs	r3, r3, r2
 1371 01a8 9BB2     		uxth	r3, r3
 665:lvgl/src/widgets/lv_table.c ****             }
 1372              		.loc 1 665 65 view .LVU458
 1373 01aa 0133     		adds	r3, r3, #1
 665:lvgl/src/widgets/lv_table.c ****             }
 1374              		.loc 1 665 30 view .LVU459
 1375 01ac ADF87431 		strh	r3, [sp, #372]	@ movhi
 1376 01b0 4CE1     		b	.L41
 1377              	.LVL149:
 1378              	.L77:
 1379              	.LBB146:
 678:lvgl/src/widgets/lv_table.c ****                         else cell_area.x2 += table->col_w[col + col_merge + 1];
 1380              		.loc 1 678 33 is_stmt 1 discriminator 1 view .LVU460
ARM GAS  C:\usertemp\ccJd89Xr.s 			page 59


 678:lvgl/src/widgets/lv_table.c ****                         else cell_area.x2 += table->col_w[col + col_merge + 1];
 1381              		.loc 1 678 42 is_stmt 0 discriminator 1 view .LVU461
 1382 01b2 BDF874C1 		ldrh	ip, [sp, #372]
 678:lvgl/src/widgets/lv_table.c ****                         else cell_area.x2 += table->col_w[col + col_merge + 1];
 1383              		.loc 1 678 54 discriminator 1 view .LVU462
 1384 01b6 3A6B     		ldr	r2, [r7, #48]
 1385              	.LVL150:
 678:lvgl/src/widgets/lv_table.c ****                         else cell_area.x2 += table->col_w[col + col_merge + 1];
 1386              		.loc 1 678 61 discriminator 1 view .LVU463
 1387 01b8 0133     		adds	r3, r3, #1
 1388 01ba 32F81330 		ldrh	r3, [r2, r3, lsl #1]
 678:lvgl/src/widgets/lv_table.c ****                         else cell_area.x2 += table->col_w[col + col_merge + 1];
 1389              		.loc 1 678 46 discriminator 1 view .LVU464
 1390 01be ACEB0303 		sub	r3, ip, r3
 1391 01c2 ADF87431 		strh	r3, [sp, #372]	@ movhi
 1392              	.LVL151:
 1393              	.L44:
 678:lvgl/src/widgets/lv_table.c ****                         else cell_area.x2 += table->col_w[col + col_merge + 1];
 1394              		.loc 1 678 46 discriminator 1 view .LVU465
 1395              	.LBE146:
 673:lvgl/src/widgets/lv_table.c ****                 if(table->cell_data[cell + col_merge]) {
 1396              		.loc 1 673 79 is_stmt 1 discriminator 2 view .LVU466
 1397 01c6 0136     		adds	r6, r6, #1
 1398              	.LVL152:
 673:lvgl/src/widgets/lv_table.c ****                 if(table->cell_data[cell + col_merge]) {
 1399              		.loc 1 673 79 is_stmt 0 discriminator 2 view .LVU467
 1400 01c8 B6B2     		uxth	r6, r6
 1401              	.LVL153:
 1402              	.L45:
 673:lvgl/src/widgets/lv_table.c ****                 if(table->cell_data[cell + col_merge]) {
 1403              		.loc 1 673 48 is_stmt 1 discriminator 1 view .LVU468
 673:lvgl/src/widgets/lv_table.c ****                 if(table->cell_data[cell + col_merge]) {
 1404              		.loc 1 673 42 is_stmt 0 discriminator 1 view .LVU469
 1405 01ca 0595     		str	r5, [sp, #20]
 1406 01cc 7319     		adds	r3, r6, r5
 673:lvgl/src/widgets/lv_table.c ****                 if(table->cell_data[cell + col_merge]) {
 1407              		.loc 1 673 65 discriminator 1 view .LVU470
 1408 01ce 4A1E     		subs	r2, r1, #1
 673:lvgl/src/widgets/lv_table.c ****                 if(table->cell_data[cell + col_merge]) {
 1409              		.loc 1 673 48 discriminator 1 view .LVU471
 1410 01d0 9342     		cmp	r3, r2
 1411 01d2 15DA     		bge	.L42
 674:lvgl/src/widgets/lv_table.c ****                     char * next_cell_data = table->cell_data[cell + col_merge];
 1412              		.loc 1 674 17 is_stmt 1 view .LVU472
 674:lvgl/src/widgets/lv_table.c ****                     char * next_cell_data = table->cell_data[cell + col_merge];
 1413              		.loc 1 674 42 is_stmt 0 view .LVU473
 1414 01d4 08EB0602 		add	r2, r8, r6
 674:lvgl/src/widgets/lv_table.c ****                     char * next_cell_data = table->cell_data[cell + col_merge];
 1415              		.loc 1 674 36 view .LVU474
 1416 01d8 50F82220 		ldr	r2, [r0, r2, lsl #2]
 674:lvgl/src/widgets/lv_table.c ****                     char * next_cell_data = table->cell_data[cell + col_merge];
 1417              		.loc 1 674 19 view .LVU475
 1418 01dc 82B1     		cbz	r2, .L42
 1419              	.LBB147:
 675:lvgl/src/widgets/lv_table.c ****                     if(next_cell_data) ctrl = next_cell_data[0];
 1420              		.loc 1 675 21 is_stmt 1 view .LVU476
 1421              	.LVL154:
ARM GAS  C:\usertemp\ccJd89Xr.s 			page 60


 676:lvgl/src/widgets/lv_table.c ****                     if(ctrl & LV_TABLE_CELL_CTRL_MERGE_RIGHT)
 1422              		.loc 1 676 21 view .LVU477
 676:lvgl/src/widgets/lv_table.c ****                     if(ctrl & LV_TABLE_CELL_CTRL_MERGE_RIGHT)
 1423              		.loc 1 676 40 discriminator 1 view .LVU478
 676:lvgl/src/widgets/lv_table.c ****                     if(ctrl & LV_TABLE_CELL_CTRL_MERGE_RIGHT)
 1424              		.loc 1 676 45 is_stmt 0 discriminator 1 view .LVU479
 1425 01de 92F80090 		ldrb	r9, [r2]	@ zero_extendqisi2
 1426              	.LVL155:
 677:lvgl/src/widgets/lv_table.c ****                         if(rtl) cell_area.x1 -= table->col_w[col + col_merge + 1];
 1427              		.loc 1 677 21 is_stmt 1 view .LVU480
 677:lvgl/src/widgets/lv_table.c ****                         if(rtl) cell_area.x1 -= table->col_w[col + col_merge + 1];
 1428              		.loc 1 677 23 is_stmt 0 view .LVU481
 1429 01e2 19F0010F 		tst	r9, #1
 1430 01e6 0BD0     		beq	.L42
 678:lvgl/src/widgets/lv_table.c ****                         else cell_area.x2 += table->col_w[col + col_merge + 1];
 1431              		.loc 1 678 25 is_stmt 1 view .LVU482
 678:lvgl/src/widgets/lv_table.c ****                         else cell_area.x2 += table->col_w[col + col_merge + 1];
 1432              		.loc 1 678 27 is_stmt 0 view .LVU483
 1433 01e8 012C     		cmp	r4, #1
 1434 01ea E2D0     		beq	.L77
 679:lvgl/src/widgets/lv_table.c ****                     else {
 1435              		.loc 1 679 30 is_stmt 1 view .LVU484
 679:lvgl/src/widgets/lv_table.c ****                     else {
 1436              		.loc 1 679 39 is_stmt 0 view .LVU485
 1437 01ec BDF878C1 		ldrh	ip, [sp, #376]
 679:lvgl/src/widgets/lv_table.c ****                     else {
 1438              		.loc 1 679 51 view .LVU486
 1439 01f0 3A6B     		ldr	r2, [r7, #48]
 1440              	.LVL156:
 679:lvgl/src/widgets/lv_table.c ****                     else {
 1441              		.loc 1 679 58 view .LVU487
 1442 01f2 0133     		adds	r3, r3, #1
 1443 01f4 32F81330 		ldrh	r3, [r2, r3, lsl #1]
 679:lvgl/src/widgets/lv_table.c ****                     else {
 1444              		.loc 1 679 43 view .LVU488
 1445 01f8 6344     		add	r3, r3, ip
 1446 01fa ADF87831 		strh	r3, [sp, #376]	@ movhi
 1447              	.LVL157:
 679:lvgl/src/widgets/lv_table.c ****                     else {
 1448              		.loc 1 679 43 view .LVU489
 1449 01fe E2E7     		b	.L44
 1450              	.LVL158:
 1451              	.L42:
 679:lvgl/src/widgets/lv_table.c ****                     else {
 1452              		.loc 1 679 43 view .LVU490
 1453              	.LBE147:
 689:lvgl/src/widgets/lv_table.c ****                 cell += col_merge + 1;
 1454              		.loc 1 689 13 is_stmt 1 view .LVU491
 689:lvgl/src/widgets/lv_table.c ****                 cell += col_merge + 1;
 1455              		.loc 1 689 25 is_stmt 0 view .LVU492
 1456 0200 BDF97A31 		ldrsh	r3, [sp, #378]
 689:lvgl/src/widgets/lv_table.c ****                 cell += col_merge + 1;
 1457              		.loc 1 689 40 view .LVU493
 1458 0204 BDF98221 		ldrsh	r2, [sp, #386]
 689:lvgl/src/widgets/lv_table.c ****                 cell += col_merge + 1;
 1459              		.loc 1 689 15 view .LVU494
 1460 0208 9342     		cmp	r3, r2
ARM GAS  C:\usertemp\ccJd89Xr.s 			page 61


 1461 020a C0F22381 		blt	.L78
 696:lvgl/src/widgets/lv_table.c ****             lv_area_copy(&cell_area_border, &cell_area);
 1462              		.loc 1 696 13 is_stmt 1 view .LVU495
 697:lvgl/src/widgets/lv_table.c ****             if((rect_dsc_def.border_side & LV_BORDER_SIDE_LEFT) && cell_area_border.x1 > obj->coord
 1463              		.loc 1 697 13 view .LVU496
 1464              	.LVL159:
 1465              	.LBB148:
 1466              	.LBI148:
 1467              		.file 4 "lvgl/src/widgets/../core/../misc/../font/../misc/lv_area.h"
   1:lvgl/src/widgets/../core/../misc/../font/../misc/lv_area.h **** /**
   2:lvgl/src/widgets/../core/../misc/../font/../misc/lv_area.h ****  * @file lv_area.h
   3:lvgl/src/widgets/../core/../misc/../font/../misc/lv_area.h ****  *
   4:lvgl/src/widgets/../core/../misc/../font/../misc/lv_area.h ****  */
   5:lvgl/src/widgets/../core/../misc/../font/../misc/lv_area.h **** 
   6:lvgl/src/widgets/../core/../misc/../font/../misc/lv_area.h **** #ifndef LV_AREA_H
   7:lvgl/src/widgets/../core/../misc/../font/../misc/lv_area.h **** #define LV_AREA_H
   8:lvgl/src/widgets/../core/../misc/../font/../misc/lv_area.h **** 
   9:lvgl/src/widgets/../core/../misc/../font/../misc/lv_area.h **** #ifdef __cplusplus
  10:lvgl/src/widgets/../core/../misc/../font/../misc/lv_area.h **** extern "C" {
  11:lvgl/src/widgets/../core/../misc/../font/../misc/lv_area.h **** #endif
  12:lvgl/src/widgets/../core/../misc/../font/../misc/lv_area.h **** 
  13:lvgl/src/widgets/../core/../misc/../font/../misc/lv_area.h **** /*********************
  14:lvgl/src/widgets/../core/../misc/../font/../misc/lv_area.h ****  *      INCLUDES
  15:lvgl/src/widgets/../core/../misc/../font/../misc/lv_area.h ****  *********************/
  16:lvgl/src/widgets/../core/../misc/../font/../misc/lv_area.h **** #include "../lv_conf_internal.h"
  17:lvgl/src/widgets/../core/../misc/../font/../misc/lv_area.h **** #include <stdbool.h>
  18:lvgl/src/widgets/../core/../misc/../font/../misc/lv_area.h **** #include <stdint.h>
  19:lvgl/src/widgets/../core/../misc/../font/../misc/lv_area.h **** 
  20:lvgl/src/widgets/../core/../misc/../font/../misc/lv_area.h **** /*********************
  21:lvgl/src/widgets/../core/../misc/../font/../misc/lv_area.h ****  *      DEFINES
  22:lvgl/src/widgets/../core/../misc/../font/../misc/lv_area.h ****  *********************/
  23:lvgl/src/widgets/../core/../misc/../font/../misc/lv_area.h **** 
  24:lvgl/src/widgets/../core/../misc/../font/../misc/lv_area.h **** #if LV_USE_LARGE_COORD
  25:lvgl/src/widgets/../core/../misc/../font/../misc/lv_area.h **** typedef int32_t lv_coord_t;
  26:lvgl/src/widgets/../core/../misc/../font/../misc/lv_area.h **** #else
  27:lvgl/src/widgets/../core/../misc/../font/../misc/lv_area.h **** typedef int16_t lv_coord_t;
  28:lvgl/src/widgets/../core/../misc/../font/../misc/lv_area.h **** #endif
  29:lvgl/src/widgets/../core/../misc/../font/../misc/lv_area.h **** 
  30:lvgl/src/widgets/../core/../misc/../font/../misc/lv_area.h **** /**********************
  31:lvgl/src/widgets/../core/../misc/../font/../misc/lv_area.h ****  *      TYPEDEFS
  32:lvgl/src/widgets/../core/../misc/../font/../misc/lv_area.h ****  **********************/
  33:lvgl/src/widgets/../core/../misc/../font/../misc/lv_area.h **** 
  34:lvgl/src/widgets/../core/../misc/../font/../misc/lv_area.h **** /**
  35:lvgl/src/widgets/../core/../misc/../font/../misc/lv_area.h ****  * Represents a point on the screen.
  36:lvgl/src/widgets/../core/../misc/../font/../misc/lv_area.h ****  */
  37:lvgl/src/widgets/../core/../misc/../font/../misc/lv_area.h **** typedef struct {
  38:lvgl/src/widgets/../core/../misc/../font/../misc/lv_area.h ****     lv_coord_t x;
  39:lvgl/src/widgets/../core/../misc/../font/../misc/lv_area.h ****     lv_coord_t y;
  40:lvgl/src/widgets/../core/../misc/../font/../misc/lv_area.h **** } lv_point_t;
  41:lvgl/src/widgets/../core/../misc/../font/../misc/lv_area.h **** 
  42:lvgl/src/widgets/../core/../misc/../font/../misc/lv_area.h **** /** Represents an area of the screen.*/
  43:lvgl/src/widgets/../core/../misc/../font/../misc/lv_area.h **** typedef struct {
  44:lvgl/src/widgets/../core/../misc/../font/../misc/lv_area.h ****     lv_coord_t x1;
  45:lvgl/src/widgets/../core/../misc/../font/../misc/lv_area.h ****     lv_coord_t y1;
  46:lvgl/src/widgets/../core/../misc/../font/../misc/lv_area.h ****     lv_coord_t x2;
  47:lvgl/src/widgets/../core/../misc/../font/../misc/lv_area.h ****     lv_coord_t y2;
  48:lvgl/src/widgets/../core/../misc/../font/../misc/lv_area.h **** } lv_area_t;
ARM GAS  C:\usertemp\ccJd89Xr.s 			page 62


  49:lvgl/src/widgets/../core/../misc/../font/../misc/lv_area.h **** 
  50:lvgl/src/widgets/../core/../misc/../font/../misc/lv_area.h **** /** Alignments*/
  51:lvgl/src/widgets/../core/../misc/../font/../misc/lv_area.h **** enum {
  52:lvgl/src/widgets/../core/../misc/../font/../misc/lv_area.h ****     LV_ALIGN_DEFAULT = 0,
  53:lvgl/src/widgets/../core/../misc/../font/../misc/lv_area.h ****     LV_ALIGN_TOP_LEFT,
  54:lvgl/src/widgets/../core/../misc/../font/../misc/lv_area.h ****     LV_ALIGN_TOP_MID,
  55:lvgl/src/widgets/../core/../misc/../font/../misc/lv_area.h ****     LV_ALIGN_TOP_RIGHT,
  56:lvgl/src/widgets/../core/../misc/../font/../misc/lv_area.h ****     LV_ALIGN_BOTTOM_LEFT,
  57:lvgl/src/widgets/../core/../misc/../font/../misc/lv_area.h ****     LV_ALIGN_BOTTOM_MID,
  58:lvgl/src/widgets/../core/../misc/../font/../misc/lv_area.h ****     LV_ALIGN_BOTTOM_RIGHT,
  59:lvgl/src/widgets/../core/../misc/../font/../misc/lv_area.h ****     LV_ALIGN_LEFT_MID,
  60:lvgl/src/widgets/../core/../misc/../font/../misc/lv_area.h ****     LV_ALIGN_RIGHT_MID,
  61:lvgl/src/widgets/../core/../misc/../font/../misc/lv_area.h ****     LV_ALIGN_CENTER,
  62:lvgl/src/widgets/../core/../misc/../font/../misc/lv_area.h **** 
  63:lvgl/src/widgets/../core/../misc/../font/../misc/lv_area.h ****     LV_ALIGN_OUT_TOP_LEFT,
  64:lvgl/src/widgets/../core/../misc/../font/../misc/lv_area.h ****     LV_ALIGN_OUT_TOP_MID,
  65:lvgl/src/widgets/../core/../misc/../font/../misc/lv_area.h ****     LV_ALIGN_OUT_TOP_RIGHT,
  66:lvgl/src/widgets/../core/../misc/../font/../misc/lv_area.h ****     LV_ALIGN_OUT_BOTTOM_LEFT,
  67:lvgl/src/widgets/../core/../misc/../font/../misc/lv_area.h ****     LV_ALIGN_OUT_BOTTOM_MID,
  68:lvgl/src/widgets/../core/../misc/../font/../misc/lv_area.h ****     LV_ALIGN_OUT_BOTTOM_RIGHT,
  69:lvgl/src/widgets/../core/../misc/../font/../misc/lv_area.h ****     LV_ALIGN_OUT_LEFT_TOP,
  70:lvgl/src/widgets/../core/../misc/../font/../misc/lv_area.h ****     LV_ALIGN_OUT_LEFT_MID,
  71:lvgl/src/widgets/../core/../misc/../font/../misc/lv_area.h ****     LV_ALIGN_OUT_LEFT_BOTTOM,
  72:lvgl/src/widgets/../core/../misc/../font/../misc/lv_area.h ****     LV_ALIGN_OUT_RIGHT_TOP,
  73:lvgl/src/widgets/../core/../misc/../font/../misc/lv_area.h ****     LV_ALIGN_OUT_RIGHT_MID,
  74:lvgl/src/widgets/../core/../misc/../font/../misc/lv_area.h ****     LV_ALIGN_OUT_RIGHT_BOTTOM,
  75:lvgl/src/widgets/../core/../misc/../font/../misc/lv_area.h **** };
  76:lvgl/src/widgets/../core/../misc/../font/../misc/lv_area.h **** typedef uint8_t lv_align_t;
  77:lvgl/src/widgets/../core/../misc/../font/../misc/lv_area.h **** 
  78:lvgl/src/widgets/../core/../misc/../font/../misc/lv_area.h **** enum {
  79:lvgl/src/widgets/../core/../misc/../font/../misc/lv_area.h ****     LV_DIR_NONE     = 0x00,
  80:lvgl/src/widgets/../core/../misc/../font/../misc/lv_area.h ****     LV_DIR_LEFT     = (1 << 0),
  81:lvgl/src/widgets/../core/../misc/../font/../misc/lv_area.h ****     LV_DIR_RIGHT    = (1 << 1),
  82:lvgl/src/widgets/../core/../misc/../font/../misc/lv_area.h ****     LV_DIR_TOP      = (1 << 2),
  83:lvgl/src/widgets/../core/../misc/../font/../misc/lv_area.h ****     LV_DIR_BOTTOM   = (1 << 3),
  84:lvgl/src/widgets/../core/../misc/../font/../misc/lv_area.h ****     LV_DIR_HOR      = LV_DIR_LEFT | LV_DIR_RIGHT,
  85:lvgl/src/widgets/../core/../misc/../font/../misc/lv_area.h ****     LV_DIR_VER      = LV_DIR_TOP | LV_DIR_BOTTOM,
  86:lvgl/src/widgets/../core/../misc/../font/../misc/lv_area.h ****     LV_DIR_ALL      = LV_DIR_HOR | LV_DIR_VER,
  87:lvgl/src/widgets/../core/../misc/../font/../misc/lv_area.h **** };
  88:lvgl/src/widgets/../core/../misc/../font/../misc/lv_area.h **** 
  89:lvgl/src/widgets/../core/../misc/../font/../misc/lv_area.h **** typedef uint8_t lv_dir_t;
  90:lvgl/src/widgets/../core/../misc/../font/../misc/lv_area.h **** 
  91:lvgl/src/widgets/../core/../misc/../font/../misc/lv_area.h **** /**********************
  92:lvgl/src/widgets/../core/../misc/../font/../misc/lv_area.h ****  * GLOBAL PROTOTYPES
  93:lvgl/src/widgets/../core/../misc/../font/../misc/lv_area.h ****  **********************/
  94:lvgl/src/widgets/../core/../misc/../font/../misc/lv_area.h **** 
  95:lvgl/src/widgets/../core/../misc/../font/../misc/lv_area.h **** /**
  96:lvgl/src/widgets/../core/../misc/../font/../misc/lv_area.h ****  * Initialize an area
  97:lvgl/src/widgets/../core/../misc/../font/../misc/lv_area.h ****  * @param area_p pointer to an area
  98:lvgl/src/widgets/../core/../misc/../font/../misc/lv_area.h ****  * @param x1 left coordinate of the area
  99:lvgl/src/widgets/../core/../misc/../font/../misc/lv_area.h ****  * @param y1 top coordinate of the area
 100:lvgl/src/widgets/../core/../misc/../font/../misc/lv_area.h ****  * @param x2 right coordinate of the area
 101:lvgl/src/widgets/../core/../misc/../font/../misc/lv_area.h ****  * @param y2 bottom coordinate of the area
 102:lvgl/src/widgets/../core/../misc/../font/../misc/lv_area.h ****  */
 103:lvgl/src/widgets/../core/../misc/../font/../misc/lv_area.h **** void lv_area_set(lv_area_t * area_p, lv_coord_t x1, lv_coord_t y1, lv_coord_t x2, lv_coord_t y2);
 104:lvgl/src/widgets/../core/../misc/../font/../misc/lv_area.h **** 
 105:lvgl/src/widgets/../core/../misc/../font/../misc/lv_area.h **** /**
ARM GAS  C:\usertemp\ccJd89Xr.s 			page 63


 106:lvgl/src/widgets/../core/../misc/../font/../misc/lv_area.h ****  * Copy an area
 107:lvgl/src/widgets/../core/../misc/../font/../misc/lv_area.h ****  * @param dest pointer to the destination area
 108:lvgl/src/widgets/../core/../misc/../font/../misc/lv_area.h ****  * @param src pointer to the source area
 109:lvgl/src/widgets/../core/../misc/../font/../misc/lv_area.h ****  */
 110:lvgl/src/widgets/../core/../misc/../font/../misc/lv_area.h **** inline static void lv_area_copy(lv_area_t * dest, const lv_area_t * src)
 1468              		.loc 4 110 20 view .LVU497
 1469              	.LBB149:
 111:lvgl/src/widgets/../core/../misc/../font/../misc/lv_area.h **** {
 112:lvgl/src/widgets/../core/../misc/../font/../misc/lv_area.h ****     dest->x1 = src->x1;
 1470              		.loc 4 112 5 view .LVU498
 1471              		.loc 4 112 19 is_stmt 0 view .LVU499
 1472 020e BDF97401 		ldrsh	r0, [sp, #372]
 1473              		.loc 4 112 14 view .LVU500
 1474 0212 ADF86400 		strh	r0, [sp, #100]	@ movhi
 113:lvgl/src/widgets/../core/../misc/../font/../misc/lv_area.h ****     dest->y1 = src->y1;
 1475              		.loc 4 113 5 is_stmt 1 view .LVU501
 1476              		.loc 4 113 19 is_stmt 0 view .LVU502
 1477 0216 BDF97621 		ldrsh	r2, [sp, #374]
 1478 021a 0792     		str	r2, [sp, #28]
 1479              		.loc 4 113 14 view .LVU503
 1480 021c ADF86620 		strh	r2, [sp, #102]	@ movhi
 114:lvgl/src/widgets/../core/../misc/../font/../misc/lv_area.h ****     dest->x2 = src->x2;
 1481              		.loc 4 114 5 is_stmt 1 view .LVU504
 1482              		.loc 4 114 19 is_stmt 0 view .LVU505
 1483 0220 BDF978C1 		ldrsh	ip, [sp, #376]
 1484              		.loc 4 114 14 view .LVU506
 1485 0224 ADF868C0 		strh	ip, [sp, #104]	@ movhi
 115:lvgl/src/widgets/../core/../misc/../font/../misc/lv_area.h ****     dest->y2 = src->y2;
 1486              		.loc 4 115 5 is_stmt 1 view .LVU507
 1487              		.loc 4 115 14 is_stmt 0 view .LVU508
 1488 0228 ADF86A30 		strh	r3, [sp, #106]	@ movhi
 1489              	.LVL160:
 1490              		.loc 4 115 14 view .LVU509
 1491              	.LBE149:
 1492              	.LBE148:
 698:lvgl/src/widgets/lv_table.c ****                 cell_area_border.x1 -= rect_dsc_def.border_width / 2;
 1493              		.loc 1 698 13 is_stmt 1 view .LVU510
 698:lvgl/src/widgets/lv_table.c ****                 cell_area_border.x1 -= rect_dsc_def.border_width / 2;
 1494              		.loc 1 698 29 is_stmt 0 view .LVU511
 1495 022c 9DF857E1 		ldrb	lr, [sp, #343]	@ zero_extendqisi2
 1496 0230 CEF34402 		ubfx	r2, lr, #1, #5
 698:lvgl/src/widgets/lv_table.c ****                 cell_area_border.x1 -= rect_dsc_def.border_width / 2;
 1497              		.loc 1 698 15 view .LVU512
 1498 0234 1EF0080F 		tst	lr, #8
 1499 0238 11D0     		beq	.L49
 698:lvgl/src/widgets/lv_table.c ****                 cell_area_border.x1 -= rect_dsc_def.border_width / 2;
 1500              		.loc 1 698 101 discriminator 1 view .LVU513
 1501 023a B7F914E0 		ldrsh	lr, [r7, #20]
 698:lvgl/src/widgets/lv_table.c ****                 cell_area_border.x1 -= rect_dsc_def.border_width / 2;
 1502              		.loc 1 698 105 discriminator 1 view .LVU514
 1503 023e 0F99     		ldr	r1, [sp, #60]
 1504 0240 8E44     		add	lr, lr, r1
 698:lvgl/src/widgets/lv_table.c ****                 cell_area_border.x1 -= rect_dsc_def.border_width / 2;
 1505              		.loc 1 698 65 discriminator 1 view .LVU515
 1506 0242 7045     		cmp	r0, lr
 1507 0244 0BDD     		ble	.L49
 699:lvgl/src/widgets/lv_table.c ****             }
ARM GAS  C:\usertemp\ccJd89Xr.s 			page 64


 1508              		.loc 1 699 17 is_stmt 1 view .LVU516
 699:lvgl/src/widgets/lv_table.c ****             }
 1509              		.loc 1 699 33 is_stmt 0 view .LVU517
 1510 0246 80B2     		uxth	r0, r0
 699:lvgl/src/widgets/lv_table.c ****             }
 1511              		.loc 1 699 52 view .LVU518
 1512 0248 BDF954E1 		ldrsh	lr, [sp, #340]
 699:lvgl/src/widgets/lv_table.c ****             }
 1513              		.loc 1 699 37 view .LVU519
 1514 024c F346     		mov	fp, lr
 1515 024e BEF1000F 		cmp	lr, #0
 1516 0252 C0F20981 		blt	.L79
 1517              	.L50:
 1518 0256 A0EB6B00 		sub	r0, r0, fp, asr #1
 1519 025a ADF86400 		strh	r0, [sp, #100]	@ movhi
 1520              	.L49:
 701:lvgl/src/widgets/lv_table.c ****                 cell_area_border.y1 -= rect_dsc_def.border_width / 2;
 1521              		.loc 1 701 13 is_stmt 1 view .LVU520
 701:lvgl/src/widgets/lv_table.c ****                 cell_area_border.y1 -= rect_dsc_def.border_width / 2;
 1522              		.loc 1 701 15 is_stmt 0 view .LVU521
 1523 025e 12F0020F 		tst	r2, #2
 1524 0262 11D0     		beq	.L51
 701:lvgl/src/widgets/lv_table.c ****                 cell_area_border.y1 -= rect_dsc_def.border_width / 2;
 1525              		.loc 1 701 100 discriminator 1 view .LVU522
 1526 0264 B7F91600 		ldrsh	r0, [r7, #22]
 701:lvgl/src/widgets/lv_table.c ****                 cell_area_border.y1 -= rect_dsc_def.border_width / 2;
 1527              		.loc 1 701 104 discriminator 1 view .LVU523
 1528 0268 1199     		ldr	r1, [sp, #68]
 1529 026a 0844     		add	r0, r0, r1
 701:lvgl/src/widgets/lv_table.c ****                 cell_area_border.y1 -= rect_dsc_def.border_width / 2;
 1530              		.loc 1 701 64 discriminator 1 view .LVU524
 1531 026c 0799     		ldr	r1, [sp, #28]
 1532 026e 8142     		cmp	r1, r0
 1533 0270 0ADD     		ble	.L51
 702:lvgl/src/widgets/lv_table.c ****             }
 1534              		.loc 1 702 17 is_stmt 1 view .LVU525
 702:lvgl/src/widgets/lv_table.c ****             }
 1535              		.loc 1 702 33 is_stmt 0 view .LVU526
 1536 0272 89B2     		uxth	r1, r1
 702:lvgl/src/widgets/lv_table.c ****             }
 1537              		.loc 1 702 52 view .LVU527
 1538 0274 BDF95401 		ldrsh	r0, [sp, #340]
 702:lvgl/src/widgets/lv_table.c ****             }
 1539              		.loc 1 702 37 view .LVU528
 1540 0278 8646     		mov	lr, r0
 1541 027a 0028     		cmp	r0, #0
 1542 027c C0F2F780 		blt	.L80
 1543              	.L52:
 1544 0280 A1EB6E01 		sub	r1, r1, lr, asr #1
 1545 0284 ADF86610 		strh	r1, [sp, #102]	@ movhi
 1546              	.L51:
 704:lvgl/src/widgets/lv_table.c ****                 cell_area_border.x2 += rect_dsc_def.border_width / 2 + (rect_dsc_def.border_width &
 1547              		.loc 1 704 13 is_stmt 1 view .LVU529
 704:lvgl/src/widgets/lv_table.c ****                 cell_area_border.x2 += rect_dsc_def.border_width / 2 + (rect_dsc_def.border_width &
 1548              		.loc 1 704 15 is_stmt 0 view .LVU530
 1549 0288 12F0080F 		tst	r2, #8
 1550 028c 16D0     		beq	.L53
ARM GAS  C:\usertemp\ccJd89Xr.s 			page 65


 704:lvgl/src/widgets/lv_table.c ****                 cell_area_border.x2 += rect_dsc_def.border_width / 2 + (rect_dsc_def.border_width &
 1551              		.loc 1 704 102 discriminator 1 view .LVU531
 1552 028e B7F91810 		ldrsh	r1, [r7, #24]
 704:lvgl/src/widgets/lv_table.c ****                 cell_area_border.x2 += rect_dsc_def.border_width / 2 + (rect_dsc_def.border_width &
 1553              		.loc 1 704 106 discriminator 1 view .LVU532
 1554 0292 0E98     		ldr	r0, [sp, #56]
 1555 0294 091A     		subs	r1, r1, r0
 704:lvgl/src/widgets/lv_table.c ****                 cell_area_border.x2 += rect_dsc_def.border_width / 2 + (rect_dsc_def.border_width &
 1556              		.loc 1 704 117 discriminator 1 view .LVU533
 1557 0296 0139     		subs	r1, r1, #1
 704:lvgl/src/widgets/lv_table.c ****                 cell_area_border.x2 += rect_dsc_def.border_width / 2 + (rect_dsc_def.border_width &
 1558              		.loc 1 704 66 discriminator 1 view .LVU534
 1559 0298 8C45     		cmp	ip, r1
 1560 029a 0FDA     		bge	.L53
 705:lvgl/src/widgets/lv_table.c ****             }
 1561              		.loc 1 705 17 is_stmt 1 view .LVU535
 705:lvgl/src/widgets/lv_table.c ****             }
 1562              		.loc 1 705 33 is_stmt 0 view .LVU536
 1563 029c 1FFA8CFC 		uxth	ip, ip
 705:lvgl/src/widgets/lv_table.c ****             }
 1564              		.loc 1 705 52 view .LVU537
 1565 02a0 BDF95401 		ldrsh	r0, [sp, #340]
 705:lvgl/src/widgets/lv_table.c ****             }
 1566              		.loc 1 705 99 view .LVU538
 1567 02a4 00F00101 		and	r1, r0, #1
 705:lvgl/src/widgets/lv_table.c ****             }
 1568              		.loc 1 705 70 view .LVU539
 1569 02a8 8646     		mov	lr, r0
 1570 02aa 0028     		cmp	r0, #0
 1571 02ac C0F2E280 		blt	.L81
 1572              	.L54:
 1573 02b0 01EB6E01 		add	r1, r1, lr, asr #1
 705:lvgl/src/widgets/lv_table.c ****             }
 1574              		.loc 1 705 37 view .LVU540
 1575 02b4 1CFA81F1 		uxtah	r1, ip, r1
 1576 02b8 ADF86810 		strh	r1, [sp, #104]	@ movhi
 1577              	.L53:
 707:lvgl/src/widgets/lv_table.c ****                cell_area_border.y2 < obj->coords.y2 - bg_bottom - 1) {
 1578              		.loc 1 707 13 is_stmt 1 view .LVU541
 707:lvgl/src/widgets/lv_table.c ****                cell_area_border.y2 < obj->coords.y2 - bg_bottom - 1) {
 1579              		.loc 1 707 15 is_stmt 0 view .LVU542
 1580 02bc 12F0010F 		tst	r2, #1
 1581 02c0 15D0     		beq	.L55
 708:lvgl/src/widgets/lv_table.c ****                 cell_area_border.y2 += rect_dsc_def.border_width / 2 + (rect_dsc_def.border_width &
 1582              		.loc 1 708 49 view .LVU543
 1583 02c2 B7F91A20 		ldrsh	r2, [r7, #26]
 708:lvgl/src/widgets/lv_table.c ****                 cell_area_border.y2 += rect_dsc_def.border_width / 2 + (rect_dsc_def.border_width &
 1584              		.loc 1 708 53 view .LVU544
 1585 02c6 1099     		ldr	r1, [sp, #64]
 1586 02c8 521A     		subs	r2, r2, r1
 708:lvgl/src/widgets/lv_table.c ****                 cell_area_border.y2 += rect_dsc_def.border_width / 2 + (rect_dsc_def.border_width &
 1587              		.loc 1 708 65 view .LVU545
 1588 02ca 013A     		subs	r2, r2, #1
 707:lvgl/src/widgets/lv_table.c ****                cell_area_border.y2 < obj->coords.y2 - bg_bottom - 1) {
 1589              		.loc 1 707 67 discriminator 1 view .LVU546
 1590 02cc 9342     		cmp	r3, r2
 1591 02ce 0EDA     		bge	.L55
ARM GAS  C:\usertemp\ccJd89Xr.s 			page 66


 709:lvgl/src/widgets/lv_table.c ****             }
 1592              		.loc 1 709 17 is_stmt 1 view .LVU547
 709:lvgl/src/widgets/lv_table.c ****             }
 1593              		.loc 1 709 33 is_stmt 0 view .LVU548
 1594 02d0 9BB2     		uxth	r3, r3
 709:lvgl/src/widgets/lv_table.c ****             }
 1595              		.loc 1 709 52 view .LVU549
 1596 02d2 BDF95411 		ldrsh	r1, [sp, #340]
 709:lvgl/src/widgets/lv_table.c ****             }
 1597              		.loc 1 709 99 view .LVU550
 1598 02d6 01F00102 		and	r2, r1, #1
 709:lvgl/src/widgets/lv_table.c ****             }
 1599              		.loc 1 709 70 view .LVU551
 1600 02da 0846     		mov	r0, r1
 1601 02dc 0029     		cmp	r1, #0
 1602 02de C0F2CC80 		blt	.L82
 1603              	.L56:
 1604 02e2 02EB6002 		add	r2, r2, r0, asr #1
 709:lvgl/src/widgets/lv_table.c ****             }
 1605              		.loc 1 709 37 view .LVU552
 1606 02e6 13FA82F3 		uxtah	r3, r3, r2
 1607 02ea ADF86A30 		strh	r3, [sp, #106]	@ movhi
 1608              	.L55:
 712:lvgl/src/widgets/lv_table.c ****             if(row == table->row_act && col == table->col_act) {
 1609              		.loc 1 712 13 is_stmt 1 view .LVU553
 1610              	.LVL161:
 713:lvgl/src/widgets/lv_table.c ****                 if(!(obj->state & LV_STATE_SCROLLED) && (obj->state & LV_STATE_PRESSED)) cell_state
 1611              		.loc 1 713 13 view .LVU554
 713:lvgl/src/widgets/lv_table.c ****                 if(!(obj->state & LV_STATE_SCROLLED) && (obj->state & LV_STATE_PRESSED)) cell_state
 1612              		.loc 1 713 28 is_stmt 0 view .LVU555
 1613 02ee FB8E     		ldrh	r3, [r7, #54]
 713:lvgl/src/widgets/lv_table.c ****                 if(!(obj->state & LV_STATE_SCROLLED) && (obj->state & LV_STATE_PRESSED)) cell_state
 1614              		.loc 1 713 15 view .LVU556
 1615 02f0 069A     		ldr	r2, [sp, #24]
 1616 02f2 9342     		cmp	r3, r2
 1617 02f4 03D1     		bne	.L57
 713:lvgl/src/widgets/lv_table.c ****                 if(!(obj->state & LV_STATE_SCROLLED) && (obj->state & LV_STATE_PRESSED)) cell_state
 1618              		.loc 1 713 53 discriminator 1 view .LVU557
 1619 02f6 BB8E     		ldrh	r3, [r7, #52]
 713:lvgl/src/widgets/lv_table.c ****                 if(!(obj->state & LV_STATE_SCROLLED) && (obj->state & LV_STATE_PRESSED)) cell_state
 1620              		.loc 1 713 38 discriminator 1 view .LVU558
 1621 02f8 AB42     		cmp	r3, r5
 1622 02fa 00F0C080 		beq	.L83
 1623              	.LVL162:
 1624              	.L57:
 722:lvgl/src/widgets/lv_table.c ****                 lv_memcpy(&label_dsc_act, &label_dsc_def, sizeof(lv_draw_label_dsc_t));
 1625              		.loc 1 722 17 is_stmt 1 view .LVU559
 1626 02fe 3822     		movs	r2, #56
 1627 0300 4DA9     		add	r1, sp, #308
 1628 0302 3FA8     		add	r0, sp, #252
 1629 0304 FFF7FEFF 		bl	lv_memcpy
 1630              	.LVL163:
 723:lvgl/src/widgets/lv_table.c ****             }
 1631              		.loc 1 723 17 view .LVU560
 1632 0308 2022     		movs	r2, #32
 1633 030a 37A9     		add	r1, sp, #220
 1634 030c 2FA8     		add	r0, sp, #188
ARM GAS  C:\usertemp\ccJd89Xr.s 			page 67


 1635 030e FFF7FEFF 		bl	lv_memcpy
 1636              	.LVL164:
 1637              	.L63:
 737:lvgl/src/widgets/lv_table.c ****             part_draw_dsc.id = row * table->col_cnt + col;
 1638              		.loc 1 737 13 view .LVU561
 737:lvgl/src/widgets/lv_table.c ****             part_draw_dsc.id = row * table->col_cnt + col;
 1639              		.loc 1 737 37 is_stmt 0 view .LVU562
 1640 0312 0DF1640B 		add	fp, sp, #100
 1641 0316 CDF880B0 		str	fp, [sp, #128]
 738:lvgl/src/widgets/lv_table.c ****             lv_event_send(obj, LV_EVENT_DRAW_PART_BEGIN, &part_draw_dsc);
 1642              		.loc 1 738 13 is_stmt 1 view .LVU563
 738:lvgl/src/widgets/lv_table.c ****             lv_event_send(obj, LV_EVENT_DRAW_PART_BEGIN, &part_draw_dsc);
 1643              		.loc 1 738 43 is_stmt 0 view .LVU564
 1644 031a BB8C     		ldrh	r3, [r7, #36]
 738:lvgl/src/widgets/lv_table.c ****             lv_event_send(obj, LV_EVENT_DRAW_PART_BEGIN, &part_draw_dsc);
 1645              		.loc 1 738 53 view .LVU565
 1646 031c 059A     		ldr	r2, [sp, #20]
 1647 031e 0699     		ldr	r1, [sp, #24]
 1648 0320 03FB0123 		mla	r3, r3, r1, r2
 738:lvgl/src/widgets/lv_table.c ****             lv_event_send(obj, LV_EVENT_DRAW_PART_BEGIN, &part_draw_dsc);
 1649              		.loc 1 738 30 view .LVU566
 1650 0324 2B93     		str	r3, [sp, #172]
 739:lvgl/src/widgets/lv_table.c **** 
 1651              		.loc 1 739 13 is_stmt 1 view .LVU567
 1652 0326 1DAA     		add	r2, sp, #116
 1653 0328 1A21     		movs	r1, #26
 1654 032a 3846     		mov	r0, r7
 1655 032c FFF7FEFF 		bl	lv_event_send
 1656              	.LVL165:
 741:lvgl/src/widgets/lv_table.c **** 
 1657              		.loc 1 741 13 view .LVU568
 1658 0330 5A46     		mov	r2, fp
 1659 0332 3FA9     		add	r1, sp, #252
 1660 0334 0898     		ldr	r0, [sp, #32]
 1661 0336 FFF7FEFF 		bl	lv_draw_rect
 1662              	.LVL166:
 743:lvgl/src/widgets/lv_table.c ****                 txt_area.x1 = cell_area.x1 + cell_left;
 1663              		.loc 1 743 13 view .LVU569
 743:lvgl/src/widgets/lv_table.c ****                 txt_area.x1 = cell_area.x1 + cell_left;
 1664              		.loc 1 743 21 is_stmt 0 view .LVU570
 1665 033a B96A     		ldr	r1, [r7, #40]
 743:lvgl/src/widgets/lv_table.c ****                 txt_area.x1 = cell_area.x1 + cell_left;
 1666              		.loc 1 743 32 view .LVU571
 1667 033c 51F80A30 		ldr	r3, [r1, r10]
 743:lvgl/src/widgets/lv_table.c ****                 txt_area.x1 = cell_area.x1 + cell_left;
 1668              		.loc 1 743 15 view .LVU572
 1669 0340 002B     		cmp	r3, #0
 1670 0342 54D0     		beq	.L64
 1671              	.LBB150:
 744:lvgl/src/widgets/lv_table.c ****                 txt_area.x2 = cell_area.x2 - cell_right;
 1672              		.loc 1 744 17 is_stmt 1 view .LVU573
 744:lvgl/src/widgets/lv_table.c ****                 txt_area.x2 = cell_area.x2 - cell_right;
 1673              		.loc 1 744 40 is_stmt 0 view .LVU574
 1674 0344 BDF87431 		ldrh	r3, [sp, #372]
 744:lvgl/src/widgets/lv_table.c ****                 txt_area.x2 = cell_area.x2 - cell_right;
 1675              		.loc 1 744 44 view .LVU575
 1676 0348 0C9A     		ldr	r2, [sp, #48]
ARM GAS  C:\usertemp\ccJd89Xr.s 			page 68


 1677 034a 1344     		add	r3, r3, r2
 1678 034c 98B2     		uxth	r0, r3
 744:lvgl/src/widgets/lv_table.c ****                 txt_area.x2 = cell_area.x2 - cell_right;
 1679              		.loc 1 744 29 view .LVU576
 1680 034e ADF86C31 		strh	r3, [sp, #364]	@ movhi
 745:lvgl/src/widgets/lv_table.c ****                 txt_area.y1 = cell_area.y1 + cell_top;
 1681              		.loc 1 745 17 is_stmt 1 view .LVU577
 745:lvgl/src/widgets/lv_table.c ****                 txt_area.y1 = cell_area.y1 + cell_top;
 1682              		.loc 1 745 40 is_stmt 0 view .LVU578
 1683 0352 BDF87821 		ldrh	r2, [sp, #376]
 745:lvgl/src/widgets/lv_table.c ****                 txt_area.y1 = cell_area.y1 + cell_top;
 1684              		.loc 1 745 44 view .LVU579
 1685 0356 0B9B     		ldr	r3, [sp, #44]
 1686 0358 D21A     		subs	r2, r2, r3
 1687 035a 1FFA82FC 		uxth	ip, r2
 745:lvgl/src/widgets/lv_table.c ****                 txt_area.y1 = cell_area.y1 + cell_top;
 1688              		.loc 1 745 29 view .LVU580
 1689 035e ADF87021 		strh	r2, [sp, #368]	@ movhi
 746:lvgl/src/widgets/lv_table.c ****                 txt_area.y2 = cell_area.y2 - cell_bottom;
 1690              		.loc 1 746 17 is_stmt 1 view .LVU581
 746:lvgl/src/widgets/lv_table.c ****                 txt_area.y2 = cell_area.y2 - cell_bottom;
 1691              		.loc 1 746 40 is_stmt 0 view .LVU582
 1692 0362 BDF87621 		ldrh	r2, [sp, #374]
 746:lvgl/src/widgets/lv_table.c ****                 txt_area.y2 = cell_area.y2 - cell_bottom;
 1693              		.loc 1 746 44 view .LVU583
 1694 0366 0A9B     		ldr	r3, [sp, #40]
 1695 0368 1A44     		add	r2, r2, r3
 746:lvgl/src/widgets/lv_table.c ****                 txt_area.y2 = cell_area.y2 - cell_bottom;
 1696              		.loc 1 746 29 view .LVU584
 1697 036a ADF86E21 		strh	r2, [sp, #366]	@ movhi
 747:lvgl/src/widgets/lv_table.c **** 
 1698              		.loc 1 747 17 is_stmt 1 view .LVU585
 747:lvgl/src/widgets/lv_table.c **** 
 1699              		.loc 1 747 40 is_stmt 0 view .LVU586
 1700 036e BDF87A21 		ldrh	r2, [sp, #378]
 747:lvgl/src/widgets/lv_table.c **** 
 1701              		.loc 1 747 44 view .LVU587
 1702 0372 099B     		ldr	r3, [sp, #36]
 1703 0374 D21A     		subs	r2, r2, r3
 747:lvgl/src/widgets/lv_table.c **** 
 1704              		.loc 1 747 29 view .LVU588
 1705 0376 ADF87221 		strh	r2, [sp, #370]	@ movhi
 750:lvgl/src/widgets/lv_table.c ****                 if(crop) txt_flags = LV_TEXT_FLAG_EXPAND;
 1706              		.loc 1 750 17 is_stmt 1 view .LVU589
 1707              	.LVL167:
 751:lvgl/src/widgets/lv_table.c ****                 else txt_flags = LV_TEXT_FLAG_NONE;
 1708              		.loc 1 751 17 view .LVU590
 751:lvgl/src/widgets/lv_table.c ****                 else txt_flags = LV_TEXT_FLAG_NONE;
 1709              		.loc 1 751 19 is_stmt 0 view .LVU591
 1710 037a 19F00209 		ands	r9, r9, #2
 1711              	.LVL168:
 751:lvgl/src/widgets/lv_table.c ****                 else txt_flags = LV_TEXT_FLAG_NONE;
 1712              		.loc 1 751 19 view .LVU592
 1713 037e 00F0B880 		beq	.L74
 751:lvgl/src/widgets/lv_table.c ****                 else txt_flags = LV_TEXT_FLAG_NONE;
 1714              		.loc 1 751 36 discriminator 1 view .LVU593
 1715 0382 0222     		movs	r2, #2
ARM GAS  C:\usertemp\ccJd89Xr.s 			page 69


 1716              	.L65:
 1717              	.LVL169:
 754:lvgl/src/widgets/lv_table.c ****                                 label_dsc_act.letter_space, label_dsc_act.line_space,
 1718              		.loc 1 754 17 is_stmt 1 view .LVU594
 754:lvgl/src/widgets/lv_table.c ****                                 label_dsc_act.letter_space, label_dsc_act.line_space,
 1719              		.loc 1 754 60 is_stmt 0 view .LVU595
 1720 0384 51F80A10 		ldr	r1, [r1, r10]
 1721              	.LVL170:
 1722              	.LBB151:
 1723              	.LBI151:
 116:lvgl/src/widgets/../core/../misc/../font/../misc/lv_area.h **** }
 117:lvgl/src/widgets/../core/../misc/../font/../misc/lv_area.h **** 
 118:lvgl/src/widgets/../core/../misc/../font/../misc/lv_area.h **** /**
 119:lvgl/src/widgets/../core/../misc/../font/../misc/lv_area.h ****  * Get the width of an area
 120:lvgl/src/widgets/../core/../misc/../font/../misc/lv_area.h ****  * @param area_p pointer to an area
 121:lvgl/src/widgets/../core/../misc/../font/../misc/lv_area.h ****  * @return the width of the area (if x1 == x2 -> width = 1)
 122:lvgl/src/widgets/../core/../misc/../font/../misc/lv_area.h ****  */
 123:lvgl/src/widgets/../core/../misc/../font/../misc/lv_area.h **** static inline lv_coord_t lv_area_get_width(const lv_area_t * area_p)
 1724              		.loc 4 123 26 is_stmt 1 view .LVU596
 1725              	.LBB152:
 124:lvgl/src/widgets/../core/../misc/../font/../misc/lv_area.h **** {
 125:lvgl/src/widgets/../core/../misc/../font/../misc/lv_area.h ****     return (lv_coord_t)(area_p->x2 - area_p->x1 + 1);
 1726              		.loc 4 125 5 view .LVU597
 1727              		.loc 4 125 36 is_stmt 0 view .LVU598
 1728 0388 ACEB0003 		sub	r3, ip, r0
 1729 038c 9BB2     		uxth	r3, r3
 1730              		.loc 4 125 49 view .LVU599
 1731 038e 0133     		adds	r3, r3, #1
 1732              		.loc 4 125 12 view .LVU600
 1733 0390 1BB2     		sxth	r3, r3
 1734              	.LVL171:
 1735              		.loc 4 125 12 view .LVU601
 1736              	.LBE152:
 1737              	.LBE151:
 754:lvgl/src/widgets/lv_table.c ****                                 label_dsc_act.letter_space, label_dsc_act.line_space,
 1738              		.loc 1 754 17 discriminator 1 view .LVU602
 1739 0392 0292     		str	r2, [sp, #8]
 1740 0394 0193     		str	r3, [sp, #4]
 1741 0396 BDF9CE30 		ldrsh	r3, [sp, #206]
 1742 039a 0093     		str	r3, [sp]
 1743 039c BDF9D030 		ldrsh	r3, [sp, #208]
 1744 03a0 379A     		ldr	r2, [sp, #220]
