ARM GAS  C:\usertemp\ccWXrwmL.s 			page 1


   1              		.cpu cortex-m7
   2              		.arch armv7e-m
   3              		.fpu fpv5-d16
   4              		.eabi_attribute 28, 1
   5              		.eabi_attribute 20, 1
   6              		.eabi_attribute 21, 1
   7              		.eabi_attribute 23, 3
   8              		.eabi_attribute 24, 1
   9              		.eabi_attribute 25, 1
  10              		.eabi_attribute 26, 1
  11              		.eabi_attribute 30, 1
  12              		.eabi_attribute 34, 1
  13              		.eabi_attribute 18, 4
  14              		.file	"lv_tabview.c"
  15              		.text
  16              	.Ltext0:
  17              		.cfi_sections	.debug_frame
  18              		.file 1 "lvgl/src/extra/widgets/tabview/lv_tabview.c"
  19              		.section	.text.lv_tabview_destructor,"ax",%progbits
  20              		.align	1
  21              		.syntax unified
  22              		.thumb
  23              		.thumb_func
  25              	lv_tabview_destructor:
  26              	.LVL0:
  27              	.LFB203:
   1:lvgl/src/extra/widgets/tabview/lv_tabview.c **** /**
   2:lvgl/src/extra/widgets/tabview/lv_tabview.c ****  * @file lv_tabview.c
   3:lvgl/src/extra/widgets/tabview/lv_tabview.c ****  *
   4:lvgl/src/extra/widgets/tabview/lv_tabview.c ****  */
   5:lvgl/src/extra/widgets/tabview/lv_tabview.c **** 
   6:lvgl/src/extra/widgets/tabview/lv_tabview.c **** /*********************
   7:lvgl/src/extra/widgets/tabview/lv_tabview.c ****  *      INCLUDES
   8:lvgl/src/extra/widgets/tabview/lv_tabview.c ****  *********************/
   9:lvgl/src/extra/widgets/tabview/lv_tabview.c **** #include "lv_tabview.h"
  10:lvgl/src/extra/widgets/tabview/lv_tabview.c **** #if LV_USE_TABVIEW
  11:lvgl/src/extra/widgets/tabview/lv_tabview.c **** 
  12:lvgl/src/extra/widgets/tabview/lv_tabview.c **** #include "../../../misc/lv_assert.h"
  13:lvgl/src/extra/widgets/tabview/lv_tabview.c **** 
  14:lvgl/src/extra/widgets/tabview/lv_tabview.c **** /*********************
  15:lvgl/src/extra/widgets/tabview/lv_tabview.c ****  *      DEFINES
  16:lvgl/src/extra/widgets/tabview/lv_tabview.c ****  *********************/
  17:lvgl/src/extra/widgets/tabview/lv_tabview.c **** #define MY_CLASS    &lv_tabview_class
  18:lvgl/src/extra/widgets/tabview/lv_tabview.c **** 
  19:lvgl/src/extra/widgets/tabview/lv_tabview.c **** /**********************
  20:lvgl/src/extra/widgets/tabview/lv_tabview.c ****  *      TYPEDEFS
  21:lvgl/src/extra/widgets/tabview/lv_tabview.c ****  **********************/
  22:lvgl/src/extra/widgets/tabview/lv_tabview.c **** 
  23:lvgl/src/extra/widgets/tabview/lv_tabview.c **** /**********************
  24:lvgl/src/extra/widgets/tabview/lv_tabview.c ****  *  STATIC PROTOTYPES
  25:lvgl/src/extra/widgets/tabview/lv_tabview.c ****  **********************/
  26:lvgl/src/extra/widgets/tabview/lv_tabview.c **** static void lv_tabview_constructor(const lv_obj_class_t * class_p, lv_obj_t * obj);
  27:lvgl/src/extra/widgets/tabview/lv_tabview.c **** static void lv_tabview_destructor(const lv_obj_class_t * class_p, lv_obj_t * obj);
  28:lvgl/src/extra/widgets/tabview/lv_tabview.c **** static void lv_tabview_event(const lv_obj_class_t * class_p, lv_event_t * e);
  29:lvgl/src/extra/widgets/tabview/lv_tabview.c **** static void btns_value_changed_event_cb(lv_event_t * e);
  30:lvgl/src/extra/widgets/tabview/lv_tabview.c **** static void cont_scroll_end_event_cb(lv_event_t * e);
  31:lvgl/src/extra/widgets/tabview/lv_tabview.c **** 
ARM GAS  C:\usertemp\ccWXrwmL.s 			page 2


  32:lvgl/src/extra/widgets/tabview/lv_tabview.c **** /**********************
  33:lvgl/src/extra/widgets/tabview/lv_tabview.c ****  *  STATIC VARIABLES
  34:lvgl/src/extra/widgets/tabview/lv_tabview.c ****  **********************/
  35:lvgl/src/extra/widgets/tabview/lv_tabview.c **** const lv_obj_class_t lv_tabview_class = {
  36:lvgl/src/extra/widgets/tabview/lv_tabview.c ****     .constructor_cb = lv_tabview_constructor,
  37:lvgl/src/extra/widgets/tabview/lv_tabview.c ****     .destructor_cb = lv_tabview_destructor,
  38:lvgl/src/extra/widgets/tabview/lv_tabview.c ****     .event_cb = lv_tabview_event,
  39:lvgl/src/extra/widgets/tabview/lv_tabview.c ****     .width_def = LV_PCT(100),
  40:lvgl/src/extra/widgets/tabview/lv_tabview.c ****     .height_def = LV_PCT(100),
  41:lvgl/src/extra/widgets/tabview/lv_tabview.c ****     .base_class = &lv_obj_class,
  42:lvgl/src/extra/widgets/tabview/lv_tabview.c ****     .instance_size = sizeof(lv_tabview_t)
  43:lvgl/src/extra/widgets/tabview/lv_tabview.c **** };
  44:lvgl/src/extra/widgets/tabview/lv_tabview.c **** 
  45:lvgl/src/extra/widgets/tabview/lv_tabview.c **** static lv_dir_t tabpos_create;
  46:lvgl/src/extra/widgets/tabview/lv_tabview.c **** static lv_coord_t tabsize_create;
  47:lvgl/src/extra/widgets/tabview/lv_tabview.c **** 
  48:lvgl/src/extra/widgets/tabview/lv_tabview.c **** /**********************
  49:lvgl/src/extra/widgets/tabview/lv_tabview.c ****  *      MACROS
  50:lvgl/src/extra/widgets/tabview/lv_tabview.c ****  **********************/
  51:lvgl/src/extra/widgets/tabview/lv_tabview.c **** 
  52:lvgl/src/extra/widgets/tabview/lv_tabview.c **** /**********************
  53:lvgl/src/extra/widgets/tabview/lv_tabview.c ****  *   GLOBAL FUNCTIONS
  54:lvgl/src/extra/widgets/tabview/lv_tabview.c ****  **********************/
  55:lvgl/src/extra/widgets/tabview/lv_tabview.c **** 
  56:lvgl/src/extra/widgets/tabview/lv_tabview.c **** lv_obj_t * lv_tabview_create(lv_obj_t * parent, lv_dir_t tab_pos, lv_coord_t tab_size)
  57:lvgl/src/extra/widgets/tabview/lv_tabview.c **** {
  58:lvgl/src/extra/widgets/tabview/lv_tabview.c ****     LV_LOG_INFO("begin");
  59:lvgl/src/extra/widgets/tabview/lv_tabview.c ****     tabpos_create = tab_pos;
  60:lvgl/src/extra/widgets/tabview/lv_tabview.c ****     tabsize_create = tab_size;
  61:lvgl/src/extra/widgets/tabview/lv_tabview.c **** 
  62:lvgl/src/extra/widgets/tabview/lv_tabview.c ****     lv_obj_t * obj = lv_obj_class_create_obj(&lv_tabview_class, parent);
  63:lvgl/src/extra/widgets/tabview/lv_tabview.c ****     lv_obj_class_init_obj(obj);
  64:lvgl/src/extra/widgets/tabview/lv_tabview.c ****     return obj;
  65:lvgl/src/extra/widgets/tabview/lv_tabview.c **** }
  66:lvgl/src/extra/widgets/tabview/lv_tabview.c **** 
  67:lvgl/src/extra/widgets/tabview/lv_tabview.c **** lv_obj_t * lv_tabview_add_tab(lv_obj_t * obj, const char * name)
  68:lvgl/src/extra/widgets/tabview/lv_tabview.c **** {
  69:lvgl/src/extra/widgets/tabview/lv_tabview.c ****     LV_ASSERT_OBJ(obj, MY_CLASS);
  70:lvgl/src/extra/widgets/tabview/lv_tabview.c ****     lv_tabview_t * tabview = (lv_tabview_t *)obj;
  71:lvgl/src/extra/widgets/tabview/lv_tabview.c ****     lv_obj_t * cont = lv_tabview_get_content(obj);
  72:lvgl/src/extra/widgets/tabview/lv_tabview.c **** 
  73:lvgl/src/extra/widgets/tabview/lv_tabview.c ****     lv_obj_t * page = lv_obj_create(cont);
  74:lvgl/src/extra/widgets/tabview/lv_tabview.c ****     lv_obj_set_size(page, LV_PCT(100), LV_PCT(100));
  75:lvgl/src/extra/widgets/tabview/lv_tabview.c ****     lv_obj_clear_flag(page, LV_OBJ_FLAG_CLICK_FOCUSABLE);
  76:lvgl/src/extra/widgets/tabview/lv_tabview.c ****     uint32_t tab_id = lv_obj_get_child_cnt(cont);
  77:lvgl/src/extra/widgets/tabview/lv_tabview.c **** 
  78:lvgl/src/extra/widgets/tabview/lv_tabview.c ****     lv_obj_t * btns = lv_tabview_get_tab_btns(obj);
  79:lvgl/src/extra/widgets/tabview/lv_tabview.c **** 
  80:lvgl/src/extra/widgets/tabview/lv_tabview.c ****     char ** old_map = tabview->map;
  81:lvgl/src/extra/widgets/tabview/lv_tabview.c ****     char ** new_map;
  82:lvgl/src/extra/widgets/tabview/lv_tabview.c **** 
  83:lvgl/src/extra/widgets/tabview/lv_tabview.c ****     /*top or bottom dir*/
  84:lvgl/src/extra/widgets/tabview/lv_tabview.c ****     if(tabview->tab_pos & LV_DIR_VER) {
  85:lvgl/src/extra/widgets/tabview/lv_tabview.c ****         new_map = lv_mem_alloc((tab_id + 1) * sizeof(const char *));
  86:lvgl/src/extra/widgets/tabview/lv_tabview.c ****         lv_memcpy_small(new_map, old_map, sizeof(const char *) * (tab_id - 1));
  87:lvgl/src/extra/widgets/tabview/lv_tabview.c ****         new_map[tab_id - 1] = lv_mem_alloc(strlen(name) + 1);
  88:lvgl/src/extra/widgets/tabview/lv_tabview.c ****         strcpy((char *)new_map[tab_id - 1], name);
ARM GAS  C:\usertemp\ccWXrwmL.s 			page 3


  89:lvgl/src/extra/widgets/tabview/lv_tabview.c ****         new_map[tab_id] = "";
  90:lvgl/src/extra/widgets/tabview/lv_tabview.c ****     }
  91:lvgl/src/extra/widgets/tabview/lv_tabview.c ****     /*left or right dir*/
  92:lvgl/src/extra/widgets/tabview/lv_tabview.c ****     else {
  93:lvgl/src/extra/widgets/tabview/lv_tabview.c ****         new_map = lv_mem_alloc((tab_id * 2) * sizeof(const char *));
  94:lvgl/src/extra/widgets/tabview/lv_tabview.c ****         lv_memcpy_small(new_map, old_map, sizeof(const char *) * (tab_id - 1) * 2);
  95:lvgl/src/extra/widgets/tabview/lv_tabview.c ****         if(tabview->tab_cnt == 0) {
  96:lvgl/src/extra/widgets/tabview/lv_tabview.c ****             new_map[0] = lv_mem_alloc(strlen(name) + 1);
  97:lvgl/src/extra/widgets/tabview/lv_tabview.c ****             strcpy((char *)new_map[0], name);
  98:lvgl/src/extra/widgets/tabview/lv_tabview.c ****             new_map[1] = "";
  99:lvgl/src/extra/widgets/tabview/lv_tabview.c ****         }
 100:lvgl/src/extra/widgets/tabview/lv_tabview.c ****         else {
 101:lvgl/src/extra/widgets/tabview/lv_tabview.c ****             new_map[tab_id * 2 - 3] = "\n";
 102:lvgl/src/extra/widgets/tabview/lv_tabview.c ****             new_map[tab_id * 2 - 2] = lv_mem_alloc(strlen(name) + 1);
 103:lvgl/src/extra/widgets/tabview/lv_tabview.c ****             new_map[tab_id * 2 - 1] = "";
 104:lvgl/src/extra/widgets/tabview/lv_tabview.c ****             strcpy((char *)new_map[(tab_id * 2) - 2], name);
 105:lvgl/src/extra/widgets/tabview/lv_tabview.c ****         }
 106:lvgl/src/extra/widgets/tabview/lv_tabview.c ****     }
 107:lvgl/src/extra/widgets/tabview/lv_tabview.c ****     tabview->map = new_map;
 108:lvgl/src/extra/widgets/tabview/lv_tabview.c ****     lv_btnmatrix_set_map(btns, (const char **)new_map);
 109:lvgl/src/extra/widgets/tabview/lv_tabview.c ****     lv_mem_free(old_map);
 110:lvgl/src/extra/widgets/tabview/lv_tabview.c **** 
 111:lvgl/src/extra/widgets/tabview/lv_tabview.c ****     lv_btnmatrix_set_btn_ctrl_all(btns, LV_BTNMATRIX_CTRL_CHECKABLE | LV_BTNMATRIX_CTRL_CLICK_TRIG 
 112:lvgl/src/extra/widgets/tabview/lv_tabview.c ****                                   LV_BTNMATRIX_CTRL_NO_REPEAT);
 113:lvgl/src/extra/widgets/tabview/lv_tabview.c **** 
 114:lvgl/src/extra/widgets/tabview/lv_tabview.c ****     tabview->tab_cnt++;
 115:lvgl/src/extra/widgets/tabview/lv_tabview.c ****     if(tabview->tab_cnt == 1) {
 116:lvgl/src/extra/widgets/tabview/lv_tabview.c ****         lv_tabview_set_act(obj, 0, LV_ANIM_OFF);
 117:lvgl/src/extra/widgets/tabview/lv_tabview.c ****     }
 118:lvgl/src/extra/widgets/tabview/lv_tabview.c **** 
 119:lvgl/src/extra/widgets/tabview/lv_tabview.c ****     lv_btnmatrix_set_btn_ctrl(btns, tabview->tab_cur, LV_BTNMATRIX_CTRL_CHECKED);
 120:lvgl/src/extra/widgets/tabview/lv_tabview.c **** 
 121:lvgl/src/extra/widgets/tabview/lv_tabview.c ****     return page;
 122:lvgl/src/extra/widgets/tabview/lv_tabview.c **** }
 123:lvgl/src/extra/widgets/tabview/lv_tabview.c **** 
 124:lvgl/src/extra/widgets/tabview/lv_tabview.c **** void lv_tabview_set_act(lv_obj_t * obj, uint32_t id, lv_anim_enable_t anim_en)
 125:lvgl/src/extra/widgets/tabview/lv_tabview.c **** {
 126:lvgl/src/extra/widgets/tabview/lv_tabview.c ****     LV_ASSERT_OBJ(obj, MY_CLASS);
 127:lvgl/src/extra/widgets/tabview/lv_tabview.c ****     lv_tabview_t * tabview = (lv_tabview_t *)obj;
 128:lvgl/src/extra/widgets/tabview/lv_tabview.c **** 
 129:lvgl/src/extra/widgets/tabview/lv_tabview.c ****     if(id >= tabview->tab_cnt) {
 130:lvgl/src/extra/widgets/tabview/lv_tabview.c ****         id = tabview->tab_cnt - 1;
 131:lvgl/src/extra/widgets/tabview/lv_tabview.c ****     }
 132:lvgl/src/extra/widgets/tabview/lv_tabview.c **** 
 133:lvgl/src/extra/widgets/tabview/lv_tabview.c ****     /*To be sure lv_obj_get_content_width will return valid value*/
 134:lvgl/src/extra/widgets/tabview/lv_tabview.c ****     lv_obj_update_layout(obj);
 135:lvgl/src/extra/widgets/tabview/lv_tabview.c **** 
 136:lvgl/src/extra/widgets/tabview/lv_tabview.c ****     lv_obj_t * cont = lv_tabview_get_content(obj);
 137:lvgl/src/extra/widgets/tabview/lv_tabview.c ****     if(cont == NULL) return;
 138:lvgl/src/extra/widgets/tabview/lv_tabview.c ****     lv_coord_t gap = lv_obj_get_style_pad_column(cont, LV_PART_MAIN);
 139:lvgl/src/extra/widgets/tabview/lv_tabview.c ****     lv_coord_t w = lv_obj_get_content_width(cont);
 140:lvgl/src/extra/widgets/tabview/lv_tabview.c ****     if(lv_obj_get_style_base_dir(obj, LV_PART_MAIN) != LV_BASE_DIR_RTL) {
 141:lvgl/src/extra/widgets/tabview/lv_tabview.c ****         lv_obj_scroll_to_x(cont, id * (gap + w), anim_en);
 142:lvgl/src/extra/widgets/tabview/lv_tabview.c ****     }
 143:lvgl/src/extra/widgets/tabview/lv_tabview.c ****     else {
 144:lvgl/src/extra/widgets/tabview/lv_tabview.c ****         int32_t id_rtl = -(int32_t)id;
 145:lvgl/src/extra/widgets/tabview/lv_tabview.c ****         lv_obj_scroll_to_x(cont, (gap + w) * id_rtl, anim_en);
ARM GAS  C:\usertemp\ccWXrwmL.s 			page 4


 146:lvgl/src/extra/widgets/tabview/lv_tabview.c ****     }
 147:lvgl/src/extra/widgets/tabview/lv_tabview.c **** 
 148:lvgl/src/extra/widgets/tabview/lv_tabview.c ****     lv_obj_t * btns = lv_tabview_get_tab_btns(obj);
 149:lvgl/src/extra/widgets/tabview/lv_tabview.c ****     lv_btnmatrix_set_btn_ctrl(btns, id, LV_BTNMATRIX_CTRL_CHECKED);
 150:lvgl/src/extra/widgets/tabview/lv_tabview.c ****     tabview->tab_cur = id;
 151:lvgl/src/extra/widgets/tabview/lv_tabview.c **** }
 152:lvgl/src/extra/widgets/tabview/lv_tabview.c **** 
 153:lvgl/src/extra/widgets/tabview/lv_tabview.c **** uint16_t lv_tabview_get_tab_act(lv_obj_t * obj)
 154:lvgl/src/extra/widgets/tabview/lv_tabview.c **** {
 155:lvgl/src/extra/widgets/tabview/lv_tabview.c ****     LV_ASSERT_OBJ(obj, MY_CLASS);
 156:lvgl/src/extra/widgets/tabview/lv_tabview.c ****     lv_tabview_t * tabview = (lv_tabview_t *)obj;
 157:lvgl/src/extra/widgets/tabview/lv_tabview.c ****     return tabview->tab_cur;
 158:lvgl/src/extra/widgets/tabview/lv_tabview.c **** }
 159:lvgl/src/extra/widgets/tabview/lv_tabview.c **** 
 160:lvgl/src/extra/widgets/tabview/lv_tabview.c **** lv_obj_t * lv_tabview_get_content(lv_obj_t * tv)
 161:lvgl/src/extra/widgets/tabview/lv_tabview.c **** {
 162:lvgl/src/extra/widgets/tabview/lv_tabview.c ****     return lv_obj_get_child(tv, 1);
 163:lvgl/src/extra/widgets/tabview/lv_tabview.c **** }
 164:lvgl/src/extra/widgets/tabview/lv_tabview.c **** 
 165:lvgl/src/extra/widgets/tabview/lv_tabview.c **** lv_obj_t * lv_tabview_get_tab_btns(lv_obj_t * tv)
 166:lvgl/src/extra/widgets/tabview/lv_tabview.c **** {
 167:lvgl/src/extra/widgets/tabview/lv_tabview.c ****     return lv_obj_get_child(tv, 0);
 168:lvgl/src/extra/widgets/tabview/lv_tabview.c **** }
 169:lvgl/src/extra/widgets/tabview/lv_tabview.c **** 
 170:lvgl/src/extra/widgets/tabview/lv_tabview.c **** /**********************
 171:lvgl/src/extra/widgets/tabview/lv_tabview.c ****  *   STATIC FUNCTIONS
 172:lvgl/src/extra/widgets/tabview/lv_tabview.c ****  **********************/
 173:lvgl/src/extra/widgets/tabview/lv_tabview.c **** 
 174:lvgl/src/extra/widgets/tabview/lv_tabview.c **** static void lv_tabview_constructor(const lv_obj_class_t * class_p, lv_obj_t * obj)
 175:lvgl/src/extra/widgets/tabview/lv_tabview.c **** {
 176:lvgl/src/extra/widgets/tabview/lv_tabview.c ****     LV_UNUSED(class_p);
 177:lvgl/src/extra/widgets/tabview/lv_tabview.c ****     lv_tabview_t * tabview = (lv_tabview_t *)obj;
 178:lvgl/src/extra/widgets/tabview/lv_tabview.c **** 
 179:lvgl/src/extra/widgets/tabview/lv_tabview.c ****     tabview->tab_pos = tabpos_create;
 180:lvgl/src/extra/widgets/tabview/lv_tabview.c **** 
 181:lvgl/src/extra/widgets/tabview/lv_tabview.c ****     switch(tabview->tab_pos) {
 182:lvgl/src/extra/widgets/tabview/lv_tabview.c ****         case LV_DIR_TOP:
 183:lvgl/src/extra/widgets/tabview/lv_tabview.c ****             lv_obj_set_flex_flow(obj, LV_FLEX_FLOW_COLUMN);
 184:lvgl/src/extra/widgets/tabview/lv_tabview.c ****             break;
 185:lvgl/src/extra/widgets/tabview/lv_tabview.c ****         case LV_DIR_BOTTOM:
 186:lvgl/src/extra/widgets/tabview/lv_tabview.c ****             lv_obj_set_flex_flow(obj, LV_FLEX_FLOW_COLUMN_REVERSE);
 187:lvgl/src/extra/widgets/tabview/lv_tabview.c ****             break;
 188:lvgl/src/extra/widgets/tabview/lv_tabview.c ****         case LV_DIR_LEFT:
 189:lvgl/src/extra/widgets/tabview/lv_tabview.c ****             lv_obj_set_flex_flow(obj, LV_FLEX_FLOW_ROW);
 190:lvgl/src/extra/widgets/tabview/lv_tabview.c ****             break;
 191:lvgl/src/extra/widgets/tabview/lv_tabview.c ****         case LV_DIR_RIGHT:
 192:lvgl/src/extra/widgets/tabview/lv_tabview.c ****             lv_obj_set_flex_flow(obj, LV_FLEX_FLOW_ROW_REVERSE);
 193:lvgl/src/extra/widgets/tabview/lv_tabview.c ****             break;
 194:lvgl/src/extra/widgets/tabview/lv_tabview.c ****     }
 195:lvgl/src/extra/widgets/tabview/lv_tabview.c **** 
 196:lvgl/src/extra/widgets/tabview/lv_tabview.c ****     lv_obj_set_size(obj, LV_PCT(100), LV_PCT(100));
 197:lvgl/src/extra/widgets/tabview/lv_tabview.c **** 
 198:lvgl/src/extra/widgets/tabview/lv_tabview.c ****     lv_obj_t * btnm;
 199:lvgl/src/extra/widgets/tabview/lv_tabview.c ****     lv_obj_t * cont;
 200:lvgl/src/extra/widgets/tabview/lv_tabview.c **** 
 201:lvgl/src/extra/widgets/tabview/lv_tabview.c ****     btnm = lv_btnmatrix_create(obj);
 202:lvgl/src/extra/widgets/tabview/lv_tabview.c ****     cont = lv_obj_create(obj);
ARM GAS  C:\usertemp\ccWXrwmL.s 			page 5


 203:lvgl/src/extra/widgets/tabview/lv_tabview.c **** 
 204:lvgl/src/extra/widgets/tabview/lv_tabview.c ****     lv_btnmatrix_set_one_checked(btnm, true);
 205:lvgl/src/extra/widgets/tabview/lv_tabview.c ****     tabview->map = lv_mem_alloc(sizeof(const char *));
 206:lvgl/src/extra/widgets/tabview/lv_tabview.c ****     tabview->map[0] = "";
 207:lvgl/src/extra/widgets/tabview/lv_tabview.c ****     lv_btnmatrix_set_map(btnm, (const char **)tabview->map);
 208:lvgl/src/extra/widgets/tabview/lv_tabview.c ****     lv_obj_add_event_cb(btnm, btns_value_changed_event_cb, LV_EVENT_VALUE_CHANGED, NULL);
 209:lvgl/src/extra/widgets/tabview/lv_tabview.c ****     lv_obj_add_flag(btnm, LV_OBJ_FLAG_EVENT_BUBBLE);
 210:lvgl/src/extra/widgets/tabview/lv_tabview.c **** 
 211:lvgl/src/extra/widgets/tabview/lv_tabview.c ****     lv_obj_add_event_cb(cont, cont_scroll_end_event_cb, LV_EVENT_ALL, NULL);
 212:lvgl/src/extra/widgets/tabview/lv_tabview.c ****     lv_obj_set_scrollbar_mode(cont, LV_SCROLLBAR_MODE_OFF);
 213:lvgl/src/extra/widgets/tabview/lv_tabview.c **** 
 214:lvgl/src/extra/widgets/tabview/lv_tabview.c ****     switch(tabview->tab_pos) {
 215:lvgl/src/extra/widgets/tabview/lv_tabview.c ****         case LV_DIR_TOP:
 216:lvgl/src/extra/widgets/tabview/lv_tabview.c ****         case LV_DIR_BOTTOM:
 217:lvgl/src/extra/widgets/tabview/lv_tabview.c ****             lv_obj_set_size(btnm, LV_PCT(100), tabsize_create);
 218:lvgl/src/extra/widgets/tabview/lv_tabview.c ****             lv_obj_set_width(cont, LV_PCT(100));
 219:lvgl/src/extra/widgets/tabview/lv_tabview.c ****             lv_obj_set_flex_grow(cont, 1);
 220:lvgl/src/extra/widgets/tabview/lv_tabview.c ****             break;
 221:lvgl/src/extra/widgets/tabview/lv_tabview.c ****         case LV_DIR_LEFT:
 222:lvgl/src/extra/widgets/tabview/lv_tabview.c ****         case LV_DIR_RIGHT:
 223:lvgl/src/extra/widgets/tabview/lv_tabview.c ****             lv_obj_set_size(btnm, tabsize_create, LV_PCT(100));
 224:lvgl/src/extra/widgets/tabview/lv_tabview.c ****             lv_obj_set_height(cont, LV_PCT(100));
 225:lvgl/src/extra/widgets/tabview/lv_tabview.c ****             lv_obj_set_flex_grow(cont, 1);
 226:lvgl/src/extra/widgets/tabview/lv_tabview.c ****             break;
 227:lvgl/src/extra/widgets/tabview/lv_tabview.c ****     }
 228:lvgl/src/extra/widgets/tabview/lv_tabview.c **** 
 229:lvgl/src/extra/widgets/tabview/lv_tabview.c ****     lv_group_t * g = lv_group_get_default();
 230:lvgl/src/extra/widgets/tabview/lv_tabview.c ****     if(g) lv_group_add_obj(g, btnm);
 231:lvgl/src/extra/widgets/tabview/lv_tabview.c **** 
 232:lvgl/src/extra/widgets/tabview/lv_tabview.c ****     lv_obj_set_flex_flow(cont, LV_FLEX_FLOW_ROW);
 233:lvgl/src/extra/widgets/tabview/lv_tabview.c ****     lv_obj_set_scroll_snap_x(cont, LV_SCROLL_SNAP_CENTER);
 234:lvgl/src/extra/widgets/tabview/lv_tabview.c ****     lv_obj_add_flag(cont, LV_OBJ_FLAG_SCROLL_ONE);
 235:lvgl/src/extra/widgets/tabview/lv_tabview.c ****     lv_obj_clear_flag(cont, LV_OBJ_FLAG_SCROLL_ON_FOCUS);
 236:lvgl/src/extra/widgets/tabview/lv_tabview.c **** }
 237:lvgl/src/extra/widgets/tabview/lv_tabview.c **** 
 238:lvgl/src/extra/widgets/tabview/lv_tabview.c **** static void lv_tabview_destructor(const lv_obj_class_t * class_p, lv_obj_t * obj)
 239:lvgl/src/extra/widgets/tabview/lv_tabview.c **** {
  28              		.loc 1 239 1 view -0
  29              		.cfi_startproc
  30              		@ args = 0, pretend = 0, frame = 0
  31              		@ frame_needed = 0, uses_anonymous_args = 0
  32              		.loc 1 239 1 is_stmt 0 view .LVU1
  33 0000 38B5     		push	{r3, r4, r5, lr}
  34              	.LCFI0:
  35              		.cfi_def_cfa_offset 16
  36              		.cfi_offset 3, -16
  37              		.cfi_offset 4, -12
  38              		.cfi_offset 5, -8
  39              		.cfi_offset 14, -4
  40 0002 0C46     		mov	r4, r1
 240:lvgl/src/extra/widgets/tabview/lv_tabview.c ****     LV_UNUSED(class_p);
  41              		.loc 1 240 5 is_stmt 1 view .LVU2
 241:lvgl/src/extra/widgets/tabview/lv_tabview.c ****     lv_tabview_t * tabview = (lv_tabview_t *)obj;
  42              		.loc 1 241 5 view .LVU3
  43              	.LVL1:
 242:lvgl/src/extra/widgets/tabview/lv_tabview.c **** 
 243:lvgl/src/extra/widgets/tabview/lv_tabview.c ****     uint32_t i;
ARM GAS  C:\usertemp\ccWXrwmL.s 			page 6


  44              		.loc 1 243 5 view .LVU4
 244:lvgl/src/extra/widgets/tabview/lv_tabview.c ****     if(tabview->tab_pos & LV_DIR_VER) {
  45              		.loc 1 244 5 view .LVU5
  46              		.loc 1 244 15 is_stmt 0 view .LVU6
  47 0004 91F82C30 		ldrb	r3, [r1, #44]	@ zero_extendqisi2
  48              		.loc 1 244 7 view .LVU7
  49 0008 13F00C0F 		tst	r3, #12
  50 000c 18D1     		bne	.L8
  51              	.LVL2:
  52              	.L3:
 245:lvgl/src/extra/widgets/tabview/lv_tabview.c ****         for(i = 0; i < tabview->tab_cnt; i++) {
 246:lvgl/src/extra/widgets/tabview/lv_tabview.c ****             lv_mem_free(tabview->map[i]);
 247:lvgl/src/extra/widgets/tabview/lv_tabview.c ****             tabview->map[i] = NULL;
 248:lvgl/src/extra/widgets/tabview/lv_tabview.c ****         }
 249:lvgl/src/extra/widgets/tabview/lv_tabview.c ****     }
 250:lvgl/src/extra/widgets/tabview/lv_tabview.c ****     if(tabview->tab_pos & LV_DIR_HOR) {
  53              		.loc 1 250 5 is_stmt 1 view .LVU8
  54              		.loc 1 250 15 is_stmt 0 view .LVU9
  55 000e 94F82C30 		ldrb	r3, [r4, #44]	@ zero_extendqisi2
  56              		.loc 1 250 7 view .LVU10
  57 0012 13F0030F 		tst	r3, #3
  58 0016 23D1     		bne	.L9
  59              	.L6:
 251:lvgl/src/extra/widgets/tabview/lv_tabview.c ****         for(i = 0; i < tabview->tab_cnt; i++) {
 252:lvgl/src/extra/widgets/tabview/lv_tabview.c ****             lv_mem_free(tabview->map[i * 2]);
 253:lvgl/src/extra/widgets/tabview/lv_tabview.c ****             tabview->map[i * 2] = NULL;
 254:lvgl/src/extra/widgets/tabview/lv_tabview.c ****         }
 255:lvgl/src/extra/widgets/tabview/lv_tabview.c ****     }
 256:lvgl/src/extra/widgets/tabview/lv_tabview.c **** 
 257:lvgl/src/extra/widgets/tabview/lv_tabview.c **** 
 258:lvgl/src/extra/widgets/tabview/lv_tabview.c ****     lv_mem_free(tabview->map);
  60              		.loc 1 258 5 is_stmt 1 view .LVU11
  61 0018 606A     		ldr	r0, [r4, #36]
  62 001a FFF7FEFF 		bl	lv_mem_free
  63              	.LVL3:
 259:lvgl/src/extra/widgets/tabview/lv_tabview.c ****     tabview->map = NULL;
  64              		.loc 1 259 5 view .LVU12
  65              		.loc 1 259 18 is_stmt 0 view .LVU13
  66 001e 0023     		movs	r3, #0
  67 0020 6362     		str	r3, [r4, #36]
 260:lvgl/src/extra/widgets/tabview/lv_tabview.c **** }
  68              		.loc 1 260 1 view .LVU14
  69 0022 38BD     		pop	{r3, r4, r5, pc}
  70              	.LVL4:
  71              	.L4:
 246:lvgl/src/extra/widgets/tabview/lv_tabview.c ****             tabview->map[i] = NULL;
  72              		.loc 1 246 13 is_stmt 1 view .LVU15
 246:lvgl/src/extra/widgets/tabview/lv_tabview.c ****             tabview->map[i] = NULL;
  73              		.loc 1 246 32 is_stmt 0 view .LVU16
  74 0024 636A     		ldr	r3, [r4, #36]
 246:lvgl/src/extra/widgets/tabview/lv_tabview.c ****             tabview->map[i] = NULL;
  75              		.loc 1 246 13 view .LVU17
  76 0026 53F82500 		ldr	r0, [r3, r5, lsl #2]
  77 002a FFF7FEFF 		bl	lv_mem_free
  78              	.LVL5:
 247:lvgl/src/extra/widgets/tabview/lv_tabview.c ****         }
  79              		.loc 1 247 13 is_stmt 1 view .LVU18
ARM GAS  C:\usertemp\ccWXrwmL.s 			page 7


 247:lvgl/src/extra/widgets/tabview/lv_tabview.c ****         }
  80              		.loc 1 247 20 is_stmt 0 view .LVU19
  81 002e 636A     		ldr	r3, [r4, #36]
 247:lvgl/src/extra/widgets/tabview/lv_tabview.c ****         }
  82              		.loc 1 247 29 view .LVU20
  83 0030 0022     		movs	r2, #0
  84 0032 43F82520 		str	r2, [r3, r5, lsl #2]
 245:lvgl/src/extra/widgets/tabview/lv_tabview.c ****             lv_mem_free(tabview->map[i]);
  85              		.loc 1 245 43 is_stmt 1 discriminator 3 view .LVU21
  86 0036 0135     		adds	r5, r5, #1
  87              	.LVL6:
  88              	.L2:
 245:lvgl/src/extra/widgets/tabview/lv_tabview.c ****             lv_mem_free(tabview->map[i]);
  89              		.loc 1 245 22 discriminator 1 view .LVU22
 245:lvgl/src/extra/widgets/tabview/lv_tabview.c ****             lv_mem_free(tabview->map[i]);
  90              		.loc 1 245 31 is_stmt 0 discriminator 1 view .LVU23
  91 0038 238D     		ldrh	r3, [r4, #40]
 245:lvgl/src/extra/widgets/tabview/lv_tabview.c ****             lv_mem_free(tabview->map[i]);
  92              		.loc 1 245 22 discriminator 1 view .LVU24
  93 003a AB42     		cmp	r3, r5
  94 003c F2D8     		bhi	.L4
  95 003e E6E7     		b	.L3
  96              	.LVL7:
  97              	.L8:
 245:lvgl/src/extra/widgets/tabview/lv_tabview.c ****             lv_mem_free(tabview->map[i]);
  98              		.loc 1 245 15 view .LVU25
  99 0040 0025     		movs	r5, #0
 100 0042 F9E7     		b	.L2
 101              	.LVL8:
 102              	.L7:
 252:lvgl/src/extra/widgets/tabview/lv_tabview.c ****             tabview->map[i * 2] = NULL;
 103              		.loc 1 252 13 is_stmt 1 view .LVU26
 252:lvgl/src/extra/widgets/tabview/lv_tabview.c ****             tabview->map[i * 2] = NULL;
 104              		.loc 1 252 32 is_stmt 0 view .LVU27
 105 0044 636A     		ldr	r3, [r4, #36]
 252:lvgl/src/extra/widgets/tabview/lv_tabview.c ****             tabview->map[i * 2] = NULL;
 106              		.loc 1 252 13 view .LVU28
 107 0046 53F83500 		ldr	r0, [r3, r5, lsl #3]
 108 004a FFF7FEFF 		bl	lv_mem_free
 109              	.LVL9:
 253:lvgl/src/extra/widgets/tabview/lv_tabview.c ****         }
 110              		.loc 1 253 13 is_stmt 1 view .LVU29
 253:lvgl/src/extra/widgets/tabview/lv_tabview.c ****         }
 111              		.loc 1 253 20 is_stmt 0 view .LVU30
 112 004e 636A     		ldr	r3, [r4, #36]
 253:lvgl/src/extra/widgets/tabview/lv_tabview.c ****         }
 113              		.loc 1 253 33 view .LVU31
 114 0050 0022     		movs	r2, #0
 115 0052 43F83520 		str	r2, [r3, r5, lsl #3]
 251:lvgl/src/extra/widgets/tabview/lv_tabview.c ****             lv_mem_free(tabview->map[i * 2]);
 116              		.loc 1 251 43 is_stmt 1 discriminator 3 view .LVU32
 117 0056 0135     		adds	r5, r5, #1
 118              	.LVL10:
 119              	.L5:
 251:lvgl/src/extra/widgets/tabview/lv_tabview.c ****             lv_mem_free(tabview->map[i * 2]);
 120              		.loc 1 251 22 discriminator 1 view .LVU33
 251:lvgl/src/extra/widgets/tabview/lv_tabview.c ****             lv_mem_free(tabview->map[i * 2]);
ARM GAS  C:\usertemp\ccWXrwmL.s 			page 8


 121              		.loc 1 251 31 is_stmt 0 discriminator 1 view .LVU34
 122 0058 238D     		ldrh	r3, [r4, #40]
 251:lvgl/src/extra/widgets/tabview/lv_tabview.c ****             lv_mem_free(tabview->map[i * 2]);
 123              		.loc 1 251 22 discriminator 1 view .LVU35
 124 005a AB42     		cmp	r3, r5
 125 005c F2D8     		bhi	.L7
 126 005e DBE7     		b	.L6
 127              	.LVL11:
 128              	.L9:
 251:lvgl/src/extra/widgets/tabview/lv_tabview.c ****             lv_mem_free(tabview->map[i * 2]);
 129              		.loc 1 251 15 view .LVU36
 130 0060 0025     		movs	r5, #0
 131 0062 F9E7     		b	.L5
 132              		.cfi_endproc
 133              	.LFE203:
 135              		.section	.rodata.lv_tabview_constructor.str1.4,"aMS",%progbits,1
 136              		.align	2
 137              	.LC0:
 138 0000 00       		.ascii	"\000"
 139              		.section	.text.lv_tabview_constructor,"ax",%progbits
 140              		.align	1
 141              		.syntax unified
 142              		.thumb
 143              		.thumb_func
 145              	lv_tabview_constructor:
 146              	.LVL12:
 147              	.LFB202:
 175:lvgl/src/extra/widgets/tabview/lv_tabview.c ****     LV_UNUSED(class_p);
 148              		.loc 1 175 1 is_stmt 1 view -0
 149              		.cfi_startproc
 150              		@ args = 0, pretend = 0, frame = 0
 151              		@ frame_needed = 0, uses_anonymous_args = 0
 175:lvgl/src/extra/widgets/tabview/lv_tabview.c ****     LV_UNUSED(class_p);
 152              		.loc 1 175 1 is_stmt 0 view .LVU38
 153 0000 70B5     		push	{r4, r5, r6, lr}
 154              	.LCFI1:
 155              		.cfi_def_cfa_offset 16
 156              		.cfi_offset 4, -16
 157              		.cfi_offset 5, -12
 158              		.cfi_offset 6, -8
 159              		.cfi_offset 14, -4
 160 0002 0C46     		mov	r4, r1
 176:lvgl/src/extra/widgets/tabview/lv_tabview.c ****     lv_tabview_t * tabview = (lv_tabview_t *)obj;
 161              		.loc 1 176 5 is_stmt 1 view .LVU39
 177:lvgl/src/extra/widgets/tabview/lv_tabview.c **** 
 162              		.loc 1 177 5 view .LVU40
 163              	.LVL13:
 179:lvgl/src/extra/widgets/tabview/lv_tabview.c **** 
 164              		.loc 1 179 5 view .LVU41
 179:lvgl/src/extra/widgets/tabview/lv_tabview.c **** 
 165              		.loc 1 179 22 is_stmt 0 view .LVU42
 166 0004 4B4B     		ldr	r3, .L26
 167 0006 1B78     		ldrb	r3, [r3]	@ zero_extendqisi2
 168 0008 81F82C30 		strb	r3, [r1, #44]
 181:lvgl/src/extra/widgets/tabview/lv_tabview.c ****         case LV_DIR_TOP:
 169              		.loc 1 181 5 is_stmt 1 view .LVU43
 170 000c 013B     		subs	r3, r3, #1
ARM GAS  C:\usertemp\ccWXrwmL.s 			page 9


 171 000e 072B     		cmp	r3, #7
 172 0010 09D8     		bhi	.L12
 173 0012 DFE803F0 		tbb	[pc, r3]
 174              	.L14:
 175 0016 59       		.byte	(.L17-.L14)/2
 176 0017 5E       		.byte	(.L16-.L14)/2
 177 0018 08       		.byte	(.L12-.L14)/2
 178 0019 04       		.byte	(.L15-.L14)/2
 179 001a 08       		.byte	(.L12-.L14)/2
 180 001b 08       		.byte	(.L12-.L14)/2
 181 001c 08       		.byte	(.L12-.L14)/2
 182 001d 54       		.byte	(.L13-.L14)/2
 183              		.p2align 1
 184              	.L15:
 183:lvgl/src/extra/widgets/tabview/lv_tabview.c ****             break;
 185              		.loc 1 183 13 view .LVU44
 186 001e 0121     		movs	r1, #1
 187              	.LVL14:
 183:lvgl/src/extra/widgets/tabview/lv_tabview.c ****             break;
 188              		.loc 1 183 13 is_stmt 0 view .LVU45
 189 0020 2046     		mov	r0, r4
 190              	.LVL15:
 183:lvgl/src/extra/widgets/tabview/lv_tabview.c ****             break;
 191              		.loc 1 183 13 view .LVU46
 192 0022 FFF7FEFF 		bl	lv_obj_set_flex_flow
 193              	.LVL16:
 184:lvgl/src/extra/widgets/tabview/lv_tabview.c ****         case LV_DIR_BOTTOM:
 194              		.loc 1 184 13 is_stmt 1 view .LVU47
 195              	.L12:
 196:lvgl/src/extra/widgets/tabview/lv_tabview.c **** 
 196              		.loc 1 196 5 view .LVU48
 197 0026 42F26402 		movw	r2, #8292
 198 002a 1146     		mov	r1, r2
 199 002c 2046     		mov	r0, r4
 200 002e FFF7FEFF 		bl	lv_obj_set_size
 201              	.LVL17:
 198:lvgl/src/extra/widgets/tabview/lv_tabview.c ****     lv_obj_t * cont;
 202              		.loc 1 198 5 view .LVU49
 199:lvgl/src/extra/widgets/tabview/lv_tabview.c **** 
 203              		.loc 1 199 5 view .LVU50
 201:lvgl/src/extra/widgets/tabview/lv_tabview.c ****     cont = lv_obj_create(obj);
 204              		.loc 1 201 5 view .LVU51
 201:lvgl/src/extra/widgets/tabview/lv_tabview.c ****     cont = lv_obj_create(obj);
 205              		.loc 1 201 12 is_stmt 0 view .LVU52
 206 0032 2046     		mov	r0, r4
 207 0034 FFF7FEFF 		bl	lv_btnmatrix_create
 208              	.LVL18:
 209 0038 0646     		mov	r6, r0
 210              	.LVL19:
 202:lvgl/src/extra/widgets/tabview/lv_tabview.c **** 
 211              		.loc 1 202 5 is_stmt 1 view .LVU53
 202:lvgl/src/extra/widgets/tabview/lv_tabview.c **** 
 212              		.loc 1 202 12 is_stmt 0 view .LVU54
 213 003a 2046     		mov	r0, r4
 214              	.LVL20:
 202:lvgl/src/extra/widgets/tabview/lv_tabview.c **** 
 215              		.loc 1 202 12 view .LVU55
ARM GAS  C:\usertemp\ccWXrwmL.s 			page 10


 216 003c FFF7FEFF 		bl	lv_obj_create
 217              	.LVL21:
 218 0040 0546     		mov	r5, r0
 219              	.LVL22:
 204:lvgl/src/extra/widgets/tabview/lv_tabview.c ****     tabview->map = lv_mem_alloc(sizeof(const char *));
 220              		.loc 1 204 5 is_stmt 1 view .LVU56
 221 0042 0121     		movs	r1, #1
 222 0044 3046     		mov	r0, r6
 223              	.LVL23:
 204:lvgl/src/extra/widgets/tabview/lv_tabview.c ****     tabview->map = lv_mem_alloc(sizeof(const char *));
 224              		.loc 1 204 5 is_stmt 0 view .LVU57
 225 0046 FFF7FEFF 		bl	lv_btnmatrix_set_one_checked
 226              	.LVL24:
 205:lvgl/src/extra/widgets/tabview/lv_tabview.c ****     tabview->map[0] = "";
 227              		.loc 1 205 5 is_stmt 1 view .LVU58
 205:lvgl/src/extra/widgets/tabview/lv_tabview.c ****     tabview->map[0] = "";
 228              		.loc 1 205 20 is_stmt 0 view .LVU59
 229 004a 0420     		movs	r0, #4
 230 004c FFF7FEFF 		bl	lv_mem_alloc
 231              	.LVL25:
 205:lvgl/src/extra/widgets/tabview/lv_tabview.c ****     tabview->map[0] = "";
 232              		.loc 1 205 18 discriminator 1 view .LVU60
 233 0050 6062     		str	r0, [r4, #36]
 206:lvgl/src/extra/widgets/tabview/lv_tabview.c ****     lv_btnmatrix_set_map(btnm, (const char **)tabview->map);
 234              		.loc 1 206 5 is_stmt 1 view .LVU61
 206:lvgl/src/extra/widgets/tabview/lv_tabview.c ****     lv_btnmatrix_set_map(btnm, (const char **)tabview->map);
 235              		.loc 1 206 21 is_stmt 0 view .LVU62
 236 0052 394B     		ldr	r3, .L26+4
 237 0054 0360     		str	r3, [r0]
 207:lvgl/src/extra/widgets/tabview/lv_tabview.c ****     lv_obj_add_event_cb(btnm, btns_value_changed_event_cb, LV_EVENT_VALUE_CHANGED, NULL);
 238              		.loc 1 207 5 is_stmt 1 view .LVU63
 239 0056 616A     		ldr	r1, [r4, #36]
 240 0058 3046     		mov	r0, r6
 241 005a FFF7FEFF 		bl	lv_btnmatrix_set_map
 242              	.LVL26:
 208:lvgl/src/extra/widgets/tabview/lv_tabview.c ****     lv_obj_add_flag(btnm, LV_OBJ_FLAG_EVENT_BUBBLE);
 243              		.loc 1 208 5 view .LVU64
 244 005e 0023     		movs	r3, #0
 245 0060 1C22     		movs	r2, #28
 246 0062 3649     		ldr	r1, .L26+8
 247 0064 3046     		mov	r0, r6
 248 0066 FFF7FEFF 		bl	lv_obj_add_event_cb
 249              	.LVL27:
 209:lvgl/src/extra/widgets/tabview/lv_tabview.c **** 
 250              		.loc 1 209 5 view .LVU65
 251 006a 4FF48041 		mov	r1, #16384
 252 006e 3046     		mov	r0, r6
 253 0070 FFF7FEFF 		bl	lv_obj_add_flag
 254              	.LVL28:
 211:lvgl/src/extra/widgets/tabview/lv_tabview.c ****     lv_obj_set_scrollbar_mode(cont, LV_SCROLLBAR_MODE_OFF);
 255              		.loc 1 211 5 view .LVU66
 256 0074 0023     		movs	r3, #0
 257 0076 1A46     		mov	r2, r3
 258 0078 3149     		ldr	r1, .L26+12
 259 007a 2846     		mov	r0, r5
 260 007c FFF7FEFF 		bl	lv_obj_add_event_cb
 261              	.LVL29:
ARM GAS  C:\usertemp\ccWXrwmL.s 			page 11


 212:lvgl/src/extra/widgets/tabview/lv_tabview.c **** 
 262              		.loc 1 212 5 view .LVU67
 263 0080 0021     		movs	r1, #0
 264 0082 2846     		mov	r0, r5
 265 0084 FFF7FEFF 		bl	lv_obj_set_scrollbar_mode
 266              	.LVL30:
 214:lvgl/src/extra/widgets/tabview/lv_tabview.c ****         case LV_DIR_TOP:
 267              		.loc 1 214 5 view .LVU68
 214:lvgl/src/extra/widgets/tabview/lv_tabview.c ****         case LV_DIR_TOP:
 268              		.loc 1 214 19 is_stmt 0 view .LVU69
 269 0088 94F82C30 		ldrb	r3, [r4, #44]	@ zero_extendqisi2
 214:lvgl/src/extra/widgets/tabview/lv_tabview.c ****         case LV_DIR_TOP:
 270              		.loc 1 214 5 view .LVU70
 271 008c 042B     		cmp	r3, #4
 272 008e 27D0     		beq	.L18
 273 0090 24D8     		bhi	.L19
 274 0092 013B     		subs	r3, r3, #1
 275 0094 DBB2     		uxtb	r3, r3
 276 0096 012B     		cmp	r3, #1
 277 0098 33D8     		bhi	.L20
 223:lvgl/src/extra/widgets/tabview/lv_tabview.c ****             lv_obj_set_height(cont, LV_PCT(100));
 278              		.loc 1 223 13 is_stmt 1 view .LVU71
 279 009a 42F26402 		movw	r2, #8292
 280 009e 294B     		ldr	r3, .L26+16
 281 00a0 B3F90010 		ldrsh	r1, [r3]
 282 00a4 3046     		mov	r0, r6
 283 00a6 FFF7FEFF 		bl	lv_obj_set_size
 284              	.LVL31:
 224:lvgl/src/extra/widgets/tabview/lv_tabview.c ****             lv_obj_set_flex_grow(cont, 1);
 285              		.loc 1 224 13 view .LVU72
 286 00aa 42F26401 		movw	r1, #8292
 287 00ae 2846     		mov	r0, r5
 288 00b0 FFF7FEFF 		bl	lv_obj_set_height
 289              	.LVL32:
 225:lvgl/src/extra/widgets/tabview/lv_tabview.c ****             break;
 290              		.loc 1 225 13 view .LVU73
 291 00b4 0121     		movs	r1, #1
 292 00b6 2846     		mov	r0, r5
 293 00b8 FFF7FEFF 		bl	lv_obj_set_flex_grow
 294              	.LVL33:
 226:lvgl/src/extra/widgets/tabview/lv_tabview.c ****     }
 295              		.loc 1 226 13 view .LVU74
 296 00bc 21E0     		b	.L20
 297              	.LVL34:
 298              	.L13:
 186:lvgl/src/extra/widgets/tabview/lv_tabview.c ****             break;
 299              		.loc 1 186 13 view .LVU75
 300 00be 0921     		movs	r1, #9
 301              	.LVL35:
 186:lvgl/src/extra/widgets/tabview/lv_tabview.c ****             break;
 302              		.loc 1 186 13 is_stmt 0 view .LVU76
 303 00c0 2046     		mov	r0, r4
 304              	.LVL36:
 186:lvgl/src/extra/widgets/tabview/lv_tabview.c ****             break;
 305              		.loc 1 186 13 view .LVU77
 306 00c2 FFF7FEFF 		bl	lv_obj_set_flex_flow
 307              	.LVL37:
ARM GAS  C:\usertemp\ccWXrwmL.s 			page 12


 187:lvgl/src/extra/widgets/tabview/lv_tabview.c ****         case LV_DIR_LEFT:
 308              		.loc 1 187 13 is_stmt 1 view .LVU78
 309 00c6 AEE7     		b	.L12
 310              	.LVL38:
 311              	.L17:
 189:lvgl/src/extra/widgets/tabview/lv_tabview.c ****             break;
 312              		.loc 1 189 13 view .LVU79
 313 00c8 0021     		movs	r1, #0
 314              	.LVL39:
 189:lvgl/src/extra/widgets/tabview/lv_tabview.c ****             break;
 315              		.loc 1 189 13 is_stmt 0 view .LVU80
 316 00ca 2046     		mov	r0, r4
 317              	.LVL40:
 189:lvgl/src/extra/widgets/tabview/lv_tabview.c ****             break;
 318              		.loc 1 189 13 view .LVU81
 319 00cc FFF7FEFF 		bl	lv_obj_set_flex_flow
 320              	.LVL41:
 190:lvgl/src/extra/widgets/tabview/lv_tabview.c ****         case LV_DIR_RIGHT:
 321              		.loc 1 190 13 is_stmt 1 view .LVU82
 322 00d0 A9E7     		b	.L12
 323              	.LVL42:
 324              	.L16:
 192:lvgl/src/extra/widgets/tabview/lv_tabview.c ****             break;
 325              		.loc 1 192 13 view .LVU83
 326 00d2 0821     		movs	r1, #8
 327              	.LVL43:
 192:lvgl/src/extra/widgets/tabview/lv_tabview.c ****             break;
 328              		.loc 1 192 13 is_stmt 0 view .LVU84
 329 00d4 2046     		mov	r0, r4
 330              	.LVL44:
 192:lvgl/src/extra/widgets/tabview/lv_tabview.c ****             break;
 331              		.loc 1 192 13 view .LVU85
 332 00d6 FFF7FEFF 		bl	lv_obj_set_flex_flow
 333              	.LVL45:
 193:lvgl/src/extra/widgets/tabview/lv_tabview.c ****     }
 334              		.loc 1 193 13 is_stmt 1 view .LVU86
 335 00da A4E7     		b	.L12
 336              	.LVL46:
 337              	.L19:
 214:lvgl/src/extra/widgets/tabview/lv_tabview.c ****         case LV_DIR_TOP:
 338              		.loc 1 214 5 is_stmt 0 view .LVU87
 339 00dc 082B     		cmp	r3, #8
 340 00de 10D1     		bne	.L20
 341              	.L18:
 217:lvgl/src/extra/widgets/tabview/lv_tabview.c ****             lv_obj_set_width(cont, LV_PCT(100));
 342              		.loc 1 217 13 is_stmt 1 view .LVU88
 343 00e0 184B     		ldr	r3, .L26+16
 344 00e2 B3F90020 		ldrsh	r2, [r3]
 345 00e6 42F26401 		movw	r1, #8292
 346 00ea 3046     		mov	r0, r6
 347 00ec FFF7FEFF 		bl	lv_obj_set_size
 348              	.LVL47:
 218:lvgl/src/extra/widgets/tabview/lv_tabview.c ****             lv_obj_set_flex_grow(cont, 1);
 349              		.loc 1 218 13 view .LVU89
 350 00f0 42F26401 		movw	r1, #8292
 351 00f4 2846     		mov	r0, r5
 352 00f6 FFF7FEFF 		bl	lv_obj_set_width
ARM GAS  C:\usertemp\ccWXrwmL.s 			page 13


 353              	.LVL48:
 219:lvgl/src/extra/widgets/tabview/lv_tabview.c ****             break;
 354              		.loc 1 219 13 view .LVU90
 355 00fa 0121     		movs	r1, #1
 356 00fc 2846     		mov	r0, r5
 357 00fe FFF7FEFF 		bl	lv_obj_set_flex_grow
 358              	.LVL49:
 220:lvgl/src/extra/widgets/tabview/lv_tabview.c ****         case LV_DIR_LEFT:
 359              		.loc 1 220 13 view .LVU91
 360              	.L20:
 229:lvgl/src/extra/widgets/tabview/lv_tabview.c ****     if(g) lv_group_add_obj(g, btnm);
 361              		.loc 1 229 5 view .LVU92
 229:lvgl/src/extra/widgets/tabview/lv_tabview.c ****     if(g) lv_group_add_obj(g, btnm);
 362              		.loc 1 229 22 is_stmt 0 view .LVU93
 363 0102 FFF7FEFF 		bl	lv_group_get_default
 364              	.LVL50:
 230:lvgl/src/extra/widgets/tabview/lv_tabview.c **** 
 365              		.loc 1 230 5 is_stmt 1 view .LVU94
 230:lvgl/src/extra/widgets/tabview/lv_tabview.c **** 
 366              		.loc 1 230 7 is_stmt 0 view .LVU95
 367 0106 10B1     		cbz	r0, .L22
 230:lvgl/src/extra/widgets/tabview/lv_tabview.c **** 
 368              		.loc 1 230 11 is_stmt 1 discriminator 1 view .LVU96
 369 0108 3146     		mov	r1, r6
 370 010a FFF7FEFF 		bl	lv_group_add_obj
 371              	.LVL51:
 372              	.L22:
 232:lvgl/src/extra/widgets/tabview/lv_tabview.c ****     lv_obj_set_scroll_snap_x(cont, LV_SCROLL_SNAP_CENTER);
 373              		.loc 1 232 5 view .LVU97
 374 010e 0021     		movs	r1, #0
 375 0110 2846     		mov	r0, r5
 376 0112 FFF7FEFF 		bl	lv_obj_set_flex_flow
 377              	.LVL52:
 233:lvgl/src/extra/widgets/tabview/lv_tabview.c ****     lv_obj_add_flag(cont, LV_OBJ_FLAG_SCROLL_ONE);
 378              		.loc 1 233 5 view .LVU98
 379 0116 0321     		movs	r1, #3
 380 0118 2846     		mov	r0, r5
 381 011a FFF7FEFF 		bl	lv_obj_set_scroll_snap_x
 382              	.LVL53:
 234:lvgl/src/extra/widgets/tabview/lv_tabview.c ****     lv_obj_clear_flag(cont, LV_OBJ_FLAG_SCROLL_ON_FOCUS);
 383              		.loc 1 234 5 view .LVU99
 384 011e 8021     		movs	r1, #128
 385 0120 2846     		mov	r0, r5
 386 0122 FFF7FEFF 		bl	lv_obj_add_flag
 387              	.LVL54:
 235:lvgl/src/extra/widgets/tabview/lv_tabview.c **** }
 388              		.loc 1 235 5 view .LVU100
 389 0126 4FF48061 		mov	r1, #1024
 390 012a 2846     		mov	r0, r5
 391 012c FFF7FEFF 		bl	lv_obj_clear_flag
 392              	.LVL55:
 236:lvgl/src/extra/widgets/tabview/lv_tabview.c **** 
 393              		.loc 1 236 1 is_stmt 0 view .LVU101
 394 0130 70BD     		pop	{r4, r5, r6, pc}
 395              	.LVL56:
 396              	.L27:
 236:lvgl/src/extra/widgets/tabview/lv_tabview.c **** 
ARM GAS  C:\usertemp\ccWXrwmL.s 			page 14


 397              		.loc 1 236 1 view .LVU102
 398 0132 00BF     		.align	2
 399              	.L26:
 400 0134 00000000 		.word	tabpos_create
 401 0138 00000000 		.word	.LC0
 402 013c 00000000 		.word	btns_value_changed_event_cb
 403 0140 00000000 		.word	cont_scroll_end_event_cb
 404 0144 00000000 		.word	tabsize_create
 405              		.cfi_endproc
 406              	.LFE202:
 408              		.section	.text.lv_tabview_create,"ax",%progbits
 409              		.align	1
 410              		.global	lv_tabview_create
 411              		.syntax unified
 412              		.thumb
 413              		.thumb_func
 415              	lv_tabview_create:
 416              	.LVL57:
 417              	.LFB196:
  57:lvgl/src/extra/widgets/tabview/lv_tabview.c ****     LV_LOG_INFO("begin");
 418              		.loc 1 57 1 is_stmt 1 view -0
 419              		.cfi_startproc
 420              		@ args = 0, pretend = 0, frame = 0
 421              		@ frame_needed = 0, uses_anonymous_args = 0
  57:lvgl/src/extra/widgets/tabview/lv_tabview.c ****     LV_LOG_INFO("begin");
 422              		.loc 1 57 1 is_stmt 0 view .LVU104
 423 0000 10B5     		push	{r4, lr}
 424              	.LCFI2:
 425              		.cfi_def_cfa_offset 8
 426              		.cfi_offset 4, -8
 427              		.cfi_offset 14, -4
  58:lvgl/src/extra/widgets/tabview/lv_tabview.c ****     tabpos_create = tab_pos;
 428              		.loc 1 58 5 is_stmt 1 view .LVU105
  58:lvgl/src/extra/widgets/tabview/lv_tabview.c ****     tabpos_create = tab_pos;
 429              		.loc 1 58 5 view .LVU106
  58:lvgl/src/extra/widgets/tabview/lv_tabview.c ****     tabpos_create = tab_pos;
 430              		.loc 1 58 5 view .LVU107
  59:lvgl/src/extra/widgets/tabview/lv_tabview.c ****     tabsize_create = tab_size;
 431              		.loc 1 59 5 view .LVU108
  59:lvgl/src/extra/widgets/tabview/lv_tabview.c ****     tabsize_create = tab_size;
 432              		.loc 1 59 19 is_stmt 0 view .LVU109
 433 0002 064B     		ldr	r3, .L30
 434 0004 1970     		strb	r1, [r3]
  60:lvgl/src/extra/widgets/tabview/lv_tabview.c **** 
 435              		.loc 1 60 5 is_stmt 1 view .LVU110
  60:lvgl/src/extra/widgets/tabview/lv_tabview.c **** 
 436              		.loc 1 60 20 is_stmt 0 view .LVU111
 437 0006 064B     		ldr	r3, .L30+4
 438 0008 1A80     		strh	r2, [r3]	@ movhi
  62:lvgl/src/extra/widgets/tabview/lv_tabview.c ****     lv_obj_class_init_obj(obj);
 439              		.loc 1 62 5 is_stmt 1 view .LVU112
  62:lvgl/src/extra/widgets/tabview/lv_tabview.c ****     lv_obj_class_init_obj(obj);
 440              		.loc 1 62 22 is_stmt 0 view .LVU113
 441 000a 0146     		mov	r1, r0
 442              	.LVL58:
  62:lvgl/src/extra/widgets/tabview/lv_tabview.c ****     lv_obj_class_init_obj(obj);
 443              		.loc 1 62 22 view .LVU114
ARM GAS  C:\usertemp\ccWXrwmL.s 			page 15


 444 000c 0548     		ldr	r0, .L30+8
 445              	.LVL59:
  62:lvgl/src/extra/widgets/tabview/lv_tabview.c ****     lv_obj_class_init_obj(obj);
 446              		.loc 1 62 22 view .LVU115
 447 000e FFF7FEFF 		bl	lv_obj_class_create_obj
 448              	.LVL60:
  62:lvgl/src/extra/widgets/tabview/lv_tabview.c ****     lv_obj_class_init_obj(obj);
 449              		.loc 1 62 22 view .LVU116
 450 0012 0446     		mov	r4, r0
 451              	.LVL61:
  63:lvgl/src/extra/widgets/tabview/lv_tabview.c ****     return obj;
 452              		.loc 1 63 5 is_stmt 1 view .LVU117
 453 0014 FFF7FEFF 		bl	lv_obj_class_init_obj
 454              	.LVL62:
  64:lvgl/src/extra/widgets/tabview/lv_tabview.c **** }
 455              		.loc 1 64 5 view .LVU118
  65:lvgl/src/extra/widgets/tabview/lv_tabview.c **** 
 456              		.loc 1 65 1 is_stmt 0 view .LVU119
 457 0018 2046     		mov	r0, r4
 458 001a 10BD     		pop	{r4, pc}
 459              	.LVL63:
 460              	.L31:
  65:lvgl/src/extra/widgets/tabview/lv_tabview.c **** 
 461              		.loc 1 65 1 view .LVU120
 462              		.align	2
 463              	.L30:
 464 001c 00000000 		.word	tabpos_create
 465 0020 00000000 		.word	tabsize_create
 466 0024 00000000 		.word	lv_tabview_class
 467              		.cfi_endproc
 468              	.LFE196:
 470              		.section	.text.lv_tabview_get_tab_act,"ax",%progbits
 471              		.align	1
 472              		.global	lv_tabview_get_tab_act
 473              		.syntax unified
 474              		.thumb
 475              		.thumb_func
 477              	lv_tabview_get_tab_act:
 478              	.LVL64:
 479              	.LFB199:
 154:lvgl/src/extra/widgets/tabview/lv_tabview.c ****     LV_ASSERT_OBJ(obj, MY_CLASS);
 480              		.loc 1 154 1 is_stmt 1 view -0
 481              		.cfi_startproc
 482              		@ args = 0, pretend = 0, frame = 0
 483              		@ frame_needed = 0, uses_anonymous_args = 0
 484              		@ link register save eliminated.
 155:lvgl/src/extra/widgets/tabview/lv_tabview.c ****     lv_tabview_t * tabview = (lv_tabview_t *)obj;
 485              		.loc 1 155 5 view .LVU122
 155:lvgl/src/extra/widgets/tabview/lv_tabview.c ****     lv_tabview_t * tabview = (lv_tabview_t *)obj;
 486              		.loc 1 155 5 view .LVU123
 155:lvgl/src/extra/widgets/tabview/lv_tabview.c ****     lv_tabview_t * tabview = (lv_tabview_t *)obj;
 487              		.loc 1 155 5 view .LVU124
 156:lvgl/src/extra/widgets/tabview/lv_tabview.c ****     return tabview->tab_cur;
 488              		.loc 1 156 5 view .LVU125
 157:lvgl/src/extra/widgets/tabview/lv_tabview.c **** }
 489              		.loc 1 157 5 view .LVU126
 158:lvgl/src/extra/widgets/tabview/lv_tabview.c **** 
ARM GAS  C:\usertemp\ccWXrwmL.s 			page 16


 490              		.loc 1 158 1 is_stmt 0 view .LVU127
 491 0000 408D     		ldrh	r0, [r0, #42]
 492              	.LVL65:
 158:lvgl/src/extra/widgets/tabview/lv_tabview.c **** 
 493              		.loc 1 158 1 view .LVU128
 494 0002 7047     		bx	lr
 495              		.cfi_endproc
 496              	.LFE199:
 498              		.section	.text.lv_tabview_get_content,"ax",%progbits
 499              		.align	1
 500              		.global	lv_tabview_get_content
 501              		.syntax unified
 502              		.thumb
 503              		.thumb_func
 505              	lv_tabview_get_content:
 506              	.LVL66:
 507              	.LFB200:
 161:lvgl/src/extra/widgets/tabview/lv_tabview.c ****     return lv_obj_get_child(tv, 1);
 508              		.loc 1 161 1 is_stmt 1 view -0
 509              		.cfi_startproc
 510              		@ args = 0, pretend = 0, frame = 0
 511              		@ frame_needed = 0, uses_anonymous_args = 0
 161:lvgl/src/extra/widgets/tabview/lv_tabview.c ****     return lv_obj_get_child(tv, 1);
 512              		.loc 1 161 1 is_stmt 0 view .LVU130
 513 0000 08B5     		push	{r3, lr}
 514              	.LCFI3:
 515              		.cfi_def_cfa_offset 8
 516              		.cfi_offset 3, -8
 517              		.cfi_offset 14, -4
 162:lvgl/src/extra/widgets/tabview/lv_tabview.c **** }
 518              		.loc 1 162 5 is_stmt 1 view .LVU131
 162:lvgl/src/extra/widgets/tabview/lv_tabview.c **** }
 519              		.loc 1 162 12 is_stmt 0 view .LVU132
 520 0002 0121     		movs	r1, #1
 521 0004 FFF7FEFF 		bl	lv_obj_get_child
 522              	.LVL67:
 163:lvgl/src/extra/widgets/tabview/lv_tabview.c **** 
 523              		.loc 1 163 1 view .LVU133
 524 0008 08BD     		pop	{r3, pc}
 525              		.cfi_endproc
 526              	.LFE200:
 528              		.section	.text.lv_tabview_get_tab_btns,"ax",%progbits
 529              		.align	1
 530              		.global	lv_tabview_get_tab_btns
 531              		.syntax unified
 532              		.thumb
 533              		.thumb_func
 535              	lv_tabview_get_tab_btns:
 536              	.LVL68:
 537              	.LFB201:
 166:lvgl/src/extra/widgets/tabview/lv_tabview.c ****     return lv_obj_get_child(tv, 0);
 538              		.loc 1 166 1 is_stmt 1 view -0
 539              		.cfi_startproc
 540              		@ args = 0, pretend = 0, frame = 0
 541              		@ frame_needed = 0, uses_anonymous_args = 0
 166:lvgl/src/extra/widgets/tabview/lv_tabview.c ****     return lv_obj_get_child(tv, 0);
 542              		.loc 1 166 1 is_stmt 0 view .LVU135
ARM GAS  C:\usertemp\ccWXrwmL.s 			page 17


 543 0000 08B5     		push	{r3, lr}
 544              	.LCFI4:
 545              		.cfi_def_cfa_offset 8
 546              		.cfi_offset 3, -8
 547              		.cfi_offset 14, -4
 167:lvgl/src/extra/widgets/tabview/lv_tabview.c **** }
 548              		.loc 1 167 5 is_stmt 1 view .LVU136
 167:lvgl/src/extra/widgets/tabview/lv_tabview.c **** }
 549              		.loc 1 167 12 is_stmt 0 view .LVU137
 550 0002 0021     		movs	r1, #0
 551 0004 FFF7FEFF 		bl	lv_obj_get_child
 552              	.LVL69:
 168:lvgl/src/extra/widgets/tabview/lv_tabview.c **** 
 553              		.loc 1 168 1 view .LVU138
 554 0008 08BD     		pop	{r3, pc}
 555              		.cfi_endproc
 556              	.LFE201:
 558              		.section	.text.lv_tabview_set_act,"ax",%progbits
 559              		.align	1
 560              		.global	lv_tabview_set_act
 561              		.syntax unified
 562              		.thumb
 563              		.thumb_func
 565              	lv_tabview_set_act:
 566              	.LVL70:
 567              	.LFB198:
 125:lvgl/src/extra/widgets/tabview/lv_tabview.c ****     LV_ASSERT_OBJ(obj, MY_CLASS);
 568              		.loc 1 125 1 is_stmt 1 view -0
 569              		.cfi_startproc
 570              		@ args = 0, pretend = 0, frame = 0
 571              		@ frame_needed = 0, uses_anonymous_args = 0
 125:lvgl/src/extra/widgets/tabview/lv_tabview.c ****     LV_ASSERT_OBJ(obj, MY_CLASS);
 572              		.loc 1 125 1 is_stmt 0 view .LVU140
 573 0000 2DE9F843 		push	{r3, r4, r5, r6, r7, r8, r9, lr}
 574              	.LCFI5:
 575              		.cfi_def_cfa_offset 32
 576              		.cfi_offset 3, -32
 577              		.cfi_offset 4, -28
 578              		.cfi_offset 5, -24
 579              		.cfi_offset 6, -20
 580              		.cfi_offset 7, -16
 581              		.cfi_offset 8, -12
 582              		.cfi_offset 9, -8
 583              		.cfi_offset 14, -4
 584 0004 0446     		mov	r4, r0
 585 0006 0D46     		mov	r5, r1
 586 0008 1646     		mov	r6, r2
 126:lvgl/src/extra/widgets/tabview/lv_tabview.c ****     lv_tabview_t * tabview = (lv_tabview_t *)obj;
 587              		.loc 1 126 5 is_stmt 1 view .LVU141
 126:lvgl/src/extra/widgets/tabview/lv_tabview.c ****     lv_tabview_t * tabview = (lv_tabview_t *)obj;
 588              		.loc 1 126 5 view .LVU142
 126:lvgl/src/extra/widgets/tabview/lv_tabview.c ****     lv_tabview_t * tabview = (lv_tabview_t *)obj;
 589              		.loc 1 126 5 view .LVU143
 127:lvgl/src/extra/widgets/tabview/lv_tabview.c **** 
 590              		.loc 1 127 5 view .LVU144
 591              	.LVL71:
 129:lvgl/src/extra/widgets/tabview/lv_tabview.c ****         id = tabview->tab_cnt - 1;
ARM GAS  C:\usertemp\ccWXrwmL.s 			page 18


 592              		.loc 1 129 5 view .LVU145
 129:lvgl/src/extra/widgets/tabview/lv_tabview.c ****         id = tabview->tab_cnt - 1;
 593              		.loc 1 129 21 is_stmt 0 view .LVU146
 594 000a 038D     		ldrh	r3, [r0, #40]
 129:lvgl/src/extra/widgets/tabview/lv_tabview.c ****         id = tabview->tab_cnt - 1;
 595              		.loc 1 129 7 view .LVU147
 596 000c 8B42     		cmp	r3, r1
 597 000e 00D8     		bhi	.L38
 130:lvgl/src/extra/widgets/tabview/lv_tabview.c ****     }
 598              		.loc 1 130 9 is_stmt 1 view .LVU148
 130:lvgl/src/extra/widgets/tabview/lv_tabview.c ****     }
 599              		.loc 1 130 31 is_stmt 0 view .LVU149
 600 0010 5D1E     		subs	r5, r3, #1
 601              	.LVL72:
 602              	.L38:
 134:lvgl/src/extra/widgets/tabview/lv_tabview.c **** 
 603              		.loc 1 134 5 is_stmt 1 view .LVU150
 604 0012 2046     		mov	r0, r4
 605              	.LVL73:
 134:lvgl/src/extra/widgets/tabview/lv_tabview.c **** 
 606              		.loc 1 134 5 is_stmt 0 view .LVU151
 607 0014 FFF7FEFF 		bl	lv_obj_update_layout
 608              	.LVL74:
 136:lvgl/src/extra/widgets/tabview/lv_tabview.c ****     if(cont == NULL) return;
 609              		.loc 1 136 5 is_stmt 1 view .LVU152
 136:lvgl/src/extra/widgets/tabview/lv_tabview.c ****     if(cont == NULL) return;
 610              		.loc 1 136 23 is_stmt 0 view .LVU153
 611 0018 2046     		mov	r0, r4
 612 001a FFF7FEFF 		bl	lv_tabview_get_content
 613              	.LVL75:
 137:lvgl/src/extra/widgets/tabview/lv_tabview.c ****     lv_coord_t gap = lv_obj_get_style_pad_column(cont, LV_PART_MAIN);
 614              		.loc 1 137 5 is_stmt 1 view .LVU154
 137:lvgl/src/extra/widgets/tabview/lv_tabview.c ****     lv_coord_t gap = lv_obj_get_style_pad_column(cont, LV_PART_MAIN);
 615              		.loc 1 137 7 is_stmt 0 view .LVU155
 616 001e 0746     		mov	r7, r0
 617 0020 28B3     		cbz	r0, .L37
 138:lvgl/src/extra/widgets/tabview/lv_tabview.c ****     lv_coord_t w = lv_obj_get_content_width(cont);
 618              		.loc 1 138 5 is_stmt 1 view .LVU156
 619              	.LVL76:
 620              	.LBB14:
 621              	.LBI14:
 622              		.file 2 "D:/update_2024EL/changeform/743zit6/lvgl/src/core/lv_obj_style_gen.h"
   1:D:/update_2024EL/changeform/743zit6/lvgl/src/core\lv_obj_style_gen.h **** static inline lv_coord_t lv_obj_get_style_width(const struct _lv_obj_t * obj, uint32_t part)
   2:D:/update_2024EL/changeform/743zit6/lvgl/src/core\lv_obj_style_gen.h **** {
   3:D:/update_2024EL/changeform/743zit6/lvgl/src/core\lv_obj_style_gen.h ****     lv_style_value_t v = lv_obj_get_style_prop(obj, part, LV_STYLE_WIDTH);
   4:D:/update_2024EL/changeform/743zit6/lvgl/src/core\lv_obj_style_gen.h ****     return (lv_coord_t)v.num;
   5:D:/update_2024EL/changeform/743zit6/lvgl/src/core\lv_obj_style_gen.h **** }
   6:D:/update_2024EL/changeform/743zit6/lvgl/src/core\lv_obj_style_gen.h **** 
   7:D:/update_2024EL/changeform/743zit6/lvgl/src/core\lv_obj_style_gen.h **** static inline lv_coord_t lv_obj_get_style_min_width(const struct _lv_obj_t * obj, uint32_t part)
   8:D:/update_2024EL/changeform/743zit6/lvgl/src/core\lv_obj_style_gen.h **** {
   9:D:/update_2024EL/changeform/743zit6/lvgl/src/core\lv_obj_style_gen.h ****     lv_style_value_t v = lv_obj_get_style_prop(obj, part, LV_STYLE_MIN_WIDTH);
  10:D:/update_2024EL/changeform/743zit6/lvgl/src/core\lv_obj_style_gen.h ****     return (lv_coord_t)v.num;
  11:D:/update_2024EL/changeform/743zit6/lvgl/src/core\lv_obj_style_gen.h **** }
  12:D:/update_2024EL/changeform/743zit6/lvgl/src/core\lv_obj_style_gen.h **** 
  13:D:/update_2024EL/changeform/743zit6/lvgl/src/core\lv_obj_style_gen.h **** static inline lv_coord_t lv_obj_get_style_max_width(const struct _lv_obj_t * obj, uint32_t part)
  14:D:/update_2024EL/changeform/743zit6/lvgl/src/core\lv_obj_style_gen.h **** {
  15:D:/update_2024EL/changeform/743zit6/lvgl/src/core\lv_obj_style_gen.h ****     lv_style_value_t v = lv_obj_get_style_prop(obj, part, LV_STYLE_MAX_WIDTH);
ARM GAS  C:\usertemp\ccWXrwmL.s 			page 19


  16:D:/update_2024EL/changeform/743zit6/lvgl/src/core\lv_obj_style_gen.h ****     return (lv_coord_t)v.num;
  17:D:/update_2024EL/changeform/743zit6/lvgl/src/core\lv_obj_style_gen.h **** }
  18:D:/update_2024EL/changeform/743zit6/lvgl/src/core\lv_obj_style_gen.h **** 
  19:D:/update_2024EL/changeform/743zit6/lvgl/src/core\lv_obj_style_gen.h **** static inline lv_coord_t lv_obj_get_style_height(const struct _lv_obj_t * obj, uint32_t part)
  20:D:/update_2024EL/changeform/743zit6/lvgl/src/core\lv_obj_style_gen.h **** {
  21:D:/update_2024EL/changeform/743zit6/lvgl/src/core\lv_obj_style_gen.h ****     lv_style_value_t v = lv_obj_get_style_prop(obj, part, LV_STYLE_HEIGHT);
  22:D:/update_2024EL/changeform/743zit6/lvgl/src/core\lv_obj_style_gen.h ****     return (lv_coord_t)v.num;
  23:D:/update_2024EL/changeform/743zit6/lvgl/src/core\lv_obj_style_gen.h **** }
  24:D:/update_2024EL/changeform/743zit6/lvgl/src/core\lv_obj_style_gen.h **** 
  25:D:/update_2024EL/changeform/743zit6/lvgl/src/core\lv_obj_style_gen.h **** static inline lv_coord_t lv_obj_get_style_min_height(const struct _lv_obj_t * obj, uint32_t part)
  26:D:/update_2024EL/changeform/743zit6/lvgl/src/core\lv_obj_style_gen.h **** {
  27:D:/update_2024EL/changeform/743zit6/lvgl/src/core\lv_obj_style_gen.h ****     lv_style_value_t v = lv_obj_get_style_prop(obj, part, LV_STYLE_MIN_HEIGHT);
  28:D:/update_2024EL/changeform/743zit6/lvgl/src/core\lv_obj_style_gen.h ****     return (lv_coord_t)v.num;
  29:D:/update_2024EL/changeform/743zit6/lvgl/src/core\lv_obj_style_gen.h **** }
  30:D:/update_2024EL/changeform/743zit6/lvgl/src/core\lv_obj_style_gen.h **** 
  31:D:/update_2024EL/changeform/743zit6/lvgl/src/core\lv_obj_style_gen.h **** static inline lv_coord_t lv_obj_get_style_max_height(const struct _lv_obj_t * obj, uint32_t part)
  32:D:/update_2024EL/changeform/743zit6/lvgl/src/core\lv_obj_style_gen.h **** {
  33:D:/update_2024EL/changeform/743zit6/lvgl/src/core\lv_obj_style_gen.h ****     lv_style_value_t v = lv_obj_get_style_prop(obj, part, LV_STYLE_MAX_HEIGHT);
  34:D:/update_2024EL/changeform/743zit6/lvgl/src/core\lv_obj_style_gen.h ****     return (lv_coord_t)v.num;
  35:D:/update_2024EL/changeform/743zit6/lvgl/src/core\lv_obj_style_gen.h **** }
  36:D:/update_2024EL/changeform/743zit6/lvgl/src/core\lv_obj_style_gen.h **** 
  37:D:/update_2024EL/changeform/743zit6/lvgl/src/core\lv_obj_style_gen.h **** static inline lv_coord_t lv_obj_get_style_x(const struct _lv_obj_t * obj, uint32_t part)
  38:D:/update_2024EL/changeform/743zit6/lvgl/src/core\lv_obj_style_gen.h **** {
  39:D:/update_2024EL/changeform/743zit6/lvgl/src/core\lv_obj_style_gen.h ****     lv_style_value_t v = lv_obj_get_style_prop(obj, part, LV_STYLE_X);
  40:D:/update_2024EL/changeform/743zit6/lvgl/src/core\lv_obj_style_gen.h ****     return (lv_coord_t)v.num;
  41:D:/update_2024EL/changeform/743zit6/lvgl/src/core\lv_obj_style_gen.h **** }
  42:D:/update_2024EL/changeform/743zit6/lvgl/src/core\lv_obj_style_gen.h **** 
  43:D:/update_2024EL/changeform/743zit6/lvgl/src/core\lv_obj_style_gen.h **** static inline lv_coord_t lv_obj_get_style_y(const struct _lv_obj_t * obj, uint32_t part)
  44:D:/update_2024EL/changeform/743zit6/lvgl/src/core\lv_obj_style_gen.h **** {
  45:D:/update_2024EL/changeform/743zit6/lvgl/src/core\lv_obj_style_gen.h ****     lv_style_value_t v = lv_obj_get_style_prop(obj, part, LV_STYLE_Y);
  46:D:/update_2024EL/changeform/743zit6/lvgl/src/core\lv_obj_style_gen.h ****     return (lv_coord_t)v.num;
  47:D:/update_2024EL/changeform/743zit6/lvgl/src/core\lv_obj_style_gen.h **** }
  48:D:/update_2024EL/changeform/743zit6/lvgl/src/core\lv_obj_style_gen.h **** 
  49:D:/update_2024EL/changeform/743zit6/lvgl/src/core\lv_obj_style_gen.h **** static inline lv_align_t lv_obj_get_style_align(const struct _lv_obj_t * obj, uint32_t part)
  50:D:/update_2024EL/changeform/743zit6/lvgl/src/core\lv_obj_style_gen.h **** {
  51:D:/update_2024EL/changeform/743zit6/lvgl/src/core\lv_obj_style_gen.h ****     lv_style_value_t v = lv_obj_get_style_prop(obj, part, LV_STYLE_ALIGN);
  52:D:/update_2024EL/changeform/743zit6/lvgl/src/core\lv_obj_style_gen.h ****     return (lv_align_t)v.num;
  53:D:/update_2024EL/changeform/743zit6/lvgl/src/core\lv_obj_style_gen.h **** }
  54:D:/update_2024EL/changeform/743zit6/lvgl/src/core\lv_obj_style_gen.h **** 
  55:D:/update_2024EL/changeform/743zit6/lvgl/src/core\lv_obj_style_gen.h **** static inline lv_coord_t lv_obj_get_style_transform_width(const struct _lv_obj_t * obj, uint32_t pa
  56:D:/update_2024EL/changeform/743zit6/lvgl/src/core\lv_obj_style_gen.h **** {
  57:D:/update_2024EL/changeform/743zit6/lvgl/src/core\lv_obj_style_gen.h ****     lv_style_value_t v = lv_obj_get_style_prop(obj, part, LV_STYLE_TRANSFORM_WIDTH);
  58:D:/update_2024EL/changeform/743zit6/lvgl/src/core\lv_obj_style_gen.h ****     return (lv_coord_t)v.num;
  59:D:/update_2024EL/changeform/743zit6/lvgl/src/core\lv_obj_style_gen.h **** }
  60:D:/update_2024EL/changeform/743zit6/lvgl/src/core\lv_obj_style_gen.h **** 
  61:D:/update_2024EL/changeform/743zit6/lvgl/src/core\lv_obj_style_gen.h **** static inline lv_coord_t lv_obj_get_style_transform_height(const struct _lv_obj_t * obj, uint32_t p
  62:D:/update_2024EL/changeform/743zit6/lvgl/src/core\lv_obj_style_gen.h **** {
  63:D:/update_2024EL/changeform/743zit6/lvgl/src/core\lv_obj_style_gen.h ****     lv_style_value_t v = lv_obj_get_style_prop(obj, part, LV_STYLE_TRANSFORM_HEIGHT);
  64:D:/update_2024EL/changeform/743zit6/lvgl/src/core\lv_obj_style_gen.h ****     return (lv_coord_t)v.num;
  65:D:/update_2024EL/changeform/743zit6/lvgl/src/core\lv_obj_style_gen.h **** }
  66:D:/update_2024EL/changeform/743zit6/lvgl/src/core\lv_obj_style_gen.h **** 
  67:D:/update_2024EL/changeform/743zit6/lvgl/src/core\lv_obj_style_gen.h **** static inline lv_coord_t lv_obj_get_style_translate_x(const struct _lv_obj_t * obj, uint32_t part)
  68:D:/update_2024EL/changeform/743zit6/lvgl/src/core\lv_obj_style_gen.h **** {
  69:D:/update_2024EL/changeform/743zit6/lvgl/src/core\lv_obj_style_gen.h ****     lv_style_value_t v = lv_obj_get_style_prop(obj, part, LV_STYLE_TRANSLATE_X);
  70:D:/update_2024EL/changeform/743zit6/lvgl/src/core\lv_obj_style_gen.h ****     return (lv_coord_t)v.num;
  71:D:/update_2024EL/changeform/743zit6/lvgl/src/core\lv_obj_style_gen.h **** }
  72:D:/update_2024EL/changeform/743zit6/lvgl/src/core\lv_obj_style_gen.h **** 
ARM GAS  C:\usertemp\ccWXrwmL.s 			page 20


  73:D:/update_2024EL/changeform/743zit6/lvgl/src/core\lv_obj_style_gen.h **** static inline lv_coord_t lv_obj_get_style_translate_y(const struct _lv_obj_t * obj, uint32_t part)
  74:D:/update_2024EL/changeform/743zit6/lvgl/src/core\lv_obj_style_gen.h **** {
  75:D:/update_2024EL/changeform/743zit6/lvgl/src/core\lv_obj_style_gen.h ****     lv_style_value_t v = lv_obj_get_style_prop(obj, part, LV_STYLE_TRANSLATE_Y);
  76:D:/update_2024EL/changeform/743zit6/lvgl/src/core\lv_obj_style_gen.h ****     return (lv_coord_t)v.num;
  77:D:/update_2024EL/changeform/743zit6/lvgl/src/core\lv_obj_style_gen.h **** }
  78:D:/update_2024EL/changeform/743zit6/lvgl/src/core\lv_obj_style_gen.h **** 
  79:D:/update_2024EL/changeform/743zit6/lvgl/src/core\lv_obj_style_gen.h **** static inline lv_coord_t lv_obj_get_style_transform_zoom(const struct _lv_obj_t * obj, uint32_t par
  80:D:/update_2024EL/changeform/743zit6/lvgl/src/core\lv_obj_style_gen.h **** {
  81:D:/update_2024EL/changeform/743zit6/lvgl/src/core\lv_obj_style_gen.h ****     lv_style_value_t v = lv_obj_get_style_prop(obj, part, LV_STYLE_TRANSFORM_ZOOM);
  82:D:/update_2024EL/changeform/743zit6/lvgl/src/core\lv_obj_style_gen.h ****     return (lv_coord_t)v.num;
  83:D:/update_2024EL/changeform/743zit6/lvgl/src/core\lv_obj_style_gen.h **** }
  84:D:/update_2024EL/changeform/743zit6/lvgl/src/core\lv_obj_style_gen.h **** 
  85:D:/update_2024EL/changeform/743zit6/lvgl/src/core\lv_obj_style_gen.h **** static inline lv_coord_t lv_obj_get_style_transform_angle(const struct _lv_obj_t * obj, uint32_t pa
  86:D:/update_2024EL/changeform/743zit6/lvgl/src/core\lv_obj_style_gen.h **** {
  87:D:/update_2024EL/changeform/743zit6/lvgl/src/core\lv_obj_style_gen.h ****     lv_style_value_t v = lv_obj_get_style_prop(obj, part, LV_STYLE_TRANSFORM_ANGLE);
  88:D:/update_2024EL/changeform/743zit6/lvgl/src/core\lv_obj_style_gen.h ****     return (lv_coord_t)v.num;
  89:D:/update_2024EL/changeform/743zit6/lvgl/src/core\lv_obj_style_gen.h **** }
  90:D:/update_2024EL/changeform/743zit6/lvgl/src/core\lv_obj_style_gen.h **** 
  91:D:/update_2024EL/changeform/743zit6/lvgl/src/core\lv_obj_style_gen.h **** static inline lv_coord_t lv_obj_get_style_pad_top(const struct _lv_obj_t * obj, uint32_t part)
  92:D:/update_2024EL/changeform/743zit6/lvgl/src/core\lv_obj_style_gen.h **** {
  93:D:/update_2024EL/changeform/743zit6/lvgl/src/core\lv_obj_style_gen.h ****     lv_style_value_t v = lv_obj_get_style_prop(obj, part, LV_STYLE_PAD_TOP);
  94:D:/update_2024EL/changeform/743zit6/lvgl/src/core\lv_obj_style_gen.h ****     return (lv_coord_t)v.num;
  95:D:/update_2024EL/changeform/743zit6/lvgl/src/core\lv_obj_style_gen.h **** }
  96:D:/update_2024EL/changeform/743zit6/lvgl/src/core\lv_obj_style_gen.h **** 
  97:D:/update_2024EL/changeform/743zit6/lvgl/src/core\lv_obj_style_gen.h **** static inline lv_coord_t lv_obj_get_style_pad_bottom(const struct _lv_obj_t * obj, uint32_t part)
  98:D:/update_2024EL/changeform/743zit6/lvgl/src/core\lv_obj_style_gen.h **** {
  99:D:/update_2024EL/changeform/743zit6/lvgl/src/core\lv_obj_style_gen.h ****     lv_style_value_t v = lv_obj_get_style_prop(obj, part, LV_STYLE_PAD_BOTTOM);
 100:D:/update_2024EL/changeform/743zit6/lvgl/src/core\lv_obj_style_gen.h ****     return (lv_coord_t)v.num;
 101:D:/update_2024EL/changeform/743zit6/lvgl/src/core\lv_obj_style_gen.h **** }
 102:D:/update_2024EL/changeform/743zit6/lvgl/src/core\lv_obj_style_gen.h **** 
 103:D:/update_2024EL/changeform/743zit6/lvgl/src/core\lv_obj_style_gen.h **** static inline lv_coord_t lv_obj_get_style_pad_left(const struct _lv_obj_t * obj, uint32_t part)
 104:D:/update_2024EL/changeform/743zit6/lvgl/src/core\lv_obj_style_gen.h **** {
 105:D:/update_2024EL/changeform/743zit6/lvgl/src/core\lv_obj_style_gen.h ****     lv_style_value_t v = lv_obj_get_style_prop(obj, part, LV_STYLE_PAD_LEFT);
 106:D:/update_2024EL/changeform/743zit6/lvgl/src/core\lv_obj_style_gen.h ****     return (lv_coord_t)v.num;
 107:D:/update_2024EL/changeform/743zit6/lvgl/src/core\lv_obj_style_gen.h **** }
 108:D:/update_2024EL/changeform/743zit6/lvgl/src/core\lv_obj_style_gen.h **** 
 109:D:/update_2024EL/changeform/743zit6/lvgl/src/core\lv_obj_style_gen.h **** static inline lv_coord_t lv_obj_get_style_pad_right(const struct _lv_obj_t * obj, uint32_t part)
 110:D:/update_2024EL/changeform/743zit6/lvgl/src/core\lv_obj_style_gen.h **** {
 111:D:/update_2024EL/changeform/743zit6/lvgl/src/core\lv_obj_style_gen.h ****     lv_style_value_t v = lv_obj_get_style_prop(obj, part, LV_STYLE_PAD_RIGHT);
 112:D:/update_2024EL/changeform/743zit6/lvgl/src/core\lv_obj_style_gen.h ****     return (lv_coord_t)v.num;
 113:D:/update_2024EL/changeform/743zit6/lvgl/src/core\lv_obj_style_gen.h **** }
 114:D:/update_2024EL/changeform/743zit6/lvgl/src/core\lv_obj_style_gen.h **** 
 115:D:/update_2024EL/changeform/743zit6/lvgl/src/core\lv_obj_style_gen.h **** static inline lv_coord_t lv_obj_get_style_pad_row(const struct _lv_obj_t * obj, uint32_t part)
 116:D:/update_2024EL/changeform/743zit6/lvgl/src/core\lv_obj_style_gen.h **** {
 117:D:/update_2024EL/changeform/743zit6/lvgl/src/core\lv_obj_style_gen.h ****     lv_style_value_t v = lv_obj_get_style_prop(obj, part, LV_STYLE_PAD_ROW);
 118:D:/update_2024EL/changeform/743zit6/lvgl/src/core\lv_obj_style_gen.h ****     return (lv_coord_t)v.num;
 119:D:/update_2024EL/changeform/743zit6/lvgl/src/core\lv_obj_style_gen.h **** }
 120:D:/update_2024EL/changeform/743zit6/lvgl/src/core\lv_obj_style_gen.h **** 
 121:D:/update_2024EL/changeform/743zit6/lvgl/src/core\lv_obj_style_gen.h **** static inline lv_coord_t lv_obj_get_style_pad_column(const struct _lv_obj_t * obj, uint32_t part)
 623              		.loc 2 121 26 view .LVU157
 624              	.LBB15:
 122:D:/update_2024EL/changeform/743zit6/lvgl/src/core\lv_obj_style_gen.h **** {
 123:D:/update_2024EL/changeform/743zit6/lvgl/src/core\lv_obj_style_gen.h ****     lv_style_value_t v = lv_obj_get_style_prop(obj, part, LV_STYLE_PAD_COLUMN);
 625              		.loc 2 123 5 view .LVU158
 626              		.loc 2 123 26 is_stmt 0 view .LVU159
 627 0022 41F61502 		movw	r2, #6165
 628 0026 0021     		movs	r1, #0
ARM GAS  C:\usertemp\ccWXrwmL.s 			page 21


 629 0028 FFF7FEFF 		bl	lv_obj_get_style_prop
 630              	.LVL77:
 124:D:/update_2024EL/changeform/743zit6/lvgl/src/core\lv_obj_style_gen.h ****     return (lv_coord_t)v.num;
 631              		.loc 2 124 5 is_stmt 1 view .LVU160
 632              		.loc 2 124 12 is_stmt 0 view .LVU161
 633 002c 0FFA80F8 		sxth	r8, r0
 634              	.LVL78:
 635              		.loc 2 124 12 view .LVU162
 636              	.LBE15:
 637              	.LBE14:
 139:lvgl/src/extra/widgets/tabview/lv_tabview.c ****     if(lv_obj_get_style_base_dir(obj, LV_PART_MAIN) != LV_BASE_DIR_RTL) {
 638              		.loc 1 139 5 is_stmt 1 view .LVU163
 139:lvgl/src/extra/widgets/tabview/lv_tabview.c ****     if(lv_obj_get_style_base_dir(obj, LV_PART_MAIN) != LV_BASE_DIR_RTL) {
 639              		.loc 1 139 20 is_stmt 0 view .LVU164
 640 0030 3846     		mov	r0, r7
 641 0032 FFF7FEFF 		bl	lv_obj_get_content_width
 642              	.LVL79:
 643 0036 8146     		mov	r9, r0
 644              	.LVL80:
 140:lvgl/src/extra/widgets/tabview/lv_tabview.c ****         lv_obj_scroll_to_x(cont, id * (gap + w), anim_en);
 645              		.loc 1 140 5 is_stmt 1 view .LVU165
 646              	.LBB16:
 647              	.LBI16:
 125:D:/update_2024EL/changeform/743zit6/lvgl/src/core\lv_obj_style_gen.h **** }
 126:D:/update_2024EL/changeform/743zit6/lvgl/src/core\lv_obj_style_gen.h **** 
 127:D:/update_2024EL/changeform/743zit6/lvgl/src/core\lv_obj_style_gen.h **** static inline lv_color_t lv_obj_get_style_bg_color(const struct _lv_obj_t * obj, uint32_t part)
 128:D:/update_2024EL/changeform/743zit6/lvgl/src/core\lv_obj_style_gen.h **** {
 129:D:/update_2024EL/changeform/743zit6/lvgl/src/core\lv_obj_style_gen.h ****     lv_style_value_t v = lv_obj_get_style_prop(obj, part, LV_STYLE_BG_COLOR);
 130:D:/update_2024EL/changeform/743zit6/lvgl/src/core\lv_obj_style_gen.h ****     return v.color;
 131:D:/update_2024EL/changeform/743zit6/lvgl/src/core\lv_obj_style_gen.h **** }
 132:D:/update_2024EL/changeform/743zit6/lvgl/src/core\lv_obj_style_gen.h **** 
 133:D:/update_2024EL/changeform/743zit6/lvgl/src/core\lv_obj_style_gen.h **** static inline lv_color_t lv_obj_get_style_bg_color_filtered(const struct _lv_obj_t * obj, uint32_t 
 134:D:/update_2024EL/changeform/743zit6/lvgl/src/core\lv_obj_style_gen.h **** {
 135:D:/update_2024EL/changeform/743zit6/lvgl/src/core\lv_obj_style_gen.h ****     lv_style_value_t v = lv_obj_get_style_prop(obj, part, LV_STYLE_BG_COLOR_FILTERED);
 136:D:/update_2024EL/changeform/743zit6/lvgl/src/core\lv_obj_style_gen.h ****     return v.color;
 137:D:/update_2024EL/changeform/743zit6/lvgl/src/core\lv_obj_style_gen.h **** }
 138:D:/update_2024EL/changeform/743zit6/lvgl/src/core\lv_obj_style_gen.h **** 
 139:D:/update_2024EL/changeform/743zit6/lvgl/src/core\lv_obj_style_gen.h **** static inline lv_opa_t lv_obj_get_style_bg_opa(const struct _lv_obj_t * obj, uint32_t part)
 140:D:/update_2024EL/changeform/743zit6/lvgl/src/core\lv_obj_style_gen.h **** {
 141:D:/update_2024EL/changeform/743zit6/lvgl/src/core\lv_obj_style_gen.h ****     lv_style_value_t v = lv_obj_get_style_prop(obj, part, LV_STYLE_BG_OPA);
 142:D:/update_2024EL/changeform/743zit6/lvgl/src/core\lv_obj_style_gen.h ****     return (lv_opa_t)v.num;
 143:D:/update_2024EL/changeform/743zit6/lvgl/src/core\lv_obj_style_gen.h **** }
 144:D:/update_2024EL/changeform/743zit6/lvgl/src/core\lv_obj_style_gen.h **** 
 145:D:/update_2024EL/changeform/743zit6/lvgl/src/core\lv_obj_style_gen.h **** static inline lv_color_t lv_obj_get_style_bg_grad_color(const struct _lv_obj_t * obj, uint32_t part
 146:D:/update_2024EL/changeform/743zit6/lvgl/src/core\lv_obj_style_gen.h **** {
 147:D:/update_2024EL/changeform/743zit6/lvgl/src/core\lv_obj_style_gen.h ****     lv_style_value_t v = lv_obj_get_style_prop(obj, part, LV_STYLE_BG_GRAD_COLOR);
 148:D:/update_2024EL/changeform/743zit6/lvgl/src/core\lv_obj_style_gen.h ****     return v.color;
 149:D:/update_2024EL/changeform/743zit6/lvgl/src/core\lv_obj_style_gen.h **** }
 150:D:/update_2024EL/changeform/743zit6/lvgl/src/core\lv_obj_style_gen.h **** 
 151:D:/update_2024EL/changeform/743zit6/lvgl/src/core\lv_obj_style_gen.h **** static inline lv_color_t lv_obj_get_style_bg_grad_color_filtered(const struct _lv_obj_t * obj, uint
 152:D:/update_2024EL/changeform/743zit6/lvgl/src/core\lv_obj_style_gen.h **** {
 153:D:/update_2024EL/changeform/743zit6/lvgl/src/core\lv_obj_style_gen.h ****     lv_style_value_t v = lv_obj_get_style_prop(obj, part, LV_STYLE_BG_GRAD_COLOR_FILTERED);
 154:D:/update_2024EL/changeform/743zit6/lvgl/src/core\lv_obj_style_gen.h ****     return v.color;
 155:D:/update_2024EL/changeform/743zit6/lvgl/src/core\lv_obj_style_gen.h **** }
 156:D:/update_2024EL/changeform/743zit6/lvgl/src/core\lv_obj_style_gen.h **** 
 157:D:/update_2024EL/changeform/743zit6/lvgl/src/core\lv_obj_style_gen.h **** static inline lv_grad_dir_t lv_obj_get_style_bg_grad_dir(const struct _lv_obj_t * obj, uint32_t par
 158:D:/update_2024EL/changeform/743zit6/lvgl/src/core\lv_obj_style_gen.h **** {
ARM GAS  C:\usertemp\ccWXrwmL.s 			page 22


 159:D:/update_2024EL/changeform/743zit6/lvgl/src/core\lv_obj_style_gen.h ****     lv_style_value_t v = lv_obj_get_style_prop(obj, part, LV_STYLE_BG_GRAD_DIR);
 160:D:/update_2024EL/changeform/743zit6/lvgl/src/core\lv_obj_style_gen.h ****     return (lv_grad_dir_t)v.num;
 161:D:/update_2024EL/changeform/743zit6/lvgl/src/core\lv_obj_style_gen.h **** }
 162:D:/update_2024EL/changeform/743zit6/lvgl/src/core\lv_obj_style_gen.h **** 
 163:D:/update_2024EL/changeform/743zit6/lvgl/src/core\lv_obj_style_gen.h **** static inline lv_coord_t lv_obj_get_style_bg_main_stop(const struct _lv_obj_t * obj, uint32_t part)
 164:D:/update_2024EL/changeform/743zit6/lvgl/src/core\lv_obj_style_gen.h **** {
 165:D:/update_2024EL/changeform/743zit6/lvgl/src/core\lv_obj_style_gen.h ****     lv_style_value_t v = lv_obj_get_style_prop(obj, part, LV_STYLE_BG_MAIN_STOP);
 166:D:/update_2024EL/changeform/743zit6/lvgl/src/core\lv_obj_style_gen.h ****     return (lv_coord_t)v.num;
 167:D:/update_2024EL/changeform/743zit6/lvgl/src/core\lv_obj_style_gen.h **** }
 168:D:/update_2024EL/changeform/743zit6/lvgl/src/core\lv_obj_style_gen.h **** 
 169:D:/update_2024EL/changeform/743zit6/lvgl/src/core\lv_obj_style_gen.h **** static inline lv_coord_t lv_obj_get_style_bg_grad_stop(const struct _lv_obj_t * obj, uint32_t part)
 170:D:/update_2024EL/changeform/743zit6/lvgl/src/core\lv_obj_style_gen.h **** {
 171:D:/update_2024EL/changeform/743zit6/lvgl/src/core\lv_obj_style_gen.h ****     lv_style_value_t v = lv_obj_get_style_prop(obj, part, LV_STYLE_BG_GRAD_STOP);
 172:D:/update_2024EL/changeform/743zit6/lvgl/src/core\lv_obj_style_gen.h ****     return (lv_coord_t)v.num;
 173:D:/update_2024EL/changeform/743zit6/lvgl/src/core\lv_obj_style_gen.h **** }
 174:D:/update_2024EL/changeform/743zit6/lvgl/src/core\lv_obj_style_gen.h **** 
 175:D:/update_2024EL/changeform/743zit6/lvgl/src/core\lv_obj_style_gen.h **** static inline const lv_grad_dsc_t * lv_obj_get_style_bg_grad(const struct _lv_obj_t * obj, uint32_t
 176:D:/update_2024EL/changeform/743zit6/lvgl/src/core\lv_obj_style_gen.h **** {
 177:D:/update_2024EL/changeform/743zit6/lvgl/src/core\lv_obj_style_gen.h ****     lv_style_value_t v = lv_obj_get_style_prop(obj, part, LV_STYLE_BG_GRAD);
 178:D:/update_2024EL/changeform/743zit6/lvgl/src/core\lv_obj_style_gen.h ****     return (const lv_grad_dsc_t *)v.ptr;
 179:D:/update_2024EL/changeform/743zit6/lvgl/src/core\lv_obj_style_gen.h **** }
 180:D:/update_2024EL/changeform/743zit6/lvgl/src/core\lv_obj_style_gen.h **** 
 181:D:/update_2024EL/changeform/743zit6/lvgl/src/core\lv_obj_style_gen.h **** static inline lv_dither_mode_t lv_obj_get_style_bg_dither_mode(const struct _lv_obj_t * obj, uint32
 182:D:/update_2024EL/changeform/743zit6/lvgl/src/core\lv_obj_style_gen.h **** {
 183:D:/update_2024EL/changeform/743zit6/lvgl/src/core\lv_obj_style_gen.h ****     lv_style_value_t v = lv_obj_get_style_prop(obj, part, LV_STYLE_BG_DITHER_MODE);
 184:D:/update_2024EL/changeform/743zit6/lvgl/src/core\lv_obj_style_gen.h ****     return (lv_dither_mode_t)v.num;
 185:D:/update_2024EL/changeform/743zit6/lvgl/src/core\lv_obj_style_gen.h **** }
 186:D:/update_2024EL/changeform/743zit6/lvgl/src/core\lv_obj_style_gen.h **** 
 187:D:/update_2024EL/changeform/743zit6/lvgl/src/core\lv_obj_style_gen.h **** static inline const void * lv_obj_get_style_bg_img_src(const struct _lv_obj_t * obj, uint32_t part)
 188:D:/update_2024EL/changeform/743zit6/lvgl/src/core\lv_obj_style_gen.h **** {
 189:D:/update_2024EL/changeform/743zit6/lvgl/src/core\lv_obj_style_gen.h ****     lv_style_value_t v = lv_obj_get_style_prop(obj, part, LV_STYLE_BG_IMG_SRC);
 190:D:/update_2024EL/changeform/743zit6/lvgl/src/core\lv_obj_style_gen.h ****     return (const void *)v.ptr;
 191:D:/update_2024EL/changeform/743zit6/lvgl/src/core\lv_obj_style_gen.h **** }
 192:D:/update_2024EL/changeform/743zit6/lvgl/src/core\lv_obj_style_gen.h **** 
 193:D:/update_2024EL/changeform/743zit6/lvgl/src/core\lv_obj_style_gen.h **** static inline lv_opa_t lv_obj_get_style_bg_img_opa(const struct _lv_obj_t * obj, uint32_t part)
 194:D:/update_2024EL/changeform/743zit6/lvgl/src/core\lv_obj_style_gen.h **** {
 195:D:/update_2024EL/changeform/743zit6/lvgl/src/core\lv_obj_style_gen.h ****     lv_style_value_t v = lv_obj_get_style_prop(obj, part, LV_STYLE_BG_IMG_OPA);
 196:D:/update_2024EL/changeform/743zit6/lvgl/src/core\lv_obj_style_gen.h ****     return (lv_opa_t)v.num;
 197:D:/update_2024EL/changeform/743zit6/lvgl/src/core\lv_obj_style_gen.h **** }
 198:D:/update_2024EL/changeform/743zit6/lvgl/src/core\lv_obj_style_gen.h **** 
 199:D:/update_2024EL/changeform/743zit6/lvgl/src/core\lv_obj_style_gen.h **** static inline lv_color_t lv_obj_get_style_bg_img_recolor(const struct _lv_obj_t * obj, uint32_t par
 200:D:/update_2024EL/changeform/743zit6/lvgl/src/core\lv_obj_style_gen.h **** {
 201:D:/update_2024EL/changeform/743zit6/lvgl/src/core\lv_obj_style_gen.h ****     lv_style_value_t v = lv_obj_get_style_prop(obj, part, LV_STYLE_BG_IMG_RECOLOR);
 202:D:/update_2024EL/changeform/743zit6/lvgl/src/core\lv_obj_style_gen.h ****     return v.color;
 203:D:/update_2024EL/changeform/743zit6/lvgl/src/core\lv_obj_style_gen.h **** }
 204:D:/update_2024EL/changeform/743zit6/lvgl/src/core\lv_obj_style_gen.h **** 
 205:D:/update_2024EL/changeform/743zit6/lvgl/src/core\lv_obj_style_gen.h **** static inline lv_color_t lv_obj_get_style_bg_img_recolor_filtered(const struct _lv_obj_t * obj, uin
 206:D:/update_2024EL/changeform/743zit6/lvgl/src/core\lv_obj_style_gen.h **** {
 207:D:/update_2024EL/changeform/743zit6/lvgl/src/core\lv_obj_style_gen.h ****     lv_style_value_t v = lv_obj_get_style_prop(obj, part, LV_STYLE_BG_IMG_RECOLOR_FILTERED);
 208:D:/update_2024EL/changeform/743zit6/lvgl/src/core\lv_obj_style_gen.h ****     return v.color;
 209:D:/update_2024EL/changeform/743zit6/lvgl/src/core\lv_obj_style_gen.h **** }
 210:D:/update_2024EL/changeform/743zit6/lvgl/src/core\lv_obj_style_gen.h **** 
 211:D:/update_2024EL/changeform/743zit6/lvgl/src/core\lv_obj_style_gen.h **** static inline lv_opa_t lv_obj_get_style_bg_img_recolor_opa(const struct _lv_obj_t * obj, uint32_t p
 212:D:/update_2024EL/changeform/743zit6/lvgl/src/core\lv_obj_style_gen.h **** {
 213:D:/update_2024EL/changeform/743zit6/lvgl/src/core\lv_obj_style_gen.h ****     lv_style_value_t v = lv_obj_get_style_prop(obj, part, LV_STYLE_BG_IMG_RECOLOR_OPA);
 214:D:/update_2024EL/changeform/743zit6/lvgl/src/core\lv_obj_style_gen.h ****     return (lv_opa_t)v.num;
 215:D:/update_2024EL/changeform/743zit6/lvgl/src/core\lv_obj_style_gen.h **** }
ARM GAS  C:\usertemp\ccWXrwmL.s 			page 23


 216:D:/update_2024EL/changeform/743zit6/lvgl/src/core\lv_obj_style_gen.h **** 
 217:D:/update_2024EL/changeform/743zit6/lvgl/src/core\lv_obj_style_gen.h **** static inline bool lv_obj_get_style_bg_img_tiled(const struct _lv_obj_t * obj, uint32_t part)
 218:D:/update_2024EL/changeform/743zit6/lvgl/src/core\lv_obj_style_gen.h **** {
 219:D:/update_2024EL/changeform/743zit6/lvgl/src/core\lv_obj_style_gen.h ****     lv_style_value_t v = lv_obj_get_style_prop(obj, part, LV_STYLE_BG_IMG_TILED);
 220:D:/update_2024EL/changeform/743zit6/lvgl/src/core\lv_obj_style_gen.h ****     return (bool)v.num;
 221:D:/update_2024EL/changeform/743zit6/lvgl/src/core\lv_obj_style_gen.h **** }
 222:D:/update_2024EL/changeform/743zit6/lvgl/src/core\lv_obj_style_gen.h **** 
 223:D:/update_2024EL/changeform/743zit6/lvgl/src/core\lv_obj_style_gen.h **** static inline lv_color_t lv_obj_get_style_border_color(const struct _lv_obj_t * obj, uint32_t part)
 224:D:/update_2024EL/changeform/743zit6/lvgl/src/core\lv_obj_style_gen.h **** {
 225:D:/update_2024EL/changeform/743zit6/lvgl/src/core\lv_obj_style_gen.h ****     lv_style_value_t v = lv_obj_get_style_prop(obj, part, LV_STYLE_BORDER_COLOR);
 226:D:/update_2024EL/changeform/743zit6/lvgl/src/core\lv_obj_style_gen.h ****     return v.color;
 227:D:/update_2024EL/changeform/743zit6/lvgl/src/core\lv_obj_style_gen.h **** }
 228:D:/update_2024EL/changeform/743zit6/lvgl/src/core\lv_obj_style_gen.h **** 
 229:D:/update_2024EL/changeform/743zit6/lvgl/src/core\lv_obj_style_gen.h **** static inline lv_color_t lv_obj_get_style_border_color_filtered(const struct _lv_obj_t * obj, uint3
 230:D:/update_2024EL/changeform/743zit6/lvgl/src/core\lv_obj_style_gen.h **** {
 231:D:/update_2024EL/changeform/743zit6/lvgl/src/core\lv_obj_style_gen.h ****     lv_style_value_t v = lv_obj_get_style_prop(obj, part, LV_STYLE_BORDER_COLOR_FILTERED);
 232:D:/update_2024EL/changeform/743zit6/lvgl/src/core\lv_obj_style_gen.h ****     return v.color;
 233:D:/update_2024EL/changeform/743zit6/lvgl/src/core\lv_obj_style_gen.h **** }
 234:D:/update_2024EL/changeform/743zit6/lvgl/src/core\lv_obj_style_gen.h **** 
 235:D:/update_2024EL/changeform/743zit6/lvgl/src/core\lv_obj_style_gen.h **** static inline lv_opa_t lv_obj_get_style_border_opa(const struct _lv_obj_t * obj, uint32_t part)
 236:D:/update_2024EL/changeform/743zit6/lvgl/src/core\lv_obj_style_gen.h **** {
 237:D:/update_2024EL/changeform/743zit6/lvgl/src/core\lv_obj_style_gen.h ****     lv_style_value_t v = lv_obj_get_style_prop(obj, part, LV_STYLE_BORDER_OPA);
 238:D:/update_2024EL/changeform/743zit6/lvgl/src/core\lv_obj_style_gen.h ****     return (lv_opa_t)v.num;
 239:D:/update_2024EL/changeform/743zit6/lvgl/src/core\lv_obj_style_gen.h **** }
 240:D:/update_2024EL/changeform/743zit6/lvgl/src/core\lv_obj_style_gen.h **** 
 241:D:/update_2024EL/changeform/743zit6/lvgl/src/core\lv_obj_style_gen.h **** static inline lv_coord_t lv_obj_get_style_border_width(const struct _lv_obj_t * obj, uint32_t part)
 242:D:/update_2024EL/changeform/743zit6/lvgl/src/core\lv_obj_style_gen.h **** {
 243:D:/update_2024EL/changeform/743zit6/lvgl/src/core\lv_obj_style_gen.h ****     lv_style_value_t v = lv_obj_get_style_prop(obj, part, LV_STYLE_BORDER_WIDTH);
 244:D:/update_2024EL/changeform/743zit6/lvgl/src/core\lv_obj_style_gen.h ****     return (lv_coord_t)v.num;
 245:D:/update_2024EL/changeform/743zit6/lvgl/src/core\lv_obj_style_gen.h **** }
 246:D:/update_2024EL/changeform/743zit6/lvgl/src/core\lv_obj_style_gen.h **** 
 247:D:/update_2024EL/changeform/743zit6/lvgl/src/core\lv_obj_style_gen.h **** static inline lv_border_side_t lv_obj_get_style_border_side(const struct _lv_obj_t * obj, uint32_t 
 248:D:/update_2024EL/changeform/743zit6/lvgl/src/core\lv_obj_style_gen.h **** {
 249:D:/update_2024EL/changeform/743zit6/lvgl/src/core\lv_obj_style_gen.h ****     lv_style_value_t v = lv_obj_get_style_prop(obj, part, LV_STYLE_BORDER_SIDE);
 250:D:/update_2024EL/changeform/743zit6/lvgl/src/core\lv_obj_style_gen.h ****     return (lv_border_side_t)v.num;
 251:D:/update_2024EL/changeform/743zit6/lvgl/src/core\lv_obj_style_gen.h **** }
 252:D:/update_2024EL/changeform/743zit6/lvgl/src/core\lv_obj_style_gen.h **** 
 253:D:/update_2024EL/changeform/743zit6/lvgl/src/core\lv_obj_style_gen.h **** static inline bool lv_obj_get_style_border_post(const struct _lv_obj_t * obj, uint32_t part)
 254:D:/update_2024EL/changeform/743zit6/lvgl/src/core\lv_obj_style_gen.h **** {
 255:D:/update_2024EL/changeform/743zit6/lvgl/src/core\lv_obj_style_gen.h ****     lv_style_value_t v = lv_obj_get_style_prop(obj, part, LV_STYLE_BORDER_POST);
 256:D:/update_2024EL/changeform/743zit6/lvgl/src/core\lv_obj_style_gen.h ****     return (bool)v.num;
 257:D:/update_2024EL/changeform/743zit6/lvgl/src/core\lv_obj_style_gen.h **** }
 258:D:/update_2024EL/changeform/743zit6/lvgl/src/core\lv_obj_style_gen.h **** 
 259:D:/update_2024EL/changeform/743zit6/lvgl/src/core\lv_obj_style_gen.h **** static inline lv_coord_t lv_obj_get_style_outline_width(const struct _lv_obj_t * obj, uint32_t part
 260:D:/update_2024EL/changeform/743zit6/lvgl/src/core\lv_obj_style_gen.h **** {
 261:D:/update_2024EL/changeform/743zit6/lvgl/src/core\lv_obj_style_gen.h ****     lv_style_value_t v = lv_obj_get_style_prop(obj, part, LV_STYLE_OUTLINE_WIDTH);
 262:D:/update_2024EL/changeform/743zit6/lvgl/src/core\lv_obj_style_gen.h ****     return (lv_coord_t)v.num;
 263:D:/update_2024EL/changeform/743zit6/lvgl/src/core\lv_obj_style_gen.h **** }
 264:D:/update_2024EL/changeform/743zit6/lvgl/src/core\lv_obj_style_gen.h **** 
 265:D:/update_2024EL/changeform/743zit6/lvgl/src/core\lv_obj_style_gen.h **** static inline lv_color_t lv_obj_get_style_outline_color(const struct _lv_obj_t * obj, uint32_t part
 266:D:/update_2024EL/changeform/743zit6/lvgl/src/core\lv_obj_style_gen.h **** {
 267:D:/update_2024EL/changeform/743zit6/lvgl/src/core\lv_obj_style_gen.h ****     lv_style_value_t v = lv_obj_get_style_prop(obj, part, LV_STYLE_OUTLINE_COLOR);
 268:D:/update_2024EL/changeform/743zit6/lvgl/src/core\lv_obj_style_gen.h ****     return v.color;
 269:D:/update_2024EL/changeform/743zit6/lvgl/src/core\lv_obj_style_gen.h **** }
 270:D:/update_2024EL/changeform/743zit6/lvgl/src/core\lv_obj_style_gen.h **** 
 271:D:/update_2024EL/changeform/743zit6/lvgl/src/core\lv_obj_style_gen.h **** static inline lv_color_t lv_obj_get_style_outline_color_filtered(const struct _lv_obj_t * obj, uint
 272:D:/update_2024EL/changeform/743zit6/lvgl/src/core\lv_obj_style_gen.h **** {
ARM GAS  C:\usertemp\ccWXrwmL.s 			page 24


 273:D:/update_2024EL/changeform/743zit6/lvgl/src/core\lv_obj_style_gen.h ****     lv_style_value_t v = lv_obj_get_style_prop(obj, part, LV_STYLE_OUTLINE_COLOR_FILTERED);
 274:D:/update_2024EL/changeform/743zit6/lvgl/src/core\lv_obj_style_gen.h ****     return v.color;
 275:D:/update_2024EL/changeform/743zit6/lvgl/src/core\lv_obj_style_gen.h **** }
 276:D:/update_2024EL/changeform/743zit6/lvgl/src/core\lv_obj_style_gen.h **** 
 277:D:/update_2024EL/changeform/743zit6/lvgl/src/core\lv_obj_style_gen.h **** static inline lv_opa_t lv_obj_get_style_outline_opa(const struct _lv_obj_t * obj, uint32_t part)
 278:D:/update_2024EL/changeform/743zit6/lvgl/src/core\lv_obj_style_gen.h **** {
 279:D:/update_2024EL/changeform/743zit6/lvgl/src/core\lv_obj_style_gen.h ****     lv_style_value_t v = lv_obj_get_style_prop(obj, part, LV_STYLE_OUTLINE_OPA);
 280:D:/update_2024EL/changeform/743zit6/lvgl/src/core\lv_obj_style_gen.h ****     return (lv_opa_t)v.num;
 281:D:/update_2024EL/changeform/743zit6/lvgl/src/core\lv_obj_style_gen.h **** }
 282:D:/update_2024EL/changeform/743zit6/lvgl/src/core\lv_obj_style_gen.h **** 
 283:D:/update_2024EL/changeform/743zit6/lvgl/src/core\lv_obj_style_gen.h **** static inline lv_coord_t lv_obj_get_style_outline_pad(const struct _lv_obj_t * obj, uint32_t part)
 284:D:/update_2024EL/changeform/743zit6/lvgl/src/core\lv_obj_style_gen.h **** {
 285:D:/update_2024EL/changeform/743zit6/lvgl/src/core\lv_obj_style_gen.h ****     lv_style_value_t v = lv_obj_get_style_prop(obj, part, LV_STYLE_OUTLINE_PAD);
 286:D:/update_2024EL/changeform/743zit6/lvgl/src/core\lv_obj_style_gen.h ****     return (lv_coord_t)v.num;
 287:D:/update_2024EL/changeform/743zit6/lvgl/src/core\lv_obj_style_gen.h **** }
 288:D:/update_2024EL/changeform/743zit6/lvgl/src/core\lv_obj_style_gen.h **** 
 289:D:/update_2024EL/changeform/743zit6/lvgl/src/core\lv_obj_style_gen.h **** static inline lv_coord_t lv_obj_get_style_shadow_width(const struct _lv_obj_t * obj, uint32_t part)
 290:D:/update_2024EL/changeform/743zit6/lvgl/src/core\lv_obj_style_gen.h **** {
 291:D:/update_2024EL/changeform/743zit6/lvgl/src/core\lv_obj_style_gen.h ****     lv_style_value_t v = lv_obj_get_style_prop(obj, part, LV_STYLE_SHADOW_WIDTH);
 292:D:/update_2024EL/changeform/743zit6/lvgl/src/core\lv_obj_style_gen.h ****     return (lv_coord_t)v.num;
 293:D:/update_2024EL/changeform/743zit6/lvgl/src/core\lv_obj_style_gen.h **** }
 294:D:/update_2024EL/changeform/743zit6/lvgl/src/core\lv_obj_style_gen.h **** 
 295:D:/update_2024EL/changeform/743zit6/lvgl/src/core\lv_obj_style_gen.h **** static inline lv_coord_t lv_obj_get_style_shadow_ofs_x(const struct _lv_obj_t * obj, uint32_t part)
 296:D:/update_2024EL/changeform/743zit6/lvgl/src/core\lv_obj_style_gen.h **** {
 297:D:/update_2024EL/changeform/743zit6/lvgl/src/core\lv_obj_style_gen.h ****     lv_style_value_t v = lv_obj_get_style_prop(obj, part, LV_STYLE_SHADOW_OFS_X);
 298:D:/update_2024EL/changeform/743zit6/lvgl/src/core\lv_obj_style_gen.h ****     return (lv_coord_t)v.num;
 299:D:/update_2024EL/changeform/743zit6/lvgl/src/core\lv_obj_style_gen.h **** }
 300:D:/update_2024EL/changeform/743zit6/lvgl/src/core\lv_obj_style_gen.h **** 
 301:D:/update_2024EL/changeform/743zit6/lvgl/src/core\lv_obj_style_gen.h **** static inline lv_coord_t lv_obj_get_style_shadow_ofs_y(const struct _lv_obj_t * obj, uint32_t part)
 302:D:/update_2024EL/changeform/743zit6/lvgl/src/core\lv_obj_style_gen.h **** {
 303:D:/update_2024EL/changeform/743zit6/lvgl/src/core\lv_obj_style_gen.h ****     lv_style_value_t v = lv_obj_get_style_prop(obj, part, LV_STYLE_SHADOW_OFS_Y);
 304:D:/update_2024EL/changeform/743zit6/lvgl/src/core\lv_obj_style_gen.h ****     return (lv_coord_t)v.num;
 305:D:/update_2024EL/changeform/743zit6/lvgl/src/core\lv_obj_style_gen.h **** }
 306:D:/update_2024EL/changeform/743zit6/lvgl/src/core\lv_obj_style_gen.h **** 
 307:D:/update_2024EL/changeform/743zit6/lvgl/src/core\lv_obj_style_gen.h **** static inline lv_coord_t lv_obj_get_style_shadow_spread(const struct _lv_obj_t * obj, uint32_t part
 308:D:/update_2024EL/changeform/743zit6/lvgl/src/core\lv_obj_style_gen.h **** {
 309:D:/update_2024EL/changeform/743zit6/lvgl/src/core\lv_obj_style_gen.h ****     lv_style_value_t v = lv_obj_get_style_prop(obj, part, LV_STYLE_SHADOW_SPREAD);
 310:D:/update_2024EL/changeform/743zit6/lvgl/src/core\lv_obj_style_gen.h ****     return (lv_coord_t)v.num;
 311:D:/update_2024EL/changeform/743zit6/lvgl/src/core\lv_obj_style_gen.h **** }
 312:D:/update_2024EL/changeform/743zit6/lvgl/src/core\lv_obj_style_gen.h **** 
 313:D:/update_2024EL/changeform/743zit6/lvgl/src/core\lv_obj_style_gen.h **** static inline lv_color_t lv_obj_get_style_shadow_color(const struct _lv_obj_t * obj, uint32_t part)
 314:D:/update_2024EL/changeform/743zit6/lvgl/src/core\lv_obj_style_gen.h **** {
 315:D:/update_2024EL/changeform/743zit6/lvgl/src/core\lv_obj_style_gen.h ****     lv_style_value_t v = lv_obj_get_style_prop(obj, part, LV_STYLE_SHADOW_COLOR);
 316:D:/update_2024EL/changeform/743zit6/lvgl/src/core\lv_obj_style_gen.h ****     return v.color;
 317:D:/update_2024EL/changeform/743zit6/lvgl/src/core\lv_obj_style_gen.h **** }
 318:D:/update_2024EL/changeform/743zit6/lvgl/src/core\lv_obj_style_gen.h **** 
 319:D:/update_2024EL/changeform/743zit6/lvgl/src/core\lv_obj_style_gen.h **** static inline lv_color_t lv_obj_get_style_shadow_color_filtered(const struct _lv_obj_t * obj, uint3
 320:D:/update_2024EL/changeform/743zit6/lvgl/src/core\lv_obj_style_gen.h **** {
 321:D:/update_2024EL/changeform/743zit6/lvgl/src/core\lv_obj_style_gen.h ****     lv_style_value_t v = lv_obj_get_style_prop(obj, part, LV_STYLE_SHADOW_COLOR_FILTERED);
 322:D:/update_2024EL/changeform/743zit6/lvgl/src/core\lv_obj_style_gen.h ****     return v.color;
 323:D:/update_2024EL/changeform/743zit6/lvgl/src/core\lv_obj_style_gen.h **** }
 324:D:/update_2024EL/changeform/743zit6/lvgl/src/core\lv_obj_style_gen.h **** 
 325:D:/update_2024EL/changeform/743zit6/lvgl/src/core\lv_obj_style_gen.h **** static inline lv_opa_t lv_obj_get_style_shadow_opa(const struct _lv_obj_t * obj, uint32_t part)
 326:D:/update_2024EL/changeform/743zit6/lvgl/src/core\lv_obj_style_gen.h **** {
 327:D:/update_2024EL/changeform/743zit6/lvgl/src/core\lv_obj_style_gen.h ****     lv_style_value_t v = lv_obj_get_style_prop(obj, part, LV_STYLE_SHADOW_OPA);
 328:D:/update_2024EL/changeform/743zit6/lvgl/src/core\lv_obj_style_gen.h ****     return (lv_opa_t)v.num;
 329:D:/update_2024EL/changeform/743zit6/lvgl/src/core\lv_obj_style_gen.h **** }
ARM GAS  C:\usertemp\ccWXrwmL.s 			page 25


 330:D:/update_2024EL/changeform/743zit6/lvgl/src/core\lv_obj_style_gen.h **** 
 331:D:/update_2024EL/changeform/743zit6/lvgl/src/core\lv_obj_style_gen.h **** static inline lv_opa_t lv_obj_get_style_img_opa(const struct _lv_obj_t * obj, uint32_t part)
 332:D:/update_2024EL/changeform/743zit6/lvgl/src/core\lv_obj_style_gen.h **** {
 333:D:/update_2024EL/changeform/743zit6/lvgl/src/core\lv_obj_style_gen.h ****     lv_style_value_t v = lv_obj_get_style_prop(obj, part, LV_STYLE_IMG_OPA);
 334:D:/update_2024EL/changeform/743zit6/lvgl/src/core\lv_obj_style_gen.h ****     return (lv_opa_t)v.num;
 335:D:/update_2024EL/changeform/743zit6/lvgl/src/core\lv_obj_style_gen.h **** }
 336:D:/update_2024EL/changeform/743zit6/lvgl/src/core\lv_obj_style_gen.h **** 
 337:D:/update_2024EL/changeform/743zit6/lvgl/src/core\lv_obj_style_gen.h **** static inline lv_color_t lv_obj_get_style_img_recolor(const struct _lv_obj_t * obj, uint32_t part)
 338:D:/update_2024EL/changeform/743zit6/lvgl/src/core\lv_obj_style_gen.h **** {
 339:D:/update_2024EL/changeform/743zit6/lvgl/src/core\lv_obj_style_gen.h ****     lv_style_value_t v = lv_obj_get_style_prop(obj, part, LV_STYLE_IMG_RECOLOR);
 340:D:/update_2024EL/changeform/743zit6/lvgl/src/core\lv_obj_style_gen.h ****     return v.color;
 341:D:/update_2024EL/changeform/743zit6/lvgl/src/core\lv_obj_style_gen.h **** }
 342:D:/update_2024EL/changeform/743zit6/lvgl/src/core\lv_obj_style_gen.h **** 
 343:D:/update_2024EL/changeform/743zit6/lvgl/src/core\lv_obj_style_gen.h **** static inline lv_color_t lv_obj_get_style_img_recolor_filtered(const struct _lv_obj_t * obj, uint32
 344:D:/update_2024EL/changeform/743zit6/lvgl/src/core\lv_obj_style_gen.h **** {
 345:D:/update_2024EL/changeform/743zit6/lvgl/src/core\lv_obj_style_gen.h ****     lv_style_value_t v = lv_obj_get_style_prop(obj, part, LV_STYLE_IMG_RECOLOR_FILTERED);
 346:D:/update_2024EL/changeform/743zit6/lvgl/src/core\lv_obj_style_gen.h ****     return v.color;
 347:D:/update_2024EL/changeform/743zit6/lvgl/src/core\lv_obj_style_gen.h **** }
 348:D:/update_2024EL/changeform/743zit6/lvgl/src/core\lv_obj_style_gen.h **** 
 349:D:/update_2024EL/changeform/743zit6/lvgl/src/core\lv_obj_style_gen.h **** static inline lv_opa_t lv_obj_get_style_img_recolor_opa(const struct _lv_obj_t * obj, uint32_t part
 350:D:/update_2024EL/changeform/743zit6/lvgl/src/core\lv_obj_style_gen.h **** {
 351:D:/update_2024EL/changeform/743zit6/lvgl/src/core\lv_obj_style_gen.h ****     lv_style_value_t v = lv_obj_get_style_prop(obj, part, LV_STYLE_IMG_RECOLOR_OPA);
 352:D:/update_2024EL/changeform/743zit6/lvgl/src/core\lv_obj_style_gen.h ****     return (lv_opa_t)v.num;
 353:D:/update_2024EL/changeform/743zit6/lvgl/src/core\lv_obj_style_gen.h **** }
 354:D:/update_2024EL/changeform/743zit6/lvgl/src/core\lv_obj_style_gen.h **** 
 355:D:/update_2024EL/changeform/743zit6/lvgl/src/core\lv_obj_style_gen.h **** static inline lv_coord_t lv_obj_get_style_line_width(const struct _lv_obj_t * obj, uint32_t part)
 356:D:/update_2024EL/changeform/743zit6/lvgl/src/core\lv_obj_style_gen.h **** {
 357:D:/update_2024EL/changeform/743zit6/lvgl/src/core\lv_obj_style_gen.h ****     lv_style_value_t v = lv_obj_get_style_prop(obj, part, LV_STYLE_LINE_WIDTH);
 358:D:/update_2024EL/changeform/743zit6/lvgl/src/core\lv_obj_style_gen.h ****     return (lv_coord_t)v.num;
 359:D:/update_2024EL/changeform/743zit6/lvgl/src/core\lv_obj_style_gen.h **** }
 360:D:/update_2024EL/changeform/743zit6/lvgl/src/core\lv_obj_style_gen.h **** 
 361:D:/update_2024EL/changeform/743zit6/lvgl/src/core\lv_obj_style_gen.h **** static inline lv_coord_t lv_obj_get_style_line_dash_width(const struct _lv_obj_t * obj, uint32_t pa
 362:D:/update_2024EL/changeform/743zit6/lvgl/src/core\lv_obj_style_gen.h **** {
 363:D:/update_2024EL/changeform/743zit6/lvgl/src/core\lv_obj_style_gen.h ****     lv_style_value_t v = lv_obj_get_style_prop(obj, part, LV_STYLE_LINE_DASH_WIDTH);
 364:D:/update_2024EL/changeform/743zit6/lvgl/src/core\lv_obj_style_gen.h ****     return (lv_coord_t)v.num;
 365:D:/update_2024EL/changeform/743zit6/lvgl/src/core\lv_obj_style_gen.h **** }
 366:D:/update_2024EL/changeform/743zit6/lvgl/src/core\lv_obj_style_gen.h **** 
 367:D:/update_2024EL/changeform/743zit6/lvgl/src/core\lv_obj_style_gen.h **** static inline lv_coord_t lv_obj_get_style_line_dash_gap(const struct _lv_obj_t * obj, uint32_t part
 368:D:/update_2024EL/changeform/743zit6/lvgl/src/core\lv_obj_style_gen.h **** {
 369:D:/update_2024EL/changeform/743zit6/lvgl/src/core\lv_obj_style_gen.h ****     lv_style_value_t v = lv_obj_get_style_prop(obj, part, LV_STYLE_LINE_DASH_GAP);
 370:D:/update_2024EL/changeform/743zit6/lvgl/src/core\lv_obj_style_gen.h ****     return (lv_coord_t)v.num;
 371:D:/update_2024EL/changeform/743zit6/lvgl/src/core\lv_obj_style_gen.h **** }
 372:D:/update_2024EL/changeform/743zit6/lvgl/src/core\lv_obj_style_gen.h **** 
 373:D:/update_2024EL/changeform/743zit6/lvgl/src/core\lv_obj_style_gen.h **** static inline bool lv_obj_get_style_line_rounded(const struct _lv_obj_t * obj, uint32_t part)
 374:D:/update_2024EL/changeform/743zit6/lvgl/src/core\lv_obj_style_gen.h **** {
 375:D:/update_2024EL/changeform/743zit6/lvgl/src/core\lv_obj_style_gen.h ****     lv_style_value_t v = lv_obj_get_style_prop(obj, part, LV_STYLE_LINE_ROUNDED);
 376:D:/update_2024EL/changeform/743zit6/lvgl/src/core\lv_obj_style_gen.h ****     return (bool)v.num;
 377:D:/update_2024EL/changeform/743zit6/lvgl/src/core\lv_obj_style_gen.h **** }
 378:D:/update_2024EL/changeform/743zit6/lvgl/src/core\lv_obj_style_gen.h **** 
 379:D:/update_2024EL/changeform/743zit6/lvgl/src/core\lv_obj_style_gen.h **** static inline lv_color_t lv_obj_get_style_line_color(const struct _lv_obj_t * obj, uint32_t part)
 380:D:/update_2024EL/changeform/743zit6/lvgl/src/core\lv_obj_style_gen.h **** {
 381:D:/update_2024EL/changeform/743zit6/lvgl/src/core\lv_obj_style_gen.h ****     lv_style_value_t v = lv_obj_get_style_prop(obj, part, LV_STYLE_LINE_COLOR);
 382:D:/update_2024EL/changeform/743zit6/lvgl/src/core\lv_obj_style_gen.h ****     return v.color;
 383:D:/update_2024EL/changeform/743zit6/lvgl/src/core\lv_obj_style_gen.h **** }
 384:D:/update_2024EL/changeform/743zit6/lvgl/src/core\lv_obj_style_gen.h **** 
 385:D:/update_2024EL/changeform/743zit6/lvgl/src/core\lv_obj_style_gen.h **** static inline lv_color_t lv_obj_get_style_line_color_filtered(const struct _lv_obj_t * obj, uint32_
 386:D:/update_2024EL/changeform/743zit6/lvgl/src/core\lv_obj_style_gen.h **** {
ARM GAS  C:\usertemp\ccWXrwmL.s 			page 26


 387:D:/update_2024EL/changeform/743zit6/lvgl/src/core\lv_obj_style_gen.h ****     lv_style_value_t v = lv_obj_get_style_prop(obj, part, LV_STYLE_LINE_COLOR_FILTERED);
 388:D:/update_2024EL/changeform/743zit6/lvgl/src/core\lv_obj_style_gen.h ****     return v.color;
 389:D:/update_2024EL/changeform/743zit6/lvgl/src/core\lv_obj_style_gen.h **** }
 390:D:/update_2024EL/changeform/743zit6/lvgl/src/core\lv_obj_style_gen.h **** 
 391:D:/update_2024EL/changeform/743zit6/lvgl/src/core\lv_obj_style_gen.h **** static inline lv_opa_t lv_obj_get_style_line_opa(const struct _lv_obj_t * obj, uint32_t part)
 392:D:/update_2024EL/changeform/743zit6/lvgl/src/core\lv_obj_style_gen.h **** {
 393:D:/update_2024EL/changeform/743zit6/lvgl/src/core\lv_obj_style_gen.h ****     lv_style_value_t v = lv_obj_get_style_prop(obj, part, LV_STYLE_LINE_OPA);
 394:D:/update_2024EL/changeform/743zit6/lvgl/src/core\lv_obj_style_gen.h ****     return (lv_opa_t)v.num;
 395:D:/update_2024EL/changeform/743zit6/lvgl/src/core\lv_obj_style_gen.h **** }
 396:D:/update_2024EL/changeform/743zit6/lvgl/src/core\lv_obj_style_gen.h **** 
 397:D:/update_2024EL/changeform/743zit6/lvgl/src/core\lv_obj_style_gen.h **** static inline lv_coord_t lv_obj_get_style_arc_width(const struct _lv_obj_t * obj, uint32_t part)
 398:D:/update_2024EL/changeform/743zit6/lvgl/src/core\lv_obj_style_gen.h **** {
 399:D:/update_2024EL/changeform/743zit6/lvgl/src/core\lv_obj_style_gen.h ****     lv_style_value_t v = lv_obj_get_style_prop(obj, part, LV_STYLE_ARC_WIDTH);
 400:D:/update_2024EL/changeform/743zit6/lvgl/src/core\lv_obj_style_gen.h ****     return (lv_coord_t)v.num;
 401:D:/update_2024EL/changeform/743zit6/lvgl/src/core\lv_obj_style_gen.h **** }
 402:D:/update_2024EL/changeform/743zit6/lvgl/src/core\lv_obj_style_gen.h **** 
 403:D:/update_2024EL/changeform/743zit6/lvgl/src/core\lv_obj_style_gen.h **** static inline bool lv_obj_get_style_arc_rounded(const struct _lv_obj_t * obj, uint32_t part)
 404:D:/update_2024EL/changeform/743zit6/lvgl/src/core\lv_obj_style_gen.h **** {
 405:D:/update_2024EL/changeform/743zit6/lvgl/src/core\lv_obj_style_gen.h ****     lv_style_value_t v = lv_obj_get_style_prop(obj, part, LV_STYLE_ARC_ROUNDED);
 406:D:/update_2024EL/changeform/743zit6/lvgl/src/core\lv_obj_style_gen.h ****     return (bool)v.num;
 407:D:/update_2024EL/changeform/743zit6/lvgl/src/core\lv_obj_style_gen.h **** }
 408:D:/update_2024EL/changeform/743zit6/lvgl/src/core\lv_obj_style_gen.h **** 
 409:D:/update_2024EL/changeform/743zit6/lvgl/src/core\lv_obj_style_gen.h **** static inline lv_color_t lv_obj_get_style_arc_color(const struct _lv_obj_t * obj, uint32_t part)
 410:D:/update_2024EL/changeform/743zit6/lvgl/src/core\lv_obj_style_gen.h **** {
 411:D:/update_2024EL/changeform/743zit6/lvgl/src/core\lv_obj_style_gen.h ****     lv_style_value_t v = lv_obj_get_style_prop(obj, part, LV_STYLE_ARC_COLOR);
 412:D:/update_2024EL/changeform/743zit6/lvgl/src/core\lv_obj_style_gen.h ****     return v.color;
 413:D:/update_2024EL/changeform/743zit6/lvgl/src/core\lv_obj_style_gen.h **** }
 414:D:/update_2024EL/changeform/743zit6/lvgl/src/core\lv_obj_style_gen.h **** 
 415:D:/update_2024EL/changeform/743zit6/lvgl/src/core\lv_obj_style_gen.h **** static inline lv_color_t lv_obj_get_style_arc_color_filtered(const struct _lv_obj_t * obj, uint32_t
 416:D:/update_2024EL/changeform/743zit6/lvgl/src/core\lv_obj_style_gen.h **** {
 417:D:/update_2024EL/changeform/743zit6/lvgl/src/core\lv_obj_style_gen.h ****     lv_style_value_t v = lv_obj_get_style_prop(obj, part, LV_STYLE_ARC_COLOR_FILTERED);
 418:D:/update_2024EL/changeform/743zit6/lvgl/src/core\lv_obj_style_gen.h ****     return v.color;
 419:D:/update_2024EL/changeform/743zit6/lvgl/src/core\lv_obj_style_gen.h **** }
 420:D:/update_2024EL/changeform/743zit6/lvgl/src/core\lv_obj_style_gen.h **** 
 421:D:/update_2024EL/changeform/743zit6/lvgl/src/core\lv_obj_style_gen.h **** static inline lv_opa_t lv_obj_get_style_arc_opa(const struct _lv_obj_t * obj, uint32_t part)
 422:D:/update_2024EL/changeform/743zit6/lvgl/src/core\lv_obj_style_gen.h **** {
 423:D:/update_2024EL/changeform/743zit6/lvgl/src/core\lv_obj_style_gen.h ****     lv_style_value_t v = lv_obj_get_style_prop(obj, part, LV_STYLE_ARC_OPA);
 424:D:/update_2024EL/changeform/743zit6/lvgl/src/core\lv_obj_style_gen.h ****     return (lv_opa_t)v.num;
 425:D:/update_2024EL/changeform/743zit6/lvgl/src/core\lv_obj_style_gen.h **** }
 426:D:/update_2024EL/changeform/743zit6/lvgl/src/core\lv_obj_style_gen.h **** 
 427:D:/update_2024EL/changeform/743zit6/lvgl/src/core\lv_obj_style_gen.h **** static inline const void * lv_obj_get_style_arc_img_src(const struct _lv_obj_t * obj, uint32_t part
 428:D:/update_2024EL/changeform/743zit6/lvgl/src/core\lv_obj_style_gen.h **** {
 429:D:/update_2024EL/changeform/743zit6/lvgl/src/core\lv_obj_style_gen.h ****     lv_style_value_t v = lv_obj_get_style_prop(obj, part, LV_STYLE_ARC_IMG_SRC);
 430:D:/update_2024EL/changeform/743zit6/lvgl/src/core\lv_obj_style_gen.h ****     return (const void *)v.ptr;
 431:D:/update_2024EL/changeform/743zit6/lvgl/src/core\lv_obj_style_gen.h **** }
 432:D:/update_2024EL/changeform/743zit6/lvgl/src/core\lv_obj_style_gen.h **** 
 433:D:/update_2024EL/changeform/743zit6/lvgl/src/core\lv_obj_style_gen.h **** static inline lv_color_t lv_obj_get_style_text_color(const struct _lv_obj_t * obj, uint32_t part)
 434:D:/update_2024EL/changeform/743zit6/lvgl/src/core\lv_obj_style_gen.h **** {
 435:D:/update_2024EL/changeform/743zit6/lvgl/src/core\lv_obj_style_gen.h ****     lv_style_value_t v = lv_obj_get_style_prop(obj, part, LV_STYLE_TEXT_COLOR);
 436:D:/update_2024EL/changeform/743zit6/lvgl/src/core\lv_obj_style_gen.h ****     return v.color;
 437:D:/update_2024EL/changeform/743zit6/lvgl/src/core\lv_obj_style_gen.h **** }
 438:D:/update_2024EL/changeform/743zit6/lvgl/src/core\lv_obj_style_gen.h **** 
 439:D:/update_2024EL/changeform/743zit6/lvgl/src/core\lv_obj_style_gen.h **** static inline lv_color_t lv_obj_get_style_text_color_filtered(const struct _lv_obj_t * obj, uint32_
 440:D:/update_2024EL/changeform/743zit6/lvgl/src/core\lv_obj_style_gen.h **** {
 441:D:/update_2024EL/changeform/743zit6/lvgl/src/core\lv_obj_style_gen.h ****     lv_style_value_t v = lv_obj_get_style_prop(obj, part, LV_STYLE_TEXT_COLOR_FILTERED);
 442:D:/update_2024EL/changeform/743zit6/lvgl/src/core\lv_obj_style_gen.h ****     return v.color;
 443:D:/update_2024EL/changeform/743zit6/lvgl/src/core\lv_obj_style_gen.h **** }
ARM GAS  C:\usertemp\ccWXrwmL.s 			page 27


 444:D:/update_2024EL/changeform/743zit6/lvgl/src/core\lv_obj_style_gen.h **** 
 445:D:/update_2024EL/changeform/743zit6/lvgl/src/core\lv_obj_style_gen.h **** static inline lv_opa_t lv_obj_get_style_text_opa(const struct _lv_obj_t * obj, uint32_t part)
 446:D:/update_2024EL/changeform/743zit6/lvgl/src/core\lv_obj_style_gen.h **** {
 447:D:/update_2024EL/changeform/743zit6/lvgl/src/core\lv_obj_style_gen.h ****     lv_style_value_t v = lv_obj_get_style_prop(obj, part, LV_STYLE_TEXT_OPA);
 448:D:/update_2024EL/changeform/743zit6/lvgl/src/core\lv_obj_style_gen.h ****     return (lv_opa_t)v.num;
 449:D:/update_2024EL/changeform/743zit6/lvgl/src/core\lv_obj_style_gen.h **** }
 450:D:/update_2024EL/changeform/743zit6/lvgl/src/core\lv_obj_style_gen.h **** 
 451:D:/update_2024EL/changeform/743zit6/lvgl/src/core\lv_obj_style_gen.h **** static inline const lv_font_t * lv_obj_get_style_text_font(const struct _lv_obj_t * obj, uint32_t p
 452:D:/update_2024EL/changeform/743zit6/lvgl/src/core\lv_obj_style_gen.h **** {
 453:D:/update_2024EL/changeform/743zit6/lvgl/src/core\lv_obj_style_gen.h ****     lv_style_value_t v = lv_obj_get_style_prop(obj, part, LV_STYLE_TEXT_FONT);
 454:D:/update_2024EL/changeform/743zit6/lvgl/src/core\lv_obj_style_gen.h ****     return (const lv_font_t *)v.ptr;
 455:D:/update_2024EL/changeform/743zit6/lvgl/src/core\lv_obj_style_gen.h **** }
 456:D:/update_2024EL/changeform/743zit6/lvgl/src/core\lv_obj_style_gen.h **** 
 457:D:/update_2024EL/changeform/743zit6/lvgl/src/core\lv_obj_style_gen.h **** static inline lv_coord_t lv_obj_get_style_text_letter_space(const struct _lv_obj_t * obj, uint32_t 
 458:D:/update_2024EL/changeform/743zit6/lvgl/src/core\lv_obj_style_gen.h **** {
 459:D:/update_2024EL/changeform/743zit6/lvgl/src/core\lv_obj_style_gen.h ****     lv_style_value_t v = lv_obj_get_style_prop(obj, part, LV_STYLE_TEXT_LETTER_SPACE);
 460:D:/update_2024EL/changeform/743zit6/lvgl/src/core\lv_obj_style_gen.h ****     return (lv_coord_t)v.num;
 461:D:/update_2024EL/changeform/743zit6/lvgl/src/core\lv_obj_style_gen.h **** }
 462:D:/update_2024EL/changeform/743zit6/lvgl/src/core\lv_obj_style_gen.h **** 
 463:D:/update_2024EL/changeform/743zit6/lvgl/src/core\lv_obj_style_gen.h **** static inline lv_coord_t lv_obj_get_style_text_line_space(const struct _lv_obj_t * obj, uint32_t pa
 464:D:/update_2024EL/changeform/743zit6/lvgl/src/core\lv_obj_style_gen.h **** {
 465:D:/update_2024EL/changeform/743zit6/lvgl/src/core\lv_obj_style_gen.h ****     lv_style_value_t v = lv_obj_get_style_prop(obj, part, LV_STYLE_TEXT_LINE_SPACE);
 466:D:/update_2024EL/changeform/743zit6/lvgl/src/core\lv_obj_style_gen.h ****     return (lv_coord_t)v.num;
 467:D:/update_2024EL/changeform/743zit6/lvgl/src/core\lv_obj_style_gen.h **** }
 468:D:/update_2024EL/changeform/743zit6/lvgl/src/core\lv_obj_style_gen.h **** 
 469:D:/update_2024EL/changeform/743zit6/lvgl/src/core\lv_obj_style_gen.h **** static inline lv_text_decor_t lv_obj_get_style_text_decor(const struct _lv_obj_t * obj, uint32_t pa
 470:D:/update_2024EL/changeform/743zit6/lvgl/src/core\lv_obj_style_gen.h **** {
 471:D:/update_2024EL/changeform/743zit6/lvgl/src/core\lv_obj_style_gen.h ****     lv_style_value_t v = lv_obj_get_style_prop(obj, part, LV_STYLE_TEXT_DECOR);
 472:D:/update_2024EL/changeform/743zit6/lvgl/src/core\lv_obj_style_gen.h ****     return (lv_text_decor_t)v.num;
 473:D:/update_2024EL/changeform/743zit6/lvgl/src/core\lv_obj_style_gen.h **** }
 474:D:/update_2024EL/changeform/743zit6/lvgl/src/core\lv_obj_style_gen.h **** 
 475:D:/update_2024EL/changeform/743zit6/lvgl/src/core\lv_obj_style_gen.h **** static inline lv_text_align_t lv_obj_get_style_text_align(const struct _lv_obj_t * obj, uint32_t pa
 476:D:/update_2024EL/changeform/743zit6/lvgl/src/core\lv_obj_style_gen.h **** {
 477:D:/update_2024EL/changeform/743zit6/lvgl/src/core\lv_obj_style_gen.h ****     lv_style_value_t v = lv_obj_get_style_prop(obj, part, LV_STYLE_TEXT_ALIGN);
 478:D:/update_2024EL/changeform/743zit6/lvgl/src/core\lv_obj_style_gen.h ****     return (lv_text_align_t)v.num;
 479:D:/update_2024EL/changeform/743zit6/lvgl/src/core\lv_obj_style_gen.h **** }
 480:D:/update_2024EL/changeform/743zit6/lvgl/src/core\lv_obj_style_gen.h **** 
 481:D:/update_2024EL/changeform/743zit6/lvgl/src/core\lv_obj_style_gen.h **** static inline lv_coord_t lv_obj_get_style_radius(const struct _lv_obj_t * obj, uint32_t part)
 482:D:/update_2024EL/changeform/743zit6/lvgl/src/core\lv_obj_style_gen.h **** {
 483:D:/update_2024EL/changeform/743zit6/lvgl/src/core\lv_obj_style_gen.h ****     lv_style_value_t v = lv_obj_get_style_prop(obj, part, LV_STYLE_RADIUS);
 484:D:/update_2024EL/changeform/743zit6/lvgl/src/core\lv_obj_style_gen.h ****     return (lv_coord_t)v.num;
 485:D:/update_2024EL/changeform/743zit6/lvgl/src/core\lv_obj_style_gen.h **** }
 486:D:/update_2024EL/changeform/743zit6/lvgl/src/core\lv_obj_style_gen.h **** 
 487:D:/update_2024EL/changeform/743zit6/lvgl/src/core\lv_obj_style_gen.h **** static inline bool lv_obj_get_style_clip_corner(const struct _lv_obj_t * obj, uint32_t part)
 488:D:/update_2024EL/changeform/743zit6/lvgl/src/core\lv_obj_style_gen.h **** {
 489:D:/update_2024EL/changeform/743zit6/lvgl/src/core\lv_obj_style_gen.h ****     lv_style_value_t v = lv_obj_get_style_prop(obj, part, LV_STYLE_CLIP_CORNER);
 490:D:/update_2024EL/changeform/743zit6/lvgl/src/core\lv_obj_style_gen.h ****     return (bool)v.num;
 491:D:/update_2024EL/changeform/743zit6/lvgl/src/core\lv_obj_style_gen.h **** }
 492:D:/update_2024EL/changeform/743zit6/lvgl/src/core\lv_obj_style_gen.h **** 
 493:D:/update_2024EL/changeform/743zit6/lvgl/src/core\lv_obj_style_gen.h **** static inline lv_opa_t lv_obj_get_style_opa(const struct _lv_obj_t * obj, uint32_t part)
 494:D:/update_2024EL/changeform/743zit6/lvgl/src/core\lv_obj_style_gen.h **** {
 495:D:/update_2024EL/changeform/743zit6/lvgl/src/core\lv_obj_style_gen.h ****     lv_style_value_t v = lv_obj_get_style_prop(obj, part, LV_STYLE_OPA);
 496:D:/update_2024EL/changeform/743zit6/lvgl/src/core\lv_obj_style_gen.h ****     return (lv_opa_t)v.num;
 497:D:/update_2024EL/changeform/743zit6/lvgl/src/core\lv_obj_style_gen.h **** }
 498:D:/update_2024EL/changeform/743zit6/lvgl/src/core\lv_obj_style_gen.h **** 
 499:D:/update_2024EL/changeform/743zit6/lvgl/src/core\lv_obj_style_gen.h **** static inline const lv_color_filter_dsc_t * lv_obj_get_style_color_filter_dsc(const struct _lv_obj_
 500:D:/update_2024EL/changeform/743zit6/lvgl/src/core\lv_obj_style_gen.h ****                                                                               uint32_t part)
ARM GAS  C:\usertemp\ccWXrwmL.s 			page 28


 501:D:/update_2024EL/changeform/743zit6/lvgl/src/core\lv_obj_style_gen.h **** {
 502:D:/update_2024EL/changeform/743zit6/lvgl/src/core\lv_obj_style_gen.h ****     lv_style_value_t v = lv_obj_get_style_prop(obj, part, LV_STYLE_COLOR_FILTER_DSC);
 503:D:/update_2024EL/changeform/743zit6/lvgl/src/core\lv_obj_style_gen.h ****     return (const lv_color_filter_dsc_t *)v.ptr;
 504:D:/update_2024EL/changeform/743zit6/lvgl/src/core\lv_obj_style_gen.h **** }
 505:D:/update_2024EL/changeform/743zit6/lvgl/src/core\lv_obj_style_gen.h **** 
 506:D:/update_2024EL/changeform/743zit6/lvgl/src/core\lv_obj_style_gen.h **** static inline lv_opa_t lv_obj_get_style_color_filter_opa(const struct _lv_obj_t * obj, uint32_t par
 507:D:/update_2024EL/changeform/743zit6/lvgl/src/core\lv_obj_style_gen.h **** {
 508:D:/update_2024EL/changeform/743zit6/lvgl/src/core\lv_obj_style_gen.h ****     lv_style_value_t v = lv_obj_get_style_prop(obj, part, LV_STYLE_COLOR_FILTER_OPA);
 509:D:/update_2024EL/changeform/743zit6/lvgl/src/core\lv_obj_style_gen.h ****     return (lv_opa_t)v.num;
 510:D:/update_2024EL/changeform/743zit6/lvgl/src/core\lv_obj_style_gen.h **** }
 511:D:/update_2024EL/changeform/743zit6/lvgl/src/core\lv_obj_style_gen.h **** 
 512:D:/update_2024EL/changeform/743zit6/lvgl/src/core\lv_obj_style_gen.h **** static inline uint32_t lv_obj_get_style_anim_time(const struct _lv_obj_t * obj, uint32_t part)
 513:D:/update_2024EL/changeform/743zit6/lvgl/src/core\lv_obj_style_gen.h **** {
 514:D:/update_2024EL/changeform/743zit6/lvgl/src/core\lv_obj_style_gen.h ****     lv_style_value_t v = lv_obj_get_style_prop(obj, part, LV_STYLE_ANIM_TIME);
 515:D:/update_2024EL/changeform/743zit6/lvgl/src/core\lv_obj_style_gen.h ****     return (uint32_t)v.num;
 516:D:/update_2024EL/changeform/743zit6/lvgl/src/core\lv_obj_style_gen.h **** }
 517:D:/update_2024EL/changeform/743zit6/lvgl/src/core\lv_obj_style_gen.h **** 
 518:D:/update_2024EL/changeform/743zit6/lvgl/src/core\lv_obj_style_gen.h **** static inline uint32_t lv_obj_get_style_anim_speed(const struct _lv_obj_t * obj, uint32_t part)
 519:D:/update_2024EL/changeform/743zit6/lvgl/src/core\lv_obj_style_gen.h **** {
 520:D:/update_2024EL/changeform/743zit6/lvgl/src/core\lv_obj_style_gen.h ****     lv_style_value_t v = lv_obj_get_style_prop(obj, part, LV_STYLE_ANIM_SPEED);
 521:D:/update_2024EL/changeform/743zit6/lvgl/src/core\lv_obj_style_gen.h ****     return (uint32_t)v.num;
 522:D:/update_2024EL/changeform/743zit6/lvgl/src/core\lv_obj_style_gen.h **** }
 523:D:/update_2024EL/changeform/743zit6/lvgl/src/core\lv_obj_style_gen.h **** 
 524:D:/update_2024EL/changeform/743zit6/lvgl/src/core\lv_obj_style_gen.h **** static inline const lv_style_transition_dsc_t * lv_obj_get_style_transition(const struct _lv_obj_t 
 525:D:/update_2024EL/changeform/743zit6/lvgl/src/core\lv_obj_style_gen.h **** {
 526:D:/update_2024EL/changeform/743zit6/lvgl/src/core\lv_obj_style_gen.h ****     lv_style_value_t v = lv_obj_get_style_prop(obj, part, LV_STYLE_TRANSITION);
 527:D:/update_2024EL/changeform/743zit6/lvgl/src/core\lv_obj_style_gen.h ****     return (const lv_style_transition_dsc_t *)v.ptr;
 528:D:/update_2024EL/changeform/743zit6/lvgl/src/core\lv_obj_style_gen.h **** }
 529:D:/update_2024EL/changeform/743zit6/lvgl/src/core\lv_obj_style_gen.h **** 
 530:D:/update_2024EL/changeform/743zit6/lvgl/src/core\lv_obj_style_gen.h **** static inline lv_blend_mode_t lv_obj_get_style_blend_mode(const struct _lv_obj_t * obj, uint32_t pa
 531:D:/update_2024EL/changeform/743zit6/lvgl/src/core\lv_obj_style_gen.h **** {
 532:D:/update_2024EL/changeform/743zit6/lvgl/src/core\lv_obj_style_gen.h ****     lv_style_value_t v = lv_obj_get_style_prop(obj, part, LV_STYLE_BLEND_MODE);
 533:D:/update_2024EL/changeform/743zit6/lvgl/src/core\lv_obj_style_gen.h ****     return (lv_blend_mode_t)v.num;
 534:D:/update_2024EL/changeform/743zit6/lvgl/src/core\lv_obj_style_gen.h **** }
 535:D:/update_2024EL/changeform/743zit6/lvgl/src/core\lv_obj_style_gen.h **** 
 536:D:/update_2024EL/changeform/743zit6/lvgl/src/core\lv_obj_style_gen.h **** static inline uint16_t lv_obj_get_style_layout(const struct _lv_obj_t * obj, uint32_t part)
 537:D:/update_2024EL/changeform/743zit6/lvgl/src/core\lv_obj_style_gen.h **** {
 538:D:/update_2024EL/changeform/743zit6/lvgl/src/core\lv_obj_style_gen.h ****     lv_style_value_t v = lv_obj_get_style_prop(obj, part, LV_STYLE_LAYOUT);
 539:D:/update_2024EL/changeform/743zit6/lvgl/src/core\lv_obj_style_gen.h ****     return (uint16_t)v.num;
 540:D:/update_2024EL/changeform/743zit6/lvgl/src/core\lv_obj_style_gen.h **** }
 541:D:/update_2024EL/changeform/743zit6/lvgl/src/core\lv_obj_style_gen.h **** 
 542:D:/update_2024EL/changeform/743zit6/lvgl/src/core\lv_obj_style_gen.h **** static inline lv_base_dir_t lv_obj_get_style_base_dir(const struct _lv_obj_t * obj, uint32_t part)
 648              		.loc 2 542 29 view .LVU166
 649              	.LBB17:
 543:D:/update_2024EL/changeform/743zit6/lvgl/src/core\lv_obj_style_gen.h **** {
 544:D:/update_2024EL/changeform/743zit6/lvgl/src/core\lv_obj_style_gen.h ****     lv_style_value_t v = lv_obj_get_style_prop(obj, part, LV_STYLE_BASE_DIR);
 650              		.loc 2 544 5 view .LVU167
 651              		.loc 2 544 26 is_stmt 0 view .LVU168
 652 0038 41F26A42 		movw	r2, #5226
 653 003c 0021     		movs	r1, #0
 654 003e 2046     		mov	r0, r4
 655 0040 FFF7FEFF 		bl	lv_obj_get_style_prop
 656              	.LVL81:
 545:D:/update_2024EL/changeform/743zit6/lvgl/src/core\lv_obj_style_gen.h ****     return (lv_base_dir_t)v.num;
 657              		.loc 2 545 5 is_stmt 1 view .LVU169
 658              		.loc 2 545 12 is_stmt 0 view .LVU170
 659 0044 C3B2     		uxtb	r3, r0
ARM GAS  C:\usertemp\ccWXrwmL.s 			page 29


 660              	.LVL82:
 661              		.loc 2 545 12 view .LVU171
 662              	.LBE17:
 663              	.LBE16:
 140:lvgl/src/extra/widgets/tabview/lv_tabview.c ****         lv_obj_scroll_to_x(cont, id * (gap + w), anim_en);
 664              		.loc 1 140 7 discriminator 1 view .LVU172
 665 0046 012B     		cmp	r3, #1
 666 0048 13D0     		beq	.L40
 141:lvgl/src/extra/widgets/tabview/lv_tabview.c ****     }
 667              		.loc 1 141 9 is_stmt 1 view .LVU173
 141:lvgl/src/extra/widgets/tabview/lv_tabview.c ****     }
 668              		.loc 1 141 44 is_stmt 0 view .LVU174
 669 004a 08EB0901 		add	r1, r8, r9
 141:lvgl/src/extra/widgets/tabview/lv_tabview.c ****     }
 670              		.loc 1 141 9 view .LVU175
 671 004e 11FB05F1 		smulbb	r1, r1, r5
 672 0052 3246     		mov	r2, r6
 673 0054 09B2     		sxth	r1, r1
 674 0056 3846     		mov	r0, r7
 675 0058 FFF7FEFF 		bl	lv_obj_scroll_to_x
 676              	.LVL83:
 677              	.L41:
 148:lvgl/src/extra/widgets/tabview/lv_tabview.c ****     lv_btnmatrix_set_btn_ctrl(btns, id, LV_BTNMATRIX_CTRL_CHECKED);
 678              		.loc 1 148 5 is_stmt 1 view .LVU176
 148:lvgl/src/extra/widgets/tabview/lv_tabview.c ****     lv_btnmatrix_set_btn_ctrl(btns, id, LV_BTNMATRIX_CTRL_CHECKED);
 679              		.loc 1 148 23 is_stmt 0 view .LVU177
 680 005c 2046     		mov	r0, r4
 681 005e FFF7FEFF 		bl	lv_tabview_get_tab_btns
 682              	.LVL84:
 149:lvgl/src/extra/widgets/tabview/lv_tabview.c ****     tabview->tab_cur = id;
 683              		.loc 1 149 5 is_stmt 1 view .LVU178
 684 0062 ADB2     		uxth	r5, r5
 685              	.LVL85:
 149:lvgl/src/extra/widgets/tabview/lv_tabview.c ****     tabview->tab_cur = id;
 686              		.loc 1 149 5 is_stmt 0 view .LVU179
 687 0064 8022     		movs	r2, #128
 688 0066 2946     		mov	r1, r5
 689 0068 FFF7FEFF 		bl	lv_btnmatrix_set_btn_ctrl
 690              	.LVL86:
 150:lvgl/src/extra/widgets/tabview/lv_tabview.c **** }
 691              		.loc 1 150 5 is_stmt 1 view .LVU180
 150:lvgl/src/extra/widgets/tabview/lv_tabview.c **** }
 692              		.loc 1 150 22 is_stmt 0 view .LVU181
 693 006c 6585     		strh	r5, [r4, #42]	@ movhi
 694              	.LVL87:
 695              	.L37:
 151:lvgl/src/extra/widgets/tabview/lv_tabview.c **** 
 696              		.loc 1 151 1 view .LVU182
 697 006e BDE8F883 		pop	{r3, r4, r5, r6, r7, r8, r9, pc}
 698              	.LVL88:
 699              	.L40:
 700              	.LBB18:
 144:lvgl/src/extra/widgets/tabview/lv_tabview.c ****         lv_obj_scroll_to_x(cont, (gap + w) * id_rtl, anim_en);
 701              		.loc 1 144 9 is_stmt 1 view .LVU183
 144:lvgl/src/extra/widgets/tabview/lv_tabview.c ****         lv_obj_scroll_to_x(cont, (gap + w) * id_rtl, anim_en);
 702              		.loc 1 144 17 is_stmt 0 view .LVU184
 703 0072 6B42     		rsbs	r3, r5, #0
ARM GAS  C:\usertemp\ccWXrwmL.s 			page 30


 145:lvgl/src/extra/widgets/tabview/lv_tabview.c ****     }
 704              		.loc 1 145 9 is_stmt 1 view .LVU185
 145:lvgl/src/extra/widgets/tabview/lv_tabview.c ****     }
 705              		.loc 1 145 39 is_stmt 0 view .LVU186
 706 0074 08EB0900 		add	r0, r8, r9
 145:lvgl/src/extra/widgets/tabview/lv_tabview.c ****     }
 707              		.loc 1 145 9 view .LVU187
 708 0078 10FB03F1 		smulbb	r1, r0, r3
 709 007c 3246     		mov	r2, r6
 710 007e 09B2     		sxth	r1, r1
 711 0080 3846     		mov	r0, r7
 712 0082 FFF7FEFF 		bl	lv_obj_scroll_to_x
 713              	.LVL89:
 714 0086 E9E7     		b	.L41
 715              	.LBE18:
 716              		.cfi_endproc
 717              	.LFE198:
 719              		.section	.text.lv_tabview_event,"ax",%progbits
 720              		.align	1
 721              		.syntax unified
 722              		.thumb
 723              		.thumb_func
 725              	lv_tabview_event:
 726              	.LVL90:
 727              	.LFB204:
 261:lvgl/src/extra/widgets/tabview/lv_tabview.c **** 
 262:lvgl/src/extra/widgets/tabview/lv_tabview.c **** static void lv_tabview_event(const lv_obj_class_t * class_p, lv_event_t * e)
 263:lvgl/src/extra/widgets/tabview/lv_tabview.c **** {
 728              		.loc 1 263 1 is_stmt 1 view -0
 729              		.cfi_startproc
 730              		@ args = 0, pretend = 0, frame = 0
 731              		@ frame_needed = 0, uses_anonymous_args = 0
 732              		.loc 1 263 1 is_stmt 0 view .LVU189
 733 0000 38B5     		push	{r3, r4, r5, lr}
 734              	.LCFI6:
 735              		.cfi_def_cfa_offset 16
 736              		.cfi_offset 3, -16
 737              		.cfi_offset 4, -12
 738              		.cfi_offset 5, -8
 739              		.cfi_offset 14, -4
 740 0002 0C46     		mov	r4, r1
 264:lvgl/src/extra/widgets/tabview/lv_tabview.c ****     LV_UNUSED(class_p);
 741              		.loc 1 264 5 is_stmt 1 view .LVU190
 265:lvgl/src/extra/widgets/tabview/lv_tabview.c ****     lv_res_t res = lv_obj_event_base(&lv_tabview_class, e);
 742              		.loc 1 265 5 view .LVU191
 743              		.loc 1 265 20 is_stmt 0 view .LVU192
 744 0004 0B48     		ldr	r0, .L47
 745              	.LVL91:
 746              		.loc 1 265 20 view .LVU193
 747 0006 FFF7FEFF 		bl	lv_obj_event_base
 748              	.LVL92:
 266:lvgl/src/extra/widgets/tabview/lv_tabview.c ****     if(res != LV_RES_OK) return;
 749              		.loc 1 266 5 is_stmt 1 view .LVU194
 750              		.loc 1 266 7 is_stmt 0 view .LVU195
 751 000a 0128     		cmp	r0, #1
 752 000c 00D0     		beq	.L46
 753              	.LVL93:
ARM GAS  C:\usertemp\ccWXrwmL.s 			page 31


 754              	.L43:
 267:lvgl/src/extra/widgets/tabview/lv_tabview.c **** 
 268:lvgl/src/extra/widgets/tabview/lv_tabview.c ****     lv_event_code_t code = lv_event_get_code(e);
 269:lvgl/src/extra/widgets/tabview/lv_tabview.c ****     lv_obj_t * target = lv_event_get_target(e);
 270:lvgl/src/extra/widgets/tabview/lv_tabview.c **** 
 271:lvgl/src/extra/widgets/tabview/lv_tabview.c ****     if(code == LV_EVENT_SIZE_CHANGED) {
 272:lvgl/src/extra/widgets/tabview/lv_tabview.c ****         lv_tabview_set_act(target, lv_tabview_get_tab_act(target), LV_ANIM_OFF);
 273:lvgl/src/extra/widgets/tabview/lv_tabview.c ****     }
 274:lvgl/src/extra/widgets/tabview/lv_tabview.c **** }
 755              		.loc 1 274 1 view .LVU196
 756 000e 38BD     		pop	{r3, r4, r5, pc}
 757              	.LVL94:
 758              	.L46:
 268:lvgl/src/extra/widgets/tabview/lv_tabview.c ****     lv_obj_t * target = lv_event_get_target(e);
 759              		.loc 1 268 5 is_stmt 1 view .LVU197
 268:lvgl/src/extra/widgets/tabview/lv_tabview.c ****     lv_obj_t * target = lv_event_get_target(e);
 760              		.loc 1 268 28 is_stmt 0 view .LVU198
 761 0010 2046     		mov	r0, r4
 762              	.LVL95:
 268:lvgl/src/extra/widgets/tabview/lv_tabview.c ****     lv_obj_t * target = lv_event_get_target(e);
 763              		.loc 1 268 28 view .LVU199
 764 0012 FFF7FEFF 		bl	lv_event_get_code
 765              	.LVL96:
 766 0016 0546     		mov	r5, r0
 767              	.LVL97:
 269:lvgl/src/extra/widgets/tabview/lv_tabview.c **** 
 768              		.loc 1 269 5 is_stmt 1 view .LVU200
 269:lvgl/src/extra/widgets/tabview/lv_tabview.c **** 
 769              		.loc 1 269 25 is_stmt 0 view .LVU201
 770 0018 2046     		mov	r0, r4
 771 001a FFF7FEFF 		bl	lv_event_get_target
 772              	.LVL98:
 773 001e 0446     		mov	r4, r0
 774              	.LVL99:
 271:lvgl/src/extra/widgets/tabview/lv_tabview.c ****         lv_tabview_set_act(target, lv_tabview_get_tab_act(target), LV_ANIM_OFF);
 775              		.loc 1 271 5 is_stmt 1 view .LVU202
 271:lvgl/src/extra/widgets/tabview/lv_tabview.c ****         lv_tabview_set_act(target, lv_tabview_get_tab_act(target), LV_ANIM_OFF);
 776              		.loc 1 271 7 is_stmt 0 view .LVU203
 777 0020 292D     		cmp	r5, #41
 778 0022 F4D1     		bne	.L43
 272:lvgl/src/extra/widgets/tabview/lv_tabview.c ****     }
 779              		.loc 1 272 9 is_stmt 1 view .LVU204
 272:lvgl/src/extra/widgets/tabview/lv_tabview.c ****     }
 780              		.loc 1 272 36 is_stmt 0 view .LVU205
 781 0024 FFF7FEFF 		bl	lv_tabview_get_tab_act
 782              	.LVL100:
 272:lvgl/src/extra/widgets/tabview/lv_tabview.c ****     }
 783              		.loc 1 272 36 view .LVU206
 784 0028 0146     		mov	r1, r0
 272:lvgl/src/extra/widgets/tabview/lv_tabview.c ****     }
 785              		.loc 1 272 9 discriminator 1 view .LVU207
 786 002a 0022     		movs	r2, #0
 787 002c 2046     		mov	r0, r4
 788 002e FFF7FEFF 		bl	lv_tabview_set_act
 789              	.LVL101:
 790 0032 ECE7     		b	.L43
 791              	.L48:
ARM GAS  C:\usertemp\ccWXrwmL.s 			page 32


 792              		.align	2
 793              	.L47:
 794 0034 00000000 		.word	lv_tabview_class
 795              		.cfi_endproc
 796              	.LFE204:
 798              		.section	.text.cont_scroll_end_event_cb,"ax",%progbits
 799              		.align	1
 800              		.syntax unified
 801              		.thumb
 802              		.thumb_func
 804              	cont_scroll_end_event_cb:
 805              	.LVL102:
 806              	.LFB206:
 275:lvgl/src/extra/widgets/tabview/lv_tabview.c **** 
 276:lvgl/src/extra/widgets/tabview/lv_tabview.c **** 
 277:lvgl/src/extra/widgets/tabview/lv_tabview.c **** static void btns_value_changed_event_cb(lv_event_t * e)
 278:lvgl/src/extra/widgets/tabview/lv_tabview.c **** {
 279:lvgl/src/extra/widgets/tabview/lv_tabview.c ****     lv_obj_t * btns = lv_event_get_target(e);
 280:lvgl/src/extra/widgets/tabview/lv_tabview.c **** 
 281:lvgl/src/extra/widgets/tabview/lv_tabview.c ****     lv_obj_t * tv = lv_obj_get_parent(btns);
 282:lvgl/src/extra/widgets/tabview/lv_tabview.c ****     uint32_t id = lv_btnmatrix_get_selected_btn(btns);
 283:lvgl/src/extra/widgets/tabview/lv_tabview.c ****     lv_tabview_set_act(tv, id, LV_ANIM_ON);
 284:lvgl/src/extra/widgets/tabview/lv_tabview.c **** }
 285:lvgl/src/extra/widgets/tabview/lv_tabview.c **** 
 286:lvgl/src/extra/widgets/tabview/lv_tabview.c **** static void cont_scroll_end_event_cb(lv_event_t * e)
 287:lvgl/src/extra/widgets/tabview/lv_tabview.c **** {
 807              		.loc 1 287 1 is_stmt 1 view -0
 808              		.cfi_startproc
 809              		@ args = 0, pretend = 0, frame = 8
 810              		@ frame_needed = 0, uses_anonymous_args = 0
 811              		.loc 1 287 1 is_stmt 0 view .LVU209
 812 0000 70B5     		push	{r4, r5, r6, lr}
 813              	.LCFI7:
 814              		.cfi_def_cfa_offset 16
 815              		.cfi_offset 4, -16
 816              		.cfi_offset 5, -12
 817              		.cfi_offset 6, -8
 818              		.cfi_offset 14, -4
 819 0002 82B0     		sub	sp, sp, #8
 820              	.LCFI8:
 821              		.cfi_def_cfa_offset 24
 822 0004 0446     		mov	r4, r0
 288:lvgl/src/extra/widgets/tabview/lv_tabview.c ****     lv_obj_t * cont = lv_event_get_target(e);
 823              		.loc 1 288 5 is_stmt 1 view .LVU210
 824              		.loc 1 288 23 is_stmt 0 view .LVU211
 825 0006 FFF7FEFF 		bl	lv_event_get_target
 826              	.LVL103:
 827              		.loc 1 288 23 view .LVU212
 828 000a 0546     		mov	r5, r0
 829              	.LVL104:
 289:lvgl/src/extra/widgets/tabview/lv_tabview.c ****     lv_event_code_t code = lv_event_get_code(e);
 830              		.loc 1 289 5 is_stmt 1 view .LVU213
 831              		.loc 1 289 28 is_stmt 0 view .LVU214
 832 000c 2046     		mov	r0, r4
 833              	.LVL105:
 834              		.loc 1 289 28 view .LVU215
 835 000e FFF7FEFF 		bl	lv_event_get_code
ARM GAS  C:\usertemp\ccWXrwmL.s 			page 33


 836              	.LVL106:
 837 0012 0446     		mov	r4, r0
 838              	.LVL107:
 290:lvgl/src/extra/widgets/tabview/lv_tabview.c **** 
 291:lvgl/src/extra/widgets/tabview/lv_tabview.c ****     lv_obj_t * tv = lv_obj_get_parent(cont);
 839              		.loc 1 291 5 is_stmt 1 view .LVU216
 840              		.loc 1 291 21 is_stmt 0 view .LVU217
 841 0014 2846     		mov	r0, r5
 842 0016 FFF7FEFF 		bl	lv_obj_get_parent
 843              	.LVL108:
 844 001a 0646     		mov	r6, r0
 845              	.LVL109:
 292:lvgl/src/extra/widgets/tabview/lv_tabview.c ****     if(code == LV_EVENT_LAYOUT_CHANGED) {
 846              		.loc 1 292 5 is_stmt 1 view .LVU218
 847              		.loc 1 292 7 is_stmt 0 view .LVU219
 848 001c 2B2C     		cmp	r4, #43
 849 001e 03D0     		beq	.L62
 293:lvgl/src/extra/widgets/tabview/lv_tabview.c ****         lv_tabview_set_act(tv, lv_tabview_get_tab_act(tv), LV_ANIM_OFF);
 294:lvgl/src/extra/widgets/tabview/lv_tabview.c ****     }
 295:lvgl/src/extra/widgets/tabview/lv_tabview.c ****     else if(code == LV_EVENT_SCROLL_END) {
 850              		.loc 1 295 10 is_stmt 1 view .LVU220
 851              		.loc 1 295 12 is_stmt 0 view .LVU221
 852 0020 0A2C     		cmp	r4, #10
 853 0022 09D0     		beq	.L63
 854              	.LVL110:
 855              	.L49:
 296:lvgl/src/extra/widgets/tabview/lv_tabview.c ****         lv_point_t p;
 297:lvgl/src/extra/widgets/tabview/lv_tabview.c ****         lv_obj_get_scroll_end(cont, &p);
 298:lvgl/src/extra/widgets/tabview/lv_tabview.c **** 
 299:lvgl/src/extra/widgets/tabview/lv_tabview.c ****         lv_coord_t w = lv_obj_get_content_width(cont);
 300:lvgl/src/extra/widgets/tabview/lv_tabview.c ****         lv_coord_t t;
 301:lvgl/src/extra/widgets/tabview/lv_tabview.c **** 
 302:lvgl/src/extra/widgets/tabview/lv_tabview.c ****         if(lv_obj_get_style_base_dir(tv, LV_PART_MAIN) == LV_BASE_DIR_RTL)  t = -(p.x - w / 2) / w;
 303:lvgl/src/extra/widgets/tabview/lv_tabview.c ****         else t = (p.x + w / 2) / w;
 304:lvgl/src/extra/widgets/tabview/lv_tabview.c **** 
 305:lvgl/src/extra/widgets/tabview/lv_tabview.c ****         if(t < 0) t = 0;
 306:lvgl/src/extra/widgets/tabview/lv_tabview.c ****         bool new_tab = false;
 307:lvgl/src/extra/widgets/tabview/lv_tabview.c ****         if(t != lv_tabview_get_tab_act(tv)) new_tab = true;
 308:lvgl/src/extra/widgets/tabview/lv_tabview.c ****         lv_tabview_set_act(tv, t, LV_ANIM_ON);
 309:lvgl/src/extra/widgets/tabview/lv_tabview.c **** 
 310:lvgl/src/extra/widgets/tabview/lv_tabview.c ****         if(new_tab) lv_event_send(tv, LV_EVENT_VALUE_CHANGED, NULL);
 311:lvgl/src/extra/widgets/tabview/lv_tabview.c ****     }
 312:lvgl/src/extra/widgets/tabview/lv_tabview.c **** }
 856              		.loc 1 312 1 view .LVU222
 857 0024 02B0     		add	sp, sp, #8
 858              	.LCFI9:
 859              		.cfi_remember_state
 860              		.cfi_def_cfa_offset 16
 861              		@ sp needed
 862 0026 70BD     		pop	{r4, r5, r6, pc}
 863              	.LVL111:
 864              	.L62:
 865              	.LCFI10:
 866              		.cfi_restore_state
 293:lvgl/src/extra/widgets/tabview/lv_tabview.c ****         lv_tabview_set_act(tv, lv_tabview_get_tab_act(tv), LV_ANIM_OFF);
 867              		.loc 1 293 9 is_stmt 1 view .LVU223
 293:lvgl/src/extra/widgets/tabview/lv_tabview.c ****         lv_tabview_set_act(tv, lv_tabview_get_tab_act(tv), LV_ANIM_OFF);
ARM GAS  C:\usertemp\ccWXrwmL.s 			page 34


 868              		.loc 1 293 32 is_stmt 0 view .LVU224
 869 0028 FFF7FEFF 		bl	lv_tabview_get_tab_act
 870              	.LVL112:
 293:lvgl/src/extra/widgets/tabview/lv_tabview.c ****         lv_tabview_set_act(tv, lv_tabview_get_tab_act(tv), LV_ANIM_OFF);
 871              		.loc 1 293 32 view .LVU225
 872 002c 0146     		mov	r1, r0
 293:lvgl/src/extra/widgets/tabview/lv_tabview.c ****         lv_tabview_set_act(tv, lv_tabview_get_tab_act(tv), LV_ANIM_OFF);
 873              		.loc 1 293 9 discriminator 1 view .LVU226
 874 002e 0022     		movs	r2, #0
 875 0030 3046     		mov	r0, r6
 876 0032 FFF7FEFF 		bl	lv_tabview_set_act
 877              	.LVL113:
 878 0036 F5E7     		b	.L49
 879              	.LVL114:
 880              	.L63:
 881              	.LBB19:
 296:lvgl/src/extra/widgets/tabview/lv_tabview.c ****         lv_point_t p;
 882              		.loc 1 296 9 is_stmt 1 view .LVU227
 297:lvgl/src/extra/widgets/tabview/lv_tabview.c **** 
 883              		.loc 1 297 9 view .LVU228
 884 0038 01A9     		add	r1, sp, #4
 885 003a 2846     		mov	r0, r5
 886              	.LVL115:
 297:lvgl/src/extra/widgets/tabview/lv_tabview.c **** 
 887              		.loc 1 297 9 is_stmt 0 view .LVU229
 888 003c FFF7FEFF 		bl	lv_obj_get_scroll_end
 889              	.LVL116:
 299:lvgl/src/extra/widgets/tabview/lv_tabview.c ****         lv_coord_t t;
 890              		.loc 1 299 9 is_stmt 1 view .LVU230
 299:lvgl/src/extra/widgets/tabview/lv_tabview.c ****         lv_coord_t t;
 891              		.loc 1 299 24 is_stmt 0 view .LVU231
 892 0040 2846     		mov	r0, r5
 893 0042 FFF7FEFF 		bl	lv_obj_get_content_width
 894              	.LVL117:
 895 0046 0546     		mov	r5, r0
 896              	.LVL118:
 300:lvgl/src/extra/widgets/tabview/lv_tabview.c **** 
 897              		.loc 1 300 9 is_stmt 1 view .LVU232
 302:lvgl/src/extra/widgets/tabview/lv_tabview.c ****         else t = (p.x + w / 2) / w;
 898              		.loc 1 302 9 view .LVU233
 899              	.LBB20:
 900              	.LBI20:
 542:D:/update_2024EL/changeform/743zit6/lvgl/src/core\lv_obj_style_gen.h **** {
 901              		.loc 2 542 29 view .LVU234
 902              	.LBB21:
 544:D:/update_2024EL/changeform/743zit6/lvgl/src/core\lv_obj_style_gen.h ****     return (lv_base_dir_t)v.num;
 903              		.loc 2 544 5 view .LVU235
 544:D:/update_2024EL/changeform/743zit6/lvgl/src/core\lv_obj_style_gen.h ****     return (lv_base_dir_t)v.num;
 904              		.loc 2 544 26 is_stmt 0 view .LVU236
 905 0048 41F26A42 		movw	r2, #5226
 906 004c 0021     		movs	r1, #0
 907 004e 3046     		mov	r0, r6
 908 0050 FFF7FEFF 		bl	lv_obj_get_style_prop
 909              	.LVL119:
 910              		.loc 2 545 5 is_stmt 1 view .LVU237
 911              		.loc 2 545 12 is_stmt 0 view .LVU238
 912 0054 C0B2     		uxtb	r0, r0
ARM GAS  C:\usertemp\ccWXrwmL.s 			page 35


 913              	.LVL120:
 914              		.loc 2 545 12 view .LVU239
 915              	.LBE21:
 916              	.LBE20:
 302:lvgl/src/extra/widgets/tabview/lv_tabview.c ****         else t = (p.x + w / 2) / w;
 917              		.loc 1 302 11 discriminator 1 view .LVU240
 918 0056 0128     		cmp	r0, #1
 919 0058 1FD0     		beq	.L64
 303:lvgl/src/extra/widgets/tabview/lv_tabview.c **** 
 920              		.loc 1 303 14 is_stmt 1 view .LVU241
 303:lvgl/src/extra/widgets/tabview/lv_tabview.c **** 
 921              		.loc 1 303 20 is_stmt 0 view .LVU242
 922 005a BDF90440 		ldrsh	r4, [sp, #4]
 923              	.LVL121:
 303:lvgl/src/extra/widgets/tabview/lv_tabview.c **** 
 924              		.loc 1 303 27 view .LVU243
 925 005e 2B46     		mov	r3, r5
 926 0060 002D     		cmp	r5, #0
 927 0062 28DB     		blt	.L65
 928              	.L55:
 929 0064 43F34F03 		sbfx	r3, r3, #1, #16
 303:lvgl/src/extra/widgets/tabview/lv_tabview.c **** 
 930              		.loc 1 303 23 view .LVU244
 931 0068 1C44     		add	r4, r4, r3
 303:lvgl/src/extra/widgets/tabview/lv_tabview.c **** 
 932              		.loc 1 303 32 view .LVU245
 933 006a 94FBF5F4 		sdiv	r4, r4, r5
 303:lvgl/src/extra/widgets/tabview/lv_tabview.c **** 
 934              		.loc 1 303 16 view .LVU246
 935 006e 24B2     		sxth	r4, r4
 936              	.LVL122:
 937              	.L54:
 305:lvgl/src/extra/widgets/tabview/lv_tabview.c ****         bool new_tab = false;
 938              		.loc 1 305 9 is_stmt 1 view .LVU247
 305:lvgl/src/extra/widgets/tabview/lv_tabview.c ****         bool new_tab = false;
 939              		.loc 1 305 11 is_stmt 0 view .LVU248
 940 0070 002C     		cmp	r4, #0
 941 0072 22DB     		blt	.L66
 942              	.LVL123:
 943              	.L56:
 306:lvgl/src/extra/widgets/tabview/lv_tabview.c ****         if(t != lv_tabview_get_tab_act(tv)) new_tab = true;
 944              		.loc 1 306 9 is_stmt 1 view .LVU249
 307:lvgl/src/extra/widgets/tabview/lv_tabview.c ****         lv_tabview_set_act(tv, t, LV_ANIM_ON);
 945              		.loc 1 307 9 view .LVU250
 307:lvgl/src/extra/widgets/tabview/lv_tabview.c ****         lv_tabview_set_act(tv, t, LV_ANIM_ON);
 946              		.loc 1 307 17 is_stmt 0 view .LVU251
 947 0074 3046     		mov	r0, r6
 948 0076 FFF7FEFF 		bl	lv_tabview_get_tab_act
 949              	.LVL124:
 307:lvgl/src/extra/widgets/tabview/lv_tabview.c ****         lv_tabview_set_act(tv, t, LV_ANIM_ON);
 950              		.loc 1 307 11 discriminator 1 view .LVU252
 951 007a 8442     		cmp	r4, r0
 952 007c 1FD0     		beq	.L67
 307:lvgl/src/extra/widgets/tabview/lv_tabview.c ****         lv_tabview_set_act(tv, t, LV_ANIM_ON);
 953              		.loc 1 307 53 discriminator 1 view .LVU253
 954 007e 0125     		movs	r5, #1
 955              	.LVL125:
ARM GAS  C:\usertemp\ccWXrwmL.s 			page 36


 956              	.L57:
 308:lvgl/src/extra/widgets/tabview/lv_tabview.c **** 
 957              		.loc 1 308 9 is_stmt 1 view .LVU254
 958 0080 0122     		movs	r2, #1
 959 0082 2146     		mov	r1, r4
 960 0084 3046     		mov	r0, r6
 961 0086 FFF7FEFF 		bl	lv_tabview_set_act
 962              	.LVL126:
 310:lvgl/src/extra/widgets/tabview/lv_tabview.c ****     }
 963              		.loc 1 310 9 view .LVU255
 310:lvgl/src/extra/widgets/tabview/lv_tabview.c ****     }
 964              		.loc 1 310 11 is_stmt 0 view .LVU256
 965 008a 002D     		cmp	r5, #0
 966 008c CAD0     		beq	.L49
 310:lvgl/src/extra/widgets/tabview/lv_tabview.c ****     }
 967              		.loc 1 310 21 is_stmt 1 discriminator 1 view .LVU257
 968 008e 0022     		movs	r2, #0
 969 0090 1C21     		movs	r1, #28
 970 0092 3046     		mov	r0, r6
 971 0094 FFF7FEFF 		bl	lv_event_send
 972              	.LVL127:
 973              	.LBE19:
 974              		.loc 1 312 1 is_stmt 0 view .LVU258
 975 0098 C4E7     		b	.L49
 976              	.LVL128:
 977              	.L64:
 978              	.LBB22:
 302:lvgl/src/extra/widgets/tabview/lv_tabview.c ****         else t = (p.x + w / 2) / w;
 979              		.loc 1 302 77 is_stmt 1 discriminator 1 view .LVU259
 302:lvgl/src/extra/widgets/tabview/lv_tabview.c ****         else t = (p.x + w / 2) / w;
 980              		.loc 1 302 91 is_stmt 0 discriminator 1 view .LVU260
 981 009a 2B46     		mov	r3, r5
 982 009c 002D     		cmp	r5, #0
 983 009e 08DB     		blt	.L68
 984              	.L53:
 985 00a0 43F34F04 		sbfx	r4, r3, #1, #16
 986              	.LVL129:
 302:lvgl/src/extra/widgets/tabview/lv_tabview.c ****         else t = (p.x + w / 2) / w;
 987              		.loc 1 302 84 discriminator 1 view .LVU261
 988 00a4 BDF90430 		ldrsh	r3, [sp, #4]
 302:lvgl/src/extra/widgets/tabview/lv_tabview.c ****         else t = (p.x + w / 2) / w;
 989              		.loc 1 302 81 discriminator 1 view .LVU262
 990 00a8 E41A     		subs	r4, r4, r3
 302:lvgl/src/extra/widgets/tabview/lv_tabview.c ****         else t = (p.x + w / 2) / w;
 991              		.loc 1 302 96 discriminator 1 view .LVU263
 992 00aa 94FBF5F0 		sdiv	r0, r4, r5
 302:lvgl/src/extra/widgets/tabview/lv_tabview.c ****         else t = (p.x + w / 2) / w;
 993              		.loc 1 302 79 discriminator 1 view .LVU264
 994 00ae 04B2     		sxth	r4, r0
 995              	.LVL130:
 302:lvgl/src/extra/widgets/tabview/lv_tabview.c ****         else t = (p.x + w / 2) / w;
 996              		.loc 1 302 79 discriminator 1 view .LVU265
 997 00b0 DEE7     		b	.L54
 998              	.LVL131:
 999              	.L68:
 302:lvgl/src/extra/widgets/tabview/lv_tabview.c ****         else t = (p.x + w / 2) / w;
 1000              		.loc 1 302 91 discriminator 1 view .LVU266
ARM GAS  C:\usertemp\ccWXrwmL.s 			page 37


 1001 00b2 6B1C     		adds	r3, r5, #1
 1002 00b4 F4E7     		b	.L53
 1003              	.LVL132:
 1004              	.L65:
 303:lvgl/src/extra/widgets/tabview/lv_tabview.c **** 
 1005              		.loc 1 303 27 view .LVU267
 1006 00b6 6B1C     		adds	r3, r5, #1
 1007 00b8 D4E7     		b	.L55
 1008              	.LVL133:
 1009              	.L66:
 305:lvgl/src/extra/widgets/tabview/lv_tabview.c ****         bool new_tab = false;
 1010              		.loc 1 305 21 discriminator 1 view .LVU268
 1011 00ba 0024     		movs	r4, #0
 1012              	.LVL134:
 305:lvgl/src/extra/widgets/tabview/lv_tabview.c ****         bool new_tab = false;
 1013              		.loc 1 305 21 discriminator 1 view .LVU269
 1014 00bc DAE7     		b	.L56
 1015              	.LVL135:
 1016              	.L67:
 306:lvgl/src/extra/widgets/tabview/lv_tabview.c ****         if(t != lv_tabview_get_tab_act(tv)) new_tab = true;
 1017              		.loc 1 306 14 view .LVU270
 1018 00be 0025     		movs	r5, #0
 1019              	.LVL136:
 306:lvgl/src/extra/widgets/tabview/lv_tabview.c ****         if(t != lv_tabview_get_tab_act(tv)) new_tab = true;
 1020              		.loc 1 306 14 view .LVU271
 1021 00c0 DEE7     		b	.L57
 1022              	.LBE22:
 1023              		.cfi_endproc
 1024              	.LFE206:
 1026              		.section	.text.btns_value_changed_event_cb,"ax",%progbits
 1027              		.align	1
 1028              		.syntax unified
 1029              		.thumb
 1030              		.thumb_func
 1032              	btns_value_changed_event_cb:
 1033              	.LVL137:
 1034              	.LFB205:
 278:lvgl/src/extra/widgets/tabview/lv_tabview.c ****     lv_obj_t * btns = lv_event_get_target(e);
 1035              		.loc 1 278 1 is_stmt 1 view -0
 1036              		.cfi_startproc
 1037              		@ args = 0, pretend = 0, frame = 0
 1038              		@ frame_needed = 0, uses_anonymous_args = 0
 278:lvgl/src/extra/widgets/tabview/lv_tabview.c ****     lv_obj_t * btns = lv_event_get_target(e);
 1039              		.loc 1 278 1 is_stmt 0 view .LVU273
 1040 0000 38B5     		push	{r3, r4, r5, lr}
 1041              	.LCFI11:
 1042              		.cfi_def_cfa_offset 16
 1043              		.cfi_offset 3, -16
 1044              		.cfi_offset 4, -12
 1045              		.cfi_offset 5, -8
 1046              		.cfi_offset 14, -4
 279:lvgl/src/extra/widgets/tabview/lv_tabview.c **** 
 1047              		.loc 1 279 5 is_stmt 1 view .LVU274
 279:lvgl/src/extra/widgets/tabview/lv_tabview.c **** 
 1048              		.loc 1 279 23 is_stmt 0 view .LVU275
 1049 0002 FFF7FEFF 		bl	lv_event_get_target
 1050              	.LVL138:
ARM GAS  C:\usertemp\ccWXrwmL.s 			page 38


 279:lvgl/src/extra/widgets/tabview/lv_tabview.c **** 
 1051              		.loc 1 279 23 view .LVU276
 1052 0006 0546     		mov	r5, r0
 1053              	.LVL139:
 281:lvgl/src/extra/widgets/tabview/lv_tabview.c ****     uint32_t id = lv_btnmatrix_get_selected_btn(btns);
 1054              		.loc 1 281 5 is_stmt 1 view .LVU277
 281:lvgl/src/extra/widgets/tabview/lv_tabview.c ****     uint32_t id = lv_btnmatrix_get_selected_btn(btns);
 1055              		.loc 1 281 21 is_stmt 0 view .LVU278
 1056 0008 FFF7FEFF 		bl	lv_obj_get_parent
 1057              	.LVL140:
 281:lvgl/src/extra/widgets/tabview/lv_tabview.c ****     uint32_t id = lv_btnmatrix_get_selected_btn(btns);
 1058              		.loc 1 281 21 view .LVU279
 1059 000c 0446     		mov	r4, r0
 1060              	.LVL141:
 282:lvgl/src/extra/widgets/tabview/lv_tabview.c ****     lv_tabview_set_act(tv, id, LV_ANIM_ON);
 1061              		.loc 1 282 5 is_stmt 1 view .LVU280
 282:lvgl/src/extra/widgets/tabview/lv_tabview.c ****     lv_tabview_set_act(tv, id, LV_ANIM_ON);
 1062              		.loc 1 282 19 is_stmt 0 view .LVU281
 1063 000e 2846     		mov	r0, r5
 1064              	.LVL142:
 282:lvgl/src/extra/widgets/tabview/lv_tabview.c ****     lv_tabview_set_act(tv, id, LV_ANIM_ON);
 1065              		.loc 1 282 19 view .LVU282
 1066 0010 FFF7FEFF 		bl	lv_btnmatrix_get_selected_btn
 1067              	.LVL143:
 1068 0014 0146     		mov	r1, r0
 1069              	.LVL144:
 283:lvgl/src/extra/widgets/tabview/lv_tabview.c **** }
 1070              		.loc 1 283 5 is_stmt 1 view .LVU283
 1071 0016 0122     		movs	r2, #1
 1072 0018 2046     		mov	r0, r4
 1073              	.LVL145:
 283:lvgl/src/extra/widgets/tabview/lv_tabview.c **** }
 1074              		.loc 1 283 5 is_stmt 0 view .LVU284
 1075 001a FFF7FEFF 		bl	lv_tabview_set_act
 1076              	.LVL146:
 284:lvgl/src/extra/widgets/tabview/lv_tabview.c **** 
 1077              		.loc 1 284 1 view .LVU285
 1078 001e 38BD     		pop	{r3, r4, r5, pc}
 284:lvgl/src/extra/widgets/tabview/lv_tabview.c **** 
 1079              		.loc 1 284 1 view .LVU286
 1080              		.cfi_endproc
 1081              	.LFE205:
 1083              		.section	.rodata.lv_tabview_add_tab.str1.4,"aMS",%progbits,1
 1084              		.align	2
 1085              	.LC1:
 1086 0000 0A00     		.ascii	"\012\000"
 1087              		.section	.text.lv_tabview_add_tab,"ax",%progbits
 1088              		.align	1
 1089              		.global	lv_tabview_add_tab
 1090              		.syntax unified
 1091              		.thumb
 1092              		.thumb_func
 1094              	lv_tabview_add_tab:
 1095              	.LVL147:
 1096              	.LFB197:
  68:lvgl/src/extra/widgets/tabview/lv_tabview.c ****     LV_ASSERT_OBJ(obj, MY_CLASS);
 1097              		.loc 1 68 1 is_stmt 1 view -0
ARM GAS  C:\usertemp\ccWXrwmL.s 			page 39


 1098              		.cfi_startproc
 1099              		@ args = 0, pretend = 0, frame = 0
 1100              		@ frame_needed = 0, uses_anonymous_args = 0
  68:lvgl/src/extra/widgets/tabview/lv_tabview.c ****     LV_ASSERT_OBJ(obj, MY_CLASS);
 1101              		.loc 1 68 1 is_stmt 0 view .LVU288
 1102 0000 2DE9F84F 		push	{r3, r4, r5, r6, r7, r8, r9, r10, fp, lr}
 1103              	.LCFI12:
 1104              		.cfi_def_cfa_offset 40
 1105              		.cfi_offset 3, -40
 1106              		.cfi_offset 4, -36
 1107              		.cfi_offset 5, -32
 1108              		.cfi_offset 6, -28
 1109              		.cfi_offset 7, -24
 1110              		.cfi_offset 8, -20
 1111              		.cfi_offset 9, -16
 1112              		.cfi_offset 10, -12
 1113              		.cfi_offset 11, -8
 1114              		.cfi_offset 14, -4
 1115 0004 0446     		mov	r4, r0
 1116 0006 8946     		mov	r9, r1
  69:lvgl/src/extra/widgets/tabview/lv_tabview.c ****     lv_tabview_t * tabview = (lv_tabview_t *)obj;
 1117              		.loc 1 69 5 is_stmt 1 view .LVU289
  69:lvgl/src/extra/widgets/tabview/lv_tabview.c ****     lv_tabview_t * tabview = (lv_tabview_t *)obj;
 1118              		.loc 1 69 5 view .LVU290
  69:lvgl/src/extra/widgets/tabview/lv_tabview.c ****     lv_tabview_t * tabview = (lv_tabview_t *)obj;
 1119              		.loc 1 69 5 view .LVU291
  70:lvgl/src/extra/widgets/tabview/lv_tabview.c ****     lv_obj_t * cont = lv_tabview_get_content(obj);
 1120              		.loc 1 70 5 view .LVU292
 1121              	.LVL148:
  71:lvgl/src/extra/widgets/tabview/lv_tabview.c **** 
 1122              		.loc 1 71 5 view .LVU293
  71:lvgl/src/extra/widgets/tabview/lv_tabview.c **** 
 1123              		.loc 1 71 23 is_stmt 0 view .LVU294
 1124 0008 FFF7FEFF 		bl	lv_tabview_get_content
 1125              	.LVL149:
  71:lvgl/src/extra/widgets/tabview/lv_tabview.c **** 
 1126              		.loc 1 71 23 view .LVU295
 1127 000c 0546     		mov	r5, r0
 1128              	.LVL150:
  73:lvgl/src/extra/widgets/tabview/lv_tabview.c ****     lv_obj_set_size(page, LV_PCT(100), LV_PCT(100));
 1129              		.loc 1 73 5 is_stmt 1 view .LVU296
  73:lvgl/src/extra/widgets/tabview/lv_tabview.c ****     lv_obj_set_size(page, LV_PCT(100), LV_PCT(100));
 1130              		.loc 1 73 23 is_stmt 0 view .LVU297
 1131 000e FFF7FEFF 		bl	lv_obj_create
 1132              	.LVL151:
  73:lvgl/src/extra/widgets/tabview/lv_tabview.c ****     lv_obj_set_size(page, LV_PCT(100), LV_PCT(100));
 1133              		.loc 1 73 23 view .LVU298
 1134 0012 8046     		mov	r8, r0
 1135              	.LVL152:
  74:lvgl/src/extra/widgets/tabview/lv_tabview.c ****     lv_obj_clear_flag(page, LV_OBJ_FLAG_CLICK_FOCUSABLE);
 1136              		.loc 1 74 5 is_stmt 1 view .LVU299
 1137 0014 42F26402 		movw	r2, #8292
 1138 0018 1146     		mov	r1, r2
 1139 001a FFF7FEFF 		bl	lv_obj_set_size
 1140              	.LVL153:
  75:lvgl/src/extra/widgets/tabview/lv_tabview.c ****     uint32_t tab_id = lv_obj_get_child_cnt(cont);
 1141              		.loc 1 75 5 view .LVU300
ARM GAS  C:\usertemp\ccWXrwmL.s 			page 40


 1142 001e 0421     		movs	r1, #4
 1143 0020 4046     		mov	r0, r8
 1144 0022 FFF7FEFF 		bl	lv_obj_clear_flag
 1145              	.LVL154:
  76:lvgl/src/extra/widgets/tabview/lv_tabview.c **** 
 1146              		.loc 1 76 5 view .LVU301
  76:lvgl/src/extra/widgets/tabview/lv_tabview.c **** 
 1147              		.loc 1 76 23 is_stmt 0 view .LVU302
 1148 0026 2846     		mov	r0, r5
 1149 0028 FFF7FEFF 		bl	lv_obj_get_child_cnt
 1150              	.LVL155:
 1151 002c 0646     		mov	r6, r0
 1152              	.LVL156:
  78:lvgl/src/extra/widgets/tabview/lv_tabview.c **** 
 1153              		.loc 1 78 5 is_stmt 1 view .LVU303
  78:lvgl/src/extra/widgets/tabview/lv_tabview.c **** 
 1154              		.loc 1 78 23 is_stmt 0 view .LVU304
 1155 002e 2046     		mov	r0, r4
 1156              	.LVL157:
  78:lvgl/src/extra/widgets/tabview/lv_tabview.c **** 
 1157              		.loc 1 78 23 view .LVU305
 1158 0030 FFF7FEFF 		bl	lv_tabview_get_tab_btns
 1159              	.LVL158:
 1160 0034 0746     		mov	r7, r0
 1161              	.LVL159:
  80:lvgl/src/extra/widgets/tabview/lv_tabview.c ****     char ** new_map;
 1162              		.loc 1 80 5 is_stmt 1 view .LVU306
  80:lvgl/src/extra/widgets/tabview/lv_tabview.c ****     char ** new_map;
 1163              		.loc 1 80 13 is_stmt 0 view .LVU307
 1164 0036 D4F824A0 		ldr	r10, [r4, #36]
 1165              	.LVL160:
  81:lvgl/src/extra/widgets/tabview/lv_tabview.c **** 
 1166              		.loc 1 81 5 is_stmt 1 view .LVU308
  84:lvgl/src/extra/widgets/tabview/lv_tabview.c ****         new_map = lv_mem_alloc((tab_id + 1) * sizeof(const char *));
 1167              		.loc 1 84 5 view .LVU309
  84:lvgl/src/extra/widgets/tabview/lv_tabview.c ****         new_map = lv_mem_alloc((tab_id + 1) * sizeof(const char *));
 1168              		.loc 1 84 15 is_stmt 0 view .LVU310
 1169 003a 94F82C30 		ldrb	r3, [r4, #44]	@ zero_extendqisi2
  84:lvgl/src/extra/widgets/tabview/lv_tabview.c ****         new_map = lv_mem_alloc((tab_id + 1) * sizeof(const char *));
 1170              		.loc 1 84 7 view .LVU311
 1171 003e 13F00C0F 		tst	r3, #12
 1172 0042 3CD0     		beq	.L72
  85:lvgl/src/extra/widgets/tabview/lv_tabview.c ****         lv_memcpy_small(new_map, old_map, sizeof(const char *) * (tab_id - 1));
 1173              		.loc 1 85 9 is_stmt 1 view .LVU312
  85:lvgl/src/extra/widgets/tabview/lv_tabview.c ****         lv_memcpy_small(new_map, old_map, sizeof(const char *) * (tab_id - 1));
 1174              		.loc 1 85 40 is_stmt 0 view .LVU313
 1175 0044 701C     		adds	r0, r6, #1
 1176              	.LVL161:
  85:lvgl/src/extra/widgets/tabview/lv_tabview.c ****         lv_memcpy_small(new_map, old_map, sizeof(const char *) * (tab_id - 1));
 1177              		.loc 1 85 19 view .LVU314
 1178 0046 8000     		lsls	r0, r0, #2
 1179 0048 FFF7FEFF 		bl	lv_mem_alloc
 1180              	.LVL162:
 1181 004c 0546     		mov	r5, r0
 1182              	.LVL163:
  86:lvgl/src/extra/widgets/tabview/lv_tabview.c ****         new_map[tab_id - 1] = lv_mem_alloc(strlen(name) + 1);
 1183              		.loc 1 86 9 is_stmt 1 view .LVU315
ARM GAS  C:\usertemp\ccWXrwmL.s 			page 41


  86:lvgl/src/extra/widgets/tabview/lv_tabview.c ****         new_map[tab_id - 1] = lv_mem_alloc(strlen(name) + 1);
 1184              		.loc 1 86 74 is_stmt 0 view .LVU316
 1185 004e 731E     		subs	r3, r6, #1
  86:lvgl/src/extra/widgets/tabview/lv_tabview.c ****         new_map[tab_id - 1] = lv_mem_alloc(strlen(name) + 1);
 1186              		.loc 1 86 64 view .LVU317
 1187 0050 9B00     		lsls	r3, r3, #2
 1188              	.LVL164:
 1189              	.LBB23:
 1190              	.LBI23:
 1191              		.file 3 "D:/update_2024EL/changeform/743zit6/lvgl/src/misc/lv_mem.h"
   1:D:/update_2024EL/changeform/743zit6/lvgl/src/misc\lv_mem.h **** /**
   2:D:/update_2024EL/changeform/743zit6/lvgl/src/misc\lv_mem.h ****  * @file lv_mem.h
   3:D:/update_2024EL/changeform/743zit6/lvgl/src/misc\lv_mem.h ****  *
   4:D:/update_2024EL/changeform/743zit6/lvgl/src/misc\lv_mem.h ****  */
   5:D:/update_2024EL/changeform/743zit6/lvgl/src/misc\lv_mem.h **** 
   6:D:/update_2024EL/changeform/743zit6/lvgl/src/misc\lv_mem.h **** #ifndef LV_MEM_H
   7:D:/update_2024EL/changeform/743zit6/lvgl/src/misc\lv_mem.h **** #define LV_MEM_H
   8:D:/update_2024EL/changeform/743zit6/lvgl/src/misc\lv_mem.h **** 
   9:D:/update_2024EL/changeform/743zit6/lvgl/src/misc\lv_mem.h **** #ifdef __cplusplus
  10:D:/update_2024EL/changeform/743zit6/lvgl/src/misc\lv_mem.h **** extern "C" {
  11:D:/update_2024EL/changeform/743zit6/lvgl/src/misc\lv_mem.h **** #endif
  12:D:/update_2024EL/changeform/743zit6/lvgl/src/misc\lv_mem.h **** 
  13:D:/update_2024EL/changeform/743zit6/lvgl/src/misc\lv_mem.h **** /*********************
  14:D:/update_2024EL/changeform/743zit6/lvgl/src/misc\lv_mem.h ****  *      INCLUDES
  15:D:/update_2024EL/changeform/743zit6/lvgl/src/misc\lv_mem.h ****  *********************/
  16:D:/update_2024EL/changeform/743zit6/lvgl/src/misc\lv_mem.h **** #include "../lv_conf_internal.h"
  17:D:/update_2024EL/changeform/743zit6/lvgl/src/misc\lv_mem.h **** 
  18:D:/update_2024EL/changeform/743zit6/lvgl/src/misc\lv_mem.h **** #include <stdint.h>
  19:D:/update_2024EL/changeform/743zit6/lvgl/src/misc\lv_mem.h **** #include <stddef.h>
  20:D:/update_2024EL/changeform/743zit6/lvgl/src/misc\lv_mem.h **** #include <string.h>
  21:D:/update_2024EL/changeform/743zit6/lvgl/src/misc\lv_mem.h **** 
  22:D:/update_2024EL/changeform/743zit6/lvgl/src/misc\lv_mem.h **** #include "lv_types.h"
  23:D:/update_2024EL/changeform/743zit6/lvgl/src/misc\lv_mem.h **** 
  24:D:/update_2024EL/changeform/743zit6/lvgl/src/misc\lv_mem.h **** /*********************
  25:D:/update_2024EL/changeform/743zit6/lvgl/src/misc\lv_mem.h ****  *      DEFINES
  26:D:/update_2024EL/changeform/743zit6/lvgl/src/misc\lv_mem.h ****  *********************/
  27:D:/update_2024EL/changeform/743zit6/lvgl/src/misc\lv_mem.h **** 
  28:D:/update_2024EL/changeform/743zit6/lvgl/src/misc\lv_mem.h **** /**********************
  29:D:/update_2024EL/changeform/743zit6/lvgl/src/misc\lv_mem.h ****  *      TYPEDEFS
  30:D:/update_2024EL/changeform/743zit6/lvgl/src/misc\lv_mem.h ****  **********************/
  31:D:/update_2024EL/changeform/743zit6/lvgl/src/misc\lv_mem.h **** 
  32:D:/update_2024EL/changeform/743zit6/lvgl/src/misc\lv_mem.h **** /**
  33:D:/update_2024EL/changeform/743zit6/lvgl/src/misc\lv_mem.h ****  * Heap information structure.
  34:D:/update_2024EL/changeform/743zit6/lvgl/src/misc\lv_mem.h ****  */
  35:D:/update_2024EL/changeform/743zit6/lvgl/src/misc\lv_mem.h **** typedef struct {
  36:D:/update_2024EL/changeform/743zit6/lvgl/src/misc\lv_mem.h ****     uint32_t total_size; /**< Total heap size*/
  37:D:/update_2024EL/changeform/743zit6/lvgl/src/misc\lv_mem.h ****     uint32_t free_cnt;
  38:D:/update_2024EL/changeform/743zit6/lvgl/src/misc\lv_mem.h ****     uint32_t free_size; /**< Size of available memory*/
  39:D:/update_2024EL/changeform/743zit6/lvgl/src/misc\lv_mem.h ****     uint32_t free_biggest_size;
  40:D:/update_2024EL/changeform/743zit6/lvgl/src/misc\lv_mem.h ****     uint32_t used_cnt;
  41:D:/update_2024EL/changeform/743zit6/lvgl/src/misc\lv_mem.h ****     uint32_t max_used; /**< Max size of Heap memory used*/
  42:D:/update_2024EL/changeform/743zit6/lvgl/src/misc\lv_mem.h ****     uint8_t used_pct; /**< Percentage used*/
  43:D:/update_2024EL/changeform/743zit6/lvgl/src/misc\lv_mem.h ****     uint8_t frag_pct; /**< Amount of fragmentation*/
  44:D:/update_2024EL/changeform/743zit6/lvgl/src/misc\lv_mem.h **** } lv_mem_monitor_t;
  45:D:/update_2024EL/changeform/743zit6/lvgl/src/misc\lv_mem.h **** 
  46:D:/update_2024EL/changeform/743zit6/lvgl/src/misc\lv_mem.h **** typedef struct {
  47:D:/update_2024EL/changeform/743zit6/lvgl/src/misc\lv_mem.h ****     void * p;
ARM GAS  C:\usertemp\ccWXrwmL.s 			page 42


  48:D:/update_2024EL/changeform/743zit6/lvgl/src/misc\lv_mem.h ****     uint16_t size;
  49:D:/update_2024EL/changeform/743zit6/lvgl/src/misc\lv_mem.h ****     uint8_t used : 1;
  50:D:/update_2024EL/changeform/743zit6/lvgl/src/misc\lv_mem.h **** } lv_mem_buf_t;
  51:D:/update_2024EL/changeform/743zit6/lvgl/src/misc\lv_mem.h **** 
  52:D:/update_2024EL/changeform/743zit6/lvgl/src/misc\lv_mem.h **** typedef lv_mem_buf_t lv_mem_buf_arr_t[LV_MEM_BUF_MAX_NUM];
  53:D:/update_2024EL/changeform/743zit6/lvgl/src/misc\lv_mem.h **** 
  54:D:/update_2024EL/changeform/743zit6/lvgl/src/misc\lv_mem.h **** /**********************
  55:D:/update_2024EL/changeform/743zit6/lvgl/src/misc\lv_mem.h ****  * GLOBAL PROTOTYPES
  56:D:/update_2024EL/changeform/743zit6/lvgl/src/misc\lv_mem.h ****  **********************/
  57:D:/update_2024EL/changeform/743zit6/lvgl/src/misc\lv_mem.h **** 
  58:D:/update_2024EL/changeform/743zit6/lvgl/src/misc\lv_mem.h **** /**
  59:D:/update_2024EL/changeform/743zit6/lvgl/src/misc\lv_mem.h ****  * Initialize the dyn_mem module (work memory and other variables)
  60:D:/update_2024EL/changeform/743zit6/lvgl/src/misc\lv_mem.h ****  */
  61:D:/update_2024EL/changeform/743zit6/lvgl/src/misc\lv_mem.h **** void lv_mem_init(void);
  62:D:/update_2024EL/changeform/743zit6/lvgl/src/misc\lv_mem.h **** 
  63:D:/update_2024EL/changeform/743zit6/lvgl/src/misc\lv_mem.h **** /**
  64:D:/update_2024EL/changeform/743zit6/lvgl/src/misc\lv_mem.h ****  * Clean up the memory buffer which frees all the allocated memories.
  65:D:/update_2024EL/changeform/743zit6/lvgl/src/misc\lv_mem.h ****  * @note It work only if `LV_MEM_CUSTOM == 0`
  66:D:/update_2024EL/changeform/743zit6/lvgl/src/misc\lv_mem.h ****  */
  67:D:/update_2024EL/changeform/743zit6/lvgl/src/misc\lv_mem.h **** void lv_mem_deinit(void);
  68:D:/update_2024EL/changeform/743zit6/lvgl/src/misc\lv_mem.h **** 
  69:D:/update_2024EL/changeform/743zit6/lvgl/src/misc\lv_mem.h **** /**
  70:D:/update_2024EL/changeform/743zit6/lvgl/src/misc\lv_mem.h ****  * Allocate a memory dynamically
  71:D:/update_2024EL/changeform/743zit6/lvgl/src/misc\lv_mem.h ****  * @param size size of the memory to allocate in bytes
  72:D:/update_2024EL/changeform/743zit6/lvgl/src/misc\lv_mem.h ****  * @return pointer to the allocated memory
  73:D:/update_2024EL/changeform/743zit6/lvgl/src/misc\lv_mem.h ****  */
  74:D:/update_2024EL/changeform/743zit6/lvgl/src/misc\lv_mem.h **** void * lv_mem_alloc(size_t size);
  75:D:/update_2024EL/changeform/743zit6/lvgl/src/misc\lv_mem.h **** 
  76:D:/update_2024EL/changeform/743zit6/lvgl/src/misc\lv_mem.h **** /**
  77:D:/update_2024EL/changeform/743zit6/lvgl/src/misc\lv_mem.h ****  * Free an allocated data
  78:D:/update_2024EL/changeform/743zit6/lvgl/src/misc\lv_mem.h ****  * @param data pointer to an allocated memory
  79:D:/update_2024EL/changeform/743zit6/lvgl/src/misc\lv_mem.h ****  */
  80:D:/update_2024EL/changeform/743zit6/lvgl/src/misc\lv_mem.h **** void lv_mem_free(void * data);
  81:D:/update_2024EL/changeform/743zit6/lvgl/src/misc\lv_mem.h **** 
  82:D:/update_2024EL/changeform/743zit6/lvgl/src/misc\lv_mem.h **** /**
  83:D:/update_2024EL/changeform/743zit6/lvgl/src/misc\lv_mem.h ****  * Reallocate a memory with a new size. The old content will be kept.
  84:D:/update_2024EL/changeform/743zit6/lvgl/src/misc\lv_mem.h ****  * @param data pointer to an allocated memory.
  85:D:/update_2024EL/changeform/743zit6/lvgl/src/misc\lv_mem.h ****  * Its content will be copied to the new memory block and freed
  86:D:/update_2024EL/changeform/743zit6/lvgl/src/misc\lv_mem.h ****  * @param new_size the desired new size in byte
  87:D:/update_2024EL/changeform/743zit6/lvgl/src/misc\lv_mem.h ****  * @return pointer to the new memory, NULL on failure
  88:D:/update_2024EL/changeform/743zit6/lvgl/src/misc\lv_mem.h ****  */
  89:D:/update_2024EL/changeform/743zit6/lvgl/src/misc\lv_mem.h **** void * lv_mem_realloc(void * data_p, size_t new_size);
  90:D:/update_2024EL/changeform/743zit6/lvgl/src/misc\lv_mem.h **** 
  91:D:/update_2024EL/changeform/743zit6/lvgl/src/misc\lv_mem.h **** /**
  92:D:/update_2024EL/changeform/743zit6/lvgl/src/misc\lv_mem.h ****  *
  93:D:/update_2024EL/changeform/743zit6/lvgl/src/misc\lv_mem.h ****  * @return
  94:D:/update_2024EL/changeform/743zit6/lvgl/src/misc\lv_mem.h ****  */
  95:D:/update_2024EL/changeform/743zit6/lvgl/src/misc\lv_mem.h **** lv_res_t lv_mem_test(void);
  96:D:/update_2024EL/changeform/743zit6/lvgl/src/misc\lv_mem.h **** 
  97:D:/update_2024EL/changeform/743zit6/lvgl/src/misc\lv_mem.h **** /**
  98:D:/update_2024EL/changeform/743zit6/lvgl/src/misc\lv_mem.h ****  * Give information about the work memory of dynamic allocation
  99:D:/update_2024EL/changeform/743zit6/lvgl/src/misc\lv_mem.h ****  * @param mon_p pointer to a lv_mem_monitor_t variable,
 100:D:/update_2024EL/changeform/743zit6/lvgl/src/misc\lv_mem.h ****  *              the result of the analysis will be stored here
 101:D:/update_2024EL/changeform/743zit6/lvgl/src/misc\lv_mem.h ****  */
 102:D:/update_2024EL/changeform/743zit6/lvgl/src/misc\lv_mem.h **** void lv_mem_monitor(lv_mem_monitor_t * mon_p);
 103:D:/update_2024EL/changeform/743zit6/lvgl/src/misc\lv_mem.h **** 
 104:D:/update_2024EL/changeform/743zit6/lvgl/src/misc\lv_mem.h **** 
ARM GAS  C:\usertemp\ccWXrwmL.s 			page 43


 105:D:/update_2024EL/changeform/743zit6/lvgl/src/misc\lv_mem.h **** /**
 106:D:/update_2024EL/changeform/743zit6/lvgl/src/misc\lv_mem.h ****  * Get a temporal buffer with the given size.
 107:D:/update_2024EL/changeform/743zit6/lvgl/src/misc\lv_mem.h ****  * @param size the required size
 108:D:/update_2024EL/changeform/743zit6/lvgl/src/misc\lv_mem.h ****  */
 109:D:/update_2024EL/changeform/743zit6/lvgl/src/misc\lv_mem.h **** void * lv_mem_buf_get(uint32_t size);
 110:D:/update_2024EL/changeform/743zit6/lvgl/src/misc\lv_mem.h **** 
 111:D:/update_2024EL/changeform/743zit6/lvgl/src/misc\lv_mem.h **** /**
 112:D:/update_2024EL/changeform/743zit6/lvgl/src/misc\lv_mem.h ****  * Release a memory buffer
 113:D:/update_2024EL/changeform/743zit6/lvgl/src/misc\lv_mem.h ****  * @param p buffer to release
 114:D:/update_2024EL/changeform/743zit6/lvgl/src/misc\lv_mem.h ****  */
 115:D:/update_2024EL/changeform/743zit6/lvgl/src/misc\lv_mem.h **** void lv_mem_buf_release(void * p);
 116:D:/update_2024EL/changeform/743zit6/lvgl/src/misc\lv_mem.h **** 
 117:D:/update_2024EL/changeform/743zit6/lvgl/src/misc\lv_mem.h **** /**
 118:D:/update_2024EL/changeform/743zit6/lvgl/src/misc\lv_mem.h ****  * Free all memory buffers
 119:D:/update_2024EL/changeform/743zit6/lvgl/src/misc\lv_mem.h ****  */
 120:D:/update_2024EL/changeform/743zit6/lvgl/src/misc\lv_mem.h **** void lv_mem_buf_free_all(void);
 121:D:/update_2024EL/changeform/743zit6/lvgl/src/misc\lv_mem.h **** 
 122:D:/update_2024EL/changeform/743zit6/lvgl/src/misc\lv_mem.h **** //! @cond Doxygen_Suppress
 123:D:/update_2024EL/changeform/743zit6/lvgl/src/misc\lv_mem.h **** 
 124:D:/update_2024EL/changeform/743zit6/lvgl/src/misc\lv_mem.h **** #if LV_MEMCPY_MEMSET_STD
 125:D:/update_2024EL/changeform/743zit6/lvgl/src/misc\lv_mem.h **** 
 126:D:/update_2024EL/changeform/743zit6/lvgl/src/misc\lv_mem.h **** /**
 127:D:/update_2024EL/changeform/743zit6/lvgl/src/misc\lv_mem.h ****  * Wrapper for the standard memcpy
 128:D:/update_2024EL/changeform/743zit6/lvgl/src/misc\lv_mem.h ****  * @param dst pointer to the destination buffer
 129:D:/update_2024EL/changeform/743zit6/lvgl/src/misc\lv_mem.h ****  * @param src pointer to the source buffer
 130:D:/update_2024EL/changeform/743zit6/lvgl/src/misc\lv_mem.h ****  * @param len number of byte to copy
 131:D:/update_2024EL/changeform/743zit6/lvgl/src/misc\lv_mem.h ****  */
 132:D:/update_2024EL/changeform/743zit6/lvgl/src/misc\lv_mem.h **** static inline void * lv_memcpy(void * dst, const void * src, size_t len)
 133:D:/update_2024EL/changeform/743zit6/lvgl/src/misc\lv_mem.h **** {
 134:D:/update_2024EL/changeform/743zit6/lvgl/src/misc\lv_mem.h ****     return memcpy(dst, src, len);
 135:D:/update_2024EL/changeform/743zit6/lvgl/src/misc\lv_mem.h **** }
 136:D:/update_2024EL/changeform/743zit6/lvgl/src/misc\lv_mem.h **** 
 137:D:/update_2024EL/changeform/743zit6/lvgl/src/misc\lv_mem.h **** /**
 138:D:/update_2024EL/changeform/743zit6/lvgl/src/misc\lv_mem.h ****  * Wrapper for the standard memcpy
 139:D:/update_2024EL/changeform/743zit6/lvgl/src/misc\lv_mem.h ****  * @param dst pointer to the destination buffer
 140:D:/update_2024EL/changeform/743zit6/lvgl/src/misc\lv_mem.h ****  * @param src pointer to the source buffer
 141:D:/update_2024EL/changeform/743zit6/lvgl/src/misc\lv_mem.h ****  * @param len number of byte to copy
 142:D:/update_2024EL/changeform/743zit6/lvgl/src/misc\lv_mem.h ****  */
 143:D:/update_2024EL/changeform/743zit6/lvgl/src/misc\lv_mem.h **** static inline void * lv_memcpy_small(void * dst, const void * src, size_t len)
 144:D:/update_2024EL/changeform/743zit6/lvgl/src/misc\lv_mem.h **** {
 145:D:/update_2024EL/changeform/743zit6/lvgl/src/misc\lv_mem.h ****     return memcpy(dst, src, len);
 146:D:/update_2024EL/changeform/743zit6/lvgl/src/misc\lv_mem.h **** }
 147:D:/update_2024EL/changeform/743zit6/lvgl/src/misc\lv_mem.h **** 
 148:D:/update_2024EL/changeform/743zit6/lvgl/src/misc\lv_mem.h **** /**
 149:D:/update_2024EL/changeform/743zit6/lvgl/src/misc\lv_mem.h ****  * Wrapper for the standard memset
 150:D:/update_2024EL/changeform/743zit6/lvgl/src/misc\lv_mem.h ****  * @param dst pointer to the destination buffer
 151:D:/update_2024EL/changeform/743zit6/lvgl/src/misc\lv_mem.h ****  * @param v value to set [0..255]
 152:D:/update_2024EL/changeform/743zit6/lvgl/src/misc\lv_mem.h ****  * @param len number of byte to set
 153:D:/update_2024EL/changeform/743zit6/lvgl/src/misc\lv_mem.h ****  */
 154:D:/update_2024EL/changeform/743zit6/lvgl/src/misc\lv_mem.h **** static inline void lv_memset(void * dst, uint8_t v, size_t len)
 155:D:/update_2024EL/changeform/743zit6/lvgl/src/misc\lv_mem.h **** {
 156:D:/update_2024EL/changeform/743zit6/lvgl/src/misc\lv_mem.h ****     memset(dst, v, len);
 157:D:/update_2024EL/changeform/743zit6/lvgl/src/misc\lv_mem.h **** }
 158:D:/update_2024EL/changeform/743zit6/lvgl/src/misc\lv_mem.h **** 
 159:D:/update_2024EL/changeform/743zit6/lvgl/src/misc\lv_mem.h **** /**
 160:D:/update_2024EL/changeform/743zit6/lvgl/src/misc\lv_mem.h ****  * Wrapper for the standard memset with fixed 0x00 value
 161:D:/update_2024EL/changeform/743zit6/lvgl/src/misc\lv_mem.h ****  * @param dst pointer to the destination buffer
ARM GAS  C:\usertemp\ccWXrwmL.s 			page 44


 162:D:/update_2024EL/changeform/743zit6/lvgl/src/misc\lv_mem.h ****  * @param len number of byte to set
 163:D:/update_2024EL/changeform/743zit6/lvgl/src/misc\lv_mem.h ****  */
 164:D:/update_2024EL/changeform/743zit6/lvgl/src/misc\lv_mem.h **** static inline void lv_memset_00(void * dst, size_t len)
 165:D:/update_2024EL/changeform/743zit6/lvgl/src/misc\lv_mem.h **** {
 166:D:/update_2024EL/changeform/743zit6/lvgl/src/misc\lv_mem.h ****     memset(dst, 0x00, len);
 167:D:/update_2024EL/changeform/743zit6/lvgl/src/misc\lv_mem.h **** }
 168:D:/update_2024EL/changeform/743zit6/lvgl/src/misc\lv_mem.h **** 
 169:D:/update_2024EL/changeform/743zit6/lvgl/src/misc\lv_mem.h **** /**
 170:D:/update_2024EL/changeform/743zit6/lvgl/src/misc\lv_mem.h ****  * Wrapper for the standard memset with fixed 0xFF value
 171:D:/update_2024EL/changeform/743zit6/lvgl/src/misc\lv_mem.h ****  * @param dst pointer to the destination buffer
 172:D:/update_2024EL/changeform/743zit6/lvgl/src/misc\lv_mem.h ****  * @param len number of byte to set
 173:D:/update_2024EL/changeform/743zit6/lvgl/src/misc\lv_mem.h ****  */
 174:D:/update_2024EL/changeform/743zit6/lvgl/src/misc\lv_mem.h **** static inline void lv_memset_ff(void * dst, size_t len)
 175:D:/update_2024EL/changeform/743zit6/lvgl/src/misc\lv_mem.h **** {
 176:D:/update_2024EL/changeform/743zit6/lvgl/src/misc\lv_mem.h ****     memset(dst, 0xFF, len);
 177:D:/update_2024EL/changeform/743zit6/lvgl/src/misc\lv_mem.h **** }
 178:D:/update_2024EL/changeform/743zit6/lvgl/src/misc\lv_mem.h **** 
 179:D:/update_2024EL/changeform/743zit6/lvgl/src/misc\lv_mem.h **** #else
 180:D:/update_2024EL/changeform/743zit6/lvgl/src/misc\lv_mem.h **** /**
 181:D:/update_2024EL/changeform/743zit6/lvgl/src/misc\lv_mem.h ****  * Same as `memcpy` but optimized for 4 byte operation.
 182:D:/update_2024EL/changeform/743zit6/lvgl/src/misc\lv_mem.h ****  * @param dst pointer to the destination buffer
 183:D:/update_2024EL/changeform/743zit6/lvgl/src/misc\lv_mem.h ****  * @param src pointer to the source buffer
 184:D:/update_2024EL/changeform/743zit6/lvgl/src/misc\lv_mem.h ****  * @param len number of byte to copy
 185:D:/update_2024EL/changeform/743zit6/lvgl/src/misc\lv_mem.h ****  */
 186:D:/update_2024EL/changeform/743zit6/lvgl/src/misc\lv_mem.h **** LV_ATTRIBUTE_FAST_MEM void * lv_memcpy(void * dst, const void * src, size_t len);
 187:D:/update_2024EL/changeform/743zit6/lvgl/src/misc\lv_mem.h **** 
 188:D:/update_2024EL/changeform/743zit6/lvgl/src/misc\lv_mem.h **** /**
 189:D:/update_2024EL/changeform/743zit6/lvgl/src/misc\lv_mem.h ****  * Same as `memcpy` but optimized to copy only a few bytes.
 190:D:/update_2024EL/changeform/743zit6/lvgl/src/misc\lv_mem.h ****  * @param dst pointer to the destination buffer
 191:D:/update_2024EL/changeform/743zit6/lvgl/src/misc\lv_mem.h ****  * @param src pointer to the source buffer
 192:D:/update_2024EL/changeform/743zit6/lvgl/src/misc\lv_mem.h ****  * @param len number of byte to copy
 193:D:/update_2024EL/changeform/743zit6/lvgl/src/misc\lv_mem.h ****  */
 194:D:/update_2024EL/changeform/743zit6/lvgl/src/misc\lv_mem.h **** LV_ATTRIBUTE_FAST_MEM static inline void * lv_memcpy_small(void * dst, const void * src, size_t len
 1192              		.loc 3 194 44 is_stmt 1 view .LVU318
 1193              	.LBB24:
 195:D:/update_2024EL/changeform/743zit6/lvgl/src/misc\lv_mem.h **** {
 196:D:/update_2024EL/changeform/743zit6/lvgl/src/misc\lv_mem.h ****     uint8_t * d8 = (uint8_t *)dst;
 1194              		.loc 3 196 5 view .LVU319
 197:D:/update_2024EL/changeform/743zit6/lvgl/src/misc\lv_mem.h ****     const uint8_t * s8 = (const uint8_t *)src;
 1195              		.loc 3 197 5 view .LVU320
 198:D:/update_2024EL/changeform/743zit6/lvgl/src/misc\lv_mem.h **** 
 199:D:/update_2024EL/changeform/743zit6/lvgl/src/misc\lv_mem.h ****     while(len) {
 1196              		.loc 3 199 5 view .LVU321
 197:D:/update_2024EL/changeform/743zit6/lvgl/src/misc\lv_mem.h ****     const uint8_t * s8 = (const uint8_t *)src;
 1197              		.loc 3 197 21 is_stmt 0 view .LVU322
 1198 0052 5146     		mov	r1, r10
 196:D:/update_2024EL/changeform/743zit6/lvgl/src/misc\lv_mem.h ****     const uint8_t * s8 = (const uint8_t *)src;
 1199              		.loc 3 196 15 view .LVU323
 1200 0054 0246     		mov	r2, r0
 1201              		.loc 3 199 10 view .LVU324
 1202 0056 04E0     		b	.L73
 1203              	.LVL165:
 1204              	.L74:
 200:D:/update_2024EL/changeform/743zit6/lvgl/src/misc\lv_mem.h ****         *d8 = *s8;
 1205              		.loc 3 200 9 is_stmt 1 view .LVU325
 1206              		.loc 3 200 15 is_stmt 0 view .LVU326
 1207 0058 11F8010B 		ldrb	r0, [r1], #1	@ zero_extendqisi2
ARM GAS  C:\usertemp\ccWXrwmL.s 			page 45


 1208              	.LVL166:
 1209              		.loc 3 200 13 view .LVU327
 1210 005c 02F8010B 		strb	r0, [r2], #1
 1211              	.LVL167:
 201:D:/update_2024EL/changeform/743zit6/lvgl/src/misc\lv_mem.h ****         d8++;
 1212              		.loc 3 201 9 is_stmt 1 view .LVU328
 202:D:/update_2024EL/changeform/743zit6/lvgl/src/misc\lv_mem.h ****         s8++;
 1213              		.loc 3 202 9 view .LVU329
 203:D:/update_2024EL/changeform/743zit6/lvgl/src/misc\lv_mem.h ****         len--;
 1214              		.loc 3 203 9 view .LVU330
 1215              		.loc 3 203 12 is_stmt 0 view .LVU331
 1216 0060 013B     		subs	r3, r3, #1
 1217              	.LVL168:
 1218              	.L73:
 199:D:/update_2024EL/changeform/743zit6/lvgl/src/misc\lv_mem.h ****         *d8 = *s8;
 1219              		.loc 3 199 11 is_stmt 1 view .LVU332
 1220 0062 002B     		cmp	r3, #0
 1221 0064 F8D1     		bne	.L74
 204:D:/update_2024EL/changeform/743zit6/lvgl/src/misc\lv_mem.h ****     }
 205:D:/update_2024EL/changeform/743zit6/lvgl/src/misc\lv_mem.h **** 
 206:D:/update_2024EL/changeform/743zit6/lvgl/src/misc\lv_mem.h ****     return dst;
 1222              		.loc 3 206 5 view .LVU333
 1223              	.LVL169:
 1224              		.loc 3 206 5 is_stmt 0 view .LVU334
 1225              	.LBE24:
 1226              	.LBE23:
  87:lvgl/src/extra/widgets/tabview/lv_tabview.c ****         strcpy((char *)new_map[tab_id - 1], name);
 1227              		.loc 1 87 9 is_stmt 1 view .LVU335
  87:lvgl/src/extra/widgets/tabview/lv_tabview.c ****         strcpy((char *)new_map[tab_id - 1], name);
 1228              		.loc 1 87 44 is_stmt 0 view .LVU336
 1229 0066 4846     		mov	r0, r9
 1230 0068 FFF7FEFF 		bl	strlen
 1231              	.LVL170:
  87:lvgl/src/extra/widgets/tabview/lv_tabview.c ****         strcpy((char *)new_map[tab_id - 1], name);
 1232              		.loc 1 87 16 discriminator 1 view .LVU337
 1233 006c 6FF0404B 		mvn	fp, #-1073741824
 1234 0070 B344     		add	fp, fp, r6
  87:lvgl/src/extra/widgets/tabview/lv_tabview.c ****         strcpy((char *)new_map[tab_id - 1], name);
 1235              		.loc 1 87 31 discriminator 1 view .LVU338
 1236 0072 0130     		adds	r0, r0, #1
 1237 0074 FFF7FEFF 		bl	lv_mem_alloc
 1238              	.LVL171:
  87:lvgl/src/extra/widgets/tabview/lv_tabview.c ****         strcpy((char *)new_map[tab_id - 1], name);
 1239              		.loc 1 87 29 discriminator 2 view .LVU339
 1240 0078 45F82B00 		str	r0, [r5, fp, lsl #2]
  88:lvgl/src/extra/widgets/tabview/lv_tabview.c ****         new_map[tab_id] = "";
 1241              		.loc 1 88 9 is_stmt 1 view .LVU340
 1242 007c 4946     		mov	r1, r9
 1243 007e FFF7FEFF 		bl	strcpy
 1244              	.LVL172:
  89:lvgl/src/extra/widgets/tabview/lv_tabview.c ****     }
 1245              		.loc 1 89 9 view .LVU341
  89:lvgl/src/extra/widgets/tabview/lv_tabview.c ****     }
 1246              		.loc 1 89 25 is_stmt 0 view .LVU342
 1247 0082 2F4B     		ldr	r3, .L82
 1248 0084 45F82630 		str	r3, [r5, r6, lsl #2]
 1249              	.LVL173:
ARM GAS  C:\usertemp\ccWXrwmL.s 			page 46


 1250              	.L75:
 107:lvgl/src/extra/widgets/tabview/lv_tabview.c ****     lv_btnmatrix_set_map(btns, (const char **)new_map);
 1251              		.loc 1 107 5 is_stmt 1 view .LVU343
 107:lvgl/src/extra/widgets/tabview/lv_tabview.c ****     lv_btnmatrix_set_map(btns, (const char **)new_map);
 1252              		.loc 1 107 18 is_stmt 0 view .LVU344
 1253 0088 6562     		str	r5, [r4, #36]
 108:lvgl/src/extra/widgets/tabview/lv_tabview.c ****     lv_mem_free(old_map);
 1254              		.loc 1 108 5 is_stmt 1 view .LVU345
 1255 008a 2946     		mov	r1, r5
 1256 008c 3846     		mov	r0, r7
 1257 008e FFF7FEFF 		bl	lv_btnmatrix_set_map
 1258              	.LVL174:
 109:lvgl/src/extra/widgets/tabview/lv_tabview.c **** 
 1259              		.loc 1 109 5 view .LVU346
 1260 0092 5046     		mov	r0, r10
 1261 0094 FFF7FEFF 		bl	lv_mem_free
 1262              	.LVL175:
 111:lvgl/src/extra/widgets/tabview/lv_tabview.c ****                                   LV_BTNMATRIX_CTRL_NO_REPEAT);
 1263              		.loc 1 111 5 view .LVU347
 1264 0098 4FF4A871 		mov	r1, #336
 1265 009c 3846     		mov	r0, r7
 1266 009e FFF7FEFF 		bl	lv_btnmatrix_set_btn_ctrl_all
 1267              	.LVL176:
 114:lvgl/src/extra/widgets/tabview/lv_tabview.c ****     if(tabview->tab_cnt == 1) {
 1268              		.loc 1 114 5 view .LVU348
 114:lvgl/src/extra/widgets/tabview/lv_tabview.c ****     if(tabview->tab_cnt == 1) {
 1269              		.loc 1 114 12 is_stmt 0 view .LVU349
 1270 00a2 238D     		ldrh	r3, [r4, #40]
 114:lvgl/src/extra/widgets/tabview/lv_tabview.c ****     if(tabview->tab_cnt == 1) {
 1271              		.loc 1 114 21 view .LVU350
 1272 00a4 0133     		adds	r3, r3, #1
 1273 00a6 9BB2     		uxth	r3, r3
 1274 00a8 2385     		strh	r3, [r4, #40]	@ movhi
 115:lvgl/src/extra/widgets/tabview/lv_tabview.c ****         lv_tabview_set_act(obj, 0, LV_ANIM_OFF);
 1275              		.loc 1 115 5 is_stmt 1 view .LVU351
 115:lvgl/src/extra/widgets/tabview/lv_tabview.c ****         lv_tabview_set_act(obj, 0, LV_ANIM_OFF);
 1276              		.loc 1 115 7 is_stmt 0 view .LVU352
 1277 00aa 012B     		cmp	r3, #1
 1278 00ac 42D0     		beq	.L81
 1279              	.L79:
 119:lvgl/src/extra/widgets/tabview/lv_tabview.c **** 
 1280              		.loc 1 119 5 is_stmt 1 view .LVU353
 1281 00ae 8022     		movs	r2, #128
 1282 00b0 618D     		ldrh	r1, [r4, #42]
 1283 00b2 3846     		mov	r0, r7
 1284 00b4 FFF7FEFF 		bl	lv_btnmatrix_set_btn_ctrl
 1285              	.LVL177:
 121:lvgl/src/extra/widgets/tabview/lv_tabview.c **** }
 1286              		.loc 1 121 5 view .LVU354
 122:lvgl/src/extra/widgets/tabview/lv_tabview.c **** 
 1287              		.loc 1 122 1 is_stmt 0 view .LVU355
 1288 00b8 4046     		mov	r0, r8
 1289 00ba BDE8F88F 		pop	{r3, r4, r5, r6, r7, r8, r9, r10, fp, pc}
 1290              	.LVL178:
 1291              	.L72:
  93:lvgl/src/extra/widgets/tabview/lv_tabview.c ****         lv_memcpy_small(new_map, old_map, sizeof(const char *) * (tab_id - 1) * 2);
 1292              		.loc 1 93 9 is_stmt 1 view .LVU356
ARM GAS  C:\usertemp\ccWXrwmL.s 			page 47


  93:lvgl/src/extra/widgets/tabview/lv_tabview.c ****         lv_memcpy_small(new_map, old_map, sizeof(const char *) * (tab_id - 1) * 2);
 1293              		.loc 1 93 45 is_stmt 0 view .LVU357
 1294 00be 4FEAC60B 		lsl	fp, r6, #3
  93:lvgl/src/extra/widgets/tabview/lv_tabview.c ****         lv_memcpy_small(new_map, old_map, sizeof(const char *) * (tab_id - 1) * 2);
 1295              		.loc 1 93 19 view .LVU358
 1296 00c2 5846     		mov	r0, fp
 1297              	.LVL179:
  93:lvgl/src/extra/widgets/tabview/lv_tabview.c ****         lv_memcpy_small(new_map, old_map, sizeof(const char *) * (tab_id - 1) * 2);
 1298              		.loc 1 93 19 view .LVU359
 1299 00c4 FFF7FEFF 		bl	lv_mem_alloc
 1300              	.LVL180:
 1301 00c8 0546     		mov	r5, r0
 1302              	.LVL181:
  94:lvgl/src/extra/widgets/tabview/lv_tabview.c ****         if(tabview->tab_cnt == 0) {
 1303              		.loc 1 94 9 is_stmt 1 view .LVU360
  94:lvgl/src/extra/widgets/tabview/lv_tabview.c ****         if(tabview->tab_cnt == 0) {
 1304              		.loc 1 94 74 is_stmt 0 view .LVU361
 1305 00ca 731E     		subs	r3, r6, #1
  94:lvgl/src/extra/widgets/tabview/lv_tabview.c ****         if(tabview->tab_cnt == 0) {
 1306              		.loc 1 94 79 view .LVU362
 1307 00cc DB00     		lsls	r3, r3, #3
 1308              	.LVL182:
 1309              	.LBB25:
 1310              	.LBI25:
 194:D:/update_2024EL/changeform/743zit6/lvgl/src/misc\lv_mem.h **** {
 1311              		.loc 3 194 44 is_stmt 1 view .LVU363
 1312              	.LBB26:
 196:D:/update_2024EL/changeform/743zit6/lvgl/src/misc\lv_mem.h ****     const uint8_t * s8 = (const uint8_t *)src;
 1313              		.loc 3 196 5 view .LVU364
 197:D:/update_2024EL/changeform/743zit6/lvgl/src/misc\lv_mem.h **** 
 1314              		.loc 3 197 5 view .LVU365
 199:D:/update_2024EL/changeform/743zit6/lvgl/src/misc\lv_mem.h ****         *d8 = *s8;
 1315              		.loc 3 199 5 view .LVU366
 197:D:/update_2024EL/changeform/743zit6/lvgl/src/misc\lv_mem.h **** 
 1316              		.loc 3 197 21 is_stmt 0 view .LVU367
 1317 00ce 5146     		mov	r1, r10
 196:D:/update_2024EL/changeform/743zit6/lvgl/src/misc\lv_mem.h ****     const uint8_t * s8 = (const uint8_t *)src;
 1318              		.loc 3 196 15 view .LVU368
 1319 00d0 0246     		mov	r2, r0
 199:D:/update_2024EL/changeform/743zit6/lvgl/src/misc\lv_mem.h ****         *d8 = *s8;
 1320              		.loc 3 199 10 view .LVU369
 1321 00d2 04E0     		b	.L76
 1322              	.LVL183:
 1323              	.L77:
 200:D:/update_2024EL/changeform/743zit6/lvgl/src/misc\lv_mem.h ****         d8++;
 1324              		.loc 3 200 9 is_stmt 1 view .LVU370
 200:D:/update_2024EL/changeform/743zit6/lvgl/src/misc\lv_mem.h ****         d8++;
 1325              		.loc 3 200 15 is_stmt 0 view .LVU371
 1326 00d4 11F8010B 		ldrb	r0, [r1], #1	@ zero_extendqisi2
 1327              	.LVL184:
 200:D:/update_2024EL/changeform/743zit6/lvgl/src/misc\lv_mem.h ****         d8++;
 1328              		.loc 3 200 13 view .LVU372
 1329 00d8 02F8010B 		strb	r0, [r2], #1
 1330              	.LVL185:
 201:D:/update_2024EL/changeform/743zit6/lvgl/src/misc\lv_mem.h ****         s8++;
 1331              		.loc 3 201 9 is_stmt 1 view .LVU373
 202:D:/update_2024EL/changeform/743zit6/lvgl/src/misc\lv_mem.h ****         len--;
ARM GAS  C:\usertemp\ccWXrwmL.s 			page 48


 1332              		.loc 3 202 9 view .LVU374
 203:D:/update_2024EL/changeform/743zit6/lvgl/src/misc\lv_mem.h ****     }
 1333              		.loc 3 203 9 view .LVU375
 203:D:/update_2024EL/changeform/743zit6/lvgl/src/misc\lv_mem.h ****     }
 1334              		.loc 3 203 12 is_stmt 0 view .LVU376
 1335 00dc 013B     		subs	r3, r3, #1
 1336              	.LVL186:
 1337              	.L76:
 199:D:/update_2024EL/changeform/743zit6/lvgl/src/misc\lv_mem.h ****         *d8 = *s8;
 1338              		.loc 3 199 11 is_stmt 1 view .LVU377
 1339 00de 002B     		cmp	r3, #0
 1340 00e0 F8D1     		bne	.L77
 1341              		.loc 3 206 5 view .LVU378
 1342              	.LVL187:
 1343              		.loc 3 206 5 is_stmt 0 view .LVU379
 1344              	.LBE26:
 1345              	.LBE25:
  95:lvgl/src/extra/widgets/tabview/lv_tabview.c ****             new_map[0] = lv_mem_alloc(strlen(name) + 1);
 1346              		.loc 1 95 9 is_stmt 1 view .LVU380
  95:lvgl/src/extra/widgets/tabview/lv_tabview.c ****             new_map[0] = lv_mem_alloc(strlen(name) + 1);
 1347              		.loc 1 95 19 is_stmt 0 view .LVU381
 1348 00e2 238D     		ldrh	r3, [r4, #40]
  95:lvgl/src/extra/widgets/tabview/lv_tabview.c ****             new_map[0] = lv_mem_alloc(strlen(name) + 1);
 1349              		.loc 1 95 11 view .LVU382
 1350 00e4 63B9     		cbnz	r3, .L78
  96:lvgl/src/extra/widgets/tabview/lv_tabview.c ****             strcpy((char *)new_map[0], name);
 1351              		.loc 1 96 13 is_stmt 1 view .LVU383
  96:lvgl/src/extra/widgets/tabview/lv_tabview.c ****             strcpy((char *)new_map[0], name);
 1352              		.loc 1 96 39 is_stmt 0 view .LVU384
 1353 00e6 4846     		mov	r0, r9
 1354 00e8 FFF7FEFF 		bl	strlen
 1355              	.LVL188:
  96:lvgl/src/extra/widgets/tabview/lv_tabview.c ****             strcpy((char *)new_map[0], name);
 1356              		.loc 1 96 26 discriminator 1 view .LVU385
 1357 00ec 0130     		adds	r0, r0, #1
 1358 00ee FFF7FEFF 		bl	lv_mem_alloc
 1359              	.LVL189:
  96:lvgl/src/extra/widgets/tabview/lv_tabview.c ****             strcpy((char *)new_map[0], name);
 1360              		.loc 1 96 24 discriminator 2 view .LVU386
 1361 00f2 2860     		str	r0, [r5]
  97:lvgl/src/extra/widgets/tabview/lv_tabview.c ****             new_map[1] = "";
 1362              		.loc 1 97 13 is_stmt 1 view .LVU387
 1363 00f4 4946     		mov	r1, r9
 1364 00f6 FFF7FEFF 		bl	strcpy
 1365              	.LVL190:
  98:lvgl/src/extra/widgets/tabview/lv_tabview.c ****         }
 1366              		.loc 1 98 13 view .LVU388
  98:lvgl/src/extra/widgets/tabview/lv_tabview.c ****         }
 1367              		.loc 1 98 24 is_stmt 0 view .LVU389
 1368 00fa 114B     		ldr	r3, .L82
 1369 00fc 6B60     		str	r3, [r5, #4]
 1370 00fe C3E7     		b	.L75
 1371              	.L78:
 101:lvgl/src/extra/widgets/tabview/lv_tabview.c ****             new_map[tab_id * 2 - 2] = lv_mem_alloc(strlen(name) + 1);
 1372              		.loc 1 101 13 is_stmt 1 view .LVU390
 101:lvgl/src/extra/widgets/tabview/lv_tabview.c ****             new_map[tab_id * 2 - 2] = lv_mem_alloc(strlen(name) + 1);
 1373              		.loc 1 101 20 is_stmt 0 view .LVU391
ARM GAS  C:\usertemp\ccWXrwmL.s 			page 49


 1374 0100 ABF10C03 		sub	r3, fp, #12
 101:lvgl/src/extra/widgets/tabview/lv_tabview.c ****             new_map[tab_id * 2 - 2] = lv_mem_alloc(strlen(name) + 1);
 1375              		.loc 1 101 37 view .LVU392
 1376 0104 0F4A     		ldr	r2, .L82+4
 1377 0106 EA50     		str	r2, [r5, r3]
 102:lvgl/src/extra/widgets/tabview/lv_tabview.c ****             new_map[tab_id * 2 - 1] = "";
 1378              		.loc 1 102 13 is_stmt 1 view .LVU393
 102:lvgl/src/extra/widgets/tabview/lv_tabview.c ****             new_map[tab_id * 2 - 1] = "";
 1379              		.loc 1 102 52 is_stmt 0 view .LVU394
 1380 0108 4846     		mov	r0, r9
 1381 010a FFF7FEFF 		bl	strlen
 1382              	.LVL191:
 102:lvgl/src/extra/widgets/tabview/lv_tabview.c ****             new_map[tab_id * 2 - 1] = "";
 1383              		.loc 1 102 20 discriminator 1 view .LVU395
 1384 010e 6FF06043 		mvn	r3, #-536870912
 1385 0112 1E44     		add	r6, r6, r3
 1386              	.LVL192:
 102:lvgl/src/extra/widgets/tabview/lv_tabview.c ****             new_map[tab_id * 2 - 1] = "";
 1387              		.loc 1 102 39 discriminator 1 view .LVU396
 1388 0114 0130     		adds	r0, r0, #1
 1389 0116 FFF7FEFF 		bl	lv_mem_alloc
 1390              	.LVL193:
 102:lvgl/src/extra/widgets/tabview/lv_tabview.c ****             new_map[tab_id * 2 - 1] = "";
 1391              		.loc 1 102 37 discriminator 2 view .LVU397
 1392 011a 45F83600 		str	r0, [r5, r6, lsl #3]
 103:lvgl/src/extra/widgets/tabview/lv_tabview.c ****             strcpy((char *)new_map[(tab_id * 2) - 2], name);
 1393              		.loc 1 103 13 is_stmt 1 view .LVU398
 103:lvgl/src/extra/widgets/tabview/lv_tabview.c ****             strcpy((char *)new_map[(tab_id * 2) - 2], name);
 1394              		.loc 1 103 20 is_stmt 0 view .LVU399
 1395 011e ABF1040B 		sub	fp, fp, #4
 103:lvgl/src/extra/widgets/tabview/lv_tabview.c ****             strcpy((char *)new_map[(tab_id * 2) - 2], name);
 1396              		.loc 1 103 37 view .LVU400
 1397 0122 074B     		ldr	r3, .L82
 1398 0124 45F80B30 		str	r3, [r5, fp]
 104:lvgl/src/extra/widgets/tabview/lv_tabview.c ****         }
 1399              		.loc 1 104 13 is_stmt 1 view .LVU401
 1400 0128 4946     		mov	r1, r9
 1401 012a 55F83600 		ldr	r0, [r5, r6, lsl #3]
 1402 012e FFF7FEFF 		bl	strcpy
 1403              	.LVL194:
 1404 0132 A9E7     		b	.L75
 1405              	.LVL195:
 1406              	.L81:
 116:lvgl/src/extra/widgets/tabview/lv_tabview.c ****     }
 1407              		.loc 1 116 9 view .LVU402
 1408 0134 0022     		movs	r2, #0
 1409 0136 1146     		mov	r1, r2
 1410 0138 2046     		mov	r0, r4
 1411 013a FFF7FEFF 		bl	lv_tabview_set_act
 1412              	.LVL196:
 1413 013e B6E7     		b	.L79
 1414              	.L83:
 1415              		.align	2
 1416              	.L82:
 1417 0140 00000000 		.word	.LC0
 1418 0144 00000000 		.word	.LC1
 1419              		.cfi_endproc
ARM GAS  C:\usertemp\ccWXrwmL.s 			page 50


 1420              	.LFE197:
 1422              		.section	.bss.tabsize_create,"aw",%nobits
 1423              		.align	1
 1426              	tabsize_create:
 1427 0000 0000     		.space	2
 1428              		.section	.bss.tabpos_create,"aw",%nobits
 1431              	tabpos_create:
 1432 0000 00       		.space	1
 1433              		.global	lv_tabview_class
 1434              		.section	.rodata.lv_tabview_class,"a"
 1435              		.align	2
 1438              	lv_tabview_class:
 1439 0000 00000000 		.word	lv_obj_class
 1440 0004 00000000 		.word	lv_tabview_constructor
 1441 0008 00000000 		.word	lv_tabview_destructor
 1442 000c 00000000 		.space	4
 1443 0010 00000000 		.word	lv_tabview_event
 1444 0014 6420     		.short	8292
 1445 0016 6420     		.short	8292
 1446 0018 00       		.byte	0
 1447 0019 03       		.byte	3
 1448 001a 00       		.byte	0
 1449 001b 00       		.space	1
 1450              		.text
 1451              	.Letext0:
 1452              		.file 4 "D:/armtoolchain/arm-gnu-toolchain-13.3.rel1-mingw-w64-i686-arm-none-eabi/arm-none-eabi/in
 1453              		.file 5 "D:/armtoolchain/arm-gnu-toolchain-13.3.rel1-mingw-w64-i686-arm-none-eabi/arm-none-eabi/in
 1454              		.file 6 "D:/update_2024EL/changeform/743zit6/lvgl/src/misc/lv_types.h"
 1455              		.file 7 "D:/armtoolchain/arm-gnu-toolchain-13.3.rel1-mingw-w64-i686-arm-none-eabi/lib/gcc/arm-none
 1456              		.file 8 "D:/update_2024EL/changeform/743zit6/lvgl/src/misc/lv_area.h"
 1457              		.file 9 "D:/update_2024EL/changeform/743zit6/lvgl/src/misc/lv_color.h"
 1458              		.file 10 "D:/update_2024EL/changeform/743zit6/lvgl/src/misc/lv_anim.h"
 1459              		.file 11 "D:/update_2024EL/changeform/743zit6/lvgl/src/misc/lv_bidi.h"
 1460              		.file 12 "D:/update_2024EL/changeform/743zit6/lvgl/src/misc/lv_style.h"
 1461              		.file 13 "D:/update_2024EL/changeform/743zit6/lvgl/src/core/lv_obj.h"
 1462              		.file 14 "D:/update_2024EL/changeform/743zit6/lvgl/src/misc/lv_ll.h"
 1463              		.file 15 "D:/update_2024EL/changeform/743zit6/lvgl/src/core/lv_group.h"
 1464              		.file 16 "D:/update_2024EL/changeform/743zit6/lvgl/src/core/lv_obj_scroll.h"
 1465              		.file 17 "D:/update_2024EL/changeform/743zit6/lvgl/src/core/lv_obj_style.h"
 1466              		.file 18 "D:/update_2024EL/changeform/743zit6/lvgl/src/core/lv_obj_class.h"
 1467              		.file 19 "D:/update_2024EL/changeform/743zit6/lvgl/src/core/lv_event.h"
 1468              		.file 20 "D:/update_2024EL/changeform/743zit6/lvgl/src/widgets/lv_bar.h"
 1469              		.file 21 "D:/update_2024EL/changeform/743zit6/lvgl/src/widgets/lv_btnmatrix.h"
 1470              		.file 22 "D:/update_2024EL/changeform/743zit6/lvgl/src/extra/layouts/flex/lv_flex.h"
 1471              		.file 23 "D:/update_2024EL/changeform/743zit6/lvgl/src/extra/widgets/imgbtn/lv_imgbtn.h"
 1472              		.file 24 "lvgl/src/extra/widgets/tabview/lv_tabview.h"
 1473              		.file 25 "D:/update_2024EL/changeform/743zit6/lvgl/src/core/lv_obj_pos.h"
 1474              		.file 26 "D:/update_2024EL/changeform/743zit6/lvgl/src/core/lv_obj_tree.h"
 1475              		.file 27 "D:/armtoolchain/arm-gnu-toolchain-13.3.rel1-mingw-w64-i686-arm-none-eabi/arm-none-eabi/i
ARM GAS  C:\usertemp\ccWXrwmL.s 			page 51

