ARM GAS  C:\usertemp\ccH8TmFP.s 			page 1


   1              		.cpu cortex-m7
   2              		.arch armv7e-m
   3              		.fpu fpv5-d16
   4              		.eabi_attribute 28, 1
   5              		.eabi_attribute 20, 1
   6              		.eabi_attribute 21, 1
   7              		.eabi_attribute 23, 3
   8              		.eabi_attribute 24, 1
   9              		.eabi_attribute 25, 1
  10              		.eabi_attribute 26, 1
  11              		.eabi_attribute 30, 1
  12              		.eabi_attribute 34, 1
  13              		.eabi_attribute 18, 4
  14              		.file	"lwip.c"
  15              		.text
  16              	.Ltext0:
  17              		.cfi_sections	.debug_frame
  18              		.file 1 "LWIP/App/lwip.c"
  19              		.section	.text.ethernet_link_status_updated,"ax",%progbits
  20              		.align	1
  21              		.syntax unified
  22              		.thumb
  23              		.thumb_func
  25              	ethernet_link_status_updated:
  26              	.LVL0:
  27              	.LFB365:
   1:LWIP/App/lwip.c **** /**
   2:LWIP/App/lwip.c ****  ******************************************************************************
   3:LWIP/App/lwip.c ****   * File Name          : LWIP.c
   4:LWIP/App/lwip.c ****   * Description        : This file provides initialization code for LWIP
   5:LWIP/App/lwip.c ****   *                      middleWare.
   6:LWIP/App/lwip.c ****   ******************************************************************************
   7:LWIP/App/lwip.c ****   * @attention
   8:LWIP/App/lwip.c ****   *
   9:LWIP/App/lwip.c ****   * <h2><center>&copy; Copyright (c) 2025 STMicroelectronics.
  10:LWIP/App/lwip.c ****   * All rights reserved.</center></h2>
  11:LWIP/App/lwip.c ****   *
  12:LWIP/App/lwip.c ****   * This software component is licensed by ST under Ultimate Liberty license
  13:LWIP/App/lwip.c ****   * SLA0044, the "License"; You may not use this file except in compliance with
  14:LWIP/App/lwip.c ****   * the License. You may obtain a copy of the License at:
  15:LWIP/App/lwip.c ****   *                             www.st.com/SLA0044
  16:LWIP/App/lwip.c ****   *
  17:LWIP/App/lwip.c ****   ******************************************************************************
  18:LWIP/App/lwip.c ****   */
  19:LWIP/App/lwip.c **** 
  20:LWIP/App/lwip.c **** /* Includes ------------------------------------------------------------------*/
  21:LWIP/App/lwip.c **** #include "lwip.h"
  22:LWIP/App/lwip.c **** #include "lwip/init.h"
  23:LWIP/App/lwip.c **** #include "lwip/netif.h"
  24:LWIP/App/lwip.c **** #if defined ( __CC_ARM )  /* MDK ARM Compiler */
  25:LWIP/App/lwip.c **** #include "lwip/sio.h"
  26:LWIP/App/lwip.c **** #endif /* MDK ARM Compiler */
  27:LWIP/App/lwip.c **** #include "ethernetif.h"
  28:LWIP/App/lwip.c **** 
  29:LWIP/App/lwip.c **** /* USER CODE BEGIN 0 */
  30:LWIP/App/lwip.c **** 
  31:LWIP/App/lwip.c **** /* USER CODE END 0 */
ARM GAS  C:\usertemp\ccH8TmFP.s 			page 2


  32:LWIP/App/lwip.c **** /* Private function prototypes -----------------------------------------------*/
  33:LWIP/App/lwip.c **** static void ethernet_link_status_updated(struct netif *netif);
  34:LWIP/App/lwip.c **** /* ETH Variables initialization ----------------------------------------------*/
  35:LWIP/App/lwip.c **** void Error_Handler(void);
  36:LWIP/App/lwip.c **** 
  37:LWIP/App/lwip.c **** /* USER CODE BEGIN 1 */
  38:LWIP/App/lwip.c **** 
  39:LWIP/App/lwip.c **** /* USER CODE END 1 */
  40:LWIP/App/lwip.c **** 
  41:LWIP/App/lwip.c **** /* Variables Initialization */
  42:LWIP/App/lwip.c **** struct netif gnetif;
  43:LWIP/App/lwip.c **** ip4_addr_t ipaddr;
  44:LWIP/App/lwip.c **** ip4_addr_t netmask;
  45:LWIP/App/lwip.c **** ip4_addr_t gw;
  46:LWIP/App/lwip.c **** uint8_t IP_ADDRESS[4];
  47:LWIP/App/lwip.c **** uint8_t NETMASK_ADDRESS[4];
  48:LWIP/App/lwip.c **** uint8_t GATEWAY_ADDRESS[4];
  49:LWIP/App/lwip.c **** 
  50:LWIP/App/lwip.c **** /* USER CODE BEGIN 2 */
  51:LWIP/App/lwip.c **** 
  52:LWIP/App/lwip.c **** /* USER CODE END 2 */
  53:LWIP/App/lwip.c **** 
  54:LWIP/App/lwip.c **** /**
  55:LWIP/App/lwip.c ****   * LwIP initialization function
  56:LWIP/App/lwip.c ****   */
  57:LWIP/App/lwip.c **** void MX_LWIP_Init(void)
  58:LWIP/App/lwip.c **** {
  59:LWIP/App/lwip.c ****   /* IP addresses initialization */
  60:LWIP/App/lwip.c ****   IP_ADDRESS[0] = 59;
  61:LWIP/App/lwip.c ****   IP_ADDRESS[1] = 67;
  62:LWIP/App/lwip.c ****   IP_ADDRESS[2] = 235;
  63:LWIP/App/lwip.c ****   IP_ADDRESS[3] = 208;
  64:LWIP/App/lwip.c ****   NETMASK_ADDRESS[0] = 255;
  65:LWIP/App/lwip.c ****   NETMASK_ADDRESS[1] = 255;
  66:LWIP/App/lwip.c ****   NETMASK_ADDRESS[2] = 255;
  67:LWIP/App/lwip.c ****   NETMASK_ADDRESS[3] = 0;
  68:LWIP/App/lwip.c ****   GATEWAY_ADDRESS[0] = 59;
  69:LWIP/App/lwip.c ****   GATEWAY_ADDRESS[1] = 67;
  70:LWIP/App/lwip.c ****   GATEWAY_ADDRESS[2] = 235;
  71:LWIP/App/lwip.c ****   GATEWAY_ADDRESS[3] = 129;
  72:LWIP/App/lwip.c **** 
  73:LWIP/App/lwip.c **** /* USER CODE BEGIN IP_ADDRESSES */
  74:LWIP/App/lwip.c **** /* USER CODE END IP_ADDRESSES */
  75:LWIP/App/lwip.c **** 
  76:LWIP/App/lwip.c ****   /* Initilialize the LwIP stack with RTOS */
  77:LWIP/App/lwip.c ****   tcpip_init( NULL, NULL );
  78:LWIP/App/lwip.c **** 
  79:LWIP/App/lwip.c ****   /* IP addresses initialization without DHCP (IPv4) */
  80:LWIP/App/lwip.c ****   IP4_ADDR(&ipaddr, IP_ADDRESS[0], IP_ADDRESS[1], IP_ADDRESS[2], IP_ADDRESS[3]);
  81:LWIP/App/lwip.c ****   IP4_ADDR(&netmask, NETMASK_ADDRESS[0], NETMASK_ADDRESS[1] , NETMASK_ADDRESS[2], NETMASK_ADDRESS[3
  82:LWIP/App/lwip.c ****   IP4_ADDR(&gw, GATEWAY_ADDRESS[0], GATEWAY_ADDRESS[1], GATEWAY_ADDRESS[2], GATEWAY_ADDRESS[3]);
  83:LWIP/App/lwip.c **** 
  84:LWIP/App/lwip.c ****   /* add the network interface (IPv4/IPv6) with RTOS */
  85:LWIP/App/lwip.c ****   netif_add(&gnetif, &ipaddr, &netmask, &gw, NULL, &ethernetif_init, &tcpip_input);
  86:LWIP/App/lwip.c **** 
  87:LWIP/App/lwip.c ****   /* Registers the default network interface */
  88:LWIP/App/lwip.c ****   netif_set_default(&gnetif);
ARM GAS  C:\usertemp\ccH8TmFP.s 			page 3


  89:LWIP/App/lwip.c **** 
  90:LWIP/App/lwip.c ****   if (netif_is_link_up(&gnetif))
  91:LWIP/App/lwip.c ****   {
  92:LWIP/App/lwip.c ****     /* When the netif is fully configured this function must be called */
  93:LWIP/App/lwip.c ****     netif_set_up(&gnetif);
  94:LWIP/App/lwip.c ****   }
  95:LWIP/App/lwip.c ****   else
  96:LWIP/App/lwip.c ****   {
  97:LWIP/App/lwip.c ****     /* When the netif link is down this function must be called */
  98:LWIP/App/lwip.c ****     netif_set_down(&gnetif);
  99:LWIP/App/lwip.c ****   }
 100:LWIP/App/lwip.c **** 
 101:LWIP/App/lwip.c ****   /* Set the link callback function, this function is called on change of link status*/
 102:LWIP/App/lwip.c ****   netif_set_link_callback(&gnetif, ethernet_link_status_updated);
 103:LWIP/App/lwip.c **** 
 104:LWIP/App/lwip.c ****   /* Create the Ethernet link handler thread */
 105:LWIP/App/lwip.c **** /* USER CODE BEGIN H7_OS_THREAD_DEF_CREATE_CMSIS_RTOS_V1 */
 106:LWIP/App/lwip.c ****   osThreadDef(EthLink, ethernet_link_thread, osPriorityBelowNormal, 0, configMINIMAL_STACK_SIZE *2)
 107:LWIP/App/lwip.c ****   osThreadCreate (osThread(EthLink), &gnetif);
 108:LWIP/App/lwip.c **** /* USER CODE END H7_OS_THREAD_DEF_CREATE_CMSIS_RTOS_V1 */
 109:LWIP/App/lwip.c **** 
 110:LWIP/App/lwip.c **** /* USER CODE BEGIN 3 */
 111:LWIP/App/lwip.c **** 
 112:LWIP/App/lwip.c **** /* USER CODE END 3 */
 113:LWIP/App/lwip.c **** }
 114:LWIP/App/lwip.c **** 
 115:LWIP/App/lwip.c **** #ifdef USE_OBSOLETE_USER_CODE_SECTION_4
 116:LWIP/App/lwip.c **** /* Kept to help code migration. (See new 4_1, 4_2... sections) */
 117:LWIP/App/lwip.c **** /* Avoid to use this user section which will become obsolete. */
 118:LWIP/App/lwip.c **** /* USER CODE BEGIN 4 */
 119:LWIP/App/lwip.c **** /* USER CODE END 4 */
 120:LWIP/App/lwip.c **** #endif
 121:LWIP/App/lwip.c **** 
 122:LWIP/App/lwip.c **** /**
 123:LWIP/App/lwip.c ****   * @brief  Notify the User about the network interface config status
 124:LWIP/App/lwip.c ****   * @param  netif: the network interface
 125:LWIP/App/lwip.c ****   * @retval None
 126:LWIP/App/lwip.c ****   */
 127:LWIP/App/lwip.c **** static void ethernet_link_status_updated(struct netif *netif)
 128:LWIP/App/lwip.c **** {
  28              		.loc 1 128 1 view -0
  29              		.cfi_startproc
  30              		@ args = 0, pretend = 0, frame = 0
  31              		@ frame_needed = 0, uses_anonymous_args = 0
  32              		@ link register save eliminated.
 129:LWIP/App/lwip.c ****   if (netif_is_up(netif))
  33              		.loc 1 129 3 view .LVU1
 130:LWIP/App/lwip.c ****   {
 131:LWIP/App/lwip.c **** /* USER CODE BEGIN 5 */
 132:LWIP/App/lwip.c **** /* USER CODE END 5 */
 133:LWIP/App/lwip.c ****   }
  34              		.loc 1 133 3 view .LVU2
 134:LWIP/App/lwip.c ****   else /* netif is down */
 135:LWIP/App/lwip.c ****   {
 136:LWIP/App/lwip.c **** /* USER CODE BEGIN 6 */
 137:LWIP/App/lwip.c **** /* USER CODE END 6 */
 138:LWIP/App/lwip.c ****   }
ARM GAS  C:\usertemp\ccH8TmFP.s 			page 4


  35              		.loc 1 138 3 view .LVU3
 139:LWIP/App/lwip.c **** }
  36              		.loc 1 139 1 is_stmt 0 view .LVU4
  37 0000 7047     		bx	lr
  38              		.cfi_endproc
  39              	.LFE365:
  41              		.section	.text.MX_LWIP_Init,"ax",%progbits
  42              		.align	1
  43              		.global	MX_LWIP_Init
  44              		.syntax unified
  45              		.thumb
  46              		.thumb_func
  48              	MX_LWIP_Init:
  49              	.LFB364:
  58:LWIP/App/lwip.c ****   /* IP addresses initialization */
  50              		.loc 1 58 1 is_stmt 1 view -0
  51              		.cfi_startproc
  52              		@ args = 0, pretend = 0, frame = 32
  53              		@ frame_needed = 0, uses_anonymous_args = 0
  54 0000 F0B5     		push	{r4, r5, r6, r7, lr}
  55              	.LCFI0:
  56              		.cfi_def_cfa_offset 20
  57              		.cfi_offset 4, -20
  58              		.cfi_offset 5, -16
  59              		.cfi_offset 6, -12
  60              		.cfi_offset 7, -8
  61              		.cfi_offset 14, -4
  62 0002 8DB0     		sub	sp, sp, #52
  63              	.LCFI1:
  64              		.cfi_def_cfa_offset 72
  60:LWIP/App/lwip.c ****   IP_ADDRESS[1] = 67;
  65              		.loc 1 60 3 view .LVU6
  60:LWIP/App/lwip.c ****   IP_ADDRESS[1] = 67;
  66              		.loc 1 60 17 is_stmt 0 view .LVU7
  67 0004 444F     		ldr	r7, .L6
  68 0006 3B20     		movs	r0, #59
  69 0008 3870     		strb	r0, [r7]
  61:LWIP/App/lwip.c ****   IP_ADDRESS[2] = 235;
  70              		.loc 1 61 3 is_stmt 1 view .LVU8
  61:LWIP/App/lwip.c ****   IP_ADDRESS[2] = 235;
  71              		.loc 1 61 17 is_stmt 0 view .LVU9
  72 000a 4321     		movs	r1, #67
  73 000c 7970     		strb	r1, [r7, #1]
  62:LWIP/App/lwip.c ****   IP_ADDRESS[3] = 208;
  74              		.loc 1 62 3 is_stmt 1 view .LVU10
  62:LWIP/App/lwip.c ****   IP_ADDRESS[3] = 208;
  75              		.loc 1 62 17 is_stmt 0 view .LVU11
  76 000e EB22     		movs	r2, #235
  77 0010 BA70     		strb	r2, [r7, #2]
  63:LWIP/App/lwip.c ****   NETMASK_ADDRESS[0] = 255;
  78              		.loc 1 63 3 is_stmt 1 view .LVU12
  63:LWIP/App/lwip.c ****   NETMASK_ADDRESS[0] = 255;
  79              		.loc 1 63 17 is_stmt 0 view .LVU13
  80 0012 D023     		movs	r3, #208
  81 0014 FB70     		strb	r3, [r7, #3]
  64:LWIP/App/lwip.c ****   NETMASK_ADDRESS[1] = 255;
  82              		.loc 1 64 3 is_stmt 1 view .LVU14
ARM GAS  C:\usertemp\ccH8TmFP.s 			page 5


  64:LWIP/App/lwip.c ****   NETMASK_ADDRESS[1] = 255;
  83              		.loc 1 64 22 is_stmt 0 view .LVU15
  84 0016 414E     		ldr	r6, .L6+4
  85 0018 FF23     		movs	r3, #255
  86 001a 3370     		strb	r3, [r6]
  65:LWIP/App/lwip.c ****   NETMASK_ADDRESS[2] = 255;
  87              		.loc 1 65 3 is_stmt 1 view .LVU16
  65:LWIP/App/lwip.c ****   NETMASK_ADDRESS[2] = 255;
  88              		.loc 1 65 22 is_stmt 0 view .LVU17
  89 001c 7370     		strb	r3, [r6, #1]
  66:LWIP/App/lwip.c ****   NETMASK_ADDRESS[3] = 0;
  90              		.loc 1 66 3 is_stmt 1 view .LVU18
  66:LWIP/App/lwip.c ****   NETMASK_ADDRESS[3] = 0;
  91              		.loc 1 66 22 is_stmt 0 view .LVU19
  92 001e B370     		strb	r3, [r6, #2]
  67:LWIP/App/lwip.c ****   GATEWAY_ADDRESS[0] = 59;
  93              		.loc 1 67 3 is_stmt 1 view .LVU20
  67:LWIP/App/lwip.c ****   GATEWAY_ADDRESS[0] = 59;
  94              		.loc 1 67 22 is_stmt 0 view .LVU21
  95 0020 0024     		movs	r4, #0
  96 0022 F470     		strb	r4, [r6, #3]
  68:LWIP/App/lwip.c ****   GATEWAY_ADDRESS[1] = 67;
  97              		.loc 1 68 3 is_stmt 1 view .LVU22
  68:LWIP/App/lwip.c ****   GATEWAY_ADDRESS[1] = 67;
  98              		.loc 1 68 22 is_stmt 0 view .LVU23
  99 0024 3E4D     		ldr	r5, .L6+8
 100 0026 2870     		strb	r0, [r5]
  69:LWIP/App/lwip.c ****   GATEWAY_ADDRESS[2] = 235;
 101              		.loc 1 69 3 is_stmt 1 view .LVU24
  69:LWIP/App/lwip.c ****   GATEWAY_ADDRESS[2] = 235;
 102              		.loc 1 69 22 is_stmt 0 view .LVU25
 103 0028 6970     		strb	r1, [r5, #1]
  70:LWIP/App/lwip.c ****   GATEWAY_ADDRESS[3] = 129;
 104              		.loc 1 70 3 is_stmt 1 view .LVU26
  70:LWIP/App/lwip.c ****   GATEWAY_ADDRESS[3] = 129;
 105              		.loc 1 70 22 is_stmt 0 view .LVU27
 106 002a AA70     		strb	r2, [r5, #2]
  71:LWIP/App/lwip.c **** 
 107              		.loc 1 71 3 is_stmt 1 view .LVU28
  71:LWIP/App/lwip.c **** 
 108              		.loc 1 71 22 is_stmt 0 view .LVU29
 109 002c 8123     		movs	r3, #129
 110 002e EB70     		strb	r3, [r5, #3]
  77:LWIP/App/lwip.c **** 
 111              		.loc 1 77 3 is_stmt 1 view .LVU30
 112 0030 2146     		mov	r1, r4
 113 0032 2046     		mov	r0, r4
 114 0034 FFF7FEFF 		bl	tcpip_init
 115              	.LVL1:
  80:LWIP/App/lwip.c ****   IP4_ADDR(&netmask, NETMASK_ADDRESS[0], NETMASK_ADDRESS[1] , NETMASK_ADDRESS[2], NETMASK_ADDRESS[3
 116              		.loc 1 80 3 view .LVU31
 117 0038 3A78     		ldrb	r2, [r7]	@ zero_extendqisi2
 118 003a 7B78     		ldrb	r3, [r7, #1]	@ zero_extendqisi2
 119 003c 1B04     		lsls	r3, r3, #16
 120 003e 43EA0263 		orr	r3, r3, r2, lsl #24
 121 0042 BA78     		ldrb	r2, [r7, #2]	@ zero_extendqisi2
 122 0044 43EA0223 		orr	r3, r3, r2, lsl #8
ARM GAS  C:\usertemp\ccH8TmFP.s 			page 6


 123 0048 F978     		ldrb	r1, [r7, #3]	@ zero_extendqisi2
 124 004a 0B43     		orrs	r3, r3, r1
 125 004c 1A02     		lsls	r2, r3, #8
 126 004e 02F47F02 		and	r2, r2, #16711680
 127 0052 42EA0162 		orr	r2, r2, r1, lsl #24
 128 0056 190A     		lsrs	r1, r3, #8
 129 0058 01F47F41 		and	r1, r1, #65280
 130 005c 0A43     		orrs	r2, r2, r1
 131 005e 42EA1363 		orr	r3, r2, r3, lsr #24
 132 0062 3049     		ldr	r1, .L6+12
 133 0064 0B60     		str	r3, [r1]
  81:LWIP/App/lwip.c ****   IP4_ADDR(&gw, GATEWAY_ADDRESS[0], GATEWAY_ADDRESS[1], GATEWAY_ADDRESS[2], GATEWAY_ADDRESS[3]);
 134              		.loc 1 81 3 view .LVU32
 135 0066 3278     		ldrb	r2, [r6]	@ zero_extendqisi2
 136 0068 7378     		ldrb	r3, [r6, #1]	@ zero_extendqisi2
 137 006a 1B04     		lsls	r3, r3, #16
 138 006c 43EA0263 		orr	r3, r3, r2, lsl #24
 139 0070 B278     		ldrb	r2, [r6, #2]	@ zero_extendqisi2
 140 0072 43EA0223 		orr	r3, r3, r2, lsl #8
 141 0076 F078     		ldrb	r0, [r6, #3]	@ zero_extendqisi2
 142 0078 0343     		orrs	r3, r3, r0
 143 007a 1A02     		lsls	r2, r3, #8
 144 007c 02F47F02 		and	r2, r2, #16711680
 145 0080 42EA0062 		orr	r2, r2, r0, lsl #24
 146 0084 180A     		lsrs	r0, r3, #8
 147 0086 00F47F40 		and	r0, r0, #65280
 148 008a 0243     		orrs	r2, r2, r0
 149 008c 42EA1363 		orr	r3, r2, r3, lsr #24
 150 0090 254A     		ldr	r2, .L6+16
 151 0092 1360     		str	r3, [r2]
  82:LWIP/App/lwip.c **** 
 152              		.loc 1 82 3 view .LVU33
 153 0094 2878     		ldrb	r0, [r5]	@ zero_extendqisi2
 154 0096 6B78     		ldrb	r3, [r5, #1]	@ zero_extendqisi2
 155 0098 1B04     		lsls	r3, r3, #16
 156 009a 43EA0063 		orr	r3, r3, r0, lsl #24
 157 009e A878     		ldrb	r0, [r5, #2]	@ zero_extendqisi2
 158 00a0 43EA0023 		orr	r3, r3, r0, lsl #8
 159 00a4 ED78     		ldrb	r5, [r5, #3]	@ zero_extendqisi2
 160 00a6 2B43     		orrs	r3, r3, r5
 161 00a8 1802     		lsls	r0, r3, #8
 162 00aa 00F47F00 		and	r0, r0, #16711680
 163 00ae 40EA0560 		orr	r0, r0, r5, lsl #24
 164 00b2 1D0A     		lsrs	r5, r3, #8
 165 00b4 05F47F45 		and	r5, r5, #65280
 166 00b8 2843     		orrs	r0, r0, r5
 167 00ba 40EA1360 		orr	r0, r0, r3, lsr #24
 168 00be 1B4B     		ldr	r3, .L6+20
 169 00c0 1860     		str	r0, [r3]
  85:LWIP/App/lwip.c **** 
 170              		.loc 1 85 3 view .LVU34
 171 00c2 1B4D     		ldr	r5, .L6+24
 172 00c4 1B48     		ldr	r0, .L6+28
 173 00c6 0290     		str	r0, [sp, #8]
 174 00c8 1B48     		ldr	r0, .L6+32
 175 00ca 0190     		str	r0, [sp, #4]
 176 00cc 0094     		str	r4, [sp]
ARM GAS  C:\usertemp\ccH8TmFP.s 			page 7


 177 00ce 2846     		mov	r0, r5
 178 00d0 FFF7FEFF 		bl	netif_add
 179              	.LVL2:
  88:LWIP/App/lwip.c **** 
 180              		.loc 1 88 3 view .LVU35
 181 00d4 2846     		mov	r0, r5
 182 00d6 FFF7FEFF 		bl	netif_set_default
 183              	.LVL3:
  90:LWIP/App/lwip.c ****   {
 184              		.loc 1 90 3 view .LVU36
  90:LWIP/App/lwip.c ****   {
 185              		.loc 1 90 7 is_stmt 0 view .LVU37
 186 00da 95F82D30 		ldrb	r3, [r5, #45]	@ zero_extendqisi2
  90:LWIP/App/lwip.c ****   {
 187              		.loc 1 90 6 view .LVU38
 188 00de 13F0040F 		tst	r3, #4
 189 00e2 15D0     		beq	.L3
  93:LWIP/App/lwip.c ****   }
 190              		.loc 1 93 5 is_stmt 1 view .LVU39
 191 00e4 2846     		mov	r0, r5
 192 00e6 FFF7FEFF 		bl	netif_set_up
 193              	.LVL4:
 194              	.L4:
 102:LWIP/App/lwip.c **** 
 195              		.loc 1 102 3 view .LVU40
 196 00ea 114E     		ldr	r6, .L6+24
 197 00ec 1349     		ldr	r1, .L6+36
 198 00ee 3046     		mov	r0, r6
 199 00f0 FFF7FEFF 		bl	netif_set_link_callback
 200              	.LVL5:
 106:LWIP/App/lwip.c ****   osThreadCreate (osThread(EthLink), &gnetif);
 201              		.loc 1 106 3 view .LVU41
 202 00f4 05AC     		add	r4, sp, #20
 203 00f6 124D     		ldr	r5, .L6+40
 204 00f8 0FCD     		ldmia	r5!, {r0, r1, r2, r3}
 205 00fa 0FC4     		stmia	r4!, {r0, r1, r2, r3}
 206 00fc 95E80700 		ldm	r5, {r0, r1, r2}
 207 0100 84E80700 		stm	r4, {r0, r1, r2}
 107:LWIP/App/lwip.c **** /* USER CODE END H7_OS_THREAD_DEF_CREATE_CMSIS_RTOS_V1 */
 208              		.loc 1 107 3 view .LVU42
 209 0104 3146     		mov	r1, r6
 210 0106 05A8     		add	r0, sp, #20
 211 0108 FFF7FEFF 		bl	osThreadCreate
 212              	.LVL6:
 113:LWIP/App/lwip.c **** 
 213              		.loc 1 113 1 is_stmt 0 view .LVU43
 214 010c 0DB0     		add	sp, sp, #52
 215              	.LCFI2:
 216              		.cfi_remember_state
 217              		.cfi_def_cfa_offset 20
 218              		@ sp needed
 219 010e F0BD     		pop	{r4, r5, r6, r7, pc}
 220              	.L3:
 221              	.LCFI3:
 222              		.cfi_restore_state
  98:LWIP/App/lwip.c ****   }
 223              		.loc 1 98 5 is_stmt 1 view .LVU44
ARM GAS  C:\usertemp\ccH8TmFP.s 			page 8


 224 0110 0748     		ldr	r0, .L6+24
 225 0112 FFF7FEFF 		bl	netif_set_down
 226              	.LVL7:
 227 0116 E8E7     		b	.L4
 228              	.L7:
 229              		.align	2
 230              	.L6:
 231 0118 00000000 		.word	IP_ADDRESS
 232 011c 00000000 		.word	NETMASK_ADDRESS
 233 0120 00000000 		.word	GATEWAY_ADDRESS
 234 0124 00000000 		.word	ipaddr
 235 0128 00000000 		.word	netmask
 236 012c 00000000 		.word	gw
 237 0130 00000000 		.word	gnetif
 238 0134 00000000 		.word	tcpip_input
 239 0138 00000000 		.word	ethernetif_init
 240 013c 00000000 		.word	ethernet_link_status_updated
 241 0140 00000000 		.word	.LANCHOR0
 242              		.cfi_endproc
 243              	.LFE364:
 245              		.section	.rodata.str1.4,"aMS",%progbits,1
 246              		.align	2
 247              	.LC0:
 248 0000 4574684C 		.ascii	"EthLink\000"
 248      696E6B00 
 249              		.global	GATEWAY_ADDRESS
 250              		.section	.bss.GATEWAY_ADDRESS,"aw",%nobits
 251              		.align	2
 254              	GATEWAY_ADDRESS:
 255 0000 00000000 		.space	4
 256              		.global	NETMASK_ADDRESS
 257              		.section	.bss.NETMASK_ADDRESS,"aw",%nobits
 258              		.align	2
 261              	NETMASK_ADDRESS:
 262 0000 00000000 		.space	4
 263              		.global	IP_ADDRESS
 264              		.section	.bss.IP_ADDRESS,"aw",%nobits
 265              		.align	2
 268              	IP_ADDRESS:
 269 0000 00000000 		.space	4
 270              		.global	gw
 271              		.section	.bss.gw,"aw",%nobits
 272              		.align	2
 275              	gw:
 276 0000 00000000 		.space	4
 277              		.global	netmask
 278              		.section	.bss.netmask,"aw",%nobits
 279              		.align	2
 282              	netmask:
 283 0000 00000000 		.space	4
 284              		.global	ipaddr
 285              		.section	.bss.ipaddr,"aw",%nobits
 286              		.align	2
 289              	ipaddr:
 290 0000 00000000 		.space	4
 291              		.global	gnetif
 292              		.section	.bss.gnetif,"aw",%nobits
ARM GAS  C:\usertemp\ccH8TmFP.s 			page 9


 293              		.align	2
 296              	gnetif:
 297 0000 00000000 		.space	52
 297      00000000 
 297      00000000 
 297      00000000 
 297      00000000 
 298              		.section	.rodata
 299              		.align	2
 300              		.set	.LANCHOR0,. + 0
 301              	.LC2:
 302 0000 00000000 		.word	.LC0
 303 0004 00000000 		.word	ethernet_link_thread
 304 0008 FFFF     		.short	-1
 305 000a 0000     		.space	2
 306 000c 00000000 		.word	0
 307 0010 00010000 		.word	256
 308 0014 00000000 		.word	0
 309 0018 00000000 		.word	0
 310              		.text
 311              	.Letext0:
 312              		.file 2 "D:/armtoolchain/arm-gnu-toolchain-13.3.rel1-mingw-w64-i686-arm-none-eabi/arm-none-eabi/in
 313              		.file 3 "D:/armtoolchain/arm-gnu-toolchain-13.3.rel1-mingw-w64-i686-arm-none-eabi/arm-none-eabi/in
 314              		.file 4 "Middlewares/Third_Party/LwIP/src/include/lwip/arch.h"
 315              		.file 5 "Middlewares/Third_Party/LwIP/src/include/lwip/err.h"
 316              		.file 6 "Middlewares/Third_Party/LwIP/src/include/lwip/pbuf.h"
 317              		.file 7 "Middlewares/Third_Party/LwIP/src/include/lwip/ip4_addr.h"
 318              		.file 8 "Middlewares/Third_Party/LwIP/src/include/lwip/ip_addr.h"
 319              		.file 9 "Middlewares/Third_Party/LwIP/src/include/lwip/netif.h"
 320              		.file 10 "Middlewares/Third_Party/FreeRTOS/Source/portable/GCC/ARM_CM4F/portmacro.h"
 321              		.file 11 "Middlewares/Third_Party/FreeRTOS/Source/include/FreeRTOS.h"
 322              		.file 12 "Middlewares/Third_Party/FreeRTOS/Source/include/task.h"
 323              		.file 13 "Middlewares/Third_Party/LwIP/src/include/lwip/memp.h"
 324              		.file 14 "Middlewares/Third_Party/FreeRTOS/Source/CMSIS_RTOS/cmsis_os.h"
 325              		.file 15 "Middlewares/Third_Party/LwIP/src/include/lwip/tcpip.h"
 326              		.file 16 "LWIP/Target/ethernetif.h"
ARM GAS  C:\usertemp\ccH8TmFP.s 			page 10

