ARM GAS  C:\usertemp\ccXENK9d.s 			page 1


   1              		.cpu cortex-m7
   2              		.arch armv7e-m
   3              		.fpu fpv5-d16
   4              		.eabi_attribute 28, 1
   5              		.eabi_attribute 20, 1
   6              		.eabi_attribute 21, 1
   7              		.eabi_attribute 23, 3
   8              		.eabi_attribute 24, 1
   9              		.eabi_attribute 25, 1
  10              		.eabi_attribute 26, 1
  11              		.eabi_attribute 30, 1
  12              		.eabi_attribute 34, 1
  13              		.eabi_attribute 18, 4
  14              		.file	"qrcodegen.c"
  15              		.text
  16              	.Ltext0:
  17              		.cfi_sections	.debug_frame
  18              		.file 1 "lvgl/src/extra/libs/qrcode/qrcodegen.c"
  19              		.section	.text.finiteFieldMultiply,"ax",%progbits
  20              		.align	1
  21              		.syntax unified
  22              		.thumb
  23              		.thumb_func
  25              	finiteFieldMultiply:
  26              	.LVL0:
  27              	.LFB10:
   1:lvgl/src/extra/libs/qrcode/qrcodegen.c **** /* 
   2:lvgl/src/extra/libs/qrcode/qrcodegen.c ****  * QR Code generator library (C)
   3:lvgl/src/extra/libs/qrcode/qrcodegen.c ****  * 
   4:lvgl/src/extra/libs/qrcode/qrcodegen.c ****  * Copyright (c) Project Nayuki. (MIT License)
   5:lvgl/src/extra/libs/qrcode/qrcodegen.c ****  * https://www.nayuki.io/page/qr-code-generator-library
   6:lvgl/src/extra/libs/qrcode/qrcodegen.c ****  * 
   7:lvgl/src/extra/libs/qrcode/qrcodegen.c ****  * Permission is hereby granted, free of charge, to any person obtaining a copy of
   8:lvgl/src/extra/libs/qrcode/qrcodegen.c ****  * this software and associated documentation files (the "Software"), to deal in
   9:lvgl/src/extra/libs/qrcode/qrcodegen.c ****  * the Software without restriction, including without limitation the rights to
  10:lvgl/src/extra/libs/qrcode/qrcodegen.c ****  * use, copy, modify, merge, publish, distribute, sublicense, and/or sell copies of
  11:lvgl/src/extra/libs/qrcode/qrcodegen.c ****  * the Software, and to permit persons to whom the Software is furnished to do so,
  12:lvgl/src/extra/libs/qrcode/qrcodegen.c ****  * subject to the following conditions:
  13:lvgl/src/extra/libs/qrcode/qrcodegen.c ****  * - The above copyright notice and this permission notice shall be included in
  14:lvgl/src/extra/libs/qrcode/qrcodegen.c ****  *   all copies or substantial portions of the Software.
  15:lvgl/src/extra/libs/qrcode/qrcodegen.c ****  * - The Software is provided "as is", without warranty of any kind, express or
  16:lvgl/src/extra/libs/qrcode/qrcodegen.c ****  *   implied, including but not limited to the warranties of merchantability,
  17:lvgl/src/extra/libs/qrcode/qrcodegen.c ****  *   fitness for a particular purpose and noninfringement. In no event shall the
  18:lvgl/src/extra/libs/qrcode/qrcodegen.c ****  *   authors or copyright holders be liable for any claim, damages or other
  19:lvgl/src/extra/libs/qrcode/qrcodegen.c ****  *   liability, whether in an action of contract, tort or otherwise, arising from,
  20:lvgl/src/extra/libs/qrcode/qrcodegen.c ****  *   out of or in connection with the Software or the use or other dealings in the
  21:lvgl/src/extra/libs/qrcode/qrcodegen.c ****  *   Software.
  22:lvgl/src/extra/libs/qrcode/qrcodegen.c ****  */
  23:lvgl/src/extra/libs/qrcode/qrcodegen.c **** 
  24:lvgl/src/extra/libs/qrcode/qrcodegen.c **** #include <assert.h>
  25:lvgl/src/extra/libs/qrcode/qrcodegen.c **** #include <limits.h>
  26:lvgl/src/extra/libs/qrcode/qrcodegen.c **** #include <stdlib.h>
  27:lvgl/src/extra/libs/qrcode/qrcodegen.c **** #include <string.h>
  28:lvgl/src/extra/libs/qrcode/qrcodegen.c **** #include "qrcodegen.h"
  29:lvgl/src/extra/libs/qrcode/qrcodegen.c **** 
  30:lvgl/src/extra/libs/qrcode/qrcodegen.c **** #ifndef QRCODEGEN_TEST
  31:lvgl/src/extra/libs/qrcode/qrcodegen.c **** 	#define testable static  // Keep functions private
ARM GAS  C:\usertemp\ccXENK9d.s 			page 2


  32:lvgl/src/extra/libs/qrcode/qrcodegen.c **** #else
  33:lvgl/src/extra/libs/qrcode/qrcodegen.c **** 	#define testable  // Expose private functions
  34:lvgl/src/extra/libs/qrcode/qrcodegen.c **** #endif
  35:lvgl/src/extra/libs/qrcode/qrcodegen.c **** 
  36:lvgl/src/extra/libs/qrcode/qrcodegen.c **** 
  37:lvgl/src/extra/libs/qrcode/qrcodegen.c **** /*---- Forward declarations for private functions ----*/
  38:lvgl/src/extra/libs/qrcode/qrcodegen.c **** 
  39:lvgl/src/extra/libs/qrcode/qrcodegen.c **** // Regarding all public and private functions defined in this source file:
  40:lvgl/src/extra/libs/qrcode/qrcodegen.c **** // - They require all pointer/array arguments to be not null unless the array length is zero.
  41:lvgl/src/extra/libs/qrcode/qrcodegen.c **** // - They only read input scalar/array arguments, write to output pointer/array
  42:lvgl/src/extra/libs/qrcode/qrcodegen.c **** //   arguments, and return scalar values; they are "pure" functions.
  43:lvgl/src/extra/libs/qrcode/qrcodegen.c **** // - They don't read mutable global variables or write to any global variables.
  44:lvgl/src/extra/libs/qrcode/qrcodegen.c **** // - They don't perform I/O, read the clock, print to console, etc.
  45:lvgl/src/extra/libs/qrcode/qrcodegen.c **** // - They allocate a small and constant amount of stack memory.
  46:lvgl/src/extra/libs/qrcode/qrcodegen.c **** // - They don't allocate or free any memory on the heap.
  47:lvgl/src/extra/libs/qrcode/qrcodegen.c **** // - They don't recurse or mutually recurse. All the code
  48:lvgl/src/extra/libs/qrcode/qrcodegen.c **** //   could be inlined into the top-level public functions.
  49:lvgl/src/extra/libs/qrcode/qrcodegen.c **** // - They run in at most quadratic time with respect to input arguments.
  50:lvgl/src/extra/libs/qrcode/qrcodegen.c **** //   Most functions run in linear time, and some in constant time.
  51:lvgl/src/extra/libs/qrcode/qrcodegen.c **** //   There are no unbounded loops or non-obvious termination conditions.
  52:lvgl/src/extra/libs/qrcode/qrcodegen.c **** // - They are completely thread-safe if the caller does not give the
  53:lvgl/src/extra/libs/qrcode/qrcodegen.c **** //   same writable buffer to concurrent calls to these functions.
  54:lvgl/src/extra/libs/qrcode/qrcodegen.c **** 
  55:lvgl/src/extra/libs/qrcode/qrcodegen.c **** testable void appendBitsToBuffer(unsigned int val, int numBits, uint8_t buffer[], int *bitLen);
  56:lvgl/src/extra/libs/qrcode/qrcodegen.c **** 
  57:lvgl/src/extra/libs/qrcode/qrcodegen.c **** testable void addEccAndInterleave(uint8_t data[], int version, enum qrcodegen_Ecc ecl, uint8_t resu
  58:lvgl/src/extra/libs/qrcode/qrcodegen.c **** testable int getNumDataCodewords(int version, enum qrcodegen_Ecc ecl);
  59:lvgl/src/extra/libs/qrcode/qrcodegen.c **** testable int getNumRawDataModules(int ver);
  60:lvgl/src/extra/libs/qrcode/qrcodegen.c **** 
  61:lvgl/src/extra/libs/qrcode/qrcodegen.c **** testable void calcReedSolomonGenerator(int degree, uint8_t result[]);
  62:lvgl/src/extra/libs/qrcode/qrcodegen.c **** testable void calcReedSolomonRemainder(const uint8_t data[], int dataLen,
  63:lvgl/src/extra/libs/qrcode/qrcodegen.c **** 	const uint8_t generator[], int degree, uint8_t result[]);
  64:lvgl/src/extra/libs/qrcode/qrcodegen.c **** testable uint8_t finiteFieldMultiply(uint8_t x, uint8_t y);
  65:lvgl/src/extra/libs/qrcode/qrcodegen.c **** 
  66:lvgl/src/extra/libs/qrcode/qrcodegen.c **** testable void initializeFunctionModules(int version, uint8_t qrcode[]);
  67:lvgl/src/extra/libs/qrcode/qrcodegen.c **** static void drawWhiteFunctionModules(uint8_t qrcode[], int version);
  68:lvgl/src/extra/libs/qrcode/qrcodegen.c **** static void drawFormatBits(enum qrcodegen_Ecc ecl, enum qrcodegen_Mask mask, uint8_t qrcode[]);
  69:lvgl/src/extra/libs/qrcode/qrcodegen.c **** testable int getAlignmentPatternPositions(int version, uint8_t result[7]);
  70:lvgl/src/extra/libs/qrcode/qrcodegen.c **** static void fillRectangle(int left, int top, int width, int height, uint8_t qrcode[]);
  71:lvgl/src/extra/libs/qrcode/qrcodegen.c **** 
  72:lvgl/src/extra/libs/qrcode/qrcodegen.c **** static void drawCodewords(const uint8_t data[], int dataLen, uint8_t qrcode[]);
  73:lvgl/src/extra/libs/qrcode/qrcodegen.c **** static void applyMask(const uint8_t functionModules[], uint8_t qrcode[], enum qrcodegen_Mask mask);
  74:lvgl/src/extra/libs/qrcode/qrcodegen.c **** static long getPenaltyScore(const uint8_t qrcode[]);
  75:lvgl/src/extra/libs/qrcode/qrcodegen.c **** static void addRunToHistory(unsigned char run, unsigned char history[7]);
  76:lvgl/src/extra/libs/qrcode/qrcodegen.c **** static bool hasFinderLikePattern(const unsigned char runHistory[7]);
  77:lvgl/src/extra/libs/qrcode/qrcodegen.c **** 
  78:lvgl/src/extra/libs/qrcode/qrcodegen.c **** testable bool getModule(const uint8_t qrcode[], int x, int y);
  79:lvgl/src/extra/libs/qrcode/qrcodegen.c **** testable void setModule(uint8_t qrcode[], int x, int y, bool isBlack);
  80:lvgl/src/extra/libs/qrcode/qrcodegen.c **** testable void setModuleBounded(uint8_t qrcode[], int x, int y, bool isBlack);
  81:lvgl/src/extra/libs/qrcode/qrcodegen.c **** static bool getBit(int x, int i);
  82:lvgl/src/extra/libs/qrcode/qrcodegen.c **** 
  83:lvgl/src/extra/libs/qrcode/qrcodegen.c **** testable int calcSegmentBitLength(enum qrcodegen_Mode mode, size_t numChars);
  84:lvgl/src/extra/libs/qrcode/qrcodegen.c **** testable int getTotalBits(const struct qrcodegen_Segment segs[], size_t len, int version);
  85:lvgl/src/extra/libs/qrcode/qrcodegen.c **** static int numCharCountBits(enum qrcodegen_Mode mode, int version);
  86:lvgl/src/extra/libs/qrcode/qrcodegen.c **** 
  87:lvgl/src/extra/libs/qrcode/qrcodegen.c **** 
  88:lvgl/src/extra/libs/qrcode/qrcodegen.c **** 
ARM GAS  C:\usertemp\ccXENK9d.s 			page 3


  89:lvgl/src/extra/libs/qrcode/qrcodegen.c **** /*---- Private tables of constants ----*/
  90:lvgl/src/extra/libs/qrcode/qrcodegen.c **** 
  91:lvgl/src/extra/libs/qrcode/qrcodegen.c **** // The set of all legal characters in alphanumeric mode, where each character
  92:lvgl/src/extra/libs/qrcode/qrcodegen.c **** // value maps to the index in the string. For checking text and encoding segments.
  93:lvgl/src/extra/libs/qrcode/qrcodegen.c **** static const char *ALPHANUMERIC_CHARSET = "0123456789ABCDEFGHIJKLMNOPQRSTUVWXYZ $%*+-./:";
  94:lvgl/src/extra/libs/qrcode/qrcodegen.c **** 
  95:lvgl/src/extra/libs/qrcode/qrcodegen.c **** // For generating error correction codes.
  96:lvgl/src/extra/libs/qrcode/qrcodegen.c **** testable const int8_t ECC_CODEWORDS_PER_BLOCK[4][41] = {
  97:lvgl/src/extra/libs/qrcode/qrcodegen.c **** 	// Version: (note that index 0 is for padding, and is set to an illegal value)
  98:lvgl/src/extra/libs/qrcode/qrcodegen.c **** 	//0,  1,  2,  3,  4,  5,  6,  7,  8,  9, 10, 11, 12, 13, 14, 15, 16, 17, 18, 19, 20, 21, 22, 23, 2
  99:lvgl/src/extra/libs/qrcode/qrcodegen.c **** 	{-1,  7, 10, 15, 20, 26, 18, 20, 24, 30, 18, 20, 24, 26, 30, 22, 24, 28, 30, 28, 28, 28, 28, 30, 3
 100:lvgl/src/extra/libs/qrcode/qrcodegen.c **** 	{-1, 10, 16, 26, 18, 24, 16, 18, 22, 22, 26, 30, 22, 22, 24, 24, 28, 28, 26, 26, 26, 26, 28, 28, 2
 101:lvgl/src/extra/libs/qrcode/qrcodegen.c **** 	{-1, 13, 22, 18, 26, 18, 24, 18, 22, 20, 24, 28, 26, 24, 20, 30, 24, 28, 28, 26, 30, 28, 30, 30, 3
 102:lvgl/src/extra/libs/qrcode/qrcodegen.c **** 	{-1, 17, 28, 22, 16, 22, 28, 26, 26, 24, 28, 24, 28, 22, 24, 24, 30, 28, 28, 26, 28, 30, 24, 30, 3
 103:lvgl/src/extra/libs/qrcode/qrcodegen.c **** };
 104:lvgl/src/extra/libs/qrcode/qrcodegen.c **** 
 105:lvgl/src/extra/libs/qrcode/qrcodegen.c **** #define qrcodegen_REED_SOLOMON_DEGREE_MAX 30  // Based on the table above
 106:lvgl/src/extra/libs/qrcode/qrcodegen.c **** 
 107:lvgl/src/extra/libs/qrcode/qrcodegen.c **** // For generating error correction codes.
 108:lvgl/src/extra/libs/qrcode/qrcodegen.c **** testable const int8_t NUM_ERROR_CORRECTION_BLOCKS[4][41] = {
 109:lvgl/src/extra/libs/qrcode/qrcodegen.c **** 	// Version: (note that index 0 is for padding, and is set to an illegal value)
 110:lvgl/src/extra/libs/qrcode/qrcodegen.c **** 	//0, 1, 2, 3, 4, 5, 6, 7, 8, 9,10, 11, 12, 13, 14, 15, 16, 17, 18, 19, 20, 21, 22, 23, 24, 25, 26,
 111:lvgl/src/extra/libs/qrcode/qrcodegen.c **** 	{-1, 1, 1, 1, 1, 1, 2, 2, 2, 2, 4,  4,  4,  4,  4,  6,  6,  6,  6,  7,  8,  8,  9,  9, 10, 12, 12,
 112:lvgl/src/extra/libs/qrcode/qrcodegen.c **** 	{-1, 1, 1, 1, 2, 2, 4, 4, 4, 5, 5,  5,  8,  9,  9, 10, 10, 11, 13, 14, 16, 17, 17, 18, 20, 21, 23,
 113:lvgl/src/extra/libs/qrcode/qrcodegen.c **** 	{-1, 1, 1, 2, 2, 4, 4, 6, 6, 8, 8,  8, 10, 12, 16, 12, 17, 16, 18, 21, 20, 23, 23, 25, 27, 29, 34,
 114:lvgl/src/extra/libs/qrcode/qrcodegen.c **** 	{-1, 1, 1, 2, 4, 4, 4, 5, 6, 8, 8, 11, 11, 16, 16, 18, 16, 19, 21, 25, 25, 25, 34, 30, 32, 35, 37,
 115:lvgl/src/extra/libs/qrcode/qrcodegen.c **** };
 116:lvgl/src/extra/libs/qrcode/qrcodegen.c **** 
 117:lvgl/src/extra/libs/qrcode/qrcodegen.c **** // For automatic mask pattern selection.
 118:lvgl/src/extra/libs/qrcode/qrcodegen.c **** static const int PENALTY_N1 =  3;
 119:lvgl/src/extra/libs/qrcode/qrcodegen.c **** static const int PENALTY_N2 =  3;
 120:lvgl/src/extra/libs/qrcode/qrcodegen.c **** static const int PENALTY_N3 = 40;
 121:lvgl/src/extra/libs/qrcode/qrcodegen.c **** static const int PENALTY_N4 = 10;
 122:lvgl/src/extra/libs/qrcode/qrcodegen.c **** 
 123:lvgl/src/extra/libs/qrcode/qrcodegen.c **** 
 124:lvgl/src/extra/libs/qrcode/qrcodegen.c **** 
 125:lvgl/src/extra/libs/qrcode/qrcodegen.c **** /*---- High-level QR Code encoding functions ----*/
 126:lvgl/src/extra/libs/qrcode/qrcodegen.c **** 
 127:lvgl/src/extra/libs/qrcode/qrcodegen.c **** // Public function - see documentation comment in header file.
 128:lvgl/src/extra/libs/qrcode/qrcodegen.c **** bool qrcodegen_encodeText(const char *text, uint8_t tempBuffer[], uint8_t qrcode[],
 129:lvgl/src/extra/libs/qrcode/qrcodegen.c **** 		enum qrcodegen_Ecc ecl, int minVersion, int maxVersion, enum qrcodegen_Mask mask, bool boostEcl) 
 130:lvgl/src/extra/libs/qrcode/qrcodegen.c **** 	
 131:lvgl/src/extra/libs/qrcode/qrcodegen.c **** 	size_t textLen = strlen(text);
 132:lvgl/src/extra/libs/qrcode/qrcodegen.c **** 	if (textLen == 0)
 133:lvgl/src/extra/libs/qrcode/qrcodegen.c **** 		return qrcodegen_encodeSegmentsAdvanced(NULL, 0, ecl, minVersion, maxVersion, mask, boostEcl, tem
 134:lvgl/src/extra/libs/qrcode/qrcodegen.c **** 	size_t bufLen = qrcodegen_BUFFER_LEN_FOR_VERSION(maxVersion);
 135:lvgl/src/extra/libs/qrcode/qrcodegen.c **** 	
 136:lvgl/src/extra/libs/qrcode/qrcodegen.c **** 	struct qrcodegen_Segment seg;
 137:lvgl/src/extra/libs/qrcode/qrcodegen.c **** 	if (qrcodegen_isNumeric(text)) {
 138:lvgl/src/extra/libs/qrcode/qrcodegen.c **** 		if (qrcodegen_calcSegmentBufferSize(qrcodegen_Mode_NUMERIC, textLen) > bufLen)
 139:lvgl/src/extra/libs/qrcode/qrcodegen.c **** 			goto fail;
 140:lvgl/src/extra/libs/qrcode/qrcodegen.c **** 		seg = qrcodegen_makeNumeric(text, tempBuffer);
 141:lvgl/src/extra/libs/qrcode/qrcodegen.c **** 	} else if (qrcodegen_isAlphanumeric(text)) {
 142:lvgl/src/extra/libs/qrcode/qrcodegen.c **** 		if (qrcodegen_calcSegmentBufferSize(qrcodegen_Mode_ALPHANUMERIC, textLen) > bufLen)
 143:lvgl/src/extra/libs/qrcode/qrcodegen.c **** 			goto fail;
 144:lvgl/src/extra/libs/qrcode/qrcodegen.c **** 		seg = qrcodegen_makeAlphanumeric(text, tempBuffer);
 145:lvgl/src/extra/libs/qrcode/qrcodegen.c **** 	} else {
ARM GAS  C:\usertemp\ccXENK9d.s 			page 4


 146:lvgl/src/extra/libs/qrcode/qrcodegen.c **** 		if (textLen > bufLen)
 147:lvgl/src/extra/libs/qrcode/qrcodegen.c **** 			goto fail;
 148:lvgl/src/extra/libs/qrcode/qrcodegen.c **** 		for (size_t i = 0; i < textLen; i++)
 149:lvgl/src/extra/libs/qrcode/qrcodegen.c **** 			tempBuffer[i] = (uint8_t)text[i];
 150:lvgl/src/extra/libs/qrcode/qrcodegen.c **** 		seg.mode = qrcodegen_Mode_BYTE;
 151:lvgl/src/extra/libs/qrcode/qrcodegen.c **** 		seg.bitLength = calcSegmentBitLength(seg.mode, textLen);
 152:lvgl/src/extra/libs/qrcode/qrcodegen.c **** 		if (seg.bitLength == -1)
 153:lvgl/src/extra/libs/qrcode/qrcodegen.c **** 			goto fail;
 154:lvgl/src/extra/libs/qrcode/qrcodegen.c **** 		seg.numChars = (int)textLen;
 155:lvgl/src/extra/libs/qrcode/qrcodegen.c **** 		seg.data = tempBuffer;
 156:lvgl/src/extra/libs/qrcode/qrcodegen.c **** 	}
 157:lvgl/src/extra/libs/qrcode/qrcodegen.c **** 	return qrcodegen_encodeSegmentsAdvanced(&seg, 1, ecl, minVersion, maxVersion, mask, boostEcl, temp
 158:lvgl/src/extra/libs/qrcode/qrcodegen.c **** 	
 159:lvgl/src/extra/libs/qrcode/qrcodegen.c **** fail:
 160:lvgl/src/extra/libs/qrcode/qrcodegen.c **** 	qrcode[0] = 0;  // Set size to invalid value for safety
 161:lvgl/src/extra/libs/qrcode/qrcodegen.c **** 	return false;
 162:lvgl/src/extra/libs/qrcode/qrcodegen.c **** }
 163:lvgl/src/extra/libs/qrcode/qrcodegen.c **** 
 164:lvgl/src/extra/libs/qrcode/qrcodegen.c **** 
 165:lvgl/src/extra/libs/qrcode/qrcodegen.c **** // Public function - see documentation comment in header file.
 166:lvgl/src/extra/libs/qrcode/qrcodegen.c **** bool qrcodegen_encodeBinary(uint8_t dataAndTemp[], size_t dataLen, uint8_t qrcode[],
 167:lvgl/src/extra/libs/qrcode/qrcodegen.c **** 		enum qrcodegen_Ecc ecl, int minVersion, int maxVersion, enum qrcodegen_Mask mask, bool boostEcl) 
 168:lvgl/src/extra/libs/qrcode/qrcodegen.c **** 	
 169:lvgl/src/extra/libs/qrcode/qrcodegen.c **** 	struct qrcodegen_Segment seg;
 170:lvgl/src/extra/libs/qrcode/qrcodegen.c **** 	seg.mode = qrcodegen_Mode_BYTE;
 171:lvgl/src/extra/libs/qrcode/qrcodegen.c **** 	seg.bitLength = calcSegmentBitLength(seg.mode, dataLen);
 172:lvgl/src/extra/libs/qrcode/qrcodegen.c **** 	if (seg.bitLength == -1) {
 173:lvgl/src/extra/libs/qrcode/qrcodegen.c **** 		qrcode[0] = 0;  // Set size to invalid value for safety
 174:lvgl/src/extra/libs/qrcode/qrcodegen.c **** 		return false;
 175:lvgl/src/extra/libs/qrcode/qrcodegen.c **** 	}
 176:lvgl/src/extra/libs/qrcode/qrcodegen.c **** 	seg.numChars = (int)dataLen;
 177:lvgl/src/extra/libs/qrcode/qrcodegen.c **** 	seg.data = dataAndTemp;
 178:lvgl/src/extra/libs/qrcode/qrcodegen.c **** 	return qrcodegen_encodeSegmentsAdvanced(&seg, 1, ecl, minVersion, maxVersion, mask, boostEcl, data
 179:lvgl/src/extra/libs/qrcode/qrcodegen.c **** }
 180:lvgl/src/extra/libs/qrcode/qrcodegen.c **** 
 181:lvgl/src/extra/libs/qrcode/qrcodegen.c **** 
 182:lvgl/src/extra/libs/qrcode/qrcodegen.c **** // Appends the given number of low-order bits of the given value to the given byte-based
 183:lvgl/src/extra/libs/qrcode/qrcodegen.c **** // bit buffer, increasing the bit length. Requires 0 <= numBits <= 16 and val < 2^numBits.
 184:lvgl/src/extra/libs/qrcode/qrcodegen.c **** testable void appendBitsToBuffer(unsigned int val, int numBits, uint8_t buffer[], int *bitLen) {
 185:lvgl/src/extra/libs/qrcode/qrcodegen.c **** 	assert(0 <= numBits && numBits <= 16 && (unsigned long)val >> numBits == 0);
 186:lvgl/src/extra/libs/qrcode/qrcodegen.c **** 	for (int i = numBits - 1; i >= 0; i--, (*bitLen)++)
 187:lvgl/src/extra/libs/qrcode/qrcodegen.c **** 		buffer[*bitLen >> 3] |= ((val >> i) & 1) << (7 - (*bitLen & 7));
 188:lvgl/src/extra/libs/qrcode/qrcodegen.c **** }
 189:lvgl/src/extra/libs/qrcode/qrcodegen.c **** 
 190:lvgl/src/extra/libs/qrcode/qrcodegen.c **** 
 191:lvgl/src/extra/libs/qrcode/qrcodegen.c **** 
 192:lvgl/src/extra/libs/qrcode/qrcodegen.c **** /*---- Low-level QR Code encoding functions ----*/
 193:lvgl/src/extra/libs/qrcode/qrcodegen.c **** 
 194:lvgl/src/extra/libs/qrcode/qrcodegen.c **** // Public function - see documentation comment in header file.
 195:lvgl/src/extra/libs/qrcode/qrcodegen.c **** bool qrcodegen_encodeSegments(const struct qrcodegen_Segment segs[], size_t len,
 196:lvgl/src/extra/libs/qrcode/qrcodegen.c **** 		enum qrcodegen_Ecc ecl, uint8_t tempBuffer[], uint8_t qrcode[]) {
 197:lvgl/src/extra/libs/qrcode/qrcodegen.c **** 	return qrcodegen_encodeSegmentsAdvanced(segs, len, ecl,
 198:lvgl/src/extra/libs/qrcode/qrcodegen.c **** 		qrcodegen_VERSION_MIN, qrcodegen_VERSION_MAX, -1, true, tempBuffer, qrcode);
 199:lvgl/src/extra/libs/qrcode/qrcodegen.c **** }
 200:lvgl/src/extra/libs/qrcode/qrcodegen.c **** 
 201:lvgl/src/extra/libs/qrcode/qrcodegen.c **** 
 202:lvgl/src/extra/libs/qrcode/qrcodegen.c **** // Public function - see documentation comment in header file.
ARM GAS  C:\usertemp\ccXENK9d.s 			page 5


 203:lvgl/src/extra/libs/qrcode/qrcodegen.c **** bool qrcodegen_encodeSegmentsAdvanced(const struct qrcodegen_Segment segs[], size_t len, enum qrcod
 204:lvgl/src/extra/libs/qrcode/qrcodegen.c **** 		int minVersion, int maxVersion, int mask, bool boostEcl, uint8_t tempBuffer[], uint8_t qrcode[]) 
 205:lvgl/src/extra/libs/qrcode/qrcodegen.c **** 	assert(segs != NULL || len == 0);
 206:lvgl/src/extra/libs/qrcode/qrcodegen.c **** 	assert(qrcodegen_VERSION_MIN <= minVersion && minVersion <= maxVersion && maxVersion <= qrcodegen_
 207:lvgl/src/extra/libs/qrcode/qrcodegen.c **** 	assert(0 <= (int)ecl && (int)ecl <= 3 && -1 <= (int)mask && (int)mask <= 7);
 208:lvgl/src/extra/libs/qrcode/qrcodegen.c **** 	
 209:lvgl/src/extra/libs/qrcode/qrcodegen.c **** 	// Find the minimal version number to use
 210:lvgl/src/extra/libs/qrcode/qrcodegen.c **** 	int version, dataUsedBits;
 211:lvgl/src/extra/libs/qrcode/qrcodegen.c **** 	for (version = minVersion; ; version++) {
 212:lvgl/src/extra/libs/qrcode/qrcodegen.c **** 		int dataCapacityBits = getNumDataCodewords(version, ecl) * 8;  // Number of data bits available
 213:lvgl/src/extra/libs/qrcode/qrcodegen.c **** 		dataUsedBits = getTotalBits(segs, len, version);
 214:lvgl/src/extra/libs/qrcode/qrcodegen.c **** 		if (dataUsedBits != -1 && dataUsedBits <= dataCapacityBits)
 215:lvgl/src/extra/libs/qrcode/qrcodegen.c **** 			break;  // This version number is found to be suitable
 216:lvgl/src/extra/libs/qrcode/qrcodegen.c **** 		if (version >= maxVersion) {  // All versions in the range could not fit the given data
 217:lvgl/src/extra/libs/qrcode/qrcodegen.c **** 			qrcode[0] = 0;  // Set size to invalid value for safety
 218:lvgl/src/extra/libs/qrcode/qrcodegen.c **** 			return false;
 219:lvgl/src/extra/libs/qrcode/qrcodegen.c **** 		}
 220:lvgl/src/extra/libs/qrcode/qrcodegen.c **** 	}
 221:lvgl/src/extra/libs/qrcode/qrcodegen.c **** 	assert(dataUsedBits != -1);
 222:lvgl/src/extra/libs/qrcode/qrcodegen.c **** 	
 223:lvgl/src/extra/libs/qrcode/qrcodegen.c **** 	// Increase the error correction level while the data still fits in the current version number
 224:lvgl/src/extra/libs/qrcode/qrcodegen.c **** 	for (int i = (int)qrcodegen_Ecc_MEDIUM; i <= (int)qrcodegen_Ecc_HIGH; i++) {  // From low to high
 225:lvgl/src/extra/libs/qrcode/qrcodegen.c **** 		if (boostEcl && dataUsedBits <= getNumDataCodewords(version, (enum qrcodegen_Ecc)i) * 8)
 226:lvgl/src/extra/libs/qrcode/qrcodegen.c **** 			ecl = (enum qrcodegen_Ecc)i;
 227:lvgl/src/extra/libs/qrcode/qrcodegen.c **** 	}
 228:lvgl/src/extra/libs/qrcode/qrcodegen.c **** 	
 229:lvgl/src/extra/libs/qrcode/qrcodegen.c **** 	// Concatenate all segments to create the data bit string
 230:lvgl/src/extra/libs/qrcode/qrcodegen.c **** 	memset(qrcode, 0, qrcodegen_BUFFER_LEN_FOR_VERSION(version) * sizeof(qrcode[0]));
 231:lvgl/src/extra/libs/qrcode/qrcodegen.c **** 	int bitLen = 0;
 232:lvgl/src/extra/libs/qrcode/qrcodegen.c **** 	for (size_t i = 0; i < len; i++) {
 233:lvgl/src/extra/libs/qrcode/qrcodegen.c **** 		const struct qrcodegen_Segment *seg = &segs[i];
 234:lvgl/src/extra/libs/qrcode/qrcodegen.c **** 		appendBitsToBuffer((int)seg->mode, 4, qrcode, &bitLen);
 235:lvgl/src/extra/libs/qrcode/qrcodegen.c **** 		appendBitsToBuffer(seg->numChars, numCharCountBits(seg->mode, version), qrcode, &bitLen);
 236:lvgl/src/extra/libs/qrcode/qrcodegen.c **** 		for (int j = 0; j < seg->bitLength; j++)
 237:lvgl/src/extra/libs/qrcode/qrcodegen.c **** 			appendBitsToBuffer((seg->data[j >> 3] >> (7 - (j & 7))) & 1, 1, qrcode, &bitLen);
 238:lvgl/src/extra/libs/qrcode/qrcodegen.c **** 	}
 239:lvgl/src/extra/libs/qrcode/qrcodegen.c **** 	assert(bitLen == dataUsedBits);
 240:lvgl/src/extra/libs/qrcode/qrcodegen.c **** 	
 241:lvgl/src/extra/libs/qrcode/qrcodegen.c **** 	// Add terminator and pad up to a byte if applicable
 242:lvgl/src/extra/libs/qrcode/qrcodegen.c **** 	int dataCapacityBits = getNumDataCodewords(version, ecl) * 8;
 243:lvgl/src/extra/libs/qrcode/qrcodegen.c **** 	assert(bitLen <= dataCapacityBits);
 244:lvgl/src/extra/libs/qrcode/qrcodegen.c **** 	int terminatorBits = dataCapacityBits - bitLen;
 245:lvgl/src/extra/libs/qrcode/qrcodegen.c **** 	if (terminatorBits > 4)
 246:lvgl/src/extra/libs/qrcode/qrcodegen.c **** 		terminatorBits = 4;
 247:lvgl/src/extra/libs/qrcode/qrcodegen.c **** 	appendBitsToBuffer(0, terminatorBits, qrcode, &bitLen);
 248:lvgl/src/extra/libs/qrcode/qrcodegen.c **** 	appendBitsToBuffer(0, (8 - bitLen % 8) % 8, qrcode, &bitLen);
 249:lvgl/src/extra/libs/qrcode/qrcodegen.c **** 	assert(bitLen % 8 == 0);
 250:lvgl/src/extra/libs/qrcode/qrcodegen.c **** 	
 251:lvgl/src/extra/libs/qrcode/qrcodegen.c **** 	// Pad with alternating bytes until data capacity is reached
 252:lvgl/src/extra/libs/qrcode/qrcodegen.c **** 	for (uint8_t padByte = 0xEC; bitLen < dataCapacityBits; padByte ^= 0xEC ^ 0x11)
 253:lvgl/src/extra/libs/qrcode/qrcodegen.c **** 		appendBitsToBuffer(padByte, 8, qrcode, &bitLen);
 254:lvgl/src/extra/libs/qrcode/qrcodegen.c **** 	
 255:lvgl/src/extra/libs/qrcode/qrcodegen.c **** 	// Draw function and data codeword modules
 256:lvgl/src/extra/libs/qrcode/qrcodegen.c **** 	addEccAndInterleave(qrcode, version, ecl, tempBuffer);
 257:lvgl/src/extra/libs/qrcode/qrcodegen.c **** 	initializeFunctionModules(version, qrcode);
 258:lvgl/src/extra/libs/qrcode/qrcodegen.c **** 	drawCodewords(tempBuffer, getNumRawDataModules(version) / 8, qrcode);
 259:lvgl/src/extra/libs/qrcode/qrcodegen.c **** 	drawWhiteFunctionModules(qrcode, version);
ARM GAS  C:\usertemp\ccXENK9d.s 			page 6


 260:lvgl/src/extra/libs/qrcode/qrcodegen.c **** 	initializeFunctionModules(version, tempBuffer);
 261:lvgl/src/extra/libs/qrcode/qrcodegen.c **** 	
 262:lvgl/src/extra/libs/qrcode/qrcodegen.c **** 	// Handle masking
 263:lvgl/src/extra/libs/qrcode/qrcodegen.c **** 	if (mask == qrcodegen_Mask_AUTO) {  // Automatically choose best mask
 264:lvgl/src/extra/libs/qrcode/qrcodegen.c **** 		long minPenalty = LONG_MAX;
 265:lvgl/src/extra/libs/qrcode/qrcodegen.c **** 		for (int i = 0; i < 8; i++) {
 266:lvgl/src/extra/libs/qrcode/qrcodegen.c **** 			enum qrcodegen_Mask msk = (enum qrcodegen_Mask)i;
 267:lvgl/src/extra/libs/qrcode/qrcodegen.c **** 			applyMask(tempBuffer, qrcode, msk);
 268:lvgl/src/extra/libs/qrcode/qrcodegen.c **** 			drawFormatBits(ecl, msk, qrcode);
 269:lvgl/src/extra/libs/qrcode/qrcodegen.c **** 			long penalty = getPenaltyScore(qrcode);
 270:lvgl/src/extra/libs/qrcode/qrcodegen.c **** 			if (penalty < minPenalty) {
 271:lvgl/src/extra/libs/qrcode/qrcodegen.c **** 				mask = msk;
 272:lvgl/src/extra/libs/qrcode/qrcodegen.c **** 				minPenalty = penalty;
 273:lvgl/src/extra/libs/qrcode/qrcodegen.c **** 			}
 274:lvgl/src/extra/libs/qrcode/qrcodegen.c **** 			applyMask(tempBuffer, qrcode, msk);  // Undoes the mask due to XOR
 275:lvgl/src/extra/libs/qrcode/qrcodegen.c **** 		}
 276:lvgl/src/extra/libs/qrcode/qrcodegen.c **** 	}
 277:lvgl/src/extra/libs/qrcode/qrcodegen.c **** 	assert(0 <= (int)mask && (int)mask <= 7);
 278:lvgl/src/extra/libs/qrcode/qrcodegen.c **** 	applyMask(tempBuffer, qrcode, mask);
 279:lvgl/src/extra/libs/qrcode/qrcodegen.c **** 	drawFormatBits(ecl, mask, qrcode);
 280:lvgl/src/extra/libs/qrcode/qrcodegen.c **** 	return true;
 281:lvgl/src/extra/libs/qrcode/qrcodegen.c **** }
 282:lvgl/src/extra/libs/qrcode/qrcodegen.c **** 
 283:lvgl/src/extra/libs/qrcode/qrcodegen.c **** 
 284:lvgl/src/extra/libs/qrcode/qrcodegen.c **** 
 285:lvgl/src/extra/libs/qrcode/qrcodegen.c **** /*---- Error correction code generation functions ----*/
 286:lvgl/src/extra/libs/qrcode/qrcodegen.c **** 
 287:lvgl/src/extra/libs/qrcode/qrcodegen.c **** // Appends error correction bytes to each block of the given data array, then interleaves
 288:lvgl/src/extra/libs/qrcode/qrcodegen.c **** // bytes from the blocks and stores them in the result array. data[0 : dataLen] contains
 289:lvgl/src/extra/libs/qrcode/qrcodegen.c **** // the input data. data[dataLen : rawCodewords] is used as a temporary work area and will
 290:lvgl/src/extra/libs/qrcode/qrcodegen.c **** // be clobbered by this function. The final answer is stored in result[0 : rawCodewords].
 291:lvgl/src/extra/libs/qrcode/qrcodegen.c **** testable void addEccAndInterleave(uint8_t data[], int version, enum qrcodegen_Ecc ecl, uint8_t resu
 292:lvgl/src/extra/libs/qrcode/qrcodegen.c **** 	// Calculate parameter numbers
 293:lvgl/src/extra/libs/qrcode/qrcodegen.c **** 	assert(0 <= (int)ecl && (int)ecl < 4 && qrcodegen_VERSION_MIN <= version && version <= qrcodegen_V
 294:lvgl/src/extra/libs/qrcode/qrcodegen.c **** 	int numBlocks = NUM_ERROR_CORRECTION_BLOCKS[(int)ecl][version];
 295:lvgl/src/extra/libs/qrcode/qrcodegen.c **** 	int blockEccLen = ECC_CODEWORDS_PER_BLOCK  [(int)ecl][version];
 296:lvgl/src/extra/libs/qrcode/qrcodegen.c **** 	int rawCodewords = getNumRawDataModules(version) / 8;
 297:lvgl/src/extra/libs/qrcode/qrcodegen.c **** 	int dataLen = getNumDataCodewords(version, ecl);
 298:lvgl/src/extra/libs/qrcode/qrcodegen.c **** 	int numShortBlocks = numBlocks - rawCodewords % numBlocks;
 299:lvgl/src/extra/libs/qrcode/qrcodegen.c **** 	int shortBlockDataLen = rawCodewords / numBlocks - blockEccLen;
 300:lvgl/src/extra/libs/qrcode/qrcodegen.c **** 	
 301:lvgl/src/extra/libs/qrcode/qrcodegen.c **** 	// Split data into blocks, calculate ECC, and interleave
 302:lvgl/src/extra/libs/qrcode/qrcodegen.c **** 	// (not concatenate) the bytes into a single sequence
 303:lvgl/src/extra/libs/qrcode/qrcodegen.c **** 	uint8_t generator[qrcodegen_REED_SOLOMON_DEGREE_MAX];
 304:lvgl/src/extra/libs/qrcode/qrcodegen.c **** 	calcReedSolomonGenerator(blockEccLen, generator);
 305:lvgl/src/extra/libs/qrcode/qrcodegen.c **** 	const uint8_t *dat = data;
 306:lvgl/src/extra/libs/qrcode/qrcodegen.c **** 	for (int i = 0; i < numBlocks; i++) {
 307:lvgl/src/extra/libs/qrcode/qrcodegen.c **** 		int datLen = shortBlockDataLen + (i < numShortBlocks ? 0 : 1);
 308:lvgl/src/extra/libs/qrcode/qrcodegen.c **** 		uint8_t *ecc = &data[dataLen];  // Temporary storage
 309:lvgl/src/extra/libs/qrcode/qrcodegen.c **** 		calcReedSolomonRemainder(dat, datLen, generator, blockEccLen, ecc);
 310:lvgl/src/extra/libs/qrcode/qrcodegen.c **** 		for (int j = 0, k = i; j < datLen; j++, k += numBlocks) {  // Copy data
 311:lvgl/src/extra/libs/qrcode/qrcodegen.c **** 			if (j == shortBlockDataLen)
 312:lvgl/src/extra/libs/qrcode/qrcodegen.c **** 				k -= numShortBlocks;
 313:lvgl/src/extra/libs/qrcode/qrcodegen.c **** 			result[k] = dat[j];
 314:lvgl/src/extra/libs/qrcode/qrcodegen.c **** 		}
 315:lvgl/src/extra/libs/qrcode/qrcodegen.c **** 		for (int j = 0, k = dataLen + i; j < blockEccLen; j++, k += numBlocks)  // Copy ECC
 316:lvgl/src/extra/libs/qrcode/qrcodegen.c **** 			result[k] = ecc[j];
ARM GAS  C:\usertemp\ccXENK9d.s 			page 7


 317:lvgl/src/extra/libs/qrcode/qrcodegen.c **** 		dat += datLen;
 318:lvgl/src/extra/libs/qrcode/qrcodegen.c **** 	}
 319:lvgl/src/extra/libs/qrcode/qrcodegen.c **** }
 320:lvgl/src/extra/libs/qrcode/qrcodegen.c **** 
 321:lvgl/src/extra/libs/qrcode/qrcodegen.c **** 
 322:lvgl/src/extra/libs/qrcode/qrcodegen.c **** // Returns the number of 8-bit codewords that can be used for storing data (not ECC),
 323:lvgl/src/extra/libs/qrcode/qrcodegen.c **** // for the given version number and error correction level. The result is in the range [9, 2956].
 324:lvgl/src/extra/libs/qrcode/qrcodegen.c **** testable int getNumDataCodewords(int version, enum qrcodegen_Ecc ecl) {
 325:lvgl/src/extra/libs/qrcode/qrcodegen.c **** 	int v = version, e = (int)ecl;
 326:lvgl/src/extra/libs/qrcode/qrcodegen.c **** 	assert(0 <= e && e < 4);
 327:lvgl/src/extra/libs/qrcode/qrcodegen.c **** 	return getNumRawDataModules(v) / 8
 328:lvgl/src/extra/libs/qrcode/qrcodegen.c **** 		- ECC_CODEWORDS_PER_BLOCK    [e][v]
 329:lvgl/src/extra/libs/qrcode/qrcodegen.c **** 		* NUM_ERROR_CORRECTION_BLOCKS[e][v];
 330:lvgl/src/extra/libs/qrcode/qrcodegen.c **** }
 331:lvgl/src/extra/libs/qrcode/qrcodegen.c **** 
 332:lvgl/src/extra/libs/qrcode/qrcodegen.c **** 
 333:lvgl/src/extra/libs/qrcode/qrcodegen.c **** // Returns the number of data bits that can be stored in a QR Code of the given version number, aft
 334:lvgl/src/extra/libs/qrcode/qrcodegen.c **** // all function modules are excluded. This includes remainder bits, so it might not be a multiple o
 335:lvgl/src/extra/libs/qrcode/qrcodegen.c **** // The result is in the range [208, 29648]. This could be implemented as a 40-entry lookup table.
 336:lvgl/src/extra/libs/qrcode/qrcodegen.c **** testable int getNumRawDataModules(int ver) {
 337:lvgl/src/extra/libs/qrcode/qrcodegen.c **** 	assert(qrcodegen_VERSION_MIN <= ver && ver <= qrcodegen_VERSION_MAX);
 338:lvgl/src/extra/libs/qrcode/qrcodegen.c **** 	int result = (16 * ver + 128) * ver + 64;
 339:lvgl/src/extra/libs/qrcode/qrcodegen.c **** 	if (ver >= 2) {
 340:lvgl/src/extra/libs/qrcode/qrcodegen.c **** 		int numAlign = ver / 7 + 2;
 341:lvgl/src/extra/libs/qrcode/qrcodegen.c **** 		result -= (25 * numAlign - 10) * numAlign - 55;
 342:lvgl/src/extra/libs/qrcode/qrcodegen.c **** 		if (ver >= 7)
 343:lvgl/src/extra/libs/qrcode/qrcodegen.c **** 			result -= 36;
 344:lvgl/src/extra/libs/qrcode/qrcodegen.c **** 	}
 345:lvgl/src/extra/libs/qrcode/qrcodegen.c **** 	return result;
 346:lvgl/src/extra/libs/qrcode/qrcodegen.c **** }
 347:lvgl/src/extra/libs/qrcode/qrcodegen.c **** 
 348:lvgl/src/extra/libs/qrcode/qrcodegen.c **** 
 349:lvgl/src/extra/libs/qrcode/qrcodegen.c **** 
 350:lvgl/src/extra/libs/qrcode/qrcodegen.c **** /*---- Reed-Solomon ECC generator functions ----*/
 351:lvgl/src/extra/libs/qrcode/qrcodegen.c **** 
 352:lvgl/src/extra/libs/qrcode/qrcodegen.c **** // Calculates the Reed-Solomon generator polynomial of the given degree, storing in result[0 : degr
 353:lvgl/src/extra/libs/qrcode/qrcodegen.c **** testable void calcReedSolomonGenerator(int degree, uint8_t result[]) {
 354:lvgl/src/extra/libs/qrcode/qrcodegen.c **** 	// Start with the monomial x^0
 355:lvgl/src/extra/libs/qrcode/qrcodegen.c **** 	assert(1 <= degree && degree <= qrcodegen_REED_SOLOMON_DEGREE_MAX);
 356:lvgl/src/extra/libs/qrcode/qrcodegen.c **** 	memset(result, 0, degree * sizeof(result[0]));
 357:lvgl/src/extra/libs/qrcode/qrcodegen.c **** 	result[degree - 1] = 1;
 358:lvgl/src/extra/libs/qrcode/qrcodegen.c **** 	
 359:lvgl/src/extra/libs/qrcode/qrcodegen.c **** 	// Compute the product polynomial (x - r^0) * (x - r^1) * (x - r^2) * ... * (x - r^{degree-1}),
 360:lvgl/src/extra/libs/qrcode/qrcodegen.c **** 	// drop the highest term, and store the rest of the coefficients in order of descending powers.
 361:lvgl/src/extra/libs/qrcode/qrcodegen.c **** 	// Note that r = 0x02, which is a generator element of this field GF(2^8/0x11D).
 362:lvgl/src/extra/libs/qrcode/qrcodegen.c **** 	uint8_t root = 1;
 363:lvgl/src/extra/libs/qrcode/qrcodegen.c **** 	for (int i = 0; i < degree; i++) {
 364:lvgl/src/extra/libs/qrcode/qrcodegen.c **** 		// Multiply the current product by (x - r^i)
 365:lvgl/src/extra/libs/qrcode/qrcodegen.c **** 		for (int j = 0; j < degree; j++) {
 366:lvgl/src/extra/libs/qrcode/qrcodegen.c **** 			result[j] = finiteFieldMultiply(result[j], root);
 367:lvgl/src/extra/libs/qrcode/qrcodegen.c **** 			if (j + 1 < degree)
 368:lvgl/src/extra/libs/qrcode/qrcodegen.c **** 				result[j] ^= result[j + 1];
 369:lvgl/src/extra/libs/qrcode/qrcodegen.c **** 		}
 370:lvgl/src/extra/libs/qrcode/qrcodegen.c **** 		root = finiteFieldMultiply(root, 0x02);
 371:lvgl/src/extra/libs/qrcode/qrcodegen.c **** 	}
 372:lvgl/src/extra/libs/qrcode/qrcodegen.c **** }
 373:lvgl/src/extra/libs/qrcode/qrcodegen.c **** 
ARM GAS  C:\usertemp\ccXENK9d.s 			page 8


 374:lvgl/src/extra/libs/qrcode/qrcodegen.c **** 
 375:lvgl/src/extra/libs/qrcode/qrcodegen.c **** // Calculates the remainder of the polynomial data[0 : dataLen] when divided by the generator[0 : d
 376:lvgl/src/extra/libs/qrcode/qrcodegen.c **** // polynomials are in big endian and the generator has an implicit leading 1 term, storing the resu
 377:lvgl/src/extra/libs/qrcode/qrcodegen.c **** testable void calcReedSolomonRemainder(const uint8_t data[], int dataLen,
 378:lvgl/src/extra/libs/qrcode/qrcodegen.c **** 		const uint8_t generator[], int degree, uint8_t result[]) {
 379:lvgl/src/extra/libs/qrcode/qrcodegen.c **** 	
 380:lvgl/src/extra/libs/qrcode/qrcodegen.c **** 	// Perform polynomial division
 381:lvgl/src/extra/libs/qrcode/qrcodegen.c **** 	assert(1 <= degree && degree <= qrcodegen_REED_SOLOMON_DEGREE_MAX);
 382:lvgl/src/extra/libs/qrcode/qrcodegen.c **** 	memset(result, 0, degree * sizeof(result[0]));
 383:lvgl/src/extra/libs/qrcode/qrcodegen.c **** 	for (int i = 0; i < dataLen; i++) {
 384:lvgl/src/extra/libs/qrcode/qrcodegen.c **** 		uint8_t factor = data[i] ^ result[0];
 385:lvgl/src/extra/libs/qrcode/qrcodegen.c **** 		memmove(&result[0], &result[1], (degree - 1) * sizeof(result[0]));
 386:lvgl/src/extra/libs/qrcode/qrcodegen.c **** 		result[degree - 1] = 0;
 387:lvgl/src/extra/libs/qrcode/qrcodegen.c **** 		for (int j = 0; j < degree; j++)
 388:lvgl/src/extra/libs/qrcode/qrcodegen.c **** 			result[j] ^= finiteFieldMultiply(generator[j], factor);
 389:lvgl/src/extra/libs/qrcode/qrcodegen.c **** 	}
 390:lvgl/src/extra/libs/qrcode/qrcodegen.c **** }
 391:lvgl/src/extra/libs/qrcode/qrcodegen.c **** 
 392:lvgl/src/extra/libs/qrcode/qrcodegen.c **** #undef qrcodegen_REED_SOLOMON_DEGREE_MAX
 393:lvgl/src/extra/libs/qrcode/qrcodegen.c **** 
 394:lvgl/src/extra/libs/qrcode/qrcodegen.c **** 
 395:lvgl/src/extra/libs/qrcode/qrcodegen.c **** // Returns the product of the two given field elements modulo GF(2^8/0x11D).
 396:lvgl/src/extra/libs/qrcode/qrcodegen.c **** // All inputs are valid. This could be implemented as a 256*256 lookup table.
 397:lvgl/src/extra/libs/qrcode/qrcodegen.c **** testable uint8_t finiteFieldMultiply(uint8_t x, uint8_t y) {
  28              		.loc 1 397 60 view -0
  29              		.cfi_startproc
  30              		@ args = 0, pretend = 0, frame = 0
  31              		@ frame_needed = 0, uses_anonymous_args = 0
  32              		.loc 1 397 60 is_stmt 0 view .LVU1
  33 0000 00B5     		push	{lr}
  34              	.LCFI0:
  35              		.cfi_def_cfa_offset 4
  36              		.cfi_offset 14, -4
  37 0002 8646     		mov	lr, r0
 398:lvgl/src/extra/libs/qrcode/qrcodegen.c **** 	// Russian peasant multiplication
 399:lvgl/src/extra/libs/qrcode/qrcodegen.c **** 	uint8_t z = 0;
  38              		.loc 1 399 2 is_stmt 1 view .LVU2
  39              	.LVL1:
 400:lvgl/src/extra/libs/qrcode/qrcodegen.c **** 	for (int i = 7; i >= 0; i--) {
  40              		.loc 1 400 2 view .LVU3
  41              	.LBB2:
  42              		.loc 1 400 7 view .LVU4
  43              		.loc 1 400 11 is_stmt 0 view .LVU5
  44 0004 0722     		movs	r2, #7
  45              	.LBE2:
 399:lvgl/src/extra/libs/qrcode/qrcodegen.c **** 	for (int i = 7; i >= 0; i--) {
  46              		.loc 1 399 10 view .LVU6
  47 0006 0020     		movs	r0, #0
  48              	.LVL2:
  49              	.LBB3:
  50              		.loc 1 400 2 view .LVU7
  51 0008 10E0     		b	.L2
  52              	.LVL3:
  53              	.L3:
 401:lvgl/src/extra/libs/qrcode/qrcodegen.c **** 		z = (z << 1) ^ ((z >> 7) * 0x11D);
  54              		.loc 1 401 3 is_stmt 1 view .LVU8
  55              		.loc 1 401 16 is_stmt 0 view .LVU9
ARM GAS  C:\usertemp\ccXENK9d.s 			page 9


  56 000a C309     		lsrs	r3, r0, #7
  57 000c C3EBC30C 		rsb	ip, r3, r3, lsl #3
  58 0010 03EB8C03 		add	r3, r3, ip, lsl #2
  59 0014 83EA4003 		eor	r3, r3, r0, lsl #1
  60 0018 5BB2     		sxtb	r3, r3
  61              	.LVL4:
 402:lvgl/src/extra/libs/qrcode/qrcodegen.c **** 		z ^= ((y >> i) & 1) * x;
  62              		.loc 1 402 3 is_stmt 1 view .LVU10
  63              		.loc 1 402 12 is_stmt 0 view .LVU11
  64 001a 41FA02F0 		asr	r0, r1, r2
  65              		.loc 1 402 5 view .LVU12
  66 001e 00F00100 		and	r0, r0, #1
  67 0022 10FB0EF0 		smulbb	r0, r0, lr
  68 0026 5840     		eors	r0, r0, r3
  69 0028 C0B2     		uxtb	r0, r0
  70              	.LVL5:
 400:lvgl/src/extra/libs/qrcode/qrcodegen.c **** 		z = (z << 1) ^ ((z >> 7) * 0x11D);
  71              		.loc 1 400 27 is_stmt 1 discriminator 3 view .LVU13
  72 002a 013A     		subs	r2, r2, #1
  73              	.LVL6:
  74              	.L2:
 400:lvgl/src/extra/libs/qrcode/qrcodegen.c **** 		z = (z << 1) ^ ((z >> 7) * 0x11D);
  75              		.loc 1 400 20 discriminator 1 view .LVU14
  76 002c 002A     		cmp	r2, #0
  77 002e ECDA     		bge	.L3
  78              	.LBE3:
 403:lvgl/src/extra/libs/qrcode/qrcodegen.c **** 	}
 404:lvgl/src/extra/libs/qrcode/qrcodegen.c **** 	return z;
  79              		.loc 1 404 2 view .LVU15
 405:lvgl/src/extra/libs/qrcode/qrcodegen.c **** }
  80              		.loc 1 405 1 is_stmt 0 view .LVU16
  81 0030 5DF804FB 		ldr	pc, [sp], #4
  82              		.cfi_endproc
  83              	.LFE10:
  85              		.section	.text.getAlignmentPatternPositions,"ax",%progbits
  86              		.align	1
  87              		.syntax unified
  88              		.thumb
  89              		.thumb_func
  91              	getAlignmentPatternPositions:
  92              	.LVL7:
  93              	.LFB14:
 406:lvgl/src/extra/libs/qrcode/qrcodegen.c **** 
 407:lvgl/src/extra/libs/qrcode/qrcodegen.c **** 
 408:lvgl/src/extra/libs/qrcode/qrcodegen.c **** 
 409:lvgl/src/extra/libs/qrcode/qrcodegen.c **** /*---- Drawing function modules ----*/
 410:lvgl/src/extra/libs/qrcode/qrcodegen.c **** 
 411:lvgl/src/extra/libs/qrcode/qrcodegen.c **** // Clears the given QR Code grid with white modules for the given
 412:lvgl/src/extra/libs/qrcode/qrcodegen.c **** // version's size, then marks every function module as black.
 413:lvgl/src/extra/libs/qrcode/qrcodegen.c **** testable void initializeFunctionModules(int version, uint8_t qrcode[]) {
 414:lvgl/src/extra/libs/qrcode/qrcodegen.c **** 	// Initialize QR Code
 415:lvgl/src/extra/libs/qrcode/qrcodegen.c **** 	int qrsize = version * 4 + 17;
 416:lvgl/src/extra/libs/qrcode/qrcodegen.c **** 	memset(qrcode, 0, ((qrsize * qrsize + 7) / 8 + 1) * sizeof(qrcode[0]));
 417:lvgl/src/extra/libs/qrcode/qrcodegen.c **** 	qrcode[0] = (uint8_t)qrsize;
 418:lvgl/src/extra/libs/qrcode/qrcodegen.c **** 	
 419:lvgl/src/extra/libs/qrcode/qrcodegen.c **** 	// Fill horizontal and vertical timing patterns
 420:lvgl/src/extra/libs/qrcode/qrcodegen.c **** 	fillRectangle(6, 0, 1, qrsize, qrcode);
ARM GAS  C:\usertemp\ccXENK9d.s 			page 10


 421:lvgl/src/extra/libs/qrcode/qrcodegen.c **** 	fillRectangle(0, 6, qrsize, 1, qrcode);
 422:lvgl/src/extra/libs/qrcode/qrcodegen.c **** 	
 423:lvgl/src/extra/libs/qrcode/qrcodegen.c **** 	// Fill 3 finder patterns (all corners except bottom right) and format bits
 424:lvgl/src/extra/libs/qrcode/qrcodegen.c **** 	fillRectangle(0, 0, 9, 9, qrcode);
 425:lvgl/src/extra/libs/qrcode/qrcodegen.c **** 	fillRectangle(qrsize - 8, 0, 8, 9, qrcode);
 426:lvgl/src/extra/libs/qrcode/qrcodegen.c **** 	fillRectangle(0, qrsize - 8, 9, 8, qrcode);
 427:lvgl/src/extra/libs/qrcode/qrcodegen.c **** 	
 428:lvgl/src/extra/libs/qrcode/qrcodegen.c **** 	// Fill numerous alignment patterns
 429:lvgl/src/extra/libs/qrcode/qrcodegen.c **** 	uint8_t alignPatPos[7];
 430:lvgl/src/extra/libs/qrcode/qrcodegen.c **** 	int numAlign = getAlignmentPatternPositions(version, alignPatPos);
 431:lvgl/src/extra/libs/qrcode/qrcodegen.c **** 	for (int i = 0; i < numAlign; i++) {
 432:lvgl/src/extra/libs/qrcode/qrcodegen.c **** 		for (int j = 0; j < numAlign; j++) {
 433:lvgl/src/extra/libs/qrcode/qrcodegen.c **** 			// Don't draw on the three finder corners
 434:lvgl/src/extra/libs/qrcode/qrcodegen.c **** 			if (!((i == 0 && j == 0) || (i == 0 && j == numAlign - 1) || (i == numAlign - 1 && j == 0)))
 435:lvgl/src/extra/libs/qrcode/qrcodegen.c **** 				fillRectangle(alignPatPos[i] - 2, alignPatPos[j] - 2, 5, 5, qrcode);
 436:lvgl/src/extra/libs/qrcode/qrcodegen.c **** 		}
 437:lvgl/src/extra/libs/qrcode/qrcodegen.c **** 	}
 438:lvgl/src/extra/libs/qrcode/qrcodegen.c **** 	
 439:lvgl/src/extra/libs/qrcode/qrcodegen.c **** 	// Fill version blocks
 440:lvgl/src/extra/libs/qrcode/qrcodegen.c **** 	if (version >= 7) {
 441:lvgl/src/extra/libs/qrcode/qrcodegen.c **** 		fillRectangle(qrsize - 11, 0, 3, 6, qrcode);
 442:lvgl/src/extra/libs/qrcode/qrcodegen.c **** 		fillRectangle(0, qrsize - 11, 6, 3, qrcode);
 443:lvgl/src/extra/libs/qrcode/qrcodegen.c **** 	}
 444:lvgl/src/extra/libs/qrcode/qrcodegen.c **** }
 445:lvgl/src/extra/libs/qrcode/qrcodegen.c **** 
 446:lvgl/src/extra/libs/qrcode/qrcodegen.c **** 
 447:lvgl/src/extra/libs/qrcode/qrcodegen.c **** // Draws white function modules and possibly some black modules onto the given QR Code, without cha
 448:lvgl/src/extra/libs/qrcode/qrcodegen.c **** // non-function modules. This does not draw the format bits. This requires all function modules to 
 449:lvgl/src/extra/libs/qrcode/qrcodegen.c **** // marked black (namely by initializeFunctionModules()), because this may skip redrawing black func
 450:lvgl/src/extra/libs/qrcode/qrcodegen.c **** static void drawWhiteFunctionModules(uint8_t qrcode[], int version) {
 451:lvgl/src/extra/libs/qrcode/qrcodegen.c **** 	// Draw horizontal and vertical timing patterns
 452:lvgl/src/extra/libs/qrcode/qrcodegen.c **** 	int qrsize = qrcodegen_getSize(qrcode);
 453:lvgl/src/extra/libs/qrcode/qrcodegen.c **** 	for (int i = 7; i < qrsize - 7; i += 2) {
 454:lvgl/src/extra/libs/qrcode/qrcodegen.c **** 		setModule(qrcode, 6, i, false);
 455:lvgl/src/extra/libs/qrcode/qrcodegen.c **** 		setModule(qrcode, i, 6, false);
 456:lvgl/src/extra/libs/qrcode/qrcodegen.c **** 	}
 457:lvgl/src/extra/libs/qrcode/qrcodegen.c **** 	
 458:lvgl/src/extra/libs/qrcode/qrcodegen.c **** 	// Draw 3 finder patterns (all corners except bottom right; overwrites some timing modules)
 459:lvgl/src/extra/libs/qrcode/qrcodegen.c **** 	for (int dy = -4; dy <= 4; dy++) {
 460:lvgl/src/extra/libs/qrcode/qrcodegen.c **** 		for (int dx = -4; dx <= 4; dx++) {
 461:lvgl/src/extra/libs/qrcode/qrcodegen.c **** 			int dist = abs(dx);
 462:lvgl/src/extra/libs/qrcode/qrcodegen.c **** 			if (abs(dy) > dist)
 463:lvgl/src/extra/libs/qrcode/qrcodegen.c **** 				dist = abs(dy);
 464:lvgl/src/extra/libs/qrcode/qrcodegen.c **** 			if (dist == 2 || dist == 4) {
 465:lvgl/src/extra/libs/qrcode/qrcodegen.c **** 				setModuleBounded(qrcode, 3 + dx, 3 + dy, false);
 466:lvgl/src/extra/libs/qrcode/qrcodegen.c **** 				setModuleBounded(qrcode, qrsize - 4 + dx, 3 + dy, false);
 467:lvgl/src/extra/libs/qrcode/qrcodegen.c **** 				setModuleBounded(qrcode, 3 + dx, qrsize - 4 + dy, false);
 468:lvgl/src/extra/libs/qrcode/qrcodegen.c **** 			}
 469:lvgl/src/extra/libs/qrcode/qrcodegen.c **** 		}
 470:lvgl/src/extra/libs/qrcode/qrcodegen.c **** 	}
 471:lvgl/src/extra/libs/qrcode/qrcodegen.c **** 	
 472:lvgl/src/extra/libs/qrcode/qrcodegen.c **** 	// Draw numerous alignment patterns
 473:lvgl/src/extra/libs/qrcode/qrcodegen.c **** 	uint8_t alignPatPos[7];
 474:lvgl/src/extra/libs/qrcode/qrcodegen.c **** 	int numAlign = getAlignmentPatternPositions(version, alignPatPos);
 475:lvgl/src/extra/libs/qrcode/qrcodegen.c **** 	for (int i = 0; i < numAlign; i++) {
 476:lvgl/src/extra/libs/qrcode/qrcodegen.c **** 		for (int j = 0; j < numAlign; j++) {
 477:lvgl/src/extra/libs/qrcode/qrcodegen.c **** 			if ((i == 0 && j == 0) || (i == 0 && j == numAlign - 1) || (i == numAlign - 1 && j == 0))
ARM GAS  C:\usertemp\ccXENK9d.s 			page 11


 478:lvgl/src/extra/libs/qrcode/qrcodegen.c **** 				continue;  // Don't draw on the three finder corners
 479:lvgl/src/extra/libs/qrcode/qrcodegen.c **** 			for (int dy = -1; dy <= 1; dy++) {
 480:lvgl/src/extra/libs/qrcode/qrcodegen.c **** 				for (int dx = -1; dx <= 1; dx++)
 481:lvgl/src/extra/libs/qrcode/qrcodegen.c **** 					setModule(qrcode, alignPatPos[i] + dx, alignPatPos[j] + dy, dx == 0 && dy == 0);
 482:lvgl/src/extra/libs/qrcode/qrcodegen.c **** 			}
 483:lvgl/src/extra/libs/qrcode/qrcodegen.c **** 		}
 484:lvgl/src/extra/libs/qrcode/qrcodegen.c **** 	}
 485:lvgl/src/extra/libs/qrcode/qrcodegen.c **** 	
 486:lvgl/src/extra/libs/qrcode/qrcodegen.c **** 	// Draw version blocks
 487:lvgl/src/extra/libs/qrcode/qrcodegen.c **** 	if (version >= 7) {
 488:lvgl/src/extra/libs/qrcode/qrcodegen.c **** 		// Calculate error correction code and pack bits
 489:lvgl/src/extra/libs/qrcode/qrcodegen.c **** 		int rem = version;  // version is uint6, in the range [7, 40]
 490:lvgl/src/extra/libs/qrcode/qrcodegen.c **** 		for (int i = 0; i < 12; i++)
 491:lvgl/src/extra/libs/qrcode/qrcodegen.c **** 			rem = (rem << 1) ^ ((rem >> 11) * 0x1F25);
 492:lvgl/src/extra/libs/qrcode/qrcodegen.c **** 		long bits = (long)version << 12 | rem;  // uint18
 493:lvgl/src/extra/libs/qrcode/qrcodegen.c **** 		assert(bits >> 18 == 0);
 494:lvgl/src/extra/libs/qrcode/qrcodegen.c **** 		
 495:lvgl/src/extra/libs/qrcode/qrcodegen.c **** 		// Draw two copies
 496:lvgl/src/extra/libs/qrcode/qrcodegen.c **** 		for (int i = 0; i < 6; i++) {
 497:lvgl/src/extra/libs/qrcode/qrcodegen.c **** 			for (int j = 0; j < 3; j++) {
 498:lvgl/src/extra/libs/qrcode/qrcodegen.c **** 				int k = qrsize - 11 + j;
 499:lvgl/src/extra/libs/qrcode/qrcodegen.c **** 				setModule(qrcode, k, i, (bits & 1) != 0);
 500:lvgl/src/extra/libs/qrcode/qrcodegen.c **** 				setModule(qrcode, i, k, (bits & 1) != 0);
 501:lvgl/src/extra/libs/qrcode/qrcodegen.c **** 				bits >>= 1;
 502:lvgl/src/extra/libs/qrcode/qrcodegen.c **** 			}
 503:lvgl/src/extra/libs/qrcode/qrcodegen.c **** 		}
 504:lvgl/src/extra/libs/qrcode/qrcodegen.c **** 	}
 505:lvgl/src/extra/libs/qrcode/qrcodegen.c **** }
 506:lvgl/src/extra/libs/qrcode/qrcodegen.c **** 
 507:lvgl/src/extra/libs/qrcode/qrcodegen.c **** 
 508:lvgl/src/extra/libs/qrcode/qrcodegen.c **** // Draws two copies of the format bits (with its own error correction code) based
 509:lvgl/src/extra/libs/qrcode/qrcodegen.c **** // on the given mask and error correction level. This always draws all modules of
 510:lvgl/src/extra/libs/qrcode/qrcodegen.c **** // the format bits, unlike drawWhiteFunctionModules() which might skip black modules.
 511:lvgl/src/extra/libs/qrcode/qrcodegen.c **** static void drawFormatBits(enum qrcodegen_Ecc ecl, enum qrcodegen_Mask mask, uint8_t qrcode[]) {
 512:lvgl/src/extra/libs/qrcode/qrcodegen.c **** 	// Calculate error correction code and pack bits
 513:lvgl/src/extra/libs/qrcode/qrcodegen.c **** 	assert(0 <= (int)mask && (int)mask <= 7);
 514:lvgl/src/extra/libs/qrcode/qrcodegen.c **** 	static const int table[] = {1, 0, 3, 2};
 515:lvgl/src/extra/libs/qrcode/qrcodegen.c **** 	int data = table[(int)ecl] << 3 | (int)mask;  // errCorrLvl is uint2, mask is uint3
 516:lvgl/src/extra/libs/qrcode/qrcodegen.c **** 	int rem = data;
 517:lvgl/src/extra/libs/qrcode/qrcodegen.c **** 	for (int i = 0; i < 10; i++)
 518:lvgl/src/extra/libs/qrcode/qrcodegen.c **** 		rem = (rem << 1) ^ ((rem >> 9) * 0x537);
 519:lvgl/src/extra/libs/qrcode/qrcodegen.c **** 	int bits = (data << 10 | rem) ^ 0x5412;  // uint15
 520:lvgl/src/extra/libs/qrcode/qrcodegen.c **** 	assert(bits >> 15 == 0);
 521:lvgl/src/extra/libs/qrcode/qrcodegen.c **** 	
 522:lvgl/src/extra/libs/qrcode/qrcodegen.c **** 	// Draw first copy
 523:lvgl/src/extra/libs/qrcode/qrcodegen.c **** 	for (int i = 0; i <= 5; i++)
 524:lvgl/src/extra/libs/qrcode/qrcodegen.c **** 		setModule(qrcode, 8, i, getBit(bits, i));
 525:lvgl/src/extra/libs/qrcode/qrcodegen.c **** 	setModule(qrcode, 8, 7, getBit(bits, 6));
 526:lvgl/src/extra/libs/qrcode/qrcodegen.c **** 	setModule(qrcode, 8, 8, getBit(bits, 7));
 527:lvgl/src/extra/libs/qrcode/qrcodegen.c **** 	setModule(qrcode, 7, 8, getBit(bits, 8));
 528:lvgl/src/extra/libs/qrcode/qrcodegen.c **** 	for (int i = 9; i < 15; i++)
 529:lvgl/src/extra/libs/qrcode/qrcodegen.c **** 		setModule(qrcode, 14 - i, 8, getBit(bits, i));
 530:lvgl/src/extra/libs/qrcode/qrcodegen.c **** 	
 531:lvgl/src/extra/libs/qrcode/qrcodegen.c **** 	// Draw second copy
 532:lvgl/src/extra/libs/qrcode/qrcodegen.c **** 	int qrsize = qrcodegen_getSize(qrcode);
 533:lvgl/src/extra/libs/qrcode/qrcodegen.c **** 	for (int i = 0; i < 8; i++)
 534:lvgl/src/extra/libs/qrcode/qrcodegen.c **** 		setModule(qrcode, qrsize - 1 - i, 8, getBit(bits, i));
ARM GAS  C:\usertemp\ccXENK9d.s 			page 12


 535:lvgl/src/extra/libs/qrcode/qrcodegen.c **** 	for (int i = 8; i < 15; i++)
 536:lvgl/src/extra/libs/qrcode/qrcodegen.c **** 		setModule(qrcode, 8, qrsize - 15 + i, getBit(bits, i));
 537:lvgl/src/extra/libs/qrcode/qrcodegen.c **** 	setModule(qrcode, 8, qrsize - 8, true);  // Always black
 538:lvgl/src/extra/libs/qrcode/qrcodegen.c **** }
 539:lvgl/src/extra/libs/qrcode/qrcodegen.c **** 
 540:lvgl/src/extra/libs/qrcode/qrcodegen.c **** 
 541:lvgl/src/extra/libs/qrcode/qrcodegen.c **** // Calculates and stores an ascending list of positions of alignment patterns
 542:lvgl/src/extra/libs/qrcode/qrcodegen.c **** // for this version number, returning the length of the list (in the range [0,7]).
 543:lvgl/src/extra/libs/qrcode/qrcodegen.c **** // Each position is in the range [0,177), and are used on both the x and y axes.
 544:lvgl/src/extra/libs/qrcode/qrcodegen.c **** // This could be implemented as lookup table of 40 variable-length lists of unsigned bytes.
 545:lvgl/src/extra/libs/qrcode/qrcodegen.c **** testable int getAlignmentPatternPositions(int version, uint8_t result[7]) {
  94              		.loc 1 545 75 is_stmt 1 view -0
  95              		.cfi_startproc
  96              		@ args = 0, pretend = 0, frame = 0
  97              		@ frame_needed = 0, uses_anonymous_args = 0
 546:lvgl/src/extra/libs/qrcode/qrcodegen.c **** 	if (version == 1)
  98              		.loc 1 546 2 view .LVU18
  99              		.loc 1 546 5 is_stmt 0 view .LVU19
 100 0000 0128     		cmp	r0, #1
 101 0002 2DD0     		beq	.L10
 102 0004 0246     		mov	r2, r0
 547:lvgl/src/extra/libs/qrcode/qrcodegen.c **** 		return 0;
 548:lvgl/src/extra/libs/qrcode/qrcodegen.c **** 	int numAlign = version / 7 + 2;
 103              		.loc 1 548 2 is_stmt 1 view .LVU20
 104              		.loc 1 548 25 is_stmt 0 view .LVU21
 105 0006 1C48     		ldr	r0, .L20
 106              	.LVL8:
 107              		.loc 1 548 25 view .LVU22
 108 0008 80FB0230 		smull	r3, r0, r0, r2
 109 000c 1044     		add	r0, r0, r2
 110 000e D317     		asrs	r3, r2, #31
 111 0010 C3EBA003 		rsb	r3, r3, r0, asr #2
 112              		.loc 1 548 6 view .LVU23
 113 0014 981C     		adds	r0, r3, #2
 114              	.LVL9:
 549:lvgl/src/extra/libs/qrcode/qrcodegen.c **** 	int step = (version == 32) ? 26 :
 115              		.loc 1 549 2 is_stmt 1 view .LVU24
 116              		.loc 1 549 34 is_stmt 0 view .LVU25
 117 0016 202A     		cmp	r2, #32
 118 0018 12D0     		beq	.L11
 545:lvgl/src/extra/libs/qrcode/qrcodegen.c **** 	if (version == 1)
 119              		.loc 1 545 75 view .LVU26
 120 001a 00B5     		push	{lr}
 121              	.LCFI1:
 122              		.cfi_def_cfa_offset 4
 123              		.cfi_offset 14, -4
 550:lvgl/src/extra/libs/qrcode/qrcodegen.c **** 		(version*4 + numAlign*2 + 1) / (numAlign*2 - 2) * 2;
 124              		.loc 1 550 14 view .LVU27
 125 001c 00EB420C 		add	ip, r0, r2, lsl #1
 126 0020 4FEA4C0C 		lsl	ip, ip, #1
 127              		.loc 1 550 27 view .LVU28
 128 0024 0CF1010C 		add	ip, ip, #1
 129              		.loc 1 550 46 view .LVU29
 130 0028 03F1010E 		add	lr, r3, #1
 131 002c 4FEA4E0E 		lsl	lr, lr, #1
 132              		.loc 1 550 32 view .LVU30
 133 0030 9CFBFEFC 		sdiv	ip, ip, lr
ARM GAS  C:\usertemp\ccXENK9d.s 			page 13


 549:lvgl/src/extra/libs/qrcode/qrcodegen.c **** 	int step = (version == 32) ? 26 :
 134              		.loc 1 549 34 discriminator 1 view .LVU31
 135 0034 4FEA4C0C 		lsl	ip, ip, #1
 136              	.LVL10:
 551:lvgl/src/extra/libs/qrcode/qrcodegen.c **** 	for (int i = numAlign - 1, pos = version * 4 + 10; i >= 1; i--, pos -= step)
 137              		.loc 1 551 2 is_stmt 1 view .LVU32
 138              	.LBB4:
 139              		.loc 1 551 7 view .LVU33
 140              		.loc 1 551 11 is_stmt 0 view .LVU34
 141 0038 0133     		adds	r3, r3, #1
 142              	.LVL11:
 143              		.loc 1 551 43 view .LVU35
 144 003a 9200     		lsls	r2, r2, #2
 145              	.LVL12:
 146              		.loc 1 551 29 view .LVU36
 147 003c 0A32     		adds	r2, r2, #10
 148              	.LVL13:
 149              		.loc 1 551 2 view .LVU37
 150 003e 09E0     		b	.L8
 151              	.LVL14:
 152              	.L11:
 153              	.LCFI2:
 154              		.cfi_def_cfa_offset 0
 155              		.cfi_restore 14
 156              		.loc 1 551 2 view .LVU38
 157              	.LBE4:
 549:lvgl/src/extra/libs/qrcode/qrcodegen.c **** 		(version*4 + numAlign*2 + 1) / (numAlign*2 - 2) * 2;
 158              		.loc 1 549 34 discriminator 2 view .LVU39
 159 0040 4FF01A0C 		mov	ip, #26
 160              	.LVL15:
 161              		.loc 1 551 2 is_stmt 1 view .LVU40
 162              	.LBB5:
 163              		.loc 1 551 7 view .LVU41
 164              		.loc 1 551 11 is_stmt 0 view .LVU42
 165 0044 0133     		adds	r3, r3, #1
 166              	.LVL16:
 167              		.loc 1 551 43 view .LVU43
 168 0046 9200     		lsls	r2, r2, #2
 169              	.LVL17:
 170              		.loc 1 551 29 view .LVU44
 171 0048 0A32     		adds	r2, r2, #10
 172              	.LVL18:
 173              		.loc 1 551 29 view .LVU45
 174 004a 0FE0     		b	.L14
 175              	.L9:
 176              	.LCFI3:
 177              		.cfi_def_cfa_offset 4
 178              		.cfi_offset 14, -4
 552:lvgl/src/extra/libs/qrcode/qrcodegen.c **** 		result[i] = pos;
 179              		.loc 1 552 3 is_stmt 1 view .LVU46
 180              		.loc 1 552 13 is_stmt 0 view .LVU47
 181 004c CA54     		strb	r2, [r1, r3]
 551:lvgl/src/extra/libs/qrcode/qrcodegen.c **** 	for (int i = numAlign - 1, pos = version * 4 + 10; i >= 1; i--, pos -= step)
 182              		.loc 1 551 64 is_stmt 1 discriminator 3 view .LVU48
 551:lvgl/src/extra/libs/qrcode/qrcodegen.c **** 	for (int i = numAlign - 1, pos = version * 4 + 10; i >= 1; i--, pos -= step)
 183              		.loc 1 551 62 is_stmt 0 discriminator 3 view .LVU49
 184 004e 013B     		subs	r3, r3, #1
ARM GAS  C:\usertemp\ccXENK9d.s 			page 14


 185              	.LVL19:
 551:lvgl/src/extra/libs/qrcode/qrcodegen.c **** 	for (int i = numAlign - 1, pos = version * 4 + 10; i >= 1; i--, pos -= step)
 186              		.loc 1 551 70 discriminator 3 view .LVU50
 187 0050 A2EB0C02 		sub	r2, r2, ip
 188              	.LVL20:
 189              	.L8:
 551:lvgl/src/extra/libs/qrcode/qrcodegen.c **** 	for (int i = numAlign - 1, pos = version * 4 + 10; i >= 1; i--, pos -= step)
 190              		.loc 1 551 55 is_stmt 1 discriminator 1 view .LVU51
 191 0054 002B     		cmp	r3, #0
 192 0056 F9DC     		bgt	.L9
 551:lvgl/src/extra/libs/qrcode/qrcodegen.c **** 	for (int i = numAlign - 1, pos = version * 4 + 10; i >= 1; i--, pos -= step)
 193              		.loc 1 551 55 is_stmt 0 discriminator 1 view .LVU52
 194              	.LBE5:
 553:lvgl/src/extra/libs/qrcode/qrcodegen.c **** 	result[0] = 6;
 195              		.loc 1 553 2 is_stmt 1 view .LVU53
 196              		.loc 1 553 12 is_stmt 0 view .LVU54
 197 0058 0623     		movs	r3, #6
 198              	.LVL21:
 199              		.loc 1 553 12 view .LVU55
 200 005a 0B70     		strb	r3, [r1]
 554:lvgl/src/extra/libs/qrcode/qrcodegen.c **** 	return numAlign;
 201              		.loc 1 554 2 is_stmt 1 view .LVU56
 555:lvgl/src/extra/libs/qrcode/qrcodegen.c **** }
 202              		.loc 1 555 1 is_stmt 0 view .LVU57
 203 005c 5DF804FB 		ldr	pc, [sp], #4
 204              	.LVL22:
 205              	.L10:
 206              	.LCFI4:
 207              		.cfi_def_cfa_offset 0
 208              		.cfi_restore 14
 547:lvgl/src/extra/libs/qrcode/qrcodegen.c **** 	int numAlign = version / 7 + 2;
 209              		.loc 1 547 10 view .LVU58
 210 0060 0020     		movs	r0, #0
 211              	.LVL23:
 547:lvgl/src/extra/libs/qrcode/qrcodegen.c **** 	int numAlign = version / 7 + 2;
 212              		.loc 1 547 10 view .LVU59
 213 0062 7047     		bx	lr
 214              	.LVL24:
 215              	.L15:
 216              	.LBB6:
 552:lvgl/src/extra/libs/qrcode/qrcodegen.c **** 	result[0] = 6;
 217              		.loc 1 552 3 is_stmt 1 view .LVU60
 552:lvgl/src/extra/libs/qrcode/qrcodegen.c **** 	result[0] = 6;
 218              		.loc 1 552 13 is_stmt 0 view .LVU61
 219 0064 CA54     		strb	r2, [r1, r3]
 551:lvgl/src/extra/libs/qrcode/qrcodegen.c **** 		result[i] = pos;
 220              		.loc 1 551 64 is_stmt 1 discriminator 3 view .LVU62
 551:lvgl/src/extra/libs/qrcode/qrcodegen.c **** 		result[i] = pos;
 221              		.loc 1 551 62 is_stmt 0 discriminator 3 view .LVU63
 222 0066 013B     		subs	r3, r3, #1
 223              	.LVL25:
 551:lvgl/src/extra/libs/qrcode/qrcodegen.c **** 		result[i] = pos;
 224              		.loc 1 551 70 discriminator 3 view .LVU64
 225 0068 A2EB0C02 		sub	r2, r2, ip
 226              	.LVL26:
 227              	.L14:
 551:lvgl/src/extra/libs/qrcode/qrcodegen.c **** 		result[i] = pos;
ARM GAS  C:\usertemp\ccXENK9d.s 			page 15


 228              		.loc 1 551 55 is_stmt 1 discriminator 1 view .LVU65
 229 006c 002B     		cmp	r3, #0
 230 006e F9DC     		bgt	.L15
 551:lvgl/src/extra/libs/qrcode/qrcodegen.c **** 		result[i] = pos;
 231              		.loc 1 551 55 is_stmt 0 discriminator 1 view .LVU66
 232              	.LBE6:
 553:lvgl/src/extra/libs/qrcode/qrcodegen.c **** 	return numAlign;
 233              		.loc 1 553 2 is_stmt 1 view .LVU67
 553:lvgl/src/extra/libs/qrcode/qrcodegen.c **** 	return numAlign;
 234              		.loc 1 553 12 is_stmt 0 view .LVU68
 235 0070 0623     		movs	r3, #6
 236              	.LVL27:
 553:lvgl/src/extra/libs/qrcode/qrcodegen.c **** 	return numAlign;
 237              		.loc 1 553 12 view .LVU69
 238 0072 0B70     		strb	r3, [r1]
 554:lvgl/src/extra/libs/qrcode/qrcodegen.c **** }
 239              		.loc 1 554 2 is_stmt 1 view .LVU70
 240              		.loc 1 555 1 is_stmt 0 view .LVU71
 241 0074 7047     		bx	lr
 242              	.L21:
 243 0076 00BF     		.align	2
 244              	.L20:
 245 0078 93244992 		.word	-1840700269
 246              		.cfi_endproc
 247              	.LFE14:
 249              		.section	.text.hasFinderLikePattern,"ax",%progbits
 250              		.align	1
 251              		.syntax unified
 252              		.thumb
 253              		.thumb_func
 255              	hasFinderLikePattern:
 256              	.LVL28:
 257              	.LFB20:
 556:lvgl/src/extra/libs/qrcode/qrcodegen.c **** 
 557:lvgl/src/extra/libs/qrcode/qrcodegen.c **** 
 558:lvgl/src/extra/libs/qrcode/qrcodegen.c **** // Sets every pixel in the range [left : left + width] * [top : top + height] to black.
 559:lvgl/src/extra/libs/qrcode/qrcodegen.c **** static void fillRectangle(int left, int top, int width, int height, uint8_t qrcode[]) {
 560:lvgl/src/extra/libs/qrcode/qrcodegen.c **** 	for (int dy = 0; dy < height; dy++) {
 561:lvgl/src/extra/libs/qrcode/qrcodegen.c **** 		for (int dx = 0; dx < width; dx++)
 562:lvgl/src/extra/libs/qrcode/qrcodegen.c **** 			setModule(qrcode, left + dx, top + dy, true);
 563:lvgl/src/extra/libs/qrcode/qrcodegen.c **** 	}
 564:lvgl/src/extra/libs/qrcode/qrcodegen.c **** }
 565:lvgl/src/extra/libs/qrcode/qrcodegen.c **** 
 566:lvgl/src/extra/libs/qrcode/qrcodegen.c **** 
 567:lvgl/src/extra/libs/qrcode/qrcodegen.c **** 
 568:lvgl/src/extra/libs/qrcode/qrcodegen.c **** /*---- Drawing data modules and masking ----*/
 569:lvgl/src/extra/libs/qrcode/qrcodegen.c **** 
 570:lvgl/src/extra/libs/qrcode/qrcodegen.c **** // Draws the raw codewords (including data and ECC) onto the given QR Code. This requires the initi
 571:lvgl/src/extra/libs/qrcode/qrcodegen.c **** // the QR Code to be black at function modules and white at codeword modules (including unused rema
 572:lvgl/src/extra/libs/qrcode/qrcodegen.c **** static void drawCodewords(const uint8_t data[], int dataLen, uint8_t qrcode[]) {
 573:lvgl/src/extra/libs/qrcode/qrcodegen.c **** 	int qrsize = qrcodegen_getSize(qrcode);
 574:lvgl/src/extra/libs/qrcode/qrcodegen.c **** 	int i = 0;  // Bit index into the data
 575:lvgl/src/extra/libs/qrcode/qrcodegen.c **** 	// Do the funny zigzag scan
 576:lvgl/src/extra/libs/qrcode/qrcodegen.c **** 	for (int right = qrsize - 1; right >= 1; right -= 2) {  // Index of right column in each column pa
 577:lvgl/src/extra/libs/qrcode/qrcodegen.c **** 		if (right == 6)
 578:lvgl/src/extra/libs/qrcode/qrcodegen.c **** 			right = 5;
 579:lvgl/src/extra/libs/qrcode/qrcodegen.c **** 		for (int vert = 0; vert < qrsize; vert++) {  // Vertical counter
ARM GAS  C:\usertemp\ccXENK9d.s 			page 16


 580:lvgl/src/extra/libs/qrcode/qrcodegen.c **** 			for (int j = 0; j < 2; j++) {
 581:lvgl/src/extra/libs/qrcode/qrcodegen.c **** 				int x = right - j;  // Actual x coordinate
 582:lvgl/src/extra/libs/qrcode/qrcodegen.c **** 				bool upward = ((right + 1) & 2) == 0;
 583:lvgl/src/extra/libs/qrcode/qrcodegen.c **** 				int y = upward ? qrsize - 1 - vert : vert;  // Actual y coordinate
 584:lvgl/src/extra/libs/qrcode/qrcodegen.c **** 				if (!getModule(qrcode, x, y) && i < dataLen * 8) {
 585:lvgl/src/extra/libs/qrcode/qrcodegen.c **** 					bool black = getBit(data[i >> 3], 7 - (i & 7));
 586:lvgl/src/extra/libs/qrcode/qrcodegen.c **** 					setModule(qrcode, x, y, black);
 587:lvgl/src/extra/libs/qrcode/qrcodegen.c **** 					i++;
 588:lvgl/src/extra/libs/qrcode/qrcodegen.c **** 				}
 589:lvgl/src/extra/libs/qrcode/qrcodegen.c **** 				// If this QR Code has any remainder bits (0 to 7), they were assigned as
 590:lvgl/src/extra/libs/qrcode/qrcodegen.c **** 				// 0/false/white by the constructor and are left unchanged by this method
 591:lvgl/src/extra/libs/qrcode/qrcodegen.c **** 			}
 592:lvgl/src/extra/libs/qrcode/qrcodegen.c **** 		}
 593:lvgl/src/extra/libs/qrcode/qrcodegen.c **** 	}
 594:lvgl/src/extra/libs/qrcode/qrcodegen.c **** 	assert(i == dataLen * 8);
 595:lvgl/src/extra/libs/qrcode/qrcodegen.c **** }
 596:lvgl/src/extra/libs/qrcode/qrcodegen.c **** 
 597:lvgl/src/extra/libs/qrcode/qrcodegen.c **** 
 598:lvgl/src/extra/libs/qrcode/qrcodegen.c **** // XORs the codeword modules in this QR Code with the given mask pattern.
 599:lvgl/src/extra/libs/qrcode/qrcodegen.c **** // The function modules must be marked and the codeword bits must be drawn
 600:lvgl/src/extra/libs/qrcode/qrcodegen.c **** // before masking. Due to the arithmetic of XOR, calling applyMask() with
 601:lvgl/src/extra/libs/qrcode/qrcodegen.c **** // the same mask value a second time will undo the mask. A final well-formed
 602:lvgl/src/extra/libs/qrcode/qrcodegen.c **** // QR Code needs exactly one (not zero, two, etc.) mask applied.
 603:lvgl/src/extra/libs/qrcode/qrcodegen.c **** static void applyMask(const uint8_t functionModules[], uint8_t qrcode[], enum qrcodegen_Mask mask) 
 604:lvgl/src/extra/libs/qrcode/qrcodegen.c **** 	assert(0 <= (int)mask && (int)mask <= 7);  // Disallows qrcodegen_Mask_AUTO
 605:lvgl/src/extra/libs/qrcode/qrcodegen.c **** 	int qrsize = qrcodegen_getSize(qrcode);
 606:lvgl/src/extra/libs/qrcode/qrcodegen.c **** 	for (int y = 0; y < qrsize; y++) {
 607:lvgl/src/extra/libs/qrcode/qrcodegen.c **** 		for (int x = 0; x < qrsize; x++) {
 608:lvgl/src/extra/libs/qrcode/qrcodegen.c **** 			if (getModule(functionModules, x, y))
 609:lvgl/src/extra/libs/qrcode/qrcodegen.c **** 				continue;
 610:lvgl/src/extra/libs/qrcode/qrcodegen.c **** 			bool invert;
 611:lvgl/src/extra/libs/qrcode/qrcodegen.c **** 			switch ((int)mask) {
 612:lvgl/src/extra/libs/qrcode/qrcodegen.c **** 				case 0:  invert = (x + y) % 2 == 0;                    break;
 613:lvgl/src/extra/libs/qrcode/qrcodegen.c **** 				case 1:  invert = y % 2 == 0;                          break;
 614:lvgl/src/extra/libs/qrcode/qrcodegen.c **** 				case 2:  invert = x % 3 == 0;                          break;
 615:lvgl/src/extra/libs/qrcode/qrcodegen.c **** 				case 3:  invert = (x + y) % 3 == 0;                    break;
 616:lvgl/src/extra/libs/qrcode/qrcodegen.c **** 				case 4:  invert = (x / 3 + y / 2) % 2 == 0;            break;
 617:lvgl/src/extra/libs/qrcode/qrcodegen.c **** 				case 5:  invert = x * y % 2 + x * y % 3 == 0;          break;
 618:lvgl/src/extra/libs/qrcode/qrcodegen.c **** 				case 6:  invert = (x * y % 2 + x * y % 3) % 2 == 0;    break;
 619:lvgl/src/extra/libs/qrcode/qrcodegen.c **** 				case 7:  invert = ((x + y) % 2 + x * y % 3) % 2 == 0;  break;
 620:lvgl/src/extra/libs/qrcode/qrcodegen.c **** 				default:  assert(false);  return;
 621:lvgl/src/extra/libs/qrcode/qrcodegen.c **** 			}
 622:lvgl/src/extra/libs/qrcode/qrcodegen.c **** 			bool val = getModule(qrcode, x, y);
 623:lvgl/src/extra/libs/qrcode/qrcodegen.c **** 			setModule(qrcode, x, y, val ^ invert);
 624:lvgl/src/extra/libs/qrcode/qrcodegen.c **** 		}
 625:lvgl/src/extra/libs/qrcode/qrcodegen.c **** 	}
 626:lvgl/src/extra/libs/qrcode/qrcodegen.c **** }
 627:lvgl/src/extra/libs/qrcode/qrcodegen.c **** 
 628:lvgl/src/extra/libs/qrcode/qrcodegen.c **** 
 629:lvgl/src/extra/libs/qrcode/qrcodegen.c **** // Calculates and returns the penalty score based on state of the given QR Code's current modules.
 630:lvgl/src/extra/libs/qrcode/qrcodegen.c **** // This is used by the automatic mask choice algorithm to find the mask pattern that yields the low
 631:lvgl/src/extra/libs/qrcode/qrcodegen.c **** static long getPenaltyScore(const uint8_t qrcode[]) {
 632:lvgl/src/extra/libs/qrcode/qrcodegen.c **** 	int qrsize = qrcodegen_getSize(qrcode);
 633:lvgl/src/extra/libs/qrcode/qrcodegen.c **** 	long result = 0;
 634:lvgl/src/extra/libs/qrcode/qrcodegen.c **** 	
 635:lvgl/src/extra/libs/qrcode/qrcodegen.c **** 	// Adjacent modules in row having same color, and finder-like patterns
 636:lvgl/src/extra/libs/qrcode/qrcodegen.c **** 	for (int y = 0; y < qrsize; y++) {
ARM GAS  C:\usertemp\ccXENK9d.s 			page 17


 637:lvgl/src/extra/libs/qrcode/qrcodegen.c **** 		unsigned char runHistory[7] = {0};
 638:lvgl/src/extra/libs/qrcode/qrcodegen.c **** 		bool color = false;
 639:lvgl/src/extra/libs/qrcode/qrcodegen.c **** 		unsigned char runX = 0;
 640:lvgl/src/extra/libs/qrcode/qrcodegen.c **** 		for (int x = 0; x < qrsize; x++) {
 641:lvgl/src/extra/libs/qrcode/qrcodegen.c **** 			if (getModule(qrcode, x, y) == color) {
 642:lvgl/src/extra/libs/qrcode/qrcodegen.c **** 				runX++;
 643:lvgl/src/extra/libs/qrcode/qrcodegen.c **** 				if (runX == 5)
 644:lvgl/src/extra/libs/qrcode/qrcodegen.c **** 					result += PENALTY_N1;
 645:lvgl/src/extra/libs/qrcode/qrcodegen.c **** 				else if (runX > 5)
 646:lvgl/src/extra/libs/qrcode/qrcodegen.c **** 					result++;
 647:lvgl/src/extra/libs/qrcode/qrcodegen.c **** 			} else {
 648:lvgl/src/extra/libs/qrcode/qrcodegen.c **** 				addRunToHistory(runX, runHistory);
 649:lvgl/src/extra/libs/qrcode/qrcodegen.c **** 				if (!color && hasFinderLikePattern(runHistory))
 650:lvgl/src/extra/libs/qrcode/qrcodegen.c **** 					result += PENALTY_N3;
 651:lvgl/src/extra/libs/qrcode/qrcodegen.c **** 				color = getModule(qrcode, x, y);
 652:lvgl/src/extra/libs/qrcode/qrcodegen.c **** 				runX = 1;
 653:lvgl/src/extra/libs/qrcode/qrcodegen.c **** 			}
 654:lvgl/src/extra/libs/qrcode/qrcodegen.c **** 		}
 655:lvgl/src/extra/libs/qrcode/qrcodegen.c **** 		addRunToHistory(runX, runHistory);
 656:lvgl/src/extra/libs/qrcode/qrcodegen.c **** 		if (color)
 657:lvgl/src/extra/libs/qrcode/qrcodegen.c **** 			addRunToHistory(0, runHistory);  // Dummy run of white
 658:lvgl/src/extra/libs/qrcode/qrcodegen.c **** 		if (hasFinderLikePattern(runHistory))
 659:lvgl/src/extra/libs/qrcode/qrcodegen.c **** 			result += PENALTY_N3;
 660:lvgl/src/extra/libs/qrcode/qrcodegen.c **** 	}
 661:lvgl/src/extra/libs/qrcode/qrcodegen.c **** 	// Adjacent modules in column having same color, and finder-like patterns
 662:lvgl/src/extra/libs/qrcode/qrcodegen.c **** 	for (int x = 0; x < qrsize; x++) {
 663:lvgl/src/extra/libs/qrcode/qrcodegen.c **** 		unsigned char runHistory[7] = {0};
 664:lvgl/src/extra/libs/qrcode/qrcodegen.c **** 		bool color = false;
 665:lvgl/src/extra/libs/qrcode/qrcodegen.c **** 		unsigned char runY = 0;
 666:lvgl/src/extra/libs/qrcode/qrcodegen.c **** 		for (int y = 0; y < qrsize; y++) {
 667:lvgl/src/extra/libs/qrcode/qrcodegen.c **** 			if (getModule(qrcode, x, y) == color) {
 668:lvgl/src/extra/libs/qrcode/qrcodegen.c **** 				runY++;
 669:lvgl/src/extra/libs/qrcode/qrcodegen.c **** 				if (runY == 5)
 670:lvgl/src/extra/libs/qrcode/qrcodegen.c **** 					result += PENALTY_N1;
 671:lvgl/src/extra/libs/qrcode/qrcodegen.c **** 				else if (runY > 5)
 672:lvgl/src/extra/libs/qrcode/qrcodegen.c **** 					result++;
 673:lvgl/src/extra/libs/qrcode/qrcodegen.c **** 			} else {
 674:lvgl/src/extra/libs/qrcode/qrcodegen.c **** 				addRunToHistory(runY, runHistory);
 675:lvgl/src/extra/libs/qrcode/qrcodegen.c **** 				if (!color && hasFinderLikePattern(runHistory))
 676:lvgl/src/extra/libs/qrcode/qrcodegen.c **** 					result += PENALTY_N3;
 677:lvgl/src/extra/libs/qrcode/qrcodegen.c **** 				color = getModule(qrcode, x, y);
 678:lvgl/src/extra/libs/qrcode/qrcodegen.c **** 				runY = 1;
 679:lvgl/src/extra/libs/qrcode/qrcodegen.c **** 			}
 680:lvgl/src/extra/libs/qrcode/qrcodegen.c **** 		}
 681:lvgl/src/extra/libs/qrcode/qrcodegen.c **** 		addRunToHistory(runY, runHistory);
 682:lvgl/src/extra/libs/qrcode/qrcodegen.c **** 		if (color)
 683:lvgl/src/extra/libs/qrcode/qrcodegen.c **** 			addRunToHistory(0, runHistory);  // Dummy run of white
 684:lvgl/src/extra/libs/qrcode/qrcodegen.c **** 		if (hasFinderLikePattern(runHistory))
 685:lvgl/src/extra/libs/qrcode/qrcodegen.c **** 			result += PENALTY_N3;
 686:lvgl/src/extra/libs/qrcode/qrcodegen.c **** 	}
 687:lvgl/src/extra/libs/qrcode/qrcodegen.c **** 	
 688:lvgl/src/extra/libs/qrcode/qrcodegen.c **** 	// 2*2 blocks of modules having same color
 689:lvgl/src/extra/libs/qrcode/qrcodegen.c **** 	for (int y = 0; y < qrsize - 1; y++) {
 690:lvgl/src/extra/libs/qrcode/qrcodegen.c **** 		for (int x = 0; x < qrsize - 1; x++) {
 691:lvgl/src/extra/libs/qrcode/qrcodegen.c **** 			bool  color = getModule(qrcode, x, y);
 692:lvgl/src/extra/libs/qrcode/qrcodegen.c **** 			if (  color == getModule(qrcode, x + 1, y) &&
 693:lvgl/src/extra/libs/qrcode/qrcodegen.c **** 			      color == getModule(qrcode, x, y + 1) &&
ARM GAS  C:\usertemp\ccXENK9d.s 			page 18


 694:lvgl/src/extra/libs/qrcode/qrcodegen.c **** 			      color == getModule(qrcode, x + 1, y + 1))
 695:lvgl/src/extra/libs/qrcode/qrcodegen.c **** 				result += PENALTY_N2;
 696:lvgl/src/extra/libs/qrcode/qrcodegen.c **** 		}
 697:lvgl/src/extra/libs/qrcode/qrcodegen.c **** 	}
 698:lvgl/src/extra/libs/qrcode/qrcodegen.c **** 	
 699:lvgl/src/extra/libs/qrcode/qrcodegen.c **** 	// Balance of black and white modules
 700:lvgl/src/extra/libs/qrcode/qrcodegen.c **** 	int black = 0;
 701:lvgl/src/extra/libs/qrcode/qrcodegen.c **** 	for (int y = 0; y < qrsize; y++) {
 702:lvgl/src/extra/libs/qrcode/qrcodegen.c **** 		for (int x = 0; x < qrsize; x++) {
 703:lvgl/src/extra/libs/qrcode/qrcodegen.c **** 			if (getModule(qrcode, x, y))
 704:lvgl/src/extra/libs/qrcode/qrcodegen.c **** 				black++;
 705:lvgl/src/extra/libs/qrcode/qrcodegen.c **** 		}
 706:lvgl/src/extra/libs/qrcode/qrcodegen.c **** 	}
 707:lvgl/src/extra/libs/qrcode/qrcodegen.c **** 	int total = qrsize * qrsize;  // Note that size is odd, so black/total != 1/2
 708:lvgl/src/extra/libs/qrcode/qrcodegen.c **** 	// Compute the smallest integer k >= 0 such that (45-5k)% <= black/total <= (55+5k)%
 709:lvgl/src/extra/libs/qrcode/qrcodegen.c **** 	int k = (int)((labs(black * 20L - total * 10L) + total - 1) / total) - 1;
 710:lvgl/src/extra/libs/qrcode/qrcodegen.c **** 	result += k * PENALTY_N4;
 711:lvgl/src/extra/libs/qrcode/qrcodegen.c **** 	return result;
 712:lvgl/src/extra/libs/qrcode/qrcodegen.c **** }
 713:lvgl/src/extra/libs/qrcode/qrcodegen.c **** 
 714:lvgl/src/extra/libs/qrcode/qrcodegen.c **** 
 715:lvgl/src/extra/libs/qrcode/qrcodegen.c **** // Inserts the given value to the front of the given array, which shifts over the
 716:lvgl/src/extra/libs/qrcode/qrcodegen.c **** // existing values and deletes the last value. A helper function for getPenaltyScore().
 717:lvgl/src/extra/libs/qrcode/qrcodegen.c **** static void addRunToHistory(unsigned char run, unsigned char history[7]) {
 718:lvgl/src/extra/libs/qrcode/qrcodegen.c **** 	memmove(&history[1], &history[0], 6 * sizeof(history[0]));
 719:lvgl/src/extra/libs/qrcode/qrcodegen.c **** 	history[0] = run;
 720:lvgl/src/extra/libs/qrcode/qrcodegen.c **** }
 721:lvgl/src/extra/libs/qrcode/qrcodegen.c **** 
 722:lvgl/src/extra/libs/qrcode/qrcodegen.c **** 
 723:lvgl/src/extra/libs/qrcode/qrcodegen.c **** // Tests whether the given run history has the pattern of ratio 1:1:3:1:1 in the middle, and
 724:lvgl/src/extra/libs/qrcode/qrcodegen.c **** // surrounded by at least 4 on either or both ends. A helper function for getPenaltyScore().
 725:lvgl/src/extra/libs/qrcode/qrcodegen.c **** // Must only be called immediately after a run of white modules has ended.
 726:lvgl/src/extra/libs/qrcode/qrcodegen.c **** static bool hasFinderLikePattern(const unsigned char runHistory[7]) {
 258              		.loc 1 726 69 is_stmt 1 view -0
 259              		.cfi_startproc
 260              		@ args = 0, pretend = 0, frame = 0
 261              		@ frame_needed = 0, uses_anonymous_args = 0
 262              		@ link register save eliminated.
 727:lvgl/src/extra/libs/qrcode/qrcodegen.c **** 	unsigned char n = runHistory[1];
 263              		.loc 1 727 2 view .LVU73
 264              		.loc 1 727 16 is_stmt 0 view .LVU74
 265 0000 4378     		ldrb	r3, [r0, #1]	@ zero_extendqisi2
 266              	.LVL29:
 728:lvgl/src/extra/libs/qrcode/qrcodegen.c **** 	// The maximum QR Code size is 177, hence the run length n <= 177.
 729:lvgl/src/extra/libs/qrcode/qrcodegen.c **** 	// Arithmetic is promoted to int, so n*4 will not overflow.
 730:lvgl/src/extra/libs/qrcode/qrcodegen.c **** 	return n > 0 && runHistory[2] == n && runHistory[4] == n && runHistory[5] == n
 267              		.loc 1 730 2 is_stmt 1 view .LVU75
 731:lvgl/src/extra/libs/qrcode/qrcodegen.c **** 		&& runHistory[3] == n * 3 && (runHistory[0] >= n * 4 || runHistory[6] >= n * 4);
 268              		.loc 1 731 29 is_stmt 0 view .LVU76
 269 0002 FBB1     		cbz	r3, .L24
 730:lvgl/src/extra/libs/qrcode/qrcodegen.c **** 		&& runHistory[3] == n * 3 && (runHistory[0] >= n * 4 || runHistory[6] >= n * 4);
 270              		.loc 1 730 28 view .LVU77
 271 0004 8278     		ldrb	r2, [r0, #2]	@ zero_extendqisi2
 730:lvgl/src/extra/libs/qrcode/qrcodegen.c **** 		&& runHistory[3] == n * 3 && (runHistory[0] >= n * 4 || runHistory[6] >= n * 4);
 272              		.loc 1 730 15 view .LVU78
 273 0006 9A42     		cmp	r2, r3
 274 0008 01D0     		beq	.L31
ARM GAS  C:\usertemp\ccXENK9d.s 			page 19


 275              		.loc 1 731 29 discriminator 7 view .LVU79
 276 000a 0020     		movs	r0, #0
 277              	.LVL30:
 278              		.loc 1 731 29 discriminator 7 view .LVU80
 279 000c 7047     		bx	lr
 280              	.LVL31:
 281              	.L31:
 730:lvgl/src/extra/libs/qrcode/qrcodegen.c **** 		&& runHistory[3] == n * 3 && (runHistory[0] >= n * 4 || runHistory[6] >= n * 4);
 282              		.loc 1 730 50 discriminator 1 view .LVU81
 283 000e 0279     		ldrb	r2, [r0, #4]	@ zero_extendqisi2
 730:lvgl/src/extra/libs/qrcode/qrcodegen.c **** 		&& runHistory[3] == n * 3 && (runHistory[0] >= n * 4 || runHistory[6] >= n * 4);
 284              		.loc 1 730 37 discriminator 1 view .LVU82
 285 0010 9A42     		cmp	r2, r3
 286 0012 01D0     		beq	.L32
 287              		.loc 1 731 29 discriminator 7 view .LVU83
 288 0014 0020     		movs	r0, #0
 289              	.LVL32:
 290              		.loc 1 731 29 discriminator 7 view .LVU84
 291 0016 7047     		bx	lr
 292              	.LVL33:
 293              	.L32:
 730:lvgl/src/extra/libs/qrcode/qrcodegen.c **** 		&& runHistory[3] == n * 3 && (runHistory[0] >= n * 4 || runHistory[6] >= n * 4);
 294              		.loc 1 730 72 discriminator 2 view .LVU85
 295 0018 4279     		ldrb	r2, [r0, #5]	@ zero_extendqisi2
 730:lvgl/src/extra/libs/qrcode/qrcodegen.c **** 		&& runHistory[3] == n * 3 && (runHistory[0] >= n * 4 || runHistory[6] >= n * 4);
 296              		.loc 1 730 59 discriminator 2 view .LVU86
 297 001a 9A42     		cmp	r2, r3
 298 001c 01D0     		beq	.L33
 299              		.loc 1 731 29 discriminator 7 view .LVU87
 300 001e 0020     		movs	r0, #0
 301              	.LVL34:
 302              		.loc 1 731 29 discriminator 7 view .LVU88
 303 0020 7047     		bx	lr
 304              	.LVL35:
 305              	.L33:
 306              		.loc 1 731 16 discriminator 3 view .LVU89
 307 0022 C178     		ldrb	r1, [r0, #3]	@ zero_extendqisi2
 308              		.loc 1 731 25 discriminator 3 view .LVU90
 309 0024 03EB4302 		add	r2, r3, r3, lsl #1
 310              		.loc 1 731 3 discriminator 3 view .LVU91
 311 0028 9142     		cmp	r1, r2
 312 002a 01D0     		beq	.L34
 313              		.loc 1 731 29 discriminator 7 view .LVU92
 314 002c 0020     		movs	r0, #0
 315              	.LVL36:
 316              		.loc 1 731 29 discriminator 7 view .LVU93
 317 002e 7047     		bx	lr
 318              	.LVL37:
 319              	.L34:
 320              		.loc 1 731 43 discriminator 2 view .LVU94
 321 0030 0278     		ldrb	r2, [r0]	@ zero_extendqisi2
 322              		.loc 1 731 52 discriminator 2 view .LVU95
 323 0032 9900     		lsls	r1, r3, #2
 324              		.loc 1 731 29 discriminator 2 view .LVU96
 325 0034 B2EB830F 		cmp	r2, r3, lsl #2
 326 0038 06DA     		bge	.L29
 327              		.loc 1 731 69 discriminator 5 view .LVU97
ARM GAS  C:\usertemp\ccXENK9d.s 			page 20


 328 003a 8379     		ldrb	r3, [r0, #6]	@ zero_extendqisi2
 329              	.LVL38:
 330              		.loc 1 731 56 discriminator 5 view .LVU98
 331 003c 9942     		cmp	r1, r3
 332 003e 05DD     		ble	.L30
 333              		.loc 1 731 29 discriminator 7 view .LVU99
 334 0040 0020     		movs	r0, #0
 335              	.LVL39:
 336              		.loc 1 731 29 discriminator 7 view .LVU100
 337 0042 7047     		bx	lr
 338              	.LVL40:
 339              	.L24:
 340              		.loc 1 731 29 discriminator 7 view .LVU101
 341 0044 0020     		movs	r0, #0
 342              	.LVL41:
 343              		.loc 1 731 29 discriminator 7 view .LVU102
 344 0046 7047     		bx	lr
 345              	.LVL42:
 346              	.L29:
 347              		.loc 1 731 29 discriminator 6 view .LVU103
 348 0048 0120     		movs	r0, #1
 349              	.LVL43:
 350              		.loc 1 731 29 discriminator 6 view .LVU104
 351 004a 7047     		bx	lr
 352              	.LVL44:
 353              	.L30:
 354              		.loc 1 731 29 discriminator 6 view .LVU105
 355 004c 0120     		movs	r0, #1
 356              	.LVL45:
 732:lvgl/src/extra/libs/qrcode/qrcodegen.c **** }
 357              		.loc 1 732 1 view .LVU106
 358 004e 7047     		bx	lr
 359              		.cfi_endproc
 360              	.LFE20:
 362              		.section	.text.getBit,"ax",%progbits
 363              		.align	1
 364              		.syntax unified
 365              		.thumb
 366              		.thumb_func
 368              	getBit:
 369              	.LVL46:
 370              	.LFB26:
 733:lvgl/src/extra/libs/qrcode/qrcodegen.c **** 
 734:lvgl/src/extra/libs/qrcode/qrcodegen.c **** 
 735:lvgl/src/extra/libs/qrcode/qrcodegen.c **** 
 736:lvgl/src/extra/libs/qrcode/qrcodegen.c **** /*---- Basic QR Code information ----*/
 737:lvgl/src/extra/libs/qrcode/qrcodegen.c **** 
 738:lvgl/src/extra/libs/qrcode/qrcodegen.c **** // Public function - see documentation comment in header file.
 739:lvgl/src/extra/libs/qrcode/qrcodegen.c **** int qrcodegen_getSize(const uint8_t qrcode[]) {
 740:lvgl/src/extra/libs/qrcode/qrcodegen.c **** 	assert(qrcode != NULL);
 741:lvgl/src/extra/libs/qrcode/qrcodegen.c **** 	int result = qrcode[0];
 742:lvgl/src/extra/libs/qrcode/qrcodegen.c **** 	assert((qrcodegen_VERSION_MIN * 4 + 17) <= result
 743:lvgl/src/extra/libs/qrcode/qrcodegen.c **** 		&& result <= (qrcodegen_VERSION_MAX * 4 + 17));
 744:lvgl/src/extra/libs/qrcode/qrcodegen.c **** 	return result;
 745:lvgl/src/extra/libs/qrcode/qrcodegen.c **** }
 746:lvgl/src/extra/libs/qrcode/qrcodegen.c **** 
 747:lvgl/src/extra/libs/qrcode/qrcodegen.c **** 
ARM GAS  C:\usertemp\ccXENK9d.s 			page 21


 748:lvgl/src/extra/libs/qrcode/qrcodegen.c **** // Public function - see documentation comment in header file.
 749:lvgl/src/extra/libs/qrcode/qrcodegen.c **** bool qrcodegen_getModule(const uint8_t qrcode[], int x, int y) {
 750:lvgl/src/extra/libs/qrcode/qrcodegen.c **** 	assert(qrcode != NULL);
 751:lvgl/src/extra/libs/qrcode/qrcodegen.c **** 	int qrsize = qrcode[0];
 752:lvgl/src/extra/libs/qrcode/qrcodegen.c **** 	return (0 <= x && x < qrsize && 0 <= y && y < qrsize) && getModule(qrcode, x, y);
 753:lvgl/src/extra/libs/qrcode/qrcodegen.c **** }
 754:lvgl/src/extra/libs/qrcode/qrcodegen.c **** 
 755:lvgl/src/extra/libs/qrcode/qrcodegen.c **** 
 756:lvgl/src/extra/libs/qrcode/qrcodegen.c **** // Gets the module at the given coordinates, which must be in bounds.
 757:lvgl/src/extra/libs/qrcode/qrcodegen.c **** testable bool getModule(const uint8_t qrcode[], int x, int y) {
 758:lvgl/src/extra/libs/qrcode/qrcodegen.c **** 	int qrsize = qrcode[0];
 759:lvgl/src/extra/libs/qrcode/qrcodegen.c **** 	assert(21 <= qrsize && qrsize <= 177 && 0 <= x && x < qrsize && 0 <= y && y < qrsize);
 760:lvgl/src/extra/libs/qrcode/qrcodegen.c **** 	int index = y * qrsize + x;
 761:lvgl/src/extra/libs/qrcode/qrcodegen.c **** 	return getBit(qrcode[(index >> 3) + 1], index & 7);
 762:lvgl/src/extra/libs/qrcode/qrcodegen.c **** }
 763:lvgl/src/extra/libs/qrcode/qrcodegen.c **** 
 764:lvgl/src/extra/libs/qrcode/qrcodegen.c **** 
 765:lvgl/src/extra/libs/qrcode/qrcodegen.c **** // Sets the module at the given coordinates, which must be in bounds.
 766:lvgl/src/extra/libs/qrcode/qrcodegen.c **** testable void setModule(uint8_t qrcode[], int x, int y, bool isBlack) {
 767:lvgl/src/extra/libs/qrcode/qrcodegen.c **** 	int qrsize = qrcode[0];
 768:lvgl/src/extra/libs/qrcode/qrcodegen.c **** 	assert(21 <= qrsize && qrsize <= 177 && 0 <= x && x < qrsize && 0 <= y && y < qrsize);
 769:lvgl/src/extra/libs/qrcode/qrcodegen.c **** 	int index = y * qrsize + x;
 770:lvgl/src/extra/libs/qrcode/qrcodegen.c **** 	int bitIndex = index & 7;
 771:lvgl/src/extra/libs/qrcode/qrcodegen.c **** 	int byteIndex = (index >> 3) + 1;
 772:lvgl/src/extra/libs/qrcode/qrcodegen.c **** 	if (isBlack)
 773:lvgl/src/extra/libs/qrcode/qrcodegen.c **** 		qrcode[byteIndex] |= 1 << bitIndex;
 774:lvgl/src/extra/libs/qrcode/qrcodegen.c **** 	else
 775:lvgl/src/extra/libs/qrcode/qrcodegen.c **** 		qrcode[byteIndex] &= (1 << bitIndex) ^ 0xFF;
 776:lvgl/src/extra/libs/qrcode/qrcodegen.c **** }
 777:lvgl/src/extra/libs/qrcode/qrcodegen.c **** 
 778:lvgl/src/extra/libs/qrcode/qrcodegen.c **** 
 779:lvgl/src/extra/libs/qrcode/qrcodegen.c **** // Sets the module at the given coordinates, doing nothing if out of bounds.
 780:lvgl/src/extra/libs/qrcode/qrcodegen.c **** testable void setModuleBounded(uint8_t qrcode[], int x, int y, bool isBlack) {
 781:lvgl/src/extra/libs/qrcode/qrcodegen.c **** 	int qrsize = qrcode[0];
 782:lvgl/src/extra/libs/qrcode/qrcodegen.c **** 	if (0 <= x && x < qrsize && 0 <= y && y < qrsize)
 783:lvgl/src/extra/libs/qrcode/qrcodegen.c **** 		setModule(qrcode, x, y, isBlack);
 784:lvgl/src/extra/libs/qrcode/qrcodegen.c **** }
 785:lvgl/src/extra/libs/qrcode/qrcodegen.c **** 
 786:lvgl/src/extra/libs/qrcode/qrcodegen.c **** 
 787:lvgl/src/extra/libs/qrcode/qrcodegen.c **** // Returns true iff the i'th bit of x is set to 1. Requires x >= 0 and 0 <= i <= 14.
 788:lvgl/src/extra/libs/qrcode/qrcodegen.c **** static bool getBit(int x, int i) {
 371              		.loc 1 788 34 is_stmt 1 view -0
 372              		.cfi_startproc
 373              		@ args = 0, pretend = 0, frame = 0
 374              		@ frame_needed = 0, uses_anonymous_args = 0
 375              		@ link register save eliminated.
 789:lvgl/src/extra/libs/qrcode/qrcodegen.c **** 	return ((x >> i) & 1) != 0;
 376              		.loc 1 789 2 view .LVU108
 377              		.loc 1 789 13 is_stmt 0 view .LVU109
 378 0000 0841     		asrs	r0, r0, r1
 379              	.LVL47:
 790:lvgl/src/extra/libs/qrcode/qrcodegen.c **** }
 380              		.loc 1 790 1 view .LVU110
 381 0002 00F00100 		and	r0, r0, #1
 382 0006 7047     		bx	lr
 383              		.cfi_endproc
 384              	.LFE26:
ARM GAS  C:\usertemp\ccXENK9d.s 			page 22


 386              		.section	.rodata.calcSegmentBitLength.str1.4,"aMS",%progbits,1
 387              		.align	2
 388              	.LC0:
 389 0000 66616C73 		.ascii	"false\000"
 389      6500
 390 0006 0000     		.align	2
 391              	.LC1:
 392 0008 6C76676C 		.ascii	"lvgl/src/extra/libs/qrcode/qrcodegen.c\000"
 392      2F737263 
 392      2F657874 
 392      72612F6C 
 392      6962732F 
 393 002f 00       		.align	2
 394              	.LC2:
 395 0030 72657375 		.ascii	"result >= 0\000"
 395      6C74203E 
 395      3D203000 
 396              		.section	.text.calcSegmentBitLength,"ax",%progbits
 397              		.align	1
 398              		.syntax unified
 399              		.thumb
 400              		.thumb_func
 402              	calcSegmentBitLength:
 403              	.LVL48:
 404              	.LFB30:
 791:lvgl/src/extra/libs/qrcode/qrcodegen.c **** 
 792:lvgl/src/extra/libs/qrcode/qrcodegen.c **** 
 793:lvgl/src/extra/libs/qrcode/qrcodegen.c **** 
 794:lvgl/src/extra/libs/qrcode/qrcodegen.c **** /*---- Segment handling ----*/
 795:lvgl/src/extra/libs/qrcode/qrcodegen.c **** 
 796:lvgl/src/extra/libs/qrcode/qrcodegen.c **** // Public function - see documentation comment in header file.
 797:lvgl/src/extra/libs/qrcode/qrcodegen.c **** bool qrcodegen_isAlphanumeric(const char *text) {
 798:lvgl/src/extra/libs/qrcode/qrcodegen.c **** 	assert(text != NULL);
 799:lvgl/src/extra/libs/qrcode/qrcodegen.c **** 	for (; *text != '\0'; text++) {
 800:lvgl/src/extra/libs/qrcode/qrcodegen.c **** 		if (strchr(ALPHANUMERIC_CHARSET, *text) == NULL)
 801:lvgl/src/extra/libs/qrcode/qrcodegen.c **** 			return false;
 802:lvgl/src/extra/libs/qrcode/qrcodegen.c **** 	}
 803:lvgl/src/extra/libs/qrcode/qrcodegen.c **** 	return true;
 804:lvgl/src/extra/libs/qrcode/qrcodegen.c **** }
 805:lvgl/src/extra/libs/qrcode/qrcodegen.c **** 
 806:lvgl/src/extra/libs/qrcode/qrcodegen.c **** 
 807:lvgl/src/extra/libs/qrcode/qrcodegen.c **** // Public function - see documentation comment in header file.
 808:lvgl/src/extra/libs/qrcode/qrcodegen.c **** bool qrcodegen_isNumeric(const char *text) {
 809:lvgl/src/extra/libs/qrcode/qrcodegen.c **** 	assert(text != NULL);
 810:lvgl/src/extra/libs/qrcode/qrcodegen.c **** 	for (; *text != '\0'; text++) {
 811:lvgl/src/extra/libs/qrcode/qrcodegen.c **** 		if (*text < '0' || *text > '9')
 812:lvgl/src/extra/libs/qrcode/qrcodegen.c **** 			return false;
 813:lvgl/src/extra/libs/qrcode/qrcodegen.c **** 	}
 814:lvgl/src/extra/libs/qrcode/qrcodegen.c **** 	return true;
 815:lvgl/src/extra/libs/qrcode/qrcodegen.c **** }
 816:lvgl/src/extra/libs/qrcode/qrcodegen.c **** 
 817:lvgl/src/extra/libs/qrcode/qrcodegen.c **** 
 818:lvgl/src/extra/libs/qrcode/qrcodegen.c **** // Public function - see documentation comment in header file.
 819:lvgl/src/extra/libs/qrcode/qrcodegen.c **** size_t qrcodegen_calcSegmentBufferSize(enum qrcodegen_Mode mode, size_t numChars) {
 820:lvgl/src/extra/libs/qrcode/qrcodegen.c **** 	int temp = calcSegmentBitLength(mode, numChars);
 821:lvgl/src/extra/libs/qrcode/qrcodegen.c **** 	if (temp == -1)
 822:lvgl/src/extra/libs/qrcode/qrcodegen.c **** 		return SIZE_MAX;
ARM GAS  C:\usertemp\ccXENK9d.s 			page 23


 823:lvgl/src/extra/libs/qrcode/qrcodegen.c **** 	assert(0 <= temp && temp <= INT16_MAX);
 824:lvgl/src/extra/libs/qrcode/qrcodegen.c **** 	return ((size_t)temp + 7) / 8;
 825:lvgl/src/extra/libs/qrcode/qrcodegen.c **** }
 826:lvgl/src/extra/libs/qrcode/qrcodegen.c **** 
 827:lvgl/src/extra/libs/qrcode/qrcodegen.c **** 
 828:lvgl/src/extra/libs/qrcode/qrcodegen.c **** // Returns the number of data bits needed to represent a segment
 829:lvgl/src/extra/libs/qrcode/qrcodegen.c **** // containing the given number of characters using the given mode. Notes:
 830:lvgl/src/extra/libs/qrcode/qrcodegen.c **** // - Returns -1 on failure, i.e. numChars > INT16_MAX or
 831:lvgl/src/extra/libs/qrcode/qrcodegen.c **** //   the number of needed bits exceeds INT16_MAX (i.e. 32767).
 832:lvgl/src/extra/libs/qrcode/qrcodegen.c **** // - Otherwise, all valid results are in the range [0, INT16_MAX].
 833:lvgl/src/extra/libs/qrcode/qrcodegen.c **** // - For byte mode, numChars measures the number of bytes, not Unicode code points.
 834:lvgl/src/extra/libs/qrcode/qrcodegen.c **** // - For ECI mode, numChars must be 0, and the worst-case number of bits is returned.
 835:lvgl/src/extra/libs/qrcode/qrcodegen.c **** //   An actual ECI segment can have shorter data. For non-ECI modes, the result is exact.
 836:lvgl/src/extra/libs/qrcode/qrcodegen.c **** testable int calcSegmentBitLength(enum qrcodegen_Mode mode, size_t numChars) {
 405              		.loc 1 836 78 is_stmt 1 view -0
 406              		.cfi_startproc
 407              		@ args = 0, pretend = 0, frame = 0
 408              		@ frame_needed = 0, uses_anonymous_args = 0
 837:lvgl/src/extra/libs/qrcode/qrcodegen.c **** 	// All calculations are designed to avoid overflow on all platforms
 838:lvgl/src/extra/libs/qrcode/qrcodegen.c **** 	if (numChars > (unsigned int)INT16_MAX)
 409              		.loc 1 838 2 view .LVU112
 410              		.loc 1 838 5 is_stmt 0 view .LVU113
 411 0000 B1F5004F 		cmp	r1, #32768
 412 0004 3DD2     		bcs	.L47
 836:lvgl/src/extra/libs/qrcode/qrcodegen.c **** 	// All calculations are designed to avoid overflow on all platforms
 413              		.loc 1 836 78 view .LVU114
 414 0006 08B5     		push	{r3, lr}
 415              	.LCFI5:
 416              		.cfi_def_cfa_offset 8
 417              		.cfi_offset 3, -8
 418              		.cfi_offset 14, -4
 839:lvgl/src/extra/libs/qrcode/qrcodegen.c **** 		return -1;
 840:lvgl/src/extra/libs/qrcode/qrcodegen.c **** 	long result = (long)numChars;
 419              		.loc 1 840 2 is_stmt 1 view .LVU115
 420              	.LVL49:
 841:lvgl/src/extra/libs/qrcode/qrcodegen.c **** 	if (mode == qrcodegen_Mode_NUMERIC)
 421              		.loc 1 841 2 view .LVU116
 422 0008 431E     		subs	r3, r0, #1
 423 000a 072B     		cmp	r3, #7
 424 000c 25D8     		bhi	.L38
 425 000e DFE803F0 		tbb	[pc, r3]
 426              	.L40:
 427 0012 04       		.byte	(.L43-.L40)/2
 428 0013 13       		.byte	(.L42-.L40)/2
 429 0014 24       		.byte	(.L38-.L40)/2
 430 0015 1D       		.byte	(.L41-.L40)/2
 431 0016 24       		.byte	(.L38-.L40)/2
 432 0017 24       		.byte	(.L38-.L40)/2
 433 0018 24       		.byte	(.L38-.L40)/2
 434 0019 1F       		.byte	(.L39-.L40)/2
 435              		.p2align 1
 436              	.L43:
 842:lvgl/src/extra/libs/qrcode/qrcodegen.c **** 		result = (result * 10 + 2) / 3;  // ceil(10/3 * n)
 437              		.loc 1 842 3 view .LVU117
 438              		.loc 1 842 20 is_stmt 0 view .LVU118
 439 001a 01EB8101 		add	r1, r1, r1, lsl #2
 440              	.LVL50:
ARM GAS  C:\usertemp\ccXENK9d.s 			page 24


 441              		.loc 1 842 20 view .LVU119
 442 001e 4900     		lsls	r1, r1, #1
 443              		.loc 1 842 25 view .LVU120
 444 0020 0231     		adds	r1, r1, #2
 445              		.loc 1 842 10 view .LVU121
 446 0022 1B4B     		ldr	r3, .L58
 447 0024 83FB0123 		smull	r2, r3, r3, r1
 448 0028 A3EBE170 		sub	r0, r3, r1, asr #31
 449              	.LVL51:
 450              	.L44:
 843:lvgl/src/extra/libs/qrcode/qrcodegen.c **** 	else if (mode == qrcodegen_Mode_ALPHANUMERIC)
 844:lvgl/src/extra/libs/qrcode/qrcodegen.c **** 		result = (result * 11 + 1) / 2;  // ceil(11/2 * n)
 845:lvgl/src/extra/libs/qrcode/qrcodegen.c **** 	else if (mode == qrcodegen_Mode_BYTE)
 846:lvgl/src/extra/libs/qrcode/qrcodegen.c **** 		result *= 8;
 847:lvgl/src/extra/libs/qrcode/qrcodegen.c **** 	else if (mode == qrcodegen_Mode_KANJI)
 848:lvgl/src/extra/libs/qrcode/qrcodegen.c **** 		result *= 13;
 849:lvgl/src/extra/libs/qrcode/qrcodegen.c **** 	else if (mode == qrcodegen_Mode_ECI && numChars == 0)
 850:lvgl/src/extra/libs/qrcode/qrcodegen.c **** 		result = 3 * 8;
 851:lvgl/src/extra/libs/qrcode/qrcodegen.c **** 	else {  // Invalid argument
 852:lvgl/src/extra/libs/qrcode/qrcodegen.c **** 		assert(false);
 853:lvgl/src/extra/libs/qrcode/qrcodegen.c **** 		return -1;
 854:lvgl/src/extra/libs/qrcode/qrcodegen.c **** 	}
 855:lvgl/src/extra/libs/qrcode/qrcodegen.c **** 	assert(result >= 0);
 451              		.loc 1 855 2 is_stmt 1 view .LVU122
 452 002c 0028     		cmp	r0, #0
 453 002e 21DB     		blt	.L54
 454              	.LVL52:
 455              	.L46:
 856:lvgl/src/extra/libs/qrcode/qrcodegen.c **** 	if ((unsigned int)result > (unsigned int)INT16_MAX)
 456              		.loc 1 856 2 view .LVU123
 457              		.loc 1 856 5 is_stmt 0 view .LVU124
 458 0030 B0F5004F 		cmp	r0, #32768
 459 0034 28D2     		bcs	.L55
 460              	.L36:
 857:lvgl/src/extra/libs/qrcode/qrcodegen.c **** 		return -1;
 858:lvgl/src/extra/libs/qrcode/qrcodegen.c **** 	return (int)result;
 859:lvgl/src/extra/libs/qrcode/qrcodegen.c **** }
 461              		.loc 1 859 1 view .LVU125
 462 0036 08BD     		pop	{r3, pc}
 463              	.LVL53:
 464              	.L42:
 844:lvgl/src/extra/libs/qrcode/qrcodegen.c **** 	else if (mode == qrcodegen_Mode_BYTE)
 465              		.loc 1 844 3 is_stmt 1 view .LVU126
 844:lvgl/src/extra/libs/qrcode/qrcodegen.c **** 	else if (mode == qrcodegen_Mode_BYTE)
 466              		.loc 1 844 20 is_stmt 0 view .LVU127
 467 0038 01EB8103 		add	r3, r1, r1, lsl #2
 468 003c 01EB4301 		add	r1, r1, r3, lsl #1
 469              	.LVL54:
 844:lvgl/src/extra/libs/qrcode/qrcodegen.c **** 	else if (mode == qrcodegen_Mode_BYTE)
 470              		.loc 1 844 10 view .LVU128
 471 0040 0131     		adds	r1, r1, #1
 472 0042 01D4     		bmi	.L56
 473              	.L45:
 474 0044 4810     		asrs	r0, r1, #1
 475              	.LVL55:
 844:lvgl/src/extra/libs/qrcode/qrcodegen.c **** 	else if (mode == qrcodegen_Mode_BYTE)
 476              		.loc 1 844 10 view .LVU129
ARM GAS  C:\usertemp\ccXENK9d.s 			page 25


 477 0046 F1E7     		b	.L44
 478              	.LVL56:
 479              	.L56:
 844:lvgl/src/extra/libs/qrcode/qrcodegen.c **** 	else if (mode == qrcodegen_Mode_BYTE)
 480              		.loc 1 844 10 view .LVU130
 481 0048 0131     		adds	r1, r1, #1
 482 004a FBE7     		b	.L45
 483              	.LVL57:
 484              	.L41:
 846:lvgl/src/extra/libs/qrcode/qrcodegen.c **** 	else if (mode == qrcodegen_Mode_KANJI)
 485              		.loc 1 846 3 is_stmt 1 view .LVU131
 846:lvgl/src/extra/libs/qrcode/qrcodegen.c **** 	else if (mode == qrcodegen_Mode_KANJI)
 486              		.loc 1 846 10 is_stmt 0 view .LVU132
 487 004c C800     		lsls	r0, r1, #3
 488              	.LVL58:
 846:lvgl/src/extra/libs/qrcode/qrcodegen.c **** 	else if (mode == qrcodegen_Mode_KANJI)
 489              		.loc 1 846 10 view .LVU133
 490 004e EDE7     		b	.L44
 491              	.LVL59:
 492              	.L39:
 848:lvgl/src/extra/libs/qrcode/qrcodegen.c **** 	else if (mode == qrcodegen_Mode_ECI && numChars == 0)
 493              		.loc 1 848 3 is_stmt 1 view .LVU134
 848:lvgl/src/extra/libs/qrcode/qrcodegen.c **** 	else if (mode == qrcodegen_Mode_ECI && numChars == 0)
 494              		.loc 1 848 10 is_stmt 0 view .LVU135
 495 0050 01EB4103 		add	r3, r1, r1, lsl #1
 496 0054 01EB8300 		add	r0, r1, r3, lsl #2
 497              	.LVL60:
 848:lvgl/src/extra/libs/qrcode/qrcodegen.c **** 	else if (mode == qrcodegen_Mode_ECI && numChars == 0)
 498              		.loc 1 848 10 view .LVU136
 499 0058 E8E7     		b	.L44
 500              	.LVL61:
 501              	.L38:
 849:lvgl/src/extra/libs/qrcode/qrcodegen.c **** 		result = 3 * 8;
 502              		.loc 1 849 7 is_stmt 1 view .LVU137
 849:lvgl/src/extra/libs/qrcode/qrcodegen.c **** 		result = 3 * 8;
 503              		.loc 1 849 10 is_stmt 0 view .LVU138
 504 005a 0728     		cmp	r0, #7
 505 005c 08BF     		it	eq
 506 005e 0029     		cmpeq	r1, #0
 507 0060 01D1     		bne	.L57
 850:lvgl/src/extra/libs/qrcode/qrcodegen.c **** 	else {  // Invalid argument
 508              		.loc 1 850 10 view .LVU139
 509 0062 1820     		movs	r0, #24
 510              	.LVL62:
 850:lvgl/src/extra/libs/qrcode/qrcodegen.c **** 	else {  // Invalid argument
 511              		.loc 1 850 10 view .LVU140
 512 0064 E4E7     		b	.L46
 513              	.LVL63:
 514              	.L57:
 852:lvgl/src/extra/libs/qrcode/qrcodegen.c **** 		return -1;
 515              		.loc 1 852 3 is_stmt 1 view .LVU141
 516 0066 0B4B     		ldr	r3, .L58+4
 517 0068 0B4A     		ldr	r2, .L58+8
 518 006a 4FF45571 		mov	r1, #852
 519              	.LVL64:
 852:lvgl/src/extra/libs/qrcode/qrcodegen.c **** 		return -1;
 520              		.loc 1 852 3 is_stmt 0 view .LVU142
ARM GAS  C:\usertemp\ccXENK9d.s 			page 26


 521 006e 0B48     		ldr	r0, .L58+12
 522              	.LVL65:
 852:lvgl/src/extra/libs/qrcode/qrcodegen.c **** 		return -1;
 523              		.loc 1 852 3 view .LVU143
 524 0070 FFF7FEFF 		bl	__assert_func
 525              	.LVL66:
 526              	.L54:
 855:lvgl/src/extra/libs/qrcode/qrcodegen.c **** 	if ((unsigned int)result > (unsigned int)INT16_MAX)
 527              		.loc 1 855 2 discriminator 1 view .LVU144
 528 0074 0A4B     		ldr	r3, .L58+16
 529 0076 084A     		ldr	r2, .L58+8
 530 0078 40F25731 		movw	r1, #855
 531 007c 0748     		ldr	r0, .L58+12
 532              	.LVL67:
 855:lvgl/src/extra/libs/qrcode/qrcodegen.c **** 	if ((unsigned int)result > (unsigned int)INT16_MAX)
 533              		.loc 1 855 2 discriminator 1 view .LVU145
 534 007e FFF7FEFF 		bl	__assert_func
 535              	.LVL68:
 536              	.L47:
 537              	.LCFI6:
 538              		.cfi_def_cfa_offset 0
 539              		.cfi_restore 3
 540              		.cfi_restore 14
 839:lvgl/src/extra/libs/qrcode/qrcodegen.c **** 	long result = (long)numChars;
 541              		.loc 1 839 10 view .LVU146
 542 0082 4FF0FF30 		mov	r0, #-1
 543              	.LVL69:
 544              		.loc 1 859 1 view .LVU147
 545 0086 7047     		bx	lr
 546              	.LVL70:
 547              	.L55:
 548              	.LCFI7:
 549              		.cfi_def_cfa_offset 8
 550              		.cfi_offset 3, -8
 551              		.cfi_offset 14, -4
 857:lvgl/src/extra/libs/qrcode/qrcodegen.c **** 	return (int)result;
 552              		.loc 1 857 10 view .LVU148
 553 0088 4FF0FF30 		mov	r0, #-1
 554 008c D3E7     		b	.L36
 555              	.L59:
 556 008e 00BF     		.align	2
 557              	.L58:
 558 0090 56555555 		.word	1431655766
 559 0094 00000000 		.word	.LC0
 560 0098 00000000 		.word	__func__.29
 561 009c 08000000 		.word	.LC1
 562 00a0 30000000 		.word	.LC2
 563              		.cfi_endproc
 564              	.LFE30:
 566              		.section	.rodata.numCharCountBits.str1.4,"aMS",%progbits,1
 567              		.align	2
 568              	.LC3:
 569 0000 7172636F 		.ascii	"qrcodegen_VERSION_MIN <= version && version <= qrco"
 569      64656765 
 569      6E5F5645 
 569      5253494F 
 569      4E5F4D49 
ARM GAS  C:\usertemp\ccXENK9d.s 			page 27


 570 0033 64656765 		.ascii	"degen_VERSION_MAX\000"
 570      6E5F5645 
 570      5253494F 
 570      4E5F4D41 
 570      5800
 571              		.section	.text.numCharCountBits,"ax",%progbits
 572              		.align	1
 573              		.syntax unified
 574              		.thumb
 575              		.thumb_func
 577              	numCharCountBits:
 578              	.LVL71:
 579              	.LFB36:
 860:lvgl/src/extra/libs/qrcode/qrcodegen.c **** 
 861:lvgl/src/extra/libs/qrcode/qrcodegen.c **** 
 862:lvgl/src/extra/libs/qrcode/qrcodegen.c **** // Public function - see documentation comment in header file.
 863:lvgl/src/extra/libs/qrcode/qrcodegen.c **** struct qrcodegen_Segment qrcodegen_makeBytes(const uint8_t data[], size_t len, uint8_t buf[]) {
 864:lvgl/src/extra/libs/qrcode/qrcodegen.c **** 	assert(data != NULL || len == 0);
 865:lvgl/src/extra/libs/qrcode/qrcodegen.c **** 	struct qrcodegen_Segment result;
 866:lvgl/src/extra/libs/qrcode/qrcodegen.c **** 	result.mode = qrcodegen_Mode_BYTE;
 867:lvgl/src/extra/libs/qrcode/qrcodegen.c **** 	result.bitLength = calcSegmentBitLength(result.mode, len);
 868:lvgl/src/extra/libs/qrcode/qrcodegen.c **** 	assert(result.bitLength != -1);
 869:lvgl/src/extra/libs/qrcode/qrcodegen.c **** 	result.numChars = (int)len;
 870:lvgl/src/extra/libs/qrcode/qrcodegen.c **** 	if (len > 0)
 871:lvgl/src/extra/libs/qrcode/qrcodegen.c **** 		memcpy(buf, data, len * sizeof(buf[0]));
 872:lvgl/src/extra/libs/qrcode/qrcodegen.c **** 	result.data = buf;
 873:lvgl/src/extra/libs/qrcode/qrcodegen.c **** 	return result;
 874:lvgl/src/extra/libs/qrcode/qrcodegen.c **** }
 875:lvgl/src/extra/libs/qrcode/qrcodegen.c **** 
 876:lvgl/src/extra/libs/qrcode/qrcodegen.c **** 
 877:lvgl/src/extra/libs/qrcode/qrcodegen.c **** // Public function - see documentation comment in header file.
 878:lvgl/src/extra/libs/qrcode/qrcodegen.c **** struct qrcodegen_Segment qrcodegen_makeNumeric(const char *digits, uint8_t buf[]) {
 879:lvgl/src/extra/libs/qrcode/qrcodegen.c **** 	assert(digits != NULL);
 880:lvgl/src/extra/libs/qrcode/qrcodegen.c **** 	struct qrcodegen_Segment result;
 881:lvgl/src/extra/libs/qrcode/qrcodegen.c **** 	size_t len = strlen(digits);
 882:lvgl/src/extra/libs/qrcode/qrcodegen.c **** 	result.mode = qrcodegen_Mode_NUMERIC;
 883:lvgl/src/extra/libs/qrcode/qrcodegen.c **** 	int bitLen = calcSegmentBitLength(result.mode, len);
 884:lvgl/src/extra/libs/qrcode/qrcodegen.c **** 	assert(bitLen != -1);
 885:lvgl/src/extra/libs/qrcode/qrcodegen.c **** 	result.numChars = (int)len;
 886:lvgl/src/extra/libs/qrcode/qrcodegen.c **** 	if (bitLen > 0)
 887:lvgl/src/extra/libs/qrcode/qrcodegen.c **** 		memset(buf, 0, ((size_t)bitLen + 7) / 8 * sizeof(buf[0]));
 888:lvgl/src/extra/libs/qrcode/qrcodegen.c **** 	result.bitLength = 0;
 889:lvgl/src/extra/libs/qrcode/qrcodegen.c **** 	
 890:lvgl/src/extra/libs/qrcode/qrcodegen.c **** 	unsigned int accumData = 0;
 891:lvgl/src/extra/libs/qrcode/qrcodegen.c **** 	int accumCount = 0;
 892:lvgl/src/extra/libs/qrcode/qrcodegen.c **** 	for (; *digits != '\0'; digits++) {
 893:lvgl/src/extra/libs/qrcode/qrcodegen.c **** 		char c = *digits;
 894:lvgl/src/extra/libs/qrcode/qrcodegen.c **** 		assert('0' <= c && c <= '9');
 895:lvgl/src/extra/libs/qrcode/qrcodegen.c **** 		accumData = accumData * 10 + (unsigned int)(c - '0');
 896:lvgl/src/extra/libs/qrcode/qrcodegen.c **** 		accumCount++;
 897:lvgl/src/extra/libs/qrcode/qrcodegen.c **** 		if (accumCount == 3) {
 898:lvgl/src/extra/libs/qrcode/qrcodegen.c **** 			appendBitsToBuffer(accumData, 10, buf, &result.bitLength);
 899:lvgl/src/extra/libs/qrcode/qrcodegen.c **** 			accumData = 0;
 900:lvgl/src/extra/libs/qrcode/qrcodegen.c **** 			accumCount = 0;
 901:lvgl/src/extra/libs/qrcode/qrcodegen.c **** 		}
 902:lvgl/src/extra/libs/qrcode/qrcodegen.c **** 	}
 903:lvgl/src/extra/libs/qrcode/qrcodegen.c **** 	if (accumCount > 0)  // 1 or 2 digits remaining
ARM GAS  C:\usertemp\ccXENK9d.s 			page 28


 904:lvgl/src/extra/libs/qrcode/qrcodegen.c **** 		appendBitsToBuffer(accumData, accumCount * 3 + 1, buf, &result.bitLength);
 905:lvgl/src/extra/libs/qrcode/qrcodegen.c **** 	assert(result.bitLength == bitLen);
 906:lvgl/src/extra/libs/qrcode/qrcodegen.c **** 	result.data = buf;
 907:lvgl/src/extra/libs/qrcode/qrcodegen.c **** 	return result;
 908:lvgl/src/extra/libs/qrcode/qrcodegen.c **** }
 909:lvgl/src/extra/libs/qrcode/qrcodegen.c **** 
 910:lvgl/src/extra/libs/qrcode/qrcodegen.c **** 
 911:lvgl/src/extra/libs/qrcode/qrcodegen.c **** // Public function - see documentation comment in header file.
 912:lvgl/src/extra/libs/qrcode/qrcodegen.c **** struct qrcodegen_Segment qrcodegen_makeAlphanumeric(const char *text, uint8_t buf[]) {
 913:lvgl/src/extra/libs/qrcode/qrcodegen.c **** 	assert(text != NULL);
 914:lvgl/src/extra/libs/qrcode/qrcodegen.c **** 	struct qrcodegen_Segment result;
 915:lvgl/src/extra/libs/qrcode/qrcodegen.c **** 	size_t len = strlen(text);
 916:lvgl/src/extra/libs/qrcode/qrcodegen.c **** 	result.mode = qrcodegen_Mode_ALPHANUMERIC;
 917:lvgl/src/extra/libs/qrcode/qrcodegen.c **** 	int bitLen = calcSegmentBitLength(result.mode, len);
 918:lvgl/src/extra/libs/qrcode/qrcodegen.c **** 	assert(bitLen != -1);
 919:lvgl/src/extra/libs/qrcode/qrcodegen.c **** 	result.numChars = (int)len;
 920:lvgl/src/extra/libs/qrcode/qrcodegen.c **** 	if (bitLen > 0)
 921:lvgl/src/extra/libs/qrcode/qrcodegen.c **** 		memset(buf, 0, ((size_t)bitLen + 7) / 8 * sizeof(buf[0]));
 922:lvgl/src/extra/libs/qrcode/qrcodegen.c **** 	result.bitLength = 0;
 923:lvgl/src/extra/libs/qrcode/qrcodegen.c **** 	
 924:lvgl/src/extra/libs/qrcode/qrcodegen.c **** 	unsigned int accumData = 0;
 925:lvgl/src/extra/libs/qrcode/qrcodegen.c **** 	int accumCount = 0;
 926:lvgl/src/extra/libs/qrcode/qrcodegen.c **** 	for (; *text != '\0'; text++) {
 927:lvgl/src/extra/libs/qrcode/qrcodegen.c **** 		const char *temp = strchr(ALPHANUMERIC_CHARSET, *text);
 928:lvgl/src/extra/libs/qrcode/qrcodegen.c **** 		assert(temp != NULL);
 929:lvgl/src/extra/libs/qrcode/qrcodegen.c **** 		accumData = accumData * 45 + (unsigned int)(temp - ALPHANUMERIC_CHARSET);
 930:lvgl/src/extra/libs/qrcode/qrcodegen.c **** 		accumCount++;
 931:lvgl/src/extra/libs/qrcode/qrcodegen.c **** 		if (accumCount == 2) {
 932:lvgl/src/extra/libs/qrcode/qrcodegen.c **** 			appendBitsToBuffer(accumData, 11, buf, &result.bitLength);
 933:lvgl/src/extra/libs/qrcode/qrcodegen.c **** 			accumData = 0;
 934:lvgl/src/extra/libs/qrcode/qrcodegen.c **** 			accumCount = 0;
 935:lvgl/src/extra/libs/qrcode/qrcodegen.c **** 		}
 936:lvgl/src/extra/libs/qrcode/qrcodegen.c **** 	}
 937:lvgl/src/extra/libs/qrcode/qrcodegen.c **** 	if (accumCount > 0)  // 1 character remaining
 938:lvgl/src/extra/libs/qrcode/qrcodegen.c **** 		appendBitsToBuffer(accumData, 6, buf, &result.bitLength);
 939:lvgl/src/extra/libs/qrcode/qrcodegen.c **** 	assert(result.bitLength == bitLen);
 940:lvgl/src/extra/libs/qrcode/qrcodegen.c **** 	result.data = buf;
 941:lvgl/src/extra/libs/qrcode/qrcodegen.c **** 	return result;
 942:lvgl/src/extra/libs/qrcode/qrcodegen.c **** }
 943:lvgl/src/extra/libs/qrcode/qrcodegen.c **** 
 944:lvgl/src/extra/libs/qrcode/qrcodegen.c **** 
 945:lvgl/src/extra/libs/qrcode/qrcodegen.c **** // Public function - see documentation comment in header file.
 946:lvgl/src/extra/libs/qrcode/qrcodegen.c **** struct qrcodegen_Segment qrcodegen_makeEci(long assignVal, uint8_t buf[]) {
 947:lvgl/src/extra/libs/qrcode/qrcodegen.c **** 	struct qrcodegen_Segment result;
 948:lvgl/src/extra/libs/qrcode/qrcodegen.c **** 	result.mode = qrcodegen_Mode_ECI;
 949:lvgl/src/extra/libs/qrcode/qrcodegen.c **** 	result.numChars = 0;
 950:lvgl/src/extra/libs/qrcode/qrcodegen.c **** 	result.bitLength = 0;
 951:lvgl/src/extra/libs/qrcode/qrcodegen.c **** 	if (assignVal < 0) {
 952:lvgl/src/extra/libs/qrcode/qrcodegen.c **** 		assert(false);
 953:lvgl/src/extra/libs/qrcode/qrcodegen.c **** 	} else if (assignVal < (1 << 7)) {
 954:lvgl/src/extra/libs/qrcode/qrcodegen.c **** 		memset(buf, 0, 1 * sizeof(buf[0]));
 955:lvgl/src/extra/libs/qrcode/qrcodegen.c **** 		appendBitsToBuffer(assignVal, 8, buf, &result.bitLength);
 956:lvgl/src/extra/libs/qrcode/qrcodegen.c **** 	} else if (assignVal < (1 << 14)) {
 957:lvgl/src/extra/libs/qrcode/qrcodegen.c **** 		memset(buf, 0, 2 * sizeof(buf[0]));
 958:lvgl/src/extra/libs/qrcode/qrcodegen.c **** 		appendBitsToBuffer(2, 2, buf, &result.bitLength);
 959:lvgl/src/extra/libs/qrcode/qrcodegen.c **** 		appendBitsToBuffer(assignVal, 14, buf, &result.bitLength);
 960:lvgl/src/extra/libs/qrcode/qrcodegen.c **** 	} else if (assignVal < 1000000L) {
ARM GAS  C:\usertemp\ccXENK9d.s 			page 29


 961:lvgl/src/extra/libs/qrcode/qrcodegen.c **** 		memset(buf, 0, 3 * sizeof(buf[0]));
 962:lvgl/src/extra/libs/qrcode/qrcodegen.c **** 		appendBitsToBuffer(6, 3, buf, &result.bitLength);
 963:lvgl/src/extra/libs/qrcode/qrcodegen.c **** 		appendBitsToBuffer(assignVal >> 10, 11, buf, &result.bitLength);
 964:lvgl/src/extra/libs/qrcode/qrcodegen.c **** 		appendBitsToBuffer(assignVal & 0x3FF, 10, buf, &result.bitLength);
 965:lvgl/src/extra/libs/qrcode/qrcodegen.c **** 	} else {
 966:lvgl/src/extra/libs/qrcode/qrcodegen.c **** 		assert(false);
 967:lvgl/src/extra/libs/qrcode/qrcodegen.c **** 	}
 968:lvgl/src/extra/libs/qrcode/qrcodegen.c **** 	result.data = buf;
 969:lvgl/src/extra/libs/qrcode/qrcodegen.c **** 	return result;
 970:lvgl/src/extra/libs/qrcode/qrcodegen.c **** }
 971:lvgl/src/extra/libs/qrcode/qrcodegen.c **** 
 972:lvgl/src/extra/libs/qrcode/qrcodegen.c **** 
 973:lvgl/src/extra/libs/qrcode/qrcodegen.c **** // Calculates the number of bits needed to encode the given segments at the given version.
 974:lvgl/src/extra/libs/qrcode/qrcodegen.c **** // Returns a non-negative number if successful. Otherwise returns -1 if a segment has too
 975:lvgl/src/extra/libs/qrcode/qrcodegen.c **** // many characters to fit its length field, or the total bits exceeds INT16_MAX.
 976:lvgl/src/extra/libs/qrcode/qrcodegen.c **** testable int getTotalBits(const struct qrcodegen_Segment segs[], size_t len, int version) {
 977:lvgl/src/extra/libs/qrcode/qrcodegen.c **** 	assert(segs != NULL || len == 0);
 978:lvgl/src/extra/libs/qrcode/qrcodegen.c **** 	long result = 0;
 979:lvgl/src/extra/libs/qrcode/qrcodegen.c **** 	for (size_t i = 0; i < len; i++) {
 980:lvgl/src/extra/libs/qrcode/qrcodegen.c **** 		int numChars  = segs[i].numChars;
 981:lvgl/src/extra/libs/qrcode/qrcodegen.c **** 		int bitLength = segs[i].bitLength;
 982:lvgl/src/extra/libs/qrcode/qrcodegen.c **** 		assert(0 <= numChars  && numChars  <= INT16_MAX);
 983:lvgl/src/extra/libs/qrcode/qrcodegen.c **** 		assert(0 <= bitLength && bitLength <= INT16_MAX);
 984:lvgl/src/extra/libs/qrcode/qrcodegen.c **** 		int ccbits = numCharCountBits(segs[i].mode, version);
 985:lvgl/src/extra/libs/qrcode/qrcodegen.c **** 		assert(0 <= ccbits && ccbits <= 16);
 986:lvgl/src/extra/libs/qrcode/qrcodegen.c **** 		if (numChars >= (1L << ccbits))
 987:lvgl/src/extra/libs/qrcode/qrcodegen.c **** 			return -1;  // The segment's length doesn't fit the field's bit width
 988:lvgl/src/extra/libs/qrcode/qrcodegen.c **** 		result += 4L + ccbits + bitLength;
 989:lvgl/src/extra/libs/qrcode/qrcodegen.c **** 		if (result > INT16_MAX)
 990:lvgl/src/extra/libs/qrcode/qrcodegen.c **** 			return -1;  // The sum might overflow an int type
 991:lvgl/src/extra/libs/qrcode/qrcodegen.c **** 	}
 992:lvgl/src/extra/libs/qrcode/qrcodegen.c **** 	assert(0 <= result && result <= INT16_MAX);
 993:lvgl/src/extra/libs/qrcode/qrcodegen.c **** 	return (int)result;
 994:lvgl/src/extra/libs/qrcode/qrcodegen.c **** }
 995:lvgl/src/extra/libs/qrcode/qrcodegen.c **** 
 996:lvgl/src/extra/libs/qrcode/qrcodegen.c **** 
 997:lvgl/src/extra/libs/qrcode/qrcodegen.c **** // Returns the bit width of the character count field for a segment in the given mode
 998:lvgl/src/extra/libs/qrcode/qrcodegen.c **** // in a QR Code at the given version number. The result is in the range [0, 16].
 999:lvgl/src/extra/libs/qrcode/qrcodegen.c **** static int numCharCountBits(enum qrcodegen_Mode mode, int version) {
 580              		.loc 1 999 68 is_stmt 1 view -0
 581              		.cfi_startproc
 582              		@ args = 0, pretend = 0, frame = 0
 583              		@ frame_needed = 0, uses_anonymous_args = 0
 584              		.loc 1 999 68 is_stmt 0 view .LVU150
 585 0000 08B5     		push	{r3, lr}
 586              	.LCFI8:
 587              		.cfi_def_cfa_offset 8
 588              		.cfi_offset 3, -8
 589              		.cfi_offset 14, -4
1000:lvgl/src/extra/libs/qrcode/qrcodegen.c **** 	assert(qrcodegen_VERSION_MIN <= version && version <= qrcodegen_VERSION_MAX);
 590              		.loc 1 1000 2 is_stmt 1 view .LVU151
 591 0002 4B1E     		subs	r3, r1, #1
 592 0004 272B     		cmp	r3, #39
 593 0006 0FD8     		bhi	.L71
1001:lvgl/src/extra/libs/qrcode/qrcodegen.c **** 	int i = (version + 7) / 17;
 594              		.loc 1 1001 2 view .LVU152
 595              		.loc 1 1001 19 is_stmt 0 view .LVU153
ARM GAS  C:\usertemp\ccXENK9d.s 			page 30


 596 0008 0731     		adds	r1, r1, #7
 597              	.LVL72:
 598              		.loc 1 1001 6 view .LVU154
 599 000a 174B     		ldr	r3, .L72
 600 000c 83FB0123 		smull	r2, r3, r3, r1
 601 0010 C917     		asrs	r1, r1, #31
 602              	.LVL73:
 603              		.loc 1 1001 6 view .LVU155
 604 0012 C1EBE301 		rsb	r1, r1, r3, asr #3
 605              	.LVL74:
1002:lvgl/src/extra/libs/qrcode/qrcodegen.c **** 	switch (mode) {
 606              		.loc 1 1002 2 is_stmt 1 view .LVU156
 607 0016 0138     		subs	r0, r0, #1
 608              	.LVL75:
 609              		.loc 1 1002 2 is_stmt 0 view .LVU157
 610 0018 0728     		cmp	r0, #7
 611 001a 1CD8     		bhi	.L62
 612 001c DFE800F0 		tbb	[pc, r0]
 613              	.L64:
 614 0020 0B       		.byte	(.L68-.L64)/2
 615 0021 0F       		.byte	(.L67-.L64)/2
 616 0022 1B       		.byte	(.L62-.L64)/2
 617 0023 13       		.byte	(.L66-.L64)/2
 618 0024 1B       		.byte	(.L62-.L64)/2
 619 0025 1B       		.byte	(.L62-.L64)/2
 620 0026 22       		.byte	(.L69-.L64)/2
 621 0027 17       		.byte	(.L63-.L64)/2
 622              	.LVL76:
 623              		.p2align 1
 624              	.L71:
1000:lvgl/src/extra/libs/qrcode/qrcodegen.c **** 	assert(qrcodegen_VERSION_MIN <= version && version <= qrcodegen_VERSION_MAX);
 625              		.loc 1 1000 2 discriminator 1 view .LVU158
 626 0028 104B     		ldr	r3, .L72+4
 627 002a 114A     		ldr	r2, .L72+8
 628 002c 4FF47A71 		mov	r1, #1000
 629              	.LVL77:
1000:lvgl/src/extra/libs/qrcode/qrcodegen.c **** 	assert(qrcodegen_VERSION_MIN <= version && version <= qrcodegen_VERSION_MAX);
 630              		.loc 1 1000 2 discriminator 1 view .LVU159
 631 0030 1048     		ldr	r0, .L72+12
 632              	.LVL78:
1000:lvgl/src/extra/libs/qrcode/qrcodegen.c **** 	assert(qrcodegen_VERSION_MIN <= version && version <= qrcodegen_VERSION_MAX);
 633              		.loc 1 1000 2 discriminator 1 view .LVU160
 634 0032 FFF7FEFF 		bl	__assert_func
 635              	.LVL79:
 636              	.L68:
 637              	.LBB7:
1003:lvgl/src/extra/libs/qrcode/qrcodegen.c **** 		case qrcodegen_Mode_NUMERIC     : { static const int temp[] = {10, 12, 14}; return temp[i]; }
 638              		.loc 1 1003 39 is_stmt 1 view .LVU161
 639              		.loc 1 1003 79 view .LVU162
 640              		.loc 1 1003 90 is_stmt 0 view .LVU163
 641 0036 104B     		ldr	r3, .L72+16
 642 0038 53F82100 		ldr	r0, [r3, r1, lsl #2]
 643              	.L60:
 644              		.loc 1 1003 90 view .LVU164
 645              	.LBE7:
1004:lvgl/src/extra/libs/qrcode/qrcodegen.c **** 		case qrcodegen_Mode_ALPHANUMERIC: { static const int temp[] = { 9, 11, 13}; return temp[i]; }
1005:lvgl/src/extra/libs/qrcode/qrcodegen.c **** 		case qrcodegen_Mode_BYTE        : { static const int temp[] = { 8, 16, 16}; return temp[i]; }
ARM GAS  C:\usertemp\ccXENK9d.s 			page 31


1006:lvgl/src/extra/libs/qrcode/qrcodegen.c **** 		case qrcodegen_Mode_KANJI       : { static const int temp[] = { 8, 10, 12}; return temp[i]; }
1007:lvgl/src/extra/libs/qrcode/qrcodegen.c **** 		case qrcodegen_Mode_ECI         : return 0;
1008:lvgl/src/extra/libs/qrcode/qrcodegen.c **** 		default:  assert(false);  return -1;  // Dummy value
1009:lvgl/src/extra/libs/qrcode/qrcodegen.c **** 	}
1010:lvgl/src/extra/libs/qrcode/qrcodegen.c **** }
 646              		.loc 1 1010 1 view .LVU165
 647 003c 08BD     		pop	{r3, pc}
 648              	.L67:
 649              	.LBB8:
1004:lvgl/src/extra/libs/qrcode/qrcodegen.c **** 		case qrcodegen_Mode_ALPHANUMERIC: { static const int temp[] = { 9, 11, 13}; return temp[i]; }
 650              		.loc 1 1004 39 is_stmt 1 view .LVU166
1004:lvgl/src/extra/libs/qrcode/qrcodegen.c **** 		case qrcodegen_Mode_ALPHANUMERIC: { static const int temp[] = { 9, 11, 13}; return temp[i]; }
 651              		.loc 1 1004 79 view .LVU167
1004:lvgl/src/extra/libs/qrcode/qrcodegen.c **** 		case qrcodegen_Mode_ALPHANUMERIC: { static const int temp[] = { 9, 11, 13}; return temp[i]; }
 652              		.loc 1 1004 90 is_stmt 0 view .LVU168
 653 003e 0F4B     		ldr	r3, .L72+20
 654 0040 53F82100 		ldr	r0, [r3, r1, lsl #2]
 655 0044 FAE7     		b	.L60
 656              	.L66:
1004:lvgl/src/extra/libs/qrcode/qrcodegen.c **** 		case qrcodegen_Mode_ALPHANUMERIC: { static const int temp[] = { 9, 11, 13}; return temp[i]; }
 657              		.loc 1 1004 90 view .LVU169
 658              	.LBE8:
 659              	.LBB9:
1005:lvgl/src/extra/libs/qrcode/qrcodegen.c **** 		case qrcodegen_Mode_KANJI       : { static const int temp[] = { 8, 10, 12}; return temp[i]; }
 660              		.loc 1 1005 39 is_stmt 1 view .LVU170
1005:lvgl/src/extra/libs/qrcode/qrcodegen.c **** 		case qrcodegen_Mode_KANJI       : { static const int temp[] = { 8, 10, 12}; return temp[i]; }
 661              		.loc 1 1005 79 view .LVU171
1005:lvgl/src/extra/libs/qrcode/qrcodegen.c **** 		case qrcodegen_Mode_KANJI       : { static const int temp[] = { 8, 10, 12}; return temp[i]; }
 662              		.loc 1 1005 90 is_stmt 0 view .LVU172
 663 0046 0E4B     		ldr	r3, .L72+24
 664 0048 53F82100 		ldr	r0, [r3, r1, lsl #2]
 665 004c F6E7     		b	.L60
 666              	.L63:
1005:lvgl/src/extra/libs/qrcode/qrcodegen.c **** 		case qrcodegen_Mode_KANJI       : { static const int temp[] = { 8, 10, 12}; return temp[i]; }
 667              		.loc 1 1005 90 view .LVU173
 668              	.LBE9:
 669              	.LBB10:
1006:lvgl/src/extra/libs/qrcode/qrcodegen.c **** 		case qrcodegen_Mode_ECI         : return 0;
 670              		.loc 1 1006 39 is_stmt 1 view .LVU174
1006:lvgl/src/extra/libs/qrcode/qrcodegen.c **** 		case qrcodegen_Mode_ECI         : return 0;
 671              		.loc 1 1006 79 view .LVU175
1006:lvgl/src/extra/libs/qrcode/qrcodegen.c **** 		case qrcodegen_Mode_ECI         : return 0;
 672              		.loc 1 1006 90 is_stmt 0 view .LVU176
 673 004e 0D4B     		ldr	r3, .L72+28
 674 0050 53F82100 		ldr	r0, [r3, r1, lsl #2]
 675 0054 F2E7     		b	.L60
 676              	.L62:
1006:lvgl/src/extra/libs/qrcode/qrcodegen.c **** 		case qrcodegen_Mode_ECI         : return 0;
 677              		.loc 1 1006 90 view .LVU177
 678              	.LBE10:
1008:lvgl/src/extra/libs/qrcode/qrcodegen.c **** 	}
 679              		.loc 1 1008 13 is_stmt 1 view .LVU178
 680 0056 0C4B     		ldr	r3, .L72+32
 681 0058 054A     		ldr	r2, .L72+8
 682 005a 4FF47C71 		mov	r1, #1008
 683              	.LVL80:
1008:lvgl/src/extra/libs/qrcode/qrcodegen.c **** 	}
ARM GAS  C:\usertemp\ccXENK9d.s 			page 32


 684              		.loc 1 1008 13 is_stmt 0 view .LVU179
 685 005e 0548     		ldr	r0, .L72+12
 686 0060 FFF7FEFF 		bl	__assert_func
 687              	.LVL81:
 688              	.L69:
1002:lvgl/src/extra/libs/qrcode/qrcodegen.c **** 		case qrcodegen_Mode_NUMERIC     : { static const int temp[] = {10, 12, 14}; return temp[i]; }
 689              		.loc 1 1002 2 view .LVU180
 690 0064 0020     		movs	r0, #0
 691 0066 E9E7     		b	.L60
 692              	.L73:
 693              		.align	2
 694              	.L72:
 695 0068 79787878 		.word	2021161081
 696 006c 00000000 		.word	.LC3
 697 0070 00000000 		.word	__func__.26
 698 0074 08000000 		.word	.LC1
 699 0078 00000000 		.word	temp.25
 700 007c 00000000 		.word	temp.24
 701 0080 00000000 		.word	temp.23
 702 0084 00000000 		.word	temp.22
 703 0088 00000000 		.word	.LC0
 704              		.cfi_endproc
 705              	.LFE36:
 707              		.section	.rodata.getTotalBits.str1.4,"aMS",%progbits,1
 708              		.align	2
 709              	.LC4:
 710 0000 73656773 		.ascii	"segs != NULL || len == 0\000"
 710      20213D20 
 710      4E554C4C 
 710      207C7C20 
 710      6C656E20 
 711 0019 000000   		.align	2
 712              	.LC5:
 713 001c 30203C3D 		.ascii	"0 <= numChars && numChars <= INT16_MAX\000"
 713      206E756D 
 713      43686172 
 713      73202626 
 713      206E756D 
 714 0043 00       		.align	2
 715              	.LC6:
 716 0044 30203C3D 		.ascii	"0 <= bitLength && bitLength <= INT16_MAX\000"
 716      20626974 
 716      4C656E67 
 716      74682026 
 716      26206269 
 717 006d 000000   		.align	2
 718              	.LC7:
 719 0070 30203C3D 		.ascii	"0 <= ccbits && ccbits <= 16\000"
 719      20636362 
 719      69747320 
 719      26262063 
 719      63626974 
 720              		.align	2
 721              	.LC8:
 722 008c 30203C3D 		.ascii	"0 <= result && result <= INT16_MAX\000"
 722      20726573 
 722      756C7420 
ARM GAS  C:\usertemp\ccXENK9d.s 			page 33


 722      26262072 
 722      6573756C 
 723              		.section	.text.getTotalBits,"ax",%progbits
 724              		.align	1
 725              		.syntax unified
 726              		.thumb
 727              		.thumb_func
 729              	getTotalBits:
 730              	.LVL82:
 731              	.LFB35:
 976:lvgl/src/extra/libs/qrcode/qrcodegen.c **** 	assert(segs != NULL || len == 0);
 732              		.loc 1 976 91 is_stmt 1 view -0
 733              		.cfi_startproc
 734              		@ args = 0, pretend = 0, frame = 0
 735              		@ frame_needed = 0, uses_anonymous_args = 0
 976:lvgl/src/extra/libs/qrcode/qrcodegen.c **** 	assert(segs != NULL || len == 0);
 736              		.loc 1 976 91 is_stmt 0 view .LVU182
 737 0000 2DE9F047 		push	{r4, r5, r6, r7, r8, r9, r10, lr}
 738              	.LCFI9:
 739              		.cfi_def_cfa_offset 32
 740              		.cfi_offset 4, -32
 741              		.cfi_offset 5, -28
 742              		.cfi_offset 6, -24
 743              		.cfi_offset 7, -20
 744              		.cfi_offset 8, -16
 745              		.cfi_offset 9, -12
 746              		.cfi_offset 10, -8
 747              		.cfi_offset 14, -4
 977:lvgl/src/extra/libs/qrcode/qrcodegen.c **** 	long result = 0;
 748              		.loc 1 977 2 is_stmt 1 view .LVU183
 749 0004 8046     		mov	r8, r0
 750 0006 B0FA80F0 		clz	r0, r0
 751              	.LVL83:
 977:lvgl/src/extra/libs/qrcode/qrcodegen.c **** 	long result = 0;
 752              		.loc 1 977 2 is_stmt 0 view .LVU184
 753 000a 4009     		lsrs	r0, r0, #5
 754 000c 0029     		cmp	r1, #0
 755 000e 08BF     		it	eq
 756 0010 0020     		moveq	r0, #0
 757 0012 18BB     		cbnz	r0, .L85
 758 0014 9146     		mov	r9, r2
 759 0016 8A46     		mov	r10, r1
 760              	.LBB11:
 979:lvgl/src/extra/libs/qrcode/qrcodegen.c **** 		int numChars  = segs[i].numChars;
 761              		.loc 1 979 14 view .LVU185
 762 0018 0024     		movs	r4, #0
 763              	.LBE11:
 978:lvgl/src/extra/libs/qrcode/qrcodegen.c **** 	for (size_t i = 0; i < len; i++) {
 764              		.loc 1 978 7 view .LVU186
 765 001a 2546     		mov	r5, r4
 766              	.LVL84:
 767              	.L75:
 768              	.LBB15:
 979:lvgl/src/extra/libs/qrcode/qrcodegen.c **** 		int numChars  = segs[i].numChars;
 769              		.loc 1 979 23 is_stmt 1 discriminator 1 view .LVU187
 770 001c 5445     		cmp	r4, r10
 771 001e 39D2     		bcs	.L86
ARM GAS  C:\usertemp\ccXENK9d.s 			page 34


 772              	.LBB12:
 980:lvgl/src/extra/libs/qrcode/qrcodegen.c **** 		int bitLength = segs[i].bitLength;
 773              		.loc 1 980 3 view .LVU188
 980:lvgl/src/extra/libs/qrcode/qrcodegen.c **** 		int bitLength = segs[i].bitLength;
 774              		.loc 1 980 23 is_stmt 0 view .LVU189
 775 0020 2201     		lsls	r2, r4, #4
 776 0022 08EB0413 		add	r3, r8, r4, lsl #4
 980:lvgl/src/extra/libs/qrcode/qrcodegen.c **** 		int bitLength = segs[i].bitLength;
 777              		.loc 1 980 7 view .LVU190
 778 0026 5E68     		ldr	r6, [r3, #4]
 779              	.LVL85:
 981:lvgl/src/extra/libs/qrcode/qrcodegen.c **** 		assert(0 <= numChars  && numChars  <= INT16_MAX);
 780              		.loc 1 981 3 is_stmt 1 view .LVU191
 981:lvgl/src/extra/libs/qrcode/qrcodegen.c **** 		assert(0 <= numChars  && numChars  <= INT16_MAX);
 781              		.loc 1 981 7 is_stmt 0 view .LVU192
 782 0028 DF68     		ldr	r7, [r3, #12]
 783              	.LVL86:
 982:lvgl/src/extra/libs/qrcode/qrcodegen.c **** 		assert(0 <= bitLength && bitLength <= INT16_MAX);
 784              		.loc 1 982 3 is_stmt 1 view .LVU193
 785 002a B6F5004F 		cmp	r6, #32768
 786 002e 1CD2     		bcs	.L87
 983:lvgl/src/extra/libs/qrcode/qrcodegen.c **** 		int ccbits = numCharCountBits(segs[i].mode, version);
 787              		.loc 1 983 3 view .LVU194
 788 0030 B7F5004F 		cmp	r7, #32768
 789 0034 20D2     		bcs	.L88
 984:lvgl/src/extra/libs/qrcode/qrcodegen.c **** 		assert(0 <= ccbits && ccbits <= 16);
 790              		.loc 1 984 3 view .LVU195
 984:lvgl/src/extra/libs/qrcode/qrcodegen.c **** 		assert(0 <= ccbits && ccbits <= 16);
 791              		.loc 1 984 16 is_stmt 0 view .LVU196
 792 0036 4946     		mov	r1, r9
 793 0038 18F80200 		ldrb	r0, [r8, r2]	@ zero_extendqisi2
 794 003c FFF7FEFF 		bl	numCharCountBits
 795              	.LVL87:
 985:lvgl/src/extra/libs/qrcode/qrcodegen.c **** 		if (numChars >= (1L << ccbits))
 796              		.loc 1 985 3 is_stmt 1 view .LVU197
 797 0040 1028     		cmp	r0, #16
 798 0042 20D8     		bhi	.L89
 986:lvgl/src/extra/libs/qrcode/qrcodegen.c **** 			return -1;  // The segment's length doesn't fit the field's bit width
 799              		.loc 1 986 3 view .LVU198
 986:lvgl/src/extra/libs/qrcode/qrcodegen.c **** 			return -1;  // The segment's length doesn't fit the field's bit width
 800              		.loc 1 986 23 is_stmt 0 view .LVU199
 801 0044 0123     		movs	r3, #1
 802 0046 8340     		lsls	r3, r3, r0
 986:lvgl/src/extra/libs/qrcode/qrcodegen.c **** 			return -1;  // The segment's length doesn't fit the field's bit width
 803              		.loc 1 986 6 view .LVU200
 804 0048 B342     		cmp	r3, r6
 805 004a 30DD     		ble	.L82
 988:lvgl/src/extra/libs/qrcode/qrcodegen.c **** 		if (result > INT16_MAX)
 806              		.loc 1 988 3 is_stmt 1 view .LVU201
 988:lvgl/src/extra/libs/qrcode/qrcodegen.c **** 		if (result > INT16_MAX)
 807              		.loc 1 988 16 is_stmt 0 view .LVU202
 808 004c 0430     		adds	r0, r0, #4
 809              	.LVL88:
 988:lvgl/src/extra/libs/qrcode/qrcodegen.c **** 		if (result > INT16_MAX)
 810              		.loc 1 988 25 view .LVU203
 811 004e 3844     		add	r0, r0, r7
 812              	.LVL89:
ARM GAS  C:\usertemp\ccXENK9d.s 			page 35


 988:lvgl/src/extra/libs/qrcode/qrcodegen.c **** 		if (result > INT16_MAX)
 813              		.loc 1 988 10 view .LVU204
 814 0050 0544     		add	r5, r5, r0
 815              	.LVL90:
 989:lvgl/src/extra/libs/qrcode/qrcodegen.c **** 			return -1;  // The sum might overflow an int type
 816              		.loc 1 989 3 is_stmt 1 view .LVU205
 989:lvgl/src/extra/libs/qrcode/qrcodegen.c **** 			return -1;  // The sum might overflow an int type
 817              		.loc 1 989 6 is_stmt 0 view .LVU206
 818 0052 B5F5004F 		cmp	r5, #32768
 819 0056 2DDA     		bge	.L83
 820              	.LBE12:
 979:lvgl/src/extra/libs/qrcode/qrcodegen.c **** 		int numChars  = segs[i].numChars;
 821              		.loc 1 979 31 is_stmt 1 discriminator 2 view .LVU207
 822 0058 0134     		adds	r4, r4, #1
 823              	.LVL91:
 979:lvgl/src/extra/libs/qrcode/qrcodegen.c **** 		int numChars  = segs[i].numChars;
 824              		.loc 1 979 31 is_stmt 0 discriminator 2 view .LVU208
 825 005a DFE7     		b	.L75
 826              	.LVL92:
 827              	.L85:
 979:lvgl/src/extra/libs/qrcode/qrcodegen.c **** 		int numChars  = segs[i].numChars;
 828              		.loc 1 979 31 discriminator 2 view .LVU209
 829              	.LBE15:
 977:lvgl/src/extra/libs/qrcode/qrcodegen.c **** 	long result = 0;
 830              		.loc 1 977 2 discriminator 1 view .LVU210
 831 005c 174B     		ldr	r3, .L91
 832 005e 184A     		ldr	r2, .L91+4
 833              	.LVL93:
 977:lvgl/src/extra/libs/qrcode/qrcodegen.c **** 	long result = 0;
 834              		.loc 1 977 2 discriminator 1 view .LVU211
 835 0060 40F2D131 		movw	r1, #977
 836              	.LVL94:
 977:lvgl/src/extra/libs/qrcode/qrcodegen.c **** 	long result = 0;
 837              		.loc 1 977 2 discriminator 1 view .LVU212
 838 0064 1748     		ldr	r0, .L91+8
 839 0066 FFF7FEFF 		bl	__assert_func
 840              	.LVL95:
 841              	.L87:
 842              	.LBB16:
 843              	.LBB13:
 982:lvgl/src/extra/libs/qrcode/qrcodegen.c **** 		assert(0 <= bitLength && bitLength <= INT16_MAX);
 844              		.loc 1 982 3 discriminator 1 view .LVU213
 845 006a 174B     		ldr	r3, .L91+12
 846 006c 144A     		ldr	r2, .L91+4
 847 006e 40F2D631 		movw	r1, #982
 848 0072 1448     		ldr	r0, .L91+8
 849 0074 FFF7FEFF 		bl	__assert_func
 850              	.LVL96:
 851              	.L88:
 983:lvgl/src/extra/libs/qrcode/qrcodegen.c **** 		int ccbits = numCharCountBits(segs[i].mode, version);
 852              		.loc 1 983 3 discriminator 1 view .LVU214
 853 0078 144B     		ldr	r3, .L91+16
 854 007a 114A     		ldr	r2, .L91+4
 855 007c 40F2D731 		movw	r1, #983
 856 0080 1048     		ldr	r0, .L91+8
 857 0082 FFF7FEFF 		bl	__assert_func
 858              	.LVL97:
ARM GAS  C:\usertemp\ccXENK9d.s 			page 36


 859              	.L89:
 985:lvgl/src/extra/libs/qrcode/qrcodegen.c **** 		if (numChars >= (1L << ccbits))
 860              		.loc 1 985 3 discriminator 1 view .LVU215
 861 0086 124B     		ldr	r3, .L91+20
 862 0088 0D4A     		ldr	r2, .L91+4
 863 008a 40F2D931 		movw	r1, #985
 864 008e 0D48     		ldr	r0, .L91+8
 865              	.LVL98:
 985:lvgl/src/extra/libs/qrcode/qrcodegen.c **** 		if (numChars >= (1L << ccbits))
 866              		.loc 1 985 3 discriminator 1 view .LVU216
 867 0090 FFF7FEFF 		bl	__assert_func
 868              	.LVL99:
 869              	.L86:
 985:lvgl/src/extra/libs/qrcode/qrcodegen.c **** 		if (numChars >= (1L << ccbits))
 870              		.loc 1 985 3 discriminator 1 view .LVU217
 871              	.LBE13:
 872              	.LBE16:
 992:lvgl/src/extra/libs/qrcode/qrcodegen.c **** 	return (int)result;
 873              		.loc 1 992 2 is_stmt 1 view .LVU218
 874 0094 B5F5004F 		cmp	r5, #32768
 875 0098 02D2     		bcs	.L90
 876              	.LVL100:
 877              	.L74:
 994:lvgl/src/extra/libs/qrcode/qrcodegen.c **** 
 878              		.loc 1 994 1 is_stmt 0 view .LVU219
 879 009a 2846     		mov	r0, r5
 880 009c BDE8F087 		pop	{r4, r5, r6, r7, r8, r9, r10, pc}
 881              	.LVL101:
 882              	.L90:
 992:lvgl/src/extra/libs/qrcode/qrcodegen.c **** 	return (int)result;
 883              		.loc 1 992 2 discriminator 1 view .LVU220
 884 00a0 0C4B     		ldr	r3, .L91+24
 885 00a2 074A     		ldr	r2, .L91+4
 886 00a4 4FF47871 		mov	r1, #992
 887 00a8 0648     		ldr	r0, .L91+8
 888 00aa FFF7FEFF 		bl	__assert_func
 889              	.LVL102:
 890              	.L82:
 891              	.LBB17:
 892              	.LBB14:
 987:lvgl/src/extra/libs/qrcode/qrcodegen.c **** 		result += 4L + ccbits + bitLength;
 893              		.loc 1 987 11 view .LVU221
 894 00ae 4FF0FF35 		mov	r5, #-1
 895              	.LVL103:
 987:lvgl/src/extra/libs/qrcode/qrcodegen.c **** 		result += 4L + ccbits + bitLength;
 896              		.loc 1 987 11 view .LVU222
 897 00b2 F2E7     		b	.L74
 898              	.LVL104:
 899              	.L83:
 990:lvgl/src/extra/libs/qrcode/qrcodegen.c **** 	}
 900              		.loc 1 990 11 view .LVU223
 901 00b4 4FF0FF35 		mov	r5, #-1
 902              	.LVL105:
 990:lvgl/src/extra/libs/qrcode/qrcodegen.c **** 	}
 903              		.loc 1 990 11 view .LVU224
 904 00b8 EFE7     		b	.L74
 905              	.L92:
ARM GAS  C:\usertemp\ccXENK9d.s 			page 37


 906 00ba 00BF     		.align	2
 907              	.L91:
 908 00bc 00000000 		.word	.LC4
 909 00c0 00000000 		.word	__func__.27
 910 00c4 08000000 		.word	.LC1
 911 00c8 1C000000 		.word	.LC5
 912 00cc 44000000 		.word	.LC6
 913 00d0 70000000 		.word	.LC7
 914 00d4 8C000000 		.word	.LC8
 915              	.LBE14:
 916              	.LBE17:
 917              		.cfi_endproc
 918              	.LFE35:
 920              		.section	.rodata.appendBitsToBuffer.str1.4,"aMS",%progbits,1
 921              		.align	2
 922              	.LC9:
 923 0000 30203C3D 		.ascii	"0 <= numBits && numBits <= 16 && (unsigned long)val"
 923      206E756D 
 923      42697473 
 923      20262620 
 923      6E756D42 
 924 0033 203E3E20 		.ascii	" >> numBits == 0\000"
 924      6E756D42 
 924      69747320 
 924      3D3D2030 
 924      00
 925              		.section	.text.appendBitsToBuffer,"ax",%progbits
 926              		.align	1
 927              		.syntax unified
 928              		.thumb
 929              		.thumb_func
 931              	appendBitsToBuffer:
 932              	.LVL106:
 933              	.LFB2:
 184:lvgl/src/extra/libs/qrcode/qrcodegen.c **** 	assert(0 <= numBits && numBits <= 16 && (unsigned long)val >> numBits == 0);
 934              		.loc 1 184 96 is_stmt 1 view -0
 935              		.cfi_startproc
 936              		@ args = 0, pretend = 0, frame = 0
 937              		@ frame_needed = 0, uses_anonymous_args = 0
 184:lvgl/src/extra/libs/qrcode/qrcodegen.c **** 	assert(0 <= numBits && numBits <= 16 && (unsigned long)val >> numBits == 0);
 938              		.loc 1 184 96 is_stmt 0 view .LVU226
 939 0000 38B5     		push	{r3, r4, r5, lr}
 940              	.LCFI10:
 941              		.cfi_def_cfa_offset 16
 942              		.cfi_offset 3, -16
 943              		.cfi_offset 4, -12
 944              		.cfi_offset 5, -8
 945              		.cfi_offset 14, -4
 185:lvgl/src/extra/libs/qrcode/qrcodegen.c **** 	for (int i = numBits - 1; i >= 0; i--, (*bitLen)++)
 946              		.loc 1 185 2 is_stmt 1 view .LVU227
 947 0002 1029     		cmp	r1, #16
 948 0004 05D8     		bhi	.L94
 185:lvgl/src/extra/libs/qrcode/qrcodegen.c **** 	for (int i = numBits - 1; i >= 0; i--, (*bitLen)++)
 949              		.loc 1 185 2 is_stmt 0 discriminator 2 view .LVU228
 950 0006 30FA01F4 		lsrs	r4, r0, r1
 951 000a 02D1     		bne	.L94
 186:lvgl/src/extra/libs/qrcode/qrcodegen.c **** 		buffer[*bitLen >> 3] |= ((val >> i) & 1) << (7 - (*bitLen & 7));
ARM GAS  C:\usertemp\ccXENK9d.s 			page 38


 952              		.loc 1 186 2 is_stmt 1 view .LVU229
 953              	.LBB18:
 186:lvgl/src/extra/libs/qrcode/qrcodegen.c **** 		buffer[*bitLen >> 3] |= ((val >> i) & 1) << (7 - (*bitLen & 7));
 954              		.loc 1 186 7 view .LVU230
 186:lvgl/src/extra/libs/qrcode/qrcodegen.c **** 		buffer[*bitLen >> 3] |= ((val >> i) & 1) << (7 - (*bitLen & 7));
 955              		.loc 1 186 11 is_stmt 0 view .LVU231
 956 000c 01F1FF3E 		add	lr, r1, #-1
 957              	.LVL107:
 186:lvgl/src/extra/libs/qrcode/qrcodegen.c **** 		buffer[*bitLen >> 3] |= ((val >> i) & 1) << (7 - (*bitLen & 7));
 958              		.loc 1 186 2 view .LVU232
 959 0010 18E0     		b	.L96
 960              	.LVL108:
 961              	.L94:
 186:lvgl/src/extra/libs/qrcode/qrcodegen.c **** 		buffer[*bitLen >> 3] |= ((val >> i) & 1) << (7 - (*bitLen & 7));
 962              		.loc 1 186 2 view .LVU233
 963              	.LBE18:
 185:lvgl/src/extra/libs/qrcode/qrcodegen.c **** 	for (int i = numBits - 1; i >= 0; i--, (*bitLen)++)
 964              		.loc 1 185 2 discriminator 3 view .LVU234
 965 0012 0E4B     		ldr	r3, .L99
 966              	.LVL109:
 185:lvgl/src/extra/libs/qrcode/qrcodegen.c **** 	for (int i = numBits - 1; i >= 0; i--, (*bitLen)++)
 967              		.loc 1 185 2 discriminator 3 view .LVU235
 968 0014 0E4A     		ldr	r2, .L99+4
 969              	.LVL110:
 185:lvgl/src/extra/libs/qrcode/qrcodegen.c **** 	for (int i = numBits - 1; i >= 0; i--, (*bitLen)++)
 970              		.loc 1 185 2 discriminator 3 view .LVU236
 971 0016 B921     		movs	r1, #185
 972              	.LVL111:
 185:lvgl/src/extra/libs/qrcode/qrcodegen.c **** 	for (int i = numBits - 1; i >= 0; i--, (*bitLen)++)
 973              		.loc 1 185 2 discriminator 3 view .LVU237
 974 0018 0E48     		ldr	r0, .L99+8
 975              	.LVL112:
 185:lvgl/src/extra/libs/qrcode/qrcodegen.c **** 	for (int i = numBits - 1; i >= 0; i--, (*bitLen)++)
 976              		.loc 1 185 2 discriminator 3 view .LVU238
 977 001a FFF7FEFF 		bl	__assert_func
 978              	.LVL113:
 979              	.L97:
 980              	.LBB19:
 187:lvgl/src/extra/libs/qrcode/qrcodegen.c **** }
 981              		.loc 1 187 3 is_stmt 1 view .LVU239
 187:lvgl/src/extra/libs/qrcode/qrcodegen.c **** }
 982              		.loc 1 187 10 is_stmt 0 view .LVU240
 983 001e 1968     		ldr	r1, [r3]
 187:lvgl/src/extra/libs/qrcode/qrcodegen.c **** }
 984              		.loc 1 187 9 view .LVU241
 985 0020 CD10     		asrs	r5, r1, #3
 986 0022 545D     		ldrb	r4, [r2, r5]	@ zero_extendqisi2
 187:lvgl/src/extra/libs/qrcode/qrcodegen.c **** }
 987              		.loc 1 187 33 view .LVU242
 988 0024 20FA0EFC 		lsr	ip, r0, lr
 187:lvgl/src/extra/libs/qrcode/qrcodegen.c **** }
 989              		.loc 1 187 39 view .LVU243
 990 0028 0CF0010C 		and	ip, ip, #1
 187:lvgl/src/extra/libs/qrcode/qrcodegen.c **** }
 991              		.loc 1 187 50 view .LVU244
 992 002c C943     		mvns	r1, r1
 993 002e 01F00701 		and	r1, r1, #7
ARM GAS  C:\usertemp\ccXENK9d.s 			page 39


 187:lvgl/src/extra/libs/qrcode/qrcodegen.c **** }
 994              		.loc 1 187 44 view .LVU245
 995 0032 0CFA01F1 		lsl	r1, ip, r1
 187:lvgl/src/extra/libs/qrcode/qrcodegen.c **** }
 996              		.loc 1 187 24 view .LVU246
 997 0036 2143     		orrs	r1, r1, r4
 998 0038 5155     		strb	r1, [r2, r5]
 186:lvgl/src/extra/libs/qrcode/qrcodegen.c **** 		buffer[*bitLen >> 3] |= ((val >> i) & 1) << (7 - (*bitLen & 7));
 999              		.loc 1 186 39 is_stmt 1 discriminator 3 view .LVU247
 186:lvgl/src/extra/libs/qrcode/qrcodegen.c **** 		buffer[*bitLen >> 3] |= ((val >> i) & 1) << (7 - (*bitLen & 7));
 1000              		.loc 1 186 37 is_stmt 0 discriminator 3 view .LVU248
 1001 003a 0EF1FF3E 		add	lr, lr, #-1
 1002              	.LVL114:
 186:lvgl/src/extra/libs/qrcode/qrcodegen.c **** 		buffer[*bitLen >> 3] |= ((val >> i) & 1) << (7 - (*bitLen & 7));
 1003              		.loc 1 186 42 discriminator 3 view .LVU249
 1004 003e 1968     		ldr	r1, [r3]
 186:lvgl/src/extra/libs/qrcode/qrcodegen.c **** 		buffer[*bitLen >> 3] |= ((val >> i) & 1) << (7 - (*bitLen & 7));
 1005              		.loc 1 186 50 discriminator 3 view .LVU250
 1006 0040 0131     		adds	r1, r1, #1
 1007 0042 1960     		str	r1, [r3]
 1008              	.L96:
 186:lvgl/src/extra/libs/qrcode/qrcodegen.c **** 		buffer[*bitLen >> 3] |= ((val >> i) & 1) << (7 - (*bitLen & 7));
 1009              		.loc 1 186 30 is_stmt 1 discriminator 1 view .LVU251
 1010 0044 BEF1000F 		cmp	lr, #0
 1011 0048 E9DA     		bge	.L97
 186:lvgl/src/extra/libs/qrcode/qrcodegen.c **** 		buffer[*bitLen >> 3] |= ((val >> i) & 1) << (7 - (*bitLen & 7));
 1012              		.loc 1 186 30 is_stmt 0 discriminator 1 view .LVU252
 1013              	.LBE19:
 188:lvgl/src/extra/libs/qrcode/qrcodegen.c **** 
 1014              		.loc 1 188 1 view .LVU253
 1015 004a 38BD     		pop	{r3, r4, r5, pc}
 1016              	.LVL115:
 1017              	.L100:
 188:lvgl/src/extra/libs/qrcode/qrcodegen.c **** 
 1018              		.loc 1 188 1 view .LVU254
 1019              		.align	2
 1020              	.L99:
 1021 004c 00000000 		.word	.LC9
 1022 0050 00000000 		.word	__func__.20
 1023 0054 08000000 		.word	.LC1
 1024              		.cfi_endproc
 1025              	.LFE2:
 1027              		.section	.rodata.getNumRawDataModules.str1.4,"aMS",%progbits,1
 1028              		.align	2
 1029              	.LC10:
 1030 0000 7172636F 		.ascii	"qrcodegen_VERSION_MIN <= ver && ver <= qrcodegen_VE"
 1030      64656765 
 1030      6E5F5645 
 1030      5253494F 
 1030      4E5F4D49 
 1031 0033 5253494F 		.ascii	"RSION_MAX\000"
 1031      4E5F4D41 
 1031      5800
 1032              		.section	.text.getNumRawDataModules,"ax",%progbits
 1033              		.align	1
 1034              		.syntax unified
 1035              		.thumb
ARM GAS  C:\usertemp\ccXENK9d.s 			page 40


 1036              		.thumb_func
 1038              	getNumRawDataModules:
 1039              	.LVL116:
 1040              	.LFB7:
 336:lvgl/src/extra/libs/qrcode/qrcodegen.c **** 	assert(qrcodegen_VERSION_MIN <= ver && ver <= qrcodegen_VERSION_MAX);
 1041              		.loc 1 336 44 is_stmt 1 view -0
 1042              		.cfi_startproc
 1043              		@ args = 0, pretend = 0, frame = 0
 1044              		@ frame_needed = 0, uses_anonymous_args = 0
 336:lvgl/src/extra/libs/qrcode/qrcodegen.c **** 	assert(qrcodegen_VERSION_MIN <= ver && ver <= qrcodegen_VERSION_MAX);
 1045              		.loc 1 336 44 is_stmt 0 view .LVU256
 1046 0000 08B5     		push	{r3, lr}
 1047              	.LCFI11:
 1048              		.cfi_def_cfa_offset 8
 1049              		.cfi_offset 3, -8
 1050              		.cfi_offset 14, -4
 337:lvgl/src/extra/libs/qrcode/qrcodegen.c **** 	int result = (16 * ver + 128) * ver + 64;
 1051              		.loc 1 337 2 is_stmt 1 view .LVU257
 1052 0002 431E     		subs	r3, r0, #1
 1053 0004 272B     		cmp	r3, #39
 1054 0006 1DD8     		bhi	.L105
 1055 0008 0246     		mov	r2, r0
 338:lvgl/src/extra/libs/qrcode/qrcodegen.c **** 	if (ver >= 2) {
 1056              		.loc 1 338 2 view .LVU258
 338:lvgl/src/extra/libs/qrcode/qrcodegen.c **** 	if (ver >= 2) {
 1057              		.loc 1 338 25 is_stmt 0 view .LVU259
 1058 000a 00F10803 		add	r3, r0, #8
 338:lvgl/src/extra/libs/qrcode/qrcodegen.c **** 	if (ver >= 2) {
 1059              		.loc 1 338 32 view .LVU260
 1060 000e 00FB03F3 		mul	r3, r0, r3
 338:lvgl/src/extra/libs/qrcode/qrcodegen.c **** 	if (ver >= 2) {
 1061              		.loc 1 338 38 view .LVU261
 1062 0012 0433     		adds	r3, r3, #4
 338:lvgl/src/extra/libs/qrcode/qrcodegen.c **** 	if (ver >= 2) {
 1063              		.loc 1 338 6 view .LVU262
 1064 0014 1801     		lsls	r0, r3, #4
 1065              	.LVL117:
 339:lvgl/src/extra/libs/qrcode/qrcodegen.c **** 		int numAlign = ver / 7 + 2;
 1066              		.loc 1 339 2 is_stmt 1 view .LVU263
 339:lvgl/src/extra/libs/qrcode/qrcodegen.c **** 		int numAlign = ver / 7 + 2;
 1067              		.loc 1 339 5 is_stmt 0 view .LVU264
 1068 0016 012A     		cmp	r2, #1
 1069 0018 13DD     		ble	.L101
 1070              	.LBB20:
 340:lvgl/src/extra/libs/qrcode/qrcodegen.c **** 		result -= (25 * numAlign - 10) * numAlign - 55;
 1071              		.loc 1 340 3 is_stmt 1 view .LVU265
 340:lvgl/src/extra/libs/qrcode/qrcodegen.c **** 		result -= (25 * numAlign - 10) * numAlign - 55;
 1072              		.loc 1 340 22 is_stmt 0 view .LVU266
 1073 001a 0E4B     		ldr	r3, .L106
 1074 001c 83FB0213 		smull	r1, r3, r3, r2
 1075 0020 1344     		add	r3, r3, r2
 1076 0022 D117     		asrs	r1, r2, #31
 1077 0024 C1EBA301 		rsb	r1, r1, r3, asr #2
 340:lvgl/src/extra/libs/qrcode/qrcodegen.c **** 		result -= (25 * numAlign - 10) * numAlign - 55;
 1078              		.loc 1 340 7 view .LVU267
 1079 0028 0231     		adds	r1, r1, #2
 1080              	.LVL118:
ARM GAS  C:\usertemp\ccXENK9d.s 			page 41


 341:lvgl/src/extra/libs/qrcode/qrcodegen.c **** 		if (ver >= 7)
 1081              		.loc 1 341 3 is_stmt 1 view .LVU268
 341:lvgl/src/extra/libs/qrcode/qrcodegen.c **** 		if (ver >= 7)
 1082              		.loc 1 341 17 is_stmt 0 view .LVU269
 1083 002a 01EB8103 		add	r3, r1, r1, lsl #2
 1084 002e 03EB8303 		add	r3, r3, r3, lsl #2
 341:lvgl/src/extra/libs/qrcode/qrcodegen.c **** 		if (ver >= 7)
 1085              		.loc 1 341 28 view .LVU270
 1086 0032 0A3B     		subs	r3, r3, #10
 341:lvgl/src/extra/libs/qrcode/qrcodegen.c **** 		if (ver >= 7)
 1087              		.loc 1 341 34 view .LVU271
 1088 0034 01FB03F3 		mul	r3, r1, r3
 341:lvgl/src/extra/libs/qrcode/qrcodegen.c **** 		if (ver >= 7)
 1089              		.loc 1 341 45 view .LVU272
 1090 0038 373B     		subs	r3, r3, #55
 341:lvgl/src/extra/libs/qrcode/qrcodegen.c **** 		if (ver >= 7)
 1091              		.loc 1 341 10 view .LVU273
 1092 003a C01A     		subs	r0, r0, r3
 1093              	.LVL119:
 342:lvgl/src/extra/libs/qrcode/qrcodegen.c **** 			result -= 36;
 1094              		.loc 1 342 3 is_stmt 1 view .LVU274
 342:lvgl/src/extra/libs/qrcode/qrcodegen.c **** 			result -= 36;
 1095              		.loc 1 342 6 is_stmt 0 view .LVU275
 1096 003c 062A     		cmp	r2, #6
 1097 003e 00DD     		ble	.L101
 343:lvgl/src/extra/libs/qrcode/qrcodegen.c **** 	}
 1098              		.loc 1 343 4 is_stmt 1 view .LVU276
 343:lvgl/src/extra/libs/qrcode/qrcodegen.c **** 	}
 1099              		.loc 1 343 11 is_stmt 0 view .LVU277
 1100 0040 2438     		subs	r0, r0, #36
 1101              	.LVL120:
 343:lvgl/src/extra/libs/qrcode/qrcodegen.c **** 	}
 1102              		.loc 1 343 11 view .LVU278
 1103              	.LBE20:
 345:lvgl/src/extra/libs/qrcode/qrcodegen.c **** }
 1104              		.loc 1 345 2 is_stmt 1 view .LVU279
 1105              	.L101:
 346:lvgl/src/extra/libs/qrcode/qrcodegen.c **** 
 1106              		.loc 1 346 1 is_stmt 0 view .LVU280
 1107 0042 08BD     		pop	{r3, pc}
 1108              	.LVL121:
 1109              	.L105:
 337:lvgl/src/extra/libs/qrcode/qrcodegen.c **** 	int result = (16 * ver + 128) * ver + 64;
 1110              		.loc 1 337 2 discriminator 1 view .LVU281
 1111 0044 044B     		ldr	r3, .L106+4
 1112 0046 054A     		ldr	r2, .L106+8
 1113 0048 40F25111 		movw	r1, #337
 1114 004c 0448     		ldr	r0, .L106+12
 1115              	.LVL122:
 337:lvgl/src/extra/libs/qrcode/qrcodegen.c **** 	int result = (16 * ver + 128) * ver + 64;
 1116              		.loc 1 337 2 discriminator 1 view .LVU282
 1117 004e FFF7FEFF 		bl	__assert_func
 1118              	.LVL123:
 1119              	.L107:
 1120 0052 00BF     		.align	2
 1121              	.L106:
 1122 0054 93244992 		.word	-1840700269
ARM GAS  C:\usertemp\ccXENK9d.s 			page 42


 1123 0058 00000000 		.word	.LC10
 1124 005c 00000000 		.word	__func__.16
 1125 0060 08000000 		.word	.LC1
 1126              		.cfi_endproc
 1127              	.LFE7:
 1129              		.section	.rodata.getNumDataCodewords.str1.4,"aMS",%progbits,1
 1130              		.align	2
 1131              	.LC11:
 1132 0000 30203C3D 		.ascii	"0 <= e && e < 4\000"
 1132      20652026 
 1132      26206520 
 1132      3C203400 
 1133              		.section	.text.getNumDataCodewords,"ax",%progbits
 1134              		.align	1
 1135              		.syntax unified
 1136              		.thumb
 1137              		.thumb_func
 1139              	getNumDataCodewords:
 1140              	.LVL124:
 1141              	.LFB6:
 324:lvgl/src/extra/libs/qrcode/qrcodegen.c **** 	int v = version, e = (int)ecl;
 1142              		.loc 1 324 71 is_stmt 1 view -0
 1143              		.cfi_startproc
 1144              		@ args = 0, pretend = 0, frame = 0
 1145              		@ frame_needed = 0, uses_anonymous_args = 0
 324:lvgl/src/extra/libs/qrcode/qrcodegen.c **** 	int v = version, e = (int)ecl;
 1146              		.loc 1 324 71 is_stmt 0 view .LVU284
 1147 0000 38B5     		push	{r3, r4, r5, lr}
 1148              	.LCFI12:
 1149              		.cfi_def_cfa_offset 16
 1150              		.cfi_offset 3, -16
 1151              		.cfi_offset 4, -12
 1152              		.cfi_offset 5, -8
 1153              		.cfi_offset 14, -4
 325:lvgl/src/extra/libs/qrcode/qrcodegen.c **** 	assert(0 <= e && e < 4);
 1154              		.loc 1 325 2 is_stmt 1 view .LVU285
 1155              	.LVL125:
 326:lvgl/src/extra/libs/qrcode/qrcodegen.c **** 	return getNumRawDataModules(v) / 8
 1156              		.loc 1 326 2 view .LVU286
 1157 0002 0329     		cmp	r1, #3
 1158 0004 14D8     		bhi	.L112
 1159 0006 0546     		mov	r5, r0
 1160 0008 0C46     		mov	r4, r1
 1161              	.LVL126:
 327:lvgl/src/extra/libs/qrcode/qrcodegen.c **** 		- ECC_CODEWORDS_PER_BLOCK    [e][v]
 1162              		.loc 1 327 2 view .LVU287
 327:lvgl/src/extra/libs/qrcode/qrcodegen.c **** 		- ECC_CODEWORDS_PER_BLOCK    [e][v]
 1163              		.loc 1 327 9 is_stmt 0 view .LVU288
 1164 000a FFF7FEFF 		bl	getNumRawDataModules
 1165              	.LVL127:
 327:lvgl/src/extra/libs/qrcode/qrcodegen.c **** 		- ECC_CODEWORDS_PER_BLOCK    [e][v]
 1166              		.loc 1 327 33 discriminator 1 view .LVU289
 1167 000e 0028     		cmp	r0, #0
 1168 0010 15DB     		blt	.L113
 1169              	.L110:
 328:lvgl/src/extra/libs/qrcode/qrcodegen.c **** 		* NUM_ERROR_CORRECTION_BLOCKS[e][v];
 1170              		.loc 1 328 35 view .LVU290
ARM GAS  C:\usertemp\ccXENK9d.s 			page 43


 1171 0012 04EB8403 		add	r3, r4, r4, lsl #2
 1172 0016 04EBC304 		add	r4, r4, r3, lsl #3
 1173              	.LVL128:
 328:lvgl/src/extra/libs/qrcode/qrcodegen.c **** 		* NUM_ERROR_CORRECTION_BLOCKS[e][v];
 1174              		.loc 1 328 35 view .LVU291
 1175 001a 0A4B     		ldr	r3, .L114
 1176 001c 2344     		add	r3, r3, r4
 1177 001e 5B57     		ldrsb	r3, [r3, r5]
 329:lvgl/src/extra/libs/qrcode/qrcodegen.c **** }
 1178              		.loc 1 329 35 view .LVU292
 1179 0020 094A     		ldr	r2, .L114+4
 1180 0022 2244     		add	r2, r2, r4
 1181 0024 5257     		ldrsb	r2, [r2, r5]
 329:lvgl/src/extra/libs/qrcode/qrcodegen.c **** }
 1182              		.loc 1 329 3 view .LVU293
 1183 0026 02FB03F3 		mul	r3, r2, r3
 330:lvgl/src/extra/libs/qrcode/qrcodegen.c **** 
 1184              		.loc 1 330 1 view .LVU294
 1185 002a C3EBE000 		rsb	r0, r3, r0, asr #3
 1186 002e 38BD     		pop	{r3, r4, r5, pc}
 1187              	.LVL129:
 1188              	.L112:
 326:lvgl/src/extra/libs/qrcode/qrcodegen.c **** 	return getNumRawDataModules(v) / 8
 1189              		.loc 1 326 2 discriminator 1 view .LVU295
 1190 0030 064B     		ldr	r3, .L114+8
 1191 0032 074A     		ldr	r2, .L114+12
 1192 0034 4FF4A371 		mov	r1, #326
 1193              	.LVL130:
 326:lvgl/src/extra/libs/qrcode/qrcodegen.c **** 	return getNumRawDataModules(v) / 8
 1194              		.loc 1 326 2 discriminator 1 view .LVU296
 1195 0038 0648     		ldr	r0, .L114+16
 1196              	.LVL131:
 326:lvgl/src/extra/libs/qrcode/qrcodegen.c **** 	return getNumRawDataModules(v) / 8
 1197              		.loc 1 326 2 discriminator 1 view .LVU297
 1198 003a FFF7FEFF 		bl	__assert_func
 1199              	.LVL132:
 1200              	.L113:
 327:lvgl/src/extra/libs/qrcode/qrcodegen.c **** 		- ECC_CODEWORDS_PER_BLOCK    [e][v]
 1201              		.loc 1 327 33 discriminator 1 view .LVU298
 1202 003e 0730     		adds	r0, r0, #7
 1203 0040 E7E7     		b	.L110
 1204              	.L115:
 1205 0042 00BF     		.align	2
 1206              	.L114:
 1207 0044 00000000 		.word	ECC_CODEWORDS_PER_BLOCK
 1208 0048 00000000 		.word	NUM_ERROR_CORRECTION_BLOCKS
 1209 004c 00000000 		.word	.LC11
 1210 0050 00000000 		.word	__func__.21
 1211 0054 08000000 		.word	.LC1
 1212              		.cfi_endproc
 1213              	.LFE6:
 1215              		.section	.rodata.getModule.str1.4,"aMS",%progbits,1
 1216              		.align	2
 1217              	.LC12:
 1218 0000 3231203C 		.ascii	"21 <= qrsize && qrsize <= 177 && 0 <= x && x < qrsi"
 1218      3D207172 
 1218      73697A65 
ARM GAS  C:\usertemp\ccXENK9d.s 			page 44


 1218      20262620 
 1218      71727369 
 1219 0033 7A652026 		.ascii	"ze && 0 <= y && y < qrsize\000"
 1219      26203020 
 1219      3C3D2079 
 1219      20262620 
 1219      79203C20 
 1220              		.section	.text.getModule,"ax",%progbits
 1221              		.align	1
 1222              		.syntax unified
 1223              		.thumb
 1224              		.thumb_func
 1226              	getModule:
 1227              	.LVL133:
 1228              	.LFB23:
 757:lvgl/src/extra/libs/qrcode/qrcodegen.c **** 	int qrsize = qrcode[0];
 1229              		.loc 1 757 63 is_stmt 1 view -0
 1230              		.cfi_startproc
 1231              		@ args = 0, pretend = 0, frame = 0
 1232              		@ frame_needed = 0, uses_anonymous_args = 0
 757:lvgl/src/extra/libs/qrcode/qrcodegen.c **** 	int qrsize = qrcode[0];
 1233              		.loc 1 757 63 is_stmt 0 view .LVU300
 1234 0000 10B5     		push	{r4, lr}
 1235              	.LCFI13:
 1236              		.cfi_def_cfa_offset 8
 1237              		.cfi_offset 4, -8
 1238              		.cfi_offset 14, -4
 758:lvgl/src/extra/libs/qrcode/qrcodegen.c **** 	assert(21 <= qrsize && qrsize <= 177 && 0 <= x && x < qrsize && 0 <= y && y < qrsize);
 1239              		.loc 1 758 2 is_stmt 1 view .LVU301
 758:lvgl/src/extra/libs/qrcode/qrcodegen.c **** 	assert(21 <= qrsize && qrsize <= 177 && 0 <= x && x < qrsize && 0 <= y && y < qrsize);
 1240              		.loc 1 758 21 is_stmt 0 view .LVU302
 1241 0002 0378     		ldrb	r3, [r0]	@ zero_extendqisi2
 1242              	.LVL134:
 759:lvgl/src/extra/libs/qrcode/qrcodegen.c **** 	int index = y * qrsize + x;
 1243              		.loc 1 759 2 is_stmt 1 view .LVU303
 1244 0004 A3F1150C 		sub	ip, r3, #21
 1245 0008 BCF19C0F 		cmp	ip, #156
 1246 000c 17D8     		bhi	.L117
 759:lvgl/src/extra/libs/qrcode/qrcodegen.c **** 	int index = y * qrsize + x;
 1247              		.loc 1 759 2 is_stmt 0 discriminator 2 view .LVU304
 1248 000e 8B42     		cmp	r3, r1
 1249 0010 CCBF     		ite	gt
 1250 0012 0024     		movgt	r4, #0
 1251 0014 0124     		movle	r4, #1
 1252 0016 0029     		cmp	r1, #0
 1253 0018 11DB     		blt	.L117
 1254 001a 84B9     		cbnz	r4, .L117
 759:lvgl/src/extra/libs/qrcode/qrcodegen.c **** 	int index = y * qrsize + x;
 1255              		.loc 1 759 2 discriminator 4 view .LVU305
 1256 001c 9342     		cmp	r3, r2
 1257 001e CCBF     		ite	gt
 1258 0020 0024     		movgt	r4, #0
 1259 0022 0124     		movle	r4, #1
 1260 0024 002A     		cmp	r2, #0
 1261 0026 0ADB     		blt	.L117
 1262 0028 4CB9     		cbnz	r4, .L117
 760:lvgl/src/extra/libs/qrcode/qrcodegen.c **** 	return getBit(qrcode[(index >> 3) + 1], index & 7);
ARM GAS  C:\usertemp\ccXENK9d.s 			page 45


 1263              		.loc 1 760 2 is_stmt 1 view .LVU306
 760:lvgl/src/extra/libs/qrcode/qrcodegen.c **** 	return getBit(qrcode[(index >> 3) + 1], index & 7);
 1264              		.loc 1 760 6 is_stmt 0 view .LVU307
 1265 002a 02FB0311 		mla	r1, r2, r3, r1
 1266              	.LVL135:
 761:lvgl/src/extra/libs/qrcode/qrcodegen.c **** }
 1267              		.loc 1 761 2 is_stmt 1 view .LVU308
 761:lvgl/src/extra/libs/qrcode/qrcodegen.c **** }
 1268              		.loc 1 761 22 is_stmt 0 view .LVU309
 1269 002e 00EBE100 		add	r0, r0, r1, asr #3
 1270              	.LVL136:
 761:lvgl/src/extra/libs/qrcode/qrcodegen.c **** }
 1271              		.loc 1 761 9 view .LVU310
 1272 0032 01F00701 		and	r1, r1, #7
 1273              	.LVL137:
 761:lvgl/src/extra/libs/qrcode/qrcodegen.c **** }
 1274              		.loc 1 761 9 view .LVU311
 1275 0036 4078     		ldrb	r0, [r0, #1]	@ zero_extendqisi2
 1276 0038 FFF7FEFF 		bl	getBit
 1277              	.LVL138:
 762:lvgl/src/extra/libs/qrcode/qrcodegen.c **** 
 1278              		.loc 1 762 1 view .LVU312
 1279 003c 10BD     		pop	{r4, pc}
 1280              	.LVL139:
 1281              	.L117:
 759:lvgl/src/extra/libs/qrcode/qrcodegen.c **** 	int index = y * qrsize + x;
 1282              		.loc 1 759 2 discriminator 5 view .LVU313
 1283 003e 034B     		ldr	r3, .L121
 1284              	.LVL140:
 759:lvgl/src/extra/libs/qrcode/qrcodegen.c **** 	int index = y * qrsize + x;
 1285              		.loc 1 759 2 discriminator 5 view .LVU314
 1286 0040 034A     		ldr	r2, .L121+4
 1287              	.LVL141:
 759:lvgl/src/extra/libs/qrcode/qrcodegen.c **** 	int index = y * qrsize + x;
 1288              		.loc 1 759 2 discriminator 5 view .LVU315
 1289 0042 40F2F721 		movw	r1, #759
 1290              	.LVL142:
 759:lvgl/src/extra/libs/qrcode/qrcodegen.c **** 	int index = y * qrsize + x;
 1291              		.loc 1 759 2 discriminator 5 view .LVU316
 1292 0046 0348     		ldr	r0, .L121+8
 1293              	.LVL143:
 759:lvgl/src/extra/libs/qrcode/qrcodegen.c **** 	int index = y * qrsize + x;
 1294              		.loc 1 759 2 discriminator 5 view .LVU317
 1295 0048 FFF7FEFF 		bl	__assert_func
 1296              	.LVL144:
 1297              	.L122:
 759:lvgl/src/extra/libs/qrcode/qrcodegen.c **** 	int index = y * qrsize + x;
 1298              		.loc 1 759 2 discriminator 5 view .LVU318
 1299              		.align	2
 1300              	.L121:
 1301 004c 00000000 		.word	.LC12
 1302 0050 00000000 		.word	__func__.14
 1303 0054 08000000 		.word	.LC1
 1304              		.cfi_endproc
 1305              	.LFE23:
 1307              		.section	.text.setModule,"ax",%progbits
 1308              		.align	1
ARM GAS  C:\usertemp\ccXENK9d.s 			page 46


 1309              		.syntax unified
 1310              		.thumb
 1311              		.thumb_func
 1313              	setModule:
 1314              	.LVL145:
 1315              	.LFB24:
 766:lvgl/src/extra/libs/qrcode/qrcodegen.c **** 	int qrsize = qrcode[0];
 1316              		.loc 1 766 71 is_stmt 1 view -0
 1317              		.cfi_startproc
 1318              		@ args = 0, pretend = 0, frame = 0
 1319              		@ frame_needed = 0, uses_anonymous_args = 0
 766:lvgl/src/extra/libs/qrcode/qrcodegen.c **** 	int qrsize = qrcode[0];
 1320              		.loc 1 766 71 is_stmt 0 view .LVU320
 1321 0000 10B5     		push	{r4, lr}
 1322              	.LCFI14:
 1323              		.cfi_def_cfa_offset 8
 1324              		.cfi_offset 4, -8
 1325              		.cfi_offset 14, -4
 767:lvgl/src/extra/libs/qrcode/qrcodegen.c **** 	assert(21 <= qrsize && qrsize <= 177 && 0 <= x && x < qrsize && 0 <= y && y < qrsize);
 1326              		.loc 1 767 2 is_stmt 1 view .LVU321
 767:lvgl/src/extra/libs/qrcode/qrcodegen.c **** 	assert(21 <= qrsize && qrsize <= 177 && 0 <= x && x < qrsize && 0 <= y && y < qrsize);
 1327              		.loc 1 767 21 is_stmt 0 view .LVU322
 1328 0002 90F800C0 		ldrb	ip, [r0]	@ zero_extendqisi2
 1329              	.LVL146:
 768:lvgl/src/extra/libs/qrcode/qrcodegen.c **** 	int index = y * qrsize + x;
 1330              		.loc 1 768 2 is_stmt 1 view .LVU323
 1331 0006 ACF1150E 		sub	lr, ip, #21
 1332 000a BEF19C0F 		cmp	lr, #156
 1333 000e 1AD8     		bhi	.L124
 768:lvgl/src/extra/libs/qrcode/qrcodegen.c **** 	int index = y * qrsize + x;
 1334              		.loc 1 768 2 is_stmt 0 discriminator 2 view .LVU324
 1335 0010 8C45     		cmp	ip, r1
 1336 0012 CCBF     		ite	gt
 1337 0014 0024     		movgt	r4, #0
 1338 0016 0124     		movle	r4, #1
 1339 0018 0029     		cmp	r1, #0
 1340 001a 14DB     		blt	.L124
 1341 001c 9CB9     		cbnz	r4, .L124
 768:lvgl/src/extra/libs/qrcode/qrcodegen.c **** 	int index = y * qrsize + x;
 1342              		.loc 1 768 2 discriminator 4 view .LVU325
 1343 001e 9445     		cmp	ip, r2
 1344 0020 CCBF     		ite	gt
 1345 0022 0024     		movgt	r4, #0
 1346 0024 0124     		movle	r4, #1
 1347 0026 002A     		cmp	r2, #0
 1348 0028 0DDB     		blt	.L124
 1349 002a 64B9     		cbnz	r4, .L124
 769:lvgl/src/extra/libs/qrcode/qrcodegen.c **** 	int bitIndex = index & 7;
 1350              		.loc 1 769 2 is_stmt 1 view .LVU326
 769:lvgl/src/extra/libs/qrcode/qrcodegen.c **** 	int bitIndex = index & 7;
 1351              		.loc 1 769 6 is_stmt 0 view .LVU327
 1352 002c 02FB0C11 		mla	r1, r2, ip, r1
 1353              	.LVL147:
 770:lvgl/src/extra/libs/qrcode/qrcodegen.c **** 	int byteIndex = (index >> 3) + 1;
 1354              		.loc 1 770 2 is_stmt 1 view .LVU328
 770:lvgl/src/extra/libs/qrcode/qrcodegen.c **** 	int byteIndex = (index >> 3) + 1;
 1355              		.loc 1 770 6 is_stmt 0 view .LVU329
ARM GAS  C:\usertemp\ccXENK9d.s 			page 47


 1356 0030 01F00704 		and	r4, r1, #7
 1357              	.LVL148:
 771:lvgl/src/extra/libs/qrcode/qrcodegen.c **** 	if (isBlack)
 1358              		.loc 1 771 2 is_stmt 1 view .LVU330
 771:lvgl/src/extra/libs/qrcode/qrcodegen.c **** 	if (isBlack)
 1359              		.loc 1 771 25 is_stmt 0 view .LVU331
 1360 0034 C910     		asrs	r1, r1, #3
 1361              	.LVL149:
 771:lvgl/src/extra/libs/qrcode/qrcodegen.c **** 	if (isBlack)
 1362              		.loc 1 771 6 view .LVU332
 1363 0036 0131     		adds	r1, r1, #1
 1364              	.LVL150:
 772:lvgl/src/extra/libs/qrcode/qrcodegen.c **** 		qrcode[byteIndex] |= 1 << bitIndex;
 1365              		.loc 1 772 2 is_stmt 1 view .LVU333
 772:lvgl/src/extra/libs/qrcode/qrcodegen.c **** 		qrcode[byteIndex] |= 1 << bitIndex;
 1366              		.loc 1 772 5 is_stmt 0 view .LVU334
 1367 0038 63B1     		cbz	r3, .L127
 773:lvgl/src/extra/libs/qrcode/qrcodegen.c **** 	else
 1368              		.loc 1 773 3 is_stmt 1 view .LVU335
 773:lvgl/src/extra/libs/qrcode/qrcodegen.c **** 	else
 1369              		.loc 1 773 9 is_stmt 0 view .LVU336
 1370 003a 435C     		ldrb	r3, [r0, r1]	@ zero_extendqisi2
 1371              	.LVL151:
 773:lvgl/src/extra/libs/qrcode/qrcodegen.c **** 	else
 1372              		.loc 1 773 26 view .LVU337
 1373 003c 0122     		movs	r2, #1
 1374              	.LVL152:
 773:lvgl/src/extra/libs/qrcode/qrcodegen.c **** 	else
 1375              		.loc 1 773 26 view .LVU338
 1376 003e A240     		lsls	r2, r2, r4
 773:lvgl/src/extra/libs/qrcode/qrcodegen.c **** 	else
 1377              		.loc 1 773 21 view .LVU339
 1378 0040 1343     		orrs	r3, r3, r2
 1379 0042 4354     		strb	r3, [r0, r1]
 1380              	.L123:
 776:lvgl/src/extra/libs/qrcode/qrcodegen.c **** 
 1381              		.loc 1 776 1 view .LVU340
 1382 0044 10BD     		pop	{r4, pc}
 1383              	.LVL153:
 1384              	.L124:
 768:lvgl/src/extra/libs/qrcode/qrcodegen.c **** 	int index = y * qrsize + x;
 1385              		.loc 1 768 2 discriminator 5 view .LVU341
 1386 0046 074B     		ldr	r3, .L130
 1387              	.LVL154:
 768:lvgl/src/extra/libs/qrcode/qrcodegen.c **** 	int index = y * qrsize + x;
 1388              		.loc 1 768 2 discriminator 5 view .LVU342
 1389 0048 074A     		ldr	r2, .L130+4
 1390              	.LVL155:
 768:lvgl/src/extra/libs/qrcode/qrcodegen.c **** 	int index = y * qrsize + x;
 1391              		.loc 1 768 2 discriminator 5 view .LVU343
 1392 004a 4FF44071 		mov	r1, #768
 1393              	.LVL156:
 768:lvgl/src/extra/libs/qrcode/qrcodegen.c **** 	int index = y * qrsize + x;
 1394              		.loc 1 768 2 discriminator 5 view .LVU344
 1395 004e 0748     		ldr	r0, .L130+8
 1396              	.LVL157:
 768:lvgl/src/extra/libs/qrcode/qrcodegen.c **** 	int index = y * qrsize + x;
ARM GAS  C:\usertemp\ccXENK9d.s 			page 48


 1397              		.loc 1 768 2 discriminator 5 view .LVU345
 1398 0050 FFF7FEFF 		bl	__assert_func
 1399              	.LVL158:
 1400              	.L127:
 775:lvgl/src/extra/libs/qrcode/qrcodegen.c **** }
 1401              		.loc 1 775 3 is_stmt 1 view .LVU346
 775:lvgl/src/extra/libs/qrcode/qrcodegen.c **** }
 1402              		.loc 1 775 9 is_stmt 0 view .LVU347
 1403 0054 425C     		ldrb	r2, [r0, r1]	@ zero_extendqisi2
 1404              	.LVL159:
 775:lvgl/src/extra/libs/qrcode/qrcodegen.c **** }
 1405              		.loc 1 775 27 view .LVU348
 1406 0056 0123     		movs	r3, #1
 1407              	.LVL160:
 775:lvgl/src/extra/libs/qrcode/qrcodegen.c **** }
 1408              		.loc 1 775 27 view .LVU349
 1409 0058 A340     		lsls	r3, r3, r4
 775:lvgl/src/extra/libs/qrcode/qrcodegen.c **** }
 1410              		.loc 1 775 40 view .LVU350
 1411 005a DB43     		mvns	r3, r3
 1412 005c 5BB2     		sxtb	r3, r3
 775:lvgl/src/extra/libs/qrcode/qrcodegen.c **** }
 1413              		.loc 1 775 21 view .LVU351
 1414 005e 1340     		ands	r3, r3, r2
 1415 0060 4354     		strb	r3, [r0, r1]
 776:lvgl/src/extra/libs/qrcode/qrcodegen.c **** 
 1416              		.loc 1 776 1 view .LVU352
 1417 0062 EFE7     		b	.L123
 1418              	.L131:
 1419              		.align	2
 1420              	.L130:
 1421 0064 00000000 		.word	.LC12
 1422 0068 00000000 		.word	__func__.13
 1423 006c 08000000 		.word	.LC1
 1424              		.cfi_endproc
 1425              	.LFE24:
 1427              		.section	.text.setModuleBounded,"ax",%progbits
 1428              		.align	1
 1429              		.syntax unified
 1430              		.thumb
 1431              		.thumb_func
 1433              	setModuleBounded:
 1434              	.LVL161:
 1435              	.LFB25:
 780:lvgl/src/extra/libs/qrcode/qrcodegen.c **** 	int qrsize = qrcode[0];
 1436              		.loc 1 780 78 is_stmt 1 view -0
 1437              		.cfi_startproc
 1438              		@ args = 0, pretend = 0, frame = 0
 1439              		@ frame_needed = 0, uses_anonymous_args = 0
 781:lvgl/src/extra/libs/qrcode/qrcodegen.c **** 	if (0 <= x && x < qrsize && 0 <= y && y < qrsize)
 1440              		.loc 1 781 2 view .LVU354
 781:lvgl/src/extra/libs/qrcode/qrcodegen.c **** 	if (0 <= x && x < qrsize && 0 <= y && y < qrsize)
 1441              		.loc 1 781 21 is_stmt 0 view .LVU355
 1442 0000 90F800C0 		ldrb	ip, [r0]	@ zero_extendqisi2
 1443              	.LVL162:
 782:lvgl/src/extra/libs/qrcode/qrcodegen.c **** 		setModule(qrcode, x, y, isBlack);
 1444              		.loc 1 782 2 is_stmt 1 view .LVU356
ARM GAS  C:\usertemp\ccXENK9d.s 			page 49


 782:lvgl/src/extra/libs/qrcode/qrcodegen.c **** 		setModule(qrcode, x, y, isBlack);
 1445              		.loc 1 782 5 is_stmt 0 view .LVU357
 1446 0004 0029     		cmp	r1, #0
 1447 0006 A8BF     		it	ge
 1448 0008 8C45     		cmpge	ip, r1
 1449 000a 0BDD     		ble	.L135
 780:lvgl/src/extra/libs/qrcode/qrcodegen.c **** 	int qrsize = qrcode[0];
 1450              		.loc 1 780 78 view .LVU358
 1451 000c 10B5     		push	{r4, lr}
 1452              	.LCFI15:
 1453              		.cfi_def_cfa_offset 8
 1454              		.cfi_offset 4, -8
 1455              		.cfi_offset 14, -4
 782:lvgl/src/extra/libs/qrcode/qrcodegen.c **** 		setModule(qrcode, x, y, isBlack);
 1456              		.loc 1 782 42 discriminator 1 view .LVU359
 1457 000e 9445     		cmp	ip, r2
 1458 0010 D4BF     		ite	le
 1459 0012 0024     		movle	r4, #0
 1460 0014 0124     		movgt	r4, #1
 782:lvgl/src/extra/libs/qrcode/qrcodegen.c **** 		setModule(qrcode, x, y, isBlack);
 1461              		.loc 1 782 37 discriminator 1 view .LVU360
 1462 0016 002A     		cmp	r2, #0
 1463 0018 00DB     		blt	.L132
 1464 001a 04B9     		cbnz	r4, .L138
 1465              	.LVL163:
 1466              	.L132:
 784:lvgl/src/extra/libs/qrcode/qrcodegen.c **** 
 1467              		.loc 1 784 1 view .LVU361
 1468 001c 10BD     		pop	{r4, pc}
 1469              	.LVL164:
 1470              	.L138:
 783:lvgl/src/extra/libs/qrcode/qrcodegen.c **** }
 1471              		.loc 1 783 3 is_stmt 1 view .LVU362
 1472 001e FFF7FEFF 		bl	setModule
 1473              	.LVL165:
 784:lvgl/src/extra/libs/qrcode/qrcodegen.c **** 
 1474              		.loc 1 784 1 is_stmt 0 view .LVU363
 1475 0022 FBE7     		b	.L132
 1476              	.LVL166:
 1477              	.L135:
 1478              	.LCFI16:
 1479              		.cfi_def_cfa_offset 0
 1480              		.cfi_restore 4
 1481              		.cfi_restore 14
 784:lvgl/src/extra/libs/qrcode/qrcodegen.c **** 
 1482              		.loc 1 784 1 view .LVU364
 1483 0024 7047     		bx	lr
 1484              		.cfi_endproc
 1485              	.LFE25:
 1487              		.section	.text.fillRectangle,"ax",%progbits
 1488              		.align	1
 1489              		.syntax unified
 1490              		.thumb
 1491              		.thumb_func
 1493              	fillRectangle:
 1494              	.LVL167:
 1495              	.LFB15:
ARM GAS  C:\usertemp\ccXENK9d.s 			page 50


 559:lvgl/src/extra/libs/qrcode/qrcodegen.c **** 	for (int dy = 0; dy < height; dy++) {
 1496              		.loc 1 559 87 is_stmt 1 view -0
 1497              		.cfi_startproc
 1498              		@ args = 4, pretend = 0, frame = 0
 1499              		@ frame_needed = 0, uses_anonymous_args = 0
 559:lvgl/src/extra/libs/qrcode/qrcodegen.c **** 	for (int dy = 0; dy < height; dy++) {
 1500              		.loc 1 559 87 is_stmt 0 view .LVU366
 1501 0000 2DE9F047 		push	{r4, r5, r6, r7, r8, r9, r10, lr}
 1502              	.LCFI17:
 1503              		.cfi_def_cfa_offset 32
 1504              		.cfi_offset 4, -32
 1505              		.cfi_offset 5, -28
 1506              		.cfi_offset 6, -24
 1507              		.cfi_offset 7, -20
 1508              		.cfi_offset 8, -16
 1509              		.cfi_offset 9, -12
 1510              		.cfi_offset 10, -8
 1511              		.cfi_offset 14, -4
 1512 0004 8046     		mov	r8, r0
 1513 0006 0F46     		mov	r7, r1
 1514 0008 1646     		mov	r6, r2
 1515 000a 9A46     		mov	r10, r3
 1516 000c DDF82090 		ldr	r9, [sp, #32]
 560:lvgl/src/extra/libs/qrcode/qrcodegen.c **** 		for (int dx = 0; dx < width; dx++)
 1517              		.loc 1 560 2 is_stmt 1 view .LVU367
 1518              	.LBB21:
 560:lvgl/src/extra/libs/qrcode/qrcodegen.c **** 		for (int dx = 0; dx < width; dx++)
 1519              		.loc 1 560 7 view .LVU368
 1520              	.LVL168:
 560:lvgl/src/extra/libs/qrcode/qrcodegen.c **** 		for (int dx = 0; dx < width; dx++)
 1521              		.loc 1 560 11 is_stmt 0 view .LVU369
 1522 0010 0025     		movs	r5, #0
 560:lvgl/src/extra/libs/qrcode/qrcodegen.c **** 		for (int dx = 0; dx < width; dx++)
 1523              		.loc 1 560 2 view .LVU370
 1524 0012 0AE0     		b	.L140
 1525              	.LVL169:
 1526              	.L141:
 1527              	.LBB22:
 562:lvgl/src/extra/libs/qrcode/qrcodegen.c **** 	}
 1528              		.loc 1 562 4 is_stmt 1 view .LVU371
 1529 0014 0123     		movs	r3, #1
 1530 0016 EA19     		adds	r2, r5, r7
 1531 0018 04EB0801 		add	r1, r4, r8
 1532 001c 4846     		mov	r0, r9
 1533 001e FFF7FEFF 		bl	setModule
 1534              	.LVL170:
 561:lvgl/src/extra/libs/qrcode/qrcodegen.c **** 			setModule(qrcode, left + dx, top + dy, true);
 1535              		.loc 1 561 34 discriminator 3 view .LVU372
 1536 0022 0134     		adds	r4, r4, #1
 1537              	.LVL171:
 1538              	.L142:
 561:lvgl/src/extra/libs/qrcode/qrcodegen.c **** 			setModule(qrcode, left + dx, top + dy, true);
 1539              		.loc 1 561 23 discriminator 1 view .LVU373
 1540 0024 B442     		cmp	r4, r6
 1541 0026 F5DB     		blt	.L141
 1542              	.LBE22:
 560:lvgl/src/extra/libs/qrcode/qrcodegen.c **** 		for (int dx = 0; dx < width; dx++)
ARM GAS  C:\usertemp\ccXENK9d.s 			page 51


 1543              		.loc 1 560 34 discriminator 2 view .LVU374
 1544 0028 0135     		adds	r5, r5, #1
 1545              	.LVL172:
 1546              	.L140:
 560:lvgl/src/extra/libs/qrcode/qrcodegen.c **** 		for (int dx = 0; dx < width; dx++)
 1547              		.loc 1 560 22 discriminator 1 view .LVU375
 1548 002a 5545     		cmp	r5, r10
 1549 002c 01DA     		bge	.L145
 1550              	.LBB23:
 561:lvgl/src/extra/libs/qrcode/qrcodegen.c **** 			setModule(qrcode, left + dx, top + dy, true);
 1551              		.loc 1 561 12 is_stmt 0 view .LVU376
 1552 002e 0024     		movs	r4, #0
 1553 0030 F8E7     		b	.L142
 1554              	.L145:
 1555              	.LBE23:
 1556              	.LBE21:
 564:lvgl/src/extra/libs/qrcode/qrcodegen.c **** 
 1557              		.loc 1 564 1 view .LVU377
 1558 0032 BDE8F087 		pop	{r4, r5, r6, r7, r8, r9, r10, pc}
 564:lvgl/src/extra/libs/qrcode/qrcodegen.c **** 
 1559              		.loc 1 564 1 view .LVU378
 1560              		.cfi_endproc
 1561              	.LFE15:
 1563              		.section	.rodata.calcReedSolomonGenerator.str1.4,"aMS",%progbits,1
 1564              		.align	2
 1565              	.LC13:
 1566 0000 31203C3D 		.ascii	"1 <= degree && degree <= qrcodegen_REED_SOLOMON_DEG"
 1566      20646567 
 1566      72656520 
 1566      26262064 
 1566      65677265 
 1567 0033 5245455F 		.ascii	"REE_MAX\000"
 1567      4D415800 
 1568              		.section	.text.calcReedSolomonGenerator,"ax",%progbits
 1569              		.align	1
 1570              		.syntax unified
 1571              		.thumb
 1572              		.thumb_func
 1574              	calcReedSolomonGenerator:
 1575              	.LVL173:
 1576              	.LFB8:
 353:lvgl/src/extra/libs/qrcode/qrcodegen.c **** 	// Start with the monomial x^0
 1577              		.loc 1 353 70 is_stmt 1 view -0
 1578              		.cfi_startproc
 1579              		@ args = 0, pretend = 0, frame = 0
 1580              		@ frame_needed = 0, uses_anonymous_args = 0
 353:lvgl/src/extra/libs/qrcode/qrcodegen.c **** 	// Start with the monomial x^0
 1581              		.loc 1 353 70 is_stmt 0 view .LVU380
 1582 0000 2DE9F047 		push	{r4, r5, r6, r7, r8, r9, r10, lr}
 1583              	.LCFI18:
 1584              		.cfi_def_cfa_offset 32
 1585              		.cfi_offset 4, -32
 1586              		.cfi_offset 5, -28
 1587              		.cfi_offset 6, -24
 1588              		.cfi_offset 7, -20
 1589              		.cfi_offset 8, -16
 1590              		.cfi_offset 9, -12
ARM GAS  C:\usertemp\ccXENK9d.s 			page 52


 1591              		.cfi_offset 10, -8
 1592              		.cfi_offset 14, -4
 355:lvgl/src/extra/libs/qrcode/qrcodegen.c **** 	memset(result, 0, degree * sizeof(result[0]));
 1593              		.loc 1 355 2 is_stmt 1 view .LVU381
 1594 0004 441E     		subs	r4, r0, #1
 1595 0006 1D2C     		cmp	r4, #29
 1596 0008 0DD8     		bhi	.L154
 1597 000a 0746     		mov	r7, r0
 1598 000c 0D46     		mov	r5, r1
 356:lvgl/src/extra/libs/qrcode/qrcodegen.c **** 	result[degree - 1] = 1;
 1599              		.loc 1 356 2 view .LVU382
 1600 000e 0246     		mov	r2, r0
 1601 0010 0021     		movs	r1, #0
 1602              	.LVL174:
 356:lvgl/src/extra/libs/qrcode/qrcodegen.c **** 	result[degree - 1] = 1;
 1603              		.loc 1 356 2 is_stmt 0 view .LVU383
 1604 0012 2846     		mov	r0, r5
 1605              	.LVL175:
 356:lvgl/src/extra/libs/qrcode/qrcodegen.c **** 	result[degree - 1] = 1;
 1606              		.loc 1 356 2 view .LVU384
 1607 0014 FFF7FEFF 		bl	memset
 1608              	.LVL176:
 357:lvgl/src/extra/libs/qrcode/qrcodegen.c **** 	
 1609              		.loc 1 357 2 is_stmt 1 view .LVU385
 357:lvgl/src/extra/libs/qrcode/qrcodegen.c **** 	
 1610              		.loc 1 357 21 is_stmt 0 view .LVU386
 1611 0018 4FF00109 		mov	r9, #1
 1612 001c 05F80490 		strb	r9, [r5, r4]
 362:lvgl/src/extra/libs/qrcode/qrcodegen.c **** 	for (int i = 0; i < degree; i++) {
 1613              		.loc 1 362 2 is_stmt 1 view .LVU387
 1614              	.LVL177:
 363:lvgl/src/extra/libs/qrcode/qrcodegen.c **** 		// Multiply the current product by (x - r^i)
 1615              		.loc 1 363 2 view .LVU388
 1616              	.LBB24:
 363:lvgl/src/extra/libs/qrcode/qrcodegen.c **** 		// Multiply the current product by (x - r^i)
 1617              		.loc 1 363 7 view .LVU389
 363:lvgl/src/extra/libs/qrcode/qrcodegen.c **** 		// Multiply the current product by (x - r^i)
 1618              		.loc 1 363 11 is_stmt 0 view .LVU390
 1619 0020 4FF0000A 		mov	r10, #0
 363:lvgl/src/extra/libs/qrcode/qrcodegen.c **** 		// Multiply the current product by (x - r^i)
 1620              		.loc 1 363 2 view .LVU391
 1621 0024 0DE0     		b	.L148
 1622              	.LVL178:
 1623              	.L154:
 363:lvgl/src/extra/libs/qrcode/qrcodegen.c **** 		// Multiply the current product by (x - r^i)
 1624              		.loc 1 363 2 view .LVU392
 1625              	.LBE24:
 355:lvgl/src/extra/libs/qrcode/qrcodegen.c **** 	memset(result, 0, degree * sizeof(result[0]));
 1626              		.loc 1 355 2 discriminator 1 view .LVU393
 1627 0026 124B     		ldr	r3, .L157
 1628 0028 124A     		ldr	r2, .L157+4
 1629 002a 40F26311 		movw	r1, #355
 1630              	.LVL179:
 355:lvgl/src/extra/libs/qrcode/qrcodegen.c **** 	memset(result, 0, degree * sizeof(result[0]));
 1631              		.loc 1 355 2 discriminator 1 view .LVU394
 1632 002e 1248     		ldr	r0, .L157+8
 1633              	.LVL180:
ARM GAS  C:\usertemp\ccXENK9d.s 			page 53


 355:lvgl/src/extra/libs/qrcode/qrcodegen.c **** 	memset(result, 0, degree * sizeof(result[0]));
 1634              		.loc 1 355 2 discriminator 1 view .LVU395
 1635 0030 FFF7FEFF 		bl	__assert_func
 1636              	.LVL181:
 1637              	.L156:
 1638              	.LBB26:
 370:lvgl/src/extra/libs/qrcode/qrcodegen.c **** 	}
 1639              		.loc 1 370 3 is_stmt 1 view .LVU396
 370:lvgl/src/extra/libs/qrcode/qrcodegen.c **** 	}
 1640              		.loc 1 370 10 is_stmt 0 view .LVU397
 1641 0034 0221     		movs	r1, #2
 1642 0036 4846     		mov	r0, r9
 1643 0038 FFF7FEFF 		bl	finiteFieldMultiply
 1644              	.LVL182:
 1645 003c 8146     		mov	r9, r0
 1646              	.LVL183:
 363:lvgl/src/extra/libs/qrcode/qrcodegen.c **** 		// Multiply the current product by (x - r^i)
 1647              		.loc 1 363 31 is_stmt 1 discriminator 2 view .LVU398
 1648 003e 0AF1010A 		add	r10, r10, #1
 1649              	.LVL184:
 1650              	.L148:
 363:lvgl/src/extra/libs/qrcode/qrcodegen.c **** 		// Multiply the current product by (x - r^i)
 1651              		.loc 1 363 20 discriminator 1 view .LVU399
 1652 0042 BA45     		cmp	r10, r7
 1653 0044 12DA     		bge	.L155
 1654              	.LBB25:
 365:lvgl/src/extra/libs/qrcode/qrcodegen.c **** 			result[j] = finiteFieldMultiply(result[j], root);
 1655              		.loc 1 365 12 is_stmt 0 view .LVU400
 1656 0046 0024     		movs	r4, #0
 1657              	.L151:
 1658              	.LVL185:
 365:lvgl/src/extra/libs/qrcode/qrcodegen.c **** 			result[j] = finiteFieldMultiply(result[j], root);
 1659              		.loc 1 365 21 is_stmt 1 discriminator 1 view .LVU401
 1660 0048 BC42     		cmp	r4, r7
 1661 004a F3DA     		bge	.L156
 366:lvgl/src/extra/libs/qrcode/qrcodegen.c **** 			if (j + 1 < degree)
 1662              		.loc 1 366 4 view .LVU402
 366:lvgl/src/extra/libs/qrcode/qrcodegen.c **** 			if (j + 1 < degree)
 1663              		.loc 1 366 42 is_stmt 0 view .LVU403
 1664 004c 05EB0408 		add	r8, r5, r4
 366:lvgl/src/extra/libs/qrcode/qrcodegen.c **** 			if (j + 1 < degree)
 1665              		.loc 1 366 16 view .LVU404
 1666 0050 4946     		mov	r1, r9
 1667 0052 285D     		ldrb	r0, [r5, r4]	@ zero_extendqisi2
 1668 0054 FFF7FEFF 		bl	finiteFieldMultiply
 1669              	.LVL186:
 366:lvgl/src/extra/libs/qrcode/qrcodegen.c **** 			if (j + 1 < degree)
 1670              		.loc 1 366 14 discriminator 1 view .LVU405
 1671 0058 2855     		strb	r0, [r5, r4]
 367:lvgl/src/extra/libs/qrcode/qrcodegen.c **** 				result[j] ^= result[j + 1];
 1672              		.loc 1 367 4 is_stmt 1 view .LVU406
 367:lvgl/src/extra/libs/qrcode/qrcodegen.c **** 				result[j] ^= result[j + 1];
 1673              		.loc 1 367 10 is_stmt 0 view .LVU407
 1674 005a 0134     		adds	r4, r4, #1
 1675              	.LVL187:
 367:lvgl/src/extra/libs/qrcode/qrcodegen.c **** 				result[j] ^= result[j + 1];
 1676              		.loc 1 367 7 view .LVU408
ARM GAS  C:\usertemp\ccXENK9d.s 			page 54


 1677 005c BC42     		cmp	r4, r7
 1678 005e F3DA     		bge	.L151
 368:lvgl/src/extra/libs/qrcode/qrcodegen.c **** 		}
 1679              		.loc 1 368 5 is_stmt 1 view .LVU409
 368:lvgl/src/extra/libs/qrcode/qrcodegen.c **** 		}
 1680              		.loc 1 368 24 is_stmt 0 view .LVU410
 1681 0060 98F80130 		ldrb	r3, [r8, #1]	@ zero_extendqisi2
 368:lvgl/src/extra/libs/qrcode/qrcodegen.c **** 		}
 1682              		.loc 1 368 15 view .LVU411
 1683 0064 5840     		eors	r0, r0, r3
 1684 0066 88F80000 		strb	r0, [r8]
 1685 006a EDE7     		b	.L151
 1686              	.LVL188:
 1687              	.L155:
 368:lvgl/src/extra/libs/qrcode/qrcodegen.c **** 		}
 1688              		.loc 1 368 15 view .LVU412
 1689              	.LBE25:
 1690              	.LBE26:
 372:lvgl/src/extra/libs/qrcode/qrcodegen.c **** 
 1691              		.loc 1 372 1 view .LVU413
 1692 006c BDE8F087 		pop	{r4, r5, r6, r7, r8, r9, r10, pc}
 1693              	.LVL189:
 1694              	.L158:
 372:lvgl/src/extra/libs/qrcode/qrcodegen.c **** 
 1695              		.loc 1 372 1 view .LVU414
 1696              		.align	2
 1697              	.L157:
 1698 0070 00000000 		.word	.LC13
 1699 0074 00000000 		.word	__func__.18
 1700 0078 08000000 		.word	.LC1
 1701              		.cfi_endproc
 1702              	.LFE8:
 1704              		.section	.text.initializeFunctionModules,"ax",%progbits
 1705              		.align	1
 1706              		.syntax unified
 1707              		.thumb
 1708              		.thumb_func
 1710              	initializeFunctionModules:
 1711              	.LVL190:
 1712              	.LFB11:
 413:lvgl/src/extra/libs/qrcode/qrcodegen.c **** 	// Initialize QR Code
 1713              		.loc 1 413 72 is_stmt 1 view -0
 1714              		.cfi_startproc
 1715              		@ args = 0, pretend = 0, frame = 8
 1716              		@ frame_needed = 0, uses_anonymous_args = 0
 413:lvgl/src/extra/libs/qrcode/qrcodegen.c **** 	// Initialize QR Code
 1717              		.loc 1 413 72 is_stmt 0 view .LVU416
 1718 0000 2DE9F043 		push	{r4, r5, r6, r7, r8, r9, lr}
 1719              	.LCFI19:
 1720              		.cfi_def_cfa_offset 28
 1721              		.cfi_offset 4, -28
 1722              		.cfi_offset 5, -24
 1723              		.cfi_offset 6, -20
 1724              		.cfi_offset 7, -16
 1725              		.cfi_offset 8, -12
 1726              		.cfi_offset 9, -8
 1727              		.cfi_offset 14, -4
ARM GAS  C:\usertemp\ccXENK9d.s 			page 55


 1728 0004 85B0     		sub	sp, sp, #20
 1729              	.LCFI20:
 1730              		.cfi_def_cfa_offset 48
 1731 0006 8046     		mov	r8, r0
 1732 0008 0F46     		mov	r7, r1
 415:lvgl/src/extra/libs/qrcode/qrcodegen.c **** 	memset(qrcode, 0, ((qrsize * qrsize + 7) / 8 + 1) * sizeof(qrcode[0]));
 1733              		.loc 1 415 2 is_stmt 1 view .LVU417
 415:lvgl/src/extra/libs/qrcode/qrcodegen.c **** 	memset(qrcode, 0, ((qrsize * qrsize + 7) / 8 + 1) * sizeof(qrcode[0]));
 1734              		.loc 1 415 23 is_stmt 0 view .LVU418
 1735 000a 4FEA8009 		lsl	r9, r0, #2
 415:lvgl/src/extra/libs/qrcode/qrcodegen.c **** 	memset(qrcode, 0, ((qrsize * qrsize + 7) / 8 + 1) * sizeof(qrcode[0]));
 1736              		.loc 1 415 6 view .LVU419
 1737 000e 09F11104 		add	r4, r9, #17
 1738              	.LVL191:
 416:lvgl/src/extra/libs/qrcode/qrcodegen.c **** 	qrcode[0] = (uint8_t)qrsize;
 1739              		.loc 1 416 2 is_stmt 1 view .LVU420
 416:lvgl/src/extra/libs/qrcode/qrcodegen.c **** 	qrcode[0] = (uint8_t)qrsize;
 1740              		.loc 1 416 29 is_stmt 0 view .LVU421
 1741 0012 04FB04F3 		mul	r3, r4, r4
 416:lvgl/src/extra/libs/qrcode/qrcodegen.c **** 	qrcode[0] = (uint8_t)qrsize;
 1742              		.loc 1 416 43 view .LVU422
 1743 0016 0733     		adds	r3, r3, #7
 1744 0018 32D4     		bmi	.L170
 1745              	.L160:
 1746 001a DB10     		asrs	r3, r3, #3
 416:lvgl/src/extra/libs/qrcode/qrcodegen.c **** 	qrcode[0] = (uint8_t)qrsize;
 1747              		.loc 1 416 2 view .LVU423
 1748 001c 5A1C     		adds	r2, r3, #1
 1749 001e 0021     		movs	r1, #0
 1750              	.LVL192:
 416:lvgl/src/extra/libs/qrcode/qrcodegen.c **** 	qrcode[0] = (uint8_t)qrsize;
 1751              		.loc 1 416 2 view .LVU424
 1752 0020 3846     		mov	r0, r7
 1753              	.LVL193:
 416:lvgl/src/extra/libs/qrcode/qrcodegen.c **** 	qrcode[0] = (uint8_t)qrsize;
 1754              		.loc 1 416 2 view .LVU425
 1755 0022 FFF7FEFF 		bl	memset
 1756              	.LVL194:
 417:lvgl/src/extra/libs/qrcode/qrcodegen.c **** 	
 1757              		.loc 1 417 2 is_stmt 1 view .LVU426
 417:lvgl/src/extra/libs/qrcode/qrcodegen.c **** 	
 1758              		.loc 1 417 12 is_stmt 0 view .LVU427
 1759 0026 3C70     		strb	r4, [r7]
 420:lvgl/src/extra/libs/qrcode/qrcodegen.c **** 	fillRectangle(0, 6, qrsize, 1, qrcode);
 1760              		.loc 1 420 2 is_stmt 1 view .LVU428
 1761 0028 0097     		str	r7, [sp]
 1762 002a 2346     		mov	r3, r4
 1763 002c 0122     		movs	r2, #1
 1764 002e 0021     		movs	r1, #0
 1765 0030 0620     		movs	r0, #6
 1766 0032 FFF7FEFF 		bl	fillRectangle
 1767              	.LVL195:
 421:lvgl/src/extra/libs/qrcode/qrcodegen.c **** 	
 1768              		.loc 1 421 2 view .LVU429
 1769 0036 0097     		str	r7, [sp]
 1770 0038 0123     		movs	r3, #1
 1771 003a 2246     		mov	r2, r4
ARM GAS  C:\usertemp\ccXENK9d.s 			page 56


 1772 003c 0621     		movs	r1, #6
 1773 003e 0020     		movs	r0, #0
 1774 0040 FFF7FEFF 		bl	fillRectangle
 1775              	.LVL196:
 424:lvgl/src/extra/libs/qrcode/qrcodegen.c **** 	fillRectangle(qrsize - 8, 0, 8, 9, qrcode);
 1776              		.loc 1 424 2 view .LVU430
 1777 0044 0097     		str	r7, [sp]
 1778 0046 0923     		movs	r3, #9
 1779 0048 1A46     		mov	r2, r3
 1780 004a 0021     		movs	r1, #0
 1781 004c 0846     		mov	r0, r1
 1782 004e FFF7FEFF 		bl	fillRectangle
 1783              	.LVL197:
 425:lvgl/src/extra/libs/qrcode/qrcodegen.c **** 	fillRectangle(0, qrsize - 8, 9, 8, qrcode);
 1784              		.loc 1 425 2 view .LVU431
 1785 0052 09F10904 		add	r4, r9, #9
 1786              	.LVL198:
 425:lvgl/src/extra/libs/qrcode/qrcodegen.c **** 	fillRectangle(0, qrsize - 8, 9, 8, qrcode);
 1787              		.loc 1 425 2 is_stmt 0 view .LVU432
 1788 0056 0097     		str	r7, [sp]
 1789 0058 0923     		movs	r3, #9
 1790 005a 0822     		movs	r2, #8
 1791 005c 0021     		movs	r1, #0
 1792 005e 2046     		mov	r0, r4
 1793 0060 FFF7FEFF 		bl	fillRectangle
 1794              	.LVL199:
 426:lvgl/src/extra/libs/qrcode/qrcodegen.c **** 	
 1795              		.loc 1 426 2 is_stmt 1 view .LVU433
 1796 0064 0097     		str	r7, [sp]
 1797 0066 0823     		movs	r3, #8
 1798 0068 0922     		movs	r2, #9
 1799 006a 2146     		mov	r1, r4
 1800 006c 0020     		movs	r0, #0
 1801 006e FFF7FEFF 		bl	fillRectangle
 1802              	.LVL200:
 429:lvgl/src/extra/libs/qrcode/qrcodegen.c **** 	int numAlign = getAlignmentPatternPositions(version, alignPatPos);
 1803              		.loc 1 429 2 view .LVU434
 430:lvgl/src/extra/libs/qrcode/qrcodegen.c **** 	for (int i = 0; i < numAlign; i++) {
 1804              		.loc 1 430 2 view .LVU435
 430:lvgl/src/extra/libs/qrcode/qrcodegen.c **** 	for (int i = 0; i < numAlign; i++) {
 1805              		.loc 1 430 17 is_stmt 0 view .LVU436
 1806 0072 02A9     		add	r1, sp, #8
 1807 0074 4046     		mov	r0, r8
 1808 0076 FFF7FEFF 		bl	getAlignmentPatternPositions
 1809              	.LVL201:
 1810 007a 0646     		mov	r6, r0
 1811              	.LVL202:
 431:lvgl/src/extra/libs/qrcode/qrcodegen.c **** 		for (int j = 0; j < numAlign; j++) {
 1812              		.loc 1 431 2 is_stmt 1 view .LVU437
 1813              	.LBB27:
 431:lvgl/src/extra/libs/qrcode/qrcodegen.c **** 		for (int j = 0; j < numAlign; j++) {
 1814              		.loc 1 431 7 view .LVU438
 431:lvgl/src/extra/libs/qrcode/qrcodegen.c **** 		for (int j = 0; j < numAlign; j++) {
 1815              		.loc 1 431 11 is_stmt 0 view .LVU439
 1816 007c 0025     		movs	r5, #0
 431:lvgl/src/extra/libs/qrcode/qrcodegen.c **** 		for (int j = 0; j < numAlign; j++) {
 1817              		.loc 1 431 2 view .LVU440
ARM GAS  C:\usertemp\ccXENK9d.s 			page 57


 1818 007e 25E0     		b	.L161
 1819              	.LVL203:
 1820              	.L170:
 431:lvgl/src/extra/libs/qrcode/qrcodegen.c **** 		for (int j = 0; j < numAlign; j++) {
 1821              		.loc 1 431 2 view .LVU441
 1822              	.LBE27:
 416:lvgl/src/extra/libs/qrcode/qrcodegen.c **** 	qrcode[0] = (uint8_t)qrsize;
 1823              		.loc 1 416 43 view .LVU442
 1824 0080 0733     		adds	r3, r3, #7
 1825 0082 CAE7     		b	.L160
 1826              	.LVL204:
 1827              	.L172:
 1828              	.LBB30:
 1829              	.LBB28:
 434:lvgl/src/extra/libs/qrcode/qrcodegen.c **** 				fillRectangle(alignPatPos[i] - 2, alignPatPos[j] - 2, 5, 5, qrcode);
 1830              		.loc 1 434 57 discriminator 3 view .LVU443
 1831 0084 731E     		subs	r3, r6, #1
 434:lvgl/src/extra/libs/qrcode/qrcodegen.c **** 				fillRectangle(alignPatPos[i] - 2, alignPatPos[j] - 2, 5, 5, qrcode);
 1832              		.loc 1 434 40 discriminator 3 view .LVU444
 1833 0086 A342     		cmp	r3, r4
 1834 0088 19D1     		bne	.L163
 434:lvgl/src/extra/libs/qrcode/qrcodegen.c **** 				fillRectangle(alignPatPos[i] - 2, alignPatPos[j] - 2, 5, 5, qrcode);
 1835              		.loc 1 434 40 discriminator 3 view .LVU445
 1836 008a 10E0     		b	.L162
 1837              	.L164:
 435:lvgl/src/extra/libs/qrcode/qrcodegen.c **** 		}
 1838              		.loc 1 435 5 is_stmt 1 view .LVU446
 435:lvgl/src/extra/libs/qrcode/qrcodegen.c **** 		}
 1839              		.loc 1 435 30 is_stmt 0 view .LVU447
 1840 008c 05F11003 		add	r3, r5, #16
 1841 0090 6B44     		add	r3, sp, r3
 1842 0092 13F8080C 		ldrb	r0, [r3, #-8]	@ zero_extendqisi2
 435:lvgl/src/extra/libs/qrcode/qrcodegen.c **** 		}
 1843              		.loc 1 435 50 view .LVU448
 1844 0096 04F11003 		add	r3, r4, #16
 1845 009a 6B44     		add	r3, sp, r3
 1846 009c 13F8081C 		ldrb	r1, [r3, #-8]	@ zero_extendqisi2
 435:lvgl/src/extra/libs/qrcode/qrcodegen.c **** 		}
 1847              		.loc 1 435 5 view .LVU449
 1848 00a0 0097     		str	r7, [sp]
 1849 00a2 0523     		movs	r3, #5
 1850 00a4 1A46     		mov	r2, r3
 1851 00a6 0239     		subs	r1, r1, #2
 1852 00a8 0238     		subs	r0, r0, #2
 1853 00aa FFF7FEFF 		bl	fillRectangle
 1854              	.LVL205:
 1855              	.L162:
 432:lvgl/src/extra/libs/qrcode/qrcodegen.c **** 			// Don't draw on the three finder corners
 1856              		.loc 1 432 34 is_stmt 1 discriminator 2 view .LVU450
 1857 00ae 0134     		adds	r4, r4, #1
 1858              	.LVL206:
 1859              	.L166:
 432:lvgl/src/extra/libs/qrcode/qrcodegen.c **** 			// Don't draw on the three finder corners
 1860              		.loc 1 432 21 discriminator 1 view .LVU451
 1861 00b0 B442     		cmp	r4, r6
 1862 00b2 0ADA     		bge	.L171
 434:lvgl/src/extra/libs/qrcode/qrcodegen.c **** 				fillRectangle(alignPatPos[i] - 2, alignPatPos[j] - 2, 5, 5, qrcode);
ARM GAS  C:\usertemp\ccXENK9d.s 			page 58


 1863              		.loc 1 434 4 view .LVU452
 434:lvgl/src/extra/libs/qrcode/qrcodegen.c **** 				fillRectangle(alignPatPos[i] - 2, alignPatPos[j] - 2, 5, 5, qrcode);
 1864              		.loc 1 434 7 is_stmt 0 view .LVU453
 1865 00b4 55EA0403 		orrs	r3, r5, r4
 1866 00b8 F9D0     		beq	.L162
 434:lvgl/src/extra/libs/qrcode/qrcodegen.c **** 				fillRectangle(alignPatPos[i] - 2, alignPatPos[j] - 2, 5, 5, qrcode);
 1867              		.loc 1 434 29 discriminator 1 view .LVU454
 1868 00ba 002D     		cmp	r5, #0
 1869 00bc E2D0     		beq	.L172
 1870              	.L163:
 434:lvgl/src/extra/libs/qrcode/qrcodegen.c **** 				fillRectangle(alignPatPos[i] - 2, alignPatPos[j] - 2, 5, 5, qrcode);
 1871              		.loc 1 434 80 discriminator 4 view .LVU455
 1872 00be 731E     		subs	r3, r6, #1
 434:lvgl/src/extra/libs/qrcode/qrcodegen.c **** 				fillRectangle(alignPatPos[i] - 2, alignPatPos[j] - 2, 5, 5, qrcode);
 1873              		.loc 1 434 8 discriminator 4 view .LVU456
 1874 00c0 AB42     		cmp	r3, r5
 1875 00c2 E3D1     		bne	.L164
 434:lvgl/src/extra/libs/qrcode/qrcodegen.c **** 				fillRectangle(alignPatPos[i] - 2, alignPatPos[j] - 2, 5, 5, qrcode);
 1876              		.loc 1 434 84 discriminator 5 view .LVU457
 1877 00c4 002C     		cmp	r4, #0
 1878 00c6 E1D1     		bne	.L164
 1879 00c8 F1E7     		b	.L162
 1880              	.L171:
 434:lvgl/src/extra/libs/qrcode/qrcodegen.c **** 				fillRectangle(alignPatPos[i] - 2, alignPatPos[j] - 2, 5, 5, qrcode);
 1881              		.loc 1 434 84 discriminator 5 view .LVU458
 1882              	.LBE28:
 431:lvgl/src/extra/libs/qrcode/qrcodegen.c **** 		for (int j = 0; j < numAlign; j++) {
 1883              		.loc 1 431 33 is_stmt 1 discriminator 2 view .LVU459
 1884 00ca 0135     		adds	r5, r5, #1
 1885              	.LVL207:
 1886              	.L161:
 431:lvgl/src/extra/libs/qrcode/qrcodegen.c **** 		for (int j = 0; j < numAlign; j++) {
 1887              		.loc 1 431 20 discriminator 1 view .LVU460
 1888 00cc B542     		cmp	r5, r6
 1889 00ce 01DA     		bge	.L173
 1890              	.LBB29:
 432:lvgl/src/extra/libs/qrcode/qrcodegen.c **** 			// Don't draw on the three finder corners
 1891              		.loc 1 432 12 is_stmt 0 view .LVU461
 1892 00d0 0024     		movs	r4, #0
 1893 00d2 EDE7     		b	.L166
 1894              	.L173:
 1895              	.LBE29:
 1896              	.LBE30:
 440:lvgl/src/extra/libs/qrcode/qrcodegen.c **** 		fillRectangle(qrsize - 11, 0, 3, 6, qrcode);
 1897              		.loc 1 440 2 is_stmt 1 view .LVU462
 440:lvgl/src/extra/libs/qrcode/qrcodegen.c **** 		fillRectangle(qrsize - 11, 0, 3, 6, qrcode);
 1898              		.loc 1 440 5 is_stmt 0 view .LVU463
 1899 00d4 B8F1060F 		cmp	r8, #6
 1900 00d8 02DC     		bgt	.L174
 1901              	.LVL208:
 1902              	.L159:
 444:lvgl/src/extra/libs/qrcode/qrcodegen.c **** 
 1903              		.loc 1 444 1 view .LVU464
 1904 00da 05B0     		add	sp, sp, #20
 1905              	.LCFI21:
 1906              		.cfi_remember_state
 1907              		.cfi_def_cfa_offset 28
ARM GAS  C:\usertemp\ccXENK9d.s 			page 59


 1908              		@ sp needed
 1909 00dc BDE8F083 		pop	{r4, r5, r6, r7, r8, r9, pc}
 1910              	.LVL209:
 1911              	.L174:
 1912              	.LCFI22:
 1913              		.cfi_restore_state
 441:lvgl/src/extra/libs/qrcode/qrcodegen.c **** 		fillRectangle(0, qrsize - 11, 6, 3, qrcode);
 1914              		.loc 1 441 3 is_stmt 1 view .LVU465
 1915 00e0 09F10609 		add	r9, r9, #6
 1916              	.LVL210:
 441:lvgl/src/extra/libs/qrcode/qrcodegen.c **** 		fillRectangle(0, qrsize - 11, 6, 3, qrcode);
 1917              		.loc 1 441 3 is_stmt 0 view .LVU466
 1918 00e4 0097     		str	r7, [sp]
 1919 00e6 0623     		movs	r3, #6
 1920 00e8 0322     		movs	r2, #3
 1921 00ea 0021     		movs	r1, #0
 1922 00ec 4846     		mov	r0, r9
 1923 00ee FFF7FEFF 		bl	fillRectangle
 1924              	.LVL211:
 442:lvgl/src/extra/libs/qrcode/qrcodegen.c **** 	}
 1925              		.loc 1 442 3 is_stmt 1 view .LVU467
 1926 00f2 0097     		str	r7, [sp]
 1927 00f4 0323     		movs	r3, #3
 1928 00f6 0622     		movs	r2, #6
 1929 00f8 4946     		mov	r1, r9
 1930 00fa 0020     		movs	r0, #0
 1931 00fc FFF7FEFF 		bl	fillRectangle
 1932              	.LVL212:
 444:lvgl/src/extra/libs/qrcode/qrcodegen.c **** 
 1933              		.loc 1 444 1 is_stmt 0 view .LVU468
 1934 0100 EBE7     		b	.L159
 1935              		.cfi_endproc
 1936              	.LFE11:
 1938              		.section	.text.calcReedSolomonRemainder,"ax",%progbits
 1939              		.align	1
 1940              		.syntax unified
 1941              		.thumb
 1942              		.thumb_func
 1944              	calcReedSolomonRemainder:
 1945              	.LVL213:
 1946              	.LFB9:
 378:lvgl/src/extra/libs/qrcode/qrcodegen.c **** 	
 1947              		.loc 1 378 60 is_stmt 1 view -0
 1948              		.cfi_startproc
 1949              		@ args = 4, pretend = 0, frame = 8
 1950              		@ frame_needed = 0, uses_anonymous_args = 0
 378:lvgl/src/extra/libs/qrcode/qrcodegen.c **** 	
 1951              		.loc 1 378 60 is_stmt 0 view .LVU470
 1952 0000 2DE9F04F 		push	{r4, r5, r6, r7, r8, r9, r10, fp, lr}
 1953              	.LCFI23:
 1954              		.cfi_def_cfa_offset 36
 1955              		.cfi_offset 4, -36
 1956              		.cfi_offset 5, -32
 1957              		.cfi_offset 6, -28
 1958              		.cfi_offset 7, -24
 1959              		.cfi_offset 8, -20
 1960              		.cfi_offset 9, -16
ARM GAS  C:\usertemp\ccXENK9d.s 			page 60


 1961              		.cfi_offset 10, -12
 1962              		.cfi_offset 11, -8
 1963              		.cfi_offset 14, -4
 1964 0004 83B0     		sub	sp, sp, #12
 1965              	.LCFI24:
 1966              		.cfi_def_cfa_offset 48
 1967 0006 0190     		str	r0, [sp, #4]
 1968 0008 0C9D     		ldr	r5, [sp, #48]
 381:lvgl/src/extra/libs/qrcode/qrcodegen.c **** 	memset(result, 0, degree * sizeof(result[0]));
 1969              		.loc 1 381 2 is_stmt 1 view .LVU471
 1970 000a 03F1FF3A 		add	r10, r3, #-1
 1971 000e BAF11D0F 		cmp	r10, #29
 1972 0012 0AD8     		bhi	.L182
 1973 0014 8B46     		mov	fp, r1
 1974 0016 9046     		mov	r8, r2
 1975 0018 1F46     		mov	r7, r3
 382:lvgl/src/extra/libs/qrcode/qrcodegen.c **** 	for (int i = 0; i < dataLen; i++) {
 1976              		.loc 1 382 2 view .LVU472
 1977 001a 1A46     		mov	r2, r3
 1978              	.LVL214:
 382:lvgl/src/extra/libs/qrcode/qrcodegen.c **** 	for (int i = 0; i < dataLen; i++) {
 1979              		.loc 1 382 2 is_stmt 0 view .LVU473
 1980 001c 0021     		movs	r1, #0
 1981              	.LVL215:
 382:lvgl/src/extra/libs/qrcode/qrcodegen.c **** 	for (int i = 0; i < dataLen; i++) {
 1982              		.loc 1 382 2 view .LVU474
 1983 001e 2846     		mov	r0, r5
 1984              	.LVL216:
 382:lvgl/src/extra/libs/qrcode/qrcodegen.c **** 	for (int i = 0; i < dataLen; i++) {
 1985              		.loc 1 382 2 view .LVU475
 1986 0020 FFF7FEFF 		bl	memset
 1987              	.LVL217:
 383:lvgl/src/extra/libs/qrcode/qrcodegen.c **** 		uint8_t factor = data[i] ^ result[0];
 1988              		.loc 1 383 2 is_stmt 1 view .LVU476
 1989              	.LBB31:
 383:lvgl/src/extra/libs/qrcode/qrcodegen.c **** 		uint8_t factor = data[i] ^ result[0];
 1990              		.loc 1 383 7 view .LVU477
 383:lvgl/src/extra/libs/qrcode/qrcodegen.c **** 		uint8_t factor = data[i] ^ result[0];
 1991              		.loc 1 383 11 is_stmt 0 view .LVU478
 1992 0024 4FF00009 		mov	r9, #0
 383:lvgl/src/extra/libs/qrcode/qrcodegen.c **** 		uint8_t factor = data[i] ^ result[0];
 1993              		.loc 1 383 2 view .LVU479
 1994 0028 13E0     		b	.L177
 1995              	.LVL218:
 1996              	.L182:
 383:lvgl/src/extra/libs/qrcode/qrcodegen.c **** 		uint8_t factor = data[i] ^ result[0];
 1997              		.loc 1 383 2 view .LVU480
 1998              	.LBE31:
 381:lvgl/src/extra/libs/qrcode/qrcodegen.c **** 	memset(result, 0, degree * sizeof(result[0]));
 1999              		.loc 1 381 2 discriminator 1 view .LVU481
 2000 002a 144B     		ldr	r3, .L184
 2001              	.LVL219:
 381:lvgl/src/extra/libs/qrcode/qrcodegen.c **** 	memset(result, 0, degree * sizeof(result[0]));
 2002              		.loc 1 381 2 discriminator 1 view .LVU482
 2003 002c 144A     		ldr	r2, .L184+4
 2004              	.LVL220:
 381:lvgl/src/extra/libs/qrcode/qrcodegen.c **** 	memset(result, 0, degree * sizeof(result[0]));
ARM GAS  C:\usertemp\ccXENK9d.s 			page 61


 2005              		.loc 1 381 2 discriminator 1 view .LVU483
 2006 002e 40F27D11 		movw	r1, #381
 2007              	.LVL221:
 381:lvgl/src/extra/libs/qrcode/qrcodegen.c **** 	memset(result, 0, degree * sizeof(result[0]));
 2008              		.loc 1 381 2 discriminator 1 view .LVU484
 2009 0032 1448     		ldr	r0, .L184+8
 2010              	.LVL222:
 381:lvgl/src/extra/libs/qrcode/qrcodegen.c **** 	memset(result, 0, degree * sizeof(result[0]));
 2011              		.loc 1 381 2 discriminator 1 view .LVU485
 2012 0034 FFF7FEFF 		bl	__assert_func
 2013              	.LVL223:
 2014              	.L179:
 2015              	.LBB36:
 2016              	.LBB32:
 2017              	.LBB33:
 388:lvgl/src/extra/libs/qrcode/qrcodegen.c **** 	}
 2018              		.loc 1 388 4 is_stmt 1 view .LVU486
 388:lvgl/src/extra/libs/qrcode/qrcodegen.c **** 	}
 2019              		.loc 1 388 17 is_stmt 0 view .LVU487
 2020 0038 3146     		mov	r1, r6
 2021 003a 18F80400 		ldrb	r0, [r8, r4]	@ zero_extendqisi2
 2022 003e FFF7FEFF 		bl	finiteFieldMultiply
 2023              	.LVL224:
 388:lvgl/src/extra/libs/qrcode/qrcodegen.c **** 	}
 2024              		.loc 1 388 10 discriminator 1 view .LVU488
 2025 0042 2B5D     		ldrb	r3, [r5, r4]	@ zero_extendqisi2
 388:lvgl/src/extra/libs/qrcode/qrcodegen.c **** 	}
 2026              		.loc 1 388 14 discriminator 1 view .LVU489
 2027 0044 4340     		eors	r3, r3, r0
 2028 0046 2B55     		strb	r3, [r5, r4]
 387:lvgl/src/extra/libs/qrcode/qrcodegen.c **** 			result[j] ^= finiteFieldMultiply(generator[j], factor);
 2029              		.loc 1 387 32 is_stmt 1 discriminator 3 view .LVU490
 2030 0048 0134     		adds	r4, r4, #1
 2031              	.LVL225:
 2032              	.L178:
 387:lvgl/src/extra/libs/qrcode/qrcodegen.c **** 			result[j] ^= finiteFieldMultiply(generator[j], factor);
 2033              		.loc 1 387 21 discriminator 1 view .LVU491
 2034 004a BC42     		cmp	r4, r7
 2035 004c F4DB     		blt	.L179
 2036              	.LBE33:
 2037              	.LBE32:
 383:lvgl/src/extra/libs/qrcode/qrcodegen.c **** 		uint8_t factor = data[i] ^ result[0];
 2038              		.loc 1 383 32 discriminator 2 view .LVU492
 2039 004e 09F10109 		add	r9, r9, #1
 2040              	.LVL226:
 2041              	.L177:
 383:lvgl/src/extra/libs/qrcode/qrcodegen.c **** 		uint8_t factor = data[i] ^ result[0];
 2042              		.loc 1 383 20 discriminator 1 view .LVU493
 2043 0052 D945     		cmp	r9, fp
 2044 0054 0EDA     		bge	.L183
 2045              	.LBB35:
 384:lvgl/src/extra/libs/qrcode/qrcodegen.c **** 		memmove(&result[0], &result[1], (degree - 1) * sizeof(result[0]));
 2046              		.loc 1 384 3 view .LVU494
 384:lvgl/src/extra/libs/qrcode/qrcodegen.c **** 		memmove(&result[0], &result[1], (degree - 1) * sizeof(result[0]));
 2047              		.loc 1 384 24 is_stmt 0 view .LVU495
 2048 0056 019B     		ldr	r3, [sp, #4]
 2049 0058 13F80960 		ldrb	r6, [r3, r9]	@ zero_extendqisi2
ARM GAS  C:\usertemp\ccXENK9d.s 			page 62


 384:lvgl/src/extra/libs/qrcode/qrcodegen.c **** 		memmove(&result[0], &result[1], (degree - 1) * sizeof(result[0]));
 2050              		.loc 1 384 36 view .LVU496
 2051 005c 2946     		mov	r1, r5
 2052 005e 11F8013B 		ldrb	r3, [r1], #1	@ zero_extendqisi2
 384:lvgl/src/extra/libs/qrcode/qrcodegen.c **** 		memmove(&result[0], &result[1], (degree - 1) * sizeof(result[0]));
 2053              		.loc 1 384 11 view .LVU497
 2054 0062 5E40     		eors	r6, r6, r3
 2055              	.LVL227:
 385:lvgl/src/extra/libs/qrcode/qrcodegen.c **** 		result[degree - 1] = 0;
 2056              		.loc 1 385 3 is_stmt 1 view .LVU498
 2057 0064 5246     		mov	r2, r10
 2058 0066 2846     		mov	r0, r5
 2059 0068 FFF7FEFF 		bl	memmove
 2060              	.LVL228:
 386:lvgl/src/extra/libs/qrcode/qrcodegen.c **** 		for (int j = 0; j < degree; j++)
 2061              		.loc 1 386 3 view .LVU499
 386:lvgl/src/extra/libs/qrcode/qrcodegen.c **** 		for (int j = 0; j < degree; j++)
 2062              		.loc 1 386 22 is_stmt 0 view .LVU500
 2063 006c 0024     		movs	r4, #0
 2064 006e 05F80A40 		strb	r4, [r5, r10]
 387:lvgl/src/extra/libs/qrcode/qrcodegen.c **** 			result[j] ^= finiteFieldMultiply(generator[j], factor);
 2065              		.loc 1 387 3 is_stmt 1 view .LVU501
 2066              	.LBB34:
 387:lvgl/src/extra/libs/qrcode/qrcodegen.c **** 			result[j] ^= finiteFieldMultiply(generator[j], factor);
 2067              		.loc 1 387 8 view .LVU502
 2068              	.LVL229:
 387:lvgl/src/extra/libs/qrcode/qrcodegen.c **** 			result[j] ^= finiteFieldMultiply(generator[j], factor);
 2069              		.loc 1 387 3 is_stmt 0 view .LVU503
 2070 0072 EAE7     		b	.L178
 2071              	.LVL230:
 2072              	.L183:
 387:lvgl/src/extra/libs/qrcode/qrcodegen.c **** 			result[j] ^= finiteFieldMultiply(generator[j], factor);
 2073              		.loc 1 387 3 view .LVU504
 2074              	.LBE34:
 2075              	.LBE35:
 2076              	.LBE36:
 390:lvgl/src/extra/libs/qrcode/qrcodegen.c **** 
 2077              		.loc 1 390 1 view .LVU505
 2078 0074 03B0     		add	sp, sp, #12
 2079              	.LCFI25:
 2080              		.cfi_def_cfa_offset 36
 2081              		@ sp needed
 2082 0076 BDE8F08F 		pop	{r4, r5, r6, r7, r8, r9, r10, fp, pc}
 2083              	.LVL231:
 2084              	.L185:
 390:lvgl/src/extra/libs/qrcode/qrcodegen.c **** 
 2085              		.loc 1 390 1 view .LVU506
 2086 007a 00BF     		.align	2
 2087              	.L184:
 2088 007c 00000000 		.word	.LC13
 2089 0080 00000000 		.word	__func__.17
 2090 0084 08000000 		.word	.LC1
 2091              		.cfi_endproc
 2092              	.LFE9:
 2094              		.section	.rodata.addEccAndInterleave.str1.4,"aMS",%progbits,1
 2095              		.align	2
 2096              	.LC14:
ARM GAS  C:\usertemp\ccXENK9d.s 			page 63


 2097 0000 30203C3D 		.ascii	"0 <= (int)ecl && (int)ecl < 4 && qrcodegen_VERSION_"
 2097      2028696E 
 2097      74296563 
 2097      6C202626 
 2097      2028696E 
 2098 0033 4D494E20 		.ascii	"MIN <= version && version <= qrcodegen_VERSION_MAX\000"
 2098      3C3D2076 
 2098      65727369 
 2098      6F6E2026 
 2098      26207665 
 2099              		.section	.text.addEccAndInterleave,"ax",%progbits
 2100              		.align	1
 2101              		.syntax unified
 2102              		.thumb
 2103              		.thumb_func
 2105              	addEccAndInterleave:
 2106              	.LVL232:
 2107              	.LFB5:
 291:lvgl/src/extra/libs/qrcode/qrcodegen.c **** 	// Calculate parameter numbers
 2108              		.loc 1 291 106 is_stmt 1 view -0
 2109              		.cfi_startproc
 2110              		@ args = 0, pretend = 0, frame = 48
 2111              		@ frame_needed = 0, uses_anonymous_args = 0
 291:lvgl/src/extra/libs/qrcode/qrcodegen.c **** 	// Calculate parameter numbers
 2112              		.loc 1 291 106 is_stmt 0 view .LVU508
 2113 0000 2DE9F04F 		push	{r4, r5, r6, r7, r8, r9, r10, fp, lr}
 2114              	.LCFI26:
 2115              		.cfi_def_cfa_offset 36
 2116              		.cfi_offset 4, -36
 2117              		.cfi_offset 5, -32
 2118              		.cfi_offset 6, -28
 2119              		.cfi_offset 7, -24
 2120              		.cfi_offset 8, -20
 2121              		.cfi_offset 9, -16
 2122              		.cfi_offset 10, -12
 2123              		.cfi_offset 11, -8
 2124              		.cfi_offset 14, -4
 2125 0004 8FB0     		sub	sp, sp, #60
 2126              	.LCFI27:
 2127              		.cfi_def_cfa_offset 96
 2128 0006 0590     		str	r0, [sp, #20]
 293:lvgl/src/extra/libs/qrcode/qrcodegen.c **** 	int numBlocks = NUM_ERROR_CORRECTION_BLOCKS[(int)ecl][version];
 2129              		.loc 1 293 2 is_stmt 1 view .LVU509
 2130 0008 8946     		mov	r9, r1
 2131 000a 0029     		cmp	r1, #0
 2132 000c CCBF     		ite	gt
 2133 000e 0021     		movgt	r1, #0
 2134              	.LVL233:
 293:lvgl/src/extra/libs/qrcode/qrcodegen.c **** 	int numBlocks = NUM_ERROR_CORRECTION_BLOCKS[(int)ecl][version];
 2135              		.loc 1 293 2 is_stmt 0 view .LVU510
 2136 0010 0121     		movle	r1, #1
 2137 0012 032A     		cmp	r2, #3
 2138 0014 88BF     		it	hi
 2139 0016 41F00101 		orrhi	r1, r1, #1
 2140 001a 59BB     		cbnz	r1, .L187
 2141 001c 1746     		mov	r7, r2
 2142 001e 1D46     		mov	r5, r3
ARM GAS  C:\usertemp\ccXENK9d.s 			page 64


 293:lvgl/src/extra/libs/qrcode/qrcodegen.c **** 	int numBlocks = NUM_ERROR_CORRECTION_BLOCKS[(int)ecl][version];
 2143              		.loc 1 293 2 discriminator 2 view .LVU511
 2144 0020 B9F1280F 		cmp	r9, #40
 2145 0024 26DC     		bgt	.L187
 294:lvgl/src/extra/libs/qrcode/qrcodegen.c **** 	int blockEccLen = ECC_CODEWORDS_PER_BLOCK  [(int)ecl][version];
 2146              		.loc 1 294 2 is_stmt 1 view .LVU512
 294:lvgl/src/extra/libs/qrcode/qrcodegen.c **** 	int blockEccLen = ECC_CODEWORDS_PER_BLOCK  [(int)ecl][version];
 2147              		.loc 1 294 55 is_stmt 0 view .LVU513
 2148 0026 02EB8203 		add	r3, r2, r2, lsl #2
 2149              	.LVL234:
 294:lvgl/src/extra/libs/qrcode/qrcodegen.c **** 	int blockEccLen = ECC_CODEWORDS_PER_BLOCK  [(int)ecl][version];
 2150              		.loc 1 294 55 view .LVU514
 2151 002a 02EBC303 		add	r3, r2, r3, lsl #3
 2152 002e 304A     		ldr	r2, .L201
 2153              	.LVL235:
 294:lvgl/src/extra/libs/qrcode/qrcodegen.c **** 	int blockEccLen = ECC_CODEWORDS_PER_BLOCK  [(int)ecl][version];
 2154              		.loc 1 294 55 view .LVU515
 2155 0030 1A44     		add	r2, r2, r3
 2156 0032 12F90940 		ldrsb	r4, [r2, r9]
 2157              	.LVL236:
 295:lvgl/src/extra/libs/qrcode/qrcodegen.c **** 	int rawCodewords = getNumRawDataModules(version) / 8;
 2158              		.loc 1 295 2 is_stmt 1 view .LVU516
 295:lvgl/src/extra/libs/qrcode/qrcodegen.c **** 	int rawCodewords = getNumRawDataModules(version) / 8;
 2159              		.loc 1 295 55 is_stmt 0 view .LVU517
 2160 0036 2F4A     		ldr	r2, .L201+4
 2161 0038 1344     		add	r3, r3, r2
 2162 003a 13F90980 		ldrsb	r8, [r3, r9]
 2163              	.LVL237:
 296:lvgl/src/extra/libs/qrcode/qrcodegen.c **** 	int dataLen = getNumDataCodewords(version, ecl);
 2164              		.loc 1 296 2 is_stmt 1 view .LVU518
 296:lvgl/src/extra/libs/qrcode/qrcodegen.c **** 	int dataLen = getNumDataCodewords(version, ecl);
 2165              		.loc 1 296 21 is_stmt 0 view .LVU519
 2166 003e 4846     		mov	r0, r9
 2167              	.LVL238:
 296:lvgl/src/extra/libs/qrcode/qrcodegen.c **** 	int dataLen = getNumDataCodewords(version, ecl);
 2168              		.loc 1 296 21 view .LVU520
 2169 0040 FFF7FEFF 		bl	getNumRawDataModules
 2170              	.LVL239:
 296:lvgl/src/extra/libs/qrcode/qrcodegen.c **** 	int dataLen = getNumDataCodewords(version, ecl);
 2171              		.loc 1 296 6 discriminator 1 view .LVU521
 2172 0044 0028     		cmp	r0, #0
 2173 0046 1CDB     		blt	.L198
 2174              	.L189:
 2175 0048 C610     		asrs	r6, r0, #3
 2176              	.LVL240:
 297:lvgl/src/extra/libs/qrcode/qrcodegen.c **** 	int numShortBlocks = numBlocks - rawCodewords % numBlocks;
 2177              		.loc 1 297 2 is_stmt 1 view .LVU522
 297:lvgl/src/extra/libs/qrcode/qrcodegen.c **** 	int numShortBlocks = numBlocks - rawCodewords % numBlocks;
 2178              		.loc 1 297 16 is_stmt 0 view .LVU523
 2179 004a 3946     		mov	r1, r7
 2180 004c 4846     		mov	r0, r9
 2181 004e FFF7FEFF 		bl	getNumDataCodewords
 2182              	.LVL241:
 2183 0052 0490     		str	r0, [sp, #16]
 2184              	.LVL242:
 298:lvgl/src/extra/libs/qrcode/qrcodegen.c **** 	int shortBlockDataLen = rawCodewords / numBlocks - blockEccLen;
 2185              		.loc 1 298 2 is_stmt 1 view .LVU524
ARM GAS  C:\usertemp\ccXENK9d.s 			page 65


 298:lvgl/src/extra/libs/qrcode/qrcodegen.c **** 	int shortBlockDataLen = rawCodewords / numBlocks - blockEccLen;
 2186              		.loc 1 298 48 is_stmt 0 view .LVU525
 2187 0054 96FBF4FA 		sdiv	r10, r6, r4
 2188 0058 04FB1A66 		mls	r6, r4, r10, r6
 2189              	.LVL243:
 298:lvgl/src/extra/libs/qrcode/qrcodegen.c **** 	int shortBlockDataLen = rawCodewords / numBlocks - blockEccLen;
 2190              		.loc 1 298 6 view .LVU526
 2191 005c A31B     		subs	r3, r4, r6
 2192 005e 0393     		str	r3, [sp, #12]
 2193              	.LVL244:
 299:lvgl/src/extra/libs/qrcode/qrcodegen.c **** 	
 2194              		.loc 1 299 2 is_stmt 1 view .LVU527
 299:lvgl/src/extra/libs/qrcode/qrcodegen.c **** 	
 2195              		.loc 1 299 6 is_stmt 0 view .LVU528
 2196 0060 AAEB080A 		sub	r10, r10, r8
 2197              	.LVL245:
 303:lvgl/src/extra/libs/qrcode/qrcodegen.c **** 	calcReedSolomonGenerator(blockEccLen, generator);
 2198              		.loc 1 303 2 is_stmt 1 view .LVU529
 304:lvgl/src/extra/libs/qrcode/qrcodegen.c **** 	const uint8_t *dat = data;
 2199              		.loc 1 304 2 view .LVU530
 2200 0064 06A9     		add	r1, sp, #24
 2201 0066 4046     		mov	r0, r8
 2202              	.LVL246:
 304:lvgl/src/extra/libs/qrcode/qrcodegen.c **** 	const uint8_t *dat = data;
 2203              		.loc 1 304 2 is_stmt 0 view .LVU531
 2204 0068 FFF7FEFF 		bl	calcReedSolomonGenerator
 2205              	.LVL247:
 305:lvgl/src/extra/libs/qrcode/qrcodegen.c **** 	for (int i = 0; i < numBlocks; i++) {
 2206              		.loc 1 305 2 is_stmt 1 view .LVU532
 306:lvgl/src/extra/libs/qrcode/qrcodegen.c **** 		int datLen = shortBlockDataLen + (i < numShortBlocks ? 0 : 1);
 2207              		.loc 1 306 2 view .LVU533
 2208              	.LBB37:
 306:lvgl/src/extra/libs/qrcode/qrcodegen.c **** 		int datLen = shortBlockDataLen + (i < numShortBlocks ? 0 : 1);
 2209              		.loc 1 306 7 view .LVU534
 306:lvgl/src/extra/libs/qrcode/qrcodegen.c **** 		int datLen = shortBlockDataLen + (i < numShortBlocks ? 0 : 1);
 2210              		.loc 1 306 7 is_stmt 0 view .LVU535
 2211              	.LBE37:
 305:lvgl/src/extra/libs/qrcode/qrcodegen.c **** 	for (int i = 0; i < numBlocks; i++) {
 2212              		.loc 1 305 17 view .LVU536
 2213 006c 059F     		ldr	r7, [sp, #20]
 2214              	.LVL248:
 2215              	.LBB43:
 306:lvgl/src/extra/libs/qrcode/qrcodegen.c **** 		int datLen = shortBlockDataLen + (i < numShortBlocks ? 0 : 1);
 2216              		.loc 1 306 11 view .LVU537
 2217 006e 4FF0000B 		mov	fp, #0
 306:lvgl/src/extra/libs/qrcode/qrcodegen.c **** 		int datLen = shortBlockDataLen + (i < numShortBlocks ? 0 : 1);
 2218              		.loc 1 306 2 view .LVU538
 2219 0072 22E0     		b	.L190
 2220              	.LVL249:
 2221              	.L187:
 306:lvgl/src/extra/libs/qrcode/qrcodegen.c **** 		int datLen = shortBlockDataLen + (i < numShortBlocks ? 0 : 1);
 2222              		.loc 1 306 2 view .LVU539
 2223              	.LBE43:
 293:lvgl/src/extra/libs/qrcode/qrcodegen.c **** 	int numBlocks = NUM_ERROR_CORRECTION_BLOCKS[(int)ecl][version];
 2224              		.loc 1 293 2 discriminator 3 view .LVU540
 2225 0074 204B     		ldr	r3, .L201+8
 2226              	.LVL250:
ARM GAS  C:\usertemp\ccXENK9d.s 			page 66


 293:lvgl/src/extra/libs/qrcode/qrcodegen.c **** 	int numBlocks = NUM_ERROR_CORRECTION_BLOCKS[(int)ecl][version];
 2227              		.loc 1 293 2 discriminator 3 view .LVU541
 2228 0076 214A     		ldr	r2, .L201+12
 2229              	.LVL251:
 293:lvgl/src/extra/libs/qrcode/qrcodegen.c **** 	int numBlocks = NUM_ERROR_CORRECTION_BLOCKS[(int)ecl][version];
 2230              		.loc 1 293 2 discriminator 3 view .LVU542
 2231 0078 40F22511 		movw	r1, #293
 2232 007c 2048     		ldr	r0, .L201+16
 2233              	.LVL252:
 293:lvgl/src/extra/libs/qrcode/qrcodegen.c **** 	int numBlocks = NUM_ERROR_CORRECTION_BLOCKS[(int)ecl][version];
 2234              		.loc 1 293 2 discriminator 3 view .LVU543
 2235 007e FFF7FEFF 		bl	__assert_func
 2236              	.LVL253:
 2237              	.L198:
 296:lvgl/src/extra/libs/qrcode/qrcodegen.c **** 	int dataLen = getNumDataCodewords(version, ecl);
 2238              		.loc 1 296 6 discriminator 1 view .LVU544
 2239 0082 0730     		adds	r0, r0, #7
 2240 0084 E0E7     		b	.L189
 2241              	.LVL254:
 2242              	.L192:
 2243              	.LBB44:
 2244              	.LBB38:
 2245              	.LBB39:
 313:lvgl/src/extra/libs/qrcode/qrcodegen.c **** 		}
 2246              		.loc 1 313 4 is_stmt 1 view .LVU545
 313:lvgl/src/extra/libs/qrcode/qrcodegen.c **** 		}
 2247              		.loc 1 313 19 is_stmt 0 view .LVU546
 2248 0086 F95C     		ldrb	r1, [r7, r3]	@ zero_extendqisi2
 313:lvgl/src/extra/libs/qrcode/qrcodegen.c **** 		}
 2249              		.loc 1 313 14 view .LVU547
 2250 0088 A954     		strb	r1, [r5, r2]
 310:lvgl/src/extra/libs/qrcode/qrcodegen.c **** 			if (j == shortBlockDataLen)
 2251              		.loc 1 310 41 is_stmt 1 discriminator 2 view .LVU548
 310:lvgl/src/extra/libs/qrcode/qrcodegen.c **** 			if (j == shortBlockDataLen)
 2252              		.loc 1 310 39 is_stmt 0 discriminator 2 view .LVU549
 2253 008a 0133     		adds	r3, r3, #1
 2254              	.LVL255:
 310:lvgl/src/extra/libs/qrcode/qrcodegen.c **** 			if (j == shortBlockDataLen)
 2255              		.loc 1 310 45 discriminator 2 view .LVU550
 2256 008c 2244     		add	r2, r2, r4
 2257              	.LVL256:
 2258              	.L191:
 310:lvgl/src/extra/libs/qrcode/qrcodegen.c **** 			if (j == shortBlockDataLen)
 2259              		.loc 1 310 28 is_stmt 1 discriminator 1 view .LVU551
 2260 008e B342     		cmp	r3, r6
 2261 0090 04DA     		bge	.L199
 311:lvgl/src/extra/libs/qrcode/qrcodegen.c **** 				k -= numShortBlocks;
 2262              		.loc 1 311 4 view .LVU552
 311:lvgl/src/extra/libs/qrcode/qrcodegen.c **** 				k -= numShortBlocks;
 2263              		.loc 1 311 7 is_stmt 0 view .LVU553
 2264 0092 5345     		cmp	r3, r10
 2265 0094 F7D1     		bne	.L192
 312:lvgl/src/extra/libs/qrcode/qrcodegen.c **** 			result[k] = dat[j];
 2266              		.loc 1 312 5 is_stmt 1 view .LVU554
 312:lvgl/src/extra/libs/qrcode/qrcodegen.c **** 			result[k] = dat[j];
 2267              		.loc 1 312 7 is_stmt 0 view .LVU555
 2268 0096 0399     		ldr	r1, [sp, #12]
ARM GAS  C:\usertemp\ccXENK9d.s 			page 67


 2269 0098 521A     		subs	r2, r2, r1
 2270              	.LVL257:
 312:lvgl/src/extra/libs/qrcode/qrcodegen.c **** 			result[k] = dat[j];
 2271              		.loc 1 312 7 view .LVU556
 2272 009a F4E7     		b	.L192
 2273              	.L199:
 312:lvgl/src/extra/libs/qrcode/qrcodegen.c **** 			result[k] = dat[j];
 2274              		.loc 1 312 7 view .LVU557
 2275              	.LBE39:
 315:lvgl/src/extra/libs/qrcode/qrcodegen.c **** 			result[k] = ecc[j];
 2276              		.loc 1 315 3 is_stmt 1 view .LVU558
 2277              	.LBB40:
 315:lvgl/src/extra/libs/qrcode/qrcodegen.c **** 			result[k] = ecc[j];
 2278              		.loc 1 315 8 view .LVU559
 2279              	.LVL258:
 315:lvgl/src/extra/libs/qrcode/qrcodegen.c **** 			result[k] = ecc[j];
 2280              		.loc 1 315 19 is_stmt 0 view .LVU560
 2281 009c 049B     		ldr	r3, [sp, #16]
 2282              	.LVL259:
 315:lvgl/src/extra/libs/qrcode/qrcodegen.c **** 			result[k] = ecc[j];
 2283              		.loc 1 315 19 view .LVU561
 2284 009e 0BEB0302 		add	r2, fp, r3
 2285              	.LVL260:
 315:lvgl/src/extra/libs/qrcode/qrcodegen.c **** 			result[k] = ecc[j];
 2286              		.loc 1 315 12 view .LVU562
 2287 00a2 0023     		movs	r3, #0
 315:lvgl/src/extra/libs/qrcode/qrcodegen.c **** 			result[k] = ecc[j];
 2288              		.loc 1 315 3 view .LVU563
 2289 00a4 04E0     		b	.L194
 2290              	.LVL261:
 2291              	.L195:
 316:lvgl/src/extra/libs/qrcode/qrcodegen.c **** 		dat += datLen;
 2292              		.loc 1 316 4 is_stmt 1 view .LVU564
 316:lvgl/src/extra/libs/qrcode/qrcodegen.c **** 		dat += datLen;
 2293              		.loc 1 316 19 is_stmt 0 view .LVU565
 2294 00a6 19F80310 		ldrb	r1, [r9, r3]	@ zero_extendqisi2
 316:lvgl/src/extra/libs/qrcode/qrcodegen.c **** 		dat += datLen;
 2295              		.loc 1 316 14 view .LVU566
 2296 00aa A954     		strb	r1, [r5, r2]
 315:lvgl/src/extra/libs/qrcode/qrcodegen.c **** 			result[k] = ecc[j];
 2297              		.loc 1 315 56 is_stmt 1 discriminator 3 view .LVU567
 315:lvgl/src/extra/libs/qrcode/qrcodegen.c **** 			result[k] = ecc[j];
 2298              		.loc 1 315 54 is_stmt 0 discriminator 3 view .LVU568
 2299 00ac 0133     		adds	r3, r3, #1
 2300              	.LVL262:
 315:lvgl/src/extra/libs/qrcode/qrcodegen.c **** 			result[k] = ecc[j];
 2301              		.loc 1 315 60 discriminator 3 view .LVU569
 2302 00ae 2244     		add	r2, r2, r4
 2303              	.LVL263:
 2304              	.L194:
 315:lvgl/src/extra/libs/qrcode/qrcodegen.c **** 			result[k] = ecc[j];
 2305              		.loc 1 315 38 is_stmt 1 discriminator 1 view .LVU570
 2306 00b0 4345     		cmp	r3, r8
 2307 00b2 F8DB     		blt	.L195
 315:lvgl/src/extra/libs/qrcode/qrcodegen.c **** 			result[k] = ecc[j];
 2308              		.loc 1 315 38 is_stmt 0 discriminator 1 view .LVU571
 2309              	.LBE40:
ARM GAS  C:\usertemp\ccXENK9d.s 			page 68


 317:lvgl/src/extra/libs/qrcode/qrcodegen.c **** 	}
 2310              		.loc 1 317 3 is_stmt 1 view .LVU572
 317:lvgl/src/extra/libs/qrcode/qrcodegen.c **** 	}
 2311              		.loc 1 317 7 is_stmt 0 view .LVU573
 2312 00b4 3744     		add	r7, r7, r6
 2313              	.LVL264:
 317:lvgl/src/extra/libs/qrcode/qrcodegen.c **** 	}
 2314              		.loc 1 317 7 view .LVU574
 2315              	.LBE38:
 306:lvgl/src/extra/libs/qrcode/qrcodegen.c **** 		int datLen = shortBlockDataLen + (i < numShortBlocks ? 0 : 1);
 2316              		.loc 1 306 34 is_stmt 1 discriminator 2 view .LVU575
 2317 00b6 0BF1010B 		add	fp, fp, #1
 2318              	.LVL265:
 2319              	.L190:
 306:lvgl/src/extra/libs/qrcode/qrcodegen.c **** 		int datLen = shortBlockDataLen + (i < numShortBlocks ? 0 : 1);
 2320              		.loc 1 306 20 discriminator 1 view .LVU576
 2321 00ba A345     		cmp	fp, r4
 2322 00bc 14DA     		bge	.L200
 2323              	.LBB42:
 307:lvgl/src/extra/libs/qrcode/qrcodegen.c **** 		uint8_t *ecc = &data[dataLen];  // Temporary storage
 2324              		.loc 1 307 3 view .LVU577
 307:lvgl/src/extra/libs/qrcode/qrcodegen.c **** 		uint8_t *ecc = &data[dataLen];  // Temporary storage
 2325              		.loc 1 307 7 is_stmt 0 view .LVU578
 2326 00be 039B     		ldr	r3, [sp, #12]
 2327 00c0 9B45     		cmp	fp, r3
 2328 00c2 B4BF     		ite	lt
 2329 00c4 5646     		movlt	r6, r10
 2330 00c6 0AF10106 		addge	r6, r10, #1
 2331              	.LVL266:
 308:lvgl/src/extra/libs/qrcode/qrcodegen.c **** 		calcReedSolomonRemainder(dat, datLen, generator, blockEccLen, ecc);
 2332              		.loc 1 308 3 is_stmt 1 view .LVU579
 308:lvgl/src/extra/libs/qrcode/qrcodegen.c **** 		calcReedSolomonRemainder(dat, datLen, generator, blockEccLen, ecc);
 2333              		.loc 1 308 12 is_stmt 0 view .LVU580
 2334 00ca 059B     		ldr	r3, [sp, #20]
 2335 00cc 049A     		ldr	r2, [sp, #16]
 2336 00ce 03EB0209 		add	r9, r3, r2
 2337              	.LVL267:
 309:lvgl/src/extra/libs/qrcode/qrcodegen.c **** 		for (int j = 0, k = i; j < datLen; j++, k += numBlocks) {  // Copy data
 2338              		.loc 1 309 3 is_stmt 1 view .LVU581
 2339 00d2 CDF80090 		str	r9, [sp]
 2340 00d6 4346     		mov	r3, r8
 2341 00d8 06AA     		add	r2, sp, #24
 2342 00da 3146     		mov	r1, r6
 2343 00dc 3846     		mov	r0, r7
 2344 00de FFF7FEFF 		bl	calcReedSolomonRemainder
 2345              	.LVL268:
 310:lvgl/src/extra/libs/qrcode/qrcodegen.c **** 			if (j == shortBlockDataLen)
 2346              		.loc 1 310 3 view .LVU582
 2347              	.LBB41:
 310:lvgl/src/extra/libs/qrcode/qrcodegen.c **** 			if (j == shortBlockDataLen)
 2348              		.loc 1 310 8 view .LVU583
 310:lvgl/src/extra/libs/qrcode/qrcodegen.c **** 			if (j == shortBlockDataLen)
 2349              		.loc 1 310 19 is_stmt 0 view .LVU584
 2350 00e2 5A46     		mov	r2, fp
 310:lvgl/src/extra/libs/qrcode/qrcodegen.c **** 			if (j == shortBlockDataLen)
 2351              		.loc 1 310 12 view .LVU585
 2352 00e4 0023     		movs	r3, #0
ARM GAS  C:\usertemp\ccXENK9d.s 			page 69


 310:lvgl/src/extra/libs/qrcode/qrcodegen.c **** 			if (j == shortBlockDataLen)
 2353              		.loc 1 310 3 view .LVU586
 2354 00e6 D2E7     		b	.L191
 2355              	.LVL269:
 2356              	.L200:
 310:lvgl/src/extra/libs/qrcode/qrcodegen.c **** 			if (j == shortBlockDataLen)
 2357              		.loc 1 310 3 view .LVU587
 2358              	.LBE41:
 2359              	.LBE42:
 2360              	.LBE44:
 319:lvgl/src/extra/libs/qrcode/qrcodegen.c **** 
 2361              		.loc 1 319 1 view .LVU588
 2362 00e8 0FB0     		add	sp, sp, #60
 2363              	.LCFI28:
 2364              		.cfi_def_cfa_offset 36
 2365              		@ sp needed
 2366 00ea BDE8F08F 		pop	{r4, r5, r6, r7, r8, r9, r10, fp, pc}
 2367              	.LVL270:
 2368              	.L202:
 319:lvgl/src/extra/libs/qrcode/qrcodegen.c **** 
 2369              		.loc 1 319 1 view .LVU589
 2370 00ee 00BF     		.align	2
 2371              	.L201:
 2372 00f0 00000000 		.word	NUM_ERROR_CORRECTION_BLOCKS
 2373 00f4 00000000 		.word	ECC_CODEWORDS_PER_BLOCK
 2374 00f8 00000000 		.word	.LC14
 2375 00fc 00000000 		.word	__func__.19
 2376 0100 08000000 		.word	.LC1
 2377              		.cfi_endproc
 2378              	.LFE5:
 2380              		.section	.text.addRunToHistory,"ax",%progbits
 2381              		.align	1
 2382              		.syntax unified
 2383              		.thumb
 2384              		.thumb_func
 2386              	addRunToHistory:
 2387              	.LVL271:
 2388              	.LFB19:
 717:lvgl/src/extra/libs/qrcode/qrcodegen.c **** 	memmove(&history[1], &history[0], 6 * sizeof(history[0]));
 2389              		.loc 1 717 74 is_stmt 1 view -0
 2390              		.cfi_startproc
 2391              		@ args = 0, pretend = 0, frame = 0
 2392              		@ frame_needed = 0, uses_anonymous_args = 0
 717:lvgl/src/extra/libs/qrcode/qrcodegen.c **** 	memmove(&history[1], &history[0], 6 * sizeof(history[0]));
 2393              		.loc 1 717 74 is_stmt 0 view .LVU591
 2394 0000 38B5     		push	{r3, r4, r5, lr}
 2395              	.LCFI29:
 2396              		.cfi_def_cfa_offset 16
 2397              		.cfi_offset 3, -16
 2398              		.cfi_offset 4, -12
 2399              		.cfi_offset 5, -8
 2400              		.cfi_offset 14, -4
 2401 0002 0546     		mov	r5, r0
 2402 0004 0C46     		mov	r4, r1
 718:lvgl/src/extra/libs/qrcode/qrcodegen.c **** 	history[0] = run;
 2403              		.loc 1 718 2 is_stmt 1 view .LVU592
 2404 0006 0622     		movs	r2, #6
ARM GAS  C:\usertemp\ccXENK9d.s 			page 70


 2405 0008 481C     		adds	r0, r1, #1
 2406              	.LVL272:
 718:lvgl/src/extra/libs/qrcode/qrcodegen.c **** 	history[0] = run;
 2407              		.loc 1 718 2 is_stmt 0 view .LVU593
 2408 000a FFF7FEFF 		bl	memmove
 2409              	.LVL273:
 719:lvgl/src/extra/libs/qrcode/qrcodegen.c **** }
 2410              		.loc 1 719 2 is_stmt 1 view .LVU594
 719:lvgl/src/extra/libs/qrcode/qrcodegen.c **** }
 2411              		.loc 1 719 13 is_stmt 0 view .LVU595
 2412 000e 2570     		strb	r5, [r4]
 720:lvgl/src/extra/libs/qrcode/qrcodegen.c **** 
 2413              		.loc 1 720 1 view .LVU596
 2414 0010 38BD     		pop	{r3, r4, r5, pc}
 720:lvgl/src/extra/libs/qrcode/qrcodegen.c **** 
 2415              		.loc 1 720 1 view .LVU597
 2416              		.cfi_endproc
 2417              	.LFE19:
 2419              		.section	.rodata.qrcodegen_getSize.str1.4,"aMS",%progbits,1
 2420              		.align	2
 2421              	.LC15:
 2422 0000 7172636F 		.ascii	"qrcode != NULL\000"
 2422      64652021 
 2422      3D204E55 
 2422      4C4C00
 2423 000f 00       		.align	2
 2424              	.LC16:
 2425 0010 28717263 		.ascii	"(qrcodegen_VERSION_MIN * 4 + 17) <= result && resul"
 2425      6F646567 
 2425      656E5F56 
 2425      45525349 
 2425      4F4E5F4D 
 2426 0043 74203C3D 		.ascii	"t <= (qrcodegen_VERSION_MAX * 4 + 17)\000"
 2426      20287172 
 2426      636F6465 
 2426      67656E5F 
 2426      56455253 
 2427              		.section	.text.qrcodegen_getSize,"ax",%progbits
 2428              		.align	1
 2429              		.global	qrcodegen_getSize
 2430              		.syntax unified
 2431              		.thumb
 2432              		.thumb_func
 2434              	qrcodegen_getSize:
 2435              	.LVL274:
 2436              	.LFB21:
 739:lvgl/src/extra/libs/qrcode/qrcodegen.c **** 	assert(qrcode != NULL);
 2437              		.loc 1 739 47 is_stmt 1 view -0
 2438              		.cfi_startproc
 2439              		@ args = 0, pretend = 0, frame = 0
 2440              		@ frame_needed = 0, uses_anonymous_args = 0
 739:lvgl/src/extra/libs/qrcode/qrcodegen.c **** 	assert(qrcode != NULL);
 2441              		.loc 1 739 47 is_stmt 0 view .LVU599
 2442 0000 08B5     		push	{r3, lr}
 2443              	.LCFI30:
 2444              		.cfi_def_cfa_offset 8
 2445              		.cfi_offset 3, -8
ARM GAS  C:\usertemp\ccXENK9d.s 			page 71


 2446              		.cfi_offset 14, -4
 740:lvgl/src/extra/libs/qrcode/qrcodegen.c **** 	int result = qrcode[0];
 2447              		.loc 1 740 2 is_stmt 1 view .LVU600
 2448 0002 28B1     		cbz	r0, .L209
 741:lvgl/src/extra/libs/qrcode/qrcodegen.c **** 	assert((qrcodegen_VERSION_MIN * 4 + 17) <= result
 2449              		.loc 1 741 2 view .LVU601
 741:lvgl/src/extra/libs/qrcode/qrcodegen.c **** 	assert((qrcodegen_VERSION_MIN * 4 + 17) <= result
 2450              		.loc 1 741 21 is_stmt 0 view .LVU602
 2451 0004 0078     		ldrb	r0, [r0]	@ zero_extendqisi2
 2452              	.LVL275:
 742:lvgl/src/extra/libs/qrcode/qrcodegen.c **** 		&& result <= (qrcodegen_VERSION_MAX * 4 + 17));
 2453              		.loc 1 742 2 is_stmt 1 view .LVU603
 2454 0006 A0F11503 		sub	r3, r0, #21
 2455 000a 9C2B     		cmp	r3, #156
 2456 000c 07D8     		bhi	.L210
 745:lvgl/src/extra/libs/qrcode/qrcodegen.c **** 
 2457              		.loc 1 745 1 is_stmt 0 view .LVU604
 2458 000e 08BD     		pop	{r3, pc}
 2459              	.LVL276:
 2460              	.L209:
 740:lvgl/src/extra/libs/qrcode/qrcodegen.c **** 	int result = qrcode[0];
 2461              		.loc 1 740 2 discriminator 1 view .LVU605
 2462 0010 064B     		ldr	r3, .L211
 2463 0012 074A     		ldr	r2, .L211+4
 2464 0014 4FF43971 		mov	r1, #740
 2465 0018 0648     		ldr	r0, .L211+8
 2466              	.LVL277:
 740:lvgl/src/extra/libs/qrcode/qrcodegen.c **** 	int result = qrcode[0];
 2467              		.loc 1 740 2 discriminator 1 view .LVU606
 2468 001a FFF7FEFF 		bl	__assert_func
 2469              	.LVL278:
 2470              	.L210:
 742:lvgl/src/extra/libs/qrcode/qrcodegen.c **** 		&& result <= (qrcodegen_VERSION_MAX * 4 + 17));
 2471              		.loc 1 742 2 discriminator 1 view .LVU607
 2472 001e 064B     		ldr	r3, .L211+12
 2473 0020 034A     		ldr	r2, .L211+4
 2474 0022 40F2E621 		movw	r1, #742
 2475 0026 0348     		ldr	r0, .L211+8
 2476              	.LVL279:
 742:lvgl/src/extra/libs/qrcode/qrcodegen.c **** 		&& result <= (qrcodegen_VERSION_MAX * 4 + 17));
 2477              		.loc 1 742 2 discriminator 1 view .LVU608
 2478 0028 FFF7FEFF 		bl	__assert_func
 2479              	.LVL280:
 2480              	.L212:
 742:lvgl/src/extra/libs/qrcode/qrcodegen.c **** 		&& result <= (qrcodegen_VERSION_MAX * 4 + 17));
 2481              		.loc 1 742 2 discriminator 1 view .LVU609
 2482              		.align	2
 2483              	.L211:
 2484 002c 00000000 		.word	.LC15
 2485 0030 00000000 		.word	__func__.8
 2486 0034 08000000 		.word	.LC1
 2487 0038 10000000 		.word	.LC16
 2488              		.cfi_endproc
 2489              	.LFE21:
 2491              		.section	.rodata.drawCodewords.str1.4,"aMS",%progbits,1
 2492              		.align	2
 2493              	.LC17:
ARM GAS  C:\usertemp\ccXENK9d.s 			page 72


 2494 0000 69203D3D 		.ascii	"i == dataLen * 8\000"
 2494      20646174 
 2494      614C656E 
 2494      202A2038 
 2494      00
 2495              		.section	.text.drawCodewords,"ax",%progbits
 2496              		.align	1
 2497              		.syntax unified
 2498              		.thumb
 2499              		.thumb_func
 2501              	drawCodewords:
 2502              	.LVL281:
 2503              	.LFB16:
 572:lvgl/src/extra/libs/qrcode/qrcodegen.c **** 	int qrsize = qrcodegen_getSize(qrcode);
 2504              		.loc 1 572 80 is_stmt 1 view -0
 2505              		.cfi_startproc
 2506              		@ args = 0, pretend = 0, frame = 16
 2507              		@ frame_needed = 0, uses_anonymous_args = 0
 572:lvgl/src/extra/libs/qrcode/qrcodegen.c **** 	int qrsize = qrcodegen_getSize(qrcode);
 2508              		.loc 1 572 80 is_stmt 0 view .LVU611
 2509 0000 2DE9F04F 		push	{r4, r5, r6, r7, r8, r9, r10, fp, lr}
 2510              	.LCFI31:
 2511              		.cfi_def_cfa_offset 36
 2512              		.cfi_offset 4, -36
 2513              		.cfi_offset 5, -32
 2514              		.cfi_offset 6, -28
 2515              		.cfi_offset 7, -24
 2516              		.cfi_offset 8, -20
 2517              		.cfi_offset 9, -16
 2518              		.cfi_offset 10, -12
 2519              		.cfi_offset 11, -8
 2520              		.cfi_offset 14, -4
 2521 0004 85B0     		sub	sp, sp, #20
 2522              	.LCFI32:
 2523              		.cfi_def_cfa_offset 56
 2524 0006 0390     		str	r0, [sp, #12]
 2525 0008 0191     		str	r1, [sp, #4]
 2526 000a 1746     		mov	r7, r2
 573:lvgl/src/extra/libs/qrcode/qrcodegen.c **** 	int i = 0;  // Bit index into the data
 2527              		.loc 1 573 2 is_stmt 1 view .LVU612
 573:lvgl/src/extra/libs/qrcode/qrcodegen.c **** 	int i = 0;  // Bit index into the data
 2528              		.loc 1 573 15 is_stmt 0 view .LVU613
 2529 000c 1046     		mov	r0, r2
 2530              	.LVL282:
 573:lvgl/src/extra/libs/qrcode/qrcodegen.c **** 	int i = 0;  // Bit index into the data
 2531              		.loc 1 573 15 view .LVU614
 2532 000e FFF7FEFF 		bl	qrcodegen_getSize
 2533              	.LVL283:
 573:lvgl/src/extra/libs/qrcode/qrcodegen.c **** 	int i = 0;  // Bit index into the data
 2534              		.loc 1 573 15 view .LVU615
 2535 0012 0646     		mov	r6, r0
 2536              	.LVL284:
 574:lvgl/src/extra/libs/qrcode/qrcodegen.c **** 	// Do the funny zigzag scan
 2537              		.loc 1 574 2 is_stmt 1 view .LVU616
 576:lvgl/src/extra/libs/qrcode/qrcodegen.c **** 		if (right == 6)
 2538              		.loc 1 576 2 view .LVU617
 2539              	.LBB45:
ARM GAS  C:\usertemp\ccXENK9d.s 			page 73


 576:lvgl/src/extra/libs/qrcode/qrcodegen.c **** 		if (right == 6)
 2540              		.loc 1 576 7 view .LVU618
 576:lvgl/src/extra/libs/qrcode/qrcodegen.c **** 		if (right == 6)
 2541              		.loc 1 576 11 is_stmt 0 view .LVU619
 2542 0014 00F1FF3A 		add	r10, r0, #-1
 2543              	.LVL285:
 576:lvgl/src/extra/libs/qrcode/qrcodegen.c **** 		if (right == 6)
 2544              		.loc 1 576 11 view .LVU620
 2545 0018 D346     		mov	fp, r10
 2546              	.LBE45:
 574:lvgl/src/extra/libs/qrcode/qrcodegen.c **** 	// Do the funny zigzag scan
 2547              		.loc 1 574 6 view .LVU621
 2548 001a 4FF00008 		mov	r8, #0
 2549 001e CDF808A0 		str	r10, [sp, #8]
 2550              	.LBB53:
 576:lvgl/src/extra/libs/qrcode/qrcodegen.c **** 		if (right == 6)
 2551              		.loc 1 576 2 view .LVU622
 2552 0022 36E0     		b	.L214
 2553              	.LVL286:
 2554              	.L231:
 578:lvgl/src/extra/libs/qrcode/qrcodegen.c **** 		for (int vert = 0; vert < qrsize; vert++) {  // Vertical counter
 2555              		.loc 1 578 10 view .LVU623
 2556 0024 4FF0050B 		mov	fp, #5
 2557              	.LVL287:
 578:lvgl/src/extra/libs/qrcode/qrcodegen.c **** 		for (int vert = 0; vert < qrsize; vert++) {  // Vertical counter
 2558              		.loc 1 578 10 view .LVU624
 2559 0028 39E0     		b	.L215
 2560              	.LVL288:
 2561              	.L224:
 2562              	.LBB46:
 2563              	.LBB47:
 2564              	.LBB48:
 583:lvgl/src/extra/libs/qrcode/qrcodegen.c **** 				if (!getModule(qrcode, x, y) && i < dataLen * 8) {
 2565              		.loc 1 583 40 discriminator 2 view .LVU625
 2566 002a D146     		mov	r9, r10
 2567              	.LVL289:
 2568              	.L217:
 584:lvgl/src/extra/libs/qrcode/qrcodegen.c **** 					bool black = getBit(data[i >> 3], 7 - (i & 7));
 2569              		.loc 1 584 5 is_stmt 1 view .LVU626
 584:lvgl/src/extra/libs/qrcode/qrcodegen.c **** 					bool black = getBit(data[i >> 3], 7 - (i & 7));
 2570              		.loc 1 584 10 is_stmt 0 view .LVU627
 2571 002c 4A46     		mov	r2, r9
 2572 002e 2946     		mov	r1, r5
 2573 0030 3846     		mov	r0, r7
 2574 0032 FFF7FEFF 		bl	getModule
 2575              	.LVL290:
 584:lvgl/src/extra/libs/qrcode/qrcodegen.c **** 					bool black = getBit(data[i >> 3], 7 - (i & 7));
 2576              		.loc 1 584 8 discriminator 1 view .LVU628
 2577 0036 18B9     		cbnz	r0, .L218
 584:lvgl/src/extra/libs/qrcode/qrcodegen.c **** 					bool black = getBit(data[i >> 3], 7 - (i & 7));
 2578              		.loc 1 584 34 discriminator 1 view .LVU629
 2579 0038 019B     		ldr	r3, [sp, #4]
 2580 003a B8EBC30F 		cmp	r8, r3, lsl #3
 2581 003e 0DDB     		blt	.L227
 2582              	.L218:
 584:lvgl/src/extra/libs/qrcode/qrcodegen.c **** 					bool black = getBit(data[i >> 3], 7 - (i & 7));
 2583              		.loc 1 584 34 discriminator 1 view .LVU630
ARM GAS  C:\usertemp\ccXENK9d.s 			page 74


 2584              	.LBE48:
 580:lvgl/src/extra/libs/qrcode/qrcodegen.c **** 				int x = right - j;  // Actual x coordinate
 2585              		.loc 1 580 28 is_stmt 1 discriminator 2 view .LVU631
 2586 0040 0134     		adds	r4, r4, #1
 2587              	.LVL291:
 2588              	.L220:
 580:lvgl/src/extra/libs/qrcode/qrcodegen.c **** 				int x = right - j;  // Actual x coordinate
 2589              		.loc 1 580 22 discriminator 1 view .LVU632
 2590 0042 012C     		cmp	r4, #1
 2591 0044 1DDC     		bgt	.L228
 2592              	.LBB50:
 581:lvgl/src/extra/libs/qrcode/qrcodegen.c **** 				bool upward = ((right + 1) & 2) == 0;
 2593              		.loc 1 581 5 view .LVU633
 581:lvgl/src/extra/libs/qrcode/qrcodegen.c **** 				bool upward = ((right + 1) & 2) == 0;
 2594              		.loc 1 581 9 is_stmt 0 view .LVU634
 2595 0046 ABEB0405 		sub	r5, fp, r4
 2596              	.LVL292:
 582:lvgl/src/extra/libs/qrcode/qrcodegen.c **** 				int y = upward ? qrsize - 1 - vert : vert;  // Actual y coordinate
 2597              		.loc 1 582 5 is_stmt 1 view .LVU635
 582:lvgl/src/extra/libs/qrcode/qrcodegen.c **** 				int y = upward ? qrsize - 1 - vert : vert;  // Actual y coordinate
 2598              		.loc 1 582 27 is_stmt 0 view .LVU636
 2599 004a 0BF10103 		add	r3, fp, #1
 2600              	.LVL293:
 583:lvgl/src/extra/libs/qrcode/qrcodegen.c **** 				if (!getModule(qrcode, x, y) && i < dataLen * 8) {
 2601              		.loc 1 583 5 is_stmt 1 view .LVU637
 583:lvgl/src/extra/libs/qrcode/qrcodegen.c **** 				if (!getModule(qrcode, x, y) && i < dataLen * 8) {
 2602              		.loc 1 583 40 is_stmt 0 view .LVU638
 2603 004e 13F0020F 		tst	r3, #2
 2604 0052 EAD1     		bne	.L224
 583:lvgl/src/extra/libs/qrcode/qrcodegen.c **** 				if (!getModule(qrcode, x, y) && i < dataLen * 8) {
 2605              		.loc 1 583 40 discriminator 1 view .LVU639
 2606 0054 029B     		ldr	r3, [sp, #8]
 2607              	.LVL294:
 583:lvgl/src/extra/libs/qrcode/qrcodegen.c **** 				if (!getModule(qrcode, x, y) && i < dataLen * 8) {
 2608              		.loc 1 583 40 discriminator 1 view .LVU640
 2609 0056 A3EB0A09 		sub	r9, r3, r10
 2610 005a E7E7     		b	.L217
 2611              	.LVL295:
 2612              	.L227:
 2613              	.LBB49:
 585:lvgl/src/extra/libs/qrcode/qrcodegen.c **** 					setModule(qrcode, x, y, black);
 2614              		.loc 1 585 6 is_stmt 1 view .LVU641
 585:lvgl/src/extra/libs/qrcode/qrcodegen.c **** 					setModule(qrcode, x, y, black);
 2615              		.loc 1 585 33 is_stmt 0 view .LVU642
 2616 005c 4FEAE803 		asr	r3, r8, #3
 585:lvgl/src/extra/libs/qrcode/qrcodegen.c **** 					setModule(qrcode, x, y, black);
 2617              		.loc 1 585 42 view .LVU643
 2618 0060 6FEA0801 		mvn	r1, r8
 585:lvgl/src/extra/libs/qrcode/qrcodegen.c **** 					setModule(qrcode, x, y, black);
 2619              		.loc 1 585 19 view .LVU644
 2620 0064 01F00701 		and	r1, r1, #7
 2621 0068 039A     		ldr	r2, [sp, #12]
 2622 006a D05C     		ldrb	r0, [r2, r3]	@ zero_extendqisi2
 2623 006c FFF7FEFF 		bl	getBit
 2624              	.LVL296:
 2625 0070 0346     		mov	r3, r0
 2626              	.LVL297:
ARM GAS  C:\usertemp\ccXENK9d.s 			page 75


 586:lvgl/src/extra/libs/qrcode/qrcodegen.c **** 					i++;
 2627              		.loc 1 586 6 is_stmt 1 view .LVU645
 2628 0072 4A46     		mov	r2, r9
 2629 0074 2946     		mov	r1, r5
 2630 0076 3846     		mov	r0, r7
 2631 0078 FFF7FEFF 		bl	setModule
 2632              	.LVL298:
 587:lvgl/src/extra/libs/qrcode/qrcodegen.c **** 				}
 2633              		.loc 1 587 6 view .LVU646
 587:lvgl/src/extra/libs/qrcode/qrcodegen.c **** 				}
 2634              		.loc 1 587 7 is_stmt 0 view .LVU647
 2635 007c 08F10108 		add	r8, r8, #1
 2636              	.LVL299:
 587:lvgl/src/extra/libs/qrcode/qrcodegen.c **** 				}
 2637              		.loc 1 587 7 view .LVU648
 2638 0080 DEE7     		b	.L218
 2639              	.LVL300:
 2640              	.L228:
 587:lvgl/src/extra/libs/qrcode/qrcodegen.c **** 				}
 2641              		.loc 1 587 7 view .LVU649
 2642              	.LBE49:
 2643              	.LBE50:
 2644              	.LBE47:
 579:lvgl/src/extra/libs/qrcode/qrcodegen.c **** 			for (int j = 0; j < 2; j++) {
 2645              		.loc 1 579 41 is_stmt 1 discriminator 2 view .LVU650
 2646 0082 0AF1010A 		add	r10, r10, #1
 2647              	.LVL301:
 2648              	.L216:
 579:lvgl/src/extra/libs/qrcode/qrcodegen.c **** 			for (int j = 0; j < 2; j++) {
 2649              		.loc 1 579 27 discriminator 1 view .LVU651
 2650 0086 B245     		cmp	r10, r6
 2651 0088 01DA     		bge	.L229
 2652              	.LBB51:
 580:lvgl/src/extra/libs/qrcode/qrcodegen.c **** 				int x = right - j;  // Actual x coordinate
 2653              		.loc 1 580 13 is_stmt 0 view .LVU652
 2654 008a 0024     		movs	r4, #0
 2655 008c D9E7     		b	.L220
 2656              	.L229:
 2657              	.LBE51:
 2658              	.LBE46:
 576:lvgl/src/extra/libs/qrcode/qrcodegen.c **** 		if (right == 6)
 2659              		.loc 1 576 49 is_stmt 1 discriminator 2 view .LVU653
 2660 008e ABF1020B 		sub	fp, fp, #2
 2661              	.LVL302:
 2662              	.L214:
 576:lvgl/src/extra/libs/qrcode/qrcodegen.c **** 		if (right == 6)
 2663              		.loc 1 576 37 discriminator 1 view .LVU654
 2664 0092 BBF1000F 		cmp	fp, #0
 2665 0096 05DD     		ble	.L230
 577:lvgl/src/extra/libs/qrcode/qrcodegen.c **** 			right = 5;
 2666              		.loc 1 577 3 view .LVU655
 577:lvgl/src/extra/libs/qrcode/qrcodegen.c **** 			right = 5;
 2667              		.loc 1 577 6 is_stmt 0 view .LVU656
 2668 0098 BBF1060F 		cmp	fp, #6
 2669 009c C2D0     		beq	.L231
 2670              	.LVL303:
 2671              	.L215:
ARM GAS  C:\usertemp\ccXENK9d.s 			page 76


 579:lvgl/src/extra/libs/qrcode/qrcodegen.c **** 			for (int j = 0; j < 2; j++) {
 2672              		.loc 1 579 3 is_stmt 1 view .LVU657
 2673              	.LBB52:
 579:lvgl/src/extra/libs/qrcode/qrcodegen.c **** 			for (int j = 0; j < 2; j++) {
 2674              		.loc 1 579 8 view .LVU658
 579:lvgl/src/extra/libs/qrcode/qrcodegen.c **** 			for (int j = 0; j < 2; j++) {
 2675              		.loc 1 579 12 is_stmt 0 view .LVU659
 2676 009e 4FF0000A 		mov	r10, #0
 579:lvgl/src/extra/libs/qrcode/qrcodegen.c **** 			for (int j = 0; j < 2; j++) {
 2677              		.loc 1 579 3 view .LVU660
 2678 00a2 F0E7     		b	.L216
 2679              	.LVL304:
 2680              	.L230:
 579:lvgl/src/extra/libs/qrcode/qrcodegen.c **** 			for (int j = 0; j < 2; j++) {
 2681              		.loc 1 579 3 view .LVU661
 2682              	.LBE52:
 2683              	.LBE53:
 594:lvgl/src/extra/libs/qrcode/qrcodegen.c **** }
 2684              		.loc 1 594 2 is_stmt 1 view .LVU662
 2685 00a4 019B     		ldr	r3, [sp, #4]
 2686 00a6 B8EBC30F 		cmp	r8, r3, lsl #3
 2687 00aa 02D1     		bne	.L232
 595:lvgl/src/extra/libs/qrcode/qrcodegen.c **** 
 2688              		.loc 1 595 1 is_stmt 0 view .LVU663
 2689 00ac 05B0     		add	sp, sp, #20
 2690              	.LCFI33:
 2691              		.cfi_remember_state
 2692              		.cfi_def_cfa_offset 36
 2693              		@ sp needed
 2694 00ae BDE8F08F 		pop	{r4, r5, r6, r7, r8, r9, r10, fp, pc}
 2695              	.LVL305:
 2696              	.L232:
 2697              	.LCFI34:
 2698              		.cfi_restore_state
 594:lvgl/src/extra/libs/qrcode/qrcodegen.c **** }
 2699              		.loc 1 594 2 discriminator 1 view .LVU664
 2700 00b2 034B     		ldr	r3, .L233
 2701 00b4 034A     		ldr	r2, .L233+4
 2702 00b6 40F25221 		movw	r1, #594
 2703 00ba 0348     		ldr	r0, .L233+8
 2704 00bc FFF7FEFF 		bl	__assert_func
 2705              	.LVL306:
 2706              	.L234:
 2707              		.align	2
 2708              	.L233:
 2709 00c0 00000000 		.word	.LC17
 2710 00c4 00000000 		.word	__func__.15
 2711 00c8 08000000 		.word	.LC1
 2712              		.cfi_endproc
 2713              	.LFE16:
 2715              		.section	.rodata.drawWhiteFunctionModules.str1.4,"aMS",%progbits,1
 2716              		.align	2
 2717              	.LC18:
 2718 0000 62697473 		.ascii	"bits >> 18 == 0\000"
 2718      203E3E20 
 2718      3138203D 
 2718      3D203000 
ARM GAS  C:\usertemp\ccXENK9d.s 			page 77


 2719              		.section	.text.drawWhiteFunctionModules,"ax",%progbits
 2720              		.align	1
 2721              		.syntax unified
 2722              		.thumb
 2723              		.thumb_func
 2725              	drawWhiteFunctionModules:
 2726              	.LVL307:
 2727              	.LFB12:
 450:lvgl/src/extra/libs/qrcode/qrcodegen.c **** 	// Draw horizontal and vertical timing patterns
 2728              		.loc 1 450 69 is_stmt 1 view -0
 2729              		.cfi_startproc
 2730              		@ args = 0, pretend = 0, frame = 8
 2731              		@ frame_needed = 0, uses_anonymous_args = 0
 450:lvgl/src/extra/libs/qrcode/qrcodegen.c **** 	// Draw horizontal and vertical timing patterns
 2732              		.loc 1 450 69 is_stmt 0 view .LVU666
 2733 0000 2DE9F04F 		push	{r4, r5, r6, r7, r8, r9, r10, fp, lr}
 2734              	.LCFI35:
 2735              		.cfi_def_cfa_offset 36
 2736              		.cfi_offset 4, -36
 2737              		.cfi_offset 5, -32
 2738              		.cfi_offset 6, -28
 2739              		.cfi_offset 7, -24
 2740              		.cfi_offset 8, -20
 2741              		.cfi_offset 9, -16
 2742              		.cfi_offset 10, -12
 2743              		.cfi_offset 11, -8
 2744              		.cfi_offset 14, -4
 2745 0004 83B0     		sub	sp, sp, #12
 2746              	.LCFI36:
 2747              		.cfi_def_cfa_offset 48
 2748 0006 8046     		mov	r8, r0
 2749 0008 8A46     		mov	r10, r1
 452:lvgl/src/extra/libs/qrcode/qrcodegen.c **** 	for (int i = 7; i < qrsize - 7; i += 2) {
 2750              		.loc 1 452 2 is_stmt 1 view .LVU667
 452:lvgl/src/extra/libs/qrcode/qrcodegen.c **** 	for (int i = 7; i < qrsize - 7; i += 2) {
 2751              		.loc 1 452 15 is_stmt 0 view .LVU668
 2752 000a FFF7FEFF 		bl	qrcodegen_getSize
 2753              	.LVL308:
 452:lvgl/src/extra/libs/qrcode/qrcodegen.c **** 	for (int i = 7; i < qrsize - 7; i += 2) {
 2754              		.loc 1 452 15 view .LVU669
 2755 000e 8146     		mov	r9, r0
 2756              	.LVL309:
 453:lvgl/src/extra/libs/qrcode/qrcodegen.c **** 		setModule(qrcode, 6, i, false);
 2757              		.loc 1 453 2 is_stmt 1 view .LVU670
 2758              	.LBB54:
 453:lvgl/src/extra/libs/qrcode/qrcodegen.c **** 		setModule(qrcode, 6, i, false);
 2759              		.loc 1 453 7 view .LVU671
 453:lvgl/src/extra/libs/qrcode/qrcodegen.c **** 		setModule(qrcode, 6, i, false);
 2760              		.loc 1 453 11 is_stmt 0 view .LVU672
 2761 0010 0724     		movs	r4, #7
 453:lvgl/src/extra/libs/qrcode/qrcodegen.c **** 		setModule(qrcode, 6, i, false);
 2762              		.loc 1 453 2 view .LVU673
 2763 0012 0CE0     		b	.L236
 2764              	.LVL310:
 2765              	.L237:
 454:lvgl/src/extra/libs/qrcode/qrcodegen.c **** 		setModule(qrcode, i, 6, false);
 2766              		.loc 1 454 3 is_stmt 1 view .LVU674
ARM GAS  C:\usertemp\ccXENK9d.s 			page 78


 2767 0014 0023     		movs	r3, #0
 2768 0016 2246     		mov	r2, r4
 2769 0018 0621     		movs	r1, #6
 2770 001a 4046     		mov	r0, r8
 2771 001c FFF7FEFF 		bl	setModule
 2772              	.LVL311:
 455:lvgl/src/extra/libs/qrcode/qrcodegen.c **** 	}
 2773              		.loc 1 455 3 view .LVU675
 2774 0020 0023     		movs	r3, #0
 2775 0022 0622     		movs	r2, #6
 2776 0024 2146     		mov	r1, r4
 2777 0026 4046     		mov	r0, r8
 2778 0028 FFF7FEFF 		bl	setModule
 2779              	.LVL312:
 453:lvgl/src/extra/libs/qrcode/qrcodegen.c **** 		setModule(qrcode, 6, i, false);
 2780              		.loc 1 453 36 discriminator 3 view .LVU676
 2781 002c 0234     		adds	r4, r4, #2
 2782              	.LVL313:
 2783              	.L236:
 453:lvgl/src/extra/libs/qrcode/qrcodegen.c **** 		setModule(qrcode, 6, i, false);
 2784              		.loc 1 453 20 discriminator 1 view .LVU677
 453:lvgl/src/extra/libs/qrcode/qrcodegen.c **** 		setModule(qrcode, 6, i, false);
 2785              		.loc 1 453 29 is_stmt 0 discriminator 1 view .LVU678
 2786 002e A9F10703 		sub	r3, r9, #7
 453:lvgl/src/extra/libs/qrcode/qrcodegen.c **** 		setModule(qrcode, 6, i, false);
 2787              		.loc 1 453 20 discriminator 1 view .LVU679
 2788 0032 A342     		cmp	r3, r4
 2789 0034 EEDC     		bgt	.L237
 2790              	.LBE54:
 2791              	.LBB55:
 459:lvgl/src/extra/libs/qrcode/qrcodegen.c **** 		for (int dx = -4; dx <= 4; dx++) {
 2792              		.loc 1 459 11 view .LVU680
 2793 0036 6FF00305 		mvn	r5, #3
 2794 003a 2BE0     		b	.L238
 2795              	.LVL314:
 2796              	.L239:
 2797              	.LBB56:
 2798              	.LBB57:
 464:lvgl/src/extra/libs/qrcode/qrcodegen.c **** 				setModuleBounded(qrcode, 3 + dx, 3 + dy, false);
 2799              		.loc 1 464 4 is_stmt 1 view .LVU681
 464:lvgl/src/extra/libs/qrcode/qrcodegen.c **** 				setModuleBounded(qrcode, 3 + dx, 3 + dy, false);
 2800              		.loc 1 464 7 is_stmt 0 view .LVU682
 2801 003c 042B     		cmp	r3, #4
 2802 003e 18BF     		it	ne
 2803 0040 022B     		cmpne	r3, #2
 2804 0042 0ED0     		beq	.L266
 2805              	.LVL315:
 2806              	.L240:
 464:lvgl/src/extra/libs/qrcode/qrcodegen.c **** 				setModuleBounded(qrcode, 3 + dx, 3 + dy, false);
 2807              		.loc 1 464 7 view .LVU683
 2808              	.LBE57:
 460:lvgl/src/extra/libs/qrcode/qrcodegen.c **** 			int dist = abs(dx);
 2809              		.loc 1 460 32 is_stmt 1 discriminator 2 view .LVU684
 2810 0044 0134     		adds	r4, r4, #1
 2811              	.LVL316:
 2812              	.L242:
 460:lvgl/src/extra/libs/qrcode/qrcodegen.c **** 			int dist = abs(dx);
ARM GAS  C:\usertemp\ccXENK9d.s 			page 79


 2813              		.loc 1 460 24 discriminator 1 view .LVU685
 2814 0046 042C     		cmp	r4, #4
 2815 0048 23DC     		bgt	.L267
 2816              	.LBB58:
 461:lvgl/src/extra/libs/qrcode/qrcodegen.c **** 			if (abs(dy) > dist)
 2817              		.loc 1 461 4 view .LVU686
 461:lvgl/src/extra/libs/qrcode/qrcodegen.c **** 			if (abs(dy) > dist)
 2818              		.loc 1 461 8 is_stmt 0 view .LVU687
 2819 004a 84EAE472 		eor	r2, r4, r4, asr #31
 2820 004e A2EBE472 		sub	r2, r2, r4, asr #31
 2821              	.LVL317:
 462:lvgl/src/extra/libs/qrcode/qrcodegen.c **** 				dist = abs(dy);
 2822              		.loc 1 462 4 is_stmt 1 view .LVU688
 462:lvgl/src/extra/libs/qrcode/qrcodegen.c **** 				dist = abs(dy);
 2823              		.loc 1 462 8 is_stmt 0 view .LVU689
 2824 0052 85EAE573 		eor	r3, r5, r5, asr #31
 2825 0056 A3EBE573 		sub	r3, r3, r5, asr #31
 462:lvgl/src/extra/libs/qrcode/qrcodegen.c **** 				dist = abs(dy);
 2826              		.loc 1 462 7 view .LVU690
 2827 005a 9342     		cmp	r3, r2
 2828 005c EEDC     		bgt	.L239
 461:lvgl/src/extra/libs/qrcode/qrcodegen.c **** 			if (abs(dy) > dist)
 2829              		.loc 1 461 8 view .LVU691
 2830 005e 1346     		mov	r3, r2
 2831 0060 ECE7     		b	.L239
 2832              	.LVL318:
 2833              	.L266:
 465:lvgl/src/extra/libs/qrcode/qrcodegen.c **** 				setModuleBounded(qrcode, qrsize - 4 + dx, 3 + dy, false);
 2834              		.loc 1 465 5 is_stmt 1 view .LVU692
 2835 0062 E61C     		adds	r6, r4, #3
 2836 0064 05F1030B 		add	fp, r5, #3
 2837 0068 0023     		movs	r3, #0
 2838              	.LVL319:
 465:lvgl/src/extra/libs/qrcode/qrcodegen.c **** 				setModuleBounded(qrcode, qrsize - 4 + dx, 3 + dy, false);
 2839              		.loc 1 465 5 is_stmt 0 view .LVU693
 2840 006a 5A46     		mov	r2, fp
 2841 006c 3146     		mov	r1, r6
 2842 006e 4046     		mov	r0, r8
 2843 0070 FFF7FEFF 		bl	setModuleBounded
 2844              	.LVL320:
 466:lvgl/src/extra/libs/qrcode/qrcodegen.c **** 				setModuleBounded(qrcode, 3 + dx, qrsize - 4 + dy, false);
 2845              		.loc 1 466 5 is_stmt 1 view .LVU694
 466:lvgl/src/extra/libs/qrcode/qrcodegen.c **** 				setModuleBounded(qrcode, 3 + dx, qrsize - 4 + dy, false);
 2846              		.loc 1 466 37 is_stmt 0 view .LVU695
 2847 0074 A9F10407 		sub	r7, r9, #4
 466:lvgl/src/extra/libs/qrcode/qrcodegen.c **** 				setModuleBounded(qrcode, 3 + dx, qrsize - 4 + dy, false);
 2848              		.loc 1 466 5 view .LVU696
 2849 0078 0023     		movs	r3, #0
 2850 007a 5A46     		mov	r2, fp
 2851 007c 3919     		adds	r1, r7, r4
 2852 007e 4046     		mov	r0, r8
 2853 0080 FFF7FEFF 		bl	setModuleBounded
 2854              	.LVL321:
 467:lvgl/src/extra/libs/qrcode/qrcodegen.c **** 			}
 2855              		.loc 1 467 5 is_stmt 1 view .LVU697
 2856 0084 0023     		movs	r3, #0
 2857 0086 7A19     		adds	r2, r7, r5
ARM GAS  C:\usertemp\ccXENK9d.s 			page 80


 2858 0088 3146     		mov	r1, r6
 2859 008a 4046     		mov	r0, r8
 2860 008c FFF7FEFF 		bl	setModuleBounded
 2861              	.LVL322:
 2862 0090 D8E7     		b	.L240
 2863              	.LVL323:
 2864              	.L267:
 467:lvgl/src/extra/libs/qrcode/qrcodegen.c **** 			}
 2865              		.loc 1 467 5 is_stmt 0 view .LVU698
 2866              	.LBE58:
 2867              	.LBE56:
 459:lvgl/src/extra/libs/qrcode/qrcodegen.c **** 		for (int dx = -4; dx <= 4; dx++) {
 2868              		.loc 1 459 31 is_stmt 1 discriminator 2 view .LVU699
 2869 0092 0135     		adds	r5, r5, #1
 2870              	.LVL324:
 2871              	.L238:
 459:lvgl/src/extra/libs/qrcode/qrcodegen.c **** 		for (int dx = -4; dx <= 4; dx++) {
 2872              		.loc 1 459 23 discriminator 1 view .LVU700
 2873 0094 042D     		cmp	r5, #4
 2874 0096 02DC     		bgt	.L268
 2875              	.LBB59:
 460:lvgl/src/extra/libs/qrcode/qrcodegen.c **** 			int dist = abs(dx);
 2876              		.loc 1 460 12 is_stmt 0 view .LVU701
 2877 0098 6FF00304 		mvn	r4, #3
 2878 009c D3E7     		b	.L242
 2879              	.L268:
 2880              	.LBE59:
 2881              	.LBE55:
 473:lvgl/src/extra/libs/qrcode/qrcodegen.c **** 	int numAlign = getAlignmentPatternPositions(version, alignPatPos);
 2882              		.loc 1 473 2 is_stmt 1 view .LVU702
 474:lvgl/src/extra/libs/qrcode/qrcodegen.c **** 	for (int i = 0; i < numAlign; i++) {
 2883              		.loc 1 474 2 view .LVU703
 474:lvgl/src/extra/libs/qrcode/qrcodegen.c **** 	for (int i = 0; i < numAlign; i++) {
 2884              		.loc 1 474 17 is_stmt 0 view .LVU704
 2885 009e 6946     		mov	r1, sp
 2886 00a0 5046     		mov	r0, r10
 2887 00a2 FFF7FEFF 		bl	getAlignmentPatternPositions
 2888              	.LVL325:
 2889 00a6 8346     		mov	fp, r0
 2890              	.LVL326:
 475:lvgl/src/extra/libs/qrcode/qrcodegen.c **** 		for (int j = 0; j < numAlign; j++) {
 2891              		.loc 1 475 2 is_stmt 1 view .LVU705
 2892              	.LBB60:
 475:lvgl/src/extra/libs/qrcode/qrcodegen.c **** 		for (int j = 0; j < numAlign; j++) {
 2893              		.loc 1 475 7 view .LVU706
 475:lvgl/src/extra/libs/qrcode/qrcodegen.c **** 		for (int j = 0; j < numAlign; j++) {
 2894              		.loc 1 475 11 is_stmt 0 view .LVU707
 2895 00a8 0027     		movs	r7, #0
 475:lvgl/src/extra/libs/qrcode/qrcodegen.c **** 		for (int j = 0; j < numAlign; j++) {
 2896              		.loc 1 475 2 view .LVU708
 2897 00aa 35E0     		b	.L243
 2898              	.LVL327:
 2899              	.L270:
 2900              	.LBB61:
 477:lvgl/src/extra/libs/qrcode/qrcodegen.c **** 				continue;  // Don't draw on the three finder corners
 2901              		.loc 1 477 55 discriminator 3 view .LVU709
 2902 00ac 0BF1FF33 		add	r3, fp, #-1
ARM GAS  C:\usertemp\ccXENK9d.s 			page 81


 477:lvgl/src/extra/libs/qrcode/qrcodegen.c **** 				continue;  // Don't draw on the three finder corners
 2903              		.loc 1 477 38 discriminator 3 view .LVU710
 2904 00b0 B342     		cmp	r3, r6
 2905 00b2 07D1     		bne	.L245
 2906              	.L244:
 476:lvgl/src/extra/libs/qrcode/qrcodegen.c **** 			if ((i == 0 && j == 0) || (i == 0 && j == numAlign - 1) || (i == numAlign - 1 && j == 0))
 2907              		.loc 1 476 34 is_stmt 1 discriminator 2 view .LVU711
 2908 00b4 0136     		adds	r6, r6, #1
 2909              	.LVL328:
 2910              	.L251:
 476:lvgl/src/extra/libs/qrcode/qrcodegen.c **** 			if ((i == 0 && j == 0) || (i == 0 && j == numAlign - 1) || (i == numAlign - 1 && j == 0))
 2911              		.loc 1 476 21 discriminator 1 view .LVU712
 2912 00b6 5E45     		cmp	r6, fp
 2913 00b8 2DDA     		bge	.L269
 477:lvgl/src/extra/libs/qrcode/qrcodegen.c **** 				continue;  // Don't draw on the three finder corners
 2914              		.loc 1 477 4 view .LVU713
 477:lvgl/src/extra/libs/qrcode/qrcodegen.c **** 				continue;  // Don't draw on the three finder corners
 2915              		.loc 1 477 7 is_stmt 0 view .LVU714
 2916 00ba 57EA0603 		orrs	r3, r7, r6
 2917 00be F9D0     		beq	.L244
 477:lvgl/src/extra/libs/qrcode/qrcodegen.c **** 				continue;  // Don't draw on the three finder corners
 2918              		.loc 1 477 27 discriminator 2 view .LVU715
 2919 00c0 002F     		cmp	r7, #0
 2920 00c2 F3D0     		beq	.L270
 2921              	.L245:
 477:lvgl/src/extra/libs/qrcode/qrcodegen.c **** 				continue;  // Don't draw on the three finder corners
 2922              		.loc 1 477 78 discriminator 6 view .LVU716
 2923 00c4 0BF1FF33 		add	r3, fp, #-1
 477:lvgl/src/extra/libs/qrcode/qrcodegen.c **** 				continue;  // Don't draw on the three finder corners
 2924              		.loc 1 477 60 discriminator 6 view .LVU717
 2925 00c8 BB42     		cmp	r3, r7
 2926 00ca 21D1     		bne	.L259
 477:lvgl/src/extra/libs/qrcode/qrcodegen.c **** 				continue;  // Don't draw on the three finder corners
 2927              		.loc 1 477 82 discriminator 7 view .LVU718
 2928 00cc 002E     		cmp	r6, #0
 2929 00ce F1D0     		beq	.L244
 2930 00d0 4FF0FF35 		mov	r5, #-1
 2931 00d4 17E0     		b	.L248
 2932              	.LVL329:
 2933              	.L247:
 2934              	.LBB62:
 2935              	.LBB63:
 481:lvgl/src/extra/libs/qrcode/qrcodegen.c **** 			}
 2936              		.loc 1 481 6 is_stmt 1 view .LVU719
 481:lvgl/src/extra/libs/qrcode/qrcodegen.c **** 			}
 2937              		.loc 1 481 35 is_stmt 0 view .LVU720
 2938 00d6 07F10803 		add	r3, r7, #8
 2939 00da 6B44     		add	r3, sp, r3
 2940 00dc 13F8081C 		ldrb	r1, [r3, #-8]	@ zero_extendqisi2
 481:lvgl/src/extra/libs/qrcode/qrcodegen.c **** 			}
 2941              		.loc 1 481 56 view .LVU721
 2942 00e0 06F10803 		add	r3, r6, #8
 2943 00e4 6B44     		add	r3, sp, r3
 2944 00e6 13F8082C 		ldrb	r2, [r3, #-8]	@ zero_extendqisi2
 481:lvgl/src/extra/libs/qrcode/qrcodegen.c **** 			}
 2945              		.loc 1 481 74 view .LVU722
 2946 00ea 55EA0403 		orrs	r3, r5, r4
ARM GAS  C:\usertemp\ccXENK9d.s 			page 82


 481:lvgl/src/extra/libs/qrcode/qrcodegen.c **** 			}
 2947              		.loc 1 481 6 view .LVU723
 2948 00ee 0CBF     		ite	eq
 2949 00f0 0123     		moveq	r3, #1
 2950 00f2 0023     		movne	r3, #0
 2951 00f4 2A44     		add	r2, r2, r5
 2952 00f6 2144     		add	r1, r1, r4
 2953 00f8 4046     		mov	r0, r8
 2954 00fa FFF7FEFF 		bl	setModule
 2955              	.LVL330:
 480:lvgl/src/extra/libs/qrcode/qrcodegen.c **** 					setModule(qrcode, alignPatPos[i] + dx, alignPatPos[j] + dy, dx == 0 && dy == 0);
 2956              		.loc 1 480 34 is_stmt 1 discriminator 3 view .LVU724
 2957 00fe 0134     		adds	r4, r4, #1
 2958              	.LVL331:
 2959              	.L249:
 480:lvgl/src/extra/libs/qrcode/qrcodegen.c **** 					setModule(qrcode, alignPatPos[i] + dx, alignPatPos[j] + dy, dx == 0 && dy == 0);
 2960              		.loc 1 480 26 discriminator 1 view .LVU725
 2961 0100 012C     		cmp	r4, #1
 2962 0102 E8DD     		ble	.L247
 2963              	.LBE63:
 479:lvgl/src/extra/libs/qrcode/qrcodegen.c **** 				for (int dx = -1; dx <= 1; dx++)
 2964              		.loc 1 479 33 discriminator 2 view .LVU726
 2965 0104 0135     		adds	r5, r5, #1
 2966              	.LVL332:
 2967              	.L248:
 479:lvgl/src/extra/libs/qrcode/qrcodegen.c **** 				for (int dx = -1; dx <= 1; dx++)
 2968              		.loc 1 479 25 discriminator 1 view .LVU727
 2969 0106 012D     		cmp	r5, #1
 2970 0108 D4DC     		bgt	.L244
 2971              	.LBB64:
 480:lvgl/src/extra/libs/qrcode/qrcodegen.c **** 					setModule(qrcode, alignPatPos[i] + dx, alignPatPos[j] + dy, dx == 0 && dy == 0);
 2972              		.loc 1 480 14 is_stmt 0 view .LVU728
 2973 010a 4FF0FF34 		mov	r4, #-1
 2974 010e F7E7     		b	.L249
 2975              	.LVL333:
 2976              	.L259:
 480:lvgl/src/extra/libs/qrcode/qrcodegen.c **** 					setModule(qrcode, alignPatPos[i] + dx, alignPatPos[j] + dy, dx == 0 && dy == 0);
 2977              		.loc 1 480 14 view .LVU729
 2978              	.LBE64:
 2979              	.LBE62:
 2980 0110 4FF0FF35 		mov	r5, #-1
 2981 0114 F7E7     		b	.L248
 2982              	.L269:
 480:lvgl/src/extra/libs/qrcode/qrcodegen.c **** 					setModule(qrcode, alignPatPos[i] + dx, alignPatPos[j] + dy, dx == 0 && dy == 0);
 2983              		.loc 1 480 14 view .LVU730
 2984              	.LBE61:
 475:lvgl/src/extra/libs/qrcode/qrcodegen.c **** 		for (int j = 0; j < numAlign; j++) {
 2985              		.loc 1 475 33 is_stmt 1 discriminator 2 view .LVU731
 2986 0116 0137     		adds	r7, r7, #1
 2987              	.LVL334:
 2988              	.L243:
 475:lvgl/src/extra/libs/qrcode/qrcodegen.c **** 		for (int j = 0; j < numAlign; j++) {
 2989              		.loc 1 475 20 discriminator 1 view .LVU732
 2990 0118 5F45     		cmp	r7, fp
 2991 011a 01DA     		bge	.L271
 2992              	.LBB65:
 476:lvgl/src/extra/libs/qrcode/qrcodegen.c **** 			if ((i == 0 && j == 0) || (i == 0 && j == numAlign - 1) || (i == numAlign - 1 && j == 0))
ARM GAS  C:\usertemp\ccXENK9d.s 			page 83


 2993              		.loc 1 476 12 is_stmt 0 view .LVU733
 2994 011c 0026     		movs	r6, #0
 2995 011e CAE7     		b	.L251
 2996              	.L271:
 2997              	.LBE65:
 2998              	.LBE60:
 487:lvgl/src/extra/libs/qrcode/qrcodegen.c **** 		// Calculate error correction code and pack bits
 2999              		.loc 1 487 2 is_stmt 1 view .LVU734
 487:lvgl/src/extra/libs/qrcode/qrcodegen.c **** 		// Calculate error correction code and pack bits
 3000              		.loc 1 487 5 is_stmt 0 view .LVU735
 3001 0120 BAF1060F 		cmp	r10, #6
 3002 0124 13DC     		bgt	.L262
 3003              	.LVL335:
 3004              	.L235:
 505:lvgl/src/extra/libs/qrcode/qrcodegen.c **** 
 3005              		.loc 1 505 1 view .LVU736
 3006 0126 03B0     		add	sp, sp, #12
 3007              	.LCFI37:
 3008              		.cfi_remember_state
 3009              		.cfi_def_cfa_offset 36
 3010              		@ sp needed
 3011 0128 BDE8F08F 		pop	{r4, r5, r6, r7, r8, r9, r10, fp, pc}
 3012              	.LVL336:
 3013              	.L254:
 3014              	.LCFI38:
 3015              		.cfi_restore_state
 3016              	.LBB66:
 3017              	.LBB67:
 491:lvgl/src/extra/libs/qrcode/qrcodegen.c **** 		long bits = (long)version << 12 | rem;  // uint18
 3018              		.loc 1 491 4 is_stmt 1 view .LVU737
 491:lvgl/src/extra/libs/qrcode/qrcodegen.c **** 		long bits = (long)version << 12 | rem;  // uint18
 3019              		.loc 1 491 29 is_stmt 0 view .LVU738
 3020 012c E312     		asrs	r3, r4, #11
 491:lvgl/src/extra/libs/qrcode/qrcodegen.c **** 		long bits = (long)version << 12 | rem;  // uint18
 3021              		.loc 1 491 36 view .LVU739
 3022 012e 41F62571 		movw	r1, #7973
 3023 0132 01FB03F3 		mul	r3, r1, r3
 491:lvgl/src/extra/libs/qrcode/qrcodegen.c **** 		long bits = (long)version << 12 | rem;  // uint18
 3024              		.loc 1 491 8 view .LVU740
 3025 0136 83EA4404 		eor	r4, r3, r4, lsl #1
 3026              	.LVL337:
 490:lvgl/src/extra/libs/qrcode/qrcodegen.c **** 			rem = (rem << 1) ^ ((rem >> 11) * 0x1F25);
 3027              		.loc 1 490 28 is_stmt 1 discriminator 3 view .LVU741
 3028 013a 0132     		adds	r2, r2, #1
 3029              	.LVL338:
 3030              	.L252:
 490:lvgl/src/extra/libs/qrcode/qrcodegen.c **** 			rem = (rem << 1) ^ ((rem >> 11) * 0x1F25);
 3031              		.loc 1 490 21 discriminator 1 view .LVU742
 3032 013c 0B2A     		cmp	r2, #11
 3033 013e F5DD     		ble	.L254
 3034              	.LBE67:
 492:lvgl/src/extra/libs/qrcode/qrcodegen.c **** 		assert(bits >> 18 == 0);
 3035              		.loc 1 492 3 view .LVU743
 492:lvgl/src/extra/libs/qrcode/qrcodegen.c **** 		assert(bits >> 18 == 0);
 3036              		.loc 1 492 8 is_stmt 0 view .LVU744
 3037 0140 44EA0A34 		orr	r4, r4, r10, lsl #12
 3038              	.LVL339:
ARM GAS  C:\usertemp\ccXENK9d.s 			page 84


 493:lvgl/src/extra/libs/qrcode/qrcodegen.c **** 		
 3039              		.loc 1 493 3 is_stmt 1 view .LVU745
 3040 0144 5FEAA44A 		asrs	r10, r4, #18
 3041              	.LVL340:
 493:lvgl/src/extra/libs/qrcode/qrcodegen.c **** 		
 3042              		.loc 1 493 3 is_stmt 0 view .LVU746
 3043 0148 04D1     		bne	.L272
 3044              	.LBB68:
 496:lvgl/src/extra/libs/qrcode/qrcodegen.c **** 			for (int j = 0; j < 3; j++) {
 3045              		.loc 1 496 12 view .LVU747
 3046 014a 5746     		mov	r7, r10
 3047              	.LVL341:
 496:lvgl/src/extra/libs/qrcode/qrcodegen.c **** 			for (int j = 0; j < 3; j++) {
 3048              		.loc 1 496 12 view .LVU748
 3049 014c 1FE0     		b	.L255
 3050              	.LVL342:
 3051              	.L262:
 496:lvgl/src/extra/libs/qrcode/qrcodegen.c **** 			for (int j = 0; j < 3; j++) {
 3052              		.loc 1 496 12 view .LVU749
 3053              	.LBE68:
 489:lvgl/src/extra/libs/qrcode/qrcodegen.c **** 		for (int i = 0; i < 12; i++)
 3054              		.loc 1 489 7 view .LVU750
 3055 014e 5446     		mov	r4, r10
 3056              	.LBB72:
 490:lvgl/src/extra/libs/qrcode/qrcodegen.c **** 			rem = (rem << 1) ^ ((rem >> 11) * 0x1F25);
 3057              		.loc 1 490 12 view .LVU751
 3058 0150 0022     		movs	r2, #0
 3059 0152 F3E7     		b	.L252
 3060              	.LVL343:
 3061              	.L272:
 490:lvgl/src/extra/libs/qrcode/qrcodegen.c **** 			rem = (rem << 1) ^ ((rem >> 11) * 0x1F25);
 3062              		.loc 1 490 12 view .LVU752
 3063              	.LBE72:
 493:lvgl/src/extra/libs/qrcode/qrcodegen.c **** 		
 3064              		.loc 1 493 3 discriminator 1 view .LVU753
 3065 0154 104B     		ldr	r3, .L273
 3066 0156 114A     		ldr	r2, .L273+4
 3067              	.LVL344:
 493:lvgl/src/extra/libs/qrcode/qrcodegen.c **** 		
 3068              		.loc 1 493 3 discriminator 1 view .LVU754
 3069 0158 40F2ED11 		movw	r1, #493
 3070 015c 1048     		ldr	r0, .L273+8
 3071 015e FFF7FEFF 		bl	__assert_func
 3072              	.LVL345:
 3073              	.L256:
 3074              	.LBB73:
 3075              	.LBB69:
 3076              	.LBB70:
 498:lvgl/src/extra/libs/qrcode/qrcodegen.c **** 				setModule(qrcode, k, i, (bits & 1) != 0);
 3077              		.loc 1 498 5 is_stmt 1 view .LVU755
 498:lvgl/src/extra/libs/qrcode/qrcodegen.c **** 				setModule(qrcode, k, i, (bits & 1) != 0);
 3078              		.loc 1 498 20 is_stmt 0 view .LVU756
 3079 0162 A9F10B05 		sub	r5, r9, #11
 498:lvgl/src/extra/libs/qrcode/qrcodegen.c **** 				setModule(qrcode, k, i, (bits & 1) != 0);
 3080              		.loc 1 498 9 view .LVU757
 3081 0166 3544     		add	r5, r5, r6
 3082              	.LVL346:
ARM GAS  C:\usertemp\ccXENK9d.s 			page 85


 499:lvgl/src/extra/libs/qrcode/qrcodegen.c **** 				setModule(qrcode, i, k, (bits & 1) != 0);
 3083              		.loc 1 499 5 is_stmt 1 view .LVU758
 3084 0168 04F0010B 		and	fp, r4, #1
 3085 016c 5B46     		mov	r3, fp
 3086 016e 3A46     		mov	r2, r7
 3087 0170 2946     		mov	r1, r5
 3088 0172 4046     		mov	r0, r8
 3089 0174 FFF7FEFF 		bl	setModule
 3090              	.LVL347:
 500:lvgl/src/extra/libs/qrcode/qrcodegen.c **** 				bits >>= 1;
 3091              		.loc 1 500 5 view .LVU759
 3092 0178 5B46     		mov	r3, fp
 3093 017a 2A46     		mov	r2, r5
 3094 017c 3946     		mov	r1, r7
 3095 017e 4046     		mov	r0, r8
 3096 0180 FFF7FEFF 		bl	setModule
 3097              	.LVL348:
 501:lvgl/src/extra/libs/qrcode/qrcodegen.c **** 			}
 3098              		.loc 1 501 5 view .LVU760
 501:lvgl/src/extra/libs/qrcode/qrcodegen.c **** 			}
 3099              		.loc 1 501 10 is_stmt 0 view .LVU761
 3100 0184 6410     		asrs	r4, r4, #1
 3101              	.LVL349:
 501:lvgl/src/extra/libs/qrcode/qrcodegen.c **** 			}
 3102              		.loc 1 501 10 view .LVU762
 3103              	.LBE70:
 497:lvgl/src/extra/libs/qrcode/qrcodegen.c **** 				int k = qrsize - 11 + j;
 3104              		.loc 1 497 28 is_stmt 1 discriminator 3 view .LVU763
 3105 0186 0136     		adds	r6, r6, #1
 3106              	.LVL350:
 3107              	.L257:
 497:lvgl/src/extra/libs/qrcode/qrcodegen.c **** 				int k = qrsize - 11 + j;
 3108              		.loc 1 497 22 discriminator 1 view .LVU764
 3109 0188 022E     		cmp	r6, #2
 3110 018a EADD     		ble	.L256
 497:lvgl/src/extra/libs/qrcode/qrcodegen.c **** 				int k = qrsize - 11 + j;
 3111              		.loc 1 497 22 is_stmt 0 discriminator 1 view .LVU765
 3112              	.LBE69:
 496:lvgl/src/extra/libs/qrcode/qrcodegen.c **** 			for (int j = 0; j < 3; j++) {
 3113              		.loc 1 496 27 is_stmt 1 discriminator 2 view .LVU766
 3114 018c 0137     		adds	r7, r7, #1
 3115              	.LVL351:
 3116              	.L255:
 496:lvgl/src/extra/libs/qrcode/qrcodegen.c **** 			for (int j = 0; j < 3; j++) {
 3117              		.loc 1 496 21 discriminator 1 view .LVU767
 3118 018e 052F     		cmp	r7, #5
 3119 0190 C9DC     		bgt	.L235
 3120              	.LBB71:
 497:lvgl/src/extra/libs/qrcode/qrcodegen.c **** 				int k = qrsize - 11 + j;
 3121              		.loc 1 497 13 is_stmt 0 view .LVU768
 3122 0192 5646     		mov	r6, r10
 3123 0194 F8E7     		b	.L257
 3124              	.L274:
 3125 0196 00BF     		.align	2
 3126              	.L273:
 3127 0198 00000000 		.word	.LC18
 3128 019c 00000000 		.word	__func__.12
ARM GAS  C:\usertemp\ccXENK9d.s 			page 86


 3129 01a0 08000000 		.word	.LC1
 3130              	.LBE71:
 3131              	.LBE73:
 3132              	.LBE66:
 3133              		.cfi_endproc
 3134              	.LFE12:
 3136              		.section	.text.getPenaltyScore,"ax",%progbits
 3137              		.align	1
 3138              		.syntax unified
 3139              		.thumb
 3140              		.thumb_func
 3142              	getPenaltyScore:
 3143              	.LVL352:
 3144              	.LFB18:
 631:lvgl/src/extra/libs/qrcode/qrcodegen.c **** 	int qrsize = qrcodegen_getSize(qrcode);
 3145              		.loc 1 631 53 is_stmt 1 view -0
 3146              		.cfi_startproc
 3147              		@ args = 0, pretend = 0, frame = 16
 3148              		@ frame_needed = 0, uses_anonymous_args = 0
 631:lvgl/src/extra/libs/qrcode/qrcodegen.c **** 	int qrsize = qrcodegen_getSize(qrcode);
 3149              		.loc 1 631 53 is_stmt 0 view .LVU770
 3150 0000 2DE9F04F 		push	{r4, r5, r6, r7, r8, r9, r10, fp, lr}
 3151              	.LCFI39:
 3152              		.cfi_def_cfa_offset 36
 3153              		.cfi_offset 4, -36
 3154              		.cfi_offset 5, -32
 3155              		.cfi_offset 6, -28
 3156              		.cfi_offset 7, -24
 3157              		.cfi_offset 8, -20
 3158              		.cfi_offset 9, -16
 3159              		.cfi_offset 10, -12
 3160              		.cfi_offset 11, -8
 3161              		.cfi_offset 14, -4
 3162 0004 85B0     		sub	sp, sp, #20
 3163              	.LCFI40:
 3164              		.cfi_def_cfa_offset 56
 3165 0006 0446     		mov	r4, r0
 632:lvgl/src/extra/libs/qrcode/qrcodegen.c **** 	long result = 0;
 3166              		.loc 1 632 2 is_stmt 1 view .LVU771
 632:lvgl/src/extra/libs/qrcode/qrcodegen.c **** 	long result = 0;
 3167              		.loc 1 632 15 is_stmt 0 view .LVU772
 3168 0008 FFF7FEFF 		bl	qrcodegen_getSize
 3169              	.LVL353:
 632:lvgl/src/extra/libs/qrcode/qrcodegen.c **** 	long result = 0;
 3170              		.loc 1 632 15 view .LVU773
 3171 000c 0746     		mov	r7, r0
 3172              	.LVL354:
 633:lvgl/src/extra/libs/qrcode/qrcodegen.c **** 	
 3173              		.loc 1 633 2 is_stmt 1 view .LVU774
 636:lvgl/src/extra/libs/qrcode/qrcodegen.c **** 		unsigned char runHistory[7] = {0};
 3174              		.loc 1 636 2 view .LVU775
 3175              	.LBB74:
 636:lvgl/src/extra/libs/qrcode/qrcodegen.c **** 		unsigned char runHistory[7] = {0};
 3176              		.loc 1 636 7 view .LVU776
 636:lvgl/src/extra/libs/qrcode/qrcodegen.c **** 		unsigned char runHistory[7] = {0};
 3177              		.loc 1 636 11 is_stmt 0 view .LVU777
 3178 000e 4FF00009 		mov	r9, #0
ARM GAS  C:\usertemp\ccXENK9d.s 			page 87


 3179              	.LBE74:
 633:lvgl/src/extra/libs/qrcode/qrcodegen.c **** 	
 3180              		.loc 1 633 7 view .LVU778
 3181 0012 CA46     		mov	r10, r9
 3182              	.LBB80:
 636:lvgl/src/extra/libs/qrcode/qrcodegen.c **** 		unsigned char runHistory[7] = {0};
 3183              		.loc 1 636 2 view .LVU779
 3184 0014 38E0     		b	.L276
 3185              	.LVL355:
 3186              	.L308:
 3187              	.LBB75:
 3188              	.LBB76:
 644:lvgl/src/extra/libs/qrcode/qrcodegen.c **** 				else if (runX > 5)
 3189              		.loc 1 644 6 is_stmt 1 view .LVU780
 644:lvgl/src/extra/libs/qrcode/qrcodegen.c **** 				else if (runX > 5)
 3190              		.loc 1 644 13 is_stmt 0 view .LVU781
 3191 0016 0AF1030A 		add	r10, r10, #3
 3192              	.LVL356:
 644:lvgl/src/extra/libs/qrcode/qrcodegen.c **** 				else if (runX > 5)
 3193              		.loc 1 644 13 view .LVU782
 3194 001a 13E0     		b	.L280
 3195              	.L278:
 648:lvgl/src/extra/libs/qrcode/qrcodegen.c **** 				if (!color && hasFinderLikePattern(runHistory))
 3196              		.loc 1 648 5 is_stmt 1 view .LVU783
 3197 001c 02A9     		add	r1, sp, #8
 3198 001e 3046     		mov	r0, r6
 3199 0020 FFF7FEFF 		bl	addRunToHistory
 3200              	.LVL357:
 649:lvgl/src/extra/libs/qrcode/qrcodegen.c **** 					result += PENALTY_N3;
 3201              		.loc 1 649 5 view .LVU784
 649:lvgl/src/extra/libs/qrcode/qrcodegen.c **** 					result += PENALTY_N3;
 3202              		.loc 1 649 8 is_stmt 0 view .LVU785
 3203 0024 B8F1000F 		cmp	r8, #0
 3204 0028 05D1     		bne	.L281
 649:lvgl/src/extra/libs/qrcode/qrcodegen.c **** 					result += PENALTY_N3;
 3205              		.loc 1 649 19 discriminator 1 view .LVU786
 3206 002a 02A8     		add	r0, sp, #8
 3207 002c FFF7FEFF 		bl	hasFinderLikePattern
 3208              	.LVL358:
 649:lvgl/src/extra/libs/qrcode/qrcodegen.c **** 					result += PENALTY_N3;
 3209              		.loc 1 649 16 discriminator 1 view .LVU787
 3210 0030 08B1     		cbz	r0, .L281
 650:lvgl/src/extra/libs/qrcode/qrcodegen.c **** 				color = getModule(qrcode, x, y);
 3211              		.loc 1 650 6 is_stmt 1 view .LVU788
 650:lvgl/src/extra/libs/qrcode/qrcodegen.c **** 				color = getModule(qrcode, x, y);
 3212              		.loc 1 650 13 is_stmt 0 view .LVU789
 3213 0032 0AF1280A 		add	r10, r10, #40
 3214              	.LVL359:
 3215              	.L281:
 651:lvgl/src/extra/libs/qrcode/qrcodegen.c **** 				runX = 1;
 3216              		.loc 1 651 5 is_stmt 1 view .LVU790
 651:lvgl/src/extra/libs/qrcode/qrcodegen.c **** 				runX = 1;
 3217              		.loc 1 651 13 is_stmt 0 view .LVU791
 3218 0036 4A46     		mov	r2, r9
 3219 0038 2946     		mov	r1, r5
 3220 003a 2046     		mov	r0, r4
 3221 003c FFF7FEFF 		bl	getModule
ARM GAS  C:\usertemp\ccXENK9d.s 			page 88


 3222              	.LVL360:
 3223 0040 8046     		mov	r8, r0
 3224              	.LVL361:
 652:lvgl/src/extra/libs/qrcode/qrcodegen.c **** 			}
 3225              		.loc 1 652 5 is_stmt 1 view .LVU792
 652:lvgl/src/extra/libs/qrcode/qrcodegen.c **** 			}
 3226              		.loc 1 652 10 is_stmt 0 view .LVU793
 3227 0042 0126     		movs	r6, #1
 3228              	.LVL362:
 3229              	.L280:
 640:lvgl/src/extra/libs/qrcode/qrcodegen.c **** 			if (getModule(qrcode, x, y) == color) {
 3230              		.loc 1 640 32 is_stmt 1 discriminator 2 view .LVU794
 3231 0044 0135     		adds	r5, r5, #1
 3232              	.LVL363:
 3233              	.L277:
 640:lvgl/src/extra/libs/qrcode/qrcodegen.c **** 			if (getModule(qrcode, x, y) == color) {
 3234              		.loc 1 640 21 discriminator 1 view .LVU795
 3235 0046 BD42     		cmp	r5, r7
 3236 0048 0FDA     		bge	.L307
 641:lvgl/src/extra/libs/qrcode/qrcodegen.c **** 				runX++;
 3237              		.loc 1 641 4 view .LVU796
 641:lvgl/src/extra/libs/qrcode/qrcodegen.c **** 				runX++;
 3238              		.loc 1 641 8 is_stmt 0 view .LVU797
 3239 004a 4A46     		mov	r2, r9
 3240 004c 2946     		mov	r1, r5
 3241 004e 2046     		mov	r0, r4
 3242 0050 FFF7FEFF 		bl	getModule
 3243              	.LVL364:
 641:lvgl/src/extra/libs/qrcode/qrcodegen.c **** 				runX++;
 3244              		.loc 1 641 7 discriminator 1 view .LVU798
 3245 0054 4045     		cmp	r0, r8
 3246 0056 E1D1     		bne	.L278
 642:lvgl/src/extra/libs/qrcode/qrcodegen.c **** 				if (runX == 5)
 3247              		.loc 1 642 5 is_stmt 1 view .LVU799
 642:lvgl/src/extra/libs/qrcode/qrcodegen.c **** 				if (runX == 5)
 3248              		.loc 1 642 9 is_stmt 0 view .LVU800
 3249 0058 0136     		adds	r6, r6, #1
 3250              	.LVL365:
 642:lvgl/src/extra/libs/qrcode/qrcodegen.c **** 				if (runX == 5)
 3251              		.loc 1 642 9 view .LVU801
 3252 005a F6B2     		uxtb	r6, r6
 3253              	.LVL366:
 643:lvgl/src/extra/libs/qrcode/qrcodegen.c **** 					result += PENALTY_N1;
 3254              		.loc 1 643 5 is_stmt 1 view .LVU802
 643:lvgl/src/extra/libs/qrcode/qrcodegen.c **** 					result += PENALTY_N1;
 3255              		.loc 1 643 8 is_stmt 0 view .LVU803
 3256 005c 052E     		cmp	r6, #5
 3257 005e DAD0     		beq	.L308
 645:lvgl/src/extra/libs/qrcode/qrcodegen.c **** 					result++;
 3258              		.loc 1 645 10 is_stmt 1 view .LVU804
 645:lvgl/src/extra/libs/qrcode/qrcodegen.c **** 					result++;
 3259              		.loc 1 645 13 is_stmt 0 view .LVU805
 3260 0060 052E     		cmp	r6, #5
 3261 0062 EFD9     		bls	.L280
 646:lvgl/src/extra/libs/qrcode/qrcodegen.c **** 			} else {
 3262              		.loc 1 646 6 is_stmt 1 view .LVU806
 646:lvgl/src/extra/libs/qrcode/qrcodegen.c **** 			} else {
ARM GAS  C:\usertemp\ccXENK9d.s 			page 89


 3263              		.loc 1 646 12 is_stmt 0 view .LVU807
 3264 0064 0AF1010A 		add	r10, r10, #1
 3265              	.LVL367:
 646:lvgl/src/extra/libs/qrcode/qrcodegen.c **** 			} else {
 3266              		.loc 1 646 12 view .LVU808
 3267 0068 ECE7     		b	.L280
 3268              	.L307:
 646:lvgl/src/extra/libs/qrcode/qrcodegen.c **** 			} else {
 3269              		.loc 1 646 12 view .LVU809
 3270              	.LBE76:
 655:lvgl/src/extra/libs/qrcode/qrcodegen.c **** 		if (color)
 3271              		.loc 1 655 3 is_stmt 1 view .LVU810
 3272 006a 02A9     		add	r1, sp, #8
 3273 006c 3046     		mov	r0, r6
 3274 006e FFF7FEFF 		bl	addRunToHistory
 3275              	.LVL368:
 656:lvgl/src/extra/libs/qrcode/qrcodegen.c **** 			addRunToHistory(0, runHistory);  // Dummy run of white
 3276              		.loc 1 656 3 view .LVU811
 656:lvgl/src/extra/libs/qrcode/qrcodegen.c **** 			addRunToHistory(0, runHistory);  // Dummy run of white
 3277              		.loc 1 656 6 is_stmt 0 view .LVU812
 3278 0072 B8F1000F 		cmp	r8, #0
 3279 0076 11D1     		bne	.L309
 3280              	.L283:
 658:lvgl/src/extra/libs/qrcode/qrcodegen.c **** 			result += PENALTY_N3;
 3281              		.loc 1 658 3 is_stmt 1 view .LVU813
 658:lvgl/src/extra/libs/qrcode/qrcodegen.c **** 			result += PENALTY_N3;
 3282              		.loc 1 658 7 is_stmt 0 view .LVU814
 3283 0078 02A8     		add	r0, sp, #8
 3284 007a FFF7FEFF 		bl	hasFinderLikePattern
 3285              	.LVL369:
 658:lvgl/src/extra/libs/qrcode/qrcodegen.c **** 			result += PENALTY_N3;
 3286              		.loc 1 658 6 discriminator 1 view .LVU815
 3287 007e 08B1     		cbz	r0, .L284
 659:lvgl/src/extra/libs/qrcode/qrcodegen.c **** 	}
 3288              		.loc 1 659 4 is_stmt 1 view .LVU816
 659:lvgl/src/extra/libs/qrcode/qrcodegen.c **** 	}
 3289              		.loc 1 659 11 is_stmt 0 view .LVU817
 3290 0080 0AF1280A 		add	r10, r10, #40
 3291              	.LVL370:
 3292              	.L284:
 659:lvgl/src/extra/libs/qrcode/qrcodegen.c **** 	}
 3293              		.loc 1 659 11 view .LVU818
 3294              	.LBE75:
 636:lvgl/src/extra/libs/qrcode/qrcodegen.c **** 		unsigned char runHistory[7] = {0};
 3295              		.loc 1 636 31 is_stmt 1 discriminator 2 view .LVU819
 3296 0084 09F10109 		add	r9, r9, #1
 3297              	.LVL371:
 3298              	.L276:
 636:lvgl/src/extra/libs/qrcode/qrcodegen.c **** 		unsigned char runHistory[7] = {0};
 3299              		.loc 1 636 20 discriminator 1 view .LVU820
 3300 0088 B945     		cmp	r9, r7
 3301 008a 0CDA     		bge	.L310
 3302              	.LBB79:
 637:lvgl/src/extra/libs/qrcode/qrcodegen.c **** 		bool color = false;
 3303              		.loc 1 637 3 view .LVU821
 637:lvgl/src/extra/libs/qrcode/qrcodegen.c **** 		bool color = false;
 3304              		.loc 1 637 17 is_stmt 0 view .LVU822
ARM GAS  C:\usertemp\ccXENK9d.s 			page 90


 3305 008c 0023     		movs	r3, #0
 3306 008e 0293     		str	r3, [sp, #8]
 3307 0090 CDF80B30 		str	r3, [sp, #11]	@ unaligned
 638:lvgl/src/extra/libs/qrcode/qrcodegen.c **** 		unsigned char runX = 0;
 3308              		.loc 1 638 3 is_stmt 1 view .LVU823
 3309              	.LVL372:
 639:lvgl/src/extra/libs/qrcode/qrcodegen.c **** 		for (int x = 0; x < qrsize; x++) {
 3310              		.loc 1 639 3 view .LVU824
 640:lvgl/src/extra/libs/qrcode/qrcodegen.c **** 			if (getModule(qrcode, x, y) == color) {
 3311              		.loc 1 640 3 view .LVU825
 3312              	.LBB77:
 640:lvgl/src/extra/libs/qrcode/qrcodegen.c **** 			if (getModule(qrcode, x, y) == color) {
 3313              		.loc 1 640 8 view .LVU826
 640:lvgl/src/extra/libs/qrcode/qrcodegen.c **** 			if (getModule(qrcode, x, y) == color) {
 3314              		.loc 1 640 12 is_stmt 0 view .LVU827
 3315 0094 1D46     		mov	r5, r3
 3316              	.LBE77:
 639:lvgl/src/extra/libs/qrcode/qrcodegen.c **** 		for (int x = 0; x < qrsize; x++) {
 3317              		.loc 1 639 17 view .LVU828
 3318 0096 1E46     		mov	r6, r3
 638:lvgl/src/extra/libs/qrcode/qrcodegen.c **** 		unsigned char runX = 0;
 3319              		.loc 1 638 8 view .LVU829
 3320 0098 9846     		mov	r8, r3
 3321              	.LBB78:
 640:lvgl/src/extra/libs/qrcode/qrcodegen.c **** 			if (getModule(qrcode, x, y) == color) {
 3322              		.loc 1 640 3 view .LVU830
 3323 009a D4E7     		b	.L277
 3324              	.LVL373:
 3325              	.L309:
 640:lvgl/src/extra/libs/qrcode/qrcodegen.c **** 			if (getModule(qrcode, x, y) == color) {
 3326              		.loc 1 640 3 view .LVU831
 3327              	.LBE78:
 657:lvgl/src/extra/libs/qrcode/qrcodegen.c **** 		if (hasFinderLikePattern(runHistory))
 3328              		.loc 1 657 4 is_stmt 1 view .LVU832
 3329 009c 02A9     		add	r1, sp, #8
 3330 009e 0020     		movs	r0, #0
 3331 00a0 FFF7FEFF 		bl	addRunToHistory
 3332              	.LVL374:
 3333 00a4 E8E7     		b	.L283
 3334              	.LVL375:
 3335              	.L310:
 657:lvgl/src/extra/libs/qrcode/qrcodegen.c **** 		if (hasFinderLikePattern(runHistory))
 3336              		.loc 1 657 4 is_stmt 0 view .LVU833
 3337              	.LBE79:
 3338              	.LBE80:
 3339              	.LBB81:
 662:lvgl/src/extra/libs/qrcode/qrcodegen.c **** 		unsigned char runHistory[7] = {0};
 3340              		.loc 1 662 11 view .LVU834
 3341 00a6 4FF00009 		mov	r9, #0
 3342              	.LVL376:
 662:lvgl/src/extra/libs/qrcode/qrcodegen.c **** 		unsigned char runHistory[7] = {0};
 3343              		.loc 1 662 11 view .LVU835
 3344 00aa 38E0     		b	.L286
 3345              	.LVL377:
 3346              	.L312:
 3347              	.LBB82:
 3348              	.LBB83:
ARM GAS  C:\usertemp\ccXENK9d.s 			page 91


 670:lvgl/src/extra/libs/qrcode/qrcodegen.c **** 				else if (runY > 5)
 3349              		.loc 1 670 6 is_stmt 1 view .LVU836
 670:lvgl/src/extra/libs/qrcode/qrcodegen.c **** 				else if (runY > 5)
 3350              		.loc 1 670 13 is_stmt 0 view .LVU837
 3351 00ac 0AF1030A 		add	r10, r10, #3
 3352              	.LVL378:
 670:lvgl/src/extra/libs/qrcode/qrcodegen.c **** 				else if (runY > 5)
 3353              		.loc 1 670 13 view .LVU838
 3354 00b0 13E0     		b	.L290
 3355              	.L288:
 674:lvgl/src/extra/libs/qrcode/qrcodegen.c **** 				if (!color && hasFinderLikePattern(runHistory))
 3356              		.loc 1 674 5 is_stmt 1 view .LVU839
 3357 00b2 02A9     		add	r1, sp, #8
 3358 00b4 3046     		mov	r0, r6
 3359 00b6 FFF7FEFF 		bl	addRunToHistory
 3360              	.LVL379:
 675:lvgl/src/extra/libs/qrcode/qrcodegen.c **** 					result += PENALTY_N3;
 3361              		.loc 1 675 5 view .LVU840
 675:lvgl/src/extra/libs/qrcode/qrcodegen.c **** 					result += PENALTY_N3;
 3362              		.loc 1 675 8 is_stmt 0 view .LVU841
 3363 00ba B8F1000F 		cmp	r8, #0
 3364 00be 05D1     		bne	.L291
 675:lvgl/src/extra/libs/qrcode/qrcodegen.c **** 					result += PENALTY_N3;
 3365              		.loc 1 675 19 discriminator 1 view .LVU842
 3366 00c0 02A8     		add	r0, sp, #8
 3367 00c2 FFF7FEFF 		bl	hasFinderLikePattern
 3368              	.LVL380:
 675:lvgl/src/extra/libs/qrcode/qrcodegen.c **** 					result += PENALTY_N3;
 3369              		.loc 1 675 16 discriminator 1 view .LVU843
 3370 00c6 08B1     		cbz	r0, .L291
 676:lvgl/src/extra/libs/qrcode/qrcodegen.c **** 				color = getModule(qrcode, x, y);
 3371              		.loc 1 676 6 is_stmt 1 view .LVU844
 676:lvgl/src/extra/libs/qrcode/qrcodegen.c **** 				color = getModule(qrcode, x, y);
 3372              		.loc 1 676 13 is_stmt 0 view .LVU845
 3373 00c8 0AF1280A 		add	r10, r10, #40
 3374              	.LVL381:
 3375              	.L291:
 677:lvgl/src/extra/libs/qrcode/qrcodegen.c **** 				runY = 1;
 3376              		.loc 1 677 5 is_stmt 1 view .LVU846
 677:lvgl/src/extra/libs/qrcode/qrcodegen.c **** 				runY = 1;
 3377              		.loc 1 677 13 is_stmt 0 view .LVU847
 3378 00cc 2A46     		mov	r2, r5
 3379 00ce 4946     		mov	r1, r9
 3380 00d0 2046     		mov	r0, r4
 3381 00d2 FFF7FEFF 		bl	getModule
 3382              	.LVL382:
 3383 00d6 8046     		mov	r8, r0
 3384              	.LVL383:
 678:lvgl/src/extra/libs/qrcode/qrcodegen.c **** 			}
 3385              		.loc 1 678 5 is_stmt 1 view .LVU848
 678:lvgl/src/extra/libs/qrcode/qrcodegen.c **** 			}
 3386              		.loc 1 678 10 is_stmt 0 view .LVU849
 3387 00d8 0126     		movs	r6, #1
 3388              	.LVL384:
 3389              	.L290:
 666:lvgl/src/extra/libs/qrcode/qrcodegen.c **** 			if (getModule(qrcode, x, y) == color) {
 3390              		.loc 1 666 32 is_stmt 1 discriminator 2 view .LVU850
ARM GAS  C:\usertemp\ccXENK9d.s 			page 92


 3391 00da 0135     		adds	r5, r5, #1
 3392              	.LVL385:
 3393              	.L287:
 666:lvgl/src/extra/libs/qrcode/qrcodegen.c **** 			if (getModule(qrcode, x, y) == color) {
 3394              		.loc 1 666 21 discriminator 1 view .LVU851
 3395 00dc BD42     		cmp	r5, r7
 3396 00de 0FDA     		bge	.L311
 667:lvgl/src/extra/libs/qrcode/qrcodegen.c **** 				runY++;
 3397              		.loc 1 667 4 view .LVU852
 667:lvgl/src/extra/libs/qrcode/qrcodegen.c **** 				runY++;
 3398              		.loc 1 667 8 is_stmt 0 view .LVU853
 3399 00e0 2A46     		mov	r2, r5
 3400 00e2 4946     		mov	r1, r9
 3401 00e4 2046     		mov	r0, r4
 3402 00e6 FFF7FEFF 		bl	getModule
 3403              	.LVL386:
 667:lvgl/src/extra/libs/qrcode/qrcodegen.c **** 				runY++;
 3404              		.loc 1 667 7 discriminator 1 view .LVU854
 3405 00ea 4045     		cmp	r0, r8
 3406 00ec E1D1     		bne	.L288
 668:lvgl/src/extra/libs/qrcode/qrcodegen.c **** 				if (runY == 5)
 3407              		.loc 1 668 5 is_stmt 1 view .LVU855
 668:lvgl/src/extra/libs/qrcode/qrcodegen.c **** 				if (runY == 5)
 3408              		.loc 1 668 9 is_stmt 0 view .LVU856
 3409 00ee 0136     		adds	r6, r6, #1
 3410              	.LVL387:
 668:lvgl/src/extra/libs/qrcode/qrcodegen.c **** 				if (runY == 5)
 3411              		.loc 1 668 9 view .LVU857
 3412 00f0 F6B2     		uxtb	r6, r6
 3413              	.LVL388:
 669:lvgl/src/extra/libs/qrcode/qrcodegen.c **** 					result += PENALTY_N1;
 3414              		.loc 1 669 5 is_stmt 1 view .LVU858
 669:lvgl/src/extra/libs/qrcode/qrcodegen.c **** 					result += PENALTY_N1;
 3415              		.loc 1 669 8 is_stmt 0 view .LVU859
 3416 00f2 052E     		cmp	r6, #5
 3417 00f4 DAD0     		beq	.L312
 671:lvgl/src/extra/libs/qrcode/qrcodegen.c **** 					result++;
 3418              		.loc 1 671 10 is_stmt 1 view .LVU860
 671:lvgl/src/extra/libs/qrcode/qrcodegen.c **** 					result++;
 3419              		.loc 1 671 13 is_stmt 0 view .LVU861
 3420 00f6 052E     		cmp	r6, #5
 3421 00f8 EFD9     		bls	.L290
 672:lvgl/src/extra/libs/qrcode/qrcodegen.c **** 			} else {
 3422              		.loc 1 672 6 is_stmt 1 view .LVU862
 672:lvgl/src/extra/libs/qrcode/qrcodegen.c **** 			} else {
 3423              		.loc 1 672 12 is_stmt 0 view .LVU863
 3424 00fa 0AF1010A 		add	r10, r10, #1
 3425              	.LVL389:
 672:lvgl/src/extra/libs/qrcode/qrcodegen.c **** 			} else {
 3426              		.loc 1 672 12 view .LVU864
 3427 00fe ECE7     		b	.L290
 3428              	.L311:
 672:lvgl/src/extra/libs/qrcode/qrcodegen.c **** 			} else {
 3429              		.loc 1 672 12 view .LVU865
 3430              	.LBE83:
 681:lvgl/src/extra/libs/qrcode/qrcodegen.c **** 		if (color)
 3431              		.loc 1 681 3 is_stmt 1 view .LVU866
ARM GAS  C:\usertemp\ccXENK9d.s 			page 93


 3432 0100 02A9     		add	r1, sp, #8
 3433 0102 3046     		mov	r0, r6
 3434 0104 FFF7FEFF 		bl	addRunToHistory
 3435              	.LVL390:
 682:lvgl/src/extra/libs/qrcode/qrcodegen.c **** 			addRunToHistory(0, runHistory);  // Dummy run of white
 3436              		.loc 1 682 3 view .LVU867
 682:lvgl/src/extra/libs/qrcode/qrcodegen.c **** 			addRunToHistory(0, runHistory);  // Dummy run of white
 3437              		.loc 1 682 6 is_stmt 0 view .LVU868
 3438 0108 B8F1000F 		cmp	r8, #0
 3439 010c 11D1     		bne	.L313
 3440              	.L293:
 684:lvgl/src/extra/libs/qrcode/qrcodegen.c **** 			result += PENALTY_N3;
 3441              		.loc 1 684 3 is_stmt 1 view .LVU869
 684:lvgl/src/extra/libs/qrcode/qrcodegen.c **** 			result += PENALTY_N3;
 3442              		.loc 1 684 7 is_stmt 0 view .LVU870
 3443 010e 02A8     		add	r0, sp, #8
 3444 0110 FFF7FEFF 		bl	hasFinderLikePattern
 3445              	.LVL391:
 684:lvgl/src/extra/libs/qrcode/qrcodegen.c **** 			result += PENALTY_N3;
 3446              		.loc 1 684 6 discriminator 1 view .LVU871
 3447 0114 08B1     		cbz	r0, .L294
 685:lvgl/src/extra/libs/qrcode/qrcodegen.c **** 	}
 3448              		.loc 1 685 4 is_stmt 1 view .LVU872
 685:lvgl/src/extra/libs/qrcode/qrcodegen.c **** 	}
 3449              		.loc 1 685 11 is_stmt 0 view .LVU873
 3450 0116 0AF1280A 		add	r10, r10, #40
 3451              	.LVL392:
 3452              	.L294:
 685:lvgl/src/extra/libs/qrcode/qrcodegen.c **** 	}
 3453              		.loc 1 685 11 view .LVU874
 3454              	.LBE82:
 662:lvgl/src/extra/libs/qrcode/qrcodegen.c **** 		unsigned char runHistory[7] = {0};
 3455              		.loc 1 662 31 is_stmt 1 discriminator 2 view .LVU875
 3456 011a 09F10109 		add	r9, r9, #1
 3457              	.LVL393:
 3458              	.L286:
 662:lvgl/src/extra/libs/qrcode/qrcodegen.c **** 		unsigned char runHistory[7] = {0};
 3459              		.loc 1 662 20 discriminator 1 view .LVU876
 3460 011e B945     		cmp	r9, r7
 3461 0120 0CDA     		bge	.L314
 3462              	.LBB86:
 663:lvgl/src/extra/libs/qrcode/qrcodegen.c **** 		bool color = false;
 3463              		.loc 1 663 3 view .LVU877
 663:lvgl/src/extra/libs/qrcode/qrcodegen.c **** 		bool color = false;
 3464              		.loc 1 663 17 is_stmt 0 view .LVU878
 3465 0122 0023     		movs	r3, #0
 3466 0124 0293     		str	r3, [sp, #8]
 3467 0126 CDF80B30 		str	r3, [sp, #11]	@ unaligned
 664:lvgl/src/extra/libs/qrcode/qrcodegen.c **** 		unsigned char runY = 0;
 3468              		.loc 1 664 3 is_stmt 1 view .LVU879
 3469              	.LVL394:
 665:lvgl/src/extra/libs/qrcode/qrcodegen.c **** 		for (int y = 0; y < qrsize; y++) {
 3470              		.loc 1 665 3 view .LVU880
 666:lvgl/src/extra/libs/qrcode/qrcodegen.c **** 			if (getModule(qrcode, x, y) == color) {
 3471              		.loc 1 666 3 view .LVU881
 3472              	.LBB84:
 666:lvgl/src/extra/libs/qrcode/qrcodegen.c **** 			if (getModule(qrcode, x, y) == color) {
ARM GAS  C:\usertemp\ccXENK9d.s 			page 94


 3473              		.loc 1 666 8 view .LVU882
 666:lvgl/src/extra/libs/qrcode/qrcodegen.c **** 			if (getModule(qrcode, x, y) == color) {
 3474              		.loc 1 666 12 is_stmt 0 view .LVU883
 3475 012a 1D46     		mov	r5, r3
 3476              	.LBE84:
 665:lvgl/src/extra/libs/qrcode/qrcodegen.c **** 		for (int y = 0; y < qrsize; y++) {
 3477              		.loc 1 665 17 view .LVU884
 3478 012c 1E46     		mov	r6, r3
 664:lvgl/src/extra/libs/qrcode/qrcodegen.c **** 		unsigned char runY = 0;
 3479              		.loc 1 664 8 view .LVU885
 3480 012e 9846     		mov	r8, r3
 3481              	.LBB85:
 666:lvgl/src/extra/libs/qrcode/qrcodegen.c **** 			if (getModule(qrcode, x, y) == color) {
 3482              		.loc 1 666 3 view .LVU886
 3483 0130 D4E7     		b	.L287
 3484              	.LVL395:
 3485              	.L313:
 666:lvgl/src/extra/libs/qrcode/qrcodegen.c **** 			if (getModule(qrcode, x, y) == color) {
 3486              		.loc 1 666 3 view .LVU887
 3487              	.LBE85:
 683:lvgl/src/extra/libs/qrcode/qrcodegen.c **** 		if (hasFinderLikePattern(runHistory))
 3488              		.loc 1 683 4 is_stmt 1 view .LVU888
 3489 0132 02A9     		add	r1, sp, #8
 3490 0134 0020     		movs	r0, #0
 3491 0136 FFF7FEFF 		bl	addRunToHistory
 3492              	.LVL396:
 3493 013a E8E7     		b	.L293
 3494              	.LVL397:
 3495              	.L314:
 683:lvgl/src/extra/libs/qrcode/qrcodegen.c **** 		if (hasFinderLikePattern(runHistory))
 3496              		.loc 1 683 4 is_stmt 0 view .LVU889
 3497              	.LBE86:
 3498              	.LBE81:
 3499              	.LBB87:
 689:lvgl/src/extra/libs/qrcode/qrcodegen.c **** 		for (int x = 0; x < qrsize - 1; x++) {
 3500              		.loc 1 689 11 view .LVU890
 3501 013c 4FF00009 		mov	r9, #0
 3502              	.LVL398:
 689:lvgl/src/extra/libs/qrcode/qrcodegen.c **** 		for (int x = 0; x < qrsize - 1; x++) {
 3503              		.loc 1 689 11 view .LVU891
 3504 0140 27E0     		b	.L296
 3505              	.LVL399:
 3506              	.L297:
 689:lvgl/src/extra/libs/qrcode/qrcodegen.c **** 		for (int x = 0; x < qrsize - 1; x++) {
 3507              		.loc 1 689 11 view .LVU892
 3508              	.LBE87:
 3509              	.LBB91:
 662:lvgl/src/extra/libs/qrcode/qrcodegen.c **** 		unsigned char runHistory[7] = {0};
 3510              		.loc 1 662 11 view .LVU893
 3511 0142 4546     		mov	r5, r8
 3512              	.LVL400:
 3513              	.L299:
 662:lvgl/src/extra/libs/qrcode/qrcodegen.c **** 		unsigned char runHistory[7] = {0};
 3514              		.loc 1 662 11 view .LVU894
 3515              	.LBE91:
 3516              	.LBB92:
 3517              	.LBB88:
ARM GAS  C:\usertemp\ccXENK9d.s 			page 95


 690:lvgl/src/extra/libs/qrcode/qrcodegen.c **** 			bool  color = getModule(qrcode, x, y);
 3518              		.loc 1 690 21 is_stmt 1 discriminator 1 view .LVU895
 3519 0144 AB45     		cmp	fp, r5
 3520 0146 22DD     		ble	.L315
 3521              	.LBB89:
 691:lvgl/src/extra/libs/qrcode/qrcodegen.c **** 			if (  color == getModule(qrcode, x + 1, y) &&
 3522              		.loc 1 691 4 view .LVU896
 691:lvgl/src/extra/libs/qrcode/qrcodegen.c **** 			if (  color == getModule(qrcode, x + 1, y) &&
 3523              		.loc 1 691 18 is_stmt 0 view .LVU897
 3524 0148 4A46     		mov	r2, r9
 3525 014a 2946     		mov	r1, r5
 3526 014c 2046     		mov	r0, r4
 3527 014e FFF7FEFF 		bl	getModule
 3528              	.LVL401:
 3529 0152 0646     		mov	r6, r0
 3530              	.LVL402:
 692:lvgl/src/extra/libs/qrcode/qrcodegen.c **** 			      color == getModule(qrcode, x, y + 1) &&
 3531              		.loc 1 692 4 is_stmt 1 view .LVU898
 692:lvgl/src/extra/libs/qrcode/qrcodegen.c **** 			      color == getModule(qrcode, x, y + 1) &&
 3532              		.loc 1 692 19 is_stmt 0 view .LVU899
 3533 0154 05F10108 		add	r8, r5, #1
 3534 0158 4A46     		mov	r2, r9
 3535 015a 4146     		mov	r1, r8
 3536 015c 2046     		mov	r0, r4
 3537 015e FFF7FEFF 		bl	getModule
 3538              	.LVL403:
 692:lvgl/src/extra/libs/qrcode/qrcodegen.c **** 			      color == getModule(qrcode, x, y + 1) &&
 3539              		.loc 1 692 7 discriminator 1 view .LVU900
 3540 0162 B042     		cmp	r0, r6
 3541 0164 EDD1     		bne	.L297
 693:lvgl/src/extra/libs/qrcode/qrcodegen.c **** 			      color == getModule(qrcode, x + 1, y + 1))
 3542              		.loc 1 693 19 view .LVU901
 3543 0166 09F10103 		add	r3, r9, #1
 3544 016a 0193     		str	r3, [sp, #4]
 3545 016c 1A46     		mov	r2, r3
 3546 016e 2946     		mov	r1, r5
 3547 0170 2046     		mov	r0, r4
 3548 0172 FFF7FEFF 		bl	getModule
 3549              	.LVL404:
 692:lvgl/src/extra/libs/qrcode/qrcodegen.c **** 			      color == getModule(qrcode, x, y + 1) &&
 3550              		.loc 1 692 47 discriminator 1 view .LVU902
 3551 0176 B042     		cmp	r0, r6
 3552 0178 E3D1     		bne	.L297
 694:lvgl/src/extra/libs/qrcode/qrcodegen.c **** 				result += PENALTY_N2;
 3553              		.loc 1 694 19 view .LVU903
 3554 017a 019A     		ldr	r2, [sp, #4]
 3555 017c 4146     		mov	r1, r8
 3556 017e 2046     		mov	r0, r4
 3557 0180 FFF7FEFF 		bl	getModule
 3558              	.LVL405:
 693:lvgl/src/extra/libs/qrcode/qrcodegen.c **** 			      color == getModule(qrcode, x + 1, y + 1))
 3559              		.loc 1 693 47 view .LVU904
 3560 0184 B042     		cmp	r0, r6
 3561 0186 DCD1     		bne	.L297
 695:lvgl/src/extra/libs/qrcode/qrcodegen.c **** 		}
 3562              		.loc 1 695 5 is_stmt 1 view .LVU905
 695:lvgl/src/extra/libs/qrcode/qrcodegen.c **** 		}
ARM GAS  C:\usertemp\ccXENK9d.s 			page 96


 3563              		.loc 1 695 12 is_stmt 0 view .LVU906
 3564 0188 0AF1030A 		add	r10, r10, #3
 3565              	.LVL406:
 695:lvgl/src/extra/libs/qrcode/qrcodegen.c **** 		}
 3566              		.loc 1 695 12 view .LVU907
 3567 018c D9E7     		b	.L297
 3568              	.LVL407:
 3569              	.L315:
 695:lvgl/src/extra/libs/qrcode/qrcodegen.c **** 		}
 3570              		.loc 1 695 12 view .LVU908
 3571              	.LBE89:
 3572              	.LBE88:
 689:lvgl/src/extra/libs/qrcode/qrcodegen.c **** 		for (int x = 0; x < qrsize - 1; x++) {
 3573              		.loc 1 689 35 is_stmt 1 discriminator 2 view .LVU909
 3574 018e 09F10109 		add	r9, r9, #1
 3575              	.LVL408:
 3576              	.L296:
 689:lvgl/src/extra/libs/qrcode/qrcodegen.c **** 		for (int x = 0; x < qrsize - 1; x++) {
 3577              		.loc 1 689 20 discriminator 1 view .LVU910
 689:lvgl/src/extra/libs/qrcode/qrcodegen.c **** 		for (int x = 0; x < qrsize - 1; x++) {
 3578              		.loc 1 689 29 is_stmt 0 discriminator 1 view .LVU911
 3579 0192 07F1FF3B 		add	fp, r7, #-1
 689:lvgl/src/extra/libs/qrcode/qrcodegen.c **** 		for (int x = 0; x < qrsize - 1; x++) {
 3580              		.loc 1 689 20 discriminator 1 view .LVU912
 3581 0196 CB45     		cmp	fp, r9
 3582 0198 01DD     		ble	.L316
 3583              	.LBB90:
 690:lvgl/src/extra/libs/qrcode/qrcodegen.c **** 			bool  color = getModule(qrcode, x, y);
 3584              		.loc 1 690 12 view .LVU913
 3585 019a 0025     		movs	r5, #0
 3586 019c D2E7     		b	.L299
 3587              	.L316:
 3588              	.LBE90:
 3589              	.LBE92:
 3590              	.LBB93:
 701:lvgl/src/extra/libs/qrcode/qrcodegen.c **** 		for (int x = 0; x < qrsize; x++) {
 3591              		.loc 1 701 11 view .LVU914
 3592 019e 0026     		movs	r6, #0
 3593              	.LBE93:
 700:lvgl/src/extra/libs/qrcode/qrcodegen.c **** 	for (int y = 0; y < qrsize; y++) {
 3594              		.loc 1 700 6 view .LVU915
 3595 01a0 B046     		mov	r8, r6
 3596 01a2 0DE0     		b	.L300
 3597              	.LVL409:
 3598              	.L301:
 3599              	.LBB96:
 3600              	.LBB94:
 702:lvgl/src/extra/libs/qrcode/qrcodegen.c **** 			if (getModule(qrcode, x, y))
 3601              		.loc 1 702 32 is_stmt 1 discriminator 2 view .LVU916
 3602 01a4 0135     		adds	r5, r5, #1
 3603              	.LVL410:
 3604              	.L303:
 702:lvgl/src/extra/libs/qrcode/qrcodegen.c **** 			if (getModule(qrcode, x, y))
 3605              		.loc 1 702 21 discriminator 1 view .LVU917
 3606 01a6 BD42     		cmp	r5, r7
 3607 01a8 09DA     		bge	.L317
 703:lvgl/src/extra/libs/qrcode/qrcodegen.c **** 				black++;
ARM GAS  C:\usertemp\ccXENK9d.s 			page 97


 3608              		.loc 1 703 4 view .LVU918
 703:lvgl/src/extra/libs/qrcode/qrcodegen.c **** 				black++;
 3609              		.loc 1 703 8 is_stmt 0 view .LVU919
 3610 01aa 3246     		mov	r2, r6
 3611 01ac 2946     		mov	r1, r5
 3612 01ae 2046     		mov	r0, r4
 3613 01b0 FFF7FEFF 		bl	getModule
 3614              	.LVL411:
 703:lvgl/src/extra/libs/qrcode/qrcodegen.c **** 				black++;
 3615              		.loc 1 703 7 discriminator 1 view .LVU920
 3616 01b4 0028     		cmp	r0, #0
 3617 01b6 F5D0     		beq	.L301
 704:lvgl/src/extra/libs/qrcode/qrcodegen.c **** 		}
 3618              		.loc 1 704 5 is_stmt 1 view .LVU921
 704:lvgl/src/extra/libs/qrcode/qrcodegen.c **** 		}
 3619              		.loc 1 704 10 is_stmt 0 view .LVU922
 3620 01b8 08F10108 		add	r8, r8, #1
 3621              	.LVL412:
 704:lvgl/src/extra/libs/qrcode/qrcodegen.c **** 		}
 3622              		.loc 1 704 10 view .LVU923
 3623 01bc F2E7     		b	.L301
 3624              	.L317:
 704:lvgl/src/extra/libs/qrcode/qrcodegen.c **** 		}
 3625              		.loc 1 704 10 view .LVU924
 3626              	.LBE94:
 701:lvgl/src/extra/libs/qrcode/qrcodegen.c **** 		for (int x = 0; x < qrsize; x++) {
 3627              		.loc 1 701 31 is_stmt 1 discriminator 2 view .LVU925
 3628 01be 0136     		adds	r6, r6, #1
 3629              	.LVL413:
 3630              	.L300:
 701:lvgl/src/extra/libs/qrcode/qrcodegen.c **** 		for (int x = 0; x < qrsize; x++) {
 3631              		.loc 1 701 20 discriminator 1 view .LVU926
 3632 01c0 BE42     		cmp	r6, r7
 3633 01c2 01DA     		bge	.L318
 3634              	.LBB95:
 702:lvgl/src/extra/libs/qrcode/qrcodegen.c **** 			if (getModule(qrcode, x, y))
 3635              		.loc 1 702 12 is_stmt 0 view .LVU927
 3636 01c4 0025     		movs	r5, #0
 3637 01c6 EEE7     		b	.L303
 3638              	.L318:
 3639              	.LBE95:
 3640              	.LBE96:
 707:lvgl/src/extra/libs/qrcode/qrcodegen.c **** 	// Compute the smallest integer k >= 0 such that (45-5k)% <= black/total <= (55+5k)%
 3641              		.loc 1 707 2 is_stmt 1 view .LVU928
 707:lvgl/src/extra/libs/qrcode/qrcodegen.c **** 	// Compute the smallest integer k >= 0 such that (45-5k)% <= black/total <= (55+5k)%
 3642              		.loc 1 707 6 is_stmt 0 view .LVU929
 3643 01c8 07FB07F7 		mul	r7, r7, r7
 3644              	.LVL414:
 709:lvgl/src/extra/libs/qrcode/qrcodegen.c **** 	result += k * PENALTY_N4;
 3645              		.loc 1 709 2 is_stmt 1 view .LVU930
 709:lvgl/src/extra/libs/qrcode/qrcodegen.c **** 	result += k * PENALTY_N4;
 3646              		.loc 1 709 28 is_stmt 0 view .LVU931
 3647 01cc 08EB8808 		add	r8, r8, r8, lsl #2
 3648              	.LVL415:
 709:lvgl/src/extra/libs/qrcode/qrcodegen.c **** 	result += k * PENALTY_N4;
 3649              		.loc 1 709 42 view .LVU932
 3650 01d0 6FF00900 		mvn	r0, #9
ARM GAS  C:\usertemp\ccXENK9d.s 			page 98


 3651 01d4 07FB00F0 		mul	r0, r7, r0
 709:lvgl/src/extra/libs/qrcode/qrcodegen.c **** 	result += k * PENALTY_N4;
 3652              		.loc 1 709 34 view .LVU933
 3653 01d8 00EB8800 		add	r0, r0, r8, lsl #2
 709:lvgl/src/extra/libs/qrcode/qrcodegen.c **** 	result += k * PENALTY_N4;
 3654              		.loc 1 709 17 view .LVU934
 3655 01dc 0028     		cmp	r0, #0
 3656 01de B8BF     		it	lt
 3657 01e0 4042     		rsblt	r0, r0, #0
 709:lvgl/src/extra/libs/qrcode/qrcodegen.c **** 	result += k * PENALTY_N4;
 3658              		.loc 1 709 49 view .LVU935
 3659 01e2 3844     		add	r0, r0, r7
 709:lvgl/src/extra/libs/qrcode/qrcodegen.c **** 	result += k * PENALTY_N4;
 3660              		.loc 1 709 57 view .LVU936
 3661 01e4 0138     		subs	r0, r0, #1
 709:lvgl/src/extra/libs/qrcode/qrcodegen.c **** 	result += k * PENALTY_N4;
 3662              		.loc 1 709 62 view .LVU937
 3663 01e6 90FBF7F0 		sdiv	r0, r0, r7
 709:lvgl/src/extra/libs/qrcode/qrcodegen.c **** 	result += k * PENALTY_N4;
 3664              		.loc 1 709 6 view .LVU938
 3665 01ea 0138     		subs	r0, r0, #1
 3666              	.LVL416:
 710:lvgl/src/extra/libs/qrcode/qrcodegen.c **** 	return result;
 3667              		.loc 1 710 2 is_stmt 1 view .LVU939
 710:lvgl/src/extra/libs/qrcode/qrcodegen.c **** 	return result;
 3668              		.loc 1 710 14 is_stmt 0 view .LVU940
 3669 01ec 00EB8000 		add	r0, r0, r0, lsl #2
 3670              	.LVL417:
 711:lvgl/src/extra/libs/qrcode/qrcodegen.c **** }
 3671              		.loc 1 711 2 is_stmt 1 view .LVU941
 712:lvgl/src/extra/libs/qrcode/qrcodegen.c **** 
 3672              		.loc 1 712 1 is_stmt 0 view .LVU942
 3673 01f0 0AEB4000 		add	r0, r10, r0, lsl #1
 3674              	.LVL418:
 712:lvgl/src/extra/libs/qrcode/qrcodegen.c **** 
 3675              		.loc 1 712 1 view .LVU943
 3676 01f4 05B0     		add	sp, sp, #20
 3677              	.LCFI41:
 3678              		.cfi_def_cfa_offset 36
 3679              		@ sp needed
 3680 01f6 BDE8F08F 		pop	{r4, r5, r6, r7, r8, r9, r10, fp, pc}
 712:lvgl/src/extra/libs/qrcode/qrcodegen.c **** 
 3681              		.loc 1 712 1 view .LVU944
 3682              		.cfi_endproc
 3683              	.LFE18:
 3685              		.section	.rodata.applyMask.str1.4,"aMS",%progbits,1
 3686              		.align	2
 3687              	.LC19:
 3688 0000 30203C3D 		.ascii	"0 <= (int)mask && (int)mask <= 7\000"
 3688      2028696E 
 3688      74296D61 
 3688      736B2026 
 3688      26202869 
 3689              		.section	.text.applyMask,"ax",%progbits
 3690              		.align	1
 3691              		.syntax unified
 3692              		.thumb
ARM GAS  C:\usertemp\ccXENK9d.s 			page 99


 3693              		.thumb_func
 3695              	applyMask:
 3696              	.LVL419:
 3697              	.LFB17:
 603:lvgl/src/extra/libs/qrcode/qrcodegen.c **** 	assert(0 <= (int)mask && (int)mask <= 7);  // Disallows qrcodegen_Mask_AUTO
 3698              		.loc 1 603 100 is_stmt 1 view -0
 3699              		.cfi_startproc
 3700              		@ args = 0, pretend = 0, frame = 0
 3701              		@ frame_needed = 0, uses_anonymous_args = 0
 603:lvgl/src/extra/libs/qrcode/qrcodegen.c **** 	assert(0 <= (int)mask && (int)mask <= 7);  // Disallows qrcodegen_Mask_AUTO
 3702              		.loc 1 603 100 is_stmt 0 view .LVU946
 3703 0000 2DE9F047 		push	{r4, r5, r6, r7, r8, r9, r10, lr}
 3704              	.LCFI42:
 3705              		.cfi_def_cfa_offset 32
 3706              		.cfi_offset 4, -32
 3707              		.cfi_offset 5, -28
 3708              		.cfi_offset 6, -24
 3709              		.cfi_offset 7, -20
 3710              		.cfi_offset 8, -16
 3711              		.cfi_offset 9, -12
 3712              		.cfi_offset 10, -8
 3713              		.cfi_offset 14, -4
 604:lvgl/src/extra/libs/qrcode/qrcodegen.c **** 	int qrsize = qrcodegen_getSize(qrcode);
 3714              		.loc 1 604 2 is_stmt 1 view .LVU947
 3715 0004 D3B2     		uxtb	r3, r2
 3716 0006 072B     		cmp	r3, #7
 3717 0008 08D8     		bhi	.L339
 3718 000a 8246     		mov	r10, r0
 3719 000c 8846     		mov	r8, r1
 3720 000e 1746     		mov	r7, r2
 605:lvgl/src/extra/libs/qrcode/qrcodegen.c **** 	for (int y = 0; y < qrsize; y++) {
 3721              		.loc 1 605 2 view .LVU948
 605:lvgl/src/extra/libs/qrcode/qrcodegen.c **** 	for (int y = 0; y < qrsize; y++) {
 3722              		.loc 1 605 15 is_stmt 0 view .LVU949
 3723 0010 0846     		mov	r0, r1
 3724              	.LVL420:
 605:lvgl/src/extra/libs/qrcode/qrcodegen.c **** 	for (int y = 0; y < qrsize; y++) {
 3725              		.loc 1 605 15 view .LVU950
 3726 0012 FFF7FEFF 		bl	qrcodegen_getSize
 3727              	.LVL421:
 605:lvgl/src/extra/libs/qrcode/qrcodegen.c **** 	for (int y = 0; y < qrsize; y++) {
 3728              		.loc 1 605 15 view .LVU951
 3729 0016 8146     		mov	r9, r0
 3730              	.LVL422:
 606:lvgl/src/extra/libs/qrcode/qrcodegen.c **** 		for (int x = 0; x < qrsize; x++) {
 3731              		.loc 1 606 2 is_stmt 1 view .LVU952
 3732              	.LBB97:
 606:lvgl/src/extra/libs/qrcode/qrcodegen.c **** 		for (int x = 0; x < qrsize; x++) {
 3733              		.loc 1 606 7 view .LVU953
 606:lvgl/src/extra/libs/qrcode/qrcodegen.c **** 		for (int x = 0; x < qrsize; x++) {
 3734              		.loc 1 606 11 is_stmt 0 view .LVU954
 3735 0018 0026     		movs	r6, #0
 606:lvgl/src/extra/libs/qrcode/qrcodegen.c **** 		for (int x = 0; x < qrsize; x++) {
 3736              		.loc 1 606 2 view .LVU955
 3737 001a AFE0     		b	.L321
 3738              	.LVL423:
 3739              	.L339:
ARM GAS  C:\usertemp\ccXENK9d.s 			page 100


 606:lvgl/src/extra/libs/qrcode/qrcodegen.c **** 		for (int x = 0; x < qrsize; x++) {
 3740              		.loc 1 606 2 view .LVU956
 3741              	.LBE97:
 604:lvgl/src/extra/libs/qrcode/qrcodegen.c **** 	int qrsize = qrcodegen_getSize(qrcode);
 3742              		.loc 1 604 2 discriminator 1 view .LVU957
 3743 001c 5A4B     		ldr	r3, .L343
 3744 001e 5B4A     		ldr	r2, .L343+4
 3745              	.LVL424:
 604:lvgl/src/extra/libs/qrcode/qrcodegen.c **** 	int qrsize = qrcodegen_getSize(qrcode);
 3746              		.loc 1 604 2 discriminator 1 view .LVU958
 3747 0020 4FF41771 		mov	r1, #604
 3748              	.LVL425:
 604:lvgl/src/extra/libs/qrcode/qrcodegen.c **** 	int qrsize = qrcodegen_getSize(qrcode);
 3749              		.loc 1 604 2 discriminator 1 view .LVU959
 3750 0024 5A48     		ldr	r0, .L343+8
 3751              	.LVL426:
 604:lvgl/src/extra/libs/qrcode/qrcodegen.c **** 	int qrsize = qrcodegen_getSize(qrcode);
 3752              		.loc 1 604 2 discriminator 1 view .LVU960
 3753 0026 FFF7FEFF 		bl	__assert_func
 3754              	.LVL427:
 3755              	.L332:
 3756              	.LBB102:
 3757              	.LBB98:
 3758              	.LBB99:
 612:lvgl/src/extra/libs/qrcode/qrcodegen.c **** 				case 1:  invert = y % 2 == 0;                          break;
 3759              		.loc 1 612 14 is_stmt 1 view .LVU961
 612:lvgl/src/extra/libs/qrcode/qrcodegen.c **** 				case 1:  invert = y % 2 == 0;                          break;
 3760              		.loc 1 612 26 is_stmt 0 view .LVU962
 3761 002a 3519     		adds	r5, r6, r4
 612:lvgl/src/extra/libs/qrcode/qrcodegen.c **** 				case 1:  invert = y % 2 == 0;                          break;
 3762              		.loc 1 612 21 view .LVU963
 3763 002c 85F00105 		eor	r5, r5, #1
 3764 0030 05F00105 		and	r5, r5, #1
 3765              	.LVL428:
 612:lvgl/src/extra/libs/qrcode/qrcodegen.c **** 				case 1:  invert = y % 2 == 0;                          break;
 3766              		.loc 1 612 60 is_stmt 1 view .LVU964
 3767              	.L333:
 620:lvgl/src/extra/libs/qrcode/qrcodegen.c **** 			}
 3768              		.loc 1 620 31 view .LVU965
 622:lvgl/src/extra/libs/qrcode/qrcodegen.c **** 			setModule(qrcode, x, y, val ^ invert);
 3769              		.loc 1 622 4 view .LVU966
 622:lvgl/src/extra/libs/qrcode/qrcodegen.c **** 			setModule(qrcode, x, y, val ^ invert);
 3770              		.loc 1 622 15 is_stmt 0 view .LVU967
 3771 0034 3246     		mov	r2, r6
 3772 0036 2146     		mov	r1, r4
 3773 0038 4046     		mov	r0, r8
 3774 003a FFF7FEFF 		bl	getModule
 3775              	.LVL429:
 623:lvgl/src/extra/libs/qrcode/qrcodegen.c **** 		}
 3776              		.loc 1 623 4 is_stmt 1 view .LVU968
 3777 003e 2B1A     		subs	r3, r5, r0
 3778 0040 18BF     		it	ne
 3779 0042 0123     		movne	r3, #1
 3780 0044 3246     		mov	r2, r6
 3781 0046 2146     		mov	r1, r4
 3782 0048 4046     		mov	r0, r8
 3783              	.LVL430:
ARM GAS  C:\usertemp\ccXENK9d.s 			page 101


 623:lvgl/src/extra/libs/qrcode/qrcodegen.c **** 		}
 3784              		.loc 1 623 4 is_stmt 0 view .LVU969
 3785 004a FFF7FEFF 		bl	setModule
 3786              	.LVL431:
 3787              	.L322:
 623:lvgl/src/extra/libs/qrcode/qrcodegen.c **** 		}
 3788              		.loc 1 623 4 view .LVU970
 3789              	.LBE99:
 607:lvgl/src/extra/libs/qrcode/qrcodegen.c **** 			if (getModule(functionModules, x, y))
 3790              		.loc 1 607 32 is_stmt 1 discriminator 2 view .LVU971
 3791 004e 0134     		adds	r4, r4, #1
 3792              	.LVL432:
 3793              	.L336:
 607:lvgl/src/extra/libs/qrcode/qrcodegen.c **** 			if (getModule(functionModules, x, y))
 3794              		.loc 1 607 21 discriminator 1 view .LVU972
 3795 0050 4C45     		cmp	r4, r9
 3796 0052 80F29280 		bge	.L340
 3797              	.LBB100:
 608:lvgl/src/extra/libs/qrcode/qrcodegen.c **** 				continue;
 3798              		.loc 1 608 4 view .LVU973
 608:lvgl/src/extra/libs/qrcode/qrcodegen.c **** 				continue;
 3799              		.loc 1 608 8 is_stmt 0 view .LVU974
 3800 0056 3246     		mov	r2, r6
 3801 0058 2146     		mov	r1, r4
 3802 005a 5046     		mov	r0, r10
 3803 005c FFF7FEFF 		bl	getModule
 3804              	.LVL433:
 608:lvgl/src/extra/libs/qrcode/qrcodegen.c **** 				continue;
 3805              		.loc 1 608 7 discriminator 1 view .LVU975
 3806 0060 0028     		cmp	r0, #0
 3807 0062 F4D1     		bne	.L322
 610:lvgl/src/extra/libs/qrcode/qrcodegen.c **** 			switch ((int)mask) {
 3808              		.loc 1 610 4 is_stmt 1 view .LVU976
 611:lvgl/src/extra/libs/qrcode/qrcodegen.c **** 				case 0:  invert = (x + y) % 2 == 0;                    break;
 3809              		.loc 1 611 4 view .LVU977
 3810 0064 072F     		cmp	r7, #7
 3811 0066 00F28180 		bhi	.L323
 3812 006a 01A3     		adr	r3, .L325
 3813 006c 53F827F0 		ldr	pc, [r3, r7, lsl #2]
 3814              		.p2align 2
 3815              	.L325:
 3816 0070 2B000000 		.word	.L332+1
 3817 0074 91000000 		.word	.L331+1
 3818 0078 9B000000 		.word	.L330+1
 3819 007c B3000000 		.word	.L329+1
 3820 0080 CD000000 		.word	.L328+1
 3821 0084 EF000000 		.word	.L327+1
 3822 0088 19010000 		.word	.L326+1
 3823 008c 43010000 		.word	.L324+1
 3824              		.p2align 1
 3825              	.L331:
 613:lvgl/src/extra/libs/qrcode/qrcodegen.c **** 				case 2:  invert = x % 3 == 0;                          break;
 3826              		.loc 1 613 14 view .LVU978
 613:lvgl/src/extra/libs/qrcode/qrcodegen.c **** 				case 2:  invert = x % 3 == 0;                          break;
 3827              		.loc 1 613 21 is_stmt 0 view .LVU979
 3828 0090 86F00105 		eor	r5, r6, #1
 3829 0094 05F00105 		and	r5, r5, #1
ARM GAS  C:\usertemp\ccXENK9d.s 			page 102


 3830              	.LVL434:
 613:lvgl/src/extra/libs/qrcode/qrcodegen.c **** 				case 2:  invert = x % 3 == 0;                          break;
 3831              		.loc 1 613 60 is_stmt 1 view .LVU980
 3832 0098 CCE7     		b	.L333
 3833              	.LVL435:
 3834              	.L330:
 614:lvgl/src/extra/libs/qrcode/qrcodegen.c **** 				case 3:  invert = (x + y) % 3 == 0;                    break;
 3835              		.loc 1 614 14 view .LVU981
 614:lvgl/src/extra/libs/qrcode/qrcodegen.c **** 				case 3:  invert = (x + y) % 3 == 0;                    break;
 3836              		.loc 1 614 25 is_stmt 0 view .LVU982
 3837 009a 3E4D     		ldr	r5, .L343+12
 3838 009c 85FB0435 		smull	r3, r5, r5, r4
 3839 00a0 A5EBE475 		sub	r5, r5, r4, asr #31
 3840 00a4 05EB4505 		add	r5, r5, r5, lsl #1
 614:lvgl/src/extra/libs/qrcode/qrcodegen.c **** 				case 3:  invert = (x + y) % 3 == 0;                    break;
 3841              		.loc 1 614 21 view .LVU983
 3842 00a8 AC42     		cmp	r4, r5
 3843 00aa 14BF     		ite	ne
 3844 00ac 0025     		movne	r5, #0
 3845 00ae 0125     		moveq	r5, #1
 3846              	.LVL436:
 614:lvgl/src/extra/libs/qrcode/qrcodegen.c **** 				case 3:  invert = (x + y) % 3 == 0;                    break;
 3847              		.loc 1 614 60 is_stmt 1 view .LVU984
 3848 00b0 C0E7     		b	.L333
 3849              	.LVL437:
 3850              	.L329:
 615:lvgl/src/extra/libs/qrcode/qrcodegen.c **** 				case 4:  invert = (x / 3 + y / 2) % 2 == 0;            break;
 3851              		.loc 1 615 14 view .LVU985
 615:lvgl/src/extra/libs/qrcode/qrcodegen.c **** 				case 4:  invert = (x / 3 + y / 2) % 2 == 0;            break;
 3852              		.loc 1 615 26 is_stmt 0 view .LVU986
 3853 00b2 3519     		adds	r5, r6, r4
 615:lvgl/src/extra/libs/qrcode/qrcodegen.c **** 				case 4:  invert = (x / 3 + y / 2) % 2 == 0;            break;
 3854              		.loc 1 615 31 view .LVU987
 3855 00b4 374B     		ldr	r3, .L343+12
 3856 00b6 83FB0523 		smull	r2, r3, r3, r5
 3857 00ba A3EBE573 		sub	r3, r3, r5, asr #31
 3858 00be 03EB4303 		add	r3, r3, r3, lsl #1
 615:lvgl/src/extra/libs/qrcode/qrcodegen.c **** 				case 4:  invert = (x / 3 + y / 2) % 2 == 0;            break;
 3859              		.loc 1 615 21 view .LVU988
 3860 00c2 9D42     		cmp	r5, r3
 3861 00c4 14BF     		ite	ne
 3862 00c6 0025     		movne	r5, #0
 3863 00c8 0125     		moveq	r5, #1
 3864              	.LVL438:
 615:lvgl/src/extra/libs/qrcode/qrcodegen.c **** 				case 4:  invert = (x / 3 + y / 2) % 2 == 0;            break;
 3865              		.loc 1 615 60 is_stmt 1 view .LVU989
 3866 00ca B3E7     		b	.L333
 3867              	.LVL439:
 3868              	.L328:
 616:lvgl/src/extra/libs/qrcode/qrcodegen.c **** 				case 5:  invert = x * y % 2 + x * y % 3 == 0;          break;
 3869              		.loc 1 616 14 view .LVU990
 616:lvgl/src/extra/libs/qrcode/qrcodegen.c **** 				case 5:  invert = x * y % 2 + x * y % 3 == 0;          break;
 3870              		.loc 1 616 26 is_stmt 0 view .LVU991
 3871 00cc 314D     		ldr	r5, .L343+12
 3872 00ce 85FB0435 		smull	r3, r5, r5, r4
 3873 00d2 A5EBE475 		sub	r5, r5, r4, asr #31
 616:lvgl/src/extra/libs/qrcode/qrcodegen.c **** 				case 5:  invert = x * y % 2 + x * y % 3 == 0;          break;
ARM GAS  C:\usertemp\ccXENK9d.s 			page 103


 3874              		.loc 1 616 34 view .LVU992
 3875 00d6 3346     		mov	r3, r6
 3876 00d8 002E     		cmp	r6, #0
 3877 00da 06DB     		blt	.L341
 3878              	.L334:
 616:lvgl/src/extra/libs/qrcode/qrcodegen.c **** 				case 5:  invert = x * y % 2 + x * y % 3 == 0;          break;
 3879              		.loc 1 616 30 view .LVU993
 3880 00dc 05EB6305 		add	r5, r5, r3, asr #1
 616:lvgl/src/extra/libs/qrcode/qrcodegen.c **** 				case 5:  invert = x * y % 2 + x * y % 3 == 0;          break;
 3881              		.loc 1 616 21 view .LVU994
 3882 00e0 85F00105 		eor	r5, r5, #1
 3883 00e4 05F00105 		and	r5, r5, #1
 3884              	.LVL440:
 616:lvgl/src/extra/libs/qrcode/qrcodegen.c **** 				case 5:  invert = x * y % 2 + x * y % 3 == 0;          break;
 3885              		.loc 1 616 60 is_stmt 1 view .LVU995
 3886 00e8 A4E7     		b	.L333
 3887              	.LVL441:
 3888              	.L341:
 616:lvgl/src/extra/libs/qrcode/qrcodegen.c **** 				case 5:  invert = x * y % 2 + x * y % 3 == 0;          break;
 3889              		.loc 1 616 34 is_stmt 0 view .LVU996
 3890 00ea 731C     		adds	r3, r6, #1
 3891              	.LVL442:
 616:lvgl/src/extra/libs/qrcode/qrcodegen.c **** 				case 5:  invert = x * y % 2 + x * y % 3 == 0;          break;
 3892              		.loc 1 616 34 view .LVU997
 3893 00ec F6E7     		b	.L334
 3894              	.L327:
 617:lvgl/src/extra/libs/qrcode/qrcodegen.c **** 				case 6:  invert = (x * y % 2 + x * y % 3) % 2 == 0;    break;
 3895              		.loc 1 617 14 is_stmt 1 view .LVU998
 617:lvgl/src/extra/libs/qrcode/qrcodegen.c **** 				case 6:  invert = (x * y % 2 + x * y % 3) % 2 == 0;    break;
 3896              		.loc 1 617 25 is_stmt 0 view .LVU999
 3897 00ee 04FB06F2 		mul	r2, r4, r6
 617:lvgl/src/extra/libs/qrcode/qrcodegen.c **** 				case 6:  invert = (x * y % 2 + x * y % 3) % 2 == 0;    break;
 3898              		.loc 1 617 29 view .LVU1000
 3899 00f2 002A     		cmp	r2, #0
 3900 00f4 02F00103 		and	r3, r2, #1
 3901 00f8 B8BF     		it	lt
 3902 00fa 5B42     		rsblt	r3, r3, #0
 3903 00fc 1946     		mov	r1, r3
 617:lvgl/src/extra/libs/qrcode/qrcodegen.c **** 				case 6:  invert = (x * y % 2 + x * y % 3) % 2 == 0;    break;
 3904              		.loc 1 617 41 view .LVU1001
 3905 00fe 254B     		ldr	r3, .L343+12
 3906 0100 83FB0203 		smull	r0, r3, r3, r2
 3907 0104 A3EBE273 		sub	r3, r3, r2, asr #31
 3908 0108 03EB4303 		add	r3, r3, r3, lsl #1
 3909 010c D31A     		subs	r3, r2, r3
 617:lvgl/src/extra/libs/qrcode/qrcodegen.c **** 				case 6:  invert = (x * y % 2 + x * y % 3) % 2 == 0;    break;
 3910              		.loc 1 617 21 view .LVU1002
 3911 010e D942     		cmn	r1, r3
 3912 0110 0CBF     		ite	eq
 3913 0112 0125     		moveq	r5, #1
 3914 0114 0025     		movne	r5, #0
 3915              	.LVL443:
 617:lvgl/src/extra/libs/qrcode/qrcodegen.c **** 				case 6:  invert = (x * y % 2 + x * y % 3) % 2 == 0;    break;
 3916              		.loc 1 617 60 is_stmt 1 view .LVU1003
 3917 0116 8DE7     		b	.L333
 3918              	.LVL444:
 3919              	.L326:
ARM GAS  C:\usertemp\ccXENK9d.s 			page 104


 618:lvgl/src/extra/libs/qrcode/qrcodegen.c **** 				case 7:  invert = ((x + y) % 2 + x * y % 3) % 2 == 0;  break;
 3920              		.loc 1 618 14 view .LVU1004
 618:lvgl/src/extra/libs/qrcode/qrcodegen.c **** 				case 7:  invert = ((x + y) % 2 + x * y % 3) % 2 == 0;  break;
 3921              		.loc 1 618 26 is_stmt 0 view .LVU1005
 3922 0118 04FB06F2 		mul	r2, r4, r6
 618:lvgl/src/extra/libs/qrcode/qrcodegen.c **** 				case 7:  invert = ((x + y) % 2 + x * y % 3) % 2 == 0;  break;
 3923              		.loc 1 618 30 view .LVU1006
 3924 011c 002A     		cmp	r2, #0
 3925 011e 02F00105 		and	r5, r2, #1
 3926 0122 B8BF     		it	lt
 3927 0124 6D42     		rsblt	r5, r5, #0
 618:lvgl/src/extra/libs/qrcode/qrcodegen.c **** 				case 7:  invert = ((x + y) % 2 + x * y % 3) % 2 == 0;  break;
 3928              		.loc 1 618 42 view .LVU1007
 3929 0126 1B4B     		ldr	r3, .L343+12
 3930 0128 83FB0213 		smull	r1, r3, r3, r2
 3931 012c A3EBE273 		sub	r3, r3, r2, asr #31
 3932 0130 03EB4303 		add	r3, r3, r3, lsl #1
 3933 0134 D31A     		subs	r3, r2, r3
 618:lvgl/src/extra/libs/qrcode/qrcodegen.c **** 				case 7:  invert = ((x + y) % 2 + x * y % 3) % 2 == 0;  break;
 3934              		.loc 1 618 34 view .LVU1008
 3935 0136 1D44     		add	r5, r5, r3
 618:lvgl/src/extra/libs/qrcode/qrcodegen.c **** 				case 7:  invert = ((x + y) % 2 + x * y % 3) % 2 == 0;  break;
 3936              		.loc 1 618 21 view .LVU1009
 3937 0138 85F00105 		eor	r5, r5, #1
 3938 013c 05F00105 		and	r5, r5, #1
 3939              	.LVL445:
 618:lvgl/src/extra/libs/qrcode/qrcodegen.c **** 				case 7:  invert = ((x + y) % 2 + x * y % 3) % 2 == 0;  break;
 3940              		.loc 1 618 60 is_stmt 1 view .LVU1010
 3941 0140 78E7     		b	.L333
 3942              	.LVL446:
 3943              	.L324:
 619:lvgl/src/extra/libs/qrcode/qrcodegen.c **** 				default:  assert(false);  return;
 3944              		.loc 1 619 14 view .LVU1011
 619:lvgl/src/extra/libs/qrcode/qrcodegen.c **** 				default:  assert(false);  return;
 3945              		.loc 1 619 32 is_stmt 0 view .LVU1012
 3946 0142 3519     		adds	r5, r6, r4
 3947 0144 05F00105 		and	r5, r5, #1
 3948 0148 48BF     		it	mi
 3949 014a 6D42     		rsbmi	r5, r5, #0
 619:lvgl/src/extra/libs/qrcode/qrcodegen.c **** 				default:  assert(false);  return;
 3950              		.loc 1 619 40 view .LVU1013
 3951 014c 04FB06F2 		mul	r2, r4, r6
 619:lvgl/src/extra/libs/qrcode/qrcodegen.c **** 				default:  assert(false);  return;
 3952              		.loc 1 619 44 view .LVU1014
 3953 0150 104B     		ldr	r3, .L343+12
 3954 0152 83FB0213 		smull	r1, r3, r3, r2
 3955 0156 A3EBE273 		sub	r3, r3, r2, asr #31
 3956 015a 03EB4303 		add	r3, r3, r3, lsl #1
 3957 015e D31A     		subs	r3, r2, r3
 619:lvgl/src/extra/libs/qrcode/qrcodegen.c **** 				default:  assert(false);  return;
 3958              		.loc 1 619 36 view .LVU1015
 3959 0160 1D44     		add	r5, r5, r3
 619:lvgl/src/extra/libs/qrcode/qrcodegen.c **** 				default:  assert(false);  return;
 3960              		.loc 1 619 21 view .LVU1016
 3961 0162 85F00105 		eor	r5, r5, #1
 3962 0166 05F00105 		and	r5, r5, #1
 3963              	.LVL447:
ARM GAS  C:\usertemp\ccXENK9d.s 			page 105


 619:lvgl/src/extra/libs/qrcode/qrcodegen.c **** 				default:  assert(false);  return;
 3964              		.loc 1 619 60 is_stmt 1 view .LVU1017
 3965 016a 63E7     		b	.L333
 3966              	.LVL448:
 3967              	.L323:
 620:lvgl/src/extra/libs/qrcode/qrcodegen.c **** 			}
 3968              		.loc 1 620 15 view .LVU1018
 3969 016c 0A4B     		ldr	r3, .L343+16
 3970 016e 074A     		ldr	r2, .L343+4
 3971 0170 4FF41B71 		mov	r1, #620
 3972 0174 0648     		ldr	r0, .L343+8
 3973 0176 FFF7FEFF 		bl	__assert_func
 3974              	.LVL449:
 3975              	.L340:
 620:lvgl/src/extra/libs/qrcode/qrcodegen.c **** 			}
 3976              		.loc 1 620 15 is_stmt 0 view .LVU1019
 3977              	.LBE100:
 3978              	.LBE98:
 606:lvgl/src/extra/libs/qrcode/qrcodegen.c **** 		for (int x = 0; x < qrsize; x++) {
 3979              		.loc 1 606 31 is_stmt 1 discriminator 2 view .LVU1020
 3980 017a 0136     		adds	r6, r6, #1
 3981              	.LVL450:
 3982              	.L321:
 606:lvgl/src/extra/libs/qrcode/qrcodegen.c **** 		for (int x = 0; x < qrsize; x++) {
 3983              		.loc 1 606 20 discriminator 1 view .LVU1021
 3984 017c 4E45     		cmp	r6, r9
 3985 017e 01DA     		bge	.L342
 3986              	.LBB101:
 607:lvgl/src/extra/libs/qrcode/qrcodegen.c **** 			if (getModule(functionModules, x, y))
 3987              		.loc 1 607 12 is_stmt 0 view .LVU1022
 3988 0180 0024     		movs	r4, #0
 3989 0182 65E7     		b	.L336
 3990              	.L342:
 3991              	.LBE101:
 3992              	.LBE102:
 626:lvgl/src/extra/libs/qrcode/qrcodegen.c **** 
 3993              		.loc 1 626 1 view .LVU1023
 3994 0184 BDE8F087 		pop	{r4, r5, r6, r7, r8, r9, r10, pc}
 3995              	.LVL451:
 3996              	.L344:
 626:lvgl/src/extra/libs/qrcode/qrcodegen.c **** 
 3997              		.loc 1 626 1 view .LVU1024
 3998              		.align	2
 3999              	.L343:
 4000 0188 00000000 		.word	.LC19
 4001 018c 00000000 		.word	__func__.11
 4002 0190 08000000 		.word	.LC1
 4003 0194 56555555 		.word	1431655766
 4004 0198 00000000 		.word	.LC0
 4005              		.cfi_endproc
 4006              	.LFE17:
 4008              		.section	.rodata.drawFormatBits.str1.4,"aMS",%progbits,1
 4009              		.align	2
 4010              	.LC20:
 4011 0000 62697473 		.ascii	"bits >> 15 == 0\000"
 4011      203E3E20 
 4011      3135203D 
ARM GAS  C:\usertemp\ccXENK9d.s 			page 106


 4011      3D203000 
 4012              		.section	.text.drawFormatBits,"ax",%progbits
 4013              		.align	1
 4014              		.syntax unified
 4015              		.thumb
 4016              		.thumb_func
 4018              	drawFormatBits:
 4019              	.LVL452:
 4020              	.LFB13:
 511:lvgl/src/extra/libs/qrcode/qrcodegen.c **** 	// Calculate error correction code and pack bits
 4021              		.loc 1 511 96 is_stmt 1 view -0
 4022              		.cfi_startproc
 4023              		@ args = 0, pretend = 0, frame = 0
 4024              		@ frame_needed = 0, uses_anonymous_args = 0
 511:lvgl/src/extra/libs/qrcode/qrcodegen.c **** 	// Calculate error correction code and pack bits
 4025              		.loc 1 511 96 is_stmt 0 view .LVU1026
 4026 0000 2DE9F041 		push	{r4, r5, r6, r7, r8, lr}
 4027              	.LCFI43:
 4028              		.cfi_def_cfa_offset 24
 4029              		.cfi_offset 4, -24
 4030              		.cfi_offset 5, -20
 4031              		.cfi_offset 6, -16
 4032              		.cfi_offset 7, -12
 4033              		.cfi_offset 8, -8
 4034              		.cfi_offset 14, -4
 513:lvgl/src/extra/libs/qrcode/qrcodegen.c **** 	static const int table[] = {1, 0, 3, 2};
 4035              		.loc 1 513 2 is_stmt 1 view .LVU1027
 4036 0004 CBB2     		uxtb	r3, r1
 4037 0006 072B     		cmp	r3, #7
 4038 0008 08D8     		bhi	.L359
 4039 000a 1546     		mov	r5, r2
 514:lvgl/src/extra/libs/qrcode/qrcodegen.c **** 	int data = table[(int)ecl] << 3 | (int)mask;  // errCorrLvl is uint2, mask is uint3
 4040              		.loc 1 514 2 view .LVU1028
 515:lvgl/src/extra/libs/qrcode/qrcodegen.c **** 	int rem = data;
 4041              		.loc 1 515 2 view .LVU1029
 515:lvgl/src/extra/libs/qrcode/qrcodegen.c **** 	int rem = data;
 4042              		.loc 1 515 18 is_stmt 0 view .LVU1030
 4043 000c 494B     		ldr	r3, .L361
 4044 000e 53F82030 		ldr	r3, [r3, r0, lsl #2]
 515:lvgl/src/extra/libs/qrcode/qrcodegen.c **** 	int rem = data;
 4045              		.loc 1 515 6 view .LVU1031
 4046 0012 41EAC301 		orr	r1, r1, r3, lsl #3
 4047              	.LVL453:
 516:lvgl/src/extra/libs/qrcode/qrcodegen.c **** 	for (int i = 0; i < 10; i++)
 4048              		.loc 1 516 2 is_stmt 1 view .LVU1032
 517:lvgl/src/extra/libs/qrcode/qrcodegen.c **** 		rem = (rem << 1) ^ ((rem >> 9) * 0x537);
 4049              		.loc 1 517 2 view .LVU1033
 4050              	.LBB103:
 517:lvgl/src/extra/libs/qrcode/qrcodegen.c **** 		rem = (rem << 1) ^ ((rem >> 9) * 0x537);
 4051              		.loc 1 517 7 view .LVU1034
 517:lvgl/src/extra/libs/qrcode/qrcodegen.c **** 		rem = (rem << 1) ^ ((rem >> 9) * 0x537);
 4052              		.loc 1 517 7 is_stmt 0 view .LVU1035
 4053              	.LBE103:
 516:lvgl/src/extra/libs/qrcode/qrcodegen.c **** 	for (int i = 0; i < 10; i++)
 4054              		.loc 1 516 6 view .LVU1036
 4055 0016 0C46     		mov	r4, r1
 4056              	.LBB104:
ARM GAS  C:\usertemp\ccXENK9d.s 			page 107


 517:lvgl/src/extra/libs/qrcode/qrcodegen.c **** 		rem = (rem << 1) ^ ((rem >> 9) * 0x537);
 4057              		.loc 1 517 11 view .LVU1037
 4058 0018 0022     		movs	r2, #0
 4059              	.LVL454:
 517:lvgl/src/extra/libs/qrcode/qrcodegen.c **** 		rem = (rem << 1) ^ ((rem >> 9) * 0x537);
 4060              		.loc 1 517 2 view .LVU1038
 4061 001a 0EE0     		b	.L347
 4062              	.LVL455:
 4063              	.L359:
 517:lvgl/src/extra/libs/qrcode/qrcodegen.c **** 		rem = (rem << 1) ^ ((rem >> 9) * 0x537);
 4064              		.loc 1 517 2 view .LVU1039
 4065              	.LBE104:
 513:lvgl/src/extra/libs/qrcode/qrcodegen.c **** 	static const int table[] = {1, 0, 3, 2};
 4066              		.loc 1 513 2 discriminator 1 view .LVU1040
 4067 001c 464B     		ldr	r3, .L361+4
 4068 001e 474A     		ldr	r2, .L361+8
 4069              	.LVL456:
 513:lvgl/src/extra/libs/qrcode/qrcodegen.c **** 	static const int table[] = {1, 0, 3, 2};
 4070              		.loc 1 513 2 discriminator 1 view .LVU1041
 4071 0020 40F20121 		movw	r1, #513
 4072              	.LVL457:
 513:lvgl/src/extra/libs/qrcode/qrcodegen.c **** 	static const int table[] = {1, 0, 3, 2};
 4073              		.loc 1 513 2 discriminator 1 view .LVU1042
 4074 0024 4648     		ldr	r0, .L361+12
 4075              	.LVL458:
 513:lvgl/src/extra/libs/qrcode/qrcodegen.c **** 	static const int table[] = {1, 0, 3, 2};
 4076              		.loc 1 513 2 discriminator 1 view .LVU1043
 4077 0026 FFF7FEFF 		bl	__assert_func
 4078              	.LVL459:
 4079              	.L348:
 4080              	.LBB105:
 518:lvgl/src/extra/libs/qrcode/qrcodegen.c **** 	int bits = (data << 10 | rem) ^ 0x5412;  // uint15
 4081              		.loc 1 518 3 is_stmt 1 view .LVU1044
 518:lvgl/src/extra/libs/qrcode/qrcodegen.c **** 	int bits = (data << 10 | rem) ^ 0x5412;  // uint15
 4082              		.loc 1 518 28 is_stmt 0 view .LVU1045
 4083 002a 6312     		asrs	r3, r4, #9
 518:lvgl/src/extra/libs/qrcode/qrcodegen.c **** 	int bits = (data << 10 | rem) ^ 0x5412;  // uint15
 4084              		.loc 1 518 34 view .LVU1046
 4085 002c 40F23750 		movw	r0, #1335
 4086 0030 00FB03F3 		mul	r3, r0, r3
 518:lvgl/src/extra/libs/qrcode/qrcodegen.c **** 	int bits = (data << 10 | rem) ^ 0x5412;  // uint15
 4087              		.loc 1 518 7 view .LVU1047
 4088 0034 83EA4404 		eor	r4, r3, r4, lsl #1
 4089              	.LVL460:
 517:lvgl/src/extra/libs/qrcode/qrcodegen.c **** 		rem = (rem << 1) ^ ((rem >> 9) * 0x537);
 4090              		.loc 1 517 27 is_stmt 1 discriminator 3 view .LVU1048
 4091 0038 0132     		adds	r2, r2, #1
 4092              	.LVL461:
 4093              	.L347:
 517:lvgl/src/extra/libs/qrcode/qrcodegen.c **** 		rem = (rem << 1) ^ ((rem >> 9) * 0x537);
 4094              		.loc 1 517 20 discriminator 1 view .LVU1049
 4095 003a 092A     		cmp	r2, #9
 4096 003c F5DD     		ble	.L348
 517:lvgl/src/extra/libs/qrcode/qrcodegen.c **** 		rem = (rem << 1) ^ ((rem >> 9) * 0x537);
 4097              		.loc 1 517 20 is_stmt 0 discriminator 1 view .LVU1050
 4098              	.LBE105:
 519:lvgl/src/extra/libs/qrcode/qrcodegen.c **** 	assert(bits >> 15 == 0);
ARM GAS  C:\usertemp\ccXENK9d.s 			page 108


 4099              		.loc 1 519 2 is_stmt 1 view .LVU1051
 519:lvgl/src/extra/libs/qrcode/qrcodegen.c **** 	assert(bits >> 15 == 0);
 4100              		.loc 1 519 25 is_stmt 0 view .LVU1052
 4101 003e 44EA8124 		orr	r4, r4, r1, lsl #10
 4102              	.LVL462:
 519:lvgl/src/extra/libs/qrcode/qrcodegen.c **** 	assert(bits >> 15 == 0);
 4103              		.loc 1 519 6 view .LVU1053
 4104 0042 45F21246 		movw	r6, #21522
 4105 0046 6640     		eors	r6, r6, r4
 4106              	.LVL463:
 520:lvgl/src/extra/libs/qrcode/qrcodegen.c **** 	
 4107              		.loc 1 520 2 is_stmt 1 view .LVU1054
 4108 0048 E413     		asrs	r4, r4, #15
 4109 004a 01D1     		bne	.L360
 4110              	.LBB106:
 523:lvgl/src/extra/libs/qrcode/qrcodegen.c **** 		setModule(qrcode, 8, i, getBit(bits, i));
 4111              		.loc 1 523 11 is_stmt 0 view .LVU1055
 4112 004c 2746     		mov	r7, r4
 4113 004e 11E0     		b	.L349
 4114              	.L360:
 4115              	.LBE106:
 520:lvgl/src/extra/libs/qrcode/qrcodegen.c **** 	
 4116              		.loc 1 520 2 discriminator 1 view .LVU1056
 4117 0050 3C4B     		ldr	r3, .L361+16
 4118 0052 3A4A     		ldr	r2, .L361+8
 4119              	.LVL464:
 520:lvgl/src/extra/libs/qrcode/qrcodegen.c **** 	
 4120              		.loc 1 520 2 discriminator 1 view .LVU1057
 4121 0054 4FF40271 		mov	r1, #520
 4122              	.LVL465:
 520:lvgl/src/extra/libs/qrcode/qrcodegen.c **** 	
 4123              		.loc 1 520 2 discriminator 1 view .LVU1058
 4124 0058 3948     		ldr	r0, .L361+12
 4125 005a FFF7FEFF 		bl	__assert_func
 4126              	.LVL466:
 4127              	.L350:
 4128              	.LBB107:
 524:lvgl/src/extra/libs/qrcode/qrcodegen.c **** 	setModule(qrcode, 8, 7, getBit(bits, 6));
 4129              		.loc 1 524 3 is_stmt 1 view .LVU1059
 4130 005e 3946     		mov	r1, r7
 4131 0060 3046     		mov	r0, r6
 4132 0062 FFF7FEFF 		bl	getBit
 4133              	.LVL467:
 4134 0066 0346     		mov	r3, r0
 524:lvgl/src/extra/libs/qrcode/qrcodegen.c **** 	setModule(qrcode, 8, 7, getBit(bits, 6));
 4135              		.loc 1 524 3 is_stmt 0 discriminator 1 view .LVU1060
 4136 0068 3A46     		mov	r2, r7
 4137 006a 0821     		movs	r1, #8
 4138 006c 2846     		mov	r0, r5
 4139 006e FFF7FEFF 		bl	setModule
 4140              	.LVL468:
 523:lvgl/src/extra/libs/qrcode/qrcodegen.c **** 		setModule(qrcode, 8, i, getBit(bits, i));
 4141              		.loc 1 523 27 is_stmt 1 discriminator 3 view .LVU1061
 4142 0072 0137     		adds	r7, r7, #1
 4143              	.LVL469:
 4144              	.L349:
 523:lvgl/src/extra/libs/qrcode/qrcodegen.c **** 		setModule(qrcode, 8, i, getBit(bits, i));
ARM GAS  C:\usertemp\ccXENK9d.s 			page 109


 4145              		.loc 1 523 20 discriminator 1 view .LVU1062
 4146 0074 052F     		cmp	r7, #5
 4147 0076 F2DD     		ble	.L350
 4148              	.LBE107:
 525:lvgl/src/extra/libs/qrcode/qrcodegen.c **** 	setModule(qrcode, 8, 8, getBit(bits, 7));
 4149              		.loc 1 525 2 view .LVU1063
 4150 0078 0621     		movs	r1, #6
 4151 007a 3046     		mov	r0, r6
 4152 007c FFF7FEFF 		bl	getBit
 4153              	.LVL470:
 4154 0080 0346     		mov	r3, r0
 525:lvgl/src/extra/libs/qrcode/qrcodegen.c **** 	setModule(qrcode, 8, 8, getBit(bits, 7));
 4155              		.loc 1 525 2 is_stmt 0 discriminator 1 view .LVU1064
 4156 0082 0722     		movs	r2, #7
 4157 0084 0821     		movs	r1, #8
 4158 0086 2846     		mov	r0, r5
 4159 0088 FFF7FEFF 		bl	setModule
 4160              	.LVL471:
 526:lvgl/src/extra/libs/qrcode/qrcodegen.c **** 	setModule(qrcode, 7, 8, getBit(bits, 8));
 4161              		.loc 1 526 2 is_stmt 1 view .LVU1065
 4162 008c 0721     		movs	r1, #7
 4163 008e 3046     		mov	r0, r6
 4164 0090 FFF7FEFF 		bl	getBit
 4165              	.LVL472:
 4166 0094 0346     		mov	r3, r0
 526:lvgl/src/extra/libs/qrcode/qrcodegen.c **** 	setModule(qrcode, 7, 8, getBit(bits, 8));
 4167              		.loc 1 526 2 is_stmt 0 discriminator 1 view .LVU1066
 4168 0096 0822     		movs	r2, #8
 4169 0098 1146     		mov	r1, r2
 4170 009a 2846     		mov	r0, r5
 4171 009c FFF7FEFF 		bl	setModule
 4172              	.LVL473:
 527:lvgl/src/extra/libs/qrcode/qrcodegen.c **** 	for (int i = 9; i < 15; i++)
 4173              		.loc 1 527 2 is_stmt 1 view .LVU1067
 4174 00a0 0821     		movs	r1, #8
 4175 00a2 3046     		mov	r0, r6
 4176 00a4 FFF7FEFF 		bl	getBit
 4177              	.LVL474:
 4178 00a8 0346     		mov	r3, r0
 527:lvgl/src/extra/libs/qrcode/qrcodegen.c **** 	for (int i = 9; i < 15; i++)
 4179              		.loc 1 527 2 is_stmt 0 discriminator 1 view .LVU1068
 4180 00aa 0822     		movs	r2, #8
 4181 00ac 0721     		movs	r1, #7
 4182 00ae 2846     		mov	r0, r5
 4183 00b0 FFF7FEFF 		bl	setModule
 4184              	.LVL475:
 528:lvgl/src/extra/libs/qrcode/qrcodegen.c **** 		setModule(qrcode, 14 - i, 8, getBit(bits, i));
 4185              		.loc 1 528 2 is_stmt 1 view .LVU1069
 4186              	.LBB108:
 528:lvgl/src/extra/libs/qrcode/qrcodegen.c **** 		setModule(qrcode, 14 - i, 8, getBit(bits, i));
 4187              		.loc 1 528 7 view .LVU1070
 528:lvgl/src/extra/libs/qrcode/qrcodegen.c **** 		setModule(qrcode, 14 - i, 8, getBit(bits, i));
 4188              		.loc 1 528 11 is_stmt 0 view .LVU1071
 4189 00b4 0927     		movs	r7, #9
 4190              	.LVL476:
 528:lvgl/src/extra/libs/qrcode/qrcodegen.c **** 		setModule(qrcode, 14 - i, 8, getBit(bits, i));
 4191              		.loc 1 528 2 view .LVU1072
ARM GAS  C:\usertemp\ccXENK9d.s 			page 110


 4192 00b6 0BE0     		b	.L351
 4193              	.LVL477:
 4194              	.L352:
 529:lvgl/src/extra/libs/qrcode/qrcodegen.c **** 	
 4195              		.loc 1 529 3 is_stmt 1 view .LVU1073
 4196 00b8 3946     		mov	r1, r7
 4197 00ba 3046     		mov	r0, r6
 4198 00bc FFF7FEFF 		bl	getBit
 4199              	.LVL478:
 4200 00c0 0346     		mov	r3, r0
 529:lvgl/src/extra/libs/qrcode/qrcodegen.c **** 	
 4201              		.loc 1 529 3 is_stmt 0 discriminator 1 view .LVU1074
 4202 00c2 0822     		movs	r2, #8
 4203 00c4 C7F10E01 		rsb	r1, r7, #14
 4204 00c8 2846     		mov	r0, r5
 4205 00ca FFF7FEFF 		bl	setModule
 4206              	.LVL479:
 528:lvgl/src/extra/libs/qrcode/qrcodegen.c **** 		setModule(qrcode, 14 - i, 8, getBit(bits, i));
 4207              		.loc 1 528 27 is_stmt 1 discriminator 3 view .LVU1075
 4208 00ce 0137     		adds	r7, r7, #1
 4209              	.LVL480:
 4210              	.L351:
 528:lvgl/src/extra/libs/qrcode/qrcodegen.c **** 		setModule(qrcode, 14 - i, 8, getBit(bits, i));
 4211              		.loc 1 528 20 discriminator 1 view .LVU1076
 4212 00d0 0E2F     		cmp	r7, #14
 4213 00d2 F1DD     		ble	.L352
 4214              	.LBE108:
 532:lvgl/src/extra/libs/qrcode/qrcodegen.c **** 	for (int i = 0; i < 8; i++)
 4215              		.loc 1 532 2 view .LVU1077
 532:lvgl/src/extra/libs/qrcode/qrcodegen.c **** 	for (int i = 0; i < 8; i++)
 4216              		.loc 1 532 15 is_stmt 0 view .LVU1078
 4217 00d4 2846     		mov	r0, r5
 4218 00d6 FFF7FEFF 		bl	qrcodegen_getSize
 4219              	.LVL481:
 4220 00da 8046     		mov	r8, r0
 4221              	.LVL482:
 533:lvgl/src/extra/libs/qrcode/qrcodegen.c **** 		setModule(qrcode, qrsize - 1 - i, 8, getBit(bits, i));
 4222              		.loc 1 533 2 is_stmt 1 view .LVU1079
 4223              	.LBB109:
 533:lvgl/src/extra/libs/qrcode/qrcodegen.c **** 		setModule(qrcode, qrsize - 1 - i, 8, getBit(bits, i));
 4224              		.loc 1 533 7 view .LVU1080
 533:lvgl/src/extra/libs/qrcode/qrcodegen.c **** 		setModule(qrcode, qrsize - 1 - i, 8, getBit(bits, i));
 4225              		.loc 1 533 2 is_stmt 0 view .LVU1081
 4226 00dc 0DE0     		b	.L353
 4227              	.LVL483:
 4228              	.L354:
 534:lvgl/src/extra/libs/qrcode/qrcodegen.c **** 	for (int i = 8; i < 15; i++)
 4229              		.loc 1 534 3 is_stmt 1 view .LVU1082
 534:lvgl/src/extra/libs/qrcode/qrcodegen.c **** 	for (int i = 8; i < 15; i++)
 4230              		.loc 1 534 28 is_stmt 0 view .LVU1083
 4231 00de 08F1FF37 		add	r7, r8, #-1
 534:lvgl/src/extra/libs/qrcode/qrcodegen.c **** 	for (int i = 8; i < 15; i++)
 4232              		.loc 1 534 3 view .LVU1084
 4233 00e2 3F1B     		subs	r7, r7, r4
 4234 00e4 2146     		mov	r1, r4
 4235 00e6 3046     		mov	r0, r6
 4236 00e8 FFF7FEFF 		bl	getBit
ARM GAS  C:\usertemp\ccXENK9d.s 			page 111


 4237              	.LVL484:
 4238 00ec 0346     		mov	r3, r0
 534:lvgl/src/extra/libs/qrcode/qrcodegen.c **** 	for (int i = 8; i < 15; i++)
 4239              		.loc 1 534 3 discriminator 1 view .LVU1085
 4240 00ee 0822     		movs	r2, #8
 4241 00f0 3946     		mov	r1, r7
 4242 00f2 2846     		mov	r0, r5
 4243 00f4 FFF7FEFF 		bl	setModule
 4244              	.LVL485:
 533:lvgl/src/extra/libs/qrcode/qrcodegen.c **** 		setModule(qrcode, qrsize - 1 - i, 8, getBit(bits, i));
 4245              		.loc 1 533 26 is_stmt 1 discriminator 3 view .LVU1086
 4246 00f8 0134     		adds	r4, r4, #1
 4247              	.LVL486:
 4248              	.L353:
 533:lvgl/src/extra/libs/qrcode/qrcodegen.c **** 		setModule(qrcode, qrsize - 1 - i, 8, getBit(bits, i));
 4249              		.loc 1 533 20 discriminator 1 view .LVU1087
 4250 00fa 072C     		cmp	r4, #7
 4251 00fc EFDD     		ble	.L354
 4252              	.LBE109:
 4253              	.LBB110:
 535:lvgl/src/extra/libs/qrcode/qrcodegen.c **** 		setModule(qrcode, 8, qrsize - 15 + i, getBit(bits, i));
 4254              		.loc 1 535 11 is_stmt 0 view .LVU1088
 4255 00fe 0824     		movs	r4, #8
 4256              	.LVL487:
 535:lvgl/src/extra/libs/qrcode/qrcodegen.c **** 		setModule(qrcode, 8, qrsize - 15 + i, getBit(bits, i));
 4257              		.loc 1 535 11 view .LVU1089
 4258 0100 0DE0     		b	.L355
 4259              	.LVL488:
 4260              	.L356:
 536:lvgl/src/extra/libs/qrcode/qrcodegen.c **** 	setModule(qrcode, 8, qrsize - 8, true);  // Always black
 4261              		.loc 1 536 3 is_stmt 1 view .LVU1090
 536:lvgl/src/extra/libs/qrcode/qrcodegen.c **** 	setModule(qrcode, 8, qrsize - 8, true);  // Always black
 4262              		.loc 1 536 31 is_stmt 0 view .LVU1091
 4263 0102 A8F10F07 		sub	r7, r8, #15
 536:lvgl/src/extra/libs/qrcode/qrcodegen.c **** 	setModule(qrcode, 8, qrsize - 8, true);  // Always black
 4264              		.loc 1 536 3 view .LVU1092
 4265 0106 2744     		add	r7, r7, r4
 4266 0108 2146     		mov	r1, r4
 4267 010a 3046     		mov	r0, r6
 4268 010c FFF7FEFF 		bl	getBit
 4269              	.LVL489:
 4270 0110 0346     		mov	r3, r0
 536:lvgl/src/extra/libs/qrcode/qrcodegen.c **** 	setModule(qrcode, 8, qrsize - 8, true);  // Always black
 4271              		.loc 1 536 3 discriminator 1 view .LVU1093
 4272 0112 3A46     		mov	r2, r7
 4273 0114 0821     		movs	r1, #8
 4274 0116 2846     		mov	r0, r5
 4275 0118 FFF7FEFF 		bl	setModule
 4276              	.LVL490:
 535:lvgl/src/extra/libs/qrcode/qrcodegen.c **** 		setModule(qrcode, 8, qrsize - 15 + i, getBit(bits, i));
 4277              		.loc 1 535 27 is_stmt 1 discriminator 3 view .LVU1094
 4278 011c 0134     		adds	r4, r4, #1
 4279              	.LVL491:
 4280              	.L355:
 535:lvgl/src/extra/libs/qrcode/qrcodegen.c **** 		setModule(qrcode, 8, qrsize - 15 + i, getBit(bits, i));
 4281              		.loc 1 535 20 discriminator 1 view .LVU1095
 4282 011e 0E2C     		cmp	r4, #14
ARM GAS  C:\usertemp\ccXENK9d.s 			page 112


 4283 0120 EFDD     		ble	.L356
 4284              	.LBE110:
 537:lvgl/src/extra/libs/qrcode/qrcodegen.c **** }
 4285              		.loc 1 537 2 view .LVU1096
 4286 0122 0123     		movs	r3, #1
 4287 0124 A8F10802 		sub	r2, r8, #8
 4288 0128 0821     		movs	r1, #8
 4289 012a 2846     		mov	r0, r5
 4290 012c FFF7FEFF 		bl	setModule
 4291              	.LVL492:
 538:lvgl/src/extra/libs/qrcode/qrcodegen.c **** 
 4292              		.loc 1 538 1 is_stmt 0 view .LVU1097
 4293 0130 BDE8F081 		pop	{r4, r5, r6, r7, r8, pc}
 4294              	.LVL493:
 4295              	.L362:
 538:lvgl/src/extra/libs/qrcode/qrcodegen.c **** 
 4296              		.loc 1 538 1 view .LVU1098
 4297              		.align	2
 4298              	.L361:
 4299 0134 00000000 		.word	table.9
 4300 0138 00000000 		.word	.LC19
 4301 013c 00000000 		.word	__func__.10
 4302 0140 08000000 		.word	.LC1
 4303 0144 00000000 		.word	.LC20
 4304              		.cfi_endproc
 4305              	.LFE13:
 4307              		.section	.rodata.qrcodegen_encodeSegmentsAdvanced.str1.4,"aMS",%progbits,1
 4308              		.align	2
 4309              	.LC21:
 4310 0000 7172636F 		.ascii	"qrcodegen_VERSION_MIN <= minVersion && minVersion <"
 4310      64656765 
 4310      6E5F5645 
 4310      5253494F 
 4310      4E5F4D49 
 4311 0033 3D206D61 		.ascii	"= maxVersion && maxVersion <= qrcodegen_VERSION_MAX"
 4311      78566572 
 4311      73696F6E 
 4311      20262620 
 4311      6D617856 
 4312 0066 00       		.ascii	"\000"
 4313 0067 00       		.align	2
 4314              	.LC22:
 4315 0068 30203C3D 		.ascii	"0 <= (int)ecl && (int)ecl <= 3 && -1 <= (int)mask &"
 4315      2028696E 
 4315      74296563 
 4315      6C202626 
 4315      2028696E 
 4316 009b 26202869 		.ascii	"& (int)mask <= 7\000"
 4316      6E74296D 
 4316      61736B20 
 4316      3C3D2037 
 4316      00
 4317              		.align	2
 4318              	.LC23:
 4319 00ac 64617461 		.ascii	"dataUsedBits != -1\000"
 4319      55736564 
 4319      42697473 
ARM GAS  C:\usertemp\ccXENK9d.s 			page 113


 4319      20213D20 
 4319      2D3100
 4320 00bf 00       		.align	2
 4321              	.LC24:
 4322 00c0 6269744C 		.ascii	"bitLen == dataUsedBits\000"
 4322      656E203D 
 4322      3D206461 
 4322      74615573 
 4322      65644269 
 4323 00d7 00       		.align	2
 4324              	.LC25:
 4325 00d8 6269744C 		.ascii	"bitLen <= dataCapacityBits\000"
 4325      656E203C 
 4325      3D206461 
 4325      74614361 
 4325      70616369 
 4326 00f3 00       		.align	2
 4327              	.LC26:
 4328 00f4 6269744C 		.ascii	"bitLen % 8 == 0\000"
 4328      656E2025 
 4328      2038203D 
 4328      3D203000 
 4329              		.section	.text.qrcodegen_encodeSegmentsAdvanced,"ax",%progbits
 4330              		.align	1
 4331              		.global	qrcodegen_encodeSegmentsAdvanced
 4332              		.syntax unified
 4333              		.thumb
 4334              		.thumb_func
 4336              	qrcodegen_encodeSegmentsAdvanced:
 4337              	.LVL494:
 4338              	.LFB4:
 204:lvgl/src/extra/libs/qrcode/qrcodegen.c **** 	assert(segs != NULL || len == 0);
 4339              		.loc 1 204 100 is_stmt 1 view -0
 4340              		.cfi_startproc
 4341              		@ args = 20, pretend = 0, frame = 24
 4342              		@ frame_needed = 0, uses_anonymous_args = 0
 204:lvgl/src/extra/libs/qrcode/qrcodegen.c **** 	assert(segs != NULL || len == 0);
 4343              		.loc 1 204 100 is_stmt 0 view .LVU1100
 4344 0000 2DE9F04F 		push	{r4, r5, r6, r7, r8, r9, r10, fp, lr}
 4345              	.LCFI44:
 4346              		.cfi_def_cfa_offset 36
 4347              		.cfi_offset 4, -36
 4348              		.cfi_offset 5, -32
 4349              		.cfi_offset 6, -28
 4350              		.cfi_offset 7, -24
 4351              		.cfi_offset 8, -20
 4352              		.cfi_offset 9, -16
 4353              		.cfi_offset 10, -12
 4354              		.cfi_offset 11, -8
 4355              		.cfi_offset 14, -4
 4356 0004 87B0     		sub	sp, sp, #28
 4357              	.LCFI45:
 4358              		.cfi_def_cfa_offset 64
 4359 0006 0192     		str	r2, [sp, #4]
 4360 0008 DDF840A0 		ldr	r10, [sp, #64]
 4361 000c 9DF84870 		ldrb	r7, [sp, #72]	@ zero_extendqisi2
 4362 0010 149D     		ldr	r5, [sp, #80]
ARM GAS  C:\usertemp\ccXENK9d.s 			page 114


 205:lvgl/src/extra/libs/qrcode/qrcodegen.c **** 	assert(qrcodegen_VERSION_MIN <= minVersion && minVersion <= maxVersion && maxVersion <= qrcodegen_
 4363              		.loc 1 205 2 is_stmt 1 view .LVU1101
 4364 0012 8146     		mov	r9, r0
 4365 0014 B0FA80F0 		clz	r0, r0
 4366              	.LVL495:
 205:lvgl/src/extra/libs/qrcode/qrcodegen.c **** 	assert(qrcodegen_VERSION_MIN <= minVersion && minVersion <= maxVersion && maxVersion <= qrcodegen_
 4367              		.loc 1 205 2 is_stmt 0 view .LVU1102
 4368 0018 4009     		lsrs	r0, r0, #5
 4369 001a 0029     		cmp	r1, #0
 4370 001c 08BF     		it	eq
 4371 001e 0020     		moveq	r0, #0
 4372 0020 F0B9     		cbnz	r0, .L398
 4373 0022 1E46     		mov	r6, r3
 4374 0024 8B46     		mov	fp, r1
 206:lvgl/src/extra/libs/qrcode/qrcodegen.c **** 	assert(0 <= (int)ecl && (int)ecl <= 3 && -1 <= (int)mask && (int)mask <= 7);
 4375              		.loc 1 206 2 is_stmt 1 view .LVU1103
 4376 0026 5345     		cmp	r3, r10
 4377 0028 D4BF     		ite	le
 4378 002a 0023     		movle	r3, #0
 4379              	.LVL496:
 206:lvgl/src/extra/libs/qrcode/qrcodegen.c **** 	assert(0 <= (int)ecl && (int)ecl <= 3 && -1 <= (int)mask && (int)mask <= 7);
 4380              		.loc 1 206 2 is_stmt 0 view .LVU1104
 4381 002c 0123     		movgt	r3, #1
 4382 002e 002E     		cmp	r6, #0
 4383 0030 D8BF     		it	le
 4384 0032 43F00103 		orrle	r3, r3, #1
 4385 0036 CBB9     		cbnz	r3, .L365
 206:lvgl/src/extra/libs/qrcode/qrcodegen.c **** 	assert(0 <= (int)ecl && (int)ecl <= 3 && -1 <= (int)mask && (int)mask <= 7);
 4386              		.loc 1 206 2 discriminator 2 view .LVU1105
 4387 0038 BAF1280F 		cmp	r10, #40
 4388 003c 16DC     		bgt	.L365
 207:lvgl/src/extra/libs/qrcode/qrcodegen.c **** 	
 4389              		.loc 1 207 2 is_stmt 1 view .LVU1106
 4390 003e 119B     		ldr	r3, [sp, #68]
 4391 0040 B3F1FF3F 		cmp	r3, #-1
 4392 0044 ACBF     		ite	ge
 4393 0046 0023     		movge	r3, #0
 4394 0048 0123     		movlt	r3, #1
 4395 004a 019A     		ldr	r2, [sp, #4]
 207:lvgl/src/extra/libs/qrcode/qrcodegen.c **** 	
 4396              		.loc 1 207 2 is_stmt 0 view .LVU1107
 4397 004c 032A     		cmp	r2, #3
 4398 004e 88BF     		it	hi
 4399 0050 43F00103 		orrhi	r3, r3, #1
 4400 0054 83B9     		cbnz	r3, .L367
 207:lvgl/src/extra/libs/qrcode/qrcodegen.c **** 	
 4401              		.loc 1 207 2 discriminator 2 view .LVU1108
 4402 0056 119B     		ldr	r3, [sp, #68]
 4403 0058 072B     		cmp	r3, #7
 4404 005a 0DDC     		bgt	.L367
 4405 005c 019C     		ldr	r4, [sp, #4]
 4406 005e 12E0     		b	.L368
 4407              	.LVL497:
 4408              	.L398:
 205:lvgl/src/extra/libs/qrcode/qrcodegen.c **** 	assert(qrcodegen_VERSION_MIN <= minVersion && minVersion <= maxVersion && maxVersion <= qrcodegen_
 4409              		.loc 1 205 2 discriminator 1 view .LVU1109
 4410 0060 A04B     		ldr	r3, .L409
ARM GAS  C:\usertemp\ccXENK9d.s 			page 115


 4411              	.LVL498:
 205:lvgl/src/extra/libs/qrcode/qrcodegen.c **** 	assert(qrcodegen_VERSION_MIN <= minVersion && minVersion <= maxVersion && maxVersion <= qrcodegen_
 4412              		.loc 1 205 2 discriminator 1 view .LVU1110
 4413 0062 A14A     		ldr	r2, .L409+4
 4414              	.LVL499:
 205:lvgl/src/extra/libs/qrcode/qrcodegen.c **** 	assert(qrcodegen_VERSION_MIN <= minVersion && minVersion <= maxVersion && maxVersion <= qrcodegen_
 4415              		.loc 1 205 2 discriminator 1 view .LVU1111
 4416 0064 CD21     		movs	r1, #205
 4417              	.LVL500:
 205:lvgl/src/extra/libs/qrcode/qrcodegen.c **** 	assert(qrcodegen_VERSION_MIN <= minVersion && minVersion <= maxVersion && maxVersion <= qrcodegen_
 4418              		.loc 1 205 2 discriminator 1 view .LVU1112
 4419 0066 A148     		ldr	r0, .L409+8
 4420 0068 FFF7FEFF 		bl	__assert_func
 4421              	.LVL501:
 4422              	.L365:
 206:lvgl/src/extra/libs/qrcode/qrcodegen.c **** 	assert(0 <= (int)ecl && (int)ecl <= 3 && -1 <= (int)mask && (int)mask <= 7);
 4423              		.loc 1 206 2 discriminator 3 view .LVU1113
 4424 006c A04B     		ldr	r3, .L409+12
 4425 006e 9E4A     		ldr	r2, .L409+4
 4426              	.LVL502:
 206:lvgl/src/extra/libs/qrcode/qrcodegen.c **** 	assert(0 <= (int)ecl && (int)ecl <= 3 && -1 <= (int)mask && (int)mask <= 7);
 4427              		.loc 1 206 2 discriminator 3 view .LVU1114
 4428 0070 CE21     		movs	r1, #206
 4429              	.LVL503:
 206:lvgl/src/extra/libs/qrcode/qrcodegen.c **** 	assert(0 <= (int)ecl && (int)ecl <= 3 && -1 <= (int)mask && (int)mask <= 7);
 4430              		.loc 1 206 2 discriminator 3 view .LVU1115
 4431 0072 9E48     		ldr	r0, .L409+8
 4432 0074 FFF7FEFF 		bl	__assert_func
 4433              	.LVL504:
 4434              	.L367:
 207:lvgl/src/extra/libs/qrcode/qrcodegen.c **** 	
 4435              		.loc 1 207 2 discriminator 3 view .LVU1116
 4436 0078 9E4B     		ldr	r3, .L409+16
 4437 007a 9B4A     		ldr	r2, .L409+4
 4438              	.LVL505:
 207:lvgl/src/extra/libs/qrcode/qrcodegen.c **** 	
 4439              		.loc 1 207 2 discriminator 3 view .LVU1117
 4440 007c CF21     		movs	r1, #207
 4441              	.LVL506:
 207:lvgl/src/extra/libs/qrcode/qrcodegen.c **** 	
 4442              		.loc 1 207 2 discriminator 3 view .LVU1118
 4443 007e 9B48     		ldr	r0, .L409+8
 4444 0080 FFF7FEFF 		bl	__assert_func
 4445              	.LVL507:
 4446              	.L370:
 211:lvgl/src/extra/libs/qrcode/qrcodegen.c **** 		int dataCapacityBits = getNumDataCodewords(version, ecl) * 8;  // Number of data bits available
 4447              		.loc 1 211 38 is_stmt 1 view .LVU1119
 4448 0084 0136     		adds	r6, r6, #1
 4449              	.LVL508:
 211:lvgl/src/extra/libs/qrcode/qrcodegen.c **** 		int dataCapacityBits = getNumDataCodewords(version, ecl) * 8;  // Number of data bits available
 4450              		.loc 1 211 2 view .LVU1120
 4451              	.L368:
 4452              	.LBB111:
 212:lvgl/src/extra/libs/qrcode/qrcodegen.c **** 		dataUsedBits = getTotalBits(segs, len, version);
 4453              		.loc 1 212 3 view .LVU1121
 212:lvgl/src/extra/libs/qrcode/qrcodegen.c **** 		dataUsedBits = getTotalBits(segs, len, version);
 4454              		.loc 1 212 26 is_stmt 0 view .LVU1122
ARM GAS  C:\usertemp\ccXENK9d.s 			page 116


 4455 0086 2146     		mov	r1, r4
 4456 0088 3046     		mov	r0, r6
 4457 008a FFF7FEFF 		bl	getNumDataCodewords
 4458              	.LVL509:
 212:lvgl/src/extra/libs/qrcode/qrcodegen.c **** 		dataUsedBits = getTotalBits(segs, len, version);
 4459              		.loc 1 212 7 discriminator 1 view .LVU1123
 4460 008e 4FEAC008 		lsl	r8, r0, #3
 4461              	.LVL510:
 213:lvgl/src/extra/libs/qrcode/qrcodegen.c **** 		if (dataUsedBits != -1 && dataUsedBits <= dataCapacityBits)
 4462              		.loc 1 213 3 is_stmt 1 view .LVU1124
 213:lvgl/src/extra/libs/qrcode/qrcodegen.c **** 		if (dataUsedBits != -1 && dataUsedBits <= dataCapacityBits)
 4463              		.loc 1 213 18 is_stmt 0 view .LVU1125
 4464 0092 3246     		mov	r2, r6
 4465 0094 5946     		mov	r1, fp
 4466 0096 4846     		mov	r0, r9
 4467 0098 FFF7FEFF 		bl	getTotalBits
 4468              	.LVL511:
 214:lvgl/src/extra/libs/qrcode/qrcodegen.c **** 			break;  // This version number is found to be suitable
 4469              		.loc 1 214 3 is_stmt 1 view .LVU1126
 214:lvgl/src/extra/libs/qrcode/qrcodegen.c **** 			break;  // This version number is found to be suitable
 4470              		.loc 1 214 26 is_stmt 0 view .LVU1127
 4471 009c 431C     		adds	r3, r0, #1
 4472 009e 18BF     		it	ne
 4473 00a0 0123     		movne	r3, #1
 4474 00a2 8045     		cmp	r8, r0
 4475 00a4 B8BF     		it	lt
 4476 00a6 0023     		movlt	r3, #0
 214:lvgl/src/extra/libs/qrcode/qrcodegen.c **** 			break;  // This version number is found to be suitable
 4477              		.loc 1 214 6 view .LVU1128
 4478 00a8 23B9     		cbnz	r3, .L369
 216:lvgl/src/extra/libs/qrcode/qrcodegen.c **** 			qrcode[0] = 0;  // Set size to invalid value for safety
 4479              		.loc 1 216 3 is_stmt 1 view .LVU1129
 216:lvgl/src/extra/libs/qrcode/qrcodegen.c **** 			qrcode[0] = 0;  // Set size to invalid value for safety
 4480              		.loc 1 216 6 is_stmt 0 view .LVU1130
 4481 00aa 5645     		cmp	r6, r10
 4482 00ac EADB     		blt	.L370
 217:lvgl/src/extra/libs/qrcode/qrcodegen.c **** 			return false;
 4483              		.loc 1 217 14 view .LVU1131
 4484 00ae 1C46     		mov	r4, r3
 4485              	.LVL512:
 217:lvgl/src/extra/libs/qrcode/qrcodegen.c **** 			return false;
 4486              		.loc 1 217 4 is_stmt 1 view .LVU1132
 217:lvgl/src/extra/libs/qrcode/qrcodegen.c **** 			return false;
 4487              		.loc 1 217 14 is_stmt 0 view .LVU1133
 4488 00b0 2B70     		strb	r3, [r5]
 218:lvgl/src/extra/libs/qrcode/qrcodegen.c **** 		}
 4489              		.loc 1 218 4 is_stmt 1 view .LVU1134
 218:lvgl/src/extra/libs/qrcode/qrcodegen.c **** 		}
 4490              		.loc 1 218 11 is_stmt 0 view .LVU1135
 4491 00b2 E5E0     		b	.L371
 4492              	.LVL513:
 4493              	.L369:
 218:lvgl/src/extra/libs/qrcode/qrcodegen.c **** 		}
 4494              		.loc 1 218 11 view .LVU1136
 4495              	.LBE111:
 221:lvgl/src/extra/libs/qrcode/qrcodegen.c **** 	
 4496              		.loc 1 221 2 view .LVU1137
ARM GAS  C:\usertemp\ccXENK9d.s 			page 117


 4497 00b4 0290     		str	r0, [sp, #8]
 4498 00b6 1C46     		mov	r4, r3
 4499              	.LVL514:
 221:lvgl/src/extra/libs/qrcode/qrcodegen.c **** 	
 4500              		.loc 1 221 2 is_stmt 1 view .LVU1138
 4501 00b8 B0F1FF3F 		cmp	r0, #-1
 4502 00bc 02D0     		beq	.L399
 4503              	.LBB112:
 224:lvgl/src/extra/libs/qrcode/qrcodegen.c **** 		if (boostEcl && dataUsedBits <= getNumDataCodewords(version, (enum qrcodegen_Ecc)i) * 8)
 4504              		.loc 1 224 11 is_stmt 0 view .LVU1139
 4505 00be 4FF00108 		mov	r8, #1
 4506              	.LVL515:
 224:lvgl/src/extra/libs/qrcode/qrcodegen.c **** 		if (boostEcl && dataUsedBits <= getNumDataCodewords(version, (enum qrcodegen_Ecc)i) * 8)
 4507              		.loc 1 224 11 view .LVU1140
 4508 00c2 07E0     		b	.L372
 4509              	.LVL516:
 4510              	.L399:
 224:lvgl/src/extra/libs/qrcode/qrcodegen.c **** 		if (boostEcl && dataUsedBits <= getNumDataCodewords(version, (enum qrcodegen_Ecc)i) * 8)
 4511              		.loc 1 224 11 view .LVU1141
 4512              	.LBE112:
 221:lvgl/src/extra/libs/qrcode/qrcodegen.c **** 	
 4513              		.loc 1 221 2 discriminator 1 view .LVU1142
 4514 00c4 8C4B     		ldr	r3, .L409+20
 4515 00c6 884A     		ldr	r2, .L409+4
 4516 00c8 DD21     		movs	r1, #221
 4517 00ca 8848     		ldr	r0, .L409+8
 4518              	.LVL517:
 221:lvgl/src/extra/libs/qrcode/qrcodegen.c **** 	
 4519              		.loc 1 221 2 discriminator 1 view .LVU1143
 4520 00cc FFF7FEFF 		bl	__assert_func
 4521              	.LVL518:
 4522              	.L373:
 4523              	.LBB113:
 224:lvgl/src/extra/libs/qrcode/qrcodegen.c **** 		if (boostEcl && dataUsedBits <= getNumDataCodewords(version, (enum qrcodegen_Ecc)i) * 8)
 4524              		.loc 1 224 73 is_stmt 1 discriminator 2 view .LVU1144
 4525 00d0 08F10108 		add	r8, r8, #1
 4526              	.LVL519:
 4527              	.L372:
 224:lvgl/src/extra/libs/qrcode/qrcodegen.c **** 		if (boostEcl && dataUsedBits <= getNumDataCodewords(version, (enum qrcodegen_Ecc)i) * 8)
 4528              		.loc 1 224 44 discriminator 1 view .LVU1145
 4529 00d4 B8F1030F 		cmp	r8, #3
 4530 00d8 0EDC     		bgt	.L400
 225:lvgl/src/extra/libs/qrcode/qrcodegen.c **** 			ecl = (enum qrcodegen_Ecc)i;
 4531              		.loc 1 225 3 view .LVU1146
 225:lvgl/src/extra/libs/qrcode/qrcodegen.c **** 			ecl = (enum qrcodegen_Ecc)i;
 4532              		.loc 1 225 6 is_stmt 0 view .LVU1147
 4533 00da 002F     		cmp	r7, #0
 4534 00dc F8D0     		beq	.L373
 225:lvgl/src/extra/libs/qrcode/qrcodegen.c **** 			ecl = (enum qrcodegen_Ecc)i;
 4535              		.loc 1 225 35 discriminator 1 view .LVU1148
 4536 00de 5FFA88FA 		uxtb	r10, r8
 4537 00e2 5146     		mov	r1, r10
 4538 00e4 3046     		mov	r0, r6
 4539 00e6 FFF7FEFF 		bl	getNumDataCodewords
 4540              	.LVL520:
 225:lvgl/src/extra/libs/qrcode/qrcodegen.c **** 			ecl = (enum qrcodegen_Ecc)i;
 4541              		.loc 1 225 16 discriminator 1 view .LVU1149
ARM GAS  C:\usertemp\ccXENK9d.s 			page 118


 4542 00ea 029B     		ldr	r3, [sp, #8]
 4543 00ec B3EBC00F 		cmp	r3, r0, lsl #3
 4544 00f0 EEDC     		bgt	.L373
 226:lvgl/src/extra/libs/qrcode/qrcodegen.c **** 	}
 4545              		.loc 1 226 8 view .LVU1150
 4546 00f2 CDF804A0 		str	r10, [sp, #4]
 4547              	.LVL521:
 226:lvgl/src/extra/libs/qrcode/qrcodegen.c **** 	}
 4548              		.loc 1 226 8 view .LVU1151
 4549 00f6 EBE7     		b	.L373
 4550              	.LVL522:
 4551              	.L400:
 226:lvgl/src/extra/libs/qrcode/qrcodegen.c **** 	}
 4552              		.loc 1 226 8 view .LVU1152
 4553              	.LBE113:
 230:lvgl/src/extra/libs/qrcode/qrcodegen.c **** 	int bitLen = 0;
 4554              		.loc 1 230 2 is_stmt 1 view .LVU1153
 230:lvgl/src/extra/libs/qrcode/qrcodegen.c **** 	int bitLen = 0;
 4555              		.loc 1 230 20 is_stmt 0 view .LVU1154
 4556 00f8 B300     		lsls	r3, r6, #2
 4557 00fa 1133     		adds	r3, r3, #17
 4558 00fc 03FB03F3 		mul	r3, r3, r3
 4559 0100 0733     		adds	r3, r3, #7
 4560 0102 0BD4     		bmi	.L401
 4561              	.L375:
 4562 0104 DB10     		asrs	r3, r3, #3
 230:lvgl/src/extra/libs/qrcode/qrcodegen.c **** 	int bitLen = 0;
 4563              		.loc 1 230 2 view .LVU1155
 4564 0106 5A1C     		adds	r2, r3, #1
 4565 0108 0021     		movs	r1, #0
 4566 010a 2846     		mov	r0, r5
 4567 010c FFF7FEFF 		bl	memset
 4568              	.LVL523:
 231:lvgl/src/extra/libs/qrcode/qrcodegen.c **** 	for (size_t i = 0; i < len; i++) {
 4569              		.loc 1 231 2 is_stmt 1 view .LVU1156
 231:lvgl/src/extra/libs/qrcode/qrcodegen.c **** 	for (size_t i = 0; i < len; i++) {
 4570              		.loc 1 231 6 is_stmt 0 view .LVU1157
 4571 0110 0023     		movs	r3, #0
 4572 0112 0593     		str	r3, [sp, #20]
 232:lvgl/src/extra/libs/qrcode/qrcodegen.c **** 		const struct qrcodegen_Segment *seg = &segs[i];
 4573              		.loc 1 232 2 is_stmt 1 view .LVU1158
 4574              	.LBB114:
 232:lvgl/src/extra/libs/qrcode/qrcodegen.c **** 		const struct qrcodegen_Segment *seg = &segs[i];
 4575              		.loc 1 232 7 view .LVU1159
 4576              	.LVL524:
 232:lvgl/src/extra/libs/qrcode/qrcodegen.c **** 		const struct qrcodegen_Segment *seg = &segs[i];
 4577              		.loc 1 232 14 is_stmt 0 view .LVU1160
 4578 0114 9846     		mov	r8, r3
 4579              	.LVL525:
 232:lvgl/src/extra/libs/qrcode/qrcodegen.c **** 		const struct qrcodegen_Segment *seg = &segs[i];
 4580              		.loc 1 232 14 view .LVU1161
 4581 0116 0394     		str	r4, [sp, #12]
 4582 0118 B246     		mov	r10, r6
 232:lvgl/src/extra/libs/qrcode/qrcodegen.c **** 		const struct qrcodegen_Segment *seg = &segs[i];
 4583              		.loc 1 232 2 view .LVU1162
 4584 011a 14E0     		b	.L376
 4585              	.LVL526:
ARM GAS  C:\usertemp\ccXENK9d.s 			page 119


 4586              	.L401:
 232:lvgl/src/extra/libs/qrcode/qrcodegen.c **** 		const struct qrcodegen_Segment *seg = &segs[i];
 4587              		.loc 1 232 2 view .LVU1163
 4588              	.LBE114:
 230:lvgl/src/extra/libs/qrcode/qrcodegen.c **** 	int bitLen = 0;
 4589              		.loc 1 230 20 view .LVU1164
 4590 011c 0733     		adds	r3, r3, #7
 4591 011e F1E7     		b	.L375
 4592              	.LVL527:
 4593              	.L378:
 4594              	.LBB119:
 4595              	.LBB115:
 4596              	.LBB116:
 237:lvgl/src/extra/libs/qrcode/qrcodegen.c **** 	}
 4597              		.loc 1 237 4 is_stmt 1 view .LVU1165
 237:lvgl/src/extra/libs/qrcode/qrcodegen.c **** 	}
 4598              		.loc 1 237 27 is_stmt 0 view .LVU1166
 4599 0120 A268     		ldr	r2, [r4, #8]
 237:lvgl/src/extra/libs/qrcode/qrcodegen.c **** 	}
 4600              		.loc 1 237 36 view .LVU1167
 4601 0122 F310     		asrs	r3, r6, #3
 237:lvgl/src/extra/libs/qrcode/qrcodegen.c **** 	}
 4602              		.loc 1 237 33 view .LVU1168
 4603 0124 D05C     		ldrb	r0, [r2, r3]	@ zero_extendqisi2
 237:lvgl/src/extra/libs/qrcode/qrcodegen.c **** 	}
 4604              		.loc 1 237 48 view .LVU1169
 4605 0126 F343     		mvns	r3, r6
 4606 0128 03F00703 		and	r3, r3, #7
 237:lvgl/src/extra/libs/qrcode/qrcodegen.c **** 	}
 4607              		.loc 1 237 42 view .LVU1170
 4608 012c 1841     		asrs	r0, r0, r3
 237:lvgl/src/extra/libs/qrcode/qrcodegen.c **** 	}
 4609              		.loc 1 237 4 view .LVU1171
 4610 012e 05AB     		add	r3, sp, #20
 4611 0130 2A46     		mov	r2, r5
 4612 0132 0121     		movs	r1, #1
 4613 0134 0840     		ands	r0, r0, r1
 4614 0136 FFF7FEFF 		bl	appendBitsToBuffer
 4615              	.LVL528:
 236:lvgl/src/extra/libs/qrcode/qrcodegen.c **** 			appendBitsToBuffer((seg->data[j >> 3] >> (7 - (j & 7))) & 1, 1, qrcode, &bitLen);
 4616              		.loc 1 236 40 is_stmt 1 discriminator 3 view .LVU1172
 4617 013a 0136     		adds	r6, r6, #1
 4618              	.LVL529:
 4619              	.L377:
 236:lvgl/src/extra/libs/qrcode/qrcodegen.c **** 			appendBitsToBuffer((seg->data[j >> 3] >> (7 - (j & 7))) & 1, 1, qrcode, &bitLen);
 4620              		.loc 1 236 21 discriminator 1 view .LVU1173
 236:lvgl/src/extra/libs/qrcode/qrcodegen.c **** 			appendBitsToBuffer((seg->data[j >> 3] >> (7 - (j & 7))) & 1, 1, qrcode, &bitLen);
 4621              		.loc 1 236 26 is_stmt 0 discriminator 1 view .LVU1174
 4622 013c E368     		ldr	r3, [r4, #12]
 236:lvgl/src/extra/libs/qrcode/qrcodegen.c **** 			appendBitsToBuffer((seg->data[j >> 3] >> (7 - (j & 7))) & 1, 1, qrcode, &bitLen);
 4623              		.loc 1 236 21 discriminator 1 view .LVU1175
 4624 013e B342     		cmp	r3, r6
 4625 0140 EEDC     		bgt	.L378
 236:lvgl/src/extra/libs/qrcode/qrcodegen.c **** 			appendBitsToBuffer((seg->data[j >> 3] >> (7 - (j & 7))) & 1, 1, qrcode, &bitLen);
 4626              		.loc 1 236 21 discriminator 1 view .LVU1176
 4627              	.LBE116:
 4628              	.LBE115:
ARM GAS  C:\usertemp\ccXENK9d.s 			page 120


 232:lvgl/src/extra/libs/qrcode/qrcodegen.c **** 		const struct qrcodegen_Segment *seg = &segs[i];
 4629              		.loc 1 232 31 is_stmt 1 discriminator 2 view .LVU1177
 4630 0142 08F10108 		add	r8, r8, #1
 4631              	.LVL530:
 4632              	.L376:
 232:lvgl/src/extra/libs/qrcode/qrcodegen.c **** 		const struct qrcodegen_Segment *seg = &segs[i];
 4633              		.loc 1 232 23 discriminator 1 view .LVU1178
 4634 0146 D845     		cmp	r8, fp
 4635 0148 18D2     		bcs	.L402
 4636              	.LBB118:
 233:lvgl/src/extra/libs/qrcode/qrcodegen.c **** 		appendBitsToBuffer((int)seg->mode, 4, qrcode, &bitLen);
 4637              		.loc 1 233 3 view .LVU1179
 233:lvgl/src/extra/libs/qrcode/qrcodegen.c **** 		appendBitsToBuffer((int)seg->mode, 4, qrcode, &bitLen);
 4638              		.loc 1 233 46 is_stmt 0 view .LVU1180
 4639 014a 4FEA0817 		lsl	r7, r8, #4
 233:lvgl/src/extra/libs/qrcode/qrcodegen.c **** 		appendBitsToBuffer((int)seg->mode, 4, qrcode, &bitLen);
 4640              		.loc 1 233 35 view .LVU1181
 4641 014e 09EB0814 		add	r4, r9, r8, lsl #4
 4642              	.LVL531:
 234:lvgl/src/extra/libs/qrcode/qrcodegen.c **** 		appendBitsToBuffer(seg->numChars, numCharCountBits(seg->mode, version), qrcode, &bitLen);
 4643              		.loc 1 234 3 is_stmt 1 view .LVU1182
 4644 0152 05AB     		add	r3, sp, #20
 4645 0154 2A46     		mov	r2, r5
 4646 0156 0421     		movs	r1, #4
 4647 0158 19F80700 		ldrb	r0, [r9, r7]	@ zero_extendqisi2
 4648 015c FFF7FEFF 		bl	appendBitsToBuffer
 4649              	.LVL532:
 235:lvgl/src/extra/libs/qrcode/qrcodegen.c **** 		for (int j = 0; j < seg->bitLength; j++)
 4650              		.loc 1 235 3 view .LVU1183
 235:lvgl/src/extra/libs/qrcode/qrcodegen.c **** 		for (int j = 0; j < seg->bitLength; j++)
 4651              		.loc 1 235 25 is_stmt 0 view .LVU1184
 4652 0160 6668     		ldr	r6, [r4, #4]
 235:lvgl/src/extra/libs/qrcode/qrcodegen.c **** 		for (int j = 0; j < seg->bitLength; j++)
 4653              		.loc 1 235 3 view .LVU1185
 4654 0162 5146     		mov	r1, r10
 4655 0164 19F80700 		ldrb	r0, [r9, r7]	@ zero_extendqisi2
 4656 0168 FFF7FEFF 		bl	numCharCountBits
 4657              	.LVL533:
 4658 016c 0146     		mov	r1, r0
 235:lvgl/src/extra/libs/qrcode/qrcodegen.c **** 		for (int j = 0; j < seg->bitLength; j++)
 4659              		.loc 1 235 3 discriminator 1 view .LVU1186
 4660 016e 05AB     		add	r3, sp, #20
 4661 0170 2A46     		mov	r2, r5
 4662 0172 3046     		mov	r0, r6
 4663 0174 FFF7FEFF 		bl	appendBitsToBuffer
 4664              	.LVL534:
 236:lvgl/src/extra/libs/qrcode/qrcodegen.c **** 			appendBitsToBuffer((seg->data[j >> 3] >> (7 - (j & 7))) & 1, 1, qrcode, &bitLen);
 4665              		.loc 1 236 3 is_stmt 1 view .LVU1187
 4666              	.LBB117:
 236:lvgl/src/extra/libs/qrcode/qrcodegen.c **** 			appendBitsToBuffer((seg->data[j >> 3] >> (7 - (j & 7))) & 1, 1, qrcode, &bitLen);
 4667              		.loc 1 236 8 view .LVU1188
 236:lvgl/src/extra/libs/qrcode/qrcodegen.c **** 			appendBitsToBuffer((seg->data[j >> 3] >> (7 - (j & 7))) & 1, 1, qrcode, &bitLen);
 4668              		.loc 1 236 12 is_stmt 0 view .LVU1189
 4669 0178 0026     		movs	r6, #0
 236:lvgl/src/extra/libs/qrcode/qrcodegen.c **** 			appendBitsToBuffer((seg->data[j >> 3] >> (7 - (j & 7))) & 1, 1, qrcode, &bitLen);
 4670              		.loc 1 236 3 view .LVU1190
 4671 017a DFE7     		b	.L377
ARM GAS  C:\usertemp\ccXENK9d.s 			page 121


 4672              	.LVL535:
 4673              	.L402:
 236:lvgl/src/extra/libs/qrcode/qrcodegen.c **** 			appendBitsToBuffer((seg->data[j >> 3] >> (7 - (j & 7))) & 1, 1, qrcode, &bitLen);
 4674              		.loc 1 236 3 view .LVU1191
 4675              	.LBE117:
 4676              	.LBE118:
 4677              	.LBE119:
 239:lvgl/src/extra/libs/qrcode/qrcodegen.c **** 	
 4678              		.loc 1 239 2 view .LVU1192
 4679 017c 039C     		ldr	r4, [sp, #12]
 4680 017e 5646     		mov	r6, r10
 239:lvgl/src/extra/libs/qrcode/qrcodegen.c **** 	
 4681              		.loc 1 239 2 is_stmt 1 view .LVU1193
 4682 0180 DDF81480 		ldr	r8, [sp, #20]
 4683              	.LVL536:
 239:lvgl/src/extra/libs/qrcode/qrcodegen.c **** 	
 4684              		.loc 1 239 2 is_stmt 0 view .LVU1194
 4685 0184 029B     		ldr	r3, [sp, #8]
 4686 0186 9845     		cmp	r8, r3
 4687 0188 2ED1     		bne	.L403
 4688              	.LVL537:
 242:lvgl/src/extra/libs/qrcode/qrcodegen.c **** 	assert(bitLen <= dataCapacityBits);
 4689              		.loc 1 242 2 is_stmt 1 view .LVU1195
 242:lvgl/src/extra/libs/qrcode/qrcodegen.c **** 	assert(bitLen <= dataCapacityBits);
 4690              		.loc 1 242 25 is_stmt 0 view .LVU1196
 4691 018a 0199     		ldr	r1, [sp, #4]
 4692 018c 5046     		mov	r0, r10
 4693 018e FFF7FEFF 		bl	getNumDataCodewords
 4694              	.LVL538:
 242:lvgl/src/extra/libs/qrcode/qrcodegen.c **** 	assert(bitLen <= dataCapacityBits);
 4695              		.loc 1 242 6 discriminator 1 view .LVU1197
 4696 0192 4FEAC009 		lsl	r9, r0, #3
 4697              	.LVL539:
 243:lvgl/src/extra/libs/qrcode/qrcodegen.c **** 	int terminatorBits = dataCapacityBits - bitLen;
 4698              		.loc 1 243 2 is_stmt 1 view .LVU1198
 4699 0196 B8EBC00F 		cmp	r8, r0, lsl #3
 4700 019a 2BDC     		bgt	.L404
 244:lvgl/src/extra/libs/qrcode/qrcodegen.c **** 	if (terminatorBits > 4)
 4701              		.loc 1 244 2 view .LVU1199
 244:lvgl/src/extra/libs/qrcode/qrcodegen.c **** 	if (terminatorBits > 4)
 4702              		.loc 1 244 6 is_stmt 0 view .LVU1200
 4703 019c A9EB0801 		sub	r1, r9, r8
 4704              	.LVL540:
 245:lvgl/src/extra/libs/qrcode/qrcodegen.c **** 		terminatorBits = 4;
 4705              		.loc 1 245 2 is_stmt 1 view .LVU1201
 245:lvgl/src/extra/libs/qrcode/qrcodegen.c **** 		terminatorBits = 4;
 4706              		.loc 1 245 5 is_stmt 0 view .LVU1202
 4707 01a0 0429     		cmp	r1, #4
 4708 01a2 00DD     		ble	.L382
 246:lvgl/src/extra/libs/qrcode/qrcodegen.c **** 	appendBitsToBuffer(0, terminatorBits, qrcode, &bitLen);
 4709              		.loc 1 246 18 view .LVU1203
 4710 01a4 0421     		movs	r1, #4
 4711              	.LVL541:
 4712              	.L382:
 247:lvgl/src/extra/libs/qrcode/qrcodegen.c **** 	appendBitsToBuffer(0, (8 - bitLen % 8) % 8, qrcode, &bitLen);
 4713              		.loc 1 247 2 is_stmt 1 view .LVU1204
 4714 01a6 05AB     		add	r3, sp, #20
ARM GAS  C:\usertemp\ccXENK9d.s 			page 122


 4715 01a8 2A46     		mov	r2, r5
 4716 01aa 0020     		movs	r0, #0
 4717 01ac FFF7FEFF 		bl	appendBitsToBuffer
 4718              	.LVL542:
 248:lvgl/src/extra/libs/qrcode/qrcodegen.c **** 	assert(bitLen % 8 == 0);
 4719              		.loc 1 248 2 view .LVU1205
 248:lvgl/src/extra/libs/qrcode/qrcodegen.c **** 	assert(bitLen % 8 == 0);
 4720              		.loc 1 248 36 is_stmt 0 view .LVU1206
 4721 01b0 059B     		ldr	r3, [sp, #20]
 4722 01b2 5A42     		rsbs	r2, r3, #0
 4723 01b4 03F00703 		and	r3, r3, #7
 4724 01b8 02F00702 		and	r2, r2, #7
 4725 01bc 58BF     		it	pl
 4726 01be 5342     		rsbpl	r3, r2, #0
 248:lvgl/src/extra/libs/qrcode/qrcodegen.c **** 	assert(bitLen % 8 == 0);
 4727              		.loc 1 248 27 view .LVU1207
 4728 01c0 C3F10803 		rsb	r3, r3, #8
 248:lvgl/src/extra/libs/qrcode/qrcodegen.c **** 	assert(bitLen % 8 == 0);
 4729              		.loc 1 248 2 view .LVU1208
 4730 01c4 5842     		rsbs	r0, r3, #0
 4731 01c6 03F00701 		and	r1, r3, #7
 4732 01ca 00F00700 		and	r0, r0, #7
 4733 01ce 05AB     		add	r3, sp, #20
 4734 01d0 2A46     		mov	r2, r5
 4735 01d2 58BF     		it	pl
 4736 01d4 4142     		rsbpl	r1, r0, #0
 4737 01d6 0020     		movs	r0, #0
 4738 01d8 FFF7FEFF 		bl	appendBitsToBuffer
 4739              	.LVL543:
 249:lvgl/src/extra/libs/qrcode/qrcodegen.c **** 	
 4740              		.loc 1 249 2 is_stmt 1 view .LVU1209
 4741 01dc 059B     		ldr	r3, [sp, #20]
 4742 01de 13F00708 		ands	r8, r3, #7
 4743 01e2 0DD1     		bne	.L405
 4744              	.LBB120:
 252:lvgl/src/extra/libs/qrcode/qrcodegen.c **** 		appendBitsToBuffer(padByte, 8, qrcode, &bitLen);
 4745              		.loc 1 252 15 is_stmt 0 view .LVU1210
 4746 01e4 EC27     		movs	r7, #236
 4747 01e6 19E0     		b	.L383
 4748              	.LVL544:
 4749              	.L403:
 252:lvgl/src/extra/libs/qrcode/qrcodegen.c **** 		appendBitsToBuffer(padByte, 8, qrcode, &bitLen);
 4750              		.loc 1 252 15 view .LVU1211
 4751              	.LBE120:
 239:lvgl/src/extra/libs/qrcode/qrcodegen.c **** 	
 4752              		.loc 1 239 2 discriminator 1 view .LVU1212
 4753 01e8 444B     		ldr	r3, .L409+24
 4754 01ea 3F4A     		ldr	r2, .L409+4
 4755 01ec EF21     		movs	r1, #239
 4756 01ee 3F48     		ldr	r0, .L409+8
 4757 01f0 FFF7FEFF 		bl	__assert_func
 4758              	.LVL545:
 4759              	.L404:
 243:lvgl/src/extra/libs/qrcode/qrcodegen.c **** 	int terminatorBits = dataCapacityBits - bitLen;
 4760              		.loc 1 243 2 discriminator 1 view .LVU1213
 4761 01f4 424B     		ldr	r3, .L409+28
 4762 01f6 3C4A     		ldr	r2, .L409+4
ARM GAS  C:\usertemp\ccXENK9d.s 			page 123


 4763 01f8 F321     		movs	r1, #243
 4764 01fa 3C48     		ldr	r0, .L409+8
 4765 01fc FFF7FEFF 		bl	__assert_func
 4766              	.LVL546:
 4767              	.L405:
 249:lvgl/src/extra/libs/qrcode/qrcodegen.c **** 	
 4768              		.loc 1 249 2 discriminator 1 view .LVU1214
 4769 0200 404B     		ldr	r3, .L409+32
 4770 0202 394A     		ldr	r2, .L409+4
 4771 0204 F921     		movs	r1, #249
 4772 0206 3948     		ldr	r0, .L409+8
 4773 0208 FFF7FEFF 		bl	__assert_func
 4774              	.LVL547:
 4775              	.L384:
 4776              	.LBB121:
 253:lvgl/src/extra/libs/qrcode/qrcodegen.c **** 	
 4777              		.loc 1 253 3 is_stmt 1 view .LVU1215
 4778 020c 05AB     		add	r3, sp, #20
 4779 020e 2A46     		mov	r2, r5
 4780 0210 0821     		movs	r1, #8
 4781 0212 3846     		mov	r0, r7
 4782 0214 FFF7FEFF 		bl	appendBitsToBuffer
 4783              	.LVL548:
 252:lvgl/src/extra/libs/qrcode/qrcodegen.c **** 		appendBitsToBuffer(padByte, 8, qrcode, &bitLen);
 4784              		.loc 1 252 66 discriminator 3 view .LVU1216
 4785 0218 87F0FD07 		eor	r7, r7, #253
 4786              	.LVL549:
 4787              	.L383:
 252:lvgl/src/extra/libs/qrcode/qrcodegen.c **** 		appendBitsToBuffer(padByte, 8, qrcode, &bitLen);
 4788              		.loc 1 252 38 discriminator 1 view .LVU1217
 4789 021c 059B     		ldr	r3, [sp, #20]
 4790 021e 4B45     		cmp	r3, r9
 4791 0220 F4DB     		blt	.L384
 4792              	.LBE121:
 256:lvgl/src/extra/libs/qrcode/qrcodegen.c **** 	initializeFunctionModules(version, qrcode);
 4793              		.loc 1 256 2 view .LVU1218
 4794 0222 139B     		ldr	r3, [sp, #76]
 4795 0224 019A     		ldr	r2, [sp, #4]
 4796 0226 3146     		mov	r1, r6
 4797 0228 2846     		mov	r0, r5
 4798 022a FFF7FEFF 		bl	addEccAndInterleave
 4799              	.LVL550:
 257:lvgl/src/extra/libs/qrcode/qrcodegen.c **** 	drawCodewords(tempBuffer, getNumRawDataModules(version) / 8, qrcode);
 4800              		.loc 1 257 2 view .LVU1219
 4801 022e 2946     		mov	r1, r5
 4802 0230 3046     		mov	r0, r6
 4803 0232 FFF7FEFF 		bl	initializeFunctionModules
 4804              	.LVL551:
 258:lvgl/src/extra/libs/qrcode/qrcodegen.c **** 	drawWhiteFunctionModules(qrcode, version);
 4805              		.loc 1 258 2 view .LVU1220
 258:lvgl/src/extra/libs/qrcode/qrcodegen.c **** 	drawWhiteFunctionModules(qrcode, version);
 4806              		.loc 1 258 28 is_stmt 0 view .LVU1221
 4807 0236 3046     		mov	r0, r6
 4808 0238 FFF7FEFF 		bl	getNumRawDataModules
 4809              	.LVL552:
 258:lvgl/src/extra/libs/qrcode/qrcodegen.c **** 	drawWhiteFunctionModules(qrcode, version);
 4810              		.loc 1 258 2 discriminator 1 view .LVU1222
ARM GAS  C:\usertemp\ccXENK9d.s 			page 124


 4811 023c 011E     		subs	r1, r0, #0
 4812 023e 23DB     		blt	.L406
 4813              	.L385:
 4814 0240 2A46     		mov	r2, r5
 4815 0242 C910     		asrs	r1, r1, #3
 4816 0244 1398     		ldr	r0, [sp, #76]
 4817 0246 FFF7FEFF 		bl	drawCodewords
 4818              	.LVL553:
 259:lvgl/src/extra/libs/qrcode/qrcodegen.c **** 	initializeFunctionModules(version, tempBuffer);
 4819              		.loc 1 259 2 is_stmt 1 view .LVU1223
 4820 024a 3146     		mov	r1, r6
 4821 024c 2846     		mov	r0, r5
 4822 024e FFF7FEFF 		bl	drawWhiteFunctionModules
 4823              	.LVL554:
 260:lvgl/src/extra/libs/qrcode/qrcodegen.c **** 	
 4824              		.loc 1 260 2 view .LVU1224
 4825 0252 1399     		ldr	r1, [sp, #76]
 4826 0254 3046     		mov	r0, r6
 4827 0256 FFF7FEFF 		bl	initializeFunctionModules
 4828              	.LVL555:
 263:lvgl/src/extra/libs/qrcode/qrcodegen.c **** 		long minPenalty = LONG_MAX;
 4829              		.loc 1 263 2 view .LVU1225
 263:lvgl/src/extra/libs/qrcode/qrcodegen.c **** 		long minPenalty = LONG_MAX;
 4830              		.loc 1 263 5 is_stmt 0 view .LVU1226
 4831 025a 119B     		ldr	r3, [sp, #68]
 4832 025c B3F1FF3F 		cmp	r3, #-1
 4833 0260 32D0     		beq	.L407
 4834              	.LVL556:
 4835              	.L387:
 277:lvgl/src/extra/libs/qrcode/qrcodegen.c **** 	applyMask(tempBuffer, qrcode, mask);
 4836              		.loc 1 277 2 is_stmt 1 view .LVU1227
 4837 0262 119B     		ldr	r3, [sp, #68]
 4838 0264 072B     		cmp	r3, #7
 4839 0266 36D8     		bhi	.L408
 278:lvgl/src/extra/libs/qrcode/qrcodegen.c **** 	drawFormatBits(ecl, mask, qrcode);
 4840              		.loc 1 278 2 view .LVU1228
 4841 0268 119B     		ldr	r3, [sp, #68]
 4842 026a 5EB2     		sxtb	r6, r3
 4843 026c 3246     		mov	r2, r6
 4844 026e 2946     		mov	r1, r5
 4845 0270 1398     		ldr	r0, [sp, #76]
 4846 0272 FFF7FEFF 		bl	applyMask
 4847              	.LVL557:
 279:lvgl/src/extra/libs/qrcode/qrcodegen.c **** 	return true;
 4848              		.loc 1 279 2 view .LVU1229
 4849 0276 2A46     		mov	r2, r5
 4850 0278 3146     		mov	r1, r6
 4851 027a 0198     		ldr	r0, [sp, #4]
 4852 027c FFF7FEFF 		bl	drawFormatBits
 4853              	.LVL558:
 280:lvgl/src/extra/libs/qrcode/qrcodegen.c **** }
 4854              		.loc 1 280 2 view .LVU1230
 4855              	.L371:
 281:lvgl/src/extra/libs/qrcode/qrcodegen.c **** 
 4856              		.loc 1 281 1 is_stmt 0 view .LVU1231
 4857 0280 2046     		mov	r0, r4
 4858 0282 07B0     		add	sp, sp, #28
ARM GAS  C:\usertemp\ccXENK9d.s 			page 125


 4859              	.LCFI46:
 4860              		.cfi_remember_state
 4861              		.cfi_def_cfa_offset 36
 4862              		@ sp needed
 4863 0284 BDE8F08F 		pop	{r4, r5, r6, r7, r8, r9, r10, fp, pc}
 4864              	.LVL559:
 4865              	.L406:
 4866              	.LCFI47:
 4867              		.cfi_restore_state
 258:lvgl/src/extra/libs/qrcode/qrcodegen.c **** 	drawWhiteFunctionModules(qrcode, version);
 4868              		.loc 1 258 2 discriminator 1 view .LVU1232
 4869 0288 0731     		adds	r1, r1, #7
 4870 028a D9E7     		b	.L385
 4871              	.LVL560:
 4872              	.L388:
 4873              	.LBB122:
 4874              	.LBB123:
 4875              	.LBB124:
 274:lvgl/src/extra/libs/qrcode/qrcodegen.c **** 		}
 4876              		.loc 1 274 4 is_stmt 1 view .LVU1233
 4877 028c 3246     		mov	r2, r6
 4878 028e 2946     		mov	r1, r5
 4879 0290 4846     		mov	r0, r9
 4880              	.LVL561:
 274:lvgl/src/extra/libs/qrcode/qrcodegen.c **** 		}
 4881              		.loc 1 274 4 is_stmt 0 view .LVU1234
 4882 0292 FFF7FEFF 		bl	applyMask
 4883              	.LVL562:
 4884              	.LBE124:
 265:lvgl/src/extra/libs/qrcode/qrcodegen.c **** 			enum qrcodegen_Mask msk = (enum qrcodegen_Mask)i;
 4885              		.loc 1 265 27 is_stmt 1 discriminator 2 view .LVU1235
 4886 0296 08F10108 		add	r8, r8, #1
 4887              	.LVL563:
 4888              	.L386:
 265:lvgl/src/extra/libs/qrcode/qrcodegen.c **** 			enum qrcodegen_Mask msk = (enum qrcodegen_Mask)i;
 4889              		.loc 1 265 21 discriminator 1 view .LVU1236
 4890 029a B8F1070F 		cmp	r8, #7
 4891 029e E0DC     		bgt	.L387
 4892              	.LBB125:
 266:lvgl/src/extra/libs/qrcode/qrcodegen.c **** 			applyMask(tempBuffer, qrcode, msk);
 4893              		.loc 1 266 4 view .LVU1237
 266:lvgl/src/extra/libs/qrcode/qrcodegen.c **** 			applyMask(tempBuffer, qrcode, msk);
 4894              		.loc 1 266 24 is_stmt 0 view .LVU1238
 4895 02a0 4FFA88F6 		sxtb	r6, r8
 4896              	.LVL564:
 267:lvgl/src/extra/libs/qrcode/qrcodegen.c **** 			drawFormatBits(ecl, msk, qrcode);
 4897              		.loc 1 267 4 is_stmt 1 view .LVU1239
 4898 02a4 3246     		mov	r2, r6
 4899 02a6 2946     		mov	r1, r5
 4900 02a8 4846     		mov	r0, r9
 4901 02aa FFF7FEFF 		bl	applyMask
 4902              	.LVL565:
 268:lvgl/src/extra/libs/qrcode/qrcodegen.c **** 			long penalty = getPenaltyScore(qrcode);
 4903              		.loc 1 268 4 view .LVU1240
 4904 02ae 2A46     		mov	r2, r5
 4905 02b0 3146     		mov	r1, r6
 4906 02b2 5046     		mov	r0, r10
ARM GAS  C:\usertemp\ccXENK9d.s 			page 126


 4907 02b4 FFF7FEFF 		bl	drawFormatBits
 4908              	.LVL566:
 269:lvgl/src/extra/libs/qrcode/qrcodegen.c **** 			if (penalty < minPenalty) {
 4909              		.loc 1 269 4 view .LVU1241
 269:lvgl/src/extra/libs/qrcode/qrcodegen.c **** 			if (penalty < minPenalty) {
 4910              		.loc 1 269 19 is_stmt 0 view .LVU1242
 4911 02b8 2846     		mov	r0, r5
 4912 02ba FFF7FEFF 		bl	getPenaltyScore
 4913              	.LVL567:
 270:lvgl/src/extra/libs/qrcode/qrcodegen.c **** 				mask = msk;
 4914              		.loc 1 270 4 is_stmt 1 view .LVU1243
 270:lvgl/src/extra/libs/qrcode/qrcodegen.c **** 				mask = msk;
 4915              		.loc 1 270 7 is_stmt 0 view .LVU1244
 4916 02be 8742     		cmp	r7, r0
 4917 02c0 E4DD     		ble	.L388
 271:lvgl/src/extra/libs/qrcode/qrcodegen.c **** 				minPenalty = penalty;
 4918              		.loc 1 271 5 is_stmt 1 view .LVU1245
 271:lvgl/src/extra/libs/qrcode/qrcodegen.c **** 				minPenalty = penalty;
 4919              		.loc 1 271 10 is_stmt 0 view .LVU1246
 4920 02c2 1196     		str	r6, [sp, #68]
 4921              	.LVL568:
 272:lvgl/src/extra/libs/qrcode/qrcodegen.c **** 			}
 4922              		.loc 1 272 5 is_stmt 1 view .LVU1247
 272:lvgl/src/extra/libs/qrcode/qrcodegen.c **** 			}
 4923              		.loc 1 272 16 is_stmt 0 view .LVU1248
 4924 02c4 0746     		mov	r7, r0
 4925 02c6 E1E7     		b	.L388
 4926              	.LVL569:
 4927              	.L407:
 272:lvgl/src/extra/libs/qrcode/qrcodegen.c **** 			}
 4928              		.loc 1 272 16 view .LVU1249
 4929              	.LBE125:
 4930              	.LBE123:
 264:lvgl/src/extra/libs/qrcode/qrcodegen.c **** 		for (int i = 0; i < 8; i++) {
 4931              		.loc 1 264 8 view .LVU1250
 4932 02c8 6FF00047 		mvn	r7, #-2147483648
 4933              	.LVL570:
 264:lvgl/src/extra/libs/qrcode/qrcodegen.c **** 		for (int i = 0; i < 8; i++) {
 4934              		.loc 1 264 8 view .LVU1251
 4935 02cc DDF804A0 		ldr	r10, [sp, #4]
 4936 02d0 DDF84C90 		ldr	r9, [sp, #76]
 4937              	.LVL571:
 264:lvgl/src/extra/libs/qrcode/qrcodegen.c **** 		for (int i = 0; i < 8; i++) {
 4938              		.loc 1 264 8 view .LVU1252
 4939 02d4 E1E7     		b	.L386
 4940              	.LVL572:
 4941              	.L408:
 264:lvgl/src/extra/libs/qrcode/qrcodegen.c **** 		for (int i = 0; i < 8; i++) {
 4942              		.loc 1 264 8 view .LVU1253
 4943              	.LBE122:
 277:lvgl/src/extra/libs/qrcode/qrcodegen.c **** 	applyMask(tempBuffer, qrcode, mask);
 4944              		.loc 1 277 2 discriminator 1 view .LVU1254
 4945 02d6 0C4B     		ldr	r3, .L409+36
 4946              	.LVL573:
 277:lvgl/src/extra/libs/qrcode/qrcodegen.c **** 	applyMask(tempBuffer, qrcode, mask);
 4947              		.loc 1 277 2 discriminator 1 view .LVU1255
 4948 02d8 034A     		ldr	r2, .L409+4
ARM GAS  C:\usertemp\ccXENK9d.s 			page 127


 4949 02da 40F21511 		movw	r1, #277
 4950 02de 0348     		ldr	r0, .L409+8
 4951 02e0 FFF7FEFF 		bl	__assert_func
 4952              	.LVL574:
 4953              	.L410:
 4954              		.align	2
 4955              	.L409:
 4956 02e4 00000000 		.word	.LC4
 4957 02e8 00000000 		.word	__func__.28
 4958 02ec 08000000 		.word	.LC1
 4959 02f0 00000000 		.word	.LC21
 4960 02f4 68000000 		.word	.LC22
 4961 02f8 AC000000 		.word	.LC23
 4962 02fc C0000000 		.word	.LC24
 4963 0300 D8000000 		.word	.LC25
 4964 0304 F4000000 		.word	.LC26
 4965 0308 00000000 		.word	.LC19
 4966              		.cfi_endproc
 4967              	.LFE4:
 4969              		.section	.text.qrcodegen_encodeBinary,"ax",%progbits
 4970              		.align	1
 4971              		.global	qrcodegen_encodeBinary
 4972              		.syntax unified
 4973              		.thumb
 4974              		.thumb_func
 4976              	qrcodegen_encodeBinary:
 4977              	.LVL575:
 4978              	.LFB1:
 167:lvgl/src/extra/libs/qrcode/qrcodegen.c **** 	
 4979              		.loc 1 167 100 is_stmt 1 view -0
 4980              		.cfi_startproc
 4981              		@ args = 16, pretend = 0, frame = 16
 4982              		@ frame_needed = 0, uses_anonymous_args = 0
 167:lvgl/src/extra/libs/qrcode/qrcodegen.c **** 	
 4983              		.loc 1 167 100 is_stmt 0 view .LVU1257
 4984 0000 F0B5     		push	{r4, r5, r6, r7, lr}
 4985              	.LCFI48:
 4986              		.cfi_def_cfa_offset 20
 4987              		.cfi_offset 4, -20
 4988              		.cfi_offset 5, -16
 4989              		.cfi_offset 6, -12
 4990              		.cfi_offset 7, -8
 4991              		.cfi_offset 14, -4
 4992 0002 8BB0     		sub	sp, sp, #44
 4993              	.LCFI49:
 4994              		.cfi_def_cfa_offset 64
 4995 0004 0446     		mov	r4, r0
 4996 0006 0F46     		mov	r7, r1
 4997 0008 1546     		mov	r5, r2
 4998 000a 1E46     		mov	r6, r3
 169:lvgl/src/extra/libs/qrcode/qrcodegen.c **** 	seg.mode = qrcodegen_Mode_BYTE;
 4999              		.loc 1 169 2 is_stmt 1 view .LVU1258
 170:lvgl/src/extra/libs/qrcode/qrcodegen.c **** 	seg.bitLength = calcSegmentBitLength(seg.mode, dataLen);
 5000              		.loc 1 170 2 view .LVU1259
 170:lvgl/src/extra/libs/qrcode/qrcodegen.c **** 	seg.bitLength = calcSegmentBitLength(seg.mode, dataLen);
 5001              		.loc 1 170 11 is_stmt 0 view .LVU1260
 5002 000c 0420     		movs	r0, #4
ARM GAS  C:\usertemp\ccXENK9d.s 			page 128


 5003              	.LVL576:
 170:lvgl/src/extra/libs/qrcode/qrcodegen.c **** 	seg.bitLength = calcSegmentBitLength(seg.mode, dataLen);
 5004              		.loc 1 170 11 view .LVU1261
 5005 000e 8DF81800 		strb	r0, [sp, #24]
 171:lvgl/src/extra/libs/qrcode/qrcodegen.c **** 	if (seg.bitLength == -1) {
 5006              		.loc 1 171 2 is_stmt 1 view .LVU1262
 171:lvgl/src/extra/libs/qrcode/qrcodegen.c **** 	if (seg.bitLength == -1) {
 5007              		.loc 1 171 18 is_stmt 0 view .LVU1263
 5008 0012 FFF7FEFF 		bl	calcSegmentBitLength
 5009              	.LVL577:
 171:lvgl/src/extra/libs/qrcode/qrcodegen.c **** 	if (seg.bitLength == -1) {
 5010              		.loc 1 171 16 discriminator 1 view .LVU1264
 5011 0016 0990     		str	r0, [sp, #36]
 172:lvgl/src/extra/libs/qrcode/qrcodegen.c **** 		qrcode[0] = 0;  // Set size to invalid value for safety
 5012              		.loc 1 172 2 is_stmt 1 view .LVU1265
 172:lvgl/src/extra/libs/qrcode/qrcodegen.c **** 		qrcode[0] = 0;  // Set size to invalid value for safety
 5013              		.loc 1 172 5 is_stmt 0 view .LVU1266
 5014 0018 B0F1FF3F 		cmp	r0, #-1
 5015 001c 13D0     		beq	.L415
 176:lvgl/src/extra/libs/qrcode/qrcodegen.c **** 	seg.data = dataAndTemp;
 5016              		.loc 1 176 2 is_stmt 1 view .LVU1267
 176:lvgl/src/extra/libs/qrcode/qrcodegen.c **** 	seg.data = dataAndTemp;
 5017              		.loc 1 176 15 is_stmt 0 view .LVU1268
 5018 001e 0797     		str	r7, [sp, #28]
 177:lvgl/src/extra/libs/qrcode/qrcodegen.c **** 	return qrcodegen_encodeSegmentsAdvanced(&seg, 1, ecl, minVersion, maxVersion, mask, boostEcl, data
 5019              		.loc 1 177 2 is_stmt 1 view .LVU1269
 177:lvgl/src/extra/libs/qrcode/qrcodegen.c **** 	return qrcodegen_encodeSegmentsAdvanced(&seg, 1, ecl, minVersion, maxVersion, mask, boostEcl, data
 5020              		.loc 1 177 11 is_stmt 0 view .LVU1270
 5021 0020 0894     		str	r4, [sp, #32]
 178:lvgl/src/extra/libs/qrcode/qrcodegen.c **** }
 5022              		.loc 1 178 2 is_stmt 1 view .LVU1271
 178:lvgl/src/extra/libs/qrcode/qrcodegen.c **** }
 5023              		.loc 1 178 9 is_stmt 0 view .LVU1272
 5024 0022 0495     		str	r5, [sp, #16]
 5025 0024 0394     		str	r4, [sp, #12]
 5026 0026 9DF84C30 		ldrb	r3, [sp, #76]	@ zero_extendqisi2
 5027 002a 0293     		str	r3, [sp, #8]
 5028 002c 9DF94830 		ldrsb	r3, [sp, #72]
 5029 0030 0193     		str	r3, [sp, #4]
 5030 0032 119B     		ldr	r3, [sp, #68]
 5031 0034 0093     		str	r3, [sp]
 5032 0036 109B     		ldr	r3, [sp, #64]
 5033 0038 3246     		mov	r2, r6
 5034 003a 0121     		movs	r1, #1
 5035 003c 06A8     		add	r0, sp, #24
 5036 003e FFF7FEFF 		bl	qrcodegen_encodeSegmentsAdvanced
 5037              	.LVL578:
 5038              	.L413:
 179:lvgl/src/extra/libs/qrcode/qrcodegen.c **** 
 5039              		.loc 1 179 1 view .LVU1273
 5040 0042 0BB0     		add	sp, sp, #44
 5041              	.LCFI50:
 5042              		.cfi_remember_state
 5043              		.cfi_def_cfa_offset 20
 5044              		@ sp needed
 5045 0044 F0BD     		pop	{r4, r5, r6, r7, pc}
 5046              	.LVL579:
ARM GAS  C:\usertemp\ccXENK9d.s 			page 129


 5047              	.L415:
 5048              	.LCFI51:
 5049              		.cfi_restore_state
 173:lvgl/src/extra/libs/qrcode/qrcodegen.c **** 		return false;
 5050              		.loc 1 173 3 is_stmt 1 view .LVU1274
 173:lvgl/src/extra/libs/qrcode/qrcodegen.c **** 		return false;
 5051              		.loc 1 173 13 is_stmt 0 view .LVU1275
 5052 0046 0020     		movs	r0, #0
 5053 0048 2870     		strb	r0, [r5]
 174:lvgl/src/extra/libs/qrcode/qrcodegen.c **** 	}
 5054              		.loc 1 174 3 is_stmt 1 view .LVU1276
 174:lvgl/src/extra/libs/qrcode/qrcodegen.c **** 	}
 5055              		.loc 1 174 10 is_stmt 0 view .LVU1277
 5056 004a FAE7     		b	.L413
 5057              		.cfi_endproc
 5058              	.LFE1:
 5060              		.section	.text.qrcodegen_encodeSegments,"ax",%progbits
 5061              		.align	1
 5062              		.global	qrcodegen_encodeSegments
 5063              		.syntax unified
 5064              		.thumb
 5065              		.thumb_func
 5067              	qrcodegen_encodeSegments:
 5068              	.LVL580:
 5069              	.LFB3:
 196:lvgl/src/extra/libs/qrcode/qrcodegen.c **** 	return qrcodegen_encodeSegmentsAdvanced(segs, len, ecl,
 5070              		.loc 1 196 67 is_stmt 1 view -0
 5071              		.cfi_startproc
 5072              		@ args = 4, pretend = 0, frame = 0
 5073              		@ frame_needed = 0, uses_anonymous_args = 0
 196:lvgl/src/extra/libs/qrcode/qrcodegen.c **** 	return qrcodegen_encodeSegmentsAdvanced(segs, len, ecl,
 5074              		.loc 1 196 67 is_stmt 0 view .LVU1279
 5075 0000 10B5     		push	{r4, lr}
 5076              	.LCFI52:
 5077              		.cfi_def_cfa_offset 8
 5078              		.cfi_offset 4, -8
 5079              		.cfi_offset 14, -4
 5080 0002 86B0     		sub	sp, sp, #24
 5081              	.LCFI53:
 5082              		.cfi_def_cfa_offset 32
 197:lvgl/src/extra/libs/qrcode/qrcodegen.c **** 		qrcodegen_VERSION_MIN, qrcodegen_VERSION_MAX, -1, true, tempBuffer, qrcode);
 5083              		.loc 1 197 2 is_stmt 1 view .LVU1280
 197:lvgl/src/extra/libs/qrcode/qrcodegen.c **** 		qrcodegen_VERSION_MIN, qrcodegen_VERSION_MAX, -1, true, tempBuffer, qrcode);
 5084              		.loc 1 197 9 is_stmt 0 view .LVU1281
 5085 0004 089C     		ldr	r4, [sp, #32]
 5086 0006 0494     		str	r4, [sp, #16]
 5087 0008 0393     		str	r3, [sp, #12]
 5088 000a 0123     		movs	r3, #1
 5089              	.LVL581:
 197:lvgl/src/extra/libs/qrcode/qrcodegen.c **** 		qrcodegen_VERSION_MIN, qrcodegen_VERSION_MAX, -1, true, tempBuffer, qrcode);
 5090              		.loc 1 197 9 view .LVU1282
 5091 000c 0293     		str	r3, [sp, #8]
 5092 000e 4FF0FF34 		mov	r4, #-1
 5093 0012 0194     		str	r4, [sp, #4]
 5094 0014 2824     		movs	r4, #40
 5095 0016 0094     		str	r4, [sp]
 5096 0018 FFF7FEFF 		bl	qrcodegen_encodeSegmentsAdvanced
ARM GAS  C:\usertemp\ccXENK9d.s 			page 130


 5097              	.LVL582:
 199:lvgl/src/extra/libs/qrcode/qrcodegen.c **** 
 5098              		.loc 1 199 1 view .LVU1283
 5099 001c 06B0     		add	sp, sp, #24
 5100              	.LCFI54:
 5101              		.cfi_def_cfa_offset 8
 5102              		@ sp needed
 5103 001e 10BD     		pop	{r4, pc}
 199:lvgl/src/extra/libs/qrcode/qrcodegen.c **** 
 5104              		.loc 1 199 1 view .LVU1284
 5105              		.cfi_endproc
 5106              	.LFE3:
 5108              		.section	.text.qrcodegen_getModule,"ax",%progbits
 5109              		.align	1
 5110              		.global	qrcodegen_getModule
 5111              		.syntax unified
 5112              		.thumb
 5113              		.thumb_func
 5115              	qrcodegen_getModule:
 5116              	.LVL583:
 5117              	.LFB22:
 749:lvgl/src/extra/libs/qrcode/qrcodegen.c **** 	assert(qrcode != NULL);
 5118              		.loc 1 749 64 is_stmt 1 view -0
 5119              		.cfi_startproc
 5120              		@ args = 0, pretend = 0, frame = 0
 5121              		@ frame_needed = 0, uses_anonymous_args = 0
 749:lvgl/src/extra/libs/qrcode/qrcodegen.c **** 	assert(qrcode != NULL);
 5122              		.loc 1 749 64 is_stmt 0 view .LVU1286
 5123 0000 08B5     		push	{r3, lr}
 5124              	.LCFI55:
 5125              		.cfi_def_cfa_offset 8
 5126              		.cfi_offset 3, -8
 5127              		.cfi_offset 14, -4
 750:lvgl/src/extra/libs/qrcode/qrcodegen.c **** 	int qrsize = qrcode[0];
 5128              		.loc 1 750 2 is_stmt 1 view .LVU1287
 5129 0002 68B1     		cbz	r0, .L425
 751:lvgl/src/extra/libs/qrcode/qrcodegen.c **** 	return (0 <= x && x < qrsize && 0 <= y && y < qrsize) && getModule(qrcode, x, y);
 5130              		.loc 1 751 2 view .LVU1288
 751:lvgl/src/extra/libs/qrcode/qrcodegen.c **** 	return (0 <= x && x < qrsize && 0 <= y && y < qrsize) && getModule(qrcode, x, y);
 5131              		.loc 1 751 21 is_stmt 0 view .LVU1289
 5132 0004 0378     		ldrb	r3, [r0]	@ zero_extendqisi2
 5133              	.LVL584:
 752:lvgl/src/extra/libs/qrcode/qrcodegen.c **** }
 5134              		.loc 1 752 2 is_stmt 1 view .LVU1290
 752:lvgl/src/extra/libs/qrcode/qrcodegen.c **** }
 5135              		.loc 1 752 56 is_stmt 0 view .LVU1291
 5136 0006 0029     		cmp	r1, #0
 5137 0008 A8BF     		it	ge
 5138 000a 8B42     		cmpge	r3, r1
 5139 000c 14DD     		ble	.L421
 752:lvgl/src/extra/libs/qrcode/qrcodegen.c **** }
 5140              		.loc 1 752 46 discriminator 1 view .LVU1292
 5141 000e 9342     		cmp	r3, r2
 5142 0010 D4BF     		ite	le
 5143 0012 0023     		movle	r3, #0
 5144              	.LVL585:
 752:lvgl/src/extra/libs/qrcode/qrcodegen.c **** }
ARM GAS  C:\usertemp\ccXENK9d.s 			page 131


 5145              		.loc 1 752 46 discriminator 1 view .LVU1293
 5146 0014 0123     		movgt	r3, #1
 752:lvgl/src/extra/libs/qrcode/qrcodegen.c **** }
 5147              		.loc 1 752 41 discriminator 1 view .LVU1294
 5148 0016 002A     		cmp	r2, #0
 5149 0018 00DB     		blt	.L422
 5150 001a 43B9     		cbnz	r3, .L426
 5151              	.L422:
 752:lvgl/src/extra/libs/qrcode/qrcodegen.c **** }
 5152              		.loc 1 752 56 discriminator 6 view .LVU1295
 5153 001c 0020     		movs	r0, #0
 5154              	.LVL586:
 752:lvgl/src/extra/libs/qrcode/qrcodegen.c **** }
 5155              		.loc 1 752 56 discriminator 6 view .LVU1296
 5156 001e 0CE0     		b	.L420
 5157              	.LVL587:
 5158              	.L425:
 750:lvgl/src/extra/libs/qrcode/qrcodegen.c **** 	int qrsize = qrcode[0];
 5159              		.loc 1 750 2 discriminator 1 view .LVU1297
 5160 0020 074B     		ldr	r3, .L427
 5161 0022 084A     		ldr	r2, .L427+4
 5162              	.LVL588:
 750:lvgl/src/extra/libs/qrcode/qrcodegen.c **** 	int qrsize = qrcode[0];
 5163              		.loc 1 750 2 discriminator 1 view .LVU1298
 5164 0024 40F2EE21 		movw	r1, #750
 5165              	.LVL589:
 750:lvgl/src/extra/libs/qrcode/qrcodegen.c **** 	int qrsize = qrcode[0];
 5166              		.loc 1 750 2 discriminator 1 view .LVU1299
 5167 0028 0748     		ldr	r0, .L427+8
 5168              	.LVL590:
 750:lvgl/src/extra/libs/qrcode/qrcodegen.c **** 	int qrsize = qrcode[0];
 5169              		.loc 1 750 2 discriminator 1 view .LVU1300
 5170 002a FFF7FEFF 		bl	__assert_func
 5171              	.LVL591:
 5172              	.L426:
 752:lvgl/src/extra/libs/qrcode/qrcodegen.c **** }
 5173              		.loc 1 752 59 discriminator 3 view .LVU1301
 5174 002e FFF7FEFF 		bl	getModule
 5175              	.LVL592:
 752:lvgl/src/extra/libs/qrcode/qrcodegen.c **** }
 5176              		.loc 1 752 56 discriminator 1 view .LVU1302
 5177 0032 18B1     		cbz	r0, .L423
 752:lvgl/src/extra/libs/qrcode/qrcodegen.c **** }
 5178              		.loc 1 752 56 discriminator 5 view .LVU1303
 5179 0034 0120     		movs	r0, #1
 5180 0036 00E0     		b	.L420
 5181              	.LVL593:
 5182              	.L421:
 752:lvgl/src/extra/libs/qrcode/qrcodegen.c **** }
 5183              		.loc 1 752 56 discriminator 6 view .LVU1304
 5184 0038 0020     		movs	r0, #0
 5185              	.LVL594:
 5186              	.L420:
 753:lvgl/src/extra/libs/qrcode/qrcodegen.c **** 
 5187              		.loc 1 753 1 view .LVU1305
 5188 003a 08BD     		pop	{r3, pc}
 5189              	.L423:
ARM GAS  C:\usertemp\ccXENK9d.s 			page 132


 752:lvgl/src/extra/libs/qrcode/qrcodegen.c **** }
 5190              		.loc 1 752 56 discriminator 6 view .LVU1306
 5191 003c 0020     		movs	r0, #0
 5192 003e FCE7     		b	.L420
 5193              	.L428:
 5194              		.align	2
 5195              	.L427:
 5196 0040 00000000 		.word	.LC15
 5197 0044 00000000 		.word	__func__.7
 5198 0048 08000000 		.word	.LC1
 5199              		.cfi_endproc
 5200              	.LFE22:
 5202              		.section	.rodata.qrcodegen_isAlphanumeric.str1.4,"aMS",%progbits,1
 5203              		.align	2
 5204              	.LC27:
 5205 0000 74657874 		.ascii	"text != NULL\000"
 5205      20213D20 
 5205      4E554C4C 
 5205      00
 5206 000d 000000   		.align	2
 5207              	.LC28:
 5208 0010 30313233 		.ascii	"0123456789ABCDEFGHIJKLMNOPQRSTUVWXYZ $%*+-./:\000"
 5208      34353637 
 5208      38394142 
 5208      43444546 
 5208      4748494A 
 5209              		.section	.text.qrcodegen_isAlphanumeric,"ax",%progbits
 5210              		.align	1
 5211              		.global	qrcodegen_isAlphanumeric
 5212              		.syntax unified
 5213              		.thumb
 5214              		.thumb_func
 5216              	qrcodegen_isAlphanumeric:
 5217              	.LVL595:
 5218              	.LFB27:
 797:lvgl/src/extra/libs/qrcode/qrcodegen.c **** 	assert(text != NULL);
 5219              		.loc 1 797 49 is_stmt 1 view -0
 5220              		.cfi_startproc
 5221              		@ args = 0, pretend = 0, frame = 0
 5222              		@ frame_needed = 0, uses_anonymous_args = 0
 797:lvgl/src/extra/libs/qrcode/qrcodegen.c **** 	assert(text != NULL);
 5223              		.loc 1 797 49 is_stmt 0 view .LVU1308
 5224 0000 10B5     		push	{r4, lr}
 5225              	.LCFI56:
 5226              		.cfi_def_cfa_offset 8
 5227              		.cfi_offset 4, -8
 5228              		.cfi_offset 14, -4
 798:lvgl/src/extra/libs/qrcode/qrcodegen.c **** 	for (; *text != '\0'; text++) {
 5229              		.loc 1 798 2 is_stmt 1 view .LVU1309
 5230 0002 0446     		mov	r4, r0
 5231 0004 38B1     		cbz	r0, .L435
 5232              	.LVL596:
 5233              	.L430:
 799:lvgl/src/extra/libs/qrcode/qrcodegen.c **** 		if (strchr(ALPHANUMERIC_CHARSET, *text) == NULL)
 5234              		.loc 1 799 15 discriminator 1 view .LVU1310
 799:lvgl/src/extra/libs/qrcode/qrcodegen.c **** 		if (strchr(ALPHANUMERIC_CHARSET, *text) == NULL)
 5235              		.loc 1 799 9 is_stmt 0 discriminator 1 view .LVU1311
ARM GAS  C:\usertemp\ccXENK9d.s 			page 133


 5236 0006 2178     		ldrb	r1, [r4]	@ zero_extendqisi2
 799:lvgl/src/extra/libs/qrcode/qrcodegen.c **** 		if (strchr(ALPHANUMERIC_CHARSET, *text) == NULL)
 5237              		.loc 1 799 15 discriminator 1 view .LVU1312
 5238 0008 61B1     		cbz	r1, .L436
 800:lvgl/src/extra/libs/qrcode/qrcodegen.c **** 			return false;
 5239              		.loc 1 800 3 is_stmt 1 view .LVU1313
 800:lvgl/src/extra/libs/qrcode/qrcodegen.c **** 			return false;
 5240              		.loc 1 800 7 is_stmt 0 view .LVU1314
 5241 000a 0848     		ldr	r0, .L437
 5242 000c FFF7FEFF 		bl	strchr
 5243              	.LVL597:
 800:lvgl/src/extra/libs/qrcode/qrcodegen.c **** 			return false;
 5244              		.loc 1 800 6 discriminator 1 view .LVU1315
 5245 0010 50B1     		cbz	r0, .L433
 799:lvgl/src/extra/libs/qrcode/qrcodegen.c **** 		if (strchr(ALPHANUMERIC_CHARSET, *text) == NULL)
 5246              		.loc 1 799 28 is_stmt 1 view .LVU1316
 5247 0012 0134     		adds	r4, r4, #1
 5248              	.LVL598:
 799:lvgl/src/extra/libs/qrcode/qrcodegen.c **** 		if (strchr(ALPHANUMERIC_CHARSET, *text) == NULL)
 5249              		.loc 1 799 28 is_stmt 0 view .LVU1317
 5250 0014 F7E7     		b	.L430
 5251              	.LVL599:
 5252              	.L435:
 798:lvgl/src/extra/libs/qrcode/qrcodegen.c **** 	for (; *text != '\0'; text++) {
 5253              		.loc 1 798 2 discriminator 1 view .LVU1318
 5254 0016 064B     		ldr	r3, .L437+4
 5255 0018 064A     		ldr	r2, .L437+8
 5256 001a 40F21E31 		movw	r1, #798
 5257 001e 0648     		ldr	r0, .L437+12
 5258              	.LVL600:
 798:lvgl/src/extra/libs/qrcode/qrcodegen.c **** 	for (; *text != '\0'; text++) {
 5259              		.loc 1 798 2 discriminator 1 view .LVU1319
 5260 0020 FFF7FEFF 		bl	__assert_func
 5261              	.LVL601:
 5262              	.L436:
 803:lvgl/src/extra/libs/qrcode/qrcodegen.c **** }
 5263              		.loc 1 803 9 view .LVU1320
 5264 0024 0120     		movs	r0, #1
 5265              	.L431:
 804:lvgl/src/extra/libs/qrcode/qrcodegen.c **** 
 5266              		.loc 1 804 1 view .LVU1321
 5267 0026 10BD     		pop	{r4, pc}
 5268              	.LVL602:
 5269              	.L433:
 801:lvgl/src/extra/libs/qrcode/qrcodegen.c **** 	}
 5270              		.loc 1 801 11 view .LVU1322
 5271 0028 0020     		movs	r0, #0
 5272 002a FCE7     		b	.L431
 5273              	.L438:
 5274              		.align	2
 5275              	.L437:
 5276 002c 10000000 		.word	.LC28
 5277 0030 00000000 		.word	.LC27
 5278 0034 00000000 		.word	__func__.6
 5279 0038 08000000 		.word	.LC1
 5280              		.cfi_endproc
 5281              	.LFE27:
ARM GAS  C:\usertemp\ccXENK9d.s 			page 134


 5283              		.section	.text.qrcodegen_isNumeric,"ax",%progbits
 5284              		.align	1
 5285              		.global	qrcodegen_isNumeric
 5286              		.syntax unified
 5287              		.thumb
 5288              		.thumb_func
 5290              	qrcodegen_isNumeric:
 5291              	.LVL603:
 5292              	.LFB28:
 808:lvgl/src/extra/libs/qrcode/qrcodegen.c **** 	assert(text != NULL);
 5293              		.loc 1 808 44 is_stmt 1 view -0
 5294              		.cfi_startproc
 5295              		@ args = 0, pretend = 0, frame = 0
 5296              		@ frame_needed = 0, uses_anonymous_args = 0
 808:lvgl/src/extra/libs/qrcode/qrcodegen.c **** 	assert(text != NULL);
 5297              		.loc 1 808 44 is_stmt 0 view .LVU1324
 5298 0000 08B5     		push	{r3, lr}
 5299              	.LCFI57:
 5300              		.cfi_def_cfa_offset 8
 5301              		.cfi_offset 3, -8
 5302              		.cfi_offset 14, -4
 809:lvgl/src/extra/libs/qrcode/qrcodegen.c **** 	for (; *text != '\0'; text++) {
 5303              		.loc 1 809 2 is_stmt 1 view .LVU1325
 5304 0002 0246     		mov	r2, r0
 5305 0004 38B1     		cbz	r0, .L445
 5306              	.LVL604:
 5307              	.L440:
 810:lvgl/src/extra/libs/qrcode/qrcodegen.c **** 		if (*text < '0' || *text > '9')
 5308              		.loc 1 810 15 discriminator 1 view .LVU1326
 810:lvgl/src/extra/libs/qrcode/qrcodegen.c **** 		if (*text < '0' || *text > '9')
 5309              		.loc 1 810 9 is_stmt 0 discriminator 1 view .LVU1327
 5310 0006 1378     		ldrb	r3, [r2]	@ zero_extendqisi2
 810:lvgl/src/extra/libs/qrcode/qrcodegen.c **** 		if (*text < '0' || *text > '9')
 5311              		.loc 1 810 15 discriminator 1 view .LVU1328
 5312 0008 63B1     		cbz	r3, .L446
 811:lvgl/src/extra/libs/qrcode/qrcodegen.c **** 			return false;
 5313              		.loc 1 811 3 is_stmt 1 view .LVU1329
 811:lvgl/src/extra/libs/qrcode/qrcodegen.c **** 			return false;
 5314              		.loc 1 811 19 is_stmt 0 view .LVU1330
 5315 000a 303B     		subs	r3, r3, #48
 5316 000c DBB2     		uxtb	r3, r3
 811:lvgl/src/extra/libs/qrcode/qrcodegen.c **** 			return false;
 5317              		.loc 1 811 6 view .LVU1331
 5318 000e 092B     		cmp	r3, #9
 5319 0010 0AD8     		bhi	.L443
 810:lvgl/src/extra/libs/qrcode/qrcodegen.c **** 		if (*text < '0' || *text > '9')
 5320              		.loc 1 810 28 is_stmt 1 view .LVU1332
 5321 0012 0132     		adds	r2, r2, #1
 5322              	.LVL605:
 810:lvgl/src/extra/libs/qrcode/qrcodegen.c **** 		if (*text < '0' || *text > '9')
 5323              		.loc 1 810 28 is_stmt 0 view .LVU1333
 5324 0014 F7E7     		b	.L440
 5325              	.LVL606:
 5326              	.L445:
 809:lvgl/src/extra/libs/qrcode/qrcodegen.c **** 	for (; *text != '\0'; text++) {
 5327              		.loc 1 809 2 discriminator 1 view .LVU1334
 5328 0016 054B     		ldr	r3, .L447
ARM GAS  C:\usertemp\ccXENK9d.s 			page 135


 5329 0018 054A     		ldr	r2, .L447+4
 5330 001a 40F22931 		movw	r1, #809
 5331 001e 0548     		ldr	r0, .L447+8
 5332              	.LVL607:
 809:lvgl/src/extra/libs/qrcode/qrcodegen.c **** 	for (; *text != '\0'; text++) {
 5333              		.loc 1 809 2 discriminator 1 view .LVU1335
 5334 0020 FFF7FEFF 		bl	__assert_func
 5335              	.LVL608:
 5336              	.L446:
 814:lvgl/src/extra/libs/qrcode/qrcodegen.c **** }
 5337              		.loc 1 814 9 view .LVU1336
 5338 0024 0120     		movs	r0, #1
 5339              	.L441:
 815:lvgl/src/extra/libs/qrcode/qrcodegen.c **** 
 5340              		.loc 1 815 1 view .LVU1337
 5341 0026 08BD     		pop	{r3, pc}
 5342              	.L443:
 812:lvgl/src/extra/libs/qrcode/qrcodegen.c **** 	}
 5343              		.loc 1 812 11 view .LVU1338
 5344 0028 0020     		movs	r0, #0
 5345 002a FCE7     		b	.L441
 5346              	.L448:
 5347              		.align	2
 5348              	.L447:
 5349 002c 00000000 		.word	.LC27
 5350 0030 00000000 		.word	__func__.5
 5351 0034 08000000 		.word	.LC1
 5352              		.cfi_endproc
 5353              	.LFE28:
 5355              		.section	.rodata.qrcodegen_calcSegmentBufferSize.str1.4,"aMS",%progbits,1
 5356              		.align	2
 5357              	.LC29:
 5358 0000 30203C3D 		.ascii	"0 <= temp && temp <= INT16_MAX\000"
 5358      2074656D 
 5358      70202626 
 5358      2074656D 
 5358      70203C3D 
 5359              		.section	.text.qrcodegen_calcSegmentBufferSize,"ax",%progbits
 5360              		.align	1
 5361              		.global	qrcodegen_calcSegmentBufferSize
 5362              		.syntax unified
 5363              		.thumb
 5364              		.thumb_func
 5366              	qrcodegen_calcSegmentBufferSize:
 5367              	.LVL609:
 5368              	.LFB29:
 819:lvgl/src/extra/libs/qrcode/qrcodegen.c **** 	int temp = calcSegmentBitLength(mode, numChars);
 5369              		.loc 1 819 83 is_stmt 1 view -0
 5370              		.cfi_startproc
 5371              		@ args = 0, pretend = 0, frame = 0
 5372              		@ frame_needed = 0, uses_anonymous_args = 0
 819:lvgl/src/extra/libs/qrcode/qrcodegen.c **** 	int temp = calcSegmentBitLength(mode, numChars);
 5373              		.loc 1 819 83 is_stmt 0 view .LVU1340
 5374 0000 08B5     		push	{r3, lr}
 5375              	.LCFI58:
 5376              		.cfi_def_cfa_offset 8
 5377              		.cfi_offset 3, -8
ARM GAS  C:\usertemp\ccXENK9d.s 			page 136


 5378              		.cfi_offset 14, -4
 820:lvgl/src/extra/libs/qrcode/qrcodegen.c **** 	if (temp == -1)
 5379              		.loc 1 820 2 is_stmt 1 view .LVU1341
 820:lvgl/src/extra/libs/qrcode/qrcodegen.c **** 	if (temp == -1)
 5380              		.loc 1 820 13 is_stmt 0 view .LVU1342
 5381 0002 FFF7FEFF 		bl	calcSegmentBitLength
 5382              	.LVL610:
 821:lvgl/src/extra/libs/qrcode/qrcodegen.c **** 		return SIZE_MAX;
 5383              		.loc 1 821 2 is_stmt 1 view .LVU1343
 821:lvgl/src/extra/libs/qrcode/qrcodegen.c **** 		return SIZE_MAX;
 5384              		.loc 1 821 5 is_stmt 0 view .LVU1344
 5385 0006 B0F1FF3F 		cmp	r0, #-1
 5386 000a 0CD0     		beq	.L452
 823:lvgl/src/extra/libs/qrcode/qrcodegen.c **** 	return ((size_t)temp + 7) / 8;
 5387              		.loc 1 823 2 is_stmt 1 view .LVU1345
 5388 000c B0F5004F 		cmp	r0, #32768
 5389 0010 02D2     		bcs	.L454
 824:lvgl/src/extra/libs/qrcode/qrcodegen.c **** }
 5390              		.loc 1 824 2 view .LVU1346
 824:lvgl/src/extra/libs/qrcode/qrcodegen.c **** }
 5391              		.loc 1 824 23 is_stmt 0 view .LVU1347
 5392 0012 0730     		adds	r0, r0, #7
 5393              	.LVL611:
 824:lvgl/src/extra/libs/qrcode/qrcodegen.c **** }
 5394              		.loc 1 824 28 view .LVU1348
 5395 0014 C008     		lsrs	r0, r0, #3
 5396              	.LVL612:
 5397              	.L449:
 825:lvgl/src/extra/libs/qrcode/qrcodegen.c **** 
 5398              		.loc 1 825 1 view .LVU1349
 5399 0016 08BD     		pop	{r3, pc}
 5400              	.LVL613:
 5401              	.L454:
 823:lvgl/src/extra/libs/qrcode/qrcodegen.c **** 	return ((size_t)temp + 7) / 8;
 5402              		.loc 1 823 2 discriminator 1 view .LVU1350
 5403 0018 044B     		ldr	r3, .L455
 5404 001a 054A     		ldr	r2, .L455+4
 5405 001c 40F23731 		movw	r1, #823
 5406 0020 0448     		ldr	r0, .L455+8
 5407              	.LVL614:
 823:lvgl/src/extra/libs/qrcode/qrcodegen.c **** 	return ((size_t)temp + 7) / 8;
 5408              		.loc 1 823 2 discriminator 1 view .LVU1351
 5409 0022 FFF7FEFF 		bl	__assert_func
 5410              	.LVL615:
 5411              	.L452:
 822:lvgl/src/extra/libs/qrcode/qrcodegen.c **** 	assert(0 <= temp && temp <= INT16_MAX);
 5412              		.loc 1 822 10 view .LVU1352
 5413 0026 4FF0FF30 		mov	r0, #-1
 5414              	.LVL616:
 822:lvgl/src/extra/libs/qrcode/qrcodegen.c **** 	assert(0 <= temp && temp <= INT16_MAX);
 5415              		.loc 1 822 10 view .LVU1353
 5416 002a F4E7     		b	.L449
 5417              	.L456:
 5418              		.align	2
 5419              	.L455:
 5420 002c 00000000 		.word	.LC29
 5421 0030 00000000 		.word	__func__.4
ARM GAS  C:\usertemp\ccXENK9d.s 			page 137


 5422 0034 08000000 		.word	.LC1
 5423              		.cfi_endproc
 5424              	.LFE29:
 5426              		.section	.rodata.qrcodegen_makeBytes.str1.4,"aMS",%progbits,1
 5427              		.align	2
 5428              	.LC30:
 5429 0000 64617461 		.ascii	"data != NULL || len == 0\000"
 5429      20213D20 
 5429      4E554C4C 
 5429      207C7C20 
 5429      6C656E20 
 5430 0019 000000   		.align	2
 5431              	.LC31:
 5432 001c 72657375 		.ascii	"result.bitLength != -1\000"
 5432      6C742E62 
 5432      69744C65 
 5432      6E677468 
 5432      20213D20 
 5433              		.section	.text.qrcodegen_makeBytes,"ax",%progbits
 5434              		.align	1
 5435              		.global	qrcodegen_makeBytes
 5436              		.syntax unified
 5437              		.thumb
 5438              		.thumb_func
 5440              	qrcodegen_makeBytes:
 5441              	.LVL617:
 5442              	.LFB31:
 863:lvgl/src/extra/libs/qrcode/qrcodegen.c **** 	assert(data != NULL || len == 0);
 5443              		.loc 1 863 95 is_stmt 1 view -0
 5444              		.cfi_startproc
 5445              		@ args = 0, pretend = 0, frame = 0
 5446              		@ frame_needed = 0, uses_anonymous_args = 0
 863:lvgl/src/extra/libs/qrcode/qrcodegen.c **** 	assert(data != NULL || len == 0);
 5447              		.loc 1 863 95 is_stmt 0 view .LVU1355
 5448 0000 F8B5     		push	{r3, r4, r5, r6, r7, lr}
 5449              	.LCFI59:
 5450              		.cfi_def_cfa_offset 24
 5451              		.cfi_offset 3, -24
 5452              		.cfi_offset 4, -20
 5453              		.cfi_offset 5, -16
 5454              		.cfi_offset 6, -12
 5455              		.cfi_offset 7, -8
 5456              		.cfi_offset 14, -4
 864:lvgl/src/extra/libs/qrcode/qrcodegen.c **** 	struct qrcodegen_Segment result;
 5457              		.loc 1 864 2 is_stmt 1 view .LVU1356
 5458 0002 0F46     		mov	r7, r1
 5459 0004 B1FA81F1 		clz	r1, r1
 5460              	.LVL618:
 864:lvgl/src/extra/libs/qrcode/qrcodegen.c **** 	struct qrcodegen_Segment result;
 5461              		.loc 1 864 2 is_stmt 0 view .LVU1357
 5462 0008 4909     		lsrs	r1, r1, #5
 5463 000a 002A     		cmp	r2, #0
 5464 000c 08BF     		it	eq
 5465 000e 0021     		moveq	r1, #0
 5466 0010 81B9     		cbnz	r1, .L462
 5467 0012 0446     		mov	r4, r0
 5468 0014 1D46     		mov	r5, r3
ARM GAS  C:\usertemp\ccXENK9d.s 			page 138


 5469 0016 1646     		mov	r6, r2
 865:lvgl/src/extra/libs/qrcode/qrcodegen.c **** 	result.mode = qrcodegen_Mode_BYTE;
 5470              		.loc 1 865 2 is_stmt 1 view .LVU1358
 866:lvgl/src/extra/libs/qrcode/qrcodegen.c **** 	result.bitLength = calcSegmentBitLength(result.mode, len);
 5471              		.loc 1 866 2 view .LVU1359
 866:lvgl/src/extra/libs/qrcode/qrcodegen.c **** 	result.bitLength = calcSegmentBitLength(result.mode, len);
 5472              		.loc 1 866 14 is_stmt 0 view .LVU1360
 5473 0018 0420     		movs	r0, #4
 5474              	.LVL619:
 866:lvgl/src/extra/libs/qrcode/qrcodegen.c **** 	result.bitLength = calcSegmentBitLength(result.mode, len);
 5475              		.loc 1 866 14 view .LVU1361
 5476 001a 2070     		strb	r0, [r4]
 867:lvgl/src/extra/libs/qrcode/qrcodegen.c **** 	assert(result.bitLength != -1);
 5477              		.loc 1 867 2 is_stmt 1 view .LVU1362
 867:lvgl/src/extra/libs/qrcode/qrcodegen.c **** 	assert(result.bitLength != -1);
 5478              		.loc 1 867 21 is_stmt 0 view .LVU1363
 5479 001c 1146     		mov	r1, r2
 5480 001e FFF7FEFF 		bl	calcSegmentBitLength
 5481              	.LVL620:
 867:lvgl/src/extra/libs/qrcode/qrcodegen.c **** 	assert(result.bitLength != -1);
 5482              		.loc 1 867 19 discriminator 1 view .LVU1364
 5483 0022 E060     		str	r0, [r4, #12]
 868:lvgl/src/extra/libs/qrcode/qrcodegen.c **** 	result.numChars = (int)len;
 5484              		.loc 1 868 2 is_stmt 1 view .LVU1365
 5485 0024 B0F1FF3F 		cmp	r0, #-1
 5486 0028 0BD0     		beq	.L463
 869:lvgl/src/extra/libs/qrcode/qrcodegen.c **** 	if (len > 0)
 5487              		.loc 1 869 2 view .LVU1366
 869:lvgl/src/extra/libs/qrcode/qrcodegen.c **** 	if (len > 0)
 5488              		.loc 1 869 18 is_stmt 0 view .LVU1367
 5489 002a 6660     		str	r6, [r4, #4]
 870:lvgl/src/extra/libs/qrcode/qrcodegen.c **** 		memcpy(buf, data, len * sizeof(buf[0]));
 5490              		.loc 1 870 2 is_stmt 1 view .LVU1368
 870:lvgl/src/extra/libs/qrcode/qrcodegen.c **** 		memcpy(buf, data, len * sizeof(buf[0]));
 5491              		.loc 1 870 5 is_stmt 0 view .LVU1369
 5492 002c 86B9     		cbnz	r6, .L464
 5493              	.L460:
 872:lvgl/src/extra/libs/qrcode/qrcodegen.c **** 	return result;
 5494              		.loc 1 872 2 is_stmt 1 view .LVU1370
 872:lvgl/src/extra/libs/qrcode/qrcodegen.c **** 	return result;
 5495              		.loc 1 872 14 is_stmt 0 view .LVU1371
 5496 002e A560     		str	r5, [r4, #8]
 873:lvgl/src/extra/libs/qrcode/qrcodegen.c **** }
 5497              		.loc 1 873 2 is_stmt 1 view .LVU1372
 874:lvgl/src/extra/libs/qrcode/qrcodegen.c **** 
 5498              		.loc 1 874 1 is_stmt 0 view .LVU1373
 5499 0030 2046     		mov	r0, r4
 5500 0032 F8BD     		pop	{r3, r4, r5, r6, r7, pc}
 5501              	.LVL621:
 5502              	.L462:
 864:lvgl/src/extra/libs/qrcode/qrcodegen.c **** 	struct qrcodegen_Segment result;
 5503              		.loc 1 864 2 discriminator 1 view .LVU1374
 5504 0034 094B     		ldr	r3, .L465
 5505              	.LVL622:
 864:lvgl/src/extra/libs/qrcode/qrcodegen.c **** 	struct qrcodegen_Segment result;
 5506              		.loc 1 864 2 discriminator 1 view .LVU1375
 5507 0036 0A4A     		ldr	r2, .L465+4
ARM GAS  C:\usertemp\ccXENK9d.s 			page 139


 5508              	.LVL623:
 864:lvgl/src/extra/libs/qrcode/qrcodegen.c **** 	struct qrcodegen_Segment result;
 5509              		.loc 1 864 2 discriminator 1 view .LVU1376
 5510 0038 4FF45871 		mov	r1, #864
 5511 003c 0948     		ldr	r0, .L465+8
 5512              	.LVL624:
 864:lvgl/src/extra/libs/qrcode/qrcodegen.c **** 	struct qrcodegen_Segment result;
 5513              		.loc 1 864 2 discriminator 1 view .LVU1377
 5514 003e FFF7FEFF 		bl	__assert_func
 5515              	.LVL625:
 5516              	.L463:
 868:lvgl/src/extra/libs/qrcode/qrcodegen.c **** 	result.numChars = (int)len;
 5517              		.loc 1 868 2 discriminator 1 view .LVU1378
 5518 0042 094B     		ldr	r3, .L465+12
 5519 0044 064A     		ldr	r2, .L465+4
 5520 0046 4FF45971 		mov	r1, #868
 5521 004a 0648     		ldr	r0, .L465+8
 5522 004c FFF7FEFF 		bl	__assert_func
 5523              	.LVL626:
 5524              	.L464:
 871:lvgl/src/extra/libs/qrcode/qrcodegen.c **** 	result.data = buf;
 5525              		.loc 1 871 3 is_stmt 1 view .LVU1379
 5526 0050 3246     		mov	r2, r6
 5527 0052 3946     		mov	r1, r7
 5528 0054 2846     		mov	r0, r5
 5529 0056 FFF7FEFF 		bl	memcpy
 5530              	.LVL627:
 5531 005a E8E7     		b	.L460
 5532              	.L466:
 5533              		.align	2
 5534              	.L465:
 5535 005c 00000000 		.word	.LC30
 5536 0060 00000000 		.word	__func__.3
 5537 0064 08000000 		.word	.LC1
 5538 0068 1C000000 		.word	.LC31
 5539              		.cfi_endproc
 5540              	.LFE31:
 5542              		.section	.rodata.qrcodegen_makeNumeric.str1.4,"aMS",%progbits,1
 5543              		.align	2
 5544              	.LC32:
 5545 0000 64696769 		.ascii	"digits != NULL\000"
 5545      74732021 
 5545      3D204E55 
 5545      4C4C00
 5546 000f 00       		.align	2
 5547              	.LC33:
 5548 0010 6269744C 		.ascii	"bitLen != -1\000"
 5548      656E2021 
 5548      3D202D31 
 5548      00
 5549 001d 000000   		.align	2
 5550              	.LC34:
 5551 0020 27302720 		.ascii	"'0' <= c && c <= '9'\000"
 5551      3C3D2063 
 5551      20262620 
 5551      63203C3D 
 5551      20273927 
ARM GAS  C:\usertemp\ccXENK9d.s 			page 140


 5552 0035 000000   		.align	2
 5553              	.LC35:
 5554 0038 72657375 		.ascii	"result.bitLength == bitLen\000"
 5554      6C742E62 
 5554      69744C65 
 5554      6E677468 
 5554      203D3D20 
 5555              		.section	.text.qrcodegen_makeNumeric,"ax",%progbits
 5556              		.align	1
 5557              		.global	qrcodegen_makeNumeric
 5558              		.syntax unified
 5559              		.thumb
 5560              		.thumb_func
 5562              	qrcodegen_makeNumeric:
 5563              	.LVL628:
 5564              	.LFB32:
 878:lvgl/src/extra/libs/qrcode/qrcodegen.c **** 	assert(digits != NULL);
 5565              		.loc 1 878 83 view -0
 5566              		.cfi_startproc
 5567              		@ args = 0, pretend = 0, frame = 16
 5568              		@ frame_needed = 0, uses_anonymous_args = 0
 878:lvgl/src/extra/libs/qrcode/qrcodegen.c **** 	assert(digits != NULL);
 5569              		.loc 1 878 83 is_stmt 0 view .LVU1381
 5570 0000 2DE9F041 		push	{r4, r5, r6, r7, r8, lr}
 5571              	.LCFI60:
 5572              		.cfi_def_cfa_offset 24
 5573              		.cfi_offset 4, -24
 5574              		.cfi_offset 5, -20
 5575              		.cfi_offset 6, -16
 5576              		.cfi_offset 7, -12
 5577              		.cfi_offset 8, -8
 5578              		.cfi_offset 14, -4
 5579 0004 84B0     		sub	sp, sp, #16
 5580              	.LCFI61:
 5581              		.cfi_def_cfa_offset 40
 879:lvgl/src/extra/libs/qrcode/qrcodegen.c **** 	struct qrcodegen_Segment result;
 5582              		.loc 1 879 2 is_stmt 1 view .LVU1382
 5583 0006 C1B1     		cbz	r1, .L478
 5584 0008 0646     		mov	r6, r0
 5585 000a 1546     		mov	r5, r2
 5586 000c 0C46     		mov	r4, r1
 880:lvgl/src/extra/libs/qrcode/qrcodegen.c **** 	size_t len = strlen(digits);
 5587              		.loc 1 880 2 view .LVU1383
 881:lvgl/src/extra/libs/qrcode/qrcodegen.c **** 	result.mode = qrcodegen_Mode_NUMERIC;
 5588              		.loc 1 881 2 view .LVU1384
 881:lvgl/src/extra/libs/qrcode/qrcodegen.c **** 	result.mode = qrcodegen_Mode_NUMERIC;
 5589              		.loc 1 881 15 is_stmt 0 view .LVU1385
 5590 000e 0846     		mov	r0, r1
 5591              	.LVL629:
 881:lvgl/src/extra/libs/qrcode/qrcodegen.c **** 	result.mode = qrcodegen_Mode_NUMERIC;
 5592              		.loc 1 881 15 view .LVU1386
 5593 0010 FFF7FEFF 		bl	strlen
 5594              	.LVL630:
 881:lvgl/src/extra/libs/qrcode/qrcodegen.c **** 	result.mode = qrcodegen_Mode_NUMERIC;
 5595              		.loc 1 881 15 view .LVU1387
 5596 0014 8046     		mov	r8, r0
 5597              	.LVL631:
ARM GAS  C:\usertemp\ccXENK9d.s 			page 141


 882:lvgl/src/extra/libs/qrcode/qrcodegen.c **** 	int bitLen = calcSegmentBitLength(result.mode, len);
 5598              		.loc 1 882 2 is_stmt 1 view .LVU1388
 882:lvgl/src/extra/libs/qrcode/qrcodegen.c **** 	int bitLen = calcSegmentBitLength(result.mode, len);
 5599              		.loc 1 882 14 is_stmt 0 view .LVU1389
 5600 0016 0120     		movs	r0, #1
 5601              	.LVL632:
 882:lvgl/src/extra/libs/qrcode/qrcodegen.c **** 	int bitLen = calcSegmentBitLength(result.mode, len);
 5602              		.loc 1 882 14 view .LVU1390
 5603 0018 8DF80000 		strb	r0, [sp]
 883:lvgl/src/extra/libs/qrcode/qrcodegen.c **** 	assert(bitLen != -1);
 5604              		.loc 1 883 2 is_stmt 1 view .LVU1391
 883:lvgl/src/extra/libs/qrcode/qrcodegen.c **** 	assert(bitLen != -1);
 5605              		.loc 1 883 15 is_stmt 0 view .LVU1392
 5606 001c 4146     		mov	r1, r8
 5607 001e FFF7FEFF 		bl	calcSegmentBitLength
 5608              	.LVL633:
 5609 0022 0746     		mov	r7, r0
 5610              	.LVL634:
 884:lvgl/src/extra/libs/qrcode/qrcodegen.c **** 	result.numChars = (int)len;
 5611              		.loc 1 884 2 is_stmt 1 view .LVU1393
 5612 0024 B0F1FF3F 		cmp	r0, #-1
 5613 0028 0ED0     		beq	.L479
 885:lvgl/src/extra/libs/qrcode/qrcodegen.c **** 	if (bitLen > 0)
 5614              		.loc 1 885 2 view .LVU1394
 885:lvgl/src/extra/libs/qrcode/qrcodegen.c **** 	if (bitLen > 0)
 5615              		.loc 1 885 18 is_stmt 0 view .LVU1395
 5616 002a CDF80480 		str	r8, [sp, #4]
 886:lvgl/src/extra/libs/qrcode/qrcodegen.c **** 		memset(buf, 0, ((size_t)bitLen + 7) / 8 * sizeof(buf[0]));
 5617              		.loc 1 886 2 is_stmt 1 view .LVU1396
 886:lvgl/src/extra/libs/qrcode/qrcodegen.c **** 		memset(buf, 0, ((size_t)bitLen + 7) / 8 * sizeof(buf[0]));
 5618              		.loc 1 886 5 is_stmt 0 view .LVU1397
 5619 002e 0028     		cmp	r0, #0
 5620 0030 11DC     		bgt	.L480
 5621              	.LVL635:
 5622              	.L470:
 888:lvgl/src/extra/libs/qrcode/qrcodegen.c **** 	
 5623              		.loc 1 888 2 is_stmt 1 view .LVU1398
 888:lvgl/src/extra/libs/qrcode/qrcodegen.c **** 	
 5624              		.loc 1 888 19 is_stmt 0 view .LVU1399
 5625 0032 0020     		movs	r0, #0
 5626 0034 0390     		str	r0, [sp, #12]
 890:lvgl/src/extra/libs/qrcode/qrcodegen.c **** 	int accumCount = 0;
 5627              		.loc 1 890 2 is_stmt 1 view .LVU1400
 5628              	.LVL636:
 891:lvgl/src/extra/libs/qrcode/qrcodegen.c **** 	for (; *digits != '\0'; digits++) {
 5629              		.loc 1 891 2 view .LVU1401
 892:lvgl/src/extra/libs/qrcode/qrcodegen.c **** 		char c = *digits;
 5630              		.loc 1 892 2 view .LVU1402
 891:lvgl/src/extra/libs/qrcode/qrcodegen.c **** 	for (; *digits != '\0'; digits++) {
 5631              		.loc 1 891 6 is_stmt 0 view .LVU1403
 5632 0036 0146     		mov	r1, r0
 892:lvgl/src/extra/libs/qrcode/qrcodegen.c **** 		char c = *digits;
 5633              		.loc 1 892 2 view .LVU1404
 5634 0038 1CE0     		b	.L471
 5635              	.LVL637:
 5636              	.L478:
 879:lvgl/src/extra/libs/qrcode/qrcodegen.c **** 	struct qrcodegen_Segment result;
ARM GAS  C:\usertemp\ccXENK9d.s 			page 142


 5637              		.loc 1 879 2 discriminator 1 view .LVU1405
 5638 003a 294B     		ldr	r3, .L485
 5639 003c 294A     		ldr	r2, .L485+4
 5640              	.LVL638:
 879:lvgl/src/extra/libs/qrcode/qrcodegen.c **** 	struct qrcodegen_Segment result;
 5641              		.loc 1 879 2 discriminator 1 view .LVU1406
 5642 003e 40F26F31 		movw	r1, #879
 5643              	.LVL639:
 879:lvgl/src/extra/libs/qrcode/qrcodegen.c **** 	struct qrcodegen_Segment result;
 5644              		.loc 1 879 2 discriminator 1 view .LVU1407
 5645 0042 2948     		ldr	r0, .L485+8
 5646              	.LVL640:
 879:lvgl/src/extra/libs/qrcode/qrcodegen.c **** 	struct qrcodegen_Segment result;
 5647              		.loc 1 879 2 discriminator 1 view .LVU1408
 5648 0044 FFF7FEFF 		bl	__assert_func
 5649              	.LVL641:
 5650              	.L479:
 884:lvgl/src/extra/libs/qrcode/qrcodegen.c **** 	result.numChars = (int)len;
 5651              		.loc 1 884 2 discriminator 1 view .LVU1409
 5652 0048 284B     		ldr	r3, .L485+12
 5653 004a 264A     		ldr	r2, .L485+4
 5654 004c 4FF45D71 		mov	r1, #884
 5655 0050 2548     		ldr	r0, .L485+8
 5656              	.LVL642:
 884:lvgl/src/extra/libs/qrcode/qrcodegen.c **** 	result.numChars = (int)len;
 5657              		.loc 1 884 2 discriminator 1 view .LVU1410
 5658 0052 FFF7FEFF 		bl	__assert_func
 5659              	.LVL643:
 5660              	.L480:
 887:lvgl/src/extra/libs/qrcode/qrcodegen.c **** 	result.bitLength = 0;
 5661              		.loc 1 887 3 is_stmt 1 view .LVU1411
 887:lvgl/src/extra/libs/qrcode/qrcodegen.c **** 	result.bitLength = 0;
 5662              		.loc 1 887 34 is_stmt 0 view .LVU1412
 5663 0056 C21D     		adds	r2, r0, #7
 887:lvgl/src/extra/libs/qrcode/qrcodegen.c **** 	result.bitLength = 0;
 5664              		.loc 1 887 3 view .LVU1413
 5665 0058 D208     		lsrs	r2, r2, #3
 5666 005a 0021     		movs	r1, #0
 5667 005c 2846     		mov	r0, r5
 5668              	.LVL644:
 887:lvgl/src/extra/libs/qrcode/qrcodegen.c **** 	result.bitLength = 0;
 5669              		.loc 1 887 3 view .LVU1414
 5670 005e FFF7FEFF 		bl	memset
 5671              	.LVL645:
 5672 0062 E6E7     		b	.L470
 5673              	.LVL646:
 5674              	.L482:
 5675              	.LBB126:
 894:lvgl/src/extra/libs/qrcode/qrcodegen.c **** 		accumData = accumData * 10 + (unsigned int)(c - '0');
 5676              		.loc 1 894 3 discriminator 1 view .LVU1415
 5677 0064 224B     		ldr	r3, .L485+16
 5678              	.LVL647:
 894:lvgl/src/extra/libs/qrcode/qrcodegen.c **** 		accumData = accumData * 10 + (unsigned int)(c - '0');
 5679              		.loc 1 894 3 discriminator 1 view .LVU1416
 5680 0066 1F4A     		ldr	r2, .L485+4
 5681 0068 40F27E31 		movw	r1, #894
 5682              	.LVL648:
ARM GAS  C:\usertemp\ccXENK9d.s 			page 143


 894:lvgl/src/extra/libs/qrcode/qrcodegen.c **** 		accumData = accumData * 10 + (unsigned int)(c - '0');
 5683              		.loc 1 894 3 discriminator 1 view .LVU1417
 5684 006c 1E48     		ldr	r0, .L485+8
 5685              	.LVL649:
 894:lvgl/src/extra/libs/qrcode/qrcodegen.c **** 		accumData = accumData * 10 + (unsigned int)(c - '0');
 5686              		.loc 1 894 3 discriminator 1 view .LVU1418
 5687 006e FFF7FEFF 		bl	__assert_func
 5688              	.LVL650:
 5689              	.L473:
 894:lvgl/src/extra/libs/qrcode/qrcodegen.c **** 		accumData = accumData * 10 + (unsigned int)(c - '0');
 5690              		.loc 1 894 3 discriminator 1 view .LVU1419
 5691              	.LBE126:
 892:lvgl/src/extra/libs/qrcode/qrcodegen.c **** 		char c = *digits;
 5692              		.loc 1 892 32 is_stmt 1 view .LVU1420
 5693 0072 0134     		adds	r4, r4, #1
 5694              	.LVL651:
 5695              	.L471:
 892:lvgl/src/extra/libs/qrcode/qrcodegen.c **** 		char c = *digits;
 5696              		.loc 1 892 17 discriminator 1 view .LVU1421
 892:lvgl/src/extra/libs/qrcode/qrcodegen.c **** 		char c = *digits;
 5697              		.loc 1 892 9 is_stmt 0 discriminator 1 view .LVU1422
 5698 0074 2378     		ldrb	r3, [r4]	@ zero_extendqisi2
 892:lvgl/src/extra/libs/qrcode/qrcodegen.c **** 		char c = *digits;
 5699              		.loc 1 892 17 discriminator 1 view .LVU1423
 5700 0076 ABB1     		cbz	r3, .L481
 5701              	.LBB127:
 893:lvgl/src/extra/libs/qrcode/qrcodegen.c **** 		assert('0' <= c && c <= '9');
 5702              		.loc 1 893 3 is_stmt 1 view .LVU1424
 5703              	.LVL652:
 894:lvgl/src/extra/libs/qrcode/qrcodegen.c **** 		accumData = accumData * 10 + (unsigned int)(c - '0');
 5704              		.loc 1 894 3 view .LVU1425
 5705 0078 A3F13002 		sub	r2, r3, #48
 5706 007c D2B2     		uxtb	r2, r2
 5707 007e 092A     		cmp	r2, #9
 5708 0080 F0D8     		bhi	.L482
 895:lvgl/src/extra/libs/qrcode/qrcodegen.c **** 		accumCount++;
 5709              		.loc 1 895 3 view .LVU1426
 895:lvgl/src/extra/libs/qrcode/qrcodegen.c **** 		accumCount++;
 5710              		.loc 1 895 25 is_stmt 0 view .LVU1427
 5711 0082 00EB8000 		add	r0, r0, r0, lsl #2
 5712              	.LVL653:
 895:lvgl/src/extra/libs/qrcode/qrcodegen.c **** 		accumCount++;
 5713              		.loc 1 895 30 view .LVU1428
 5714 0086 03EB4003 		add	r3, r3, r0, lsl #1
 5715              	.LVL654:
 895:lvgl/src/extra/libs/qrcode/qrcodegen.c **** 		accumCount++;
 5716              		.loc 1 895 13 view .LVU1429
 5717 008a A3F13000 		sub	r0, r3, #48
 5718              	.LVL655:
 896:lvgl/src/extra/libs/qrcode/qrcodegen.c **** 		if (accumCount == 3) {
 5719              		.loc 1 896 3 is_stmt 1 view .LVU1430
 896:lvgl/src/extra/libs/qrcode/qrcodegen.c **** 		if (accumCount == 3) {
 5720              		.loc 1 896 13 is_stmt 0 view .LVU1431
 5721 008e 0131     		adds	r1, r1, #1
 5722              	.LVL656:
 897:lvgl/src/extra/libs/qrcode/qrcodegen.c **** 			appendBitsToBuffer(accumData, 10, buf, &result.bitLength);
 5723              		.loc 1 897 3 is_stmt 1 view .LVU1432
ARM GAS  C:\usertemp\ccXENK9d.s 			page 144


 897:lvgl/src/extra/libs/qrcode/qrcodegen.c **** 			appendBitsToBuffer(accumData, 10, buf, &result.bitLength);
 5724              		.loc 1 897 6 is_stmt 0 view .LVU1433
 5725 0090 0329     		cmp	r1, #3
 5726 0092 EED1     		bne	.L473
 898:lvgl/src/extra/libs/qrcode/qrcodegen.c **** 			accumData = 0;
 5727              		.loc 1 898 4 is_stmt 1 view .LVU1434
 5728 0094 03AB     		add	r3, sp, #12
 5729 0096 2A46     		mov	r2, r5
 5730 0098 0A21     		movs	r1, #10
 5731              	.LVL657:
 898:lvgl/src/extra/libs/qrcode/qrcodegen.c **** 			accumData = 0;
 5732              		.loc 1 898 4 is_stmt 0 view .LVU1435
 5733 009a FFF7FEFF 		bl	appendBitsToBuffer
 5734              	.LVL658:
 899:lvgl/src/extra/libs/qrcode/qrcodegen.c **** 			accumCount = 0;
 5735              		.loc 1 899 4 is_stmt 1 view .LVU1436
 900:lvgl/src/extra/libs/qrcode/qrcodegen.c **** 		}
 5736              		.loc 1 900 4 view .LVU1437
 900:lvgl/src/extra/libs/qrcode/qrcodegen.c **** 		}
 5737              		.loc 1 900 15 is_stmt 0 view .LVU1438
 5738 009e 0020     		movs	r0, #0
 899:lvgl/src/extra/libs/qrcode/qrcodegen.c **** 			accumCount = 0;
 5739              		.loc 1 899 14 view .LVU1439
 5740 00a0 0146     		mov	r1, r0
 5741 00a2 E6E7     		b	.L473
 5742              	.LVL659:
 5743              	.L481:
 899:lvgl/src/extra/libs/qrcode/qrcodegen.c **** 			accumCount = 0;
 5744              		.loc 1 899 14 view .LVU1440
 5745              	.LBE127:
 903:lvgl/src/extra/libs/qrcode/qrcodegen.c **** 		appendBitsToBuffer(accumData, accumCount * 3 + 1, buf, &result.bitLength);
 5746              		.loc 1 903 2 is_stmt 1 view .LVU1441
 903:lvgl/src/extra/libs/qrcode/qrcodegen.c **** 		appendBitsToBuffer(accumData, accumCount * 3 + 1, buf, &result.bitLength);
 5747              		.loc 1 903 5 is_stmt 0 view .LVU1442
 5748 00a4 0029     		cmp	r1, #0
 5749 00a6 0CDC     		bgt	.L483
 5750              	.LVL660:
 5751              	.L475:
 905:lvgl/src/extra/libs/qrcode/qrcodegen.c **** 	result.data = buf;
 5752              		.loc 1 905 2 is_stmt 1 view .LVU1443
 5753 00a8 039B     		ldr	r3, [sp, #12]
 5754 00aa BB42     		cmp	r3, r7
 5755 00ac 11D1     		bne	.L484
 906:lvgl/src/extra/libs/qrcode/qrcodegen.c **** 	return result;
 5756              		.loc 1 906 2 view .LVU1444
 906:lvgl/src/extra/libs/qrcode/qrcodegen.c **** 	return result;
 5757              		.loc 1 906 14 is_stmt 0 view .LVU1445
 5758 00ae 0295     		str	r5, [sp, #8]
 907:lvgl/src/extra/libs/qrcode/qrcodegen.c **** }
 5759              		.loc 1 907 2 is_stmt 1 view .LVU1446
 907:lvgl/src/extra/libs/qrcode/qrcodegen.c **** }
 5760              		.loc 1 907 9 is_stmt 0 view .LVU1447
 5761 00b0 04AB     		add	r3, sp, #16
 5762 00b2 13E90F00 		ldmdb	r3, {r0, r1, r2, r3}
 5763 00b6 86E80F00 		stm	r6, {r0, r1, r2, r3}
 908:lvgl/src/extra/libs/qrcode/qrcodegen.c **** 
 5764              		.loc 1 908 1 view .LVU1448
ARM GAS  C:\usertemp\ccXENK9d.s 			page 145


 5765 00ba 3046     		mov	r0, r6
 5766 00bc 04B0     		add	sp, sp, #16
 5767              	.LCFI62:
 5768              		.cfi_remember_state
 5769              		.cfi_def_cfa_offset 24
 5770              		@ sp needed
 5771 00be BDE8F081 		pop	{r4, r5, r6, r7, r8, pc}
 5772              	.LVL661:
 5773              	.L483:
 5774              	.LCFI63:
 5775              		.cfi_restore_state
 904:lvgl/src/extra/libs/qrcode/qrcodegen.c **** 	assert(result.bitLength == bitLen);
 5776              		.loc 1 904 3 is_stmt 1 view .LVU1449
 904:lvgl/src/extra/libs/qrcode/qrcodegen.c **** 	assert(result.bitLength == bitLen);
 5777              		.loc 1 904 44 is_stmt 0 view .LVU1450
 5778 00c2 01EB4101 		add	r1, r1, r1, lsl #1
 5779              	.LVL662:
 904:lvgl/src/extra/libs/qrcode/qrcodegen.c **** 	assert(result.bitLength == bitLen);
 5780              		.loc 1 904 3 view .LVU1451
 5781 00c6 03AB     		add	r3, sp, #12
 5782 00c8 2A46     		mov	r2, r5
 5783 00ca 0131     		adds	r1, r1, #1
 5784 00cc FFF7FEFF 		bl	appendBitsToBuffer
 5785              	.LVL663:
 904:lvgl/src/extra/libs/qrcode/qrcodegen.c **** 	assert(result.bitLength == bitLen);
 5786              		.loc 1 904 3 view .LVU1452
 5787 00d0 EAE7     		b	.L475
 5788              	.L484:
 905:lvgl/src/extra/libs/qrcode/qrcodegen.c **** 	result.data = buf;
 5789              		.loc 1 905 2 discriminator 1 view .LVU1453
 5790 00d2 084B     		ldr	r3, .L485+20
 5791 00d4 034A     		ldr	r2, .L485+4
 5792 00d6 40F28931 		movw	r1, #905
 5793 00da 0348     		ldr	r0, .L485+8
 5794 00dc FFF7FEFF 		bl	__assert_func
 5795              	.LVL664:
 5796              	.L486:
 5797              		.align	2
 5798              	.L485:
 5799 00e0 00000000 		.word	.LC32
 5800 00e4 00000000 		.word	__func__.2
 5801 00e8 08000000 		.word	.LC1
 5802 00ec 10000000 		.word	.LC33
 5803 00f0 20000000 		.word	.LC34
 5804 00f4 38000000 		.word	.LC35
 5805              		.cfi_endproc
 5806              	.LFE32:
 5808              		.section	.rodata.qrcodegen_makeAlphanumeric.str1.4,"aMS",%progbits,1
 5809              		.align	2
 5810              	.LC36:
 5811 0000 74656D70 		.ascii	"temp != NULL\000"
 5811      20213D20 
 5811      4E554C4C 
 5811      00
 5812              		.section	.text.qrcodegen_makeAlphanumeric,"ax",%progbits
 5813              		.align	1
 5814              		.global	qrcodegen_makeAlphanumeric
ARM GAS  C:\usertemp\ccXENK9d.s 			page 146


 5815              		.syntax unified
 5816              		.thumb
 5817              		.thumb_func
 5819              	qrcodegen_makeAlphanumeric:
 5820              	.LVL665:
 5821              	.LFB33:
 912:lvgl/src/extra/libs/qrcode/qrcodegen.c **** 	assert(text != NULL);
 5822              		.loc 1 912 86 is_stmt 1 view -0
 5823              		.cfi_startproc
 5824              		@ args = 0, pretend = 0, frame = 16
 5825              		@ frame_needed = 0, uses_anonymous_args = 0
 912:lvgl/src/extra/libs/qrcode/qrcodegen.c **** 	assert(text != NULL);
 5826              		.loc 1 912 86 is_stmt 0 view .LVU1455
 5827 0000 2DE9F043 		push	{r4, r5, r6, r7, r8, r9, lr}
 5828              	.LCFI64:
 5829              		.cfi_def_cfa_offset 28
 5830              		.cfi_offset 4, -28
 5831              		.cfi_offset 5, -24
 5832              		.cfi_offset 6, -20
 5833              		.cfi_offset 7, -16
 5834              		.cfi_offset 8, -12
 5835              		.cfi_offset 9, -8
 5836              		.cfi_offset 14, -4
 5837 0004 85B0     		sub	sp, sp, #20
 5838              	.LCFI65:
 5839              		.cfi_def_cfa_offset 48
 913:lvgl/src/extra/libs/qrcode/qrcodegen.c **** 	struct qrcodegen_Segment result;
 5840              		.loc 1 913 2 is_stmt 1 view .LVU1456
 5841 0006 B9B1     		cbz	r1, .L498
 5842 0008 8046     		mov	r8, r0
 5843 000a 1746     		mov	r7, r2
 5844 000c 0E46     		mov	r6, r1
 914:lvgl/src/extra/libs/qrcode/qrcodegen.c **** 	size_t len = strlen(text);
 5845              		.loc 1 914 2 view .LVU1457
 915:lvgl/src/extra/libs/qrcode/qrcodegen.c **** 	result.mode = qrcodegen_Mode_ALPHANUMERIC;
 5846              		.loc 1 915 2 view .LVU1458
 915:lvgl/src/extra/libs/qrcode/qrcodegen.c **** 	result.mode = qrcodegen_Mode_ALPHANUMERIC;
 5847              		.loc 1 915 15 is_stmt 0 view .LVU1459
 5848 000e 0846     		mov	r0, r1
 5849              	.LVL666:
 915:lvgl/src/extra/libs/qrcode/qrcodegen.c **** 	result.mode = qrcodegen_Mode_ALPHANUMERIC;
 5850              		.loc 1 915 15 view .LVU1460
 5851 0010 FFF7FEFF 		bl	strlen
 5852              	.LVL667:
 915:lvgl/src/extra/libs/qrcode/qrcodegen.c **** 	result.mode = qrcodegen_Mode_ALPHANUMERIC;
 5853              		.loc 1 915 15 view .LVU1461
 5854 0014 0446     		mov	r4, r0
 5855              	.LVL668:
 916:lvgl/src/extra/libs/qrcode/qrcodegen.c **** 	int bitLen = calcSegmentBitLength(result.mode, len);
 5856              		.loc 1 916 2 is_stmt 1 view .LVU1462
 916:lvgl/src/extra/libs/qrcode/qrcodegen.c **** 	int bitLen = calcSegmentBitLength(result.mode, len);
 5857              		.loc 1 916 14 is_stmt 0 view .LVU1463
 5858 0016 0220     		movs	r0, #2
 5859              	.LVL669:
 916:lvgl/src/extra/libs/qrcode/qrcodegen.c **** 	int bitLen = calcSegmentBitLength(result.mode, len);
 5860              		.loc 1 916 14 view .LVU1464
 5861 0018 8DF80000 		strb	r0, [sp]
ARM GAS  C:\usertemp\ccXENK9d.s 			page 147


 917:lvgl/src/extra/libs/qrcode/qrcodegen.c **** 	assert(bitLen != -1);
 5862              		.loc 1 917 2 is_stmt 1 view .LVU1465
 917:lvgl/src/extra/libs/qrcode/qrcodegen.c **** 	assert(bitLen != -1);
 5863              		.loc 1 917 15 is_stmt 0 view .LVU1466
 5864 001c 2146     		mov	r1, r4
 5865 001e FFF7FEFF 		bl	calcSegmentBitLength
 5866              	.LVL670:
 5867 0022 8146     		mov	r9, r0
 5868              	.LVL671:
 918:lvgl/src/extra/libs/qrcode/qrcodegen.c **** 	result.numChars = (int)len;
 5869              		.loc 1 918 2 is_stmt 1 view .LVU1467
 5870 0024 B0F1FF3F 		cmp	r0, #-1
 5871 0028 0DD0     		beq	.L499
 919:lvgl/src/extra/libs/qrcode/qrcodegen.c **** 	if (bitLen > 0)
 5872              		.loc 1 919 2 view .LVU1468
 919:lvgl/src/extra/libs/qrcode/qrcodegen.c **** 	if (bitLen > 0)
 5873              		.loc 1 919 18 is_stmt 0 view .LVU1469
 5874 002a 0194     		str	r4, [sp, #4]
 920:lvgl/src/extra/libs/qrcode/qrcodegen.c **** 		memset(buf, 0, ((size_t)bitLen + 7) / 8 * sizeof(buf[0]));
 5875              		.loc 1 920 2 is_stmt 1 view .LVU1470
 920:lvgl/src/extra/libs/qrcode/qrcodegen.c **** 		memset(buf, 0, ((size_t)bitLen + 7) / 8 * sizeof(buf[0]));
 5876              		.loc 1 920 5 is_stmt 0 view .LVU1471
 5877 002c 0028     		cmp	r0, #0
 5878 002e 11DC     		bgt	.L500
 5879              	.LVL672:
 5880              	.L490:
 922:lvgl/src/extra/libs/qrcode/qrcodegen.c **** 	
 5881              		.loc 1 922 2 is_stmt 1 view .LVU1472
 922:lvgl/src/extra/libs/qrcode/qrcodegen.c **** 	
 5882              		.loc 1 922 19 is_stmt 0 view .LVU1473
 5883 0030 0024     		movs	r4, #0
 5884              	.LVL673:
 922:lvgl/src/extra/libs/qrcode/qrcodegen.c **** 	
 5885              		.loc 1 922 19 view .LVU1474
 5886 0032 0394     		str	r4, [sp, #12]
 924:lvgl/src/extra/libs/qrcode/qrcodegen.c **** 	int accumCount = 0;
 5887              		.loc 1 924 2 is_stmt 1 view .LVU1475
 5888              	.LVL674:
 925:lvgl/src/extra/libs/qrcode/qrcodegen.c **** 	for (; *text != '\0'; text++) {
 5889              		.loc 1 925 2 view .LVU1476
 926:lvgl/src/extra/libs/qrcode/qrcodegen.c **** 		const char *temp = strchr(ALPHANUMERIC_CHARSET, *text);
 5890              		.loc 1 926 2 view .LVU1477
 925:lvgl/src/extra/libs/qrcode/qrcodegen.c **** 	for (; *text != '\0'; text++) {
 5891              		.loc 1 925 6 is_stmt 0 view .LVU1478
 5892 0034 2546     		mov	r5, r4
 926:lvgl/src/extra/libs/qrcode/qrcodegen.c **** 		const char *temp = strchr(ALPHANUMERIC_CHARSET, *text);
 5893              		.loc 1 926 2 view .LVU1479
 5894 0036 1CE0     		b	.L491
 5895              	.LVL675:
 5896              	.L498:
 913:lvgl/src/extra/libs/qrcode/qrcodegen.c **** 	struct qrcodegen_Segment result;
 5897              		.loc 1 913 2 discriminator 1 view .LVU1480
 5898 0038 294B     		ldr	r3, .L505
 5899 003a 2A4A     		ldr	r2, .L505+4
 5900              	.LVL676:
 913:lvgl/src/extra/libs/qrcode/qrcodegen.c **** 	struct qrcodegen_Segment result;
 5901              		.loc 1 913 2 discriminator 1 view .LVU1481
ARM GAS  C:\usertemp\ccXENK9d.s 			page 148


 5902 003c 40F29131 		movw	r1, #913
 5903              	.LVL677:
 913:lvgl/src/extra/libs/qrcode/qrcodegen.c **** 	struct qrcodegen_Segment result;
 5904              		.loc 1 913 2 discriminator 1 view .LVU1482
 5905 0040 2948     		ldr	r0, .L505+8
 5906              	.LVL678:
 913:lvgl/src/extra/libs/qrcode/qrcodegen.c **** 	struct qrcodegen_Segment result;
 5907              		.loc 1 913 2 discriminator 1 view .LVU1483
 5908 0042 FFF7FEFF 		bl	__assert_func
 5909              	.LVL679:
 5910              	.L499:
 918:lvgl/src/extra/libs/qrcode/qrcodegen.c **** 	result.numChars = (int)len;
 5911              		.loc 1 918 2 discriminator 1 view .LVU1484
 5912 0046 294B     		ldr	r3, .L505+12
 5913 0048 264A     		ldr	r2, .L505+4
 5914 004a 40F29631 		movw	r1, #918
 5915 004e 2648     		ldr	r0, .L505+8
 5916              	.LVL680:
 918:lvgl/src/extra/libs/qrcode/qrcodegen.c **** 	result.numChars = (int)len;
 5917              		.loc 1 918 2 discriminator 1 view .LVU1485
 5918 0050 FFF7FEFF 		bl	__assert_func
 5919              	.LVL681:
 5920              	.L500:
 921:lvgl/src/extra/libs/qrcode/qrcodegen.c **** 	result.bitLength = 0;
 5921              		.loc 1 921 3 is_stmt 1 view .LVU1486
 921:lvgl/src/extra/libs/qrcode/qrcodegen.c **** 	result.bitLength = 0;
 5922              		.loc 1 921 34 is_stmt 0 view .LVU1487
 5923 0054 C21D     		adds	r2, r0, #7
 921:lvgl/src/extra/libs/qrcode/qrcodegen.c **** 	result.bitLength = 0;
 5924              		.loc 1 921 3 view .LVU1488
 5925 0056 D208     		lsrs	r2, r2, #3
 5926 0058 0021     		movs	r1, #0
 5927 005a 3846     		mov	r0, r7
 5928              	.LVL682:
 921:lvgl/src/extra/libs/qrcode/qrcodegen.c **** 	result.bitLength = 0;
 5929              		.loc 1 921 3 view .LVU1489
 5930 005c FFF7FEFF 		bl	memset
 5931              	.LVL683:
 5932 0060 E6E7     		b	.L490
 5933              	.LVL684:
 5934              	.L502:
 5935              	.LBB128:
 928:lvgl/src/extra/libs/qrcode/qrcodegen.c **** 		accumData = accumData * 45 + (unsigned int)(temp - ALPHANUMERIC_CHARSET);
 5936              		.loc 1 928 3 discriminator 1 view .LVU1490
 5937 0062 234B     		ldr	r3, .L505+16
 5938 0064 1F4A     		ldr	r2, .L505+4
 5939 0066 4FF46871 		mov	r1, #928
 5940 006a 1F48     		ldr	r0, .L505+8
 5941              	.LVL685:
 928:lvgl/src/extra/libs/qrcode/qrcodegen.c **** 		accumData = accumData * 45 + (unsigned int)(temp - ALPHANUMERIC_CHARSET);
 5942              		.loc 1 928 3 discriminator 1 view .LVU1491
 5943 006c FFF7FEFF 		bl	__assert_func
 5944              	.LVL686:
 5945              	.L493:
 928:lvgl/src/extra/libs/qrcode/qrcodegen.c **** 		accumData = accumData * 45 + (unsigned int)(temp - ALPHANUMERIC_CHARSET);
 5946              		.loc 1 928 3 discriminator 1 view .LVU1492
 5947              	.LBE128:
ARM GAS  C:\usertemp\ccXENK9d.s 			page 149


 926:lvgl/src/extra/libs/qrcode/qrcodegen.c **** 		const char *temp = strchr(ALPHANUMERIC_CHARSET, *text);
 5948              		.loc 1 926 28 is_stmt 1 view .LVU1493
 5949 0070 0136     		adds	r6, r6, #1
 5950              	.LVL687:
 5951              	.L491:
 926:lvgl/src/extra/libs/qrcode/qrcodegen.c **** 		const char *temp = strchr(ALPHANUMERIC_CHARSET, *text);
 5952              		.loc 1 926 15 discriminator 1 view .LVU1494
 926:lvgl/src/extra/libs/qrcode/qrcodegen.c **** 		const char *temp = strchr(ALPHANUMERIC_CHARSET, *text);
 5953              		.loc 1 926 9 is_stmt 0 discriminator 1 view .LVU1495
 5954 0072 3178     		ldrb	r1, [r6]	@ zero_extendqisi2
 926:lvgl/src/extra/libs/qrcode/qrcodegen.c **** 		const char *temp = strchr(ALPHANUMERIC_CHARSET, *text);
 5955              		.loc 1 926 15 discriminator 1 view .LVU1496
 5956 0074 B9B1     		cbz	r1, .L501
 5957              	.LBB129:
 927:lvgl/src/extra/libs/qrcode/qrcodegen.c **** 		assert(temp != NULL);
 5958              		.loc 1 927 3 is_stmt 1 view .LVU1497
 927:lvgl/src/extra/libs/qrcode/qrcodegen.c **** 		assert(temp != NULL);
 5959              		.loc 1 927 22 is_stmt 0 view .LVU1498
 5960 0076 1F48     		ldr	r0, .L505+20
 5961 0078 FFF7FEFF 		bl	strchr
 5962              	.LVL688:
 928:lvgl/src/extra/libs/qrcode/qrcodegen.c **** 		accumData = accumData * 45 + (unsigned int)(temp - ALPHANUMERIC_CHARSET);
 5963              		.loc 1 928 3 is_stmt 1 view .LVU1499
 5964 007c 0028     		cmp	r0, #0
 5965 007e F0D0     		beq	.L502
 929:lvgl/src/extra/libs/qrcode/qrcodegen.c **** 		accumCount++;
 5966              		.loc 1 929 3 view .LVU1500
 929:lvgl/src/extra/libs/qrcode/qrcodegen.c **** 		accumCount++;
 5967              		.loc 1 929 25 is_stmt 0 view .LVU1501
 5968 0080 04EB4404 		add	r4, r4, r4, lsl #1
 5969              	.LVL689:
 929:lvgl/src/extra/libs/qrcode/qrcodegen.c **** 		accumCount++;
 5970              		.loc 1 929 25 view .LVU1502
 5971 0084 C4EB0414 		rsb	r4, r4, r4, lsl #4
 929:lvgl/src/extra/libs/qrcode/qrcodegen.c **** 		accumCount++;
 5972              		.loc 1 929 52 view .LVU1503
 5973 0088 1A4A     		ldr	r2, .L505+20
 5974 008a 831A     		subs	r3, r0, r2
 929:lvgl/src/extra/libs/qrcode/qrcodegen.c **** 		accumCount++;
 5975              		.loc 1 929 13 view .LVU1504
 5976 008c 1C44     		add	r4, r4, r3
 5977              	.LVL690:
 930:lvgl/src/extra/libs/qrcode/qrcodegen.c **** 		if (accumCount == 2) {
 5978              		.loc 1 930 3 is_stmt 1 view .LVU1505
 930:lvgl/src/extra/libs/qrcode/qrcodegen.c **** 		if (accumCount == 2) {
 5979              		.loc 1 930 13 is_stmt 0 view .LVU1506
 5980 008e 0135     		adds	r5, r5, #1
 5981              	.LVL691:
 931:lvgl/src/extra/libs/qrcode/qrcodegen.c **** 			appendBitsToBuffer(accumData, 11, buf, &result.bitLength);
 5982              		.loc 1 931 3 is_stmt 1 view .LVU1507
 931:lvgl/src/extra/libs/qrcode/qrcodegen.c **** 			appendBitsToBuffer(accumData, 11, buf, &result.bitLength);
 5983              		.loc 1 931 6 is_stmt 0 view .LVU1508
 5984 0090 022D     		cmp	r5, #2
 5985 0092 EDD1     		bne	.L493
 932:lvgl/src/extra/libs/qrcode/qrcodegen.c **** 			accumData = 0;
 5986              		.loc 1 932 4 is_stmt 1 view .LVU1509
 5987 0094 03AB     		add	r3, sp, #12
ARM GAS  C:\usertemp\ccXENK9d.s 			page 150


 5988 0096 3A46     		mov	r2, r7
 5989 0098 0B21     		movs	r1, #11
 5990 009a 2046     		mov	r0, r4
 5991              	.LVL692:
 932:lvgl/src/extra/libs/qrcode/qrcodegen.c **** 			accumData = 0;
 5992              		.loc 1 932 4 is_stmt 0 view .LVU1510
 5993 009c FFF7FEFF 		bl	appendBitsToBuffer
 5994              	.LVL693:
 933:lvgl/src/extra/libs/qrcode/qrcodegen.c **** 			accumCount = 0;
 5995              		.loc 1 933 4 is_stmt 1 view .LVU1511
 934:lvgl/src/extra/libs/qrcode/qrcodegen.c **** 		}
 5996              		.loc 1 934 4 view .LVU1512
 934:lvgl/src/extra/libs/qrcode/qrcodegen.c **** 		}
 5997              		.loc 1 934 15 is_stmt 0 view .LVU1513
 5998 00a0 0024     		movs	r4, #0
 933:lvgl/src/extra/libs/qrcode/qrcodegen.c **** 			accumCount = 0;
 5999              		.loc 1 933 14 view .LVU1514
 6000 00a2 2546     		mov	r5, r4
 6001 00a4 E4E7     		b	.L493
 6002              	.LVL694:
 6003              	.L501:
 933:lvgl/src/extra/libs/qrcode/qrcodegen.c **** 			accumCount = 0;
 6004              		.loc 1 933 14 view .LVU1515
 6005              	.LBE129:
 937:lvgl/src/extra/libs/qrcode/qrcodegen.c **** 		appendBitsToBuffer(accumData, 6, buf, &result.bitLength);
 6006              		.loc 1 937 2 is_stmt 1 view .LVU1516
 937:lvgl/src/extra/libs/qrcode/qrcodegen.c **** 		appendBitsToBuffer(accumData, 6, buf, &result.bitLength);
 6007              		.loc 1 937 5 is_stmt 0 view .LVU1517
 6008 00a6 002D     		cmp	r5, #0
 6009 00a8 0CDC     		bgt	.L503
 6010              	.L495:
 939:lvgl/src/extra/libs/qrcode/qrcodegen.c **** 	result.data = buf;
 6011              		.loc 1 939 2 is_stmt 1 view .LVU1518
 6012 00aa 039B     		ldr	r3, [sp, #12]
 6013 00ac 4B45     		cmp	r3, r9
 6014 00ae 10D1     		bne	.L504
 940:lvgl/src/extra/libs/qrcode/qrcodegen.c **** 	return result;
 6015              		.loc 1 940 2 view .LVU1519
 940:lvgl/src/extra/libs/qrcode/qrcodegen.c **** 	return result;
 6016              		.loc 1 940 14 is_stmt 0 view .LVU1520
 6017 00b0 0297     		str	r7, [sp, #8]
 941:lvgl/src/extra/libs/qrcode/qrcodegen.c **** }
 6018              		.loc 1 941 2 is_stmt 1 view .LVU1521
 941:lvgl/src/extra/libs/qrcode/qrcodegen.c **** }
 6019              		.loc 1 941 9 is_stmt 0 view .LVU1522
 6020 00b2 04AB     		add	r3, sp, #16
 6021 00b4 13E90F00 		ldmdb	r3, {r0, r1, r2, r3}
 6022 00b8 88E80F00 		stm	r8, {r0, r1, r2, r3}
 942:lvgl/src/extra/libs/qrcode/qrcodegen.c **** 
 6023              		.loc 1 942 1 view .LVU1523
 6024 00bc 4046     		mov	r0, r8
 6025 00be 05B0     		add	sp, sp, #20
 6026              	.LCFI66:
 6027              		.cfi_remember_state
 6028              		.cfi_def_cfa_offset 28
 6029              		@ sp needed
 6030 00c0 BDE8F083 		pop	{r4, r5, r6, r7, r8, r9, pc}
ARM GAS  C:\usertemp\ccXENK9d.s 			page 151


 6031              	.LVL695:
 6032              	.L503:
 6033              	.LCFI67:
 6034              		.cfi_restore_state
 938:lvgl/src/extra/libs/qrcode/qrcodegen.c **** 	assert(result.bitLength == bitLen);
 6035              		.loc 1 938 3 is_stmt 1 view .LVU1524
 6036 00c4 03AB     		add	r3, sp, #12
 6037 00c6 3A46     		mov	r2, r7
 6038 00c8 0621     		movs	r1, #6
 6039 00ca 2046     		mov	r0, r4
 6040 00cc FFF7FEFF 		bl	appendBitsToBuffer
 6041              	.LVL696:
 6042 00d0 EBE7     		b	.L495
 6043              	.L504:
 939:lvgl/src/extra/libs/qrcode/qrcodegen.c **** 	result.data = buf;
 6044              		.loc 1 939 2 is_stmt 0 discriminator 1 view .LVU1525
 6045 00d2 094B     		ldr	r3, .L505+24
 6046 00d4 034A     		ldr	r2, .L505+4
 6047 00d6 40F2AB31 		movw	r1, #939
 6048 00da 0348     		ldr	r0, .L505+8
 6049 00dc FFF7FEFF 		bl	__assert_func
 6050              	.LVL697:
 6051              	.L506:
 6052              		.align	2
 6053              	.L505:
 6054 00e0 00000000 		.word	.LC27
 6055 00e4 00000000 		.word	__func__.1
 6056 00e8 08000000 		.word	.LC1
 6057 00ec 10000000 		.word	.LC33
 6058 00f0 00000000 		.word	.LC36
 6059 00f4 10000000 		.word	.LC28
 6060 00f8 38000000 		.word	.LC35
 6061              		.cfi_endproc
 6062              	.LFE33:
 6064              		.section	.text.qrcodegen_encodeText,"ax",%progbits
 6065              		.align	1
 6066              		.global	qrcodegen_encodeText
 6067              		.syntax unified
 6068              		.thumb
 6069              		.thumb_func
 6071              	qrcodegen_encodeText:
 6072              	.LVL698:
 6073              	.LFB0:
 129:lvgl/src/extra/libs/qrcode/qrcodegen.c **** 	
 6074              		.loc 1 129 100 is_stmt 1 view -0
 6075              		.cfi_startproc
 6076              		@ args = 16, pretend = 0, frame = 32
 6077              		@ frame_needed = 0, uses_anonymous_args = 0
 129:lvgl/src/extra/libs/qrcode/qrcodegen.c **** 	
 6078              		.loc 1 129 100 is_stmt 0 view .LVU1527
 6079 0000 2DE9F04F 		push	{r4, r5, r6, r7, r8, r9, r10, fp, lr}
 6080              	.LCFI68:
 6081              		.cfi_def_cfa_offset 36
 6082              		.cfi_offset 4, -36
 6083              		.cfi_offset 5, -32
 6084              		.cfi_offset 6, -28
 6085              		.cfi_offset 7, -24
ARM GAS  C:\usertemp\ccXENK9d.s 			page 152


 6086              		.cfi_offset 8, -20
 6087              		.cfi_offset 9, -16
 6088              		.cfi_offset 10, -12
 6089              		.cfi_offset 11, -8
 6090              		.cfi_offset 14, -4
 6091 0004 8FB0     		sub	sp, sp, #60
 6092              	.LCFI69:
 6093              		.cfi_def_cfa_offset 96
 6094 0006 0546     		mov	r5, r0
 6095 0008 0E46     		mov	r6, r1
 6096 000a 1746     		mov	r7, r2
 6097 000c 9846     		mov	r8, r3
 6098 000e 9DF968A0 		ldrsb	r10, [sp, #104]
 6099 0012 9DF86CB0 		ldrb	fp, [sp, #108]	@ zero_extendqisi2
 131:lvgl/src/extra/libs/qrcode/qrcodegen.c **** 	if (textLen == 0)
 6100              		.loc 1 131 2 is_stmt 1 view .LVU1528
 131:lvgl/src/extra/libs/qrcode/qrcodegen.c **** 	if (textLen == 0)
 6101              		.loc 1 131 19 is_stmt 0 view .LVU1529
 6102 0016 FFF7FEFF 		bl	strlen
 6103              	.LVL699:
 132:lvgl/src/extra/libs/qrcode/qrcodegen.c **** 		return qrcodegen_encodeSegmentsAdvanced(NULL, 0, ecl, minVersion, maxVersion, mask, boostEcl, tem
 6104              		.loc 1 132 2 is_stmt 1 view .LVU1530
 132:lvgl/src/extra/libs/qrcode/qrcodegen.c **** 		return qrcodegen_encodeSegmentsAdvanced(NULL, 0, ecl, minVersion, maxVersion, mask, boostEcl, tem
 6105              		.loc 1 132 5 is_stmt 0 view .LVU1531
 6106 001a B8B1     		cbz	r0, .L518
 6107 001c 8146     		mov	r9, r0
 134:lvgl/src/extra/libs/qrcode/qrcodegen.c **** 	
 6108              		.loc 1 134 2 is_stmt 1 view .LVU1532
 134:lvgl/src/extra/libs/qrcode/qrcodegen.c **** 	
 6109              		.loc 1 134 18 is_stmt 0 view .LVU1533
 6110 001e 199B     		ldr	r3, [sp, #100]
 6111 0020 9C00     		lsls	r4, r3, #2
 6112 0022 1134     		adds	r4, r4, #17
 6113 0024 04FB04F4 		mul	r4, r4, r4
 6114 0028 0734     		adds	r4, r4, #7
 6115 002a 20D4     		bmi	.L519
 6116              	.L510:
 6117 002c E410     		asrs	r4, r4, #3
 6118 002e 0134     		adds	r4, r4, #1
 6119              	.LVL700:
 136:lvgl/src/extra/libs/qrcode/qrcodegen.c **** 	if (qrcodegen_isNumeric(text)) {
 6120              		.loc 1 136 2 is_stmt 1 view .LVU1534
 137:lvgl/src/extra/libs/qrcode/qrcodegen.c **** 		if (qrcodegen_calcSegmentBufferSize(qrcodegen_Mode_NUMERIC, textLen) > bufLen)
 6121              		.loc 1 137 2 view .LVU1535
 137:lvgl/src/extra/libs/qrcode/qrcodegen.c **** 		if (qrcodegen_calcSegmentBufferSize(qrcodegen_Mode_NUMERIC, textLen) > bufLen)
 6122              		.loc 1 137 6 is_stmt 0 view .LVU1536
 6123 0030 2846     		mov	r0, r5
 6124              	.LVL701:
 137:lvgl/src/extra/libs/qrcode/qrcodegen.c **** 		if (qrcodegen_calcSegmentBufferSize(qrcodegen_Mode_NUMERIC, textLen) > bufLen)
 6125              		.loc 1 137 6 view .LVU1537
 6126 0032 FFF7FEFF 		bl	qrcodegen_isNumeric
 6127              	.LVL702:
 137:lvgl/src/extra/libs/qrcode/qrcodegen.c **** 		if (qrcodegen_calcSegmentBufferSize(qrcodegen_Mode_NUMERIC, textLen) > bufLen)
 6128              		.loc 1 137 5 discriminator 1 view .LVU1538
 6129 0036 0028     		cmp	r0, #0
 6130 0038 35D0     		beq	.L511
 138:lvgl/src/extra/libs/qrcode/qrcodegen.c **** 			goto fail;
ARM GAS  C:\usertemp\ccXENK9d.s 			page 153


 6131              		.loc 1 138 3 is_stmt 1 view .LVU1539
 138:lvgl/src/extra/libs/qrcode/qrcodegen.c **** 			goto fail;
 6132              		.loc 1 138 7 is_stmt 0 view .LVU1540
 6133 003a 4946     		mov	r1, r9
 6134 003c 0120     		movs	r0, #1
 6135 003e FFF7FEFF 		bl	qrcodegen_calcSegmentBufferSize
 6136              	.LVL703:
 138:lvgl/src/extra/libs/qrcode/qrcodegen.c **** 			goto fail;
 6137              		.loc 1 138 6 discriminator 1 view .LVU1541
 6138 0042 A042     		cmp	r0, r4
 6139 0044 15D9     		bls	.L520
 6140              	.L512:
 160:lvgl/src/extra/libs/qrcode/qrcodegen.c **** 	return false;
 6141              		.loc 1 160 2 is_stmt 1 view .LVU1542
 160:lvgl/src/extra/libs/qrcode/qrcodegen.c **** 	return false;
 6142              		.loc 1 160 12 is_stmt 0 view .LVU1543
 6143 0046 0020     		movs	r0, #0
 6144 0048 3870     		strb	r0, [r7]
 161:lvgl/src/extra/libs/qrcode/qrcodegen.c **** }
 6145              		.loc 1 161 2 is_stmt 1 view .LVU1544
 161:lvgl/src/extra/libs/qrcode/qrcodegen.c **** }
 6146              		.loc 1 161 9 is_stmt 0 view .LVU1545
 6147 004a 0DE0     		b	.L509
 6148              	.LVL704:
 6149              	.L518:
 133:lvgl/src/extra/libs/qrcode/qrcodegen.c **** 	size_t bufLen = qrcodegen_BUFFER_LEN_FOR_VERSION(maxVersion);
 6150              		.loc 1 133 3 is_stmt 1 view .LVU1546
 133:lvgl/src/extra/libs/qrcode/qrcodegen.c **** 	size_t bufLen = qrcodegen_BUFFER_LEN_FOR_VERSION(maxVersion);
 6151              		.loc 1 133 10 is_stmt 0 view .LVU1547
 6152 004c 0497     		str	r7, [sp, #16]
 6153 004e 0396     		str	r6, [sp, #12]
 6154 0050 CDF808B0 		str	fp, [sp, #8]
 6155 0054 CDF804A0 		str	r10, [sp, #4]
 6156 0058 199B     		ldr	r3, [sp, #100]
 6157 005a 0093     		str	r3, [sp]
 6158 005c 189B     		ldr	r3, [sp, #96]
 6159 005e 4246     		mov	r2, r8
 6160 0060 0021     		movs	r1, #0
 6161 0062 0846     		mov	r0, r1
 6162              	.LVL705:
 133:lvgl/src/extra/libs/qrcode/qrcodegen.c **** 	size_t bufLen = qrcodegen_BUFFER_LEN_FOR_VERSION(maxVersion);
 6163              		.loc 1 133 10 view .LVU1548
 6164 0064 FFF7FEFF 		bl	qrcodegen_encodeSegmentsAdvanced
 6165              	.LVL706:
 6166              	.L509:
 162:lvgl/src/extra/libs/qrcode/qrcodegen.c **** 
 6167              		.loc 1 162 1 view .LVU1549
 6168 0068 0FB0     		add	sp, sp, #60
 6169              	.LCFI70:
 6170              		.cfi_remember_state
 6171              		.cfi_def_cfa_offset 36
 6172              		@ sp needed
 6173 006a BDE8F08F 		pop	{r4, r5, r6, r7, r8, r9, r10, fp, pc}
 6174              	.LVL707:
 6175              	.L519:
 6176              	.LCFI71:
 6177              		.cfi_restore_state
ARM GAS  C:\usertemp\ccXENK9d.s 			page 154


 134:lvgl/src/extra/libs/qrcode/qrcodegen.c **** 	
 6178              		.loc 1 134 18 view .LVU1550
 6179 006e 0734     		adds	r4, r4, #7
 6180 0070 DCE7     		b	.L510
 6181              	.LVL708:
 6182              	.L520:
 140:lvgl/src/extra/libs/qrcode/qrcodegen.c **** 	} else if (qrcodegen_isAlphanumeric(text)) {
 6183              		.loc 1 140 3 is_stmt 1 view .LVU1551
 140:lvgl/src/extra/libs/qrcode/qrcodegen.c **** 	} else if (qrcodegen_isAlphanumeric(text)) {
 6184              		.loc 1 140 9 is_stmt 0 view .LVU1552
 6185 0072 06AC     		add	r4, sp, #24
 6186              	.LVL709:
 140:lvgl/src/extra/libs/qrcode/qrcodegen.c **** 	} else if (qrcodegen_isAlphanumeric(text)) {
 6187              		.loc 1 140 9 view .LVU1553
 6188 0074 3246     		mov	r2, r6
 6189 0076 2946     		mov	r1, r5
 6190 0078 2046     		mov	r0, r4
 6191 007a FFF7FEFF 		bl	qrcodegen_makeNumeric
 6192              	.LVL710:
 6193 007e 94E80F00 		ldm	r4, {r0, r1, r2, r3}
 6194 0082 0EAC     		add	r4, sp, #56
 6195 0084 04E90F00 		stmdb	r4, {r0, r1, r2, r3}
 6196              	.L513:
 157:lvgl/src/extra/libs/qrcode/qrcodegen.c **** 	
 6197              		.loc 1 157 2 is_stmt 1 view .LVU1554
 157:lvgl/src/extra/libs/qrcode/qrcodegen.c **** 	
 6198              		.loc 1 157 9 is_stmt 0 view .LVU1555
 6199 0088 0497     		str	r7, [sp, #16]
 6200 008a 0396     		str	r6, [sp, #12]
 6201 008c CDF808B0 		str	fp, [sp, #8]
 6202 0090 CDF804A0 		str	r10, [sp, #4]
 6203 0094 199B     		ldr	r3, [sp, #100]
 6204 0096 0093     		str	r3, [sp]
 6205 0098 189B     		ldr	r3, [sp, #96]
 6206 009a 4246     		mov	r2, r8
 6207 009c 0121     		movs	r1, #1
 6208 009e 0AA8     		add	r0, sp, #40
 6209 00a0 FFF7FEFF 		bl	qrcodegen_encodeSegmentsAdvanced
 6210              	.LVL711:
 6211 00a4 E0E7     		b	.L509
 6212              	.LVL712:
 6213              	.L511:
 141:lvgl/src/extra/libs/qrcode/qrcodegen.c **** 		if (qrcodegen_calcSegmentBufferSize(qrcodegen_Mode_ALPHANUMERIC, textLen) > bufLen)
 6214              		.loc 1 141 9 is_stmt 1 view .LVU1556
 141:lvgl/src/extra/libs/qrcode/qrcodegen.c **** 		if (qrcodegen_calcSegmentBufferSize(qrcodegen_Mode_ALPHANUMERIC, textLen) > bufLen)
 6215              		.loc 1 141 13 is_stmt 0 view .LVU1557
 6216 00a6 2846     		mov	r0, r5
 6217 00a8 FFF7FEFF 		bl	qrcodegen_isAlphanumeric
 6218              	.LVL713:
 141:lvgl/src/extra/libs/qrcode/qrcodegen.c **** 		if (qrcodegen_calcSegmentBufferSize(qrcodegen_Mode_ALPHANUMERIC, textLen) > bufLen)
 6219              		.loc 1 141 12 discriminator 1 view .LVU1558
 6220 00ac 18B9     		cbnz	r0, .L521
 146:lvgl/src/extra/libs/qrcode/qrcodegen.c **** 			goto fail;
 6221              		.loc 1 146 3 is_stmt 1 view .LVU1559
 146:lvgl/src/extra/libs/qrcode/qrcodegen.c **** 			goto fail;
 6222              		.loc 1 146 6 is_stmt 0 view .LVU1560
 6223 00ae A145     		cmp	r9, r4
ARM GAS  C:\usertemp\ccXENK9d.s 			page 155


 6224 00b0 C9D8     		bhi	.L512
 6225              	.LBB130:
 148:lvgl/src/extra/libs/qrcode/qrcodegen.c **** 			tempBuffer[i] = (uint8_t)text[i];
 6226              		.loc 1 148 15 view .LVU1561
 6227 00b2 0023     		movs	r3, #0
 6228 00b4 14E0     		b	.L515
 6229              	.L521:
 148:lvgl/src/extra/libs/qrcode/qrcodegen.c **** 			tempBuffer[i] = (uint8_t)text[i];
 6230              		.loc 1 148 15 view .LVU1562
 6231              	.LBE130:
 142:lvgl/src/extra/libs/qrcode/qrcodegen.c **** 			goto fail;
 6232              		.loc 1 142 3 is_stmt 1 view .LVU1563
 142:lvgl/src/extra/libs/qrcode/qrcodegen.c **** 			goto fail;
 6233              		.loc 1 142 7 is_stmt 0 view .LVU1564
 6234 00b6 4946     		mov	r1, r9
 6235 00b8 0220     		movs	r0, #2
 6236 00ba FFF7FEFF 		bl	qrcodegen_calcSegmentBufferSize
 6237              	.LVL714:
 142:lvgl/src/extra/libs/qrcode/qrcodegen.c **** 			goto fail;
 6238              		.loc 1 142 6 discriminator 1 view .LVU1565
 6239 00be A042     		cmp	r0, r4
 6240 00c0 C1D8     		bhi	.L512
 144:lvgl/src/extra/libs/qrcode/qrcodegen.c **** 	} else {
 6241              		.loc 1 144 3 is_stmt 1 view .LVU1566
 144:lvgl/src/extra/libs/qrcode/qrcodegen.c **** 	} else {
 6242              		.loc 1 144 9 is_stmt 0 view .LVU1567
 6243 00c2 06AC     		add	r4, sp, #24
 6244              	.LVL715:
 144:lvgl/src/extra/libs/qrcode/qrcodegen.c **** 	} else {
 6245              		.loc 1 144 9 view .LVU1568
 6246 00c4 3246     		mov	r2, r6
 6247 00c6 2946     		mov	r1, r5
 6248 00c8 2046     		mov	r0, r4
 6249 00ca FFF7FEFF 		bl	qrcodegen_makeAlphanumeric
 6250              	.LVL716:
 6251 00ce 94E80F00 		ldm	r4, {r0, r1, r2, r3}
 6252 00d2 0EAC     		add	r4, sp, #56
 6253 00d4 04E90F00 		stmdb	r4, {r0, r1, r2, r3}
 6254 00d8 D6E7     		b	.L513
 6255              	.LVL717:
 6256              	.L516:
 6257              	.LBB131:
 149:lvgl/src/extra/libs/qrcode/qrcodegen.c **** 		seg.mode = qrcodegen_Mode_BYTE;
 6258              		.loc 1 149 4 is_stmt 1 view .LVU1569
 149:lvgl/src/extra/libs/qrcode/qrcodegen.c **** 		seg.mode = qrcodegen_Mode_BYTE;
 6259              		.loc 1 149 20 is_stmt 0 view .LVU1570
 6260 00da EA5C     		ldrb	r2, [r5, r3]	@ zero_extendqisi2
 149:lvgl/src/extra/libs/qrcode/qrcodegen.c **** 		seg.mode = qrcodegen_Mode_BYTE;
 6261              		.loc 1 149 18 view .LVU1571
 6262 00dc F254     		strb	r2, [r6, r3]
 148:lvgl/src/extra/libs/qrcode/qrcodegen.c **** 			tempBuffer[i] = (uint8_t)text[i];
 6263              		.loc 1 148 36 is_stmt 1 discriminator 3 view .LVU1572
 6264 00de 0133     		adds	r3, r3, #1
 6265              	.LVL718:
 6266              	.L515:
 148:lvgl/src/extra/libs/qrcode/qrcodegen.c **** 			tempBuffer[i] = (uint8_t)text[i];
 6267              		.loc 1 148 24 discriminator 1 view .LVU1573
ARM GAS  C:\usertemp\ccXENK9d.s 			page 156


 6268 00e0 4B45     		cmp	r3, r9
 6269 00e2 FAD3     		bcc	.L516
 6270              	.LBE131:
 150:lvgl/src/extra/libs/qrcode/qrcodegen.c **** 		seg.bitLength = calcSegmentBitLength(seg.mode, textLen);
 6271              		.loc 1 150 3 view .LVU1574
 150:lvgl/src/extra/libs/qrcode/qrcodegen.c **** 		seg.bitLength = calcSegmentBitLength(seg.mode, textLen);
 6272              		.loc 1 150 12 is_stmt 0 view .LVU1575
 6273 00e4 0420     		movs	r0, #4
 6274 00e6 8DF82800 		strb	r0, [sp, #40]
 151:lvgl/src/extra/libs/qrcode/qrcodegen.c **** 		if (seg.bitLength == -1)
 6275              		.loc 1 151 3 is_stmt 1 view .LVU1576
 151:lvgl/src/extra/libs/qrcode/qrcodegen.c **** 		if (seg.bitLength == -1)
 6276              		.loc 1 151 19 is_stmt 0 view .LVU1577
 6277 00ea 4946     		mov	r1, r9
 6278 00ec FFF7FEFF 		bl	calcSegmentBitLength
 6279              	.LVL719:
 151:lvgl/src/extra/libs/qrcode/qrcodegen.c **** 		if (seg.bitLength == -1)
 6280              		.loc 1 151 17 discriminator 1 view .LVU1578
 6281 00f0 0D90     		str	r0, [sp, #52]
 152:lvgl/src/extra/libs/qrcode/qrcodegen.c **** 			goto fail;
 6282              		.loc 1 152 3 is_stmt 1 view .LVU1579
 152:lvgl/src/extra/libs/qrcode/qrcodegen.c **** 			goto fail;
 6283              		.loc 1 152 6 is_stmt 0 view .LVU1580
 6284 00f2 B0F1FF3F 		cmp	r0, #-1
 6285 00f6 A6D0     		beq	.L512
 154:lvgl/src/extra/libs/qrcode/qrcodegen.c **** 		seg.data = tempBuffer;
 6286              		.loc 1 154 3 is_stmt 1 view .LVU1581
 154:lvgl/src/extra/libs/qrcode/qrcodegen.c **** 		seg.data = tempBuffer;
 6287              		.loc 1 154 16 is_stmt 0 view .LVU1582
 6288 00f8 CDF82C90 		str	r9, [sp, #44]
 155:lvgl/src/extra/libs/qrcode/qrcodegen.c **** 	}
 6289              		.loc 1 155 3 is_stmt 1 view .LVU1583
 155:lvgl/src/extra/libs/qrcode/qrcodegen.c **** 	}
 6290              		.loc 1 155 12 is_stmt 0 view .LVU1584
 6291 00fc 0C96     		str	r6, [sp, #48]
 6292 00fe C3E7     		b	.L513
 6293              		.cfi_endproc
 6294              	.LFE0:
 6296              		.section	.text.qrcodegen_makeEci,"ax",%progbits
 6297              		.align	1
 6298              		.global	qrcodegen_makeEci
 6299              		.syntax unified
 6300              		.thumb
 6301              		.thumb_func
 6303              	qrcodegen_makeEci:
 6304              	.LVL720:
 6305              	.LFB34:
 946:lvgl/src/extra/libs/qrcode/qrcodegen.c **** 	struct qrcodegen_Segment result;
 6306              		.loc 1 946 75 is_stmt 1 view -0
 6307              		.cfi_startproc
 6308              		@ args = 0, pretend = 0, frame = 16
 6309              		@ frame_needed = 0, uses_anonymous_args = 0
 946:lvgl/src/extra/libs/qrcode/qrcodegen.c **** 	struct qrcodegen_Segment result;
 6310              		.loc 1 946 75 is_stmt 0 view .LVU1586
 6311 0000 70B5     		push	{r4, r5, r6, lr}
 6312              	.LCFI72:
 6313              		.cfi_def_cfa_offset 16
ARM GAS  C:\usertemp\ccXENK9d.s 			page 157


 6314              		.cfi_offset 4, -16
 6315              		.cfi_offset 5, -12
 6316              		.cfi_offset 6, -8
 6317              		.cfi_offset 14, -4
 6318 0002 84B0     		sub	sp, sp, #16
 6319              	.LCFI73:
 6320              		.cfi_def_cfa_offset 32
 947:lvgl/src/extra/libs/qrcode/qrcodegen.c **** 	result.mode = qrcodegen_Mode_ECI;
 6321              		.loc 1 947 2 is_stmt 1 view .LVU1587
 948:lvgl/src/extra/libs/qrcode/qrcodegen.c **** 	result.numChars = 0;
 6322              		.loc 1 948 2 view .LVU1588
 948:lvgl/src/extra/libs/qrcode/qrcodegen.c **** 	result.numChars = 0;
 6323              		.loc 1 948 14 is_stmt 0 view .LVU1589
 6324 0004 0723     		movs	r3, #7
 6325 0006 8DF80030 		strb	r3, [sp]
 949:lvgl/src/extra/libs/qrcode/qrcodegen.c **** 	result.bitLength = 0;
 6326              		.loc 1 949 2 is_stmt 1 view .LVU1590
 949:lvgl/src/extra/libs/qrcode/qrcodegen.c **** 	result.bitLength = 0;
 6327              		.loc 1 949 18 is_stmt 0 view .LVU1591
 6328 000a 0023     		movs	r3, #0
 6329 000c 0193     		str	r3, [sp, #4]
 950:lvgl/src/extra/libs/qrcode/qrcodegen.c **** 	if (assignVal < 0) {
 6330              		.loc 1 950 2 is_stmt 1 view .LVU1592
 950:lvgl/src/extra/libs/qrcode/qrcodegen.c **** 	if (assignVal < 0) {
 6331              		.loc 1 950 19 is_stmt 0 view .LVU1593
 6332 000e 0393     		str	r3, [sp, #12]
 951:lvgl/src/extra/libs/qrcode/qrcodegen.c **** 		assert(false);
 6333              		.loc 1 951 2 is_stmt 1 view .LVU1594
 951:lvgl/src/extra/libs/qrcode/qrcodegen.c **** 		assert(false);
 6334              		.loc 1 951 5 is_stmt 0 view .LVU1595
 6335 0010 0D1E     		subs	r5, r1, #0
 6336 0012 27DB     		blt	.L529
 6337 0014 0446     		mov	r4, r0
 6338 0016 1646     		mov	r6, r2
 953:lvgl/src/extra/libs/qrcode/qrcodegen.c **** 		memset(buf, 0, 1 * sizeof(buf[0]));
 6339              		.loc 1 953 9 is_stmt 1 view .LVU1596
 953:lvgl/src/extra/libs/qrcode/qrcodegen.c **** 		memset(buf, 0, 1 * sizeof(buf[0]));
 6340              		.loc 1 953 12 is_stmt 0 view .LVU1597
 6341 0018 7F2D     		cmp	r5, #127
 6342 001a 2ADD     		ble	.L530
 956:lvgl/src/extra/libs/qrcode/qrcodegen.c **** 		memset(buf, 0, 2 * sizeof(buf[0]));
 6343              		.loc 1 956 9 is_stmt 1 view .LVU1598
 956:lvgl/src/extra/libs/qrcode/qrcodegen.c **** 		memset(buf, 0, 2 * sizeof(buf[0]));
 6344              		.loc 1 956 12 is_stmt 0 view .LVU1599
 6345 001c B5F5804F 		cmp	r5, #16384
 6346 0020 2FDB     		blt	.L531
 960:lvgl/src/extra/libs/qrcode/qrcodegen.c **** 		memset(buf, 0, 3 * sizeof(buf[0]));
 6347              		.loc 1 960 9 is_stmt 1 view .LVU1600
 960:lvgl/src/extra/libs/qrcode/qrcodegen.c **** 		memset(buf, 0, 3 * sizeof(buf[0]));
 6348              		.loc 1 960 12 is_stmt 0 view .LVU1601
 6349 0022 224B     		ldr	r3, .L532
 6350 0024 9D42     		cmp	r5, r3
 6351 0026 3ADC     		bgt	.L527
 961:lvgl/src/extra/libs/qrcode/qrcodegen.c **** 		appendBitsToBuffer(6, 3, buf, &result.bitLength);
 6352              		.loc 1 961 3 is_stmt 1 view .LVU1602
 6353 0028 0023     		movs	r3, #0
 6354 002a 1380     		strh	r3, [r2]	@ unaligned
ARM GAS  C:\usertemp\ccXENK9d.s 			page 158


 6355 002c 9370     		strb	r3, [r2, #2]
 962:lvgl/src/extra/libs/qrcode/qrcodegen.c **** 		appendBitsToBuffer(assignVal >> 10, 11, buf, &result.bitLength);
 6356              		.loc 1 962 3 view .LVU1603
 6357 002e 03AB     		add	r3, sp, #12
 6358 0030 0321     		movs	r1, #3
 6359              	.LVL721:
 962:lvgl/src/extra/libs/qrcode/qrcodegen.c **** 		appendBitsToBuffer(assignVal >> 10, 11, buf, &result.bitLength);
 6360              		.loc 1 962 3 is_stmt 0 view .LVU1604
 6361 0032 0620     		movs	r0, #6
 6362              	.LVL722:
 962:lvgl/src/extra/libs/qrcode/qrcodegen.c **** 		appendBitsToBuffer(assignVal >> 10, 11, buf, &result.bitLength);
 6363              		.loc 1 962 3 view .LVU1605
 6364 0034 FFF7FEFF 		bl	appendBitsToBuffer
 6365              	.LVL723:
 963:lvgl/src/extra/libs/qrcode/qrcodegen.c **** 		appendBitsToBuffer(assignVal & 0x3FF, 10, buf, &result.bitLength);
 6366              		.loc 1 963 3 is_stmt 1 view .LVU1606
 6367 0038 03AB     		add	r3, sp, #12
 6368 003a 3246     		mov	r2, r6
 6369 003c 0B21     		movs	r1, #11
 6370 003e A812     		asrs	r0, r5, #10
 6371 0040 FFF7FEFF 		bl	appendBitsToBuffer
 6372              	.LVL724:
 964:lvgl/src/extra/libs/qrcode/qrcodegen.c **** 	} else {
 6373              		.loc 1 964 3 view .LVU1607
 6374 0044 03AB     		add	r3, sp, #12
 6375 0046 3246     		mov	r2, r6
 6376 0048 0A21     		movs	r1, #10
 6377 004a C5F30900 		ubfx	r0, r5, #0, #10
 6378 004e FFF7FEFF 		bl	appendBitsToBuffer
 6379              	.LVL725:
 6380              	.L525:
 968:lvgl/src/extra/libs/qrcode/qrcodegen.c **** 	return result;
 6381              		.loc 1 968 2 view .LVU1608
 968:lvgl/src/extra/libs/qrcode/qrcodegen.c **** 	return result;
 6382              		.loc 1 968 14 is_stmt 0 view .LVU1609
 6383 0052 0296     		str	r6, [sp, #8]
 969:lvgl/src/extra/libs/qrcode/qrcodegen.c **** }
 6384              		.loc 1 969 2 is_stmt 1 view .LVU1610
 969:lvgl/src/extra/libs/qrcode/qrcodegen.c **** }
 6385              		.loc 1 969 9 is_stmt 0 view .LVU1611
 6386 0054 04AB     		add	r3, sp, #16
 6387 0056 13E90F00 		ldmdb	r3, {r0, r1, r2, r3}
 6388 005a 84E80F00 		stm	r4, {r0, r1, r2, r3}
 970:lvgl/src/extra/libs/qrcode/qrcodegen.c **** 
 6389              		.loc 1 970 1 view .LVU1612
 6390 005e 2046     		mov	r0, r4
 6391 0060 04B0     		add	sp, sp, #16
 6392              	.LCFI74:
 6393              		.cfi_remember_state
 6394              		.cfi_def_cfa_offset 16
 6395              		@ sp needed
 6396 0062 70BD     		pop	{r4, r5, r6, pc}
 6397              	.LVL726:
 6398              	.L529:
 6399              	.LCFI75:
 6400              		.cfi_restore_state
 952:lvgl/src/extra/libs/qrcode/qrcodegen.c **** 	} else if (assignVal < (1 << 7)) {
ARM GAS  C:\usertemp\ccXENK9d.s 			page 159


 6401              		.loc 1 952 3 is_stmt 1 view .LVU1613
 6402 0064 124B     		ldr	r3, .L532+4
 6403 0066 134A     		ldr	r2, .L532+8
 6404              	.LVL727:
 952:lvgl/src/extra/libs/qrcode/qrcodegen.c **** 	} else if (assignVal < (1 << 7)) {
 6405              		.loc 1 952 3 is_stmt 0 view .LVU1614
 6406 0068 4FF46E71 		mov	r1, #952
 6407              	.LVL728:
 952:lvgl/src/extra/libs/qrcode/qrcodegen.c **** 	} else if (assignVal < (1 << 7)) {
 6408              		.loc 1 952 3 view .LVU1615
 6409 006c 1248     		ldr	r0, .L532+12
 6410              	.LVL729:
 952:lvgl/src/extra/libs/qrcode/qrcodegen.c **** 	} else if (assignVal < (1 << 7)) {
 6411              		.loc 1 952 3 view .LVU1616
 6412 006e FFF7FEFF 		bl	__assert_func
 6413              	.LVL730:
 6414              	.L530:
 954:lvgl/src/extra/libs/qrcode/qrcodegen.c **** 		appendBitsToBuffer(assignVal, 8, buf, &result.bitLength);
 6415              		.loc 1 954 3 is_stmt 1 view .LVU1617
 6416 0072 0023     		movs	r3, #0
 6417 0074 1370     		strb	r3, [r2]
 955:lvgl/src/extra/libs/qrcode/qrcodegen.c **** 	} else if (assignVal < (1 << 14)) {
 6418              		.loc 1 955 3 view .LVU1618
 6419 0076 03AB     		add	r3, sp, #12
 6420 0078 0821     		movs	r1, #8
 6421              	.LVL731:
 955:lvgl/src/extra/libs/qrcode/qrcodegen.c **** 	} else if (assignVal < (1 << 14)) {
 6422              		.loc 1 955 3 is_stmt 0 view .LVU1619
 6423 007a 2846     		mov	r0, r5
 6424              	.LVL732:
 955:lvgl/src/extra/libs/qrcode/qrcodegen.c **** 	} else if (assignVal < (1 << 14)) {
 6425              		.loc 1 955 3 view .LVU1620
 6426 007c FFF7FEFF 		bl	appendBitsToBuffer
 6427              	.LVL733:
 955:lvgl/src/extra/libs/qrcode/qrcodegen.c **** 	} else if (assignVal < (1 << 14)) {
 6428              		.loc 1 955 3 view .LVU1621
 6429 0080 E7E7     		b	.L525
 6430              	.LVL734:
 6431              	.L531:
 957:lvgl/src/extra/libs/qrcode/qrcodegen.c **** 		appendBitsToBuffer(2, 2, buf, &result.bitLength);
 6432              		.loc 1 957 3 is_stmt 1 view .LVU1622
 6433 0082 0023     		movs	r3, #0
 6434 0084 1380     		strh	r3, [r2]	@ unaligned
 958:lvgl/src/extra/libs/qrcode/qrcodegen.c **** 		appendBitsToBuffer(assignVal, 14, buf, &result.bitLength);
 6435              		.loc 1 958 3 view .LVU1623
 6436 0086 03AB     		add	r3, sp, #12
 6437 0088 0221     		movs	r1, #2
 6438              	.LVL735:
 958:lvgl/src/extra/libs/qrcode/qrcodegen.c **** 		appendBitsToBuffer(assignVal, 14, buf, &result.bitLength);
 6439              		.loc 1 958 3 is_stmt 0 view .LVU1624
 6440 008a 0846     		mov	r0, r1
 6441              	.LVL736:
 958:lvgl/src/extra/libs/qrcode/qrcodegen.c **** 		appendBitsToBuffer(assignVal, 14, buf, &result.bitLength);
 6442              		.loc 1 958 3 view .LVU1625
 6443 008c FFF7FEFF 		bl	appendBitsToBuffer
 6444              	.LVL737:
 959:lvgl/src/extra/libs/qrcode/qrcodegen.c **** 	} else if (assignVal < 1000000L) {
ARM GAS  C:\usertemp\ccXENK9d.s 			page 160


 6445              		.loc 1 959 3 is_stmt 1 view .LVU1626
 6446 0090 03AB     		add	r3, sp, #12
 6447 0092 3246     		mov	r2, r6
 6448 0094 0E21     		movs	r1, #14
 6449 0096 2846     		mov	r0, r5
 6450 0098 FFF7FEFF 		bl	appendBitsToBuffer
 6451              	.LVL738:
 6452 009c D9E7     		b	.L525
 6453              	.LVL739:
 6454              	.L527:
 966:lvgl/src/extra/libs/qrcode/qrcodegen.c **** 	}
 6455              		.loc 1 966 3 view .LVU1627
 6456 009e 044B     		ldr	r3, .L532+4
 6457 00a0 044A     		ldr	r2, .L532+8
 6458              	.LVL740:
 966:lvgl/src/extra/libs/qrcode/qrcodegen.c **** 	}
 6459              		.loc 1 966 3 is_stmt 0 view .LVU1628
 6460 00a2 40F2C631 		movw	r1, #966
 6461              	.LVL741:
 966:lvgl/src/extra/libs/qrcode/qrcodegen.c **** 	}
 6462              		.loc 1 966 3 view .LVU1629
 6463 00a6 0448     		ldr	r0, .L532+12
 6464              	.LVL742:
 966:lvgl/src/extra/libs/qrcode/qrcodegen.c **** 	}
 6465              		.loc 1 966 3 view .LVU1630
 6466 00a8 FFF7FEFF 		bl	__assert_func
 6467              	.LVL743:
 6468              	.L533:
 6469              		.align	2
 6470              	.L532:
 6471 00ac 3F420F00 		.word	999999
 6472 00b0 00000000 		.word	.LC0
 6473 00b4 00000000 		.word	__func__.0
 6474 00b8 08000000 		.word	.LC1
 6475              		.cfi_endproc
 6476              	.LFE34:
 6478              		.section	.text.qrcodegen_getMinFitVersion,"ax",%progbits
 6479              		.align	1
 6480              		.global	qrcodegen_getMinFitVersion
 6481              		.syntax unified
 6482              		.thumb
 6483              		.thumb_func
 6485              	qrcodegen_getMinFitVersion:
 6486              	.LVL744:
 6487              	.LFB37:
1011:lvgl/src/extra/libs/qrcode/qrcodegen.c **** 
1012:lvgl/src/extra/libs/qrcode/qrcodegen.c **** int qrcodegen_getMinFitVersion(enum qrcodegen_Ecc ecl, size_t dataLen)
1013:lvgl/src/extra/libs/qrcode/qrcodegen.c **** {
 6488              		.loc 1 1013 1 is_stmt 1 view -0
 6489              		.cfi_startproc
 6490              		@ args = 0, pretend = 0, frame = 16
 6491              		@ frame_needed = 0, uses_anonymous_args = 0
 6492              		.loc 1 1013 1 is_stmt 0 view .LVU1632
 6493 0000 70B5     		push	{r4, r5, r6, lr}
 6494              	.LCFI76:
 6495              		.cfi_def_cfa_offset 16
 6496              		.cfi_offset 4, -16
ARM GAS  C:\usertemp\ccXENK9d.s 			page 161


 6497              		.cfi_offset 5, -12
 6498              		.cfi_offset 6, -8
 6499              		.cfi_offset 14, -4
 6500 0002 84B0     		sub	sp, sp, #16
 6501              	.LCFI77:
 6502              		.cfi_def_cfa_offset 32
 6503 0004 0646     		mov	r6, r0
 6504 0006 0C46     		mov	r4, r1
1014:lvgl/src/extra/libs/qrcode/qrcodegen.c **** 	struct qrcodegen_Segment seg;
 6505              		.loc 1 1014 2 is_stmt 1 view .LVU1633
1015:lvgl/src/extra/libs/qrcode/qrcodegen.c **** 	seg.mode = qrcodegen_Mode_BYTE;
 6506              		.loc 1 1015 2 view .LVU1634
 6507              		.loc 1 1015 11 is_stmt 0 view .LVU1635
 6508 0008 0420     		movs	r0, #4
 6509              	.LVL745:
 6510              		.loc 1 1015 11 view .LVU1636
 6511 000a 8DF80000 		strb	r0, [sp]
1016:lvgl/src/extra/libs/qrcode/qrcodegen.c **** 	seg.bitLength = calcSegmentBitLength(seg.mode, dataLen);
 6512              		.loc 1 1016 2 is_stmt 1 view .LVU1637
 6513              		.loc 1 1016 18 is_stmt 0 view .LVU1638
 6514 000e FFF7FEFF 		bl	calcSegmentBitLength
 6515              	.LVL746:
 6516              		.loc 1 1016 16 discriminator 1 view .LVU1639
 6517 0012 0390     		str	r0, [sp, #12]
1017:lvgl/src/extra/libs/qrcode/qrcodegen.c **** 	seg.numChars = (int)dataLen;
 6518              		.loc 1 1017 2 is_stmt 1 view .LVU1640
 6519              		.loc 1 1017 15 is_stmt 0 view .LVU1641
 6520 0014 0194     		str	r4, [sp, #4]
1018:lvgl/src/extra/libs/qrcode/qrcodegen.c **** 
1019:lvgl/src/extra/libs/qrcode/qrcodegen.c **** 	for (int version = qrcodegen_VERSION_MIN; version <= qrcodegen_VERSION_MAX; version++) {
 6521              		.loc 1 1019 2 is_stmt 1 view .LVU1642
 6522              	.LBB132:
 6523              		.loc 1 1019 7 view .LVU1643
 6524              	.LVL747:
 6525              		.loc 1 1019 11 is_stmt 0 view .LVU1644
 6526 0016 0124     		movs	r4, #1
 6527              	.LVL748:
 6528              		.loc 1 1019 2 view .LVU1645
 6529 0018 00E0     		b	.L535
 6530              	.LVL749:
 6531              	.L540:
 6532              		.loc 1 1019 85 is_stmt 1 discriminator 2 view .LVU1646
 6533 001a 0134     		adds	r4, r4, #1
 6534              	.LVL750:
 6535              	.L535:
 6536              		.loc 1 1019 52 discriminator 1 view .LVU1647
 6537 001c 282C     		cmp	r4, #40
 6538 001e 14DC     		bgt	.L539
 6539              	.LBB133:
1020:lvgl/src/extra/libs/qrcode/qrcodegen.c **** 		int dataCapacityBits = getNumDataCodewords(version, ecl) * 8;  // Number of data bits available
 6540              		.loc 1 1020 3 view .LVU1648
 6541              		.loc 1 1020 26 is_stmt 0 view .LVU1649
 6542 0020 3146     		mov	r1, r6
 6543 0022 2046     		mov	r0, r4
 6544 0024 FFF7FEFF 		bl	getNumDataCodewords
 6545              	.LVL751:
 6546              		.loc 1 1020 7 discriminator 1 view .LVU1650
ARM GAS  C:\usertemp\ccXENK9d.s 			page 162


 6547 0028 C500     		lsls	r5, r0, #3
 6548              	.LVL752:
1021:lvgl/src/extra/libs/qrcode/qrcodegen.c **** 		int dataUsedBits = getTotalBits(&seg, 1, version);
 6549              		.loc 1 1021 3 is_stmt 1 view .LVU1651
 6550              		.loc 1 1021 22 is_stmt 0 view .LVU1652
 6551 002a 2246     		mov	r2, r4
 6552 002c 0121     		movs	r1, #1
 6553 002e 6846     		mov	r0, sp
 6554 0030 FFF7FEFF 		bl	getTotalBits
 6555              	.LVL753:
1022:lvgl/src/extra/libs/qrcode/qrcodegen.c **** 		if (dataUsedBits != -1 && dataUsedBits <= dataCapacityBits)
 6556              		.loc 1 1022 3 is_stmt 1 view .LVU1653
 6557              		.loc 1 1022 26 is_stmt 0 view .LVU1654
 6558 0034 431C     		adds	r3, r0, #1
 6559 0036 18BF     		it	ne
 6560 0038 0123     		movne	r3, #1
 6561 003a 8542     		cmp	r5, r0
 6562 003c B8BF     		it	lt
 6563 003e 0023     		movlt	r3, #0
 6564              		.loc 1 1022 6 view .LVU1655
 6565 0040 002B     		cmp	r3, #0
 6566 0042 EAD0     		beq	.L540
 6567              	.LVL754:
 6568              	.L534:
 6569              		.loc 1 1022 6 view .LVU1656
 6570              	.LBE133:
 6571              	.LBE132:
1023:lvgl/src/extra/libs/qrcode/qrcodegen.c **** 			return version;
1024:lvgl/src/extra/libs/qrcode/qrcodegen.c **** 	}
1025:lvgl/src/extra/libs/qrcode/qrcodegen.c **** 	return -1;
1026:lvgl/src/extra/libs/qrcode/qrcodegen.c **** }
 6572              		.loc 1 1026 1 view .LVU1657
 6573 0044 2046     		mov	r0, r4
 6574 0046 04B0     		add	sp, sp, #16
 6575              	.LCFI78:
 6576              		.cfi_remember_state
 6577              		.cfi_def_cfa_offset 16
 6578              		@ sp needed
 6579 0048 70BD     		pop	{r4, r5, r6, pc}
 6580              	.LVL755:
 6581              	.L539:
 6582              	.LCFI79:
 6583              		.cfi_restore_state
1025:lvgl/src/extra/libs/qrcode/qrcodegen.c **** }
 6584              		.loc 1 1025 9 view .LVU1658
 6585 004a 4FF0FF34 		mov	r4, #-1
 6586              	.LVL756:
1025:lvgl/src/extra/libs/qrcode/qrcodegen.c **** }
 6587              		.loc 1 1025 9 view .LVU1659
 6588 004e F9E7     		b	.L534
 6589              		.cfi_endproc
 6590              	.LFE37:
 6592              		.section	.text.qrcodegen_version2size,"ax",%progbits
 6593              		.align	1
 6594              		.global	qrcodegen_version2size
 6595              		.syntax unified
 6596              		.thumb
ARM GAS  C:\usertemp\ccXENK9d.s 			page 163


 6597              		.thumb_func
 6599              	qrcodegen_version2size:
 6600              	.LVL757:
 6601              	.LFB38:
1027:lvgl/src/extra/libs/qrcode/qrcodegen.c **** 
1028:lvgl/src/extra/libs/qrcode/qrcodegen.c **** int qrcodegen_version2size(int version)
1029:lvgl/src/extra/libs/qrcode/qrcodegen.c **** {
 6602              		.loc 1 1029 1 is_stmt 1 view -0
 6603              		.cfi_startproc
 6604              		@ args = 0, pretend = 0, frame = 0
 6605              		@ frame_needed = 0, uses_anonymous_args = 0
 6606              		@ link register save eliminated.
1030:lvgl/src/extra/libs/qrcode/qrcodegen.c **** 	if (version < qrcodegen_VERSION_MIN || version > qrcodegen_VERSION_MAX) {
 6607              		.loc 1 1030 2 view .LVU1661
 6608              		.loc 1 1030 38 is_stmt 0 view .LVU1662
 6609 0000 431E     		subs	r3, r0, #1
 6610              		.loc 1 1030 5 view .LVU1663
 6611 0002 272B     		cmp	r3, #39
 6612 0004 02D8     		bhi	.L543
1031:lvgl/src/extra/libs/qrcode/qrcodegen.c **** 		return -1;
1032:lvgl/src/extra/libs/qrcode/qrcodegen.c **** 	}
1033:lvgl/src/extra/libs/qrcode/qrcodegen.c **** 
1034:lvgl/src/extra/libs/qrcode/qrcodegen.c **** 	return ((version - 1)*4 + 21);
 6613              		.loc 1 1034 2 is_stmt 1 view .LVU1664
 6614              		.loc 1 1034 23 is_stmt 0 view .LVU1665
 6615 0006 9800     		lsls	r0, r3, #2
 6616              	.LVL758:
 6617              		.loc 1 1034 26 view .LVU1666
 6618 0008 1530     		adds	r0, r0, #21
 6619 000a 7047     		bx	lr
 6620              	.LVL759:
 6621              	.L543:
1031:lvgl/src/extra/libs/qrcode/qrcodegen.c **** 		return -1;
 6622              		.loc 1 1031 10 view .LVU1667
 6623 000c 4FF0FF30 		mov	r0, #-1
 6624              	.LVL760:
1035:lvgl/src/extra/libs/qrcode/qrcodegen.c **** }
 6625              		.loc 1 1035 1 view .LVU1668
 6626 0010 7047     		bx	lr
 6627              		.cfi_endproc
 6628              	.LFE38:
 6630              		.section	.rodata.__func__.0,"a"
 6631              		.align	2
 6634              	__func__.0:
 6635 0000 7172636F 		.ascii	"qrcodegen_makeEci\000"
 6635      64656765 
 6635      6E5F6D61 
 6635      6B654563 
 6635      6900
 6636              		.section	.rodata.__func__.1,"a"
 6637              		.align	2
 6640              	__func__.1:
 6641 0000 7172636F 		.ascii	"qrcodegen_makeAlphanumeric\000"
 6641      64656765 
 6641      6E5F6D61 
 6641      6B65416C 
 6641      7068616E 
ARM GAS  C:\usertemp\ccXENK9d.s 			page 164


 6642              		.section	.rodata.__func__.2,"a"
 6643              		.align	2
 6646              	__func__.2:
 6647 0000 7172636F 		.ascii	"qrcodegen_makeNumeric\000"
 6647      64656765 
 6647      6E5F6D61 
 6647      6B654E75 
 6647      6D657269 
 6648              		.section	.rodata.__func__.3,"a"
 6649              		.align	2
 6652              	__func__.3:
 6653 0000 7172636F 		.ascii	"qrcodegen_makeBytes\000"
 6653      64656765 
 6653      6E5F6D61 
 6653      6B654279 
 6653      74657300 
 6654              		.section	.rodata.__func__.4,"a"
 6655              		.align	2
 6658              	__func__.4:
 6659 0000 7172636F 		.ascii	"qrcodegen_calcSegmentBufferSize\000"
 6659      64656765 
 6659      6E5F6361 
 6659      6C635365 
 6659      676D656E 
 6660              		.section	.rodata.__func__.5,"a"
 6661              		.align	2
 6664              	__func__.5:
 6665 0000 7172636F 		.ascii	"qrcodegen_isNumeric\000"
 6665      64656765 
 6665      6E5F6973 
 6665      4E756D65 
 6665      72696300 
 6666              		.section	.rodata.__func__.6,"a"
 6667              		.align	2
 6670              	__func__.6:
 6671 0000 7172636F 		.ascii	"qrcodegen_isAlphanumeric\000"
 6671      64656765 
 6671      6E5F6973 
 6671      416C7068 
 6671      616E756D 
 6672              		.section	.rodata.__func__.7,"a"
 6673              		.align	2
 6676              	__func__.7:
 6677 0000 7172636F 		.ascii	"qrcodegen_getModule\000"
 6677      64656765 
 6677      6E5F6765 
 6677      744D6F64 
 6677      756C6500 
 6678              		.section	.rodata.__func__.8,"a"
 6679              		.align	2
 6682              	__func__.8:
 6683 0000 7172636F 		.ascii	"qrcodegen_getSize\000"
 6683      64656765 
 6683      6E5F6765 
 6683      7453697A 
 6683      6500
 6684              		.section	.rodata.table.9,"a"
ARM GAS  C:\usertemp\ccXENK9d.s 			page 165


 6685              		.align	2
 6688              	table.9:
 6689 0000 01000000 		.word	1
 6690 0004 00000000 		.word	0
 6691 0008 03000000 		.word	3
 6692 000c 02000000 		.word	2
 6693              		.section	.rodata.__func__.10,"a"
 6694              		.align	2
 6697              	__func__.10:
 6698 0000 64726177 		.ascii	"drawFormatBits\000"
 6698      466F726D 
 6698      61744269 
 6698      747300
 6699              		.section	.rodata.__func__.11,"a"
 6700              		.align	2
 6703              	__func__.11:
 6704 0000 6170706C 		.ascii	"applyMask\000"
 6704      794D6173 
 6704      6B00
 6705              		.section	.rodata.__func__.12,"a"
 6706              		.align	2
 6709              	__func__.12:
 6710 0000 64726177 		.ascii	"drawWhiteFunctionModules\000"
 6710      57686974 
 6710      6546756E 
 6710      6374696F 
 6710      6E4D6F64 
 6711              		.section	.rodata.__func__.13,"a"
 6712              		.align	2
 6715              	__func__.13:
 6716 0000 7365744D 		.ascii	"setModule\000"
 6716      6F64756C 
 6716      6500
 6717              		.section	.rodata.__func__.14,"a"
 6718              		.align	2
 6721              	__func__.14:
 6722 0000 6765744D 		.ascii	"getModule\000"
 6722      6F64756C 
 6722      6500
 6723              		.section	.rodata.__func__.15,"a"
 6724              		.align	2
 6727              	__func__.15:
 6728 0000 64726177 		.ascii	"drawCodewords\000"
 6728      436F6465 
 6728      776F7264 
 6728      7300
 6729              		.section	.rodata.__func__.16,"a"
 6730              		.align	2
 6733              	__func__.16:
 6734 0000 6765744E 		.ascii	"getNumRawDataModules\000"
 6734      756D5261 
 6734      77446174 
 6734      614D6F64 
 6734      756C6573 
 6735              		.section	.rodata.__func__.17,"a"
 6736              		.align	2
 6739              	__func__.17:
ARM GAS  C:\usertemp\ccXENK9d.s 			page 166


 6740 0000 63616C63 		.ascii	"calcReedSolomonRemainder\000"
 6740      52656564 
 6740      536F6C6F 
 6740      6D6F6E52 
 6740      656D6169 
 6741              		.section	.rodata.__func__.18,"a"
 6742              		.align	2
 6745              	__func__.18:
 6746 0000 63616C63 		.ascii	"calcReedSolomonGenerator\000"
 6746      52656564 
 6746      536F6C6F 
 6746      6D6F6E47 
 6746      656E6572 
 6747              		.section	.rodata.__func__.19,"a"
 6748              		.align	2
 6751              	__func__.19:
 6752 0000 61646445 		.ascii	"addEccAndInterleave\000"
 6752      6363416E 
 6752      64496E74 
 6752      65726C65 
 6752      61766500 
 6753              		.section	.rodata.__func__.20,"a"
 6754              		.align	2
 6757              	__func__.20:
 6758 0000 61707065 		.ascii	"appendBitsToBuffer\000"
 6758      6E644269 
 6758      7473546F 
 6758      42756666 
 6758      657200
 6759              		.section	.rodata.__func__.21,"a"
 6760              		.align	2
 6763              	__func__.21:
 6764 0000 6765744E 		.ascii	"getNumDataCodewords\000"
 6764      756D4461 
 6764      7461436F 
 6764      6465776F 
 6764      72647300 
 6765              		.section	.rodata.temp.22,"a"
 6766              		.align	2
 6769              	temp.22:
 6770 0000 08000000 		.word	8
 6771 0004 0A000000 		.word	10
 6772 0008 0C000000 		.word	12
 6773              		.section	.rodata.temp.23,"a"
 6774              		.align	2
 6777              	temp.23:
 6778 0000 08000000 		.word	8
 6779 0004 10000000 		.word	16
 6780 0008 10000000 		.word	16
 6781              		.section	.rodata.temp.24,"a"
 6782              		.align	2
 6785              	temp.24:
 6786 0000 09000000 		.word	9
 6787 0004 0B000000 		.word	11
 6788 0008 0D000000 		.word	13
 6789              		.section	.rodata.temp.25,"a"
 6790              		.align	2
ARM GAS  C:\usertemp\ccXENK9d.s 			page 167


 6793              	temp.25:
 6794 0000 0A000000 		.word	10
 6795 0004 0C000000 		.word	12
 6796 0008 0E000000 		.word	14
 6797              		.section	.rodata.__func__.26,"a"
 6798              		.align	2
 6801              	__func__.26:
 6802 0000 6E756D43 		.ascii	"numCharCountBits\000"
 6802      68617243 
 6802      6F756E74 
 6802      42697473 
 6802      00
 6803              		.section	.rodata.__func__.27,"a"
 6804              		.align	2
 6807              	__func__.27:
 6808 0000 67657454 		.ascii	"getTotalBits\000"
 6808      6F74616C 
 6808      42697473 
 6808      00
 6809              		.section	.rodata.__func__.28,"a"
 6810              		.align	2
 6813              	__func__.28:
 6814 0000 7172636F 		.ascii	"qrcodegen_encodeSegmentsAdvanced\000"
 6814      64656765 
 6814      6E5F656E 
 6814      636F6465 
 6814      5365676D 
 6815              		.section	.rodata.__func__.29,"a"
 6816              		.align	2
 6819              	__func__.29:
 6820 0000 63616C63 		.ascii	"calcSegmentBitLength\000"
 6820      5365676D 
 6820      656E7442 
 6820      69744C65 
 6820      6E677468 
 6821              		.section	.rodata.NUM_ERROR_CORRECTION_BLOCKS,"a"
 6822              		.align	2
 6825              	NUM_ERROR_CORRECTION_BLOCKS:
 6826 0000 FF010101 		.ascii	"\377\001\001\001\001\001\002\002\002\002\004\004\004"
 6826      01010202 
 6826      02020404 
 6826      04
 6827 000d 04040606 		.ascii	"\004\004\006\006\006\006\007\010\010\011\011\012\014"
 6827      06060708 
 6827      0809090A 
 6827      0C
 6828 001a 0C0C0D0E 		.ascii	"\014\014\015\016\017\020\021\022\023\023\024\025\026"
 6828      0F101112 
 6828      13131415 
 6828      16
 6829 0027 1819     		.ascii	"\030\031"
 6830 0029 FF010101 		.ascii	"\377\001\001\001\002\002\004\004\004\005\005\005\010"
 6830      02020404 
 6830      04050505 
 6830      08
 6831 0036 09090A0A 		.ascii	"\011\011\012\012\013\015\016\020\021\021\022\024\025"
 6831      0B0D0E10 
ARM GAS  C:\usertemp\ccXENK9d.s 			page 168


 6831      11111214 
 6831      15
 6832 0043 17191A1C 		.ascii	"\027\031\032\034\035\037!#%&(+-/1"
 6832      1D1F2123 
 6832      2526282B 
 6832      2D2F31
 6833 0052 FF010102 		.ascii	"\377\001\001\002\002\004\004\006\006\010\010\010\012"
 6833      02040406 
 6833      06080808 
 6833      0A
 6834 005f 0C100C11 		.ascii	"\014\020\014\021\020\022\025\024\027\027\031\033\035"
 6834      10121514 
 6834      1717191B 
 6834      1D
 6835 006c 22222326 		.ascii	"\"\"#&(+-0358;>AD"
 6835      282B2D30 
 6835      3335383B 
 6835      3E4144
 6836 007b FF010102 		.ascii	"\377\001\001\002\004\004\004\005\006\010\010\013\013"
 6836      04040405 
 6836      0608080B 
 6836      0B
 6837 0088 10101210 		.ascii	"\020\020\022\020\023\025\031\031\031\"\036 #%(*-036"
 6837      13151919 
 6837      19221E20 
 6837      2325282A 
 6837      2D303336 
 6838 009c 393C3F42 		.ascii	"9<?BFJMQ"
 6838      464A4D51 
 6839              		.section	.rodata.ECC_CODEWORDS_PER_BLOCK,"a"
 6840              		.align	2
 6843              	ECC_CODEWORDS_PER_BLOCK:
 6844 0000 FF070A0F 		.ascii	"\377\007\012\017\024\032\022\024\030\036\022\024\030"
 6844      141A1214 
 6844      181E1214 
 6844      18
 6845 000d 1A1E1618 		.ascii	"\032\036\026\030\034\036\034\034\034\034\036\036\032"
 6845      1C1E1C1C 
 6845      1C1C1E1E 
 6845      1A
 6846 001a 1C1E1E1E 		.ascii	"\034\036\036\036\036\036\036\036\036\036\036\036\036"
 6846      1E1E1E1E 
 6846      1E1E1E1E 
 6846      1E
 6847 0027 1E1E     		.ascii	"\036\036"
 6848 0029 FF0A101A 		.ascii	"\377\012\020\032\022\030\020\022\026\026\032\036\026"
 6848      12181012 
 6848      16161A1E 
 6848      16
 6849 0036 1618181C 		.ascii	"\026\030\030\034\034\032\032\032\032\034\034\034\034"
 6849      1C1A1A1A 
 6849      1A1C1C1C 
 6849      1C
 6850 0043 1C1C1C1C 		.ascii	"\034\034\034\034\034\034\034\034\034\034\034\034\034"
 6850      1C1C1C1C 
 6850      1C1C1C1C 
 6850      1C
ARM GAS  C:\usertemp\ccXENK9d.s 			page 169


 6851 0050 1C1C     		.ascii	"\034\034"
 6852 0052 FF0D1612 		.ascii	"\377\015\026\022\032\022\030\022\026\024\030\034\032"
 6852      1A121812 
 6852      1614181C 
 6852      1A
 6853 005f 18141E18 		.ascii	"\030\024\036\030\034\034\032\036\034\036\036\036\036"
 6853      1C1C1A1E 
 6853      1C1E1E1E 
 6853      1E
 6854 006c 1C1E1E1E 		.ascii	"\034\036\036\036\036\036\036\036\036\036\036\036\036"
 6854      1E1E1E1E 
 6854      1E1E1E1E 
 6854      1E
 6855 0079 1E1E     		.ascii	"\036\036"
 6856 007b FF111C16 		.ascii	"\377\021\034\026\020\026\034\032\032\030\034\030\034"
 6856      10161C1A 
 6856      1A181C18 
 6856      1C
 6857 0088 1618181E 		.ascii	"\026\030\030\036\034\034\032\034\036\030\036\036\036"
 6857      1C1C1A1C 
 6857      1E181E1E 
 6857      1E
 6858 0095 1E1E1E1E 		.ascii	"\036\036\036\036\036\036\036\036\036\036\036\036\036"
 6858      1E1E1E1E 
 6858      1E1E1E1E 
 6858      1E
 6859 00a2 1E1E     		.ascii	"\036\036"
 6860              		.text
 6861              	.Letext0:
 6862              		.file 2 "D:/armtoolchain/arm-gnu-toolchain-13.3.rel1-mingw-w64-i686-arm-none-eabi/arm-none-eabi/in
 6863              		.file 3 "D:/armtoolchain/arm-gnu-toolchain-13.3.rel1-mingw-w64-i686-arm-none-eabi/lib/gcc/arm-none
 6864              		.file 4 "D:/armtoolchain/arm-gnu-toolchain-13.3.rel1-mingw-w64-i686-arm-none-eabi/arm-none-eabi/in
 6865              		.file 5 "lvgl/src/extra/libs/qrcode/qrcodegen.h"
 6866              		.file 6 "D:/armtoolchain/arm-gnu-toolchain-13.3.rel1-mingw-w64-i686-arm-none-eabi/arm-none-eabi/in
 6867              		.file 7 "D:/armtoolchain/arm-gnu-toolchain-13.3.rel1-mingw-w64-i686-arm-none-eabi/arm-none-eabi/in
 6868              		.file 8 "<built-in>"
ARM GAS  C:\usertemp\ccXENK9d.s 			page 170


DEFINED SYMBOLS
                            *ABS*:00000000 qrcodegen.c
C:\usertemp\ccXENK9d.s:20     .text.finiteFieldMultiply:00000000 $t
C:\usertemp\ccXENK9d.s:25     .text.finiteFieldMultiply:00000000 finiteFieldMultiply
C:\usertemp\ccXENK9d.s:86     .text.getAlignmentPatternPositions:00000000 $t
C:\usertemp\ccXENK9d.s:91     .text.getAlignmentPatternPositions:00000000 getAlignmentPatternPositions
C:\usertemp\ccXENK9d.s:245    .text.getAlignmentPatternPositions:00000078 $d
C:\usertemp\ccXENK9d.s:250    .text.hasFinderLikePattern:00000000 $t
C:\usertemp\ccXENK9d.s:255    .text.hasFinderLikePattern:00000000 hasFinderLikePattern
C:\usertemp\ccXENK9d.s:363    .text.getBit:00000000 $t
C:\usertemp\ccXENK9d.s:368    .text.getBit:00000000 getBit
C:\usertemp\ccXENK9d.s:387    .rodata.calcSegmentBitLength.str1.4:00000000 $d
C:\usertemp\ccXENK9d.s:397    .text.calcSegmentBitLength:00000000 $t
C:\usertemp\ccXENK9d.s:402    .text.calcSegmentBitLength:00000000 calcSegmentBitLength
C:\usertemp\ccXENK9d.s:427    .text.calcSegmentBitLength:00000012 $d
C:\usertemp\ccXENK9d.s:435    .text.calcSegmentBitLength:0000001a $t
C:\usertemp\ccXENK9d.s:558    .text.calcSegmentBitLength:00000090 $d
C:\usertemp\ccXENK9d.s:6819   .rodata.__func__.29:00000000 __func__.29
C:\usertemp\ccXENK9d.s:567    .rodata.numCharCountBits.str1.4:00000000 $d
C:\usertemp\ccXENK9d.s:572    .text.numCharCountBits:00000000 $t
C:\usertemp\ccXENK9d.s:577    .text.numCharCountBits:00000000 numCharCountBits
C:\usertemp\ccXENK9d.s:614    .text.numCharCountBits:00000020 $d
C:\usertemp\ccXENK9d.s:623    .text.numCharCountBits:00000028 $t
C:\usertemp\ccXENK9d.s:695    .text.numCharCountBits:00000068 $d
C:\usertemp\ccXENK9d.s:6801   .rodata.__func__.26:00000000 __func__.26
C:\usertemp\ccXENK9d.s:6793   .rodata.temp.25:00000000 temp.25
C:\usertemp\ccXENK9d.s:6785   .rodata.temp.24:00000000 temp.24
C:\usertemp\ccXENK9d.s:6777   .rodata.temp.23:00000000 temp.23
C:\usertemp\ccXENK9d.s:6769   .rodata.temp.22:00000000 temp.22
C:\usertemp\ccXENK9d.s:708    .rodata.getTotalBits.str1.4:00000000 $d
C:\usertemp\ccXENK9d.s:724    .text.getTotalBits:00000000 $t
C:\usertemp\ccXENK9d.s:729    .text.getTotalBits:00000000 getTotalBits
C:\usertemp\ccXENK9d.s:908    .text.getTotalBits:000000bc $d
C:\usertemp\ccXENK9d.s:6807   .rodata.__func__.27:00000000 __func__.27
C:\usertemp\ccXENK9d.s:921    .rodata.appendBitsToBuffer.str1.4:00000000 $d
C:\usertemp\ccXENK9d.s:926    .text.appendBitsToBuffer:00000000 $t
C:\usertemp\ccXENK9d.s:931    .text.appendBitsToBuffer:00000000 appendBitsToBuffer
C:\usertemp\ccXENK9d.s:1021   .text.appendBitsToBuffer:0000004c $d
C:\usertemp\ccXENK9d.s:6757   .rodata.__func__.20:00000000 __func__.20
C:\usertemp\ccXENK9d.s:1028   .rodata.getNumRawDataModules.str1.4:00000000 $d
C:\usertemp\ccXENK9d.s:1033   .text.getNumRawDataModules:00000000 $t
C:\usertemp\ccXENK9d.s:1038   .text.getNumRawDataModules:00000000 getNumRawDataModules
C:\usertemp\ccXENK9d.s:1122   .text.getNumRawDataModules:00000054 $d
C:\usertemp\ccXENK9d.s:6733   .rodata.__func__.16:00000000 __func__.16
C:\usertemp\ccXENK9d.s:1130   .rodata.getNumDataCodewords.str1.4:00000000 $d
C:\usertemp\ccXENK9d.s:1134   .text.getNumDataCodewords:00000000 $t
C:\usertemp\ccXENK9d.s:1139   .text.getNumDataCodewords:00000000 getNumDataCodewords
C:\usertemp\ccXENK9d.s:1207   .text.getNumDataCodewords:00000044 $d
C:\usertemp\ccXENK9d.s:6843   .rodata.ECC_CODEWORDS_PER_BLOCK:00000000 ECC_CODEWORDS_PER_BLOCK
C:\usertemp\ccXENK9d.s:6825   .rodata.NUM_ERROR_CORRECTION_BLOCKS:00000000 NUM_ERROR_CORRECTION_BLOCKS
C:\usertemp\ccXENK9d.s:6763   .rodata.__func__.21:00000000 __func__.21
C:\usertemp\ccXENK9d.s:1216   .rodata.getModule.str1.4:00000000 $d
C:\usertemp\ccXENK9d.s:1221   .text.getModule:00000000 $t
C:\usertemp\ccXENK9d.s:1226   .text.getModule:00000000 getModule
C:\usertemp\ccXENK9d.s:1301   .text.getModule:0000004c $d
C:\usertemp\ccXENK9d.s:6721   .rodata.__func__.14:00000000 __func__.14
C:\usertemp\ccXENK9d.s:1308   .text.setModule:00000000 $t
ARM GAS  C:\usertemp\ccXENK9d.s 			page 171


C:\usertemp\ccXENK9d.s:1313   .text.setModule:00000000 setModule
C:\usertemp\ccXENK9d.s:1421   .text.setModule:00000064 $d
C:\usertemp\ccXENK9d.s:6715   .rodata.__func__.13:00000000 __func__.13
C:\usertemp\ccXENK9d.s:1428   .text.setModuleBounded:00000000 $t
C:\usertemp\ccXENK9d.s:1433   .text.setModuleBounded:00000000 setModuleBounded
C:\usertemp\ccXENK9d.s:1488   .text.fillRectangle:00000000 $t
C:\usertemp\ccXENK9d.s:1493   .text.fillRectangle:00000000 fillRectangle
C:\usertemp\ccXENK9d.s:1564   .rodata.calcReedSolomonGenerator.str1.4:00000000 $d
C:\usertemp\ccXENK9d.s:1569   .text.calcReedSolomonGenerator:00000000 $t
C:\usertemp\ccXENK9d.s:1574   .text.calcReedSolomonGenerator:00000000 calcReedSolomonGenerator
C:\usertemp\ccXENK9d.s:1698   .text.calcReedSolomonGenerator:00000070 $d
C:\usertemp\ccXENK9d.s:6745   .rodata.__func__.18:00000000 __func__.18
C:\usertemp\ccXENK9d.s:1705   .text.initializeFunctionModules:00000000 $t
C:\usertemp\ccXENK9d.s:1710   .text.initializeFunctionModules:00000000 initializeFunctionModules
C:\usertemp\ccXENK9d.s:1939   .text.calcReedSolomonRemainder:00000000 $t
C:\usertemp\ccXENK9d.s:1944   .text.calcReedSolomonRemainder:00000000 calcReedSolomonRemainder
C:\usertemp\ccXENK9d.s:2088   .text.calcReedSolomonRemainder:0000007c $d
C:\usertemp\ccXENK9d.s:6739   .rodata.__func__.17:00000000 __func__.17
C:\usertemp\ccXENK9d.s:2095   .rodata.addEccAndInterleave.str1.4:00000000 $d
C:\usertemp\ccXENK9d.s:2100   .text.addEccAndInterleave:00000000 $t
C:\usertemp\ccXENK9d.s:2105   .text.addEccAndInterleave:00000000 addEccAndInterleave
C:\usertemp\ccXENK9d.s:2372   .text.addEccAndInterleave:000000f0 $d
C:\usertemp\ccXENK9d.s:6751   .rodata.__func__.19:00000000 __func__.19
C:\usertemp\ccXENK9d.s:2381   .text.addRunToHistory:00000000 $t
C:\usertemp\ccXENK9d.s:2386   .text.addRunToHistory:00000000 addRunToHistory
C:\usertemp\ccXENK9d.s:2420   .rodata.qrcodegen_getSize.str1.4:00000000 $d
C:\usertemp\ccXENK9d.s:2428   .text.qrcodegen_getSize:00000000 $t
C:\usertemp\ccXENK9d.s:2434   .text.qrcodegen_getSize:00000000 qrcodegen_getSize
C:\usertemp\ccXENK9d.s:2484   .text.qrcodegen_getSize:0000002c $d
C:\usertemp\ccXENK9d.s:6682   .rodata.__func__.8:00000000 __func__.8
C:\usertemp\ccXENK9d.s:2492   .rodata.drawCodewords.str1.4:00000000 $d
C:\usertemp\ccXENK9d.s:2496   .text.drawCodewords:00000000 $t
C:\usertemp\ccXENK9d.s:2501   .text.drawCodewords:00000000 drawCodewords
C:\usertemp\ccXENK9d.s:2709   .text.drawCodewords:000000c0 $d
C:\usertemp\ccXENK9d.s:6727   .rodata.__func__.15:00000000 __func__.15
C:\usertemp\ccXENK9d.s:2716   .rodata.drawWhiteFunctionModules.str1.4:00000000 $d
C:\usertemp\ccXENK9d.s:2720   .text.drawWhiteFunctionModules:00000000 $t
C:\usertemp\ccXENK9d.s:2725   .text.drawWhiteFunctionModules:00000000 drawWhiteFunctionModules
C:\usertemp\ccXENK9d.s:3127   .text.drawWhiteFunctionModules:00000198 $d
C:\usertemp\ccXENK9d.s:6709   .rodata.__func__.12:00000000 __func__.12
C:\usertemp\ccXENK9d.s:3137   .text.getPenaltyScore:00000000 $t
C:\usertemp\ccXENK9d.s:3142   .text.getPenaltyScore:00000000 getPenaltyScore
C:\usertemp\ccXENK9d.s:3686   .rodata.applyMask.str1.4:00000000 $d
C:\usertemp\ccXENK9d.s:3690   .text.applyMask:00000000 $t
C:\usertemp\ccXENK9d.s:3695   .text.applyMask:00000000 applyMask
C:\usertemp\ccXENK9d.s:3816   .text.applyMask:00000070 $d
C:\usertemp\ccXENK9d.s:3824   .text.applyMask:00000090 $t
C:\usertemp\ccXENK9d.s:4000   .text.applyMask:00000188 $d
C:\usertemp\ccXENK9d.s:6703   .rodata.__func__.11:00000000 __func__.11
C:\usertemp\ccXENK9d.s:4009   .rodata.drawFormatBits.str1.4:00000000 $d
C:\usertemp\ccXENK9d.s:4013   .text.drawFormatBits:00000000 $t
C:\usertemp\ccXENK9d.s:4018   .text.drawFormatBits:00000000 drawFormatBits
C:\usertemp\ccXENK9d.s:4299   .text.drawFormatBits:00000134 $d
C:\usertemp\ccXENK9d.s:6688   .rodata.table.9:00000000 table.9
C:\usertemp\ccXENK9d.s:6697   .rodata.__func__.10:00000000 __func__.10
C:\usertemp\ccXENK9d.s:4308   .rodata.qrcodegen_encodeSegmentsAdvanced.str1.4:00000000 $d
C:\usertemp\ccXENK9d.s:4330   .text.qrcodegen_encodeSegmentsAdvanced:00000000 $t
ARM GAS  C:\usertemp\ccXENK9d.s 			page 172


C:\usertemp\ccXENK9d.s:4336   .text.qrcodegen_encodeSegmentsAdvanced:00000000 qrcodegen_encodeSegmentsAdvanced
C:\usertemp\ccXENK9d.s:4956   .text.qrcodegen_encodeSegmentsAdvanced:000002e4 $d
C:\usertemp\ccXENK9d.s:6813   .rodata.__func__.28:00000000 __func__.28
C:\usertemp\ccXENK9d.s:4970   .text.qrcodegen_encodeBinary:00000000 $t
C:\usertemp\ccXENK9d.s:4976   .text.qrcodegen_encodeBinary:00000000 qrcodegen_encodeBinary
C:\usertemp\ccXENK9d.s:5061   .text.qrcodegen_encodeSegments:00000000 $t
C:\usertemp\ccXENK9d.s:5067   .text.qrcodegen_encodeSegments:00000000 qrcodegen_encodeSegments
C:\usertemp\ccXENK9d.s:5109   .text.qrcodegen_getModule:00000000 $t
C:\usertemp\ccXENK9d.s:5115   .text.qrcodegen_getModule:00000000 qrcodegen_getModule
C:\usertemp\ccXENK9d.s:5196   .text.qrcodegen_getModule:00000040 $d
C:\usertemp\ccXENK9d.s:6676   .rodata.__func__.7:00000000 __func__.7
C:\usertemp\ccXENK9d.s:5203   .rodata.qrcodegen_isAlphanumeric.str1.4:00000000 $d
C:\usertemp\ccXENK9d.s:5210   .text.qrcodegen_isAlphanumeric:00000000 $t
C:\usertemp\ccXENK9d.s:5216   .text.qrcodegen_isAlphanumeric:00000000 qrcodegen_isAlphanumeric
C:\usertemp\ccXENK9d.s:5276   .text.qrcodegen_isAlphanumeric:0000002c $d
C:\usertemp\ccXENK9d.s:6670   .rodata.__func__.6:00000000 __func__.6
C:\usertemp\ccXENK9d.s:5284   .text.qrcodegen_isNumeric:00000000 $t
C:\usertemp\ccXENK9d.s:5290   .text.qrcodegen_isNumeric:00000000 qrcodegen_isNumeric
C:\usertemp\ccXENK9d.s:5349   .text.qrcodegen_isNumeric:0000002c $d
C:\usertemp\ccXENK9d.s:6664   .rodata.__func__.5:00000000 __func__.5
C:\usertemp\ccXENK9d.s:5356   .rodata.qrcodegen_calcSegmentBufferSize.str1.4:00000000 $d
C:\usertemp\ccXENK9d.s:5360   .text.qrcodegen_calcSegmentBufferSize:00000000 $t
C:\usertemp\ccXENK9d.s:5366   .text.qrcodegen_calcSegmentBufferSize:00000000 qrcodegen_calcSegmentBufferSize
C:\usertemp\ccXENK9d.s:5420   .text.qrcodegen_calcSegmentBufferSize:0000002c $d
C:\usertemp\ccXENK9d.s:6658   .rodata.__func__.4:00000000 __func__.4
C:\usertemp\ccXENK9d.s:5427   .rodata.qrcodegen_makeBytes.str1.4:00000000 $d
C:\usertemp\ccXENK9d.s:5434   .text.qrcodegen_makeBytes:00000000 $t
C:\usertemp\ccXENK9d.s:5440   .text.qrcodegen_makeBytes:00000000 qrcodegen_makeBytes
C:\usertemp\ccXENK9d.s:5535   .text.qrcodegen_makeBytes:0000005c $d
C:\usertemp\ccXENK9d.s:6652   .rodata.__func__.3:00000000 __func__.3
C:\usertemp\ccXENK9d.s:5543   .rodata.qrcodegen_makeNumeric.str1.4:00000000 $d
C:\usertemp\ccXENK9d.s:5556   .text.qrcodegen_makeNumeric:00000000 $t
C:\usertemp\ccXENK9d.s:5562   .text.qrcodegen_makeNumeric:00000000 qrcodegen_makeNumeric
C:\usertemp\ccXENK9d.s:5799   .text.qrcodegen_makeNumeric:000000e0 $d
C:\usertemp\ccXENK9d.s:6646   .rodata.__func__.2:00000000 __func__.2
C:\usertemp\ccXENK9d.s:5809   .rodata.qrcodegen_makeAlphanumeric.str1.4:00000000 $d
C:\usertemp\ccXENK9d.s:5813   .text.qrcodegen_makeAlphanumeric:00000000 $t
C:\usertemp\ccXENK9d.s:5819   .text.qrcodegen_makeAlphanumeric:00000000 qrcodegen_makeAlphanumeric
C:\usertemp\ccXENK9d.s:6054   .text.qrcodegen_makeAlphanumeric:000000e0 $d
C:\usertemp\ccXENK9d.s:6640   .rodata.__func__.1:00000000 __func__.1
C:\usertemp\ccXENK9d.s:6065   .text.qrcodegen_encodeText:00000000 $t
C:\usertemp\ccXENK9d.s:6071   .text.qrcodegen_encodeText:00000000 qrcodegen_encodeText
C:\usertemp\ccXENK9d.s:6297   .text.qrcodegen_makeEci:00000000 $t
C:\usertemp\ccXENK9d.s:6303   .text.qrcodegen_makeEci:00000000 qrcodegen_makeEci
C:\usertemp\ccXENK9d.s:6471   .text.qrcodegen_makeEci:000000ac $d
C:\usertemp\ccXENK9d.s:6634   .rodata.__func__.0:00000000 __func__.0
C:\usertemp\ccXENK9d.s:6479   .text.qrcodegen_getMinFitVersion:00000000 $t
C:\usertemp\ccXENK9d.s:6485   .text.qrcodegen_getMinFitVersion:00000000 qrcodegen_getMinFitVersion
C:\usertemp\ccXENK9d.s:6593   .text.qrcodegen_version2size:00000000 $t
C:\usertemp\ccXENK9d.s:6599   .text.qrcodegen_version2size:00000000 qrcodegen_version2size
C:\usertemp\ccXENK9d.s:6631   .rodata.__func__.0:00000000 $d
C:\usertemp\ccXENK9d.s:6637   .rodata.__func__.1:00000000 $d
C:\usertemp\ccXENK9d.s:6643   .rodata.__func__.2:00000000 $d
C:\usertemp\ccXENK9d.s:6649   .rodata.__func__.3:00000000 $d
C:\usertemp\ccXENK9d.s:6655   .rodata.__func__.4:00000000 $d
C:\usertemp\ccXENK9d.s:6661   .rodata.__func__.5:00000000 $d
C:\usertemp\ccXENK9d.s:6667   .rodata.__func__.6:00000000 $d
ARM GAS  C:\usertemp\ccXENK9d.s 			page 173


C:\usertemp\ccXENK9d.s:6673   .rodata.__func__.7:00000000 $d
C:\usertemp\ccXENK9d.s:6679   .rodata.__func__.8:00000000 $d
C:\usertemp\ccXENK9d.s:6685   .rodata.table.9:00000000 $d
C:\usertemp\ccXENK9d.s:6694   .rodata.__func__.10:00000000 $d
C:\usertemp\ccXENK9d.s:6700   .rodata.__func__.11:00000000 $d
C:\usertemp\ccXENK9d.s:6706   .rodata.__func__.12:00000000 $d
C:\usertemp\ccXENK9d.s:6712   .rodata.__func__.13:00000000 $d
C:\usertemp\ccXENK9d.s:6718   .rodata.__func__.14:00000000 $d
C:\usertemp\ccXENK9d.s:6724   .rodata.__func__.15:00000000 $d
C:\usertemp\ccXENK9d.s:6730   .rodata.__func__.16:00000000 $d
C:\usertemp\ccXENK9d.s:6736   .rodata.__func__.17:00000000 $d
C:\usertemp\ccXENK9d.s:6742   .rodata.__func__.18:00000000 $d
C:\usertemp\ccXENK9d.s:6748   .rodata.__func__.19:00000000 $d
C:\usertemp\ccXENK9d.s:6754   .rodata.__func__.20:00000000 $d
C:\usertemp\ccXENK9d.s:6760   .rodata.__func__.21:00000000 $d
C:\usertemp\ccXENK9d.s:6766   .rodata.temp.22:00000000 $d
C:\usertemp\ccXENK9d.s:6774   .rodata.temp.23:00000000 $d
C:\usertemp\ccXENK9d.s:6782   .rodata.temp.24:00000000 $d
C:\usertemp\ccXENK9d.s:6790   .rodata.temp.25:00000000 $d
C:\usertemp\ccXENK9d.s:6798   .rodata.__func__.26:00000000 $d
C:\usertemp\ccXENK9d.s:6804   .rodata.__func__.27:00000000 $d
C:\usertemp\ccXENK9d.s:6810   .rodata.__func__.28:00000000 $d
C:\usertemp\ccXENK9d.s:6816   .rodata.__func__.29:00000000 $d
C:\usertemp\ccXENK9d.s:6822   .rodata.NUM_ERROR_CORRECTION_BLOCKS:00000000 $d
C:\usertemp\ccXENK9d.s:6840   .rodata.ECC_CODEWORDS_PER_BLOCK:00000000 $d

UNDEFINED SYMBOLS
__assert_func
memset
memmove
strchr
memcpy
strlen
