ARM GAS  C:\usertemp\ccXENK9d.s 			page 1


   1              		.cpu cortex-m7
   2              		.arch armv7e-m
   3              		.fpu fpv5-d16
   4              		.eabi_attribute 28, 1
   5              		.eabi_attribute 20, 1
   6              		.eabi_attribute 21, 1
   7              		.eabi_attribute 23, 3
   8              		.eabi_attribute 24, 1
   9              		.eabi_attribute 25, 1
  10              		.eabi_attribute 26, 1
  11              		.eabi_attribute 30, 1
  12              		.eabi_attribute 34, 1
  13              		.eabi_attribute 18, 4
  14              		.file	"qrcodegen.c"
  15              		.text
  16              	.Ltext0:
  17              		.cfi_sections	.debug_frame
  18              		.file 1 "lvgl/src/extra/libs/qrcode/qrcodegen.c"
  19              		.section	.text.finiteFieldMultiply,"ax",%progbits
  20              		.align	1
  21              		.syntax unified
  22              		.thumb
  23              		.thumb_func
  25              	finiteFieldMultiply:
  26              	.LVL0:
  27              	.LFB10:
   1:lvgl/src/extra/libs/qrcode/qrcodegen.c **** /* 
   2:lvgl/src/extra/libs/qrcode/qrcodegen.c ****  * QR Code generator library (C)
   3:lvgl/src/extra/libs/qrcode/qrcodegen.c ****  * 
   4:lvgl/src/extra/libs/qrcode/qrcodegen.c ****  * Copyright (c) Project Nayuki. (MIT License)
   5:lvgl/src/extra/libs/qrcode/qrcodegen.c ****  * https://www.nayuki.io/page/qr-code-generator-library
   6:lvgl/src/extra/libs/qrcode/qrcodegen.c ****  * 
   7:lvgl/src/extra/libs/qrcode/qrcodegen.c ****  * Permission is hereby granted, free of charge, to any person obtaining a copy of
   8:lvgl/src/extra/libs/qrcode/qrcodegen.c ****  * this software and associated documentation files (the "Software"), to deal in
   9:lvgl/src/extra/libs/qrcode/qrcodegen.c ****  * the Software without restriction, including without limitation the rights to
  10:lvgl/src/extra/libs/qrcode/qrcodegen.c ****  * use, copy, modify, merge, publish, distribute, sublicense, and/or sell copies of
  11:lvgl/src/extra/libs/qrcode/qrcodegen.c ****  * the Software, and to permit persons to whom the Software is furnished to do so,
  12:lvgl/src/extra/libs/qrcode/qrcodegen.c ****  * subject to the following conditions:
  13:lvgl/src/extra/libs/qrcode/qrcodegen.c ****  * - The above copyright notice and this permission notice shall be included in
  14:lvgl/src/extra/libs/qrcode/qrcodegen.c ****  *   all copies or substantial portions of the Software.
  15:lvgl/src/extra/libs/qrcode/qrcodegen.c ****  * - The Software is provided "as is", without warranty of any kind, express or
  16:lvgl/src/extra/libs/qrcode/qrcodegen.c ****  *   implied, including but not limited to the warranties of merchantability,
  17:lvgl/src/extra/libs/qrcode/qrcodegen.c ****  *   fitness for a particular purpose and noninfringement. In no event shall the
  18:lvgl/src/extra/libs/qrcode/qrcodegen.c ****  *   authors or copyright holders be liable for any claim, damages or other
  19:lvgl/src/extra/libs/qrcode/qrcodegen.c ****  *   liability, whether in an action of contract, tort or otherwise, arising from,
  20:lvgl/src/extra/libs/qrcode/qrcodegen.c ****  *   out of or in connection with the Software or the use or other dealings in the
  21:lvgl/src/extra/libs/qrcode/qrcodegen.c ****  *   Software.
  22:lvgl/src/extra/libs/qrcode/qrcodegen.c ****  */
  23:lvgl/src/extra/libs/qrcode/qrcodegen.c **** 
  24:lvgl/src/extra/libs/qrcode/qrcodegen.c **** #include <assert.h>
  25:lvgl/src/extra/libs/qrcode/qrcodegen.c **** #include <limits.h>
  26:lvgl/src/extra/libs/qrcode/qrcodegen.c **** #include <stdlib.h>
  27:lvgl/src/extra/libs/qrcode/qrcodegen.c **** #include <string.h>
  28:lvgl/src/extra/libs/qrcode/qrcodegen.c **** #include "qrcodegen.h"
  29:lvgl/src/extra/libs/qrcode/qrcodegen.c **** 
  30:lvgl/src/extra/libs/qrcode/qrcodegen.c **** #ifndef QRCODEGEN_TEST
  31:lvgl/src/extra/libs/qrcode/qrcodegen.c **** 	#define testable static  // Keep functions private
ARM GAS  C:\usertemp\ccXENK9d.s 			page 2


  32:lvgl/src/extra/libs/qrcode/qrcodegen.c **** #else
  33:lvgl/src/extra/libs/qrcode/qrcodegen.c **** 	#define testable  // Expose private functions
  34:lvgl/src/extra/libs/qrcode/qrcodegen.c **** #endif
  35:lvgl/src/extra/libs/qrcode/qrcodegen.c **** 
  36:lvgl/src/extra/libs/qrcode/qrcodegen.c **** 
  37:lvgl/src/extra/libs/qrcode/qrcodegen.c **** /*---- Forward declarations for private functions ----*/
  38:lvgl/src/extra/libs/qrcode/qrcodegen.c **** 
  39:lvgl/src/extra/libs/qrcode/qrcodegen.c **** // Regarding all public and private functions defined in this source file:
  40:lvgl/src/extra/libs/qrcode/qrcodegen.c **** // - They require all pointer/array arguments to be not null unless the array length is zero.
  41:lvgl/src/extra/libs/qrcode/qrcodegen.c **** // - They only read input scalar/array arguments, write to output pointer/array
  42:lvgl/src/extra/libs/qrcode/qrcodegen.c **** //   arguments, and return scalar values; they are "pure" functions.
  43:lvgl/src/extra/libs/qrcode/qrcodegen.c **** // - They don't read mutable global variables or write to any global variables.
  44:lvgl/src/extra/libs/qrcode/qrcodegen.c **** // - They don't perform I/O, read the clock, print to console, etc.
  45:lvgl/src/extra/libs/qrcode/qrcodegen.c **** // - They allocate a small and constant amount of stack memory.
  46:lvgl/src/extra/libs/qrcode/qrcodegen.c **** // - They don't allocate or free any memory on the heap.
  47:lvgl/src/extra/libs/qrcode/qrcodegen.c **** // - They don't recurse or mutually recurse. All the code
  48:lvgl/src/extra/libs/qrcode/qrcodegen.c **** //   could be inlined into the top-level public functions.
  49:lvgl/src/extra/libs/qrcode/qrcodegen.c **** // - They run in at most quadratic time with respect to input arguments.
  50:lvgl/src/extra/libs/qrcode/qrcodegen.c **** //   Most functions run in linear time, and some in constant time.
  51:lvgl/src/extra/libs/qrcode/qrcodegen.c **** //   There are no unbounded loops or non-obvious termination conditions.
  52:lvgl/src/extra/libs/qrcode/qrcodegen.c **** // - They are completely thread-safe if the caller does not give the
  53:lvgl/src/extra/libs/qrcode/qrcodegen.c **** //   same writable buffer to concurrent calls to these functions.
  54:lvgl/src/extra/libs/qrcode/qrcodegen.c **** 
  55:lvgl/src/extra/libs/qrcode/qrcodegen.c **** testable void appendBitsToBuffer(unsigned int val, int numBits, uint8_t buffer[], int *bitLen);
  56:lvgl/src/extra/libs/qrcode/qrcodegen.c **** 
  57:lvgl/src/extra/libs/qrcode/qrcodegen.c **** testable void addEccAndInterleave(uint8_t data[], int version, enum qrcodegen_Ecc ecl, uint8_t resu
  58:lvgl/src/extra/libs/qrcode/qrcodegen.c **** testable int getNumDataCodewords(int version, enum qrcodegen_Ecc ecl);
  59:lvgl/src/extra/libs/qrcode/qrcodegen.c **** testable int getNumRawDataModules(int ver);
  60:lvgl/src/extra/libs/qrcode/qrcodegen.c **** 
  61:lvgl/src/extra/libs/qrcode/qrcodegen.c **** testable void calcReedSolomonGenerator(int degree, uint8_t result[]);
  62:lvgl/src/extra/libs/qrcode/qrcodegen.c **** testable void calcReedSolomonRemainder(const uint8_t data[], int dataLen,
  63:lvgl/src/extra/libs/qrcode/qrcodegen.c **** 	const uint8_t generator[], int degree, uint8_t result[]);
  64:lvgl/src/extra/libs/qrcode/qrcodegen.c **** testable uint8_t finiteFieldMultiply(uint8_t x, uint8_t y);
  65:lvgl/src/extra/libs/qrcode/qrcodegen.c **** 
  66:lvgl/src/extra/libs/qrcode/qrcodegen.c **** testable void initializeFunctionModules(int version, uint8_t qrcode[]);
  67:lvgl/src/extra/libs/qrcode/qrcodegen.c **** static void drawWhiteFunctionModules(uint8_t qrcode[], int version);
  68:lvgl/src/extra/libs/qrcode/qrcodegen.c **** static void drawFormatBits(enum qrcodegen_Ecc ecl, enum qrcodegen_Mask mask, uint8_t qrcode[]);
  69:lvgl/src/extra/libs/qrcode/qrcodegen.c **** testable int getAlignmentPatternPositions(int version, uint8_t result[7]);
  70:lvgl/src/extra/libs/qrcode/qrcodegen.c **** static void fillRectangle(int left, int top, int width, int height, uint8_t qrcode[]);
  71:lvgl/src/extra/libs/qrcode/qrcodegen.c **** 
  72:lvgl/src/extra/libs/qrcode/qrcodegen.c **** static void drawCodewords(const uint8_t data[], int dataLen, uint8_t qrcode[]);
  73:lvgl/src/extra/libs/qrcode/qrcodegen.c **** static void applyMask(const uint8_t functionModules[], uint8_t qrcode[], enum qrcodegen_Mask mask);
  74:lvgl/src/extra/libs/qrcode/qrcodegen.c **** static long getPenaltyScore(const uint8_t qrcode[]);
  75:lvgl/src/extra/libs/qrcode/qrcodegen.c **** static void addRunToHistory(unsigned char run, unsigned char history[7]);
  76:lvgl/src/extra/libs/qrcode/qrcodegen.c **** static bool hasFinderLikePattern(const unsigned char runHistory[7]);
  77:lvgl/src/extra/libs/qrcode/qrcodegen.c **** 
  78:lvgl/src/extra/libs/qrcode/qrcodegen.c **** testable bool getModule(const uint8_t qrcode[], int x, int y);
  79:lvgl/src/extra/libs/qrcode/qrcodegen.c **** testable void setModule(uint8_t qrcode[], int x, int y, bool isBlack);
  80:lvgl/src/extra/libs/qrcode/qrcodegen.c **** testable void setModuleBounded(uint8_t qrcode[], int x, int y, bool isBlack);
  81:lvgl/src/extra/libs/qrcode/qrcodegen.c **** static bool getBit(int x, int i);
  82:lvgl/src/extra/libs/qrcode/qrcodegen.c **** 
  83:lvgl/src/extra/libs/qrcode/qrcodegen.c **** testable int calcSegmentBitLength(enum qrcodegen_Mode mode, size_t numChars);
  84:lvgl/src/extra/libs/qrcode/qrcodegen.c **** testable int getTotalBits(const struct qrcodegen_Segment segs[], size_t len, int version);
  85:lvgl/src/extra/libs/qrcode/qrcodegen.c **** static int numCharCountBits(enum qrcodegen_Mode mode, int version);
  86:lvgl/src/extra/libs/qrcode/qrcodegen.c **** 
  87:lvgl/src/extra/libs/qrcode/qrcodegen.c **** 
  88:lvgl/src/extra/libs/qrcode/qrcodegen.c **** 
ARM GAS  C:\usertemp\ccXENK9d.s 			page 3


  89:lvgl/src/extra/libs/qrcode/qrcodegen.c **** /*---- Private tables of constants ----*/
  90:lvgl/src/extra/libs/qrcode/qrcodegen.c **** 
  91:lvgl/src/extra/libs/qrcode/qrcodegen.c **** // The set of all legal characters in alphanumeric mode, where each character
  92:lvgl/src/extra/libs/qrcode/qrcodegen.c **** // value maps to the index in the string. For checking text and encoding segments.
  93:lvgl/src/extra/libs/qrcode/qrcodegen.c **** static const char *ALPHANUMERIC_CHARSET = "0123456789ABCDEFGHIJKLMNOPQRSTUVWXYZ $%*+-./:";
  94:lvgl/src/extra/libs/qrcode/qrcodegen.c **** 
  95:lvgl/src/extra/libs/qrcode/qrcodegen.c **** // For generating error correction codes.
  96:lvgl/src/extra/libs/qrcode/qrcodegen.c **** testable const int8_t ECC_CODEWORDS_PER_BLOCK[4][41] = {
  97:lvgl/src/extra/libs/qrcode/qrcodegen.c **** 	// Version: (note that index 0 is for padding, and is set to an illegal value)
  98:lvgl/src/extra/libs/qrcode/qrcodegen.c **** 	//0,  1,  2,  3,  4,  5,  6,  7,  8,  9, 10, 11, 12, 13, 14, 15, 16, 17, 18, 19, 20, 21, 22, 23, 2
  99:lvgl/src/extra/libs/qrcode/qrcodegen.c **** 	{-1,  7, 10, 15, 20, 26, 18, 20, 24, 30, 18, 20, 24, 26, 30, 22, 24, 28, 30, 28, 28, 28, 28, 30, 3
 100:lvgl/src/extra/libs/qrcode/qrcodegen.c **** 	{-1, 10, 16, 26, 18, 24, 16, 18, 22, 22, 26, 30, 22, 22, 24, 24, 28, 28, 26, 26, 26, 26, 28, 28, 2
 101:lvgl/src/extra/libs/qrcode/qrcodegen.c **** 	{-1, 13, 22, 18, 26, 18, 24, 18, 22, 20, 24, 28, 26, 24, 20, 30, 24, 28, 28, 26, 30, 28, 30, 30, 3
 102:lvgl/src/extra/libs/qrcode/qrcodegen.c **** 	{-1, 17, 28, 22, 16, 22, 28, 26, 26, 24, 28, 24, 28, 22, 24, 24, 30, 28, 28, 26, 28, 30, 24, 30, 3
 103:lvgl/src/extra/libs/qrcode/qrcodegen.c **** };
 104:lvgl/src/extra/libs/qrcode/qrcodegen.c **** 
 105:lvgl/src/extra/libs/qrcode/qrcodegen.c **** #define qrcodegen_REED_SOLOMON_DEGREE_MAX 30  // Based on the table above
 106:lvgl/src/extra/libs/qrcode/qrcodegen.c **** 
 107:lvgl/src/extra/libs/qrcode/qrcodegen.c **** // For generating error correction codes.
 108:lvgl/src/extra/libs/qrcode/qrcodegen.c **** testable const int8_t NUM_ERROR_CORRECTION_BLOCKS[4][41] = {
 109:lvgl/src/extra/libs/qrcode/qrcodegen.c **** 	// Version: (note that index 0 is for padding, and is set to an illegal value)
 110:lvgl/src/extra/libs/qrcode/qrcodegen.c **** 	//0, 1, 2, 3, 4, 5, 6, 7, 8, 9,10, 11, 12, 13, 14, 15, 16, 17, 18, 19, 20, 21, 22, 23, 24, 25, 26,
 111:lvgl/src/extra/libs/qrcode/qrcodegen.c **** 	{-1, 1, 1, 1, 1, 1, 2, 2, 2, 2, 4,  4,  4,  4,  4,  6,  6,  6,  6,  7,  8,  8,  9,  9, 10, 12, 12,
 112:lvgl/src/extra/libs/qrcode/qrcodegen.c **** 	{-1, 1, 1, 1, 2, 2, 4, 4, 4, 5, 5,  5,  8,  9,  9, 10, 10, 11, 13, 14, 16, 17, 17, 18, 20, 21, 23,
 113:lvgl/src/extra/libs/qrcode/qrcodegen.c **** 	{-1, 1, 1, 2, 2, 4, 4, 6, 6, 8, 8,  8, 10, 12, 16, 12, 17, 16, 18, 21, 20, 23, 23, 25, 27, 29, 34,
 114:lvgl/src/extra/libs/qrcode/qrcodegen.c **** 	{-1, 1, 1, 2, 4, 4, 4, 5, 6, 8, 8, 11, 11, 16, 16, 18, 16, 19, 21, 25, 25, 25, 34, 30, 32, 35, 37,
 115:lvgl/src/extra/libs/qrcode/qrcodegen.c **** };
 116:lvgl/src/extra/libs/qrcode/qrcodegen.c **** 
 117:lvgl/src/extra/libs/qrcode/qrcodegen.c **** // For automatic mask pattern selection.
 118:lvgl/src/extra/libs/qrcode/qrcodegen.c **** static const int PENALTY_N1 =  3;
 119:lvgl/src/extra/libs/qrcode/qrcodegen.c **** static const int PENALTY_N2 =  3;
 120:lvgl/src/extra/libs/qrcode/qrcodegen.c **** static const int PENALTY_N3 = 40;
 121:lvgl/src/extra/libs/qrcode/qrcodegen.c **** static const int PENALTY_N4 = 10;
 122:lvgl/src/extra/libs/qrcode/qrcodegen.c **** 
 123:lvgl/src/extra/libs/qrcode/qrcodegen.c **** 
 124:lvgl/src/extra/libs/qrcode/qrcodegen.c **** 
 125:lvgl/src/extra/libs/qrcode/qrcodegen.c **** /*---- High-level QR Code encoding functions ----*/
 126:lvgl/src/extra/libs/qrcode/qrcodegen.c **** 
 127:lvgl/src/extra/libs/qrcode/qrcodegen.c **** // Public function - see documentation comment in header file.
 128:lvgl/src/extra/libs/qrcode/qrcodegen.c **** bool qrcodegen_encodeText(const char *text, uint8_t tempBuffer[], uint8_t qrcode[],
 129:lvgl/src/extra/libs/qrcode/qrcodegen.c **** 		enum qrcodegen_Ecc ecl, int minVersion, int maxVersion, enum qrcodegen_Mask mask, bool boostEcl) 
 130:lvgl/src/extra/libs/qrcode/qrcodegen.c **** 	
 131:lvgl/src/extra/libs/qrcode/qrcodegen.c **** 	size_t textLen = strlen(text);
 132:lvgl/src/extra/libs/qrcode/qrcodegen.c **** 	if (textLen == 0)
 133:lvgl/src/extra/libs/qrcode/qrcodegen.c **** 		return qrcodegen_encodeSegmentsAdvanced(NULL, 0, ecl, minVersion, maxVersion, mask, boostEcl, tem
 134:lvgl/src/extra/libs/qrcode/qrcodegen.c **** 	size_t bufLen = qrcodegen_BUFFER_LEN_FOR_VERSION(maxVersion);
 135:lvgl/src/extra/libs/qrcode/qrcodegen.c **** 	
 136:lvgl/src/extra/libs/qrcode/qrcodegen.c **** 	struct qrcodegen_Segment seg;
 137:lvgl/src/extra/libs/qrcode/qrcodegen.c **** 	if (qrcodegen_isNumeric(text)) {
 138:lvgl/src/extra/libs/qrcode/qrcodegen.c **** 		if (qrcodegen_calcSegmentBufferSize(qrcodegen_Mode_NUMERIC, textLen) > bufLen)
 139:lvgl/src/extra/libs/qrcode/qrcodegen.c **** 			goto fail;
 140:lvgl/src/extra/libs/qrcode/qrcodegen.c **** 		seg = qrcodegen_makeNumeric(text, tempBuffer);
 141:lvgl/src/extra/libs/qrcode/qrcodegen.c **** 	} else if (qrcodegen_isAlphanumeric(text)) {
 142:lvgl/src/extra/libs/qrcode/qrcodegen.c **** 		if (qrcodegen_calcSegmentBufferSize(qrcodegen_Mode_ALPHANUMERIC, textLen) > bufLen)
 143:lvgl/src/extra/libs/qrcode/qrcodegen.c **** 			goto fail;
 144:lvgl/src/extra/libs/qrcode/qrcodegen.c **** 		seg = qrcodegen_makeAlphanumeric(text, tempBuffer);
 145:lvgl/src/extra/libs/qrcode/qrcodegen.c **** 	} else {
ARM GAS  C:\usertemp\ccXENK9d.s 			page 4


 146:lvgl/src/extra/libs/qrcode/qrcodegen.c **** 		if (textLen > bufLen)
 147:lvgl/src/extra/libs/qrcode/qrcodegen.c **** 			goto fail;
 148:lvgl/src/extra/libs/qrcode/qrcodegen.c **** 		for (size_t i = 0; i < textLen; i++)
 149:lvgl/src/extra/libs/qrcode/qrcodegen.c **** 			tempBuffer[i] = (uint8_t)text[i];
 150:lvgl/src/extra/libs/qrcode/qrcodegen.c **** 		seg.mode = qrcodegen_Mode_BYTE;
 151:lvgl/src/extra/libs/qrcode/qrcodegen.c **** 		seg.bitLength = calcSegmentBitLength(seg.mode, textLen);
 152:lvgl/src/extra/libs/qrcode/qrcodegen.c **** 		if (seg.bitLength == -1)
 153:lvgl/src/extra/libs/qrcode/qrcodegen.c **** 			goto fail;
 154:lvgl/src/extra/libs/qrcode/qrcodegen.c **** 		seg.numChars = (int)textLen;
 155:lvgl/src/extra/libs/qrcode/qrcodegen.c **** 		seg.data = tempBuffer;
 156:lvgl/src/extra/libs/qrcode/qrcodegen.c **** 	}
 157:lvgl/src/extra/libs/qrcode/qrcodegen.c **** 	return qrcodegen_encodeSegmentsAdvanced(&seg, 1, ecl, minVersion, maxVersion, mask, boostEcl, temp
 158:lvgl/src/extra/libs/qrcode/qrcodegen.c **** 	
 159:lvgl/src/extra/libs/qrcode/qrcodegen.c **** fail:
 160:lvgl/src/extra/libs/qrcode/qrcodegen.c **** 	qrcode[0] = 0;  // Set size to invalid value for safety
 161:lvgl/src/extra/libs/qrcode/qrcodegen.c **** 	return false;
 162:lvgl/src/extra/libs/qrcode/qrcodegen.c **** }
 163:lvgl/src/extra/libs/qrcode/qrcodegen.c **** 
 164:lvgl/src/extra/libs/qrcode/qrcodegen.c **** 
 165:lvgl/src/extra/libs/qrcode/qrcodegen.c **** // Public function - see documentation comment in header file.
 166:lvgl/src/extra/libs/qrcode/qrcodegen.c **** bool qrcodegen_encodeBinary(uint8_t dataAndTemp[], size_t dataLen, uint8_t qrcode[],
 167:lvgl/src/extra/libs/qrcode/qrcodegen.c **** 		enum qrcodegen_Ecc ecl, int minVersion, int maxVersion, enum qrcodegen_Mask mask, bool boostEcl) 
 168:lvgl/src/extra/libs/qrcode/qrcodegen.c **** 	
 169:lvgl/src/extra/libs/qrcode/qrcodegen.c **** 	struct qrcodegen_Segment seg;
 170:lvgl/src/extra/libs/qrcode/qrcodegen.c **** 	seg.mode = qrcodegen_Mode_BYTE;
 171:lvgl/src/extra/libs/qrcode/qrcodegen.c **** 	seg.bitLength = calcSegmentBitLength(seg.mode, dataLen);
 172:lvgl/src/extra/libs/qrcode/qrcodegen.c **** 	if (seg.bitLength == -1) {
 173:lvgl/src/extra/libs/qrcode/qrcodegen.c **** 		qrcode[0] = 0;  // Set size to invalid value for safety
 174:lvgl/src/extra/libs/qrcode/qrcodegen.c **** 		return false;
 175:lvgl/src/extra/libs/qrcode/qrcodegen.c **** 	}
 176:lvgl/src/extra/libs/qrcode/qrcodegen.c **** 	seg.numChars = (int)dataLen;
 177:lvgl/src/extra/libs/qrcode/qrcodegen.c **** 	seg.data = dataAndTemp;
 178:lvgl/src/extra/libs/qrcode/qrcodegen.c **** 	return qrcodegen_encodeSegmentsAdvanced(&seg, 1, ecl, minVersion, maxVersion, mask, boostEcl, data
 179:lvgl/src/extra/libs/qrcode/qrcodegen.c **** }
 180:lvgl/src/extra/libs/qrcode/qrcodegen.c **** 
 181:lvgl/src/extra/libs/qrcode/qrcodegen.c **** 
 182:lvgl/src/extra/libs/qrcode/qrcodegen.c **** // Appends the given number of low-order bits of the given value to the given byte-based
 183:lvgl/src/extra/libs/qrcode/qrcodegen.c **** // bit buffer, increasing the bit length. Requires 0 <= numBits <= 16 and val < 2^numBits.
 184:lvgl/src/extra/libs/qrcode/qrcodegen.c **** testable void appendBitsToBuffer(unsigned int val, int numBits, uint8_t buffer[], int *bitLen) {
 185:lvgl/src/extra/libs/qrcode/qrcodegen.c **** 	assert(0 <= numBits && numBits <= 16 && (unsigned long)val >> numBits == 0);
 186:lvgl/src/extra/libs/qrcode/qrcodegen.c **** 	for (int i = numBits - 1; i >= 0; i--, (*bitLen)++)
 187:lvgl/src/extra/libs/qrcode/qrcodegen.c **** 		buffer[*bitLen >> 3] |= ((val >> i) & 1) << (7 - (*bitLen & 7));
 188:lvgl/src/extra/libs/qrcode/qrcodegen.c **** }
 189:lvgl/src/extra/libs/qrcode/qrcodegen.c **** 
 190:lvgl/src/extra/libs/qrcode/qrcodegen.c **** 
 191:lvgl/src/extra/libs/qrcode/qrcodegen.c **** 
 192:lvgl/src/extra/libs/qrcode/qrcodegen.c **** /*---- Low-level QR Code encoding functions ----*/
 193:lvgl/src/extra/libs/qrcode/qrcodegen.c **** 
 194:lvgl/src/extra/libs/qrcode/qrcodegen.c **** // Public function - see documentation comment in header file.
 195:lvgl/src/extra/libs/qrcode/qrcodegen.c **** bool qrcodegen_encodeSegments(const struct qrcodegen_Segment segs[], size_t len,
 196:lvgl/src/extra/libs/qrcode/qrcodegen.c **** 		enum qrcodegen_Ecc ecl, uint8_t tempBuffer[], uint8_t qrcode[]) {
 197:lvgl/src/extra/libs/qrcode/qrcodegen.c **** 	return qrcodegen_encodeSegmentsAdvanced(segs, len, ecl,
 198:lvgl/src/extra/libs/qrcode/qrcodegen.c **** 		qrcodegen_VERSION_MIN, qrcodegen_VERSION_MAX, -1, true, tempBuffer, qrcode);
 199:lvgl/src/extra/libs/qrcode/qrcodegen.c **** }
 200:lvgl/src/extra/libs/qrcode/qrcodegen.c **** 
 201:lvgl/src/extra/libs/qrcode/qrcodegen.c **** 
 202:lvgl/src/extra/libs/qrcode/qrcodegen.c **** // Public function - see documentation comment in header file.
ARM GAS  C:\usertemp\ccXENK9d.s 			page 5


 203:lvgl/src/extra/libs/qrcode/qrcodegen.c **** bool qrcodegen_encodeSegmentsAdvanced(const struct qrcodegen_Segment segs[], size_t len, enum qrcod
 204:lvgl/src/extra/libs/qrcode/qrcodegen.c **** 		int minVersion, int maxVersion, int mask, bool boostEcl, uint8_t tempBuffer[], uint8_t qrcode[]) 
 205:lvgl/src/extra/libs/qrcode/qrcodegen.c **** 	assert(segs != NULL || len == 0);
 206:lvgl/src/extra/libs/qrcode/qrcodegen.c **** 	assert(qrcodegen_VERSION_MIN <= minVersion && minVersion <= maxVersion && maxVersion <= qrcodegen_
 207:lvgl/src/extra/libs/qrcode/qrcodegen.c **** 	assert(0 <= (int)ecl && (int)ecl <= 3 && -1 <= (int)mask && (int)mask <= 7);
 208:lvgl/src/extra/libs/qrcode/qrcodegen.c **** 	
 209:lvgl/src/extra/libs/qrcode/qrcodegen.c **** 	// Find the minimal version number to use
 210:lvgl/src/extra/libs/qrcode/qrcodegen.c **** 	int version, dataUsedBits;
 211:lvgl/src/extra/libs/qrcode/qrcodegen.c **** 	for (version = minVersion; ; version++) {
 212:lvgl/src/extra/libs/qrcode/qrcodegen.c **** 		int dataCapacityBits = getNumDataCodewords(version, ecl) * 8;  // Number of data bits available
 213:lvgl/src/extra/libs/qrcode/qrcodegen.c **** 		dataUsedBits = getTotalBits(segs, len, version);
 214:lvgl/src/extra/libs/qrcode/qrcodegen.c **** 		if (dataUsedBits != -1 && dataUsedBits <= dataCapacityBits)
 215:lvgl/src/extra/libs/qrcode/qrcodegen.c **** 			break;  // This version number is found to be suitable
 216:lvgl/src/extra/libs/qrcode/qrcodegen.c **** 		if (version >= maxVersion) {  // All versions in the range could not fit the given data
 217:lvgl/src/extra/libs/qrcode/qrcodegen.c **** 			qrcode[0] = 0;  // Set size to invalid value for safety
 218:lvgl/src/extra/libs/qrcode/qrcodegen.c **** 			return false;
 219:lvgl/src/extra/libs/qrcode/qrcodegen.c **** 		}
 220:lvgl/src/extra/libs/qrcode/qrcodegen.c **** 	}
 221:lvgl/src/extra/libs/qrcode/qrcodegen.c **** 	assert(dataUsedBits != -1);
 222:lvgl/src/extra/libs/qrcode/qrcodegen.c **** 	
 223:lvgl/src/extra/libs/qrcode/qrcodegen.c **** 	// Increase the error correction level while the data still fits in the current version number
 224:lvgl/src/extra/libs/qrcode/qrcodegen.c **** 	for (int i = (int)qrcodegen_Ecc_MEDIUM; i <= (int)qrcodegen_Ecc_HIGH; i++) {  // From low to high
 225:lvgl/src/extra/libs/qrcode/qrcodegen.c **** 		if (boostEcl && dataUsedBits <= getNumDataCodewords(version, (enum qrcodegen_Ecc)i) * 8)
 226:lvgl/src/extra/libs/qrcode/qrcodegen.c **** 			ecl = (enum qrcodegen_Ecc)i;
 227:lvgl/src/extra/libs/qrcode/qrcodegen.c **** 	}
 228:lvgl/src/extra/libs/qrcode/qrcodegen.c **** 	
 229:lvgl/src/extra/libs/qrcode/qrcodegen.c **** 	// Concatenate all segments to create the data bit string
 230:lvgl/src/extra/libs/qrcode/qrcodegen.c **** 	memset(qrcode, 0, qrcodegen_BUFFER_LEN_FOR_VERSION(version) * sizeof(qrcode[0]));
 231:lvgl/src/extra/libs/qrcode/qrcodegen.c **** 	int bitLen = 0;
 232:lvgl/src/extra/libs/qrcode/qrcodegen.c **** 	for (size_t i = 0; i < len; i++) {
 233:lvgl/src/extra/libs/qrcode/qrcodegen.c **** 		const struct qrcodegen_Segment *seg = &segs[i];
 234:lvgl/src/extra/libs/qrcode/qrcodegen.c **** 		appendBitsToBuffer((int)seg->mode, 4, qrcode, &bitLen);
 235:lvgl/src/extra/libs/qrcode/qrcodegen.c **** 		appendBitsToBuffer(seg->numChars, numCharCountBits(seg->mode, version), qrcode, &bitLen);
 236:lvgl/src/extra/libs/qrcode/qrcodegen.c **** 		for (int j = 0; j < seg->bitLength; j++)
 237:lvgl/src/extra/libs/qrcode/qrcodegen.c **** 			appendBitsToBuffer((seg->data[j >> 3] >> (7 - (j & 7))) & 1, 1, qrcode, &bitLen);
 238:lvgl/src/extra/libs/qrcode/qrcodegen.c **** 	}
 239:lvgl/src/extra/libs/qrcode/qrcodegen.c **** 	assert(bitLen == dataUsedBits);
 240:lvgl/src/extra/libs/qrcode/qrcodegen.c **** 	
 241:lvgl/src/extra/libs/qrcode/qrcodegen.c **** 	// Add terminator and pad up to a byte if applicable
 242:lvgl/src/extra/libs/qrcode/qrcodegen.c **** 	int dataCapacityBits = getNumDataCodewords(version, ecl) * 8;
 243:lvgl/src/extra/libs/qrcode/qrcodegen.c **** 	assert(bitLen <= dataCapacityBits);
 244:lvgl/src/extra/libs/qrcode/qrcodegen.c **** 	int terminatorBits = dataCapacityBits - bitLen;
 245:lvgl/src/extra/libs/qrcode/qrcodegen.c **** 	if (terminatorBits > 4)
 246:lvgl/src/extra/libs/qrcode/qrcodegen.c **** 		terminatorBits = 4;
 247:lvgl/src/extra/libs/qrcode/qrcodegen.c **** 	appendBitsToBuffer(0, terminatorBits, qrcode, &bitLen);
 248:lvgl/src/extra/libs/qrcode/qrcodegen.c **** 	appendBitsToBuffer(0, (8 - bitLen % 8) % 8, qrcode, &bitLen);
 249:lvgl/src/extra/libs/qrcode/qrcodegen.c **** 	assert(bitLen % 8 == 0);
 250:lvgl/src/extra/libs/qrcode/qrcodegen.c **** 	
 251:lvgl/src/extra/libs/qrcode/qrcodegen.c **** 	// Pad with alternating bytes until data capacity is reached
 252:lvgl/src/extra/libs/qrcode/qrcodegen.c **** 	for (uint8_t padByte = 0xEC; bitLen < dataCapacityBits; padByte ^= 0xEC ^ 0x11)
 253:lvgl/src/extra/libs/qrcode/qrcodegen.c **** 		appendBitsToBuffer(padByte, 8, qrcode, &bitLen);
 254:lvgl/src/extra/libs/qrcode/qrcodegen.c **** 	
 255:lvgl/src/extra/libs/qrcode/qrcodegen.c **** 	// Draw function and data codeword modules
 256:lvgl/src/extra/libs/qrcode/qrcodegen.c **** 	addEccAndInterleave(qrcode, version, ecl, tempBuffer);
 257:lvgl/src/extra/libs/qrcode/qrcodegen.c **** 	initializeFunctionModules(version, qrcode);
 258:lvgl/src/extra/libs/qrcode/qrcodegen.c **** 	drawCodewords(tempBuffer, getNumRawDataModules(version) / 8, qrcode);
 259:lvgl/src/extra/libs/qrcode/qrcodegen.c **** 	drawWhiteFunctionModules(qrcode, version);
ARM GAS  C:\usertemp\ccXENK9d.s 			page 6


 260:lvgl/src/extra/libs/qrcode/qrcodegen.c **** 	initializeFunctionModules(version, tempBuffer);
 261:lvgl/src/extra/libs/qrcode/qrcodegen.c **** 	
 262:lvgl/src/extra/libs/qrcode/qrcodegen.c **** 	// Handle masking
 263:lvgl/src/extra/libs/qrcode/qrcodegen.c **** 	if (mask == qrcodegen_Mask_AUTO) {  // Automatically choose best mask
 264:lvgl/src/extra/libs/qrcode/qrcodegen.c **** 		long minPenalty = LONG_MAX;
 265:lvgl/src/extra/libs/qrcode/qrcodegen.c **** 		for (int i = 0; i < 8; i++) {
 266:lvgl/src/extra/libs/qrcode/qrcodegen.c **** 			enum qrcodegen_Mask msk = (enum qrcodegen_Mask)i;
 267:lvgl/src/extra/libs/qrcode/qrcodegen.c **** 			applyMask(tempBuffer, qrcode, msk);
 268:lvgl/src/extra/libs/qrcode/qrcodegen.c **** 			drawFormatBits(ecl, msk, qrcode);
 269:lvgl/src/extra/libs/qrcode/qrcodegen.c **** 			long penalty = getPenaltyScore(qrcode);
 270:lvgl/src/extra/libs/qrcode/qrcodegen.c **** 			if (penalty < minPenalty) {
 271:lvgl/src/extra/libs/qrcode/qrcodegen.c **** 				mask = msk;
 272:lvgl/src/extra/libs/qrcode/qrcodegen.c **** 				minPenalty = penalty;
 273:lvgl/src/extra/libs/qrcode/qrcodegen.c **** 			}
 274:lvgl/src/extra/libs/qrcode/qrcodegen.c **** 			applyMask(tempBuffer, qrcode, msk);  // Undoes the mask due to XOR
 275:lvgl/src/extra/libs/qrcode/qrcodegen.c **** 		}
 276:lvgl/src/extra/libs/qrcode/qrcodegen.c **** 	}
 277:lvgl/src/extra/libs/qrcode/qrcodegen.c **** 	assert(0 <= (int)mask && (int)mask <= 7);
 278:lvgl/src/extra/libs/qrcode/qrcodegen.c **** 	applyMask(tempBuffer, qrcode, mask);
 279:lvgl/src/extra/libs/qrcode/qrcodegen.c **** 	drawFormatBits(ecl, mask, qrcode);
 280:lvgl/src/extra/libs/qrcode/qrcodegen.c **** 	return true;
 281:lvgl/src/extra/libs/qrcode/qrcodegen.c **** }
 282:lvgl/src/extra/libs/qrcode/qrcodegen.c **** 
 283:lvgl/src/extra/libs/qrcode/qrcodegen.c **** 
 284:lvgl/src/extra/libs/qrcode/qrcodegen.c **** 
 285:lvgl/src/extra/libs/qrcode/qrcodegen.c **** /*---- Error correction code generation functions ----*/
 286:lvgl/src/extra/libs/qrcode/qrcodegen.c **** 
 287:lvgl/src/extra/libs/qrcode/qrcodegen.c **** // Appends error correction bytes to each block of the given data array, then interleaves
 288:lvgl/src/extra/libs/qrcode/qrcodegen.c **** // bytes from the blocks and stores them in the result array. data[0 : dataLen] contains
 289:lvgl/src/extra/libs/qrcode/qrcodegen.c **** // the input data. data[dataLen : rawCodewords] is used as a temporary work area and will
 290:lvgl/src/extra/libs/qrcode/qrcodegen.c **** // be clobbered by this function. The final answer is stored in result[0 : rawCodewords].
 291:lvgl/src/extra/libs/qrcode/qrcodegen.c **** testable void addEccAndInterleave(uint8_t data[], int version, enum qrcodegen_Ecc ecl, uint8_t resu
 292:lvgl/src/extra/libs/qrcode/qrcodegen.c **** 	// Calculate parameter numbers
 293:lvgl/src/extra/libs/qrcode/qrcodegen.c **** 	assert(0 <= (int)ecl && (int)ecl < 4 && qrcodegen_VERSION_MIN <= version && version <= qrcodegen_V
 294:lvgl/src/extra/libs/qrcode/qrcodegen.c **** 	int numBlocks = NUM_ERROR_CORRECTION_BLOCKS[(int)ecl][version];
 295:lvgl/src/extra/libs/qrcode/qrcodegen.c **** 	int blockEccLen = ECC_CODEWORDS_PER_BLOCK  [(int)ecl][version];
 296:lvgl/src/extra/libs/qrcode/qrcodegen.c **** 	int rawCodewords = getNumRawDataModules(version) / 8;
 297:lvgl/src/extra/libs/qrcode/qrcodegen.c **** 	int dataLen = getNumDataCodewords(version, ecl);
 298:lvgl/src/extra/libs/qrcode/qrcodegen.c **** 	int numShortBlocks = numBlocks - rawCodewords % numBlocks;
 299:lvgl/src/extra/libs/qrcode/qrcodegen.c **** 	int shortBlockDataLen = rawCodewords / numBlocks - blockEccLen;
 300:lvgl/src/extra/libs/qrcode/qrcodegen.c **** 	
 301:lvgl/src/extra/libs/qrcode/qrcodegen.c **** 	// Split data into blocks, calculate ECC, and interleave
 302:lvgl/src/extra/libs/qrcode/qrcodegen.c **** 	// (not concatenate) the bytes into a single sequence
 303:lvgl/src/extra/libs/qrcode/qrcodegen.c **** 	uint8_t generator[qrcodegen_REED_SOLOMON_DEGREE_MAX];
 304:lvgl/src/extra/libs/qrcode/qrcodegen.c **** 	calcReedSolomonGenerator(blockEccLen, generator);
 305:lvgl/src/extra/libs/qrcode/qrcodegen.c **** 	const uint8_t *dat = data;
 306:lvgl/src/extra/libs/qrcode/qrcodegen.c **** 	for (int i = 0; i < numBlocks; i++) {
 307:lvgl/src/extra/libs/qrcode/qrcodegen.c **** 		int datLen = shortBlockDataLen + (i < numShortBlocks ? 0 : 1);
 308:lvgl/src/extra/libs/qrcode/qrcodegen.c **** 		uint8_t *ecc = &data[dataLen];  // Temporary storage
 309:lvgl/src/extra/libs/qrcode/qrcodegen.c **** 		calcReedSolomonRemainder(dat, datLen, generator, blockEccLen, ecc);
 310:lvgl/src/extra/libs/qrcode/qrcodegen.c **** 		for (int j = 0, k = i; j < datLen; j++, k += numBlocks) {  // Copy data
 311:lvgl/src/extra/libs/qrcode/qrcodegen.c **** 			if (j == shortBlockDataLen)
 312:lvgl/src/extra/libs/qrcode/qrcodegen.c **** 				k -= numShortBlocks;
 313:lvgl/src/extra/libs/qrcode/qrcodegen.c **** 			result[k] = dat[j];
 314:lvgl/src/extra/libs/qrcode/qrcodegen.c **** 		}
 315:lvgl/src/extra/libs/qrcode/qrcodegen.c **** 		for (int j = 0, k = dataLen + i; j < blockEccLen; j++, k += numBlocks)  // Copy ECC
 316:lvgl/src/extra/libs/qrcode/qrcodegen.c **** 			result[k] = ecc[j];
ARM GAS  C:\usertemp\ccXENK9d.s 			page 7


 317:lvgl/src/extra/libs/qrcode/qrcodegen.c **** 		dat += datLen;
 318:lvgl/src/extra/libs/qrcode/qrcodegen.c **** 	}
 319:lvgl/src/extra/libs/qrcode/qrcodegen.c **** }
 320:lvgl/src/extra/libs/qrcode/qrcodegen.c **** 
 321:lvgl/src/extra/libs/qrcode/qrcodegen.c **** 
 322:lvgl/src/extra/libs/qrcode/qrcodegen.c **** // Returns the number of 8-bit codewords that can be used for storing data (not ECC),
 323:lvgl/src/extra/libs/qrcode/qrcodegen.c **** // for the given version number and error correction level. The result is in the range [9, 2956].
 324:lvgl/src/extra/libs/qrcode/qrcodegen.c **** testable int getNumDataCodewords(int version, enum qrcodegen_Ecc ecl) {
 325:lvgl/src/extra/libs/qrcode/qrcodegen.c **** 	int v = version, e = (int)ecl;
 326:lvgl/src/extra/libs/qrcode/qrcodegen.c **** 	assert(0 <= e && e < 4);
 327:lvgl/src/extra/libs/qrcode/qrcodegen.c **** 	return getNumRawDataModules(v) / 8
 328:lvgl/src/extra/libs/qrcode/qrcodegen.c **** 		- ECC_CODEWORDS_PER_BLOCK    [e][v]
 329:lvgl/src/extra/libs/qrcode/qrcodegen.c **** 		* NUM_ERROR_CORRECTION_BLOCKS[e][v];
 330:lvgl/src/extra/libs/qrcode/qrcodegen.c **** }
 331:lvgl/src/extra/libs/qrcode/qrcodegen.c **** 
 332:lvgl/src/extra/libs/qrcode/qrcodegen.c **** 
 333:lvgl/src/extra/libs/qrcode/qrcodegen.c **** // Returns the number of data bits that can be stored in a QR Code of the given version number, aft
 334:lvgl/src/extra/libs/qrcode/qrcodegen.c **** // all function modules are excluded. This includes remainder bits, so it might not be a multiple o
 335:lvgl/src/extra/libs/qrcode/qrcodegen.c **** // The result is in the range [208, 29648]. This could be implemented as a 40-entry lookup table.
 336:lvgl/src/extra/libs/qrcode/qrcodegen.c **** testable int getNumRawDataModules(int ver) {
 337:lvgl/src/extra/libs/qrcode/qrcodegen.c **** 	assert(qrcodegen_VERSION_MIN <= ver && ver <= qrcodegen_VERSION_MAX);
 338:lvgl/src/extra/libs/qrcode/qrcodegen.c **** 	int result = (16 * ver + 128) * ver + 64;
 339:lvgl/src/extra/libs/qrcode/qrcodegen.c **** 	if (ver >= 2) {
 340:lvgl/src/extra/libs/qrcode/qrcodegen.c **** 		int numAlign = ver / 7 + 2;
 341:lvgl/src/extra/libs/qrcode/qrcodegen.c **** 		result -= (25 * numAlign - 10) * numAlign - 55;
 342:lvgl/src/extra/libs/qrcode/qrcodegen.c **** 		if (ver >= 7)
 343:lvgl/src/extra/libs/qrcode/qrcodegen.c **** 			result -= 36;
 344:lvgl/src/extra/libs/qrcode/qrcodegen.c **** 	}
 345:lvgl/src/extra/libs/qrcode/qrcodegen.c **** 	return result;
 346:lvgl/src/extra/libs/qrcode/qrcodegen.c **** }
 347:lvgl/src/extra/libs/qrcode/qrcodegen.c **** 
 348:lvgl/src/extra/libs/qrcode/qrcodegen.c **** 
 349:lvgl/src/extra/libs/qrcode/qrcodegen.c **** 
 350:lvgl/src/extra/libs/qrcode/qrcodegen.c **** /*---- Reed-Solomon ECC generator functions ----*/
 351:lvgl/src/extra/libs/qrcode/qrcodegen.c **** 
 352:lvgl/src/extra/libs/qrcode/qrcodegen.c **** // Calculates the Reed-Solomon generator polynomial of the given degree, storing in result[0 : degr
 353:lvgl/src/extra/libs/qrcode/qrcodegen.c **** testable void calcReedSolomonGenerator(int degree, uint8_t result[]) {
 354:lvgl/src/extra/libs/qrcode/qrcodegen.c **** 	// Start with the monomial x^0
 355:lvgl/src/extra/libs/qrcode/qrcodegen.c **** 	assert(1 <= degree && degree <= qrcodegen_REED_SOLOMON_DEGREE_MAX);
 356:lvgl/src/extra/libs/qrcode/qrcodegen.c **** 	memset(result, 0, degree * sizeof(result[0]));
 357:lvgl/src/extra/libs/qrcode/qrcodegen.c **** 	result[degree - 1] = 1;
 358:lvgl/src/extra/libs/qrcode/qrcodegen.c **** 	
 359:lvgl/src/extra/libs/qrcode/qrcodegen.c **** 	// Compute the product polynomial (x - r^0) * (x - r^1) * (x - r^2) * ... * (x - r^{degree-1}),
 360:lvgl/src/extra/libs/qrcode/qrcodegen.c **** 	// drop the highest term, and store the rest of the coefficients in order of descending powers.
 361:lvgl/src/extra/libs/qrcode/qrcodegen.c **** 	// Note that r = 0x02, which is a generator element of this field GF(2^8/0x11D).
 362:lvgl/src/extra/libs/qrcode/qrcodegen.c **** 	uint8_t root = 1;
 363:lvgl/src/extra/libs/qrcode/qrcodegen.c **** 	for (int i = 0; i < degree; i++) {
 364:lvgl/src/extra/libs/qrcode/qrcodegen.c **** 		// Multiply the current product by (x - r^i)
 365:lvgl/src/extra/libs/qrcode/qrcodegen.c **** 		for (int j = 0; j < degree; j++) {
 366:lvgl/src/extra/libs/qrcode/qrcodegen.c **** 			result[j] = finiteFieldMultiply(result[j], root);
 367:lvgl/src/extra/libs/qrcode/qrcodegen.c **** 			if (j + 1 < degree)
 368:lvgl/src/extra/libs/qrcode/qrcodegen.c **** 				result[j] ^= result[j + 1];
 369:lvgl/src/extra/libs/qrcode/qrcodegen.c **** 		}
 370:lvgl/src/extra/libs/qrcode/qrcodegen.c **** 		root = finiteFieldMultiply(root, 0x02);
 371:lvgl/src/extra/libs/qrcode/qrcodegen.c **** 	}
 372:lvgl/src/extra/libs/qrcode/qrcodegen.c **** }
 373:lvgl/src/extra/libs/qrcode/qrcodegen.c **** 
ARM GAS  C:\usertemp\ccXENK9d.s 			page 8


 374:lvgl/src/extra/libs/qrcode/qrcodegen.c **** 
 375:lvgl/src/extra/libs/qrcode/qrcodegen.c **** // Calculates the remainder of the polynomial data[0 : dataLen] when divided by the generator[0 : d
 376:lvgl/src/extra/libs/qrcode/qrcodegen.c **** // polynomials are in big endian and the generator has an implicit leading 1 term, storing the resu
 377:lvgl/src/extra/libs/qrcode/qrcodegen.c **** testable void calcReedSolomonRemainder(const uint8_t data[], int dataLen,
 378:lvgl/src/extra/libs/qrcode/qrcodegen.c **** 		const uint8_t generator[], int degree, uint8_t result[]) {
 379:lvgl/src/extra/libs/qrcode/qrcodegen.c **** 	
 380:lvgl/src/extra/libs/qrcode/qrcodegen.c **** 	// Perform polynomial division
 381:lvgl/src/extra/libs/qrcode/qrcodegen.c **** 	assert(1 <= degree && degree <= qrcodegen_REED_SOLOMON_DEGREE_MAX);
 382:lvgl/src/extra/libs/qrcode/qrcodegen.c **** 	memset(result, 0, degree * sizeof(result[0]));
 383:lvgl/src/extra/libs/qrcode/qrcodegen.c **** 	for (int i = 0; i < dataLen; i++) {
 384:lvgl/src/extra/libs/qrcode/qrcodegen.c **** 		uint8_t factor = data[i] ^ result[0];
 385:lvgl/src/extra/libs/qrcode/qrcodegen.c **** 		memmove(&result[0], &result[1], (degree - 1) * sizeof(result[0]));
 386:lvgl/src/extra/libs/qrcode/qrcodegen.c **** 		result[degree - 1] = 0;
 387:lvgl/src/extra/libs/qrcode/qrcodegen.c **** 		for (int j = 0; j < degree; j++)
 388:lvgl/src/extra/libs/qrcode/qrcodegen.c **** 			result[j] ^= finiteFieldMultiply(generator[j], factor);
 389:lvgl/src/extra/libs/qrcode/qrcodegen.c **** 	}
 390:lvgl/src/extra/libs/qrcode/qrcodegen.c **** }
 391:lvgl/src/extra/libs/qrcode/qrcodegen.c **** 
 392:lvgl/src/extra/libs/qrcode/qrcodegen.c **** #undef qrcodegen_REED_SOLOMON_DEGREE_MAX
 393:lvgl/src/extra/libs/qrcode/qrcodegen.c **** 
 394:lvgl/src/extra/libs/qrcode/qrcodegen.c **** 
 395:lvgl/src/extra/libs/qrcode/qrcodegen.c **** // Returns the product of the two given field elements modulo GF(2^8/0x11D).
 396:lvgl/src/extra/libs/qrcode/qrcodegen.c **** // All inputs are valid. This could be implemented as a 256*256 lookup table.
 397:lvgl/src/extra/libs/qrcode/qrcodegen.c **** testable uint8_t finiteFieldMultiply(uint8_t x, uint8_t y) {
  28              		.loc 1 397 60 view -0
  29              		.cfi_startproc
  30              		@ args = 0, pretend = 0, frame = 0
  31              		@ frame_needed = 0, uses_anonymous_args = 0
  32              		.loc 1 397 60 is_stmt 0 view .LVU1
  33 0000 00B5     		push	{lr}
  34              	.LCFI0:
  35              		.cfi_def_cfa_offset 4
  36              		.cfi_offset 14, -4
  37 0002 8646     		mov	lr, r0
 398:lvgl/src/extra/libs/qrcode/qrcodegen.c **** 	// Russian peasant multiplication
 399:lvgl/src/extra/libs/qrcode/qrcodegen.c **** 	uint8_t z = 0;
  38              		.loc 1 399 2 is_stmt 1 view .LVU2
  39              	.LVL1:
 400:lvgl/src/extra/libs/qrcode/qrcodegen.c **** 	for (int i = 7; i >= 0; i--) {
  40              		.loc 1 400 2 view .LVU3
  41              	.LBB2:
  42              		.loc 1 400 7 view .LVU4
  43              		.loc 1 400 11 is_stmt 0 view .LVU5
  44 0004 0722     		movs	r2, #7
  45              	.LBE2:
 399:lvgl/src/extra/libs/qrcode/qrcodegen.c **** 	for (int i = 7; i >= 0; i--) {
  46              		.loc 1 399 10 view .LVU6
  47 0006 0020     		movs	r0, #0
  48              	.LVL2:
  49              	.LBB3:
  50              		.loc 1 400 2 view .LVU7
  51 0008 10E0     		b	.L2
  52              	.LVL3:
  53              	.L3:
 401:lvgl/src/extra/libs/qrcode/qrcodegen.c **** 		z = (z << 1) ^ ((z >> 7) * 0x11D);
  54              		.loc 1 401 3 is_stmt 1 view .LVU8
  55              		.loc 1 401 16 is_stmt 0 view .LVU9
ARM GAS  C:\usertemp\ccXENK9d.s 			page 9


  56 000a C309     		lsrs	r3, r0, #7
  57 000c C3EBC30C 		rsb	ip, r3, r3, lsl #3
  58 0010 03EB8C03 		add	r3, r3, ip, lsl #2
  59 0014 83EA4003 		eor	r3, r3, r0, lsl #1
  60 0018 5BB2     		sxtb	r3, r3
  61              	.LVL4:
 402:lvgl/src/extra/libs/qrcode/qrcodegen.c **** 		z ^= ((y >> i) & 1) * x;
  62              		.loc 1 402 3 is_stmt 1 view .LVU10
  63              		.loc 1 402 12 is_stmt 0 view .LVU11
  64 001a 41FA02F0 		asr	r0, r1, r2
  65              		.loc 1 402 5 view .LVU12
  66 001e 00F00100 		and	r0, r0, #1
  67 0022 10FB0EF0 		smulbb	r0, r0, lr
  68 0026 5840     		eors	r0, r0, r3
  69 0028 C0B2     		uxtb	r0, r0
  70              	.LVL5:
 400:lvgl/src/extra/libs/qrcode/qrcodegen.c **** 		z = (z << 1) ^ ((z >> 7) * 0x11D);
  71              		.loc 1 400 27 is_stmt 1 discriminator 3 view .LVU13
  72 002a 013A     		subs	r2, r2, #1
  73              	.LVL6:
  74              	.L2:
 400:lvgl/src/extra/libs/qrcode/qrcodegen.c **** 		z = (z << 1) ^ ((z >> 7) * 0x11D);
  75              		.loc 1 400 20 discriminator 1 view .LVU14
  76 002c 002A     		cmp	r2, #0
  77 002e ECDA     		bge	.L3
  78              	.LBE3:
 403:lvgl/src/extra/libs/qrcode/qrcodegen.c **** 	}
 404:lvgl/src/extra/libs/qrcode/qrcodegen.c **** 	return z;
  79              		.loc 1 404 2 view .LVU15
 405:lvgl/src/extra/libs/qrcode/qrcodegen.c **** }
  80              		.loc 1 405 1 is_stmt 0 view .LVU16
  81 0030 5DF804FB 		ldr	pc, [sp], #4
  82              		.cfi_endproc
  83              	.LFE10:
  85              		.section	.text.getAlignmentPatternPositions,"ax",%progbits
  86              		.align	1
  87              		.syntax unified
  88              		.thumb
  89              		.thumb_func
  91              	getAlignmentPatternPositions:
  92              	.LVL7:
  93              	.LFB14:
 406:lvgl/src/extra/libs/qrcode/qrcodegen.c **** 
 407:lvgl/src/extra/libs/qrcode/qrcodegen.c **** 
 408:lvgl/src/extra/libs/qrcode/qrcodegen.c **** 
 409:lvgl/src/extra/libs/qrcode/qrcodegen.c **** /*---- Drawing function modules ----*/
 410:lvgl/src/extra/libs/qrcode/qrcodegen.c **** 
 411:lvgl/src/extra/libs/qrcode/qrcodegen.c **** // Clears the given QR Code grid with white modules for the given
 412:lvgl/src/extra/libs/qrcode/qrcodegen.c **** // version's size, then marks every function module as black.
 413:lvgl/src/extra/libs/qrcode/qrcodegen.c **** testable void initializeFunctionModules(int version, uint8_t qrcode[]) {
 414:lvgl/src/extra/libs/qrcode/qrcodegen.c **** 	// Initialize QR Code
 415:lvgl/src/extra/libs/qrcode/qrcodegen.c **** 	int qrsize = version * 4 + 17;
 416:lvgl/src/extra/libs/qrcode/qrcodegen.c **** 	memset(qrcode, 0, ((qrsize * qrsize + 7) / 8 + 1) * sizeof(qrcode[0]));
 417:lvgl/src/extra/libs/qrcode/qrcodegen.c **** 	qrcode[0] = (uint8_t)qrsize;
 418:lvgl/src/extra/libs/qrcode/qrcodegen.c **** 	
 419:lvgl/src/extra/libs/qrcode/qrcodegen.c **** 	// Fill horizontal and vertical timing patterns
 420:lvgl/src/extra/libs/qrcode/qrcodegen.c **** 	fillRectangle(6, 0, 1, qrsize, qrcode);
ARM GAS  C:\usertemp\ccXENK9d.s 			page 10


 421:lvgl/src/extra/libs/qrcode/qrcodegen.c **** 	fillRectangle(0, 6, qrsize, 1, qrcode);
 422:lvgl/src/extra/libs/qrcode/qrcodegen.c **** 	
 423:lvgl/src/extra/libs/qrcode/qrcodegen.c **** 	// Fill 3 finder patterns (all corners except bottom right) and format bits
 424:lvgl/src/extra/libs/qrcode/qrcodegen.c **** 	fillRectangle(0, 0, 9, 9, qrcode);
 425:lvgl/src/extra/libs/qrcode/qrcodegen.c **** 	fillRectangle(qrsize - 8, 0, 8, 9, qrcode);
 426:lvgl/src/extra/libs/qrcode/qrcodegen.c **** 	fillRectangle(0, qrsize - 8, 9, 8, qrcode);
 427:lvgl/src/extra/libs/qrcode/qrcodegen.c **** 	
 428:lvgl/src/extra/libs/qrcode/qrcodegen.c **** 	// Fill numerous alignment patterns
 429:lvgl/src/extra/libs/qrcode/qrcodegen.c **** 	uint8_t alignPatPos[7];
 430:lvgl/src/extra/libs/qrcode/qrcodegen.c **** 	int numAlign = getAlignmentPatternPositions(version, alignPatPos);
 431:lvgl/src/extra/libs/qrcode/qrcodegen.c **** 	for (int i = 0; i < numAlign; i++) {
 432:lvgl/src/extra/libs/qrcode/qrcodegen.c **** 		for (int j = 0; j < numAlign; j++) {
 433:lvgl/src/extra/libs/qrcode/qrcodegen.c **** 			// Don't draw on the three finder corners
 434:lvgl/src/extra/libs/qrcode/qrcodegen.c **** 			if (!((i == 0 && j == 0) || (i == 0 && j == numAlign - 1) || (i == numAlign - 1 && j == 0)))
 435:lvgl/src/extra/libs/qrcode/qrcodegen.c **** 				fillRectangle(alignPatPos[i] - 2, alignPatPos[j] - 2, 5, 5, qrcode);
 436:lvgl/src/extra/libs/qrcode/qrcodegen.c **** 		}
 437:lvgl/src/extra/libs/qrcode/qrcodegen.c **** 	}
 438:lvgl/src/extra/libs/qrcode/qrcodegen.c **** 	
 439:lvgl/src/extra/libs/qrcode/qrcodegen.c **** 	// Fill version blocks
 440:lvgl/src/extra/libs/qrcode/qrcodegen.c **** 	if (version >= 7) {
 441:lvgl/src/extra/libs/qrcode/qrcodegen.c **** 		fillRectangle(qrsize - 11, 0, 3, 6, qrcode);
 442:lvgl/src/extra/libs/qrcode/qrcodegen.c **** 		fillRectangle(0, qrsize - 11, 6, 3, qrcode);
 443:lvgl/src/extra/libs/qrcode/qrcodegen.c **** 	}
 444:lvgl/src/extra/libs/qrcode/qrcodegen.c **** }
 445:lvgl/src/extra/libs/qrcode/qrcodegen.c **** 
 446:lvgl/src/extra/libs/qrcode/qrcodegen.c **** 
 447:lvgl/src/extra/libs/qrcode/qrcodegen.c **** // Draws white function modules and possibly some black modules onto the given QR Code, without cha
 448:lvgl/src/extra/libs/qrcode/qrcodegen.c **** // non-function modules. This does not draw the format bits. This requires all function modules to 
 449:lvgl/src/extra/libs/qrcode/qrcodegen.c **** // marked black (namely by initializeFunctionModules()), because this may skip redrawing black func
 450:lvgl/src/extra/libs/qrcode/qrcodegen.c **** static void drawWhiteFunctionModules(uint8_t qrcode[], int version) {
 451:lvgl/src/extra/libs/qrcode/qrcodegen.c **** 	// Draw horizontal and vertical timing patterns
 452:lvgl/src/extra/libs/qrcode/qrcodegen.c **** 	int qrsize = qrcodegen_getSize(qrcode);
 453:lvgl/src/extra/libs/qrcode/qrcodegen.c **** 	for (int i = 7; i < qrsize - 7; i += 2) {
 454:lvgl/src/extra/libs/qrcode/qrcodegen.c **** 		setModule(qrcode, 6, i, false);
 455:lvgl/src/extra/libs/qrcode/qrcodegen.c **** 		setModule(qrcode, i, 6, false);
 456:lvgl/src/extra/libs/qrcode/qrcodegen.c **** 	}
 457:lvgl/src/extra/libs/qrcode/qrcodegen.c **** 	
 458:lvgl/src/extra/libs/qrcode/qrcodegen.c **** 	// Draw 3 finder patterns (all corners except bottom right; overwrites some timing modules)
 459:lvgl/src/extra/libs/qrcode/qrcodegen.c **** 	for (int dy = -4; dy <= 4; dy++) {
 460:lvgl/src/extra/libs/qrcode/qrcodegen.c **** 		for (int dx = -4; dx <= 4; dx++) {
 461:lvgl/src/extra/libs/qrcode/qrcodegen.c **** 			int dist = abs(dx);
 462:lvgl/src/extra/libs/qrcode/qrcodegen.c **** 			if (abs(dy) > dist)
 463:lvgl/src/extra/libs/qrcode/qrcodegen.c **** 				dist = abs(dy);
 464:lvgl/src/extra/libs/qrcode/qrcodegen.c **** 			if (dist == 2 || dist == 4) {
 465:lvgl/src/extra/libs/qrcode/qrcodegen.c **** 				setModuleBounded(qrcode, 3 + dx, 3 + dy, false);
 466:lvgl/src/extra/libs/qrcode/qrcodegen.c **** 				setModuleBounded(qrcode, qrsize - 4 + dx, 3 + dy, false);
 467:lvgl/src/extra/libs/qrcode/qrcodegen.c **** 				setModuleBounded(qrcode, 3 + dx, qrsize - 4 + dy, false);
 468:lvgl/src/extra/libs/qrcode/qrcodegen.c **** 			}
 469:lvgl/src/extra/libs/qrcode/qrcodegen.c **** 		}
 470:lvgl/src/extra/libs/qrcode/qrcodegen.c **** 	}
 471:lvgl/src/extra/libs/qrcode/qrcodegen.c **** 	
 472:lvgl/src/extra/libs/qrcode/qrcodegen.c **** 	// Draw numerous alignment patterns
 473:lvgl/src/extra/libs/qrcode/qrcodegen.c **** 	uint8_t alignPatPos[7];
 474:lvgl/src/extra/libs/qrcode/qrcodegen.c **** 	int numAlign = getAlignmentPatternPositions(version, alignPatPos);
 475:lvgl/src/extra/libs/qrcode/qrcodegen.c **** 	for (int i = 0; i < numAlign; i++) {
 476:lvgl/src/extra/libs/qrcode/qrcodegen.c **** 		for (int j = 0; j < numAlign; j++) {
 477:lvgl/src/extra/libs/qrcode/qrcodegen.c **** 			if ((i == 0 && j == 0) || (i == 0 && j == numAlign - 1) || (i == numAlign - 1 && j == 0))
ARM GAS  C:\usertemp\ccXENK9d.s 			page 11


 478:lvgl/src/extra/libs/qrcode/qrcodegen.c **** 				continue;  // Don't draw on the three finder corners
 479:lvgl/src/extra/libs/qrcode/qrcodegen.c **** 			for (int dy = -1; dy <= 1; dy++) {
 480:lvgl/src/extra/libs/qrcode/qrcodegen.c **** 				for (int dx = -1; dx <= 1; dx++)
 481:lvgl/src/extra/libs/qrcode/qrcodegen.c **** 					setModule(qrcode, alignPatPos[i] + dx, alignPatPos[j] + dy, dx == 0 && dy == 0);
 482:lvgl/src/extra/libs/qrcode/qrcodegen.c **** 			}
 483:lvgl/src/extra/libs/qrcode/qrcodegen.c **** 		}
 484:lvgl/src/extra/libs/qrcode/qrcodegen.c **** 	}
 485:lvgl/src/extra/libs/qrcode/qrcodegen.c **** 	
 486:lvgl/src/extra/libs/qrcode/qrcodegen.c **** 	// Draw version blocks
 487:lvgl/src/extra/libs/qrcode/qrcodegen.c **** 	if (version >= 7) {
 488:lvgl/src/extra/libs/qrcode/qrcodegen.c **** 		// Calculate error correction code and pack bits
 489:lvgl/src/extra/libs/qrcode/qrcodegen.c **** 		int rem = version;  // version is uint6, in the range [7, 40]
 490:lvgl/src/extra/libs/qrcode/qrcodegen.c **** 		for (int i = 0; i < 12; i++)
 491:lvgl/src/extra/libs/qrcode/qrcodegen.c **** 			rem = (rem << 1) ^ ((rem >> 11) * 0x1F25);
 492:lvgl/src/extra/libs/qrcode/qrcodegen.c **** 		long bits = (long)version << 12 | rem;  // uint18
 493:lvgl/src/extra/libs/qrcode/qrcodegen.c **** 		assert(bits >> 18 == 0);
 494:lvgl/src/extra/libs/qrcode/qrcodegen.c **** 		
 495:lvgl/src/extra/libs/qrcode/qrcodegen.c **** 		// Draw two copies
 496:lvgl/src/extra/libs/qrcode/qrcodegen.c **** 		for (int i = 0; i < 6; i++) {
 497:lvgl/src/extra/libs/qrcode/qrcodegen.c **** 			for (int j = 0; j < 3; j++) {
 498:lvgl/src/extra/libs/qrcode/qrcodegen.c **** 				int k = qrsize - 11 + j;
 499:lvgl/src/extra/libs/qrcode/qrcodegen.c **** 				setModule(qrcode, k, i, (bits & 1) != 0);
 500:lvgl/src/extra/libs/qrcode/qrcodegen.c **** 				setModule(qrcode, i, k, (bits & 1) != 0);
 501:lvgl/src/extra/libs/qrcode/qrcodegen.c **** 				bits >>= 1;
 502:lvgl/src/extra/libs/qrcode/qrcodegen.c **** 			}
 503:lvgl/src/extra/libs/qrcode/qrcodegen.c **** 		}
 504:lvgl/src/extra/libs/qrcode/qrcodegen.c **** 	}
 505:lvgl/src/extra/libs/qrcode/qrcodegen.c **** }
 506:lvgl/src/extra/libs/qrcode/qrcodegen.c **** 
 507:lvgl/src/extra/libs/qrcode/qrcodegen.c **** 
 508:lvgl/src/extra/libs/qrcode/qrcodegen.c **** // Draws two copies of the format bits (with its own error correction code) based
 509:lvgl/src/extra/libs/qrcode/qrcodegen.c **** // on the given mask and error correction level. This always draws all modules of
 510:lvgl/src/extra/libs/qrcode/qrcodegen.c **** // the format bits, unlike drawWhiteFunctionModules() which might skip black modules.
 511:lvgl/src/extra/libs/qrcode/qrcodegen.c **** static void drawFormatBits(enum qrcodegen_Ecc ecl, enum qrcodegen_Mask mask, uint8_t qrcode[]) {
 512:lvgl/src/extra/libs/qrcode/qrcodegen.c **** 	// Calculate error correction code and pack bits
 513:lvgl/src/extra/libs/qrcode/qrcodegen.c **** 	assert(0 <= (int)mask && (int)mask <= 7);
 514:lvgl/src/extra/libs/qrcode/qrcodegen.c **** 	static const int table[] = {1, 0, 3, 2};
 515:lvgl/src/extra/libs/qrcode/qrcodegen.c **** 	int data = table[(int)ecl] << 3 | (int)mask;  // errCorrLvl is uint2, mask is uint3
 516:lvgl/src/extra/libs/qrcode/qrcodegen.c **** 	int rem = data;
 517:lvgl/src/extra/libs/qrcode/qrcodegen.c **** 	for (int i = 0; i < 10; i++)
 518:lvgl/src/extra/libs/qrcode/qrcodegen.c **** 		rem = (rem << 1) ^ ((rem >> 9) * 0x537);
 519:lvgl/src/extra/libs/qrcode/qrcodegen.c **** 	int bits = (data << 10 | rem) ^ 0x5412;  // uint15
 520:lvgl/src/extra/libs/qrcode/qrcodegen.c **** 	assert(bits >> 15 == 0);
 521:lvgl/src/extra/libs/qrcode/qrcodegen.c **** 	
 522:lvgl/src/extra/libs/qrcode/qrcodegen.c **** 	// Draw first copy
 523:lvgl/src/extra/libs/qrcode/qrcodegen.c **** 	for (int i = 0; i <= 5; i++)
 524:lvgl/src/extra/libs/qrcode/qrcodegen.c **** 		setModule(qrcode, 8, i, getBit(bits, i));
 525:lvgl/src/extra/libs/qrcode/qrcodegen.c **** 	setModule(qrcode, 8, 7, getBit(bits, 6));
 526:lvgl/src/extra/libs/qrcode/qrcodegen.c **** 	setModule(qrcode, 8, 8, getBit(bits, 7));
 527:lvgl/src/extra/libs/qrcode/qrcodegen.c **** 	setModule(qrcode, 7, 8, getBit(bits, 8));
 528:lvgl/src/extra/libs/qrcode/qrcodegen.c **** 	for (int i = 9; i < 15; i++)
 529:lvgl/src/extra/libs/qrcode/qrcodegen.c **** 		setModule(qrcode, 14 - i, 8, getBit(bits, i));
 530:lvgl/src/extra/libs/qrcode/qrcodegen.c **** 	
 531:lvgl/src/extra/libs/qrcode/qrcodegen.c **** 	// Draw second copy
 532:lvgl/src/extra/libs/qrcode/qrcodegen.c **** 	int qrsize = qrcodegen_getSize(qrcode);
 533:lvgl/src/extra/libs/qrcode/qrcodegen.c **** 	for (int i = 0; i < 8; i++)
 534:lvgl/src/extra/libs/qrcode/qrcodegen.c **** 		setModule(qrcode, qrsize - 1 - i, 8, getBit(bits, i));
ARM GAS  C:\usertemp\ccXENK9d.s 			page 12


 535:lvgl/src/extra/libs/qrcode/qrcodegen.c **** 	for (int i = 8; i < 15; i++)
 536:lvgl/src/extra/libs/qrcode/qrcodegen.c **** 		setModule(qrcode, 8, qrsize - 15 + i, getBit(bits, i));
 537:lvgl/src/extra/libs/qrcode/qrcodegen.c **** 	setModule(qrcode, 8, qrsize - 8, true);  // Always black
 538:lvgl/src/extra/libs/qrcode/qrcodegen.c **** }
 539:lvgl/src/extra/libs/qrcode/qrcodegen.c **** 
 540:lvgl/src/extra/libs/qrcode/qrcodegen.c **** 
 541:lvgl/src/extra/libs/qrcode/qrcodegen.c **** // Calculates and stores an ascending list of positions of alignment patterns
 542:lvgl/src/extra/libs/qrcode/qrcodegen.c **** // for this version number, returning the length of the list (in the range [0,7]).
 543:lvgl/src/extra/libs/qrcode/qrcodegen.c **** // Each position is in the range [0,177), and are used on both the x and y axes.
 544:lvgl/src/extra/libs/qrcode/qrcodegen.c **** // This could be implemented as lookup table of 40 variable-length lists of unsigned bytes.
 545:lvgl/src/extra/libs/qrcode/qrcodegen.c **** testable int getAlignmentPatternPositions(int version, uint8_t result[7]) {
  94              		.loc 1 545 75 is_stmt 1 view -0
  95              		.cfi_startproc
  96              		@ args = 0, pretend = 0, frame = 0
  97              		@ frame_needed = 0, uses_anonymous_args = 0
 546:lvgl/src/extra/libs/qrcode/qrcodegen.c **** 	if (version == 1)
  98              		.loc 1 546 2 view .LVU18
  99              		.loc 1 546 5 is_stmt 0 view .LVU19
 100 0000 0128     		cmp	r0, #1
 101 0002 2DD0     		beq	.L10
 102 0004 0246     		mov	r2, r0
 547:lvgl/src/extra/libs/qrcode/qrcodegen.c **** 		return 0;
 548:lvgl/src/extra/libs/qrcode/qrcodegen.c **** 	int numAlign = version / 7 + 2;
 103              		.loc 1 548 2 is_stmt 1 view .LVU20
 104              		.loc 1 548 25 is_stmt 0 view .LVU21
 105 0006 1C48     		ldr	r0, .L20
 106              	.LVL8:
 107              		.loc 1 548 25 view .LVU22
 108 0008 80FB0230 		smull	r3, r0, r0, r2
 109 000c 1044     		add	r0, r0, r2
 110 000e D317     		asrs	r3, r2, #31
 111 0010 C3EBA003 		rsb	r3, r3, r0, asr #2
 112              		.loc 1 548 6 view .LVU23
 113 0014 981C     		adds	r0, r3, #2
 114              	.LVL9:
 549:lvgl/src/extra/libs/qrcode/qrcodegen.c **** 	int step = (version == 32) ? 26 :
 115              		.loc 1 549 2 is_stmt 1 view .LVU24
 116              		.loc 1 549 34 is_stmt 0 view .LVU25
 117 0016 202A     		cmp	r2, #32
 118 0018 12D0     		beq	.L11
 545:lvgl/src/extra/libs/qrcode/qrcodegen.c **** 	if (version == 1)
 119              		.loc 1 545 75 view .LVU26
 120 001a 00B5     		push	{lr}
 121              	.LCFI1:
 122              		.cfi_def_cfa_offset 4
 123              		.cfi_offset 14, -4
 550:lvgl/src/extra/libs/qrcode/qrcodegen.c **** 		(version*4 + numAlign*2 + 1) / (numAlign*2 - 2) * 2;
 124              		.loc 1 550 14 view .LVU27
 125 001c 00EB420C 		add	ip, r0, r2, lsl #1
 126 0020 4FEA4C0C 		lsl	ip, ip, #1
 127              		.loc 1 550 27 view .LVU28
 128 0024 0CF1010C 		add	ip, ip, #1
 129              		.loc 1 550 46 view .LVU29
 130 0028 03F1010E 		add	lr, r3, #1
 131 002c 4FEA4E0E 		lsl	lr, lr, #1
 132              		.loc 1 550 32 view .LVU30
 133 0030 9CFBFEFC 		sdiv	ip, ip, lr
ARM GAS  C:\usertemp\ccXENK9d.s 			page 13


 549:lvgl/src/extra/libs/qrcode/qrcodegen.c **** 	int step = (version == 32) ? 26 :
 134              		.loc 1 549 34 discriminator 1 view .LVU31
 135 0034 4FEA4C0C 		lsl	ip, ip, #1
 136              	.LVL10:
 551:lvgl/src/extra/libs/qrcode/qrcodegen.c **** 	for (int i = numAlign - 1, pos = version * 4 + 10; i >= 1; i--, pos -= step)
 137              		.loc 1 551 2 is_stmt 1 view .LVU32
 138              	.LBB4:
 139              		.loc 1 551 7 view .LVU33
 140              		.loc 1 551 11 is_stmt 0 view .LVU34
 141 0038 0133     		adds	r3, r3, #1
 142              	.LVL11:
 143              		.loc 1 551 43 view .LVU35
 144 003a 9200     		lsls	r2, r2, #2
 145              	.LVL12:
 146              		.loc 1 551 29 view .LVU36
 147 003c 0A32     		adds	r2, r2, #10
 148              	.LVL13:
 149              		.loc 1 551 2 view .LVU37
 150 003e 09E0     		b	.L8
 151              	.LVL14:
 152              	.L11:
 153              	.LCFI2:
 154              		.cfi_def_cfa_offset 0
 155              		.cfi_restore 14
 156              		.loc 1 551 2 view .LVU38
 157              	.LBE4:
 549:lvgl/src/extra/libs/qrcode/qrcodegen.c **** 		(version*4 + numAlign*2 + 1) / (numAlign*2 - 2) * 2;
 158              		.loc 1 549 34 discriminator 2 view .LVU39
 159 0040 4FF01A0C 		mov	ip, #26
 160              	.LVL15:
 161              		.loc 1 551 2 is_stmt 1 view .LVU40
 162              	.LBB5:
 163              		.loc 1 551 7 view .LVU41
 164              		.loc 1 551 11 is_stmt 0 view .LVU42
 165 0044 0133     		adds	r3, r3, #1
 166              	.LVL16:
 167              		.loc 1 551 43 view .LVU43
 168 0046 9200     		lsls	r2, r2, #2
 169              	.LVL17:
 170              		.loc 1 551 29 view .LVU44
 171 0048 0A32     		adds	r2, r2, #10
 172              	.LVL18:
 173              		.loc 1 551 29 view .LVU45
 174 004a 0FE0     		b	.L14
 175              	.L9:
 176              	.LCFI3:
 177              		.cfi_def_cfa_offset 4
 178              		.cfi_offset 14, -4
 552:lvgl/src/extra/libs/qrcode/qrcodegen.c **** 		result[i] = pos;
 179              		.loc 1 552 3 is_stmt 1 view .LVU46
 180              		.loc 1 552 13 is_stmt 0 view .LVU47
 181 004c CA54     		strb	r2, [r1, r3]
 551:lvgl/src/extra/libs/qrcode/qrcodegen.c **** 	for (int i = numAlign - 1, pos = version * 4 + 10; i >= 1; i--, pos -= step)
 182              		.loc 1 551 64 is_stmt 1 discriminator 3 view .LVU48
 551:lvgl/src/extra/libs/qrcode/qrcodegen.c **** 	for (int i = numAlign - 1, pos = version * 4 + 10; i >= 1; i--, pos -= step)
 183              		.loc 1 551 62 is_stmt 0 discriminator 3 view .LVU49
 184 004e 013B     		subs	r3, r3, #1
ARM GAS  C:\usertemp\ccXENK9d.s 			page 14


 185              	.LVL19:
 551:lvgl/src/extra/libs/qrcode/qrcodegen.c **** 	for (int i = numAlign - 1, pos = version * 4 + 10; i >= 1; i--, pos -= step)
 186              		.loc 1 551 70 discriminator 3 view .LVU50
 187 0050 A2EB0C02 		sub	r2, r2, ip
 188              	.LVL20:
 189              	.L8:
 551:lvgl/src/extra/libs/qrcode/qrcodegen.c **** 	for (int i = numAlign - 1, pos = version * 4 + 10; i >= 1; i--, pos -= step)
 190              		.loc 1 551 55 is_stmt 1 discriminator 1 view .LVU51
 191 0054 002B     		cmp	r3, #0
 192 0056 F9DC     		bgt	.L9
 551:lvgl/src/extra/libs/qrcode/qrcodegen.c **** 	for (int i = numAlign - 1, pos = version * 4 + 10; i >= 1; i--, pos -= step)
 193              		.loc 1 551 55 is_stmt 0 discriminator 1 view .LVU52
 194              	.LBE5:
 553:lvgl/src/extra/libs/qrcode/qrcodegen.c **** 	result[0] = 6;
 195              		.loc 1 553 2 is_stmt 1 view .LVU53
 196              		.loc 1 553 12 is_stmt 0 view .LVU54
 197 0058 0623     		movs	r3, #6
 198              	.LVL21:
 199              		.loc 1 553 12 view .LVU55
 200 005a 0B70     		strb	r3, [r1]
 554:lvgl/src/extra/libs/qrcode/qrcodegen.c **** 	return numAlign;
 201              		.loc 1 554 2 is_stmt 1 view .LVU56
 555:lvgl/src/extra/libs/qrcode/qrcodegen.c **** }
 202              		.loc 1 555 1 is_stmt 0 view .LVU57
 203 005c 5DF804FB 		ldr	pc, [sp], #4
 204              	.LVL22:
 205              	.L10:
 206              	.LCFI4:
 207              		.cfi_def_cfa_offset 0
 208              		.cfi_restore 14
 547:lvgl/src/extra/libs/qrcode/qrcodegen.c **** 	int numAlign = version / 7 + 2;
 209              		.loc 1 547 10 view .LVU58
 210 0060 0020     		movs	r0, #0
 211              	.LVL23:
 547:lvgl/src/extra/libs/qrcode/qrcodegen.c **** 	int numAlign = version / 7 + 2;
 212              		.loc 1 547 10 view .LVU59
 213 0062 7047     		bx	lr
 214              	.LVL24:
 215              	.L15:
 216              	.LBB6:
 552:lvgl/src/extra/libs/qrcode/qrcodegen.c **** 	result[0] = 6;
 217              		.loc 1 552 3 is_stmt 1 view .LVU60
 552:lvgl/src/extra/libs/qrcode/qrcodegen.c **** 	result[0] = 6;
 218              		.loc 1 552 13 is_stmt 0 view .LVU61
 219 0064 CA54     		strb	r2, [r1, r3]
 551:lvgl/src/extra/libs/qrcode/qrcodegen.c **** 		result[i] = pos;
 220              		.loc 1 551 64 is_stmt 1 discriminator 3 view .LVU62
 551:lvgl/src/extra/libs/qrcode/qrcodegen.c **** 		result[i] = pos;
 221              		.loc 1 551 62 is_stmt 0 discriminator 3 view .LVU63
 222 0066 013B     		subs	r3, r3, #1
 223              	.LVL25:
 551:lvgl/src/extra/libs/qrcode/qrcodegen.c **** 		result[i] = pos;
 224              		.loc 1 551 70 discriminator 3 view .LVU64
 225 0068 A2EB0C02 		sub	r2, r2, ip
 226              	.LVL26:
 227              	.L14:
 551:lvgl/src/extra/libs/qrcode/qrcodegen.c **** 		result[i] = pos;
ARM GAS  C:\usertemp\ccXENK9d.s 			page 15


 228              		.loc 1 551 55 is_stmt 1 discriminator 1 view .LVU65
 229 006c 002B     		cmp	r3, #0
 230 006e F9DC     		bgt	.L15
 551:lvgl/src/extra/libs/qrcode/qrcodegen.c **** 		result[i] = pos;
 231              		.loc 1 551 55 is_stmt 0 discriminator 1 view .LVU66
 232              	.LBE6:
 553:lvgl/src/extra/libs/qrcode/qrcodegen.c **** 	return numAlign;
 233              		.loc 1 553 2 is_stmt 1 view .LVU67
 553:lvgl/src/extra/libs/qrcode/qrcodegen.c **** 	return numAlign;
 234              		.loc 1 553 12 is_stmt 0 view .LVU68
 235 0070 0623     		movs	r3, #6
 236              	.LVL27:
 553:lvgl/src/extra/libs/qrcode/qrcodegen.c **** 	return numAlign;
 237              		.loc 1 553 12 view .LVU69
 238 0072 0B70     		strb	r3, [r1]
 554:lvgl/src/extra/libs/qrcode/qrcodegen.c **** }
 239              		.loc 1 554 2 is_stmt 1 view .LVU70
 240              		.loc 1 555 1 is_stmt 0 view .LVU71
 241 0074 7047     		bx	lr
 242              	.L21:
 243 0076 00BF     		.align	2
 244              	.L20:
 245 0078 93244992 		.word	-1840700269
 246              		.cfi_endproc
 247              	.LFE14:
 249              		.section	.text.hasFinderLikePattern,"ax",%progbits
 250              		.align	1
 251              		.syntax unified
 252              		.thumb
 253              		.thumb_func
 255              	hasFinderLikePattern:
 256              	.LVL28:
 257              	.LFB20:
 556:lvgl/src/extra/libs/qrcode/qrcodegen.c **** 
 557:lvgl/src/extra/libs/qrcode/qrcodegen.c **** 
 558:lvgl/src/extra/libs/qrcode/qrcodegen.c **** // Sets every pixel in the range [left : left + width] * [top : top + height] to black.
 559:lvgl/src/extra/libs/qrcode/qrcodegen.c **** static void fillRectangle(int left, int top, int width, int height, uint8_t qrcode[]) {
 560:lvgl/src/extra/libs/qrcode/qrcodegen.c **** 	for (int dy = 0; dy < height; dy++) {
 561:lvgl/src/extra/libs/qrcode/qrcodegen.c **** 		for (int dx = 0; dx < width; dx++)
 562:lvgl/src/extra/libs/qrcode/qrcodegen.c **** 			setModule(qrcode, left + dx, top + dy, true);
 563:lvgl/src/extra/libs/qrcode/qrcodegen.c **** 	}
 564:lvgl/src/extra/libs/qrcode/qrcodegen.c **** }
 565:lvgl/src/extra/libs/qrcode/qrcodegen.c **** 
 566:lvgl/src/extra/libs/qrcode/qrcodegen.c **** 
 567:lvgl/src/extra/libs/qrcode/qrcodegen.c **** 
 568:lvgl/src/extra/libs/qrcode/qrcodegen.c **** /*---- Drawing data modules and masking ----*/
 569:lvgl/src/extra/libs/qrcode/qrcodegen.c **** 
 570:lvgl/src/extra/libs/qrcode/qrcodegen.c **** // Draws the raw codewords (including data and ECC) onto the given QR Code. This requires the initi
 571:lvgl/src/extra/libs/qrcode/qrcodegen.c **** // the QR Code to be black at function modules and white at codeword modules (including unused rema
 572:lvgl/src/extra/libs/qrcode/qrcodegen.c **** static void drawCodewords(const uint8_t data[], int dataLen, uint8_t qrcode[]) {
 573:lvgl/src/extra/libs/qrcode/qrcodegen.c **** 	int qrsize = qrcodegen_getSize(qrcode);
 574:lvgl/src/extra/libs/qrcode/qrcodegen.c **** 	int i = 0;  // Bit index into the data
 575:lvgl/src/extra/libs/qrcode/qrcodegen.c **** 	// Do the funny zigzag scan
 576:lvgl/src/extra/libs/qrcode/qrcodegen.c **** 	for (int right = qrsize - 1; right >= 1; right -= 2) {  // Index of right column in each column pa
 577:lvgl/src/extra/libs/qrcode/qrcodegen.c **** 		if (right == 6)
 578:lvgl/src/extra/libs/qrcode/qrcodegen.c **** 			right = 5;
 579:lvgl/src/extra/libs/qrcode/qrcodegen.c **** 		for (int vert = 0; vert < qrsize; vert++) {  // Vertical counter
ARM GAS  C:\usertemp\ccXENK9d.s 			page 16


 580:lvgl/src/extra/libs/qrcode/qrcodegen.c **** 			for (int j = 0; j < 2; j++) {
 581:lvgl/src/extra/libs/qrcode/qrcodegen.c **** 				int x = right - j;  // Actual x coordinate
 582:lvgl/src/extra/libs/qrcode/qrcodegen.c **** 				bool upward = ((right + 1) & 2) == 0;
 583:lvgl/src/extra/libs/qrcode/qrcodegen.c **** 				int y = upward ? qrsize - 1 - vert : vert;  // Actual y coordinate
 584:lvgl/src/extra/libs/qrcode/qrcodegen.c **** 				if (!getModule(qrcode, x, y) && i < dataLen * 8) {
 585:lvgl/src/extra/libs/qrcode/qrcodegen.c **** 					bool black = getBit(data[i >> 3], 7 - (i & 7));
 586:lvgl/src/extra/libs/qrcode/qrcodegen.c **** 					setModule(qrcode, x, y, black);
 587:lvgl/src/extra/libs/qrcode/qrcodegen.c **** 					i++;
 588:lvgl/src/extra/libs/qrcode/qrcodegen.c **** 				}
 589:lvgl/src/extra/libs/qrcode/qrcodegen.c **** 				// If this QR Code has any remainder bits (0 to 7), they were assigned as
 590:lvgl/src/extra/libs/qrcode/qrcodegen.c **** 				// 0/false/white by the constructor and are left unchanged by this method
 591:lvgl/src/extra/libs/qrcode/qrcodegen.c **** 			}
 592:lvgl/src/extra/libs/qrcode/qrcodegen.c **** 		}
 593:lvgl/src/extra/libs/qrcode/qrcodegen.c **** 	}
 594:lvgl/src/extra/libs/qrcode/qrcodegen.c **** 	assert(i == dataLen * 8);
 595:lvgl/src/extra/libs/qrcode/qrcodegen.c **** }
 596:lvgl/src/extra/libs/qrcode/qrcodegen.c **** 
 597:lvgl/src/extra/libs/qrcode/qrcodegen.c **** 
 598:lvgl/src/extra/libs/qrcode/qrcodegen.c **** // XORs the codeword modules in this QR Code with the given mask pattern.
 599:lvgl/src/extra/libs/qrcode/qrcodegen.c **** // The function modules must be marked and the codeword bits must be drawn
 600:lvgl/src/extra/libs/qrcode/qrcodegen.c **** // before masking. Due to the arithmetic of XOR, calling applyMask() with
 601:lvgl/src/extra/libs/qrcode/qrcodegen.c **** // the same mask value a second time will undo the mask. A final well-formed
 602:lvgl/src/extra/libs/qrcode/qrcodegen.c **** // QR Code needs exactly one (not zero, two, etc.) mask applied.
 603:lvgl/src/extra/libs/qrcode/qrcodegen.c **** static void applyMask(const uint8_t functionModules[], uint8_t qrcode[], enum qrcodegen_Mask mask) 
 604:lvgl/src/extra/libs/qrcode/qrcodegen.c **** 	assert(0 <= (int)mask && (int)mask <= 7);  // Disallows qrcodegen_Mask_AUTO
 605:lvgl/src/extra/libs/qrcode/qrcodegen.c **** 	int qrsize = qrcodegen_getSize(qrcode);
 606:lvgl/src/extra/libs/qrcode/qrcodegen.c **** 	for (int y = 0; y < qrsize; y++) {
 607:lvgl/src/extra/libs/qrcode/qrcodegen.c **** 		for (int x = 0; x < qrsize; x++) {
 608:lvgl/src/extra/libs/qrcode/qrcodegen.c **** 			if (getModule(functionModules, x, y))
 609:lvgl/src/extra/libs/qrcode/qrcodegen.c **** 				continue;
 610:lvgl/src/extra/libs/qrcode/qrcodegen.c **** 			bool invert;
 611:lvgl/src/extra/libs/qrcode/qrcodegen.c **** 			switch ((int)mask) {
 612:lvgl/src/extra/libs/qrcode/qrcodegen.c **** 				case 0:  invert = (x + y) % 2 == 0;                    break;
 613:lvgl/src/extra/libs/qrcode/qrcodegen.c **** 				case 1:  invert = y % 2 == 0;                          break;
 614:lvgl/src/extra/libs/qrcode/qrcodegen.c **** 				case 2:  invert = x % 3 == 0;                          break;
 615:lvgl/src/extra/libs/qrcode/qrcodegen.c **** 				case 3:  invert = (x + y) % 3 == 0;                    break;
 616:lvgl/src/extra/libs/qrcode/qrcodegen.c **** 				case 4:  invert = (x / 3 + y / 2) % 2 == 0;            break;
 617:lvgl/src/extra/libs/qrcode/qrcodegen.c **** 				case 5:  invert = x * y % 2 + x * y % 3 == 0;          break;
 618:lvgl/src/extra/libs/qrcode/qrcodegen.c **** 				case 6:  invert = (x * y % 2 + x * y % 3) % 2 == 0;    break;
 619:lvgl/src/extra/libs/qrcode/qrcodegen.c **** 				case 7:  invert = ((x + y) % 2 + x * y % 3) % 2 == 0;  break;
 620:lvgl/src/extra/libs/qrcode/qrcodegen.c **** 				default:  assert(false);  return;
 621:lvgl/src/extra/libs/qrcode/qrcodegen.c **** 			}
 622:lvgl/src/extra/libs/qrcode/qrcodegen.c **** 			bool val = getModule(qrcode, x, y);
 623:lvgl/src/extra/libs/qrcode/qrcodegen.c **** 			setModule(qrcode, x, y, val ^ invert);
 624:lvgl/src/extra/libs/qrcode/qrcodegen.c **** 		}
 625:lvgl/src/extra/libs/qrcode/qrcodegen.c **** 	}
 626:lvgl/src/extra/libs/qrcode/qrcodegen.c **** }
 627:lvgl/src/extra/libs/qrcode/qrcodegen.c **** 
 628:lvgl/src/extra/libs/qrcode/qrcodegen.c **** 
 629:lvgl/src/extra/libs/qrcode/qrcodegen.c **** // Calculates and returns the penalty score based on state of the given QR Code's current modules.
 630:lvgl/src/extra/libs/qrcode/qrcodegen.c **** // This is used by the automatic mask choice algorithm to find the mask pattern that yields the low
 631:lvgl/src/extra/libs/qrcode/qrcodegen.c **** static long getPenaltyScore(const uint8_t qrcode[]) {
 632:lvgl/src/extra/libs/qrcode/qrcodegen.c **** 	int qrsize = qrcodegen_getSize(qrcode);
 633:lvgl/src/extra/libs/qrcode/qrcodegen.c **** 	long result = 0;
 634:lvgl/src/extra/libs/qrcode/qrcodegen.c **** 	
 635:lvgl/src/extra/libs/qrcode/qrcodegen.c **** 	// Adjacent modules in row having same color, and finder-like patterns
 636:lvgl/src/extra/libs/qrcode/qrcodegen.c **** 	for (int y = 0; y < qrsize; y++) {
ARM GAS  C:\usertemp\ccXENK9d.s 			page 17


 637:lvgl/src/extra/libs/qrcode/qrcodegen.c **** 		unsigned char runHistory[7] = {0};
 638:lvgl/src/extra/libs/qrcode/qrcodegen.c **** 		bool color = false;
 639:lvgl/src/extra/libs/qrcode/qrcodegen.c **** 		unsigned char runX = 0;
 640:lvgl/src/extra/libs/qrcode/qrcodegen.c **** 		for (int x = 0; x < qrsize; x++) {
 641:lvgl/src/extra/libs/qrcode/qrcodegen.c **** 			if (getModule(qrcode, x, y) == color) {
 642:lvgl/src/extra/libs/qrcode/qrcodegen.c **** 				runX++;
 643:lvgl/src/extra/libs/qrcode/qrcodegen.c **** 				if (runX == 5)
 644:lvgl/src/extra/libs/qrcode/qrcodegen.c **** 					result += PENALTY_N1;
 645:lvgl/src/extra/libs/qrcode/qrcodegen.c **** 				else if (runX > 5)
 646:lvgl/src/extra/libs/qrcode/qrcodegen.c **** 					result++;
 647:lvgl/src/extra/libs/qrcode/qrcodegen.c **** 			} else {
 648:lvgl/src/extra/libs/qrcode/qrcodegen.c **** 				addRunToHistory(runX, runHistory);
 649:lvgl/src/extra/libs/qrcode/qrcodegen.c **** 				if (!color && hasFinderLikePattern(runHistory))
 650:lvgl/src/extra/libs/qrcode/qrcodegen.c **** 					result += PENALTY_N3;
 651:lvgl/src/extra/libs/qrcode/qrcodegen.c **** 				color = getModule(qrcode, x, y);
 652:lvgl/src/extra/libs/qrcode/qrcodegen.c **** 				runX = 1;
 653:lvgl/src/extra/libs/qrcode/qrcodegen.c **** 			}
 654:lvgl/src/extra/libs/qrcode/qrcodegen.c **** 		}
 655:lvgl/src/extra/libs/qrcode/qrcodegen.c **** 		addRunToHistory(runX, runHistory);
 656:lvgl/src/extra/libs/qrcode/qrcodegen.c **** 		if (color)
 657:lvgl/src/extra/libs/qrcode/qrcodegen.c **** 			addRunToHistory(0, runHistory);  // Dummy run of white
 658:lvgl/src/extra/libs/qrcode/qrcodegen.c **** 		if (hasFinderLikePattern(runHistory))
 659:lvgl/src/extra/libs/qrcode/qrcodegen.c **** 			result += PENALTY_N3;
 660:lvgl/src/extra/libs/qrcode/qrcodegen.c **** 	}
 661:lvgl/src/extra/libs/qrcode/qrcodegen.c **** 	// Adjacent modules in column having same color, and finder-like patterns
 662:lvgl/src/extra/libs/qrcode/qrcodegen.c **** 	for (int x = 0; x < qrsize; x++) {
 663:lvgl/src/extra/libs/qrcode/qrcodegen.c **** 		unsigned char runHistory[7] = {0};
 664:lvgl/src/extra/libs/qrcode/qrcodegen.c **** 		bool color = false;
 665:lvgl/src/extra/libs/qrcode/qrcodegen.c **** 		unsigned char runY = 0;
 666:lvgl/src/extra/libs/qrcode/qrcodegen.c **** 		for (int y = 0; y < qrsize; y++) {
 667:lvgl/src/extra/libs/qrcode/qrcodegen.c **** 			if (getModule(qrcode, x, y) == color) {
 668:lvgl/src/extra/libs/qrcode/qrcodegen.c **** 				runY++;
 669:lvgl/src/extra/libs/qrcode/qrcodegen.c **** 				if (runY == 5)
 670:lvgl/src/extra/libs/qrcode/qrcodegen.c **** 					result += PENALTY_N1;
 671:lvgl/src/extra/libs/qrcode/qrcodegen.c **** 				else if (runY > 5)
 672:lvgl/src/extra/libs/qrcode/qrcodegen.c **** 					result++;
 673:lvgl/src/extra/libs/qrcode/qrcodegen.c **** 			} else {
 674:lvgl/src/extra/libs/qrcode/qrcodegen.c **** 				addRunToHistory(runY, runHistory);
 675:lvgl/src/extra/libs/qrcode/qrcodegen.c **** 				if (!color && hasFinderLikePattern(runHistory))
 676:lvgl/src/extra/libs/qrcode/qrcodegen.c **** 					result += PENALTY_N3;
 677:lvgl/src/extra/libs/qrcode/qrcodegen.c **** 				color = getModule(qrcode, x, y);
 678:lvgl/src/extra/libs/qrcode/qrcodegen.c **** 				runY = 1;
 679:lvgl/src/extra/libs/qrcode/qrcodegen.c **** 			}
 680:lvgl/src/extra/libs/qrcode/qrcodegen.c **** 		}
 681:lvgl/src/extra/libs/qrcode/qrcodegen.c **** 		addRunToHistory(runY, runHistory);
 682:lvgl/src/extra/libs/qrcode/qrcodegen.c **** 		if (color)
 683:lvgl/src/extra/libs/qrcode/qrcodegen.c **** 			addRunToHistory(0, runHistory);  // Dummy run of white
 684:lvgl/src/extra/libs/qrcode/qrcodegen.c **** 		if (hasFinderLikePattern(runHistory))
 685:lvgl/src/extra/libs/qrcode/qrcodegen.c **** 			result += PENALTY_N3;
 686:lvgl/src/extra/libs/qrcode/qrcodegen.c **** 	}
 687:lvgl/src/extra/libs/qrcode/qrcodegen.c **** 	
 688:lvgl/src/extra/libs/qrcode/qrcodegen.c **** 	// 2*2 blocks of modules having same color
 689:lvgl/src/extra/libs/qrcode/qrcodegen.c **** 	for (int y = 0; y < qrsize - 1; y++) {
 690:lvgl/src/extra/libs/qrcode/qrcodegen.c **** 		for (int x = 0; x < qrsize - 1; x++) {
 691:lvgl/src/extra/libs/qrcode/qrcodegen.c **** 			bool  color = getModule(qrcode, x, y);
 692:lvgl/src/extra/libs/qrcode/qrcodegen.c **** 			if (  color == getModule(qrcode, x + 1, y) &&
 693:lvgl/src/extra/libs/qrcode/qrcodegen.c **** 			      color == getModule(qrcode, x, y + 1) &&
ARM GAS  C:\usertemp\ccXENK9d.s 			page 18


 694:lvgl/src/extra/libs/qrcode/qrcodegen.c **** 			      color == getModule(qrcode, x + 1, y + 1))
 695:lvgl/src/extra/libs/qrcode/qrcodegen.c **** 				result += PENALTY_N2;
 696:lvgl/src/extra/libs/qrcode/qrcodegen.c **** 		}
 697:lvgl/src/extra/libs/qrcode/qrcodegen.c **** 	}
 698:lvgl/src/extra/libs/qrcode/qrcodegen.c **** 	
 699:lvgl/src/extra/libs/qrcode/qrcodegen.c **** 	// Balance of black and white modules
 700:lvgl/src/extra/libs/qrcode/qrcodegen.c **** 	int black = 0;
 701:lvgl/src/extra/libs/qrcode/qrcodegen.c **** 	for (int y = 0; y < qrsize; y++) {
 702:lvgl/src/extra/libs/qrcode/qrcodegen.c **** 		for (int x = 0; x < qrsize; x++) {
 703:lvgl/src/extra/libs/qrcode/qrcodegen.c **** 			if (getModule(qrcode, x, y))
 704:lvgl/src/extra/libs/qrcode/qrcodegen.c **** 				black++;
 705:lvgl/src/extra/libs/qrcode/qrcodegen.c **** 		}
 706:lvgl/src/extra/libs/qrcode/qrcodegen.c **** 	}
 707:lvgl/src/extra/libs/qrcode/qrcodegen.c **** 	int total = qrsize * qrsize;  // Note that size is odd, so black/total != 1/2
 708:lvgl/src/extra/libs/qrcode/qrcodegen.c **** 	// Compute the smallest integer k >= 0 such that (45-5k)% <= black/total <= (55+5k)%
 709:lvgl/src/extra/libs/qrcode/qrcodegen.c **** 	int k = (int)((labs(black * 20L - total * 10L) + total - 1) / total) - 1;
 710:lvgl/src/extra/libs/qrcode/qrcodegen.c **** 	result += k * PENALTY_N4;
 711:lvgl/src/extra/libs/qrcode/qrcodegen.c **** 	return result;
 712:lvgl/src/extra/libs/qrcode/qrcodegen.c **** }
 713:lvgl/src/extra/libs/qrcode/qrcodegen.c **** 
 714:lvgl/src/extra/libs/qrcode/qrcodegen.c **** 
 715:lvgl/src/extra/libs/qrcode/qrcodegen.c **** // Inserts the given value to the front of the given array, which shifts over the
 716:lvgl/src/extra/libs/qrcode/qrcodegen.c **** // existing values and deletes the last value. A helper function for getPenaltyScore().
 717:lvgl/src/extra/libs/qrcode/qrcodegen.c **** static void addRunToHistory(unsigned char run, unsigned char history[7]) {
 718:lvgl/src/extra/libs/qrcode/qrcodegen.c **** 	memmove(&history[1], &history[0], 6 * sizeof(history[0]));
 719:lvgl/src/extra/libs/qrcode/qrcodegen.c **** 	history[0] = run;
 720:lvgl/src/extra/libs/qrcode/qrcodegen.c **** }
 721:lvgl/src/extra/libs/qrcode/qrcodegen.c **** 
 722:lvgl/src/extra/libs/qrcode/qrcodegen.c **** 
 723:lvgl/src/extra/libs/qrcode/qrcodegen.c **** // Tests whether the given run history has the pattern of ratio 1:1:3:1:1 in the middle, and
 724:lvgl/src/extra/libs/qrcode/qrcodegen.c **** // surrounded by at least 4 on either or both ends. A helper function for getPenaltyScore().
 725:lvgl/src/extra/libs/qrcode/qrcodegen.c **** // Must only be called immediately after a run of white modules has ended.
 726:lvgl/src/extra/libs/qrcode/qrcodegen.c **** static bool hasFinderLikePattern(const unsigned char runHistory[7]) {
 258              		.loc 1 726 69 is_stmt 1 view -0
 259              		.cfi_startproc
 260              		@ args = 0, pretend = 0, frame = 0
 261              		@ frame_needed = 0, uses_anonymous_args = 0
 262              		@ link register save eliminated.
 727:lvgl/src/extra/libs/qrcode/qrcodegen.c **** 	unsigned char n = runHistory[1];
 263              		.loc 1 727 2 view .LVU73
 264              		.loc 1 727 16 is_stmt 0 view .LVU74
 265 0000 4378     		ldrb	r3, [r0, #1]	@ zero_extendqisi2
 266              	.LVL29:
 728:lvgl/src/extra/libs/qrcode/qrcodegen.c **** 	// The maximum QR Code size is 177, hence the run length n <= 177.
 729:lvgl/src/extra/libs/qrcode/qrcodegen.c **** 	// Arithmetic is promoted to int, so n*4 will not overflow.
 730:lvgl/src/extra/libs/qrcode/qrcodegen.c **** 	return n > 0 && runHistory[2] == n && runHistory[4] == n && runHistory[5] == n
 267              		.loc 1 730 2 is_stmt 1 view .LVU75
 731:lvgl/src/extra/libs/qrcode/qrcodegen.c **** 		&& runHistory[3] == n * 3 && (runHistory[0] >= n * 4 || runHistory[6] >= n * 4);
 268              		.loc 1 731 29 is_stmt 0 view .LVU76
 269 0002 FBB1     		cbz	r3, .L24
 730:lvgl/src/extra/libs/qrcode/qrcodegen.c **** 		&& runHistory[3] == n * 3 && (runHistory[0] >= n * 4 || runHistory[6] >= n * 4);
 270              		.loc 1 730 28 view .LVU77
 271 0004 8278     		ldrb	r2, [r0, #2]	@ zero_extendqisi2
 730:lvgl/src/extra/libs/qrcode/qrcodegen.c **** 		&& runHistory[3] == n * 3 && (runHistory[0] >= n * 4 || runHistory[6] >= n * 4);
 272              		.loc 1 730 15 view .LVU78
 273 0006 9A42     		cmp	r2, r3
 274 0008 01D0     		beq	.L31
ARM GAS  C:\usertemp\ccXENK9d.s 			page 19


 275              		.loc 1 731 29 discriminator 7 view .LVU79
 276 000a 0020     		movs	r0, #0
 277              	.LVL30:
 278              		.loc 1 731 29 discriminator 7 view .LVU80
 279 000c 7047     		bx	lr
 280              	.LVL31:
 281              	.L31:
 730:lvgl/src/extra/libs/qrcode/qrcodegen.c **** 		&& runHistory[3] == n * 3 && (runHistory[0] >= n * 4 || runHistory[6] >= n * 4);
 282              		.loc 1 730 50 discriminator 1 view .LVU81
 283 000e 0279     		ldrb	r2, [r0, #4]	@ zero_extendqisi2
 730:lvgl/src/extra/libs/qrcode/qrcodegen.c **** 		&& runHistory[3] == n * 3 && (runHistory[0] >= n * 4 || runHistory[6] >= n * 4);
 284              		.loc 1 730 37 discriminator 1 view .LVU82
 285 0010 9A42     		cmp	r2, r3
 286 0012 01D0     		beq	.L32
 287              		.loc 1 731 29 discriminator 7 view .LVU83
 288 0014 0020     		movs	r0, #0
 289              	.LVL32:
 290              		.loc 1 731 29 discriminator 7 view .LVU84
 291 0016 7047     		bx	lr
 292              	.LVL33:
 293              	.L32:
 730:lvgl/src/extra/libs/qrcode/qrcodegen.c **** 		&& runHistory[3] == n * 3 && (runHistory[0] >= n * 4 || runHistory[6] >= n * 4);
 294              		.loc 1 730 72 discriminator 2 view .LVU85
 295 0018 4279     		ldrb	r2, [r0, #5]	@ zero_extendqisi2
 730:lvgl/src/extra/libs/qrcode/qrcodegen.c **** 		&& runHistory[3] == n * 3 && (runHistory[0] >= n * 4 || runHistory[6] >= n * 4);
 296              		.loc 1 730 59 discriminator 2 view .LVU86
 297 001a 9A42     		cmp	r2, r3
 298 001c 01D0     		beq	.L33
 299              		.loc 1 731 29 discriminator 7 view .LVU87
 300 001e 0020     		movs	r0, #0
 301              	.LVL34:
 302              		.loc 1 731 29 discriminator 7 view .LVU88
 303 0020 7047     		bx	lr
 304              	.LVL35:
 305              	.L33:
 306              		.loc 1 731 16 discriminator 3 view .LVU89
 307 0022 C178     		ldrb	r1, [r0, #3]	@ zero_extendqisi2
 308              		.loc 1 731 25 discriminator 3 view .LVU90
 309 0024 03EB4302 		add	r2, r3, r3, lsl #1
 310              		.loc 1 731 3 discriminator 3 view .LVU91
 311 0028 9142     		cmp	r1, r2
 312 002a 01D0     		beq	.L34
 313              		.loc 1 731 29 discriminator 7 view .LVU92
 314 002c 0020     		movs	r0, #0
 315              	.LVL36:
 316              		.loc 1 731 29 discriminator 7 view .LVU93
 317 002e 7047     		bx	lr
 318              	.LVL37:
 319              	.L34:
 320              		.loc 1 731 43 discriminator 2 view .LVU94
 321 0030 0278     		ldrb	r2, [r0]	@ zero_extendqisi2
 322              		.loc 1 731 52 discriminator 2 view .LVU95
 323 0032 9900     		lsls	r1, r3, #2
 324              		.loc 1 731 29 discriminator 2 view .LVU96
 325 0034 B2EB830F 		cmp	r2, r3, lsl #2
 326 0038 06DA     		bge	.L29
 327              		.loc 1 731 69 discriminator 5 view .LVU97
ARM GAS  C:\usertemp\ccXENK9d.s 			page 20


 328 003a 8379     		ldrb	r3, [r0, #6]	@ zero_extendqisi2
 329              	.LVL38:
 330              		.loc 1 731 56 discriminator 5 view .LVU98
 331 003c 9942     		cmp	r1, r3
 332 003e 05DD     		ble	.L30
 333              		.loc 1 731 29 discriminator 7 view .LVU99
 334 0040 0020     		movs	r0, #0
 335              	.LVL39:
 336              		.loc 1 731 29 discriminator 7 view .LVU100
 337 0042 7047     		bx	lr
 338              	.LVL40:
 339              	.L24:
 340              		.loc 1 731 29 discriminator 7 view .LVU101
 341 0044 0020     		movs	r0, #0
 342              	.LVL41:
 343              		.loc 1 731 29 discriminator 7 view .LVU102
 344 0046 7047     		bx	lr
 345              	.LVL42:
 346              	.L29:
 347              		.loc 1 731 29 discriminator 6 view .LVU103
 348 0048 0120     		movs	r0, #1
 349              	.LVL43:
 350              		.loc 1 731 29 discriminator 6 view .LVU104
 351 004a 7047     		bx	lr
 352              	.LVL44:
 353              	.L30:
 354              		.loc 1 731 29 discriminator 6 view .LVU105
 355 004c 0120     		movs	r0, #1
 356              	.LVL45:
 732:lvgl/src/extra/libs/qrcode/qrcodegen.c **** }
 357              		.loc 1 732 1 view .LVU106
 358 004e 7047     		bx	lr
 359              		.cfi_endproc
 360              	.LFE20:
 362              		.section	.text.getBit,"ax",%progbits
 363              		.align	1
 364              		.syntax unified
 365              		.thumb
 366              		.thumb_func
 368              	getBit:
 369              	.LVL46:
 370              	.LFB26:
 733:lvgl/src/extra/libs/qrcode/qrcodegen.c **** 
 734:lvgl/src/extra/libs/qrcode/qrcodegen.c **** 
 735:lvgl/src/extra/libs/qrcode/qrcodegen.c **** 
 736:lvgl/src/extra/libs/qrcode/qrcodegen.c **** /*---- Basic QR Code information ----*/
 737:lvgl/src/extra/libs/qrcode/qrcodegen.c **** 
 738:lvgl/src/extra/libs/qrcode/qrcodegen.c **** // Public function - see documentation comment in header file.
 739:lvgl/src/extra/libs/qrcode/qrcodegen.c **** int qrcodegen_getSize(const uint8_t qrcode[]) {
 740:lvgl/src/extra/libs/qrcode/qrcodegen.c **** 	assert(qrcode != NULL);
 741:lvgl/src/extra/libs/qrcode/qrcodegen.c **** 	int result = qrcode[0];
 742:lvgl/src/extra/libs/qrcode/qrcodegen.c **** 	assert((qrcodegen_VERSION_MIN * 4 + 17) <= result
 743:lvgl/src/extra/libs/qrcode/qrcodegen.c **** 		&& result <= (qrcodegen_VERSION_MAX * 4 + 17));
 744:lvgl/src/extra/libs/qrcode/qrcodegen.c **** 	return result;
 745:lvgl/src/extra/libs/qrcode/qrcodegen.c **** }
 746:lvgl/src/extra/libs/qrcode/qrcodegen.c **** 
 747:lvgl/src/extra/libs/qrcode/qrcodegen.c **** 
ARM GAS  C:\usertemp\ccXENK9d.s 			page 21


 748:lvgl/src/extra/libs/qrcode/qrcodegen.c **** // Public function - see documentation comment in header file.
 749:lvgl/src/extra/libs/qrcode/qrcodegen.c **** bool qrcodegen_getModule(const uint8_t qrcode[], int x, int y) {
 750:lvgl/src/extra/libs/qrcode/qrcodegen.c **** 	assert(qrcode != NULL);
 751:lvgl/src/extra/libs/qrcode/qrcodegen.c **** 	int qrsize = qrcode[0];
 752:lvgl/src/extra/libs/qrcode/qrcodegen.c **** 	return (0 <= x && x < qrsize && 0 <= y && y < qrsize) && getModule(qrcode, x, y);
 753:lvgl/src/extra/libs/qrcode/qrcodegen.c **** }
 754:lvgl/src/extra/libs/qrcode/qrcodegen.c **** 
 755:lvgl/src/extra/libs/qrcode/qrcodegen.c **** 
 756:lvgl/src/extra/libs/qrcode/qrcodegen.c **** // Gets the module at the given coordinates, which must be in bounds.
 757:lvgl/src/extra/libs/qrcode/qrcodegen.c **** testable bool getModule(const uint8_t qrcode[], int x, int y) {
 758:lvgl/src/extra/libs/qrcode/qrcodegen.c **** 	int qrsize = qrcode[0];
 759:lvgl/src/extra/libs/qrcode/qrcodegen.c **** 	assert(21 <= qrsize && qrsize <= 177 && 0 <= x && x < qrsize && 0 <= y && y < qrsize);
 760:lvgl/src/extra/libs/qrcode/qrcodegen.c **** 	int index = y * qrsize + x;
 761:lvgl/src/extra/libs/qrcode/qrcodegen.c **** 	return getBit(qrcode[(index >> 3) + 1], index & 7);
 762:lvgl/src/extra/libs/qrcode/qrcodegen.c **** }
 763:lvgl/src/extra/libs/qrcode/qrcodegen.c **** 
 764:lvgl/src/extra/libs/qrcode/qrcodegen.c **** 
 765:lvgl/src/extra/libs/qrcode/qrcodegen.c **** // Sets the module at the given coordinates, which must be in bounds.
 766:lvgl/src/extra/libs/qrcode/qrcodegen.c **** testable void setModule(uint8_t qrcode[], int x, int y, bool isBlack) {
 767:lvgl/src/extra/libs/qrcode/qrcodegen.c **** 	int qrsize = qrcode[0];
 768:lvgl/src/extra/libs/qrcode/qrcodegen.c **** 	assert(21 <= qrsize && qrsize <= 177 && 0 <= x && x < qrsize && 0 <= y && y < qrsize);
 769:lvgl/src/extra/libs/qrcode/qrcodegen.c **** 	int index = y * qrsize + x;
 770:lvgl/src/extra/libs/qrcode/qrcodegen.c **** 	int bitIndex = index & 7;
 771:lvgl/src/extra/libs/qrcode/qrcodegen.c **** 	int byteIndex = (index >> 3) + 1;
 772:lvgl/src/extra/libs/qrcode/qrcodegen.c **** 	if (isBlack)
 773:lvgl/src/extra/libs/qrcode/qrcodegen.c **** 		qrcode[byteIndex] |= 1 << bitIndex;
 774:lvgl/src/extra/libs/qrcode/qrcodegen.c **** 	else
 775:lvgl/src/extra/libs/qrcode/qrcodegen.c **** 		qrcode[byteIndex] &= (1 << bitIndex) ^ 0xFF;
 776:lvgl/src/extra/libs/qrcode/qrcodegen.c **** }
 777:lvgl/src/extra/libs/qrcode/qrcodegen.c **** 
 778:lvgl/src/extra/libs/qrcode/qrcodegen.c **** 
 779:lvgl/src/extra/libs/qrcode/qrcodegen.c **** // Sets the module at the given coordinates, doing nothing if out of bounds.
 780:lvgl/src/extra/libs/qrcode/qrcodegen.c **** testable void setModuleBounded(uint8_t qrcode[], int x, int y, bool isBlack) {
 781:lvgl/src/extra/libs/qrcode/qrcodegen.c **** 	int qrsize = qrcode[0];
 782:lvgl/src/extra/libs/qrcode/qrcodegen.c **** 	if (0 <= x && x < qrsize && 0 <= y && y < qrsize)
 783:lvgl/src/extra/libs/qrcode/qrcodegen.c **** 		setModule(qrcode, x, y, isBlack);
 784:lvgl/src/extra/libs/qrcode/qrcodegen.c **** }
 785:lvgl/src/extra/libs/qrcode/qrcodegen.c **** 
 786:lvgl/src/extra/libs/qrcode/qrcodegen.c **** 
 787:lvgl/src/extra/libs/qrcode/qrcodegen.c **** // Returns true iff the i'th bit of x is set to 1. Requires x >= 0 and 0 <= i <= 14.
 788:lvgl/src/extra/libs/qrcode/qrcodegen.c **** static bool getBit(int x, int i) {
 371              		.loc 1 788 34 is_stmt 1 view -0
 372              		.cfi_startproc
 373              		@ args = 0, pretend = 0, frame = 0
 374              		@ frame_needed = 0, uses_anonymous_args = 0
 375              		@ link register save eliminated.
 789:lvgl/src/extra/libs/qrcode/qrcodegen.c **** 	return ((x >> i) & 1) != 0;
 376              		.loc 1 789 2 view .LVU108
 377              		.loc 1 789 13 is_stmt 0 view .LVU109
 378 0000 0841     		asrs	r0, r0, r1
 379              	.LVL47:
 790:lvgl/src/extra/libs/qrcode/qrcodegen.c **** }
 380              		.loc 1 790 1 view .LVU110
 381 0002 00F00100 		and	r0, r0, #1
 382 0006 7047     		bx	lr
 383              		.cfi_endproc
 384              	.LFE26:
ARM GAS  C:\usertemp\ccXENK9d.s 			page 22


 386              		.section	.rodata.calcSegmentBitLength.str1.4,"aMS",%progbits,1
 387              		.align	2
 388              	.LC0:
 389 0000 66616C73 		.ascii	"false\000"
 389      6500
 390 0006 0000     		.align	2
 391              	.LC1:
 392 0008 6C76676C 		.ascii	"lvgl/src/extra/libs/qrcode/qrcodegen.c\000"
 392      2F737263 
 392      2F657874 
 392      72612F6C 
 392      6962732F 
 393 002f 00       		.align	2
 394              	.LC2:
 395 0030 72657375 		.ascii	"result >= 0\000"
 395      6C74203E 
 395      3D203000 
 396              		.section	.text.calcSegmentBitLength,"ax",%progbits
 397              		.align	1
 398              		.syntax unified
 399              		.thumb
 400              		.thumb_func
 402              	calcSegmentBitLength:
 403              	.LVL48:
 404              	.LFB30:
 791:lvgl/src/extra/libs/qrcode/qrcodegen.c **** 
 792:lvgl/src/extra/libs/qrcode/qrcodegen.c **** 
 793:lvgl/src/extra/libs/qrcode/qrcodegen.c **** 
 794:lvgl/src/extra/libs/qrcode/qrcodegen.c **** /*---- Segment handling ----*/
 795:lvgl/src/extra/libs/qrcode/qrcodegen.c **** 
 796:lvgl/src/extra/libs/qrcode/qrcodegen.c **** // Public function - see documentation comment in header file.
 797:lvgl/src/extra/libs/qrcode/qrcodegen.c **** bool qrcodegen_isAlphanumeric(const char *text) {
 798:lvgl/src/extra/libs/qrcode/qrcodegen.c **** 	assert(text != NULL);
 799:lvgl/src/extra/libs/qrcode/qrcodegen.c **** 	for (; *text != '\0'; text++) {
 800:lvgl/src/extra/libs/qrcode/qrcodegen.c **** 		if (strchr(ALPHANUMERIC_CHARSET, *text) == NULL)
 801:lvgl/src/extra/libs/qrcode/qrcodegen.c **** 			return false;
 802:lvgl/src/extra/libs/qrcode/qrcodegen.c **** 	}
 803:lvgl/src/extra/libs/qrcode/qrcodegen.c **** 	return true;
 804:lvgl/src/extra/libs/qrcode/qrcodegen.c **** }
 805:lvgl/src/extra/libs/qrcode/qrcodegen.c **** 
 806:lvgl/src/extra/libs/qrcode/qrcodegen.c **** 
 807:lvgl/src/extra/libs/qrcode/qrcodegen.c **** // Public function - see documentation comment in header file.
 808:lvgl/src/extra/libs/qrcode/qrcodegen.c **** bool qrcodegen_isNumeric(const char *text) {
 809:lvgl/src/extra/libs/qrcode/qrcodegen.c **** 	assert(text != NULL);
 810:lvgl/src/extra/libs/qrcode/qrcodegen.c **** 	for (; *text != '\0'; text++) {
 811:lvgl/src/extra/libs/qrcode/qrcodegen.c **** 		if (*text < '0' || *text > '9')
 812:lvgl/src/extra/libs/qrcode/qrcodegen.c **** 			return false;
 813:lvgl/src/extra/libs/qrcode/qrcodegen.c **** 	}
 814:lvgl/src/extra/libs/qrcode/qrcodegen.c **** 	return true;
 815:lvgl/src/extra/libs/qrcode/qrcodegen.c **** }
 816:lvgl/src/extra/libs/qrcode/qrcodegen.c **** 
 817:lvgl/src/extra/libs/qrcode/qrcodegen.c **** 
 818:lvgl/src/extra/libs/qrcode/qrcodegen.c **** // Public function - see documentation comment in header file.
 819:lvgl/src/extra/libs/qrcode/qrcodegen.c **** size_t qrcodegen_calcSegmentBufferSize(enum qrcodegen_Mode mode, size_t numChars) {
 820:lvgl/src/extra/libs/qrcode/qrcodegen.c **** 	int temp = calcSegmentBitLength(mode, numChars);
 821:lvgl/src/extra/libs/qrcode/qrcodegen.c **** 	if (temp == -1)
 822:lvgl/src/extra/libs/qrcode/qrcodegen.c **** 		return SIZE_MAX;
ARM GAS  C:\usertemp\ccXENK9d.s 			page 23


 823:lvgl/src/extra/libs/qrcode/qrcodegen.c **** 	assert(0 <= temp && temp <= INT16_MAX);
 824:lvgl/src/extra/libs/qrcode/qrcodegen.c **** 	return ((size_t)temp + 7) / 8;
 825:lvgl/src/extra/libs/qrcode/qrcodegen.c **** }
 826:lvgl/src/extra/libs/qrcode/qrcodegen.c **** 
 827:lvgl/src/extra/libs/qrcode/qrcodegen.c **** 
 828:lvgl/src/extra/libs/qrcode/qrcodegen.c **** // Returns the number of data bits needed to represent a segment
 829:lvgl/src/extra/libs/qrcode/qrcodegen.c **** // containing the given number of characters using the given mode. Notes:
 830:lvgl/src/extra/libs/qrcode/qrcodegen.c **** // - Returns -1 on failure, i.e. numChars > INT16_MAX or
 831:lvgl/src/extra/libs/qrcode/qrcodegen.c **** //   the number of needed bits exceeds INT16_MAX (i.e. 32767).
 832:lvgl/src/extra/libs/qrcode/qrcodegen.c **** // - Otherwise, all valid results are in the range [0, INT16_MAX].
 833:lvgl/src/extra/libs/qrcode/qrcodegen.c **** // - For byte mode, numChars measures the number of bytes, not Unicode code points.
 834:lvgl/src/extra/libs/qrcode/qrcodegen.c **** // - For ECI mode, numChars must be 0, and the worst-case number of bits is returned.
 835:lvgl/src/extra/libs/qrcode/qrcodegen.c **** //   An actual ECI segment can have shorter data. For non-ECI modes, the result is exact.
 836:lvgl/src/extra/libs/qrcode/qrcodegen.c **** testable int calcSegmentBitLength(enum qrcodegen_Mode mode, size_t numChars) {
 405              		.loc 1 836 78 is_stmt 1 view -0
 406              		.cfi_startproc
 407              		@ args = 0, pretend = 0, frame = 0
 408              		@ frame_needed = 0, uses_anonymous_args = 0
 837:lvgl/src/extra/libs/qrcode/qrcodegen.c **** 	// All calculations are designed to avoid overflow on all platforms
 838:lvgl/src/extra/libs/qrcode/qrcodegen.c **** 	if (numChars > (unsigned int)INT16_MAX)
 409              		.loc 1 838 2 view .LVU112
 410              		.loc 1 838 5 is_stmt 0 view .LVU113
 411 0000 B1F5004F 		cmp	r1, #32768
 412 0004 3DD2     		bcs	.L47
 836:lvgl/src/extra/libs/qrcode/qrcodegen.c **** 	// All calculations are designed to avoid overflow on all platforms
 413              		.loc 1 836 78 view .LVU114
 414 0006 08B5     		push	{r3, lr}
 415              	.LCFI5:
 416              		.cfi_def_cfa_offset 8
 417              		.cfi_offset 3, -8
 418              		.cfi_offset 14, -4
 839:lvgl/src/extra/libs/qrcode/qrcodegen.c **** 		return -1;
 840:lvgl/src/extra/libs/qrcode/qrcodegen.c **** 	long result = (long)numChars;
 419              		.loc 1 840 2 is_stmt 1 view .LVU115
 420              	.LVL49:
 841:lvgl/src/extra/libs/qrcode/qrcodegen.c **** 	if (mode == qrcodegen_Mode_NUMERIC)
 421              		.loc 1 841 2 view .LVU116
 422 0008 431E     		subs	r3, r0, #1
 423 000a 072B     		cmp	r3, #7
 424 000c 25D8     		bhi	.L38
 425 000e DFE803F0 		tbb	[pc, r3]
 426              	.L40:
 427 0012 04       		.byte	(.L43-.L40)/2
 428 0013 13       		.byte	(.L42-.L40)/2
 429 0014 24       		.byte	(.L38-.L40)/2
 430 0015 1D       		.byte	(.L41-.L40)/2
 431 0016 24       		.byte	(.L38-.L40)/2
 432 0017 24       		.byte	(.L38-.L40)/2
 433 0018 24       		.byte	(.L38-.L40)/2
 434 0019 1F       		.byte	(.L39-.L40)/2
 435              		.p2align 1
 436              	.L43:
 842:lvgl/src/extra/libs/qrcode/qrcodegen.c **** 		result = (result * 10 + 2) / 3;  // ceil(10/3 * n)
 437              		.loc 1 842 3 view .LVU117
 438              		.loc 1 842 20 is_stmt 0 view .LVU118
 439 001a 01EB8101 		add	r1, r1, r1, lsl #2
 440              	.LVL50:
ARM GAS  C:\usertemp\ccXENK9d.s 			page 24


 441              		.loc 1 842 20 view .LVU119
 442 001e 4900     		lsls	r1, r1, #1
 443              		.loc 1 842 25 view .LVU120
 444 0020 0231     		adds	r1, r1, #2
 445              		.loc 1 842 10 view .LVU121
 446 0022 1B4B     		ldr	r3, .L58
 447 0024 83FB0123 		smull	r2, r3, r3, r1
 448 0028 A3EBE170 		sub	r0, r3, r1, asr #31
 449              	.LVL51:
 450              	.L44:
 843:lvgl/src/extra/libs/qrcode/qrcodegen.c **** 	else if (mode == qrcodegen_Mode_ALPHANUMERIC)
 844:lvgl/src/extra/libs/qrcode/qrcodegen.c **** 		result = (result * 11 + 1) / 2;  // ceil(11/2 * n)
 845:lvgl/src/extra/libs/qrcode/qrcodegen.c **** 	else if (mode == qrcodegen_Mode_BYTE)
 846:lvgl/src/extra/libs/qrcode/qrcodegen.c **** 		result *= 8;
 847:lvgl/src/extra/libs/qrcode/qrcodegen.c **** 	else if (mode == qrcodegen_Mode_KANJI)
 848:lvgl/src/extra/libs/qrcode/qrcodegen.c **** 		result *= 13;
 849:lvgl/src/extra/libs/qrcode/qrcodegen.c **** 	else if (mode == qrcodegen_Mode_ECI && numChars == 0)
 850:lvgl/src/extra/libs/qrcode/qrcodegen.c **** 		result = 3 * 8;
 851:lvgl/src/extra/libs/qrcode/qrcodegen.c **** 	else {  // Invalid argument
 852:lvgl/src/extra/libs/qrcode/qrcodegen.c **** 		assert(false);
 853:lvgl/src/extra/libs/qrcode/qrcodegen.c **** 		return -1;
 854:lvgl/src/extra/libs/qrcode/qrcodegen.c **** 	}
 855:lvgl/src/extra/libs/qrcode/qrcodegen.c **** 	assert(result >= 0);
 451              		.loc 1 855 2 is_stmt 1 view .LVU122
 452 002c 0028     		cmp	r0, #0
 453 002e 21DB     		blt	.L54
 454              	.LVL52:
 455              	.L46:
 856:lvgl/src/extra/libs/qrcode/qrcodegen.c **** 	if ((unsigned int)result > (unsigned int)INT16_MAX)
 456              		.loc 1 856 2 view .LVU123
 457              		.loc 1 856 5 is_stmt 0 view .LVU124
 458 0030 B0F5004F 		cmp	r0, #32768
 459 0034 28D2     		bcs	.L55
 460              	.L36:
 857:lvgl/src/extra/libs/qrcode/qrcodegen.c **** 		return -1;
 858:lvgl/src/extra/libs/qrcode/qrcodegen.c **** 	return (int)result;
 859:lvgl/src/extra/libs/qrcode/qrcodegen.c **** }
 461              		.loc 1 859 1 view .LVU125
 462 0036 08BD     		pop	{r3, pc}
 463              	.LVL53:
 464              	.L42:
 844:lvgl/src/extra/libs/qrcode/qrcodegen.c **** 	else if (mode == qrcodegen_Mode_BYTE)
 465              		.loc 1 844 3 is_stmt 1 view .LVU126
 844:lvgl/src/extra/libs/qrcode/qrcodegen.c **** 	else if (mode == qrcodegen_Mode_BYTE)
 466              		.loc 1 844 20 is_stmt 0 view .LVU127
 467 0038 01EB8103 		add	r3, r1, r1, lsl #2
 468 003c 01EB4301 		add	r1, r1, r3, lsl #1
 469              	.LVL54:
 844:lvgl/src/extra/libs/qrcode/qrcodegen.c **** 	else if (mode == qrcodegen_Mode_BYTE)
 470              		.loc 1 844 10 view .LVU128
 471 0040 0131     		adds	r1, r1, #1
 472 0042 01D4     		bmi	.L56
 473              	.L45:
 474 0044 4810     		asrs	r0, r1, #1
 475              	.LVL55:
 844:lvgl/src/extra/libs/qrcode/qrcodegen.c **** 	else if (mode == qrcodegen_Mode_BYTE)
 476              		.loc 1 844 10 view .LVU129
ARM GAS  C:\usertemp\ccXENK9d.s 			page 25


 477 0046 F1E7     		b	.L44
 478              	.LVL56:
 479              	.L56:
 844:lvgl/src/extra/libs/qrcode/qrcodegen.c **** 	else if (mode == qrcodegen_Mode_BYTE)
 480              		.loc 1 844 10 view .LVU130
 481 0048 0131     		adds	r1, r1, #1
 482 004a FBE7     		b	.L45
 483              	.LVL57:
 484              	.L41:
 846:lvgl/src/extra/libs/qrcode/qrcodegen.c **** 	else if (mode == qrcodegen_Mode_KANJI)
 485              		.loc 1 846 3 is_stmt 1 view .LVU131
 846:lvgl/src/extra/libs/qrcode/qrcodegen.c **** 	else if (mode == qrcodegen_Mode_KANJI)
 486              		.loc 1 846 10 is_stmt 0 view .LVU132
 487 004c C800     		lsls	r0, r1, #3
 488              	.LVL58:
 846:lvgl/src/extra/libs/qrcode/qrcodegen.c **** 	else if (mode == qrcodegen_Mode_KANJI)
 489              		.loc 1 846 10 view .LVU133
 490 004e EDE7     		b	.L44
 491              	.LVL59:
 492              	.L39:
 848:lvgl/src/extra/libs/qrcode/qrcodegen.c **** 	else if (mode == qrcodegen_Mode_ECI && numChars == 0)
 493              		.loc 1 848 3 is_stmt 1 view .LVU134
 848:lvgl/src/extra/libs/qrcode/qrcodegen.c **** 	else if (mode == qrcodegen_Mode_ECI && numChars == 0)
 494              		.loc 1 848 10 is_stmt 0 view .LVU135
 495 0050 01EB4103 		add	r3, r1, r1, lsl #1
 496 0054 01EB8300 		add	r0, r1, r3, lsl #2
 497              	.LVL60:
 848:lvgl/src/extra/libs/qrcode/qrcodegen.c **** 	else if (mode == qrcodegen_Mode_ECI && numChars == 0)
 498              		.loc 1 848 10 view .LVU136
 499 0058 E8E7     		b	.L44
 500              	.LVL61:
 501              	.L38:
 849:lvgl/src/extra/libs/qrcode/qrcodegen.c **** 		result = 3 * 8;
 502              		.loc 1 849 7 is_stmt 1 view .LVU137
 849:lvgl/src/extra/libs/qrcode/qrcodegen.c **** 		result = 3 * 8;
 503              		.loc 1 849 10 is_stmt 0 view .LVU138
 504 005a 0728     		cmp	r0, #7
 505 005c 08BF     		it	eq
 506 005e 0029     		cmpeq	r1, #0
 507 0060 01D1     		bne	.L57
 850:lvgl/src/extra/libs/qrcode/qrcodegen.c **** 	else {  // Invalid argument
 508              		.loc 1 850 10 view .LVU139
 509 0062 1820     		movs	r0, #24
 510              	.LVL62:
 850:lvgl/src/extra/libs/qrcode/qrcodegen.c **** 	else {  // Invalid argument
 511              		.loc 1 850 10 view .LVU140
 512 0064 E4E7     		b	.L46
 513              	.LVL63:
 514              	.L57:
 852:lvgl/src/extra/libs/qrcode/qrcodegen.c **** 		return -1;
 515              		.loc 1 852 3 is_stmt 1 view .LVU141
 516 0066 0B4B     		ldr	r3, .L58+4
 517 0068 0B4A     		ldr	r2, .L58+8
 518 006a 4FF45571 		mov	r1, #852
 519              	.LVL64:
 852:lvgl/src/extra/libs/qrcode/qrcodegen.c **** 		return -1;
 520              		.loc 1 852 3 is_stmt 0 view .LVU142
ARM GAS  C:\usertemp\ccXENK9d.s 			page 26


 521 006e 0B48     		ldr	r0, .L58+12
 522              	.LVL65:
 852:lvgl/src/extra/libs/qrcode/qrcodegen.c **** 		return -1;
 523              		.loc 1 852 3 view .LVU143
 524 0070 FFF7FEFF 		bl	__assert_func
 525              	.LVL66:
 526              	.L54:
 855:lvgl/src/extra/libs/qrcode/qrcodegen.c **** 	if ((unsigned int)result > (unsigned int)INT16_MAX)
 527              		.loc 1 855 2 discriminator 1 view .LVU144
 528 0074 0A4B     		ldr	r3, .L58+16
 529 0076 084A     		ldr	r2, .L58+8
 530 0078 40F25731 		movw	r1, #855
 531 007c 0748     		ldr	r0, .L58+12
 532              	.LVL67:
 855:lvgl/src/extra/libs/qrcode/qrcodegen.c **** 	if ((unsigned int)result > (unsigned int)INT16_MAX)
 533              		.loc 1 855 2 discriminator 1 view .LVU145
 534 007e FFF7FEFF 		bl	__assert_func
 535              	.LVL68:
 536              	.L47:
 537              	.LCFI6:
 538              		.cfi_def_cfa_offset 0
 539              		.cfi_restore 3
 540              		.cfi_restore 14
 839:lvgl/src/extra/libs/qrcode/qrcodegen.c **** 	long result = (long)numChars;
 541              		.loc 1 839 10 view .LVU146
 542 0082 4FF0FF30 		mov	r0, #-1
 543              	.LVL69:
 544              		.loc 1 859 1 view .LVU147
 545 0086 7047     		bx	lr
 546              	.LVL70:
 547              	.L55:
 548              	.LCFI7:
 549              		.cfi_def_cfa_offset 8
 550              		.cfi_offset 3, -8
 551              		.cfi_offset 14, -4
 857:lvgl/src/extra/libs/qrcode/qrcodegen.c **** 	return (int)result;
 552              		.loc 1 857 10 view .LVU148
 553 0088 4FF0FF30 		mov	r0, #-1
 554 008c D3E7     		b	.L36
 555              	.L59:
 556 008e 00BF     		.align	2
 557              	.L58:
 558 0090 56555555 		.word	1431655766
 559 0094 00000000 		.word	.LC0
 560 0098 00000000 		.word	__func__.29
 561 009c 08000000 		.word	.LC1
 562 00a0 30000000 		.word	.LC2
 563              		.cfi_endproc
 564              	.LFE30:
 566              		.section	.rodata.numCharCountBits.str1.4,"aMS",%progbits,1
 567              		.align	2
 568              	.LC3:
 569 0000 7172636F 		.ascii	"qrcodegen_VERSION_MIN <= version && version <= qrco"
 569      64656765 
 569      6E5F5645 
 569      5253494F 
 569      4E5F4D49 
ARM GAS  C:\usertemp\ccXENK9d.s 			page 27


 570 0033 64656765 		.ascii	"degen_VERSION_MAX\000"
 570      6E5F5645 
 570      5253494F 
 570      4E5F4D41 
 570      5800
 571              		.section	.text.numCharCountBits,"ax",%progbits
 572              		.align	1
 573              		.syntax unified
 574              		.thumb
 575              		.thumb_func
 577              	numCharCountBits:
 578              	.LVL71:
 579              	.LFB36:
 860:lvgl/src/extra/libs/qrcode/qrcodegen.c **** 
 861:lvgl/src/extra/libs/qrcode/qrcodegen.c **** 
 862:lvgl/src/extra/libs/qrcode/qrcodegen.c **** // Public function - see documentation comment in header file.
 863:lvgl/src/extra/libs/qrcode/qrcodegen.c **** struct qrcodegen_Segment qrcodegen_makeBytes(const uint8_t data[], size_t len, uint8_t buf[]) {
 864:lvgl/src/extra/libs/qrcode/qrcodegen.c **** 	assert(data != NULL || len == 0);
 865:lvgl/src/extra/libs/qrcode/qrcodegen.c **** 	struct qrcodegen_Segment result;
 866:lvgl/src/extra/libs/qrcode/qrcodegen.c **** 	result.mode = qrcodegen_Mode_BYTE;
 867:lvgl/src/extra/libs/qrcode/qrcodegen.c **** 	result.bitLength = calcSegmentBitLength(result.mode, len);
 868:lvgl/src/extra/libs/qrcode/qrcodegen.c **** 	assert(result.bitLength != -1);
 869:lvgl/src/extra/libs/qrcode/qrcodegen.c **** 	result.numChars = (int)len;
 870:lvgl/src/extra/libs/qrcode/qrcodegen.c **** 	if (len > 0)
 871:lvgl/src/extra/libs/qrcode/qrcodegen.c **** 		memcpy(buf, data, len * sizeof(buf[0]));
 872:lvgl/src/extra/libs/qrcode/qrcodegen.c **** 	result.data = buf;
 873:lvgl/src/extra/libs/qrcode/qrcodegen.c **** 	return result;
 874:lvgl/src/extra/libs/qrcode/qrcodegen.c **** }
 875:lvgl/src/extra/libs/qrcode/qrcodegen.c **** 
 876:lvgl/src/extra/libs/qrcode/qrcodegen.c **** 
 877:lvgl/src/extra/libs/qrcode/qrcodegen.c **** // Public function - see documentation comment in header file.
 878:lvgl/src/extra/libs/qrcode/qrcodegen.c **** struct qrcodegen_Segment qrcodegen_makeNumeric(const char *digits, uint8_t buf[]) {
 879:lvgl/src/extra/libs/qrcode/qrcodegen.c **** 	assert(digits != NULL);
 880:lvgl/src/extra/libs/qrcode/qrcodegen.c **** 	struct qrcodegen_Segment result;
 881:lvgl/src/extra/libs/qrcode/qrcodegen.c **** 	size_t len = strlen(digits);
 882:lvgl/src/extra/libs/qrcode/qrcodegen.c **** 	result.mode = qrcodegen_Mode_NUMERIC;
 883:lvgl/src/extra/libs/qrcode/qrcodegen.c **** 	int bitLen = calcSegmentBitLength(result.mode, len);
 884:lvgl/src/extra/libs/qrcode/qrcodegen.c **** 	assert(bitLen != -1);
 885:lvgl/src/extra/libs/qrcode/qrcodegen.c **** 	result.numChars = (int)len;
 886:lvgl/src/extra/libs/qrcode/qrcodegen.c **** 	if (bitLen > 0)
 887:lvgl/src/extra/libs/qrcode/qrcodegen.c **** 		memset(buf, 0, ((size_t)bitLen + 7) / 8 * sizeof(buf[0]));
 888:lvgl/src/extra/libs/qrcode/qrcodegen.c **** 	result.bitLength = 0;
 889:lvgl/src/extra/libs/qrcode/qrcodegen.c **** 	
 890:lvgl/src/extra/libs/qrcode/qrcodegen.c **** 	unsigned int accumData = 0;
 891:lvgl/src/extra/libs/qrcode/qrcodegen.c **** 	int accumCount = 0;
 892:lvgl/src/extra/libs/qrcode/qrcodegen.c **** 	for (; *digits != '\0'; digits++) {
 893:lvgl/src/extra/libs/qrcode/qrcodegen.c **** 		char c = *digits;
 894:lvgl/src/extra/libs/qrcode/qrcodegen.c **** 		assert('0' <= c && c <= '9');
 895:lvgl/src/extra/libs/qrcode/qrcodegen.c **** 		accumData = accumData * 10 + (unsigned int)(c - '0');
 896:lvgl/src/extra/libs/qrcode/qrcodegen.c **** 		accumCount++;
 897:lvgl/src/extra/libs/qrcode/qrcodegen.c **** 		if (accumCount == 3) {
 898:lvgl/src/extra/libs/qrcode/qrcodegen.c **** 			appendBitsToBuffer(accumData, 10, buf, &result.bitLength);
 899:lvgl/src/extra/libs/qrcode/qrcodegen.c **** 			accumData = 0;
 900:lvgl/src/extra/libs/qrcode/qrcodegen.c **** 			accumCount = 0;
 901:lvgl/src/extra/libs/qrcode/qrcodegen.c **** 		}
 902:lvgl/src/extra/libs/qrcode/qrcodegen.c **** 	}
 903:lvgl/src/extra/libs/qrcode/qrcodegen.c **** 	if (accumCount > 0)  // 1 or 2 digits remaining
ARM GAS  C:\usertemp\ccXENK9d.s 			page 28


 904:lvgl/src/extra/libs/qrcode/qrcodegen.c **** 		appendBitsToBuffer(accumData, accumCount * 3 + 1, buf, &result.bitLength);
 905:lvgl/src/extra/libs/qrcode/qrcodegen.c **** 	assert(result.bitLength == bitLen);
 906:lvgl/src/extra/libs/qrcode/qrcodegen.c **** 	result.data = buf;
 907:lvgl/src/extra/libs/qrcode/qrcodegen.c **** 	return result;
 908:lvgl/src/extra/libs/qrcode/qrcodegen.c **** }
 909:lvgl/src/extra/libs/qrcode/qrcodegen.c **** 
 910:lvgl/src/extra/libs/qrcode/qrcodegen.c **** 
 911:lvgl/src/extra/libs/qrcode/qrcodegen.c **** // Public function - see documentation comment in header file.
 912:lvgl/src/extra/libs/qrcode/qrcodegen.c **** struct qrcodegen_Segment qrcodegen_makeAlphanumeric(const char *text, uint8_t buf[]) {
 913:lvgl/src/extra/libs/qrcode/qrcodegen.c **** 	assert(text != NULL);
 914:lvgl/src/extra/libs/qrcode/qrcodegen.c **** 	struct qrcodegen_Segment result;
 915:lvgl/src/extra/libs/qrcode/qrcodegen.c **** 	size_t len = strlen(text);
 916:lvgl/src/extra/libs/qrcode/qrcodegen.c **** 	result.mode = qrcodegen_Mode_ALPHANUMERIC;
 917:lvgl/src/extra/libs/qrcode/qrcodegen.c **** 	int bitLen = calcSegmentBitLength(result.mode, len);
 918:lvgl/src/extra/libs/qrcode/qrcodegen.c **** 	assert(bitLen != -1);
 919:lvgl/src/extra/libs/qrcode/qrcodegen.c **** 	result.numChars = (int)len;
 920:lvgl/src/extra/libs/qrcode/qrcodegen.c **** 	if (bitLen > 0)
 921:lvgl/src/extra/libs/qrcode/qrcodegen.c **** 		memset(buf, 0, ((size_t)bitLen + 7) / 8 * sizeof(buf[0]));
 922:lvgl/src/extra/libs/qrcode/qrcodegen.c **** 	result.bitLength = 0;
 923:lvgl/src/extra/libs/qrcode/qrcodegen.c **** 	
 924:lvgl/src/extra/libs/qrcode/qrcodegen.c **** 	unsigned int accumData = 0;
 925:lvgl/src/extra/libs/qrcode/qrcodegen.c **** 	int accumCount = 0;
 926:lvgl/src/extra/libs/qrcode/qrcodegen.c **** 	for (; *text != '\0'; text++) {
 927:lvgl/src/extra/libs/qrcode/qrcodegen.c **** 		const char *temp = strchr(ALPHANUMERIC_CHARSET, *text);
 928:lvgl/src/extra/libs/qrcode/qrcodegen.c **** 		assert(temp != NULL);
 929:lvgl/src/extra/libs/qrcode/qrcodegen.c **** 		accumData = accumData * 45 + (unsigned int)(temp - ALPHANUMERIC_CHARSET);
 930:lvgl/src/extra/libs/qrcode/qrcodegen.c **** 		accumCount++;
 931:lvgl/src/extra/libs/qrcode/qrcodegen.c **** 		if (accumCount == 2) {
 932:lvgl/src/extra/libs/qrcode/qrcodegen.c **** 			appendBitsToBuffer(accumData, 11, buf, &result.bitLength);
 933:lvgl/src/extra/libs/qrcode/qrcodegen.c **** 			accumData = 0;
 934:lvgl/src/extra/libs/qrcode/qrcodegen.c **** 			accumCount = 0;
 935:lvgl/src/extra/libs/qrcode/qrcodegen.c **** 		}
 936:lvgl/src/extra/libs/qrcode/qrcodegen.c **** 	}
 937:lvgl/src/extra/libs/qrcode/qrcodegen.c **** 	if (accumCount > 0)  // 1 character remaining
 938:lvgl/src/extra/libs/qrcode/qrcodegen.c **** 		appendBitsToBuffer(accumData, 6, buf, &result.bitLength);
 939:lvgl/src/extra/libs/qrcode/qrcodegen.c **** 	assert(result.bitLength == bitLen);
 940:lvgl/src/extra/libs/qrcode/qrcodegen.c **** 	result.data = buf;
 941:lvgl/src/extra/libs/qrcode/qrcodegen.c **** 	return result;
 942:lvgl/src/extra/libs/qrcode/qrcodegen.c **** }
 943:lvgl/src/extra/libs/qrcode/qrcodegen.c **** 
 944:lvgl/src/extra/libs/qrcode/qrcodegen.c **** 
 945:lvgl/src/extra/libs/qrcode/qrcodegen.c **** // Public function - see documentation comment in header file.
 946:lvgl/src/extra/libs/qrcode/qrcodegen.c **** struct qrcodegen_Segment qrcodegen_makeEci(long assignVal, uint8_t buf[]) {
 947:lvgl/src/extra/libs/qrcode/qrcodegen.c **** 	struct qrcodegen_Segment result;
 948:lvgl/src/extra/libs/qrcode/qrcodegen.c **** 	result.mode = qrcodegen_Mode_ECI;
 949:lvgl/src/extra/libs/qrcode/qrcodegen.c **** 	result.numChars = 0;
 950:lvgl/src/extra/libs/qrcode/qrcodegen.c **** 	result.bitLength = 0;
 951:lvgl/src/extra/libs/qrcode/qrcodegen.c **** 	if (assignVal < 0) {
 952:lvgl/src/extra/libs/qrcode/qrcodegen.c **** 		assert(false);
 953:lvgl/src/extra/libs/qrcode/qrcodegen.c **** 	} else if (assignVal < (1 << 7)) {
 954:lvgl/src/extra/libs/qrcode/qrcodegen.c **** 		memset(buf, 0, 1 * sizeof(buf[0]));
 955:lvgl/src/extra/libs/qrcode/qrcodegen.c **** 		appendBitsToBuffer(assignVal, 8, buf, &result.bitLength);
 956:lvgl/src/extra/libs/qrcode/qrcodegen.c **** 	} else if (assignVal < (1 << 14)) {
 957:lvgl/src/extra/libs/qrcode/qrcodegen.c **** 		memset(buf, 0, 2 * sizeof(buf[0]));
 958:lvgl/src/extra/libs/qrcode/qrcodegen.c **** 		appendBitsToBuffer(2, 2, buf, &result.bitLength);
 959:lvgl/src/extra/libs/qrcode/qrcodegen.c **** 		appendBitsToBuffer(assignVal, 14, buf, &result.bitLength);
 960:lvgl/src/extra/libs/qrcode/qrcodegen.c **** 	} else if (assignVal < 1000000L) {
ARM GAS  C:\usertemp\ccXENK9d.s 			page 29


 961:lvgl/src/extra/libs/qrcode/qrcodegen.c **** 		memset(buf, 0, 3 * sizeof(buf[0]));
 962:lvgl/src/extra/libs/qrcode/qrcodegen.c **** 		appendBitsToBuffer(6, 3, buf, &result.bitLength);
 963:lvgl/src/extra/libs/qrcode/qrcodegen.c **** 		appendBitsToBuffer(assignVal >> 10, 11, buf, &result.bitLength);
 964:lvgl/src/extra/libs/qrcode/qrcodegen.c **** 		appendBitsToBuffer(assignVal & 0x3FF, 10, buf, &result.bitLength);
 965:lvgl/src/extra/libs/qrcode/qrcodegen.c **** 	} else {
 966:lvgl/src/extra/libs/qrcode/qrcodegen.c **** 		assert(false);
 967:lvgl/src/extra/libs/qrcode/qrcodegen.c **** 	}
 968:lvgl/src/extra/libs/qrcode/qrcodegen.c **** 	result.data = buf;
 969:lvgl/src/extra/libs/qrcode/qrcodegen.c **** 	return result;
 970:lvgl/src/extra/libs/qrcode/qrcodegen.c **** }
 971:lvgl/src/extra/libs/qrcode/qrcodegen.c **** 
 972:lvgl/src/extra/libs/qrcode/qrcodegen.c **** 
 973:lvgl/src/extra/libs/qrcode/qrcodegen.c **** // Calculates the number of bits needed to encode the given segments at the given version.
 974:lvgl/src/extra/libs/qrcode/qrcodegen.c **** // Returns a non-negative number if successful. Otherwise returns -1 if a segment has too
 975:lvgl/src/extra/libs/qrcode/qrcodegen.c **** // many characters to fit its length field, or the total bits exceeds INT16_MAX.
 976:lvgl/src/extra/libs/qrcode/qrcodegen.c **** testable int getTotalBits(const struct qrcodegen_Segment segs[], size_t len, int version) {
 977:lvgl/src/extra/libs/qrcode/qrcodegen.c **** 	assert(segs != NULL || len == 0);
 978:lvgl/src/extra/libs/qrcode/qrcodegen.c **** 	long result = 0;
 979:lvgl/src/extra/libs/qrcode/qrcodegen.c **** 	for (size_t i = 0; i < len; i++) {
 980:lvgl/src/extra/libs/qrcode/qrcodegen.c **** 		int numChars  = segs[i].numChars;
 981:lvgl/src/extra/libs/qrcode/qrcodegen.c **** 		int bitLength = segs[i].bitLength;
 982:lvgl/src/extra/libs/qrcode/qrcodegen.c **** 		assert(0 <= numChars  && numChars  <= INT16_MAX);
 983:lvgl/src/extra/libs/qrcode/qrcodegen.c **** 		assert(0 <= bitLength && bitLength <= INT16_MAX);
 984:lvgl/src/extra/libs/qrcode/qrcodegen.c **** 		int ccbits = numCharCountBits(segs[i].mode, version);
 985:lvgl/src/extra/libs/qrcode/qrcodegen.c **** 		assert(0 <= ccbits && ccbits <= 16);
 986:lvgl/src/extra/libs/qrcode/qrcodegen.c **** 		if (numChars >= (1L << ccbits))
 987:lvgl/src/extra/libs/qrcode/qrcodegen.c **** 			return -1;  // The segment's length doesn't fit the field's bit width
 988:lvgl/src/extra/libs/qrcode/qrcodegen.c **** 		result += 4L + ccbits + bitLength;
 989:lvgl/src/extra/libs/qrcode/qrcodegen.c **** 		if (result > INT16_MAX)
 990:lvgl/src/extra/libs/qrcode/qrcodegen.c **** 			return -1;  // The sum might overflow an int type
 991:lvgl/src/extra/libs/qrcode/qrcodegen.c **** 	}
 992:lvgl/src/extra/libs/qrcode/qrcodegen.c **** 	assert(0 <= result && result <= INT16_MAX);
 993:lvgl/src/extra/libs/qrcode/qrcodegen.c **** 	return (int)result;
 994:lvgl/src/extra/libs/qrcode/qrcodegen.c **** }
 995:lvgl/src/extra/libs/qrcode/qrcodegen.c **** 
 996:lvgl/src/extra/libs/qrcode/qrcodegen.c **** 
 997:lvgl/src/extra/libs/qrcode/qrcodegen.c **** // Returns the bit width of the character count field for a segment in the given mode
 998:lvgl/src/extra/libs/qrcode/qrcodegen.c **** // in a QR Code at the given version number. The result is in the range [0, 16].
 999:lvgl/src/extra/libs/qrcode/qrcodegen.c **** static int numCharCountBits(enum qrcodegen_Mode mode, int version) {
 580              		.loc 1 999 68 is_stmt 1 view -0
 581              		.cfi_startproc
 582              		@ args = 0, pretend = 0, frame = 0
 583              		@ frame_needed = 0, uses_anonymous_args = 0
 584              		.loc 1 999 68 is_stmt 0 view .LVU150
 585 0000 08B5     		push	{r3, lr}
 586              	.LCFI8:
 587              		.cfi_def_cfa_offset 8
 588              		.cfi_offset 3, -8
 589              		.cfi_offset 14, -4
1000:lvgl/src/extra/libs/qrcode/qrcodegen.c **** 	assert(qrcodegen_VERSION_MIN <= version && version <= qrcodegen_VERSION_MAX);
 590              		.loc 1 1000 2 is_stmt 1 view .LVU151
 591 0002 4B1E     		subs	r3, r1, #1
 592 0004 272B     		cmp	r3, #39
 593 0006 0FD8     		bhi	.L71
1001:lvgl/src/extra/libs/qrcode/qrcodegen.c **** 	int i = (version + 7) / 17;
 594              		.loc 1 1001 2 view .LVU152
 595              		.loc 1 1001 19 is_stmt 0 view .LVU153
ARM GAS  C:\usertemp\ccXENK9d.s 			page 30


 596 0008 0731     		adds	r1, r1, #7
 597              	.LVL72:
 598              		.loc 1 1001 6 view .LVU154
 599 000a 174B     		ldr	r3, .L72
 600 000c 83FB0123 		smull	r2, r3, r3, r1
 601 0010 C917     		asrs	r1, r1, #31
 602              	.LVL73:
 603              		.loc 1 1001 6 view .LVU155
 604 0012 C1EBE301 		rsb	r1, r1, r3, asr #3
 605              	.LVL74:
1002:lvgl/src/extra/libs/qrcode/qrcodegen.c **** 	switch (mode) {
 606              		.loc 1 1002 2 is_stmt 1 view .LVU156
 607 0016 0138     		subs	r0, r0, #1
 608              	.LVL75:
 609              		.loc 1 1002 2 is_stmt 0 view .LVU157
 610 0018 0728     		cmp	r0, #7
 611 001a 1CD8     		bhi	.L62
 612 001c DFE800F0 		tbb	[pc, r0]
 613              	.L64:
 614 0020 0B       		.byte	(.L68-.L64)/2
 615 0021 0F       		.byte	(.L67-.L64)/2
 616 0022 1B       		.byte	(.L62-.L64)/2
 617 0023 13       		.byte	(.L66-.L64)/2
 618 0024 1B       		.byte	(.L62-.L64)/2
 619 0025 1B       		.byte	(.L62-.L64)/2
 620 0026 22       		.byte	(.L69-.L64)/2
 621 0027 17       		.byte	(.L63-.L64)/2
 622              	.LVL76:
 623              		.p2align 1
 624              	.L71:
1000:lvgl/src/extra/libs/qrcode/qrcodegen.c **** 	assert(qrcodegen_VERSION_MIN <= version && version <= qrcodegen_VERSION_MAX);
 625              		.loc 1 1000 2 discriminator 1 view .LVU158
 626 0028 104B     		ldr	r3, .L72+4
 627 002a 114A     		ldr	r2, .L72+8
 628 002c 4FF47A71 		mov	r1, #1000
 629              	.LVL77:
1000:lvgl/src/extra/libs/qrcode/qrcodegen.c **** 	assert(qrcodegen_VERSION_MIN <= version && version <= qrcodegen_VERSION_MAX);
 630              		.loc 1 1000 2 discriminator 1 view .LVU159
 631 0030 1048     		ldr	r0, .L72+12
 632              	.LVL78:
1000:lvgl/src/extra/libs/qrcode/qrcodegen.c **** 	assert(qrcodegen_VERSION_MIN <= version && version <= qrcodegen_VERSION_MAX);
 633              		.loc 1 1000 2 discriminator 1 view .LVU160
 634 0032 FFF7FEFF 		bl	__assert_func
 635              	.LVL79:
 636              	.L68:
 637              	.LBB7:
1003:lvgl/src/extra/libs/qrcode/qrcodegen.c **** 		case qrcodegen_Mode_NUMERIC     : { static const int temp[] = {10, 12, 14}; return temp[i]; }
 638              		.loc 1 1003 39 is_stmt 1 view .LVU161
 639              		.loc 1 1003 79 view .LVU162
 640              		.loc 1 1003 90 is_stmt 0 view .LVU163
 641 0036 104B     		ldr	r3, .L72+16
 642 0038 53F82100 		ldr	r0, [r3, r1, lsl #2]
 643              	.L60:
 644              		.loc 1 1003 90 view .LVU164
 645              	.LBE7:
1004:lvgl/src/extra/libs/qrcode/qrcodegen.c **** 		case qrcodegen_Mode_ALPHANUMERIC: { static const int temp[] = { 9, 11, 13}; return temp[i]; }
1005:lvgl/src/extra/libs/qrcode/qrcodegen.c **** 		case qrcodegen_Mode_BYTE        : { static const int temp[] = { 8, 16, 16}; return temp[i]; }
ARM GAS  C:\usertemp\ccXENK9d.s 			page 31


1006:lvgl/src/extra/libs/qrcode/qrcodegen.c **** 		case qrcodegen_Mode_KANJI       : { static const int temp[] = { 8, 10, 12}; return temp[i]; }
1007:lvgl/src/extra/libs/qrcode/qrcodegen.c **** 		case qrcodegen_Mode_ECI         : return 0;
1008:lvgl/src/extra/libs/qrcode/qrcodegen.c **** 		default:  assert(false);  return -1;  // Dummy value
1009:lvgl/src/extra/libs/qrcode/qrcodegen.c **** 	}
1010:lvgl/src/extra/libs/qrcode/qrcodegen.c **** }
 646              		.loc 1 1010 1 view .LVU165
 647 003c 08BD     		pop	{r3, pc}
 648              	.L67:
 649              	.LBB8:
1004:lvgl/src/extra/libs/qrcode/qrcodegen.c **** 		case qrcodegen_Mode_ALPHANUMERIC: { static const int temp[] = { 9, 11, 13}; return temp[i]; }
 650              		.loc 1 1004 39 is_stmt 1 view .LVU166
1004:lvgl/src/extra/libs/qrcode/qrcodegen.c **** 		case qrcodegen_Mode_ALPHANUMERIC: { static const int temp[] = { 9, 11, 13}; return temp[i]; }
 651              		.loc 1 1004 79 view .LVU167
1004:lvgl/src/extra/libs/qrcode/qrcodegen.c **** 		case qrcodegen_Mode_ALPHANUMERIC: { static const int temp[] = { 9, 11, 13}; return temp[i]; }
 652              		.loc 1 1004 90 is_stmt 0 view .LVU168
 653 003e 0F4B     		ldr	r3, .L72+20
 654 0040 53F82100 		ldr	r0, [r3, r1, lsl #2]
 655 0044 FAE7     		b	.L60
 656              	.L66:
1004:lvgl/src/extra/libs/qrcode/qrcodegen.c **** 		case qrcodegen_Mode_ALPHANUMERIC: { static const int temp[] = { 9, 11, 13}; return temp[i]; }
 657              		.loc 1 1004 90 view .LVU169
 658              	.LBE8:
 659              	.LBB9:
1005:lvgl/src/extra/libs/qrcode/qrcodegen.c **** 		case qrcodegen_Mode_KANJI       : { static const int temp[] = { 8, 10, 12}; return temp[i]; }
 660              		.loc 1 1005 39 is_stmt 1 view .LVU170
1005:lvgl/src/extra/libs/qrcode/qrcodegen.c **** 		case qrcodegen_Mode_KANJI       : { static const int temp[] = { 8, 10, 12}; return temp[i]; }
 661              		.loc 1 1005 79 view .LVU171
1005:lvgl/src/extra/libs/qrcode/qrcodegen.c **** 		case qrcodegen_Mode_KANJI       : { static const int temp[] = { 8, 10, 12}; return temp[i]; }
 662              		.loc 1 1005 90 is_stmt 0 view .LVU172
 663 0046 0E4B     		ldr	r3, .L72+24
 664 0048 53F82100 		ldr	r0, [r3, r1, lsl #2]
 665 004c F6E7     		b	.L60
 666              	.L63:
1005:lvgl/src/extra/libs/qrcode/qrcodegen.c **** 		case qrcodegen_Mode_KANJI       : { static const int temp[] = { 8, 10, 12}; return temp[i]; }
 667              		.loc 1 1005 90 view .LVU173
 668              	.LBE9:
 669              	.LBB10:
1006:lvgl/src/extra/libs/qrcode/qrcodegen.c **** 		case qrcodegen_Mode_ECI         : return 0;
 670              		.loc 1 1006 39 is_stmt 1 view .LVU174
1006:lvgl/src/extra/libs/qrcode/qrcodegen.c **** 		case qrcodegen_Mode_ECI         : return 0;
 671              		.loc 1 1006 79 view .LVU175
1006:lvgl/src/extra/libs/qrcode/qrcodegen.c **** 		case qrcodegen_Mode_ECI         : return 0;
 672              		.loc 1 1006 90 is_stmt 0 view .LVU176
 673 004e 0D4B     		ldr	r3, .L72+28
 674 0050 53F82100 		ldr	r0, [r3, r1, lsl #2]
 675 0054 F2E7     		b	.L60
 676              	.L62:
1006:lvgl/src/extra/libs/qrcode/qrcodegen.c **** 		case qrcodegen_Mode_ECI         : return 0;
 677              		.loc 1 1006 90 view .LVU177
 678              	.LBE10:
1008:lvgl/src/extra/libs/qrcode/qrcodegen.c **** 	}
 679              		.loc 1 1008 13 is_stmt 1 view .LVU178
 680 0056 0C4B     		ldr	r3, .L72+32
 681 0058 054A     		ldr	r2, .L72+8
 682 005a 4FF47C71 		mov	r1, #1008
 683              	.LVL80:
1008:lvgl/src/extra/libs/qrcode/qrcodegen.c **** 	}
ARM GAS  C:\usertemp\ccXENK9d.s 			page 32


 684              		.loc 1 1008 13 is_stmt 0 view .LVU179
 685 005e 0548     		ldr	r0, .L72+12
 686 0060 FFF7FEFF 		bl	__assert_func
 687              	.LVL81:
 688              	.L69:
1002:lvgl/src/extra/libs/qrcode/qrcodegen.c **** 		case qrcodegen_Mode_NUMERIC     : { static const int temp[] = {10, 12, 14}; return temp[i]; }
 689              		.loc 1 1002 2 view .LVU180
 690 0064 0020     		movs	r0, #0
 691 0066 E9E7     		b	.L60
 692              	.L73:
 693              		.align	2
 694              	.L72:
 695 0068 79787878 		.word	2021161081
 696 006c 00000000 		.word	.LC3
 697 0070 00000000 		.word	__func__.26
 698 0074 08000000 		.word	.LC1
 699 0078 00000000 		.word	temp.25
 700 007c 00000000 		.word	temp.24
 701 0080 00000000 		.word	temp.23
 702 0084 00000000 		.word	temp.22
 703 0088 00000000 		.word	.LC0
 704              		.cfi_endproc
 705              	.LFE36:
 707              		.section	.rodata.getTotalBits.str1.4,"aMS",%progbits,1
 708              		.align	2
 709              	.LC4:
 710 0000 73656773 		.ascii	"segs != NULL || len == 0\000"
 710      20213D20 
 710      4E554C4C 
 710      207C7C20 
 710      6C656E20 
 711 0019 000000   		.align	2
 712              	.LC5:
 713 001c 30203C3D 		.ascii	"0 <= numChars && numChars <= INT16_MAX\000"
 713      206E756D 
 713      43686172 
 713      73202626 
 713      206E756D 
 714 0043 00       		.align	2
 715              	.LC6:
 716 0044 30203C3D 		.ascii	"0 <= bitLength && bitLength <= INT16_MAX\000"
 716      20626974 
 716      4C656E67 
 716      74682026 
 716      26206269 
 717 006d 000000   		.align	2
 718              	.LC7:
 719 0070 30203C3D 		.ascii	"0 <= ccbits && ccbits <= 16\000"
 719      20636362 
 719      69747320 
 719      26262063 
 719      63626974 
 720              		.align	2
 721              	.LC8:
 722 008c 30203C3D 		.ascii	"0 <= result && result <= INT16_MAX\000"
 722      20726573 
 722      756C7420 
ARM GAS  C:\usertemp\ccXENK9d.s 			page 33


 722      26262072 
 722      6573756C 
 723              		.section	.text.getTotalBits,"ax",%progbits
 724              		.align	1
 725              		.syntax unified
 726              		.thumb
 727              		.thumb_func
 729              	getTotalBits:
 730              	.LVL82:
 731              	.LFB35:
 976:lvgl/src/extra/libs/qrcode/qrcodegen.c **** 	assert(segs != NULL || len == 0);
 732              		.loc 1 976 91 is_stmt 1 view -0
 733              		.cfi_startproc
 734              		@ args = 0, pretend = 0, frame = 0
 735              		@ frame_needed = 0, uses_anonymous_args = 0
 976:lvgl/src/extra/libs/qrcode/qrcodegen.c **** 	assert(segs != NULL || len == 0);
 736              		.loc 1 976 91 is_stmt 0 view .LVU182
 737 0000 2DE9F047 		push	{r4, r5, r6, r7, r8, r9, r10, lr}
 738              	.LCFI9:
 739              		.cfi_def_cfa_offset 32
 740              		.cfi_offset 4, -32
 741              		.cfi_offset 5, -28
 742              		.cfi_offset 6, -24
 743              		.cfi_offset 7, -20
 744              		.cfi_offset 8, -16
 745              		.cfi_offset 9, -12
 746              		.cfi_offset 10, -8
 747              		.cfi_offset 14, -4
 977:lvgl/src/extra/libs/qrcode/qrcodegen.c **** 	long result = 0;
 748              		.loc 1 977 2 is_stmt 1 view .LVU183
 749 0004 8046     		mov	r8, r0
 750 0006 B0FA80F0 		clz	r0, r0
 751              	.LVL83:
 977:lvgl/src/extra/libs/qrcode/qrcodegen.c **** 	long result = 0;
 752              		.loc 1 977 2 is_stmt 0 view .LVU184
 753 000a 4009     		lsrs	r0, r0, #5
 754 000c 0029     		cmp	r1, #0
 755 000e 08BF     		it	eq
 756 0010 0020     		moveq	r0, #0
 757 0012 18BB     		cbnz	r0, .L85
 758 0014 9146     		mov	r9, r2
 759 0016 8A46     		mov	r10, r1
 760              	.LBB11:
 979:lvgl/src/extra/libs/qrcode/qrcodegen.c **** 		int numChars  = segs[i].numChars;
 761              		.loc 1 979 14 view .LVU185
 762 0018 0024     		movs	r4, #0
 763              	.LBE11:
 978:lvgl/src/extra/libs/qrcode/qrcodegen.c **** 	for (size_t i = 0; i < len; i++) {
 764              		.loc 1 978 7 view .LVU186
 765 001a 2546     		mov	r5, r4
 766              	.LVL84:
 767              	.L75:
 768              	.LBB15:
 979:lvgl/src/extra/libs/qrcode/qrcodegen.c **** 		int numChars  = segs[i].numChars;
 769              		.loc 1 979 23 is_stmt 1 discriminator 1 view .LVU187
 770 001c 5445     		cmp	r4, r10
 771 001e 39D2     		bcs	.L86
ARM GAS  C:\usertemp\ccXENK9d.s 			page 34


 772              	.LBB12:
 980:lvgl/src/extra/libs/qrcode/qrcodegen.c **** 		int bitLength = segs[i].bitLength;
 773              		.loc 1 980 3 view .LVU188
 980:lvgl/src/extra/libs/qrcode/qrcodegen.c **** 		int bitLength = segs[i].bitLength;
 774              		.loc 1 980 23 is_stmt 0 view .LVU189
 775 0020 2201     		lsls	r2, r4, #4
 776 0022 08EB0413 		add	r3, r8, r4, lsl #4
 980:lvgl/src/extra/libs/qrcode/qrcodegen.c **** 		int bitLength = segs[i].bitLength;
 777              		.loc 1 980 7 view .LVU190
 778 0026 5E68     		ldr	r6, [r3, #4]
 779              	.LVL85:
 981:lvgl/src/extra/libs/qrcode/qrcodegen.c **** 		assert(0 <= numChars  && numChars  <= INT16_MAX);
 780              		.loc 1 981 3 is_stmt 1 view .LVU191
 981:lvgl/src/extra/libs/qrcode/qrcodegen.c **** 		assert(0 <= numChars  && numChars  <= INT16_MAX);
 781              		.loc 1 981 7 is_stmt 0 view .LVU192
 782 0028 DF68     		ldr	r7, [r3, #12]
 783              	.LVL86:
 982:lvgl/src/extra/libs/qrcode/qrcodegen.c **** 		assert(0 <= bitLength && bitLength <= INT16_MAX);
 784              		.loc 1 982 3 is_stmt 1 view .LVU193
 785 002a B6F5004F 		cmp	r6, #32768
 786 002e 1CD2     		bcs	.L87
 983:lvgl/src/extra/libs/qrcode/qrcodegen.c **** 		int ccbits = numCharCountBits(segs[i].mode, version);
 787              		.loc 1 983 3 view .LVU194
 788 0030 B7F5004F 		cmp	r7, #32768
 789 0034 20D2     		bcs	.L88
 984:lvgl/src/extra/libs/qrcode/qrcodegen.c **** 		assert(0 <= ccbits && ccbits <= 16);
 790              		.loc 1 984 3 view .LVU195
 984:lvgl/src/extra/libs/qrcode/qrcodegen.c **** 		assert(0 <= ccbits && ccbits <= 16);
 791              		.loc 1 984 16 is_stmt 0 view .LVU196
 792 0036 4946     		mov	r1, r9
 793 0038 18F80200 		ldrb	r0, [r8, r2]	@ zero_extendqisi2
 794 003c FFF7FEFF 		bl	numCharCountBits
 795              	.LVL87:
 985:lvgl/src/extra/libs/qrcode/qrcodegen.c **** 		if (numChars >= (1L << ccbits))
 796              		.loc 1 985 3 is_stmt 1 view .LVU197
 797 0040 1028     		cmp	r0, #16
 798 0042 20D8     		bhi	.L89
 986:lvgl/src/extra/libs/qrcode/qrcodegen.c **** 			return -1;  // The segment's length doesn't fit the field's bit width
 799              		.loc 1 986 3 view .LVU198
 986:lvgl/src/extra/libs/qrcode/qrcodegen.c **** 			return -1;  // The segment's length doesn't fit the field's bit width
 800              		.loc 1 986 23 is_stmt 0 view .LVU199
 801 0044 0123     		movs	r3, #1
 802 0046 8340     		lsls	r3, r3, r0
 986:lvgl/src/extra/libs/qrcode/qrcodegen.c **** 			return -1;  // The segment's length doesn't fit the field's bit width
 803              		.loc 1 986 6 view .LVU200
 804 0048 B342     		cmp	r3, r6
 805 004a 30DD     		ble	.L82
 988:lvgl/src/extra/libs/qrcode/qrcodegen.c **** 		if (result > INT16_MAX)
 806              		.loc 1 988 3 is_stmt 1 view .LVU201
 988:lvgl/src/extra/libs/qrcode/qrcodegen.c **** 		if (result > INT16_MAX)
 807              		.loc 1 988 16 is_stmt 0 view .LVU202
 808 004c 0430     		adds	r0, r0, #4
 809              	.LVL88:
 988:lvgl/src/extra/libs/qrcode/qrcodegen.c **** 		if (result > INT16_MAX)
 810              		.loc 1 988 25 view .LVU203
 811 004e 3844     		add	r0, r0, r7
 812              	.LVL89:
ARM GAS  C:\usertemp\ccXENK9d.s 			page 35


 988:lvgl/src/extra/libs/qrcode/qrcodegen.c **** 		if (result > INT16_MAX)
 813              		.loc 1 988 10 view .LVU204
 814 0050 0544     		add	r5, r5, r0
 815              	.LVL90:
 989:lvgl/src/extra/libs/qrcode/qrcodegen.c **** 			return -1;  // The sum might overflow an int type
 816              		.loc 1 989 3 is_stmt 1 view .LVU205
 989:lvgl/src/extra/libs/qrcode/qrcodegen.c **** 			return -1;  // The sum might overflow an int type
 817              		.loc 1 989 6 is_stmt 0 view .LVU206
 818 0052 B5F5004F 		cmp	r5, #32768
 819 0056 2DDA     		bge	.L83
 820              	.LBE12:
 979:lvgl/src/extra/libs/qrcode/qrcodegen.c **** 		int numChars  = segs[i].numChars;
 821              		.loc 1 979 31 is_stmt 1 discriminator 2 view .LVU207
 822 0058 0134     		adds	r4, r4, #1
 823              	.LVL91:
 979:lvgl/src/extra/libs/qrcode/qrcodegen.c **** 		int numChars  = segs[i].numChars;
 824              		.loc 1 979 31 is_stmt 0 discriminator 2 view .LVU208
 825 005a DFE7     		b	.L75
 826              	.LVL92:
 827              	.L85:
 979:lvgl/src/extra/libs/qrcode/qrcodegen.c **** 		int numChars  = segs[i].numChars;
 828              		.loc 1 979 31 discriminator 2 view .LVU209
 829              	.LBE15:
 977:lvgl/src/extra/libs/qrcode/qrcodegen.c **** 	long result = 0;
 830              		.loc 1 977 2 discriminator 1 view .LVU210
 831 005c 174B     		ldr	r3, .L91
 832 005e 184A     		ldr	r2, .L91+4
 833              	.LVL93:
 977:lvgl/src/extra/libs/qrcode/qrcodegen.c **** 	long result = 0;
 834              		.loc 1 977 2 discriminator 1 view .LVU211
 835 0060 40F2D131 		movw	r1, #977
 836              	.LVL94:
 977:lvgl/src/extra/libs/qrcode/qrcodegen.c **** 	long result = 0;
 837              		.loc 1 977 2 discriminator 1 view .LVU212
 838 0064 1748     		ldr	r0, .L91+8
 839 0066 FFF7FEFF 		bl	__assert_func
 840              	.LVL95:
 841              	.L87:
 842              	.LBB16:
 843              	.LBB13:
 982:lvgl/src/extra/libs/qrcode/qrcodegen.c **** 		assert(0 <= bitLength && bitLength <= INT16_MAX);
 844              		.loc 1 982 3 discriminator 1 view .LVU213
 845 006a 174B     		ldr	r3, .L91+12
 846 006c 144A     		ldr	r2, .L91+4
 847 006e 40F2D631 		movw	r1, #982
 848 0072 1448     		ldr	r0, .L91+8
 849 0074 FFF7FEFF 		bl	__assert_func
 850              	.LVL96:
 851              	.L88:
 983:lvgl/src/extra/libs/qrcode/qrcodegen.c **** 		int ccbits = numCharCountBits(segs[i].mode, version);
 852              		.loc 1 983 3 discriminator 1 view .LVU214
 853 0078 144B     		ldr	r3, .L91+16
 854 007a 114A     		ldr	r2, .L91+4
 855 007c 40F2D731 		movw	r1, #983
 856 0080 1048     		ldr	r0, .L91+8
 857 0082 FFF7FEFF 		bl	__assert_func
 858              	.LVL97:
ARM GAS  C:\usertemp\ccXENK9d.s 			page 36


 859              	.L89:
 985:lvgl/src/extra/libs/qrcode/qrcodegen.c **** 		if (numChars >= (1L << ccbits))
 860              		.loc 1 985 3 discriminator 1 view .LVU215
 861 0086 124B     		ldr	r3, .L91+20
 862 0088 0D4A     		ldr	r2, .L91+4
 863 008a 40F2D931 		movw	r1, #985
 864 008e 0D48     		ldr	r0, .L91+8
 865              	.LVL98:
 985:lvgl/src/extra/libs/qrcode/qrcodegen.c **** 		if (numChars >= (1L << ccbits))
 866              		.loc 1 985 3 discriminator 1 view .LVU216
 867 0090 FFF7FEFF 		bl	__assert_func
 868              	.LVL99:
 869              	.L86:
 985:lvgl/src/extra/libs/qrcode/qrcodegen.c **** 		if (numChars >= (1L << ccbits))
 870              		.loc 1 985 3 discriminator 1 view .LVU217
 871              	.LBE13:
 872              	.LBE16:
 992:lvgl/src/extra/libs/qrcode/qrcodegen.c **** 	return (int)result;
 873              		.loc 1 992 2 is_stmt 1 view .LVU218
 874 0094 B5F5004F 		cmp	r5, #32768
 875 0098 02D2     		bcs	.L90
 876              	.LVL100:
 877              	.L74:
 994:lvgl/src/extra/libs/qrcode/qrcodegen.c **** 
 878              		.loc 1 994 1 is_stmt 0 view .LVU219
 879 009a 2846     		mov	r0, r5
 880 009c BDE8F087 		pop	{r4, r5, r6, r7, r8, r9, r10, pc}
 881              	.LVL101:
 882              	.L90:
 992:lvgl/src/extra/libs/qrcode/qrcodegen.c **** 	return (int)result;
 883              		.loc 1 992 2 discriminator 1 view .LVU220
 884 00a0 0C4B     		ldr	r3, .L91+24
 885 00a2 074A     		ldr	r2, .L91+4
 886 00a4 4FF47871 		mov	r1, #992
 887 00a8 0648     		ldr	r0, .L91+8
 888 00aa FFF7FEFF 		bl	__assert_func
 889              	.LVL102:
 890              	.L82:
 891              	.LBB17:
 892              	.LBB14:
 987:lvgl/src/extra/libs/qrcode/qrcodegen.c **** 		result += 4L + ccbits + bitLength;
 893              		.loc 1 987 11 view .LVU221
 894 00ae 4FF0FF35 		mov	r5, #-1
 895              	.LVL103:
 987:lvgl/src/extra/libs/qrcode/qrcodegen.c **** 		result += 4L + ccbits + bitLength;
 896              		.loc 1 987 11 view .LVU222
 897 00b2 F2E7     		b	.L74
 898              	.LVL104:
 899              	.L83:
 990:lvgl/src/extra/libs/qrcode/qrcodegen.c **** 	}
 900              		.loc 1 990 11 view .LVU223
 901 00b4 4FF0FF35 		mov	r5, #-1
 902              	.LVL105:
 990:lvgl/src/extra/libs/qrcode/qrcodegen.c **** 	}
 903              		.loc 1 990 11 view .LVU224
 904 00b8 EFE7     		b	.L74
 905              	.L92:
ARM GAS  C:\usertemp\ccXENK9d.s 			page 37


 906 00ba 00BF     		.align	2
 907              	.L91:
 908 00bc 00000000 		.word	.LC4
 909 00c0 00000000 		.word	__func__.27
 910 00c4 08000000 		.word	.LC1
 911 00c8 1C000000 		.word	.LC5
 912 00cc 44000000 		.word	.LC6
 913 00d0 70000000 		.word	.LC7
 914 00d4 8C000000 		.word	.LC8
 915              	.LBE14:
 916              	.LBE17:
 917              		.cfi_endproc
 918              	.LFE35:
 920              		.section	.rodata.appendBitsToBuffer.str1.4,"aMS",%progbits,1
 921              		.align	2
 922              	.LC9:
 923 0000 30203C3D 		.ascii	"0 <= numBits && numBits <= 16 && (unsigned long)val"
 923      206E756D 
 923      42697473 
 923      20262620 
 923      6E756D42 
 924 0033 203E3E20 		.ascii	" >> numBits == 0\000"
 924      6E756D42 
 924      69747320 
 924      3D3D2030 
 924      00
 925              		.section	.text.appendBitsToBuffer,"ax",%progbits
 926              		.align	1
 927              		.syntax unified
 928              		.thumb
 929              		.thumb_func
 931              	appendBitsToBuffer:
 932              	.LVL106:
 933              	.LFB2:
 184:lvgl/src/extra/libs/qrcode/qrcodegen.c **** 	assert(0 <= numBits && numBits <= 16 && (unsigned long)val >> numBits == 0);
 934              		.loc 1 184 96 is_stmt 1 view -0
 935              		.cfi_startproc
 936              		@ args = 0, pretend = 0, frame = 0
 937              		@ frame_needed = 0, uses_anonymous_args = 0
 184:lvgl/src/extra/libs/qrcode/qrcodegen.c **** 	assert(0 <= numBits && numBits <= 16 && (unsigned long)val >> numBits == 0);
 938              		.loc 1 184 96 is_stmt 0 view .LVU226
 939 0000 38B5     		push	{r3, r4, r5, lr}
 940              	.LCFI10:
 941              		.cfi_def_cfa_offset 16
 942              		.cfi_offset 3, -16
 943              		.cfi_offset 4, -12
 944              		.cfi_offset 5, -8
 945              		.cfi_offset 14, -4
 185:lvgl/src/extra/libs/qrcode/qrcodegen.c **** 	for (int i = numBits - 1; i >= 0; i--, (*bitLen)++)
 946              		.loc 1 185 2 is_stmt 1 view .LVU227
 947 0002 1029     		cmp	r1, #16
 948 0004 05D8     		bhi	.L94
 185:lvgl/src/extra/libs/qrcode/qrcodegen.c **** 	for (int i = numBits - 1; i >= 0; i--, (*bitLen)++)
 949              		.loc 1 185 2 is_stmt 0 discriminator 2 view .LVU228
 950 0006 30FA01F4 		lsrs	r4, r0, r1
 951 000a 02D1     		bne	.L94
 186:lvgl/src/extra/libs/qrcode/qrcodegen.c **** 		buffer[*bitLen >> 3] |= ((val >> i) & 1) << (7 - (*bitLen & 7));
ARM GAS  C:\usertemp\ccXENK9d.s 			page 38


 952              		.loc 1 186 2 is_stmt 1 view .LVU229
 953              	.LBB18:
 186:lvgl/src/extra/libs/qrcode/qrcodegen.c **** 		buffer[*bitLen >> 3] |= ((val >> i) & 1) << (7 - (*bitLen & 7));
 954              		.loc 1 186 7 view .LVU230
 186:lvgl/src/extra/libs/qrcode/qrcodegen.c **** 		buffer[*bitLen >> 3] |= ((val >> i) & 1) << (7 - (*bitLen & 7));
 955              		.loc 1 186 11 is_stmt 0 view .LVU231
 956 000c 01F1FF3E 		add	lr, r1, #-1
 957              	.LVL107:
 186:lvgl/src/extra/libs/qrcode/qrcodegen.c **** 		buffer[*bitLen >> 3] |= ((val >> i) & 1) << (7 - (*bitLen & 7));
 958              		.loc 1 186 2 view .LVU232
 959 0010 18E0     		b	.L96
 960              	.LVL108:
 961              	.L94:
 186:lvgl/src/extra/libs/qrcode/qrcodegen.c **** 		buffer[*bitLen >> 3] |= ((val >> i) & 1) << (7 - (*bitLen & 7));
 962              		.loc 1 186 2 view .LVU233
 963              	.LBE18:
 185:lvgl/src/extra/libs/qrcode/qrcodegen.c **** 	for (int i = numBits - 1; i >= 0; i--, (*bitLen)++)
 964              		.loc 1 185 2 discriminator 3 view .LVU234
 965 0012 0E4B     		ldr	r3, .L99
 966              	.LVL109:
 185:lvgl/src/extra/libs/qrcode/qrcodegen.c **** 	for (int i = numBits - 1; i >= 0; i--, (*bitLen)++)
 967              		.loc 1 185 2 discriminator 3 view .LVU235
 968 0014 0E4A     		ldr	r2, .L99+4
 969              	.LVL110:
 185:lvgl/src/extra/libs/qrcode/qrcodegen.c **** 	for (int i = numBits - 1; i >= 0; i--, (*bitLen)++)
 970              		.loc 1 185 2 discriminator 3 view .LVU236
 971 0016 B921     		movs	r1, #185
 972              	.LVL111:
 185:lvgl/src/extra/libs/qrcode/qrcodegen.c **** 	for (int i = numBits - 1; i >= 0; i--, (*bitLen)++)
 973              		.loc 1 185 2 discriminator 3 view .LVU237
 974 0018 0E48     		ldr	r0, .L99+8
 975              	.LVL112:
 185:lvgl/src/extra/libs/qrcode/qrcodegen.c **** 	for (int i = numBits - 1; i >= 0; i--, (*bitLen)++)
 976              		.loc 1 185 2 discriminator 3 view .LVU238
 977 001a FFF7FEFF 		bl	__assert_func
 978              	.LVL113:
 979              	.L97:
 980              	.LBB19:
 187:lvgl/src/extra/libs/qrcode/qrcodegen.c **** }
 981              		.loc 1 187 3 is_stmt 1 view .LVU239
 187:lvgl/src/extra/libs/qrcode/qrcodegen.c **** }
 982              		.loc 1 187 10 is_stmt 0 view .LVU240
 983 001e 1968     		ldr	r1, [r3]
 187:lvgl/src/extra/libs/qrcode/qrcodegen.c **** }
 984              		.loc 1 187 9 view .LVU241
 985 0020 CD10     		asrs	r5, r1, #3
 986 0022 545D     		ldrb	r4, [r2, r5]	@ zero_extendqisi2
 187:lvgl/src/extra/libs/qrcode/qrcodegen.c **** }
 987              		.loc 1 187 33 view .LVU242
 988 0024 20FA0EFC 		lsr	ip, r0, lr
 187:lvgl/src/extra/libs/qrcode/qrcodegen.c **** }
 989              		.loc 1 187 39 view .LVU243
 990 0028 0CF0010C 		and	ip, ip, #1
 187:lvgl/src/extra/libs/qrcode/qrcodegen.c **** }
 991              		.loc 1 187 50 view .LVU244
 992 002c C943     		mvns	r1, r1
 993 002e 01F00701 		and	r1, r1, #7
ARM GAS  C:\usertemp\ccXENK9d.s 			page 39


 187:lvgl/src/extra/libs/qrcode/qrcodegen.c **** }
 994              		.loc 1 187 44 view .LVU245
 995 0032 0CFA01F1 		lsl	r1, ip, r1
 187:lvgl/src/extra/libs/qrcode/qrcodegen.c **** }
 996              		.loc 1 187 24 view .LVU246
 997 0036 2143     		orrs	r1, r1, r4
 998 0038 5155     		strb	r1, [r2, r5]
 186:lvgl/src/extra/libs/qrcode/qrcodegen.c **** 		buffer[*bitLen >> 3] |= ((val >> i) & 1) << (7 - (*bitLen & 7));
 999              		.loc 1 186 39 is_stmt 1 discriminator 3 view .LVU247
 186:lvgl/src/extra/libs/qrcode/qrcodegen.c **** 		buffer[*bitLen >> 3] |= ((val >> i) & 1) << (7 - (*bitLen & 7));
 1000              		.loc 1 186 37 is_stmt 0 discriminator 3 view .LVU248
 1001 003a 0EF1FF3E 		add	lr, lr, #-1
 1002              	.LVL114:
 186:lvgl/src/extra/libs/qrcode/qrcodegen.c **** 		buffer[*bitLen >> 3] |= ((val >> i) & 1) << (7 - (*bitLen & 7));
 1003              		.loc 1 186 42 discriminator 3 view .LVU249
 1004 003e 1968     		ldr	r1, [r3]
 186:lvgl/src/extra/libs/qrcode/qrcodegen.c **** 		buffer[*bitLen >> 3] |= ((val >> i) & 1) << (7 - (*bitLen & 7));
 1005              		.loc 1 186 50 discriminator 3 view .LVU250
 1006 0040 0131     		adds	r1, r1, #1
 1007 0042 1960     		str	r1, [r3]
 1008              	.L96:
 186:lvgl/src/extra/libs/qrcode/qrcodegen.c **** 		buffer[*bitLen >> 3] |= ((val >> i) & 1) << (7 - (*bitLen & 7));
 1009              		.loc 1 186 30 is_stmt 1 discriminator 1 view .LVU251
 1010 0044 BEF1000F 		cmp	lr, #0
 1011 0048 E9DA     		bge	.L97
 186:lvgl/src/extra/libs/qrcode/qrcodegen.c **** 		buffer[*bitLen >> 3] |= ((val >> i) & 1) << (7 - (*bitLen & 7));
 1012              		.loc 1 186 30 is_stmt 0 discriminator 1 view .LVU252
 1013              	.LBE19:
 188:lvgl/src/extra/libs/qrcode/qrcodegen.c **** 
 1014              		.loc 1 188 1 view .LVU253
 1015 004a 38BD     		pop	{r3, r4, r5, pc}
 1016              	.LVL115:
 1017              	.L100:
 188:lvgl/src/extra/libs/qrcode/qrcodegen.c **** 
 1018              		.loc 1 188 1 view .LVU254
 1019              		.align	2
 1020              	.L99:
 1021 004c 00000000 		.word	.LC9
 1022 0050 00000000 		.word	__func__.20
 1023 0054 08000000 		.word	.LC1
 1024              		.cfi_endproc
 1025              	.LFE2:
 1027              		.section	.rodata.getNumRawDataModules.str1.4,"aMS",%progbits,1
 1028              		.align	2
 1029              	.LC10:
 1030 0000 7172636F 		.ascii	"qrcodegen_VERSION_MIN <= ver && ver <= qrcodegen_VE"
 1030      64656765 
 1030      6E5F5645 
 1030      5253494F 
 1030      4E5F4D49 
 1031 0033 5253494F 		.ascii	"RSION_MAX\000"
 1031      4E5F4D41 
 1031      5800
 1032              		.section	.text.getNumRawDataModules,"ax",%progbits
 1033              		.align	1
 1034              		.syntax unified
 1035              		.thumb
ARM GAS  C:\usertemp\ccXENK9d.s 			page 40


 1036              		.thumb_func
 1038              	getNumRawDataModules:
 1039              	.LVL116:
 1040              	.LFB7:
 336:lvgl/src/extra/libs/qrcode/qrcodegen.c **** 	assert(qrcodegen_VERSION_MIN <= ver && ver <= qrcodegen_VERSION_MAX);
 1041              		.loc 1 336 44 is_stmt 1 view -0
 1042              		.cfi_startproc
 1043              		@ args = 0, pretend = 0, frame = 0
 1044              		@ frame_needed = 0, uses_anonymous_args = 0
 336:lvgl/src/extra/libs/qrcode/qrcodegen.c **** 	assert(qrcodegen_VERSION_MIN <= ver && ver <= qrcodegen_VERSION_MAX);
 1045              		.loc 1 336 44 is_stmt 0 view .LVU256
 1046 0000 08B5     		push	{r3, lr}
 1047              	.LCFI11:
 1048              		.cfi_def_cfa_offset 8
 1049              		.cfi_offset 3, -8
 1050              		.cfi_offset 14, -4
 337:lvgl/src/extra/libs/qrcode/qrcodegen.c **** 	int result = (16 * ver + 128) * ver + 64;
 1051              		.loc 1 337 2 is_stmt 1 view .LVU257
 1052 0002 431E     		subs	r3, r0, #1
 1053 0004 272B     		cmp	r3, #39
 1054 0006 1DD8     		bhi	.L105
 1055 0008 0246     		mov	r2, r0
 338:lvgl/src/extra/libs/qrcode/qrcodegen.c **** 	if (ver >= 2) {
 1056              		.loc 1 338 2 view .LVU258
 338:lvgl/src/extra/libs/qrcode/qrcodegen.c **** 	if (ver >= 2) {
 1057              		.loc 1 338 25 is_stmt 0 view .LVU259
 1058 000a 00F10803 		add	r3, r0, #8
 338:lvgl/src/extra/libs/qrcode/qrcodegen.c **** 	if (ver >= 2) {
 1059              		.loc 1 338 32 view .LVU260
 1060 000e 00FB03F3 		mul	r3, r0, r3
 338:lvgl/src/extra/libs/qrcode/qrcodegen.c **** 	if (ver >= 2) {
 1061              		.loc 1 338 38 view .LVU261
 1062 0012 0433     		adds	r3, r3, #4
 338:lvgl/src/extra/libs/qrcode/qrcodegen.c **** 	if (ver >= 2) {
 1063              		.loc 1 338 6 view .LVU262
 1064 0014 1801     		lsls	r0, r3, #4
 1065              	.LVL117:
 339:lvgl/src/extra/libs/qrcode/qrcodegen.c **** 		int numAlign = ver / 7 + 2;
 1066              		.loc 1 339 2 is_stmt 1 view .LVU263
 339:lvgl/src/extra/libs/qrcode/qrcodegen.c **** 		int numAlign = ver / 7 + 2;
 1067              		.loc 1 339 5 is_stmt 0 view .LVU264
 1068 0016 012A     		cmp	r2, #1
 1069 0018 13DD     		ble	.L101
 1070              	.LBB20:
 340:lvgl/src/extra/libs/qrcode/qrcodegen.c **** 		result -= (25 * numAlign - 10) * numAlign - 55;
 1071              		.loc 1 340 3 is_stmt 1 view .LVU265
 340:lvgl/src/extra/libs/qrcode/qrcodegen.c **** 		result -= (25 * numAlign - 10) * numAlign - 55;
 1072              		.loc 1 340 22 is_stmt 0 view .LVU266
 1073 001a 0E4B     		ldr	r3, .L106
 1074 001c 83FB0213 		smull	r1, r3, r3, r2
 1075 0020 1344     		add	r3, r3, r2
 1076 0022 D117     		asrs	r1, r2, #31
 1077 0024 C1EBA301 		rsb	r1, r1, r3, asr #2
 340:lvgl/src/extra/libs/qrcode/qrcodegen.c **** 		result -= (25 * numAlign - 10) * numAlign - 55;
 1078              		.loc 1 340 7 view .LVU267
 1079 0028 0231     		adds	r1, r1, #2
 1080              	.LVL118:
ARM GAS  C:\usertemp\ccXENK9d.s 			page 41


 341:lvgl/src/extra/libs/qrcode/qrcodegen.c **** 		if (ver >= 7)
 1081              		.loc 1 341 3 is_stmt 1 view .LVU268
 341:lvgl/src/extra/libs/qrcode/qrcodegen.c **** 		if (ver >= 7)
 1082              		.loc 1 341 17 is_stmt 0 view .LVU269
 1083 002a 01EB8103 		add	r3, r1, r1, lsl #2
 1084 002e 03EB8303 		add	r3, r3, r3, lsl #2
 341:lvgl/src/extra/libs/qrcode/qrcodegen.c **** 		if (ver >= 7)
 1085              		.loc 1 341 28 view .LVU270
 1086 0032 0A3B     		subs	r3, r3, #10
 341:lvgl/src/extra/libs/qrcode/qrcodegen.c **** 		if (ver >= 7)
 1087              		.loc 1 341 34 view .LVU271
 1088 0034 01FB03F3 		mul	r3, r1, r3
 341:lvgl/src/extra/libs/qrcode/qrcodegen.c **** 		if (ver >= 7)
 1089              		.loc 1 341 45 view .LVU272
 1090 0038 373B     		subs	r3, r3, #55
 341:lvgl/src/extra/libs/qrcode/qrcodegen.c **** 		if (ver >= 7)
 1091              		.loc 1 341 10 view .LVU273
 1092 003a C01A     		subs	r0, r0, r3
 1093              	.LVL119:
 342:lvgl/src/extra/libs/qrcode/qrcodegen.c **** 			result -= 36;
 1094              		.loc 1 342 3 is_stmt 1 view .LVU274
 342:lvgl/src/extra/libs/qrcode/qrcodegen.c **** 			result -= 36;
 1095              		.loc 1 342 6 is_stmt 0 view .LVU275
 1096 003c 062A     		cmp	r2, #6
 1097 003e 00DD     		ble	.L101
 343:lvgl/src/extra/libs/qrcode/qrcodegen.c **** 	}
 1098              		.loc 1 343 4 is_stmt 1 view .LVU276
 343:lvgl/src/extra/libs/qrcode/qrcodegen.c **** 	}
 1099              		.loc 1 343 11 is_stmt 0 view .LVU277
 1100 0040 2438     		subs	r0, r0, #36
 1101              	.LVL120:
 343:lvgl/src/extra/libs/qrcode/qrcodegen.c **** 	}
 1102              		.loc 1 343 11 view .LVU278
 1103              	.LBE20:
 345:lvgl/src/extra/libs/qrcode/qrcodegen.c **** }
 1104              		.loc 1 345 2 is_stmt 1 view .LVU279
 1105              	.L101:
 346:lvgl/src/extra/libs/qrcode/qrcodegen.c **** 
 1106              		.loc 1 346 1 is_stmt 0 view .LVU280
 1107 0042 08BD     		pop	{r3, pc}
 1108              	.LVL121:
 1109              	.L105:
 337:lvgl/src/extra/libs/qrcode/qrcodegen.c **** 	int result = (16 * ver + 128) * ver + 64;
 1110              		.loc 1 337 2 discriminator 1 view .LVU281
 1111 0044 044B     		ldr	r3, .L106+4
 1112 0046 054A     		ldr	r2, .L106+8
 1113 0048 40F25111 		movw	r1, #337
 1114 004c 0448     		ldr	r0, .L106+12
 1115              	.LVL122:
 337:lvgl/src/extra/libs/qrcode/qrcodegen.c **** 	int result = (16 * ver + 128) * ver + 64;
 1116              		.loc 1 337 2 discriminator 1 view .LVU282
 1117 004e FFF7FEFF 		bl	__assert_func
 1118              	.LVL123:
 1119              	.L107:
 1120 0052 00BF     		.align	2
 1121              	.L106:
 1122 0054 93244992 		.word	-1840700269
ARM GAS  C:\usertemp\ccXENK9d.s 			page 42


 1123 0058 00000000 		.word	.LC10
 1124 005c 00000000 		.word	__func__.16
 1125 0060 08000000 		.word	.LC1
 1126              		.cfi_endproc
 1127              	.LFE7:
 1129              		.section	.rodata.getNumDataCodewords.str1.4,"aMS",%progbits,1
 1130              		.align	2
 1131              	.LC11:
 1132 0000 30203C3D 		.ascii	"0 <= e && e < 4\000"
 1132      20652026 
 1132      26206520 
 1132      3C203400 
 1133              		.section	.text.getNumDataCodewords,"ax",%progbits
 1134              		.align	1
 1135              		.syntax unified
 1136              		.thumb
 1137              		.thumb_func
 1139              	getNumDataCodewords:
 1140              	.LVL124:
 1141              	.LFB6:
 324:lvgl/src/extra/libs/qrcode/qrcodegen.c **** 	int v = version, e = (int)ecl;
 1142              		.loc 1 324 71 is_stmt 1 view -0
 1143              		.cfi_startproc
 1144              		@ args = 0, pretend = 0, frame = 0
 1145              		@ frame_needed = 0, uses_anonymous_args = 0
 324:lvgl/src/extra/libs/qrcode/qrcodegen.c **** 	int v = version, e = (int)ecl;
 1146              		.loc 1 324 71 is_stmt 0 view .LVU284
 1147 0000 38B5     		push	{r3, r4, r5, lr}
 1148              	.LCFI12:
 1149              		.cfi_def_cfa_offset 16
 1150              		.cfi_offset 3, -16
 1151              		.cfi_offset 4, -12
 1152              		.cfi_offset 5, -8
 1153              		.cfi_offset 14, -4
 325:lvgl/src/extra/libs/qrcode/qrcodegen.c **** 	assert(0 <= e && e < 4);
 1154              		.loc 1 325 2 is_stmt 1 view .LVU285
 1155              	.LVL125:
 326:lvgl/src/extra/libs/qrcode/qrcodegen.c **** 	return getNumRawDataModules(v) / 8
 1156              		.loc 1 326 2 view .LVU286
 1157 0002 0329     		cmp	r1, #3
 1158 0004 14D8     		bhi	.L112
 1159 0006 0546     		mov	r5, r0
 1160 0008 0C46     		mov	r4, r1
 1161              	.LVL126:
 327:lvgl/src/extra/libs/qrcode/qrcodegen.c **** 		- ECC_CODEWORDS_PER_BLOCK    [e][v]
 1162              		.loc 1 327 2 view .LVU287
 327:lvgl/src/extra/libs/qrcode/qrcodegen.c **** 		- ECC_CODEWORDS_PER_BLOCK    [e][v]
 1163              		.loc 1 327 9 is_stmt 0 view .LVU288
 1164 000a FFF7FEFF 		bl	getNumRawDataModules
 1165              	.LVL127:
 327:lvgl/src/extra/libs/qrcode/qrcodegen.c **** 		- ECC_CODEWORDS_PER_BLOCK    [e][v]
 1166              		.loc 1 327 33 discriminator 1 view .LVU289
 1167 000e 0028     		cmp	r0, #0
 1168 0010 15DB     		blt	.L113
 1169              	.L110:
 328:lvgl/src/extra/libs/qrcode/qrcodegen.c **** 		* NUM_ERROR_CORRECTION_BLOCKS[e][v];
 1170              		.loc 1 328 35 view .LVU290
ARM GAS  C:\usertemp\ccXENK9d.s 			page 43


 1171 0012 04EB8403 		add	r3, r4, r4, lsl #2
 1172 0016 04EBC304 		add	r4, r4, r3, lsl #3
 1173              	.LVL128:
 328:lvgl/src/extra/libs/qrcode/qrcodegen.c **** 		* NUM_ERROR_CORRECTION_BLOCKS[e][v];
 1174              		.loc 1 328 35 view .LVU291
 1175 001a 0A4B     		ldr	r3, .L114
 1176 001c 2344     		add	r3, r3, r4
 1177 001e 5B57     		ldrsb	r3, [r3, r5]
 329:lvgl/src/extra/libs/qrcode/qrcodegen.c **** }
 1178              		.loc 1 329 35 view .LVU292
 1179 0020 094A     		ldr	r2, .L114+4
 1180 0022 2244     		add	r2, r2, r4
 1181 0024 5257     		ldrsb	r2, [r2, r5]
 329:lvgl/src/extra/libs/qrcode/qrcodegen.c **** }
 1182              		.loc 1 329 3 view .LVU293
 1183 0026 02FB03F3 		mul	r3, r2, r3
 330:lvgl/src/extra/libs/qrcode/qrcodegen.c **** 
 1184              		.loc 1 330 1 view .LVU294
 1185 002a C3EBE000 		rsb	r0, r3, r0, asr #3
 1186 002e 38BD     		pop	{r3, r4, r5, pc}
 1187              	.LVL129:
 1188              	.L112:
 326:lvgl/src/extra/libs/qrcode/qrcodegen.c **** 	return getNumRawDataModules(v) / 8
 1189              		.loc 1 326 2 discriminator 1 view .LVU295
 1190 0030 064B     		ldr	r3, .L114+8
 1191 0032 074A     		ldr	r2, .L114+12
 1192 0034 4FF4A371 		mov	r1, #326
 1193              	.LVL130:
 326:lvgl/src/extra/libs/qrcode/qrcodegen.c **** 	return getNumRawDataModules(v) / 8
 1194              		.loc 1 326 2 discriminator 1 view .LVU296
 1195 0038 0648     		ldr	r0, .L114+16
 1196              	.LVL131:
 326:lvgl/src/extra/libs/qrcode/qrcodegen.c **** 	return getNumRawDataModules(v) / 8
 1197              		.loc 1 326 2 discriminator 1 view .LVU297
 1198 003a FFF7FEFF 		bl	__assert_func
 1199              	.LVL132:
 1200              	.L113:
 327:lvgl/src/extra/libs/qrcode/qrcodegen.c **** 		- ECC_CODEWORDS_PER_BLOCK    [e][v]
 1201              		.loc 1 327 33 discriminator 1 view .LVU298
 1202 003e 0730     		adds	r0, r0, #7
 1203 0040 E7E7     		b	.L110
 1204              	.L115:
 1205 0042 00BF     		.align	2
 1206              	.L114:
 1207 0044 00000000 		.word	ECC_CODEWORDS_PER_BLOCK
 1208 0048 00000000 		.word	NUM_ERROR_CORRECTION_BLOCKS
 1209 004c 00000000 		.word	.LC11
 1210 0050 00000000 		.word	__func__.21
 1211 0054 08000000 		.word	.LC1
 1212              		.cfi_endproc
 1213              	.LFE6:
 1215              		.section	.rodata.getModule.str1.4,"aMS",%progbits,1
 1216              		.align	2
 1217              	.LC12:
 1218 0000 3231203C 		.ascii	"21 <= qrsize && qrsize <= 177 && 0 <= x && x < qrsi"
 1218      3D207172 
 1218      73697A65 
ARM GAS  C:\usertemp\ccXENK9d.s 			page 44


 1218      20262620 
 1218      71727369 
 1219 0033 7A652026 		.ascii	"ze && 0 <= y && y < qrsize\000"
 1219      26203020 
 1219      3C3D2079 
 1219      20262620 
 1219      79203C20 
 1220              		.section	.text.getModule,"ax",%progbits
 1221              		.align	1
 1222              		.syntax unified
 1223              		.thumb
 1224              		.thumb_func
 1226              	getModule:
 1227              	.LVL133:
 1228              	.LFB23:
 757:lvgl/src/extra/libs/qrcode/qrcodegen.c **** 	int qrsize = qrcode[0];
 1229              		.loc 1 757 63 is_stmt 1 view -0
 1230              		.cfi_startproc
 1231              		@ args = 0, pretend = 0, frame = 0
 1232              		@ frame_needed = 0, uses_anonymous_args = 0
 757:lvgl/src/extra/libs/qrcode/qrcodegen.c **** 	int qrsize = qrcode[0];
 1233              		.loc 1 757 63 is_stmt 0 view .LVU300
 1234 0000 10B5     		push	{r4, lr}
 1235              	.LCFI13:
 1236              		.cfi_def_cfa_offset 8
 1237              		.cfi_offset 4, -8
 1238              		.cfi_offset 14, -4
 758:lvgl/src/extra/libs/qrcode/qrcodegen.c **** 	assert(21 <= qrsize && qrsize <= 177 && 0 <= x && x < qrsize && 0 <= y && y < qrsize);
 1239              		.loc 1 758 2 is_stmt 1 view .LVU301
 758:lvgl/src/extra/libs/qrcode/qrcodegen.c **** 	assert(21 <= qrsize && qrsize <= 177 && 0 <= x && x < qrsize && 0 <= y && y < qrsize);
 1240              		.loc 1 758 21 is_stmt 0 view .LVU302
 1241 0002 0378     		ldrb	r3, [r0]	@ zero_extendqisi2
 1242              	.LVL134:
 759:lvgl/src/extra/libs/qrcode/qrcodegen.c **** 	int index = y * qrsize + x;
 1243              		.loc 1 759 2 is_stmt 1 view .LVU303
 1244 0004 A3F1150C 		sub	ip, r3, #21
 1245 0008 BCF19C0F 		cmp	ip, #156
 1246 000c 17D8     		bhi	.L117
 759:lvgl/src/extra/libs/qrcode/qrcodegen.c **** 	int index = y * qrsize + x;
 1247              		.loc 1 759 2 is_stmt 0 discriminator 2 view .LVU304
 1248 000e 8B42     		cmp	r3, r1
 1249 0010 CCBF     		ite	gt
 1250 0012 0024     		movgt	r4, #0
 1251 0014 0124     		movle	r4, #1
 1252 0016 0029     		cmp	r1, #0
 1253 0018 11DB     		blt	.L117
 1254 001a 84B9     		cbnz	r4, .L117
 759:lvgl/src/extra/libs/qrcode/qrcodegen.c **** 	int index = y * qrsize + x;
 1255              		.loc 1 759 2 discriminator 4 view .LVU305
 1256 001c 9342     		cmp	r3, r2
 1257 001e CCBF     		ite	gt
 1258 0020 0024     		movgt	r4, #0
 1259 0022 0124     		movle	r4, #1
 1260 0024 002A     		cmp	r2, #0
 1261 0026 0ADB     		blt	.L117
 1262 0028 4CB9     		cbnz	r4, .L117
 760:lvgl/src/extra/libs/qrcode/qrcodegen.c **** 	return getBit(qrcode[(index >> 3) + 1], index & 7);
ARM GAS  C:\usertemp\ccXENK9d.s 			page 45


 1263              		.loc 1 760 2 is_stmt 1 view .LVU306
 760:lvgl/src/extra/libs/qrcode/qrcodegen.c **** 	return getBit(qrcode[(index >> 3) + 1], index & 7);
 1264              		.loc 1 760 6 is_stmt 0 view .LVU307
 1265 002a 02FB0311 		mla	r1, r2, r3, r1
 1266              	.LVL135:
 761:lvgl/src/extra/libs/qrcode/qrcodegen.c **** }
 1267              		.loc 1 761 2 is_stmt 1 view .LVU308
 761:lvgl/src/extra/libs/qrcode/qrcodegen.c **** }
 1268              		.loc 1 761 22 is_stmt 0 view .LVU309
 1269 002e 00EBE100 		add	r0, r0, r1, asr #3
 1270              	.LVL136:
 761:lvgl/src/extra/libs/qrcode/qrcodegen.c **** }
 1271              		.loc 1 761 9 view .LVU310
 1272 0032 01F00701 		and	r1, r1, #7
 1273              	.LVL137:
 761:lvgl/src/extra/libs/qrcode/qrcodegen.c **** }
 1274              		.loc 1 761 9 view .LVU311
 1275 0036 4078     		ldrb	r0, [r0, #1]	@ zero_extendqisi2
 1276 0038 FFF7FEFF 		bl	getBit
 1277              	.LVL138:
 762:lvgl/src/extra/libs/qrcode/qrcodegen.c **** 
 1278              		.loc 1 762 1 view .LVU312
 1279 003c 10BD     		pop	{r4, pc}
 1280              	.LVL139:
 1281              	.L117:
 759:lvgl/src/extra/libs/qrcode/qrcodegen.c **** 	int index = y * qrsize + x;
 1282              		.loc 1 759 2 discriminator 5 view .LVU313
 1283 003e 034B     		ldr	r3, .L121
 1284              	.LVL140:
 759:lvgl/src/extra/libs/qrcode/qrcodegen.c **** 	int index = y * qrsize + x;
 1285              		.loc 1 759 2 discriminator 5 view .LVU314
 1286 0040 034A     		ldr	r2, .L121+4
 1287              	.LVL141:
 759:lvgl/src/extra/libs/qrcode/qrcodegen.c **** 	int index = y * qrsize + x;
 1288              		.loc 1 759 2 discriminator 5 view .LVU315
 1289 0042 40F2F721 		movw	r1, #759
 1290              	.LVL142:
 759:lvgl/src/extra/libs/qrcode/qrcodegen.c **** 	int index = y * qrsize + x;
 1291              		.loc 1 759 2 discriminator 5 view .LVU316
 1292 0046 0348     		ldr	r0, .L121+8
 1293              	.LVL143:
 759:lvgl/src/extra/libs/qrcode/qrcodegen.c **** 	int index = y * qrsize + x;
 1294              		.loc 1 759 2 discriminator 5 view .LVU317
 1295 0048 FFF7FEFF 		bl	__assert_func
 1296              	.LVL144:
 1297              	.L122:
 759:lvgl/src/extra/libs/qrcode/qrcodegen.c **** 	int index = y * qrsize + x;
 1298              		.loc 1 759 2 discriminator 5 view .LVU318
 1299              		.align	2
 1300              	.L121:
 1301 004c 00000000 		.word	.LC12
 1302 0050 00000000 		.word	__func__.14
 1303 0054 08000000 		.word	.LC1
 1304              		.cfi_endproc
 1305              	.LFE23:
 1307              		.section	.text.setModule,"ax",%progbits
 1308              		.align	1
ARM GAS  C:\usertemp\ccXENK9d.s 			page 46


 1309              		.syntax unified
 1310              		.thumb
 1311              		.thumb_func
 1313              	setModule:
 1314              	.LVL145:
 1315              	.LFB24:
 766:lvgl/src/extra/libs/qrcode/qrcodegen.c **** 	int qrsize = qrcode[0];
 1316              		.loc 1 766 71 is_stmt 1 view -0
 1317              		.cfi_startproc
 1318              		@ args = 0, pretend = 0, frame = 0
 1319              		@ frame_needed = 0, uses_anonymous_args = 0
 766:lvgl/src/extra/libs/qrcode/qrcodegen.c **** 	int qrsize = qrcode[0];
 1320              		.loc 1 766 71 is_stmt 0 view .LVU320
 1321 0000 10B5     		push	{r4, lr}
 1322              	.LCFI14:
 1323              		.cfi_def_cfa_offset 8
 1324              		.cfi_offset 4, -8
 1325              		.cfi_offset 14, -4
 767:lvgl/src/extra/libs/qrcode/qrcodegen.c **** 	assert(21 <= qrsize && qrsize <= 177 && 0 <= x && x < qrsize && 0 <= y && y < qrsize);
 1326              		.loc 1 767 2 is_stmt 1 view .LVU321
 767:lvgl/src/extra/libs/qrcode/qrcodegen.c **** 	assert(21 <= qrsize && qrsize <= 177 && 0 <= x && x < qrsize && 0 <= y && y < qrsize);
 1327              		.loc 1 767 21 is_stmt 0 view .LVU322
 1328 0002 90F800C0 		ldrb	ip, [r0]	@ zero_extendqisi2
 1329              	.LVL146:
 768:lvgl/src/extra/libs/qrcode/qrcodegen.c **** 	int index = y * qrsize + x;
 1330              		.loc 1 768 2 is_stmt 1 view .LVU323
 1331 0006 ACF1150E 		sub	lr, ip, #21
 1332 000a BEF19C0F 		cmp	lr, #156
 1333 000e 1AD8     		bhi	.L124
 768:lvgl/src/extra/libs/qrcode/qrcodegen.c **** 	int index = y * qrsize + x;
 1334              		.loc 1 768 2 is_stmt 0 discriminator 2 view .LVU324
 1335 0010 8C45     		cmp	ip, r1
 1336 0012 CCBF     		ite	gt
 1337 0014 0024     		movgt	r4, #0
 1338 0016 0124     		movle	r4, #1
 1339 0018 0029     		cmp	r1, #0
 1340 001a 14DB     		blt	.L124
 1341 001c 9CB9     		cbnz	r4, .L124
 768:lvgl/src/extra/libs/qrcode/qrcodegen.c **** 	int index = y * qrsize + x;
 1342              		.loc 1 768 2 discriminator 4 view .LVU325
 1343 001e 9445     		cmp	ip, r2
 1344 0020 CCBF     		ite	gt
 1345 0022 0024     		movgt	r4, #0
 1346 0024 0124     		movle	r4, #1
 1347 0026 002A     		cmp	r2, #0
 1348 0028 0DDB     		blt	.L124
 1349 002a 64B9     		cbnz	r4, .L124
 769:lvgl/src/extra/libs/qrcode/qrcodegen.c **** 	int bitIndex = index & 7;
 1350              		.loc 1 769 2 is_stmt 1 view .LVU326
 769:lvgl/src/extra/libs/qrcode/qrcodegen.c **** 	int bitIndex = index & 7;
 1351              		.loc 1 769 6 is_stmt 0 view .LVU327
 1352 002c 02FB0C11 		mla	r1, r2, ip, r1
 1353              	.LVL147:
 770:lvgl/src/extra/libs/qrcode/qrcodegen.c **** 	int byteIndex = (index >> 3) + 1;
 1354              		.loc 1 770 2 is_stmt 1 view .LVU328
 770:lvgl/src/extra/libs/qrcode/qrcodegen.c **** 	int byteIndex = (index >> 3) + 1;
 1355              		.loc 1 770 6 is_stmt 0 view .LVU329
ARM GAS  C:\usertemp\ccXENK9d.s 			page 47


 1356 0030 01F00704 		and	r4, r1, #7
 1357              	.LVL148:
 771:lvgl/src/extra/libs/qrcode/qrcodegen.c **** 	if (isBlack)
 1358              		.loc 1 771 2 is_stmt 1 view .LVU330
 771:lvgl/src/extra/libs/qrcode/qrcodegen.c **** 	if (isBlack)
 1359              		.loc 1 771 25 is_stmt 0 view .LVU331
 1360 0034 C910     		asrs	r1, r1, #3
 1361              	.LVL149:
 771:lvgl/src/extra/libs/qrcode/qrcodegen.c **** 	if (isBlack)
 1362              		.loc 1 771 6 view .LVU332
 1363 0036 0131     		adds	r1, r1, #1
 1364              	.LVL150:
 772:lvgl/src/extra/libs/qrcode/qrcodegen.c **** 		qrcode[byteIndex] |= 1 << bitIndex;
 1365              		.loc 1 772 2 is_stmt 1 view .LVU333
 772:lvgl/src/extra/libs/qrcode/qrcodegen.c **** 		qrcode[byteIndex] |= 1 << bitIndex;
 1366              		.loc 1 772 5 is_stmt 0 view .LVU334
 1367 0038 63B1     		cbz	r3, .L127
 773:lvgl/src/extra/libs/qrcode/qrcodegen.c **** 	else
 1368              		.loc 1 773 3 is_stmt 1 view .LVU335
 773:lvgl/src/extra/libs/qrcode/qrcodegen.c **** 	else
 1369              		.loc 1 773 9 is_stmt 0 view .LVU336
 1370 003a 435C     		ldrb	r3, [r0, r1]	@ zero_extendqisi2
 1371              	.LVL151:
 773:lvgl/src/extra/libs/qrcode/qrcodegen.c **** 	else
 1372              		.loc 1 773 26 view .LVU337
 1373 003c 0122     		movs	r2, #1
 1374              	.LVL152:
 773:lvgl/src/extra/libs/qrcode/qrcodegen.c **** 	else
 1375              		.loc 1 773 26 view .LVU338
 1376 003e A240     		lsls	r2, r2, r4
 773:lvgl/src/extra/libs/qrcode/qrcodegen.c **** 	else
 1377              		.loc 1 773 21 view .LVU339
 1378 0040 1343     		orrs	r3, r3, r2
 1379 0042 4354     		strb	r3, [r0, r1]
 1380              	.L123:
 776:lvgl/src/extra/libs/qrcode/qrcodegen.c **** 
 1381              		.loc 1 776 1 view .LVU340
 1382 0044 10BD     		pop	{r4, pc}
 1383              	.LVL153:
 1384              	.L124:
 768:lvgl/src/extra/libs/qrcode/qrcodegen.c **** 	int index = y * qrsize + x;
 1385              		.loc 1 768 2 discriminator 5 view .LVU341
 1386 0046 074B     		ldr	r3, .L130
 1387              	.LVL154:
 768:lvgl/src/extra/libs/qrcode/qrcodegen.c **** 	int index = y * qrsize + x;
 1388              		.loc 1 768 2 discriminator 5 view .LVU342
 1389 0048 074A     		ldr	r2, .L130+4
 1390              	.LVL155:
 768:lvgl/src/extra/libs/qrcode/qrcodegen.c **** 	int index = y * qrsize + x;
 1391              		.loc 1 768 2 discriminator 5 view .LVU343
 1392 004a 4FF44071 		mov	r1, #768
 1393              	.LVL156:
 768:lvgl/src/extra/libs/qrcode/qrcodegen.c **** 	int index = y * qrsize + x;
 1394              		.loc 1 768 2 discriminator 5 view .LVU344
 1395 004e 0748     		ldr	r0, .L130+8
 1396              	.LVL157:
 768:lvgl/src/extra/libs/qrcode/qrcodegen.c **** 	int index = y * qrsize + x;
ARM GAS  C:\usertemp\ccXENK9d.s 			page 48


 1397              		.loc 1 768 2 discriminator 5 view .LVU345
 1398 0050 FFF7FEFF 		bl	__assert_func
 1399              	.LVL158:
 1400              	.L127:
 775:lvgl/src/extra/libs/qrcode/qrcodegen.c **** }
 1401              		.loc 1 775 3 is_stmt 1 view .LVU346
 775:lvgl/src/extra/libs/qrcode/qrcodegen.c **** }
 1402              		.loc 1 775 9 is_stmt 0 view .LVU347
 1403 0054 425C     		ldrb	r2, [r0, r1]	@ zero_extendqisi2
 1404              	.LVL159:
 775:lvgl/src/extra/libs/qrcode/qrcodegen.c **** }
 1405              		.loc 1 775 27 view .LVU348
 1406 0056 0123     		movs	r3, #1
 1407              	.LVL160:
 775:lvgl/src/extra/libs/qrcode/qrcodegen.c **** }
 1408              		.loc 1 775 27 view .LVU349
 1409 0058 A340     		lsls	r3, r3, r4
 775:lvgl/src/extra/libs/qrcode/qrcodegen.c **** }
 1410              		.loc 1 775 40 view .LVU350
 1411 005a DB43     		mvns	r3, r3
 1412 005c 5BB2     		sxtb	r3, r3
 775:lvgl/src/extra/libs/qrcode/qrcodegen.c **** }
 1413              		.loc 1 775 21 view .LVU351
 1414 005e 1340     		ands	r3, r3, r2
 1415 0060 4354     		strb	r3, [r0, r1]
 776:lvgl/src/extra/libs/qrcode/qrcodegen.c **** 
 1416              		.loc 1 776 1 view .LVU352
 1417 0062 EFE7     		b	.L123
 1418              	.L131:
 1419              		.align	2
 1420              	.L130:
 1421 0064 00000000 		.word	.LC12
 1422 0068 00000000 		.word	__func__.13
 1423 006c 08000000 		.word	.LC1
 1424              		.cfi_endproc
 1425              	.LFE24:
 1427              		.section	.text.setModuleBounded,"ax",%progbits
 1428              		.align	1
 1429              		.syntax unified
 1430              		.thumb
 1431              		.thumb_func
 1433              	setModuleBounded:
 1434              	.LVL161:
 1435              	.LFB25:
 780:lvgl/src/extra/libs/qrcode/qrcodegen.c **** 	int qrsize = qrcode[0];
 1436              		.loc 1 780 78 is_stmt 1 view -0
 1437              		.cfi_startproc
 1438              		@ args = 0, pretend = 0, frame = 0
 1439              		@ frame_needed = 0, uses_anonymous_args = 0
 781:lvgl/src/extra/libs/qrcode/qrcodegen.c **** 	if (0 <= x && x < qrsize && 0 <= y && y < qrsize)
 1440              		.loc 1 781 2 view .LVU354
 781:lvgl/src/extra/libs/qrcode/qrcodegen.c **** 	if (0 <= x && x < qrsize && 0 <= y && y < qrsize)
 1441              		.loc 1 781 21 is_stmt 0 view .LVU355
 1442 0000 90F800C0 		ldrb	ip, [r0]	@ zero_extendqisi2
 1443              	.LVL162:
 782:lvgl/src/extra/libs/qrcode/qrcodegen.c **** 		setModule(qrcode, x, y, isBlack);
 1444              		.loc 1 782 2 is_stmt 1 view .LVU356
ARM GAS  C:\usertemp\ccXENK9d.s 			page 49


 782:lvgl/src/extra/libs/qrcode/qrcodegen.c **** 		setModule(qrcode, x, y, isBlack);
 1445              		.loc 1 782 5 is_stmt 0 view .LVU357
 1446 0004 0029     		cmp	r1, #0
 1447 0006 A8BF     		it	ge
 1448 0008 8C45     		cmpge	ip, r1
 1449 000a 0BDD     		ble	.L135
 780:lvgl/src/extra/libs/qrcode/qrcodegen.c **** 	int qrsize = qrcode[0];
 1450              		.loc 1 780 78 view .LVU358
 1451 000c 10B5     		push	{r4, lr}
 1452              	.LCFI15:
 1453              		.cfi_def_cfa_offset 8
 1454              		.cfi_offset 4, -8
 1455              		.cfi_offset 14, -4
 782:lvgl/src/extra/libs/qrcode/qrcodegen.c **** 		setModule(qrcode, x, y, isBlack);
 1456              		.loc 1 782 42 discriminator 1 view .LVU359
 1457 000e 9445     		cmp	ip, r2
 1458 0010 D4BF     		ite	le
 1459 0012 0024     		movle	r4, #0
 1460 0014 0124     		movgt	r4, #1
 782:lvgl/src/extra/libs/qrcode/qrcodegen.c **** 		setModule(qrcode, x, y, isBlack);
 1461              		.loc 1 782 37 discriminator 1 view .LVU360
 1462 0016 002A     		cmp	r2, #0
 1463 0018 00DB     		blt	.L132
 1464 001a 04B9     		cbnz	r4, .L138
 1465              	.LVL163:
 1466              	.L132:
 784:lvgl/src/extra/libs/qrcode/qrcodegen.c **** 
 1467              		.loc 1 784 1 view .LVU361
 1468 001c 10BD     		pop	{r4, pc}
 1469              	.LVL164:
 1470              	.L138:
 783:lvgl/src/extra/libs/qrcode/qrcodegen.c **** }
 1471              		.loc 1 783 3 is_stmt 1 view .LVU362
 1472 001e FFF7FEFF 		bl	setModule
 1473              	.LVL165:
 784:lvgl/src/extra/libs/qrcode/qrcodegen.c **** 
 1474              		.loc 1 784 1 is_stmt 0 view .LVU363
 1475 0022 FBE7     		b	.L132
 1476              	.LVL166:
 1477              	.L135:
 1478              	.LCFI16:
 1479              		.cfi_def_cfa_offset 0
 1480              		.cfi_restore 4
 1481              		.cfi_restore 14
 784:lvgl/src/extra/libs/qrcode/qrcodegen.c **** 
 1482              		.loc 1 784 1 view .LVU364
 1483 0024 7047     		bx	lr
 1484              		.cfi_endproc
 1485              	.LFE25:
 1487              		.section	.text.fillRectangle,"ax",%progbits
 1488              		.align	1
 1489              		.syntax unified
 1490              		.thumb
 1491              		.thumb_func
 1493              	fillRectangle:
 1494              	.LVL167:
 1495              	.LFB15:
ARM GAS  C:\usertemp\ccXENK9d.s 			page 50


 559:lvgl/src/extra/libs/qrcode/qrcodegen.c **** 	for (int dy = 0; dy < height; dy++) {
 1496              		.loc 1 559 87 is_stmt 1 view -0
 1497              		.cfi_startproc
 1498              		@ args = 4, pretend = 0, frame = 0
 1499              		@ frame_needed = 0, uses_anonymous_args = 0
 559:lvgl/src/extra/libs/qrcode/qrcodegen.c **** 	for (int dy = 0; dy < height; dy++) {
 1500              		.loc 1 559 87 is_stmt 0 view .LVU366
 1501 0000 2DE9F047 		push	{r4, r5, r6, r7, r8, r9, r10, lr}
 1502              	.LCFI17:
 1503              		.cfi_def_cfa_offset 32
 1504              		.cfi_offset 4, -32
 1505              		.cfi_offset 5, -28
 1506              		.cfi_offset 6, -24
 1507              		.cfi_offset 7, -20
 1508              		.cfi_offset 8, -16
 1509              		.cfi_offset 9, -12
 1510              		.cfi_offset 10, -8
 1511              		.cfi_offset 14, -4
 1512 0004 8046     		mov	r8, r0
 1513 0006 0F46     		mov	r7, r1
 1514 0008 1646     		mov	r6, r2
 1515 000a 9A46     		mov	r10, r3
 1516 000c DDF82090 		ldr	r9, [sp, #32]
 560:lvgl/src/extra/libs/qrcode/qrcodegen.c **** 		for (int dx = 0; dx < width; dx++)
 1517              		.loc 1 560 2 is_stmt 1 view .LVU367
 1518              	.LBB21:
 560:lvgl/src/extra/libs/qrcode/qrcodegen.c **** 		for (int dx = 0; dx < width; dx++)
 1519              		.loc 1 560 7 view .LVU368
 1520              	.LVL168:
 560:lvgl/src/extra/libs/qrcode/qrcodegen.c **** 		for (int dx = 0; dx < width; dx++)
 1521              		.loc 1 560 11 is_stmt 0 view .LVU369
 1522 0010 0025     		movs	r5, #0
 560:lvgl/src/extra/libs/qrcode/qrcodegen.c **** 		for (int dx = 0; dx < width; dx++)
 1523              		.loc 1 560 2 view .LVU370
 1524 0012 0AE0     		b	.L140
 1525              	.LVL169:
 1526              	.L141:
 1527              	.LBB22:
 562:lvgl/src/extra/libs/qrcode/qrcodegen.c **** 	}
 1528              		.loc 1 562 4 is_stmt 1 view .LVU371
 1529 0014 0123     		movs	r3, #1
 1530 0016 EA19     		adds	r2, r5, r7
 1531 0018 04EB0801 		add	r1, r4, r8
 1532 001c 4846     		mov	r0, r9
 1533 001e FFF7FEFF 		bl	setModule
 1534              	.LVL170:
 561:lvgl/src/extra/libs/qrcode/qrcodegen.c **** 			setModule(qrcode, left + dx, top + dy, true);
 1535              		.loc 1 561 34 discriminator 3 view .LVU372
 1536 0022 0134     		adds	r4, r4, #1
 1537              	.LVL171:
 1538              	.L142:
 561:lvgl/src/extra/libs/qrcode/qrcodegen.c **** 			setModule(qrcode, left + dx, top + dy, true);
 1539              		.loc 1 561 23 discriminator 1 view .LVU373
 1540 0024 B442     		cmp	r4, r6
 1541 0026 F5DB     		blt	.L141
 1542              	.LBE22:
 560:lvgl/src/extra/libs/qrcode/qrcodegen.c **** 		for (int dx = 0; dx < width; dx++)
ARM GAS  C:\usertemp\ccXENK9d.s 			page 51


 1543              		.loc 1 560 34 discriminator 2 view .LVU374
 1544 0028 0135     		adds	r5, r5, #1
 1545              	.LVL172:
 1546              	.L140:
 560:lvgl/src/extra/libs/qrcode/qrcodegen.c **** 		for (int dx = 0; dx < width; dx++)
 1547              		.loc 1 560 22 discriminator 1 view .LVU375
 1548 002a 5545     		cmp	r5, r10
 1549 002c 01DA     		bge	.L145
 1550              	.LBB23:
 561:lvgl/src/extra/libs/qrcode/qrcodegen.c **** 			setModule(qrcode, left + dx, top + dy, true);
 1551              		.loc 1 561 12 is_stmt 0 view .LVU376
 1552 002e 0024     		movs	r4, #0
 1553 0030 F8E7     		b	.L142
 1554              	.L145:
 1555              	.LBE23:
 1556              	.LBE21:
 564:lvgl/src/extra/libs/qrcode/qrcodegen.c **** 
 1557              		.loc 1 564 1 view .LVU377
 1558 0032 BDE8F087 		pop	{r4, r5, r6, r7, r8, r9, r10, pc}
 564:lvgl/src/extra/libs/qrcode/qrcodegen.c **** 
 1559              		.loc 1 564 1 view .LVU378
 1560              		.cfi_endproc
 1561              	.LFE15:
 1563              		.section	.rodata.calcReedSolomonGenerator.str1.4,"aMS",%progbits,1
 1564              		.align	2
 1565              	.LC13:
 1566 0000 31203C3D 		.ascii	"1 <= degree && degree <= qrcodegen_REED_SOLOMON_DEG"
 1566      20646567 
 1566      72656520 
 1566      26262064 
 1566      65677265 
 1567 0033 5245455F 		.ascii	"REE_MAX\000"
 1567      4D415800 
 1568              		.section	.text.calcReedSolomonGenerator,"ax",%progbits
 1569              		.align	1
 1570              		.syntax unified
 1571              		.thumb
 1572              		.thumb_func
 1574              	calcReedSolomonGenerator:
 1575              	.LVL173:
 1576              	.LFB8:
 353:lvgl/src/extra/libs/qrcode/qrcodegen.c **** 	// Start with the monomial x^0
 1577              		.loc 1 353 70 is_stmt 1 view -0
 1578              		.cfi_startproc
 1579              		@ args = 0, pretend = 0, frame = 0
 1580              		@ frame_needed = 0, uses_anonymous_args = 0
 353:lvgl/src/extra/libs/qrcode/qrcodegen.c **** 	// Start with the monomial x^0
 1581              		.loc 1 353 70 is_stmt 0 view .LVU380
 1582 0000 2DE9F047 		push	{r4, r5, r6, r7, r8, r9, r10, lr}
 1583              	.LCFI18:
 1584              		.cfi_def_cfa_offset 32
 1585              		.cfi_offset 4, -32
 1586              		.cfi_offset 5, -28
 1587              		.cfi_offset 6, -24
 1588              		.cfi_offset 7, -20
 1589              		.cfi_offset 8, -16
 1590              		.cfi_offset 9, -12
ARM GAS  C:\usertemp\ccXENK9d.s 			page 52


 1591              		.cfi_offset 10, -8
 1592              		.cfi_offset 14, -4
 355:lvgl/src/extra/libs/qrcode/qrcodegen.c **** 	memset(result, 0, degree * sizeof(result[0]));
 1593              		.loc 1 355 2 is_stmt 1 view .LVU381
 1594 0004 441E     		subs	r4, r0, #1
 1595 0006 1D2C     		cmp	r4, #29
 1596 0008 0DD8     		bhi	.L154
 1597 000a 0746     		mov	r7, r0
 1598 000c 0D46     		mov	r5, r1
 356:lvgl/src/extra/libs/qrcode/qrcodegen.c **** 	result[degree - 1] = 1;
 1599              		.loc 1 356 2 view .LVU382
 1600 000e 0246     		mov	r2, r0
 1601 0010 0021     		movs	r1, #0
 1602              	.LVL174:
 356:lvgl/src/extra/libs/qrcode/qrcodegen.c **** 	result[degree - 1] = 1;
 1603              		.loc 1 356 2 is_stmt 0 view .LVU383
 1604 0012 2846     		mov	r0, r5
 1605              	.LVL175:
 356:lvgl/src/extra/libs/qrcode/qrcodegen.c **** 	result[degree - 1] = 1;
 1606              		.loc 1 356 2 view .LVU384
 1607 0014 FFF7FEFF 		bl	memset
 1608              	.LVL176:
 357:lvgl/src/extra/libs/qrcode/qrcodegen.c **** 	
 1609              		.loc 1 357 2 is_stmt 1 view .LVU385
 357:lvgl/src/extra/libs/qrcode/qrcodegen.c **** 	
 1610              		.loc 1 357 21 is_stmt 0 view .LVU386
 1611 0018 4FF00109 		mov	r9, #1
 1612 001c 05F80490 		strb	r9, [r5, r4]
 362:lvgl/src/extra/libs/qrcode/qrcodegen.c **** 	for (int i = 0; i < degree; i++) {
 1613              		.loc 1 362 2 is_stmt 1 view .LVU387
 1614              	.LVL177:
 363:lvgl/src/extra/libs/qrcode/qrcodegen.c **** 		// Multiply the current product by (x - r^i)
 1615              		.loc 1 363 2 view .LVU388
 1616              	.LBB24:
 363:lvgl/src/extra/libs/qrcode/qrcodegen.c **** 		// Multiply the current product by (x - r^i)
 1617              		.loc 1 363 7 view .LVU389
 363:lvgl/src/extra/libs/qrcode/qrcodegen.c **** 		// Multiply the current product by (x - r^i)
 1618              		.loc 1 363 11 is_stmt 0 view .LVU390
 1619 0020 4FF0000A 		mov	r10, #0
 363:lvgl/src/extra/libs/qrcode/qrcodegen.c **** 		// Multiply the current product by (x - r^i)
 1620              		.loc 1 363 2 view .LVU391
 1621 0024 0DE0     		b	.L148
 1622              	.LVL178:
 1623              	.L154:
 363:lvgl/src/extra/libs/qrcode/qrcodegen.c **** 		// Multiply the current product by (x - r^i)
 1624              		.loc 1 363 2 view .LVU392
 1625              	.LBE24:
 355:lvgl/src/extra/libs/qrcode/qrcodegen.c **** 	memset(result, 0, degree * sizeof(result[0]));
 1626              		.loc 1 355 2 discriminator 1 view .LVU393
 1627 0026 124B     		ldr	r3, .L157
 1628 0028 124A     		ldr	r2, .L157+4
 1629 002a 40F26311 		movw	r1, #355
 1630              	.LVL179:
 355:lvgl/src/extra/libs/qrcode/qrcodegen.c **** 	memset(result, 0, degree * sizeof(result[0]));
 1631              		.loc 1 355 2 discriminator 1 view .LVU394
 1632 002e 1248     		ldr	r0, .L157+8
 1633              	.LVL180:
ARM GAS  C:\usertemp\ccXENK9d.s 			page 53


 355:lvgl/src/extra/libs/qrcode/qrcodegen.c **** 	memset(result, 0, degree * sizeof(result[0]));
 1634              		.loc 1 355 2 discriminator 1 view .LVU395
 1635 0030 FFF7FEFF 		bl	__assert_func
 1636              	.LVL181:
 1637              	.L156:
 1638              	.LBB26:
 370:lvgl/src/extra/libs/qrcode/qrcodegen.c **** 	}
 1639              		.loc 1 370 3 is_stmt 1 view .LVU396
 370:lvgl/src/extra/libs/qrcode/qrcodegen.c **** 	}
 1640              		.loc 1 370 10 is_stmt 0 view .LVU397
 1641 0034 0221     		movs	r1, #2
 1642 0036 4846     		mov	r0, r9
 1643 0038 FFF7FEFF 		bl	finiteFieldMultiply
 1644              	.LVL182:
 1645 003c 8146     		mov	r9, r0
 1646              	.LVL183:
 363:lvgl/src/extra/libs/qrcode/qrcodegen.c **** 		// Multiply the current product by (x - r^i)
 1647              		.loc 1 363 31 is_stmt 1 discriminator 2 view .LVU398
 1648 003e 0AF1010A 		add	r10, r10, #1
 1649              	.LVL184:
 1650              	.L148:
 363:lvgl/src/extra/libs/qrcode/qrcodegen.c **** 		// Multiply the current product by (x - r^i)
 1651              		.loc 1 363 20 discriminator 1 view .LVU399
 1652 0042 BA45     		cmp	r10, r7
 1653 0044 12DA     		bge	.L155
 1654              	.LBB25:
 365:lvgl/src/extra/libs/qrcode/qrcodegen.c **** 			result[j] = finiteFieldMultiply(result[j], root);
 1655              		.loc 1 365 12 is_stmt 0 view .LVU400
 1656 0046 0024     		movs	r4, #0
 1657              	.L151:
 1658              	.LVL185:
 365:lvgl/src/extra/libs/qrcode/qrcodegen.c **** 			result[j] = finiteFieldMultiply(result[j], root);
 1659              		.loc 1 365 21 is_stmt 1 discriminator 1 view .LVU401
 1660 0048 BC42     		cmp	r4, r7
 1661 004a F3DA     		bge	.L156
 366:lvgl/src/extra/libs/qrcode/qrcodegen.c **** 			if (j + 1 < degree)
 1662              		.loc 1 366 4 view .LVU402
 366:lvgl/src/extra/libs/qrcode/qrcodegen.c **** 			if (j + 1 < degree)
 1663              		.loc 1 366 42 is_stmt 0 view .LVU403
 1664 004c 05EB0408 		add	r8, r5, r4
 366:lvgl/src/extra/libs/qrcode/qrcodegen.c **** 			if (j + 1 < degree)
 1665              		.loc 1 366 16 view .LVU404
 1666 0050 4946     		mov	r1, r9
 1667 0052 285D     		ldrb	r0, [r5, r4]	@ zero_extendqisi2
 1668 0054 FFF7FEFF 		bl	finiteFieldMultiply
 1669              	.LVL186:
 366:lvgl/src/extra/libs/qrcode/qrcodegen.c **** 			if (j + 1 < degree)
 1670              		.loc 1 366 14 discriminator 1 view .LVU405
 1671 0058 2855     		strb	r0, [r5, r4]
 367:lvgl/src/extra/libs/qrcode/qrcodegen.c **** 				result[j] ^= result[j + 1];
 1672              		.loc 1 367 4 is_stmt 1 view .LVU406
 367:lvgl/src/extra/libs/qrcode/qrcodegen.c **** 				result[j] ^= result[j + 1];
 1673              		.loc 1 367 10 is_stmt 0 view .LVU407
 1674 005a 0134     		adds	r4, r4, #1
 1675              	.LVL187:
 367:lvgl/src/extra/libs/qrcode/qrcodegen.c **** 				result[j] ^= result[j + 1];
 1676              		.loc 1 367 7 view .LVU408
ARM GAS  C:\usertemp\ccXENK9d.s 			page 54


 1677 005c BC42     		cmp	r4, r7
 1678 005e F3DA     		bge	.L151
 368:lvgl/src/extra/libs/qrcode/qrcodegen.c **** 		}
 1679              		.loc 1 368 5 is_stmt 1 view .LVU409
 368:lvgl/src/extra/libs/qrcode/qrcodegen.c **** 		}
 1680              		.loc 1 368 24 is_stmt 0 view .LVU410
 1681 0060 98F80130 		ldrb	r3, [r8, #1]	@ zero_extendqisi2
 368:lvgl/src/extra/libs/qrcode/qrcodegen.c **** 		}
 1682              		.loc 1 368 15 view .LVU411
 1683 0064 5840     		eors	r0, r0, r3
 1684 0066 88F80000 		strb	r0, [r8]
 1685 006a EDE7     		b	.L151
 1686              	.LVL188:
 1687              	.L155:
 368:lvgl/src/extra/libs/qrcode/qrcodegen.c **** 		}
 1688              		.loc 1 368 15 view .LVU412
 1689              	.LBE25:
 1690              	.LBE26:
 372:lvgl/src/extra/libs/qrcode/qrcodegen.c **** 
 1691              		.loc 1 372 1 view .LVU413
 1692 006c BDE8F087 		pop	{r4, r5, r6, r7, r8, r9, r10, pc}
 1693              	.LVL189:
 1694              	.L158:
 372:lvgl/src/extra/libs/qrcode/qrcodegen.c **** 
 1695              		.loc 1 372 1 view .LVU414
 1696              		.align	2
 1697              	.L157:
 1698 0070 00000000 		.word	.LC13
 1699 0074 00000000 		.word	__func__.18
 1700 0078 08000000 		.word	.LC1
 1701              		.cfi_endproc
 1702              	.LFE8:
 1704              		.section	.text.initializeFunctionModules,"ax",%progbits
 1705              		.align	1
 1706              		.syntax unified
 1707              		.thumb
 1708              		.thumb_func
 1710              	initializeFunctionModules:
 1711              	.LVL190:
 1712              	.LFB11:
 413:lvgl/src/extra/libs/qrcode/qrcodegen.c **** 	// Initialize QR Code
 1713              		.loc 1 413 72 is_stmt 1 view -0
 1714              		.cfi_startproc
 1715              		@ args = 0, pretend = 0, frame = 8
 1716              		@ frame_needed = 0, uses_anonymous_args = 0
 413:lvgl/src/extra/libs/qrcode/qrcodegen.c **** 	// Initialize QR Code
 1717              		.loc 1 413 72 is_stmt 0 view .LVU416
 1718 0000 2DE9F043 		push	{r4, r5, r6, r7, r8, r9, lr}
 1719              	.LCFI19:
 1720              		.cfi_def_cfa_offset 28
 1721              		.cfi_offset 4, -28
 1722              		.cfi_offset 5, -24
 1723              		.cfi_offset 6, -20
 1724              		.cfi_offset 7, -16
 1725              		.cfi_offset 8, -12
 1726              		.cfi_offset 9, -8
 1727              		.cfi_offset 14, -4
ARM GAS  C:\usertemp\ccXENK9d.s 			page 55


 1728 0004 85B0     		sub	sp, sp, #20
 1729              	.LCFI20:
 1730              		.cfi_def_cfa_offset 48
 1731 0006 8046     		mov	r8, r0
 1732 0008 0F46     		mov	r7, r1
 415:lvgl/src/extra/libs/qrcode/qrcodegen.c **** 	memset(qrcode, 0, ((qrsize * qrsize + 7) / 8 + 1) * sizeof(qrcode[0]));
 1733              		.loc 1 415 2 is_stmt 1 view .LVU417
 415:lvgl/src/extra/libs/qrcode/qrcodegen.c **** 	memset(qrcode, 0, ((qrsize * qrsize + 7) / 8 + 1) * sizeof(qrcode[0]));
 1734              		.loc 1 415 23 is_stmt 0 view .LVU418
 1735 000a 4FEA8009 		lsl	r9, r0, #2
 415:lvgl/src/extra/libs/qrcode/qrcodegen.c **** 	memset(qrcode, 0, ((qrsize * qrsize + 7) / 8 + 1) * sizeof(qrcode[0]));
 1736              		.loc 1 415 6 view .LVU419
 1737 000e 09F11104 		add	r4, r9, #17
 1738              	.LVL191:
 416:lvgl/src/extra/libs/qrcode/qrcodegen.c **** 	qrcode[0] = (uint8_t)qrsize;
 1739              		.loc 1 416 2 is_stmt 1 view .LVU420
 416:lvgl/src/extra/libs/qrcode/qrcodegen.c **** 	qrcode[0] = (uint8_t)qrsize;
 1740              		.loc 1 416 29 is_stmt 0 view .LVU421
 1741 0012 04FB04F3 		mul	r3, r4, r4
 416:lvgl/src/extra/libs/qrcode/qrcodegen.c **** 	qrcode[0] = (uint8_t)qrsize;
 1742              		.loc 1 416 43 view .LVU422
 1743 0016 0733     		adds	r3, r3, #7
 1744 0018 32D4     		bmi	.L170
 1745              	.L160:
 1746 001a DB10     		asrs	r3, r3, #3
 416:lvgl/src/extra/libs/qrcode/qrcodegen.c **** 	qrcode[0] = (uint8_t)qrsize;
 1747              		.loc 1 416 2 view .LVU423
 1748 001c 5A1C     		adds	r2, r3, #1
 1749 001e 0021     		movs	r1, #0
 1750              	.LVL192:
 416:lvgl/src/extra/libs/qrcode/qrcodegen.c **** 	qrcode[0] = (uint8_t)qrsize;
 1751              		.loc 1 416 2 view .LVU424
 1752 0020 3846     		mov	r0, r7
 1753              	.LVL193:
 416:lvgl/src/extra/libs/qrcode/qrcodegen.c **** 	qrcode[0] = (uint8_t)qrsize;
 1754              		.loc 1 416 2 view .LVU425
 1755 0022 FFF7FEFF 		bl	memset
 1756              	.LVL194:
 417:lvgl/src/extra/libs/qrcode/qrcodegen.c **** 	
 1757              		.loc 1 417 2 is_stmt 1 view .LVU426
 417:lvgl/src/extra/libs/qrcode/qrcodegen.c **** 	
 1758              		.loc 1 417 12 is_stmt 0 view .LVU427
 1759 0026 3C70     		strb	r4, [r7]
 420:lvgl/src/extra/libs/qrcode/qrcodegen.c **** 	fillRectangle(0, 6, qrsize, 1, qrcode);
 1760              		.loc 1 420 2 is_stmt 1 view .LVU428
 1761 0028 0097     		str	r7, [sp]
 1762 002a 2346     		mov	r3, r4
 1763 002c 0122     		movs	r2, #1
 1764 002e 0021     		movs	r1, #0
 1765 0030 0620     		movs	r0, #6
 1766 0032 FFF7FEFF 		bl	fillRectangle
 1767              	.LVL195:
 421:lvgl/src/extra/libs/qrcode/qrcodegen.c **** 	
 1768              		.loc 1 421 2 view .LVU429
 1769 0036 0097     		str	r7, [sp]
 1770 0038 0123     		movs	r3, #1
 1771 003a 2246     		mov	r2, r4
ARM GAS  C:\usertemp\ccXENK9d.s 			page 56


 1772 003c 0621     		movs	r1, #6
 1773 003e 0020     		movs	r0, #0
 1774 0040 FFF7FEFF 		bl	fillRectangle
 1775              	.LVL196:
 424:lvgl/src/extra/libs/qrcode/qrcodegen.c **** 	fillRectangle(qrsize - 8, 0, 8, 9, qrcode);
 1776              		.loc 1 424 2 view .LVU430
 1777 0044 0097     		str	r7, [sp]
 1778 0046 0923     		movs	r3, #9
 1779 0048 1A46     		mov	r2, r3
 1780 004a 0021     		movs	r1, #0
 1781 004c 0846     		mov	r0, r1
 1782 004e FFF7FEFF 		bl	fillRectangle
 1783              	.LVL197:
 425:lvgl/src/extra/libs/qrcode/qrcodegen.c **** 	fillRectangle(0, qrsize - 8, 9, 8, qrcode);
 1784              		.loc 1 425 2 view .LVU431
 1785 0052 09F10904 		add	r4, r9, #9
 1786              	.LVL198:
 425:lvgl/src/extra/libs/qrcode/qrcodegen.c **** 	fillRectangle(0, qrsize - 8, 9, 8, qrcode);
 1787              		.loc 1 425 2 is_stmt 0 view .LVU432
 1788 0056 0097     		str	r7, [sp]
 1789 0058 0923     		movs	r3, #9
 1790 005a 0822     		movs	r2, #8
 1791 005c 0021     		movs	r1, #0
 1792 005e 2046     		mov	r0, r4
 1793 0060 FFF7FEFF 		bl	fillRectangle
 1794              	.LVL199:
 426:lvgl/src/extra/libs/qrcode/qrcodegen.c **** 	
 1795              		.loc 1 426 2 is_stmt 1 view .LVU433
 1796 0064 0097     		str	r7, [sp]
 1797 0066 0823     		movs	r3, #8
 1798 0068 0922     		movs	r2, #9
 1799 006a 2146     		mov	r1, r4
 1800 006c 0020     		movs	r0, #0
 1801 006e FFF7FEFF 		bl	fillRectangle
 1802              	.LVL200:
 429:lvgl/src/extra/libs/qrcode/qrcodegen.c **** 	int numAlign = getAlignmentPatternPositions(version, alignPatPos);
 1803              		.loc 1 429 2 view .LVU434
 430:lvgl/src/extra/libs/qrcode/qrcodegen.c **** 	for (int i = 0; i < numAlign; i++) {
 1804              		.loc 1 430 2 view .LVU435
 430:lvgl/src/extra/libs/qrcode/qrcodegen.c **** 	for (int i = 0; i < numAlign; i++) {
 1805              		.loc 1 430 17 is_stmt 0 view .LVU436
 1806 0072 02A9     		add	r1, sp, #8
 1807 0074 4046     		mov	r0, r8
 1808 0076 FFF7FEFF 		bl	getAlignmentPatternPositions
 1809              	.LVL201:
 1810 007a 0646     		mov	r6, r0
 1811              	.LVL202:
 431:lvgl/src/extra/libs/qrcode/qrcodegen.c **** 		for (int j = 0; j < numAlign; j++) {
 1812              		.loc 1 431 2 is_stmt 1 view .LVU437
 1813              	.LBB27:
 431:lvgl/src/extra/libs/qrcode/qrcodegen.c **** 		for (int j = 0; j < numAlign; j++) {
 1814              		.loc 1 431 7 view .LVU438
 431:lvgl/src/extra/libs/qrcode/qrcodegen.c **** 		for (int j = 0; j < numAlign; j++) {
 1815              		.loc 1 431 11 is_stmt 0 view .LVU439
 1816 007c 0025     		movs	r5, #0
 431:lvgl/src/extra/libs/qrcode/qrcodegen.c **** 		for (int j = 0; j < numAlign; j++) {
 1817              		.loc 1 431 2 view .LVU440
ARM GAS  C:\usertemp\ccXENK9d.s 			page 57


 1818 007e 25E0     		b	.L161
 1819              	.LVL203:
 1820              	.L170:
 431:lvgl/src/extra/libs/qrcode/qrcodegen.c **** 		for (int j = 0; j < numAlign; j++) {
 1821              		.loc 1 431 2 view .LVU441
 1822              	.LBE27:
 416:lvgl/src/extra/libs/qrcode/qrcodegen.c **** 	qrcode[0] = (uint8_t)qrsize;
 1823              		.loc 1 416 43 view .LVU442
 1824 0080 0733     		adds	r3, r3, #7
 1825 0082 CAE7     		b	.L160
 1826              	.LVL204:
 1827              	.L172:
 1828              	.LBB30:
 1829              	.LBB28:
 434:lvgl/src/extra/libs/qrcode/qrcodegen.c **** 				fillRectangle(alignPatPos[i] - 2, alignPatPos[j] - 2, 5, 5, qrcode);
 1830              		.loc 1 434 57 discriminator 3 view .LVU443
 1831 0084 731E     		subs	r3, r6, #1
 434:lvgl/src/extra/libs/qrcode/qrcodegen.c **** 				fillRectangle(alignPatPos[i] - 2, alignPatPos[j] - 2, 5, 5, qrcode);
 1832              		.loc 1 434 40 discriminator 3 view .LVU444
 1833 0086 A342     		cmp	r3, r4
 1834 0088 19D1     		bne	.L163
 434:lvgl/src/extra/libs/qrcode/qrcodegen.c **** 				fillRectangle(alignPatPos[i] - 2, alignPatPos[j] - 2, 5, 5, qrcode);
 1835              		.loc 1 434 40 discriminator 3 view .LVU445
 1836 008a 10E0     		b	.L162
 1837              	.L164:
 435:lvgl/src/extra/libs/qrcode/qrcodegen.c **** 		}
 1838              		.loc 1 435 5 is_stmt 1 view .LVU446
 435:lvgl/src/extra/libs/qrcode/qrcodegen.c **** 		}
 1839              		.loc 1 435 30 is_stmt 0 view .LVU447
 1840 008c 05F11003 		add	r3, r5, #16
 1841 0090 6B44     		add	r3, sp, r3
 1842 0092 13F8080C 		ldrb	r0, [r3, #-8]	@ zero_extendqisi2
 435:lvgl/src/extra/libs/qrcode/qrcodegen.c **** 		}
 1843              		.loc 1 435 50 view .LVU448
 1844 0096 04F11003 		add	r3, r4, #16
 1845 009a 6B44     		add	r3, sp, r3
 1846 009c 13F8081C 		ldrb	r1, [r3, #-8]	@ zero_extendqisi2
 435:lvgl/src/extra/libs/qrcode/qrcodegen.c **** 		}
 1847              		.loc 1 435 5 view .LVU449
 1848 00a0 0097     		str	r7, [sp]
 1849 00a2 0523     		movs	r3, #5
 1850 00a4 1A46     		mov	r2, r3
 1851 00a6 0239     		subs	r1, r1, #2
 1852 00a8 0238     		subs	r0, r0, #2
 1853 00aa FFF7FEFF 		bl	fillRectangle
 1854              	.LVL205:
 1855              	.L162:
 432:lvgl/src/extra/libs/qrcode/qrcodegen.c **** 			// Don't draw on the three finder corners
 1856              		.loc 1 432 34 is_stmt 1 discriminator 2 view .LVU450
 1857 00ae 0134     		adds	r4, r4, #1
 1858              	.LVL206:
 1859              	.L166:
 432:lvgl/src/extra/libs/qrcode/qrcodegen.c **** 			// Don't draw on the three finder corners
 1860              		.loc 1 432 21 discriminator 1 view .LVU451
 1861 00b0 B442     		cmp	r4, r6
 1862 00b2 0ADA     		bge	.L171
 434:lvgl/src/extra/libs/qrcode/qrcodegen.c **** 				fillRectangle(alignPatPos[i] - 2, alignPatPos[j] - 2, 5, 5, qrcode);
ARM GAS  C:\usertemp\ccXENK9d.s 			page 58


 1863              		.loc 1 434 4 view .LVU452
 434:lvgl/src/extra/libs/qrcode/qrcodegen.c **** 				fillRectangle(alignPatPos[i] - 2, alignPatPos[j] - 2, 5, 5, qrcode);
 1864              		.loc 1 434 7 is_stmt 0 view .LVU453
 1865 00b4 55EA0403 		orrs	r3, r5, r4
 1866 00b8 F9D0     		beq	.L162
 434:lvgl/src/extra/libs/qrcode/qrcodegen.c **** 				fillRectangle(alignPatPos[i] - 2, alignPatPos[j] - 2, 5, 5, qrcode);
 1867              		.loc 1 434 29 discriminator 1 view .LVU454
 1868 00ba 002D     		cmp	r5, #0
 1869 00bc E2D0     		beq	.L172
 1870              	.L163:
 434:lvgl/src/extra/libs/qrcode/qrcodegen.c **** 				fillRectangle(alignPatPos[i] - 2, alignPatPos[j] - 2, 5, 5, qrcode);
 1871              		.loc 1 434 80 discriminator 4 view .LVU455
 1872 00be 731E     		subs	r3, r6, #1
 434:lvgl/src/extra/libs/qrcode/qrcodegen.c **** 				fillRectangle(alignPatPos[i] - 2, alignPatPos[j] - 2, 5, 5, qrcode);
 1873              		.loc 1 434 8 discriminator 4 view .LVU456
 1874 00c0 AB42     		cmp	r3, r5
 1875 00c2 E3D1     		bne	.L164
 434:lvgl/src/extra/libs/qrcode/qrcodegen.c **** 				fillRectangle(alignPatPos[i] - 2, alignPatPos[j] - 2, 5, 5, qrcode);
 1876              		.loc 1 434 84 discriminator 5 view .LVU457
 1877 00c4 002C     		cmp	r4, #0
 1878 00c6 E1D1     		bne	.L164
 1879 00c8 F1E7     		b	.L162
 1880              	.L171:
 434:lvgl/src/extra/libs/qrcode/qrcodegen.c **** 				fillRectangle(alignPatPos[i] - 2, alignPatPos[j] - 2, 5, 5, qrcode);
 1881              		.loc 1 434 84 discriminator 5 view .LVU458
 1882              	.LBE28:
 431:lvgl/src/extra/libs/qrcode/qrcodegen.c **** 		for (int j = 0; j < numAlign; j++) {
 1883              		.loc 1 431 33 is_stmt 1 discriminator 2 view .LVU459
 1884 00ca 0135     		adds	r5, r5, #1
 1885              	.LVL207:
 1886              	.L161:
 431:lvgl/src/extra/libs/qrcode/qrcodegen.c **** 		for (int j = 0; j < numAlign; j++) {
 1887              		.loc 1 431 20 discriminator 1 view .LVU460
 1888 00cc B542     		cmp	r5, r6
 1889 00ce 01DA     		bge	.L173
 1890              	.LBB29:
 432:lvgl/src/extra/libs/qrcode/qrcodegen.c **** 			// Don't draw on the three finder corners
 1891              		.loc 1 432 12 is_stmt 0 view .LVU461
 1892 00d0 0024     		movs	r4, #0
 1893 00d2 EDE7     		b	.L166
 1894              	.L173:
 1895              	.LBE29:
 1896              	.LBE30:
 440:lvgl/src/extra/libs/qrcode/qrcodegen.c **** 		fillRectangle(qrsize - 11, 0, 3, 6, qrcode);
 1897              		.loc 1 440 2 is_stmt 1 view .LVU462
 440:lvgl/src/extra/libs/qrcode/qrcodegen.c **** 		fillRectangle(qrsize - 11, 0, 3, 6, qrcode);
 1898              		.loc 1 440 5 is_stmt 0 view .LVU463
 1899 00d4 B8F1060F 		cmp	r8, #6
 1900 00d8 02DC     		bgt	.L174
 1901              	.LVL208:
 1902              	.L159:
 444:lvgl/src/extra/libs/qrcode/qrcodegen.c **** 
 1903              		.loc 1 444 1 view .LVU464
 1904 00da 05B0     		add	sp, sp, #20
 1905              	.LCFI21:
 1906              		.cfi_remember_state
 1907              		.cfi_def_cfa_offset 28
ARM GAS  C:\usertemp\ccXENK9d.s 			page 59


 1908              		@ sp needed
 1909 00dc BDE8F083 		pop	{r4, r5, r6, r7, r8, r9, pc}
 1910              	.LVL209:
 1911              	.L174:
 1912              	.LCFI22:
 1913              		.cfi_restore_state
 441:lvgl/src/extra/libs/qrcode/qrcodegen.c **** 		fillRectangle(0, qrsize - 11, 6, 3, qrcode);
 1914              		.loc 1 441 3 is_stmt 1 view .LVU465
 1915 00e0 09F10609 		add	r9, r9, #6
 1916              	.LVL210:
 441:lvgl/src/extra/libs/qrcode/qrcodegen.c **** 		fillRectangle(0, qrsize - 11, 6, 3, qrcode);
 1917              		.loc 1 441 3 is_stmt 0 view .LVU466
 1918 00e4 0097     		str	r7, [sp]
 1919 00e6 0623     		movs	r3, #6
 1920 00e8 0322     		movs	r2, #3
 1921 00ea 0021     		movs	r1, #0
 1922 00ec 4846     		mov	r0, r9
 1923 00ee FFF7FEFF 		bl	fillRectangle
 1924              	.LVL211:
 442:lvgl/src/extra/libs/qrcode/qrcodegen.c **** 	}
 1925              		.loc 1 442 3 is_stmt 1 view .LVU467
 1926 00f2 0097     		str	r7, [sp]
 1927 00f4 0323     		movs	r3, #3
 1928 00f6 0622     		movs	r2, #6
 1929 00f8 4946     		mov	r1, r9
 1930 00fa 0020     		movs	r0, #0
 1931 00fc FFF7FEFF 		bl	fillRectangle
 1932              	.LVL212:
 444:lvgl/src/extra/libs/qrcode/qrcodegen.c **** 
 1933              		.loc 1 444 1 is_stmt 0 view .LVU468
 1934 0100 EBE7     		b	.L159
 1935              		.cfi_endproc
 1936              	.LFE11:
 1938              		.section	.text.calcReedSolomonRemainder,"ax",%progbits
 1939              		.align	1
 1940              		.syntax unified
 1941              		.thumb
 1942              		.thumb_func
 1944              	calcReedSolomonRemainder:
 1945              	.LVL213:
 1946              	.LFB9:
 378:lvgl/src/extra/libs/qrcode/qrcodegen.c **** 	
 1947              		.loc 1 378 60 is_stmt 1 view -0
 1948              		.cfi_startproc
 1949              		@ args = 4, pretend = 0, frame = 8
 1950              		@ frame_needed = 0, uses_anonymous_args = 0
 378:lvgl/src/extra/libs/qrcode/qrcodegen.c **** 	
 1951              		.loc 1 378 60 is_stmt 0 view .LVU470
 1952 0000 2DE9F04F 		push	{r4, r5, r6, r7, r8, r9, r10, fp, lr}
 1953              	.LCFI23:
 1954              		.cfi_def_cfa_offset 36
 1955              		.cfi_offset 4, -36
 1956              		.cfi_offset 5, -32
 1957              		.cfi_offset 6, -28
 1958              		.cfi_offset 7, -24
 1959              		.cfi_offset 8, -20
 1960              		.cfi_offset 9, -16
ARM GAS  C:\usertemp\ccXENK9d.s 			page 60


 1961              		.cfi_offset 10, -12
 1962              		.cfi_offset 11, -8
 1963              		.cfi_offset 14, -4
 1964 0004 83B0     		sub	sp, sp, #12
 1965              	.LCFI24:
 1966              		.cfi_def_cfa_offset 48
 1967 0006 0190     		str	r0, [sp, #4]
 1968 0008 0C9D     		ldr	r5, [sp, #48]
 381:lvgl/src/extra/libs/qrcode/qrcodegen.c **** 	memset(result, 0, degree * sizeof(result[0]));
 1969              		.loc 1 381 2 is_stmt 1 view .LVU471
 1970 000a 03F1FF3A 		add	r10, r3, #-1
 1971 000e BAF11D0F 		cmp	r10, #29
 1972 0012 0AD8     		bhi	.L182
 1973 0014 8B46     		mov	fp, r1
 1974 0016 9046     		mov	r8, r2
 1975 0018 1F46     		mov	r7, r3
 382:lvgl/src/extra/libs/qrcode/qrcodegen.c **** 	for (int i = 0; i < dataLen; i++) {
 1976              		.loc 1 382 2 view .LVU472
 1977 001a 1A46     		mov	r2, r3
 1978              	.LVL214:
 382:lvgl/src/extra/libs/qrcode/qrcodegen.c **** 	for (int i = 0; i < dataLen; i++) {
 1979              		.loc 1 382 2 is_stmt 0 view .LVU473
 1980 001c 0021     		movs	r1, #0
 1981              	.LVL215:
 382:lvgl/src/extra/libs/qrcode/qrcodegen.c **** 	for (int i = 0; i < dataLen; i++) {
 1982              		.loc 1 382 2 view .LVU474
 1983 001e 2846     		mov	r0, r5
 1984              	.LVL216:
 382:lvgl/src/extra/libs/qrcode/qrcodegen.c **** 	for (int i = 0; i < dataLen; i++) {
 1985              		.loc 1 382 2 view .LVU475
 1986 0020 FFF7FEFF 		bl	memset
 1987              	.LVL217:
 383:lvgl/src/extra/libs/qrcode/qrcodegen.c **** 		uint8_t factor = data[i] ^ result[0];
 1988              		.loc 1 383 2 is_stmt 1 view .LVU476
 1989              	.LBB31:
 383:lvgl/src/extra/libs/qrcode/qrcodegen.c **** 		uint8_t factor = data[i] ^ result[0];
 1990              		.loc 1 383 7 view .LVU477
 383:lvgl/src/extra/libs/qrcode/qrcodegen.c **** 		uint8_t factor = data[i] ^ result[0];
 1991              		.loc 1 383 11 is_stmt 0 view .LVU478
 1992 0024 4FF00009 		mov	r9, #0
 383:lvgl/src/extra/libs/qrcode/qrcodegen.c **** 		uint8_t factor = data[i] ^ result[0];
 1993              		.loc 1 383 2 view .LVU479
 1994 0028 13E0     		b	.L177
 1995              	.LVL218:
 1996              	.L182:
 383:lvgl/src/extra/libs/qrcode/qrcodegen.c **** 		uint8_t factor = data[i] ^ result[0];
 1997              		.loc 1 383 2 view .LVU480
 1998              	.LBE31:
 381:lvgl/src/extra/libs/qrcode/qrcodegen.c **** 	memset(result, 0, degree * sizeof(result[0]));
 1999              		.loc 1 381 2 discriminator 1 view .LVU481
 2000 002a 144B     		ldr	r3, .L184
 2001              	.LVL219:
 381:lvgl/src/extra/libs/qrcode/qrcodegen.c **** 	memset(result, 0, degree * sizeof(result[0]));
 2002              		.loc 1 381 2 discriminator 1 view .LVU482
 2003 002c 144A     		ldr	r2, .L184+4
 2004              	.LVL220:
 381:lvgl/src/extra/libs/qrcode/qrcodegen.c **** 	memset(result, 0, degree * sizeof(result[0]));
ARM GAS  C:\usertemp\ccXENK9d.s 			page 61


 2005              		.loc 1 381 2 discriminator 1 view .LVU483
 2006 002e 40F27D11 		movw	r1, #381
 2007              	.LVL221:
 381:lvgl/src/extra/libs/qrcode/qrcodegen.c **** 	memset(result, 0, degree * sizeof(result[0]));
 2008              		.loc 1 381 2 discriminator 1 view .LVU484
 2009 0032 1448     		ldr	r0, .L184+8
 2010              	.LVL222:
 381:lvgl/src/extra/libs/qrcode/qrcodegen.c **** 	memset(result, 0, degree * sizeof(result[0]));
 2011              		.loc 1 381 2 discriminator 1 view .LVU485
 2012 0034 FFF7FEFF 		bl	__assert_func
 2013              	.LVL223:
 2014              	.L179:
 2015              	.LBB36:
 2016              	.LBB32:
 2017              	.LBB33:
 388:lvgl/src/extra/libs/qrcode/qrcodegen.c **** 	}
 2018              		.loc 1 388 4 is_stmt 1 view .LVU486
 388:lvgl/src/extra/libs/qrcode/qrcodegen.c **** 	}
 2019              		.loc 1 388 17 is_stmt 0 view .LVU487
 2020 0038 3146     		mov	r1, r6
 2021 003a 18F80400 		ldrb	r0, [r8, r4]	@ zero_extendqisi2
 2022 003e FFF7FEFF 		bl	finiteFieldMultiply
 2023              	.LVL224:
 388:lvgl/src/extra/libs/qrcode/qrcodegen.c **** 	}
 2024              		.loc 1 388 10 discriminator 1 view .LVU488
 2025 0042 2B5D     		ldrb	r3, [r5, r4]	@ zero_extendqisi2
 388:lvgl/src/extra/libs/qrcode/qrcodegen.c **** 	}
 2026              		.loc 1 388 14 discriminator 1 view .LVU489
 2027 0044 4340     		eors	r3, r3, r0
 2028 0046 2B55     		strb	r3, [r5, r4]
 387:lvgl/src/extra/libs/qrcode/qrcodegen.c **** 			result[j] ^= finiteFieldMultiply(generator[j], factor);
 2029              		.loc 1 387 32 is_stmt 1 discriminator 3 view .LVU490
 2030 0048 0134     		adds	r4, r4, #1
 2031              	.LVL225:
 2032              	.L178:
 387:lvgl/src/extra/libs/qrcode/qrcodegen.c **** 			result[j] ^= finiteFieldMultiply(generator[j], factor);
 2033              		.loc 1 387 21 discriminator 1 view .LVU491
 2034 004a BC42     		cmp	r4, r7
 2035 004c F4DB     		blt	.L179
 2036              	.LBE33:
 2037              	.LBE32:
 383:lvgl/src/extra/libs/qrcode/qrcodegen.c **** 		uint8_t factor = data[i] ^ result[0];
 2038              		.loc 1 383 32 discriminator 2 view .LVU492
 2039 004e 09F10109 		add	r9, r9, #1
 2040              	.LVL226:
 2041              	.L177:
 383:lvgl/src/extra/libs/qrcode/qrcodegen.c **** 		uint8_t factor = data[i] ^ result[0];
 2042              		.loc 1 383 20 discriminator 1 view .LVU493
 2043 0052 D945     		cmp	r9, fp
 2044 0054 0EDA     		bge	.L183
 2045              	.LBB35:
 384:lvgl/src/extra/libs/qrcode/qrcodegen.c **** 		memmove(&result[0], &result[1], (degree - 1) * sizeof(result[0]));
 2046              		.loc 1 384 3 view .LVU494
 384:lvgl/src/extra/libs/qrcode/qrcodegen.c **** 		memmove(&result[0], &result[1], (degree - 1) * sizeof(result[0]));
 2047              		.loc 1 384 24 is_stmt 0 view .LVU495
 2048 0056 019B     		ldr	r3, [sp, #4]
 2049 0058 13F80960 		ldrb	r6, [r3, r9]	@ zero_extendqisi2
ARM GAS  C:\usertemp\ccXENK9d.s 			page 62


 384:lvgl/src/extra/libs/qrcode/qrcodegen.c **** 		memmove(&result[0], &result[1], (degree - 1) * sizeof(result[0]));
 2050              		.loc 1 384 36 view .LVU496
 2051 005c 2946     		mov	r1, r5
 2052 005e 11F8013B 		ldrb	r3, [r1], #1	@ zero_extendqisi2
 384:lvgl/src/extra/libs/qrcode/qrcodegen.c **** 		memmove(&result[0], &result[1], (degree - 1) * sizeof(result[0]));
 2053              		.loc 1 384 11 view .LVU497
 2054 0062 5E40     		eors	r6, r6, r3
 2055              	.LVL227:
 385:lvgl/src/extra/libs/qrcode/qrcodegen.c **** 		result[degree - 1] = 0;
 2056              		.loc 1 385 3 is_stmt 1 view .LVU498
 2057 0064 5246     		mov	r2, r10
 2058 0066 2846     		mov	r0, r5
 2059 0068 FFF7FEFF 		bl	memmove
 2060              	.LVL228:
 386:lvgl/src/extra/libs/qrcode/qrcodegen.c **** 		for (int j = 0; j < degree; j++)
 2061              		.loc 1 386 3 view .LVU499
 386:lvgl/src/extra/libs/qrcode/qrcodegen.c **** 		for (int j = 0; j < degree; j++)
 2062              		.loc 1 386 22 is_stmt 0 view .LVU500
 2063 006c 0024     		movs	r4, #0
 2064 006e 05F80A40 		strb	r4, [r5, r10]
 387:lvgl/src/extra/libs/qrcode/qrcodegen.c **** 			result[j] ^= finiteFieldMultiply(generator[j], factor);
 2065              		.loc 1 387 3 is_stmt 1 view .LVU501
 2066              	.LBB34:
 387:lvgl/src/extra/libs/qrcode/qrcodegen.c **** 			result[j] ^= finiteFieldMultiply(generator[j], factor);
 2067              		.loc 1 387 8 view .LVU502
 2068              	.LVL229:
 387:lvgl/src/extra/libs/qrcode/qrcodegen.c **** 			result[j] ^= finiteFieldMultiply(generator[j], factor);
 2069              		.loc 1 387 3 is_stmt 0 view .LVU503
 2070 0072 EAE7     		b	.L178
 2071              	.LVL230:
 2072              	.L183:
 387:lvgl/src/extra/libs/qrcode/qrcodegen.c **** 			result[j] ^= finiteFieldMultiply(generator[j], factor);
 2073              		.loc 1 387 3 view .LVU504
 2074              	.LBE34:
 2075              	.LBE35:
 2076              	.LBE36:
 390:lvgl/src/extra/libs/qrcode/qrcodegen.c **** 
 2077              		.loc 1 390 1 view .LVU505
 2078 0074 03B0     		add	sp, sp, #12
 2079              	.LCFI25:
 2080              		.cfi_def_cfa_offset 36
 2081              		@ sp needed
 2082 0076 BDE8F08F 		pop	{r4, r5, r6, r7, r8, r9, r10, fp, pc}
 2083              	.LVL231:
 2084              	.L185:
 390:lvgl/src/extra/libs/qrcode/qrcodegen.c **** 
 2085              		.loc 1 390 1 view .LVU506
 2086 007a 00BF     		.align	2
 2087              	.L184:
 2088 007c 00000000 		.word	.LC13
 2089 0080 00000000 		.word	__func__.17
 2090 0084 08000000 		.word	.LC1
 2091              		.cfi_endproc
 2092              	.LFE9:
 2094              		.section	.rodata.addEccAndInterleave.str1.4,"aMS",%progbits,1
 2095              		.align	2
 2096              	.LC14:
ARM GAS  C:\usertemp\ccXENK9d.s 			page 63


 2097 0000 30203C3D 		.ascii	"0 <= (int)ecl && (int)ecl < 4 && qrcodegen_VERSION_"
 2097      2028696E 
 2097      74296563 
 2097      6C202626 
 2097      2028696E 
 2098 0033 4D494E20 		.ascii	"MIN <= version && version <= qrcodegen_VERSION_MAX\000"
 2098      3C3D2076 
 2098      65727369 
 2098      6F6E2026 
 2098      26207665 
 2099              		.section	.text.addEccAndInterleave,"ax",%progbits
 2100              		.align	1
 2101              		.syntax unified
 2102              		.thumb
 2103              		.thumb_func
 2105              	addEccAndInterleave:
 2106              	.LVL232:
 2107              	.LFB5:
 291:lvgl/src/extra/libs/qrcode/qrcodegen.c **** 	// Calculate parameter numbers
 2108              		.loc 1 291 106 is_stmt 1 view -0
 2109              		.cfi_startproc
 2110              		@ args = 0, pretend = 0, frame = 48
 2111              		@ frame_needed = 0, uses_anonymous_args = 0
 291:lvgl/src/extra/libs/qrcode/qrcodegen.c **** 	// Calculate parameter numbers
 2112              		.loc 1 291 106 is_stmt 0 view .LVU508
 2113 0000 2DE9F04F 		push	{r4, r5, r6, r7, r8, r9, r10, fp, lr}
 2114              	.LCFI26:
 2115              		.cfi_def_cfa_offset 36
 2116              		.cfi_offset 4, -36
 2117              		.cfi_offset 5, -32
 2118              		.cfi_offset 6, -28
 2119              		.cfi_offset 7, -24
 2120              		.cfi_offset 8, -20
 2121              		.cfi_offset 9, -16
 2122              		.cfi_offset 10, -12
 2123              		.cfi_offset 11, -8
 2124              		.cfi_offset 14, -4
 2125 0004 8FB0     		sub	sp, sp, #60
 2126              	.LCFI27:
 2127              		.cfi_def_cfa_offset 96
 2128 0006 0590     		str	r0, [sp, #20]
 293:lvgl/src/extra/libs/qrcode/qrcodegen.c **** 	int numBlocks = NUM_ERROR_CORRECTION_BLOCKS[(int)ecl][version];
 2129              		.loc 1 293 2 is_stmt 1 view .LVU509
 2130 0008 8946     		mov	r9, r1
 2131 000a 0029     		cmp	r1, #0
 2132 000c CCBF     		ite	gt
 2133 000e 0021     		movgt	r1, #0
 2134              	.LVL233:
 293:lvgl/src/extra/libs/qrcode/qrcodegen.c **** 	int numBlocks = NUM_ERROR_CORRECTION_BLOCKS[(int)ecl][version];
 2135              		.loc 1 293 2 is_stmt 0 view .LVU510
 2136 0010 0121     		movle	r1, #1
 2137 0012 032A     		cmp	r2, #3
 2138 0014 88BF     		it	hi
 2139 0016 41F00101 		orrhi	r1, r1, #1
 2140 001a 59BB     		cbnz	r1, .L187
 2141 001c 1746     		mov	r7, r2
 2142 001e 1D46     		mov	r5, r3
ARM GAS  C:\usertemp\ccXENK9d.s 			page 64


 293:lvgl/src/extra/libs/qrcode/qrcodegen.c **** 	int numBlocks = NUM_ERROR_CORRECTION_BLOCKS[(int)ecl][version];
 2143              		.loc 1 293 2 discriminator 2 view .LVU511
 2144 0020 B9F1280F 		cmp	r9, #40
 2145 0024 26DC     		bgt	.L187
 294:lvgl/src/extra/libs/qrcode/qrcodegen.c **** 	int blockEccLen = ECC_CODEWORDS_PER_BLOCK  [(int)ecl][version];
 2146              		.loc 1 294 2 is_stmt 1 view .LVU512
 294:lvgl/src/extra/libs/qrcode/qrcodegen.c **** 	int blockEccLen = ECC_CODEWORDS_PER_BLOCK  [(int)ecl][version];
 2147              		.loc 1 294 55 is_stmt 0 view .LVU513
 2148 0026 02EB8203 		add	r3, r2, r2, lsl #2
 2149              	.LVL234:
 294:lvgl/src/extra/libs/qrcode/qrcodegen.c **** 	int blockEccLen = ECC_CODEWORDS_PER_BLOCK  [(int)ecl][version];
 2150              		.loc 1 294 55 view .LVU514
 2151 002a 02EBC303 		add	r3, r2, r3, lsl #3
 2152 002e 304A     		ldr	r2, .L201
 2153              	.LVL235:
 294:lvgl/src/extra/libs/qrcode/qrcodegen.c **** 	int blockEccLen = ECC_CODEWORDS_PER_BLOCK  [(int)ecl][version];
 2154              		.loc 1 294 55 view .LVU515
 2155 0030 1A44     		add	r2, r2, r3
 2156 0032 12F90940 		ldrsb	r4, [r2, r9]
 2157              	.LVL236:
 295:lvgl/src/extra/libs/qrcode/qrcodegen.c **** 	int rawCodewords = getNumRawDataModules(version) / 8;
 2158              		.loc 1 295 2 is_stmt 1 view .LVU516
 295:lvgl/src/extra/libs/qrcode/qrcodegen.c **** 	int rawCodewords = getNumRawDataModules(version) / 8;
 2159              		.loc 1 295 55 is_stmt 0 view .LVU517
 2160 0036 2F4A     		ldr	r2, .L201+4
 2161 0038 1344     		add	r3, r3, r2
 2162 003a 13F90980 		ldrsb	r8, [r3, r9]
 2163              	.LVL237:
 296:lvgl/src/extra/libs/qrcode/qrcodegen.c **** 	int dataLen = getNumDataCodewords(version, ecl);
 2164              		.loc 1 296 2 is_stmt 1 view .LVU518
 296:lvgl/src/extra/libs/qrcode/qrcodegen.c **** 	int dataLen = getNumDataCodewords(version, ecl);
 2165              		.loc 1 296 21 is_stmt 0 view .LVU519
 2166 003e 4846     		mov	r0, r9
 2167              	.LVL238:
 296:lvgl/src/extra/libs/qrcode/qrcodegen.c **** 	int dataLen = getNumDataCodewords(version, ecl);
 2168              		.loc 1 296 21 view .LVU520
 2169 0040 FFF7FEFF 		bl	getNumRawDataModules
 2170              	.LVL239:
 296:lvgl/src/extra/libs/qrcode/qrcodegen.c **** 	int dataLen = getNumDataCodewords(version, ecl);
 2171              		.loc 1 296 6 discriminator 1 view .LVU521
 2172 0044 0028     		cmp	r0, #0
 2173 0046 1CDB     		blt	.L198
 2174              	.L189:
 2175 0048 C610     		asrs	r6, r0, #3
 2176              	.LVL240:
 297:lvgl/src/extra/libs/qrcode/qrcodegen.c **** 	int numShortBlocks = numBlocks - rawCodewords % numBlocks;
 2177              		.loc 1 297 2 is_stmt 1 view .LVU522
 297:lvgl/src/extra/libs/qrcode/qrcodegen.c **** 	int numShortBlocks = numBlocks - rawCodewords % numBlocks;
 2178              		.loc 1 297 16 is_stmt 0 view .LVU523
 2179 004a 3946     		mov	r1, r7
 2180 004c 4846     		mov	r0, r9
 2181 004e FFF7FEFF 		bl	getNumDataCodewords
 2182              	.LVL241:
 2183 0052 0490     		str	r0, [sp, #16]
 2184              	.LVL242:
 298:lvgl/src/extra/libs/qrcode/qrcodegen.c **** 	int shortBlockDataLen = rawCodewords / numBlocks - blockEccLen;
 2185              		.loc 1 298 2 is_stmt 1 view .LVU524
ARM GAS  C:\usertemp\ccXENK9d.s 			page 65


 298:lvgl/src/extra/libs/qrcode/qrcodegen.c **** 	int shortBlockDataLen = rawCodewords / numBlocks - blockEccLen;
 2186              		.loc 1 298 48 is_stmt 0 view .LVU525
 2187 0054 96FBF4FA 		sdiv	r10, r6, r4
 2188 0058 04FB1A66 		mls	r6, r4, r10, r6
 2189              	.LVL243:
 298:lvgl/src/extra/libs/qrcode/qrcodegen.c **** 	int shortBlockDataLen = rawCodewords / numBlocks - blockEccLen;
 2190              		.loc 1 298 6 view .LVU526
 2191 005c A31B     		subs	r3, r4, r6
 2192 005e 0393     		str	r3, [sp, #12]
 2193              	.LVL244:
 299:lvgl/src/extra/libs/qrcode/qrcodegen.c **** 	
 2194              		.loc 1 299 2 is_stmt 1 view .LVU527
 299:lvgl/src/extra/libs/qrcode/qrcodegen.c **** 	
 2195              		.loc 1 299 6 is_stmt 0 view .LVU528
 2196 0060 AAEB080A 		sub	r10, r10, r8
 2197              	.LVL245:
 303:lvgl/src/extra/libs/qrcode/qrcodegen.c **** 	calcReedSolomonGenerator(blockEccLen, generator);
 2198              		.loc 1 303 2 is_stmt 1 view .LVU529
 304:lvgl/src/extra/libs/qrcode/qrcodegen.c **** 	const uint8_t *dat = data;
 2199              		.loc 1 304 2 view .LVU530
 2200 0064 06A9     		add	r1, sp, #24
 2201 0066 4046     		mov	r0, r8
 2202              	.LVL246:
 304:lvgl/src/extra/libs/qrcode/qrcodegen.c **** 	const uint8_t *dat = data;
 2203              		.loc 1 304 2 is_stmt 0 view .LVU531
 2204 0068 FFF7FEFF 		bl	calcReedSolomonGenerator
 2205              	.LVL247:
 305:lvgl/src/extra/libs/qrcode/qrcodegen.c **** 	for (int i = 0; i < numBlocks; i++) {
 2206              		.loc 1 305 2 is_stmt 1 view .LVU532
 306:lvgl/src/extra/libs/qrcode/qrcodegen.c **** 		int datLen = shortBlockDataLen + (i < numShortBlocks ? 0 : 1);
 2207              		.loc 1 306 2 view .LVU533
 2208              	.LBB37:
 306:lvgl/src/extra/libs/qrcode/qrcodegen.c **** 		int datLen = shortBlockDataLen + (i < numShortBlocks ? 0 : 1);
 2209              		.loc 1 306 7 view .LVU534
 306:lvgl/src/extra/libs/qrcode/qrcodegen.c **** 		int datLen = shortBlockDataLen + (i < numShortBlocks ? 0 : 1);
 2210              		.loc 1 306 7 is_stmt 0 view .LVU535
 2211              	.LBE37:
 305:lvgl/src/extra/libs/qrcode/qrcodegen.c **** 	for (int i = 0; i < numBlocks; i++) {
 2212              		.loc 1 305 17 view .LVU536
 2213 006c 059F     		ldr	r7, [sp, #20]
 2214              	.LVL248:
 2215              	.LBB43:
 306:lvgl/src/extra/libs/qrcode/qrcodegen.c **** 		int datLen = shortBlockDataLen + (i < numShortBlocks ? 0 : 1);
 2216              		.loc 1 306 11 view .LVU537
 2217 006e 4FF0000B 		mov	fp, #0
 306:lvgl/src/extra/libs/qrcode/qrcodegen.c **** 		int datLen = shortBlockDataLen + (i < numShortBlocks ? 0 : 1);
 2218              		.loc 1 306 2 view .LVU538
 2219 0072 22E0     		b	.L190
 2220              	.LVL249:
 2221              	.L187:
 306:lvgl/src/extra/libs/qrcode/qrcodegen.c **** 		int datLen = shortBlockDataLen + (i < numShortBlocks ? 0 : 1);
 2222              		.loc 1 306 2 view .LVU539
 2223              	.LBE43:
 293:lvgl/src/extra/libs/qrcode/qrcodegen.c **** 	int numBlocks = NUM_ERROR_CORRECTION_BLOCKS[(int)ecl][version];
 2224              		.loc 1 293 2 discriminator 3 view .LVU540
 2225 0074 204B     		ldr	r3, .L201+8
 2226              	.LVL250:
ARM GAS  C:\usertemp\ccXENK9d.s 			page 66


 293:lvgl/src/extra/libs/qrcode/qrcodegen.c **** 	int numBlocks = NUM_ERROR_CORRECTION_BLOCKS[(int)ecl][version];
 2227              		.loc 1 293 2 discriminator 3 view .LVU541
 2228 0076 214A     		ldr	r2, .L201+12
 2229              	.LVL251:
 293:lvgl/src/extra/libs/qrcode/qrcodegen.c **** 	int numBlocks = NUM_ERROR_CORRECTION_BLOCKS[(int)ecl][version];
 2230              		.loc 1 293 2 discriminator 3 view .LVU542
 2231 0078 40F22511 		movw	r1, #293
 2232 007c 2048     		ldr	r0, .L201+16
 2233              	.LVL252:
 293:lvgl/src/extra/libs/qrcode/qrcodegen.c **** 	int numBlocks = NUM_ERROR_CORRECTION_BLOCKS[(int)ecl][version];
 2234              		.loc 1 293 2 discriminator 3 view .LVU543
 2235 007e FFF7FEFF 		bl	__assert_func
 2236              	.LVL253:
 2237              	.L198:
 296:lvgl/src/extra/libs/qrcode/qrcodegen.c **** 	int dataLen = getNumDataCodewords(version, ecl);
 2238              		.loc 1 296 6 discriminator 1 view .LVU544
 2239 0082 0730     		adds	r0, r0, #7
 2240 0084 E0E7     		b	.L189
 2241              	.LVL254:
 2242              	.L192:
 2243              	.LBB44:
 2244              	.LBB38:
 2245              	.LBB39:
 313:lvgl/src/extra/libs/qrcode/qrcodegen.c **** 		}
 2246              		.loc 1 313 4 is_stmt 1 view .LVU545
 313:lvgl/src/extra/libs/qrcode/qrcodegen.c **** 		}
 2247              		.loc 1 313 19 is_stmt 0 view .LVU546
 2248 0086 F95C     		ldrb	r1, [r7, r3]	@ zero_extendqisi2
 313:lvgl/src/extra/libs/qrcode/qrcodegen.c **** 		}
 2249              		.loc 1 313 14 view .LVU547
 2250 0088 A954     		strb	r1, [r5, r2]
 310:lvgl/src/extra/libs/qrcode/qrcodegen.c **** 			if (j == shortBlockDataLen)
 2251              		.loc 1 310 41 is_stmt 1 discriminator 2 view .LVU548
 310:lvgl/src/extra/libs/qrcode/qrcodegen.c **** 			if (j == shortBlockDataLen)
 2252              		.loc 1 310 39 is_stmt 0 discriminator 2 view .LVU549
 2253 008a 0133     		adds	r3, r3, #1
 2254              	.LVL255:
 310:lvgl/src/extra/libs/qrcode/qrcodegen.c **** 			if (j == shortBlockDataLen)
 2255              		.loc 1 310 45 discriminator 2 view .LVU550
 2256 008c 2244     		add	r2, r2, r4
 2257              	.LVL256:
 2258              	.L191:
 310:lvgl/src/extra/libs/qrcode/qrcodegen.c **** 			if (j == shortBlockDataLen)
 2259              		.loc 1 310 28 is_stmt 1 discriminator 1 view .LVU551
 2260 008e B342     		cmp	r3, r6
 2261 0090 04DA     		bge	.L199
 311:lvgl/src/extra/libs/qrcode/qrcodegen.c **** 				k -= numShortBlocks;
 2262              		.loc 1 311 4 view .LVU552
 311:lvgl/src/extra/libs/qrcode/qrcodegen.c **** 				k -= numShortBlocks;
 2263              		.loc 1 311 7 is_stmt 0 view .LVU553
 2264 0092 5345     		cmp	r3, r10
 2265 0094 F7D1     		bne	.L192
 312:lvgl/src/extra/libs/qrcode/qrcodegen.c **** 			result[k] = dat[j];
 2266              		.loc 1 312 5 is_stmt 1 view .LVU554
 312:lvgl/src/extra/libs/qrcode/qrcodegen.c **** 			result[k] = dat[j];
 2267              		.loc 1 312 7 is_stmt 0 view .LVU555
 2268 0096 0399     		ldr	r1, [sp, #12]
ARM GAS  C:\usertemp\ccXENK9d.s 			page 67


 2269 0098 521A     		subs	r2, r2, r1
 2270              	.LVL257:
 312:lvgl/src/extra/libs/qrcode/qrcodegen.c **** 			result[k] = dat[j];
 2271              		.loc 1 312 7 view .LVU556
 2272 009a F4E7     		b	.L192
 2273              	.L199:
 312:lvgl/src/extra/libs/qrcode/qrcodegen.c **** 			result[k] = dat[j];
 2274              		.loc 1 312 7 view .LVU557
 2275              	.LBE39:
 315:lvgl/src/extra/libs/qrcode/qrcodegen.c **** 			result[k] = ecc[j];
 2276              		.loc 1 315 3 is_stmt 1 view .LVU558
 2277              	.LBB40:
 315:lvgl/src/extra/libs/qrcode/qrcodegen.c **** 			result[k] = ecc[j];
 2278              		.loc 1 315 8 view .LVU559
 2279              	.LVL258:
 315:lvgl/src/extra/libs/qrcode/qrcodegen.c **** 			result[k] = ecc[j];
 2280              		.loc 1 315 19 is_stmt 0 view .LVU560
 2281 009c 049B     		ldr	r3, [sp, #16]
 2282              	.LVL259:
 315:lvgl/src/extra/libs/qrcode/qrcodegen.c **** 			result[k] = ecc[j];
 2283              		.loc 1 315 19 view .LVU561
 2284 009e 0BEB0302 		add	r2, fp, r3
 2285              	.LVL260:
 315:lvgl/src/extra/libs/qrcode/qrcodegen.c **** 			result[k] = ecc[j];
 2286              		.loc 1 315 12 view .LVU562
 2287 00a2 0023     		movs	r3, #0
 315:lvgl/src/extra/libs/qrcode/qrcodegen.c **** 			result[k] = ecc[j];
 2288              		.loc 1 315 3 view .LVU563
 2289 00a4 04E0     		b	.L194
 2290              	.LVL261:
 2291              	.L195:
 316:lvgl/src/extra/libs/qrcode/qrcodegen.c **** 		dat += datLen;
 2292              		.loc 1 316 4 is_stmt 1 view .LVU564
 316:lvgl/src/extra/libs/qrcode/qrcodegen.c **** 		dat += datLen;
 2293              		.loc 1 316 19 is_stmt 0 view .LVU565
 2294 00a6 19F80310 		ldrb	r1, [r9, r3]	@ zero_extendqisi2
 316:lvgl/src/extra/libs/qrcode/qrcodegen.c **** 		dat += datLen;
 2295              		.loc 1 316 14 view .LVU566
 2296 00aa A954     		strb	r1, [r5, r2]
 315:lvgl/src/extra/libs/qrcode/qrcodegen.c **** 			result[k] = ecc[j];
 2297              		.loc 1 315 56 is_stmt 1 discriminator 3 view .LVU567
 315:lvgl/src/extra/libs/qrcode/qrcodegen.c **** 			result[k] = ecc[j];
 2298              		.loc 1 315 54 is_stmt 0 discriminator 3 view .LVU568
 2299 00ac 0133     		adds	r3, r3, #1
 2300              	.LVL262:
 315:lvgl/src/extra/libs/qrcode/qrcodegen.c **** 			result[k] = ecc[j];
 2301              		.loc 1 315 60 discriminator 3 view .LVU569
 2302 00ae 2244     		add	r2, r2, r4
 2303              	.LVL263:
 2304              	.L194:
 315:lvgl/src/extra/libs/qrcode/qrcodegen.c **** 			result[k] = ecc[j];
 2305              		.loc 1 315 38 is_stmt 1 discriminator 1 view .LVU570
 2306 00b0 4345     		cmp	r3, r8
 2307 00b2 F8DB     		blt	.L195
 315:lvgl/src/extra/libs/qrcode/qrcodegen.c **** 			result[k] = ecc[j];
 2308              		.loc 1 315 38 is_stmt 0 discriminator 1 view .LVU571
 2309              	.LBE40:
ARM GAS  C:\usertemp\ccXENK9d.s 			page 68


 317:lvgl/src/extra/libs/qrcode/qrcodegen.c **** 	}
 2310              		.loc 1 317 3 is_stmt 1 view .LVU572
 317:lvgl/src/extra/libs/qrcode/qrcodegen.c **** 	}
 2311              		.loc 1 317 7 is_stmt 0 view .LVU573
 2312 00b4 3744     		add	r7, r7, r6
 2313              	.LVL264:
 317:lvgl/src/extra/libs/qrcode/qrcodegen.c **** 	}
 2314              		.loc 1 317 7 view .LVU574
 2315              	.LBE38:
 306:lvgl/src/extra/libs/qrcode/qrcodegen.c **** 		int datLen = shortBlockDataLen + (i < numShortBlocks ? 0 : 1);
 2316              		.loc 1 306 34 is_stmt 1 discriminator 2 view .LVU575
 2317 00b6 0BF1010B 		add	fp, fp, #1
 2318              	.LVL265:
 2319              	.L190:
 306:lvgl/src/extra/libs/qrcode/qrcodegen.c **** 		int datLen = shortBlockDataLen + (i < numShortBlocks ? 0 : 1);
 2320              		.loc 1 306 20 discriminator 1 view .LVU576
 2321 00ba A345     		cmp	fp, r4
 2322 00bc 14DA     		bge	.L200
 2323              	.LBB42:
 307:lvgl/src/extra/libs/qrcode/qrcodegen.c **** 		uint8_t *ecc = &data[dataLen];  // Temporary storage
 2324              		.loc 1 307 3 view .LVU577
 307:lvgl/src/extra/libs/qrcode/qrcodegen.c **** 		uint8_t *ecc = &data[dataLen];  // Temporary storage
 2325              		.loc 1 307 7 is_stmt 0 view .LVU578
 2326 00be 039B     		ldr	r3, [sp, #12]
 2327 00c0 9B45     		cmp	fp, r3
 2328 00c2 B4BF     		ite	lt
 2329 00c4 5646     		movlt	r6, r10
 2330 00c6 0AF10106 		addge	r6, r10, #1
 2331              	.LVL266:
 308:lvgl/src/extra/libs/qrcode/qrcodegen.c **** 		calcReedSolomonRemainder(dat, datLen, generator, blockEccLen, ecc);
 2332              		.loc 1 308 3 is_stmt 1 view .LVU579
 308:lvgl/src/extra/libs/qrcode/qrcodegen.c **** 		calcReedSolomonRemainder(dat, datLen, generator, blockEccLen, ecc);
 2333              		.loc 1 308 12 is_stmt 0 view .LVU580
 2334 00ca 059B     		ldr	r3, [sp, #20]
 2335 00cc 049A     		ldr	r2, [sp, #16]
 2336 00ce 03EB0209 		add	r9, r3, r2
 2337              	.LVL267:
 309:lvgl/src/extra/libs/qrcode/qrcodegen.c **** 		for (int j = 0, k = i; j < datLen; j++, k += numBlocks) {  // Copy data
 2338              		.loc 1 309 3 is_stmt 1 view .LVU581
 2339 00d2 CDF80090 		str	r9, [sp]
 2340 00d6 4346     		mov	r3, r8
 2341 00d8 06AA     		add	r2, sp, #24
 2342 00da 3146     		mov	r1, r6
 2343 00dc 3846     		mov	r0, r7
 2344 00de FFF7FEFF 		bl	calcReedSolomonRemainder
 2345              	.LVL268:
 310:lvgl/src/extra/libs/qrcode/qrcodegen.c **** 			if (j == shortBlockDataLen)
 2346              		.loc 1 310 3 view .LVU582
 2347              	.LBB41:
 310:lvgl/src/extra/libs/qrcode/qrcodegen.c **** 			if (j == shortBlockDataLen)
 2348              		.loc 1 310 8 view .LVU583
 310:lvgl/src/extra/libs/qrcode/qrcodegen.c **** 			if (j == shortBlockDataLen)
 2349              		.loc 1 310 19 is_stmt 0 view .LVU584
 2350 00e2 5A46     		mov	r2, fp
 310:lvgl/src/extra/libs/qrcode/qrcodegen.c **** 			if (j == shortBlockDataLen)
 2351              		.loc 1 310 12 view .LVU585
 2352 00e4 0023     		movs	r3, #0
ARM GAS  C:\usertemp\ccXENK9d.s 			page 69


 310:lvgl/src/extra/libs/qrcode/qrcodegen.c **** 			if (j == shortBlockDataLen)
 2353              		.loc 1 310 3 view .LVU586
 2354 00e6 D2E7     		b	.L191
 2355              	.LVL269:
 2356              	.L200:
 310:lvgl/src/extra/libs/qrcode/qrcodegen.c **** 			if (j == shortBlockDataLen)
 2357              		.loc 1 310 3 view .LVU587
 2358              	.LBE41:
 2359              	.LBE42:
 2360              	.LBE44:
 319:lvgl/src/extra/libs/qrcode/qrcodegen.c **** 
 2361              		.loc 1 319 1 view .LVU588
 2362 00e8 0FB0     		add	sp, sp, #60
 2363              	.LCFI28:
 2364              		.cfi_def_cfa_offset 36
 2365              		@ sp needed
 2366 00ea BDE8F08F 		pop	{r4, r5, r6, r7, r8, r9, r10, fp, pc}
 2367              	.LVL270:
 2368              	.L202:
 319:lvgl/src/extra/libs/qrcode/qrcodegen.c **** 
 2369              		.loc 1 319 1 view .LVU589
 2370 00ee 00BF     		.align	2
 2371              	.L201:
 2372 00f0 00000000 		.word	NUM_ERROR_CORRECTION_BLOCKS
 2373 00f4 00000000 		.word	ECC_CODEWORDS_PER_BLOCK
 2374 00f8 00000000 		.word	.LC14
 2375 00fc 00000000 		.word	__func__.19
 2376 0100 08000000 		.word	.LC1
 2377              		.cfi_endproc
 2378              	.LFE5:
 2380              		.section	.text.addRunToHistory,"ax",%progbits
 2381              		.align	1
 2382              		.syntax unified
 2383              		.thumb
 2384              		.thumb_func
 2386              	addRunToHistory:
 2387              	.LVL271:
 2388              	.LFB19:
 717:lvgl/src/extra/libs/qrcode/qrcodegen.c **** 	memmove(&history[1], &history[0], 6 * sizeof(history[0]));
 2389              		.loc 1 717 74 is_stmt 1 view -0
 2390              		.cfi_startproc
 2391              		@ args = 0, pretend = 0, frame = 0
 2392              		@ frame_needed = 0, uses_anonymous_args = 0
 717:lvgl/src/extra/libs/qrcode/qrcodegen.c **** 	memmove(&history[1], &history[0], 6 * sizeof(history[0]));
 2393              		.loc 1 717 74 is_stmt 0 view .LVU591
 2394 0000 38B5     		push	{r3, r4, r5, lr}
 2395              	.LCFI29:
 2396              		.cfi_def_cfa_offset 16
 2397              		.cfi_offset 3, -16
 2398              		.cfi_offset 4, -12
 2399              		.cfi_offset 5, -8
 2400              		.cfi_offset 14, -4
 2401 0002 0546     		mov	r5, r0
 2402 0004 0C46     		mov	r4, r1
 718:lvgl/src/extra/libs/qrcode/qrcodegen.c **** 	history[0] = run;
 2403              		.loc 1 718 2 is_stmt 1 view .LVU592
 2404 0006 0622     		movs	r2, #6
ARM GAS  C:\usertemp\ccXENK9d.s 			page 70


 2405 0008 481C     		adds	r0, r1, #1
 2406              	.LVL272:
 718:lvgl/src/extra/libs/qrcode/qrcodegen.c **** 	history[0] = run;
 2407              		.loc 1 718 2 is_stmt 0 view .LVU593
 2408 000a FFF7FEFF 		bl	memmove
 2409              	.LVL273:
 719:lvgl/src/extra/libs/qrcode/qrcodegen.c **** }
 2410              		.loc 1 719 2 is_stmt 1 view .LVU594
 719:lvgl/src/extra/libs/qrcode/qrcodegen.c **** }
 2411              		.loc 1 719 13 is_stmt 0 view .LVU595
 2412 000e 2570     		strb	r5, [r4]
 720:lvgl/src/extra/libs/qrcode/qrcodegen.c **** 
 2413              		.loc 1 720 1 view .LVU596
 2414 0010 38BD     		pop	{r3, r4, r5, pc}
 720:lvgl/src/extra/libs/qrcode/qrcodegen.c **** 
 2415              		.loc 1 720 1 view .LVU597
 2416              		.cfi_endproc
 2417              	.LFE19:
 2419              		.section	.rodata.qrcodegen_getSize.str1.4,"aMS",%progbits,1
 2420              		.align	2
 2421              	.LC15:
 2422 0000 7172636F 		.ascii	"qrcode != NULL\000"
 2422      64652021 
 2422      3D204E55 
 2422      4C4C00
 2423 000f 00       		.align	2
 2424              	.LC16:
 2425 0010 28717263 		.ascii	"(qrcodegen_VERSION_MIN * 4 + 17) <= result && resul"
 2425      6F646567 
 2425      656E5F56 
 2425      45525349 
 2425      4F4E5F4D 
 2426 0043 74203C3D 		.ascii	"t <= (qrcodegen_VERSION_MAX * 4 + 17)\000"
 2426      20287172 
 2426      636F6465 
 2426      67656E5F 
 2426      56455253 
 2427              		.section	.text.qrcodegen_getSize,"ax",%progbits
 2428              		.align	1
 2429              		.global	qrcodegen_getSize
 2430              		.syntax unified
 2431              		.thumb
 2432              		.thumb_func
 2434              	qrcodegen_getSize:
 2435              	.LVL274:
 2436              	.LFB21:
 739:lvgl/src/extra/libs/qrcode/qrcodegen.c **** 	assert(qrcode != NULL);
 2437              		.loc 1 739 47 is_stmt 1 view -0
 2438              		.cfi_startproc
 2439              		@ args = 0, pretend = 0, frame = 0
 2440              		@ frame_needed = 0, uses_anonymous_args = 0
 739:lvgl/src/extra/libs/qrcode/qrcodegen.c **** 	assert(qrcode != NULL);
 2441              		.loc 1 739 47 is_stmt 0 view .LVU599
 2442 0000 08B5     		push	{r3, lr}
 2443              	.LCFI30:
 2444              		.cfi_def_cfa_offset 8
 2445              		.cfi_offset 3, -8
ARM GAS  C:\usertemp\ccXENK9d.s 			page 71


 2446              		.cfi_offset 14, -4
 740:lvgl/src/extra/libs/qrcode/qrcodegen.c **** 	int result = qrcode[0];
 2447              		.loc 1 740 2 is_stmt 1 view .LVU600
 2448 0002 28B1     		cbz	r0, .L209
 741:lvgl/src/extra/libs/qrcode/qrcodegen.c **** 	assert((qrcodegen_VERSION_MIN * 4 + 17) <= result
 2449              		.loc 1 741 2 view .LVU601
 741:lvgl/src/extra/libs/qrcode/qrcodegen.c **** 	assert((qrcodegen_VERSION_MIN * 4 + 17) <= result
 2450              		.loc 1 741 21 is_stmt 0 view .LVU602
 2451 0004 0078     		ldrb	r0, [r0]	@ zero_extendqisi2
 2452              	.LVL275:
 742:lvgl/src/extra/libs/qrcode/qrcodegen.c **** 		&& result <= (qrcodegen_VERSION_MAX * 4 + 17));
 2453              		.loc 1 742 2 is_stmt 1 view .LVU603
 2454 0006 A0F11503 		sub	r3, r0, #21
 2455 000a 9C2B     		cmp	r3, #156
 2456 000c 07D8     		bhi	.L210
 745:lvgl/src/extra/libs/qrcode/qrcodegen.c **** 
 2457              		.loc 1 745 1 is_stmt 0 view .LVU604
 2458 000e 08BD     		pop	{r3, pc}
 2459              	.LVL276:
 2460              	.L209:
 740:lvgl/src/extra/libs/qrcode/qrcodegen.c **** 	int result = qrcode[0];
 2461              		.loc 1 740 2 discriminator 1 view .LVU605
 2462 0010 064B     		ldr	r3, .L211
 2463 0012 074A     		ldr	r2, .L211+4
 2464 0014 4FF43971 		mov	r1, #740
 2465 0018 0648     		ldr	r0, .L211+8
 2466              	.LVL277:
 740:lvgl/src/extra/libs/qrcode/qrcodegen.c **** 	int result = qrcode[0];
 2467              		.loc 1 740 2 discriminator 1 view .LVU606
 2468 001a FFF7FEFF 		bl	__assert_func
 2469              	.LVL278:
 2470              	.L210:
 742:lvgl/src/extra/libs/qrcode/qrcodegen.c **** 		&& result <= (qrcodegen_VERSION_MAX * 4 + 17));
 2471              		.loc 1 742 2 discriminator 1 view .LVU607
 2472 001e 064B     		ldr	r3, .L211+12
 2473 0020 034A     		ldr	r2, .L211+4
 2474 0022 40F2E621 		movw	r1, #742
 2475 0026 0348     		ldr	r0, .L211+8
 2476              	.LVL279:
 742:lvgl/src/extra/libs/qrcode/qrcodegen.c **** 		&& result <= (qrcodegen_VERSION_MAX * 4 + 17));
 2477              		.loc 1 742 2 discriminator 1 view .LVU608
 2478 0028 FFF7FEFF 		bl	__assert_func
 2479              	.LVL280:
 2480              	.L212:
 742:lvgl/src/extra/libs/qrcode/qrcodegen.c **** 		&& result <= (qrcodegen_VERSION_MAX * 4 + 17));
 2481              		.loc 1 742 2 discriminator 1 view .LVU609
 2482              		.align	2
 2483              	.L211:
 2484 002c 00000000 		.word	.LC15
 2485 0030 00000000 		.word	__func__.8
 2486 0034 08000000 		.word	.LC1
 2487 0038 10000000 		.word	.LC16
 2488              		.cfi_endproc
 2489              	.LFE21:
 2491              		.section	.rodata.drawCodewords.str1.4,"aMS",%progbits,1
 2492              		.align	2
 2493              	.LC17:
ARM GAS  C:\usertemp\ccXENK9d.s 			page 72


 2494 0000 69203D3D 		.ascii	"i == dataLen * 8\000"
 2494      20646174 
 2494      614C656E 
 2494      202A2038 
 2494      00
 2495              		.section	.text.drawCodewords,"ax",%progbits
 2496              		.align	1
 2497              		.syntax unified
 2498              		.thumb
 2499              		.thumb_func
 2501              	drawCodewords:
 2502              	.LVL281:
 2503              	.LFB16:
 572:lvgl/src/extra/libs/qrcode/qrcodegen.c **** 	int qrsize = qrcodegen_getSize(qrcode);
 2504              		.loc 1 572 80 is_stmt 1 view -0
 2505              		.cfi_startproc
 2506              		@ args = 0, pretend = 0, frame = 16
 2507              		@ frame_needed = 0, uses_anonymous_args = 0
 572:lvgl/src/extra/libs/qrcode/qrcodegen.c **** 	int qrsize = qrcodegen_getSize(qrcode);
 2508              		.loc 1 572 80 is_stmt 0 view .LVU611
 2509 0000 2DE9F04F 		push	{r4, r5, r6, r7, r8, r9, r10, fp, lr}
 2510              	.LCFI31:
 2511              		.cfi_def_cfa_offset 36
 2512              		.cfi_offset 4, -36
 2513              		.cfi_offset 5, -32
 2514              		.cfi_offset 6, -28
 2515              		.cfi_offset 7, -24
 2516              		.cfi_offset 8, -20
 2517              		.cfi_offset 9, -16
 2518              		.cfi_offset 10, -12
 2519              		.cfi_offset 11, -8
 2520              		.cfi_offset 14, -4
 2521 0004 85B0     		sub	sp, sp, #20
 2522              	.LCFI32:
 2523              		.cfi_def_cfa_offset 56
 2524 0006 0390     		str	r0, [sp, #12]
 2525 0008 0191     		str	r1, [sp, #4]
 2526 000a 1746     		mov	r7, r2
 573:lvgl/src/extra/libs/qrcode/qrcodegen.c **** 	int i = 0;  // Bit index into the data
 2527              		.loc 1 573 2 is_stmt 1 view .LVU612
 573:lvgl/src/extra/libs/qrcode/qrcodegen.c **** 	int i = 0;  // Bit index into the data
 2528              		.loc 1 573 15 is_stmt 0 view .LVU613
 2529 000c 1046     		mov	r0, r2
 2530              	.LVL282:
 573:lvgl/src/extra/libs/qrcode/qrcodegen.c **** 	int i = 0;  // Bit index into the data
 2531              		.loc 1 573 15 view .LVU614
 2532 000e FFF7FEFF 		bl	qrcodegen_getSize
 2533              	.LVL283:
 573:lvgl/src/extra/libs/qrcode/qrcodegen.c **** 	int i = 0;  // Bit index into the data
 2534              		.loc 1 573 15 view .LVU615
 2535 0012 0646     		mov	r6, r0
 2536              	.LVL284:
 574:lvgl/src/extra/libs/qrcode/qrcodegen.c **** 	// Do the funny zigzag scan
 2537              		.loc 1 574 2 is_stmt 1 view .LVU616
 576:lvgl/src/extra/libs/qrcode/qrcodegen.c **** 		if (right == 6)
 2538              		.loc 1 576 2 view .LVU617
 2539              	.LBB45:
ARM GAS  C:\usertemp\ccXENK9d.s 			page 73


 576:lvgl/src/extra/libs/qrcode/qrcodegen.c **** 		if (right == 6)
 2540              		.loc 1 576 7 view .LVU618
 576:lvgl/src/extra/libs/qrcode/qrcodegen.c **** 		if (right == 6)
 2541              		.loc 1 576 11 is_stmt 0 view .LVU619
 2542 0014 00F1FF3A 		add	r10, r0, #-1
 2543              	.LVL285:
 576:lvgl/src/extra/libs/qrcode/qrcodegen.c **** 		if (right == 6)
 2544              		.loc 1 576 11 view .LVU620
 2545 0018 D346     		mov	fp, r10
 2546              	.LBE45:
 574:lvgl/src/extra/libs/qrcode/qrcodegen.c **** 	// Do the funny zigzag scan
 2547              		.loc 1 574 6 view .LVU621
 2548 001a 4FF00008 		mov	r8, #0
 2549 001e CDF808A0 		str	r10, [sp, #8]
 2550              	.LBB53:
 576:lvgl/src/extra/libs/qrcode/qrcodegen.c **** 		if (right == 6)
 2551              		.loc 1 576 2 view .LVU622
 2552 0022 36E0     		b	.L214
 2553              	.LVL286:
 2554              	.L231:
 578:lvgl/src/extra/libs/qrcode/qrcodegen.c **** 		for (int vert = 0; vert < qrsize; vert++) {  // Vertical counter
 2555              		.loc 1 578 10 view .LVU623
 2556 0024 4FF0050B 		mov	fp, #5
 2557              	.LVL287:
 578:lvgl/src/extra/libs/qrcode/qrcodegen.c **** 		for (int vert = 0; vert < qrsize; vert++) {  // Vertical counter
 2558              		.loc 1 578 10 view .LVU624
 2559 0028 39E0     		b	.L215
 2560              	.LVL288:
 2561              	.L224:
 2562              	.LBB46:
 2563              	.LBB47:
 2564              	.LBB48:
 583:lvgl/src/extra/libs/qrcode/qrcodegen.c **** 				if (!getModule(qrcode, x, y) && i < dataLen * 8) {
 2565              		.loc 1 583 40 discriminator 2 view .LVU625
 2566 002a D146     		mov	r9, r10
 2567              	.LVL289:
 2568              	.L217:
 584:lvgl/src/extra/libs/qrcode/qrcodegen.c **** 					bool black = getBit(data[i >> 3], 7 - (i & 7));
 2569              		.loc 1 584 5 is_stmt 1 view .LVU626
 584:lvgl/src/extra/libs/qrcode/qrcodegen.c **** 					bool black = getBit(data[i >> 3], 7 - (i & 7));
 2570              		.loc 1 584 10 is_stmt 0 view .LVU627
 2571 002c 4A46     		mov	r2, r9
 2572 002e 2946     		mov	r1, r5
 2573 0030 3846     		mov	r0, r7
 2574 0032 FFF7FEFF 		bl	getModule
 2575              	.LVL290:
 584:lvgl/src/extra/libs/qrcode/qrcodegen.c **** 					bool black = getBit(data[i >> 3], 7 - (i & 7));
 2576              		.loc 1 584 8 discriminator 1 view .LVU628
 2577 0036 18B9     		cbnz	r0, .L218
 584:lvgl/src/extra/libs/qrcode/qrcodegen.c **** 					bool black = getBit(data[i >> 3], 7 - (i & 7));
 2578              		.loc 1 584 34 discriminator 1 view .LVU629
 2579 0038 019B     		ldr	r3, [sp, #4]
 2580 003a B8EBC30F 		cmp	r8, r3, lsl #3
 2581 003e 0DDB     		blt	.L227
 2582              	.L218:
 584:lvgl/src/extra/libs/qrcode/qrcodegen.c **** 					bool black = getBit(data[i >> 3], 7 - (i & 7));
 2583              		.loc 1 584 34 discriminator 1 view .LVU630
ARM GAS  C:\usertemp\ccXENK9d.s 			page 74


 2584              	.LBE48:
 580:lvgl/src/extra/libs/qrcode/qrcodegen.c **** 				int x = right - j;  // Actual x coordinate
 2585              		.loc 1 580 28 is_stmt 1 discriminator 2 view .LVU631
 2586 0040 0134     		adds	r4, r4, #1
 2587              	.LVL291:
 2588              	.L220:
 580:lvgl/src/extra/libs/qrcode/qrcodegen.c **** 				int x = right - j;  // Actual x coordinate
 2589              		.loc 1 580 22 discriminator 1 view .LVU632
 2590 0042 012C     		cmp	r4, #1
 2591 0044 1DDC     		bgt	.L228
 2592              	.LBB50:
 581:lvgl/src/extra/libs/qrcode/qrcodegen.c **** 				bool upward = ((right + 1) & 2) == 0;
 2593              		.loc 1 581 5 view .LVU633
 581:lvgl/src/extra/libs/qrcode/qrcodegen.c **** 				bool upward = ((right + 1) & 2) == 0;
 2594              		.loc 1 581 9 is_stmt 0 view .LVU634
 2595 0046 ABEB0405 		sub	r5, fp, r4
 2596              	.LVL292:
 582:lvgl/src/extra/libs/qrcode/qrcodegen.c **** 				int y = upward ? qrsize - 1 - vert : vert;  // Actual y coordinate
 2597              		.loc 1 582 5 is_stmt 1 view .LVU635
 582:lvgl/src/extra/libs/qrcode/qrcodegen.c **** 				int y = upward ? qrsize - 1 - vert : vert;  // Actual y coordinate
 2598              		.loc 1 582 27 is_stmt 0 view .LVU636
 2599 004a 0BF10103 		add	r3, fp, #1
 2600              	.LVL293:
 583:lvgl/src/extra/libs/qrcode/qrcodegen.c **** 				if (!getModule(qrcode, x, y) && i < dataLen * 8) {
 2601              		.loc 1 583 5 is_stmt 1 view .LVU637
 583:lvgl/src/extra/libs/qrcode/qrcodegen.c **** 				if (!getModule(qrcode, x, y) && i < dataLen * 8) {
 2602              		.loc 1 583 40 is_stmt 0 view .LVU638
 2603 004e 13F0020F 		tst	r3, #2
 2604 0052 EAD1     		bne	.L224
 583:lvgl/src/extra/libs/qrcode/qrcodegen.c **** 				if (!getModule(qrcode, x, y) && i < dataLen * 8) {
 2605              		.loc 1 583 40 discriminator 1 view .LVU639
 2606 0054 029B     		ldr	r3, [sp, #8]
 2607              	.LVL294:
 583:lvgl/src/extra/libs/qrcode/qrcodegen.c **** 				if (!getModule(qrcode, x, y) && i < dataLen * 8) {
 2608              		.loc 1 583 40 discriminator 1 view .LVU640
 2609 0056 A3EB0A09 		sub	r9, r3, r10
 2610 005a E7E7     		b	.L217
 2611              	.LVL295:
 2612              	.L227:
 2613              	.LBB49:
 585:lvgl/src/extra/libs/qrcode/qrcodegen.c **** 					setModule(qrcode, x, y, black);
 2614              		.loc 1 585 6 is_stmt 1 view .LVU641
 585:lvgl/src/extra/libs/qrcode/qrcodegen.c **** 					setModule(qrcode, x, y, black);
 2615              		.loc 1 585 33 is_stmt 0 view .LVU642
 2616 005c 4FEAE803 		asr	r3, r8, #3
 585:lvgl/src/extra/libs/qrcode/qrcodegen.c **** 					setModule(qrcode, x, y, black);
 2617              		.loc 1 585 42 view .LVU643
 2618 0060 6FEA0801 		mvn	r1, r8
 585:lvgl/src/extra/libs/qrcode/qrcodegen.c **** 					setModule(qrcode, x, y, black);
 2619              		.loc 1 585 19 view .LVU644
 2620 0064 01F00701 		and	r1, r1, #7
 2621 0068 039A     		ldr	r2, [sp, #12]
 2622 006a D05C     		ldrb	r0, [r2, r3]	@ zero_extendqisi2
 2623 006c FFF7FEFF 		bl	getBit
 2624              	.LVL296:
 2625 0070 0346     		mov	r3, r0
 2626              	.LVL297:
ARM GAS  C:\usertemp\ccXENK9d.s 			page 75


 586:lvgl/src/extra/libs/qrcode/qrcodegen.c **** 					i++;
 2627              		.loc 1 586 6 is_stmt 1 view .LVU645
 2628 0072 4A46     		mov	r2, r9
 2629 0074 2946     		mov	r1, r5
 2630 0076 3846     		mov	r0, r7
 2631 0078 FFF7FEFF 		bl	setModule
 2632              	.LVL298:
 587:lvgl/src/extra/libs/qrcode/qrcodegen.c **** 				}
 2633              		.loc 1 587 6 view .LVU646
 587:lvgl/src/extra/libs/qrcode/qrcodegen.c **** 				}
 2634              		.loc 1 587 7 is_stmt 0 view .LVU647
 2635 007c 08F10108 		add	r8, r8, #1
 2636              	.LVL299:
 587:lvgl/src/extra/libs/qrcode/qrcodegen.c **** 				}
 2637              		.loc 1 587 7 view .LVU648
 2638 0080 DEE7     		b	.L218
 2639              	.LVL300:
 2640              	.L228:
 587:lvgl/src/extra/libs/qrcode/qrcodegen.c **** 				}
 2641              		.loc 1 587 7 view .LVU649
 2642              	.LBE49:
 2643              	.LBE50:
 2644              	.LBE47:
 579:lvgl/src/extra/libs/qrcode/qrcodegen.c **** 			for (int j = 0; j < 2; j++) {
 2645              		.loc 1 579 41 is_stmt 1 discriminator 2 view .LVU650
 2646 0082 0AF1010A 		add	r10, r10, #1
 2647              	.LVL301:
 2648              	.L216:
 579:lvgl/src/extra/libs/qrcode/qrcodegen.c **** 			for (int j = 0; j < 2; j++) {
 2649              		.loc 1 579 27 discriminator 1 view .LVU651
 2650 0086 B245     		cmp	r10, r6
 2651 0088 01DA     		bge	.L229
 2652              	.LBB51:
 580:lvgl/src/extra/libs/qrcode/qrcodegen.c **** 				int x = right - j;  // Actual x coordinate
 2653              		.loc 1 580 13 is_stmt 0 view .LVU652
 2654 008a 0024     		movs	r4, #0
 2655 008c D9E7     		b	.L220
 2656              	.L229:
 2657              	.LBE51:
 2658              	.LBE46:
 576:lvgl/src/extra/libs/qrcode/qrcodegen.c **** 		if (right == 6)
 2659              		.loc 1 576 49 is_stmt 1 discriminator 2 view .LVU653
 2660 008e ABF1020B 		sub	fp, fp, #2
 2661              	.LVL302:
 2662              	.L214:
 576:lvgl/src/extra/libs/qrcode/qrcodegen.c **** 		if (right == 6)
 2663              		.loc 1 576 37 discriminator 1 view .LVU654
 2664 0092 BBF1000F 		cmp	fp, #0
 2665 0096 05DD     		ble	.L230
 577:lvgl/src/extra/libs/qrcode/qrcodegen.c **** 			right = 5;
 2666              		.loc 1 577 3 view .LVU655
 577:lvgl/src/extra/libs/qrcode/qrcodegen.c **** 			right = 5;
 2667              		.loc 1 577 6 is_stmt 0 view .LVU656
 2668 0098 BBF1060F 		cmp	fp, #6
 2669 009c C2D0     		beq	.L231
 2670              	.LVL303:
 2671              	.L215:
ARM GAS  C:\usertemp\ccXENK9d.s 			page 76


 579:lvgl/src/extra/libs/qrcode/qrcodegen.c **** 			for (int j = 0; j < 2; j++) {
 2672              		.loc 1 579 3 is_stmt 1 view .LVU657
 2673              	.LBB52:
 579:lvgl/src/extra/libs/qrcode/qrcodegen.c **** 			for (int j = 0; j < 2; j++) {
 2674              		.loc 1 579 8 view .LVU658
 579:lvgl/src/extra/libs/qrcode/qrcodegen.c **** 			for (int j = 0; j < 2; j++) {
 2675              		.loc 1 579 12 is_stmt 0 view .LVU659
 2676 009e 4FF0000A 		mov	r10, #0
 579:lvgl/src/extra/libs/qrcode/qrcodegen.c **** 			for (int j = 0; j < 2; j++) {
 2677              		.loc 1 579 3 view .LVU660
 2678 00a2 F0E7     		b	.L216
 2679              	.LVL304:
 2680              	.L230:
 579:lvgl/src/extra/libs/qrcode/qrcodegen.c **** 			for (int j = 0; j < 2; j++) {
 2681              		.loc 1 579 3 view .LVU661
 2682              	.LBE52:
 2683              	.LBE53:
 594:lvgl/src/extra/libs/qrcode/qrcodegen.c **** }
 2684              		.loc 1 594 2 is_stmt 1 view .LVU662
 2685 00a4 019B     		ldr	r3, [sp, #4]
 2686 00a6 B8EBC30F 		cmp	r8, r3, lsl #3
 2687 00aa 02D1     		bne	.L232
 595:lvgl/src/extra/libs/qrcode/qrcodegen.c **** 
 2688              		.loc 1 595 1 is_stmt 0 view .LVU663
 2689 00ac 05B0     		add	sp, sp, #20
 2690              	.LCFI33:
 2691              		.cfi_remember_state
 2692              		.cfi_def_cfa_offset 36
 2693              		@ sp needed
 2694 00ae BDE8F08F 		pop	{r4, r5, r6, r7, r8, r9, r10, fp, pc}
 2695              	.LVL305:
 2696              	.L232:
 2697              	.LCFI34:
 2698              		.cfi_restore_state
 594:lvgl/src/extra/libs/qrcode/qrcodegen.c **** }
 2699              		.loc 1 594 2 discriminator 1 view .LVU664
 2700 00b2 034B     		ldr	r3, .L233
 2701 00b4 034A     		ldr	r2, .L233+4
 2702 00b6 40F25221 		movw	r1, #594
 2703 00ba 0348     		ldr	r0, .L233+8
 2704 00bc FFF7FEFF 		bl	__assert_func
 2705              	.LVL306:
 2706              	.L234:
 2707              		.align	2
 2708              	.L233:
 2709 00c0 00000000 		.word	.LC17
 2710 00c4 00000000 		.word	__func__.15
 2711 00c8 08000000 		.word	.LC1
 2712              		.cfi_endproc
 2713              	.LFE16:
 2715              		.section	.rodata.drawWhiteFunctionModules.str1.4,"aMS",%progbits,1
 2716              		.align	2
 2717              	.LC18:
 2718 0000 62697473 		.ascii	"bits >> 18 == 0\000"
 2718      203E3E20 
 2718      3138203D 
 2718      3D203000 
ARM GAS  C:\usertemp\ccXENK9d.s 			page 77


 2719              		.section	.text.drawWhiteFunctionModules,"ax",%progbits
 2720              		.align	1
 2721              		.syntax unified
 2722              		.thumb
 2723              		.thumb_func
 2725              	drawWhiteFunctionModules:
 2726              	.LVL307:
 2727              	.LFB12:
 450:lvgl/src/extra/libs/qrcode/qrcodegen.c **** 	// Draw horizontal and vertical timing patterns
 2728              		.loc 1 450 69 is_stmt 1 view -0
 2729              		.cfi_startproc
 2730              		@ args = 0, pretend = 0, frame = 8
 2731              		@ frame_needed = 0, uses_anonymous_args = 0
 450:lvgl/src/extra/libs/qrcode/qrcodegen.c **** 	// Draw horizontal and vertical timing patterns
 2732              		.loc 1 450 69 is_stmt 0 view .LVU666
 2733 0000 2DE9F04F 		push	{r4, r5, r6, r7, r8, r9, r10, fp, lr}
 2734              	.LCFI35:
 2735              		.cfi_def_cfa_offset 36
 2736              		.cfi_offset 4, -36
 2737              		.cfi_offset 5, -32
 2738              		.cfi_offset 6, -28
 2739              		.cfi_offset 7, -24
 2740              		.cfi_offset 8, -20
 2741              		.cfi_offset 9, -16
 2742              		.cfi_offset 10, -12
 2743              		.cfi_offset 11, -8
 2744              		.cfi_offset 14, -4
 2745 0004 83B0     		sub	sp, sp, #12
 2746              	.LCFI36:
 2747              		.cfi_def_cfa_offset 48
 2748 0006 8046     		mov	r8, r0
