ARM GAS  C:\usertemp\cchE30wT.s 			page 1


   1              		.cpu cortex-m7
   2              		.arch armv7e-m
   3              		.fpu fpv5-d16
   4              		.eabi_attribute 28, 1
   5              		.eabi_attribute 20, 1
   6              		.eabi_attribute 21, 1
   7              		.eabi_attribute 23, 3
   8              		.eabi_attribute 24, 1
   9              		.eabi_attribute 25, 1
  10              		.eabi_attribute 26, 1
  11              		.eabi_attribute 30, 1
  12              		.eabi_attribute 34, 1
  13              		.eabi_attribute 18, 4
  14              		.file	"setup_scr_wave_model.c"
  15              		.text
  16              	.Ltext0:
  17              		.cfi_sections	.debug_frame
  18              		.file 1 "generated/setup_scr_wave_model.c"
  19              		.section	.text.lv_obj_set_style_pad_all,"ax",%progbits
  20              		.align	1
  21              		.syntax unified
  22              		.thumb
  23              		.thumb_func
  25              	lv_obj_set_style_pad_all:
  26              	.LVL0:
  27              	.LFB148:
  28              		.file 2 "lvgl/src/core/lv_obj_style.h"
   1:lvgl/src/core/lv_obj_style.h **** /**
   2:lvgl/src/core/lv_obj_style.h ****  * @file lv_obj_style.h
   3:lvgl/src/core/lv_obj_style.h ****  *
   4:lvgl/src/core/lv_obj_style.h ****  */
   5:lvgl/src/core/lv_obj_style.h **** 
   6:lvgl/src/core/lv_obj_style.h **** #ifndef LV_OBJ_STYLE_H
   7:lvgl/src/core/lv_obj_style.h **** #define LV_OBJ_STYLE_H
   8:lvgl/src/core/lv_obj_style.h **** 
   9:lvgl/src/core/lv_obj_style.h **** #ifdef __cplusplus
  10:lvgl/src/core/lv_obj_style.h **** extern "C" {
  11:lvgl/src/core/lv_obj_style.h **** #endif
  12:lvgl/src/core/lv_obj_style.h **** 
  13:lvgl/src/core/lv_obj_style.h **** /*********************
  14:lvgl/src/core/lv_obj_style.h ****  *      INCLUDES
  15:lvgl/src/core/lv_obj_style.h ****  *********************/
  16:lvgl/src/core/lv_obj_style.h **** #include <stdint.h>
  17:lvgl/src/core/lv_obj_style.h **** #include <stdbool.h>
  18:lvgl/src/core/lv_obj_style.h **** #include "../misc/lv_bidi.h"
  19:lvgl/src/core/lv_obj_style.h **** 
  20:lvgl/src/core/lv_obj_style.h **** /*********************
  21:lvgl/src/core/lv_obj_style.h ****  *      DEFINES
  22:lvgl/src/core/lv_obj_style.h ****  *********************/
  23:lvgl/src/core/lv_obj_style.h **** 
  24:lvgl/src/core/lv_obj_style.h **** /**********************
  25:lvgl/src/core/lv_obj_style.h ****  *      TYPEDEFS
  26:lvgl/src/core/lv_obj_style.h ****  **********************/
  27:lvgl/src/core/lv_obj_style.h **** /*Can't include lv_obj.h because it includes this header file*/
  28:lvgl/src/core/lv_obj_style.h **** struct _lv_obj_t;
  29:lvgl/src/core/lv_obj_style.h **** 
  30:lvgl/src/core/lv_obj_style.h **** typedef enum {
ARM GAS  C:\usertemp\cchE30wT.s 			page 2


  31:lvgl/src/core/lv_obj_style.h ****     _LV_STYLE_STATE_CMP_SAME,           /*The style properties in the 2 states are identical*/
  32:lvgl/src/core/lv_obj_style.h ****     _LV_STYLE_STATE_CMP_DIFF_REDRAW,    /*The differences can be shown with a simple redraw*/
  33:lvgl/src/core/lv_obj_style.h ****     _LV_STYLE_STATE_CMP_DIFF_DRAW_PAD,  /*The differences can be shown with a simple redraw*/
  34:lvgl/src/core/lv_obj_style.h ****     _LV_STYLE_STATE_CMP_DIFF_LAYOUT,    /*The differences can be shown with a simple redraw*/
  35:lvgl/src/core/lv_obj_style.h **** } _lv_style_state_cmp_t;
  36:lvgl/src/core/lv_obj_style.h **** 
  37:lvgl/src/core/lv_obj_style.h **** typedef uint32_t lv_style_selector_t;
  38:lvgl/src/core/lv_obj_style.h **** 
  39:lvgl/src/core/lv_obj_style.h **** typedef struct {
  40:lvgl/src/core/lv_obj_style.h ****     lv_style_t * style;
  41:lvgl/src/core/lv_obj_style.h ****     uint32_t selector : 24;
  42:lvgl/src/core/lv_obj_style.h ****     uint32_t is_local : 1;
  43:lvgl/src/core/lv_obj_style.h ****     uint32_t is_trans : 1;
  44:lvgl/src/core/lv_obj_style.h **** } _lv_obj_style_t;
  45:lvgl/src/core/lv_obj_style.h **** 
  46:lvgl/src/core/lv_obj_style.h **** typedef struct {
  47:lvgl/src/core/lv_obj_style.h ****     uint16_t time;
  48:lvgl/src/core/lv_obj_style.h ****     uint16_t delay;
  49:lvgl/src/core/lv_obj_style.h ****     lv_style_selector_t selector;
  50:lvgl/src/core/lv_obj_style.h ****     lv_style_prop_t prop;
  51:lvgl/src/core/lv_obj_style.h ****     lv_anim_path_cb_t path_cb;
  52:lvgl/src/core/lv_obj_style.h **** #if LV_USE_USER_DATA
  53:lvgl/src/core/lv_obj_style.h ****     void * user_data;
  54:lvgl/src/core/lv_obj_style.h **** #endif
  55:lvgl/src/core/lv_obj_style.h **** } _lv_obj_style_transition_dsc_t;
  56:lvgl/src/core/lv_obj_style.h **** 
  57:lvgl/src/core/lv_obj_style.h **** /**********************
  58:lvgl/src/core/lv_obj_style.h ****  * GLOBAL PROTOTYPES
  59:lvgl/src/core/lv_obj_style.h ****  **********************/
  60:lvgl/src/core/lv_obj_style.h **** 
  61:lvgl/src/core/lv_obj_style.h **** /**
  62:lvgl/src/core/lv_obj_style.h ****  * Initialize the object related style manager module.
  63:lvgl/src/core/lv_obj_style.h ****  * Called by LVGL in `lv_init()`
  64:lvgl/src/core/lv_obj_style.h ****  */
  65:lvgl/src/core/lv_obj_style.h **** void _lv_obj_style_init(void);
  66:lvgl/src/core/lv_obj_style.h **** 
  67:lvgl/src/core/lv_obj_style.h **** /**
  68:lvgl/src/core/lv_obj_style.h ****  * Add a style to an object.
  69:lvgl/src/core/lv_obj_style.h ****  * @param obj       pointer to an object
  70:lvgl/src/core/lv_obj_style.h ****  * @param style     pointer to a style to add
  71:lvgl/src/core/lv_obj_style.h ****  * @param selector  OR-ed value of parts and state to which the style should be added
  72:lvgl/src/core/lv_obj_style.h ****  * @example         lv_obj_add_style(btn, &style_btn, 0); //Default button style
  73:lvgl/src/core/lv_obj_style.h ****  * @example         lv_obj_add_style(btn, &btn_red, LV_STATE_PRESSED); //Overwrite only some colors
  74:lvgl/src/core/lv_obj_style.h ****  */
  75:lvgl/src/core/lv_obj_style.h **** void lv_obj_add_style(struct _lv_obj_t * obj, lv_style_t * style, lv_style_selector_t selector);
  76:lvgl/src/core/lv_obj_style.h **** 
  77:lvgl/src/core/lv_obj_style.h **** /**
  78:lvgl/src/core/lv_obj_style.h ****  * Add a style to an object.
  79:lvgl/src/core/lv_obj_style.h ****  * @param obj       pointer to an object
  80:lvgl/src/core/lv_obj_style.h ****  * @param style     pointer to a style to remove. Can be NULL to check only the selector
  81:lvgl/src/core/lv_obj_style.h ****  * @param selector  OR-ed values of states and a part to remove only styles with matching selectors
  82:lvgl/src/core/lv_obj_style.h ****  * @example lv_obj_remove_style(obj, &style, LV_PART_ANY | LV_STATE_ANY); //Remove a specific style
  83:lvgl/src/core/lv_obj_style.h ****  * @example lv_obj_remove_style(obj, NULL, LV_PART_MAIN | LV_STATE_ANY); //Remove all styles from t
  84:lvgl/src/core/lv_obj_style.h ****  * @example lv_obj_remove_style(obj, NULL, LV_PART_ANY | LV_STATE_ANY); //Remove all styles
  85:lvgl/src/core/lv_obj_style.h ****  */
  86:lvgl/src/core/lv_obj_style.h **** void lv_obj_remove_style(struct _lv_obj_t * obj, lv_style_t * style, lv_style_selector_t selector);
  87:lvgl/src/core/lv_obj_style.h **** 
ARM GAS  C:\usertemp\cchE30wT.s 			page 3


  88:lvgl/src/core/lv_obj_style.h **** /**
  89:lvgl/src/core/lv_obj_style.h ****  * Remove all styles from an object
  90:lvgl/src/core/lv_obj_style.h ****  * @param obj       pointer to an object
  91:lvgl/src/core/lv_obj_style.h ****  */
  92:lvgl/src/core/lv_obj_style.h **** static inline void lv_obj_remove_style_all(struct _lv_obj_t * obj)
  93:lvgl/src/core/lv_obj_style.h **** {
  94:lvgl/src/core/lv_obj_style.h ****     lv_obj_remove_style(obj, NULL, LV_PART_ANY | LV_STATE_ANY);
  95:lvgl/src/core/lv_obj_style.h **** }
  96:lvgl/src/core/lv_obj_style.h **** 
  97:lvgl/src/core/lv_obj_style.h **** /**
  98:lvgl/src/core/lv_obj_style.h ****  * Notify all object if a style is modified
  99:lvgl/src/core/lv_obj_style.h ****  * @param style     pointer to a style. Only the objects with this style will be notified
 100:lvgl/src/core/lv_obj_style.h ****  *                  (NULL to notify all objects)
 101:lvgl/src/core/lv_obj_style.h ****  */
 102:lvgl/src/core/lv_obj_style.h **** void lv_obj_report_style_change(lv_style_t * style);
 103:lvgl/src/core/lv_obj_style.h **** 
 104:lvgl/src/core/lv_obj_style.h **** /**
 105:lvgl/src/core/lv_obj_style.h ****  * Notify an object and its children about its style is modified.
 106:lvgl/src/core/lv_obj_style.h ****  * @param obj       pointer to an object
 107:lvgl/src/core/lv_obj_style.h ****  * @param part      the part whose style was changed. E.g. `LV_PART_ANY`, `LV_PART_MAIN`
 108:lvgl/src/core/lv_obj_style.h ****  * @param prop      `LV_STYLE_PROP_ANY` or an `LV_STYLE_...` property.
 109:lvgl/src/core/lv_obj_style.h ****  *                  It is used to optimize what needs to be refreshed.
 110:lvgl/src/core/lv_obj_style.h ****  *                  `LV_STYLE_PROP_INV` to perform only a style cache update
 111:lvgl/src/core/lv_obj_style.h ****  */
 112:lvgl/src/core/lv_obj_style.h **** void lv_obj_refresh_style(struct _lv_obj_t * obj, lv_part_t part, lv_style_prop_t prop);
 113:lvgl/src/core/lv_obj_style.h **** 
 114:lvgl/src/core/lv_obj_style.h **** /**
 115:lvgl/src/core/lv_obj_style.h ****  * Enable or disable automatic style refreshing when a new style is added/removed to/from an object
 116:lvgl/src/core/lv_obj_style.h ****  * or any other style change happens.
 117:lvgl/src/core/lv_obj_style.h ****  * @param en        true: enable refreshing; false: disable refreshing
 118:lvgl/src/core/lv_obj_style.h ****  */
 119:lvgl/src/core/lv_obj_style.h **** void lv_obj_enable_style_refresh(bool en);
 120:lvgl/src/core/lv_obj_style.h **** 
 121:lvgl/src/core/lv_obj_style.h **** /**
 122:lvgl/src/core/lv_obj_style.h ****  * Get the value of a style property. The current state of the object will be considered.
 123:lvgl/src/core/lv_obj_style.h ****  * Inherited properties will be inherited.
 124:lvgl/src/core/lv_obj_style.h ****  * If a property is not set a default value will be returned.
 125:lvgl/src/core/lv_obj_style.h ****  * @param obj       pointer to an object
 126:lvgl/src/core/lv_obj_style.h ****  * @param part      a part from which the property should be get
 127:lvgl/src/core/lv_obj_style.h ****  * @param prop      the property to get
 128:lvgl/src/core/lv_obj_style.h ****  * @return          the value of the property.
 129:lvgl/src/core/lv_obj_style.h ****  *                  Should be read from the correct field of the `lv_style_value_t` according to th
 130:lvgl/src/core/lv_obj_style.h ****  */
 131:lvgl/src/core/lv_obj_style.h **** lv_style_value_t lv_obj_get_style_prop(const struct _lv_obj_t * obj, lv_part_t part, lv_style_prop_
 132:lvgl/src/core/lv_obj_style.h **** 
 133:lvgl/src/core/lv_obj_style.h **** /**
 134:lvgl/src/core/lv_obj_style.h ****  * Set local style property on an object's part and state.
 135:lvgl/src/core/lv_obj_style.h ****  * @param obj       pointer to an object
 136:lvgl/src/core/lv_obj_style.h ****  * @param prop      the property
 137:lvgl/src/core/lv_obj_style.h ****  * @param value     value of the property. The correct element should be set according to the type 
 138:lvgl/src/core/lv_obj_style.h ****  * @param selector  OR-ed value of parts and state for which the style should be set
 139:lvgl/src/core/lv_obj_style.h ****  */
 140:lvgl/src/core/lv_obj_style.h **** void lv_obj_set_local_style_prop(struct _lv_obj_t * obj, lv_style_prop_t prop, lv_style_value_t val
 141:lvgl/src/core/lv_obj_style.h ****                                  lv_style_selector_t selector);
 142:lvgl/src/core/lv_obj_style.h **** 
 143:lvgl/src/core/lv_obj_style.h **** lv_res_t lv_obj_get_local_style_prop(struct _lv_obj_t * obj, lv_style_prop_t prop, lv_style_value_t
 144:lvgl/src/core/lv_obj_style.h ****                                      lv_style_selector_t selector);
ARM GAS  C:\usertemp\cchE30wT.s 			page 4


 145:lvgl/src/core/lv_obj_style.h **** 
 146:lvgl/src/core/lv_obj_style.h **** /**
 147:lvgl/src/core/lv_obj_style.h ****  * Remove a local style property from a part of an object with a given state.
 148:lvgl/src/core/lv_obj_style.h ****  * @param obj       pointer to an object
 149:lvgl/src/core/lv_obj_style.h ****  * @param prop      a style property to remove.
 150:lvgl/src/core/lv_obj_style.h ****  * @param selector  OR-ed value of parts and state for which the style should be removed
 151:lvgl/src/core/lv_obj_style.h ****  * @return true     the property was found and removed; false: the property was not found
 152:lvgl/src/core/lv_obj_style.h ****  */
 153:lvgl/src/core/lv_obj_style.h **** bool lv_obj_remove_local_style_prop(struct _lv_obj_t * obj, lv_style_prop_t prop, lv_style_selector
 154:lvgl/src/core/lv_obj_style.h **** 
 155:lvgl/src/core/lv_obj_style.h **** /**
 156:lvgl/src/core/lv_obj_style.h ****  * Used internally to create a style transition
 157:lvgl/src/core/lv_obj_style.h ****  * @param obj
 158:lvgl/src/core/lv_obj_style.h ****  * @param part
 159:lvgl/src/core/lv_obj_style.h ****  * @param prev_state
 160:lvgl/src/core/lv_obj_style.h ****  * @param new_state
 161:lvgl/src/core/lv_obj_style.h ****  * @param tr
 162:lvgl/src/core/lv_obj_style.h ****  */
 163:lvgl/src/core/lv_obj_style.h **** void _lv_obj_style_create_transition(struct _lv_obj_t * obj, lv_part_t part, lv_state_t prev_state,
 164:lvgl/src/core/lv_obj_style.h ****                                      lv_state_t new_state, const _lv_obj_style_transition_dsc_t * t
 165:lvgl/src/core/lv_obj_style.h **** 
 166:lvgl/src/core/lv_obj_style.h **** /**
 167:lvgl/src/core/lv_obj_style.h ****  * Used internally to compare the appearance of an object in 2 states
 168:lvgl/src/core/lv_obj_style.h ****  * @param obj
 169:lvgl/src/core/lv_obj_style.h ****  * @param state1
 170:lvgl/src/core/lv_obj_style.h ****  * @param state2
 171:lvgl/src/core/lv_obj_style.h ****  * @return
 172:lvgl/src/core/lv_obj_style.h ****  */
 173:lvgl/src/core/lv_obj_style.h **** _lv_style_state_cmp_t _lv_obj_style_state_compare(struct _lv_obj_t * obj, lv_state_t state1, lv_sta
 174:lvgl/src/core/lv_obj_style.h **** 
 175:lvgl/src/core/lv_obj_style.h **** /**
 176:lvgl/src/core/lv_obj_style.h ****  * Fade in an an object and all its children.
 177:lvgl/src/core/lv_obj_style.h ****  * @param obj       the object to fade in
 178:lvgl/src/core/lv_obj_style.h ****  * @param time      time of fade
 179:lvgl/src/core/lv_obj_style.h ****  * @param delay     delay to start the animation
 180:lvgl/src/core/lv_obj_style.h ****  */
 181:lvgl/src/core/lv_obj_style.h **** void lv_obj_fade_in(struct _lv_obj_t * obj, uint32_t time, uint32_t delay);
 182:lvgl/src/core/lv_obj_style.h **** 
 183:lvgl/src/core/lv_obj_style.h **** /**
 184:lvgl/src/core/lv_obj_style.h ****  * Fade out an an object and all its children.
 185:lvgl/src/core/lv_obj_style.h ****  * @param obj       the object to fade out
 186:lvgl/src/core/lv_obj_style.h ****  * @param time      time of fade
 187:lvgl/src/core/lv_obj_style.h ****  * @param delay     delay to start the animation
 188:lvgl/src/core/lv_obj_style.h ****  */
 189:lvgl/src/core/lv_obj_style.h **** void lv_obj_fade_out(struct _lv_obj_t * obj, uint32_t time, uint32_t delay);
 190:lvgl/src/core/lv_obj_style.h **** 
 191:lvgl/src/core/lv_obj_style.h **** lv_state_t lv_obj_style_get_selector_state(lv_style_selector_t selector);
 192:lvgl/src/core/lv_obj_style.h **** 
 193:lvgl/src/core/lv_obj_style.h **** lv_part_t lv_obj_style_get_selector_part(lv_style_selector_t selector);
 194:lvgl/src/core/lv_obj_style.h **** 
 195:lvgl/src/core/lv_obj_style.h **** #include "lv_obj_style_gen.h"
 196:lvgl/src/core/lv_obj_style.h **** 
 197:lvgl/src/core/lv_obj_style.h **** static inline void lv_obj_set_style_pad_all(struct _lv_obj_t * obj, lv_coord_t value, lv_style_sele
 198:lvgl/src/core/lv_obj_style.h **** {
  29              		.loc 2 198 1 view -0
  30              		.cfi_startproc
  31              		@ args = 0, pretend = 0, frame = 0
ARM GAS  C:\usertemp\cchE30wT.s 			page 5


  32              		@ frame_needed = 0, uses_anonymous_args = 0
  33              		.loc 2 198 1 is_stmt 0 view .LVU1
  34 0000 70B5     		push	{r4, r5, r6, lr}
  35              	.LCFI0:
  36              		.cfi_def_cfa_offset 16
  37              		.cfi_offset 4, -16
  38              		.cfi_offset 5, -12
  39              		.cfi_offset 6, -8
  40              		.cfi_offset 14, -4
  41 0002 0446     		mov	r4, r0
  42 0004 0D46     		mov	r5, r1
  43 0006 1646     		mov	r6, r2
 199:lvgl/src/core/lv_obj_style.h ****     lv_obj_set_style_pad_left(obj, value, selector);
  44              		.loc 2 199 5 is_stmt 1 view .LVU2
  45 0008 FFF7FEFF 		bl	lv_obj_set_style_pad_left
  46              	.LVL1:
 200:lvgl/src/core/lv_obj_style.h ****     lv_obj_set_style_pad_right(obj, value, selector);
  47              		.loc 2 200 5 view .LVU3
  48 000c 3246     		mov	r2, r6
  49 000e 2946     		mov	r1, r5
  50 0010 2046     		mov	r0, r4
  51 0012 FFF7FEFF 		bl	lv_obj_set_style_pad_right
  52              	.LVL2:
 201:lvgl/src/core/lv_obj_style.h ****     lv_obj_set_style_pad_top(obj, value, selector);
  53              		.loc 2 201 5 view .LVU4
  54 0016 3246     		mov	r2, r6
  55 0018 2946     		mov	r1, r5
  56 001a 2046     		mov	r0, r4
  57 001c FFF7FEFF 		bl	lv_obj_set_style_pad_top
  58              	.LVL3:
 202:lvgl/src/core/lv_obj_style.h ****     lv_obj_set_style_pad_bottom(obj, value, selector);
  59              		.loc 2 202 5 view .LVU5
  60 0020 3246     		mov	r2, r6
  61 0022 2946     		mov	r1, r5
  62 0024 2046     		mov	r0, r4
  63 0026 FFF7FEFF 		bl	lv_obj_set_style_pad_bottom
  64              	.LVL4:
 203:lvgl/src/core/lv_obj_style.h **** }
  65              		.loc 2 203 1 is_stmt 0 view .LVU6
  66 002a 70BD     		pop	{r4, r5, r6, pc}
  67              		.loc 2 203 1 view .LVU7
  68              		.cfi_endproc
  69              	.LFE148:
  71              		.section	.rodata.setup_scr_wave_model.str1.4,"aMS",%progbits,1
  72              		.align	2
  73              	.LC0:
  74 0000 3E00     		.ascii	">\000"
  75 0002 0000     		.align	2
  76              	.LC1:
  77 0004 436100   		.ascii	"Ca\000"
  78 0007 00       		.align	2
  79              	.LC2:
  80 0008 5600     		.ascii	"V\000"
  81 000a 0000     		.align	2
  82              	.LC3:
  83 000c 4C3100   		.ascii	"L1\000"
  84 000f 00       		.align	2
ARM GAS  C:\usertemp\cchE30wT.s 			page 6


  85              	.LC4:
  86 0010 4C3200   		.ascii	"L2\000"
  87 0013 00       		.align	2
  88              	.LC5:
  89 0014 4C3300   		.ascii	"L3\000"
  90 0017 00       		.align	2
  91              	.LC6:
  92 0018 4E00     		.ascii	"N\000"
  93 001a 0000     		.align	2
  94              	.LC7:
  95 001c 706F7765 		.ascii	"power\000"
  95      7200
  96 0022 0000     		.align	2
  97              	.LC8:
  98 0024 4C616265 		.ascii	"Label\000"
  98      6C00
  99 002a 0000     		.align	2
 100              	.LC9:
 101 002c 3200     		.ascii	"2\000"
 102 002e 0000     		.align	2
 103              	.LC10:
 104 0030 3300     		.ascii	"3\000"
 105 0032 0000     		.align	2
 106              	.LC11:
 107 0034 3030302E 		.ascii	"000.0V\000"
 107      305600
 108 003b 00       		.align	2
 109              	.LC12:
 110 003c 3100     		.ascii	"1\000"
 111 003e 0000     		.align	2
 112              	.LC13:
 113 0040 3C00     		.ascii	"<\000"
 114 0042 0000     		.align	2
 115              	.LC14:
 116 0044 524D5300 		.ascii	"RMS\000"
 117              		.align	2
 118              	.LC15:
 119 0048 4D415800 		.ascii	"MAX\000"
 120              		.align	2
 121              	.LC16:
 122 004c 4D494E00 		.ascii	"MIN\000"
 123              		.align	2
 124              	.LC17:
 125 0050 54484400 		.ascii	"THD\000"
 126              		.align	2
 127              	.LC18:
 128 0054 444300   		.ascii	"DC\000"
 129 0057 00       		.align	2
 130              	.LC19:
 131 0058 3000     		.ascii	"0\000"
 132 005a 0000     		.align	2
 133              	.LC20:
 134 005c 53544152 		.ascii	"START:\000"
 134      543A00
 135 0063 00       		.align	2
 136              	.LC21:
 137 0064 30303A30 		.ascii	"00:00:00 AM\000"
ARM GAS  C:\usertemp\cchE30wT.s 			page 7


 137      303A3030 
 137      20414D00 
 138              		.align	2
 139              	.LC22:
 140 0070 582B00   		.ascii	"X+\000"
 141 0073 00       		.align	2
 142              	.LC23:
 143 0074 582D00   		.ascii	"X-\000"
 144 0077 00       		.align	2
 145              	.LC24:
 146 0078 4C2B00   		.ascii	"L+\000"
 147 007b 00       		.align	2
 148              	.LC25:
 149 007c 4C2D00   		.ascii	"L-\000"
 150 007f 00       		.align	2
 151              	.LC26:
 152 0080 592B00   		.ascii	"Y+\000"
 153 0083 00       		.align	2
 154              	.LC27:
 155 0084 592D00   		.ascii	"Y-\000"
 156 0087 00       		.align	2
 157              	.LC28:
 158 0088 504600   		.ascii	"PF\000"
 159 008b 00       		.align	2
 160              	.LC29:
 161 008c 44504600 		.ascii	"DPF\000"
 162              		.align	2
 163              	.LC30:
 164 0090 50484153 		.ascii	"PHASE\000"
 164      4500
 165 0096 0000     		.align	2
 166              	.LC31:
 167 0098 5700     		.ascii	"W\000"
 168 009a 0000     		.align	2
 169              	.LC32:
 170 009c 576800   		.ascii	"Wh\000"
 171 009f 00       		.align	2
 172              	.LC33:
 173 00a0 494D4147 		.ascii	"IMAGE:\000"
 173      453A00
 174              		.section	.text.setup_scr_wave_model,"ax",%progbits
 175              		.align	1
 176              		.global	setup_scr_wave_model
 177              		.syntax unified
 178              		.thumb
 179              		.thumb_func
 181              	setup_scr_wave_model:
 182              	.LVL5:
 183              	.LFB529:
   1:generated/setup_scr_wave_model.c **** /*
   2:generated/setup_scr_wave_model.c ****  * Copyright 2025 NXP
   3:generated/setup_scr_wave_model.c ****  * NXP Confidential and Proprietary. This software is owned or controlled by NXP and may only be us
   4:generated/setup_scr_wave_model.c ****  * accordance with the applicable license terms. By expressly accepting such terms or by downloadin
   5:generated/setup_scr_wave_model.c ****  * activating and/or otherwise using the software, you are agreeing that you have read, and that yo
   6:generated/setup_scr_wave_model.c ****  * comply with and are bound by, such license terms.  If you do not agree to be bound by the applic
   7:generated/setup_scr_wave_model.c ****  * terms, then you may not retain, install, activate or otherwise use the software.
   8:generated/setup_scr_wave_model.c ****  */
ARM GAS  C:\usertemp\cchE30wT.s 			page 8


   9:generated/setup_scr_wave_model.c **** 
  10:generated/setup_scr_wave_model.c **** #include "lvgl.h"
  11:generated/setup_scr_wave_model.c **** #include <stdio.h>
  12:generated/setup_scr_wave_model.c **** #include "gui_guider.h"
  13:generated/setup_scr_wave_model.c **** #include "events_init.h"
  14:generated/setup_scr_wave_model.c **** #include "widgets_init.h"
  15:generated/setup_scr_wave_model.c **** #include "custom.h"
  16:generated/setup_scr_wave_model.c **** #include "rtc.h"
  17:generated/setup_scr_wave_model.c **** extern uint16_t MyRTC_Time[5];
  18:generated/setup_scr_wave_model.c **** int wave_model_digital_clock_1_min_value;
  19:generated/setup_scr_wave_model.c **** int wave_model_digital_clock_1_hour_value;
  20:generated/setup_scr_wave_model.c **** int wave_model_digital_clock_1_sec_value;
  21:generated/setup_scr_wave_model.c **** char wave_model_digital_clock_1_meridiem[] = "";
  22:generated/setup_scr_wave_model.c **** void setup_scr_wave_model(lv_ui *ui)
  23:generated/setup_scr_wave_model.c **** {
 184              		.loc 1 23 1 is_stmt 1 view -0
 185              		.cfi_startproc
 186              		@ args = 0, pretend = 0, frame = 0
 187              		@ frame_needed = 0, uses_anonymous_args = 0
 188              		.loc 1 23 1 is_stmt 0 view .LVU9
 189 0000 2DE9F041 		push	{r4, r5, r6, r7, r8, lr}
 190              	.LCFI1:
 191              		.cfi_def_cfa_offset 24
 192              		.cfi_offset 4, -24
 193              		.cfi_offset 5, -20
 194              		.cfi_offset 6, -16
 195              		.cfi_offset 7, -12
 196              		.cfi_offset 8, -8
 197              		.cfi_offset 14, -4
 198 0004 0446     		mov	r4, r0
  24:generated/setup_scr_wave_model.c **** 	MyRTC_ReadTime();
 199              		.loc 1 24 2 is_stmt 1 view .LVU10
 200 0006 FFF7FEFF 		bl	MyRTC_ReadTime
 201              	.LVL6:
  25:generated/setup_scr_wave_model.c **** 	wave_model_digital_clock_1_min_value = MyRTC_Time[4];
 202              		.loc 1 25 2 view .LVU11
 203              		.loc 1 25 51 is_stmt 0 view .LVU12
 204 000a D54B     		ldr	r3, .L7
 205 000c 1989     		ldrh	r1, [r3, #8]
 206              		.loc 1 25 39 view .LVU13
 207 000e D54A     		ldr	r2, .L7+4
 208 0010 1160     		str	r1, [r2]
  26:generated/setup_scr_wave_model.c **** 	wave_model_digital_clock_1_hour_value = MyRTC_Time[3];
 209              		.loc 1 26 2 is_stmt 1 view .LVU14
 210              		.loc 1 26 52 is_stmt 0 view .LVU15
 211 0012 D988     		ldrh	r1, [r3, #6]
 212              		.loc 1 26 40 view .LVU16
 213 0014 D44A     		ldr	r2, .L7+8
 214 0016 1160     		str	r1, [r2]
  27:generated/setup_scr_wave_model.c **** 	wave_model_digital_clock_1_sec_value = MyRTC_Time[5];
 215              		.loc 1 27 2 is_stmt 1 view .LVU17
 216              		.loc 1 27 51 is_stmt 0 view .LVU18
 217 0018 5A89     		ldrh	r2, [r3, #10]
 218              		.loc 1 27 39 view .LVU19
 219 001a D44B     		ldr	r3, .L7+12
 220 001c 1A60     		str	r2, [r3]
  28:generated/setup_scr_wave_model.c **** 	// Write codes wave_model
ARM GAS  C:\usertemp\cchE30wT.s 			page 9


  29:generated/setup_scr_wave_model.c **** 	ui->wave_model = lv_obj_create(NULL);
 221              		.loc 1 29 2 is_stmt 1 view .LVU20
 222              		.loc 1 29 19 is_stmt 0 view .LVU21
 223 001e 0020     		movs	r0, #0
 224 0020 FFF7FEFF 		bl	lv_obj_create
 225              	.LVL7:
 226              		.loc 1 29 17 discriminator 1 view .LVU22
 227 0024 2060     		str	r0, [r4]
  30:generated/setup_scr_wave_model.c **** 	lv_obj_set_size(ui->wave_model, 640, 480);
 228              		.loc 1 30 2 is_stmt 1 view .LVU23
 229 0026 4FF4F072 		mov	r2, #480
 230 002a 4FF42071 		mov	r1, #640
 231 002e FFF7FEFF 		bl	lv_obj_set_size
 232              	.LVL8:
  31:generated/setup_scr_wave_model.c **** 
  32:generated/setup_scr_wave_model.c **** 	// Write style for wave_model, Part: LV_PART_MAIN, State: LV_STATE_DEFAULT.
  33:generated/setup_scr_wave_model.c **** 	lv_obj_set_style_bg_opa(ui->wave_model, 255, LV_PART_MAIN | LV_STATE_DEFAULT);
 233              		.loc 1 33 2 view .LVU24
 234 0032 0022     		movs	r2, #0
 235 0034 FF21     		movs	r1, #255
 236 0036 2068     		ldr	r0, [r4]
 237 0038 FFF7FEFF 		bl	lv_obj_set_style_bg_opa
 238              	.LVL9:
  34:generated/setup_scr_wave_model.c **** 	lv_obj_set_style_bg_color(ui->wave_model, lv_color_hex(0xc3dfd6), LV_PART_MAIN | LV_STATE_DEFAULT)
 239              		.loc 1 34 2 view .LVU25
 240              	.LBB150:
 241              	.LBI150:
 242              		.file 3 "lvgl/src/hal/../draw/../misc/lv_color.h"
   1:lvgl/src/hal/../draw/../misc/lv_color.h **** /**
   2:lvgl/src/hal/../draw/../misc/lv_color.h ****  * @file lv_color.h
   3:lvgl/src/hal/../draw/../misc/lv_color.h ****  *
   4:lvgl/src/hal/../draw/../misc/lv_color.h ****  */
   5:lvgl/src/hal/../draw/../misc/lv_color.h **** 
   6:lvgl/src/hal/../draw/../misc/lv_color.h **** #ifndef LV_COLOR_H
   7:lvgl/src/hal/../draw/../misc/lv_color.h **** #define LV_COLOR_H
   8:lvgl/src/hal/../draw/../misc/lv_color.h **** 
   9:lvgl/src/hal/../draw/../misc/lv_color.h **** #ifdef __cplusplus
  10:lvgl/src/hal/../draw/../misc/lv_color.h **** extern "C" {
  11:lvgl/src/hal/../draw/../misc/lv_color.h **** #endif
  12:lvgl/src/hal/../draw/../misc/lv_color.h **** 
  13:lvgl/src/hal/../draw/../misc/lv_color.h **** /*********************
  14:lvgl/src/hal/../draw/../misc/lv_color.h ****  *      INCLUDES
  15:lvgl/src/hal/../draw/../misc/lv_color.h ****  *********************/
  16:lvgl/src/hal/../draw/../misc/lv_color.h **** #include "../lv_conf_internal.h"
  17:lvgl/src/hal/../draw/../misc/lv_color.h **** #include "lv_assert.h"
  18:lvgl/src/hal/../draw/../misc/lv_color.h **** #include "lv_math.h"
  19:lvgl/src/hal/../draw/../misc/lv_color.h **** #include "lv_types.h"
  20:lvgl/src/hal/../draw/../misc/lv_color.h **** 
  21:lvgl/src/hal/../draw/../misc/lv_color.h **** /*Error checking*/
  22:lvgl/src/hal/../draw/../misc/lv_color.h **** #if LV_COLOR_DEPTH == 24
  23:lvgl/src/hal/../draw/../misc/lv_color.h **** #error "LV_COLOR_DEPTH 24 is deprecated. Use LV_COLOR_DEPTH 32 instead (lv_conf.h)"
  24:lvgl/src/hal/../draw/../misc/lv_color.h **** #endif
  25:lvgl/src/hal/../draw/../misc/lv_color.h **** 
  26:lvgl/src/hal/../draw/../misc/lv_color.h **** #if LV_COLOR_DEPTH != 32 && LV_COLOR_SCREEN_TRANSP != 0
  27:lvgl/src/hal/../draw/../misc/lv_color.h **** #error "LV_COLOR_SCREEN_TRANSP requires LV_COLOR_DEPTH == 32. Set it in lv_conf.h"
  28:lvgl/src/hal/../draw/../misc/lv_color.h **** #endif
  29:lvgl/src/hal/../draw/../misc/lv_color.h **** 
ARM GAS  C:\usertemp\cchE30wT.s 			page 10


  30:lvgl/src/hal/../draw/../misc/lv_color.h **** #if LV_COLOR_DEPTH != 16 && LV_COLOR_16_SWAP != 0
  31:lvgl/src/hal/../draw/../misc/lv_color.h **** #error "LV_COLOR_16_SWAP requires LV_COLOR_DEPTH == 16. Set it in lv_conf.h"
  32:lvgl/src/hal/../draw/../misc/lv_color.h **** #endif
  33:lvgl/src/hal/../draw/../misc/lv_color.h **** 
  34:lvgl/src/hal/../draw/../misc/lv_color.h **** #include <stdint.h>
  35:lvgl/src/hal/../draw/../misc/lv_color.h **** 
  36:lvgl/src/hal/../draw/../misc/lv_color.h **** /*********************
  37:lvgl/src/hal/../draw/../misc/lv_color.h ****  *      DEFINES
  38:lvgl/src/hal/../draw/../misc/lv_color.h ****  *********************/
  39:lvgl/src/hal/../draw/../misc/lv_color.h **** LV_EXPORT_CONST_INT(LV_COLOR_DEPTH);
  40:lvgl/src/hal/../draw/../misc/lv_color.h **** LV_EXPORT_CONST_INT(LV_COLOR_16_SWAP);
  41:lvgl/src/hal/../draw/../misc/lv_color.h **** 
  42:lvgl/src/hal/../draw/../misc/lv_color.h **** /**
  43:lvgl/src/hal/../draw/../misc/lv_color.h ****  * Opacity percentages.
  44:lvgl/src/hal/../draw/../misc/lv_color.h ****  */
  45:lvgl/src/hal/../draw/../misc/lv_color.h **** enum {
  46:lvgl/src/hal/../draw/../misc/lv_color.h ****     LV_OPA_TRANSP = 0,
  47:lvgl/src/hal/../draw/../misc/lv_color.h ****     LV_OPA_0      = 0,
  48:lvgl/src/hal/../draw/../misc/lv_color.h ****     LV_OPA_10     = 25,
  49:lvgl/src/hal/../draw/../misc/lv_color.h ****     LV_OPA_20     = 51,
  50:lvgl/src/hal/../draw/../misc/lv_color.h ****     LV_OPA_30     = 76,
  51:lvgl/src/hal/../draw/../misc/lv_color.h ****     LV_OPA_40     = 102,
  52:lvgl/src/hal/../draw/../misc/lv_color.h ****     LV_OPA_50     = 127,
  53:lvgl/src/hal/../draw/../misc/lv_color.h ****     LV_OPA_60     = 153,
  54:lvgl/src/hal/../draw/../misc/lv_color.h ****     LV_OPA_70     = 178,
  55:lvgl/src/hal/../draw/../misc/lv_color.h ****     LV_OPA_80     = 204,
  56:lvgl/src/hal/../draw/../misc/lv_color.h ****     LV_OPA_90     = 229,
  57:lvgl/src/hal/../draw/../misc/lv_color.h ****     LV_OPA_100    = 255,
  58:lvgl/src/hal/../draw/../misc/lv_color.h ****     LV_OPA_COVER  = 255,
  59:lvgl/src/hal/../draw/../misc/lv_color.h **** };
  60:lvgl/src/hal/../draw/../misc/lv_color.h **** 
  61:lvgl/src/hal/../draw/../misc/lv_color.h **** #define LV_OPA_MIN 2    /*Opacities below this will be transparent*/
  62:lvgl/src/hal/../draw/../misc/lv_color.h **** #define LV_OPA_MAX 253  /*Opacities above this will fully cover*/
  63:lvgl/src/hal/../draw/../misc/lv_color.h **** 
  64:lvgl/src/hal/../draw/../misc/lv_color.h **** #if LV_COLOR_DEPTH == 1
  65:lvgl/src/hal/../draw/../misc/lv_color.h **** #define LV_COLOR_SIZE 8
  66:lvgl/src/hal/../draw/../misc/lv_color.h **** #elif LV_COLOR_DEPTH == 8
  67:lvgl/src/hal/../draw/../misc/lv_color.h **** #define LV_COLOR_SIZE 8
  68:lvgl/src/hal/../draw/../misc/lv_color.h **** #elif LV_COLOR_DEPTH == 16
  69:lvgl/src/hal/../draw/../misc/lv_color.h **** #define LV_COLOR_SIZE 16
  70:lvgl/src/hal/../draw/../misc/lv_color.h **** #elif LV_COLOR_DEPTH == 32
  71:lvgl/src/hal/../draw/../misc/lv_color.h **** #define LV_COLOR_SIZE 32
  72:lvgl/src/hal/../draw/../misc/lv_color.h **** #else
  73:lvgl/src/hal/../draw/../misc/lv_color.h **** #error "Invalid LV_COLOR_DEPTH in lv_conf.h! Set it to 1, 8, 16 or 32!"
  74:lvgl/src/hal/../draw/../misc/lv_color.h **** #endif
  75:lvgl/src/hal/../draw/../misc/lv_color.h **** 
  76:lvgl/src/hal/../draw/../misc/lv_color.h **** #if defined(__cplusplus) && !defined(_LV_COLOR_HAS_MODERN_CPP)
  77:lvgl/src/hal/../draw/../misc/lv_color.h **** /**
  78:lvgl/src/hal/../draw/../misc/lv_color.h **** * MSVC compiler's definition of the __cplusplus indicating 199711L regardless to C++ standard versi
  79:lvgl/src/hal/../draw/../misc/lv_color.h **** * see https://devblogs.microsoft.com/cppblog/msvc-now-correctly-reports-cplusplus
  80:lvgl/src/hal/../draw/../misc/lv_color.h **** * so we use _MSC_VER macro instead of __cplusplus
  81:lvgl/src/hal/../draw/../misc/lv_color.h **** */
  82:lvgl/src/hal/../draw/../misc/lv_color.h **** #ifdef _MSC_VER
  83:lvgl/src/hal/../draw/../misc/lv_color.h **** #if _MSC_VER >= 1900 /*Visual Studio 2015*/
  84:lvgl/src/hal/../draw/../misc/lv_color.h **** #define _LV_COLOR_HAS_MODERN_CPP 1
  85:lvgl/src/hal/../draw/../misc/lv_color.h **** #endif
  86:lvgl/src/hal/../draw/../misc/lv_color.h **** #else
ARM GAS  C:\usertemp\cchE30wT.s 			page 11


  87:lvgl/src/hal/../draw/../misc/lv_color.h **** #if __cplusplus >= 201103L
  88:lvgl/src/hal/../draw/../misc/lv_color.h **** #define _LV_COLOR_HAS_MODERN_CPP 1
  89:lvgl/src/hal/../draw/../misc/lv_color.h **** #endif
  90:lvgl/src/hal/../draw/../misc/lv_color.h **** #endif
  91:lvgl/src/hal/../draw/../misc/lv_color.h **** #endif /*__cplusplus*/
  92:lvgl/src/hal/../draw/../misc/lv_color.h **** 
  93:lvgl/src/hal/../draw/../misc/lv_color.h **** #ifndef _LV_COLOR_HAS_MODERN_CPP
  94:lvgl/src/hal/../draw/../misc/lv_color.h **** #define _LV_COLOR_HAS_MODERN_CPP 0
  95:lvgl/src/hal/../draw/../misc/lv_color.h **** #endif
  96:lvgl/src/hal/../draw/../misc/lv_color.h **** 
  97:lvgl/src/hal/../draw/../misc/lv_color.h **** #if _LV_COLOR_HAS_MODERN_CPP
  98:lvgl/src/hal/../draw/../misc/lv_color.h **** /*Fix msvc compiler error C4576 inside C++ code*/
  99:lvgl/src/hal/../draw/../misc/lv_color.h **** #define _LV_COLOR_MAKE_TYPE_HELPER lv_color_t
 100:lvgl/src/hal/../draw/../misc/lv_color.h **** #else
 101:lvgl/src/hal/../draw/../misc/lv_color.h **** #define _LV_COLOR_MAKE_TYPE_HELPER (lv_color_t)
 102:lvgl/src/hal/../draw/../misc/lv_color.h **** #endif
 103:lvgl/src/hal/../draw/../misc/lv_color.h **** 
 104:lvgl/src/hal/../draw/../misc/lv_color.h **** /*---------------------------------------
 105:lvgl/src/hal/../draw/../misc/lv_color.h ****  * Macros for all existing color depths
 106:lvgl/src/hal/../draw/../misc/lv_color.h ****  * to set/get values of the color channels
 107:lvgl/src/hal/../draw/../misc/lv_color.h ****  *------------------------------------------*/
 108:lvgl/src/hal/../draw/../misc/lv_color.h **** # define LV_COLOR_SET_R1(c, v) (c).ch.red = (uint8_t)((v) & 0x1)
 109:lvgl/src/hal/../draw/../misc/lv_color.h **** # define LV_COLOR_SET_G1(c, v) (c).ch.green = (uint8_t)((v) & 0x1)
 110:lvgl/src/hal/../draw/../misc/lv_color.h **** # define LV_COLOR_SET_B1(c, v) (c).ch.blue = (uint8_t)((v) & 0x1)
 111:lvgl/src/hal/../draw/../misc/lv_color.h **** # define LV_COLOR_SET_A1(c, v) do {} while(0)
 112:lvgl/src/hal/../draw/../misc/lv_color.h **** 
 113:lvgl/src/hal/../draw/../misc/lv_color.h **** # define LV_COLOR_GET_R1(c) (c).ch.red
 114:lvgl/src/hal/../draw/../misc/lv_color.h **** # define LV_COLOR_GET_G1(c) (c).ch.green
 115:lvgl/src/hal/../draw/../misc/lv_color.h **** # define LV_COLOR_GET_B1(c) (c).ch.blue
 116:lvgl/src/hal/../draw/../misc/lv_color.h **** # define LV_COLOR_GET_A1(c) 0xFF
 117:lvgl/src/hal/../draw/../misc/lv_color.h **** 
 118:lvgl/src/hal/../draw/../misc/lv_color.h **** # define _LV_COLOR_ZERO_INITIALIZER1 {0x00}
 119:lvgl/src/hal/../draw/../misc/lv_color.h **** # define LV_COLOR_MAKE1(r8, g8, b8)  {(uint8_t)((b8 >> 7) | (g8 >> 7) | (r8 >> 7))}
 120:lvgl/src/hal/../draw/../misc/lv_color.h **** 
 121:lvgl/src/hal/../draw/../misc/lv_color.h **** # define LV_COLOR_SET_R8(c, v) (c).ch.red = (uint8_t)((v) & 0x7U)
 122:lvgl/src/hal/../draw/../misc/lv_color.h **** # define LV_COLOR_SET_G8(c, v) (c).ch.green = (uint8_t)((v) & 0x7U)
 123:lvgl/src/hal/../draw/../misc/lv_color.h **** # define LV_COLOR_SET_B8(c, v) (c).ch.blue = (uint8_t)((v) & 0x3U)
 124:lvgl/src/hal/../draw/../misc/lv_color.h **** # define LV_COLOR_SET_A8(c, v) do {} while(0)
 125:lvgl/src/hal/../draw/../misc/lv_color.h **** 
 126:lvgl/src/hal/../draw/../misc/lv_color.h **** # define LV_COLOR_GET_R8(c) (c).ch.red
 127:lvgl/src/hal/../draw/../misc/lv_color.h **** # define LV_COLOR_GET_G8(c) (c).ch.green
 128:lvgl/src/hal/../draw/../misc/lv_color.h **** # define LV_COLOR_GET_B8(c) (c).ch.blue
 129:lvgl/src/hal/../draw/../misc/lv_color.h **** # define LV_COLOR_GET_A8(c) 0xFF
 130:lvgl/src/hal/../draw/../misc/lv_color.h **** 
 131:lvgl/src/hal/../draw/../misc/lv_color.h **** # define _LV_COLOR_ZERO_INITIALIZER8 {{0x00, 0x00, 0x00}}
 132:lvgl/src/hal/../draw/../misc/lv_color.h **** # define LV_COLOR_MAKE8(r8, g8, b8) {{(uint8_t)((b8 >> 6) & 0x3U), (uint8_t)((g8 >> 5) & 0x7U), (ui
 133:lvgl/src/hal/../draw/../misc/lv_color.h **** 
 134:lvgl/src/hal/../draw/../misc/lv_color.h **** # define LV_COLOR_SET_R16(c, v) (c).ch.red = (uint8_t)((v) & 0x1FU)
 135:lvgl/src/hal/../draw/../misc/lv_color.h **** #if LV_COLOR_16_SWAP == 0
 136:lvgl/src/hal/../draw/../misc/lv_color.h **** # define LV_COLOR_SET_G16(c, v) (c).ch.green = (uint8_t)((v) & 0x3FU)
 137:lvgl/src/hal/../draw/../misc/lv_color.h **** #else
 138:lvgl/src/hal/../draw/../misc/lv_color.h **** # define LV_COLOR_SET_G16(c, v) {(c).ch.green_h = (uint8_t)(((v) >> 3) & 0x7); (c).ch.green_l = (ui
 139:lvgl/src/hal/../draw/../misc/lv_color.h **** #endif
 140:lvgl/src/hal/../draw/../misc/lv_color.h **** # define LV_COLOR_SET_B16(c, v) (c).ch.blue = (uint8_t)((v) & 0x1FU)
 141:lvgl/src/hal/../draw/../misc/lv_color.h **** # define LV_COLOR_SET_A16(c, v) do {} while(0)
 142:lvgl/src/hal/../draw/../misc/lv_color.h **** 
 143:lvgl/src/hal/../draw/../misc/lv_color.h **** # define LV_COLOR_GET_R16(c) (c).ch.red
ARM GAS  C:\usertemp\cchE30wT.s 			page 12


 144:lvgl/src/hal/../draw/../misc/lv_color.h **** #if LV_COLOR_16_SWAP == 0
 145:lvgl/src/hal/../draw/../misc/lv_color.h **** # define LV_COLOR_GET_G16(c) (c).ch.green
 146:lvgl/src/hal/../draw/../misc/lv_color.h **** #else
 147:lvgl/src/hal/../draw/../misc/lv_color.h **** # define LV_COLOR_GET_G16(c) (((c).ch.green_h << 3) + (c).ch.green_l)
 148:lvgl/src/hal/../draw/../misc/lv_color.h **** #endif
 149:lvgl/src/hal/../draw/../misc/lv_color.h **** # define LV_COLOR_GET_B16(c) (c).ch.blue
 150:lvgl/src/hal/../draw/../misc/lv_color.h **** # define LV_COLOR_GET_A16(c) 0xFF
 151:lvgl/src/hal/../draw/../misc/lv_color.h **** 
 152:lvgl/src/hal/../draw/../misc/lv_color.h **** #if LV_COLOR_16_SWAP == 0
 153:lvgl/src/hal/../draw/../misc/lv_color.h **** # define _LV_COLOR_ZERO_INITIALIZER16  {{0x00, 0x00, 0x00}}
 154:lvgl/src/hal/../draw/../misc/lv_color.h **** # define LV_COLOR_MAKE16(r8, g8, b8) {{(uint8_t)((b8 >> 3) & 0x1FU), (uint8_t)((g8 >> 2) & 0x3FU), 
 155:lvgl/src/hal/../draw/../misc/lv_color.h **** #else
 156:lvgl/src/hal/../draw/../misc/lv_color.h **** # define _LV_COLOR_ZERO_INITIALIZER16 {{0x00, 0x00, 0x00, 0x00}}
 157:lvgl/src/hal/../draw/../misc/lv_color.h **** # define LV_COLOR_MAKE16(r8, g8, b8) {{(uint8_t)((g8 >> 5) & 0x7U), (uint8_t)((r8 >> 3) & 0x1FU), (
 158:lvgl/src/hal/../draw/../misc/lv_color.h **** #endif
 159:lvgl/src/hal/../draw/../misc/lv_color.h **** 
 160:lvgl/src/hal/../draw/../misc/lv_color.h **** # define LV_COLOR_SET_R32(c, v) (c).ch.red = (uint8_t)((v) & 0xFF)
 161:lvgl/src/hal/../draw/../misc/lv_color.h **** # define LV_COLOR_SET_G32(c, v) (c).ch.green = (uint8_t)((v) & 0xFF)
 162:lvgl/src/hal/../draw/../misc/lv_color.h **** # define LV_COLOR_SET_B32(c, v) (c).ch.blue = (uint8_t)((v) & 0xFF)
 163:lvgl/src/hal/../draw/../misc/lv_color.h **** # define LV_COLOR_SET_A32(c, v) (c).ch.alpha = (uint8_t)((v) & 0xFF)
 164:lvgl/src/hal/../draw/../misc/lv_color.h **** 
 165:lvgl/src/hal/../draw/../misc/lv_color.h **** # define LV_COLOR_GET_R32(c) (c).ch.red
 166:lvgl/src/hal/../draw/../misc/lv_color.h **** # define LV_COLOR_GET_G32(c) (c).ch.green
 167:lvgl/src/hal/../draw/../misc/lv_color.h **** # define LV_COLOR_GET_B32(c) (c).ch.blue
 168:lvgl/src/hal/../draw/../misc/lv_color.h **** # define LV_COLOR_GET_A32(c) (c).ch.alpha
 169:lvgl/src/hal/../draw/../misc/lv_color.h **** 
 170:lvgl/src/hal/../draw/../misc/lv_color.h **** # define _LV_COLOR_ZERO_INITIALIZER32  {{0x00, 0x00, 0x00, 0x00}}
 171:lvgl/src/hal/../draw/../misc/lv_color.h **** # define LV_COLOR_MAKE32(r8, g8, b8) {{b8, g8, r8, 0xff}} /*Fix 0xff alpha*/
 172:lvgl/src/hal/../draw/../misc/lv_color.h **** 
 173:lvgl/src/hal/../draw/../misc/lv_color.h **** /*---------------------------------------
 174:lvgl/src/hal/../draw/../misc/lv_color.h ****  * Macros for the current color depth
 175:lvgl/src/hal/../draw/../misc/lv_color.h ****  * to set/get values of the color channels
 176:lvgl/src/hal/../draw/../misc/lv_color.h ****  *------------------------------------------*/
 177:lvgl/src/hal/../draw/../misc/lv_color.h **** #define LV_COLOR_SET_R(c, v) LV_CONCAT(LV_COLOR_SET_R, LV_COLOR_DEPTH)(c, v)
 178:lvgl/src/hal/../draw/../misc/lv_color.h **** #define LV_COLOR_SET_G(c, v) LV_CONCAT(LV_COLOR_SET_G, LV_COLOR_DEPTH)(c, v)
 179:lvgl/src/hal/../draw/../misc/lv_color.h **** #define LV_COLOR_SET_B(c, v) LV_CONCAT(LV_COLOR_SET_B, LV_COLOR_DEPTH)(c, v)
 180:lvgl/src/hal/../draw/../misc/lv_color.h **** #define LV_COLOR_SET_A(c, v) LV_CONCAT(LV_COLOR_SET_A, LV_COLOR_DEPTH)(c, v)
 181:lvgl/src/hal/../draw/../misc/lv_color.h **** 
 182:lvgl/src/hal/../draw/../misc/lv_color.h **** #define LV_COLOR_GET_R(c) LV_CONCAT(LV_COLOR_GET_R, LV_COLOR_DEPTH)(c)
 183:lvgl/src/hal/../draw/../misc/lv_color.h **** #define LV_COLOR_GET_G(c) LV_CONCAT(LV_COLOR_GET_G, LV_COLOR_DEPTH)(c)
 184:lvgl/src/hal/../draw/../misc/lv_color.h **** #define LV_COLOR_GET_B(c) LV_CONCAT(LV_COLOR_GET_B, LV_COLOR_DEPTH)(c)
 185:lvgl/src/hal/../draw/../misc/lv_color.h **** #define LV_COLOR_GET_A(c) LV_CONCAT(LV_COLOR_GET_A, LV_COLOR_DEPTH)(c)
 186:lvgl/src/hal/../draw/../misc/lv_color.h **** 
 187:lvgl/src/hal/../draw/../misc/lv_color.h **** #define _LV_COLOR_ZERO_INITIALIZER LV_CONCAT(_LV_COLOR_ZERO_INITIALIZER, LV_COLOR_DEPTH)
 188:lvgl/src/hal/../draw/../misc/lv_color.h **** #define LV_COLOR_MAKE(r8, g8, b8) LV_CONCAT(LV_COLOR_MAKE, LV_COLOR_DEPTH)(r8, g8, b8)
 189:lvgl/src/hal/../draw/../misc/lv_color.h **** 
 190:lvgl/src/hal/../draw/../misc/lv_color.h **** /**********************
 191:lvgl/src/hal/../draw/../misc/lv_color.h ****  *      TYPEDEFS
 192:lvgl/src/hal/../draw/../misc/lv_color.h ****  **********************/
 193:lvgl/src/hal/../draw/../misc/lv_color.h **** 
 194:lvgl/src/hal/../draw/../misc/lv_color.h **** typedef union {
 195:lvgl/src/hal/../draw/../misc/lv_color.h ****     uint8_t full; /*must be declared first to set all bits of byte via initializer list*/
 196:lvgl/src/hal/../draw/../misc/lv_color.h ****     union {
 197:lvgl/src/hal/../draw/../misc/lv_color.h ****         uint8_t blue : 1;
 198:lvgl/src/hal/../draw/../misc/lv_color.h ****         uint8_t green : 1;
 199:lvgl/src/hal/../draw/../misc/lv_color.h ****         uint8_t red : 1;
 200:lvgl/src/hal/../draw/../misc/lv_color.h ****     } ch;
ARM GAS  C:\usertemp\cchE30wT.s 			page 13


 201:lvgl/src/hal/../draw/../misc/lv_color.h **** } lv_color1_t;
 202:lvgl/src/hal/../draw/../misc/lv_color.h **** 
 203:lvgl/src/hal/../draw/../misc/lv_color.h **** typedef union {
 204:lvgl/src/hal/../draw/../misc/lv_color.h ****     struct {
 205:lvgl/src/hal/../draw/../misc/lv_color.h ****         uint8_t blue : 2;
 206:lvgl/src/hal/../draw/../misc/lv_color.h ****         uint8_t green : 3;
 207:lvgl/src/hal/../draw/../misc/lv_color.h ****         uint8_t red : 3;
 208:lvgl/src/hal/../draw/../misc/lv_color.h ****     } ch;
 209:lvgl/src/hal/../draw/../misc/lv_color.h ****     uint8_t full;
 210:lvgl/src/hal/../draw/../misc/lv_color.h **** } lv_color8_t;
 211:lvgl/src/hal/../draw/../misc/lv_color.h **** 
 212:lvgl/src/hal/../draw/../misc/lv_color.h **** typedef union {
 213:lvgl/src/hal/../draw/../misc/lv_color.h ****     struct {
 214:lvgl/src/hal/../draw/../misc/lv_color.h **** #if LV_COLOR_16_SWAP == 0
 215:lvgl/src/hal/../draw/../misc/lv_color.h ****         uint16_t blue : 5;
 216:lvgl/src/hal/../draw/../misc/lv_color.h ****         uint16_t green : 6;
 217:lvgl/src/hal/../draw/../misc/lv_color.h ****         uint16_t red : 5;
 218:lvgl/src/hal/../draw/../misc/lv_color.h **** #else
 219:lvgl/src/hal/../draw/../misc/lv_color.h ****         uint16_t green_h : 3;
 220:lvgl/src/hal/../draw/../misc/lv_color.h ****         uint16_t red : 5;
 221:lvgl/src/hal/../draw/../misc/lv_color.h ****         uint16_t blue : 5;
 222:lvgl/src/hal/../draw/../misc/lv_color.h ****         uint16_t green_l : 3;
 223:lvgl/src/hal/../draw/../misc/lv_color.h **** #endif
 224:lvgl/src/hal/../draw/../misc/lv_color.h ****     } ch;
 225:lvgl/src/hal/../draw/../misc/lv_color.h ****     uint16_t full;
 226:lvgl/src/hal/../draw/../misc/lv_color.h **** } lv_color16_t;
 227:lvgl/src/hal/../draw/../misc/lv_color.h **** 
 228:lvgl/src/hal/../draw/../misc/lv_color.h **** typedef union {
 229:lvgl/src/hal/../draw/../misc/lv_color.h ****     struct {
 230:lvgl/src/hal/../draw/../misc/lv_color.h ****         uint8_t blue;
 231:lvgl/src/hal/../draw/../misc/lv_color.h ****         uint8_t green;
 232:lvgl/src/hal/../draw/../misc/lv_color.h ****         uint8_t red;
 233:lvgl/src/hal/../draw/../misc/lv_color.h ****         uint8_t alpha;
 234:lvgl/src/hal/../draw/../misc/lv_color.h ****     } ch;
 235:lvgl/src/hal/../draw/../misc/lv_color.h ****     uint32_t full;
 236:lvgl/src/hal/../draw/../misc/lv_color.h **** } lv_color32_t;
 237:lvgl/src/hal/../draw/../misc/lv_color.h **** 
 238:lvgl/src/hal/../draw/../misc/lv_color.h **** typedef LV_CONCAT3(uint, LV_COLOR_SIZE, _t) lv_color_int_t;
 239:lvgl/src/hal/../draw/../misc/lv_color.h **** typedef LV_CONCAT3(lv_color, LV_COLOR_DEPTH, _t) lv_color_t;
 240:lvgl/src/hal/../draw/../misc/lv_color.h **** 
 241:lvgl/src/hal/../draw/../misc/lv_color.h **** typedef struct {
 242:lvgl/src/hal/../draw/../misc/lv_color.h ****     uint16_t h;
 243:lvgl/src/hal/../draw/../misc/lv_color.h ****     uint8_t s;
 244:lvgl/src/hal/../draw/../misc/lv_color.h ****     uint8_t v;
 245:lvgl/src/hal/../draw/../misc/lv_color.h **** } lv_color_hsv_t;
 246:lvgl/src/hal/../draw/../misc/lv_color.h **** 
 247:lvgl/src/hal/../draw/../misc/lv_color.h **** //! @cond Doxygen_Suppress
 248:lvgl/src/hal/../draw/../misc/lv_color.h **** /*No idea where the guard is required but else throws warnings in the docs*/
 249:lvgl/src/hal/../draw/../misc/lv_color.h **** typedef uint8_t lv_opa_t;
 250:lvgl/src/hal/../draw/../misc/lv_color.h **** //! @endcond
 251:lvgl/src/hal/../draw/../misc/lv_color.h **** 
 252:lvgl/src/hal/../draw/../misc/lv_color.h **** struct _lv_color_filter_dsc_t;
 253:lvgl/src/hal/../draw/../misc/lv_color.h **** 
 254:lvgl/src/hal/../draw/../misc/lv_color.h **** typedef lv_color_t (*lv_color_filter_cb_t)(const struct _lv_color_filter_dsc_t *, lv_color_t, lv_op
 255:lvgl/src/hal/../draw/../misc/lv_color.h **** 
 256:lvgl/src/hal/../draw/../misc/lv_color.h **** typedef struct _lv_color_filter_dsc_t {
 257:lvgl/src/hal/../draw/../misc/lv_color.h ****     lv_color_filter_cb_t filter_cb;
ARM GAS  C:\usertemp\cchE30wT.s 			page 14


 258:lvgl/src/hal/../draw/../misc/lv_color.h ****     void * user_data;
 259:lvgl/src/hal/../draw/../misc/lv_color.h **** } lv_color_filter_dsc_t;
 260:lvgl/src/hal/../draw/../misc/lv_color.h **** 
 261:lvgl/src/hal/../draw/../misc/lv_color.h **** 
 262:lvgl/src/hal/../draw/../misc/lv_color.h **** typedef enum {
 263:lvgl/src/hal/../draw/../misc/lv_color.h ****     LV_PALETTE_RED,
 264:lvgl/src/hal/../draw/../misc/lv_color.h ****     LV_PALETTE_PINK,
 265:lvgl/src/hal/../draw/../misc/lv_color.h ****     LV_PALETTE_PURPLE,
 266:lvgl/src/hal/../draw/../misc/lv_color.h ****     LV_PALETTE_DEEP_PURPLE,
 267:lvgl/src/hal/../draw/../misc/lv_color.h ****     LV_PALETTE_INDIGO,
 268:lvgl/src/hal/../draw/../misc/lv_color.h ****     LV_PALETTE_BLUE,
 269:lvgl/src/hal/../draw/../misc/lv_color.h ****     LV_PALETTE_LIGHT_BLUE,
 270:lvgl/src/hal/../draw/../misc/lv_color.h ****     LV_PALETTE_CYAN,
 271:lvgl/src/hal/../draw/../misc/lv_color.h ****     LV_PALETTE_TEAL,
 272:lvgl/src/hal/../draw/../misc/lv_color.h ****     LV_PALETTE_GREEN,
 273:lvgl/src/hal/../draw/../misc/lv_color.h ****     LV_PALETTE_LIGHT_GREEN,
 274:lvgl/src/hal/../draw/../misc/lv_color.h ****     LV_PALETTE_LIME,
 275:lvgl/src/hal/../draw/../misc/lv_color.h ****     LV_PALETTE_YELLOW,
 276:lvgl/src/hal/../draw/../misc/lv_color.h ****     LV_PALETTE_AMBER,
 277:lvgl/src/hal/../draw/../misc/lv_color.h ****     LV_PALETTE_ORANGE,
 278:lvgl/src/hal/../draw/../misc/lv_color.h ****     LV_PALETTE_DEEP_ORANGE,
 279:lvgl/src/hal/../draw/../misc/lv_color.h ****     LV_PALETTE_BROWN,
 280:lvgl/src/hal/../draw/../misc/lv_color.h ****     LV_PALETTE_BLUE_GREY,
 281:lvgl/src/hal/../draw/../misc/lv_color.h ****     LV_PALETTE_GREY,
 282:lvgl/src/hal/../draw/../misc/lv_color.h ****     _LV_PALETTE_LAST,
 283:lvgl/src/hal/../draw/../misc/lv_color.h ****     LV_PALETTE_NONE = 0xff,
 284:lvgl/src/hal/../draw/../misc/lv_color.h **** } lv_palette_t;
 285:lvgl/src/hal/../draw/../misc/lv_color.h **** 
 286:lvgl/src/hal/../draw/../misc/lv_color.h **** /**********************
 287:lvgl/src/hal/../draw/../misc/lv_color.h ****  * GLOBAL PROTOTYPES
 288:lvgl/src/hal/../draw/../misc/lv_color.h ****  **********************/
 289:lvgl/src/hal/../draw/../misc/lv_color.h **** 
 290:lvgl/src/hal/../draw/../misc/lv_color.h **** /*In color conversations:
 291:lvgl/src/hal/../draw/../misc/lv_color.h ****  * - When converting to bigger color type the LSB weight of 1 LSB is calculated
 292:lvgl/src/hal/../draw/../misc/lv_color.h ****  *   E.g. 16 bit Red has 5 bits
 293:lvgl/src/hal/../draw/../misc/lv_color.h ****  *         8 bit Red has 3 bits
 294:lvgl/src/hal/../draw/../misc/lv_color.h ****  *        ----------------------
 295:lvgl/src/hal/../draw/../misc/lv_color.h ****  *        8 bit red LSB = (2^5 - 1) / (2^3 - 1) = 31 / 7 = 4
 296:lvgl/src/hal/../draw/../misc/lv_color.h ****  *
 297:lvgl/src/hal/../draw/../misc/lv_color.h ****  * - When calculating to smaller color type simply shift out the LSBs
 298:lvgl/src/hal/../draw/../misc/lv_color.h ****  *   E.g.  8 bit Red has 3 bits
 299:lvgl/src/hal/../draw/../misc/lv_color.h ****  *        16 bit Red has 5 bits
 300:lvgl/src/hal/../draw/../misc/lv_color.h ****  *        ----------------------
 301:lvgl/src/hal/../draw/../misc/lv_color.h ****  *         Shift right with 5 - 3 = 2
 302:lvgl/src/hal/../draw/../misc/lv_color.h ****  */
 303:lvgl/src/hal/../draw/../misc/lv_color.h **** static inline uint8_t lv_color_to1(lv_color_t color)
 304:lvgl/src/hal/../draw/../misc/lv_color.h **** {
 305:lvgl/src/hal/../draw/../misc/lv_color.h **** #if LV_COLOR_DEPTH == 1
 306:lvgl/src/hal/../draw/../misc/lv_color.h ****     return color.full;
 307:lvgl/src/hal/../draw/../misc/lv_color.h **** #elif LV_COLOR_DEPTH == 8
 308:lvgl/src/hal/../draw/../misc/lv_color.h ****     if((LV_COLOR_GET_R(color) & 0x4) || (LV_COLOR_GET_G(color) & 0x4) || (LV_COLOR_GET_B(color) & 0
 309:lvgl/src/hal/../draw/../misc/lv_color.h ****         return 1;
 310:lvgl/src/hal/../draw/../misc/lv_color.h ****     }
 311:lvgl/src/hal/../draw/../misc/lv_color.h ****     else {
 312:lvgl/src/hal/../draw/../misc/lv_color.h ****         return 0;
 313:lvgl/src/hal/../draw/../misc/lv_color.h ****     }
 314:lvgl/src/hal/../draw/../misc/lv_color.h **** #elif LV_COLOR_DEPTH == 16
ARM GAS  C:\usertemp\cchE30wT.s 			page 15


 315:lvgl/src/hal/../draw/../misc/lv_color.h ****     if((LV_COLOR_GET_R(color) & 0x10) || (LV_COLOR_GET_G(color) & 0x20) || (LV_COLOR_GET_B(color) &
 316:lvgl/src/hal/../draw/../misc/lv_color.h ****         return 1;
 317:lvgl/src/hal/../draw/../misc/lv_color.h ****     }
 318:lvgl/src/hal/../draw/../misc/lv_color.h ****     else {
 319:lvgl/src/hal/../draw/../misc/lv_color.h ****         return 0;
 320:lvgl/src/hal/../draw/../misc/lv_color.h ****     }
 321:lvgl/src/hal/../draw/../misc/lv_color.h **** #elif LV_COLOR_DEPTH == 32
 322:lvgl/src/hal/../draw/../misc/lv_color.h ****     if((LV_COLOR_GET_R(color) & 0x80) || (LV_COLOR_GET_G(color) & 0x80) || (LV_COLOR_GET_B(color) &
 323:lvgl/src/hal/../draw/../misc/lv_color.h ****         return 1;
 324:lvgl/src/hal/../draw/../misc/lv_color.h ****     }
 325:lvgl/src/hal/../draw/../misc/lv_color.h ****     else {
 326:lvgl/src/hal/../draw/../misc/lv_color.h ****         return 0;
 327:lvgl/src/hal/../draw/../misc/lv_color.h ****     }
 328:lvgl/src/hal/../draw/../misc/lv_color.h **** #endif
 329:lvgl/src/hal/../draw/../misc/lv_color.h **** }
 330:lvgl/src/hal/../draw/../misc/lv_color.h **** 
 331:lvgl/src/hal/../draw/../misc/lv_color.h **** static inline uint8_t lv_color_to8(lv_color_t color)
 332:lvgl/src/hal/../draw/../misc/lv_color.h **** {
 333:lvgl/src/hal/../draw/../misc/lv_color.h **** #if LV_COLOR_DEPTH == 1
 334:lvgl/src/hal/../draw/../misc/lv_color.h ****     if(color.full == 0)
 335:lvgl/src/hal/../draw/../misc/lv_color.h ****         return 0;
 336:lvgl/src/hal/../draw/../misc/lv_color.h ****     else
 337:lvgl/src/hal/../draw/../misc/lv_color.h ****         return 0xFF;
 338:lvgl/src/hal/../draw/../misc/lv_color.h **** #elif LV_COLOR_DEPTH == 8
 339:lvgl/src/hal/../draw/../misc/lv_color.h ****     return color.full;
 340:lvgl/src/hal/../draw/../misc/lv_color.h **** #elif LV_COLOR_DEPTH == 16
 341:lvgl/src/hal/../draw/../misc/lv_color.h ****     lv_color8_t ret;
 342:lvgl/src/hal/../draw/../misc/lv_color.h ****     LV_COLOR_SET_R8(ret, LV_COLOR_GET_R(color) >> 2); /*5 - 3  = 2*/
 343:lvgl/src/hal/../draw/../misc/lv_color.h ****     LV_COLOR_SET_G8(ret, LV_COLOR_GET_G(color) >> 3); /*6 - 3  = 3*/
 344:lvgl/src/hal/../draw/../misc/lv_color.h ****     LV_COLOR_SET_B8(ret, LV_COLOR_GET_B(color) >> 3); /*5 - 2  = 3*/
 345:lvgl/src/hal/../draw/../misc/lv_color.h ****     return ret.full;
 346:lvgl/src/hal/../draw/../misc/lv_color.h **** #elif LV_COLOR_DEPTH == 32
 347:lvgl/src/hal/../draw/../misc/lv_color.h ****     lv_color8_t ret;
 348:lvgl/src/hal/../draw/../misc/lv_color.h ****     LV_COLOR_SET_R8(ret, LV_COLOR_GET_R(color) >> 5); /*8 - 3  = 5*/
 349:lvgl/src/hal/../draw/../misc/lv_color.h ****     LV_COLOR_SET_G8(ret, LV_COLOR_GET_G(color) >> 5); /*8 - 3  = 5*/
 350:lvgl/src/hal/../draw/../misc/lv_color.h ****     LV_COLOR_SET_B8(ret, LV_COLOR_GET_B(color) >> 6); /*8 - 2  = 6*/
 351:lvgl/src/hal/../draw/../misc/lv_color.h ****     return ret.full;
 352:lvgl/src/hal/../draw/../misc/lv_color.h **** #endif
 353:lvgl/src/hal/../draw/../misc/lv_color.h **** }
 354:lvgl/src/hal/../draw/../misc/lv_color.h **** 
 355:lvgl/src/hal/../draw/../misc/lv_color.h **** static inline uint16_t lv_color_to16(lv_color_t color)
 356:lvgl/src/hal/../draw/../misc/lv_color.h **** {
 357:lvgl/src/hal/../draw/../misc/lv_color.h **** #if LV_COLOR_DEPTH == 1
 358:lvgl/src/hal/../draw/../misc/lv_color.h ****     if(color.full == 0)
 359:lvgl/src/hal/../draw/../misc/lv_color.h ****         return 0;
 360:lvgl/src/hal/../draw/../misc/lv_color.h ****     else
 361:lvgl/src/hal/../draw/../misc/lv_color.h ****         return 0xFFFF;
 362:lvgl/src/hal/../draw/../misc/lv_color.h **** #elif LV_COLOR_DEPTH == 8
 363:lvgl/src/hal/../draw/../misc/lv_color.h ****     lv_color16_t ret;
 364:lvgl/src/hal/../draw/../misc/lv_color.h ****     LV_COLOR_SET_R16(ret, LV_COLOR_GET_R(color) * 4);  /*(2^5 - 1)/(2^3 - 1) = 31/7 = 4*/
 365:lvgl/src/hal/../draw/../misc/lv_color.h ****     LV_COLOR_SET_G16(ret, LV_COLOR_GET_G(color) * 9);  /*(2^6 - 1)/(2^3 - 1) = 63/7 = 9*/
 366:lvgl/src/hal/../draw/../misc/lv_color.h ****     LV_COLOR_SET_B16(ret, LV_COLOR_GET_B(color) * 10); /*(2^5 - 1)/(2^2 - 1) = 31/3 = 10*/
 367:lvgl/src/hal/../draw/../misc/lv_color.h ****     return ret.full;
 368:lvgl/src/hal/../draw/../misc/lv_color.h **** #elif LV_COLOR_DEPTH == 16
 369:lvgl/src/hal/../draw/../misc/lv_color.h ****     return color.full;
 370:lvgl/src/hal/../draw/../misc/lv_color.h **** #elif LV_COLOR_DEPTH == 32
 371:lvgl/src/hal/../draw/../misc/lv_color.h ****     lv_color16_t ret;
ARM GAS  C:\usertemp\cchE30wT.s 			page 16


 372:lvgl/src/hal/../draw/../misc/lv_color.h ****     LV_COLOR_SET_R16(ret, LV_COLOR_GET_R(color) >> 3); /*8 - 5  = 3*/
 373:lvgl/src/hal/../draw/../misc/lv_color.h ****     LV_COLOR_SET_G16(ret, LV_COLOR_GET_G(color) >> 2); /*8 - 6  = 2*/
 374:lvgl/src/hal/../draw/../misc/lv_color.h ****     LV_COLOR_SET_B16(ret, LV_COLOR_GET_B(color) >> 3); /*8 - 5  = 3*/
 375:lvgl/src/hal/../draw/../misc/lv_color.h ****     return ret.full;
 376:lvgl/src/hal/../draw/../misc/lv_color.h **** #endif
 377:lvgl/src/hal/../draw/../misc/lv_color.h **** }
 378:lvgl/src/hal/../draw/../misc/lv_color.h **** 
 379:lvgl/src/hal/../draw/../misc/lv_color.h **** static inline uint32_t lv_color_to32(lv_color_t color)
 380:lvgl/src/hal/../draw/../misc/lv_color.h **** {
 381:lvgl/src/hal/../draw/../misc/lv_color.h **** #if LV_COLOR_DEPTH == 1
 382:lvgl/src/hal/../draw/../misc/lv_color.h ****     if(color.full == 0)
 383:lvgl/src/hal/../draw/../misc/lv_color.h ****         return 0xFF000000;
 384:lvgl/src/hal/../draw/../misc/lv_color.h ****     else
 385:lvgl/src/hal/../draw/../misc/lv_color.h ****         return 0xFFFFFFFF;
 386:lvgl/src/hal/../draw/../misc/lv_color.h **** #elif LV_COLOR_DEPTH == 8
 387:lvgl/src/hal/../draw/../misc/lv_color.h ****     lv_color32_t ret;
 388:lvgl/src/hal/../draw/../misc/lv_color.h ****     LV_COLOR_SET_R32(ret, LV_COLOR_GET_R(color) * 36); /*(2^8 - 1)/(2^3 - 1) = 255/7 = 36*/
 389:lvgl/src/hal/../draw/../misc/lv_color.h ****     LV_COLOR_SET_G32(ret, LV_COLOR_GET_G(color) * 36); /*(2^8 - 1)/(2^3 - 1) = 255/7 = 36*/
 390:lvgl/src/hal/../draw/../misc/lv_color.h ****     LV_COLOR_SET_B32(ret, LV_COLOR_GET_B(color) * 85); /*(2^8 - 1)/(2^2 - 1) = 255/3 = 85*/
 391:lvgl/src/hal/../draw/../misc/lv_color.h ****     LV_COLOR_SET_A32(ret, 0xFF);
 392:lvgl/src/hal/../draw/../misc/lv_color.h ****     return ret.full;
 393:lvgl/src/hal/../draw/../misc/lv_color.h **** #elif LV_COLOR_DEPTH == 16
 394:lvgl/src/hal/../draw/../misc/lv_color.h ****     /**
 395:lvgl/src/hal/../draw/../misc/lv_color.h ****      * The floating point math for conversion is:
 396:lvgl/src/hal/../draw/../misc/lv_color.h ****      *  valueto = valuefrom * ( (2^bitsto - 1) / (float)(2^bitsfrom - 1) )
 397:lvgl/src/hal/../draw/../misc/lv_color.h ****      * The faster integer math for conversion is:
 398:lvgl/src/hal/../draw/../misc/lv_color.h ****      *  valueto = ( valuefrom * multiplier + adder ) >> divisor
 399:lvgl/src/hal/../draw/../misc/lv_color.h ****      *   multiplier = FLOOR( ( (2^bitsto - 1) << divisor ) / (float)(2^bitsfrom - 1) )
 400:lvgl/src/hal/../draw/../misc/lv_color.h ****      *
 401:lvgl/src/hal/../draw/../misc/lv_color.h ****      * Find the first divisor where ( adder >> divisor ) <= 0
 402:lvgl/src/hal/../draw/../misc/lv_color.h ****      *
 403:lvgl/src/hal/../draw/../misc/lv_color.h ****      * 5-bit to 8-bit: ( 31 * multiplier + adder ) >> divisor = 255
 404:lvgl/src/hal/../draw/../misc/lv_color.h ****      * divisor  multiplier  adder  min (0)  max (31)
 405:lvgl/src/hal/../draw/../misc/lv_color.h ****      *       0           8      7        7       255
 406:lvgl/src/hal/../draw/../misc/lv_color.h ****      *       1          16     14        7       255
 407:lvgl/src/hal/../draw/../misc/lv_color.h ****      *       2          32     28        7       255
 408:lvgl/src/hal/../draw/../misc/lv_color.h ****      *       3          65     25        3       255
 409:lvgl/src/hal/../draw/../misc/lv_color.h ****      *       4         131     19        1       255
 410:lvgl/src/hal/../draw/../misc/lv_color.h ****      *       5         263      7        0       255
 411:lvgl/src/hal/../draw/../misc/lv_color.h ****      *
 412:lvgl/src/hal/../draw/../misc/lv_color.h ****      * 6-bit to 8-bit: 255 = ( 63 * multiplier + adder ) >> divisor
 413:lvgl/src/hal/../draw/../misc/lv_color.h ****      * divisor  multiplier  adder  min (0)  max (63)
 414:lvgl/src/hal/../draw/../misc/lv_color.h ****      *       0           4      3        3       255
 415:lvgl/src/hal/../draw/../misc/lv_color.h ****      *       1           8      6        3       255
 416:lvgl/src/hal/../draw/../misc/lv_color.h ****      *       2          16     12        3       255
 417:lvgl/src/hal/../draw/../misc/lv_color.h ****      *       3          32     24        3       255
 418:lvgl/src/hal/../draw/../misc/lv_color.h ****      *       4          64     48        3       255
 419:lvgl/src/hal/../draw/../misc/lv_color.h ****      *       5         129     33        1       255
 420:lvgl/src/hal/../draw/../misc/lv_color.h ****      *       6         259      3        0       255
 421:lvgl/src/hal/../draw/../misc/lv_color.h ****      */
 422:lvgl/src/hal/../draw/../misc/lv_color.h **** 
 423:lvgl/src/hal/../draw/../misc/lv_color.h ****     lv_color32_t ret;
 424:lvgl/src/hal/../draw/../misc/lv_color.h ****     LV_COLOR_SET_R32(ret, (LV_COLOR_GET_R(color) * 263 + 7) >> 5);
 425:lvgl/src/hal/../draw/../misc/lv_color.h ****     LV_COLOR_SET_G32(ret, (LV_COLOR_GET_G(color) * 259 + 3) >> 6);
 426:lvgl/src/hal/../draw/../misc/lv_color.h ****     LV_COLOR_SET_B32(ret, (LV_COLOR_GET_B(color) * 263 + 7) >> 5);
 427:lvgl/src/hal/../draw/../misc/lv_color.h ****     LV_COLOR_SET_A32(ret, 0xFF);
 428:lvgl/src/hal/../draw/../misc/lv_color.h ****     return ret.full;
ARM GAS  C:\usertemp\cchE30wT.s 			page 17


 429:lvgl/src/hal/../draw/../misc/lv_color.h **** #elif LV_COLOR_DEPTH == 32
 430:lvgl/src/hal/../draw/../misc/lv_color.h ****     return color.full;
 431:lvgl/src/hal/../draw/../misc/lv_color.h **** #endif
 432:lvgl/src/hal/../draw/../misc/lv_color.h **** }
 433:lvgl/src/hal/../draw/../misc/lv_color.h **** 
 434:lvgl/src/hal/../draw/../misc/lv_color.h **** //! @cond Doxygen_Suppress
 435:lvgl/src/hal/../draw/../misc/lv_color.h **** 
 436:lvgl/src/hal/../draw/../misc/lv_color.h **** /**
 437:lvgl/src/hal/../draw/../misc/lv_color.h ****  * Mix two colors with a given ratio.
 438:lvgl/src/hal/../draw/../misc/lv_color.h ****  * @param c1 the first color to mix (usually the foreground)
 439:lvgl/src/hal/../draw/../misc/lv_color.h ****  * @param c2 the second color to mix (usually the background)
 440:lvgl/src/hal/../draw/../misc/lv_color.h ****  * @param mix The ratio of the colors. 0: full `c2`, 255: full `c1`, 127: half `c1` and half`c2`
 441:lvgl/src/hal/../draw/../misc/lv_color.h ****  * @return the mixed color
 442:lvgl/src/hal/../draw/../misc/lv_color.h ****  */
 443:lvgl/src/hal/../draw/../misc/lv_color.h **** LV_ATTRIBUTE_FAST_MEM static inline lv_color_t lv_color_mix(lv_color_t c1, lv_color_t c2, uint8_t m
 444:lvgl/src/hal/../draw/../misc/lv_color.h **** {
 445:lvgl/src/hal/../draw/../misc/lv_color.h ****     lv_color_t ret;
 446:lvgl/src/hal/../draw/../misc/lv_color.h **** 
 447:lvgl/src/hal/../draw/../misc/lv_color.h **** #if LV_COLOR_DEPTH == 16 && LV_COLOR_16_SWAP == 0
 448:lvgl/src/hal/../draw/../misc/lv_color.h ****     /*Source: https://stackoverflow.com/a/50012418/1999969*/
 449:lvgl/src/hal/../draw/../misc/lv_color.h ****     mix = (mix + 4) >> 3;
 450:lvgl/src/hal/../draw/../misc/lv_color.h ****     uint32_t bg = (uint32_t)((uint32_t)c2.full | ((uint32_t)c2.full << 16)) &
 451:lvgl/src/hal/../draw/../misc/lv_color.h ****                   0x7E0F81F; /*0b00000111111000001111100000011111*/
 452:lvgl/src/hal/../draw/../misc/lv_color.h ****     uint32_t fg = (uint32_t)((uint32_t)c1.full | ((uint32_t)c1.full << 16)) & 0x7E0F81F;
 453:lvgl/src/hal/../draw/../misc/lv_color.h ****     uint32_t result = ((((fg - bg) * mix) >> 5) + bg) & 0x7E0F81F;
 454:lvgl/src/hal/../draw/../misc/lv_color.h ****     ret.full = (uint16_t)((result >> 16) | result);
 455:lvgl/src/hal/../draw/../misc/lv_color.h **** #elif LV_COLOR_DEPTH != 1
 456:lvgl/src/hal/../draw/../misc/lv_color.h ****     /*LV_COLOR_DEPTH == 8, 16 or 32*/
 457:lvgl/src/hal/../draw/../misc/lv_color.h ****     LV_COLOR_SET_R(ret, LV_UDIV255((uint16_t)LV_COLOR_GET_R(c1) * mix + LV_COLOR_GET_R(c2) *
 458:lvgl/src/hal/../draw/../misc/lv_color.h ****                                    (255 - mix) + LV_COLOR_MIX_ROUND_OFS));
 459:lvgl/src/hal/../draw/../misc/lv_color.h ****     LV_COLOR_SET_G(ret, LV_UDIV255((uint16_t)LV_COLOR_GET_G(c1) * mix + LV_COLOR_GET_G(c2) *
 460:lvgl/src/hal/../draw/../misc/lv_color.h ****                                    (255 - mix) + LV_COLOR_MIX_ROUND_OFS));
 461:lvgl/src/hal/../draw/../misc/lv_color.h ****     LV_COLOR_SET_B(ret, LV_UDIV255((uint16_t)LV_COLOR_GET_B(c1) * mix + LV_COLOR_GET_B(c2) *
 462:lvgl/src/hal/../draw/../misc/lv_color.h ****                                    (255 - mix) + LV_COLOR_MIX_ROUND_OFS));
 463:lvgl/src/hal/../draw/../misc/lv_color.h ****     LV_COLOR_SET_A(ret, 0xFF);
 464:lvgl/src/hal/../draw/../misc/lv_color.h **** #else
 465:lvgl/src/hal/../draw/../misc/lv_color.h ****     /*LV_COLOR_DEPTH == 1*/
 466:lvgl/src/hal/../draw/../misc/lv_color.h ****     ret.full = mix > LV_OPA_50 ? c1.full : c2.full;
 467:lvgl/src/hal/../draw/../misc/lv_color.h **** #endif
 468:lvgl/src/hal/../draw/../misc/lv_color.h **** 
 469:lvgl/src/hal/../draw/../misc/lv_color.h ****     return ret;
 470:lvgl/src/hal/../draw/../misc/lv_color.h **** }
 471:lvgl/src/hal/../draw/../misc/lv_color.h **** 
 472:lvgl/src/hal/../draw/../misc/lv_color.h **** LV_ATTRIBUTE_FAST_MEM static inline void lv_color_premult(lv_color_t c, uint8_t mix, uint16_t * out
 473:lvgl/src/hal/../draw/../misc/lv_color.h **** {
 474:lvgl/src/hal/../draw/../misc/lv_color.h **** #if LV_COLOR_DEPTH != 1
 475:lvgl/src/hal/../draw/../misc/lv_color.h ****     out[0] = (uint16_t)LV_COLOR_GET_R(c) * mix;
 476:lvgl/src/hal/../draw/../misc/lv_color.h ****     out[1] = (uint16_t)LV_COLOR_GET_G(c) * mix;
 477:lvgl/src/hal/../draw/../misc/lv_color.h ****     out[2] = (uint16_t)LV_COLOR_GET_B(c) * mix;
 478:lvgl/src/hal/../draw/../misc/lv_color.h **** #else
 479:lvgl/src/hal/../draw/../misc/lv_color.h ****     (void) mix;
 480:lvgl/src/hal/../draw/../misc/lv_color.h ****     /*Pre-multiplication can't be used with 1 bpp*/
 481:lvgl/src/hal/../draw/../misc/lv_color.h ****     out[0] = LV_COLOR_GET_R(c);
 482:lvgl/src/hal/../draw/../misc/lv_color.h ****     out[1] = LV_COLOR_GET_G(c);
 483:lvgl/src/hal/../draw/../misc/lv_color.h ****     out[2] = LV_COLOR_GET_B(c);
 484:lvgl/src/hal/../draw/../misc/lv_color.h **** #endif
 485:lvgl/src/hal/../draw/../misc/lv_color.h **** 
ARM GAS  C:\usertemp\cchE30wT.s 			page 18


 486:lvgl/src/hal/../draw/../misc/lv_color.h **** }
 487:lvgl/src/hal/../draw/../misc/lv_color.h **** 
 488:lvgl/src/hal/../draw/../misc/lv_color.h **** /**
 489:lvgl/src/hal/../draw/../misc/lv_color.h ****  * Mix two colors with a given ratio. It runs faster then `lv_color_mix` but requires some pre comp
 490:lvgl/src/hal/../draw/../misc/lv_color.h ****  * @param premult_c1 The first color. Should be preprocessed with `lv_color_premult(c1)`
 491:lvgl/src/hal/../draw/../misc/lv_color.h ****  * @param c2 The second color. As it is no pre computation required on it
 492:lvgl/src/hal/../draw/../misc/lv_color.h ****  * @param mix The ratio of the colors. 0: full `c1`, 255: full `c2`, 127: half `c1` and half `c2`.
 493:lvgl/src/hal/../draw/../misc/lv_color.h ****  *            Should be modified like mix = `255 - mix`
 494:lvgl/src/hal/../draw/../misc/lv_color.h ****  * @return the mixed color
 495:lvgl/src/hal/../draw/../misc/lv_color.h ****  * @note 255 won't give clearly `c1`.
 496:lvgl/src/hal/../draw/../misc/lv_color.h ****  */
 497:lvgl/src/hal/../draw/../misc/lv_color.h **** LV_ATTRIBUTE_FAST_MEM static inline lv_color_t lv_color_mix_premult(uint16_t * premult_c1, lv_color
 498:lvgl/src/hal/../draw/../misc/lv_color.h **** {
 499:lvgl/src/hal/../draw/../misc/lv_color.h ****     lv_color_t ret;
 500:lvgl/src/hal/../draw/../misc/lv_color.h **** #if LV_COLOR_DEPTH != 1
 501:lvgl/src/hal/../draw/../misc/lv_color.h ****     /*LV_COLOR_DEPTH == 8 or 32*/
 502:lvgl/src/hal/../draw/../misc/lv_color.h ****     LV_COLOR_SET_R(ret, LV_UDIV255(premult_c1[0] + LV_COLOR_GET_R(c2) * mix + LV_COLOR_MIX_ROUND_OF
 503:lvgl/src/hal/../draw/../misc/lv_color.h ****     LV_COLOR_SET_G(ret, LV_UDIV255(premult_c1[1] + LV_COLOR_GET_G(c2) * mix + LV_COLOR_MIX_ROUND_OF
 504:lvgl/src/hal/../draw/../misc/lv_color.h ****     LV_COLOR_SET_B(ret, LV_UDIV255(premult_c1[2] + LV_COLOR_GET_B(c2) * mix + LV_COLOR_MIX_ROUND_OF
 505:lvgl/src/hal/../draw/../misc/lv_color.h ****     LV_COLOR_SET_A(ret, 0xFF);
 506:lvgl/src/hal/../draw/../misc/lv_color.h **** #else
 507:lvgl/src/hal/../draw/../misc/lv_color.h ****     /*LV_COLOR_DEPTH == 1*/
 508:lvgl/src/hal/../draw/../misc/lv_color.h ****     /*Restore color1*/
 509:lvgl/src/hal/../draw/../misc/lv_color.h ****     lv_color_t c1;
 510:lvgl/src/hal/../draw/../misc/lv_color.h ****     LV_COLOR_SET_R(c1, premult_c1[0]);
 511:lvgl/src/hal/../draw/../misc/lv_color.h ****     LV_COLOR_SET_G(c1, premult_c1[1]);
 512:lvgl/src/hal/../draw/../misc/lv_color.h ****     LV_COLOR_SET_B(c1, premult_c1[2]);
 513:lvgl/src/hal/../draw/../misc/lv_color.h ****     ret.full = mix > LV_OPA_50 ? c2.full : c1.full;
 514:lvgl/src/hal/../draw/../misc/lv_color.h **** #endif
 515:lvgl/src/hal/../draw/../misc/lv_color.h **** 
 516:lvgl/src/hal/../draw/../misc/lv_color.h ****     return ret;
 517:lvgl/src/hal/../draw/../misc/lv_color.h **** }
 518:lvgl/src/hal/../draw/../misc/lv_color.h **** 
 519:lvgl/src/hal/../draw/../misc/lv_color.h **** /**
 520:lvgl/src/hal/../draw/../misc/lv_color.h ****  * Mix two colors. Both color can have alpha value.
 521:lvgl/src/hal/../draw/../misc/lv_color.h ****  * @param bg_color background color
 522:lvgl/src/hal/../draw/../misc/lv_color.h ****  * @param bg_opa alpha of the background color
 523:lvgl/src/hal/../draw/../misc/lv_color.h ****  * @param fg_color foreground color
 524:lvgl/src/hal/../draw/../misc/lv_color.h ****  * @param fg_opa alpha of the foreground color
 525:lvgl/src/hal/../draw/../misc/lv_color.h ****  * @param res_color the result color
 526:lvgl/src/hal/../draw/../misc/lv_color.h ****  * @param res_opa the result opacity
 527:lvgl/src/hal/../draw/../misc/lv_color.h ****  */
 528:lvgl/src/hal/../draw/../misc/lv_color.h **** LV_ATTRIBUTE_FAST_MEM static inline void lv_color_mix_with_alpha(lv_color_t bg_color, lv_opa_t bg_o
 529:lvgl/src/hal/../draw/../misc/lv_color.h ****                                                                  lv_color_t fg_color, lv_opa_t fg_o
 530:lvgl/src/hal/../draw/../misc/lv_color.h ****                                                                  lv_color_t * res_color, lv_opa_t *
 531:lvgl/src/hal/../draw/../misc/lv_color.h **** {
 532:lvgl/src/hal/../draw/../misc/lv_color.h ****     /*Pick the foreground if it's fully opaque or the Background is fully transparent*/
 533:lvgl/src/hal/../draw/../misc/lv_color.h ****     if(fg_opa >= LV_OPA_MAX || bg_opa <= LV_OPA_MIN) {
 534:lvgl/src/hal/../draw/../misc/lv_color.h ****         res_color->full = fg_color.full;
 535:lvgl/src/hal/../draw/../misc/lv_color.h ****         *res_opa = fg_opa;
 536:lvgl/src/hal/../draw/../misc/lv_color.h ****     }
 537:lvgl/src/hal/../draw/../misc/lv_color.h ****     /*Transparent foreground: use the Background*/
 538:lvgl/src/hal/../draw/../misc/lv_color.h ****     else if(fg_opa <= LV_OPA_MIN) {
 539:lvgl/src/hal/../draw/../misc/lv_color.h ****         res_color->full = bg_color.full;
 540:lvgl/src/hal/../draw/../misc/lv_color.h ****         *res_opa = bg_opa;
 541:lvgl/src/hal/../draw/../misc/lv_color.h ****     }
 542:lvgl/src/hal/../draw/../misc/lv_color.h ****     /*Opaque background: use simple mix*/
ARM GAS  C:\usertemp\cchE30wT.s 			page 19


 543:lvgl/src/hal/../draw/../misc/lv_color.h ****     else if(bg_opa >= LV_OPA_MAX) {
 544:lvgl/src/hal/../draw/../misc/lv_color.h ****         *res_color = lv_color_mix(fg_color, bg_color, fg_opa);
 545:lvgl/src/hal/../draw/../misc/lv_color.h ****         *res_opa = LV_OPA_COVER;
 546:lvgl/src/hal/../draw/../misc/lv_color.h ****     }
 547:lvgl/src/hal/../draw/../misc/lv_color.h ****     /*Both colors have alpha. Expensive calculation need to be applied*/
 548:lvgl/src/hal/../draw/../misc/lv_color.h ****     else {
 549:lvgl/src/hal/../draw/../misc/lv_color.h ****         /*Save the parameters and the result. If they will be asked again don't compute again*/
 550:lvgl/src/hal/../draw/../misc/lv_color.h ****         static lv_opa_t fg_opa_save     = 0;
 551:lvgl/src/hal/../draw/../misc/lv_color.h ****         static lv_opa_t bg_opa_save     = 0;
 552:lvgl/src/hal/../draw/../misc/lv_color.h ****         static lv_color_t fg_color_save = _LV_COLOR_ZERO_INITIALIZER;
 553:lvgl/src/hal/../draw/../misc/lv_color.h ****         static lv_color_t bg_color_save = _LV_COLOR_ZERO_INITIALIZER;
 554:lvgl/src/hal/../draw/../misc/lv_color.h ****         static lv_color_t res_color_saved = _LV_COLOR_ZERO_INITIALIZER;
 555:lvgl/src/hal/../draw/../misc/lv_color.h ****         static lv_opa_t res_opa_saved = 0;
 556:lvgl/src/hal/../draw/../misc/lv_color.h **** 
 557:lvgl/src/hal/../draw/../misc/lv_color.h ****         if(fg_opa != fg_opa_save || bg_opa != bg_opa_save || fg_color.full != fg_color_save.full ||
 558:lvgl/src/hal/../draw/../misc/lv_color.h ****            bg_color.full != bg_color_save.full) {
 559:lvgl/src/hal/../draw/../misc/lv_color.h ****             fg_opa_save        = fg_opa;
 560:lvgl/src/hal/../draw/../misc/lv_color.h ****             bg_opa_save        = bg_opa;
 561:lvgl/src/hal/../draw/../misc/lv_color.h ****             fg_color_save.full = fg_color.full;
 562:lvgl/src/hal/../draw/../misc/lv_color.h ****             bg_color_save.full = bg_color.full;
 563:lvgl/src/hal/../draw/../misc/lv_color.h ****             /*Info:
 564:lvgl/src/hal/../draw/../misc/lv_color.h ****              * https://en.wikipedia.org/wiki/Alpha_compositing#Analytical_derivation_of_the_over_op
 565:lvgl/src/hal/../draw/../misc/lv_color.h ****             res_opa_saved = 255 - ((uint16_t)((uint16_t)(255 - fg_opa) * (255 - bg_opa)) >> 8);
 566:lvgl/src/hal/../draw/../misc/lv_color.h ****             LV_ASSERT(res_opa_saved != 0);
 567:lvgl/src/hal/../draw/../misc/lv_color.h ****             lv_opa_t ratio = (uint16_t)((uint16_t)fg_opa * 255) / res_opa_saved;
 568:lvgl/src/hal/../draw/../misc/lv_color.h ****             res_color_saved = lv_color_mix(fg_color, bg_color, ratio);
 569:lvgl/src/hal/../draw/../misc/lv_color.h **** 
 570:lvgl/src/hal/../draw/../misc/lv_color.h ****         }
 571:lvgl/src/hal/../draw/../misc/lv_color.h **** 
 572:lvgl/src/hal/../draw/../misc/lv_color.h ****         res_color->full = res_color_saved.full;
 573:lvgl/src/hal/../draw/../misc/lv_color.h ****         *res_opa = res_opa_saved;
 574:lvgl/src/hal/../draw/../misc/lv_color.h ****     }
 575:lvgl/src/hal/../draw/../misc/lv_color.h **** }
 576:lvgl/src/hal/../draw/../misc/lv_color.h **** 
 577:lvgl/src/hal/../draw/../misc/lv_color.h **** //! @endcond
 578:lvgl/src/hal/../draw/../misc/lv_color.h **** 
 579:lvgl/src/hal/../draw/../misc/lv_color.h **** /**
 580:lvgl/src/hal/../draw/../misc/lv_color.h ****  * Get the brightness of a color
 581:lvgl/src/hal/../draw/../misc/lv_color.h ****  * @param color a color
 582:lvgl/src/hal/../draw/../misc/lv_color.h ****  * @return the brightness [0..255]
 583:lvgl/src/hal/../draw/../misc/lv_color.h ****  */
 584:lvgl/src/hal/../draw/../misc/lv_color.h **** static inline uint8_t lv_color_brightness(lv_color_t color)
 585:lvgl/src/hal/../draw/../misc/lv_color.h **** {
 586:lvgl/src/hal/../draw/../misc/lv_color.h ****     lv_color32_t c32;
 587:lvgl/src/hal/../draw/../misc/lv_color.h ****     c32.full        = lv_color_to32(color);
 588:lvgl/src/hal/../draw/../misc/lv_color.h ****     uint16_t bright = (uint16_t)(3u * LV_COLOR_GET_R32(c32) + LV_COLOR_GET_B32(c32) + 4u * LV_COLOR
 589:lvgl/src/hal/../draw/../misc/lv_color.h ****     return (uint8_t)(bright >> 3);
 590:lvgl/src/hal/../draw/../misc/lv_color.h **** }
 591:lvgl/src/hal/../draw/../misc/lv_color.h **** 
 592:lvgl/src/hal/../draw/../misc/lv_color.h **** static inline lv_color_t lv_color_make(uint8_t r, uint8_t g, uint8_t b)
 593:lvgl/src/hal/../draw/../misc/lv_color.h **** {
 594:lvgl/src/hal/../draw/../misc/lv_color.h ****     return _LV_COLOR_MAKE_TYPE_HELPER LV_COLOR_MAKE(r, g, b);
 595:lvgl/src/hal/../draw/../misc/lv_color.h **** }
 596:lvgl/src/hal/../draw/../misc/lv_color.h **** 
 597:lvgl/src/hal/../draw/../misc/lv_color.h **** static inline lv_color_t lv_color_hex(uint32_t c)
 243              		.loc 3 597 26 view .LVU26
 244              	.LBB151:
ARM GAS  C:\usertemp\cchE30wT.s 			page 20


 598:lvgl/src/hal/../draw/../misc/lv_color.h **** {
 599:lvgl/src/hal/../draw/../misc/lv_color.h **** #if LV_COLOR_DEPTH == 16
 600:lvgl/src/hal/../draw/../misc/lv_color.h ****     lv_color_t r;
 245              		.loc 3 600 5 view .LVU27
 601:lvgl/src/hal/../draw/../misc/lv_color.h **** #if LV_COLOR_16_SWAP == 0
 602:lvgl/src/hal/../draw/../misc/lv_color.h ****     /* Convert a 4 bytes per pixel in format ARGB32 to R5G6B5 format
 603:lvgl/src/hal/../draw/../misc/lv_color.h ****         naive way (by calling lv_color_make with components):
 604:lvgl/src/hal/../draw/../misc/lv_color.h ****                     r = ((c & 0xFF0000) >> 19)
 605:lvgl/src/hal/../draw/../misc/lv_color.h ****                     g = ((c & 0xFF00) >> 10)
 606:lvgl/src/hal/../draw/../misc/lv_color.h ****                     b = ((c & 0xFF) >> 3)
 607:lvgl/src/hal/../draw/../misc/lv_color.h ****                     rgb565 = (r << 11) | (g << 5) | b
 608:lvgl/src/hal/../draw/../misc/lv_color.h ****         That's 3 mask, 5 bitshift and 2 or operations
 609:lvgl/src/hal/../draw/../misc/lv_color.h **** 
 610:lvgl/src/hal/../draw/../misc/lv_color.h ****         A bit better:
 611:lvgl/src/hal/../draw/../misc/lv_color.h ****                     r = ((c & 0xF80000) >> 8)
 612:lvgl/src/hal/../draw/../misc/lv_color.h ****                     g = ((c & 0xFC00) >> 5)
 613:lvgl/src/hal/../draw/../misc/lv_color.h ****                     b = ((c & 0xFF) >> 3)
 614:lvgl/src/hal/../draw/../misc/lv_color.h ****                     rgb565 = r | g | b
 615:lvgl/src/hal/../draw/../misc/lv_color.h ****         That's 3 mask, 3 bitshifts and 2 or operations */
 616:lvgl/src/hal/../draw/../misc/lv_color.h ****     r.full = (uint16_t)(((c & 0xF80000) >> 8) | ((c & 0xFC00) >> 5) | ((c & 0xFF) >> 3));
 246              		.loc 3 616 5 view .LVU28
 617:lvgl/src/hal/../draw/../misc/lv_color.h **** #else
 618:lvgl/src/hal/../draw/../misc/lv_color.h ****     /* We want: rrrr rrrr GGGg gggg bbbb bbbb => gggb bbbb rrrr rGGG */
 619:lvgl/src/hal/../draw/../misc/lv_color.h ****     r.full = (uint16_t)(((c & 0xF80000) >> 16) | ((c & 0xFC00) >> 13) | ((c & 0x1C00) << 3) | ((c &
 620:lvgl/src/hal/../draw/../misc/lv_color.h **** #endif
 621:lvgl/src/hal/../draw/../misc/lv_color.h ****     return r;
 247              		.loc 3 621 5 view .LVU29
 248              		.loc 3 621 5 is_stmt 0 view .LVU30
 249              	.LBE151:
 250              	.LBE150:
 251              		.loc 1 34 2 discriminator 1 view .LVU31
 252 003c 0022     		movs	r2, #0
 253 003e 4CF2FA61 		movw	r1, 50938	@ movhi
 254 0042 2068     		ldr	r0, [r4]
 255 0044 FFF7FEFF 		bl	lv_obj_set_style_bg_color
 256              	.LVL10:
  35:generated/setup_scr_wave_model.c **** 
  36:generated/setup_scr_wave_model.c **** 	// Write codes wave_model_btn_7
  37:generated/setup_scr_wave_model.c **** 	ui->wave_model_btn_7 = lv_btn_create(ui->wave_model);
 257              		.loc 1 37 2 is_stmt 1 view .LVU32
 258              		.loc 1 37 25 is_stmt 0 view .LVU33
 259 0048 2068     		ldr	r0, [r4]
 260 004a FFF7FEFF 		bl	lv_btn_create
 261              	.LVL11:
 262              		.loc 1 37 23 discriminator 1 view .LVU34
 263 004e C4F89000 		str	r0, [r4, #144]
  38:generated/setup_scr_wave_model.c **** 	ui->wave_model_btn_7_label = lv_label_create(ui->wave_model_btn_7);
 264              		.loc 1 38 2 is_stmt 1 view .LVU35
 265              		.loc 1 38 31 is_stmt 0 view .LVU36
 266 0052 FFF7FEFF 		bl	lv_label_create
 267              	.LVL12:
 268              		.loc 1 38 29 discriminator 1 view .LVU37
 269 0056 C4F89400 		str	r0, [r4, #148]
  39:generated/setup_scr_wave_model.c **** 	lv_label_set_text(ui->wave_model_btn_7_label, ">");
 270              		.loc 1 39 2 is_stmt 1 view .LVU38
 271 005a C549     		ldr	r1, .L7+16
 272 005c FFF7FEFF 		bl	lv_label_set_text
ARM GAS  C:\usertemp\cchE30wT.s 			page 21


 273              	.LVL13:
  40:generated/setup_scr_wave_model.c **** 	lv_label_set_long_mode(ui->wave_model_btn_7_label, LV_LABEL_LONG_WRAP);
 274              		.loc 1 40 2 view .LVU39
 275 0060 0021     		movs	r1, #0
 276 0062 D4F89400 		ldr	r0, [r4, #148]
 277 0066 FFF7FEFF 		bl	lv_label_set_long_mode
 278              	.LVL14:
  41:generated/setup_scr_wave_model.c **** 	lv_obj_align(ui->wave_model_btn_7_label, LV_ALIGN_CENTER, 0, 0);
 279              		.loc 1 41 2 view .LVU40
 280 006a 0023     		movs	r3, #0
 281 006c 1A46     		mov	r2, r3
 282 006e 0921     		movs	r1, #9
 283 0070 D4F89400 		ldr	r0, [r4, #148]
 284 0074 FFF7FEFF 		bl	lv_obj_align
 285              	.LVL15:
  42:generated/setup_scr_wave_model.c **** 	lv_obj_set_style_pad_all(ui->wave_model_btn_7, 0, LV_STATE_DEFAULT);
 286              		.loc 1 42 2 view .LVU41
 287 0078 0022     		movs	r2, #0
 288 007a 1146     		mov	r1, r2
 289 007c D4F89000 		ldr	r0, [r4, #144]
 290 0080 FFF7FEFF 		bl	lv_obj_set_style_pad_all
 291              	.LVL16:
  43:generated/setup_scr_wave_model.c **** 	lv_obj_set_pos(ui->wave_model_btn_7, 600, 445);
 292              		.loc 1 43 2 view .LVU42
 293 0084 40F2BD12 		movw	r2, #445
 294 0088 4FF41671 		mov	r1, #600
 295 008c D4F89000 		ldr	r0, [r4, #144]
 296 0090 FFF7FEFF 		bl	lv_obj_set_pos
 297              	.LVL17:
  44:generated/setup_scr_wave_model.c **** 	lv_obj_set_size(ui->wave_model_btn_7, 20, 27);
 298              		.loc 1 44 2 view .LVU43
 299 0094 1B22     		movs	r2, #27
 300 0096 1421     		movs	r1, #20
 301 0098 D4F89000 		ldr	r0, [r4, #144]
 302 009c FFF7FEFF 		bl	lv_obj_set_size
 303              	.LVL18:
  45:generated/setup_scr_wave_model.c **** 
  46:generated/setup_scr_wave_model.c **** 	// Write style for wave_model_btn_7, Part: LV_PART_MAIN, State: LV_STATE_DEFAULT.
  47:generated/setup_scr_wave_model.c **** 	lv_obj_set_style_bg_opa(ui->wave_model_btn_7, 255, LV_PART_MAIN | LV_STATE_DEFAULT);
 304              		.loc 1 47 2 view .LVU44
 305 00a0 0022     		movs	r2, #0
 306 00a2 FF21     		movs	r1, #255
 307 00a4 D4F89000 		ldr	r0, [r4, #144]
 308 00a8 FFF7FEFF 		bl	lv_obj_set_style_bg_opa
 309              	.LVL19:
  48:generated/setup_scr_wave_model.c **** 	lv_obj_set_style_bg_color(ui->wave_model_btn_7, lv_color_hex(0x2195f6), LV_PART_MAIN | LV_STATE_DE
 310              		.loc 1 48 2 view .LVU45
 311              	.LBB152:
 312              	.LBI152:
 597:lvgl/src/hal/../draw/../misc/lv_color.h **** {
 313              		.loc 3 597 26 view .LVU46
 314              	.LBB153:
 600:lvgl/src/hal/../draw/../misc/lv_color.h **** #if LV_COLOR_16_SWAP == 0
 315              		.loc 3 600 5 view .LVU47
 616:lvgl/src/hal/../draw/../misc/lv_color.h **** #else
 316              		.loc 3 616 5 view .LVU48
 317              		.loc 3 621 5 view .LVU49
ARM GAS  C:\usertemp\cchE30wT.s 			page 22


 318              		.loc 3 621 5 is_stmt 0 view .LVU50
 319              	.LBE153:
 320              	.LBE152:
 321              		.loc 1 48 2 discriminator 1 view .LVU51
 322 00ac 0022     		movs	r2, #0
 323 00ae 42F2BE41 		movw	r1, 9406	@ movhi
 324 00b2 D4F89000 		ldr	r0, [r4, #144]
 325 00b6 FFF7FEFF 		bl	lv_obj_set_style_bg_color
 326              	.LVL20:
  49:generated/setup_scr_wave_model.c **** 	lv_obj_set_style_border_width(ui->wave_model_btn_7, 0, LV_PART_MAIN | LV_STATE_DEFAULT);
 327              		.loc 1 49 2 is_stmt 1 view .LVU52
 328 00ba 0022     		movs	r2, #0
 329 00bc 1146     		mov	r1, r2
 330 00be D4F89000 		ldr	r0, [r4, #144]
 331 00c2 FFF7FEFF 		bl	lv_obj_set_style_border_width
 332              	.LVL21:
  50:generated/setup_scr_wave_model.c **** 	lv_obj_set_style_radius(ui->wave_model_btn_7, 5, LV_PART_MAIN | LV_STATE_DEFAULT);
 333              		.loc 1 50 2 view .LVU53
 334 00c6 0022     		movs	r2, #0
 335 00c8 0521     		movs	r1, #5
 336 00ca D4F89000 		ldr	r0, [r4, #144]
 337 00ce FFF7FEFF 		bl	lv_obj_set_style_radius
 338              	.LVL22:
  51:generated/setup_scr_wave_model.c **** 	lv_obj_set_style_shadow_width(ui->wave_model_btn_7, 0, LV_PART_MAIN | LV_STATE_DEFAULT);
 339              		.loc 1 51 2 view .LVU54
 340 00d2 0022     		movs	r2, #0
 341 00d4 1146     		mov	r1, r2
 342 00d6 D4F89000 		ldr	r0, [r4, #144]
 343 00da FFF7FEFF 		bl	lv_obj_set_style_shadow_width
 344              	.LVL23:
  52:generated/setup_scr_wave_model.c **** 	lv_obj_set_style_text_color(ui->wave_model_btn_7, lv_color_hex(0xffffff), LV_PART_MAIN | LV_STATE_
 345              		.loc 1 52 2 view .LVU55
 346              	.LBB154:
 347              	.LBI154:
 597:lvgl/src/hal/../draw/../misc/lv_color.h **** {
 348              		.loc 3 597 26 view .LVU56
 349              	.LBB155:
 600:lvgl/src/hal/../draw/../misc/lv_color.h **** #if LV_COLOR_16_SWAP == 0
 350              		.loc 3 600 5 view .LVU57
 616:lvgl/src/hal/../draw/../misc/lv_color.h **** #else
 351              		.loc 3 616 5 view .LVU58
 352              		.loc 3 621 5 view .LVU59
 353              		.loc 3 621 5 is_stmt 0 view .LVU60
 354              	.LBE155:
 355              	.LBE154:
 356              		.loc 1 52 2 discriminator 1 view .LVU61
 357 00de 0022     		movs	r2, #0
 358 00e0 4FF0FF31 		mov	r1, #-1	@ movhi
 359 00e4 D4F89000 		ldr	r0, [r4, #144]
 360 00e8 FFF7FEFF 		bl	lv_obj_set_style_text_color
 361              	.LVL24:
  53:generated/setup_scr_wave_model.c **** 	lv_obj_set_style_text_font(ui->wave_model_btn_7, &lv_font_simsun_16, LV_PART_MAIN | LV_STATE_DEFAU
 362              		.loc 1 53 2 is_stmt 1 view .LVU62
 363 00ec 0022     		movs	r2, #0
 364 00ee A149     		ldr	r1, .L7+20
 365 00f0 D4F89000 		ldr	r0, [r4, #144]
 366 00f4 FFF7FEFF 		bl	lv_obj_set_style_text_font
ARM GAS  C:\usertemp\cchE30wT.s 			page 23


 367              	.LVL25:
  54:generated/setup_scr_wave_model.c **** 	lv_obj_set_style_text_align(ui->wave_model_btn_7, LV_TEXT_ALIGN_CENTER, LV_PART_MAIN | LV_STATE_DE
 368              		.loc 1 54 2 view .LVU63
 369 00f8 0022     		movs	r2, #0
 370 00fa 0221     		movs	r1, #2
 371 00fc D4F89000 		ldr	r0, [r4, #144]
 372 0100 FFF7FEFF 		bl	lv_obj_set_style_text_align
 373              	.LVL26:
  55:generated/setup_scr_wave_model.c **** 
  56:generated/setup_scr_wave_model.c **** 	// Write codes wave_model_btn_6
  57:generated/setup_scr_wave_model.c **** 	ui->wave_model_btn_6 = lv_btn_create(ui->wave_model);
 374              		.loc 1 57 2 view .LVU64
 375              		.loc 1 57 25 is_stmt 0 view .LVU65
 376 0104 2068     		ldr	r0, [r4]
 377 0106 FFF7FEFF 		bl	lv_btn_create
 378              	.LVL27:
 379              		.loc 1 57 23 discriminator 1 view .LVU66
 380 010a A063     		str	r0, [r4, #56]
  58:generated/setup_scr_wave_model.c **** 	ui->wave_model_btn_6_label = lv_label_create(ui->wave_model_btn_6);
 381              		.loc 1 58 2 is_stmt 1 view .LVU67
 382              		.loc 1 58 31 is_stmt 0 view .LVU68
 383 010c FFF7FEFF 		bl	lv_label_create
 384              	.LVL28:
 385              		.loc 1 58 29 discriminator 1 view .LVU69
 386 0110 E063     		str	r0, [r4, #60]
  59:generated/setup_scr_wave_model.c **** 	lv_label_set_text(ui->wave_model_btn_6_label, "Ca");
 387              		.loc 1 59 2 is_stmt 1 view .LVU70
 388 0112 9949     		ldr	r1, .L7+24
 389 0114 FFF7FEFF 		bl	lv_label_set_text
 390              	.LVL29:
  60:generated/setup_scr_wave_model.c **** 	lv_label_set_long_mode(ui->wave_model_btn_6_label, LV_LABEL_LONG_WRAP);
 391              		.loc 1 60 2 view .LVU71
 392 0118 0021     		movs	r1, #0
 393 011a E06B     		ldr	r0, [r4, #60]
 394 011c FFF7FEFF 		bl	lv_label_set_long_mode
 395              	.LVL30:
  61:generated/setup_scr_wave_model.c **** 	lv_obj_align(ui->wave_model_btn_6_label, LV_ALIGN_CENTER, 0, 0);
 396              		.loc 1 61 2 view .LVU72
 397 0120 0023     		movs	r3, #0
 398 0122 1A46     		mov	r2, r3
 399 0124 0921     		movs	r1, #9
 400 0126 E06B     		ldr	r0, [r4, #60]
 401 0128 FFF7FEFF 		bl	lv_obj_align
 402              	.LVL31:
  62:generated/setup_scr_wave_model.c **** 	lv_obj_set_style_pad_all(ui->wave_model_btn_6, 0, LV_STATE_DEFAULT);
 403              		.loc 1 62 2 view .LVU73
 404 012c 0022     		movs	r2, #0
 405 012e 1146     		mov	r1, r2
 406 0130 A06B     		ldr	r0, [r4, #56]
 407 0132 FFF7FEFF 		bl	lv_obj_set_style_pad_all
 408              	.LVL32:
  63:generated/setup_scr_wave_model.c **** 	lv_obj_set_pos(ui->wave_model_btn_6, 586, 130);
 409              		.loc 1 63 2 view .LVU74
 410 0136 8222     		movs	r2, #130
 411 0138 40F24A21 		movw	r1, #586
 412 013c A06B     		ldr	r0, [r4, #56]
 413 013e FFF7FEFF 		bl	lv_obj_set_pos
ARM GAS  C:\usertemp\cchE30wT.s 			page 24


 414              	.LVL33:
  64:generated/setup_scr_wave_model.c **** 	lv_obj_set_size(ui->wave_model_btn_6, 43, 30);
 415              		.loc 1 64 2 view .LVU75
 416 0142 1E22     		movs	r2, #30
 417 0144 2B21     		movs	r1, #43
 418 0146 A06B     		ldr	r0, [r4, #56]
 419 0148 FFF7FEFF 		bl	lv_obj_set_size
 420              	.LVL34:
  65:generated/setup_scr_wave_model.c **** 
  66:generated/setup_scr_wave_model.c **** 	// Write style for wave_model_btn_6, Part: LV_PART_MAIN, State: LV_STATE_DEFAULT.
  67:generated/setup_scr_wave_model.c **** 	lv_obj_set_style_bg_opa(ui->wave_model_btn_6, 255, LV_PART_MAIN | LV_STATE_DEFAULT);
 421              		.loc 1 67 2 view .LVU76
 422 014c 0022     		movs	r2, #0
 423 014e FF21     		movs	r1, #255
 424 0150 A06B     		ldr	r0, [r4, #56]
 425 0152 FFF7FEFF 		bl	lv_obj_set_style_bg_opa
 426              	.LVL35:
  68:generated/setup_scr_wave_model.c **** 	lv_obj_set_style_bg_color(ui->wave_model_btn_6, lv_color_hex(0x808080), LV_PART_MAIN | LV_STATE_DE
 427              		.loc 1 68 2 view .LVU77
 428              	.LBB156:
 429              	.LBI156:
 597:lvgl/src/hal/../draw/../misc/lv_color.h **** {
 430              		.loc 3 597 26 view .LVU78
 431              	.LBB157:
 600:lvgl/src/hal/../draw/../misc/lv_color.h **** #if LV_COLOR_16_SWAP == 0
 432              		.loc 3 600 5 view .LVU79
 616:lvgl/src/hal/../draw/../misc/lv_color.h **** #else
 433              		.loc 3 616 5 view .LVU80
 616:lvgl/src/hal/../draw/../misc/lv_color.h **** #else
 434              		.loc 3 616 12 is_stmt 0 view .LVU81
 435 0156 48F21047 		movw	r7, #33808
 436              		.loc 3 621 5 is_stmt 1 view .LVU82
 437              	.LVL36:
 438              		.loc 3 621 5 is_stmt 0 view .LVU83
 439              	.LBE157:
 440              	.LBE156:
 441              		.loc 1 68 2 discriminator 1 view .LVU84
 442 015a 0022     		movs	r2, #0
 443 015c 3946     		mov	r1, r7	@ movhi
 444 015e A06B     		ldr	r0, [r4, #56]
 445 0160 FFF7FEFF 		bl	lv_obj_set_style_bg_color
 446              	.LVL37:
  69:generated/setup_scr_wave_model.c **** 	lv_obj_set_style_border_width(ui->wave_model_btn_6, 0, LV_PART_MAIN | LV_STATE_DEFAULT);
 447              		.loc 1 69 2 is_stmt 1 view .LVU85
 448 0164 0022     		movs	r2, #0
 449 0166 1146     		mov	r1, r2
 450 0168 A06B     		ldr	r0, [r4, #56]
 451 016a FFF7FEFF 		bl	lv_obj_set_style_border_width
 452              	.LVL38:
  70:generated/setup_scr_wave_model.c **** 	lv_obj_set_style_radius(ui->wave_model_btn_6, 5, LV_PART_MAIN | LV_STATE_DEFAULT);
 453              		.loc 1 70 2 view .LVU86
 454 016e 0022     		movs	r2, #0
 455 0170 0521     		movs	r1, #5
 456 0172 A06B     		ldr	r0, [r4, #56]
 457 0174 FFF7FEFF 		bl	lv_obj_set_style_radius
 458              	.LVL39:
  71:generated/setup_scr_wave_model.c **** 	lv_obj_set_style_shadow_width(ui->wave_model_btn_6, 0, LV_PART_MAIN | LV_STATE_DEFAULT);
ARM GAS  C:\usertemp\cchE30wT.s 			page 25


 459              		.loc 1 71 2 view .LVU87
 460 0178 0022     		movs	r2, #0
 461 017a 1146     		mov	r1, r2
 462 017c A06B     		ldr	r0, [r4, #56]
 463 017e FFF7FEFF 		bl	lv_obj_set_style_shadow_width
 464              	.LVL40:
  72:generated/setup_scr_wave_model.c **** 	lv_obj_set_style_text_color(ui->wave_model_btn_6, lv_color_hex(0x000000), LV_PART_MAIN | LV_STATE_
 465              		.loc 1 72 2 view .LVU88
 466              	.LBB158:
 467              	.LBI158:
 597:lvgl/src/hal/../draw/../misc/lv_color.h **** {
 468              		.loc 3 597 26 view .LVU89
 469              	.LBB159:
 600:lvgl/src/hal/../draw/../misc/lv_color.h **** #if LV_COLOR_16_SWAP == 0
 470              		.loc 3 600 5 view .LVU90
 616:lvgl/src/hal/../draw/../misc/lv_color.h **** #else
 471              		.loc 3 616 5 view .LVU91
 616:lvgl/src/hal/../draw/../misc/lv_color.h **** #else
 472              		.loc 3 616 12 is_stmt 0 view .LVU92
 473 0182 0025     		movs	r5, #0
 474              		.loc 3 621 5 is_stmt 1 view .LVU93
 475              	.LVL41:
 476              		.loc 3 621 5 is_stmt 0 view .LVU94
 477              	.LBE159:
 478              	.LBE158:
 479              		.loc 1 72 2 discriminator 1 view .LVU95
 480 0184 2A46     		mov	r2, r5
 481 0186 2946     		mov	r1, r5	@ movhi
 482 0188 A06B     		ldr	r0, [r4, #56]
 483 018a FFF7FEFF 		bl	lv_obj_set_style_text_color
 484              	.LVL42:
  73:generated/setup_scr_wave_model.c **** 	lv_obj_set_style_text_font(ui->wave_model_btn_6, &lv_font_arial_16, LV_PART_MAIN | LV_STATE_DEFAUL
 485              		.loc 1 73 2 is_stmt 1 view .LVU96
 486 018e 7B4E     		ldr	r6, .L7+28
 487 0190 2A46     		mov	r2, r5
 488 0192 3146     		mov	r1, r6
 489 0194 A06B     		ldr	r0, [r4, #56]
 490 0196 FFF7FEFF 		bl	lv_obj_set_style_text_font
 491              	.LVL43:
  74:generated/setup_scr_wave_model.c **** 	lv_obj_set_style_text_align(ui->wave_model_btn_6, LV_TEXT_ALIGN_CENTER, LV_PART_MAIN | LV_STATE_DE
 492              		.loc 1 74 2 view .LVU97
 493 019a 2A46     		mov	r2, r5
 494 019c 0221     		movs	r1, #2
 495 019e A06B     		ldr	r0, [r4, #56]
 496 01a0 FFF7FEFF 		bl	lv_obj_set_style_text_align
 497              	.LVL44:
  75:generated/setup_scr_wave_model.c **** 
  76:generated/setup_scr_wave_model.c **** 	// Write codes wave_model_btn_2
  77:generated/setup_scr_wave_model.c **** 	ui->wave_model_btn_2 = lv_btn_create(ui->wave_model);
 498              		.loc 1 77 2 view .LVU98
 499              		.loc 1 77 25 is_stmt 0 view .LVU99
 500 01a4 2068     		ldr	r0, [r4]
 501 01a6 FFF7FEFF 		bl	lv_btn_create
 502              	.LVL45:
 503              		.loc 1 77 23 discriminator 1 view .LVU100
 504 01aa A061     		str	r0, [r4, #24]
  78:generated/setup_scr_wave_model.c **** 	ui->wave_model_btn_2_label = lv_label_create(ui->wave_model_btn_2);
ARM GAS  C:\usertemp\cchE30wT.s 			page 26


 505              		.loc 1 78 2 is_stmt 1 view .LVU101
 506              		.loc 1 78 31 is_stmt 0 view .LVU102
 507 01ac FFF7FEFF 		bl	lv_label_create
 508              	.LVL46:
 509              		.loc 1 78 29 discriminator 1 view .LVU103
 510 01b0 E061     		str	r0, [r4, #28]
  79:generated/setup_scr_wave_model.c **** 	lv_label_set_text(ui->wave_model_btn_2_label, "V");
 511              		.loc 1 79 2 is_stmt 1 view .LVU104
 512 01b2 7349     		ldr	r1, .L7+32
 513 01b4 FFF7FEFF 		bl	lv_label_set_text
 514              	.LVL47:
  80:generated/setup_scr_wave_model.c **** 	lv_label_set_long_mode(ui->wave_model_btn_2_label, LV_LABEL_LONG_WRAP);
 515              		.loc 1 80 2 view .LVU105
 516 01b8 2946     		mov	r1, r5
 517 01ba E069     		ldr	r0, [r4, #28]
 518 01bc FFF7FEFF 		bl	lv_label_set_long_mode
 519              	.LVL48:
  81:generated/setup_scr_wave_model.c **** 	lv_obj_align(ui->wave_model_btn_2_label, LV_ALIGN_CENTER, 0, 0);
 520              		.loc 1 81 2 view .LVU106
 521 01c0 2B46     		mov	r3, r5
 522 01c2 2A46     		mov	r2, r5
 523 01c4 0921     		movs	r1, #9
 524 01c6 E069     		ldr	r0, [r4, #28]
 525 01c8 FFF7FEFF 		bl	lv_obj_align
 526              	.LVL49:
  82:generated/setup_scr_wave_model.c **** 	lv_obj_set_style_pad_all(ui->wave_model_btn_2, 0, LV_STATE_DEFAULT);
 527              		.loc 1 82 2 view .LVU107
 528 01cc 2A46     		mov	r2, r5
 529 01ce 2946     		mov	r1, r5
 530 01d0 A069     		ldr	r0, [r4, #24]
 531 01d2 FFF7FEFF 		bl	lv_obj_set_style_pad_all
 532              	.LVL50:
  83:generated/setup_scr_wave_model.c **** 	lv_obj_set_pos(ui->wave_model_btn_2, 586, 170);
 533              		.loc 1 83 2 view .LVU108
 534 01d6 AA22     		movs	r2, #170
 535 01d8 40F24A21 		movw	r1, #586
 536 01dc A069     		ldr	r0, [r4, #24]
 537 01de FFF7FEFF 		bl	lv_obj_set_pos
 538              	.LVL51:
  84:generated/setup_scr_wave_model.c **** 	lv_obj_set_size(ui->wave_model_btn_2, 40, 30);
 539              		.loc 1 84 2 view .LVU109
 540 01e2 1E22     		movs	r2, #30
 541 01e4 2821     		movs	r1, #40
 542 01e6 A069     		ldr	r0, [r4, #24]
 543 01e8 FFF7FEFF 		bl	lv_obj_set_size
 544              	.LVL52:
  85:generated/setup_scr_wave_model.c **** 
  86:generated/setup_scr_wave_model.c **** 	// Write style for wave_model_btn_2, Part: LV_PART_MAIN, State: LV_STATE_DEFAULT.
  87:generated/setup_scr_wave_model.c **** 	lv_obj_set_style_bg_opa(ui->wave_model_btn_2, 255, LV_PART_MAIN | LV_STATE_DEFAULT);
 545              		.loc 1 87 2 view .LVU110
 546 01ec 2A46     		mov	r2, r5
 547 01ee FF21     		movs	r1, #255
 548 01f0 A069     		ldr	r0, [r4, #24]
 549 01f2 FFF7FEFF 		bl	lv_obj_set_style_bg_opa
 550              	.LVL53:
  88:generated/setup_scr_wave_model.c **** 	lv_obj_set_style_bg_color(ui->wave_model_btn_2, lv_color_hex(0x808080), LV_PART_MAIN | LV_STATE_DE
 551              		.loc 1 88 2 view .LVU111
ARM GAS  C:\usertemp\cchE30wT.s 			page 27


 552              	.LBB160:
 553              	.LBI160:
 597:lvgl/src/hal/../draw/../misc/lv_color.h **** {
 554              		.loc 3 597 26 view .LVU112
 555              	.LBB161:
 600:lvgl/src/hal/../draw/../misc/lv_color.h **** #if LV_COLOR_16_SWAP == 0
 556              		.loc 3 600 5 view .LVU113
 616:lvgl/src/hal/../draw/../misc/lv_color.h **** #else
 557              		.loc 3 616 5 view .LVU114
 558              		.loc 3 621 5 view .LVU115
 559              		.loc 3 621 5 is_stmt 0 view .LVU116
 560              	.LBE161:
 561              	.LBE160:
 562              		.loc 1 88 2 discriminator 1 view .LVU117
 563 01f6 2A46     		mov	r2, r5
 564 01f8 3946     		mov	r1, r7	@ movhi
 565 01fa A069     		ldr	r0, [r4, #24]
 566 01fc FFF7FEFF 		bl	lv_obj_set_style_bg_color
 567              	.LVL54:
  89:generated/setup_scr_wave_model.c **** 	lv_obj_set_style_border_width(ui->wave_model_btn_2, 0, LV_PART_MAIN | LV_STATE_DEFAULT);
 568              		.loc 1 89 2 is_stmt 1 view .LVU118
 569 0200 2A46     		mov	r2, r5
 570 0202 2946     		mov	r1, r5
 571 0204 A069     		ldr	r0, [r4, #24]
 572 0206 FFF7FEFF 		bl	lv_obj_set_style_border_width
 573              	.LVL55:
  90:generated/setup_scr_wave_model.c **** 	lv_obj_set_style_radius(ui->wave_model_btn_2, 5, LV_PART_MAIN | LV_STATE_DEFAULT);
 574              		.loc 1 90 2 view .LVU119
 575 020a 2A46     		mov	r2, r5
 576 020c 0521     		movs	r1, #5
 577 020e A069     		ldr	r0, [r4, #24]
 578 0210 FFF7FEFF 		bl	lv_obj_set_style_radius
 579              	.LVL56:
  91:generated/setup_scr_wave_model.c **** 	lv_obj_set_style_shadow_width(ui->wave_model_btn_2, 0, LV_PART_MAIN | LV_STATE_DEFAULT);
 580              		.loc 1 91 2 view .LVU120
 581 0214 2A46     		mov	r2, r5
 582 0216 2946     		mov	r1, r5
 583 0218 A069     		ldr	r0, [r4, #24]
 584 021a FFF7FEFF 		bl	lv_obj_set_style_shadow_width
 585              	.LVL57:
  92:generated/setup_scr_wave_model.c **** 	lv_obj_set_style_text_color(ui->wave_model_btn_2, lv_color_hex(0x000000), LV_PART_MAIN | LV_STATE_
 586              		.loc 1 92 2 view .LVU121
 587              	.LBB162:
 588              	.LBI162:
 597:lvgl/src/hal/../draw/../misc/lv_color.h **** {
 589              		.loc 3 597 26 view .LVU122
 590              	.LBB163:
 600:lvgl/src/hal/../draw/../misc/lv_color.h **** #if LV_COLOR_16_SWAP == 0
 591              		.loc 3 600 5 view .LVU123
 616:lvgl/src/hal/../draw/../misc/lv_color.h **** #else
 592              		.loc 3 616 5 view .LVU124
 593              		.loc 3 621 5 view .LVU125
 594              		.loc 3 621 5 is_stmt 0 view .LVU126
 595              	.LBE163:
 596              	.LBE162:
 597              		.loc 1 92 2 discriminator 1 view .LVU127
 598 021e 2A46     		mov	r2, r5
ARM GAS  C:\usertemp\cchE30wT.s 			page 28


 599 0220 2946     		mov	r1, r5	@ movhi
 600 0222 A069     		ldr	r0, [r4, #24]
 601 0224 FFF7FEFF 		bl	lv_obj_set_style_text_color
 602              	.LVL58:
  93:generated/setup_scr_wave_model.c **** 	lv_obj_set_style_text_font(ui->wave_model_btn_2, &lv_font_arial_16, LV_PART_MAIN | LV_STATE_DEFAUL
 603              		.loc 1 93 2 is_stmt 1 view .LVU128
 604 0228 2A46     		mov	r2, r5
 605 022a 3146     		mov	r1, r6
 606 022c A069     		ldr	r0, [r4, #24]
 607 022e FFF7FEFF 		bl	lv_obj_set_style_text_font
 608              	.LVL59:
  94:generated/setup_scr_wave_model.c **** 	lv_obj_set_style_text_align(ui->wave_model_btn_2, LV_TEXT_ALIGN_CENTER, LV_PART_MAIN | LV_STATE_DE
 609              		.loc 1 94 2 view .LVU129
 610 0232 2A46     		mov	r2, r5
 611 0234 0221     		movs	r1, #2
 612 0236 A069     		ldr	r0, [r4, #24]
 613 0238 FFF7FEFF 		bl	lv_obj_set_style_text_align
 614              	.LVL60:
  95:generated/setup_scr_wave_model.c **** 
  96:generated/setup_scr_wave_model.c **** 	// Write codes wave_model_btn_1
  97:generated/setup_scr_wave_model.c **** 	ui->wave_model_btn_1 = lv_btn_create(ui->wave_model);
 615              		.loc 1 97 2 view .LVU130
 616              		.loc 1 97 25 is_stmt 0 view .LVU131
 617 023c 2068     		ldr	r0, [r4]
 618 023e FFF7FEFF 		bl	lv_btn_create
 619              	.LVL61:
 620              		.loc 1 97 23 discriminator 1 view .LVU132
 621 0242 2061     		str	r0, [r4, #16]
  98:generated/setup_scr_wave_model.c **** 	ui->wave_model_btn_1_label = lv_label_create(ui->wave_model_btn_1);
 622              		.loc 1 98 2 is_stmt 1 view .LVU133
 623              		.loc 1 98 31 is_stmt 0 view .LVU134
 624 0244 FFF7FEFF 		bl	lv_label_create
 625              	.LVL62:
 626              		.loc 1 98 29 discriminator 1 view .LVU135
 627 0248 6061     		str	r0, [r4, #20]
  99:generated/setup_scr_wave_model.c **** 	lv_label_set_text(ui->wave_model_btn_1_label, "L1");
 628              		.loc 1 99 2 is_stmt 1 view .LVU136
 629 024a 4E49     		ldr	r1, .L7+36
 630 024c FFF7FEFF 		bl	lv_label_set_text
 631              	.LVL63:
 100:generated/setup_scr_wave_model.c **** 	lv_label_set_long_mode(ui->wave_model_btn_1_label, LV_LABEL_LONG_WRAP);
 632              		.loc 1 100 2 view .LVU137
 633 0250 2946     		mov	r1, r5
 634 0252 6069     		ldr	r0, [r4, #20]
 635 0254 FFF7FEFF 		bl	lv_label_set_long_mode
 636              	.LVL64:
 101:generated/setup_scr_wave_model.c **** 	lv_obj_align(ui->wave_model_btn_1_label, LV_ALIGN_CENTER, 0, 0);
 637              		.loc 1 101 2 view .LVU138
 638 0258 2B46     		mov	r3, r5
 639 025a 2A46     		mov	r2, r5
 640 025c 0921     		movs	r1, #9
 641 025e 6069     		ldr	r0, [r4, #20]
 642 0260 FFF7FEFF 		bl	lv_obj_align
 643              	.LVL65:
 102:generated/setup_scr_wave_model.c **** 	lv_obj_set_style_pad_all(ui->wave_model_btn_1, 0, LV_STATE_DEFAULT);
 644              		.loc 1 102 2 view .LVU139
 645 0264 2A46     		mov	r2, r5
ARM GAS  C:\usertemp\cchE30wT.s 			page 29


 646 0266 2946     		mov	r1, r5
 647 0268 2069     		ldr	r0, [r4, #16]
 648 026a FFF7FEFF 		bl	lv_obj_set_style_pad_all
 649              	.LVL66:
 103:generated/setup_scr_wave_model.c **** 	lv_obj_set_pos(ui->wave_model_btn_1, 586, 210);
 650              		.loc 1 103 2 view .LVU140
 651 026e D222     		movs	r2, #210
 652 0270 40F24A21 		movw	r1, #586
 653 0274 2069     		ldr	r0, [r4, #16]
 654 0276 FFF7FEFF 		bl	lv_obj_set_pos
 655              	.LVL67:
 104:generated/setup_scr_wave_model.c **** 	lv_obj_set_size(ui->wave_model_btn_1, 40, 30);
 656              		.loc 1 104 2 view .LVU141
 657 027a 1E22     		movs	r2, #30
 658 027c 2821     		movs	r1, #40
 659 027e 2069     		ldr	r0, [r4, #16]
 660 0280 FFF7FEFF 		bl	lv_obj_set_size
 661              	.LVL68:
 105:generated/setup_scr_wave_model.c **** 
 106:generated/setup_scr_wave_model.c **** 	// Write style for wave_model_btn_1, Part: LV_PART_MAIN, State: LV_STATE_DEFAULT.
 107:generated/setup_scr_wave_model.c **** 	lv_obj_set_style_bg_opa(ui->wave_model_btn_1, 255, LV_PART_MAIN | LV_STATE_DEFAULT);
 662              		.loc 1 107 2 view .LVU142
 663 0284 2A46     		mov	r2, r5
 664 0286 FF21     		movs	r1, #255
 665 0288 2069     		ldr	r0, [r4, #16]
 666 028a FFF7FEFF 		bl	lv_obj_set_style_bg_opa
 667              	.LVL69:
 108:generated/setup_scr_wave_model.c **** 	lv_obj_set_style_bg_color(ui->wave_model_btn_1, lv_color_hex(0x808080), LV_PART_MAIN | LV_STATE_DE
 668              		.loc 1 108 2 view .LVU143
 669              	.LBB164:
 670              	.LBI164:
 597:lvgl/src/hal/../draw/../misc/lv_color.h **** {
 671              		.loc 3 597 26 view .LVU144
 672              	.LBB165:
 600:lvgl/src/hal/../draw/../misc/lv_color.h **** #if LV_COLOR_16_SWAP == 0
 673              		.loc 3 600 5 view .LVU145
 616:lvgl/src/hal/../draw/../misc/lv_color.h **** #else
 674              		.loc 3 616 5 view .LVU146
 675              		.loc 3 621 5 view .LVU147
 676              		.loc 3 621 5 is_stmt 0 view .LVU148
 677              	.LBE165:
 678              	.LBE164:
 679              		.loc 1 108 2 discriminator 1 view .LVU149
 680 028e 2A46     		mov	r2, r5
 681 0290 3946     		mov	r1, r7	@ movhi
 682 0292 2069     		ldr	r0, [r4, #16]
 683 0294 FFF7FEFF 		bl	lv_obj_set_style_bg_color
 684              	.LVL70:
 109:generated/setup_scr_wave_model.c **** 	lv_obj_set_style_border_width(ui->wave_model_btn_1, 0, LV_PART_MAIN | LV_STATE_DEFAULT);
 685              		.loc 1 109 2 is_stmt 1 view .LVU150
 686 0298 2A46     		mov	r2, r5
 687 029a 2946     		mov	r1, r5
 688 029c 2069     		ldr	r0, [r4, #16]
 689 029e FFF7FEFF 		bl	lv_obj_set_style_border_width
 690              	.LVL71:
 110:generated/setup_scr_wave_model.c **** 	lv_obj_set_style_radius(ui->wave_model_btn_1, 5, LV_PART_MAIN | LV_STATE_DEFAULT);
 691              		.loc 1 110 2 view .LVU151
ARM GAS  C:\usertemp\cchE30wT.s 			page 30


 692 02a2 2A46     		mov	r2, r5
 693 02a4 0521     		movs	r1, #5
 694 02a6 2069     		ldr	r0, [r4, #16]
 695 02a8 FFF7FEFF 		bl	lv_obj_set_style_radius
 696              	.LVL72:
 111:generated/setup_scr_wave_model.c **** 	lv_obj_set_style_shadow_width(ui->wave_model_btn_1, 0, LV_PART_MAIN | LV_STATE_DEFAULT);
 697              		.loc 1 111 2 view .LVU152
 698 02ac 2A46     		mov	r2, r5
 699 02ae 2946     		mov	r1, r5
 700 02b0 2069     		ldr	r0, [r4, #16]
 701 02b2 FFF7FEFF 		bl	lv_obj_set_style_shadow_width
 702              	.LVL73:
 112:generated/setup_scr_wave_model.c **** 	lv_obj_set_style_text_color(ui->wave_model_btn_1, lv_color_hex(0x000000), LV_PART_MAIN | LV_STATE_
 703              		.loc 1 112 2 view .LVU153
 704              	.LBB166:
 705              	.LBI166:
 597:lvgl/src/hal/../draw/../misc/lv_color.h **** {
 706              		.loc 3 597 26 view .LVU154
 707              	.LBB167:
 600:lvgl/src/hal/../draw/../misc/lv_color.h **** #if LV_COLOR_16_SWAP == 0
 708              		.loc 3 600 5 view .LVU155
 616:lvgl/src/hal/../draw/../misc/lv_color.h **** #else
 709              		.loc 3 616 5 view .LVU156
 710              		.loc 3 621 5 view .LVU157
 711              		.loc 3 621 5 is_stmt 0 view .LVU158
 712              	.LBE167:
 713              	.LBE166:
 714              		.loc 1 112 2 discriminator 1 view .LVU159
 715 02b6 2A46     		mov	r2, r5
 716 02b8 2946     		mov	r1, r5	@ movhi
 717 02ba 2069     		ldr	r0, [r4, #16]
 718 02bc FFF7FEFF 		bl	lv_obj_set_style_text_color
 719              	.LVL74:
 113:generated/setup_scr_wave_model.c **** 	lv_obj_set_style_text_font(ui->wave_model_btn_1, &lv_font_arial_16, LV_PART_MAIN | LV_STATE_DEFAUL
 720              		.loc 1 113 2 is_stmt 1 view .LVU160
 721 02c0 2A46     		mov	r2, r5
 722 02c2 3146     		mov	r1, r6
 723 02c4 2069     		ldr	r0, [r4, #16]
 724 02c6 FFF7FEFF 		bl	lv_obj_set_style_text_font
 725              	.LVL75:
 114:generated/setup_scr_wave_model.c **** 	lv_obj_set_style_text_align(ui->wave_model_btn_1, LV_TEXT_ALIGN_CENTER, LV_PART_MAIN | LV_STATE_DE
 726              		.loc 1 114 2 view .LVU161
 727 02ca 2A46     		mov	r2, r5
 728 02cc 0221     		movs	r1, #2
 729 02ce 2069     		ldr	r0, [r4, #16]
 730 02d0 FFF7FEFF 		bl	lv_obj_set_style_text_align
 731              	.LVL76:
 115:generated/setup_scr_wave_model.c **** 
 116:generated/setup_scr_wave_model.c **** 	// Write codes wave_model_btn_3
 117:generated/setup_scr_wave_model.c **** 	ui->wave_model_btn_3 = lv_btn_create(ui->wave_model);
 732              		.loc 1 117 2 view .LVU162
 733              		.loc 1 117 25 is_stmt 0 view .LVU163
 734 02d4 2068     		ldr	r0, [r4]
 735 02d6 FFF7FEFF 		bl	lv_btn_create
 736              	.LVL77:
 737              		.loc 1 117 23 discriminator 1 view .LVU164
 738 02da 2062     		str	r0, [r4, #32]
ARM GAS  C:\usertemp\cchE30wT.s 			page 31


 118:generated/setup_scr_wave_model.c **** 	ui->wave_model_btn_3_label = lv_label_create(ui->wave_model_btn_3);
 739              		.loc 1 118 2 is_stmt 1 view .LVU165
 740              		.loc 1 118 31 is_stmt 0 view .LVU166
 741 02dc FFF7FEFF 		bl	lv_label_create
 742              	.LVL78:
 743              		.loc 1 118 29 discriminator 1 view .LVU167
 744 02e0 6062     		str	r0, [r4, #36]
 119:generated/setup_scr_wave_model.c **** 	lv_label_set_text(ui->wave_model_btn_3_label, "L2");
 745              		.loc 1 119 2 is_stmt 1 view .LVU168
 746 02e2 2949     		ldr	r1, .L7+40
 747 02e4 FFF7FEFF 		bl	lv_label_set_text
 748              	.LVL79:
 120:generated/setup_scr_wave_model.c **** 	lv_label_set_long_mode(ui->wave_model_btn_3_label, LV_LABEL_LONG_WRAP);
 749              		.loc 1 120 2 view .LVU169
 750 02e8 2946     		mov	r1, r5
 751 02ea 606A     		ldr	r0, [r4, #36]
 752 02ec FFF7FEFF 		bl	lv_label_set_long_mode
 753              	.LVL80:
 121:generated/setup_scr_wave_model.c **** 	lv_obj_align(ui->wave_model_btn_3_label, LV_ALIGN_CENTER, 0, 0);
 754              		.loc 1 121 2 view .LVU170
 755 02f0 2B46     		mov	r3, r5
 756 02f2 2A46     		mov	r2, r5
 757 02f4 0921     		movs	r1, #9
 758 02f6 606A     		ldr	r0, [r4, #36]
 759 02f8 FFF7FEFF 		bl	lv_obj_align
 760              	.LVL81:
 122:generated/setup_scr_wave_model.c **** 	lv_obj_set_style_pad_all(ui->wave_model_btn_3, 0, LV_STATE_DEFAULT);
 761              		.loc 1 122 2 view .LVU171
 762 02fc 2A46     		mov	r2, r5
 763 02fe 2946     		mov	r1, r5
 764 0300 206A     		ldr	r0, [r4, #32]
 765 0302 FFF7FEFF 		bl	lv_obj_set_style_pad_all
 766              	.LVL82:
 123:generated/setup_scr_wave_model.c **** 	lv_obj_set_pos(ui->wave_model_btn_3, 586, 250);
 767              		.loc 1 123 2 view .LVU172
 768 0306 FA22     		movs	r2, #250
 769 0308 40F24A21 		movw	r1, #586
 770 030c 206A     		ldr	r0, [r4, #32]
 771 030e FFF7FEFF 		bl	lv_obj_set_pos
 772              	.LVL83:
 124:generated/setup_scr_wave_model.c **** 	lv_obj_set_size(ui->wave_model_btn_3, 40, 30);
 773              		.loc 1 124 2 view .LVU173
 774 0312 1E22     		movs	r2, #30
 775 0314 2821     		movs	r1, #40
 776 0316 206A     		ldr	r0, [r4, #32]
 777 0318 FFF7FEFF 		bl	lv_obj_set_size
 778              	.LVL84:
 125:generated/setup_scr_wave_model.c **** 
 126:generated/setup_scr_wave_model.c **** 	// Write style for wave_model_btn_3, Part: LV_PART_MAIN, State: LV_STATE_DEFAULT.
 127:generated/setup_scr_wave_model.c **** 	lv_obj_set_style_bg_opa(ui->wave_model_btn_3, 255, LV_PART_MAIN | LV_STATE_DEFAULT);
 779              		.loc 1 127 2 view .LVU174
 780 031c 2A46     		mov	r2, r5
 781 031e FF21     		movs	r1, #255
 782 0320 206A     		ldr	r0, [r4, #32]
 783 0322 FFF7FEFF 		bl	lv_obj_set_style_bg_opa
 784              	.LVL85:
 128:generated/setup_scr_wave_model.c **** 	lv_obj_set_style_bg_color(ui->wave_model_btn_3, lv_color_hex(0x808080), LV_PART_MAIN | LV_STATE_DE
ARM GAS  C:\usertemp\cchE30wT.s 			page 32


 785              		.loc 1 128 2 view .LVU175
 786              	.LBB168:
 787              	.LBI168:
 597:lvgl/src/hal/../draw/../misc/lv_color.h **** {
 788              		.loc 3 597 26 view .LVU176
 789              	.LBB169:
 600:lvgl/src/hal/../draw/../misc/lv_color.h **** #if LV_COLOR_16_SWAP == 0
 790              		.loc 3 600 5 view .LVU177
 616:lvgl/src/hal/../draw/../misc/lv_color.h **** #else
 791              		.loc 3 616 5 view .LVU178
 792              		.loc 3 621 5 view .LVU179
 793              		.loc 3 621 5 is_stmt 0 view .LVU180
 794              	.LBE169:
 795              	.LBE168:
 796              		.loc 1 128 2 discriminator 1 view .LVU181
 797 0326 2A46     		mov	r2, r5
 798 0328 3946     		mov	r1, r7	@ movhi
 799 032a 206A     		ldr	r0, [r4, #32]
 800 032c FFF7FEFF 		bl	lv_obj_set_style_bg_color
 801              	.LVL86:
 129:generated/setup_scr_wave_model.c **** 	lv_obj_set_style_border_width(ui->wave_model_btn_3, 0, LV_PART_MAIN | LV_STATE_DEFAULT);
 802              		.loc 1 129 2 is_stmt 1 view .LVU182
 803 0330 2A46     		mov	r2, r5
 804 0332 2946     		mov	r1, r5
 805 0334 206A     		ldr	r0, [r4, #32]
 806 0336 FFF7FEFF 		bl	lv_obj_set_style_border_width
 807              	.LVL87:
 130:generated/setup_scr_wave_model.c **** 	lv_obj_set_style_radius(ui->wave_model_btn_3, 5, LV_PART_MAIN | LV_STATE_DEFAULT);
 808              		.loc 1 130 2 view .LVU183
 809 033a 2A46     		mov	r2, r5
 810 033c 0521     		movs	r1, #5
 811 033e 206A     		ldr	r0, [r4, #32]
 812 0340 FFF7FEFF 		bl	lv_obj_set_style_radius
 813              	.LVL88:
 131:generated/setup_scr_wave_model.c **** 	lv_obj_set_style_shadow_width(ui->wave_model_btn_3, 0, LV_PART_MAIN | LV_STATE_DEFAULT);
 814              		.loc 1 131 2 view .LVU184
 815 0344 2A46     		mov	r2, r5
 816 0346 2946     		mov	r1, r5
 817 0348 206A     		ldr	r0, [r4, #32]
 818 034a FFF7FEFF 		bl	lv_obj_set_style_shadow_width
 819              	.LVL89:
 132:generated/setup_scr_wave_model.c **** 	lv_obj_set_style_text_color(ui->wave_model_btn_3, lv_color_hex(0x000000), LV_PART_MAIN | LV_STATE_
 820              		.loc 1 132 2 view .LVU185
 821              	.LBB170:
 822              	.LBI170:
 597:lvgl/src/hal/../draw/../misc/lv_color.h **** {
 823              		.loc 3 597 26 view .LVU186
 824              	.LBB171:
 600:lvgl/src/hal/../draw/../misc/lv_color.h **** #if LV_COLOR_16_SWAP == 0
 825              		.loc 3 600 5 view .LVU187
 616:lvgl/src/hal/../draw/../misc/lv_color.h **** #else
 826              		.loc 3 616 5 view .LVU188
 827              		.loc 3 621 5 view .LVU189
 828              		.loc 3 621 5 is_stmt 0 view .LVU190
 829              	.LBE171:
 830              	.LBE170:
 831              		.loc 1 132 2 discriminator 1 view .LVU191
ARM GAS  C:\usertemp\cchE30wT.s 			page 33


 832 034e 2A46     		mov	r2, r5
 833 0350 2946     		mov	r1, r5	@ movhi
 834 0352 206A     		ldr	r0, [r4, #32]
 835 0354 FFF7FEFF 		bl	lv_obj_set_style_text_color
 836              	.LVL90:
 133:generated/setup_scr_wave_model.c **** 	lv_obj_set_style_text_font(ui->wave_model_btn_3, &lv_font_arial_16, LV_PART_MAIN | LV_STATE_DEFAUL
 837              		.loc 1 133 2 is_stmt 1 view .LVU192
 838 0358 2A46     		mov	r2, r5
 839 035a 3146     		mov	r1, r6
 840 035c 16E0     		b	.L8
 841              	.L9:
 842 035e 00BF     		.align	2
 843              	.L7:
 844 0360 00000000 		.word	MyRTC_Time
 845 0364 00000000 		.word	wave_model_digital_clock_1_min_value
 846 0368 00000000 		.word	wave_model_digital_clock_1_hour_value
 847 036c 00000000 		.word	wave_model_digital_clock_1_sec_value
 848 0370 00000000 		.word	.LC0
 849 0374 00000000 		.word	lv_font_simsun_16
 850 0378 04000000 		.word	.LC1
 851 037c 00000000 		.word	lv_font_arial_16
 852 0380 08000000 		.word	.LC2
 853 0384 0C000000 		.word	.LC3
 854 0388 10000000 		.word	.LC4
 855              	.L8:
 856 038c 206A     		ldr	r0, [r4, #32]
 857 038e FFF7FEFF 		bl	lv_obj_set_style_text_font
 858              	.LVL91:
 134:generated/setup_scr_wave_model.c **** 	lv_obj_set_style_text_align(ui->wave_model_btn_3, LV_TEXT_ALIGN_CENTER, LV_PART_MAIN | LV_STATE_DE
 859              		.loc 1 134 2 view .LVU193
 860 0392 2A46     		mov	r2, r5
 861 0394 0221     		movs	r1, #2
 862 0396 206A     		ldr	r0, [r4, #32]
 863 0398 FFF7FEFF 		bl	lv_obj_set_style_text_align
 864              	.LVL92:
 135:generated/setup_scr_wave_model.c **** 
 136:generated/setup_scr_wave_model.c **** 	// Write codes wave_model_btn_4
 137:generated/setup_scr_wave_model.c **** 	ui->wave_model_btn_4 = lv_btn_create(ui->wave_model);
 865              		.loc 1 137 2 view .LVU194
 866              		.loc 1 137 25 is_stmt 0 view .LVU195
 867 039c 2068     		ldr	r0, [r4]
 868 039e FFF7FEFF 		bl	lv_btn_create
 869              	.LVL93:
 870              		.loc 1 137 23 discriminator 1 view .LVU196
 871 03a2 A062     		str	r0, [r4, #40]
 138:generated/setup_scr_wave_model.c **** 	ui->wave_model_btn_4_label = lv_label_create(ui->wave_model_btn_4);
 872              		.loc 1 138 2 is_stmt 1 view .LVU197
 873              		.loc 1 138 31 is_stmt 0 view .LVU198
 874 03a4 FFF7FEFF 		bl	lv_label_create
 875              	.LVL94:
 876              		.loc 1 138 29 discriminator 1 view .LVU199
 877 03a8 E062     		str	r0, [r4, #44]
 139:generated/setup_scr_wave_model.c **** 	lv_label_set_text(ui->wave_model_btn_4_label, "L3");
 878              		.loc 1 139 2 is_stmt 1 view .LVU200
 879 03aa D149     		ldr	r1, .L10
 880 03ac FFF7FEFF 		bl	lv_label_set_text
 881              	.LVL95:
ARM GAS  C:\usertemp\cchE30wT.s 			page 34


 140:generated/setup_scr_wave_model.c **** 	lv_label_set_long_mode(ui->wave_model_btn_4_label, LV_LABEL_LONG_WRAP);
 882              		.loc 1 140 2 view .LVU201
 883 03b0 2946     		mov	r1, r5
 884 03b2 E06A     		ldr	r0, [r4, #44]
 885 03b4 FFF7FEFF 		bl	lv_label_set_long_mode
 886              	.LVL96:
 141:generated/setup_scr_wave_model.c **** 	lv_obj_align(ui->wave_model_btn_4_label, LV_ALIGN_CENTER, 0, 0);
 887              		.loc 1 141 2 view .LVU202
 888 03b8 2B46     		mov	r3, r5
 889 03ba 2A46     		mov	r2, r5
 890 03bc 0921     		movs	r1, #9
 891 03be E06A     		ldr	r0, [r4, #44]
 892 03c0 FFF7FEFF 		bl	lv_obj_align
 893              	.LVL97:
 142:generated/setup_scr_wave_model.c **** 	lv_obj_set_style_pad_all(ui->wave_model_btn_4, 0, LV_STATE_DEFAULT);
 894              		.loc 1 142 2 view .LVU203
 895 03c4 2A46     		mov	r2, r5
 896 03c6 2946     		mov	r1, r5
 897 03c8 A06A     		ldr	r0, [r4, #40]
 898 03ca FFF7FEFF 		bl	lv_obj_set_style_pad_all
 899              	.LVL98:
 143:generated/setup_scr_wave_model.c **** 	lv_obj_set_pos(ui->wave_model_btn_4, 586, 290);
 900              		.loc 1 143 2 view .LVU204
 901 03ce 4FF49172 		mov	r2, #290
 902 03d2 40F24A21 		movw	r1, #586
 903 03d6 A06A     		ldr	r0, [r4, #40]
 904 03d8 FFF7FEFF 		bl	lv_obj_set_pos
 905              	.LVL99:
 144:generated/setup_scr_wave_model.c **** 	lv_obj_set_size(ui->wave_model_btn_4, 40, 30);
 906              		.loc 1 144 2 view .LVU205
 907 03dc 1E22     		movs	r2, #30
 908 03de 2821     		movs	r1, #40
 909 03e0 A06A     		ldr	r0, [r4, #40]
 910 03e2 FFF7FEFF 		bl	lv_obj_set_size
 911              	.LVL100:
 145:generated/setup_scr_wave_model.c **** 
 146:generated/setup_scr_wave_model.c **** 	// Write style for wave_model_btn_4, Part: LV_PART_MAIN, State: LV_STATE_DEFAULT.
 147:generated/setup_scr_wave_model.c **** 	lv_obj_set_style_bg_opa(ui->wave_model_btn_4, 255, LV_PART_MAIN | LV_STATE_DEFAULT);
 912              		.loc 1 147 2 view .LVU206
 913 03e6 2A46     		mov	r2, r5
 914 03e8 FF21     		movs	r1, #255
 915 03ea A06A     		ldr	r0, [r4, #40]
 916 03ec FFF7FEFF 		bl	lv_obj_set_style_bg_opa
 917              	.LVL101:
 148:generated/setup_scr_wave_model.c **** 	lv_obj_set_style_bg_color(ui->wave_model_btn_4, lv_color_hex(0x808080), LV_PART_MAIN | LV_STATE_DE
 918              		.loc 1 148 2 view .LVU207
 919              	.LBB172:
 920              	.LBI172:
 597:lvgl/src/hal/../draw/../misc/lv_color.h **** {
 921              		.loc 3 597 26 view .LVU208
 922              	.LBB173:
 600:lvgl/src/hal/../draw/../misc/lv_color.h **** #if LV_COLOR_16_SWAP == 0
 923              		.loc 3 600 5 view .LVU209
 616:lvgl/src/hal/../draw/../misc/lv_color.h **** #else
 924              		.loc 3 616 5 view .LVU210
 925              		.loc 3 621 5 view .LVU211
 926              		.loc 3 621 5 is_stmt 0 view .LVU212
ARM GAS  C:\usertemp\cchE30wT.s 			page 35


 927              	.LBE173:
 928              	.LBE172:
 929              		.loc 1 148 2 discriminator 1 view .LVU213
 930 03f0 2A46     		mov	r2, r5
 931 03f2 3946     		mov	r1, r7	@ movhi
 932 03f4 A06A     		ldr	r0, [r4, #40]
 933 03f6 FFF7FEFF 		bl	lv_obj_set_style_bg_color
 934              	.LVL102:
 149:generated/setup_scr_wave_model.c **** 	lv_obj_set_style_border_width(ui->wave_model_btn_4, 0, LV_PART_MAIN | LV_STATE_DEFAULT);
 935              		.loc 1 149 2 is_stmt 1 view .LVU214
 936 03fa 2A46     		mov	r2, r5
 937 03fc 2946     		mov	r1, r5
 938 03fe A06A     		ldr	r0, [r4, #40]
 939 0400 FFF7FEFF 		bl	lv_obj_set_style_border_width
 940              	.LVL103:
 150:generated/setup_scr_wave_model.c **** 	lv_obj_set_style_radius(ui->wave_model_btn_4, 5, LV_PART_MAIN | LV_STATE_DEFAULT);
 941              		.loc 1 150 2 view .LVU215
 942 0404 2A46     		mov	r2, r5
 943 0406 0521     		movs	r1, #5
 944 0408 A06A     		ldr	r0, [r4, #40]
 945 040a FFF7FEFF 		bl	lv_obj_set_style_radius
 946              	.LVL104:
 151:generated/setup_scr_wave_model.c **** 	lv_obj_set_style_shadow_width(ui->wave_model_btn_4, 0, LV_PART_MAIN | LV_STATE_DEFAULT);
 947              		.loc 1 151 2 view .LVU216
 948 040e 2A46     		mov	r2, r5
 949 0410 2946     		mov	r1, r5
 950 0412 A06A     		ldr	r0, [r4, #40]
 951 0414 FFF7FEFF 		bl	lv_obj_set_style_shadow_width
 952              	.LVL105:
 152:generated/setup_scr_wave_model.c **** 	lv_obj_set_style_text_color(ui->wave_model_btn_4, lv_color_hex(0x000000), LV_PART_MAIN | LV_STATE_
 953              		.loc 1 152 2 view .LVU217
 954              	.LBB174:
 955              	.LBI174:
 597:lvgl/src/hal/../draw/../misc/lv_color.h **** {
 956              		.loc 3 597 26 view .LVU218
 957              	.LBB175:
 600:lvgl/src/hal/../draw/../misc/lv_color.h **** #if LV_COLOR_16_SWAP == 0
 958              		.loc 3 600 5 view .LVU219
 616:lvgl/src/hal/../draw/../misc/lv_color.h **** #else
 959              		.loc 3 616 5 view .LVU220
 960              		.loc 3 621 5 view .LVU221
 961              		.loc 3 621 5 is_stmt 0 view .LVU222
 962              	.LBE175:
 963              	.LBE174:
 964              		.loc 1 152 2 discriminator 1 view .LVU223
 965 0418 2A46     		mov	r2, r5
 966 041a 2946     		mov	r1, r5	@ movhi
 967 041c A06A     		ldr	r0, [r4, #40]
 968 041e FFF7FEFF 		bl	lv_obj_set_style_text_color
 969              	.LVL106:
 153:generated/setup_scr_wave_model.c **** 	lv_obj_set_style_text_font(ui->wave_model_btn_4, &lv_font_arial_16, LV_PART_MAIN | LV_STATE_DEFAUL
 970              		.loc 1 153 2 is_stmt 1 view .LVU224
 971 0422 2A46     		mov	r2, r5
 972 0424 3146     		mov	r1, r6
 973 0426 A06A     		ldr	r0, [r4, #40]
 974 0428 FFF7FEFF 		bl	lv_obj_set_style_text_font
 975              	.LVL107:
ARM GAS  C:\usertemp\cchE30wT.s 			page 36


 154:generated/setup_scr_wave_model.c **** 	lv_obj_set_style_text_align(ui->wave_model_btn_4, LV_TEXT_ALIGN_CENTER, LV_PART_MAIN | LV_STATE_DE
 976              		.loc 1 154 2 view .LVU225
 977 042c 2A46     		mov	r2, r5
 978 042e 0221     		movs	r1, #2
 979 0430 A06A     		ldr	r0, [r4, #40]
 980 0432 FFF7FEFF 		bl	lv_obj_set_style_text_align
 981              	.LVL108:
 155:generated/setup_scr_wave_model.c **** 
 156:generated/setup_scr_wave_model.c **** 	// Write codes wave_model_btn_5
 157:generated/setup_scr_wave_model.c **** 	ui->wave_model_btn_5 = lv_btn_create(ui->wave_model);
 982              		.loc 1 157 2 view .LVU226
 983              		.loc 1 157 25 is_stmt 0 view .LVU227
 984 0436 2068     		ldr	r0, [r4]
 985 0438 FFF7FEFF 		bl	lv_btn_create
 986              	.LVL109:
 987              		.loc 1 157 23 discriminator 1 view .LVU228
 988 043c 2063     		str	r0, [r4, #48]
 158:generated/setup_scr_wave_model.c **** 	ui->wave_model_btn_5_label = lv_label_create(ui->wave_model_btn_5);
 989              		.loc 1 158 2 is_stmt 1 view .LVU229
 990              		.loc 1 158 31 is_stmt 0 view .LVU230
 991 043e FFF7FEFF 		bl	lv_label_create
 992              	.LVL110:
 993              		.loc 1 158 29 discriminator 1 view .LVU231
 994 0442 6063     		str	r0, [r4, #52]
 159:generated/setup_scr_wave_model.c **** 	lv_label_set_text(ui->wave_model_btn_5_label, "N");
 995              		.loc 1 159 2 is_stmt 1 view .LVU232
 996 0444 AB49     		ldr	r1, .L10+4
 997 0446 FFF7FEFF 		bl	lv_label_set_text
 998              	.LVL111:
 160:generated/setup_scr_wave_model.c **** 	lv_label_set_long_mode(ui->wave_model_btn_5_label, LV_LABEL_LONG_WRAP);
 999              		.loc 1 160 2 view .LVU233
 1000 044a 2946     		mov	r1, r5
 1001 044c 606B     		ldr	r0, [r4, #52]
 1002 044e FFF7FEFF 		bl	lv_label_set_long_mode
 1003              	.LVL112:
 161:generated/setup_scr_wave_model.c **** 	lv_obj_align(ui->wave_model_btn_5_label, LV_ALIGN_CENTER, 0, 0);
 1004              		.loc 1 161 2 view .LVU234
 1005 0452 2B46     		mov	r3, r5
 1006 0454 2A46     		mov	r2, r5
 1007 0456 0921     		movs	r1, #9
 1008 0458 606B     		ldr	r0, [r4, #52]
 1009 045a FFF7FEFF 		bl	lv_obj_align
 1010              	.LVL113:
 162:generated/setup_scr_wave_model.c **** 	lv_obj_set_style_pad_all(ui->wave_model_btn_5, 0, LV_STATE_DEFAULT);
 1011              		.loc 1 162 2 view .LVU235
 1012 045e 2A46     		mov	r2, r5
 1013 0460 2946     		mov	r1, r5
 1014 0462 206B     		ldr	r0, [r4, #48]
 1015 0464 FFF7FEFF 		bl	lv_obj_set_style_pad_all
 1016              	.LVL114:
 163:generated/setup_scr_wave_model.c **** 	lv_obj_set_pos(ui->wave_model_btn_5, 586, 330);
 1017              		.loc 1 163 2 view .LVU236
 1018 0468 4FF4A572 		mov	r2, #330
 1019 046c 40F24A21 		movw	r1, #586
 1020 0470 206B     		ldr	r0, [r4, #48]
 1021 0472 FFF7FEFF 		bl	lv_obj_set_pos
 1022              	.LVL115:
ARM GAS  C:\usertemp\cchE30wT.s 			page 37


 164:generated/setup_scr_wave_model.c **** 	lv_obj_set_size(ui->wave_model_btn_5, 40, 30);
 1023              		.loc 1 164 2 view .LVU237
 1024 0476 1E22     		movs	r2, #30
 1025 0478 2821     		movs	r1, #40
 1026 047a 206B     		ldr	r0, [r4, #48]
 1027 047c FFF7FEFF 		bl	lv_obj_set_size
 1028              	.LVL116:
 165:generated/setup_scr_wave_model.c **** 
 166:generated/setup_scr_wave_model.c **** 	// Write style for wave_model_btn_5, Part: LV_PART_MAIN, State: LV_STATE_DEFAULT.
 167:generated/setup_scr_wave_model.c **** 	lv_obj_set_style_bg_opa(ui->wave_model_btn_5, 255, LV_PART_MAIN | LV_STATE_DEFAULT);
 1029              		.loc 1 167 2 view .LVU238
 1030 0480 2A46     		mov	r2, r5
 1031 0482 FF21     		movs	r1, #255
 1032 0484 206B     		ldr	r0, [r4, #48]
 1033 0486 FFF7FEFF 		bl	lv_obj_set_style_bg_opa
 1034              	.LVL117:
 168:generated/setup_scr_wave_model.c **** 	lv_obj_set_style_bg_color(ui->wave_model_btn_5, lv_color_hex(0x808080), LV_PART_MAIN | LV_STATE_DE
 1035              		.loc 1 168 2 view .LVU239
 1036              	.LBB176:
 1037              	.LBI176:
 597:lvgl/src/hal/../draw/../misc/lv_color.h **** {
 1038              		.loc 3 597 26 view .LVU240
 1039              	.LBB177:
 600:lvgl/src/hal/../draw/../misc/lv_color.h **** #if LV_COLOR_16_SWAP == 0
 1040              		.loc 3 600 5 view .LVU241
 616:lvgl/src/hal/../draw/../misc/lv_color.h **** #else
 1041              		.loc 3 616 5 view .LVU242
 1042              		.loc 3 621 5 view .LVU243
 1043              		.loc 3 621 5 is_stmt 0 view .LVU244
 1044              	.LBE177:
 1045              	.LBE176:
 1046              		.loc 1 168 2 discriminator 1 view .LVU245
 1047 048a 2A46     		mov	r2, r5
 1048 048c 3946     		mov	r1, r7	@ movhi
 1049 048e 206B     		ldr	r0, [r4, #48]
 1050 0490 FFF7FEFF 		bl	lv_obj_set_style_bg_color
 1051              	.LVL118:
 169:generated/setup_scr_wave_model.c **** 	lv_obj_set_style_border_width(ui->wave_model_btn_5, 0, LV_PART_MAIN | LV_STATE_DEFAULT);
 1052              		.loc 1 169 2 is_stmt 1 view .LVU246
 1053 0494 2A46     		mov	r2, r5
 1054 0496 2946     		mov	r1, r5
 1055 0498 206B     		ldr	r0, [r4, #48]
 1056 049a FFF7FEFF 		bl	lv_obj_set_style_border_width
 1057              	.LVL119:
 170:generated/setup_scr_wave_model.c **** 	lv_obj_set_style_radius(ui->wave_model_btn_5, 5, LV_PART_MAIN | LV_STATE_DEFAULT);
 1058              		.loc 1 170 2 view .LVU247
 1059 049e 2A46     		mov	r2, r5
 1060 04a0 0521     		movs	r1, #5
 1061 04a2 206B     		ldr	r0, [r4, #48]
 1062 04a4 FFF7FEFF 		bl	lv_obj_set_style_radius
 1063              	.LVL120:
 171:generated/setup_scr_wave_model.c **** 	lv_obj_set_style_shadow_width(ui->wave_model_btn_5, 0, LV_PART_MAIN | LV_STATE_DEFAULT);
 1064              		.loc 1 171 2 view .LVU248
 1065 04a8 2A46     		mov	r2, r5
 1066 04aa 2946     		mov	r1, r5
 1067 04ac 206B     		ldr	r0, [r4, #48]
 1068 04ae FFF7FEFF 		bl	lv_obj_set_style_shadow_width
ARM GAS  C:\usertemp\cchE30wT.s 			page 38


 1069              	.LVL121:
 172:generated/setup_scr_wave_model.c **** 	lv_obj_set_style_text_color(ui->wave_model_btn_5, lv_color_hex(0x000000), LV_PART_MAIN | LV_STATE_
 1070              		.loc 1 172 2 view .LVU249
 1071              	.LBB178:
 1072              	.LBI178:
 597:lvgl/src/hal/../draw/../misc/lv_color.h **** {
 1073              		.loc 3 597 26 view .LVU250
 1074              	.LBB179:
 600:lvgl/src/hal/../draw/../misc/lv_color.h **** #if LV_COLOR_16_SWAP == 0
 1075              		.loc 3 600 5 view .LVU251
 616:lvgl/src/hal/../draw/../misc/lv_color.h **** #else
 1076              		.loc 3 616 5 view .LVU252
 1077              		.loc 3 621 5 view .LVU253
 1078              		.loc 3 621 5 is_stmt 0 view .LVU254
 1079              	.LBE179:
 1080              	.LBE178:
 1081              		.loc 1 172 2 discriminator 1 view .LVU255
 1082 04b2 2A46     		mov	r2, r5
 1083 04b4 2946     		mov	r1, r5	@ movhi
 1084 04b6 206B     		ldr	r0, [r4, #48]
 1085 04b8 FFF7FEFF 		bl	lv_obj_set_style_text_color
 1086              	.LVL122:
 173:generated/setup_scr_wave_model.c **** 	lv_obj_set_style_text_font(ui->wave_model_btn_5, &lv_font_arial_16, LV_PART_MAIN | LV_STATE_DEFAUL
 1087              		.loc 1 173 2 is_stmt 1 view .LVU256
 1088 04bc 2A46     		mov	r2, r5
 1089 04be 3146     		mov	r1, r6
 1090 04c0 206B     		ldr	r0, [r4, #48]
 1091 04c2 FFF7FEFF 		bl	lv_obj_set_style_text_font
 1092              	.LVL123:
 174:generated/setup_scr_wave_model.c **** 	lv_obj_set_style_text_align(ui->wave_model_btn_5, LV_TEXT_ALIGN_CENTER, LV_PART_MAIN | LV_STATE_DE
 1093              		.loc 1 174 2 view .LVU257
 1094 04c6 2A46     		mov	r2, r5
 1095 04c8 0221     		movs	r1, #2
 1096 04ca 206B     		ldr	r0, [r4, #48]
 1097 04cc FFF7FEFF 		bl	lv_obj_set_style_text_align
 1098              	.LVL124:
 175:generated/setup_scr_wave_model.c **** 
 176:generated/setup_scr_wave_model.c **** 	// Write codes wave_model_power
 177:generated/setup_scr_wave_model.c **** 	ui->wave_model_power = lv_label_create(ui->wave_model);
 1099              		.loc 1 177 2 view .LVU258
 1100              		.loc 1 177 25 is_stmt 0 view .LVU259
 1101 04d0 2068     		ldr	r0, [r4]
 1102 04d2 FFF7FEFF 		bl	lv_label_create
 1103              	.LVL125:
 1104              		.loc 1 177 23 discriminator 1 view .LVU260
 1105 04d6 2064     		str	r0, [r4, #64]
 178:generated/setup_scr_wave_model.c **** 	lv_label_set_text(ui->wave_model_power, "power");
 1106              		.loc 1 178 2 is_stmt 1 view .LVU261
 1107 04d8 8749     		ldr	r1, .L10+8
 1108 04da FFF7FEFF 		bl	lv_label_set_text
 1109              	.LVL126:
 179:generated/setup_scr_wave_model.c **** 	lv_label_set_long_mode(ui->wave_model_power, LV_LABEL_LONG_WRAP);
 1110              		.loc 1 179 2 view .LVU262
 1111 04de 2946     		mov	r1, r5
 1112 04e0 206C     		ldr	r0, [r4, #64]
 1113 04e2 FFF7FEFF 		bl	lv_label_set_long_mode
 1114              	.LVL127:
ARM GAS  C:\usertemp\cchE30wT.s 			page 39


 180:generated/setup_scr_wave_model.c **** 	lv_obj_set_pos(ui->wave_model_power, 530, 4);
 1115              		.loc 1 180 2 view .LVU263
 1116 04e6 0422     		movs	r2, #4
 1117 04e8 40F21221 		movw	r1, #530
 1118 04ec 206C     		ldr	r0, [r4, #64]
 1119 04ee FFF7FEFF 		bl	lv_obj_set_pos
 1120              	.LVL128:
 181:generated/setup_scr_wave_model.c **** 	lv_obj_set_size(ui->wave_model_power, 90, 20);
 1121              		.loc 1 181 2 view .LVU264
 1122 04f2 1422     		movs	r2, #20
 1123 04f4 5A21     		movs	r1, #90
 1124 04f6 206C     		ldr	r0, [r4, #64]
 1125 04f8 FFF7FEFF 		bl	lv_obj_set_size
 1126              	.LVL129:
 182:generated/setup_scr_wave_model.c **** 
 183:generated/setup_scr_wave_model.c **** 	// Write style for wave_model_power, Part: LV_PART_MAIN, State: LV_STATE_DEFAULT.
 184:generated/setup_scr_wave_model.c **** 	lv_obj_set_style_border_width(ui->wave_model_power, 0, LV_PART_MAIN | LV_STATE_DEFAULT);
 1127              		.loc 1 184 2 view .LVU265
 1128 04fc 2A46     		mov	r2, r5
 1129 04fe 2946     		mov	r1, r5
 1130 0500 206C     		ldr	r0, [r4, #64]
 1131 0502 FFF7FEFF 		bl	lv_obj_set_style_border_width
 1132              	.LVL130:
 185:generated/setup_scr_wave_model.c **** 	lv_obj_set_style_radius(ui->wave_model_power, 0, LV_PART_MAIN | LV_STATE_DEFAULT);
 1133              		.loc 1 185 2 view .LVU266
 1134 0506 2A46     		mov	r2, r5
 1135 0508 2946     		mov	r1, r5
 1136 050a 206C     		ldr	r0, [r4, #64]
 1137 050c FFF7FEFF 		bl	lv_obj_set_style_radius
 1138              	.LVL131:
 186:generated/setup_scr_wave_model.c **** 	lv_obj_set_style_text_color(ui->wave_model_power, lv_color_hex(0x000000), LV_PART_MAIN | LV_STATE_
 1139              		.loc 1 186 2 view .LVU267
 1140              	.LBB180:
 1141              	.LBI180:
 597:lvgl/src/hal/../draw/../misc/lv_color.h **** {
 1142              		.loc 3 597 26 view .LVU268
 1143              	.LBB181:
 600:lvgl/src/hal/../draw/../misc/lv_color.h **** #if LV_COLOR_16_SWAP == 0
 1144              		.loc 3 600 5 view .LVU269
 616:lvgl/src/hal/../draw/../misc/lv_color.h **** #else
 1145              		.loc 3 616 5 view .LVU270
 1146              		.loc 3 621 5 view .LVU271
 1147              		.loc 3 621 5 is_stmt 0 view .LVU272
 1148              	.LBE181:
 1149              	.LBE180:
 1150              		.loc 1 186 2 discriminator 1 view .LVU273
 1151 0510 2A46     		mov	r2, r5
 1152 0512 2946     		mov	r1, r5	@ movhi
 1153 0514 206C     		ldr	r0, [r4, #64]
 1154 0516 FFF7FEFF 		bl	lv_obj_set_style_text_color
 1155              	.LVL132:
 187:generated/setup_scr_wave_model.c **** 	lv_obj_set_style_text_font(ui->wave_model_power, &lv_font_arial_16, LV_PART_MAIN | LV_STATE_DEFAUL
 1156              		.loc 1 187 2 is_stmt 1 view .LVU274
 1157 051a 2A46     		mov	r2, r5
 1158 051c 3146     		mov	r1, r6
 1159 051e 206C     		ldr	r0, [r4, #64]
 1160 0520 FFF7FEFF 		bl	lv_obj_set_style_text_font
ARM GAS  C:\usertemp\cchE30wT.s 			page 40


 1161              	.LVL133:
 188:generated/setup_scr_wave_model.c **** 	lv_obj_set_style_text_letter_space(ui->wave_model_power, 2, LV_PART_MAIN | LV_STATE_DEFAULT);
 1162              		.loc 1 188 2 view .LVU275
 1163 0524 2A46     		mov	r2, r5
 1164 0526 0221     		movs	r1, #2
 1165 0528 206C     		ldr	r0, [r4, #64]
 1166 052a FFF7FEFF 		bl	lv_obj_set_style_text_letter_space
 1167              	.LVL134:
 189:generated/setup_scr_wave_model.c **** 	lv_obj_set_style_text_line_space(ui->wave_model_power, 0, LV_PART_MAIN | LV_STATE_DEFAULT);
 1168              		.loc 1 189 2 view .LVU276
 1169 052e 2A46     		mov	r2, r5
 1170 0530 2946     		mov	r1, r5
 1171 0532 206C     		ldr	r0, [r4, #64]
 1172 0534 FFF7FEFF 		bl	lv_obj_set_style_text_line_space
 1173              	.LVL135:
 190:generated/setup_scr_wave_model.c **** 	lv_obj_set_style_text_align(ui->wave_model_power, LV_TEXT_ALIGN_CENTER, LV_PART_MAIN | LV_STATE_DE
 1174              		.loc 1 190 2 view .LVU277
 1175 0538 2A46     		mov	r2, r5
 1176 053a 0221     		movs	r1, #2
 1177 053c 206C     		ldr	r0, [r4, #64]
 1178 053e FFF7FEFF 		bl	lv_obj_set_style_text_align
 1179              	.LVL136:
 191:generated/setup_scr_wave_model.c **** 	lv_obj_set_style_bg_opa(ui->wave_model_power, 0, LV_PART_MAIN | LV_STATE_DEFAULT);
 1180              		.loc 1 191 2 view .LVU278
 1181 0542 2A46     		mov	r2, r5
 1182 0544 2946     		mov	r1, r5
 1183 0546 206C     		ldr	r0, [r4, #64]
 1184 0548 FFF7FEFF 		bl	lv_obj_set_style_bg_opa
 1185              	.LVL137:
 192:generated/setup_scr_wave_model.c **** 	lv_obj_set_style_pad_top(ui->wave_model_power, 0, LV_PART_MAIN | LV_STATE_DEFAULT);
 1186              		.loc 1 192 2 view .LVU279
 1187 054c 2A46     		mov	r2, r5
 1188 054e 2946     		mov	r1, r5
 1189 0550 206C     		ldr	r0, [r4, #64]
 1190 0552 FFF7FEFF 		bl	lv_obj_set_style_pad_top
 1191              	.LVL138:
 193:generated/setup_scr_wave_model.c **** 	lv_obj_set_style_pad_right(ui->wave_model_power, 0, LV_PART_MAIN | LV_STATE_DEFAULT);
 1192              		.loc 1 193 2 view .LVU280
 1193 0556 2A46     		mov	r2, r5
 1194 0558 2946     		mov	r1, r5
 1195 055a 206C     		ldr	r0, [r4, #64]
 1196 055c FFF7FEFF 		bl	lv_obj_set_style_pad_right
 1197              	.LVL139:
 194:generated/setup_scr_wave_model.c **** 	lv_obj_set_style_pad_bottom(ui->wave_model_power, 0, LV_PART_MAIN | LV_STATE_DEFAULT);
 1198              		.loc 1 194 2 view .LVU281
 1199 0560 2A46     		mov	r2, r5
 1200 0562 2946     		mov	r1, r5
 1201 0564 206C     		ldr	r0, [r4, #64]
 1202 0566 FFF7FEFF 		bl	lv_obj_set_style_pad_bottom
 1203              	.LVL140:
 195:generated/setup_scr_wave_model.c **** 	lv_obj_set_style_pad_left(ui->wave_model_power, 0, LV_PART_MAIN | LV_STATE_DEFAULT);
 1204              		.loc 1 195 2 view .LVU282
 1205 056a 2A46     		mov	r2, r5
 1206 056c 2946     		mov	r1, r5
 1207 056e 206C     		ldr	r0, [r4, #64]
 1208 0570 FFF7FEFF 		bl	lv_obj_set_style_pad_left
 1209              	.LVL141:
ARM GAS  C:\usertemp\cchE30wT.s 			page 41


 196:generated/setup_scr_wave_model.c **** 	lv_obj_set_style_shadow_width(ui->wave_model_power, 0, LV_PART_MAIN | LV_STATE_DEFAULT);
 1210              		.loc 1 196 2 view .LVU283
 1211 0574 2A46     		mov	r2, r5
 1212 0576 2946     		mov	r1, r5
 1213 0578 206C     		ldr	r0, [r4, #64]
 1214 057a FFF7FEFF 		bl	lv_obj_set_style_shadow_width
 1215              	.LVL142:
 197:generated/setup_scr_wave_model.c **** 
 198:generated/setup_scr_wave_model.c **** 	// Write codes wave_model_freq
 199:generated/setup_scr_wave_model.c **** 	ui->wave_model_freq = lv_label_create(ui->wave_model);
 1216              		.loc 1 199 2 view .LVU284
 1217              		.loc 1 199 24 is_stmt 0 view .LVU285
 1218 057e 2068     		ldr	r0, [r4]
 1219 0580 FFF7FEFF 		bl	lv_label_create
 1220              	.LVL143:
 1221              		.loc 1 199 22 discriminator 1 view .LVU286
 1222 0584 6064     		str	r0, [r4, #68]
 200:generated/setup_scr_wave_model.c **** 	lv_label_set_text(ui->wave_model_freq, "Label");
 1223              		.loc 1 200 2 is_stmt 1 view .LVU287
 1224 0586 5D49     		ldr	r1, .L10+12
 1225 0588 FFF7FEFF 		bl	lv_label_set_text
 1226              	.LVL144:
 201:generated/setup_scr_wave_model.c **** 	lv_label_set_long_mode(ui->wave_model_freq, LV_LABEL_LONG_WRAP);
 1227              		.loc 1 201 2 view .LVU288
 1228 058c 2946     		mov	r1, r5
 1229 058e 606C     		ldr	r0, [r4, #68]
 1230 0590 FFF7FEFF 		bl	lv_label_set_long_mode
 1231              	.LVL145:
 202:generated/setup_scr_wave_model.c **** 	lv_obj_set_pos(ui->wave_model_freq, 250, 4);
 1232              		.loc 1 202 2 view .LVU289
 1233 0594 0422     		movs	r2, #4
 1234 0596 FA21     		movs	r1, #250
 1235 0598 606C     		ldr	r0, [r4, #68]
 1236 059a FFF7FEFF 		bl	lv_obj_set_pos
 1237              	.LVL146:
 203:generated/setup_scr_wave_model.c **** 	lv_obj_set_size(ui->wave_model_freq, 98, 20);
 1238              		.loc 1 203 2 view .LVU290
 1239 059e 1422     		movs	r2, #20
 1240 05a0 6221     		movs	r1, #98
 1241 05a2 606C     		ldr	r0, [r4, #68]
 1242 05a4 FFF7FEFF 		bl	lv_obj_set_size
 1243              	.LVL147:
 204:generated/setup_scr_wave_model.c **** 
 205:generated/setup_scr_wave_model.c **** 	// Write style for wave_model_freq, Part: LV_PART_MAIN, State: LV_STATE_DEFAULT.
 206:generated/setup_scr_wave_model.c **** 	lv_obj_set_style_border_width(ui->wave_model_freq, 0, LV_PART_MAIN | LV_STATE_DEFAULT);
 1244              		.loc 1 206 2 view .LVU291
 1245 05a8 2A46     		mov	r2, r5
 1246 05aa 2946     		mov	r1, r5
 1247 05ac 606C     		ldr	r0, [r4, #68]
 1248 05ae FFF7FEFF 		bl	lv_obj_set_style_border_width
 1249              	.LVL148:
 207:generated/setup_scr_wave_model.c **** 	lv_obj_set_style_radius(ui->wave_model_freq, 0, LV_PART_MAIN | LV_STATE_DEFAULT);
 1250              		.loc 1 207 2 view .LVU292
 1251 05b2 2A46     		mov	r2, r5
 1252 05b4 2946     		mov	r1, r5
 1253 05b6 606C     		ldr	r0, [r4, #68]
 1254 05b8 FFF7FEFF 		bl	lv_obj_set_style_radius
ARM GAS  C:\usertemp\cchE30wT.s 			page 42


 1255              	.LVL149:
 208:generated/setup_scr_wave_model.c **** 	lv_obj_set_style_text_color(ui->wave_model_freq, lv_color_hex(0x000000), LV_PART_MAIN | LV_STATE_D
 1256              		.loc 1 208 2 view .LVU293
 1257              	.LBB182:
 1258              	.LBI182:
 597:lvgl/src/hal/../draw/../misc/lv_color.h **** {
 1259              		.loc 3 597 26 view .LVU294
 1260              	.LBB183:
 600:lvgl/src/hal/../draw/../misc/lv_color.h **** #if LV_COLOR_16_SWAP == 0
 1261              		.loc 3 600 5 view .LVU295
 616:lvgl/src/hal/../draw/../misc/lv_color.h **** #else
 1262              		.loc 3 616 5 view .LVU296
 1263              		.loc 3 621 5 view .LVU297
 1264              		.loc 3 621 5 is_stmt 0 view .LVU298
 1265              	.LBE183:
 1266              	.LBE182:
 1267              		.loc 1 208 2 discriminator 1 view .LVU299
 1268 05bc 2A46     		mov	r2, r5
 1269 05be 2946     		mov	r1, r5	@ movhi
 1270 05c0 606C     		ldr	r0, [r4, #68]
 1271 05c2 FFF7FEFF 		bl	lv_obj_set_style_text_color
 1272              	.LVL150:
 209:generated/setup_scr_wave_model.c **** 	lv_obj_set_style_text_font(ui->wave_model_freq, &lv_font_arial_16, LV_PART_MAIN | LV_STATE_DEFAULT
 1273              		.loc 1 209 2 is_stmt 1 view .LVU300
 1274 05c6 2A46     		mov	r2, r5
 1275 05c8 3146     		mov	r1, r6
 1276 05ca 606C     		ldr	r0, [r4, #68]
 1277 05cc FFF7FEFF 		bl	lv_obj_set_style_text_font
 1278              	.LVL151:
 210:generated/setup_scr_wave_model.c **** 	lv_obj_set_style_text_letter_space(ui->wave_model_freq, 2, LV_PART_MAIN | LV_STATE_DEFAULT);
 1279              		.loc 1 210 2 view .LVU301
 1280 05d0 2A46     		mov	r2, r5
 1281 05d2 0221     		movs	r1, #2
 1282 05d4 606C     		ldr	r0, [r4, #68]
 1283 05d6 FFF7FEFF 		bl	lv_obj_set_style_text_letter_space
 1284              	.LVL152:
 211:generated/setup_scr_wave_model.c **** 	lv_obj_set_style_text_line_space(ui->wave_model_freq, 0, LV_PART_MAIN | LV_STATE_DEFAULT);
 1285              		.loc 1 211 2 view .LVU302
 1286 05da 2A46     		mov	r2, r5
 1287 05dc 2946     		mov	r1, r5
 1288 05de 606C     		ldr	r0, [r4, #68]
 1289 05e0 FFF7FEFF 		bl	lv_obj_set_style_text_line_space
 1290              	.LVL153:
 212:generated/setup_scr_wave_model.c **** 	lv_obj_set_style_text_align(ui->wave_model_freq, LV_TEXT_ALIGN_CENTER, LV_PART_MAIN | LV_STATE_DEF
 1291              		.loc 1 212 2 view .LVU303
 1292 05e4 2A46     		mov	r2, r5
 1293 05e6 0221     		movs	r1, #2
 1294 05e8 606C     		ldr	r0, [r4, #68]
 1295 05ea FFF7FEFF 		bl	lv_obj_set_style_text_align
 1296              	.LVL154:
 213:generated/setup_scr_wave_model.c **** 	lv_obj_set_style_bg_opa(ui->wave_model_freq, 0, LV_PART_MAIN | LV_STATE_DEFAULT);
 1297              		.loc 1 213 2 view .LVU304
 1298 05ee 2A46     		mov	r2, r5
 1299 05f0 2946     		mov	r1, r5
 1300 05f2 606C     		ldr	r0, [r4, #68]
 1301 05f4 FFF7FEFF 		bl	lv_obj_set_style_bg_opa
 1302              	.LVL155:
ARM GAS  C:\usertemp\cchE30wT.s 			page 43


 214:generated/setup_scr_wave_model.c **** 	lv_obj_set_style_pad_top(ui->wave_model_freq, 0, LV_PART_MAIN | LV_STATE_DEFAULT);
 1303              		.loc 1 214 2 view .LVU305
 1304 05f8 2A46     		mov	r2, r5
 1305 05fa 2946     		mov	r1, r5
 1306 05fc 606C     		ldr	r0, [r4, #68]
 1307 05fe FFF7FEFF 		bl	lv_obj_set_style_pad_top
 1308              	.LVL156:
 215:generated/setup_scr_wave_model.c **** 	lv_obj_set_style_pad_right(ui->wave_model_freq, 0, LV_PART_MAIN | LV_STATE_DEFAULT);
 1309              		.loc 1 215 2 view .LVU306
 1310 0602 2A46     		mov	r2, r5
 1311 0604 2946     		mov	r1, r5
 1312 0606 606C     		ldr	r0, [r4, #68]
 1313 0608 FFF7FEFF 		bl	lv_obj_set_style_pad_right
 1314              	.LVL157:
 216:generated/setup_scr_wave_model.c **** 	lv_obj_set_style_pad_bottom(ui->wave_model_freq, 0, LV_PART_MAIN | LV_STATE_DEFAULT);
 1315              		.loc 1 216 2 view .LVU307
 1316 060c 2A46     		mov	r2, r5
 1317 060e 2946     		mov	r1, r5
 1318 0610 606C     		ldr	r0, [r4, #68]
 1319 0612 FFF7FEFF 		bl	lv_obj_set_style_pad_bottom
 1320              	.LVL158:
 217:generated/setup_scr_wave_model.c **** 	lv_obj_set_style_pad_left(ui->wave_model_freq, 0, LV_PART_MAIN | LV_STATE_DEFAULT);
 1321              		.loc 1 217 2 view .LVU308
 1322 0616 2A46     		mov	r2, r5
 1323 0618 2946     		mov	r1, r5
 1324 061a 606C     		ldr	r0, [r4, #68]
 1325 061c FFF7FEFF 		bl	lv_obj_set_style_pad_left
 1326              	.LVL159:
 218:generated/setup_scr_wave_model.c **** 	lv_obj_set_style_shadow_width(ui->wave_model_freq, 0, LV_PART_MAIN | LV_STATE_DEFAULT);
 1327              		.loc 1 218 2 view .LVU309
 1328 0620 2A46     		mov	r2, r5
 1329 0622 2946     		mov	r1, r5
 1330 0624 606C     		ldr	r0, [r4, #68]
 1331 0626 FFF7FEFF 		bl	lv_obj_set_style_shadow_width
 1332              	.LVL160:
 219:generated/setup_scr_wave_model.c **** 
 220:generated/setup_scr_wave_model.c **** 	// Write codes wave_model_yellow
 221:generated/setup_scr_wave_model.c **** 	ui->wave_model_yellow = lv_arc_create(ui->wave_model);
 1333              		.loc 1 221 2 view .LVU310
 1334              		.loc 1 221 26 is_stmt 0 view .LVU311
 1335 062a 2068     		ldr	r0, [r4]
 1336 062c FFF7FEFF 		bl	lv_arc_create
 1337              	.LVL161:
 1338              		.loc 1 221 24 discriminator 1 view .LVU312
 1339 0630 A064     		str	r0, [r4, #72]
 222:generated/setup_scr_wave_model.c **** 	lv_arc_set_mode(ui->wave_model_yellow, LV_ARC_MODE_REVERSE);
 1340              		.loc 1 222 2 is_stmt 1 view .LVU313
 1341 0632 0221     		movs	r1, #2
 1342 0634 FFF7FEFF 		bl	lv_arc_set_mode
 1343              	.LVL162:
 223:generated/setup_scr_wave_model.c **** 	lv_arc_set_range(ui->wave_model_yellow, 0, 1);
 1344              		.loc 1 223 2 view .LVU314
 1345 0638 0122     		movs	r2, #1
 1346 063a 2946     		mov	r1, r5
 1347 063c A06C     		ldr	r0, [r4, #72]
 1348 063e FFF7FEFF 		bl	lv_arc_set_range
 1349              	.LVL163:
ARM GAS  C:\usertemp\cchE30wT.s 			page 44


 224:generated/setup_scr_wave_model.c **** 	lv_arc_set_bg_angles(ui->wave_model_yellow, 0, 0);
 1350              		.loc 1 224 2 view .LVU315
 1351 0642 2A46     		mov	r2, r5
 1352 0644 2946     		mov	r1, r5
 1353 0646 A06C     		ldr	r0, [r4, #72]
 1354 0648 FFF7FEFF 		bl	lv_arc_set_bg_angles
 1355              	.LVL164:
 225:generated/setup_scr_wave_model.c **** 	lv_arc_set_angles(ui->wave_model_yellow, 0, 360);
 1356              		.loc 1 225 2 view .LVU316
 1357 064c 4FF4B472 		mov	r2, #360
 1358 0650 2946     		mov	r1, r5
 1359 0652 A06C     		ldr	r0, [r4, #72]
 1360 0654 FFF7FEFF 		bl	lv_arc_set_angles
 1361              	.LVL165:
 226:generated/setup_scr_wave_model.c **** 	lv_arc_set_rotation(ui->wave_model_yellow, 0);
 1362              		.loc 1 226 2 view .LVU317
 1363 0658 2946     		mov	r1, r5
 1364 065a A06C     		ldr	r0, [r4, #72]
 1365 065c FFF7FEFF 		bl	lv_arc_set_rotation
 1366              	.LVL166:
 227:generated/setup_scr_wave_model.c **** 	lv_obj_set_style_arc_rounded(ui->wave_model_yellow, 0, LV_PART_INDICATOR | LV_STATE_DEFAULT);
 1367              		.loc 1 227 2 view .LVU318
 1368 0660 4FF40032 		mov	r2, #131072
 1369 0664 2946     		mov	r1, r5
 1370 0666 A06C     		ldr	r0, [r4, #72]
 1371 0668 FFF7FEFF 		bl	lv_obj_set_style_arc_rounded
 1372              	.LVL167:
 228:generated/setup_scr_wave_model.c **** 	lv_obj_set_style_arc_rounded(ui->wave_model_yellow, 0, LV_STATE_DEFAULT);
 1373              		.loc 1 228 2 view .LVU319
 1374 066c 2A46     		mov	r2, r5
 1375 066e 2946     		mov	r1, r5
 1376 0670 A06C     		ldr	r0, [r4, #72]
 1377 0672 FFF7FEFF 		bl	lv_obj_set_style_arc_rounded
 1378              	.LVL168:
 229:generated/setup_scr_wave_model.c **** 	lv_obj_set_pos(ui->wave_model_yellow, 1, 25);
 1379              		.loc 1 229 2 view .LVU320
 1380 0676 1922     		movs	r2, #25
 1381 0678 0121     		movs	r1, #1
 1382 067a A06C     		ldr	r0, [r4, #72]
 1383 067c FFF7FEFF 		bl	lv_obj_set_pos
 1384              	.LVL169:
 230:generated/setup_scr_wave_model.c **** 	lv_obj_set_size(ui->wave_model_yellow, 38, 38);
 1385              		.loc 1 230 2 view .LVU321
 1386 0680 2622     		movs	r2, #38
 1387 0682 1146     		mov	r1, r2
 1388 0684 A06C     		ldr	r0, [r4, #72]
 1389 0686 FFF7FEFF 		bl	lv_obj_set_size
 1390              	.LVL170:
 231:generated/setup_scr_wave_model.c **** 
 232:generated/setup_scr_wave_model.c **** 	// Write style for wave_model_yellow, Part: LV_PART_MAIN, State: LV_STATE_DEFAULT.
 233:generated/setup_scr_wave_model.c **** 	lv_obj_set_style_bg_opa(ui->wave_model_yellow, 0, LV_PART_MAIN | LV_STATE_DEFAULT);
 1391              		.loc 1 233 2 view .LVU322
 1392 068a 2A46     		mov	r2, r5
 1393 068c 2946     		mov	r1, r5
 1394 068e A06C     		ldr	r0, [r4, #72]
 1395 0690 FFF7FEFF 		bl	lv_obj_set_style_bg_opa
 1396              	.LVL171:
ARM GAS  C:\usertemp\cchE30wT.s 			page 45


 234:generated/setup_scr_wave_model.c **** 	lv_obj_set_style_border_width(ui->wave_model_yellow, 0, LV_PART_MAIN | LV_STATE_DEFAULT);
 1397              		.loc 1 234 2 view .LVU323
 1398 0694 2A46     		mov	r2, r5
 1399 0696 2946     		mov	r1, r5
 1400 0698 A06C     		ldr	r0, [r4, #72]
 1401 069a FFF7FEFF 		bl	lv_obj_set_style_border_width
 1402              	.LVL172:
 235:generated/setup_scr_wave_model.c **** 	lv_obj_set_style_arc_width(ui->wave_model_yellow, 2, LV_PART_MAIN | LV_STATE_DEFAULT);
 1403              		.loc 1 235 2 view .LVU324
 1404 069e 2A46     		mov	r2, r5
 1405 06a0 0221     		movs	r1, #2
 1406 06a2 A06C     		ldr	r0, [r4, #72]
 1407 06a4 FFF7FEFF 		bl	lv_obj_set_style_arc_width
 1408              	.LVL173:
 236:generated/setup_scr_wave_model.c **** 	lv_obj_set_style_arc_opa(ui->wave_model_yellow, 255, LV_PART_MAIN | LV_STATE_DEFAULT);
 1409              		.loc 1 236 2 view .LVU325
 1410 06a8 2A46     		mov	r2, r5
 1411 06aa FF21     		movs	r1, #255
 1412 06ac A06C     		ldr	r0, [r4, #72]
 1413 06ae FFF7FEFF 		bl	lv_obj_set_style_arc_opa
 1414              	.LVL174:
 237:generated/setup_scr_wave_model.c **** 	lv_obj_set_style_arc_color(ui->wave_model_yellow, lv_color_hex(0xffff00), LV_PART_MAIN | LV_STATE_
 1415              		.loc 1 237 2 view .LVU326
 1416              	.LBB184:
 1417              	.LBI184:
 597:lvgl/src/hal/../draw/../misc/lv_color.h **** {
 1418              		.loc 3 597 26 view .LVU327
 1419              	.LBB185:
 600:lvgl/src/hal/../draw/../misc/lv_color.h **** #if LV_COLOR_16_SWAP == 0
 1420              		.loc 3 600 5 view .LVU328
 616:lvgl/src/hal/../draw/../misc/lv_color.h **** #else
 1421              		.loc 3 616 5 view .LVU329
 616:lvgl/src/hal/../draw/../misc/lv_color.h **** #else
 1422              		.loc 3 616 12 is_stmt 0 view .LVU330
 1423 06b2 4FF6E076 		movw	r6, #65504
 1424              		.loc 3 621 5 is_stmt 1 view .LVU331
 1425              	.LVL175:
 1426              		.loc 3 621 5 is_stmt 0 view .LVU332
 1427              	.LBE185:
 1428              	.LBE184:
 1429              		.loc 1 237 2 discriminator 1 view .LVU333
 1430 06b6 2A46     		mov	r2, r5
 1431 06b8 3146     		mov	r1, r6	@ movhi
 1432 06ba A06C     		ldr	r0, [r4, #72]
 1433 06bc FFF7FEFF 		bl	lv_obj_set_style_arc_color
 1434              	.LVL176:
 238:generated/setup_scr_wave_model.c **** 	lv_obj_set_style_radius(ui->wave_model_yellow, 6, LV_PART_MAIN | LV_STATE_DEFAULT);
 1435              		.loc 1 238 2 is_stmt 1 view .LVU334
 1436 06c0 2A46     		mov	r2, r5
 1437 06c2 0621     		movs	r1, #6
 1438 06c4 A06C     		ldr	r0, [r4, #72]
 1439 06c6 FFF7FEFF 		bl	lv_obj_set_style_radius
 1440              	.LVL177:
 239:generated/setup_scr_wave_model.c **** 	lv_obj_set_style_pad_top(ui->wave_model_yellow, 0, LV_PART_MAIN | LV_STATE_DEFAULT);
 1441              		.loc 1 239 2 view .LVU335
 1442 06ca 2A46     		mov	r2, r5
 1443 06cc 2946     		mov	r1, r5
ARM GAS  C:\usertemp\cchE30wT.s 			page 46


 1444 06ce A06C     		ldr	r0, [r4, #72]
 1445 06d0 FFF7FEFF 		bl	lv_obj_set_style_pad_top
 1446              	.LVL178:
 240:generated/setup_scr_wave_model.c **** 	lv_obj_set_style_pad_bottom(ui->wave_model_yellow, 0, LV_PART_MAIN | LV_STATE_DEFAULT);
 1447              		.loc 1 240 2 view .LVU336
 1448 06d4 2A46     		mov	r2, r5
 1449 06d6 2946     		mov	r1, r5
 1450 06d8 A06C     		ldr	r0, [r4, #72]
 1451 06da FFF7FEFF 		bl	lv_obj_set_style_pad_bottom
 1452              	.LVL179:
 241:generated/setup_scr_wave_model.c **** 	lv_obj_set_style_pad_left(ui->wave_model_yellow, 0, LV_PART_MAIN | LV_STATE_DEFAULT);
 1453              		.loc 1 241 2 view .LVU337
 1454 06de 2A46     		mov	r2, r5
 1455 06e0 2946     		mov	r1, r5
 1456 06e2 A06C     		ldr	r0, [r4, #72]
 1457 06e4 FFF7FEFF 		bl	lv_obj_set_style_pad_left
 1458              	.LVL180:
 242:generated/setup_scr_wave_model.c **** 	lv_obj_set_style_pad_right(ui->wave_model_yellow, 0, LV_PART_MAIN | LV_STATE_DEFAULT);
 1459              		.loc 1 242 2 view .LVU338
 1460 06e8 2A46     		mov	r2, r5
 1461 06ea 2946     		mov	r1, r5
 1462 06ec A06C     		ldr	r0, [r4, #72]
 1463 06ee 07E0     		b	.L11
 1464              	.L12:
 1465              		.align	2
 1466              	.L10:
 1467 06f0 14000000 		.word	.LC5
 1468 06f4 18000000 		.word	.LC6
 1469 06f8 1C000000 		.word	.LC7
 1470 06fc 24000000 		.word	.LC8
 1471              	.L11:
 1472 0700 FFF7FEFF 		bl	lv_obj_set_style_pad_right
 1473              	.LVL181:
 243:generated/setup_scr_wave_model.c **** 	lv_obj_set_style_shadow_width(ui->wave_model_yellow, 0, LV_PART_MAIN | LV_STATE_DEFAULT);
 1474              		.loc 1 243 2 view .LVU339
 1475 0704 2A46     		mov	r2, r5
 1476 0706 2946     		mov	r1, r5
 1477 0708 A06C     		ldr	r0, [r4, #72]
 1478 070a FFF7FEFF 		bl	lv_obj_set_style_shadow_width
 1479              	.LVL182:
 244:generated/setup_scr_wave_model.c **** 
 245:generated/setup_scr_wave_model.c **** 	// Write style for wave_model_yellow, Part: LV_PART_INDICATOR, State: LV_STATE_DEFAULT.
 246:generated/setup_scr_wave_model.c **** 	lv_obj_set_style_arc_width(ui->wave_model_yellow, 2, LV_PART_INDICATOR | LV_STATE_DEFAULT);
 1480              		.loc 1 246 2 view .LVU340
 1481 070e 4FF40032 		mov	r2, #131072
 1482 0712 0221     		movs	r1, #2
 1483 0714 A06C     		ldr	r0, [r4, #72]
 1484 0716 FFF7FEFF 		bl	lv_obj_set_style_arc_width
 1485              	.LVL183:
 247:generated/setup_scr_wave_model.c **** 	lv_obj_set_style_arc_opa(ui->wave_model_yellow, 255, LV_PART_INDICATOR | LV_STATE_DEFAULT);
 1486              		.loc 1 247 2 view .LVU341
 1487 071a 4FF40032 		mov	r2, #131072
 1488 071e FF21     		movs	r1, #255
 1489 0720 A06C     		ldr	r0, [r4, #72]
 1490 0722 FFF7FEFF 		bl	lv_obj_set_style_arc_opa
 1491              	.LVL184:
 248:generated/setup_scr_wave_model.c **** 	lv_obj_set_style_arc_color(ui->wave_model_yellow, lv_color_hex(0xffff00), LV_PART_INDICATOR | LV_S
ARM GAS  C:\usertemp\cchE30wT.s 			page 47


 1492              		.loc 1 248 2 view .LVU342
 1493              	.LBB186:
 1494              	.LBI186:
 597:lvgl/src/hal/../draw/../misc/lv_color.h **** {
 1495              		.loc 3 597 26 view .LVU343
 1496              	.LBB187:
 600:lvgl/src/hal/../draw/../misc/lv_color.h **** #if LV_COLOR_16_SWAP == 0
 1497              		.loc 3 600 5 view .LVU344
 616:lvgl/src/hal/../draw/../misc/lv_color.h **** #else
 1498              		.loc 3 616 5 view .LVU345
 1499              		.loc 3 621 5 view .LVU346
 1500              		.loc 3 621 5 is_stmt 0 view .LVU347
 1501              	.LBE187:
 1502              	.LBE186:
 1503              		.loc 1 248 2 discriminator 1 view .LVU348
 1504 0726 4FF40032 		mov	r2, #131072
 1505 072a 3146     		mov	r1, r6	@ movhi
 1506 072c A06C     		ldr	r0, [r4, #72]
 1507 072e FFF7FEFF 		bl	lv_obj_set_style_arc_color
 1508              	.LVL185:
 249:generated/setup_scr_wave_model.c **** 
 250:generated/setup_scr_wave_model.c **** 	// Write style for wave_model_yellow, Part: LV_PART_KNOB, State: LV_STATE_DEFAULT.
 251:generated/setup_scr_wave_model.c **** 	lv_obj_set_style_bg_opa(ui->wave_model_yellow, 0, LV_PART_KNOB | LV_STATE_DEFAULT);
 1509              		.loc 1 251 2 is_stmt 1 view .LVU349
 1510 0732 4FF44032 		mov	r2, #196608
 1511 0736 2946     		mov	r1, r5
 1512 0738 A06C     		ldr	r0, [r4, #72]
 1513 073a FFF7FEFF 		bl	lv_obj_set_style_bg_opa
 1514              	.LVL186:
 252:generated/setup_scr_wave_model.c **** 	lv_obj_set_style_pad_all(ui->wave_model_yellow, 0, LV_PART_KNOB | LV_STATE_DEFAULT);
 1515              		.loc 1 252 2 view .LVU350
 1516 073e 4FF44032 		mov	r2, #196608
 1517 0742 2946     		mov	r1, r5
 1518 0744 A06C     		ldr	r0, [r4, #72]
 1519 0746 FFF7FEFF 		bl	lv_obj_set_style_pad_all
 1520              	.LVL187:
 253:generated/setup_scr_wave_model.c **** 
 254:generated/setup_scr_wave_model.c **** 	// Write codes wave_model_green
 255:generated/setup_scr_wave_model.c **** 	ui->wave_model_green = lv_arc_create(ui->wave_model);
 1521              		.loc 1 255 2 view .LVU351
 1522              		.loc 1 255 25 is_stmt 0 view .LVU352
 1523 074a 2068     		ldr	r0, [r4]
 1524 074c FFF7FEFF 		bl	lv_arc_create
 1525              	.LVL188:
 1526              		.loc 1 255 23 discriminator 1 view .LVU353
 1527 0750 E064     		str	r0, [r4, #76]
 256:generated/setup_scr_wave_model.c **** 	lv_arc_set_mode(ui->wave_model_green, LV_ARC_MODE_REVERSE);
 1528              		.loc 1 256 2 is_stmt 1 view .LVU354
 1529 0752 0221     		movs	r1, #2
 1530 0754 FFF7FEFF 		bl	lv_arc_set_mode
 1531              	.LVL189:
 257:generated/setup_scr_wave_model.c **** 	lv_arc_set_range(ui->wave_model_green, 0, 1);
 1532              		.loc 1 257 2 view .LVU355
 1533 0758 0122     		movs	r2, #1
 1534 075a 2946     		mov	r1, r5
 1535 075c E06C     		ldr	r0, [r4, #76]
 1536 075e FFF7FEFF 		bl	lv_arc_set_range
ARM GAS  C:\usertemp\cchE30wT.s 			page 48


 1537              	.LVL190:
 258:generated/setup_scr_wave_model.c **** 	lv_arc_set_bg_angles(ui->wave_model_green, 0, 0);
 1538              		.loc 1 258 2 view .LVU356
 1539 0762 2A46     		mov	r2, r5
 1540 0764 2946     		mov	r1, r5
 1541 0766 E06C     		ldr	r0, [r4, #76]
 1542 0768 FFF7FEFF 		bl	lv_arc_set_bg_angles
 1543              	.LVL191:
 259:generated/setup_scr_wave_model.c **** 	lv_arc_set_angles(ui->wave_model_green, 0, 360);
 1544              		.loc 1 259 2 view .LVU357
 1545 076c 4FF4B472 		mov	r2, #360
 1546 0770 2946     		mov	r1, r5
 1547 0772 E06C     		ldr	r0, [r4, #76]
 1548 0774 FFF7FEFF 		bl	lv_arc_set_angles
 1549              	.LVL192:
 260:generated/setup_scr_wave_model.c **** 	lv_arc_set_rotation(ui->wave_model_green, 0);
 1550              		.loc 1 260 2 view .LVU358
 1551 0778 2946     		mov	r1, r5
 1552 077a E06C     		ldr	r0, [r4, #76]
 1553 077c FFF7FEFF 		bl	lv_arc_set_rotation
 1554              	.LVL193:
 261:generated/setup_scr_wave_model.c **** 	lv_obj_set_style_arc_rounded(ui->wave_model_green, 0, LV_PART_INDICATOR | LV_STATE_DEFAULT);
 1555              		.loc 1 261 2 view .LVU359
 1556 0780 4FF40032 		mov	r2, #131072
 1557 0784 2946     		mov	r1, r5
 1558 0786 E06C     		ldr	r0, [r4, #76]
 1559 0788 FFF7FEFF 		bl	lv_obj_set_style_arc_rounded
 1560              	.LVL194:
 262:generated/setup_scr_wave_model.c **** 	lv_obj_set_style_arc_rounded(ui->wave_model_green, 0, LV_STATE_DEFAULT);
 1561              		.loc 1 262 2 view .LVU360
 1562 078c 2A46     		mov	r2, r5
 1563 078e 2946     		mov	r1, r5
 1564 0790 E06C     		ldr	r0, [r4, #76]
 1565 0792 FFF7FEFF 		bl	lv_obj_set_style_arc_rounded
 1566              	.LVL195:
 263:generated/setup_scr_wave_model.c **** 	lv_obj_set_pos(ui->wave_model_green, 167, 25);
 1567              		.loc 1 263 2 view .LVU361
 1568 0796 1922     		movs	r2, #25
 1569 0798 A721     		movs	r1, #167
 1570 079a E06C     		ldr	r0, [r4, #76]
 1571 079c FFF7FEFF 		bl	lv_obj_set_pos
 1572              	.LVL196:
 264:generated/setup_scr_wave_model.c **** 	lv_obj_set_size(ui->wave_model_green, 38, 38);
 1573              		.loc 1 264 2 view .LVU362
 1574 07a0 2622     		movs	r2, #38
 1575 07a2 1146     		mov	r1, r2
 1576 07a4 E06C     		ldr	r0, [r4, #76]
 1577 07a6 FFF7FEFF 		bl	lv_obj_set_size
 1578              	.LVL197:
 265:generated/setup_scr_wave_model.c **** 
 266:generated/setup_scr_wave_model.c **** 	// Write style for wave_model_green, Part: LV_PART_MAIN, State: LV_STATE_DEFAULT.
 267:generated/setup_scr_wave_model.c **** 	lv_obj_set_style_bg_opa(ui->wave_model_green, 0, LV_PART_MAIN | LV_STATE_DEFAULT);
 1579              		.loc 1 267 2 view .LVU363
 1580 07aa 2A46     		mov	r2, r5
 1581 07ac 2946     		mov	r1, r5
 1582 07ae E06C     		ldr	r0, [r4, #76]
 1583 07b0 FFF7FEFF 		bl	lv_obj_set_style_bg_opa
ARM GAS  C:\usertemp\cchE30wT.s 			page 49


 1584              	.LVL198:
 268:generated/setup_scr_wave_model.c **** 	lv_obj_set_style_border_width(ui->wave_model_green, 0, LV_PART_MAIN | LV_STATE_DEFAULT);
 1585              		.loc 1 268 2 view .LVU364
 1586 07b4 2A46     		mov	r2, r5
 1587 07b6 2946     		mov	r1, r5
 1588 07b8 E06C     		ldr	r0, [r4, #76]
 1589 07ba FFF7FEFF 		bl	lv_obj_set_style_border_width
 1590              	.LVL199:
 269:generated/setup_scr_wave_model.c **** 	lv_obj_set_style_arc_width(ui->wave_model_green, 2, LV_PART_MAIN | LV_STATE_DEFAULT);
 1591              		.loc 1 269 2 view .LVU365
 1592 07be 2A46     		mov	r2, r5
 1593 07c0 0221     		movs	r1, #2
 1594 07c2 E06C     		ldr	r0, [r4, #76]
 1595 07c4 FFF7FEFF 		bl	lv_obj_set_style_arc_width
 1596              	.LVL200:
 270:generated/setup_scr_wave_model.c **** 	lv_obj_set_style_arc_opa(ui->wave_model_green, 255, LV_PART_MAIN | LV_STATE_DEFAULT);
 1597              		.loc 1 270 2 view .LVU366
 1598 07c8 2A46     		mov	r2, r5
 1599 07ca FF21     		movs	r1, #255
 1600 07cc E06C     		ldr	r0, [r4, #76]
 1601 07ce FFF7FEFF 		bl	lv_obj_set_style_arc_opa
 1602              	.LVL201:
 271:generated/setup_scr_wave_model.c **** 	lv_obj_set_style_arc_color(ui->wave_model_green, lv_color_hex(0xffff00), LV_PART_MAIN | LV_STATE_D
 1603              		.loc 1 271 2 view .LVU367
 1604              	.LBB188:
 1605              	.LBI188:
 597:lvgl/src/hal/../draw/../misc/lv_color.h **** {
 1606              		.loc 3 597 26 view .LVU368
 1607              	.LBB189:
 600:lvgl/src/hal/../draw/../misc/lv_color.h **** #if LV_COLOR_16_SWAP == 0
 1608              		.loc 3 600 5 view .LVU369
 616:lvgl/src/hal/../draw/../misc/lv_color.h **** #else
 1609              		.loc 3 616 5 view .LVU370
 1610              		.loc 3 621 5 view .LVU371
 1611              		.loc 3 621 5 is_stmt 0 view .LVU372
 1612              	.LBE189:
 1613              	.LBE188:
 1614              		.loc 1 271 2 discriminator 1 view .LVU373
 1615 07d2 0022     		movs	r2, #0
 1616 07d4 3146     		mov	r1, r6	@ movhi
 1617 07d6 E06C     		ldr	r0, [r4, #76]
 1618 07d8 FFF7FEFF 		bl	lv_obj_set_style_arc_color
 1619              	.LVL202:
 272:generated/setup_scr_wave_model.c **** 	lv_obj_set_style_radius(ui->wave_model_green, 6, LV_PART_MAIN | LV_STATE_DEFAULT);
 1620              		.loc 1 272 2 is_stmt 1 view .LVU374
 1621 07dc 0022     		movs	r2, #0
 1622 07de 0621     		movs	r1, #6
 1623 07e0 E06C     		ldr	r0, [r4, #76]
 1624 07e2 FFF7FEFF 		bl	lv_obj_set_style_radius
 1625              	.LVL203:
 273:generated/setup_scr_wave_model.c **** 	lv_obj_set_style_pad_top(ui->wave_model_green, 0, LV_PART_MAIN | LV_STATE_DEFAULT);
 1626              		.loc 1 273 2 view .LVU375
 1627 07e6 0022     		movs	r2, #0
 1628 07e8 1146     		mov	r1, r2
 1629 07ea E06C     		ldr	r0, [r4, #76]
 1630 07ec FFF7FEFF 		bl	lv_obj_set_style_pad_top
 1631              	.LVL204:
ARM GAS  C:\usertemp\cchE30wT.s 			page 50


 274:generated/setup_scr_wave_model.c **** 	lv_obj_set_style_pad_bottom(ui->wave_model_green, 0, LV_PART_MAIN | LV_STATE_DEFAULT);
 1632              		.loc 1 274 2 view .LVU376
 1633 07f0 0022     		movs	r2, #0
 1634 07f2 1146     		mov	r1, r2
 1635 07f4 E06C     		ldr	r0, [r4, #76]
 1636 07f6 FFF7FEFF 		bl	lv_obj_set_style_pad_bottom
 1637              	.LVL205:
 275:generated/setup_scr_wave_model.c **** 	lv_obj_set_style_pad_left(ui->wave_model_green, 0, LV_PART_MAIN | LV_STATE_DEFAULT);
 1638              		.loc 1 275 2 view .LVU377
 1639 07fa 0022     		movs	r2, #0
 1640 07fc 1146     		mov	r1, r2
 1641 07fe E06C     		ldr	r0, [r4, #76]
 1642 0800 FFF7FEFF 		bl	lv_obj_set_style_pad_left
 1643              	.LVL206:
 276:generated/setup_scr_wave_model.c **** 	lv_obj_set_style_pad_right(ui->wave_model_green, 0, LV_PART_MAIN | LV_STATE_DEFAULT);
 1644              		.loc 1 276 2 view .LVU378
 1645 0804 0022     		movs	r2, #0
 1646 0806 1146     		mov	r1, r2
 1647 0808 E06C     		ldr	r0, [r4, #76]
 1648 080a FFF7FEFF 		bl	lv_obj_set_style_pad_right
 1649              	.LVL207:
 277:generated/setup_scr_wave_model.c **** 	lv_obj_set_style_shadow_width(ui->wave_model_green, 0, LV_PART_MAIN | LV_STATE_DEFAULT);
 1650              		.loc 1 277 2 view .LVU379
 1651 080e 0022     		movs	r2, #0
 1652 0810 1146     		mov	r1, r2
 1653 0812 E06C     		ldr	r0, [r4, #76]
 1654 0814 FFF7FEFF 		bl	lv_obj_set_style_shadow_width
 1655              	.LVL208:
 278:generated/setup_scr_wave_model.c **** 
 279:generated/setup_scr_wave_model.c **** 	// Write style for wave_model_green, Part: LV_PART_INDICATOR, State: LV_STATE_DEFAULT.
 280:generated/setup_scr_wave_model.c **** 	lv_obj_set_style_arc_width(ui->wave_model_green, 2, LV_PART_INDICATOR | LV_STATE_DEFAULT);
 1656              		.loc 1 280 2 view .LVU380
 1657 0818 4FF40032 		mov	r2, #131072
 1658 081c 0221     		movs	r1, #2
 1659 081e E06C     		ldr	r0, [r4, #76]
 1660 0820 FFF7FEFF 		bl	lv_obj_set_style_arc_width
 1661              	.LVL209:
 281:generated/setup_scr_wave_model.c **** 	lv_obj_set_style_arc_opa(ui->wave_model_green, 255, LV_PART_INDICATOR | LV_STATE_DEFAULT);
 1662              		.loc 1 281 2 view .LVU381
 1663 0824 4FF40032 		mov	r2, #131072
 1664 0828 FF21     		movs	r1, #255
 1665 082a E06C     		ldr	r0, [r4, #76]
 1666 082c FFF7FEFF 		bl	lv_obj_set_style_arc_opa
 1667              	.LVL210:
 282:generated/setup_scr_wave_model.c **** 	lv_obj_set_style_arc_color(ui->wave_model_green, lv_color_hex(0x00ff00), LV_PART_INDICATOR | LV_ST
 1668              		.loc 1 282 2 view .LVU382
 1669              	.LBB190:
 1670              	.LBI190:
 597:lvgl/src/hal/../draw/../misc/lv_color.h **** {
 1671              		.loc 3 597 26 view .LVU383
 1672              	.LBB191:
 600:lvgl/src/hal/../draw/../misc/lv_color.h **** #if LV_COLOR_16_SWAP == 0
 1673              		.loc 3 600 5 view .LVU384
 616:lvgl/src/hal/../draw/../misc/lv_color.h **** #else
 1674              		.loc 3 616 5 view .LVU385
 1675              		.loc 3 621 5 view .LVU386
 1676              		.loc 3 621 5 is_stmt 0 view .LVU387
ARM GAS  C:\usertemp\cchE30wT.s 			page 51


 1677              	.LBE191:
 1678              	.LBE190:
 1679              		.loc 1 282 2 discriminator 1 view .LVU388
 1680 0830 4FF40032 		mov	r2, #131072
 1681 0834 4FF4FC61 		mov	r1, #2016	@ movhi
 1682 0838 E06C     		ldr	r0, [r4, #76]
 1683 083a FFF7FEFF 		bl	lv_obj_set_style_arc_color
 1684              	.LVL211:
 283:generated/setup_scr_wave_model.c **** 
 284:generated/setup_scr_wave_model.c **** 	// Write style for wave_model_green, Part: LV_PART_KNOB, State: LV_STATE_DEFAULT.
 285:generated/setup_scr_wave_model.c **** 	lv_obj_set_style_bg_opa(ui->wave_model_green, 0, LV_PART_KNOB | LV_STATE_DEFAULT);
 1685              		.loc 1 285 2 is_stmt 1 view .LVU389
 1686 083e 4FF44032 		mov	r2, #196608
 1687 0842 0021     		movs	r1, #0
 1688 0844 E06C     		ldr	r0, [r4, #76]
 1689 0846 FFF7FEFF 		bl	lv_obj_set_style_bg_opa
 1690              	.LVL212:
 286:generated/setup_scr_wave_model.c **** 	lv_obj_set_style_pad_all(ui->wave_model_green, 0, LV_PART_KNOB | LV_STATE_DEFAULT);
 1691              		.loc 1 286 2 view .LVU390
 1692 084a 4FF44032 		mov	r2, #196608
 1693 084e 0021     		movs	r1, #0
 1694 0850 E06C     		ldr	r0, [r4, #76]
 1695 0852 FFF7FEFF 		bl	lv_obj_set_style_pad_all
 1696              	.LVL213:
 287:generated/setup_scr_wave_model.c **** 
 288:generated/setup_scr_wave_model.c **** 	// Write codes wave_model_blue
 289:generated/setup_scr_wave_model.c **** 	ui->wave_model_blue = lv_arc_create(ui->wave_model);
 1697              		.loc 1 289 2 view .LVU391
 1698              		.loc 1 289 24 is_stmt 0 view .LVU392
 1699 0856 2068     		ldr	r0, [r4]
 1700 0858 FFF7FEFF 		bl	lv_arc_create
 1701              	.LVL214:
 1702              		.loc 1 289 22 discriminator 1 view .LVU393
 1703 085c 2065     		str	r0, [r4, #80]
 290:generated/setup_scr_wave_model.c **** 	lv_arc_set_mode(ui->wave_model_blue, LV_ARC_MODE_REVERSE);
 1704              		.loc 1 290 2 is_stmt 1 view .LVU394
 1705 085e 0221     		movs	r1, #2
 1706 0860 FFF7FEFF 		bl	lv_arc_set_mode
 1707              	.LVL215:
 291:generated/setup_scr_wave_model.c **** 	lv_arc_set_range(ui->wave_model_blue, 0, 1);
 1708              		.loc 1 291 2 view .LVU395
 1709 0864 0122     		movs	r2, #1
 1710 0866 0021     		movs	r1, #0
 1711 0868 206D     		ldr	r0, [r4, #80]
 1712 086a FFF7FEFF 		bl	lv_arc_set_range
 1713              	.LVL216:
 292:generated/setup_scr_wave_model.c **** 	lv_arc_set_bg_angles(ui->wave_model_blue, 0, 0);
 1714              		.loc 1 292 2 view .LVU396
 1715 086e 0022     		movs	r2, #0
 1716 0870 1146     		mov	r1, r2
 1717 0872 206D     		ldr	r0, [r4, #80]
 1718 0874 FFF7FEFF 		bl	lv_arc_set_bg_angles
 1719              	.LVL217:
 293:generated/setup_scr_wave_model.c **** 	lv_arc_set_angles(ui->wave_model_blue, 0, 360);
 1720              		.loc 1 293 2 view .LVU397
 1721 0878 4FF4B472 		mov	r2, #360
 1722 087c 0021     		movs	r1, #0
ARM GAS  C:\usertemp\cchE30wT.s 			page 52


 1723 087e 206D     		ldr	r0, [r4, #80]
 1724 0880 FFF7FEFF 		bl	lv_arc_set_angles
 1725              	.LVL218:
 294:generated/setup_scr_wave_model.c **** 	lv_arc_set_rotation(ui->wave_model_blue, 0);
 1726              		.loc 1 294 2 view .LVU398
 1727 0884 0021     		movs	r1, #0
 1728 0886 206D     		ldr	r0, [r4, #80]
 1729 0888 FFF7FEFF 		bl	lv_arc_set_rotation
 1730              	.LVL219:
 295:generated/setup_scr_wave_model.c **** 	lv_obj_set_style_arc_rounded(ui->wave_model_blue, 0, LV_PART_INDICATOR | LV_STATE_DEFAULT);
 1731              		.loc 1 295 2 view .LVU399
 1732 088c 4FF40032 		mov	r2, #131072
 1733 0890 0021     		movs	r1, #0
 1734 0892 206D     		ldr	r0, [r4, #80]
 1735 0894 FFF7FEFF 		bl	lv_obj_set_style_arc_rounded
 1736              	.LVL220:
 296:generated/setup_scr_wave_model.c **** 	lv_obj_set_style_arc_rounded(ui->wave_model_blue, 0, LV_STATE_DEFAULT);
 1737              		.loc 1 296 2 view .LVU400
 1738 0898 0022     		movs	r2, #0
 1739 089a 1146     		mov	r1, r2
 1740 089c 206D     		ldr	r0, [r4, #80]
 1741 089e FFF7FEFF 		bl	lv_obj_set_style_arc_rounded
 1742              	.LVL221:
 297:generated/setup_scr_wave_model.c **** 	lv_obj_set_pos(ui->wave_model_blue, 490, 25);
 1743              		.loc 1 297 2 view .LVU401
 1744 08a2 1922     		movs	r2, #25
 1745 08a4 4FF4F571 		mov	r1, #490
 1746 08a8 206D     		ldr	r0, [r4, #80]
 1747 08aa FFF7FEFF 		bl	lv_obj_set_pos
 1748              	.LVL222:
 298:generated/setup_scr_wave_model.c **** 	lv_obj_set_size(ui->wave_model_blue, 38, 38);
 1749              		.loc 1 298 2 view .LVU402
 1750 08ae 2622     		movs	r2, #38
 1751 08b0 1146     		mov	r1, r2
 1752 08b2 206D     		ldr	r0, [r4, #80]
 1753 08b4 FFF7FEFF 		bl	lv_obj_set_size
 1754              	.LVL223:
 299:generated/setup_scr_wave_model.c **** 
 300:generated/setup_scr_wave_model.c **** 	// Write style for wave_model_blue, Part: LV_PART_MAIN, State: LV_STATE_DEFAULT.
 301:generated/setup_scr_wave_model.c **** 	lv_obj_set_style_bg_opa(ui->wave_model_blue, 0, LV_PART_MAIN | LV_STATE_DEFAULT);
 1755              		.loc 1 301 2 view .LVU403
 1756 08b8 0022     		movs	r2, #0
 1757 08ba 1146     		mov	r1, r2
 1758 08bc 206D     		ldr	r0, [r4, #80]
 1759 08be FFF7FEFF 		bl	lv_obj_set_style_bg_opa
 1760              	.LVL224:
 302:generated/setup_scr_wave_model.c **** 	lv_obj_set_style_border_width(ui->wave_model_blue, 0, LV_PART_MAIN | LV_STATE_DEFAULT);
 1761              		.loc 1 302 2 view .LVU404
 1762 08c2 0022     		movs	r2, #0
 1763 08c4 1146     		mov	r1, r2
 1764 08c6 206D     		ldr	r0, [r4, #80]
 1765 08c8 FFF7FEFF 		bl	lv_obj_set_style_border_width
 1766              	.LVL225:
 303:generated/setup_scr_wave_model.c **** 	lv_obj_set_style_arc_width(ui->wave_model_blue, 2, LV_PART_MAIN | LV_STATE_DEFAULT);
 1767              		.loc 1 303 2 view .LVU405
 1768 08cc 0022     		movs	r2, #0
 1769 08ce 0221     		movs	r1, #2
ARM GAS  C:\usertemp\cchE30wT.s 			page 53


 1770 08d0 206D     		ldr	r0, [r4, #80]
 1771 08d2 FFF7FEFF 		bl	lv_obj_set_style_arc_width
 1772              	.LVL226:
 304:generated/setup_scr_wave_model.c **** 	lv_obj_set_style_arc_opa(ui->wave_model_blue, 255, LV_PART_MAIN | LV_STATE_DEFAULT);
 1773              		.loc 1 304 2 view .LVU406
 1774 08d6 0022     		movs	r2, #0
 1775 08d8 FF21     		movs	r1, #255
 1776 08da 206D     		ldr	r0, [r4, #80]
 1777 08dc FFF7FEFF 		bl	lv_obj_set_style_arc_opa
 1778              	.LVL227:
 305:generated/setup_scr_wave_model.c **** 	lv_obj_set_style_arc_color(ui->wave_model_blue, lv_color_hex(0xffff00), LV_PART_MAIN | LV_STATE_DE
 1779              		.loc 1 305 2 view .LVU407
 1780              	.LBB192:
 1781              	.LBI192:
 597:lvgl/src/hal/../draw/../misc/lv_color.h **** {
 1782              		.loc 3 597 26 view .LVU408
 1783              	.LBB193:
 600:lvgl/src/hal/../draw/../misc/lv_color.h **** #if LV_COLOR_16_SWAP == 0
 1784              		.loc 3 600 5 view .LVU409
 616:lvgl/src/hal/../draw/../misc/lv_color.h **** #else
 1785              		.loc 3 616 5 view .LVU410
 1786              		.loc 3 621 5 view .LVU411
 1787              		.loc 3 621 5 is_stmt 0 view .LVU412
 1788              	.LBE193:
 1789              	.LBE192:
 1790              		.loc 1 305 2 discriminator 1 view .LVU413
 1791 08e0 0022     		movs	r2, #0
 1792 08e2 3146     		mov	r1, r6	@ movhi
 1793 08e4 206D     		ldr	r0, [r4, #80]
 1794 08e6 FFF7FEFF 		bl	lv_obj_set_style_arc_color
 1795              	.LVL228:
 306:generated/setup_scr_wave_model.c **** 	lv_obj_set_style_radius(ui->wave_model_blue, 6, LV_PART_MAIN | LV_STATE_DEFAULT);
 1796              		.loc 1 306 2 is_stmt 1 view .LVU414
 1797 08ea 0022     		movs	r2, #0
 1798 08ec 0621     		movs	r1, #6
 1799 08ee 206D     		ldr	r0, [r4, #80]
 1800 08f0 FFF7FEFF 		bl	lv_obj_set_style_radius
 1801              	.LVL229:
 307:generated/setup_scr_wave_model.c **** 	lv_obj_set_style_pad_top(ui->wave_model_blue, 0, LV_PART_MAIN | LV_STATE_DEFAULT);
 1802              		.loc 1 307 2 view .LVU415
 1803 08f4 0022     		movs	r2, #0
 1804 08f6 1146     		mov	r1, r2
 1805 08f8 206D     		ldr	r0, [r4, #80]
 1806 08fa FFF7FEFF 		bl	lv_obj_set_style_pad_top
 1807              	.LVL230:
 308:generated/setup_scr_wave_model.c **** 	lv_obj_set_style_pad_bottom(ui->wave_model_blue, 0, LV_PART_MAIN | LV_STATE_DEFAULT);
 1808              		.loc 1 308 2 view .LVU416
 1809 08fe 0022     		movs	r2, #0
 1810 0900 1146     		mov	r1, r2
 1811 0902 206D     		ldr	r0, [r4, #80]
 1812 0904 FFF7FEFF 		bl	lv_obj_set_style_pad_bottom
 1813              	.LVL231:
 309:generated/setup_scr_wave_model.c **** 	lv_obj_set_style_pad_left(ui->wave_model_blue, 0, LV_PART_MAIN | LV_STATE_DEFAULT);
 1814              		.loc 1 309 2 view .LVU417
 1815 0908 0022     		movs	r2, #0
 1816 090a 1146     		mov	r1, r2
 1817 090c 206D     		ldr	r0, [r4, #80]
ARM GAS  C:\usertemp\cchE30wT.s 			page 54


 1818 090e FFF7FEFF 		bl	lv_obj_set_style_pad_left
 1819              	.LVL232:
 310:generated/setup_scr_wave_model.c **** 	lv_obj_set_style_pad_right(ui->wave_model_blue, 0, LV_PART_MAIN | LV_STATE_DEFAULT);
 1820              		.loc 1 310 2 view .LVU418
 1821 0912 0022     		movs	r2, #0
 1822 0914 1146     		mov	r1, r2
 1823 0916 206D     		ldr	r0, [r4, #80]
 1824 0918 FFF7FEFF 		bl	lv_obj_set_style_pad_right
 1825              	.LVL233:
 311:generated/setup_scr_wave_model.c **** 	lv_obj_set_style_shadow_width(ui->wave_model_blue, 0, LV_PART_MAIN | LV_STATE_DEFAULT);
 1826              		.loc 1 311 2 view .LVU419
 1827 091c 0022     		movs	r2, #0
 1828 091e 1146     		mov	r1, r2
 1829 0920 206D     		ldr	r0, [r4, #80]
 1830 0922 FFF7FEFF 		bl	lv_obj_set_style_shadow_width
 1831              	.LVL234:
 312:generated/setup_scr_wave_model.c **** 
 313:generated/setup_scr_wave_model.c **** 	// Write style for wave_model_blue, Part: LV_PART_INDICATOR, State: LV_STATE_DEFAULT.
 314:generated/setup_scr_wave_model.c **** 	lv_obj_set_style_arc_width(ui->wave_model_blue, 2, LV_PART_INDICATOR | LV_STATE_DEFAULT);
 1832              		.loc 1 314 2 view .LVU420
 1833 0926 4FF40032 		mov	r2, #131072
 1834 092a 0221     		movs	r1, #2
 1835 092c 206D     		ldr	r0, [r4, #80]
 1836 092e FFF7FEFF 		bl	lv_obj_set_style_arc_width
 1837              	.LVL235:
 315:generated/setup_scr_wave_model.c **** 	lv_obj_set_style_arc_opa(ui->wave_model_blue, 255, LV_PART_INDICATOR | LV_STATE_DEFAULT);
 1838              		.loc 1 315 2 view .LVU421
 1839 0932 4FF40032 		mov	r2, #131072
 1840 0936 FF21     		movs	r1, #255
 1841 0938 206D     		ldr	r0, [r4, #80]
 1842 093a FFF7FEFF 		bl	lv_obj_set_style_arc_opa
 1843              	.LVL236:
 316:generated/setup_scr_wave_model.c **** 	lv_obj_set_style_arc_color(ui->wave_model_blue, lv_color_hex(0x0000ff), LV_PART_INDICATOR | LV_STA
 1844              		.loc 1 316 2 view .LVU422
 1845              	.LBB194:
 1846              	.LBI194:
 597:lvgl/src/hal/../draw/../misc/lv_color.h **** {
 1847              		.loc 3 597 26 view .LVU423
 1848              	.LBB195:
 600:lvgl/src/hal/../draw/../misc/lv_color.h **** #if LV_COLOR_16_SWAP == 0
 1849              		.loc 3 600 5 view .LVU424
 616:lvgl/src/hal/../draw/../misc/lv_color.h **** #else
 1850              		.loc 3 616 5 view .LVU425
 616:lvgl/src/hal/../draw/../misc/lv_color.h **** #else
 1851              		.loc 3 616 12 is_stmt 0 view .LVU426
 1852 093e 4FF01F08 		mov	r8, #31
 1853              		.loc 3 621 5 is_stmt 1 view .LVU427
 1854              	.LVL237:
 1855              		.loc 3 621 5 is_stmt 0 view .LVU428
 1856              	.LBE195:
 1857              	.LBE194:
 1858              		.loc 1 316 2 discriminator 1 view .LVU429
 1859 0942 4FF40032 		mov	r2, #131072
 1860 0946 4146     		mov	r1, r8	@ movhi
 1861 0948 206D     		ldr	r0, [r4, #80]
 1862 094a FFF7FEFF 		bl	lv_obj_set_style_arc_color
 1863              	.LVL238:
ARM GAS  C:\usertemp\cchE30wT.s 			page 55


 317:generated/setup_scr_wave_model.c **** 
 318:generated/setup_scr_wave_model.c **** 	// Write style for wave_model_blue, Part: LV_PART_KNOB, State: LV_STATE_DEFAULT.
 319:generated/setup_scr_wave_model.c **** 	lv_obj_set_style_bg_opa(ui->wave_model_blue, 0, LV_PART_KNOB | LV_STATE_DEFAULT);
 1864              		.loc 1 319 2 is_stmt 1 view .LVU430
 1865 094e 4FF44032 		mov	r2, #196608
 1866 0952 0021     		movs	r1, #0
 1867 0954 206D     		ldr	r0, [r4, #80]
 1868 0956 FFF7FEFF 		bl	lv_obj_set_style_bg_opa
 1869              	.LVL239:
 320:generated/setup_scr_wave_model.c **** 	lv_obj_set_style_pad_all(ui->wave_model_blue, 0, LV_PART_KNOB | LV_STATE_DEFAULT);
 1870              		.loc 1 320 2 view .LVU431
 1871 095a 4FF44032 		mov	r2, #196608
 1872 095e 0021     		movs	r1, #0
 1873 0960 206D     		ldr	r0, [r4, #80]
 1874 0962 FFF7FEFF 		bl	lv_obj_set_style_pad_all
 1875              	.LVL240:
 321:generated/setup_scr_wave_model.c **** 
 322:generated/setup_scr_wave_model.c **** 	// Write codes wave_model_red
 323:generated/setup_scr_wave_model.c **** 	ui->wave_model_red = lv_arc_create(ui->wave_model);
 1876              		.loc 1 323 2 view .LVU432
 1877              		.loc 1 323 23 is_stmt 0 view .LVU433
 1878 0966 2068     		ldr	r0, [r4]
 1879 0968 FFF7FEFF 		bl	lv_arc_create
 1880              	.LVL241:
 1881              		.loc 1 323 21 discriminator 1 view .LVU434
 1882 096c 6065     		str	r0, [r4, #84]
 324:generated/setup_scr_wave_model.c **** 	lv_arc_set_mode(ui->wave_model_red, LV_ARC_MODE_REVERSE);
 1883              		.loc 1 324 2 is_stmt 1 view .LVU435
 1884 096e 0221     		movs	r1, #2
 1885 0970 FFF7FEFF 		bl	lv_arc_set_mode
 1886              	.LVL242:
 325:generated/setup_scr_wave_model.c **** 	lv_arc_set_range(ui->wave_model_red, 0, 1);
 1887              		.loc 1 325 2 view .LVU436
 1888 0974 0122     		movs	r2, #1
 1889 0976 0021     		movs	r1, #0
 1890 0978 606D     		ldr	r0, [r4, #84]
 1891 097a FFF7FEFF 		bl	lv_arc_set_range
 1892              	.LVL243:
 326:generated/setup_scr_wave_model.c **** 	lv_arc_set_bg_angles(ui->wave_model_red, 0, 0);
 1893              		.loc 1 326 2 view .LVU437
 1894 097e 0022     		movs	r2, #0
 1895 0980 1146     		mov	r1, r2
 1896 0982 606D     		ldr	r0, [r4, #84]
 1897 0984 FFF7FEFF 		bl	lv_arc_set_bg_angles
 1898              	.LVL244:
 327:generated/setup_scr_wave_model.c **** 	lv_arc_set_angles(ui->wave_model_red, 0, 360);
 1899              		.loc 1 327 2 view .LVU438
 1900 0988 4FF4B472 		mov	r2, #360
 1901 098c 0021     		movs	r1, #0
 1902 098e 606D     		ldr	r0, [r4, #84]
 1903 0990 FFF7FEFF 		bl	lv_arc_set_angles
 1904              	.LVL245:
 328:generated/setup_scr_wave_model.c **** 	lv_arc_set_rotation(ui->wave_model_red, 0);
 1905              		.loc 1 328 2 view .LVU439
 1906 0994 0021     		movs	r1, #0
 1907 0996 606D     		ldr	r0, [r4, #84]
 1908 0998 FFF7FEFF 		bl	lv_arc_set_rotation
ARM GAS  C:\usertemp\cchE30wT.s 			page 56


 1909              	.LVL246:
 329:generated/setup_scr_wave_model.c **** 	lv_obj_set_style_arc_rounded(ui->wave_model_red, 0, LV_PART_INDICATOR | LV_STATE_DEFAULT);
 1910              		.loc 1 329 2 view .LVU440
 1911 099c 4FF40032 		mov	r2, #131072
 1912 09a0 0021     		movs	r1, #0
 1913 09a2 606D     		ldr	r0, [r4, #84]
 1914 09a4 FFF7FEFF 		bl	lv_obj_set_style_arc_rounded
 1915              	.LVL247:
 330:generated/setup_scr_wave_model.c **** 	lv_obj_set_style_arc_rounded(ui->wave_model_red, 0, LV_STATE_DEFAULT);
 1916              		.loc 1 330 2 view .LVU441
 1917 09a8 0022     		movs	r2, #0
 1918 09aa 1146     		mov	r1, r2
 1919 09ac 606D     		ldr	r0, [r4, #84]
 1920 09ae FFF7FEFF 		bl	lv_obj_set_style_arc_rounded
 1921              	.LVL248:
 331:generated/setup_scr_wave_model.c **** 	lv_obj_set_pos(ui->wave_model_red, 330, 25);
 1922              		.loc 1 331 2 view .LVU442
 1923 09b2 1922     		movs	r2, #25
 1924 09b4 4FF4A571 		mov	r1, #330
 1925 09b8 606D     		ldr	r0, [r4, #84]
 1926 09ba FFF7FEFF 		bl	lv_obj_set_pos
 1927              	.LVL249:
 332:generated/setup_scr_wave_model.c **** 	lv_obj_set_size(ui->wave_model_red, 38, 38);
 1928              		.loc 1 332 2 view .LVU443
 1929 09be 2622     		movs	r2, #38
 1930 09c0 1146     		mov	r1, r2
 1931 09c2 606D     		ldr	r0, [r4, #84]
 1932 09c4 FFF7FEFF 		bl	lv_obj_set_size
 1933              	.LVL250:
 333:generated/setup_scr_wave_model.c **** 
 334:generated/setup_scr_wave_model.c **** 	// Write style for wave_model_red, Part: LV_PART_MAIN, State: LV_STATE_DEFAULT.
 335:generated/setup_scr_wave_model.c **** 	lv_obj_set_style_bg_opa(ui->wave_model_red, 0, LV_PART_MAIN | LV_STATE_DEFAULT);
 1934              		.loc 1 335 2 view .LVU444
 1935 09c8 0022     		movs	r2, #0
 1936 09ca 1146     		mov	r1, r2
 1937 09cc 606D     		ldr	r0, [r4, #84]
 1938 09ce FFF7FEFF 		bl	lv_obj_set_style_bg_opa
 1939              	.LVL251:
 336:generated/setup_scr_wave_model.c **** 	lv_obj_set_style_border_width(ui->wave_model_red, 0, LV_PART_MAIN | LV_STATE_DEFAULT);
 1940              		.loc 1 336 2 view .LVU445
 1941 09d2 0022     		movs	r2, #0
 1942 09d4 1146     		mov	r1, r2
 1943 09d6 606D     		ldr	r0, [r4, #84]
 1944 09d8 FFF7FEFF 		bl	lv_obj_set_style_border_width
 1945              	.LVL252:
 337:generated/setup_scr_wave_model.c **** 	lv_obj_set_style_arc_width(ui->wave_model_red, 2, LV_PART_MAIN | LV_STATE_DEFAULT);
 1946              		.loc 1 337 2 view .LVU446
 1947 09dc 0022     		movs	r2, #0
 1948 09de 0221     		movs	r1, #2
 1949 09e0 606D     		ldr	r0, [r4, #84]
 1950 09e2 FFF7FEFF 		bl	lv_obj_set_style_arc_width
 1951              	.LVL253:
 338:generated/setup_scr_wave_model.c **** 	lv_obj_set_style_arc_opa(ui->wave_model_red, 255, LV_PART_MAIN | LV_STATE_DEFAULT);
 1952              		.loc 1 338 2 view .LVU447
 1953 09e6 0022     		movs	r2, #0
 1954 09e8 FF21     		movs	r1, #255
 1955 09ea 606D     		ldr	r0, [r4, #84]
ARM GAS  C:\usertemp\cchE30wT.s 			page 57


 1956 09ec FFF7FEFF 		bl	lv_obj_set_style_arc_opa
 1957              	.LVL254:
 339:generated/setup_scr_wave_model.c **** 	lv_obj_set_style_arc_color(ui->wave_model_red, lv_color_hex(0xff0000), LV_PART_MAIN | LV_STATE_DEF
 1958              		.loc 1 339 2 view .LVU448
 1959              	.LBB196:
 1960              	.LBI196:
 597:lvgl/src/hal/../draw/../misc/lv_color.h **** {
 1961              		.loc 3 597 26 view .LVU449
 1962              	.LBB197:
 600:lvgl/src/hal/../draw/../misc/lv_color.h **** #if LV_COLOR_16_SWAP == 0
 1963              		.loc 3 600 5 view .LVU450
 616:lvgl/src/hal/../draw/../misc/lv_color.h **** #else
 1964              		.loc 3 616 5 view .LVU451
 616:lvgl/src/hal/../draw/../misc/lv_color.h **** #else
 1965              		.loc 3 616 12 is_stmt 0 view .LVU452
 1966 09f0 4FF47845 		mov	r5, #63488
 1967              		.loc 3 621 5 is_stmt 1 view .LVU453
 1968              	.LVL255:
 1969              		.loc 3 621 5 is_stmt 0 view .LVU454
 1970              	.LBE197:
 1971              	.LBE196:
 1972              		.loc 1 339 2 discriminator 1 view .LVU455
 1973 09f4 0022     		movs	r2, #0
 1974 09f6 2946     		mov	r1, r5	@ movhi
 1975 09f8 606D     		ldr	r0, [r4, #84]
 1976 09fa FFF7FEFF 		bl	lv_obj_set_style_arc_color
 1977              	.LVL256:
 340:generated/setup_scr_wave_model.c **** 	lv_obj_set_style_radius(ui->wave_model_red, 6, LV_PART_MAIN | LV_STATE_DEFAULT);
 1978              		.loc 1 340 2 is_stmt 1 view .LVU456
 1979 09fe 0022     		movs	r2, #0
 1980 0a00 0621     		movs	r1, #6
 1981 0a02 606D     		ldr	r0, [r4, #84]
 1982 0a04 FFF7FEFF 		bl	lv_obj_set_style_radius
 1983              	.LVL257:
 341:generated/setup_scr_wave_model.c **** 	lv_obj_set_style_pad_top(ui->wave_model_red, 0, LV_PART_MAIN | LV_STATE_DEFAULT);
 1984              		.loc 1 341 2 view .LVU457
 1985 0a08 0022     		movs	r2, #0
 1986 0a0a 1146     		mov	r1, r2
 1987 0a0c 606D     		ldr	r0, [r4, #84]
 1988 0a0e FFF7FEFF 		bl	lv_obj_set_style_pad_top
 1989              	.LVL258:
 342:generated/setup_scr_wave_model.c **** 	lv_obj_set_style_pad_bottom(ui->wave_model_red, 0, LV_PART_MAIN | LV_STATE_DEFAULT);
 1990              		.loc 1 342 2 view .LVU458
 1991 0a12 0022     		movs	r2, #0
 1992 0a14 1146     		mov	r1, r2
 1993 0a16 606D     		ldr	r0, [r4, #84]
 1994 0a18 FFF7FEFF 		bl	lv_obj_set_style_pad_bottom
 1995              	.LVL259:
 343:generated/setup_scr_wave_model.c **** 	lv_obj_set_style_pad_left(ui->wave_model_red, 0, LV_PART_MAIN | LV_STATE_DEFAULT);
 1996              		.loc 1 343 2 view .LVU459
 1997 0a1c 0022     		movs	r2, #0
 1998 0a1e 1146     		mov	r1, r2
 1999 0a20 606D     		ldr	r0, [r4, #84]
 2000 0a22 FFF7FEFF 		bl	lv_obj_set_style_pad_left
 2001              	.LVL260:
 344:generated/setup_scr_wave_model.c **** 	lv_obj_set_style_pad_right(ui->wave_model_red, 0, LV_PART_MAIN | LV_STATE_DEFAULT);
 2002              		.loc 1 344 2 view .LVU460
ARM GAS  C:\usertemp\cchE30wT.s 			page 58


 2003 0a26 0022     		movs	r2, #0
 2004 0a28 1146     		mov	r1, r2
 2005 0a2a 606D     		ldr	r0, [r4, #84]
 2006 0a2c FFF7FEFF 		bl	lv_obj_set_style_pad_right
 2007              	.LVL261:
 345:generated/setup_scr_wave_model.c **** 	lv_obj_set_style_shadow_width(ui->wave_model_red, 0, LV_PART_MAIN | LV_STATE_DEFAULT);
 2008              		.loc 1 345 2 view .LVU461
 2009 0a30 0022     		movs	r2, #0
 2010 0a32 1146     		mov	r1, r2
 2011 0a34 606D     		ldr	r0, [r4, #84]
 2012 0a36 FFF7FEFF 		bl	lv_obj_set_style_shadow_width
 2013              	.LVL262:
 346:generated/setup_scr_wave_model.c **** 
 347:generated/setup_scr_wave_model.c **** 	// Write style for wave_model_red, Part: LV_PART_INDICATOR, State: LV_STATE_DEFAULT.
 348:generated/setup_scr_wave_model.c **** 	lv_obj_set_style_arc_width(ui->wave_model_red, 2, LV_PART_INDICATOR | LV_STATE_DEFAULT);
 2014              		.loc 1 348 2 view .LVU462
 2015 0a3a 4FF40032 		mov	r2, #131072
 2016 0a3e 0221     		movs	r1, #2
 2017 0a40 606D     		ldr	r0, [r4, #84]
 2018 0a42 FFF7FEFF 		bl	lv_obj_set_style_arc_width
 2019              	.LVL263:
 349:generated/setup_scr_wave_model.c **** 	lv_obj_set_style_arc_opa(ui->wave_model_red, 255, LV_PART_INDICATOR | LV_STATE_DEFAULT);
 2020              		.loc 1 349 2 view .LVU463
 2021 0a46 4FF40032 		mov	r2, #131072
 2022 0a4a FF21     		movs	r1, #255
 2023 0a4c 606D     		ldr	r0, [r4, #84]
 2024 0a4e FFF7FEFF 		bl	lv_obj_set_style_arc_opa
 2025              	.LVL264:
 350:generated/setup_scr_wave_model.c **** 	lv_obj_set_style_arc_color(ui->wave_model_red, lv_color_hex(0xff0200), LV_PART_INDICATOR | LV_STAT
 2026              		.loc 1 350 2 view .LVU464
 2027              	.LBB198:
 2028              	.LBI198:
 597:lvgl/src/hal/../draw/../misc/lv_color.h **** {
 2029              		.loc 3 597 26 view .LVU465
 2030              	.LBB199:
 600:lvgl/src/hal/../draw/../misc/lv_color.h **** #if LV_COLOR_16_SWAP == 0
 2031              		.loc 3 600 5 view .LVU466
 616:lvgl/src/hal/../draw/../misc/lv_color.h **** #else
 2032              		.loc 3 616 5 view .LVU467
 2033              		.loc 3 621 5 view .LVU468
 2034              		.loc 3 621 5 is_stmt 0 view .LVU469
 2035              	.LBE199:
 2036              	.LBE198:
 2037              		.loc 1 350 2 discriminator 1 view .LVU470
 2038 0a52 4FF40032 		mov	r2, #131072
 2039 0a56 2946     		mov	r1, r5	@ movhi
 2040 0a58 606D     		ldr	r0, [r4, #84]
 2041 0a5a FFF7FEFF 		bl	lv_obj_set_style_arc_color
 2042              	.LVL265:
 351:generated/setup_scr_wave_model.c **** 
 352:generated/setup_scr_wave_model.c **** 	// Write style for wave_model_red, Part: LV_PART_KNOB, State: LV_STATE_DEFAULT.
 353:generated/setup_scr_wave_model.c **** 	lv_obj_set_style_bg_opa(ui->wave_model_red, 0, LV_PART_KNOB | LV_STATE_DEFAULT);
 2043              		.loc 1 353 2 is_stmt 1 view .LVU471
 2044 0a5e 4FF44032 		mov	r2, #196608
 2045 0a62 0021     		movs	r1, #0
 2046 0a64 606D     		ldr	r0, [r4, #84]
 2047 0a66 FFF7FEFF 		bl	lv_obj_set_style_bg_opa
ARM GAS  C:\usertemp\cchE30wT.s 			page 59


 2048              	.LVL266:
 354:generated/setup_scr_wave_model.c **** 	lv_obj_set_style_pad_all(ui->wave_model_red, 0, LV_PART_KNOB | LV_STATE_DEFAULT);
 2049              		.loc 1 354 2 view .LVU472
 2050 0a6a 4FF44032 		mov	r2, #196608
 2051 0a6e 0021     		movs	r1, #0
 2052 0a70 606D     		ldr	r0, [r4, #84]
 2053 0a72 FFF7FEFF 		bl	lv_obj_set_style_pad_all
 2054              	.LVL267:
 355:generated/setup_scr_wave_model.c **** 
 356:generated/setup_scr_wave_model.c **** 	// Write codes wave_model_two
 357:generated/setup_scr_wave_model.c **** 	ui->wave_model_two = lv_label_create(ui->wave_model);
 2055              		.loc 1 357 2 view .LVU473
 2056              		.loc 1 357 23 is_stmt 0 view .LVU474
 2057 0a76 2068     		ldr	r0, [r4]
 2058 0a78 FFF7FEFF 		bl	lv_label_create
 2059              	.LVL268:
 2060              		.loc 1 357 21 discriminator 1 view .LVU475
 2061 0a7c A065     		str	r0, [r4, #88]
 358:generated/setup_scr_wave_model.c **** 	lv_label_set_text(ui->wave_model_two, "2");
 2062              		.loc 1 358 2 is_stmt 1 view .LVU476
 2063 0a7e D149     		ldr	r1, .L13
 2064 0a80 FFF7FEFF 		bl	lv_label_set_text
 2065              	.LVL269:
 359:generated/setup_scr_wave_model.c **** 	lv_label_set_long_mode(ui->wave_model_two, LV_LABEL_LONG_WRAP);
 2066              		.loc 1 359 2 view .LVU477
 2067 0a84 0021     		movs	r1, #0
 2068 0a86 A06D     		ldr	r0, [r4, #88]
 2069 0a88 FFF7FEFF 		bl	lv_label_set_long_mode
 2070              	.LVL270:
 360:generated/setup_scr_wave_model.c **** 	lv_obj_set_pos(ui->wave_model_two, 137, 28);
 2071              		.loc 1 360 2 view .LVU478
 2072 0a8c 1C22     		movs	r2, #28
 2073 0a8e 8921     		movs	r1, #137
 2074 0a90 A06D     		ldr	r0, [r4, #88]
 2075 0a92 FFF7FEFF 		bl	lv_obj_set_pos
 2076              	.LVL271:
 361:generated/setup_scr_wave_model.c **** 	lv_obj_set_size(ui->wave_model_two, 100, 32);
 2077              		.loc 1 361 2 view .LVU479
 2078 0a96 2022     		movs	r2, #32
 2079 0a98 6421     		movs	r1, #100
 2080 0a9a A06D     		ldr	r0, [r4, #88]
 2081 0a9c FFF7FEFF 		bl	lv_obj_set_size
 2082              	.LVL272:
 362:generated/setup_scr_wave_model.c **** 
 363:generated/setup_scr_wave_model.c **** 	// Write style for wave_model_two, Part: LV_PART_MAIN, State: LV_STATE_DEFAULT.
 364:generated/setup_scr_wave_model.c **** 	lv_obj_set_style_border_width(ui->wave_model_two, 0, LV_PART_MAIN | LV_STATE_DEFAULT);
 2083              		.loc 1 364 2 view .LVU480
 2084 0aa0 0022     		movs	r2, #0
 2085 0aa2 1146     		mov	r1, r2
 2086 0aa4 A06D     		ldr	r0, [r4, #88]
 2087 0aa6 FFF7FEFF 		bl	lv_obj_set_style_border_width
 2088              	.LVL273:
 365:generated/setup_scr_wave_model.c **** 	lv_obj_set_style_radius(ui->wave_model_two, 0, LV_PART_MAIN | LV_STATE_DEFAULT);
 2089              		.loc 1 365 2 view .LVU481
 2090 0aaa 0022     		movs	r2, #0
 2091 0aac 1146     		mov	r1, r2
 2092 0aae A06D     		ldr	r0, [r4, #88]
ARM GAS  C:\usertemp\cchE30wT.s 			page 60


 2093 0ab0 FFF7FEFF 		bl	lv_obj_set_style_radius
 2094              	.LVL274:
 366:generated/setup_scr_wave_model.c **** 	lv_obj_set_style_text_color(ui->wave_model_two, lv_color_hex(0x000000), LV_PART_MAIN | LV_STATE_DE
 2095              		.loc 1 366 2 view .LVU482
 2096              	.LBB200:
 2097              	.LBI200:
 597:lvgl/src/hal/../draw/../misc/lv_color.h **** {
 2098              		.loc 3 597 26 view .LVU483
 2099              	.LBB201:
 600:lvgl/src/hal/../draw/../misc/lv_color.h **** #if LV_COLOR_16_SWAP == 0
 2100              		.loc 3 600 5 view .LVU484
 616:lvgl/src/hal/../draw/../misc/lv_color.h **** #else
 2101              		.loc 3 616 5 view .LVU485
 616:lvgl/src/hal/../draw/../misc/lv_color.h **** #else
 2102              		.loc 3 616 12 is_stmt 0 view .LVU486
 2103 0ab4 0025     		movs	r5, #0
 2104              		.loc 3 621 5 is_stmt 1 view .LVU487
 2105              	.LVL275:
 2106              		.loc 3 621 5 is_stmt 0 view .LVU488
 2107              	.LBE201:
 2108              	.LBE200:
 2109              		.loc 1 366 2 discriminator 1 view .LVU489
 2110 0ab6 2A46     		mov	r2, r5
 2111 0ab8 2946     		mov	r1, r5	@ movhi
 2112 0aba A06D     		ldr	r0, [r4, #88]
 2113 0abc FFF7FEFF 		bl	lv_obj_set_style_text_color
 2114              	.LVL276:
 367:generated/setup_scr_wave_model.c **** 	lv_obj_set_style_text_font(ui->wave_model_two, &lv_font_arial_32, LV_PART_MAIN | LV_STATE_DEFAULT)
 2115              		.loc 1 367 2 is_stmt 1 view .LVU490
 2116 0ac0 C14E     		ldr	r6, .L13+4
 2117 0ac2 2A46     		mov	r2, r5
 2118 0ac4 3146     		mov	r1, r6
 2119 0ac6 A06D     		ldr	r0, [r4, #88]
 2120 0ac8 FFF7FEFF 		bl	lv_obj_set_style_text_font
 2121              	.LVL277:
 368:generated/setup_scr_wave_model.c **** 	lv_obj_set_style_text_letter_space(ui->wave_model_two, 2, LV_PART_MAIN | LV_STATE_DEFAULT);
 2122              		.loc 1 368 2 view .LVU491
 2123 0acc 2A46     		mov	r2, r5
 2124 0ace 0221     		movs	r1, #2
 2125 0ad0 A06D     		ldr	r0, [r4, #88]
 2126 0ad2 FFF7FEFF 		bl	lv_obj_set_style_text_letter_space
 2127              	.LVL278:
 369:generated/setup_scr_wave_model.c **** 	lv_obj_set_style_text_line_space(ui->wave_model_two, 0, LV_PART_MAIN | LV_STATE_DEFAULT);
 2128              		.loc 1 369 2 view .LVU492
 2129 0ad6 2A46     		mov	r2, r5
 2130 0ad8 2946     		mov	r1, r5
 2131 0ada A06D     		ldr	r0, [r4, #88]
 2132 0adc FFF7FEFF 		bl	lv_obj_set_style_text_line_space
 2133              	.LVL279:
 370:generated/setup_scr_wave_model.c **** 	lv_obj_set_style_text_align(ui->wave_model_two, LV_TEXT_ALIGN_CENTER, LV_PART_MAIN | LV_STATE_DEFA
 2134              		.loc 1 370 2 view .LVU493
 2135 0ae0 2A46     		mov	r2, r5
 2136 0ae2 0221     		movs	r1, #2
 2137 0ae4 A06D     		ldr	r0, [r4, #88]
 2138 0ae6 FFF7FEFF 		bl	lv_obj_set_style_text_align
 2139              	.LVL280:
 371:generated/setup_scr_wave_model.c **** 	lv_obj_set_style_bg_opa(ui->wave_model_two, 0, LV_PART_MAIN | LV_STATE_DEFAULT);
ARM GAS  C:\usertemp\cchE30wT.s 			page 61


 2140              		.loc 1 371 2 view .LVU494
 2141 0aea 2A46     		mov	r2, r5
 2142 0aec 2946     		mov	r1, r5
 2143 0aee A06D     		ldr	r0, [r4, #88]
 2144 0af0 FFF7FEFF 		bl	lv_obj_set_style_bg_opa
 2145              	.LVL281:
 372:generated/setup_scr_wave_model.c **** 	lv_obj_set_style_pad_top(ui->wave_model_two, 0, LV_PART_MAIN | LV_STATE_DEFAULT);
 2146              		.loc 1 372 2 view .LVU495
 2147 0af4 2A46     		mov	r2, r5
 2148 0af6 2946     		mov	r1, r5
 2149 0af8 A06D     		ldr	r0, [r4, #88]
 2150 0afa FFF7FEFF 		bl	lv_obj_set_style_pad_top
 2151              	.LVL282:
 373:generated/setup_scr_wave_model.c **** 	lv_obj_set_style_pad_right(ui->wave_model_two, 0, LV_PART_MAIN | LV_STATE_DEFAULT);
 2152              		.loc 1 373 2 view .LVU496
 2153 0afe 2A46     		mov	r2, r5
 2154 0b00 2946     		mov	r1, r5
 2155 0b02 A06D     		ldr	r0, [r4, #88]
 2156 0b04 FFF7FEFF 		bl	lv_obj_set_style_pad_right
 2157              	.LVL283:
 374:generated/setup_scr_wave_model.c **** 	lv_obj_set_style_pad_bottom(ui->wave_model_two, 0, LV_PART_MAIN | LV_STATE_DEFAULT);
 2158              		.loc 1 374 2 view .LVU497
 2159 0b08 2A46     		mov	r2, r5
 2160 0b0a 2946     		mov	r1, r5
 2161 0b0c A06D     		ldr	r0, [r4, #88]
 2162 0b0e FFF7FEFF 		bl	lv_obj_set_style_pad_bottom
 2163              	.LVL284:
 375:generated/setup_scr_wave_model.c **** 	lv_obj_set_style_pad_left(ui->wave_model_two, 0, LV_PART_MAIN | LV_STATE_DEFAULT);
 2164              		.loc 1 375 2 view .LVU498
 2165 0b12 2A46     		mov	r2, r5
 2166 0b14 2946     		mov	r1, r5
 2167 0b16 A06D     		ldr	r0, [r4, #88]
 2168 0b18 FFF7FEFF 		bl	lv_obj_set_style_pad_left
 2169              	.LVL285:
 376:generated/setup_scr_wave_model.c **** 	lv_obj_set_style_shadow_width(ui->wave_model_two, 0, LV_PART_MAIN | LV_STATE_DEFAULT);
 2170              		.loc 1 376 2 view .LVU499
 2171 0b1c 2A46     		mov	r2, r5
 2172 0b1e 2946     		mov	r1, r5
 2173 0b20 A06D     		ldr	r0, [r4, #88]
 2174 0b22 FFF7FEFF 		bl	lv_obj_set_style_shadow_width
 2175              	.LVL286:
 377:generated/setup_scr_wave_model.c **** 
 378:generated/setup_scr_wave_model.c **** 	// Write codes wave_model_three
 379:generated/setup_scr_wave_model.c **** 	ui->wave_model_three = lv_label_create(ui->wave_model);
 2176              		.loc 1 379 2 view .LVU500
 2177              		.loc 1 379 25 is_stmt 0 view .LVU501
 2178 0b26 2068     		ldr	r0, [r4]
 2179 0b28 FFF7FEFF 		bl	lv_label_create
 2180              	.LVL287:
 2181              		.loc 1 379 23 discriminator 1 view .LVU502
 2182 0b2c E065     		str	r0, [r4, #92]
 380:generated/setup_scr_wave_model.c **** 	lv_label_set_text(ui->wave_model_three, "3");
 2183              		.loc 1 380 2 is_stmt 1 view .LVU503
 2184 0b2e A749     		ldr	r1, .L13+8
 2185 0b30 FFF7FEFF 		bl	lv_label_set_text
 2186              	.LVL288:
 381:generated/setup_scr_wave_model.c **** 	lv_label_set_long_mode(ui->wave_model_three, LV_LABEL_LONG_WRAP);
ARM GAS  C:\usertemp\cchE30wT.s 			page 62


 2187              		.loc 1 381 2 view .LVU504
 2188 0b34 2946     		mov	r1, r5
 2189 0b36 E06D     		ldr	r0, [r4, #92]
 2190 0b38 FFF7FEFF 		bl	lv_label_set_long_mode
 2191              	.LVL289:
 382:generated/setup_scr_wave_model.c **** 	lv_obj_set_pos(ui->wave_model_three, 300, 28);
 2192              		.loc 1 382 2 view .LVU505
 2193 0b3c 1C22     		movs	r2, #28
 2194 0b3e 4FF49671 		mov	r1, #300
 2195 0b42 E06D     		ldr	r0, [r4, #92]
 2196 0b44 FFF7FEFF 		bl	lv_obj_set_pos
 2197              	.LVL290:
 383:generated/setup_scr_wave_model.c **** 	lv_obj_set_size(ui->wave_model_three, 100, 32);
 2198              		.loc 1 383 2 view .LVU506
 2199 0b48 2022     		movs	r2, #32
 2200 0b4a 6421     		movs	r1, #100
 2201 0b4c E06D     		ldr	r0, [r4, #92]
 2202 0b4e FFF7FEFF 		bl	lv_obj_set_size
 2203              	.LVL291:
 384:generated/setup_scr_wave_model.c **** 
 385:generated/setup_scr_wave_model.c **** 	// Write style for wave_model_three, Part: LV_PART_MAIN, State: LV_STATE_DEFAULT.
 386:generated/setup_scr_wave_model.c **** 	lv_obj_set_style_border_width(ui->wave_model_three, 0, LV_PART_MAIN | LV_STATE_DEFAULT);
 2204              		.loc 1 386 2 view .LVU507
 2205 0b52 2A46     		mov	r2, r5
 2206 0b54 2946     		mov	r1, r5
 2207 0b56 E06D     		ldr	r0, [r4, #92]
 2208 0b58 FFF7FEFF 		bl	lv_obj_set_style_border_width
 2209              	.LVL292:
 387:generated/setup_scr_wave_model.c **** 	lv_obj_set_style_radius(ui->wave_model_three, 0, LV_PART_MAIN | LV_STATE_DEFAULT);
 2210              		.loc 1 387 2 view .LVU508
 2211 0b5c 2A46     		mov	r2, r5
 2212 0b5e 2946     		mov	r1, r5
 2213 0b60 E06D     		ldr	r0, [r4, #92]
 2214 0b62 FFF7FEFF 		bl	lv_obj_set_style_radius
 2215              	.LVL293:
 388:generated/setup_scr_wave_model.c **** 	lv_obj_set_style_text_color(ui->wave_model_three, lv_color_hex(0x000000), LV_PART_MAIN | LV_STATE_
 2216              		.loc 1 388 2 view .LVU509
 2217              	.LBB202:
 2218              	.LBI202:
 597:lvgl/src/hal/../draw/../misc/lv_color.h **** {
 2219              		.loc 3 597 26 view .LVU510
 2220              	.LBB203:
 600:lvgl/src/hal/../draw/../misc/lv_color.h **** #if LV_COLOR_16_SWAP == 0
 2221              		.loc 3 600 5 view .LVU511
 616:lvgl/src/hal/../draw/../misc/lv_color.h **** #else
 2222              		.loc 3 616 5 view .LVU512
 2223              		.loc 3 621 5 view .LVU513
 2224              		.loc 3 621 5 is_stmt 0 view .LVU514
 2225              	.LBE203:
 2226              	.LBE202:
 2227              		.loc 1 388 2 discriminator 1 view .LVU515
 2228 0b66 2A46     		mov	r2, r5
 2229 0b68 2946     		mov	r1, r5	@ movhi
 2230 0b6a E06D     		ldr	r0, [r4, #92]
 2231 0b6c FFF7FEFF 		bl	lv_obj_set_style_text_color
 2232              	.LVL294:
 389:generated/setup_scr_wave_model.c **** 	lv_obj_set_style_text_font(ui->wave_model_three, &lv_font_arial_32, LV_PART_MAIN | LV_STATE_DEFAUL
ARM GAS  C:\usertemp\cchE30wT.s 			page 63


 2233              		.loc 1 389 2 is_stmt 1 view .LVU516
 2234 0b70 2A46     		mov	r2, r5
 2235 0b72 3146     		mov	r1, r6
 2236 0b74 E06D     		ldr	r0, [r4, #92]
 2237 0b76 FFF7FEFF 		bl	lv_obj_set_style_text_font
 2238              	.LVL295:
 390:generated/setup_scr_wave_model.c **** 	lv_obj_set_style_text_letter_space(ui->wave_model_three, 2, LV_PART_MAIN | LV_STATE_DEFAULT);
 2239              		.loc 1 390 2 view .LVU517
 2240 0b7a 2A46     		mov	r2, r5
 2241 0b7c 0221     		movs	r1, #2
 2242 0b7e E06D     		ldr	r0, [r4, #92]
 2243 0b80 FFF7FEFF 		bl	lv_obj_set_style_text_letter_space
 2244              	.LVL296:
 391:generated/setup_scr_wave_model.c **** 	lv_obj_set_style_text_line_space(ui->wave_model_three, 0, LV_PART_MAIN | LV_STATE_DEFAULT);
 2245              		.loc 1 391 2 view .LVU518
 2246 0b84 2A46     		mov	r2, r5
 2247 0b86 2946     		mov	r1, r5
 2248 0b88 E06D     		ldr	r0, [r4, #92]
 2249 0b8a FFF7FEFF 		bl	lv_obj_set_style_text_line_space
 2250              	.LVL297:
 392:generated/setup_scr_wave_model.c **** 	lv_obj_set_style_text_align(ui->wave_model_three, LV_TEXT_ALIGN_CENTER, LV_PART_MAIN | LV_STATE_DE
 2251              		.loc 1 392 2 view .LVU519
 2252 0b8e 2A46     		mov	r2, r5
 2253 0b90 0221     		movs	r1, #2
 2254 0b92 E06D     		ldr	r0, [r4, #92]
 2255 0b94 FFF7FEFF 		bl	lv_obj_set_style_text_align
 2256              	.LVL298:
 393:generated/setup_scr_wave_model.c **** 	lv_obj_set_style_bg_opa(ui->wave_model_three, 0, LV_PART_MAIN | LV_STATE_DEFAULT);
 2257              		.loc 1 393 2 view .LVU520
 2258 0b98 2A46     		mov	r2, r5
 2259 0b9a 2946     		mov	r1, r5
 2260 0b9c E06D     		ldr	r0, [r4, #92]
 2261 0b9e FFF7FEFF 		bl	lv_obj_set_style_bg_opa
 2262              	.LVL299:
 394:generated/setup_scr_wave_model.c **** 	lv_obj_set_style_pad_top(ui->wave_model_three, 0, LV_PART_MAIN | LV_STATE_DEFAULT);
 2263              		.loc 1 394 2 view .LVU521
 2264 0ba2 2A46     		mov	r2, r5
 2265 0ba4 2946     		mov	r1, r5
 2266 0ba6 E06D     		ldr	r0, [r4, #92]
 2267 0ba8 FFF7FEFF 		bl	lv_obj_set_style_pad_top
 2268              	.LVL300:
 395:generated/setup_scr_wave_model.c **** 	lv_obj_set_style_pad_right(ui->wave_model_three, 0, LV_PART_MAIN | LV_STATE_DEFAULT);
 2269              		.loc 1 395 2 view .LVU522
 2270 0bac 2A46     		mov	r2, r5
 2271 0bae 2946     		mov	r1, r5
 2272 0bb0 E06D     		ldr	r0, [r4, #92]
 2273 0bb2 FFF7FEFF 		bl	lv_obj_set_style_pad_right
 2274              	.LVL301:
 396:generated/setup_scr_wave_model.c **** 	lv_obj_set_style_pad_bottom(ui->wave_model_three, 0, LV_PART_MAIN | LV_STATE_DEFAULT);
 2275              		.loc 1 396 2 view .LVU523
 2276 0bb6 2A46     		mov	r2, r5
 2277 0bb8 2946     		mov	r1, r5
 2278 0bba E06D     		ldr	r0, [r4, #92]
 2279 0bbc FFF7FEFF 		bl	lv_obj_set_style_pad_bottom
 2280              	.LVL302:
 397:generated/setup_scr_wave_model.c **** 	lv_obj_set_style_pad_left(ui->wave_model_three, 0, LV_PART_MAIN | LV_STATE_DEFAULT);
 2281              		.loc 1 397 2 view .LVU524
ARM GAS  C:\usertemp\cchE30wT.s 			page 64


 2282 0bc0 2A46     		mov	r2, r5
 2283 0bc2 2946     		mov	r1, r5
 2284 0bc4 E06D     		ldr	r0, [r4, #92]
 2285 0bc6 FFF7FEFF 		bl	lv_obj_set_style_pad_left
 2286              	.LVL303:
 398:generated/setup_scr_wave_model.c **** 	lv_obj_set_style_shadow_width(ui->wave_model_three, 0, LV_PART_MAIN | LV_STATE_DEFAULT);
 2287              		.loc 1 398 2 view .LVU525
 2288 0bca 2A46     		mov	r2, r5
 2289 0bcc 2946     		mov	r1, r5
 2290 0bce E06D     		ldr	r0, [r4, #92]
 2291 0bd0 FFF7FEFF 		bl	lv_obj_set_style_shadow_width
 2292              	.LVL304:
 399:generated/setup_scr_wave_model.c **** 
 400:generated/setup_scr_wave_model.c **** 	// Write codes wave_model_N__
 401:generated/setup_scr_wave_model.c **** 	ui->wave_model_N__ = lv_label_create(ui->wave_model);
 2293              		.loc 1 401 2 view .LVU526
 2294              		.loc 1 401 23 is_stmt 0 view .LVU527
 2295 0bd4 2068     		ldr	r0, [r4]
 2296 0bd6 FFF7FEFF 		bl	lv_label_create
 2297              	.LVL305:
 2298              		.loc 1 401 21 discriminator 1 view .LVU528
 2299 0bda 2066     		str	r0, [r4, #96]
 402:generated/setup_scr_wave_model.c **** 	lv_label_set_text(ui->wave_model_N__, "N");
 2300              		.loc 1 402 2 is_stmt 1 view .LVU529
 2301 0bdc 7C49     		ldr	r1, .L13+12
 2302 0bde FFF7FEFF 		bl	lv_label_set_text
 2303              	.LVL306:
 403:generated/setup_scr_wave_model.c **** 	lv_label_set_long_mode(ui->wave_model_N__, LV_LABEL_LONG_WRAP);
 2304              		.loc 1 403 2 view .LVU530
 2305 0be2 2946     		mov	r1, r5
 2306 0be4 206E     		ldr	r0, [r4, #96]
 2307 0be6 FFF7FEFF 		bl	lv_label_set_long_mode
 2308              	.LVL307:
 404:generated/setup_scr_wave_model.c **** 	lv_obj_set_pos(ui->wave_model_N__, 460, 29);
 2309              		.loc 1 404 2 view .LVU531
 2310 0bea 1D22     		movs	r2, #29
 2311 0bec 4FF4E671 		mov	r1, #460
 2312 0bf0 206E     		ldr	r0, [r4, #96]
 2313 0bf2 FFF7FEFF 		bl	lv_obj_set_pos
 2314              	.LVL308:
 405:generated/setup_scr_wave_model.c **** 	lv_obj_set_size(ui->wave_model_N__, 100, 32);
 2315              		.loc 1 405 2 view .LVU532
 2316 0bf6 2022     		movs	r2, #32
 2317 0bf8 6421     		movs	r1, #100
 2318 0bfa 206E     		ldr	r0, [r4, #96]
 2319 0bfc FFF7FEFF 		bl	lv_obj_set_size
 2320              	.LVL309:
 406:generated/setup_scr_wave_model.c **** 
 407:generated/setup_scr_wave_model.c **** 	// Write style for wave_model_N__, Part: LV_PART_MAIN, State: LV_STATE_DEFAULT.
 408:generated/setup_scr_wave_model.c **** 	lv_obj_set_style_border_width(ui->wave_model_N__, 0, LV_PART_MAIN | LV_STATE_DEFAULT);
 2321              		.loc 1 408 2 view .LVU533
 2322 0c00 2A46     		mov	r2, r5
 2323 0c02 2946     		mov	r1, r5
 2324 0c04 206E     		ldr	r0, [r4, #96]
 2325 0c06 FFF7FEFF 		bl	lv_obj_set_style_border_width
 2326              	.LVL310:
 409:generated/setup_scr_wave_model.c **** 	lv_obj_set_style_radius(ui->wave_model_N__, 0, LV_PART_MAIN | LV_STATE_DEFAULT);
ARM GAS  C:\usertemp\cchE30wT.s 			page 65


 2327              		.loc 1 409 2 view .LVU534
 2328 0c0a 2A46     		mov	r2, r5
 2329 0c0c 2946     		mov	r1, r5
 2330 0c0e 206E     		ldr	r0, [r4, #96]
 2331 0c10 FFF7FEFF 		bl	lv_obj_set_style_radius
 2332              	.LVL311:
 410:generated/setup_scr_wave_model.c **** 	lv_obj_set_style_text_color(ui->wave_model_N__, lv_color_hex(0x000000), LV_PART_MAIN | LV_STATE_DE
 2333              		.loc 1 410 2 view .LVU535
 2334              	.LBB204:
 2335              	.LBI204:
 597:lvgl/src/hal/../draw/../misc/lv_color.h **** {
 2336              		.loc 3 597 26 view .LVU536
 2337              	.LBB205:
 600:lvgl/src/hal/../draw/../misc/lv_color.h **** #if LV_COLOR_16_SWAP == 0
 2338              		.loc 3 600 5 view .LVU537
 616:lvgl/src/hal/../draw/../misc/lv_color.h **** #else
 2339              		.loc 3 616 5 view .LVU538
 2340              		.loc 3 621 5 view .LVU539
 2341              		.loc 3 621 5 is_stmt 0 view .LVU540
 2342              	.LBE205:
 2343              	.LBE204:
 2344              		.loc 1 410 2 discriminator 1 view .LVU541
 2345 0c14 2A46     		mov	r2, r5
 2346 0c16 2946     		mov	r1, r5	@ movhi
 2347 0c18 206E     		ldr	r0, [r4, #96]
 2348 0c1a FFF7FEFF 		bl	lv_obj_set_style_text_color
 2349              	.LVL312:
 411:generated/setup_scr_wave_model.c **** 	lv_obj_set_style_text_font(ui->wave_model_N__, &lv_font_arial_32, LV_PART_MAIN | LV_STATE_DEFAULT)
 2350              		.loc 1 411 2 is_stmt 1 view .LVU542
 2351 0c1e 2A46     		mov	r2, r5
 2352 0c20 3146     		mov	r1, r6
 2353 0c22 206E     		ldr	r0, [r4, #96]
 2354 0c24 FFF7FEFF 		bl	lv_obj_set_style_text_font
 2355              	.LVL313:
 412:generated/setup_scr_wave_model.c **** 	lv_obj_set_style_text_letter_space(ui->wave_model_N__, 2, LV_PART_MAIN | LV_STATE_DEFAULT);
 2356              		.loc 1 412 2 view .LVU543
 2357 0c28 2A46     		mov	r2, r5
 2358 0c2a 0221     		movs	r1, #2
 2359 0c2c 206E     		ldr	r0, [r4, #96]
 2360 0c2e FFF7FEFF 		bl	lv_obj_set_style_text_letter_space
 2361              	.LVL314:
 413:generated/setup_scr_wave_model.c **** 	lv_obj_set_style_text_line_space(ui->wave_model_N__, 0, LV_PART_MAIN | LV_STATE_DEFAULT);
 2362              		.loc 1 413 2 view .LVU544
 2363 0c32 2A46     		mov	r2, r5
 2364 0c34 2946     		mov	r1, r5
 2365 0c36 206E     		ldr	r0, [r4, #96]
 2366 0c38 FFF7FEFF 		bl	lv_obj_set_style_text_line_space
 2367              	.LVL315:
 414:generated/setup_scr_wave_model.c **** 	lv_obj_set_style_text_align(ui->wave_model_N__, LV_TEXT_ALIGN_CENTER, LV_PART_MAIN | LV_STATE_DEFA
 2368              		.loc 1 414 2 view .LVU545
 2369 0c3c 2A46     		mov	r2, r5
 2370 0c3e 0221     		movs	r1, #2
 2371 0c40 206E     		ldr	r0, [r4, #96]
 2372 0c42 FFF7FEFF 		bl	lv_obj_set_style_text_align
 2373              	.LVL316:
 415:generated/setup_scr_wave_model.c **** 	lv_obj_set_style_bg_opa(ui->wave_model_N__, 0, LV_PART_MAIN | LV_STATE_DEFAULT);
 2374              		.loc 1 415 2 view .LVU546
ARM GAS  C:\usertemp\cchE30wT.s 			page 66


 2375 0c46 2A46     		mov	r2, r5
 2376 0c48 2946     		mov	r1, r5
 2377 0c4a 206E     		ldr	r0, [r4, #96]
 2378 0c4c FFF7FEFF 		bl	lv_obj_set_style_bg_opa
 2379              	.LVL317:
 416:generated/setup_scr_wave_model.c **** 	lv_obj_set_style_pad_top(ui->wave_model_N__, 0, LV_PART_MAIN | LV_STATE_DEFAULT);
 2380              		.loc 1 416 2 view .LVU547
 2381 0c50 2A46     		mov	r2, r5
 2382 0c52 2946     		mov	r1, r5
 2383 0c54 206E     		ldr	r0, [r4, #96]
 2384 0c56 FFF7FEFF 		bl	lv_obj_set_style_pad_top
 2385              	.LVL318:
 417:generated/setup_scr_wave_model.c **** 	lv_obj_set_style_pad_right(ui->wave_model_N__, 0, LV_PART_MAIN | LV_STATE_DEFAULT);
 2386              		.loc 1 417 2 view .LVU548
 2387 0c5a 2A46     		mov	r2, r5
 2388 0c5c 2946     		mov	r1, r5
 2389 0c5e 206E     		ldr	r0, [r4, #96]
 2390 0c60 FFF7FEFF 		bl	lv_obj_set_style_pad_right
 2391              	.LVL319:
 418:generated/setup_scr_wave_model.c **** 	lv_obj_set_style_pad_bottom(ui->wave_model_N__, 0, LV_PART_MAIN | LV_STATE_DEFAULT);
 2392              		.loc 1 418 2 view .LVU549
 2393 0c64 2A46     		mov	r2, r5
 2394 0c66 2946     		mov	r1, r5
 2395 0c68 206E     		ldr	r0, [r4, #96]
 2396 0c6a FFF7FEFF 		bl	lv_obj_set_style_pad_bottom
 2397              	.LVL320:
 419:generated/setup_scr_wave_model.c **** 	lv_obj_set_style_pad_left(ui->wave_model_N__, 0, LV_PART_MAIN | LV_STATE_DEFAULT);
 2398              		.loc 1 419 2 view .LVU550
 2399 0c6e 2A46     		mov	r2, r5
 2400 0c70 2946     		mov	r1, r5
 2401 0c72 206E     		ldr	r0, [r4, #96]
 2402 0c74 FFF7FEFF 		bl	lv_obj_set_style_pad_left
 2403              	.LVL321:
 420:generated/setup_scr_wave_model.c **** 	lv_obj_set_style_shadow_width(ui->wave_model_N__, 0, LV_PART_MAIN | LV_STATE_DEFAULT);
 2404              		.loc 1 420 2 view .LVU551
 2405 0c78 2A46     		mov	r2, r5
 2406 0c7a 2946     		mov	r1, r5
 2407 0c7c 206E     		ldr	r0, [r4, #96]
 2408 0c7e FFF7FEFF 		bl	lv_obj_set_style_shadow_width
 2409              	.LVL322:
 421:generated/setup_scr_wave_model.c **** 
 422:generated/setup_scr_wave_model.c **** 	// Write codes wave_model_one_value
 423:generated/setup_scr_wave_model.c **** 	ui->wave_model_one_value = lv_label_create(ui->wave_model);
 2410              		.loc 1 423 2 view .LVU552
 2411              		.loc 1 423 29 is_stmt 0 view .LVU553
 2412 0c82 2068     		ldr	r0, [r4]
 2413 0c84 FFF7FEFF 		bl	lv_label_create
 2414              	.LVL323:
 2415              		.loc 1 423 27 discriminator 1 view .LVU554
 2416 0c88 6066     		str	r0, [r4, #100]
 424:generated/setup_scr_wave_model.c **** 	lv_label_set_text(ui->wave_model_one_value, "000.0V");
 2417              		.loc 1 424 2 is_stmt 1 view .LVU555
 2418 0c8a 524F     		ldr	r7, .L13+16
 2419 0c8c 3946     		mov	r1, r7
 2420 0c8e FFF7FEFF 		bl	lv_label_set_text
 2421              	.LVL324:
 425:generated/setup_scr_wave_model.c **** 	lv_label_set_long_mode(ui->wave_model_one_value, LV_LABEL_LONG_WRAP);
ARM GAS  C:\usertemp\cchE30wT.s 			page 67


 2422              		.loc 1 425 2 view .LVU556
 2423 0c92 2946     		mov	r1, r5
 2424 0c94 606E     		ldr	r0, [r4, #100]
 2425 0c96 FFF7FEFF 		bl	lv_label_set_long_mode
 2426              	.LVL325:
 426:generated/setup_scr_wave_model.c **** 	lv_obj_set_pos(ui->wave_model_one_value, 47, 31);
 2427              		.loc 1 426 2 view .LVU557
 2428 0c9a 4246     		mov	r2, r8
 2429 0c9c 2F21     		movs	r1, #47
 2430 0c9e 606E     		ldr	r0, [r4, #100]
 2431 0ca0 FFF7FEFF 		bl	lv_obj_set_pos
 2432              	.LVL326:
 427:generated/setup_scr_wave_model.c **** 	lv_obj_set_size(ui->wave_model_one_value, 120, 30);
 2433              		.loc 1 427 2 view .LVU558
 2434 0ca4 1E22     		movs	r2, #30
 2435 0ca6 7821     		movs	r1, #120
 2436 0ca8 606E     		ldr	r0, [r4, #100]
 2437 0caa FFF7FEFF 		bl	lv_obj_set_size
 2438              	.LVL327:
 428:generated/setup_scr_wave_model.c **** 
 429:generated/setup_scr_wave_model.c **** 	// Write style for wave_model_one_value, Part: LV_PART_MAIN, State: LV_STATE_DEFAULT.
 430:generated/setup_scr_wave_model.c **** 	lv_obj_set_style_border_width(ui->wave_model_one_value, 0, LV_PART_MAIN | LV_STATE_DEFAULT);
 2439              		.loc 1 430 2 view .LVU559
 2440 0cae 2A46     		mov	r2, r5
 2441 0cb0 2946     		mov	r1, r5
 2442 0cb2 606E     		ldr	r0, [r4, #100]
 2443 0cb4 FFF7FEFF 		bl	lv_obj_set_style_border_width
 2444              	.LVL328:
 431:generated/setup_scr_wave_model.c **** 	lv_obj_set_style_radius(ui->wave_model_one_value, 0, LV_PART_MAIN | LV_STATE_DEFAULT);
 2445              		.loc 1 431 2 view .LVU560
 2446 0cb8 2A46     		mov	r2, r5
 2447 0cba 2946     		mov	r1, r5
 2448 0cbc 606E     		ldr	r0, [r4, #100]
 2449 0cbe FFF7FEFF 		bl	lv_obj_set_style_radius
 2450              	.LVL329:
 432:generated/setup_scr_wave_model.c **** 	lv_obj_set_style_text_color(ui->wave_model_one_value, lv_color_hex(0x000000), LV_PART_MAIN | LV_ST
 2451              		.loc 1 432 2 view .LVU561
 2452              	.LBB206:
 2453              	.LBI206:
 597:lvgl/src/hal/../draw/../misc/lv_color.h **** {
 2454              		.loc 3 597 26 view .LVU562
 2455              	.LBB207:
 600:lvgl/src/hal/../draw/../misc/lv_color.h **** #if LV_COLOR_16_SWAP == 0
 2456              		.loc 3 600 5 view .LVU563
 616:lvgl/src/hal/../draw/../misc/lv_color.h **** #else
 2457              		.loc 3 616 5 view .LVU564
 2458              		.loc 3 621 5 view .LVU565
 2459              		.loc 3 621 5 is_stmt 0 view .LVU566
 2460              	.LBE207:
 2461              	.LBE206:
 2462              		.loc 1 432 2 discriminator 1 view .LVU567
 2463 0cc2 2A46     		mov	r2, r5
 2464 0cc4 2946     		mov	r1, r5	@ movhi
 2465 0cc6 606E     		ldr	r0, [r4, #100]
 2466 0cc8 FFF7FEFF 		bl	lv_obj_set_style_text_color
 2467              	.LVL330:
 433:generated/setup_scr_wave_model.c **** 	lv_obj_set_style_text_font(ui->wave_model_one_value, &lv_font_arial_30, LV_PART_MAIN | LV_STATE_DE
ARM GAS  C:\usertemp\cchE30wT.s 			page 68


 2468              		.loc 1 433 2 is_stmt 1 view .LVU568
 2469 0ccc 424E     		ldr	r6, .L13+20
 2470 0cce 2A46     		mov	r2, r5
 2471 0cd0 3146     		mov	r1, r6
 2472 0cd2 606E     		ldr	r0, [r4, #100]
 2473 0cd4 FFF7FEFF 		bl	lv_obj_set_style_text_font
 2474              	.LVL331:
 434:generated/setup_scr_wave_model.c **** 	lv_obj_set_style_text_letter_space(ui->wave_model_one_value, 2, LV_PART_MAIN | LV_STATE_DEFAULT);
 2475              		.loc 1 434 2 view .LVU569
 2476 0cd8 2A46     		mov	r2, r5
 2477 0cda 0221     		movs	r1, #2
 2478 0cdc 606E     		ldr	r0, [r4, #100]
 2479 0cde FFF7FEFF 		bl	lv_obj_set_style_text_letter_space
 2480              	.LVL332:
 435:generated/setup_scr_wave_model.c **** 	lv_obj_set_style_text_line_space(ui->wave_model_one_value, 0, LV_PART_MAIN | LV_STATE_DEFAULT);
 2481              		.loc 1 435 2 view .LVU570
 2482 0ce2 2A46     		mov	r2, r5
 2483 0ce4 2946     		mov	r1, r5
 2484 0ce6 606E     		ldr	r0, [r4, #100]
 2485 0ce8 FFF7FEFF 		bl	lv_obj_set_style_text_line_space
 2486              	.LVL333:
 436:generated/setup_scr_wave_model.c **** 	lv_obj_set_style_text_align(ui->wave_model_one_value, LV_TEXT_ALIGN_LEFT, LV_PART_MAIN | LV_STATE_
 2487              		.loc 1 436 2 view .LVU571
 2488 0cec 2A46     		mov	r2, r5
 2489 0cee 0121     		movs	r1, #1
 2490 0cf0 606E     		ldr	r0, [r4, #100]
 2491 0cf2 FFF7FEFF 		bl	lv_obj_set_style_text_align
 2492              	.LVL334:
 437:generated/setup_scr_wave_model.c **** 	lv_obj_set_style_bg_opa(ui->wave_model_one_value, 0, LV_PART_MAIN | LV_STATE_DEFAULT);
 2493              		.loc 1 437 2 view .LVU572
 2494 0cf6 2A46     		mov	r2, r5
 2495 0cf8 2946     		mov	r1, r5
 2496 0cfa 606E     		ldr	r0, [r4, #100]
 2497 0cfc FFF7FEFF 		bl	lv_obj_set_style_bg_opa
 2498              	.LVL335:
 438:generated/setup_scr_wave_model.c **** 	lv_obj_set_style_pad_top(ui->wave_model_one_value, 0, LV_PART_MAIN | LV_STATE_DEFAULT);
 2499              		.loc 1 438 2 view .LVU573
 2500 0d00 2A46     		mov	r2, r5
 2501 0d02 2946     		mov	r1, r5
 2502 0d04 606E     		ldr	r0, [r4, #100]
 2503 0d06 FFF7FEFF 		bl	lv_obj_set_style_pad_top
 2504              	.LVL336:
 439:generated/setup_scr_wave_model.c **** 	lv_obj_set_style_pad_right(ui->wave_model_one_value, 0, LV_PART_MAIN | LV_STATE_DEFAULT);
 2505              		.loc 1 439 2 view .LVU574
 2506 0d0a 2A46     		mov	r2, r5
 2507 0d0c 2946     		mov	r1, r5
 2508 0d0e 606E     		ldr	r0, [r4, #100]
 2509 0d10 FFF7FEFF 		bl	lv_obj_set_style_pad_right
 2510              	.LVL337:
 440:generated/setup_scr_wave_model.c **** 	lv_obj_set_style_pad_bottom(ui->wave_model_one_value, 0, LV_PART_MAIN | LV_STATE_DEFAULT);
 2511              		.loc 1 440 2 view .LVU575
 2512 0d14 2A46     		mov	r2, r5
 2513 0d16 2946     		mov	r1, r5
 2514 0d18 606E     		ldr	r0, [r4, #100]
 2515 0d1a FFF7FEFF 		bl	lv_obj_set_style_pad_bottom
 2516              	.LVL338:
 441:generated/setup_scr_wave_model.c **** 	lv_obj_set_style_pad_left(ui->wave_model_one_value, 0, LV_PART_MAIN | LV_STATE_DEFAULT);
ARM GAS  C:\usertemp\cchE30wT.s 			page 69


 2517              		.loc 1 441 2 view .LVU576
 2518 0d1e 2A46     		mov	r2, r5
 2519 0d20 2946     		mov	r1, r5
 2520 0d22 606E     		ldr	r0, [r4, #100]
 2521 0d24 FFF7FEFF 		bl	lv_obj_set_style_pad_left
 2522              	.LVL339:
 442:generated/setup_scr_wave_model.c **** 	lv_obj_set_style_shadow_width(ui->wave_model_one_value, 0, LV_PART_MAIN | LV_STATE_DEFAULT);
 2523              		.loc 1 442 2 view .LVU577
 2524 0d28 2A46     		mov	r2, r5
 2525 0d2a 2946     		mov	r1, r5
 2526 0d2c 606E     		ldr	r0, [r4, #100]
 2527 0d2e FFF7FEFF 		bl	lv_obj_set_style_shadow_width
 2528              	.LVL340:
 443:generated/setup_scr_wave_model.c **** 
 444:generated/setup_scr_wave_model.c **** 	// Write codes wave_model_two_value
 445:generated/setup_scr_wave_model.c **** 	ui->wave_model_two_value = lv_label_create(ui->wave_model);
 2529              		.loc 1 445 2 view .LVU578
 2530              		.loc 1 445 29 is_stmt 0 view .LVU579
 2531 0d32 2068     		ldr	r0, [r4]
 2532 0d34 FFF7FEFF 		bl	lv_label_create
 2533              	.LVL341:
 2534              		.loc 1 445 27 discriminator 1 view .LVU580
 2535 0d38 A066     		str	r0, [r4, #104]
 446:generated/setup_scr_wave_model.c **** 	lv_label_set_text(ui->wave_model_two_value, "000.0V");
 2536              		.loc 1 446 2 is_stmt 1 view .LVU581
 2537 0d3a 3946     		mov	r1, r7
 2538 0d3c FFF7FEFF 		bl	lv_label_set_text
 2539              	.LVL342:
 447:generated/setup_scr_wave_model.c **** 	lv_label_set_long_mode(ui->wave_model_two_value, LV_LABEL_LONG_WRAP);
 2540              		.loc 1 447 2 view .LVU582
 2541 0d40 2946     		mov	r1, r5
 2542 0d42 A06E     		ldr	r0, [r4, #104]
 2543 0d44 FFF7FEFF 		bl	lv_label_set_long_mode
 2544              	.LVL343:
 448:generated/setup_scr_wave_model.c **** 	lv_obj_set_pos(ui->wave_model_two_value, 210, 27);
 2545              		.loc 1 448 2 view .LVU583
 2546 0d48 1B22     		movs	r2, #27
 2547 0d4a D221     		movs	r1, #210
 2548 0d4c A06E     		ldr	r0, [r4, #104]
 2549 0d4e FFF7FEFF 		bl	lv_obj_set_pos
 2550              	.LVL344:
 449:generated/setup_scr_wave_model.c **** 	lv_obj_set_size(ui->wave_model_two_value, 120, 30);
 2551              		.loc 1 449 2 view .LVU584
 2552 0d52 1E22     		movs	r2, #30
 2553 0d54 7821     		movs	r1, #120
 2554 0d56 A06E     		ldr	r0, [r4, #104]
 2555 0d58 FFF7FEFF 		bl	lv_obj_set_size
 2556              	.LVL345:
 450:generated/setup_scr_wave_model.c **** 
 451:generated/setup_scr_wave_model.c **** 	// Write style for wave_model_two_value, Part: LV_PART_MAIN, State: LV_STATE_DEFAULT.
 452:generated/setup_scr_wave_model.c **** 	lv_obj_set_style_border_width(ui->wave_model_two_value, 0, LV_PART_MAIN | LV_STATE_DEFAULT);
 2557              		.loc 1 452 2 view .LVU585
 2558 0d5c 2A46     		mov	r2, r5
 2559 0d5e 2946     		mov	r1, r5
 2560 0d60 A06E     		ldr	r0, [r4, #104]
 2561 0d62 FFF7FEFF 		bl	lv_obj_set_style_border_width
 2562              	.LVL346:
ARM GAS  C:\usertemp\cchE30wT.s 			page 70


 453:generated/setup_scr_wave_model.c **** 	lv_obj_set_style_radius(ui->wave_model_two_value, 0, LV_PART_MAIN | LV_STATE_DEFAULT);
 2563              		.loc 1 453 2 view .LVU586
 2564 0d66 2A46     		mov	r2, r5
 2565 0d68 2946     		mov	r1, r5
 2566 0d6a A06E     		ldr	r0, [r4, #104]
 2567 0d6c FFF7FEFF 		bl	lv_obj_set_style_radius
 2568              	.LVL347:
 454:generated/setup_scr_wave_model.c **** 	lv_obj_set_style_text_color(ui->wave_model_two_value, lv_color_hex(0x000000), LV_PART_MAIN | LV_ST
 2569              		.loc 1 454 2 view .LVU587
 2570              	.LBB208:
 2571              	.LBI208:
 597:lvgl/src/hal/../draw/../misc/lv_color.h **** {
 2572              		.loc 3 597 26 view .LVU588
 2573              	.LBB209:
 600:lvgl/src/hal/../draw/../misc/lv_color.h **** #if LV_COLOR_16_SWAP == 0
 2574              		.loc 3 600 5 view .LVU589
 616:lvgl/src/hal/../draw/../misc/lv_color.h **** #else
 2575              		.loc 3 616 5 view .LVU590
 2576              		.loc 3 621 5 view .LVU591
 2577              		.loc 3 621 5 is_stmt 0 view .LVU592
 2578              	.LBE209:
 2579              	.LBE208:
 2580              		.loc 1 454 2 discriminator 1 view .LVU593
 2581 0d70 2A46     		mov	r2, r5
 2582 0d72 2946     		mov	r1, r5	@ movhi
 2583 0d74 A06E     		ldr	r0, [r4, #104]
 2584 0d76 FFF7FEFF 		bl	lv_obj_set_style_text_color
 2585              	.LVL348:
 455:generated/setup_scr_wave_model.c **** 	lv_obj_set_style_text_font(ui->wave_model_two_value, &lv_font_arial_30, LV_PART_MAIN | LV_STATE_DE
 2586              		.loc 1 455 2 is_stmt 1 view .LVU594
 2587 0d7a 2A46     		mov	r2, r5
 2588 0d7c 3146     		mov	r1, r6
 2589 0d7e A06E     		ldr	r0, [r4, #104]
 2590 0d80 FFF7FEFF 		bl	lv_obj_set_style_text_font
 2591              	.LVL349:
 456:generated/setup_scr_wave_model.c **** 	lv_obj_set_style_text_letter_space(ui->wave_model_two_value, 2, LV_PART_MAIN | LV_STATE_DEFAULT);
 2592              		.loc 1 456 2 view .LVU595
 2593 0d84 2A46     		mov	r2, r5
 2594 0d86 0221     		movs	r1, #2
 2595 0d88 A06E     		ldr	r0, [r4, #104]
 2596 0d8a FFF7FEFF 		bl	lv_obj_set_style_text_letter_space
 2597              	.LVL350:
 457:generated/setup_scr_wave_model.c **** 	lv_obj_set_style_text_line_space(ui->wave_model_two_value, 0, LV_PART_MAIN | LV_STATE_DEFAULT);
 2598              		.loc 1 457 2 view .LVU596
 2599 0d8e 2A46     		mov	r2, r5
 2600 0d90 2946     		mov	r1, r5
 2601 0d92 A06E     		ldr	r0, [r4, #104]
 2602 0d94 FFF7FEFF 		bl	lv_obj_set_style_text_line_space
 2603              	.LVL351:
 458:generated/setup_scr_wave_model.c **** 	lv_obj_set_style_text_align(ui->wave_model_two_value, LV_TEXT_ALIGN_LEFT, LV_PART_MAIN | LV_STATE_
 2604              		.loc 1 458 2 view .LVU597
 2605 0d98 2A46     		mov	r2, r5
 2606 0d9a 0121     		movs	r1, #1
 2607 0d9c A06E     		ldr	r0, [r4, #104]
 2608 0d9e FFF7FEFF 		bl	lv_obj_set_style_text_align
 2609              	.LVL352:
 459:generated/setup_scr_wave_model.c **** 	lv_obj_set_style_bg_opa(ui->wave_model_two_value, 0, LV_PART_MAIN | LV_STATE_DEFAULT);
ARM GAS  C:\usertemp\cchE30wT.s 			page 71


 2610              		.loc 1 459 2 view .LVU598
 2611 0da2 2A46     		mov	r2, r5
 2612 0da4 2946     		mov	r1, r5
 2613 0da6 A06E     		ldr	r0, [r4, #104]
 2614 0da8 FFF7FEFF 		bl	lv_obj_set_style_bg_opa
 2615              	.LVL353:
 460:generated/setup_scr_wave_model.c **** 	lv_obj_set_style_pad_top(ui->wave_model_two_value, 0, LV_PART_MAIN | LV_STATE_DEFAULT);
 2616              		.loc 1 460 2 view .LVU599
 2617 0dac 2A46     		mov	r2, r5
 2618 0dae 2946     		mov	r1, r5
 2619 0db0 A06E     		ldr	r0, [r4, #104]
 2620 0db2 FFF7FEFF 		bl	lv_obj_set_style_pad_top
 2621              	.LVL354:
 461:generated/setup_scr_wave_model.c **** 	lv_obj_set_style_pad_right(ui->wave_model_two_value, 0, LV_PART_MAIN | LV_STATE_DEFAULT);
 2622              		.loc 1 461 2 view .LVU600
 2623 0db6 2A46     		mov	r2, r5
 2624 0db8 2946     		mov	r1, r5
 2625 0dba A06E     		ldr	r0, [r4, #104]
 2626 0dbc FFF7FEFF 		bl	lv_obj_set_style_pad_right
 2627              	.LVL355:
 2628 0dc0 0CE0     		b	.L14
 2629              	.L15:
 2630 0dc2 00BF     		.align	2
 2631              	.L13:
 2632 0dc4 2C000000 		.word	.LC9
 2633 0dc8 00000000 		.word	lv_font_arial_32
 2634 0dcc 30000000 		.word	.LC10
 2635 0dd0 18000000 		.word	.LC6
 2636 0dd4 34000000 		.word	.LC11
 2637 0dd8 00000000 		.word	lv_font_arial_30
 2638              	.L14:
 462:generated/setup_scr_wave_model.c **** 	lv_obj_set_style_pad_bottom(ui->wave_model_two_value, 0, LV_PART_MAIN | LV_STATE_DEFAULT);
 2639              		.loc 1 462 2 view .LVU601
 2640 0ddc 2A46     		mov	r2, r5
 2641 0dde 2946     		mov	r1, r5
 2642 0de0 A06E     		ldr	r0, [r4, #104]
 2643 0de2 FFF7FEFF 		bl	lv_obj_set_style_pad_bottom
 2644              	.LVL356:
 463:generated/setup_scr_wave_model.c **** 	lv_obj_set_style_pad_left(ui->wave_model_two_value, 0, LV_PART_MAIN | LV_STATE_DEFAULT);
 2645              		.loc 1 463 2 view .LVU602
 2646 0de6 2A46     		mov	r2, r5
 2647 0de8 2946     		mov	r1, r5
 2648 0dea A06E     		ldr	r0, [r4, #104]
 2649 0dec FFF7FEFF 		bl	lv_obj_set_style_pad_left
 2650              	.LVL357:
 464:generated/setup_scr_wave_model.c **** 	lv_obj_set_style_shadow_width(ui->wave_model_two_value, 0, LV_PART_MAIN | LV_STATE_DEFAULT);
 2651              		.loc 1 464 2 view .LVU603
 2652 0df0 2A46     		mov	r2, r5
 2653 0df2 2946     		mov	r1, r5
 2654 0df4 A06E     		ldr	r0, [r4, #104]
 2655 0df6 FFF7FEFF 		bl	lv_obj_set_style_shadow_width
 2656              	.LVL358:
 465:generated/setup_scr_wave_model.c **** 
 466:generated/setup_scr_wave_model.c **** 	// Write codes wave_model_three_value
 467:generated/setup_scr_wave_model.c **** 	ui->wave_model_three_value = lv_label_create(ui->wave_model);
 2657              		.loc 1 467 2 view .LVU604
 2658              		.loc 1 467 31 is_stmt 0 view .LVU605
ARM GAS  C:\usertemp\cchE30wT.s 			page 72


 2659 0dfa 2068     		ldr	r0, [r4]
 2660 0dfc FFF7FEFF 		bl	lv_label_create
 2661              	.LVL359:
 2662              		.loc 1 467 29 discriminator 1 view .LVU606
 2663 0e00 E066     		str	r0, [r4, #108]
 468:generated/setup_scr_wave_model.c **** 	lv_label_set_text(ui->wave_model_three_value, "000.0V");
 2664              		.loc 1 468 2 is_stmt 1 view .LVU607
 2665 0e02 3946     		mov	r1, r7
 2666 0e04 FFF7FEFF 		bl	lv_label_set_text
 2667              	.LVL360:
 469:generated/setup_scr_wave_model.c **** 	lv_label_set_long_mode(ui->wave_model_three_value, LV_LABEL_LONG_WRAP);
 2668              		.loc 1 469 2 view .LVU608
 2669 0e08 2946     		mov	r1, r5
 2670 0e0a E06E     		ldr	r0, [r4, #108]
 2671 0e0c FFF7FEFF 		bl	lv_label_set_long_mode
 2672              	.LVL361:
 470:generated/setup_scr_wave_model.c **** 	lv_obj_set_pos(ui->wave_model_three_value, 375, 27);
 2673              		.loc 1 470 2 view .LVU609
 2674 0e10 1B22     		movs	r2, #27
 2675 0e12 40F27711 		movw	r1, #375
 2676 0e16 E06E     		ldr	r0, [r4, #108]
 2677 0e18 FFF7FEFF 		bl	lv_obj_set_pos
 2678              	.LVL362:
 471:generated/setup_scr_wave_model.c **** 	lv_obj_set_size(ui->wave_model_three_value, 120, 90);
 2679              		.loc 1 471 2 view .LVU610
 2680 0e1c 5A22     		movs	r2, #90
 2681 0e1e 7821     		movs	r1, #120
 2682 0e20 E06E     		ldr	r0, [r4, #108]
 2683 0e22 FFF7FEFF 		bl	lv_obj_set_size
 2684              	.LVL363:
 472:generated/setup_scr_wave_model.c **** 
 473:generated/setup_scr_wave_model.c **** 	// Write style for wave_model_three_value, Part: LV_PART_MAIN, State: LV_STATE_DEFAULT.
 474:generated/setup_scr_wave_model.c **** 	lv_obj_set_style_border_width(ui->wave_model_three_value, 0, LV_PART_MAIN | LV_STATE_DEFAULT);
 2685              		.loc 1 474 2 view .LVU611
 2686 0e26 2A46     		mov	r2, r5
 2687 0e28 2946     		mov	r1, r5
 2688 0e2a E06E     		ldr	r0, [r4, #108]
 2689 0e2c FFF7FEFF 		bl	lv_obj_set_style_border_width
 2690              	.LVL364:
 475:generated/setup_scr_wave_model.c **** 	lv_obj_set_style_radius(ui->wave_model_three_value, 0, LV_PART_MAIN | LV_STATE_DEFAULT);
 2691              		.loc 1 475 2 view .LVU612
 2692 0e30 2A46     		mov	r2, r5
 2693 0e32 2946     		mov	r1, r5
 2694 0e34 E06E     		ldr	r0, [r4, #108]
 2695 0e36 FFF7FEFF 		bl	lv_obj_set_style_radius
 2696              	.LVL365:
 476:generated/setup_scr_wave_model.c **** 	lv_obj_set_style_text_color(ui->wave_model_three_value, lv_color_hex(0x000000), LV_PART_MAIN | LV_
 2697              		.loc 1 476 2 view .LVU613
 2698              	.LBB210:
 2699              	.LBI210:
 597:lvgl/src/hal/../draw/../misc/lv_color.h **** {
 2700              		.loc 3 597 26 view .LVU614
 2701              	.LBB211:
 600:lvgl/src/hal/../draw/../misc/lv_color.h **** #if LV_COLOR_16_SWAP == 0
 2702              		.loc 3 600 5 view .LVU615
 616:lvgl/src/hal/../draw/../misc/lv_color.h **** #else
 2703              		.loc 3 616 5 view .LVU616
ARM GAS  C:\usertemp\cchE30wT.s 			page 73


 2704              		.loc 3 621 5 view .LVU617
 2705              		.loc 3 621 5 is_stmt 0 view .LVU618
 2706              	.LBE211:
 2707              	.LBE210:
 2708              		.loc 1 476 2 discriminator 1 view .LVU619
 2709 0e3a 2A46     		mov	r2, r5
 2710 0e3c 2946     		mov	r1, r5	@ movhi
 2711 0e3e E06E     		ldr	r0, [r4, #108]
 2712 0e40 FFF7FEFF 		bl	lv_obj_set_style_text_color
 2713              	.LVL366:
 477:generated/setup_scr_wave_model.c **** 	lv_obj_set_style_text_font(ui->wave_model_three_value, &lv_font_arial_30, LV_PART_MAIN | LV_STATE_
 2714              		.loc 1 477 2 is_stmt 1 view .LVU620
 2715 0e44 2A46     		mov	r2, r5
 2716 0e46 3146     		mov	r1, r6
 2717 0e48 E06E     		ldr	r0, [r4, #108]
 2718 0e4a FFF7FEFF 		bl	lv_obj_set_style_text_font
 2719              	.LVL367:
 478:generated/setup_scr_wave_model.c **** 	lv_obj_set_style_text_letter_space(ui->wave_model_three_value, 2, LV_PART_MAIN | LV_STATE_DEFAULT)
 2720              		.loc 1 478 2 view .LVU621
 2721 0e4e 2A46     		mov	r2, r5
 2722 0e50 0221     		movs	r1, #2
 2723 0e52 E06E     		ldr	r0, [r4, #108]
 2724 0e54 FFF7FEFF 		bl	lv_obj_set_style_text_letter_space
 2725              	.LVL368:
 479:generated/setup_scr_wave_model.c **** 	lv_obj_set_style_text_line_space(ui->wave_model_three_value, 0, LV_PART_MAIN | LV_STATE_DEFAULT);
 2726              		.loc 1 479 2 view .LVU622
 2727 0e58 2A46     		mov	r2, r5
 2728 0e5a 2946     		mov	r1, r5
 2729 0e5c E06E     		ldr	r0, [r4, #108]
 2730 0e5e FFF7FEFF 		bl	lv_obj_set_style_text_line_space
 2731              	.LVL369:
 480:generated/setup_scr_wave_model.c **** 	lv_obj_set_style_text_align(ui->wave_model_three_value, LV_TEXT_ALIGN_LEFT, LV_PART_MAIN | LV_STAT
 2732              		.loc 1 480 2 view .LVU623
 2733 0e62 2A46     		mov	r2, r5
 2734 0e64 0121     		movs	r1, #1
 2735 0e66 E06E     		ldr	r0, [r4, #108]
 2736 0e68 FFF7FEFF 		bl	lv_obj_set_style_text_align
 2737              	.LVL370:
 481:generated/setup_scr_wave_model.c **** 	lv_obj_set_style_bg_opa(ui->wave_model_three_value, 0, LV_PART_MAIN | LV_STATE_DEFAULT);
 2738              		.loc 1 481 2 view .LVU624
 2739 0e6c 2A46     		mov	r2, r5
 2740 0e6e 2946     		mov	r1, r5
 2741 0e70 E06E     		ldr	r0, [r4, #108]
 2742 0e72 FFF7FEFF 		bl	lv_obj_set_style_bg_opa
 2743              	.LVL371:
 482:generated/setup_scr_wave_model.c **** 	lv_obj_set_style_pad_top(ui->wave_model_three_value, 0, LV_PART_MAIN | LV_STATE_DEFAULT);
 2744              		.loc 1 482 2 view .LVU625
 2745 0e76 2A46     		mov	r2, r5
 2746 0e78 2946     		mov	r1, r5
 2747 0e7a E06E     		ldr	r0, [r4, #108]
 2748 0e7c FFF7FEFF 		bl	lv_obj_set_style_pad_top
 2749              	.LVL372:
 483:generated/setup_scr_wave_model.c **** 	lv_obj_set_style_pad_right(ui->wave_model_three_value, 0, LV_PART_MAIN | LV_STATE_DEFAULT);
 2750              		.loc 1 483 2 view .LVU626
 2751 0e80 2A46     		mov	r2, r5
 2752 0e82 2946     		mov	r1, r5
 2753 0e84 E06E     		ldr	r0, [r4, #108]
ARM GAS  C:\usertemp\cchE30wT.s 			page 74


 2754 0e86 FFF7FEFF 		bl	lv_obj_set_style_pad_right
 2755              	.LVL373:
 484:generated/setup_scr_wave_model.c **** 	lv_obj_set_style_pad_bottom(ui->wave_model_three_value, 0, LV_PART_MAIN | LV_STATE_DEFAULT);
 2756              		.loc 1 484 2 view .LVU627
 2757 0e8a 2A46     		mov	r2, r5
 2758 0e8c 2946     		mov	r1, r5
 2759 0e8e E06E     		ldr	r0, [r4, #108]
 2760 0e90 FFF7FEFF 		bl	lv_obj_set_style_pad_bottom
 2761              	.LVL374:
 485:generated/setup_scr_wave_model.c **** 	lv_obj_set_style_pad_left(ui->wave_model_three_value, 0, LV_PART_MAIN | LV_STATE_DEFAULT);
 2762              		.loc 1 485 2 view .LVU628
 2763 0e94 2A46     		mov	r2, r5
 2764 0e96 2946     		mov	r1, r5
 2765 0e98 E06E     		ldr	r0, [r4, #108]
 2766 0e9a FFF7FEFF 		bl	lv_obj_set_style_pad_left
 2767              	.LVL375:
 486:generated/setup_scr_wave_model.c **** 	lv_obj_set_style_shadow_width(ui->wave_model_three_value, 0, LV_PART_MAIN | LV_STATE_DEFAULT);
 2768              		.loc 1 486 2 view .LVU629
 2769 0e9e 2A46     		mov	r2, r5
 2770 0ea0 2946     		mov	r1, r5
 2771 0ea2 E06E     		ldr	r0, [r4, #108]
 2772 0ea4 FFF7FEFF 		bl	lv_obj_set_style_shadow_width
 2773              	.LVL376:
 487:generated/setup_scr_wave_model.c **** 
 488:generated/setup_scr_wave_model.c **** 	// Write codes wave_model_label_21
 489:generated/setup_scr_wave_model.c **** 	ui->wave_model_label_21 = lv_label_create(ui->wave_model);
 2774              		.loc 1 489 2 view .LVU630
 2775              		.loc 1 489 28 is_stmt 0 view .LVU631
 2776 0ea8 2068     		ldr	r0, [r4]
 2777 0eaa FFF7FEFF 		bl	lv_label_create
 2778              	.LVL377:
 2779              		.loc 1 489 26 discriminator 1 view .LVU632
 2780 0eae 2067     		str	r0, [r4, #112]
 490:generated/setup_scr_wave_model.c **** 	lv_label_set_text(ui->wave_model_label_21, "Label");
 2781              		.loc 1 490 2 is_stmt 1 view .LVU633
 2782 0eb0 D849     		ldr	r1, .L16
 2783 0eb2 FFF7FEFF 		bl	lv_label_set_text
 2784              	.LVL378:
 491:generated/setup_scr_wave_model.c **** 	lv_label_set_long_mode(ui->wave_model_label_21, LV_LABEL_LONG_WRAP);
 2785              		.loc 1 491 2 view .LVU634
 2786 0eb6 2946     		mov	r1, r5
 2787 0eb8 206F     		ldr	r0, [r4, #112]
 2788 0eba FFF7FEFF 		bl	lv_label_set_long_mode
 2789              	.LVL379:
 492:generated/setup_scr_wave_model.c **** 	lv_obj_set_pos(ui->wave_model_label_21, 77, 413);
 2790              		.loc 1 492 2 view .LVU635
 2791 0ebe 40F29D12 		movw	r2, #413
 2792 0ec2 4D21     		movs	r1, #77
 2793 0ec4 206F     		ldr	r0, [r4, #112]
 2794 0ec6 FFF7FEFF 		bl	lv_obj_set_pos
 2795              	.LVL380:
 493:generated/setup_scr_wave_model.c **** 	lv_obj_set_size(ui->wave_model_label_21, 108, 27);
 2796              		.loc 1 493 2 view .LVU636
 2797 0eca 1B22     		movs	r2, #27
 2798 0ecc 6C21     		movs	r1, #108
 2799 0ece 206F     		ldr	r0, [r4, #112]
 2800 0ed0 FFF7FEFF 		bl	lv_obj_set_size
ARM GAS  C:\usertemp\cchE30wT.s 			page 75


 2801              	.LVL381:
 494:generated/setup_scr_wave_model.c **** 
 495:generated/setup_scr_wave_model.c **** 	// Write style for wave_model_label_21, Part: LV_PART_MAIN, State: LV_STATE_DEFAULT.
 496:generated/setup_scr_wave_model.c **** 	lv_obj_set_style_border_width(ui->wave_model_label_21, 0, LV_PART_MAIN | LV_STATE_DEFAULT);
 2802              		.loc 1 496 2 view .LVU637
 2803 0ed4 2A46     		mov	r2, r5
 2804 0ed6 2946     		mov	r1, r5
 2805 0ed8 206F     		ldr	r0, [r4, #112]
 2806 0eda FFF7FEFF 		bl	lv_obj_set_style_border_width
 2807              	.LVL382:
 497:generated/setup_scr_wave_model.c **** 	lv_obj_set_style_radius(ui->wave_model_label_21, 0, LV_PART_MAIN | LV_STATE_DEFAULT);
 2808              		.loc 1 497 2 view .LVU638
 2809 0ede 2A46     		mov	r2, r5
 2810 0ee0 2946     		mov	r1, r5
 2811 0ee2 206F     		ldr	r0, [r4, #112]
 2812 0ee4 FFF7FEFF 		bl	lv_obj_set_style_radius
 2813              	.LVL383:
 498:generated/setup_scr_wave_model.c **** 	lv_obj_set_style_text_color(ui->wave_model_label_21, lv_color_hex(0x000000), LV_PART_MAIN | LV_STA
 2814              		.loc 1 498 2 view .LVU639
 2815              	.LBB212:
 2816              	.LBI212:
 597:lvgl/src/hal/../draw/../misc/lv_color.h **** {
 2817              		.loc 3 597 26 view .LVU640
 2818              	.LBB213:
 600:lvgl/src/hal/../draw/../misc/lv_color.h **** #if LV_COLOR_16_SWAP == 0
 2819              		.loc 3 600 5 view .LVU641
 616:lvgl/src/hal/../draw/../misc/lv_color.h **** #else
 2820              		.loc 3 616 5 view .LVU642
 2821              		.loc 3 621 5 view .LVU643
 2822              		.loc 3 621 5 is_stmt 0 view .LVU644
 2823              	.LBE213:
 2824              	.LBE212:
 2825              		.loc 1 498 2 discriminator 1 view .LVU645
 2826 0ee8 2A46     		mov	r2, r5
 2827 0eea 2946     		mov	r1, r5	@ movhi
 2828 0eec 206F     		ldr	r0, [r4, #112]
 2829 0eee FFF7FEFF 		bl	lv_obj_set_style_text_color
 2830              	.LVL384:
 499:generated/setup_scr_wave_model.c **** 	lv_obj_set_style_text_font(ui->wave_model_label_21, &lv_font_arial_16, LV_PART_MAIN | LV_STATE_DEF
 2831              		.loc 1 499 2 is_stmt 1 view .LVU646
 2832 0ef2 2A46     		mov	r2, r5
 2833 0ef4 C849     		ldr	r1, .L16+4
 2834 0ef6 206F     		ldr	r0, [r4, #112]
 2835 0ef8 FFF7FEFF 		bl	lv_obj_set_style_text_font
 2836              	.LVL385:
 500:generated/setup_scr_wave_model.c **** 	lv_obj_set_style_text_letter_space(ui->wave_model_label_21, 2, LV_PART_MAIN | LV_STATE_DEFAULT);
 2837              		.loc 1 500 2 view .LVU647
 2838 0efc 2A46     		mov	r2, r5
 2839 0efe 0221     		movs	r1, #2
 2840 0f00 206F     		ldr	r0, [r4, #112]
 2841 0f02 FFF7FEFF 		bl	lv_obj_set_style_text_letter_space
 2842              	.LVL386:
 501:generated/setup_scr_wave_model.c **** 	lv_obj_set_style_text_line_space(ui->wave_model_label_21, 0, LV_PART_MAIN | LV_STATE_DEFAULT);
 2843              		.loc 1 501 2 view .LVU648
 2844 0f06 2A46     		mov	r2, r5
 2845 0f08 2946     		mov	r1, r5
 2846 0f0a 206F     		ldr	r0, [r4, #112]
ARM GAS  C:\usertemp\cchE30wT.s 			page 76


 2847 0f0c FFF7FEFF 		bl	lv_obj_set_style_text_line_space
 2848              	.LVL387:
 502:generated/setup_scr_wave_model.c **** 	lv_obj_set_style_text_align(ui->wave_model_label_21, LV_TEXT_ALIGN_CENTER, LV_PART_MAIN | LV_STATE
 2849              		.loc 1 502 2 view .LVU649
 2850 0f10 2A46     		mov	r2, r5
 2851 0f12 0221     		movs	r1, #2
 2852 0f14 206F     		ldr	r0, [r4, #112]
 2853 0f16 FFF7FEFF 		bl	lv_obj_set_style_text_align
 2854              	.LVL388:
 503:generated/setup_scr_wave_model.c **** 	lv_obj_set_style_bg_opa(ui->wave_model_label_21, 0, LV_PART_MAIN | LV_STATE_DEFAULT);
 2855              		.loc 1 503 2 view .LVU650
 2856 0f1a 2A46     		mov	r2, r5
 2857 0f1c 2946     		mov	r1, r5
 2858 0f1e 206F     		ldr	r0, [r4, #112]
 2859 0f20 FFF7FEFF 		bl	lv_obj_set_style_bg_opa
 2860              	.LVL389:
 504:generated/setup_scr_wave_model.c **** 	lv_obj_set_style_pad_top(ui->wave_model_label_21, 8, LV_PART_MAIN | LV_STATE_DEFAULT);
 2861              		.loc 1 504 2 view .LVU651
 2862 0f24 2A46     		mov	r2, r5
 2863 0f26 0821     		movs	r1, #8
 2864 0f28 206F     		ldr	r0, [r4, #112]
 2865 0f2a FFF7FEFF 		bl	lv_obj_set_style_pad_top
 2866              	.LVL390:
 505:generated/setup_scr_wave_model.c **** 	lv_obj_set_style_pad_right(ui->wave_model_label_21, 0, LV_PART_MAIN | LV_STATE_DEFAULT);
 2867              		.loc 1 505 2 view .LVU652
 2868 0f2e 2A46     		mov	r2, r5
 2869 0f30 2946     		mov	r1, r5
 2870 0f32 206F     		ldr	r0, [r4, #112]
 2871 0f34 FFF7FEFF 		bl	lv_obj_set_style_pad_right
 2872              	.LVL391:
 506:generated/setup_scr_wave_model.c **** 	lv_obj_set_style_pad_bottom(ui->wave_model_label_21, 0, LV_PART_MAIN | LV_STATE_DEFAULT);
 2873              		.loc 1 506 2 view .LVU653
 2874 0f38 2A46     		mov	r2, r5
 2875 0f3a 2946     		mov	r1, r5
 2876 0f3c 206F     		ldr	r0, [r4, #112]
 2877 0f3e FFF7FEFF 		bl	lv_obj_set_style_pad_bottom
 2878              	.LVL392:
 507:generated/setup_scr_wave_model.c **** 	lv_obj_set_style_pad_left(ui->wave_model_label_21, 0, LV_PART_MAIN | LV_STATE_DEFAULT);
 2879              		.loc 1 507 2 view .LVU654
 2880 0f42 2A46     		mov	r2, r5
 2881 0f44 2946     		mov	r1, r5
 2882 0f46 206F     		ldr	r0, [r4, #112]
 2883 0f48 FFF7FEFF 		bl	lv_obj_set_style_pad_left
 2884              	.LVL393:
 508:generated/setup_scr_wave_model.c **** 	lv_obj_set_style_shadow_width(ui->wave_model_label_21, 0, LV_PART_MAIN | LV_STATE_DEFAULT);
 2885              		.loc 1 508 2 view .LVU655
 2886 0f4c 2A46     		mov	r2, r5
 2887 0f4e 2946     		mov	r1, r5
 2888 0f50 206F     		ldr	r0, [r4, #112]
 2889 0f52 FFF7FEFF 		bl	lv_obj_set_style_shadow_width
 2890              	.LVL394:
 509:generated/setup_scr_wave_model.c **** 
 510:generated/setup_scr_wave_model.c **** 	// Write codes wave_model_label_22
 511:generated/setup_scr_wave_model.c **** 	ui->wave_model_label_22 = lv_label_create(ui->wave_model);
 2891              		.loc 1 511 2 view .LVU656
 2892              		.loc 1 511 28 is_stmt 0 view .LVU657
 2893 0f56 2068     		ldr	r0, [r4]
ARM GAS  C:\usertemp\cchE30wT.s 			page 77


 2894 0f58 FFF7FEFF 		bl	lv_label_create
 2895              	.LVL395:
 2896              		.loc 1 511 26 discriminator 1 view .LVU658
 2897 0f5c 6067     		str	r0, [r4, #116]
 512:generated/setup_scr_wave_model.c **** 	lv_label_set_text(ui->wave_model_label_22, "Label");
 2898              		.loc 1 512 2 is_stmt 1 view .LVU659
 2899 0f5e AD4F     		ldr	r7, .L16
 2900 0f60 3946     		mov	r1, r7
 2901 0f62 FFF7FEFF 		bl	lv_label_set_text
 2902              	.LVL396:
 513:generated/setup_scr_wave_model.c **** 	lv_label_set_long_mode(ui->wave_model_label_22, LV_LABEL_LONG_WRAP);
 2903              		.loc 1 513 2 view .LVU660
 2904 0f66 2946     		mov	r1, r5
 2905 0f68 606F     		ldr	r0, [r4, #116]
 2906 0f6a FFF7FEFF 		bl	lv_label_set_long_mode
 2907              	.LVL397:
 514:generated/setup_scr_wave_model.c **** 	lv_obj_set_pos(ui->wave_model_label_22, 184, 413);
 2908              		.loc 1 514 2 view .LVU661
 2909 0f6e 40F29D12 		movw	r2, #413
 2910 0f72 B821     		movs	r1, #184
 2911 0f74 606F     		ldr	r0, [r4, #116]
 2912 0f76 FFF7FEFF 		bl	lv_obj_set_pos
 2913              	.LVL398:
 515:generated/setup_scr_wave_model.c **** 	lv_obj_set_size(ui->wave_model_label_22, 100, 32);
 2914              		.loc 1 515 2 view .LVU662
 2915 0f7a 2022     		movs	r2, #32
 2916 0f7c 6421     		movs	r1, #100
 2917 0f7e 606F     		ldr	r0, [r4, #116]
 2918 0f80 FFF7FEFF 		bl	lv_obj_set_size
 2919              	.LVL399:
 516:generated/setup_scr_wave_model.c **** 
 517:generated/setup_scr_wave_model.c **** 	// Write style for wave_model_label_22, Part: LV_PART_MAIN, State: LV_STATE_DEFAULT.
 518:generated/setup_scr_wave_model.c **** 	lv_obj_set_style_border_width(ui->wave_model_label_22, 0, LV_PART_MAIN | LV_STATE_DEFAULT);
 2920              		.loc 1 518 2 view .LVU663
 2921 0f84 2A46     		mov	r2, r5
 2922 0f86 2946     		mov	r1, r5
 2923 0f88 606F     		ldr	r0, [r4, #116]
 2924 0f8a FFF7FEFF 		bl	lv_obj_set_style_border_width
 2925              	.LVL400:
 519:generated/setup_scr_wave_model.c **** 	lv_obj_set_style_radius(ui->wave_model_label_22, 0, LV_PART_MAIN | LV_STATE_DEFAULT);
 2926              		.loc 1 519 2 view .LVU664
 2927 0f8e 2A46     		mov	r2, r5
 2928 0f90 2946     		mov	r1, r5
 2929 0f92 606F     		ldr	r0, [r4, #116]
 2930 0f94 FFF7FEFF 		bl	lv_obj_set_style_radius
 2931              	.LVL401:
 520:generated/setup_scr_wave_model.c **** 	lv_obj_set_style_text_color(ui->wave_model_label_22, lv_color_hex(0x000000), LV_PART_MAIN | LV_STA
 2932              		.loc 1 520 2 view .LVU665
 2933              	.LBB214:
 2934              	.LBI214:
 597:lvgl/src/hal/../draw/../misc/lv_color.h **** {
 2935              		.loc 3 597 26 view .LVU666
 2936              	.LBB215:
 600:lvgl/src/hal/../draw/../misc/lv_color.h **** #if LV_COLOR_16_SWAP == 0
 2937              		.loc 3 600 5 view .LVU667
 616:lvgl/src/hal/../draw/../misc/lv_color.h **** #else
 2938              		.loc 3 616 5 view .LVU668
ARM GAS  C:\usertemp\cchE30wT.s 			page 78


 2939              		.loc 3 621 5 view .LVU669
 2940              		.loc 3 621 5 is_stmt 0 view .LVU670
