ARM GAS  C:\usertemp\cctMo5e7.s 			page 1


   1              		.cpu cortex-m7
   2              		.arch armv7e-m
   3              		.fpu fpv5-d16
   4              		.eabi_attribute 28, 1
   5              		.eabi_attribute 20, 1
   6              		.eabi_attribute 21, 1
   7              		.eabi_attribute 23, 3
   8              		.eabi_attribute 24, 1
   9              		.eabi_attribute 25, 1
  10              		.eabi_attribute 26, 1
  11              		.eabi_attribute 30, 1
  12              		.eabi_attribute 34, 1
  13              		.eabi_attribute 18, 4
  14              		.file	"setup_scr_wave_model.c"
  15              		.text
  16              	.Ltext0:
  17              		.cfi_sections	.debug_frame
  18              		.file 1 "generated/setup_scr_wave_model.c"
  19              		.section	.text.lv_obj_set_style_pad_all,"ax",%progbits
  20              		.align	1
  21              		.syntax unified
  22              		.thumb
  23              		.thumb_func
  25              	lv_obj_set_style_pad_all:
  26              	.LVL0:
  27              	.LFB148:
  28              		.file 2 "lvgl/src/core/lv_obj_style.h"
   1:lvgl/src/core/lv_obj_style.h **** /**
   2:lvgl/src/core/lv_obj_style.h ****  * @file lv_obj_style.h
   3:lvgl/src/core/lv_obj_style.h ****  *
   4:lvgl/src/core/lv_obj_style.h ****  */
   5:lvgl/src/core/lv_obj_style.h **** 
   6:lvgl/src/core/lv_obj_style.h **** #ifndef LV_OBJ_STYLE_H
   7:lvgl/src/core/lv_obj_style.h **** #define LV_OBJ_STYLE_H
   8:lvgl/src/core/lv_obj_style.h **** 
   9:lvgl/src/core/lv_obj_style.h **** #ifdef __cplusplus
  10:lvgl/src/core/lv_obj_style.h **** extern "C" {
  11:lvgl/src/core/lv_obj_style.h **** #endif
  12:lvgl/src/core/lv_obj_style.h **** 
  13:lvgl/src/core/lv_obj_style.h **** /*********************
  14:lvgl/src/core/lv_obj_style.h ****  *      INCLUDES
  15:lvgl/src/core/lv_obj_style.h ****  *********************/
  16:lvgl/src/core/lv_obj_style.h **** #include <stdint.h>
  17:lvgl/src/core/lv_obj_style.h **** #include <stdbool.h>
  18:lvgl/src/core/lv_obj_style.h **** #include "../misc/lv_bidi.h"
  19:lvgl/src/core/lv_obj_style.h **** 
  20:lvgl/src/core/lv_obj_style.h **** /*********************
  21:lvgl/src/core/lv_obj_style.h ****  *      DEFINES
  22:lvgl/src/core/lv_obj_style.h ****  *********************/
  23:lvgl/src/core/lv_obj_style.h **** 
  24:lvgl/src/core/lv_obj_style.h **** /**********************
  25:lvgl/src/core/lv_obj_style.h ****  *      TYPEDEFS
  26:lvgl/src/core/lv_obj_style.h ****  **********************/
  27:lvgl/src/core/lv_obj_style.h **** /*Can't include lv_obj.h because it includes this header file*/
  28:lvgl/src/core/lv_obj_style.h **** struct _lv_obj_t;
  29:lvgl/src/core/lv_obj_style.h **** 
  30:lvgl/src/core/lv_obj_style.h **** typedef enum {
ARM GAS  C:\usertemp\cctMo5e7.s 			page 2


  31:lvgl/src/core/lv_obj_style.h ****     _LV_STYLE_STATE_CMP_SAME,           /*The style properties in the 2 states are identical*/
  32:lvgl/src/core/lv_obj_style.h ****     _LV_STYLE_STATE_CMP_DIFF_REDRAW,    /*The differences can be shown with a simple redraw*/
  33:lvgl/src/core/lv_obj_style.h ****     _LV_STYLE_STATE_CMP_DIFF_DRAW_PAD,  /*The differences can be shown with a simple redraw*/
  34:lvgl/src/core/lv_obj_style.h ****     _LV_STYLE_STATE_CMP_DIFF_LAYOUT,    /*The differences can be shown with a simple redraw*/
  35:lvgl/src/core/lv_obj_style.h **** } _lv_style_state_cmp_t;
  36:lvgl/src/core/lv_obj_style.h **** 
  37:lvgl/src/core/lv_obj_style.h **** typedef uint32_t lv_style_selector_t;
  38:lvgl/src/core/lv_obj_style.h **** 
  39:lvgl/src/core/lv_obj_style.h **** typedef struct {
  40:lvgl/src/core/lv_obj_style.h ****     lv_style_t * style;
  41:lvgl/src/core/lv_obj_style.h ****     uint32_t selector : 24;
  42:lvgl/src/core/lv_obj_style.h ****     uint32_t is_local : 1;
  43:lvgl/src/core/lv_obj_style.h ****     uint32_t is_trans : 1;
  44:lvgl/src/core/lv_obj_style.h **** } _lv_obj_style_t;
  45:lvgl/src/core/lv_obj_style.h **** 
  46:lvgl/src/core/lv_obj_style.h **** typedef struct {
  47:lvgl/src/core/lv_obj_style.h ****     uint16_t time;
  48:lvgl/src/core/lv_obj_style.h ****     uint16_t delay;
  49:lvgl/src/core/lv_obj_style.h ****     lv_style_selector_t selector;
  50:lvgl/src/core/lv_obj_style.h ****     lv_style_prop_t prop;
  51:lvgl/src/core/lv_obj_style.h ****     lv_anim_path_cb_t path_cb;
  52:lvgl/src/core/lv_obj_style.h **** #if LV_USE_USER_DATA
  53:lvgl/src/core/lv_obj_style.h ****     void * user_data;
  54:lvgl/src/core/lv_obj_style.h **** #endif
  55:lvgl/src/core/lv_obj_style.h **** } _lv_obj_style_transition_dsc_t;
  56:lvgl/src/core/lv_obj_style.h **** 
  57:lvgl/src/core/lv_obj_style.h **** /**********************
  58:lvgl/src/core/lv_obj_style.h ****  * GLOBAL PROTOTYPES
  59:lvgl/src/core/lv_obj_style.h ****  **********************/
  60:lvgl/src/core/lv_obj_style.h **** 
  61:lvgl/src/core/lv_obj_style.h **** /**
  62:lvgl/src/core/lv_obj_style.h ****  * Initialize the object related style manager module.
  63:lvgl/src/core/lv_obj_style.h ****  * Called by LVGL in `lv_init()`
  64:lvgl/src/core/lv_obj_style.h ****  */
  65:lvgl/src/core/lv_obj_style.h **** void _lv_obj_style_init(void);
  66:lvgl/src/core/lv_obj_style.h **** 
  67:lvgl/src/core/lv_obj_style.h **** /**
  68:lvgl/src/core/lv_obj_style.h ****  * Add a style to an object.
  69:lvgl/src/core/lv_obj_style.h ****  * @param obj       pointer to an object
  70:lvgl/src/core/lv_obj_style.h ****  * @param style     pointer to a style to add
  71:lvgl/src/core/lv_obj_style.h ****  * @param selector  OR-ed value of parts and state to which the style should be added
  72:lvgl/src/core/lv_obj_style.h ****  * @example         lv_obj_add_style(btn, &style_btn, 0); //Default button style
  73:lvgl/src/core/lv_obj_style.h ****  * @example         lv_obj_add_style(btn, &btn_red, LV_STATE_PRESSED); //Overwrite only some colors
  74:lvgl/src/core/lv_obj_style.h ****  */
  75:lvgl/src/core/lv_obj_style.h **** void lv_obj_add_style(struct _lv_obj_t * obj, lv_style_t * style, lv_style_selector_t selector);
  76:lvgl/src/core/lv_obj_style.h **** 
  77:lvgl/src/core/lv_obj_style.h **** /**
  78:lvgl/src/core/lv_obj_style.h ****  * Add a style to an object.
  79:lvgl/src/core/lv_obj_style.h ****  * @param obj       pointer to an object
  80:lvgl/src/core/lv_obj_style.h ****  * @param style     pointer to a style to remove. Can be NULL to check only the selector
  81:lvgl/src/core/lv_obj_style.h ****  * @param selector  OR-ed values of states and a part to remove only styles with matching selectors
  82:lvgl/src/core/lv_obj_style.h ****  * @example lv_obj_remove_style(obj, &style, LV_PART_ANY | LV_STATE_ANY); //Remove a specific style
  83:lvgl/src/core/lv_obj_style.h ****  * @example lv_obj_remove_style(obj, NULL, LV_PART_MAIN | LV_STATE_ANY); //Remove all styles from t
  84:lvgl/src/core/lv_obj_style.h ****  * @example lv_obj_remove_style(obj, NULL, LV_PART_ANY | LV_STATE_ANY); //Remove all styles
  85:lvgl/src/core/lv_obj_style.h ****  */
  86:lvgl/src/core/lv_obj_style.h **** void lv_obj_remove_style(struct _lv_obj_t * obj, lv_style_t * style, lv_style_selector_t selector);
  87:lvgl/src/core/lv_obj_style.h **** 
ARM GAS  C:\usertemp\cctMo5e7.s 			page 3


  88:lvgl/src/core/lv_obj_style.h **** /**
  89:lvgl/src/core/lv_obj_style.h ****  * Remove all styles from an object
  90:lvgl/src/core/lv_obj_style.h ****  * @param obj       pointer to an object
  91:lvgl/src/core/lv_obj_style.h ****  */
  92:lvgl/src/core/lv_obj_style.h **** static inline void lv_obj_remove_style_all(struct _lv_obj_t * obj)
  93:lvgl/src/core/lv_obj_style.h **** {
  94:lvgl/src/core/lv_obj_style.h ****     lv_obj_remove_style(obj, NULL, LV_PART_ANY | LV_STATE_ANY);
  95:lvgl/src/core/lv_obj_style.h **** }
  96:lvgl/src/core/lv_obj_style.h **** 
  97:lvgl/src/core/lv_obj_style.h **** /**
  98:lvgl/src/core/lv_obj_style.h ****  * Notify all object if a style is modified
  99:lvgl/src/core/lv_obj_style.h ****  * @param style     pointer to a style. Only the objects with this style will be notified
 100:lvgl/src/core/lv_obj_style.h ****  *                  (NULL to notify all objects)
 101:lvgl/src/core/lv_obj_style.h ****  */
 102:lvgl/src/core/lv_obj_style.h **** void lv_obj_report_style_change(lv_style_t * style);
 103:lvgl/src/core/lv_obj_style.h **** 
 104:lvgl/src/core/lv_obj_style.h **** /**
 105:lvgl/src/core/lv_obj_style.h ****  * Notify an object and its children about its style is modified.
 106:lvgl/src/core/lv_obj_style.h ****  * @param obj       pointer to an object
 107:lvgl/src/core/lv_obj_style.h ****  * @param part      the part whose style was changed. E.g. `LV_PART_ANY`, `LV_PART_MAIN`
 108:lvgl/src/core/lv_obj_style.h ****  * @param prop      `LV_STYLE_PROP_ANY` or an `LV_STYLE_...` property.
 109:lvgl/src/core/lv_obj_style.h ****  *                  It is used to optimize what needs to be refreshed.
 110:lvgl/src/core/lv_obj_style.h ****  *                  `LV_STYLE_PROP_INV` to perform only a style cache update
 111:lvgl/src/core/lv_obj_style.h ****  */
 112:lvgl/src/core/lv_obj_style.h **** void lv_obj_refresh_style(struct _lv_obj_t * obj, lv_part_t part, lv_style_prop_t prop);
 113:lvgl/src/core/lv_obj_style.h **** 
 114:lvgl/src/core/lv_obj_style.h **** /**
 115:lvgl/src/core/lv_obj_style.h ****  * Enable or disable automatic style refreshing when a new style is added/removed to/from an object
 116:lvgl/src/core/lv_obj_style.h ****  * or any other style change happens.
 117:lvgl/src/core/lv_obj_style.h ****  * @param en        true: enable refreshing; false: disable refreshing
 118:lvgl/src/core/lv_obj_style.h ****  */
 119:lvgl/src/core/lv_obj_style.h **** void lv_obj_enable_style_refresh(bool en);
 120:lvgl/src/core/lv_obj_style.h **** 
 121:lvgl/src/core/lv_obj_style.h **** /**
 122:lvgl/src/core/lv_obj_style.h ****  * Get the value of a style property. The current state of the object will be considered.
 123:lvgl/src/core/lv_obj_style.h ****  * Inherited properties will be inherited.
 124:lvgl/src/core/lv_obj_style.h ****  * If a property is not set a default value will be returned.
 125:lvgl/src/core/lv_obj_style.h ****  * @param obj       pointer to an object
 126:lvgl/src/core/lv_obj_style.h ****  * @param part      a part from which the property should be get
 127:lvgl/src/core/lv_obj_style.h ****  * @param prop      the property to get
 128:lvgl/src/core/lv_obj_style.h ****  * @return          the value of the property.
 129:lvgl/src/core/lv_obj_style.h ****  *                  Should be read from the correct field of the `lv_style_value_t` according to th
 130:lvgl/src/core/lv_obj_style.h ****  */
 131:lvgl/src/core/lv_obj_style.h **** lv_style_value_t lv_obj_get_style_prop(const struct _lv_obj_t * obj, lv_part_t part, lv_style_prop_
 132:lvgl/src/core/lv_obj_style.h **** 
 133:lvgl/src/core/lv_obj_style.h **** /**
 134:lvgl/src/core/lv_obj_style.h ****  * Set local style property on an object's part and state.
 135:lvgl/src/core/lv_obj_style.h ****  * @param obj       pointer to an object
 136:lvgl/src/core/lv_obj_style.h ****  * @param prop      the property
 137:lvgl/src/core/lv_obj_style.h ****  * @param value     value of the property. The correct element should be set according to the type 
 138:lvgl/src/core/lv_obj_style.h ****  * @param selector  OR-ed value of parts and state for which the style should be set
 139:lvgl/src/core/lv_obj_style.h ****  */
 140:lvgl/src/core/lv_obj_style.h **** void lv_obj_set_local_style_prop(struct _lv_obj_t * obj, lv_style_prop_t prop, lv_style_value_t val
 141:lvgl/src/core/lv_obj_style.h ****                                  lv_style_selector_t selector);
 142:lvgl/src/core/lv_obj_style.h **** 
 143:lvgl/src/core/lv_obj_style.h **** lv_res_t lv_obj_get_local_style_prop(struct _lv_obj_t * obj, lv_style_prop_t prop, lv_style_value_t
 144:lvgl/src/core/lv_obj_style.h ****                                      lv_style_selector_t selector);
ARM GAS  C:\usertemp\cctMo5e7.s 			page 4


 145:lvgl/src/core/lv_obj_style.h **** 
 146:lvgl/src/core/lv_obj_style.h **** /**
 147:lvgl/src/core/lv_obj_style.h ****  * Remove a local style property from a part of an object with a given state.
 148:lvgl/src/core/lv_obj_style.h ****  * @param obj       pointer to an object
 149:lvgl/src/core/lv_obj_style.h ****  * @param prop      a style property to remove.
 150:lvgl/src/core/lv_obj_style.h ****  * @param selector  OR-ed value of parts and state for which the style should be removed
 151:lvgl/src/core/lv_obj_style.h ****  * @return true     the property was found and removed; false: the property was not found
 152:lvgl/src/core/lv_obj_style.h ****  */
 153:lvgl/src/core/lv_obj_style.h **** bool lv_obj_remove_local_style_prop(struct _lv_obj_t * obj, lv_style_prop_t prop, lv_style_selector
 154:lvgl/src/core/lv_obj_style.h **** 
 155:lvgl/src/core/lv_obj_style.h **** /**
 156:lvgl/src/core/lv_obj_style.h ****  * Used internally to create a style transition
 157:lvgl/src/core/lv_obj_style.h ****  * @param obj
 158:lvgl/src/core/lv_obj_style.h ****  * @param part
 159:lvgl/src/core/lv_obj_style.h ****  * @param prev_state
 160:lvgl/src/core/lv_obj_style.h ****  * @param new_state
 161:lvgl/src/core/lv_obj_style.h ****  * @param tr
 162:lvgl/src/core/lv_obj_style.h ****  */
 163:lvgl/src/core/lv_obj_style.h **** void _lv_obj_style_create_transition(struct _lv_obj_t * obj, lv_part_t part, lv_state_t prev_state,
 164:lvgl/src/core/lv_obj_style.h ****                                      lv_state_t new_state, const _lv_obj_style_transition_dsc_t * t
 165:lvgl/src/core/lv_obj_style.h **** 
 166:lvgl/src/core/lv_obj_style.h **** /**
 167:lvgl/src/core/lv_obj_style.h ****  * Used internally to compare the appearance of an object in 2 states
 168:lvgl/src/core/lv_obj_style.h ****  * @param obj
 169:lvgl/src/core/lv_obj_style.h ****  * @param state1
 170:lvgl/src/core/lv_obj_style.h ****  * @param state2
 171:lvgl/src/core/lv_obj_style.h ****  * @return
 172:lvgl/src/core/lv_obj_style.h ****  */
 173:lvgl/src/core/lv_obj_style.h **** _lv_style_state_cmp_t _lv_obj_style_state_compare(struct _lv_obj_t * obj, lv_state_t state1, lv_sta
 174:lvgl/src/core/lv_obj_style.h **** 
 175:lvgl/src/core/lv_obj_style.h **** /**
 176:lvgl/src/core/lv_obj_style.h ****  * Fade in an an object and all its children.
 177:lvgl/src/core/lv_obj_style.h ****  * @param obj       the object to fade in
 178:lvgl/src/core/lv_obj_style.h ****  * @param time      time of fade
 179:lvgl/src/core/lv_obj_style.h ****  * @param delay     delay to start the animation
 180:lvgl/src/core/lv_obj_style.h ****  */
 181:lvgl/src/core/lv_obj_style.h **** void lv_obj_fade_in(struct _lv_obj_t * obj, uint32_t time, uint32_t delay);
 182:lvgl/src/core/lv_obj_style.h **** 
 183:lvgl/src/core/lv_obj_style.h **** /**
 184:lvgl/src/core/lv_obj_style.h ****  * Fade out an an object and all its children.
 185:lvgl/src/core/lv_obj_style.h ****  * @param obj       the object to fade out
 186:lvgl/src/core/lv_obj_style.h ****  * @param time      time of fade
 187:lvgl/src/core/lv_obj_style.h ****  * @param delay     delay to start the animation
 188:lvgl/src/core/lv_obj_style.h ****  */
 189:lvgl/src/core/lv_obj_style.h **** void lv_obj_fade_out(struct _lv_obj_t * obj, uint32_t time, uint32_t delay);
 190:lvgl/src/core/lv_obj_style.h **** 
 191:lvgl/src/core/lv_obj_style.h **** lv_state_t lv_obj_style_get_selector_state(lv_style_selector_t selector);
 192:lvgl/src/core/lv_obj_style.h **** 
 193:lvgl/src/core/lv_obj_style.h **** lv_part_t lv_obj_style_get_selector_part(lv_style_selector_t selector);
 194:lvgl/src/core/lv_obj_style.h **** 
 195:lvgl/src/core/lv_obj_style.h **** #include "lv_obj_style_gen.h"
 196:lvgl/src/core/lv_obj_style.h **** 
 197:lvgl/src/core/lv_obj_style.h **** static inline void lv_obj_set_style_pad_all(struct _lv_obj_t * obj, lv_coord_t value, lv_style_sele
 198:lvgl/src/core/lv_obj_style.h **** {
  29              		.loc 2 198 1 view -0
  30              		.cfi_startproc
  31              		@ args = 0, pretend = 0, frame = 0
ARM GAS  C:\usertemp\cctMo5e7.s 			page 5


  32              		@ frame_needed = 0, uses_anonymous_args = 0
  33              		.loc 2 198 1 is_stmt 0 view .LVU1
  34 0000 70B5     		push	{r4, r5, r6, lr}
  35              	.LCFI0:
  36              		.cfi_def_cfa_offset 16
  37              		.cfi_offset 4, -16
  38              		.cfi_offset 5, -12
  39              		.cfi_offset 6, -8
  40              		.cfi_offset 14, -4
  41 0002 0446     		mov	r4, r0
  42 0004 0D46     		mov	r5, r1
  43 0006 1646     		mov	r6, r2
 199:lvgl/src/core/lv_obj_style.h ****     lv_obj_set_style_pad_left(obj, value, selector);
  44              		.loc 2 199 5 is_stmt 1 view .LVU2
  45 0008 FFF7FEFF 		bl	lv_obj_set_style_pad_left
  46              	.LVL1:
 200:lvgl/src/core/lv_obj_style.h ****     lv_obj_set_style_pad_right(obj, value, selector);
  47              		.loc 2 200 5 view .LVU3
  48 000c 3246     		mov	r2, r6
  49 000e 2946     		mov	r1, r5
  50 0010 2046     		mov	r0, r4
  51 0012 FFF7FEFF 		bl	lv_obj_set_style_pad_right
  52              	.LVL2:
 201:lvgl/src/core/lv_obj_style.h ****     lv_obj_set_style_pad_top(obj, value, selector);
  53              		.loc 2 201 5 view .LVU4
  54 0016 3246     		mov	r2, r6
  55 0018 2946     		mov	r1, r5
  56 001a 2046     		mov	r0, r4
  57 001c FFF7FEFF 		bl	lv_obj_set_style_pad_top
  58              	.LVL3:
 202:lvgl/src/core/lv_obj_style.h ****     lv_obj_set_style_pad_bottom(obj, value, selector);
  59              		.loc 2 202 5 view .LVU5
  60 0020 3246     		mov	r2, r6
  61 0022 2946     		mov	r1, r5
  62 0024 2046     		mov	r0, r4
  63 0026 FFF7FEFF 		bl	lv_obj_set_style_pad_bottom
  64              	.LVL4:
 203:lvgl/src/core/lv_obj_style.h **** }
  65              		.loc 2 203 1 is_stmt 0 view .LVU6
  66 002a 70BD     		pop	{r4, r5, r6, pc}
  67              		.loc 2 203 1 view .LVU7
  68              		.cfi_endproc
  69              	.LFE148:
  71              		.section	.rodata.setup_scr_wave_model.str1.4,"aMS",%progbits,1
  72              		.align	2
  73              	.LC0:
  74 0000 3E00     		.ascii	">\000"
  75 0002 0000     		.align	2
  76              	.LC1:
  77 0004 436100   		.ascii	"Ca\000"
  78 0007 00       		.align	2
  79              	.LC2:
  80 0008 5600     		.ascii	"V\000"
  81 000a 0000     		.align	2
  82              	.LC3:
  83 000c 4C3100   		.ascii	"L1\000"
  84 000f 00       		.align	2
ARM GAS  C:\usertemp\cctMo5e7.s 			page 6


  85              	.LC4:
  86 0010 4C3200   		.ascii	"L2\000"
  87 0013 00       		.align	2
  88              	.LC5:
  89 0014 4C3300   		.ascii	"L3\000"
  90 0017 00       		.align	2
  91              	.LC6:
  92 0018 4E00     		.ascii	"N\000"
  93 001a 0000     		.align	2
  94              	.LC7:
  95 001c 706F7765 		.ascii	"power\000"
  95      7200
  96 0022 0000     		.align	2
  97              	.LC8:
  98 0024 4C616265 		.ascii	"Label\000"
  98      6C00
  99 002a 0000     		.align	2
 100              	.LC9:
 101 002c 3200     		.ascii	"2\000"
 102 002e 0000     		.align	2
 103              	.LC10:
 104 0030 3300     		.ascii	"3\000"
 105 0032 0000     		.align	2
 106              	.LC11:
 107 0034 3030302E 		.ascii	"000.0V\000"
 107      305600
 108 003b 00       		.align	2
 109              	.LC12:
 110 003c 3100     		.ascii	"1\000"
 111 003e 0000     		.align	2
 112              	.LC13:
 113 0040 3C00     		.ascii	"<\000"
 114 0042 0000     		.align	2
 115              	.LC14:
 116 0044 524D5300 		.ascii	"RMS\000"
 117              		.align	2
 118              	.LC15:
 119 0048 4D415800 		.ascii	"MAX\000"
 120              		.align	2
 121              	.LC16:
 122 004c 4D494E00 		.ascii	"MIN\000"
 123              		.align	2
 124              	.LC17:
 125 0050 54484400 		.ascii	"THD\000"
 126              		.align	2
 127              	.LC18:
 128 0054 444300   		.ascii	"DC\000"
 129 0057 00       		.align	2
 130              	.LC19:
 131 0058 3000     		.ascii	"0\000"
 132 005a 0000     		.align	2
 133              	.LC20:
 134 005c 53544152 		.ascii	"START:\000"
 134      543A00
 135 0063 00       		.align	2
 136              	.LC21:
 137 0064 30303A30 		.ascii	"00:00:00 AM\000"
ARM GAS  C:\usertemp\cctMo5e7.s 			page 7


 137      303A3030 
 137      20414D00 
 138              		.align	2
 139              	.LC22:
 140 0070 582B00   		.ascii	"X+\000"
 141 0073 00       		.align	2
 142              	.LC23:
 143 0074 582D00   		.ascii	"X-\000"
 144 0077 00       		.align	2
 145              	.LC24:
 146 0078 4C2B00   		.ascii	"L+\000"
 147 007b 00       		.align	2
 148              	.LC25:
 149 007c 4C2D00   		.ascii	"L-\000"
 150 007f 00       		.align	2
 151              	.LC26:
 152 0080 592B00   		.ascii	"Y+\000"
 153 0083 00       		.align	2
 154              	.LC27:
 155 0084 592D00   		.ascii	"Y-\000"
 156 0087 00       		.align	2
 157              	.LC28:
 158 0088 504600   		.ascii	"PF\000"
 159 008b 00       		.align	2
 160              	.LC29:
 161 008c 44504600 		.ascii	"DPF\000"
 162              		.align	2
 163              	.LC30:
 164 0090 50484153 		.ascii	"PHASE\000"
 164      4500
 165 0096 0000     		.align	2
 166              	.LC31:
 167 0098 5700     		.ascii	"W\000"
 168 009a 0000     		.align	2
 169              	.LC32:
 170 009c 576800   		.ascii	"Wh\000"
 171 009f 00       		.align	2
 172              	.LC33:
 173 00a0 494D4147 		.ascii	"IMAGE:\000"
 173      453A00
 174              		.section	.text.setup_scr_wave_model,"ax",%progbits
 175              		.align	1
 176              		.global	setup_scr_wave_model
 177              		.syntax unified
 178              		.thumb
 179              		.thumb_func
 181              	setup_scr_wave_model:
 182              	.LVL5:
 183              	.LFB529:
   1:generated/setup_scr_wave_model.c **** /*
   2:generated/setup_scr_wave_model.c ****  * Copyright 2025 NXP
   3:generated/setup_scr_wave_model.c ****  * NXP Confidential and Proprietary. This software is owned or controlled by NXP and may only be us
   4:generated/setup_scr_wave_model.c ****  * accordance with the applicable license terms. By expressly accepting such terms or by downloadin
   5:generated/setup_scr_wave_model.c ****  * activating and/or otherwise using the software, you are agreeing that you have read, and that yo
   6:generated/setup_scr_wave_model.c ****  * comply with and are bound by, such license terms.  If you do not agree to be bound by the applic
   7:generated/setup_scr_wave_model.c ****  * terms, then you may not retain, install, activate or otherwise use the software.
   8:generated/setup_scr_wave_model.c ****  */
ARM GAS  C:\usertemp\cctMo5e7.s 			page 8


   9:generated/setup_scr_wave_model.c **** 
  10:generated/setup_scr_wave_model.c **** #include "lvgl.h"
  11:generated/setup_scr_wave_model.c **** #include <stdio.h>
  12:generated/setup_scr_wave_model.c **** #include "gui_guider.h"
  13:generated/setup_scr_wave_model.c **** #include "events_init.h"
  14:generated/setup_scr_wave_model.c **** #include "widgets_init.h"
  15:generated/setup_scr_wave_model.c **** #include "custom.h"
  16:generated/setup_scr_wave_model.c **** #include "rtc.h"
  17:generated/setup_scr_wave_model.c **** // extern uint16_t MyRTC_Time[5];
  18:generated/setup_scr_wave_model.c **** int wave_model_digital_clock_1_min_value;
  19:generated/setup_scr_wave_model.c **** int wave_model_digital_clock_1_hour_value;
  20:generated/setup_scr_wave_model.c **** int wave_model_digital_clock_1_sec_value;
  21:generated/setup_scr_wave_model.c **** char wave_model_digital_clock_1_meridiem[] = "";
  22:generated/setup_scr_wave_model.c **** void setup_scr_wave_model(lv_ui *ui)
  23:generated/setup_scr_wave_model.c **** {
 184              		.loc 1 23 1 is_stmt 1 view -0
 185              		.cfi_startproc
 186              		@ args = 0, pretend = 0, frame = 0
 187              		@ frame_needed = 0, uses_anonymous_args = 0
 188              		.loc 1 23 1 is_stmt 0 view .LVU9
 189 0000 2DE9F041 		push	{r4, r5, r6, r7, r8, lr}
 190              	.LCFI1:
 191              		.cfi_def_cfa_offset 24
 192              		.cfi_offset 4, -24
 193              		.cfi_offset 5, -20
 194              		.cfi_offset 6, -16
 195              		.cfi_offset 7, -12
 196              		.cfi_offset 8, -8
 197              		.cfi_offset 14, -4
 198 0004 0446     		mov	r4, r0
  24:generated/setup_scr_wave_model.c **** 	// MyRTC_ReadTime();
  25:generated/setup_scr_wave_model.c **** 	// wave_model_digital_clock_1_min_value = MyRTC_Time[4];
  26:generated/setup_scr_wave_model.c **** 	// wave_model_digital_clock_1_hour_value = MyRTC_Time[3];
  27:generated/setup_scr_wave_model.c **** 	// wave_model_digital_clock_1_sec_value = MyRTC_Time[5];
  28:generated/setup_scr_wave_model.c **** 	// Write codes wave_model
  29:generated/setup_scr_wave_model.c **** 	ui->wave_model = lv_obj_create(NULL);
 199              		.loc 1 29 2 is_stmt 1 view .LVU10
 200              		.loc 1 29 19 is_stmt 0 view .LVU11
 201 0006 0020     		movs	r0, #0
 202              	.LVL6:
 203              		.loc 1 29 19 view .LVU12
 204 0008 FFF7FEFF 		bl	lv_obj_create
 205              	.LVL7:
 206              		.loc 1 29 17 discriminator 1 view .LVU13
 207 000c 2060     		str	r0, [r4]
  30:generated/setup_scr_wave_model.c **** 	lv_obj_set_size(ui->wave_model, 640, 480);
 208              		.loc 1 30 2 is_stmt 1 view .LVU14
 209 000e 4FF4F072 		mov	r2, #480
 210 0012 4FF42071 		mov	r1, #640
 211 0016 FFF7FEFF 		bl	lv_obj_set_size
 212              	.LVL8:
  31:generated/setup_scr_wave_model.c **** 
  32:generated/setup_scr_wave_model.c **** 	// Write style for wave_model, Part: LV_PART_MAIN, State: LV_STATE_DEFAULT.
  33:generated/setup_scr_wave_model.c **** 	lv_obj_set_style_bg_opa(ui->wave_model, 255, LV_PART_MAIN | LV_STATE_DEFAULT);
 213              		.loc 1 33 2 view .LVU15
 214 001a 0022     		movs	r2, #0
 215 001c FF21     		movs	r1, #255
ARM GAS  C:\usertemp\cctMo5e7.s 			page 9


 216 001e 2068     		ldr	r0, [r4]
 217 0020 FFF7FEFF 		bl	lv_obj_set_style_bg_opa
 218              	.LVL9:
  34:generated/setup_scr_wave_model.c **** 	lv_obj_set_style_bg_color(ui->wave_model, lv_color_hex(0xc3dfd6), LV_PART_MAIN | LV_STATE_DEFAULT)
 219              		.loc 1 34 2 view .LVU16
 220              	.LBB150:
 221              	.LBI150:
 222              		.file 3 "lvgl/src/hal/../draw/../misc/lv_color.h"
   1:lvgl/src/hal/../draw/../misc/lv_color.h **** /**
   2:lvgl/src/hal/../draw/../misc/lv_color.h ****  * @file lv_color.h
   3:lvgl/src/hal/../draw/../misc/lv_color.h ****  *
   4:lvgl/src/hal/../draw/../misc/lv_color.h ****  */
   5:lvgl/src/hal/../draw/../misc/lv_color.h **** 
   6:lvgl/src/hal/../draw/../misc/lv_color.h **** #ifndef LV_COLOR_H
   7:lvgl/src/hal/../draw/../misc/lv_color.h **** #define LV_COLOR_H
   8:lvgl/src/hal/../draw/../misc/lv_color.h **** 
   9:lvgl/src/hal/../draw/../misc/lv_color.h **** #ifdef __cplusplus
  10:lvgl/src/hal/../draw/../misc/lv_color.h **** extern "C" {
  11:lvgl/src/hal/../draw/../misc/lv_color.h **** #endif
  12:lvgl/src/hal/../draw/../misc/lv_color.h **** 
  13:lvgl/src/hal/../draw/../misc/lv_color.h **** /*********************
  14:lvgl/src/hal/../draw/../misc/lv_color.h ****  *      INCLUDES
  15:lvgl/src/hal/../draw/../misc/lv_color.h ****  *********************/
  16:lvgl/src/hal/../draw/../misc/lv_color.h **** #include "../lv_conf_internal.h"
  17:lvgl/src/hal/../draw/../misc/lv_color.h **** #include "lv_assert.h"
  18:lvgl/src/hal/../draw/../misc/lv_color.h **** #include "lv_math.h"
  19:lvgl/src/hal/../draw/../misc/lv_color.h **** #include "lv_types.h"
  20:lvgl/src/hal/../draw/../misc/lv_color.h **** 
  21:lvgl/src/hal/../draw/../misc/lv_color.h **** /*Error checking*/
  22:lvgl/src/hal/../draw/../misc/lv_color.h **** #if LV_COLOR_DEPTH == 24
  23:lvgl/src/hal/../draw/../misc/lv_color.h **** #error "LV_COLOR_DEPTH 24 is deprecated. Use LV_COLOR_DEPTH 32 instead (lv_conf.h)"
  24:lvgl/src/hal/../draw/../misc/lv_color.h **** #endif
  25:lvgl/src/hal/../draw/../misc/lv_color.h **** 
  26:lvgl/src/hal/../draw/../misc/lv_color.h **** #if LV_COLOR_DEPTH != 32 && LV_COLOR_SCREEN_TRANSP != 0
  27:lvgl/src/hal/../draw/../misc/lv_color.h **** #error "LV_COLOR_SCREEN_TRANSP requires LV_COLOR_DEPTH == 32. Set it in lv_conf.h"
  28:lvgl/src/hal/../draw/../misc/lv_color.h **** #endif
  29:lvgl/src/hal/../draw/../misc/lv_color.h **** 
  30:lvgl/src/hal/../draw/../misc/lv_color.h **** #if LV_COLOR_DEPTH != 16 && LV_COLOR_16_SWAP != 0
  31:lvgl/src/hal/../draw/../misc/lv_color.h **** #error "LV_COLOR_16_SWAP requires LV_COLOR_DEPTH == 16. Set it in lv_conf.h"
  32:lvgl/src/hal/../draw/../misc/lv_color.h **** #endif
  33:lvgl/src/hal/../draw/../misc/lv_color.h **** 
  34:lvgl/src/hal/../draw/../misc/lv_color.h **** #include <stdint.h>
  35:lvgl/src/hal/../draw/../misc/lv_color.h **** 
  36:lvgl/src/hal/../draw/../misc/lv_color.h **** /*********************
  37:lvgl/src/hal/../draw/../misc/lv_color.h ****  *      DEFINES
  38:lvgl/src/hal/../draw/../misc/lv_color.h ****  *********************/
  39:lvgl/src/hal/../draw/../misc/lv_color.h **** LV_EXPORT_CONST_INT(LV_COLOR_DEPTH);
  40:lvgl/src/hal/../draw/../misc/lv_color.h **** LV_EXPORT_CONST_INT(LV_COLOR_16_SWAP);
  41:lvgl/src/hal/../draw/../misc/lv_color.h **** 
  42:lvgl/src/hal/../draw/../misc/lv_color.h **** /**
  43:lvgl/src/hal/../draw/../misc/lv_color.h ****  * Opacity percentages.
  44:lvgl/src/hal/../draw/../misc/lv_color.h ****  */
  45:lvgl/src/hal/../draw/../misc/lv_color.h **** enum {
  46:lvgl/src/hal/../draw/../misc/lv_color.h ****     LV_OPA_TRANSP = 0,
  47:lvgl/src/hal/../draw/../misc/lv_color.h ****     LV_OPA_0      = 0,
  48:lvgl/src/hal/../draw/../misc/lv_color.h ****     LV_OPA_10     = 25,
  49:lvgl/src/hal/../draw/../misc/lv_color.h ****     LV_OPA_20     = 51,
ARM GAS  C:\usertemp\cctMo5e7.s 			page 10


  50:lvgl/src/hal/../draw/../misc/lv_color.h ****     LV_OPA_30     = 76,
  51:lvgl/src/hal/../draw/../misc/lv_color.h ****     LV_OPA_40     = 102,
  52:lvgl/src/hal/../draw/../misc/lv_color.h ****     LV_OPA_50     = 127,
  53:lvgl/src/hal/../draw/../misc/lv_color.h ****     LV_OPA_60     = 153,
  54:lvgl/src/hal/../draw/../misc/lv_color.h ****     LV_OPA_70     = 178,
  55:lvgl/src/hal/../draw/../misc/lv_color.h ****     LV_OPA_80     = 204,
  56:lvgl/src/hal/../draw/../misc/lv_color.h ****     LV_OPA_90     = 229,
  57:lvgl/src/hal/../draw/../misc/lv_color.h ****     LV_OPA_100    = 255,
  58:lvgl/src/hal/../draw/../misc/lv_color.h ****     LV_OPA_COVER  = 255,
  59:lvgl/src/hal/../draw/../misc/lv_color.h **** };
  60:lvgl/src/hal/../draw/../misc/lv_color.h **** 
  61:lvgl/src/hal/../draw/../misc/lv_color.h **** #define LV_OPA_MIN 2    /*Opacities below this will be transparent*/
  62:lvgl/src/hal/../draw/../misc/lv_color.h **** #define LV_OPA_MAX 253  /*Opacities above this will fully cover*/
  63:lvgl/src/hal/../draw/../misc/lv_color.h **** 
  64:lvgl/src/hal/../draw/../misc/lv_color.h **** #if LV_COLOR_DEPTH == 1
  65:lvgl/src/hal/../draw/../misc/lv_color.h **** #define LV_COLOR_SIZE 8
  66:lvgl/src/hal/../draw/../misc/lv_color.h **** #elif LV_COLOR_DEPTH == 8
  67:lvgl/src/hal/../draw/../misc/lv_color.h **** #define LV_COLOR_SIZE 8
  68:lvgl/src/hal/../draw/../misc/lv_color.h **** #elif LV_COLOR_DEPTH == 16
  69:lvgl/src/hal/../draw/../misc/lv_color.h **** #define LV_COLOR_SIZE 16
  70:lvgl/src/hal/../draw/../misc/lv_color.h **** #elif LV_COLOR_DEPTH == 32
  71:lvgl/src/hal/../draw/../misc/lv_color.h **** #define LV_COLOR_SIZE 32
  72:lvgl/src/hal/../draw/../misc/lv_color.h **** #else
  73:lvgl/src/hal/../draw/../misc/lv_color.h **** #error "Invalid LV_COLOR_DEPTH in lv_conf.h! Set it to 1, 8, 16 or 32!"
  74:lvgl/src/hal/../draw/../misc/lv_color.h **** #endif
  75:lvgl/src/hal/../draw/../misc/lv_color.h **** 
  76:lvgl/src/hal/../draw/../misc/lv_color.h **** #if defined(__cplusplus) && !defined(_LV_COLOR_HAS_MODERN_CPP)
  77:lvgl/src/hal/../draw/../misc/lv_color.h **** /**
  78:lvgl/src/hal/../draw/../misc/lv_color.h **** * MSVC compiler's definition of the __cplusplus indicating 199711L regardless to C++ standard versi
  79:lvgl/src/hal/../draw/../misc/lv_color.h **** * see https://devblogs.microsoft.com/cppblog/msvc-now-correctly-reports-cplusplus
  80:lvgl/src/hal/../draw/../misc/lv_color.h **** * so we use _MSC_VER macro instead of __cplusplus
  81:lvgl/src/hal/../draw/../misc/lv_color.h **** */
  82:lvgl/src/hal/../draw/../misc/lv_color.h **** #ifdef _MSC_VER
  83:lvgl/src/hal/../draw/../misc/lv_color.h **** #if _MSC_VER >= 1900 /*Visual Studio 2015*/
  84:lvgl/src/hal/../draw/../misc/lv_color.h **** #define _LV_COLOR_HAS_MODERN_CPP 1
  85:lvgl/src/hal/../draw/../misc/lv_color.h **** #endif
  86:lvgl/src/hal/../draw/../misc/lv_color.h **** #else
  87:lvgl/src/hal/../draw/../misc/lv_color.h **** #if __cplusplus >= 201103L
  88:lvgl/src/hal/../draw/../misc/lv_color.h **** #define _LV_COLOR_HAS_MODERN_CPP 1
  89:lvgl/src/hal/../draw/../misc/lv_color.h **** #endif
  90:lvgl/src/hal/../draw/../misc/lv_color.h **** #endif
  91:lvgl/src/hal/../draw/../misc/lv_color.h **** #endif /*__cplusplus*/
  92:lvgl/src/hal/../draw/../misc/lv_color.h **** 
  93:lvgl/src/hal/../draw/../misc/lv_color.h **** #ifndef _LV_COLOR_HAS_MODERN_CPP
  94:lvgl/src/hal/../draw/../misc/lv_color.h **** #define _LV_COLOR_HAS_MODERN_CPP 0
  95:lvgl/src/hal/../draw/../misc/lv_color.h **** #endif
  96:lvgl/src/hal/../draw/../misc/lv_color.h **** 
  97:lvgl/src/hal/../draw/../misc/lv_color.h **** #if _LV_COLOR_HAS_MODERN_CPP
  98:lvgl/src/hal/../draw/../misc/lv_color.h **** /*Fix msvc compiler error C4576 inside C++ code*/
  99:lvgl/src/hal/../draw/../misc/lv_color.h **** #define _LV_COLOR_MAKE_TYPE_HELPER lv_color_t
 100:lvgl/src/hal/../draw/../misc/lv_color.h **** #else
 101:lvgl/src/hal/../draw/../misc/lv_color.h **** #define _LV_COLOR_MAKE_TYPE_HELPER (lv_color_t)
 102:lvgl/src/hal/../draw/../misc/lv_color.h **** #endif
 103:lvgl/src/hal/../draw/../misc/lv_color.h **** 
 104:lvgl/src/hal/../draw/../misc/lv_color.h **** /*---------------------------------------
 105:lvgl/src/hal/../draw/../misc/lv_color.h ****  * Macros for all existing color depths
 106:lvgl/src/hal/../draw/../misc/lv_color.h ****  * to set/get values of the color channels
ARM GAS  C:\usertemp\cctMo5e7.s 			page 11


 107:lvgl/src/hal/../draw/../misc/lv_color.h ****  *------------------------------------------*/
 108:lvgl/src/hal/../draw/../misc/lv_color.h **** # define LV_COLOR_SET_R1(c, v) (c).ch.red = (uint8_t)((v) & 0x1)
 109:lvgl/src/hal/../draw/../misc/lv_color.h **** # define LV_COLOR_SET_G1(c, v) (c).ch.green = (uint8_t)((v) & 0x1)
 110:lvgl/src/hal/../draw/../misc/lv_color.h **** # define LV_COLOR_SET_B1(c, v) (c).ch.blue = (uint8_t)((v) & 0x1)
 111:lvgl/src/hal/../draw/../misc/lv_color.h **** # define LV_COLOR_SET_A1(c, v) do {} while(0)
 112:lvgl/src/hal/../draw/../misc/lv_color.h **** 
 113:lvgl/src/hal/../draw/../misc/lv_color.h **** # define LV_COLOR_GET_R1(c) (c).ch.red
 114:lvgl/src/hal/../draw/../misc/lv_color.h **** # define LV_COLOR_GET_G1(c) (c).ch.green
 115:lvgl/src/hal/../draw/../misc/lv_color.h **** # define LV_COLOR_GET_B1(c) (c).ch.blue
 116:lvgl/src/hal/../draw/../misc/lv_color.h **** # define LV_COLOR_GET_A1(c) 0xFF
 117:lvgl/src/hal/../draw/../misc/lv_color.h **** 
 118:lvgl/src/hal/../draw/../misc/lv_color.h **** # define _LV_COLOR_ZERO_INITIALIZER1 {0x00}
 119:lvgl/src/hal/../draw/../misc/lv_color.h **** # define LV_COLOR_MAKE1(r8, g8, b8)  {(uint8_t)((b8 >> 7) | (g8 >> 7) | (r8 >> 7))}
 120:lvgl/src/hal/../draw/../misc/lv_color.h **** 
 121:lvgl/src/hal/../draw/../misc/lv_color.h **** # define LV_COLOR_SET_R8(c, v) (c).ch.red = (uint8_t)((v) & 0x7U)
 122:lvgl/src/hal/../draw/../misc/lv_color.h **** # define LV_COLOR_SET_G8(c, v) (c).ch.green = (uint8_t)((v) & 0x7U)
 123:lvgl/src/hal/../draw/../misc/lv_color.h **** # define LV_COLOR_SET_B8(c, v) (c).ch.blue = (uint8_t)((v) & 0x3U)
 124:lvgl/src/hal/../draw/../misc/lv_color.h **** # define LV_COLOR_SET_A8(c, v) do {} while(0)
 125:lvgl/src/hal/../draw/../misc/lv_color.h **** 
 126:lvgl/src/hal/../draw/../misc/lv_color.h **** # define LV_COLOR_GET_R8(c) (c).ch.red
 127:lvgl/src/hal/../draw/../misc/lv_color.h **** # define LV_COLOR_GET_G8(c) (c).ch.green
 128:lvgl/src/hal/../draw/../misc/lv_color.h **** # define LV_COLOR_GET_B8(c) (c).ch.blue
 129:lvgl/src/hal/../draw/../misc/lv_color.h **** # define LV_COLOR_GET_A8(c) 0xFF
 130:lvgl/src/hal/../draw/../misc/lv_color.h **** 
 131:lvgl/src/hal/../draw/../misc/lv_color.h **** # define _LV_COLOR_ZERO_INITIALIZER8 {{0x00, 0x00, 0x00}}
 132:lvgl/src/hal/../draw/../misc/lv_color.h **** # define LV_COLOR_MAKE8(r8, g8, b8) {{(uint8_t)((b8 >> 6) & 0x3U), (uint8_t)((g8 >> 5) & 0x7U), (ui
 133:lvgl/src/hal/../draw/../misc/lv_color.h **** 
 134:lvgl/src/hal/../draw/../misc/lv_color.h **** # define LV_COLOR_SET_R16(c, v) (c).ch.red = (uint8_t)((v) & 0x1FU)
 135:lvgl/src/hal/../draw/../misc/lv_color.h **** #if LV_COLOR_16_SWAP == 0
 136:lvgl/src/hal/../draw/../misc/lv_color.h **** # define LV_COLOR_SET_G16(c, v) (c).ch.green = (uint8_t)((v) & 0x3FU)
 137:lvgl/src/hal/../draw/../misc/lv_color.h **** #else
 138:lvgl/src/hal/../draw/../misc/lv_color.h **** # define LV_COLOR_SET_G16(c, v) {(c).ch.green_h = (uint8_t)(((v) >> 3) & 0x7); (c).ch.green_l = (ui
 139:lvgl/src/hal/../draw/../misc/lv_color.h **** #endif
 140:lvgl/src/hal/../draw/../misc/lv_color.h **** # define LV_COLOR_SET_B16(c, v) (c).ch.blue = (uint8_t)((v) & 0x1FU)
 141:lvgl/src/hal/../draw/../misc/lv_color.h **** # define LV_COLOR_SET_A16(c, v) do {} while(0)
 142:lvgl/src/hal/../draw/../misc/lv_color.h **** 
 143:lvgl/src/hal/../draw/../misc/lv_color.h **** # define LV_COLOR_GET_R16(c) (c).ch.red
 144:lvgl/src/hal/../draw/../misc/lv_color.h **** #if LV_COLOR_16_SWAP == 0
 145:lvgl/src/hal/../draw/../misc/lv_color.h **** # define LV_COLOR_GET_G16(c) (c).ch.green
 146:lvgl/src/hal/../draw/../misc/lv_color.h **** #else
 147:lvgl/src/hal/../draw/../misc/lv_color.h **** # define LV_COLOR_GET_G16(c) (((c).ch.green_h << 3) + (c).ch.green_l)
 148:lvgl/src/hal/../draw/../misc/lv_color.h **** #endif
 149:lvgl/src/hal/../draw/../misc/lv_color.h **** # define LV_COLOR_GET_B16(c) (c).ch.blue
 150:lvgl/src/hal/../draw/../misc/lv_color.h **** # define LV_COLOR_GET_A16(c) 0xFF
 151:lvgl/src/hal/../draw/../misc/lv_color.h **** 
 152:lvgl/src/hal/../draw/../misc/lv_color.h **** #if LV_COLOR_16_SWAP == 0
 153:lvgl/src/hal/../draw/../misc/lv_color.h **** # define _LV_COLOR_ZERO_INITIALIZER16  {{0x00, 0x00, 0x00}}
 154:lvgl/src/hal/../draw/../misc/lv_color.h **** # define LV_COLOR_MAKE16(r8, g8, b8) {{(uint8_t)((b8 >> 3) & 0x1FU), (uint8_t)((g8 >> 2) & 0x3FU), 
 155:lvgl/src/hal/../draw/../misc/lv_color.h **** #else
 156:lvgl/src/hal/../draw/../misc/lv_color.h **** # define _LV_COLOR_ZERO_INITIALIZER16 {{0x00, 0x00, 0x00, 0x00}}
 157:lvgl/src/hal/../draw/../misc/lv_color.h **** # define LV_COLOR_MAKE16(r8, g8, b8) {{(uint8_t)((g8 >> 5) & 0x7U), (uint8_t)((r8 >> 3) & 0x1FU), (
 158:lvgl/src/hal/../draw/../misc/lv_color.h **** #endif
 159:lvgl/src/hal/../draw/../misc/lv_color.h **** 
 160:lvgl/src/hal/../draw/../misc/lv_color.h **** # define LV_COLOR_SET_R32(c, v) (c).ch.red = (uint8_t)((v) & 0xFF)
 161:lvgl/src/hal/../draw/../misc/lv_color.h **** # define LV_COLOR_SET_G32(c, v) (c).ch.green = (uint8_t)((v) & 0xFF)
 162:lvgl/src/hal/../draw/../misc/lv_color.h **** # define LV_COLOR_SET_B32(c, v) (c).ch.blue = (uint8_t)((v) & 0xFF)
 163:lvgl/src/hal/../draw/../misc/lv_color.h **** # define LV_COLOR_SET_A32(c, v) (c).ch.alpha = (uint8_t)((v) & 0xFF)
ARM GAS  C:\usertemp\cctMo5e7.s 			page 12


 164:lvgl/src/hal/../draw/../misc/lv_color.h **** 
 165:lvgl/src/hal/../draw/../misc/lv_color.h **** # define LV_COLOR_GET_R32(c) (c).ch.red
 166:lvgl/src/hal/../draw/../misc/lv_color.h **** # define LV_COLOR_GET_G32(c) (c).ch.green
 167:lvgl/src/hal/../draw/../misc/lv_color.h **** # define LV_COLOR_GET_B32(c) (c).ch.blue
 168:lvgl/src/hal/../draw/../misc/lv_color.h **** # define LV_COLOR_GET_A32(c) (c).ch.alpha
 169:lvgl/src/hal/../draw/../misc/lv_color.h **** 
 170:lvgl/src/hal/../draw/../misc/lv_color.h **** # define _LV_COLOR_ZERO_INITIALIZER32  {{0x00, 0x00, 0x00, 0x00}}
 171:lvgl/src/hal/../draw/../misc/lv_color.h **** # define LV_COLOR_MAKE32(r8, g8, b8) {{b8, g8, r8, 0xff}} /*Fix 0xff alpha*/
 172:lvgl/src/hal/../draw/../misc/lv_color.h **** 
 173:lvgl/src/hal/../draw/../misc/lv_color.h **** /*---------------------------------------
 174:lvgl/src/hal/../draw/../misc/lv_color.h ****  * Macros for the current color depth
 175:lvgl/src/hal/../draw/../misc/lv_color.h ****  * to set/get values of the color channels
 176:lvgl/src/hal/../draw/../misc/lv_color.h ****  *------------------------------------------*/
 177:lvgl/src/hal/../draw/../misc/lv_color.h **** #define LV_COLOR_SET_R(c, v) LV_CONCAT(LV_COLOR_SET_R, LV_COLOR_DEPTH)(c, v)
 178:lvgl/src/hal/../draw/../misc/lv_color.h **** #define LV_COLOR_SET_G(c, v) LV_CONCAT(LV_COLOR_SET_G, LV_COLOR_DEPTH)(c, v)
 179:lvgl/src/hal/../draw/../misc/lv_color.h **** #define LV_COLOR_SET_B(c, v) LV_CONCAT(LV_COLOR_SET_B, LV_COLOR_DEPTH)(c, v)
 180:lvgl/src/hal/../draw/../misc/lv_color.h **** #define LV_COLOR_SET_A(c, v) LV_CONCAT(LV_COLOR_SET_A, LV_COLOR_DEPTH)(c, v)
 181:lvgl/src/hal/../draw/../misc/lv_color.h **** 
 182:lvgl/src/hal/../draw/../misc/lv_color.h **** #define LV_COLOR_GET_R(c) LV_CONCAT(LV_COLOR_GET_R, LV_COLOR_DEPTH)(c)
 183:lvgl/src/hal/../draw/../misc/lv_color.h **** #define LV_COLOR_GET_G(c) LV_CONCAT(LV_COLOR_GET_G, LV_COLOR_DEPTH)(c)
 184:lvgl/src/hal/../draw/../misc/lv_color.h **** #define LV_COLOR_GET_B(c) LV_CONCAT(LV_COLOR_GET_B, LV_COLOR_DEPTH)(c)
 185:lvgl/src/hal/../draw/../misc/lv_color.h **** #define LV_COLOR_GET_A(c) LV_CONCAT(LV_COLOR_GET_A, LV_COLOR_DEPTH)(c)
 186:lvgl/src/hal/../draw/../misc/lv_color.h **** 
 187:lvgl/src/hal/../draw/../misc/lv_color.h **** #define _LV_COLOR_ZERO_INITIALIZER LV_CONCAT(_LV_COLOR_ZERO_INITIALIZER, LV_COLOR_DEPTH)
 188:lvgl/src/hal/../draw/../misc/lv_color.h **** #define LV_COLOR_MAKE(r8, g8, b8) LV_CONCAT(LV_COLOR_MAKE, LV_COLOR_DEPTH)(r8, g8, b8)
 189:lvgl/src/hal/../draw/../misc/lv_color.h **** 
 190:lvgl/src/hal/../draw/../misc/lv_color.h **** /**********************
 191:lvgl/src/hal/../draw/../misc/lv_color.h ****  *      TYPEDEFS
 192:lvgl/src/hal/../draw/../misc/lv_color.h ****  **********************/
 193:lvgl/src/hal/../draw/../misc/lv_color.h **** 
 194:lvgl/src/hal/../draw/../misc/lv_color.h **** typedef union {
 195:lvgl/src/hal/../draw/../misc/lv_color.h ****     uint8_t full; /*must be declared first to set all bits of byte via initializer list*/
 196:lvgl/src/hal/../draw/../misc/lv_color.h ****     union {
 197:lvgl/src/hal/../draw/../misc/lv_color.h ****         uint8_t blue : 1;
 198:lvgl/src/hal/../draw/../misc/lv_color.h ****         uint8_t green : 1;
 199:lvgl/src/hal/../draw/../misc/lv_color.h ****         uint8_t red : 1;
 200:lvgl/src/hal/../draw/../misc/lv_color.h ****     } ch;
 201:lvgl/src/hal/../draw/../misc/lv_color.h **** } lv_color1_t;
 202:lvgl/src/hal/../draw/../misc/lv_color.h **** 
 203:lvgl/src/hal/../draw/../misc/lv_color.h **** typedef union {
 204:lvgl/src/hal/../draw/../misc/lv_color.h ****     struct {
 205:lvgl/src/hal/../draw/../misc/lv_color.h ****         uint8_t blue : 2;
 206:lvgl/src/hal/../draw/../misc/lv_color.h ****         uint8_t green : 3;
 207:lvgl/src/hal/../draw/../misc/lv_color.h ****         uint8_t red : 3;
 208:lvgl/src/hal/../draw/../misc/lv_color.h ****     } ch;
 209:lvgl/src/hal/../draw/../misc/lv_color.h ****     uint8_t full;
 210:lvgl/src/hal/../draw/../misc/lv_color.h **** } lv_color8_t;
 211:lvgl/src/hal/../draw/../misc/lv_color.h **** 
 212:lvgl/src/hal/../draw/../misc/lv_color.h **** typedef union {
 213:lvgl/src/hal/../draw/../misc/lv_color.h ****     struct {
 214:lvgl/src/hal/../draw/../misc/lv_color.h **** #if LV_COLOR_16_SWAP == 0
 215:lvgl/src/hal/../draw/../misc/lv_color.h ****         uint16_t blue : 5;
 216:lvgl/src/hal/../draw/../misc/lv_color.h ****         uint16_t green : 6;
 217:lvgl/src/hal/../draw/../misc/lv_color.h ****         uint16_t red : 5;
 218:lvgl/src/hal/../draw/../misc/lv_color.h **** #else
 219:lvgl/src/hal/../draw/../misc/lv_color.h ****         uint16_t green_h : 3;
 220:lvgl/src/hal/../draw/../misc/lv_color.h ****         uint16_t red : 5;
ARM GAS  C:\usertemp\cctMo5e7.s 			page 13


 221:lvgl/src/hal/../draw/../misc/lv_color.h ****         uint16_t blue : 5;
 222:lvgl/src/hal/../draw/../misc/lv_color.h ****         uint16_t green_l : 3;
 223:lvgl/src/hal/../draw/../misc/lv_color.h **** #endif
 224:lvgl/src/hal/../draw/../misc/lv_color.h ****     } ch;
 225:lvgl/src/hal/../draw/../misc/lv_color.h ****     uint16_t full;
 226:lvgl/src/hal/../draw/../misc/lv_color.h **** } lv_color16_t;
 227:lvgl/src/hal/../draw/../misc/lv_color.h **** 
 228:lvgl/src/hal/../draw/../misc/lv_color.h **** typedef union {
 229:lvgl/src/hal/../draw/../misc/lv_color.h ****     struct {
 230:lvgl/src/hal/../draw/../misc/lv_color.h ****         uint8_t blue;
 231:lvgl/src/hal/../draw/../misc/lv_color.h ****         uint8_t green;
 232:lvgl/src/hal/../draw/../misc/lv_color.h ****         uint8_t red;
 233:lvgl/src/hal/../draw/../misc/lv_color.h ****         uint8_t alpha;
 234:lvgl/src/hal/../draw/../misc/lv_color.h ****     } ch;
 235:lvgl/src/hal/../draw/../misc/lv_color.h ****     uint32_t full;
 236:lvgl/src/hal/../draw/../misc/lv_color.h **** } lv_color32_t;
 237:lvgl/src/hal/../draw/../misc/lv_color.h **** 
 238:lvgl/src/hal/../draw/../misc/lv_color.h **** typedef LV_CONCAT3(uint, LV_COLOR_SIZE, _t) lv_color_int_t;
 239:lvgl/src/hal/../draw/../misc/lv_color.h **** typedef LV_CONCAT3(lv_color, LV_COLOR_DEPTH, _t) lv_color_t;
 240:lvgl/src/hal/../draw/../misc/lv_color.h **** 
 241:lvgl/src/hal/../draw/../misc/lv_color.h **** typedef struct {
 242:lvgl/src/hal/../draw/../misc/lv_color.h ****     uint16_t h;
 243:lvgl/src/hal/../draw/../misc/lv_color.h ****     uint8_t s;
 244:lvgl/src/hal/../draw/../misc/lv_color.h ****     uint8_t v;
 245:lvgl/src/hal/../draw/../misc/lv_color.h **** } lv_color_hsv_t;
 246:lvgl/src/hal/../draw/../misc/lv_color.h **** 
 247:lvgl/src/hal/../draw/../misc/lv_color.h **** //! @cond Doxygen_Suppress
 248:lvgl/src/hal/../draw/../misc/lv_color.h **** /*No idea where the guard is required but else throws warnings in the docs*/
 249:lvgl/src/hal/../draw/../misc/lv_color.h **** typedef uint8_t lv_opa_t;
 250:lvgl/src/hal/../draw/../misc/lv_color.h **** //! @endcond
 251:lvgl/src/hal/../draw/../misc/lv_color.h **** 
 252:lvgl/src/hal/../draw/../misc/lv_color.h **** struct _lv_color_filter_dsc_t;
 253:lvgl/src/hal/../draw/../misc/lv_color.h **** 
 254:lvgl/src/hal/../draw/../misc/lv_color.h **** typedef lv_color_t (*lv_color_filter_cb_t)(const struct _lv_color_filter_dsc_t *, lv_color_t, lv_op
 255:lvgl/src/hal/../draw/../misc/lv_color.h **** 
 256:lvgl/src/hal/../draw/../misc/lv_color.h **** typedef struct _lv_color_filter_dsc_t {
 257:lvgl/src/hal/../draw/../misc/lv_color.h ****     lv_color_filter_cb_t filter_cb;
 258:lvgl/src/hal/../draw/../misc/lv_color.h ****     void * user_data;
 259:lvgl/src/hal/../draw/../misc/lv_color.h **** } lv_color_filter_dsc_t;
 260:lvgl/src/hal/../draw/../misc/lv_color.h **** 
 261:lvgl/src/hal/../draw/../misc/lv_color.h **** 
 262:lvgl/src/hal/../draw/../misc/lv_color.h **** typedef enum {
 263:lvgl/src/hal/../draw/../misc/lv_color.h ****     LV_PALETTE_RED,
 264:lvgl/src/hal/../draw/../misc/lv_color.h ****     LV_PALETTE_PINK,
 265:lvgl/src/hal/../draw/../misc/lv_color.h ****     LV_PALETTE_PURPLE,
 266:lvgl/src/hal/../draw/../misc/lv_color.h ****     LV_PALETTE_DEEP_PURPLE,
 267:lvgl/src/hal/../draw/../misc/lv_color.h ****     LV_PALETTE_INDIGO,
 268:lvgl/src/hal/../draw/../misc/lv_color.h ****     LV_PALETTE_BLUE,
 269:lvgl/src/hal/../draw/../misc/lv_color.h ****     LV_PALETTE_LIGHT_BLUE,
 270:lvgl/src/hal/../draw/../misc/lv_color.h ****     LV_PALETTE_CYAN,
 271:lvgl/src/hal/../draw/../misc/lv_color.h ****     LV_PALETTE_TEAL,
 272:lvgl/src/hal/../draw/../misc/lv_color.h ****     LV_PALETTE_GREEN,
 273:lvgl/src/hal/../draw/../misc/lv_color.h ****     LV_PALETTE_LIGHT_GREEN,
 274:lvgl/src/hal/../draw/../misc/lv_color.h ****     LV_PALETTE_LIME,
 275:lvgl/src/hal/../draw/../misc/lv_color.h ****     LV_PALETTE_YELLOW,
 276:lvgl/src/hal/../draw/../misc/lv_color.h ****     LV_PALETTE_AMBER,
 277:lvgl/src/hal/../draw/../misc/lv_color.h ****     LV_PALETTE_ORANGE,
ARM GAS  C:\usertemp\cctMo5e7.s 			page 14


 278:lvgl/src/hal/../draw/../misc/lv_color.h ****     LV_PALETTE_DEEP_ORANGE,
 279:lvgl/src/hal/../draw/../misc/lv_color.h ****     LV_PALETTE_BROWN,
 280:lvgl/src/hal/../draw/../misc/lv_color.h ****     LV_PALETTE_BLUE_GREY,
 281:lvgl/src/hal/../draw/../misc/lv_color.h ****     LV_PALETTE_GREY,
 282:lvgl/src/hal/../draw/../misc/lv_color.h ****     _LV_PALETTE_LAST,
 283:lvgl/src/hal/../draw/../misc/lv_color.h ****     LV_PALETTE_NONE = 0xff,
 284:lvgl/src/hal/../draw/../misc/lv_color.h **** } lv_palette_t;
 285:lvgl/src/hal/../draw/../misc/lv_color.h **** 
 286:lvgl/src/hal/../draw/../misc/lv_color.h **** /**********************
 287:lvgl/src/hal/../draw/../misc/lv_color.h ****  * GLOBAL PROTOTYPES
 288:lvgl/src/hal/../draw/../misc/lv_color.h ****  **********************/
 289:lvgl/src/hal/../draw/../misc/lv_color.h **** 
 290:lvgl/src/hal/../draw/../misc/lv_color.h **** /*In color conversations:
 291:lvgl/src/hal/../draw/../misc/lv_color.h ****  * - When converting to bigger color type the LSB weight of 1 LSB is calculated
 292:lvgl/src/hal/../draw/../misc/lv_color.h ****  *   E.g. 16 bit Red has 5 bits
 293:lvgl/src/hal/../draw/../misc/lv_color.h ****  *         8 bit Red has 3 bits
 294:lvgl/src/hal/../draw/../misc/lv_color.h ****  *        ----------------------
 295:lvgl/src/hal/../draw/../misc/lv_color.h ****  *        8 bit red LSB = (2^5 - 1) / (2^3 - 1) = 31 / 7 = 4
 296:lvgl/src/hal/../draw/../misc/lv_color.h ****  *
 297:lvgl/src/hal/../draw/../misc/lv_color.h ****  * - When calculating to smaller color type simply shift out the LSBs
 298:lvgl/src/hal/../draw/../misc/lv_color.h ****  *   E.g.  8 bit Red has 3 bits
 299:lvgl/src/hal/../draw/../misc/lv_color.h ****  *        16 bit Red has 5 bits
 300:lvgl/src/hal/../draw/../misc/lv_color.h ****  *        ----------------------
 301:lvgl/src/hal/../draw/../misc/lv_color.h ****  *         Shift right with 5 - 3 = 2
 302:lvgl/src/hal/../draw/../misc/lv_color.h ****  */
 303:lvgl/src/hal/../draw/../misc/lv_color.h **** static inline uint8_t lv_color_to1(lv_color_t color)
 304:lvgl/src/hal/../draw/../misc/lv_color.h **** {
 305:lvgl/src/hal/../draw/../misc/lv_color.h **** #if LV_COLOR_DEPTH == 1
 306:lvgl/src/hal/../draw/../misc/lv_color.h ****     return color.full;
 307:lvgl/src/hal/../draw/../misc/lv_color.h **** #elif LV_COLOR_DEPTH == 8
 308:lvgl/src/hal/../draw/../misc/lv_color.h ****     if((LV_COLOR_GET_R(color) & 0x4) || (LV_COLOR_GET_G(color) & 0x4) || (LV_COLOR_GET_B(color) & 0
 309:lvgl/src/hal/../draw/../misc/lv_color.h ****         return 1;
 310:lvgl/src/hal/../draw/../misc/lv_color.h ****     }
 311:lvgl/src/hal/../draw/../misc/lv_color.h ****     else {
 312:lvgl/src/hal/../draw/../misc/lv_color.h ****         return 0;
 313:lvgl/src/hal/../draw/../misc/lv_color.h ****     }
 314:lvgl/src/hal/../draw/../misc/lv_color.h **** #elif LV_COLOR_DEPTH == 16
 315:lvgl/src/hal/../draw/../misc/lv_color.h ****     if((LV_COLOR_GET_R(color) & 0x10) || (LV_COLOR_GET_G(color) & 0x20) || (LV_COLOR_GET_B(color) &
 316:lvgl/src/hal/../draw/../misc/lv_color.h ****         return 1;
 317:lvgl/src/hal/../draw/../misc/lv_color.h ****     }
 318:lvgl/src/hal/../draw/../misc/lv_color.h ****     else {
 319:lvgl/src/hal/../draw/../misc/lv_color.h ****         return 0;
 320:lvgl/src/hal/../draw/../misc/lv_color.h ****     }
 321:lvgl/src/hal/../draw/../misc/lv_color.h **** #elif LV_COLOR_DEPTH == 32
 322:lvgl/src/hal/../draw/../misc/lv_color.h ****     if((LV_COLOR_GET_R(color) & 0x80) || (LV_COLOR_GET_G(color) & 0x80) || (LV_COLOR_GET_B(color) &
 323:lvgl/src/hal/../draw/../misc/lv_color.h ****         return 1;
 324:lvgl/src/hal/../draw/../misc/lv_color.h ****     }
 325:lvgl/src/hal/../draw/../misc/lv_color.h ****     else {
 326:lvgl/src/hal/../draw/../misc/lv_color.h ****         return 0;
 327:lvgl/src/hal/../draw/../misc/lv_color.h ****     }
 328:lvgl/src/hal/../draw/../misc/lv_color.h **** #endif
 329:lvgl/src/hal/../draw/../misc/lv_color.h **** }
 330:lvgl/src/hal/../draw/../misc/lv_color.h **** 
 331:lvgl/src/hal/../draw/../misc/lv_color.h **** static inline uint8_t lv_color_to8(lv_color_t color)
 332:lvgl/src/hal/../draw/../misc/lv_color.h **** {
 333:lvgl/src/hal/../draw/../misc/lv_color.h **** #if LV_COLOR_DEPTH == 1
 334:lvgl/src/hal/../draw/../misc/lv_color.h ****     if(color.full == 0)
ARM GAS  C:\usertemp\cctMo5e7.s 			page 15


 335:lvgl/src/hal/../draw/../misc/lv_color.h ****         return 0;
 336:lvgl/src/hal/../draw/../misc/lv_color.h ****     else
 337:lvgl/src/hal/../draw/../misc/lv_color.h ****         return 0xFF;
 338:lvgl/src/hal/../draw/../misc/lv_color.h **** #elif LV_COLOR_DEPTH == 8
 339:lvgl/src/hal/../draw/../misc/lv_color.h ****     return color.full;
 340:lvgl/src/hal/../draw/../misc/lv_color.h **** #elif LV_COLOR_DEPTH == 16
 341:lvgl/src/hal/../draw/../misc/lv_color.h ****     lv_color8_t ret;
 342:lvgl/src/hal/../draw/../misc/lv_color.h ****     LV_COLOR_SET_R8(ret, LV_COLOR_GET_R(color) >> 2); /*5 - 3  = 2*/
 343:lvgl/src/hal/../draw/../misc/lv_color.h ****     LV_COLOR_SET_G8(ret, LV_COLOR_GET_G(color) >> 3); /*6 - 3  = 3*/
 344:lvgl/src/hal/../draw/../misc/lv_color.h ****     LV_COLOR_SET_B8(ret, LV_COLOR_GET_B(color) >> 3); /*5 - 2  = 3*/
 345:lvgl/src/hal/../draw/../misc/lv_color.h ****     return ret.full;
 346:lvgl/src/hal/../draw/../misc/lv_color.h **** #elif LV_COLOR_DEPTH == 32
 347:lvgl/src/hal/../draw/../misc/lv_color.h ****     lv_color8_t ret;
 348:lvgl/src/hal/../draw/../misc/lv_color.h ****     LV_COLOR_SET_R8(ret, LV_COLOR_GET_R(color) >> 5); /*8 - 3  = 5*/
 349:lvgl/src/hal/../draw/../misc/lv_color.h ****     LV_COLOR_SET_G8(ret, LV_COLOR_GET_G(color) >> 5); /*8 - 3  = 5*/
 350:lvgl/src/hal/../draw/../misc/lv_color.h ****     LV_COLOR_SET_B8(ret, LV_COLOR_GET_B(color) >> 6); /*8 - 2  = 6*/
 351:lvgl/src/hal/../draw/../misc/lv_color.h ****     return ret.full;
 352:lvgl/src/hal/../draw/../misc/lv_color.h **** #endif
 353:lvgl/src/hal/../draw/../misc/lv_color.h **** }
 354:lvgl/src/hal/../draw/../misc/lv_color.h **** 
 355:lvgl/src/hal/../draw/../misc/lv_color.h **** static inline uint16_t lv_color_to16(lv_color_t color)
 356:lvgl/src/hal/../draw/../misc/lv_color.h **** {
 357:lvgl/src/hal/../draw/../misc/lv_color.h **** #if LV_COLOR_DEPTH == 1
 358:lvgl/src/hal/../draw/../misc/lv_color.h ****     if(color.full == 0)
 359:lvgl/src/hal/../draw/../misc/lv_color.h ****         return 0;
 360:lvgl/src/hal/../draw/../misc/lv_color.h ****     else
 361:lvgl/src/hal/../draw/../misc/lv_color.h ****         return 0xFFFF;
 362:lvgl/src/hal/../draw/../misc/lv_color.h **** #elif LV_COLOR_DEPTH == 8
 363:lvgl/src/hal/../draw/../misc/lv_color.h ****     lv_color16_t ret;
 364:lvgl/src/hal/../draw/../misc/lv_color.h ****     LV_COLOR_SET_R16(ret, LV_COLOR_GET_R(color) * 4);  /*(2^5 - 1)/(2^3 - 1) = 31/7 = 4*/
 365:lvgl/src/hal/../draw/../misc/lv_color.h ****     LV_COLOR_SET_G16(ret, LV_COLOR_GET_G(color) * 9);  /*(2^6 - 1)/(2^3 - 1) = 63/7 = 9*/
 366:lvgl/src/hal/../draw/../misc/lv_color.h ****     LV_COLOR_SET_B16(ret, LV_COLOR_GET_B(color) * 10); /*(2^5 - 1)/(2^2 - 1) = 31/3 = 10*/
 367:lvgl/src/hal/../draw/../misc/lv_color.h ****     return ret.full;
 368:lvgl/src/hal/../draw/../misc/lv_color.h **** #elif LV_COLOR_DEPTH == 16
 369:lvgl/src/hal/../draw/../misc/lv_color.h ****     return color.full;
 370:lvgl/src/hal/../draw/../misc/lv_color.h **** #elif LV_COLOR_DEPTH == 32
 371:lvgl/src/hal/../draw/../misc/lv_color.h ****     lv_color16_t ret;
 372:lvgl/src/hal/../draw/../misc/lv_color.h ****     LV_COLOR_SET_R16(ret, LV_COLOR_GET_R(color) >> 3); /*8 - 5  = 3*/
 373:lvgl/src/hal/../draw/../misc/lv_color.h ****     LV_COLOR_SET_G16(ret, LV_COLOR_GET_G(color) >> 2); /*8 - 6  = 2*/
 374:lvgl/src/hal/../draw/../misc/lv_color.h ****     LV_COLOR_SET_B16(ret, LV_COLOR_GET_B(color) >> 3); /*8 - 5  = 3*/
 375:lvgl/src/hal/../draw/../misc/lv_color.h ****     return ret.full;
 376:lvgl/src/hal/../draw/../misc/lv_color.h **** #endif
 377:lvgl/src/hal/../draw/../misc/lv_color.h **** }
 378:lvgl/src/hal/../draw/../misc/lv_color.h **** 
 379:lvgl/src/hal/../draw/../misc/lv_color.h **** static inline uint32_t lv_color_to32(lv_color_t color)
 380:lvgl/src/hal/../draw/../misc/lv_color.h **** {
 381:lvgl/src/hal/../draw/../misc/lv_color.h **** #if LV_COLOR_DEPTH == 1
 382:lvgl/src/hal/../draw/../misc/lv_color.h ****     if(color.full == 0)
 383:lvgl/src/hal/../draw/../misc/lv_color.h ****         return 0xFF000000;
 384:lvgl/src/hal/../draw/../misc/lv_color.h ****     else
 385:lvgl/src/hal/../draw/../misc/lv_color.h ****         return 0xFFFFFFFF;
 386:lvgl/src/hal/../draw/../misc/lv_color.h **** #elif LV_COLOR_DEPTH == 8
 387:lvgl/src/hal/../draw/../misc/lv_color.h ****     lv_color32_t ret;
 388:lvgl/src/hal/../draw/../misc/lv_color.h ****     LV_COLOR_SET_R32(ret, LV_COLOR_GET_R(color) * 36); /*(2^8 - 1)/(2^3 - 1) = 255/7 = 36*/
 389:lvgl/src/hal/../draw/../misc/lv_color.h ****     LV_COLOR_SET_G32(ret, LV_COLOR_GET_G(color) * 36); /*(2^8 - 1)/(2^3 - 1) = 255/7 = 36*/
 390:lvgl/src/hal/../draw/../misc/lv_color.h ****     LV_COLOR_SET_B32(ret, LV_COLOR_GET_B(color) * 85); /*(2^8 - 1)/(2^2 - 1) = 255/3 = 85*/
 391:lvgl/src/hal/../draw/../misc/lv_color.h ****     LV_COLOR_SET_A32(ret, 0xFF);
ARM GAS  C:\usertemp\cctMo5e7.s 			page 16


 392:lvgl/src/hal/../draw/../misc/lv_color.h ****     return ret.full;
 393:lvgl/src/hal/../draw/../misc/lv_color.h **** #elif LV_COLOR_DEPTH == 16
 394:lvgl/src/hal/../draw/../misc/lv_color.h ****     /**
 395:lvgl/src/hal/../draw/../misc/lv_color.h ****      * The floating point math for conversion is:
 396:lvgl/src/hal/../draw/../misc/lv_color.h ****      *  valueto = valuefrom * ( (2^bitsto - 1) / (float)(2^bitsfrom - 1) )
 397:lvgl/src/hal/../draw/../misc/lv_color.h ****      * The faster integer math for conversion is:
 398:lvgl/src/hal/../draw/../misc/lv_color.h ****      *  valueto = ( valuefrom * multiplier + adder ) >> divisor
 399:lvgl/src/hal/../draw/../misc/lv_color.h ****      *   multiplier = FLOOR( ( (2^bitsto - 1) << divisor ) / (float)(2^bitsfrom - 1) )
 400:lvgl/src/hal/../draw/../misc/lv_color.h ****      *
 401:lvgl/src/hal/../draw/../misc/lv_color.h ****      * Find the first divisor where ( adder >> divisor ) <= 0
 402:lvgl/src/hal/../draw/../misc/lv_color.h ****      *
 403:lvgl/src/hal/../draw/../misc/lv_color.h ****      * 5-bit to 8-bit: ( 31 * multiplier + adder ) >> divisor = 255
 404:lvgl/src/hal/../draw/../misc/lv_color.h ****      * divisor  multiplier  adder  min (0)  max (31)
 405:lvgl/src/hal/../draw/../misc/lv_color.h ****      *       0           8      7        7       255
 406:lvgl/src/hal/../draw/../misc/lv_color.h ****      *       1          16     14        7       255
 407:lvgl/src/hal/../draw/../misc/lv_color.h ****      *       2          32     28        7       255
 408:lvgl/src/hal/../draw/../misc/lv_color.h ****      *       3          65     25        3       255
 409:lvgl/src/hal/../draw/../misc/lv_color.h ****      *       4         131     19        1       255
 410:lvgl/src/hal/../draw/../misc/lv_color.h ****      *       5         263      7        0       255
 411:lvgl/src/hal/../draw/../misc/lv_color.h ****      *
 412:lvgl/src/hal/../draw/../misc/lv_color.h ****      * 6-bit to 8-bit: 255 = ( 63 * multiplier + adder ) >> divisor
 413:lvgl/src/hal/../draw/../misc/lv_color.h ****      * divisor  multiplier  adder  min (0)  max (63)
 414:lvgl/src/hal/../draw/../misc/lv_color.h ****      *       0           4      3        3       255
 415:lvgl/src/hal/../draw/../misc/lv_color.h ****      *       1           8      6        3       255
 416:lvgl/src/hal/../draw/../misc/lv_color.h ****      *       2          16     12        3       255
 417:lvgl/src/hal/../draw/../misc/lv_color.h ****      *       3          32     24        3       255
 418:lvgl/src/hal/../draw/../misc/lv_color.h ****      *       4          64     48        3       255
 419:lvgl/src/hal/../draw/../misc/lv_color.h ****      *       5         129     33        1       255
 420:lvgl/src/hal/../draw/../misc/lv_color.h ****      *       6         259      3        0       255
 421:lvgl/src/hal/../draw/../misc/lv_color.h ****      */
 422:lvgl/src/hal/../draw/../misc/lv_color.h **** 
 423:lvgl/src/hal/../draw/../misc/lv_color.h ****     lv_color32_t ret;
 424:lvgl/src/hal/../draw/../misc/lv_color.h ****     LV_COLOR_SET_R32(ret, (LV_COLOR_GET_R(color) * 263 + 7) >> 5);
 425:lvgl/src/hal/../draw/../misc/lv_color.h ****     LV_COLOR_SET_G32(ret, (LV_COLOR_GET_G(color) * 259 + 3) >> 6);
 426:lvgl/src/hal/../draw/../misc/lv_color.h ****     LV_COLOR_SET_B32(ret, (LV_COLOR_GET_B(color) * 263 + 7) >> 5);
 427:lvgl/src/hal/../draw/../misc/lv_color.h ****     LV_COLOR_SET_A32(ret, 0xFF);
 428:lvgl/src/hal/../draw/../misc/lv_color.h ****     return ret.full;
 429:lvgl/src/hal/../draw/../misc/lv_color.h **** #elif LV_COLOR_DEPTH == 32
 430:lvgl/src/hal/../draw/../misc/lv_color.h ****     return color.full;
 431:lvgl/src/hal/../draw/../misc/lv_color.h **** #endif
 432:lvgl/src/hal/../draw/../misc/lv_color.h **** }
 433:lvgl/src/hal/../draw/../misc/lv_color.h **** 
 434:lvgl/src/hal/../draw/../misc/lv_color.h **** //! @cond Doxygen_Suppress
 435:lvgl/src/hal/../draw/../misc/lv_color.h **** 
 436:lvgl/src/hal/../draw/../misc/lv_color.h **** /**
 437:lvgl/src/hal/../draw/../misc/lv_color.h ****  * Mix two colors with a given ratio.
 438:lvgl/src/hal/../draw/../misc/lv_color.h ****  * @param c1 the first color to mix (usually the foreground)
 439:lvgl/src/hal/../draw/../misc/lv_color.h ****  * @param c2 the second color to mix (usually the background)
 440:lvgl/src/hal/../draw/../misc/lv_color.h ****  * @param mix The ratio of the colors. 0: full `c2`, 255: full `c1`, 127: half `c1` and half`c2`
 441:lvgl/src/hal/../draw/../misc/lv_color.h ****  * @return the mixed color
 442:lvgl/src/hal/../draw/../misc/lv_color.h ****  */
 443:lvgl/src/hal/../draw/../misc/lv_color.h **** LV_ATTRIBUTE_FAST_MEM static inline lv_color_t lv_color_mix(lv_color_t c1, lv_color_t c2, uint8_t m
 444:lvgl/src/hal/../draw/../misc/lv_color.h **** {
 445:lvgl/src/hal/../draw/../misc/lv_color.h ****     lv_color_t ret;
 446:lvgl/src/hal/../draw/../misc/lv_color.h **** 
 447:lvgl/src/hal/../draw/../misc/lv_color.h **** #if LV_COLOR_DEPTH == 16 && LV_COLOR_16_SWAP == 0
 448:lvgl/src/hal/../draw/../misc/lv_color.h ****     /*Source: https://stackoverflow.com/a/50012418/1999969*/
ARM GAS  C:\usertemp\cctMo5e7.s 			page 17


 449:lvgl/src/hal/../draw/../misc/lv_color.h ****     mix = (mix + 4) >> 3;
 450:lvgl/src/hal/../draw/../misc/lv_color.h ****     uint32_t bg = (uint32_t)((uint32_t)c2.full | ((uint32_t)c2.full << 16)) &
 451:lvgl/src/hal/../draw/../misc/lv_color.h ****                   0x7E0F81F; /*0b00000111111000001111100000011111*/
 452:lvgl/src/hal/../draw/../misc/lv_color.h ****     uint32_t fg = (uint32_t)((uint32_t)c1.full | ((uint32_t)c1.full << 16)) & 0x7E0F81F;
 453:lvgl/src/hal/../draw/../misc/lv_color.h ****     uint32_t result = ((((fg - bg) * mix) >> 5) + bg) & 0x7E0F81F;
 454:lvgl/src/hal/../draw/../misc/lv_color.h ****     ret.full = (uint16_t)((result >> 16) | result);
 455:lvgl/src/hal/../draw/../misc/lv_color.h **** #elif LV_COLOR_DEPTH != 1
 456:lvgl/src/hal/../draw/../misc/lv_color.h ****     /*LV_COLOR_DEPTH == 8, 16 or 32*/
 457:lvgl/src/hal/../draw/../misc/lv_color.h ****     LV_COLOR_SET_R(ret, LV_UDIV255((uint16_t)LV_COLOR_GET_R(c1) * mix + LV_COLOR_GET_R(c2) *
 458:lvgl/src/hal/../draw/../misc/lv_color.h ****                                    (255 - mix) + LV_COLOR_MIX_ROUND_OFS));
 459:lvgl/src/hal/../draw/../misc/lv_color.h ****     LV_COLOR_SET_G(ret, LV_UDIV255((uint16_t)LV_COLOR_GET_G(c1) * mix + LV_COLOR_GET_G(c2) *
 460:lvgl/src/hal/../draw/../misc/lv_color.h ****                                    (255 - mix) + LV_COLOR_MIX_ROUND_OFS));
 461:lvgl/src/hal/../draw/../misc/lv_color.h ****     LV_COLOR_SET_B(ret, LV_UDIV255((uint16_t)LV_COLOR_GET_B(c1) * mix + LV_COLOR_GET_B(c2) *
 462:lvgl/src/hal/../draw/../misc/lv_color.h ****                                    (255 - mix) + LV_COLOR_MIX_ROUND_OFS));
 463:lvgl/src/hal/../draw/../misc/lv_color.h ****     LV_COLOR_SET_A(ret, 0xFF);
 464:lvgl/src/hal/../draw/../misc/lv_color.h **** #else
 465:lvgl/src/hal/../draw/../misc/lv_color.h ****     /*LV_COLOR_DEPTH == 1*/
 466:lvgl/src/hal/../draw/../misc/lv_color.h ****     ret.full = mix > LV_OPA_50 ? c1.full : c2.full;
 467:lvgl/src/hal/../draw/../misc/lv_color.h **** #endif
 468:lvgl/src/hal/../draw/../misc/lv_color.h **** 
 469:lvgl/src/hal/../draw/../misc/lv_color.h ****     return ret;
 470:lvgl/src/hal/../draw/../misc/lv_color.h **** }
 471:lvgl/src/hal/../draw/../misc/lv_color.h **** 
 472:lvgl/src/hal/../draw/../misc/lv_color.h **** LV_ATTRIBUTE_FAST_MEM static inline void lv_color_premult(lv_color_t c, uint8_t mix, uint16_t * out
 473:lvgl/src/hal/../draw/../misc/lv_color.h **** {
 474:lvgl/src/hal/../draw/../misc/lv_color.h **** #if LV_COLOR_DEPTH != 1
 475:lvgl/src/hal/../draw/../misc/lv_color.h ****     out[0] = (uint16_t)LV_COLOR_GET_R(c) * mix;
 476:lvgl/src/hal/../draw/../misc/lv_color.h ****     out[1] = (uint16_t)LV_COLOR_GET_G(c) * mix;
 477:lvgl/src/hal/../draw/../misc/lv_color.h ****     out[2] = (uint16_t)LV_COLOR_GET_B(c) * mix;
 478:lvgl/src/hal/../draw/../misc/lv_color.h **** #else
 479:lvgl/src/hal/../draw/../misc/lv_color.h ****     (void) mix;
 480:lvgl/src/hal/../draw/../misc/lv_color.h ****     /*Pre-multiplication can't be used with 1 bpp*/
 481:lvgl/src/hal/../draw/../misc/lv_color.h ****     out[0] = LV_COLOR_GET_R(c);
 482:lvgl/src/hal/../draw/../misc/lv_color.h ****     out[1] = LV_COLOR_GET_G(c);
 483:lvgl/src/hal/../draw/../misc/lv_color.h ****     out[2] = LV_COLOR_GET_B(c);
 484:lvgl/src/hal/../draw/../misc/lv_color.h **** #endif
 485:lvgl/src/hal/../draw/../misc/lv_color.h **** 
 486:lvgl/src/hal/../draw/../misc/lv_color.h **** }
 487:lvgl/src/hal/../draw/../misc/lv_color.h **** 
 488:lvgl/src/hal/../draw/../misc/lv_color.h **** /**
 489:lvgl/src/hal/../draw/../misc/lv_color.h ****  * Mix two colors with a given ratio. It runs faster then `lv_color_mix` but requires some pre comp
 490:lvgl/src/hal/../draw/../misc/lv_color.h ****  * @param premult_c1 The first color. Should be preprocessed with `lv_color_premult(c1)`
 491:lvgl/src/hal/../draw/../misc/lv_color.h ****  * @param c2 The second color. As it is no pre computation required on it
 492:lvgl/src/hal/../draw/../misc/lv_color.h ****  * @param mix The ratio of the colors. 0: full `c1`, 255: full `c2`, 127: half `c1` and half `c2`.
 493:lvgl/src/hal/../draw/../misc/lv_color.h ****  *            Should be modified like mix = `255 - mix`
 494:lvgl/src/hal/../draw/../misc/lv_color.h ****  * @return the mixed color
 495:lvgl/src/hal/../draw/../misc/lv_color.h ****  * @note 255 won't give clearly `c1`.
 496:lvgl/src/hal/../draw/../misc/lv_color.h ****  */
 497:lvgl/src/hal/../draw/../misc/lv_color.h **** LV_ATTRIBUTE_FAST_MEM static inline lv_color_t lv_color_mix_premult(uint16_t * premult_c1, lv_color
 498:lvgl/src/hal/../draw/../misc/lv_color.h **** {
 499:lvgl/src/hal/../draw/../misc/lv_color.h ****     lv_color_t ret;
 500:lvgl/src/hal/../draw/../misc/lv_color.h **** #if LV_COLOR_DEPTH != 1
 501:lvgl/src/hal/../draw/../misc/lv_color.h ****     /*LV_COLOR_DEPTH == 8 or 32*/
 502:lvgl/src/hal/../draw/../misc/lv_color.h ****     LV_COLOR_SET_R(ret, LV_UDIV255(premult_c1[0] + LV_COLOR_GET_R(c2) * mix + LV_COLOR_MIX_ROUND_OF
 503:lvgl/src/hal/../draw/../misc/lv_color.h ****     LV_COLOR_SET_G(ret, LV_UDIV255(premult_c1[1] + LV_COLOR_GET_G(c2) * mix + LV_COLOR_MIX_ROUND_OF
 504:lvgl/src/hal/../draw/../misc/lv_color.h ****     LV_COLOR_SET_B(ret, LV_UDIV255(premult_c1[2] + LV_COLOR_GET_B(c2) * mix + LV_COLOR_MIX_ROUND_OF
 505:lvgl/src/hal/../draw/../misc/lv_color.h ****     LV_COLOR_SET_A(ret, 0xFF);
ARM GAS  C:\usertemp\cctMo5e7.s 			page 18


 506:lvgl/src/hal/../draw/../misc/lv_color.h **** #else
 507:lvgl/src/hal/../draw/../misc/lv_color.h ****     /*LV_COLOR_DEPTH == 1*/
 508:lvgl/src/hal/../draw/../misc/lv_color.h ****     /*Restore color1*/
 509:lvgl/src/hal/../draw/../misc/lv_color.h ****     lv_color_t c1;
 510:lvgl/src/hal/../draw/../misc/lv_color.h ****     LV_COLOR_SET_R(c1, premult_c1[0]);
 511:lvgl/src/hal/../draw/../misc/lv_color.h ****     LV_COLOR_SET_G(c1, premult_c1[1]);
 512:lvgl/src/hal/../draw/../misc/lv_color.h ****     LV_COLOR_SET_B(c1, premult_c1[2]);
 513:lvgl/src/hal/../draw/../misc/lv_color.h ****     ret.full = mix > LV_OPA_50 ? c2.full : c1.full;
 514:lvgl/src/hal/../draw/../misc/lv_color.h **** #endif
 515:lvgl/src/hal/../draw/../misc/lv_color.h **** 
 516:lvgl/src/hal/../draw/../misc/lv_color.h ****     return ret;
 517:lvgl/src/hal/../draw/../misc/lv_color.h **** }
 518:lvgl/src/hal/../draw/../misc/lv_color.h **** 
 519:lvgl/src/hal/../draw/../misc/lv_color.h **** /**
 520:lvgl/src/hal/../draw/../misc/lv_color.h ****  * Mix two colors. Both color can have alpha value.
 521:lvgl/src/hal/../draw/../misc/lv_color.h ****  * @param bg_color background color
 522:lvgl/src/hal/../draw/../misc/lv_color.h ****  * @param bg_opa alpha of the background color
 523:lvgl/src/hal/../draw/../misc/lv_color.h ****  * @param fg_color foreground color
 524:lvgl/src/hal/../draw/../misc/lv_color.h ****  * @param fg_opa alpha of the foreground color
 525:lvgl/src/hal/../draw/../misc/lv_color.h ****  * @param res_color the result color
 526:lvgl/src/hal/../draw/../misc/lv_color.h ****  * @param res_opa the result opacity
 527:lvgl/src/hal/../draw/../misc/lv_color.h ****  */
 528:lvgl/src/hal/../draw/../misc/lv_color.h **** LV_ATTRIBUTE_FAST_MEM static inline void lv_color_mix_with_alpha(lv_color_t bg_color, lv_opa_t bg_o
 529:lvgl/src/hal/../draw/../misc/lv_color.h ****                                                                  lv_color_t fg_color, lv_opa_t fg_o
 530:lvgl/src/hal/../draw/../misc/lv_color.h ****                                                                  lv_color_t * res_color, lv_opa_t *
 531:lvgl/src/hal/../draw/../misc/lv_color.h **** {
 532:lvgl/src/hal/../draw/../misc/lv_color.h ****     /*Pick the foreground if it's fully opaque or the Background is fully transparent*/
 533:lvgl/src/hal/../draw/../misc/lv_color.h ****     if(fg_opa >= LV_OPA_MAX || bg_opa <= LV_OPA_MIN) {
 534:lvgl/src/hal/../draw/../misc/lv_color.h ****         res_color->full = fg_color.full;
 535:lvgl/src/hal/../draw/../misc/lv_color.h ****         *res_opa = fg_opa;
 536:lvgl/src/hal/../draw/../misc/lv_color.h ****     }
 537:lvgl/src/hal/../draw/../misc/lv_color.h ****     /*Transparent foreground: use the Background*/
 538:lvgl/src/hal/../draw/../misc/lv_color.h ****     else if(fg_opa <= LV_OPA_MIN) {
 539:lvgl/src/hal/../draw/../misc/lv_color.h ****         res_color->full = bg_color.full;
 540:lvgl/src/hal/../draw/../misc/lv_color.h ****         *res_opa = bg_opa;
 541:lvgl/src/hal/../draw/../misc/lv_color.h ****     }
 542:lvgl/src/hal/../draw/../misc/lv_color.h ****     /*Opaque background: use simple mix*/
 543:lvgl/src/hal/../draw/../misc/lv_color.h ****     else if(bg_opa >= LV_OPA_MAX) {
 544:lvgl/src/hal/../draw/../misc/lv_color.h ****         *res_color = lv_color_mix(fg_color, bg_color, fg_opa);
 545:lvgl/src/hal/../draw/../misc/lv_color.h ****         *res_opa = LV_OPA_COVER;
 546:lvgl/src/hal/../draw/../misc/lv_color.h ****     }
 547:lvgl/src/hal/../draw/../misc/lv_color.h ****     /*Both colors have alpha. Expensive calculation need to be applied*/
 548:lvgl/src/hal/../draw/../misc/lv_color.h ****     else {
 549:lvgl/src/hal/../draw/../misc/lv_color.h ****         /*Save the parameters and the result. If they will be asked again don't compute again*/
 550:lvgl/src/hal/../draw/../misc/lv_color.h ****         static lv_opa_t fg_opa_save     = 0;
 551:lvgl/src/hal/../draw/../misc/lv_color.h ****         static lv_opa_t bg_opa_save     = 0;
 552:lvgl/src/hal/../draw/../misc/lv_color.h ****         static lv_color_t fg_color_save = _LV_COLOR_ZERO_INITIALIZER;
 553:lvgl/src/hal/../draw/../misc/lv_color.h ****         static lv_color_t bg_color_save = _LV_COLOR_ZERO_INITIALIZER;
 554:lvgl/src/hal/../draw/../misc/lv_color.h ****         static lv_color_t res_color_saved = _LV_COLOR_ZERO_INITIALIZER;
 555:lvgl/src/hal/../draw/../misc/lv_color.h ****         static lv_opa_t res_opa_saved = 0;
 556:lvgl/src/hal/../draw/../misc/lv_color.h **** 
 557:lvgl/src/hal/../draw/../misc/lv_color.h ****         if(fg_opa != fg_opa_save || bg_opa != bg_opa_save || fg_color.full != fg_color_save.full ||
 558:lvgl/src/hal/../draw/../misc/lv_color.h ****            bg_color.full != bg_color_save.full) {
 559:lvgl/src/hal/../draw/../misc/lv_color.h ****             fg_opa_save        = fg_opa;
 560:lvgl/src/hal/../draw/../misc/lv_color.h ****             bg_opa_save        = bg_opa;
 561:lvgl/src/hal/../draw/../misc/lv_color.h ****             fg_color_save.full = fg_color.full;
 562:lvgl/src/hal/../draw/../misc/lv_color.h ****             bg_color_save.full = bg_color.full;
ARM GAS  C:\usertemp\cctMo5e7.s 			page 19


 563:lvgl/src/hal/../draw/../misc/lv_color.h ****             /*Info:
 564:lvgl/src/hal/../draw/../misc/lv_color.h ****              * https://en.wikipedia.org/wiki/Alpha_compositing#Analytical_derivation_of_the_over_op
 565:lvgl/src/hal/../draw/../misc/lv_color.h ****             res_opa_saved = 255 - ((uint16_t)((uint16_t)(255 - fg_opa) * (255 - bg_opa)) >> 8);
 566:lvgl/src/hal/../draw/../misc/lv_color.h ****             LV_ASSERT(res_opa_saved != 0);
 567:lvgl/src/hal/../draw/../misc/lv_color.h ****             lv_opa_t ratio = (uint16_t)((uint16_t)fg_opa * 255) / res_opa_saved;
 568:lvgl/src/hal/../draw/../misc/lv_color.h ****             res_color_saved = lv_color_mix(fg_color, bg_color, ratio);
 569:lvgl/src/hal/../draw/../misc/lv_color.h **** 
 570:lvgl/src/hal/../draw/../misc/lv_color.h ****         }
 571:lvgl/src/hal/../draw/../misc/lv_color.h **** 
 572:lvgl/src/hal/../draw/../misc/lv_color.h ****         res_color->full = res_color_saved.full;
 573:lvgl/src/hal/../draw/../misc/lv_color.h ****         *res_opa = res_opa_saved;
 574:lvgl/src/hal/../draw/../misc/lv_color.h ****     }
 575:lvgl/src/hal/../draw/../misc/lv_color.h **** }
 576:lvgl/src/hal/../draw/../misc/lv_color.h **** 
 577:lvgl/src/hal/../draw/../misc/lv_color.h **** //! @endcond
 578:lvgl/src/hal/../draw/../misc/lv_color.h **** 
 579:lvgl/src/hal/../draw/../misc/lv_color.h **** /**
 580:lvgl/src/hal/../draw/../misc/lv_color.h ****  * Get the brightness of a color
 581:lvgl/src/hal/../draw/../misc/lv_color.h ****  * @param color a color
 582:lvgl/src/hal/../draw/../misc/lv_color.h ****  * @return the brightness [0..255]
 583:lvgl/src/hal/../draw/../misc/lv_color.h ****  */
 584:lvgl/src/hal/../draw/../misc/lv_color.h **** static inline uint8_t lv_color_brightness(lv_color_t color)
 585:lvgl/src/hal/../draw/../misc/lv_color.h **** {
 586:lvgl/src/hal/../draw/../misc/lv_color.h ****     lv_color32_t c32;
 587:lvgl/src/hal/../draw/../misc/lv_color.h ****     c32.full        = lv_color_to32(color);
 588:lvgl/src/hal/../draw/../misc/lv_color.h ****     uint16_t bright = (uint16_t)(3u * LV_COLOR_GET_R32(c32) + LV_COLOR_GET_B32(c32) + 4u * LV_COLOR
 589:lvgl/src/hal/../draw/../misc/lv_color.h ****     return (uint8_t)(bright >> 3);
 590:lvgl/src/hal/../draw/../misc/lv_color.h **** }
 591:lvgl/src/hal/../draw/../misc/lv_color.h **** 
 592:lvgl/src/hal/../draw/../misc/lv_color.h **** static inline lv_color_t lv_color_make(uint8_t r, uint8_t g, uint8_t b)
 593:lvgl/src/hal/../draw/../misc/lv_color.h **** {
 594:lvgl/src/hal/../draw/../misc/lv_color.h ****     return _LV_COLOR_MAKE_TYPE_HELPER LV_COLOR_MAKE(r, g, b);
 595:lvgl/src/hal/../draw/../misc/lv_color.h **** }
 596:lvgl/src/hal/../draw/../misc/lv_color.h **** 
 597:lvgl/src/hal/../draw/../misc/lv_color.h **** static inline lv_color_t lv_color_hex(uint32_t c)
 223              		.loc 3 597 26 view .LVU17
 224              	.LBB151:
 598:lvgl/src/hal/../draw/../misc/lv_color.h **** {
 599:lvgl/src/hal/../draw/../misc/lv_color.h **** #if LV_COLOR_DEPTH == 16
 600:lvgl/src/hal/../draw/../misc/lv_color.h ****     lv_color_t r;
 225              		.loc 3 600 5 view .LVU18
 601:lvgl/src/hal/../draw/../misc/lv_color.h **** #if LV_COLOR_16_SWAP == 0
 602:lvgl/src/hal/../draw/../misc/lv_color.h ****     /* Convert a 4 bytes per pixel in format ARGB32 to R5G6B5 format
 603:lvgl/src/hal/../draw/../misc/lv_color.h ****         naive way (by calling lv_color_make with components):
 604:lvgl/src/hal/../draw/../misc/lv_color.h ****                     r = ((c & 0xFF0000) >> 19)
 605:lvgl/src/hal/../draw/../misc/lv_color.h ****                     g = ((c & 0xFF00) >> 10)
 606:lvgl/src/hal/../draw/../misc/lv_color.h ****                     b = ((c & 0xFF) >> 3)
 607:lvgl/src/hal/../draw/../misc/lv_color.h ****                     rgb565 = (r << 11) | (g << 5) | b
 608:lvgl/src/hal/../draw/../misc/lv_color.h ****         That's 3 mask, 5 bitshift and 2 or operations
 609:lvgl/src/hal/../draw/../misc/lv_color.h **** 
 610:lvgl/src/hal/../draw/../misc/lv_color.h ****         A bit better:
 611:lvgl/src/hal/../draw/../misc/lv_color.h ****                     r = ((c & 0xF80000) >> 8)
 612:lvgl/src/hal/../draw/../misc/lv_color.h ****                     g = ((c & 0xFC00) >> 5)
 613:lvgl/src/hal/../draw/../misc/lv_color.h ****                     b = ((c & 0xFF) >> 3)
 614:lvgl/src/hal/../draw/../misc/lv_color.h ****                     rgb565 = r | g | b
 615:lvgl/src/hal/../draw/../misc/lv_color.h ****         That's 3 mask, 3 bitshifts and 2 or operations */
 616:lvgl/src/hal/../draw/../misc/lv_color.h ****     r.full = (uint16_t)(((c & 0xF80000) >> 8) | ((c & 0xFC00) >> 5) | ((c & 0xFF) >> 3));
ARM GAS  C:\usertemp\cctMo5e7.s 			page 20


 226              		.loc 3 616 5 view .LVU19
 617:lvgl/src/hal/../draw/../misc/lv_color.h **** #else
 618:lvgl/src/hal/../draw/../misc/lv_color.h ****     /* We want: rrrr rrrr GGGg gggg bbbb bbbb => gggb bbbb rrrr rGGG */
 619:lvgl/src/hal/../draw/../misc/lv_color.h ****     r.full = (uint16_t)(((c & 0xF80000) >> 16) | ((c & 0xFC00) >> 13) | ((c & 0x1C00) << 3) | ((c &
 620:lvgl/src/hal/../draw/../misc/lv_color.h **** #endif
 621:lvgl/src/hal/../draw/../misc/lv_color.h ****     return r;
 227              		.loc 3 621 5 view .LVU20
 228              		.loc 3 621 5 is_stmt 0 view .LVU21
 229              	.LBE151:
 230              	.LBE150:
 231              		.loc 1 34 2 discriminator 1 view .LVU22
 232 0024 0022     		movs	r2, #0
 233 0026 4CF2FA61 		movw	r1, 50938	@ movhi
 234 002a 2068     		ldr	r0, [r4]
 235 002c FFF7FEFF 		bl	lv_obj_set_style_bg_color
 236              	.LVL10:
  35:generated/setup_scr_wave_model.c **** 
  36:generated/setup_scr_wave_model.c **** 	// Write codes wave_model_btn_7
  37:generated/setup_scr_wave_model.c **** 	ui->wave_model_btn_7 = lv_btn_create(ui->wave_model);
 237              		.loc 1 37 2 is_stmt 1 view .LVU23
 238              		.loc 1 37 25 is_stmt 0 view .LVU24
 239 0030 2068     		ldr	r0, [r4]
 240 0032 FFF7FEFF 		bl	lv_btn_create
 241              	.LVL11:
 242              		.loc 1 37 23 discriminator 1 view .LVU25
 243 0036 C4F89000 		str	r0, [r4, #144]
  38:generated/setup_scr_wave_model.c **** 	ui->wave_model_btn_7_label = lv_label_create(ui->wave_model_btn_7);
 244              		.loc 1 38 2 is_stmt 1 view .LVU26
 245              		.loc 1 38 31 is_stmt 0 view .LVU27
 246 003a FFF7FEFF 		bl	lv_label_create
 247              	.LVL12:
 248              		.loc 1 38 29 discriminator 1 view .LVU28
 249 003e C4F89400 		str	r0, [r4, #148]
  39:generated/setup_scr_wave_model.c **** 	lv_label_set_text(ui->wave_model_btn_7_label, ">");
 250              		.loc 1 39 2 is_stmt 1 view .LVU29
 251 0042 D649     		ldr	r1, .L7
 252 0044 FFF7FEFF 		bl	lv_label_set_text
 253              	.LVL13:
  40:generated/setup_scr_wave_model.c **** 	lv_label_set_long_mode(ui->wave_model_btn_7_label, LV_LABEL_LONG_WRAP);
 254              		.loc 1 40 2 view .LVU30
 255 0048 0021     		movs	r1, #0
 256 004a D4F89400 		ldr	r0, [r4, #148]
 257 004e FFF7FEFF 		bl	lv_label_set_long_mode
 258              	.LVL14:
  41:generated/setup_scr_wave_model.c **** 	lv_obj_align(ui->wave_model_btn_7_label, LV_ALIGN_CENTER, 0, 0);
 259              		.loc 1 41 2 view .LVU31
 260 0052 0023     		movs	r3, #0
 261 0054 1A46     		mov	r2, r3
 262 0056 0921     		movs	r1, #9
 263 0058 D4F89400 		ldr	r0, [r4, #148]
 264 005c FFF7FEFF 		bl	lv_obj_align
 265              	.LVL15:
  42:generated/setup_scr_wave_model.c **** 	lv_obj_set_style_pad_all(ui->wave_model_btn_7, 0, LV_STATE_DEFAULT);
 266              		.loc 1 42 2 view .LVU32
 267 0060 0022     		movs	r2, #0
 268 0062 1146     		mov	r1, r2
 269 0064 D4F89000 		ldr	r0, [r4, #144]
ARM GAS  C:\usertemp\cctMo5e7.s 			page 21


 270 0068 FFF7FEFF 		bl	lv_obj_set_style_pad_all
 271              	.LVL16:
  43:generated/setup_scr_wave_model.c **** 	lv_obj_set_pos(ui->wave_model_btn_7, 600, 445);
 272              		.loc 1 43 2 view .LVU33
 273 006c 40F2BD12 		movw	r2, #445
 274 0070 4FF41671 		mov	r1, #600
 275 0074 D4F89000 		ldr	r0, [r4, #144]
 276 0078 FFF7FEFF 		bl	lv_obj_set_pos
 277              	.LVL17:
  44:generated/setup_scr_wave_model.c **** 	lv_obj_set_size(ui->wave_model_btn_7, 20, 27);
 278              		.loc 1 44 2 view .LVU34
 279 007c 1B22     		movs	r2, #27
 280 007e 1421     		movs	r1, #20
 281 0080 D4F89000 		ldr	r0, [r4, #144]
 282 0084 FFF7FEFF 		bl	lv_obj_set_size
 283              	.LVL18:
  45:generated/setup_scr_wave_model.c **** 
  46:generated/setup_scr_wave_model.c **** 	// Write style for wave_model_btn_7, Part: LV_PART_MAIN, State: LV_STATE_DEFAULT.
  47:generated/setup_scr_wave_model.c **** 	lv_obj_set_style_bg_opa(ui->wave_model_btn_7, 255, LV_PART_MAIN | LV_STATE_DEFAULT);
 284              		.loc 1 47 2 view .LVU35
 285 0088 0022     		movs	r2, #0
 286 008a FF21     		movs	r1, #255
 287 008c D4F89000 		ldr	r0, [r4, #144]
 288 0090 FFF7FEFF 		bl	lv_obj_set_style_bg_opa
 289              	.LVL19:
  48:generated/setup_scr_wave_model.c **** 	lv_obj_set_style_bg_color(ui->wave_model_btn_7, lv_color_hex(0x2195f6), LV_PART_MAIN | LV_STATE_DE
 290              		.loc 1 48 2 view .LVU36
 291              	.LBB152:
 292              	.LBI152:
 597:lvgl/src/hal/../draw/../misc/lv_color.h **** {
 293              		.loc 3 597 26 view .LVU37
 294              	.LBB153:
 600:lvgl/src/hal/../draw/../misc/lv_color.h **** #if LV_COLOR_16_SWAP == 0
 295              		.loc 3 600 5 view .LVU38
 616:lvgl/src/hal/../draw/../misc/lv_color.h **** #else
 296              		.loc 3 616 5 view .LVU39
 297              		.loc 3 621 5 view .LVU40
 298              		.loc 3 621 5 is_stmt 0 view .LVU41
 299              	.LBE153:
 300              	.LBE152:
 301              		.loc 1 48 2 discriminator 1 view .LVU42
 302 0094 0022     		movs	r2, #0
 303 0096 42F2BE41 		movw	r1, 9406	@ movhi
 304 009a D4F89000 		ldr	r0, [r4, #144]
 305 009e FFF7FEFF 		bl	lv_obj_set_style_bg_color
 306              	.LVL20:
  49:generated/setup_scr_wave_model.c **** 	lv_obj_set_style_border_width(ui->wave_model_btn_7, 0, LV_PART_MAIN | LV_STATE_DEFAULT);
 307              		.loc 1 49 2 is_stmt 1 view .LVU43
 308 00a2 0022     		movs	r2, #0
 309 00a4 1146     		mov	r1, r2
 310 00a6 D4F89000 		ldr	r0, [r4, #144]
 311 00aa FFF7FEFF 		bl	lv_obj_set_style_border_width
 312              	.LVL21:
  50:generated/setup_scr_wave_model.c **** 	lv_obj_set_style_radius(ui->wave_model_btn_7, 5, LV_PART_MAIN | LV_STATE_DEFAULT);
 313              		.loc 1 50 2 view .LVU44
 314 00ae 0022     		movs	r2, #0
 315 00b0 0521     		movs	r1, #5
ARM GAS  C:\usertemp\cctMo5e7.s 			page 22


 316 00b2 D4F89000 		ldr	r0, [r4, #144]
 317 00b6 FFF7FEFF 		bl	lv_obj_set_style_radius
 318              	.LVL22:
  51:generated/setup_scr_wave_model.c **** 	lv_obj_set_style_shadow_width(ui->wave_model_btn_7, 0, LV_PART_MAIN | LV_STATE_DEFAULT);
 319              		.loc 1 51 2 view .LVU45
 320 00ba 0022     		movs	r2, #0
 321 00bc 1146     		mov	r1, r2
 322 00be D4F89000 		ldr	r0, [r4, #144]
 323 00c2 FFF7FEFF 		bl	lv_obj_set_style_shadow_width
 324              	.LVL23:
  52:generated/setup_scr_wave_model.c **** 	lv_obj_set_style_text_color(ui->wave_model_btn_7, lv_color_hex(0xffffff), LV_PART_MAIN | LV_STATE_
 325              		.loc 1 52 2 view .LVU46
 326              	.LBB154:
 327              	.LBI154:
 597:lvgl/src/hal/../draw/../misc/lv_color.h **** {
 328              		.loc 3 597 26 view .LVU47
 329              	.LBB155:
 600:lvgl/src/hal/../draw/../misc/lv_color.h **** #if LV_COLOR_16_SWAP == 0
 330              		.loc 3 600 5 view .LVU48
 616:lvgl/src/hal/../draw/../misc/lv_color.h **** #else
 331              		.loc 3 616 5 view .LVU49
 332              		.loc 3 621 5 view .LVU50
 333              		.loc 3 621 5 is_stmt 0 view .LVU51
 334              	.LBE155:
 335              	.LBE154:
 336              		.loc 1 52 2 discriminator 1 view .LVU52
 337 00c6 0022     		movs	r2, #0
 338 00c8 4FF0FF31 		mov	r1, #-1	@ movhi
 339 00cc D4F89000 		ldr	r0, [r4, #144]
 340 00d0 FFF7FEFF 		bl	lv_obj_set_style_text_color
 341              	.LVL24:
  53:generated/setup_scr_wave_model.c **** 	lv_obj_set_style_text_font(ui->wave_model_btn_7, &lv_font_simsun_16, LV_PART_MAIN | LV_STATE_DEFAU
 342              		.loc 1 53 2 is_stmt 1 view .LVU53
 343 00d4 0022     		movs	r2, #0
 344 00d6 B249     		ldr	r1, .L7+4
 345 00d8 D4F89000 		ldr	r0, [r4, #144]
 346 00dc FFF7FEFF 		bl	lv_obj_set_style_text_font
 347              	.LVL25:
  54:generated/setup_scr_wave_model.c **** 	lv_obj_set_style_text_align(ui->wave_model_btn_7, LV_TEXT_ALIGN_CENTER, LV_PART_MAIN | LV_STATE_DE
 348              		.loc 1 54 2 view .LVU54
 349 00e0 0022     		movs	r2, #0
 350 00e2 0221     		movs	r1, #2
 351 00e4 D4F89000 		ldr	r0, [r4, #144]
 352 00e8 FFF7FEFF 		bl	lv_obj_set_style_text_align
 353              	.LVL26:
  55:generated/setup_scr_wave_model.c **** 
  56:generated/setup_scr_wave_model.c **** 	// Write codes wave_model_btn_6
  57:generated/setup_scr_wave_model.c **** 	ui->wave_model_btn_6 = lv_btn_create(ui->wave_model);
 354              		.loc 1 57 2 view .LVU55
 355              		.loc 1 57 25 is_stmt 0 view .LVU56
 356 00ec 2068     		ldr	r0, [r4]
 357 00ee FFF7FEFF 		bl	lv_btn_create
 358              	.LVL27:
 359              		.loc 1 57 23 discriminator 1 view .LVU57
 360 00f2 A063     		str	r0, [r4, #56]
  58:generated/setup_scr_wave_model.c **** 	ui->wave_model_btn_6_label = lv_label_create(ui->wave_model_btn_6);
 361              		.loc 1 58 2 is_stmt 1 view .LVU58
ARM GAS  C:\usertemp\cctMo5e7.s 			page 23


 362              		.loc 1 58 31 is_stmt 0 view .LVU59
 363 00f4 FFF7FEFF 		bl	lv_label_create
 364              	.LVL28:
 365              		.loc 1 58 29 discriminator 1 view .LVU60
 366 00f8 E063     		str	r0, [r4, #60]
  59:generated/setup_scr_wave_model.c **** 	lv_label_set_text(ui->wave_model_btn_6_label, "Ca");
 367              		.loc 1 59 2 is_stmt 1 view .LVU61
 368 00fa AA49     		ldr	r1, .L7+8
 369 00fc FFF7FEFF 		bl	lv_label_set_text
 370              	.LVL29:
  60:generated/setup_scr_wave_model.c **** 	lv_label_set_long_mode(ui->wave_model_btn_6_label, LV_LABEL_LONG_WRAP);
 371              		.loc 1 60 2 view .LVU62
 372 0100 0021     		movs	r1, #0
 373 0102 E06B     		ldr	r0, [r4, #60]
 374 0104 FFF7FEFF 		bl	lv_label_set_long_mode
 375              	.LVL30:
  61:generated/setup_scr_wave_model.c **** 	lv_obj_align(ui->wave_model_btn_6_label, LV_ALIGN_CENTER, 0, 0);
 376              		.loc 1 61 2 view .LVU63
 377 0108 0023     		movs	r3, #0
 378 010a 1A46     		mov	r2, r3
 379 010c 0921     		movs	r1, #9
 380 010e E06B     		ldr	r0, [r4, #60]
 381 0110 FFF7FEFF 		bl	lv_obj_align
 382              	.LVL31:
  62:generated/setup_scr_wave_model.c **** 	lv_obj_set_style_pad_all(ui->wave_model_btn_6, 0, LV_STATE_DEFAULT);
 383              		.loc 1 62 2 view .LVU64
 384 0114 0022     		movs	r2, #0
 385 0116 1146     		mov	r1, r2
 386 0118 A06B     		ldr	r0, [r4, #56]
 387 011a FFF7FEFF 		bl	lv_obj_set_style_pad_all
 388              	.LVL32:
  63:generated/setup_scr_wave_model.c **** 	lv_obj_set_pos(ui->wave_model_btn_6, 586, 130);
 389              		.loc 1 63 2 view .LVU65
 390 011e 8222     		movs	r2, #130
 391 0120 40F24A21 		movw	r1, #586
 392 0124 A06B     		ldr	r0, [r4, #56]
 393 0126 FFF7FEFF 		bl	lv_obj_set_pos
 394              	.LVL33:
  64:generated/setup_scr_wave_model.c **** 	lv_obj_set_size(ui->wave_model_btn_6, 43, 30);
 395              		.loc 1 64 2 view .LVU66
 396 012a 1E22     		movs	r2, #30
 397 012c 2B21     		movs	r1, #43
 398 012e A06B     		ldr	r0, [r4, #56]
 399 0130 FFF7FEFF 		bl	lv_obj_set_size
 400              	.LVL34:
  65:generated/setup_scr_wave_model.c **** 
  66:generated/setup_scr_wave_model.c **** 	// Write style for wave_model_btn_6, Part: LV_PART_MAIN, State: LV_STATE_DEFAULT.
  67:generated/setup_scr_wave_model.c **** 	lv_obj_set_style_bg_opa(ui->wave_model_btn_6, 255, LV_PART_MAIN | LV_STATE_DEFAULT);
 401              		.loc 1 67 2 view .LVU67
 402 0134 0022     		movs	r2, #0
 403 0136 FF21     		movs	r1, #255
 404 0138 A06B     		ldr	r0, [r4, #56]
 405 013a FFF7FEFF 		bl	lv_obj_set_style_bg_opa
 406              	.LVL35:
  68:generated/setup_scr_wave_model.c **** 	lv_obj_set_style_bg_color(ui->wave_model_btn_6, lv_color_hex(0x808080), LV_PART_MAIN | LV_STATE_DE
 407              		.loc 1 68 2 view .LVU68
 408              	.LBB156:
ARM GAS  C:\usertemp\cctMo5e7.s 			page 24


 409              	.LBI156:
 597:lvgl/src/hal/../draw/../misc/lv_color.h **** {
 410              		.loc 3 597 26 view .LVU69
 411              	.LBB157:
 600:lvgl/src/hal/../draw/../misc/lv_color.h **** #if LV_COLOR_16_SWAP == 0
 412              		.loc 3 600 5 view .LVU70
 616:lvgl/src/hal/../draw/../misc/lv_color.h **** #else
 413              		.loc 3 616 5 view .LVU71
 616:lvgl/src/hal/../draw/../misc/lv_color.h **** #else
 414              		.loc 3 616 12 is_stmt 0 view .LVU72
 415 013e 48F21047 		movw	r7, #33808
 416              		.loc 3 621 5 is_stmt 1 view .LVU73
 417              	.LVL36:
 418              		.loc 3 621 5 is_stmt 0 view .LVU74
 419              	.LBE157:
 420              	.LBE156:
 421              		.loc 1 68 2 discriminator 1 view .LVU75
 422 0142 0022     		movs	r2, #0
 423 0144 3946     		mov	r1, r7	@ movhi
 424 0146 A06B     		ldr	r0, [r4, #56]
 425 0148 FFF7FEFF 		bl	lv_obj_set_style_bg_color
 426              	.LVL37:
  69:generated/setup_scr_wave_model.c **** 	lv_obj_set_style_border_width(ui->wave_model_btn_6, 0, LV_PART_MAIN | LV_STATE_DEFAULT);
 427              		.loc 1 69 2 is_stmt 1 view .LVU76
 428 014c 0022     		movs	r2, #0
 429 014e 1146     		mov	r1, r2
 430 0150 A06B     		ldr	r0, [r4, #56]
 431 0152 FFF7FEFF 		bl	lv_obj_set_style_border_width
 432              	.LVL38:
  70:generated/setup_scr_wave_model.c **** 	lv_obj_set_style_radius(ui->wave_model_btn_6, 5, LV_PART_MAIN | LV_STATE_DEFAULT);
 433              		.loc 1 70 2 view .LVU77
 434 0156 0022     		movs	r2, #0
 435 0158 0521     		movs	r1, #5
 436 015a A06B     		ldr	r0, [r4, #56]
 437 015c FFF7FEFF 		bl	lv_obj_set_style_radius
 438              	.LVL39:
  71:generated/setup_scr_wave_model.c **** 	lv_obj_set_style_shadow_width(ui->wave_model_btn_6, 0, LV_PART_MAIN | LV_STATE_DEFAULT);
 439              		.loc 1 71 2 view .LVU78
 440 0160 0022     		movs	r2, #0
 441 0162 1146     		mov	r1, r2
 442 0164 A06B     		ldr	r0, [r4, #56]
 443 0166 FFF7FEFF 		bl	lv_obj_set_style_shadow_width
 444              	.LVL40:
  72:generated/setup_scr_wave_model.c **** 	lv_obj_set_style_text_color(ui->wave_model_btn_6, lv_color_hex(0x000000), LV_PART_MAIN | LV_STATE_
 445              		.loc 1 72 2 view .LVU79
 446              	.LBB158:
 447              	.LBI158:
 597:lvgl/src/hal/../draw/../misc/lv_color.h **** {
 448              		.loc 3 597 26 view .LVU80
 449              	.LBB159:
 600:lvgl/src/hal/../draw/../misc/lv_color.h **** #if LV_COLOR_16_SWAP == 0
 450              		.loc 3 600 5 view .LVU81
 616:lvgl/src/hal/../draw/../misc/lv_color.h **** #else
 451              		.loc 3 616 5 view .LVU82
 616:lvgl/src/hal/../draw/../misc/lv_color.h **** #else
 452              		.loc 3 616 12 is_stmt 0 view .LVU83
 453 016a 0025     		movs	r5, #0
ARM GAS  C:\usertemp\cctMo5e7.s 			page 25


 454              		.loc 3 621 5 is_stmt 1 view .LVU84
 455              	.LVL41:
 456              		.loc 3 621 5 is_stmt 0 view .LVU85
 457              	.LBE159:
 458              	.LBE158:
 459              		.loc 1 72 2 discriminator 1 view .LVU86
 460 016c 2A46     		mov	r2, r5
 461 016e 2946     		mov	r1, r5	@ movhi
 462 0170 A06B     		ldr	r0, [r4, #56]
 463 0172 FFF7FEFF 		bl	lv_obj_set_style_text_color
 464              	.LVL42:
  73:generated/setup_scr_wave_model.c **** 	lv_obj_set_style_text_font(ui->wave_model_btn_6, &lv_font_arial_16, LV_PART_MAIN | LV_STATE_DEFAUL
 465              		.loc 1 73 2 is_stmt 1 view .LVU87
 466 0176 8C4E     		ldr	r6, .L7+12
 467 0178 2A46     		mov	r2, r5
 468 017a 3146     		mov	r1, r6
 469 017c A06B     		ldr	r0, [r4, #56]
 470 017e FFF7FEFF 		bl	lv_obj_set_style_text_font
 471              	.LVL43:
  74:generated/setup_scr_wave_model.c **** 	lv_obj_set_style_text_align(ui->wave_model_btn_6, LV_TEXT_ALIGN_CENTER, LV_PART_MAIN | LV_STATE_DE
 472              		.loc 1 74 2 view .LVU88
 473 0182 2A46     		mov	r2, r5
 474 0184 0221     		movs	r1, #2
 475 0186 A06B     		ldr	r0, [r4, #56]
 476 0188 FFF7FEFF 		bl	lv_obj_set_style_text_align
 477              	.LVL44:
  75:generated/setup_scr_wave_model.c **** 
  76:generated/setup_scr_wave_model.c **** 	// Write codes wave_model_btn_2
  77:generated/setup_scr_wave_model.c **** 	ui->wave_model_btn_2 = lv_btn_create(ui->wave_model);
 478              		.loc 1 77 2 view .LVU89
 479              		.loc 1 77 25 is_stmt 0 view .LVU90
 480 018c 2068     		ldr	r0, [r4]
 481 018e FFF7FEFF 		bl	lv_btn_create
 482              	.LVL45:
 483              		.loc 1 77 23 discriminator 1 view .LVU91
 484 0192 A061     		str	r0, [r4, #24]
  78:generated/setup_scr_wave_model.c **** 	ui->wave_model_btn_2_label = lv_label_create(ui->wave_model_btn_2);
 485              		.loc 1 78 2 is_stmt 1 view .LVU92
 486              		.loc 1 78 31 is_stmt 0 view .LVU93
 487 0194 FFF7FEFF 		bl	lv_label_create
 488              	.LVL46:
 489              		.loc 1 78 29 discriminator 1 view .LVU94
 490 0198 E061     		str	r0, [r4, #28]
  79:generated/setup_scr_wave_model.c **** 	lv_label_set_text(ui->wave_model_btn_2_label, "V");
 491              		.loc 1 79 2 is_stmt 1 view .LVU95
 492 019a 8449     		ldr	r1, .L7+16
 493 019c FFF7FEFF 		bl	lv_label_set_text
 494              	.LVL47:
  80:generated/setup_scr_wave_model.c **** 	lv_label_set_long_mode(ui->wave_model_btn_2_label, LV_LABEL_LONG_WRAP);
 495              		.loc 1 80 2 view .LVU96
 496 01a0 2946     		mov	r1, r5
 497 01a2 E069     		ldr	r0, [r4, #28]
 498 01a4 FFF7FEFF 		bl	lv_label_set_long_mode
 499              	.LVL48:
  81:generated/setup_scr_wave_model.c **** 	lv_obj_align(ui->wave_model_btn_2_label, LV_ALIGN_CENTER, 0, 0);
 500              		.loc 1 81 2 view .LVU97
 501 01a8 2B46     		mov	r3, r5
ARM GAS  C:\usertemp\cctMo5e7.s 			page 26


 502 01aa 2A46     		mov	r2, r5
 503 01ac 0921     		movs	r1, #9
 504 01ae E069     		ldr	r0, [r4, #28]
 505 01b0 FFF7FEFF 		bl	lv_obj_align
 506              	.LVL49:
  82:generated/setup_scr_wave_model.c **** 	lv_obj_set_style_pad_all(ui->wave_model_btn_2, 0, LV_STATE_DEFAULT);
 507              		.loc 1 82 2 view .LVU98
 508 01b4 2A46     		mov	r2, r5
 509 01b6 2946     		mov	r1, r5
 510 01b8 A069     		ldr	r0, [r4, #24]
 511 01ba FFF7FEFF 		bl	lv_obj_set_style_pad_all
 512              	.LVL50:
  83:generated/setup_scr_wave_model.c **** 	lv_obj_set_pos(ui->wave_model_btn_2, 586, 170);
 513              		.loc 1 83 2 view .LVU99
 514 01be AA22     		movs	r2, #170
 515 01c0 40F24A21 		movw	r1, #586
 516 01c4 A069     		ldr	r0, [r4, #24]
 517 01c6 FFF7FEFF 		bl	lv_obj_set_pos
 518              	.LVL51:
  84:generated/setup_scr_wave_model.c **** 	lv_obj_set_size(ui->wave_model_btn_2, 40, 30);
 519              		.loc 1 84 2 view .LVU100
 520 01ca 1E22     		movs	r2, #30
 521 01cc 2821     		movs	r1, #40
 522 01ce A069     		ldr	r0, [r4, #24]
 523 01d0 FFF7FEFF 		bl	lv_obj_set_size
 524              	.LVL52:
  85:generated/setup_scr_wave_model.c **** 
  86:generated/setup_scr_wave_model.c **** 	// Write style for wave_model_btn_2, Part: LV_PART_MAIN, State: LV_STATE_DEFAULT.
  87:generated/setup_scr_wave_model.c **** 	lv_obj_set_style_bg_opa(ui->wave_model_btn_2, 255, LV_PART_MAIN | LV_STATE_DEFAULT);
 525              		.loc 1 87 2 view .LVU101
 526 01d4 2A46     		mov	r2, r5
 527 01d6 FF21     		movs	r1, #255
 528 01d8 A069     		ldr	r0, [r4, #24]
 529 01da FFF7FEFF 		bl	lv_obj_set_style_bg_opa
 530              	.LVL53:
  88:generated/setup_scr_wave_model.c **** 	lv_obj_set_style_bg_color(ui->wave_model_btn_2, lv_color_hex(0x808080), LV_PART_MAIN | LV_STATE_DE
 531              		.loc 1 88 2 view .LVU102
 532              	.LBB160:
 533              	.LBI160:
 597:lvgl/src/hal/../draw/../misc/lv_color.h **** {
 534              		.loc 3 597 26 view .LVU103
 535              	.LBB161:
 600:lvgl/src/hal/../draw/../misc/lv_color.h **** #if LV_COLOR_16_SWAP == 0
 536              		.loc 3 600 5 view .LVU104
 616:lvgl/src/hal/../draw/../misc/lv_color.h **** #else
 537              		.loc 3 616 5 view .LVU105
 538              		.loc 3 621 5 view .LVU106
 539              		.loc 3 621 5 is_stmt 0 view .LVU107
 540              	.LBE161:
 541              	.LBE160:
 542              		.loc 1 88 2 discriminator 1 view .LVU108
 543 01de 2A46     		mov	r2, r5
 544 01e0 3946     		mov	r1, r7	@ movhi
 545 01e2 A069     		ldr	r0, [r4, #24]
 546 01e4 FFF7FEFF 		bl	lv_obj_set_style_bg_color
 547              	.LVL54:
  89:generated/setup_scr_wave_model.c **** 	lv_obj_set_style_border_width(ui->wave_model_btn_2, 0, LV_PART_MAIN | LV_STATE_DEFAULT);
ARM GAS  C:\usertemp\cctMo5e7.s 			page 27


 548              		.loc 1 89 2 is_stmt 1 view .LVU109
 549 01e8 2A46     		mov	r2, r5
 550 01ea 2946     		mov	r1, r5
 551 01ec A069     		ldr	r0, [r4, #24]
 552 01ee FFF7FEFF 		bl	lv_obj_set_style_border_width
 553              	.LVL55:
  90:generated/setup_scr_wave_model.c **** 	lv_obj_set_style_radius(ui->wave_model_btn_2, 5, LV_PART_MAIN | LV_STATE_DEFAULT);
 554              		.loc 1 90 2 view .LVU110
 555 01f2 2A46     		mov	r2, r5
 556 01f4 0521     		movs	r1, #5
 557 01f6 A069     		ldr	r0, [r4, #24]
 558 01f8 FFF7FEFF 		bl	lv_obj_set_style_radius
 559              	.LVL56:
  91:generated/setup_scr_wave_model.c **** 	lv_obj_set_style_shadow_width(ui->wave_model_btn_2, 0, LV_PART_MAIN | LV_STATE_DEFAULT);
 560              		.loc 1 91 2 view .LVU111
 561 01fc 2A46     		mov	r2, r5
 562 01fe 2946     		mov	r1, r5
 563 0200 A069     		ldr	r0, [r4, #24]
 564 0202 FFF7FEFF 		bl	lv_obj_set_style_shadow_width
 565              	.LVL57:
  92:generated/setup_scr_wave_model.c **** 	lv_obj_set_style_text_color(ui->wave_model_btn_2, lv_color_hex(0x000000), LV_PART_MAIN | LV_STATE_
 566              		.loc 1 92 2 view .LVU112
 567              	.LBB162:
 568              	.LBI162:
 597:lvgl/src/hal/../draw/../misc/lv_color.h **** {
 569              		.loc 3 597 26 view .LVU113
 570              	.LBB163:
 600:lvgl/src/hal/../draw/../misc/lv_color.h **** #if LV_COLOR_16_SWAP == 0
 571              		.loc 3 600 5 view .LVU114
 616:lvgl/src/hal/../draw/../misc/lv_color.h **** #else
 572              		.loc 3 616 5 view .LVU115
 573              		.loc 3 621 5 view .LVU116
 574              		.loc 3 621 5 is_stmt 0 view .LVU117
 575              	.LBE163:
 576              	.LBE162:
 577              		.loc 1 92 2 discriminator 1 view .LVU118
 578 0206 2A46     		mov	r2, r5
 579 0208 2946     		mov	r1, r5	@ movhi
 580 020a A069     		ldr	r0, [r4, #24]
 581 020c FFF7FEFF 		bl	lv_obj_set_style_text_color
 582              	.LVL58:
  93:generated/setup_scr_wave_model.c **** 	lv_obj_set_style_text_font(ui->wave_model_btn_2, &lv_font_arial_16, LV_PART_MAIN | LV_STATE_DEFAUL
 583              		.loc 1 93 2 is_stmt 1 view .LVU119
 584 0210 2A46     		mov	r2, r5
 585 0212 3146     		mov	r1, r6
 586 0214 A069     		ldr	r0, [r4, #24]
 587 0216 FFF7FEFF 		bl	lv_obj_set_style_text_font
 588              	.LVL59:
  94:generated/setup_scr_wave_model.c **** 	lv_obj_set_style_text_align(ui->wave_model_btn_2, LV_TEXT_ALIGN_CENTER, LV_PART_MAIN | LV_STATE_DE
 589              		.loc 1 94 2 view .LVU120
 590 021a 2A46     		mov	r2, r5
 591 021c 0221     		movs	r1, #2
 592 021e A069     		ldr	r0, [r4, #24]
 593 0220 FFF7FEFF 		bl	lv_obj_set_style_text_align
 594              	.LVL60:
  95:generated/setup_scr_wave_model.c **** 
  96:generated/setup_scr_wave_model.c **** 	// Write codes wave_model_btn_1
ARM GAS  C:\usertemp\cctMo5e7.s 			page 28


  97:generated/setup_scr_wave_model.c **** 	ui->wave_model_btn_1 = lv_btn_create(ui->wave_model);
 595              		.loc 1 97 2 view .LVU121
 596              		.loc 1 97 25 is_stmt 0 view .LVU122
 597 0224 2068     		ldr	r0, [r4]
 598 0226 FFF7FEFF 		bl	lv_btn_create
 599              	.LVL61:
 600              		.loc 1 97 23 discriminator 1 view .LVU123
 601 022a 2061     		str	r0, [r4, #16]
  98:generated/setup_scr_wave_model.c **** 	ui->wave_model_btn_1_label = lv_label_create(ui->wave_model_btn_1);
 602              		.loc 1 98 2 is_stmt 1 view .LVU124
 603              		.loc 1 98 31 is_stmt 0 view .LVU125
 604 022c FFF7FEFF 		bl	lv_label_create
 605              	.LVL62:
 606              		.loc 1 98 29 discriminator 1 view .LVU126
 607 0230 6061     		str	r0, [r4, #20]
  99:generated/setup_scr_wave_model.c **** 	lv_label_set_text(ui->wave_model_btn_1_label, "L1");
 608              		.loc 1 99 2 is_stmt 1 view .LVU127
 609 0232 5F49     		ldr	r1, .L7+20
 610 0234 FFF7FEFF 		bl	lv_label_set_text
 611              	.LVL63:
 100:generated/setup_scr_wave_model.c **** 	lv_label_set_long_mode(ui->wave_model_btn_1_label, LV_LABEL_LONG_WRAP);
 612              		.loc 1 100 2 view .LVU128
 613 0238 2946     		mov	r1, r5
 614 023a 6069     		ldr	r0, [r4, #20]
 615 023c FFF7FEFF 		bl	lv_label_set_long_mode
 616              	.LVL64:
 101:generated/setup_scr_wave_model.c **** 	lv_obj_align(ui->wave_model_btn_1_label, LV_ALIGN_CENTER, 0, 0);
 617              		.loc 1 101 2 view .LVU129
 618 0240 2B46     		mov	r3, r5
 619 0242 2A46     		mov	r2, r5
 620 0244 0921     		movs	r1, #9
 621 0246 6069     		ldr	r0, [r4, #20]
 622 0248 FFF7FEFF 		bl	lv_obj_align
 623              	.LVL65:
 102:generated/setup_scr_wave_model.c **** 	lv_obj_set_style_pad_all(ui->wave_model_btn_1, 0, LV_STATE_DEFAULT);
 624              		.loc 1 102 2 view .LVU130
 625 024c 2A46     		mov	r2, r5
 626 024e 2946     		mov	r1, r5
 627 0250 2069     		ldr	r0, [r4, #16]
 628 0252 FFF7FEFF 		bl	lv_obj_set_style_pad_all
 629              	.LVL66:
 103:generated/setup_scr_wave_model.c **** 	lv_obj_set_pos(ui->wave_model_btn_1, 586, 210);
 630              		.loc 1 103 2 view .LVU131
 631 0256 D222     		movs	r2, #210
 632 0258 40F24A21 		movw	r1, #586
 633 025c 2069     		ldr	r0, [r4, #16]
 634 025e FFF7FEFF 		bl	lv_obj_set_pos
 635              	.LVL67:
 104:generated/setup_scr_wave_model.c **** 	lv_obj_set_size(ui->wave_model_btn_1, 40, 30);
 636              		.loc 1 104 2 view .LVU132
 637 0262 1E22     		movs	r2, #30
 638 0264 2821     		movs	r1, #40
 639 0266 2069     		ldr	r0, [r4, #16]
 640 0268 FFF7FEFF 		bl	lv_obj_set_size
 641              	.LVL68:
 105:generated/setup_scr_wave_model.c **** 
 106:generated/setup_scr_wave_model.c **** 	// Write style for wave_model_btn_1, Part: LV_PART_MAIN, State: LV_STATE_DEFAULT.
ARM GAS  C:\usertemp\cctMo5e7.s 			page 29


 107:generated/setup_scr_wave_model.c **** 	lv_obj_set_style_bg_opa(ui->wave_model_btn_1, 255, LV_PART_MAIN | LV_STATE_DEFAULT);
 642              		.loc 1 107 2 view .LVU133
 643 026c 2A46     		mov	r2, r5
 644 026e FF21     		movs	r1, #255
 645 0270 2069     		ldr	r0, [r4, #16]
 646 0272 FFF7FEFF 		bl	lv_obj_set_style_bg_opa
 647              	.LVL69:
 108:generated/setup_scr_wave_model.c **** 	lv_obj_set_style_bg_color(ui->wave_model_btn_1, lv_color_hex(0x808080), LV_PART_MAIN | LV_STATE_DE
 648              		.loc 1 108 2 view .LVU134
 649              	.LBB164:
 650              	.LBI164:
 597:lvgl/src/hal/../draw/../misc/lv_color.h **** {
 651              		.loc 3 597 26 view .LVU135
 652              	.LBB165:
 600:lvgl/src/hal/../draw/../misc/lv_color.h **** #if LV_COLOR_16_SWAP == 0
 653              		.loc 3 600 5 view .LVU136
 616:lvgl/src/hal/../draw/../misc/lv_color.h **** #else
 654              		.loc 3 616 5 view .LVU137
 655              		.loc 3 621 5 view .LVU138
 656              		.loc 3 621 5 is_stmt 0 view .LVU139
 657              	.LBE165:
 658              	.LBE164:
 659              		.loc 1 108 2 discriminator 1 view .LVU140
 660 0276 2A46     		mov	r2, r5
 661 0278 3946     		mov	r1, r7	@ movhi
 662 027a 2069     		ldr	r0, [r4, #16]
 663 027c FFF7FEFF 		bl	lv_obj_set_style_bg_color
 664              	.LVL70:
 109:generated/setup_scr_wave_model.c **** 	lv_obj_set_style_border_width(ui->wave_model_btn_1, 0, LV_PART_MAIN | LV_STATE_DEFAULT);
 665              		.loc 1 109 2 is_stmt 1 view .LVU141
 666 0280 2A46     		mov	r2, r5
 667 0282 2946     		mov	r1, r5
 668 0284 2069     		ldr	r0, [r4, #16]
 669 0286 FFF7FEFF 		bl	lv_obj_set_style_border_width
 670              	.LVL71:
 110:generated/setup_scr_wave_model.c **** 	lv_obj_set_style_radius(ui->wave_model_btn_1, 5, LV_PART_MAIN | LV_STATE_DEFAULT);
 671              		.loc 1 110 2 view .LVU142
 672 028a 2A46     		mov	r2, r5
 673 028c 0521     		movs	r1, #5
 674 028e 2069     		ldr	r0, [r4, #16]
 675 0290 FFF7FEFF 		bl	lv_obj_set_style_radius
 676              	.LVL72:
 111:generated/setup_scr_wave_model.c **** 	lv_obj_set_style_shadow_width(ui->wave_model_btn_1, 0, LV_PART_MAIN | LV_STATE_DEFAULT);
 677              		.loc 1 111 2 view .LVU143
 678 0294 2A46     		mov	r2, r5
 679 0296 2946     		mov	r1, r5
 680 0298 2069     		ldr	r0, [r4, #16]
 681 029a FFF7FEFF 		bl	lv_obj_set_style_shadow_width
 682              	.LVL73:
 112:generated/setup_scr_wave_model.c **** 	lv_obj_set_style_text_color(ui->wave_model_btn_1, lv_color_hex(0x000000), LV_PART_MAIN | LV_STATE_
 683              		.loc 1 112 2 view .LVU144
 684              	.LBB166:
 685              	.LBI166:
 597:lvgl/src/hal/../draw/../misc/lv_color.h **** {
 686              		.loc 3 597 26 view .LVU145
 687              	.LBB167:
 600:lvgl/src/hal/../draw/../misc/lv_color.h **** #if LV_COLOR_16_SWAP == 0
ARM GAS  C:\usertemp\cctMo5e7.s 			page 30


 688              		.loc 3 600 5 view .LVU146
 616:lvgl/src/hal/../draw/../misc/lv_color.h **** #else
 689              		.loc 3 616 5 view .LVU147
 690              		.loc 3 621 5 view .LVU148
 691              		.loc 3 621 5 is_stmt 0 view .LVU149
 692              	.LBE167:
 693              	.LBE166:
 694              		.loc 1 112 2 discriminator 1 view .LVU150
 695 029e 2A46     		mov	r2, r5
 696 02a0 2946     		mov	r1, r5	@ movhi
 697 02a2 2069     		ldr	r0, [r4, #16]
 698 02a4 FFF7FEFF 		bl	lv_obj_set_style_text_color
 699              	.LVL74:
 113:generated/setup_scr_wave_model.c **** 	lv_obj_set_style_text_font(ui->wave_model_btn_1, &lv_font_arial_16, LV_PART_MAIN | LV_STATE_DEFAUL
 700              		.loc 1 113 2 is_stmt 1 view .LVU151
 701 02a8 2A46     		mov	r2, r5
 702 02aa 3146     		mov	r1, r6
 703 02ac 2069     		ldr	r0, [r4, #16]
 704 02ae FFF7FEFF 		bl	lv_obj_set_style_text_font
 705              	.LVL75:
 114:generated/setup_scr_wave_model.c **** 	lv_obj_set_style_text_align(ui->wave_model_btn_1, LV_TEXT_ALIGN_CENTER, LV_PART_MAIN | LV_STATE_DE
 706              		.loc 1 114 2 view .LVU152
 707 02b2 2A46     		mov	r2, r5
 708 02b4 0221     		movs	r1, #2
 709 02b6 2069     		ldr	r0, [r4, #16]
 710 02b8 FFF7FEFF 		bl	lv_obj_set_style_text_align
 711              	.LVL76:
 115:generated/setup_scr_wave_model.c **** 
 116:generated/setup_scr_wave_model.c **** 	// Write codes wave_model_btn_3
 117:generated/setup_scr_wave_model.c **** 	ui->wave_model_btn_3 = lv_btn_create(ui->wave_model);
 712              		.loc 1 117 2 view .LVU153
 713              		.loc 1 117 25 is_stmt 0 view .LVU154
 714 02bc 2068     		ldr	r0, [r4]
 715 02be FFF7FEFF 		bl	lv_btn_create
 716              	.LVL77:
 717              		.loc 1 117 23 discriminator 1 view .LVU155
 718 02c2 2062     		str	r0, [r4, #32]
 118:generated/setup_scr_wave_model.c **** 	ui->wave_model_btn_3_label = lv_label_create(ui->wave_model_btn_3);
 719              		.loc 1 118 2 is_stmt 1 view .LVU156
 720              		.loc 1 118 31 is_stmt 0 view .LVU157
 721 02c4 FFF7FEFF 		bl	lv_label_create
 722              	.LVL78:
 723              		.loc 1 118 29 discriminator 1 view .LVU158
 724 02c8 6062     		str	r0, [r4, #36]
 119:generated/setup_scr_wave_model.c **** 	lv_label_set_text(ui->wave_model_btn_3_label, "L2");
 725              		.loc 1 119 2 is_stmt 1 view .LVU159
 726 02ca 3A49     		ldr	r1, .L7+24
 727 02cc FFF7FEFF 		bl	lv_label_set_text
 728              	.LVL79:
 120:generated/setup_scr_wave_model.c **** 	lv_label_set_long_mode(ui->wave_model_btn_3_label, LV_LABEL_LONG_WRAP);
 729              		.loc 1 120 2 view .LVU160
 730 02d0 2946     		mov	r1, r5
 731 02d2 606A     		ldr	r0, [r4, #36]
 732 02d4 FFF7FEFF 		bl	lv_label_set_long_mode
 733              	.LVL80:
 121:generated/setup_scr_wave_model.c **** 	lv_obj_align(ui->wave_model_btn_3_label, LV_ALIGN_CENTER, 0, 0);
 734              		.loc 1 121 2 view .LVU161
ARM GAS  C:\usertemp\cctMo5e7.s 			page 31


 735 02d8 2B46     		mov	r3, r5
 736 02da 2A46     		mov	r2, r5
 737 02dc 0921     		movs	r1, #9
 738 02de 606A     		ldr	r0, [r4, #36]
 739 02e0 FFF7FEFF 		bl	lv_obj_align
 740              	.LVL81:
 122:generated/setup_scr_wave_model.c **** 	lv_obj_set_style_pad_all(ui->wave_model_btn_3, 0, LV_STATE_DEFAULT);
 741              		.loc 1 122 2 view .LVU162
 742 02e4 2A46     		mov	r2, r5
 743 02e6 2946     		mov	r1, r5
 744 02e8 206A     		ldr	r0, [r4, #32]
 745 02ea FFF7FEFF 		bl	lv_obj_set_style_pad_all
 746              	.LVL82:
 123:generated/setup_scr_wave_model.c **** 	lv_obj_set_pos(ui->wave_model_btn_3, 586, 250);
 747              		.loc 1 123 2 view .LVU163
 748 02ee FA22     		movs	r2, #250
 749 02f0 40F24A21 		movw	r1, #586
 750 02f4 206A     		ldr	r0, [r4, #32]
 751 02f6 FFF7FEFF 		bl	lv_obj_set_pos
 752              	.LVL83:
 124:generated/setup_scr_wave_model.c **** 	lv_obj_set_size(ui->wave_model_btn_3, 40, 30);
 753              		.loc 1 124 2 view .LVU164
 754 02fa 1E22     		movs	r2, #30
 755 02fc 2821     		movs	r1, #40
 756 02fe 206A     		ldr	r0, [r4, #32]
 757 0300 FFF7FEFF 		bl	lv_obj_set_size
 758              	.LVL84:
 125:generated/setup_scr_wave_model.c **** 
 126:generated/setup_scr_wave_model.c **** 	// Write style for wave_model_btn_3, Part: LV_PART_MAIN, State: LV_STATE_DEFAULT.
 127:generated/setup_scr_wave_model.c **** 	lv_obj_set_style_bg_opa(ui->wave_model_btn_3, 255, LV_PART_MAIN | LV_STATE_DEFAULT);
 759              		.loc 1 127 2 view .LVU165
 760 0304 2A46     		mov	r2, r5
 761 0306 FF21     		movs	r1, #255
 762 0308 206A     		ldr	r0, [r4, #32]
 763 030a FFF7FEFF 		bl	lv_obj_set_style_bg_opa
 764              	.LVL85:
 128:generated/setup_scr_wave_model.c **** 	lv_obj_set_style_bg_color(ui->wave_model_btn_3, lv_color_hex(0x808080), LV_PART_MAIN | LV_STATE_DE
 765              		.loc 1 128 2 view .LVU166
 766              	.LBB168:
 767              	.LBI168:
 597:lvgl/src/hal/../draw/../misc/lv_color.h **** {
 768              		.loc 3 597 26 view .LVU167
 769              	.LBB169:
 600:lvgl/src/hal/../draw/../misc/lv_color.h **** #if LV_COLOR_16_SWAP == 0
 770              		.loc 3 600 5 view .LVU168
 616:lvgl/src/hal/../draw/../misc/lv_color.h **** #else
 771              		.loc 3 616 5 view .LVU169
 772              		.loc 3 621 5 view .LVU170
 773              		.loc 3 621 5 is_stmt 0 view .LVU171
 774              	.LBE169:
 775              	.LBE168:
 776              		.loc 1 128 2 discriminator 1 view .LVU172
 777 030e 2A46     		mov	r2, r5
 778 0310 3946     		mov	r1, r7	@ movhi
 779 0312 206A     		ldr	r0, [r4, #32]
 780 0314 FFF7FEFF 		bl	lv_obj_set_style_bg_color
 781              	.LVL86:
ARM GAS  C:\usertemp\cctMo5e7.s 			page 32


 129:generated/setup_scr_wave_model.c **** 	lv_obj_set_style_border_width(ui->wave_model_btn_3, 0, LV_PART_MAIN | LV_STATE_DEFAULT);
 782              		.loc 1 129 2 is_stmt 1 view .LVU173
 783 0318 2A46     		mov	r2, r5
 784 031a 2946     		mov	r1, r5
 785 031c 206A     		ldr	r0, [r4, #32]
 786 031e FFF7FEFF 		bl	lv_obj_set_style_border_width
 787              	.LVL87:
 130:generated/setup_scr_wave_model.c **** 	lv_obj_set_style_radius(ui->wave_model_btn_3, 5, LV_PART_MAIN | LV_STATE_DEFAULT);
 788              		.loc 1 130 2 view .LVU174
 789 0322 2A46     		mov	r2, r5
 790 0324 0521     		movs	r1, #5
 791 0326 206A     		ldr	r0, [r4, #32]
 792 0328 FFF7FEFF 		bl	lv_obj_set_style_radius
 793              	.LVL88:
 131:generated/setup_scr_wave_model.c **** 	lv_obj_set_style_shadow_width(ui->wave_model_btn_3, 0, LV_PART_MAIN | LV_STATE_DEFAULT);
 794              		.loc 1 131 2 view .LVU175
 795 032c 2A46     		mov	r2, r5
 796 032e 2946     		mov	r1, r5
 797 0330 206A     		ldr	r0, [r4, #32]
 798 0332 FFF7FEFF 		bl	lv_obj_set_style_shadow_width
 799              	.LVL89:
 132:generated/setup_scr_wave_model.c **** 	lv_obj_set_style_text_color(ui->wave_model_btn_3, lv_color_hex(0x000000), LV_PART_MAIN | LV_STATE_
 800              		.loc 1 132 2 view .LVU176
 801              	.LBB170:
 802              	.LBI170:
 597:lvgl/src/hal/../draw/../misc/lv_color.h **** {
 803              		.loc 3 597 26 view .LVU177
 804              	.LBB171:
 600:lvgl/src/hal/../draw/../misc/lv_color.h **** #if LV_COLOR_16_SWAP == 0
 805              		.loc 3 600 5 view .LVU178
 616:lvgl/src/hal/../draw/../misc/lv_color.h **** #else
 806              		.loc 3 616 5 view .LVU179
 807              		.loc 3 621 5 view .LVU180
 808              		.loc 3 621 5 is_stmt 0 view .LVU181
 809              	.LBE171:
 810              	.LBE170:
 811              		.loc 1 132 2 discriminator 1 view .LVU182
 812 0336 2A46     		mov	r2, r5
 813 0338 2946     		mov	r1, r5	@ movhi
 814 033a 206A     		ldr	r0, [r4, #32]
 815 033c FFF7FEFF 		bl	lv_obj_set_style_text_color
 816              	.LVL90:
 133:generated/setup_scr_wave_model.c **** 	lv_obj_set_style_text_font(ui->wave_model_btn_3, &lv_font_arial_16, LV_PART_MAIN | LV_STATE_DEFAUL
 817              		.loc 1 133 2 is_stmt 1 view .LVU183
 818 0340 2A46     		mov	r2, r5
 819 0342 3146     		mov	r1, r6
 820 0344 206A     		ldr	r0, [r4, #32]
 821 0346 FFF7FEFF 		bl	lv_obj_set_style_text_font
 822              	.LVL91:
 134:generated/setup_scr_wave_model.c **** 	lv_obj_set_style_text_align(ui->wave_model_btn_3, LV_TEXT_ALIGN_CENTER, LV_PART_MAIN | LV_STATE_DE
 823              		.loc 1 134 2 view .LVU184
 824 034a 2A46     		mov	r2, r5
 825 034c 0221     		movs	r1, #2
 826 034e 206A     		ldr	r0, [r4, #32]
 827 0350 FFF7FEFF 		bl	lv_obj_set_style_text_align
 828              	.LVL92:
 135:generated/setup_scr_wave_model.c **** 
ARM GAS  C:\usertemp\cctMo5e7.s 			page 33


 136:generated/setup_scr_wave_model.c **** 	// Write codes wave_model_btn_4
 137:generated/setup_scr_wave_model.c **** 	ui->wave_model_btn_4 = lv_btn_create(ui->wave_model);
 829              		.loc 1 137 2 view .LVU185
 830              		.loc 1 137 25 is_stmt 0 view .LVU186
 831 0354 2068     		ldr	r0, [r4]
 832 0356 FFF7FEFF 		bl	lv_btn_create
 833              	.LVL93:
 834              		.loc 1 137 23 discriminator 1 view .LVU187
 835 035a A062     		str	r0, [r4, #40]
 138:generated/setup_scr_wave_model.c **** 	ui->wave_model_btn_4_label = lv_label_create(ui->wave_model_btn_4);
 836              		.loc 1 138 2 is_stmt 1 view .LVU188
 837              		.loc 1 138 31 is_stmt 0 view .LVU189
 838 035c FFF7FEFF 		bl	lv_label_create
 839              	.LVL94:
 840              		.loc 1 138 29 discriminator 1 view .LVU190
 841 0360 E062     		str	r0, [r4, #44]
 139:generated/setup_scr_wave_model.c **** 	lv_label_set_text(ui->wave_model_btn_4_label, "L3");
 842              		.loc 1 139 2 is_stmt 1 view .LVU191
 843 0362 1549     		ldr	r1, .L7+28
 844 0364 FFF7FEFF 		bl	lv_label_set_text
 845              	.LVL95:
 140:generated/setup_scr_wave_model.c **** 	lv_label_set_long_mode(ui->wave_model_btn_4_label, LV_LABEL_LONG_WRAP);
 846              		.loc 1 140 2 view .LVU192
 847 0368 2946     		mov	r1, r5
 848 036a E06A     		ldr	r0, [r4, #44]
 849 036c FFF7FEFF 		bl	lv_label_set_long_mode
 850              	.LVL96:
 141:generated/setup_scr_wave_model.c **** 	lv_obj_align(ui->wave_model_btn_4_label, LV_ALIGN_CENTER, 0, 0);
 851              		.loc 1 141 2 view .LVU193
 852 0370 2B46     		mov	r3, r5
 853 0372 2A46     		mov	r2, r5
 854 0374 0921     		movs	r1, #9
 855 0376 E06A     		ldr	r0, [r4, #44]
 856 0378 FFF7FEFF 		bl	lv_obj_align
 857              	.LVL97:
 142:generated/setup_scr_wave_model.c **** 	lv_obj_set_style_pad_all(ui->wave_model_btn_4, 0, LV_STATE_DEFAULT);
 858              		.loc 1 142 2 view .LVU194
 859 037c 2A46     		mov	r2, r5
 860 037e 2946     		mov	r1, r5
 861 0380 A06A     		ldr	r0, [r4, #40]
 862 0382 FFF7FEFF 		bl	lv_obj_set_style_pad_all
 863              	.LVL98:
 143:generated/setup_scr_wave_model.c **** 	lv_obj_set_pos(ui->wave_model_btn_4, 586, 290);
 864              		.loc 1 143 2 view .LVU195
 865 0386 4FF49172 		mov	r2, #290
 866 038a 40F24A21 		movw	r1, #586
 867 038e A06A     		ldr	r0, [r4, #40]
 868 0390 FFF7FEFF 		bl	lv_obj_set_pos
 869              	.LVL99:
 144:generated/setup_scr_wave_model.c **** 	lv_obj_set_size(ui->wave_model_btn_4, 40, 30);
 870              		.loc 1 144 2 view .LVU196
 871 0394 1E22     		movs	r2, #30
 872 0396 2821     		movs	r1, #40
 873 0398 A06A     		ldr	r0, [r4, #40]
 874 039a 0FE0     		b	.L8
 875              	.L9:
 876              		.align	2
ARM GAS  C:\usertemp\cctMo5e7.s 			page 34


 877              	.L7:
 878 039c 00000000 		.word	.LC0
 879 03a0 00000000 		.word	lv_font_simsun_16
 880 03a4 04000000 		.word	.LC1
 881 03a8 00000000 		.word	lv_font_arial_16
 882 03ac 08000000 		.word	.LC2
 883 03b0 0C000000 		.word	.LC3
 884 03b4 10000000 		.word	.LC4
 885 03b8 14000000 		.word	.LC5
 886              	.L8:
 887 03bc FFF7FEFF 		bl	lv_obj_set_size
 888              	.LVL100:
 145:generated/setup_scr_wave_model.c **** 
 146:generated/setup_scr_wave_model.c **** 	// Write style for wave_model_btn_4, Part: LV_PART_MAIN, State: LV_STATE_DEFAULT.
 147:generated/setup_scr_wave_model.c **** 	lv_obj_set_style_bg_opa(ui->wave_model_btn_4, 255, LV_PART_MAIN | LV_STATE_DEFAULT);
 889              		.loc 1 147 2 view .LVU197
 890 03c0 2A46     		mov	r2, r5
 891 03c2 FF21     		movs	r1, #255
 892 03c4 A06A     		ldr	r0, [r4, #40]
 893 03c6 FFF7FEFF 		bl	lv_obj_set_style_bg_opa
 894              	.LVL101:
 148:generated/setup_scr_wave_model.c **** 	lv_obj_set_style_bg_color(ui->wave_model_btn_4, lv_color_hex(0x808080), LV_PART_MAIN | LV_STATE_DE
 895              		.loc 1 148 2 view .LVU198
 896              	.LBB172:
 897              	.LBI172:
 597:lvgl/src/hal/../draw/../misc/lv_color.h **** {
 898              		.loc 3 597 26 view .LVU199
 899              	.LBB173:
 600:lvgl/src/hal/../draw/../misc/lv_color.h **** #if LV_COLOR_16_SWAP == 0
 900              		.loc 3 600 5 view .LVU200
 616:lvgl/src/hal/../draw/../misc/lv_color.h **** #else
 901              		.loc 3 616 5 view .LVU201
 902              		.loc 3 621 5 view .LVU202
 903              		.loc 3 621 5 is_stmt 0 view .LVU203
 904              	.LBE173:
 905              	.LBE172:
 906              		.loc 1 148 2 discriminator 1 view .LVU204
 907 03ca 2A46     		mov	r2, r5
 908 03cc 3946     		mov	r1, r7	@ movhi
 909 03ce A06A     		ldr	r0, [r4, #40]
 910 03d0 FFF7FEFF 		bl	lv_obj_set_style_bg_color
 911              	.LVL102:
 149:generated/setup_scr_wave_model.c **** 	lv_obj_set_style_border_width(ui->wave_model_btn_4, 0, LV_PART_MAIN | LV_STATE_DEFAULT);
 912              		.loc 1 149 2 is_stmt 1 view .LVU205
 913 03d4 2A46     		mov	r2, r5
 914 03d6 2946     		mov	r1, r5
 915 03d8 A06A     		ldr	r0, [r4, #40]
 916 03da FFF7FEFF 		bl	lv_obj_set_style_border_width
 917              	.LVL103:
 150:generated/setup_scr_wave_model.c **** 	lv_obj_set_style_radius(ui->wave_model_btn_4, 5, LV_PART_MAIN | LV_STATE_DEFAULT);
 918              		.loc 1 150 2 view .LVU206
 919 03de 2A46     		mov	r2, r5
 920 03e0 0521     		movs	r1, #5
 921 03e2 A06A     		ldr	r0, [r4, #40]
 922 03e4 FFF7FEFF 		bl	lv_obj_set_style_radius
 923              	.LVL104:
 151:generated/setup_scr_wave_model.c **** 	lv_obj_set_style_shadow_width(ui->wave_model_btn_4, 0, LV_PART_MAIN | LV_STATE_DEFAULT);
ARM GAS  C:\usertemp\cctMo5e7.s 			page 35


 924              		.loc 1 151 2 view .LVU207
 925 03e8 2A46     		mov	r2, r5
 926 03ea 2946     		mov	r1, r5
 927 03ec A06A     		ldr	r0, [r4, #40]
 928 03ee FFF7FEFF 		bl	lv_obj_set_style_shadow_width
 929              	.LVL105:
 152:generated/setup_scr_wave_model.c **** 	lv_obj_set_style_text_color(ui->wave_model_btn_4, lv_color_hex(0x000000), LV_PART_MAIN | LV_STATE_
 930              		.loc 1 152 2 view .LVU208
 931              	.LBB174:
 932              	.LBI174:
 597:lvgl/src/hal/../draw/../misc/lv_color.h **** {
 933              		.loc 3 597 26 view .LVU209
 934              	.LBB175:
 600:lvgl/src/hal/../draw/../misc/lv_color.h **** #if LV_COLOR_16_SWAP == 0
 935              		.loc 3 600 5 view .LVU210
 616:lvgl/src/hal/../draw/../misc/lv_color.h **** #else
 936              		.loc 3 616 5 view .LVU211
 937              		.loc 3 621 5 view .LVU212
 938              		.loc 3 621 5 is_stmt 0 view .LVU213
 939              	.LBE175:
 940              	.LBE174:
 941              		.loc 1 152 2 discriminator 1 view .LVU214
 942 03f2 2A46     		mov	r2, r5
 943 03f4 2946     		mov	r1, r5	@ movhi
 944 03f6 A06A     		ldr	r0, [r4, #40]
 945 03f8 FFF7FEFF 		bl	lv_obj_set_style_text_color
 946              	.LVL106:
 153:generated/setup_scr_wave_model.c **** 	lv_obj_set_style_text_font(ui->wave_model_btn_4, &lv_font_arial_16, LV_PART_MAIN | LV_STATE_DEFAUL
 947              		.loc 1 153 2 is_stmt 1 view .LVU215
 948 03fc 2A46     		mov	r2, r5
 949 03fe 3146     		mov	r1, r6
 950 0400 A06A     		ldr	r0, [r4, #40]
 951 0402 FFF7FEFF 		bl	lv_obj_set_style_text_font
 952              	.LVL107:
 154:generated/setup_scr_wave_model.c **** 	lv_obj_set_style_text_align(ui->wave_model_btn_4, LV_TEXT_ALIGN_CENTER, LV_PART_MAIN | LV_STATE_DE
 953              		.loc 1 154 2 view .LVU216
 954 0406 2A46     		mov	r2, r5
 955 0408 0221     		movs	r1, #2
 956 040a A06A     		ldr	r0, [r4, #40]
 957 040c FFF7FEFF 		bl	lv_obj_set_style_text_align
 958              	.LVL108:
 155:generated/setup_scr_wave_model.c **** 
 156:generated/setup_scr_wave_model.c **** 	// Write codes wave_model_btn_5
 157:generated/setup_scr_wave_model.c **** 	ui->wave_model_btn_5 = lv_btn_create(ui->wave_model);
 959              		.loc 1 157 2 view .LVU217
 960              		.loc 1 157 25 is_stmt 0 view .LVU218
 961 0410 2068     		ldr	r0, [r4]
 962 0412 FFF7FEFF 		bl	lv_btn_create
 963              	.LVL109:
 964              		.loc 1 157 23 discriminator 1 view .LVU219
 965 0416 2063     		str	r0, [r4, #48]
 158:generated/setup_scr_wave_model.c **** 	ui->wave_model_btn_5_label = lv_label_create(ui->wave_model_btn_5);
 966              		.loc 1 158 2 is_stmt 1 view .LVU220
 967              		.loc 1 158 31 is_stmt 0 view .LVU221
 968 0418 FFF7FEFF 		bl	lv_label_create
 969              	.LVL110:
 970              		.loc 1 158 29 discriminator 1 view .LVU222
ARM GAS  C:\usertemp\cctMo5e7.s 			page 36


 971 041c 6063     		str	r0, [r4, #52]
 159:generated/setup_scr_wave_model.c **** 	lv_label_set_text(ui->wave_model_btn_5_label, "N");
 972              		.loc 1 159 2 is_stmt 1 view .LVU223
 973 041e D349     		ldr	r1, .L10
 974 0420 FFF7FEFF 		bl	lv_label_set_text
 975              	.LVL111:
 160:generated/setup_scr_wave_model.c **** 	lv_label_set_long_mode(ui->wave_model_btn_5_label, LV_LABEL_LONG_WRAP);
 976              		.loc 1 160 2 view .LVU224
 977 0424 2946     		mov	r1, r5
 978 0426 606B     		ldr	r0, [r4, #52]
 979 0428 FFF7FEFF 		bl	lv_label_set_long_mode
 980              	.LVL112:
 161:generated/setup_scr_wave_model.c **** 	lv_obj_align(ui->wave_model_btn_5_label, LV_ALIGN_CENTER, 0, 0);
 981              		.loc 1 161 2 view .LVU225
 982 042c 2B46     		mov	r3, r5
 983 042e 2A46     		mov	r2, r5
 984 0430 0921     		movs	r1, #9
 985 0432 606B     		ldr	r0, [r4, #52]
 986 0434 FFF7FEFF 		bl	lv_obj_align
 987              	.LVL113:
 162:generated/setup_scr_wave_model.c **** 	lv_obj_set_style_pad_all(ui->wave_model_btn_5, 0, LV_STATE_DEFAULT);
 988              		.loc 1 162 2 view .LVU226
 989 0438 2A46     		mov	r2, r5
 990 043a 2946     		mov	r1, r5
 991 043c 206B     		ldr	r0, [r4, #48]
 992 043e FFF7FEFF 		bl	lv_obj_set_style_pad_all
 993              	.LVL114:
 163:generated/setup_scr_wave_model.c **** 	lv_obj_set_pos(ui->wave_model_btn_5, 586, 330);
 994              		.loc 1 163 2 view .LVU227
 995 0442 4FF4A572 		mov	r2, #330
 996 0446 40F24A21 		movw	r1, #586
 997 044a 206B     		ldr	r0, [r4, #48]
 998 044c FFF7FEFF 		bl	lv_obj_set_pos
 999              	.LVL115:
 164:generated/setup_scr_wave_model.c **** 	lv_obj_set_size(ui->wave_model_btn_5, 40, 30);
 1000              		.loc 1 164 2 view .LVU228
 1001 0450 1E22     		movs	r2, #30
 1002 0452 2821     		movs	r1, #40
 1003 0454 206B     		ldr	r0, [r4, #48]
 1004 0456 FFF7FEFF 		bl	lv_obj_set_size
 1005              	.LVL116:
 165:generated/setup_scr_wave_model.c **** 
 166:generated/setup_scr_wave_model.c **** 	// Write style for wave_model_btn_5, Part: LV_PART_MAIN, State: LV_STATE_DEFAULT.
 167:generated/setup_scr_wave_model.c **** 	lv_obj_set_style_bg_opa(ui->wave_model_btn_5, 255, LV_PART_MAIN | LV_STATE_DEFAULT);
 1006              		.loc 1 167 2 view .LVU229
 1007 045a 2A46     		mov	r2, r5
 1008 045c FF21     		movs	r1, #255
 1009 045e 206B     		ldr	r0, [r4, #48]
 1010 0460 FFF7FEFF 		bl	lv_obj_set_style_bg_opa
 1011              	.LVL117:
 168:generated/setup_scr_wave_model.c **** 	lv_obj_set_style_bg_color(ui->wave_model_btn_5, lv_color_hex(0x808080), LV_PART_MAIN | LV_STATE_DE
 1012              		.loc 1 168 2 view .LVU230
 1013              	.LBB176:
 1014              	.LBI176:
 597:lvgl/src/hal/../draw/../misc/lv_color.h **** {
 1015              		.loc 3 597 26 view .LVU231
 1016              	.LBB177:
ARM GAS  C:\usertemp\cctMo5e7.s 			page 37


 600:lvgl/src/hal/../draw/../misc/lv_color.h **** #if LV_COLOR_16_SWAP == 0
 1017              		.loc 3 600 5 view .LVU232
 616:lvgl/src/hal/../draw/../misc/lv_color.h **** #else
 1018              		.loc 3 616 5 view .LVU233
 1019              		.loc 3 621 5 view .LVU234
 1020              		.loc 3 621 5 is_stmt 0 view .LVU235
 1021              	.LBE177:
 1022              	.LBE176:
 1023              		.loc 1 168 2 discriminator 1 view .LVU236
 1024 0464 2A46     		mov	r2, r5
 1025 0466 3946     		mov	r1, r7	@ movhi
 1026 0468 206B     		ldr	r0, [r4, #48]
 1027 046a FFF7FEFF 		bl	lv_obj_set_style_bg_color
 1028              	.LVL118:
 169:generated/setup_scr_wave_model.c **** 	lv_obj_set_style_border_width(ui->wave_model_btn_5, 0, LV_PART_MAIN | LV_STATE_DEFAULT);
 1029              		.loc 1 169 2 is_stmt 1 view .LVU237
 1030 046e 2A46     		mov	r2, r5
 1031 0470 2946     		mov	r1, r5
 1032 0472 206B     		ldr	r0, [r4, #48]
 1033 0474 FFF7FEFF 		bl	lv_obj_set_style_border_width
 1034              	.LVL119:
 170:generated/setup_scr_wave_model.c **** 	lv_obj_set_style_radius(ui->wave_model_btn_5, 5, LV_PART_MAIN | LV_STATE_DEFAULT);
 1035              		.loc 1 170 2 view .LVU238
 1036 0478 2A46     		mov	r2, r5
 1037 047a 0521     		movs	r1, #5
 1038 047c 206B     		ldr	r0, [r4, #48]
 1039 047e FFF7FEFF 		bl	lv_obj_set_style_radius
 1040              	.LVL120:
 171:generated/setup_scr_wave_model.c **** 	lv_obj_set_style_shadow_width(ui->wave_model_btn_5, 0, LV_PART_MAIN | LV_STATE_DEFAULT);
 1041              		.loc 1 171 2 view .LVU239
 1042 0482 2A46     		mov	r2, r5
 1043 0484 2946     		mov	r1, r5
 1044 0486 206B     		ldr	r0, [r4, #48]
 1045 0488 FFF7FEFF 		bl	lv_obj_set_style_shadow_width
 1046              	.LVL121:
 172:generated/setup_scr_wave_model.c **** 	lv_obj_set_style_text_color(ui->wave_model_btn_5, lv_color_hex(0x000000), LV_PART_MAIN | LV_STATE_
 1047              		.loc 1 172 2 view .LVU240
 1048              	.LBB178:
 1049              	.LBI178:
 597:lvgl/src/hal/../draw/../misc/lv_color.h **** {
 1050              		.loc 3 597 26 view .LVU241
 1051              	.LBB179:
 600:lvgl/src/hal/../draw/../misc/lv_color.h **** #if LV_COLOR_16_SWAP == 0
 1052              		.loc 3 600 5 view .LVU242
 616:lvgl/src/hal/../draw/../misc/lv_color.h **** #else
 1053              		.loc 3 616 5 view .LVU243
 1054              		.loc 3 621 5 view .LVU244
 1055              		.loc 3 621 5 is_stmt 0 view .LVU245
 1056              	.LBE179:
 1057              	.LBE178:
 1058              		.loc 1 172 2 discriminator 1 view .LVU246
 1059 048c 2A46     		mov	r2, r5
 1060 048e 2946     		mov	r1, r5	@ movhi
 1061 0490 206B     		ldr	r0, [r4, #48]
 1062 0492 FFF7FEFF 		bl	lv_obj_set_style_text_color
 1063              	.LVL122:
 173:generated/setup_scr_wave_model.c **** 	lv_obj_set_style_text_font(ui->wave_model_btn_5, &lv_font_arial_16, LV_PART_MAIN | LV_STATE_DEFAUL
ARM GAS  C:\usertemp\cctMo5e7.s 			page 38


 1064              		.loc 1 173 2 is_stmt 1 view .LVU247
 1065 0496 2A46     		mov	r2, r5
 1066 0498 3146     		mov	r1, r6
 1067 049a 206B     		ldr	r0, [r4, #48]
 1068 049c FFF7FEFF 		bl	lv_obj_set_style_text_font
 1069              	.LVL123:
 174:generated/setup_scr_wave_model.c **** 	lv_obj_set_style_text_align(ui->wave_model_btn_5, LV_TEXT_ALIGN_CENTER, LV_PART_MAIN | LV_STATE_DE
 1070              		.loc 1 174 2 view .LVU248
 1071 04a0 2A46     		mov	r2, r5
 1072 04a2 0221     		movs	r1, #2
 1073 04a4 206B     		ldr	r0, [r4, #48]
 1074 04a6 FFF7FEFF 		bl	lv_obj_set_style_text_align
 1075              	.LVL124:
 175:generated/setup_scr_wave_model.c **** 
 176:generated/setup_scr_wave_model.c **** 	// Write codes wave_model_power
 177:generated/setup_scr_wave_model.c **** 	ui->wave_model_power = lv_label_create(ui->wave_model);
 1076              		.loc 1 177 2 view .LVU249
 1077              		.loc 1 177 25 is_stmt 0 view .LVU250
 1078 04aa 2068     		ldr	r0, [r4]
 1079 04ac FFF7FEFF 		bl	lv_label_create
 1080              	.LVL125:
 1081              		.loc 1 177 23 discriminator 1 view .LVU251
 1082 04b0 2064     		str	r0, [r4, #64]
 178:generated/setup_scr_wave_model.c **** 	lv_label_set_text(ui->wave_model_power, "power");
 1083              		.loc 1 178 2 is_stmt 1 view .LVU252
 1084 04b2 AF49     		ldr	r1, .L10+4
 1085 04b4 FFF7FEFF 		bl	lv_label_set_text
 1086              	.LVL126:
 179:generated/setup_scr_wave_model.c **** 	lv_label_set_long_mode(ui->wave_model_power, LV_LABEL_LONG_WRAP);
 1087              		.loc 1 179 2 view .LVU253
 1088 04b8 2946     		mov	r1, r5
 1089 04ba 206C     		ldr	r0, [r4, #64]
 1090 04bc FFF7FEFF 		bl	lv_label_set_long_mode
 1091              	.LVL127:
 180:generated/setup_scr_wave_model.c **** 	lv_obj_set_pos(ui->wave_model_power, 530, 4);
 1092              		.loc 1 180 2 view .LVU254
 1093 04c0 0422     		movs	r2, #4
 1094 04c2 40F21221 		movw	r1, #530
 1095 04c6 206C     		ldr	r0, [r4, #64]
 1096 04c8 FFF7FEFF 		bl	lv_obj_set_pos
 1097              	.LVL128:
 181:generated/setup_scr_wave_model.c **** 	lv_obj_set_size(ui->wave_model_power, 90, 20);
 1098              		.loc 1 181 2 view .LVU255
 1099 04cc 1422     		movs	r2, #20
 1100 04ce 5A21     		movs	r1, #90
 1101 04d0 206C     		ldr	r0, [r4, #64]
 1102 04d2 FFF7FEFF 		bl	lv_obj_set_size
 1103              	.LVL129:
 182:generated/setup_scr_wave_model.c **** 
 183:generated/setup_scr_wave_model.c **** 	// Write style for wave_model_power, Part: LV_PART_MAIN, State: LV_STATE_DEFAULT.
 184:generated/setup_scr_wave_model.c **** 	lv_obj_set_style_border_width(ui->wave_model_power, 0, LV_PART_MAIN | LV_STATE_DEFAULT);
 1104              		.loc 1 184 2 view .LVU256
 1105 04d6 2A46     		mov	r2, r5
 1106 04d8 2946     		mov	r1, r5
 1107 04da 206C     		ldr	r0, [r4, #64]
 1108 04dc FFF7FEFF 		bl	lv_obj_set_style_border_width
 1109              	.LVL130:
ARM GAS  C:\usertemp\cctMo5e7.s 			page 39


 185:generated/setup_scr_wave_model.c **** 	lv_obj_set_style_radius(ui->wave_model_power, 0, LV_PART_MAIN | LV_STATE_DEFAULT);
 1110              		.loc 1 185 2 view .LVU257
 1111 04e0 2A46     		mov	r2, r5
 1112 04e2 2946     		mov	r1, r5
 1113 04e4 206C     		ldr	r0, [r4, #64]
 1114 04e6 FFF7FEFF 		bl	lv_obj_set_style_radius
 1115              	.LVL131:
 186:generated/setup_scr_wave_model.c **** 	lv_obj_set_style_text_color(ui->wave_model_power, lv_color_hex(0x000000), LV_PART_MAIN | LV_STATE_
 1116              		.loc 1 186 2 view .LVU258
 1117              	.LBB180:
 1118              	.LBI180:
 597:lvgl/src/hal/../draw/../misc/lv_color.h **** {
 1119              		.loc 3 597 26 view .LVU259
 1120              	.LBB181:
 600:lvgl/src/hal/../draw/../misc/lv_color.h **** #if LV_COLOR_16_SWAP == 0
 1121              		.loc 3 600 5 view .LVU260
 616:lvgl/src/hal/../draw/../misc/lv_color.h **** #else
 1122              		.loc 3 616 5 view .LVU261
 1123              		.loc 3 621 5 view .LVU262
 1124              		.loc 3 621 5 is_stmt 0 view .LVU263
 1125              	.LBE181:
 1126              	.LBE180:
 1127              		.loc 1 186 2 discriminator 1 view .LVU264
 1128 04ea 2A46     		mov	r2, r5
 1129 04ec 2946     		mov	r1, r5	@ movhi
 1130 04ee 206C     		ldr	r0, [r4, #64]
 1131 04f0 FFF7FEFF 		bl	lv_obj_set_style_text_color
 1132              	.LVL132:
 187:generated/setup_scr_wave_model.c **** 	lv_obj_set_style_text_font(ui->wave_model_power, &lv_font_arial_16, LV_PART_MAIN | LV_STATE_DEFAUL
 1133              		.loc 1 187 2 is_stmt 1 view .LVU265
 1134 04f4 2A46     		mov	r2, r5
 1135 04f6 3146     		mov	r1, r6
 1136 04f8 206C     		ldr	r0, [r4, #64]
 1137 04fa FFF7FEFF 		bl	lv_obj_set_style_text_font
 1138              	.LVL133:
 188:generated/setup_scr_wave_model.c **** 	lv_obj_set_style_text_letter_space(ui->wave_model_power, 2, LV_PART_MAIN | LV_STATE_DEFAULT);
 1139              		.loc 1 188 2 view .LVU266
 1140 04fe 2A46     		mov	r2, r5
 1141 0500 0221     		movs	r1, #2
 1142 0502 206C     		ldr	r0, [r4, #64]
 1143 0504 FFF7FEFF 		bl	lv_obj_set_style_text_letter_space
 1144              	.LVL134:
 189:generated/setup_scr_wave_model.c **** 	lv_obj_set_style_text_line_space(ui->wave_model_power, 0, LV_PART_MAIN | LV_STATE_DEFAULT);
 1145              		.loc 1 189 2 view .LVU267
 1146 0508 2A46     		mov	r2, r5
 1147 050a 2946     		mov	r1, r5
 1148 050c 206C     		ldr	r0, [r4, #64]
 1149 050e FFF7FEFF 		bl	lv_obj_set_style_text_line_space
 1150              	.LVL135:
 190:generated/setup_scr_wave_model.c **** 	lv_obj_set_style_text_align(ui->wave_model_power, LV_TEXT_ALIGN_CENTER, LV_PART_MAIN | LV_STATE_DE
 1151              		.loc 1 190 2 view .LVU268
 1152 0512 2A46     		mov	r2, r5
 1153 0514 0221     		movs	r1, #2
 1154 0516 206C     		ldr	r0, [r4, #64]
 1155 0518 FFF7FEFF 		bl	lv_obj_set_style_text_align
 1156              	.LVL136:
 191:generated/setup_scr_wave_model.c **** 	lv_obj_set_style_bg_opa(ui->wave_model_power, 0, LV_PART_MAIN | LV_STATE_DEFAULT);
ARM GAS  C:\usertemp\cctMo5e7.s 			page 40


 1157              		.loc 1 191 2 view .LVU269
 1158 051c 2A46     		mov	r2, r5
 1159 051e 2946     		mov	r1, r5
 1160 0520 206C     		ldr	r0, [r4, #64]
 1161 0522 FFF7FEFF 		bl	lv_obj_set_style_bg_opa
 1162              	.LVL137:
 192:generated/setup_scr_wave_model.c **** 	lv_obj_set_style_pad_top(ui->wave_model_power, 0, LV_PART_MAIN | LV_STATE_DEFAULT);
 1163              		.loc 1 192 2 view .LVU270
 1164 0526 2A46     		mov	r2, r5
 1165 0528 2946     		mov	r1, r5
 1166 052a 206C     		ldr	r0, [r4, #64]
 1167 052c FFF7FEFF 		bl	lv_obj_set_style_pad_top
 1168              	.LVL138:
 193:generated/setup_scr_wave_model.c **** 	lv_obj_set_style_pad_right(ui->wave_model_power, 0, LV_PART_MAIN | LV_STATE_DEFAULT);
 1169              		.loc 1 193 2 view .LVU271
 1170 0530 2A46     		mov	r2, r5
 1171 0532 2946     		mov	r1, r5
 1172 0534 206C     		ldr	r0, [r4, #64]
 1173 0536 FFF7FEFF 		bl	lv_obj_set_style_pad_right
 1174              	.LVL139:
 194:generated/setup_scr_wave_model.c **** 	lv_obj_set_style_pad_bottom(ui->wave_model_power, 0, LV_PART_MAIN | LV_STATE_DEFAULT);
 1175              		.loc 1 194 2 view .LVU272
 1176 053a 2A46     		mov	r2, r5
 1177 053c 2946     		mov	r1, r5
 1178 053e 206C     		ldr	r0, [r4, #64]
 1179 0540 FFF7FEFF 		bl	lv_obj_set_style_pad_bottom
 1180              	.LVL140:
 195:generated/setup_scr_wave_model.c **** 	lv_obj_set_style_pad_left(ui->wave_model_power, 0, LV_PART_MAIN | LV_STATE_DEFAULT);
 1181              		.loc 1 195 2 view .LVU273
 1182 0544 2A46     		mov	r2, r5
 1183 0546 2946     		mov	r1, r5
 1184 0548 206C     		ldr	r0, [r4, #64]
 1185 054a FFF7FEFF 		bl	lv_obj_set_style_pad_left
 1186              	.LVL141:
 196:generated/setup_scr_wave_model.c **** 	lv_obj_set_style_shadow_width(ui->wave_model_power, 0, LV_PART_MAIN | LV_STATE_DEFAULT);
 1187              		.loc 1 196 2 view .LVU274
 1188 054e 2A46     		mov	r2, r5
 1189 0550 2946     		mov	r1, r5
 1190 0552 206C     		ldr	r0, [r4, #64]
 1191 0554 FFF7FEFF 		bl	lv_obj_set_style_shadow_width
 1192              	.LVL142:
 197:generated/setup_scr_wave_model.c **** 
 198:generated/setup_scr_wave_model.c **** 	// Write codes wave_model_freq
 199:generated/setup_scr_wave_model.c **** 	ui->wave_model_freq = lv_label_create(ui->wave_model);
 1193              		.loc 1 199 2 view .LVU275
 1194              		.loc 1 199 24 is_stmt 0 view .LVU276
 1195 0558 2068     		ldr	r0, [r4]
 1196 055a FFF7FEFF 		bl	lv_label_create
 1197              	.LVL143:
 1198              		.loc 1 199 22 discriminator 1 view .LVU277
 1199 055e 6064     		str	r0, [r4, #68]
 200:generated/setup_scr_wave_model.c **** 	lv_label_set_text(ui->wave_model_freq, "Label");
 1200              		.loc 1 200 2 is_stmt 1 view .LVU278
 1201 0560 8449     		ldr	r1, .L10+8
 1202 0562 FFF7FEFF 		bl	lv_label_set_text
 1203              	.LVL144:
 201:generated/setup_scr_wave_model.c **** 	lv_label_set_long_mode(ui->wave_model_freq, LV_LABEL_LONG_WRAP);
ARM GAS  C:\usertemp\cctMo5e7.s 			page 41


 1204              		.loc 1 201 2 view .LVU279
 1205 0566 2946     		mov	r1, r5
 1206 0568 606C     		ldr	r0, [r4, #68]
 1207 056a FFF7FEFF 		bl	lv_label_set_long_mode
 1208              	.LVL145:
 202:generated/setup_scr_wave_model.c **** 	lv_obj_set_pos(ui->wave_model_freq, 250, 4);
 1209              		.loc 1 202 2 view .LVU280
 1210 056e 0422     		movs	r2, #4
 1211 0570 FA21     		movs	r1, #250
 1212 0572 606C     		ldr	r0, [r4, #68]
 1213 0574 FFF7FEFF 		bl	lv_obj_set_pos
 1214              	.LVL146:
 203:generated/setup_scr_wave_model.c **** 	lv_obj_set_size(ui->wave_model_freq, 98, 20);
 1215              		.loc 1 203 2 view .LVU281
 1216 0578 1422     		movs	r2, #20
 1217 057a 6221     		movs	r1, #98
 1218 057c 606C     		ldr	r0, [r4, #68]
 1219 057e FFF7FEFF 		bl	lv_obj_set_size
 1220              	.LVL147:
 204:generated/setup_scr_wave_model.c **** 
 205:generated/setup_scr_wave_model.c **** 	// Write style for wave_model_freq, Part: LV_PART_MAIN, State: LV_STATE_DEFAULT.
 206:generated/setup_scr_wave_model.c **** 	lv_obj_set_style_border_width(ui->wave_model_freq, 0, LV_PART_MAIN | LV_STATE_DEFAULT);
 1221              		.loc 1 206 2 view .LVU282
 1222 0582 2A46     		mov	r2, r5
 1223 0584 2946     		mov	r1, r5
 1224 0586 606C     		ldr	r0, [r4, #68]
 1225 0588 FFF7FEFF 		bl	lv_obj_set_style_border_width
 1226              	.LVL148:
 207:generated/setup_scr_wave_model.c **** 	lv_obj_set_style_radius(ui->wave_model_freq, 0, LV_PART_MAIN | LV_STATE_DEFAULT);
 1227              		.loc 1 207 2 view .LVU283
 1228 058c 2A46     		mov	r2, r5
 1229 058e 2946     		mov	r1, r5
 1230 0590 606C     		ldr	r0, [r4, #68]
 1231 0592 FFF7FEFF 		bl	lv_obj_set_style_radius
 1232              	.LVL149:
 208:generated/setup_scr_wave_model.c **** 	lv_obj_set_style_text_color(ui->wave_model_freq, lv_color_hex(0x000000), LV_PART_MAIN | LV_STATE_D
 1233              		.loc 1 208 2 view .LVU284
 1234              	.LBB182:
 1235              	.LBI182:
 597:lvgl/src/hal/../draw/../misc/lv_color.h **** {
 1236              		.loc 3 597 26 view .LVU285
 1237              	.LBB183:
 600:lvgl/src/hal/../draw/../misc/lv_color.h **** #if LV_COLOR_16_SWAP == 0
 1238              		.loc 3 600 5 view .LVU286
 616:lvgl/src/hal/../draw/../misc/lv_color.h **** #else
 1239              		.loc 3 616 5 view .LVU287
 1240              		.loc 3 621 5 view .LVU288
 1241              		.loc 3 621 5 is_stmt 0 view .LVU289
 1242              	.LBE183:
 1243              	.LBE182:
 1244              		.loc 1 208 2 discriminator 1 view .LVU290
 1245 0596 2A46     		mov	r2, r5
 1246 0598 2946     		mov	r1, r5	@ movhi
 1247 059a 606C     		ldr	r0, [r4, #68]
 1248 059c FFF7FEFF 		bl	lv_obj_set_style_text_color
 1249              	.LVL150:
 209:generated/setup_scr_wave_model.c **** 	lv_obj_set_style_text_font(ui->wave_model_freq, &lv_font_arial_16, LV_PART_MAIN | LV_STATE_DEFAULT
ARM GAS  C:\usertemp\cctMo5e7.s 			page 42


 1250              		.loc 1 209 2 is_stmt 1 view .LVU291
 1251 05a0 2A46     		mov	r2, r5
 1252 05a2 3146     		mov	r1, r6
 1253 05a4 606C     		ldr	r0, [r4, #68]
 1254 05a6 FFF7FEFF 		bl	lv_obj_set_style_text_font
 1255              	.LVL151:
 210:generated/setup_scr_wave_model.c **** 	lv_obj_set_style_text_letter_space(ui->wave_model_freq, 2, LV_PART_MAIN | LV_STATE_DEFAULT);
 1256              		.loc 1 210 2 view .LVU292
 1257 05aa 2A46     		mov	r2, r5
 1258 05ac 0221     		movs	r1, #2
 1259 05ae 606C     		ldr	r0, [r4, #68]
 1260 05b0 FFF7FEFF 		bl	lv_obj_set_style_text_letter_space
 1261              	.LVL152:
 211:generated/setup_scr_wave_model.c **** 	lv_obj_set_style_text_line_space(ui->wave_model_freq, 0, LV_PART_MAIN | LV_STATE_DEFAULT);
 1262              		.loc 1 211 2 view .LVU293
 1263 05b4 2A46     		mov	r2, r5
 1264 05b6 2946     		mov	r1, r5
 1265 05b8 606C     		ldr	r0, [r4, #68]
 1266 05ba FFF7FEFF 		bl	lv_obj_set_style_text_line_space
 1267              	.LVL153:
 212:generated/setup_scr_wave_model.c **** 	lv_obj_set_style_text_align(ui->wave_model_freq, LV_TEXT_ALIGN_CENTER, LV_PART_MAIN | LV_STATE_DEF
 1268              		.loc 1 212 2 view .LVU294
 1269 05be 2A46     		mov	r2, r5
 1270 05c0 0221     		movs	r1, #2
 1271 05c2 606C     		ldr	r0, [r4, #68]
 1272 05c4 FFF7FEFF 		bl	lv_obj_set_style_text_align
 1273              	.LVL154:
 213:generated/setup_scr_wave_model.c **** 	lv_obj_set_style_bg_opa(ui->wave_model_freq, 0, LV_PART_MAIN | LV_STATE_DEFAULT);
 1274              		.loc 1 213 2 view .LVU295
 1275 05c8 2A46     		mov	r2, r5
 1276 05ca 2946     		mov	r1, r5
 1277 05cc 606C     		ldr	r0, [r4, #68]
 1278 05ce FFF7FEFF 		bl	lv_obj_set_style_bg_opa
 1279              	.LVL155:
 214:generated/setup_scr_wave_model.c **** 	lv_obj_set_style_pad_top(ui->wave_model_freq, 0, LV_PART_MAIN | LV_STATE_DEFAULT);
 1280              		.loc 1 214 2 view .LVU296
 1281 05d2 2A46     		mov	r2, r5
 1282 05d4 2946     		mov	r1, r5
 1283 05d6 606C     		ldr	r0, [r4, #68]
 1284 05d8 FFF7FEFF 		bl	lv_obj_set_style_pad_top
 1285              	.LVL156:
 215:generated/setup_scr_wave_model.c **** 	lv_obj_set_style_pad_right(ui->wave_model_freq, 0, LV_PART_MAIN | LV_STATE_DEFAULT);
 1286              		.loc 1 215 2 view .LVU297
 1287 05dc 2A46     		mov	r2, r5
 1288 05de 2946     		mov	r1, r5
 1289 05e0 606C     		ldr	r0, [r4, #68]
 1290 05e2 FFF7FEFF 		bl	lv_obj_set_style_pad_right
 1291              	.LVL157:
 216:generated/setup_scr_wave_model.c **** 	lv_obj_set_style_pad_bottom(ui->wave_model_freq, 0, LV_PART_MAIN | LV_STATE_DEFAULT);
 1292              		.loc 1 216 2 view .LVU298
 1293 05e6 2A46     		mov	r2, r5
 1294 05e8 2946     		mov	r1, r5
 1295 05ea 606C     		ldr	r0, [r4, #68]
 1296 05ec FFF7FEFF 		bl	lv_obj_set_style_pad_bottom
 1297              	.LVL158:
 217:generated/setup_scr_wave_model.c **** 	lv_obj_set_style_pad_left(ui->wave_model_freq, 0, LV_PART_MAIN | LV_STATE_DEFAULT);
 1298              		.loc 1 217 2 view .LVU299
ARM GAS  C:\usertemp\cctMo5e7.s 			page 43


 1299 05f0 2A46     		mov	r2, r5
 1300 05f2 2946     		mov	r1, r5
 1301 05f4 606C     		ldr	r0, [r4, #68]
 1302 05f6 FFF7FEFF 		bl	lv_obj_set_style_pad_left
 1303              	.LVL159:
 218:generated/setup_scr_wave_model.c **** 	lv_obj_set_style_shadow_width(ui->wave_model_freq, 0, LV_PART_MAIN | LV_STATE_DEFAULT);
 1304              		.loc 1 218 2 view .LVU300
 1305 05fa 2A46     		mov	r2, r5
 1306 05fc 2946     		mov	r1, r5
 1307 05fe 606C     		ldr	r0, [r4, #68]
 1308 0600 FFF7FEFF 		bl	lv_obj_set_style_shadow_width
 1309              	.LVL160:
 219:generated/setup_scr_wave_model.c **** 
 220:generated/setup_scr_wave_model.c **** 	// Write codes wave_model_yellow
 221:generated/setup_scr_wave_model.c **** 	ui->wave_model_yellow = lv_arc_create(ui->wave_model);
 1310              		.loc 1 221 2 view .LVU301
 1311              		.loc 1 221 26 is_stmt 0 view .LVU302
 1312 0604 2068     		ldr	r0, [r4]
 1313 0606 FFF7FEFF 		bl	lv_arc_create
 1314              	.LVL161:
 1315              		.loc 1 221 24 discriminator 1 view .LVU303
 1316 060a A064     		str	r0, [r4, #72]
 222:generated/setup_scr_wave_model.c **** 	lv_arc_set_mode(ui->wave_model_yellow, LV_ARC_MODE_REVERSE);
 1317              		.loc 1 222 2 is_stmt 1 view .LVU304
 1318 060c 0221     		movs	r1, #2
 1319 060e FFF7FEFF 		bl	lv_arc_set_mode
 1320              	.LVL162:
 223:generated/setup_scr_wave_model.c **** 	lv_arc_set_range(ui->wave_model_yellow, 0, 1);
 1321              		.loc 1 223 2 view .LVU305
 1322 0612 0122     		movs	r2, #1
 1323 0614 2946     		mov	r1, r5
 1324 0616 A06C     		ldr	r0, [r4, #72]
 1325 0618 FFF7FEFF 		bl	lv_arc_set_range
 1326              	.LVL163:
 224:generated/setup_scr_wave_model.c **** 	lv_arc_set_bg_angles(ui->wave_model_yellow, 0, 0);
 1327              		.loc 1 224 2 view .LVU306
 1328 061c 2A46     		mov	r2, r5
 1329 061e 2946     		mov	r1, r5
 1330 0620 A06C     		ldr	r0, [r4, #72]
 1331 0622 FFF7FEFF 		bl	lv_arc_set_bg_angles
 1332              	.LVL164:
 225:generated/setup_scr_wave_model.c **** 	lv_arc_set_angles(ui->wave_model_yellow, 0, 360);
 1333              		.loc 1 225 2 view .LVU307
 1334 0626 4FF4B472 		mov	r2, #360
 1335 062a 2946     		mov	r1, r5
 1336 062c A06C     		ldr	r0, [r4, #72]
 1337 062e FFF7FEFF 		bl	lv_arc_set_angles
 1338              	.LVL165:
 226:generated/setup_scr_wave_model.c **** 	lv_arc_set_rotation(ui->wave_model_yellow, 0);
 1339              		.loc 1 226 2 view .LVU308
 1340 0632 2946     		mov	r1, r5
 1341 0634 A06C     		ldr	r0, [r4, #72]
 1342 0636 FFF7FEFF 		bl	lv_arc_set_rotation
 1343              	.LVL166:
 227:generated/setup_scr_wave_model.c **** 	lv_obj_set_style_arc_rounded(ui->wave_model_yellow, 0, LV_PART_INDICATOR | LV_STATE_DEFAULT);
 1344              		.loc 1 227 2 view .LVU309
 1345 063a 4FF40032 		mov	r2, #131072
ARM GAS  C:\usertemp\cctMo5e7.s 			page 44


 1346 063e 2946     		mov	r1, r5
 1347 0640 A06C     		ldr	r0, [r4, #72]
 1348 0642 FFF7FEFF 		bl	lv_obj_set_style_arc_rounded
 1349              	.LVL167:
 228:generated/setup_scr_wave_model.c **** 	lv_obj_set_style_arc_rounded(ui->wave_model_yellow, 0, LV_STATE_DEFAULT);
 1350              		.loc 1 228 2 view .LVU310
 1351 0646 2A46     		mov	r2, r5
 1352 0648 2946     		mov	r1, r5
 1353 064a A06C     		ldr	r0, [r4, #72]
 1354 064c FFF7FEFF 		bl	lv_obj_set_style_arc_rounded
 1355              	.LVL168:
 229:generated/setup_scr_wave_model.c **** 	lv_obj_set_pos(ui->wave_model_yellow, 1, 25);
 1356              		.loc 1 229 2 view .LVU311
 1357 0650 1922     		movs	r2, #25
 1358 0652 0121     		movs	r1, #1
 1359 0654 A06C     		ldr	r0, [r4, #72]
 1360 0656 FFF7FEFF 		bl	lv_obj_set_pos
 1361              	.LVL169:
 230:generated/setup_scr_wave_model.c **** 	lv_obj_set_size(ui->wave_model_yellow, 38, 38);
 1362              		.loc 1 230 2 view .LVU312
 1363 065a 2622     		movs	r2, #38
 1364 065c 1146     		mov	r1, r2
 1365 065e A06C     		ldr	r0, [r4, #72]
 1366 0660 FFF7FEFF 		bl	lv_obj_set_size
 1367              	.LVL170:
 231:generated/setup_scr_wave_model.c **** 
 232:generated/setup_scr_wave_model.c **** 	// Write style for wave_model_yellow, Part: LV_PART_MAIN, State: LV_STATE_DEFAULT.
 233:generated/setup_scr_wave_model.c **** 	lv_obj_set_style_bg_opa(ui->wave_model_yellow, 0, LV_PART_MAIN | LV_STATE_DEFAULT);
 1368              		.loc 1 233 2 view .LVU313
 1369 0664 2A46     		mov	r2, r5
 1370 0666 2946     		mov	r1, r5
 1371 0668 A06C     		ldr	r0, [r4, #72]
 1372 066a FFF7FEFF 		bl	lv_obj_set_style_bg_opa
 1373              	.LVL171:
 234:generated/setup_scr_wave_model.c **** 	lv_obj_set_style_border_width(ui->wave_model_yellow, 0, LV_PART_MAIN | LV_STATE_DEFAULT);
 1374              		.loc 1 234 2 view .LVU314
 1375 066e 2A46     		mov	r2, r5
 1376 0670 2946     		mov	r1, r5
 1377 0672 A06C     		ldr	r0, [r4, #72]
 1378 0674 FFF7FEFF 		bl	lv_obj_set_style_border_width
 1379              	.LVL172:
 235:generated/setup_scr_wave_model.c **** 	lv_obj_set_style_arc_width(ui->wave_model_yellow, 2, LV_PART_MAIN | LV_STATE_DEFAULT);
 1380              		.loc 1 235 2 view .LVU315
 1381 0678 2A46     		mov	r2, r5
 1382 067a 0221     		movs	r1, #2
 1383 067c A06C     		ldr	r0, [r4, #72]
 1384 067e FFF7FEFF 		bl	lv_obj_set_style_arc_width
 1385              	.LVL173:
 236:generated/setup_scr_wave_model.c **** 	lv_obj_set_style_arc_opa(ui->wave_model_yellow, 255, LV_PART_MAIN | LV_STATE_DEFAULT);
 1386              		.loc 1 236 2 view .LVU316
 1387 0682 2A46     		mov	r2, r5
 1388 0684 FF21     		movs	r1, #255
 1389 0686 A06C     		ldr	r0, [r4, #72]
 1390 0688 FFF7FEFF 		bl	lv_obj_set_style_arc_opa
 1391              	.LVL174:
 237:generated/setup_scr_wave_model.c **** 	lv_obj_set_style_arc_color(ui->wave_model_yellow, lv_color_hex(0xffff00), LV_PART_MAIN | LV_STATE_
 1392              		.loc 1 237 2 view .LVU317
ARM GAS  C:\usertemp\cctMo5e7.s 			page 45


 1393              	.LBB184:
 1394              	.LBI184:
 597:lvgl/src/hal/../draw/../misc/lv_color.h **** {
 1395              		.loc 3 597 26 view .LVU318
 1396              	.LBB185:
 600:lvgl/src/hal/../draw/../misc/lv_color.h **** #if LV_COLOR_16_SWAP == 0
 1397              		.loc 3 600 5 view .LVU319
 616:lvgl/src/hal/../draw/../misc/lv_color.h **** #else
 1398              		.loc 3 616 5 view .LVU320
 616:lvgl/src/hal/../draw/../misc/lv_color.h **** #else
 1399              		.loc 3 616 12 is_stmt 0 view .LVU321
 1400 068c 4FF6E076 		movw	r6, #65504
 1401              		.loc 3 621 5 is_stmt 1 view .LVU322
 1402              	.LVL175:
 1403              		.loc 3 621 5 is_stmt 0 view .LVU323
 1404              	.LBE185:
 1405              	.LBE184:
 1406              		.loc 1 237 2 discriminator 1 view .LVU324
 1407 0690 2A46     		mov	r2, r5
 1408 0692 3146     		mov	r1, r6	@ movhi
 1409 0694 A06C     		ldr	r0, [r4, #72]
 1410 0696 FFF7FEFF 		bl	lv_obj_set_style_arc_color
 1411              	.LVL176:
 238:generated/setup_scr_wave_model.c **** 	lv_obj_set_style_radius(ui->wave_model_yellow, 6, LV_PART_MAIN | LV_STATE_DEFAULT);
 1412              		.loc 1 238 2 is_stmt 1 view .LVU325
 1413 069a 2A46     		mov	r2, r5
 1414 069c 0621     		movs	r1, #6
 1415 069e A06C     		ldr	r0, [r4, #72]
 1416 06a0 FFF7FEFF 		bl	lv_obj_set_style_radius
 1417              	.LVL177:
 239:generated/setup_scr_wave_model.c **** 	lv_obj_set_style_pad_top(ui->wave_model_yellow, 0, LV_PART_MAIN | LV_STATE_DEFAULT);
 1418              		.loc 1 239 2 view .LVU326
 1419 06a4 2A46     		mov	r2, r5
 1420 06a6 2946     		mov	r1, r5
 1421 06a8 A06C     		ldr	r0, [r4, #72]
 1422 06aa FFF7FEFF 		bl	lv_obj_set_style_pad_top
 1423              	.LVL178:
 240:generated/setup_scr_wave_model.c **** 	lv_obj_set_style_pad_bottom(ui->wave_model_yellow, 0, LV_PART_MAIN | LV_STATE_DEFAULT);
 1424              		.loc 1 240 2 view .LVU327
 1425 06ae 2A46     		mov	r2, r5
 1426 06b0 2946     		mov	r1, r5
 1427 06b2 A06C     		ldr	r0, [r4, #72]
 1428 06b4 FFF7FEFF 		bl	lv_obj_set_style_pad_bottom
 1429              	.LVL179:
 241:generated/setup_scr_wave_model.c **** 	lv_obj_set_style_pad_left(ui->wave_model_yellow, 0, LV_PART_MAIN | LV_STATE_DEFAULT);
 1430              		.loc 1 241 2 view .LVU328
 1431 06b8 2A46     		mov	r2, r5
 1432 06ba 2946     		mov	r1, r5
 1433 06bc A06C     		ldr	r0, [r4, #72]
 1434 06be FFF7FEFF 		bl	lv_obj_set_style_pad_left
 1435              	.LVL180:
 242:generated/setup_scr_wave_model.c **** 	lv_obj_set_style_pad_right(ui->wave_model_yellow, 0, LV_PART_MAIN | LV_STATE_DEFAULT);
 1436              		.loc 1 242 2 view .LVU329
 1437 06c2 2A46     		mov	r2, r5
 1438 06c4 2946     		mov	r1, r5
 1439 06c6 A06C     		ldr	r0, [r4, #72]
 1440 06c8 FFF7FEFF 		bl	lv_obj_set_style_pad_right
ARM GAS  C:\usertemp\cctMo5e7.s 			page 46


 1441              	.LVL181:
 243:generated/setup_scr_wave_model.c **** 	lv_obj_set_style_shadow_width(ui->wave_model_yellow, 0, LV_PART_MAIN | LV_STATE_DEFAULT);
 1442              		.loc 1 243 2 view .LVU330
 1443 06cc 2A46     		mov	r2, r5
 1444 06ce 2946     		mov	r1, r5
 1445 06d0 A06C     		ldr	r0, [r4, #72]
 1446 06d2 FFF7FEFF 		bl	lv_obj_set_style_shadow_width
 1447              	.LVL182:
 244:generated/setup_scr_wave_model.c **** 
 245:generated/setup_scr_wave_model.c **** 	// Write style for wave_model_yellow, Part: LV_PART_INDICATOR, State: LV_STATE_DEFAULT.
 246:generated/setup_scr_wave_model.c **** 	lv_obj_set_style_arc_width(ui->wave_model_yellow, 2, LV_PART_INDICATOR | LV_STATE_DEFAULT);
 1448              		.loc 1 246 2 view .LVU331
 1449 06d6 4FF40032 		mov	r2, #131072
 1450 06da 0221     		movs	r1, #2
 1451 06dc A06C     		ldr	r0, [r4, #72]
 1452 06de FFF7FEFF 		bl	lv_obj_set_style_arc_width
 1453              	.LVL183:
 247:generated/setup_scr_wave_model.c **** 	lv_obj_set_style_arc_opa(ui->wave_model_yellow, 255, LV_PART_INDICATOR | LV_STATE_DEFAULT);
 1454              		.loc 1 247 2 view .LVU332
 1455 06e2 4FF40032 		mov	r2, #131072
 1456 06e6 FF21     		movs	r1, #255
 1457 06e8 A06C     		ldr	r0, [r4, #72]
 1458 06ea FFF7FEFF 		bl	lv_obj_set_style_arc_opa
 1459              	.LVL184:
 248:generated/setup_scr_wave_model.c **** 	lv_obj_set_style_arc_color(ui->wave_model_yellow, lv_color_hex(0xffff00), LV_PART_INDICATOR | LV_S
 1460              		.loc 1 248 2 view .LVU333
 1461              	.LBB186:
 1462              	.LBI186:
 597:lvgl/src/hal/../draw/../misc/lv_color.h **** {
 1463              		.loc 3 597 26 view .LVU334
 1464              	.LBB187:
 600:lvgl/src/hal/../draw/../misc/lv_color.h **** #if LV_COLOR_16_SWAP == 0
 1465              		.loc 3 600 5 view .LVU335
 616:lvgl/src/hal/../draw/../misc/lv_color.h **** #else
 1466              		.loc 3 616 5 view .LVU336
 1467              		.loc 3 621 5 view .LVU337
 1468              		.loc 3 621 5 is_stmt 0 view .LVU338
 1469              	.LBE187:
 1470              	.LBE186:
 1471              		.loc 1 248 2 discriminator 1 view .LVU339
 1472 06ee 4FF40032 		mov	r2, #131072
 1473 06f2 3146     		mov	r1, r6	@ movhi
 1474 06f4 A06C     		ldr	r0, [r4, #72]
 1475 06f6 FFF7FEFF 		bl	lv_obj_set_style_arc_color
 1476              	.LVL185:
 249:generated/setup_scr_wave_model.c **** 
 250:generated/setup_scr_wave_model.c **** 	// Write style for wave_model_yellow, Part: LV_PART_KNOB, State: LV_STATE_DEFAULT.
 251:generated/setup_scr_wave_model.c **** 	lv_obj_set_style_bg_opa(ui->wave_model_yellow, 0, LV_PART_KNOB | LV_STATE_DEFAULT);
 1477              		.loc 1 251 2 is_stmt 1 view .LVU340
 1478 06fa 4FF44032 		mov	r2, #196608
 1479 06fe 2946     		mov	r1, r5
 1480 0700 A06C     		ldr	r0, [r4, #72]
 1481 0702 FFF7FEFF 		bl	lv_obj_set_style_bg_opa
 1482              	.LVL186:
 252:generated/setup_scr_wave_model.c **** 	lv_obj_set_style_pad_all(ui->wave_model_yellow, 0, LV_PART_KNOB | LV_STATE_DEFAULT);
 1483              		.loc 1 252 2 view .LVU341
 1484 0706 4FF44032 		mov	r2, #196608
ARM GAS  C:\usertemp\cctMo5e7.s 			page 47


 1485 070a 2946     		mov	r1, r5
 1486 070c A06C     		ldr	r0, [r4, #72]
 1487 070e FFF7FEFF 		bl	lv_obj_set_style_pad_all
 1488              	.LVL187:
 253:generated/setup_scr_wave_model.c **** 
 254:generated/setup_scr_wave_model.c **** 	// Write codes wave_model_green
 255:generated/setup_scr_wave_model.c **** 	ui->wave_model_green = lv_arc_create(ui->wave_model);
 1489              		.loc 1 255 2 view .LVU342
 1490              		.loc 1 255 25 is_stmt 0 view .LVU343
 1491 0712 2068     		ldr	r0, [r4]
 1492 0714 FFF7FEFF 		bl	lv_arc_create
 1493              	.LVL188:
 1494              		.loc 1 255 23 discriminator 1 view .LVU344
 1495 0718 E064     		str	r0, [r4, #76]
 256:generated/setup_scr_wave_model.c **** 	lv_arc_set_mode(ui->wave_model_green, LV_ARC_MODE_REVERSE);
 1496              		.loc 1 256 2 is_stmt 1 view .LVU345
 1497 071a 0221     		movs	r1, #2
 1498 071c FFF7FEFF 		bl	lv_arc_set_mode
 1499              	.LVL189:
 257:generated/setup_scr_wave_model.c **** 	lv_arc_set_range(ui->wave_model_green, 0, 1);
 1500              		.loc 1 257 2 view .LVU346
 1501 0720 0122     		movs	r2, #1
 1502 0722 2946     		mov	r1, r5
 1503 0724 E06C     		ldr	r0, [r4, #76]
 1504 0726 FFF7FEFF 		bl	lv_arc_set_range
 1505              	.LVL190:
 258:generated/setup_scr_wave_model.c **** 	lv_arc_set_bg_angles(ui->wave_model_green, 0, 0);
 1506              		.loc 1 258 2 view .LVU347
 1507 072a 2A46     		mov	r2, r5
 1508 072c 2946     		mov	r1, r5
 1509 072e E06C     		ldr	r0, [r4, #76]
 1510 0730 FFF7FEFF 		bl	lv_arc_set_bg_angles
 1511              	.LVL191:
 259:generated/setup_scr_wave_model.c **** 	lv_arc_set_angles(ui->wave_model_green, 0, 360);
 1512              		.loc 1 259 2 view .LVU348
 1513 0734 4FF4B472 		mov	r2, #360
 1514 0738 2946     		mov	r1, r5
 1515 073a E06C     		ldr	r0, [r4, #76]
 1516 073c FFF7FEFF 		bl	lv_arc_set_angles
 1517              	.LVL192:
 260:generated/setup_scr_wave_model.c **** 	lv_arc_set_rotation(ui->wave_model_green, 0);
 1518              		.loc 1 260 2 view .LVU349
 1519 0740 2946     		mov	r1, r5
 1520 0742 E06C     		ldr	r0, [r4, #76]
 1521 0744 FFF7FEFF 		bl	lv_arc_set_rotation
 1522              	.LVL193:
 261:generated/setup_scr_wave_model.c **** 	lv_obj_set_style_arc_rounded(ui->wave_model_green, 0, LV_PART_INDICATOR | LV_STATE_DEFAULT);
 1523              		.loc 1 261 2 view .LVU350
 1524 0748 4FF40032 		mov	r2, #131072
 1525 074c 2946     		mov	r1, r5
 1526 074e E06C     		ldr	r0, [r4, #76]
 1527 0750 FFF7FEFF 		bl	lv_obj_set_style_arc_rounded
 1528              	.LVL194:
 262:generated/setup_scr_wave_model.c **** 	lv_obj_set_style_arc_rounded(ui->wave_model_green, 0, LV_STATE_DEFAULT);
 1529              		.loc 1 262 2 view .LVU351
 1530 0754 2A46     		mov	r2, r5
 1531 0756 2946     		mov	r1, r5
ARM GAS  C:\usertemp\cctMo5e7.s 			page 48


 1532 0758 E06C     		ldr	r0, [r4, #76]
 1533 075a FFF7FEFF 		bl	lv_obj_set_style_arc_rounded
 1534              	.LVL195:
 263:generated/setup_scr_wave_model.c **** 	lv_obj_set_pos(ui->wave_model_green, 167, 25);
 1535              		.loc 1 263 2 view .LVU352
 1536 075e 1922     		movs	r2, #25
 1537 0760 A721     		movs	r1, #167
 1538 0762 E06C     		ldr	r0, [r4, #76]
 1539 0764 FFF7FEFF 		bl	lv_obj_set_pos
 1540              	.LVL196:
 1541 0768 06E0     		b	.L11
 1542              	.L12:
 1543 076a 00BF     		.align	2
 1544              	.L10:
 1545 076c 18000000 		.word	.LC6
 1546 0770 1C000000 		.word	.LC7
 1547 0774 24000000 		.word	.LC8
 1548              	.L11:
 264:generated/setup_scr_wave_model.c **** 	lv_obj_set_size(ui->wave_model_green, 38, 38);
 1549              		.loc 1 264 2 view .LVU353
 1550 0778 2622     		movs	r2, #38
 1551 077a 1146     		mov	r1, r2
 1552 077c E06C     		ldr	r0, [r4, #76]
 1553 077e FFF7FEFF 		bl	lv_obj_set_size
 1554              	.LVL197:
 265:generated/setup_scr_wave_model.c **** 
 266:generated/setup_scr_wave_model.c **** 	// Write style for wave_model_green, Part: LV_PART_MAIN, State: LV_STATE_DEFAULT.
 267:generated/setup_scr_wave_model.c **** 	lv_obj_set_style_bg_opa(ui->wave_model_green, 0, LV_PART_MAIN | LV_STATE_DEFAULT);
 1555              		.loc 1 267 2 view .LVU354
 1556 0782 2A46     		mov	r2, r5
 1557 0784 2946     		mov	r1, r5
 1558 0786 E06C     		ldr	r0, [r4, #76]
 1559 0788 FFF7FEFF 		bl	lv_obj_set_style_bg_opa
 1560              	.LVL198:
 268:generated/setup_scr_wave_model.c **** 	lv_obj_set_style_border_width(ui->wave_model_green, 0, LV_PART_MAIN | LV_STATE_DEFAULT);
 1561              		.loc 1 268 2 view .LVU355
 1562 078c 2A46     		mov	r2, r5
 1563 078e 2946     		mov	r1, r5
 1564 0790 E06C     		ldr	r0, [r4, #76]
 1565 0792 FFF7FEFF 		bl	lv_obj_set_style_border_width
 1566              	.LVL199:
 269:generated/setup_scr_wave_model.c **** 	lv_obj_set_style_arc_width(ui->wave_model_green, 2, LV_PART_MAIN | LV_STATE_DEFAULT);
 1567              		.loc 1 269 2 view .LVU356
 1568 0796 2A46     		mov	r2, r5
 1569 0798 0221     		movs	r1, #2
 1570 079a E06C     		ldr	r0, [r4, #76]
 1571 079c FFF7FEFF 		bl	lv_obj_set_style_arc_width
 1572              	.LVL200:
 270:generated/setup_scr_wave_model.c **** 	lv_obj_set_style_arc_opa(ui->wave_model_green, 255, LV_PART_MAIN | LV_STATE_DEFAULT);
 1573              		.loc 1 270 2 view .LVU357
 1574 07a0 2A46     		mov	r2, r5
 1575 07a2 FF21     		movs	r1, #255
 1576 07a4 E06C     		ldr	r0, [r4, #76]
 1577 07a6 FFF7FEFF 		bl	lv_obj_set_style_arc_opa
 1578              	.LVL201:
 271:generated/setup_scr_wave_model.c **** 	lv_obj_set_style_arc_color(ui->wave_model_green, lv_color_hex(0xffff00), LV_PART_MAIN | LV_STATE_D
 1579              		.loc 1 271 2 view .LVU358
ARM GAS  C:\usertemp\cctMo5e7.s 			page 49


 1580              	.LBB188:
 1581              	.LBI188:
 597:lvgl/src/hal/../draw/../misc/lv_color.h **** {
 1582              		.loc 3 597 26 view .LVU359
 1583              	.LBB189:
 600:lvgl/src/hal/../draw/../misc/lv_color.h **** #if LV_COLOR_16_SWAP == 0
 1584              		.loc 3 600 5 view .LVU360
 616:lvgl/src/hal/../draw/../misc/lv_color.h **** #else
 1585              		.loc 3 616 5 view .LVU361
 1586              		.loc 3 621 5 view .LVU362
 1587              		.loc 3 621 5 is_stmt 0 view .LVU363
 1588              	.LBE189:
 1589              	.LBE188:
 1590              		.loc 1 271 2 discriminator 1 view .LVU364
 1591 07aa 0022     		movs	r2, #0
 1592 07ac 3146     		mov	r1, r6	@ movhi
 1593 07ae E06C     		ldr	r0, [r4, #76]
 1594 07b0 FFF7FEFF 		bl	lv_obj_set_style_arc_color
 1595              	.LVL202:
 272:generated/setup_scr_wave_model.c **** 	lv_obj_set_style_radius(ui->wave_model_green, 6, LV_PART_MAIN | LV_STATE_DEFAULT);
 1596              		.loc 1 272 2 is_stmt 1 view .LVU365
 1597 07b4 0022     		movs	r2, #0
 1598 07b6 0621     		movs	r1, #6
 1599 07b8 E06C     		ldr	r0, [r4, #76]
 1600 07ba FFF7FEFF 		bl	lv_obj_set_style_radius
 1601              	.LVL203:
 273:generated/setup_scr_wave_model.c **** 	lv_obj_set_style_pad_top(ui->wave_model_green, 0, LV_PART_MAIN | LV_STATE_DEFAULT);
 1602              		.loc 1 273 2 view .LVU366
 1603 07be 0022     		movs	r2, #0
 1604 07c0 1146     		mov	r1, r2
 1605 07c2 E06C     		ldr	r0, [r4, #76]
 1606 07c4 FFF7FEFF 		bl	lv_obj_set_style_pad_top
 1607              	.LVL204:
 274:generated/setup_scr_wave_model.c **** 	lv_obj_set_style_pad_bottom(ui->wave_model_green, 0, LV_PART_MAIN | LV_STATE_DEFAULT);
 1608              		.loc 1 274 2 view .LVU367
 1609 07c8 0022     		movs	r2, #0
 1610 07ca 1146     		mov	r1, r2
 1611 07cc E06C     		ldr	r0, [r4, #76]
 1612 07ce FFF7FEFF 		bl	lv_obj_set_style_pad_bottom
 1613              	.LVL205:
 275:generated/setup_scr_wave_model.c **** 	lv_obj_set_style_pad_left(ui->wave_model_green, 0, LV_PART_MAIN | LV_STATE_DEFAULT);
 1614              		.loc 1 275 2 view .LVU368
 1615 07d2 0022     		movs	r2, #0
 1616 07d4 1146     		mov	r1, r2
 1617 07d6 E06C     		ldr	r0, [r4, #76]
 1618 07d8 FFF7FEFF 		bl	lv_obj_set_style_pad_left
 1619              	.LVL206:
 276:generated/setup_scr_wave_model.c **** 	lv_obj_set_style_pad_right(ui->wave_model_green, 0, LV_PART_MAIN | LV_STATE_DEFAULT);
 1620              		.loc 1 276 2 view .LVU369
 1621 07dc 0022     		movs	r2, #0
 1622 07de 1146     		mov	r1, r2
 1623 07e0 E06C     		ldr	r0, [r4, #76]
 1624 07e2 FFF7FEFF 		bl	lv_obj_set_style_pad_right
 1625              	.LVL207:
 277:generated/setup_scr_wave_model.c **** 	lv_obj_set_style_shadow_width(ui->wave_model_green, 0, LV_PART_MAIN | LV_STATE_DEFAULT);
 1626              		.loc 1 277 2 view .LVU370
 1627 07e6 0022     		movs	r2, #0
ARM GAS  C:\usertemp\cctMo5e7.s 			page 50


 1628 07e8 1146     		mov	r1, r2
 1629 07ea E06C     		ldr	r0, [r4, #76]
 1630 07ec FFF7FEFF 		bl	lv_obj_set_style_shadow_width
 1631              	.LVL208:
 278:generated/setup_scr_wave_model.c **** 
 279:generated/setup_scr_wave_model.c **** 	// Write style for wave_model_green, Part: LV_PART_INDICATOR, State: LV_STATE_DEFAULT.
 280:generated/setup_scr_wave_model.c **** 	lv_obj_set_style_arc_width(ui->wave_model_green, 2, LV_PART_INDICATOR | LV_STATE_DEFAULT);
 1632              		.loc 1 280 2 view .LVU371
 1633 07f0 4FF40032 		mov	r2, #131072
 1634 07f4 0221     		movs	r1, #2
 1635 07f6 E06C     		ldr	r0, [r4, #76]
 1636 07f8 FFF7FEFF 		bl	lv_obj_set_style_arc_width
 1637              	.LVL209:
 281:generated/setup_scr_wave_model.c **** 	lv_obj_set_style_arc_opa(ui->wave_model_green, 255, LV_PART_INDICATOR | LV_STATE_DEFAULT);
 1638              		.loc 1 281 2 view .LVU372
 1639 07fc 4FF40032 		mov	r2, #131072
 1640 0800 FF21     		movs	r1, #255
 1641 0802 E06C     		ldr	r0, [r4, #76]
 1642 0804 FFF7FEFF 		bl	lv_obj_set_style_arc_opa
 1643              	.LVL210:
 282:generated/setup_scr_wave_model.c **** 	lv_obj_set_style_arc_color(ui->wave_model_green, lv_color_hex(0x00ff00), LV_PART_INDICATOR | LV_ST
 1644              		.loc 1 282 2 view .LVU373
 1645              	.LBB190:
 1646              	.LBI190:
 597:lvgl/src/hal/../draw/../misc/lv_color.h **** {
 1647              		.loc 3 597 26 view .LVU374
 1648              	.LBB191:
 600:lvgl/src/hal/../draw/../misc/lv_color.h **** #if LV_COLOR_16_SWAP == 0
 1649              		.loc 3 600 5 view .LVU375
 616:lvgl/src/hal/../draw/../misc/lv_color.h **** #else
 1650              		.loc 3 616 5 view .LVU376
 1651              		.loc 3 621 5 view .LVU377
 1652              		.loc 3 621 5 is_stmt 0 view .LVU378
 1653              	.LBE191:
 1654              	.LBE190:
 1655              		.loc 1 282 2 discriminator 1 view .LVU379
 1656 0808 4FF40032 		mov	r2, #131072
 1657 080c 4FF4FC61 		mov	r1, #2016	@ movhi
 1658 0810 E06C     		ldr	r0, [r4, #76]
 1659 0812 FFF7FEFF 		bl	lv_obj_set_style_arc_color
 1660              	.LVL211:
 283:generated/setup_scr_wave_model.c **** 
 284:generated/setup_scr_wave_model.c **** 	// Write style for wave_model_green, Part: LV_PART_KNOB, State: LV_STATE_DEFAULT.
 285:generated/setup_scr_wave_model.c **** 	lv_obj_set_style_bg_opa(ui->wave_model_green, 0, LV_PART_KNOB | LV_STATE_DEFAULT);
 1661              		.loc 1 285 2 is_stmt 1 view .LVU380
 1662 0816 4FF44032 		mov	r2, #196608
 1663 081a 0021     		movs	r1, #0
 1664 081c E06C     		ldr	r0, [r4, #76]
 1665 081e FFF7FEFF 		bl	lv_obj_set_style_bg_opa
 1666              	.LVL212:
 286:generated/setup_scr_wave_model.c **** 	lv_obj_set_style_pad_all(ui->wave_model_green, 0, LV_PART_KNOB | LV_STATE_DEFAULT);
 1667              		.loc 1 286 2 view .LVU381
 1668 0822 4FF44032 		mov	r2, #196608
 1669 0826 0021     		movs	r1, #0
 1670 0828 E06C     		ldr	r0, [r4, #76]
 1671 082a FFF7FEFF 		bl	lv_obj_set_style_pad_all
 1672              	.LVL213:
ARM GAS  C:\usertemp\cctMo5e7.s 			page 51


 287:generated/setup_scr_wave_model.c **** 
 288:generated/setup_scr_wave_model.c **** 	// Write codes wave_model_blue
 289:generated/setup_scr_wave_model.c **** 	ui->wave_model_blue = lv_arc_create(ui->wave_model);
 1673              		.loc 1 289 2 view .LVU382
 1674              		.loc 1 289 24 is_stmt 0 view .LVU383
 1675 082e 2068     		ldr	r0, [r4]
 1676 0830 FFF7FEFF 		bl	lv_arc_create
 1677              	.LVL214:
 1678              		.loc 1 289 22 discriminator 1 view .LVU384
 1679 0834 2065     		str	r0, [r4, #80]
 290:generated/setup_scr_wave_model.c **** 	lv_arc_set_mode(ui->wave_model_blue, LV_ARC_MODE_REVERSE);
 1680              		.loc 1 290 2 is_stmt 1 view .LVU385
 1681 0836 0221     		movs	r1, #2
 1682 0838 FFF7FEFF 		bl	lv_arc_set_mode
 1683              	.LVL215:
 291:generated/setup_scr_wave_model.c **** 	lv_arc_set_range(ui->wave_model_blue, 0, 1);
 1684              		.loc 1 291 2 view .LVU386
 1685 083c 0122     		movs	r2, #1
 1686 083e 0021     		movs	r1, #0
 1687 0840 206D     		ldr	r0, [r4, #80]
 1688 0842 FFF7FEFF 		bl	lv_arc_set_range
 1689              	.LVL216:
 292:generated/setup_scr_wave_model.c **** 	lv_arc_set_bg_angles(ui->wave_model_blue, 0, 0);
 1690              		.loc 1 292 2 view .LVU387
 1691 0846 0022     		movs	r2, #0
 1692 0848 1146     		mov	r1, r2
 1693 084a 206D     		ldr	r0, [r4, #80]
 1694 084c FFF7FEFF 		bl	lv_arc_set_bg_angles
 1695              	.LVL217:
 293:generated/setup_scr_wave_model.c **** 	lv_arc_set_angles(ui->wave_model_blue, 0, 360);
 1696              		.loc 1 293 2 view .LVU388
 1697 0850 4FF4B472 		mov	r2, #360
 1698 0854 0021     		movs	r1, #0
 1699 0856 206D     		ldr	r0, [r4, #80]
 1700 0858 FFF7FEFF 		bl	lv_arc_set_angles
 1701              	.LVL218:
 294:generated/setup_scr_wave_model.c **** 	lv_arc_set_rotation(ui->wave_model_blue, 0);
 1702              		.loc 1 294 2 view .LVU389
 1703 085c 0021     		movs	r1, #0
 1704 085e 206D     		ldr	r0, [r4, #80]
 1705 0860 FFF7FEFF 		bl	lv_arc_set_rotation
 1706              	.LVL219:
 295:generated/setup_scr_wave_model.c **** 	lv_obj_set_style_arc_rounded(ui->wave_model_blue, 0, LV_PART_INDICATOR | LV_STATE_DEFAULT);
 1707              		.loc 1 295 2 view .LVU390
 1708 0864 4FF40032 		mov	r2, #131072
 1709 0868 0021     		movs	r1, #0
 1710 086a 206D     		ldr	r0, [r4, #80]
 1711 086c FFF7FEFF 		bl	lv_obj_set_style_arc_rounded
 1712              	.LVL220:
 296:generated/setup_scr_wave_model.c **** 	lv_obj_set_style_arc_rounded(ui->wave_model_blue, 0, LV_STATE_DEFAULT);
 1713              		.loc 1 296 2 view .LVU391
 1714 0870 0022     		movs	r2, #0
 1715 0872 1146     		mov	r1, r2
 1716 0874 206D     		ldr	r0, [r4, #80]
 1717 0876 FFF7FEFF 		bl	lv_obj_set_style_arc_rounded
 1718              	.LVL221:
 297:generated/setup_scr_wave_model.c **** 	lv_obj_set_pos(ui->wave_model_blue, 490, 25);
ARM GAS  C:\usertemp\cctMo5e7.s 			page 52


 1719              		.loc 1 297 2 view .LVU392
 1720 087a 1922     		movs	r2, #25
 1721 087c 4FF4F571 		mov	r1, #490
 1722 0880 206D     		ldr	r0, [r4, #80]
 1723 0882 FFF7FEFF 		bl	lv_obj_set_pos
 1724              	.LVL222:
 298:generated/setup_scr_wave_model.c **** 	lv_obj_set_size(ui->wave_model_blue, 38, 38);
 1725              		.loc 1 298 2 view .LVU393
 1726 0886 2622     		movs	r2, #38
 1727 0888 1146     		mov	r1, r2
 1728 088a 206D     		ldr	r0, [r4, #80]
 1729 088c FFF7FEFF 		bl	lv_obj_set_size
 1730              	.LVL223:
 299:generated/setup_scr_wave_model.c **** 
 300:generated/setup_scr_wave_model.c **** 	// Write style for wave_model_blue, Part: LV_PART_MAIN, State: LV_STATE_DEFAULT.
 301:generated/setup_scr_wave_model.c **** 	lv_obj_set_style_bg_opa(ui->wave_model_blue, 0, LV_PART_MAIN | LV_STATE_DEFAULT);
 1731              		.loc 1 301 2 view .LVU394
 1732 0890 0022     		movs	r2, #0
 1733 0892 1146     		mov	r1, r2
 1734 0894 206D     		ldr	r0, [r4, #80]
 1735 0896 FFF7FEFF 		bl	lv_obj_set_style_bg_opa
 1736              	.LVL224:
 302:generated/setup_scr_wave_model.c **** 	lv_obj_set_style_border_width(ui->wave_model_blue, 0, LV_PART_MAIN | LV_STATE_DEFAULT);
 1737              		.loc 1 302 2 view .LVU395
 1738 089a 0022     		movs	r2, #0
 1739 089c 1146     		mov	r1, r2
 1740 089e 206D     		ldr	r0, [r4, #80]
 1741 08a0 FFF7FEFF 		bl	lv_obj_set_style_border_width
 1742              	.LVL225:
 303:generated/setup_scr_wave_model.c **** 	lv_obj_set_style_arc_width(ui->wave_model_blue, 2, LV_PART_MAIN | LV_STATE_DEFAULT);
 1743              		.loc 1 303 2 view .LVU396
 1744 08a4 0022     		movs	r2, #0
 1745 08a6 0221     		movs	r1, #2
 1746 08a8 206D     		ldr	r0, [r4, #80]
 1747 08aa FFF7FEFF 		bl	lv_obj_set_style_arc_width
 1748              	.LVL226:
 304:generated/setup_scr_wave_model.c **** 	lv_obj_set_style_arc_opa(ui->wave_model_blue, 255, LV_PART_MAIN | LV_STATE_DEFAULT);
 1749              		.loc 1 304 2 view .LVU397
 1750 08ae 0022     		movs	r2, #0
 1751 08b0 FF21     		movs	r1, #255
 1752 08b2 206D     		ldr	r0, [r4, #80]
 1753 08b4 FFF7FEFF 		bl	lv_obj_set_style_arc_opa
 1754              	.LVL227:
 305:generated/setup_scr_wave_model.c **** 	lv_obj_set_style_arc_color(ui->wave_model_blue, lv_color_hex(0xffff00), LV_PART_MAIN | LV_STATE_DE
 1755              		.loc 1 305 2 view .LVU398
 1756              	.LBB192:
 1757              	.LBI192:
 597:lvgl/src/hal/../draw/../misc/lv_color.h **** {
 1758              		.loc 3 597 26 view .LVU399
 1759              	.LBB193:
 600:lvgl/src/hal/../draw/../misc/lv_color.h **** #if LV_COLOR_16_SWAP == 0
 1760              		.loc 3 600 5 view .LVU400
 616:lvgl/src/hal/../draw/../misc/lv_color.h **** #else
 1761              		.loc 3 616 5 view .LVU401
 1762              		.loc 3 621 5 view .LVU402
 1763              		.loc 3 621 5 is_stmt 0 view .LVU403
 1764              	.LBE193:
ARM GAS  C:\usertemp\cctMo5e7.s 			page 53


 1765              	.LBE192:
 1766              		.loc 1 305 2 discriminator 1 view .LVU404
 1767 08b8 0022     		movs	r2, #0
 1768 08ba 3146     		mov	r1, r6	@ movhi
 1769 08bc 206D     		ldr	r0, [r4, #80]
 1770 08be FFF7FEFF 		bl	lv_obj_set_style_arc_color
 1771              	.LVL228:
 306:generated/setup_scr_wave_model.c **** 	lv_obj_set_style_radius(ui->wave_model_blue, 6, LV_PART_MAIN | LV_STATE_DEFAULT);
 1772              		.loc 1 306 2 is_stmt 1 view .LVU405
 1773 08c2 0022     		movs	r2, #0
 1774 08c4 0621     		movs	r1, #6
 1775 08c6 206D     		ldr	r0, [r4, #80]
 1776 08c8 FFF7FEFF 		bl	lv_obj_set_style_radius
 1777              	.LVL229:
 307:generated/setup_scr_wave_model.c **** 	lv_obj_set_style_pad_top(ui->wave_model_blue, 0, LV_PART_MAIN | LV_STATE_DEFAULT);
 1778              		.loc 1 307 2 view .LVU406
 1779 08cc 0022     		movs	r2, #0
 1780 08ce 1146     		mov	r1, r2
 1781 08d0 206D     		ldr	r0, [r4, #80]
 1782 08d2 FFF7FEFF 		bl	lv_obj_set_style_pad_top
 1783              	.LVL230:
 308:generated/setup_scr_wave_model.c **** 	lv_obj_set_style_pad_bottom(ui->wave_model_blue, 0, LV_PART_MAIN | LV_STATE_DEFAULT);
 1784              		.loc 1 308 2 view .LVU407
 1785 08d6 0022     		movs	r2, #0
 1786 08d8 1146     		mov	r1, r2
 1787 08da 206D     		ldr	r0, [r4, #80]
 1788 08dc FFF7FEFF 		bl	lv_obj_set_style_pad_bottom
 1789              	.LVL231:
 309:generated/setup_scr_wave_model.c **** 	lv_obj_set_style_pad_left(ui->wave_model_blue, 0, LV_PART_MAIN | LV_STATE_DEFAULT);
 1790              		.loc 1 309 2 view .LVU408
 1791 08e0 0022     		movs	r2, #0
 1792 08e2 1146     		mov	r1, r2
 1793 08e4 206D     		ldr	r0, [r4, #80]
 1794 08e6 FFF7FEFF 		bl	lv_obj_set_style_pad_left
 1795              	.LVL232:
 310:generated/setup_scr_wave_model.c **** 	lv_obj_set_style_pad_right(ui->wave_model_blue, 0, LV_PART_MAIN | LV_STATE_DEFAULT);
 1796              		.loc 1 310 2 view .LVU409
 1797 08ea 0022     		movs	r2, #0
 1798 08ec 1146     		mov	r1, r2
 1799 08ee 206D     		ldr	r0, [r4, #80]
 1800 08f0 FFF7FEFF 		bl	lv_obj_set_style_pad_right
 1801              	.LVL233:
 311:generated/setup_scr_wave_model.c **** 	lv_obj_set_style_shadow_width(ui->wave_model_blue, 0, LV_PART_MAIN | LV_STATE_DEFAULT);
 1802              		.loc 1 311 2 view .LVU410
 1803 08f4 0022     		movs	r2, #0
 1804 08f6 1146     		mov	r1, r2
 1805 08f8 206D     		ldr	r0, [r4, #80]
 1806 08fa FFF7FEFF 		bl	lv_obj_set_style_shadow_width
 1807              	.LVL234:
 312:generated/setup_scr_wave_model.c **** 
 313:generated/setup_scr_wave_model.c **** 	// Write style for wave_model_blue, Part: LV_PART_INDICATOR, State: LV_STATE_DEFAULT.
 314:generated/setup_scr_wave_model.c **** 	lv_obj_set_style_arc_width(ui->wave_model_blue, 2, LV_PART_INDICATOR | LV_STATE_DEFAULT);
 1808              		.loc 1 314 2 view .LVU411
 1809 08fe 4FF40032 		mov	r2, #131072
 1810 0902 0221     		movs	r1, #2
 1811 0904 206D     		ldr	r0, [r4, #80]
 1812 0906 FFF7FEFF 		bl	lv_obj_set_style_arc_width
ARM GAS  C:\usertemp\cctMo5e7.s 			page 54


 1813              	.LVL235:
 315:generated/setup_scr_wave_model.c **** 	lv_obj_set_style_arc_opa(ui->wave_model_blue, 255, LV_PART_INDICATOR | LV_STATE_DEFAULT);
 1814              		.loc 1 315 2 view .LVU412
 1815 090a 4FF40032 		mov	r2, #131072
 1816 090e FF21     		movs	r1, #255
 1817 0910 206D     		ldr	r0, [r4, #80]
 1818 0912 FFF7FEFF 		bl	lv_obj_set_style_arc_opa
 1819              	.LVL236:
 316:generated/setup_scr_wave_model.c **** 	lv_obj_set_style_arc_color(ui->wave_model_blue, lv_color_hex(0x0000ff), LV_PART_INDICATOR | LV_STA
 1820              		.loc 1 316 2 view .LVU413
 1821              	.LBB194:
 1822              	.LBI194:
 597:lvgl/src/hal/../draw/../misc/lv_color.h **** {
 1823              		.loc 3 597 26 view .LVU414
 1824              	.LBB195:
 600:lvgl/src/hal/../draw/../misc/lv_color.h **** #if LV_COLOR_16_SWAP == 0
 1825              		.loc 3 600 5 view .LVU415
 616:lvgl/src/hal/../draw/../misc/lv_color.h **** #else
 1826              		.loc 3 616 5 view .LVU416
 616:lvgl/src/hal/../draw/../misc/lv_color.h **** #else
 1827              		.loc 3 616 12 is_stmt 0 view .LVU417
 1828 0916 4FF01F08 		mov	r8, #31
 1829              		.loc 3 621 5 is_stmt 1 view .LVU418
 1830              	.LVL237:
 1831              		.loc 3 621 5 is_stmt 0 view .LVU419
 1832              	.LBE195:
 1833              	.LBE194:
 1834              		.loc 1 316 2 discriminator 1 view .LVU420
 1835 091a 4FF40032 		mov	r2, #131072
 1836 091e 4146     		mov	r1, r8	@ movhi
 1837 0920 206D     		ldr	r0, [r4, #80]
 1838 0922 FFF7FEFF 		bl	lv_obj_set_style_arc_color
 1839              	.LVL238:
 317:generated/setup_scr_wave_model.c **** 
 318:generated/setup_scr_wave_model.c **** 	// Write style for wave_model_blue, Part: LV_PART_KNOB, State: LV_STATE_DEFAULT.
 319:generated/setup_scr_wave_model.c **** 	lv_obj_set_style_bg_opa(ui->wave_model_blue, 0, LV_PART_KNOB | LV_STATE_DEFAULT);
 1840              		.loc 1 319 2 is_stmt 1 view .LVU421
 1841 0926 4FF44032 		mov	r2, #196608
 1842 092a 0021     		movs	r1, #0
 1843 092c 206D     		ldr	r0, [r4, #80]
 1844 092e FFF7FEFF 		bl	lv_obj_set_style_bg_opa
 1845              	.LVL239:
 320:generated/setup_scr_wave_model.c **** 	lv_obj_set_style_pad_all(ui->wave_model_blue, 0, LV_PART_KNOB | LV_STATE_DEFAULT);
 1846              		.loc 1 320 2 view .LVU422
 1847 0932 4FF44032 		mov	r2, #196608
 1848 0936 0021     		movs	r1, #0
 1849 0938 206D     		ldr	r0, [r4, #80]
 1850 093a FFF7FEFF 		bl	lv_obj_set_style_pad_all
 1851              	.LVL240:
 321:generated/setup_scr_wave_model.c **** 
 322:generated/setup_scr_wave_model.c **** 	// Write codes wave_model_red
 323:generated/setup_scr_wave_model.c **** 	ui->wave_model_red = lv_arc_create(ui->wave_model);
 1852              		.loc 1 323 2 view .LVU423
 1853              		.loc 1 323 23 is_stmt 0 view .LVU424
 1854 093e 2068     		ldr	r0, [r4]
 1855 0940 FFF7FEFF 		bl	lv_arc_create
 1856              	.LVL241:
ARM GAS  C:\usertemp\cctMo5e7.s 			page 55


 1857              		.loc 1 323 21 discriminator 1 view .LVU425
 1858 0944 6065     		str	r0, [r4, #84]
 324:generated/setup_scr_wave_model.c **** 	lv_arc_set_mode(ui->wave_model_red, LV_ARC_MODE_REVERSE);
 1859              		.loc 1 324 2 is_stmt 1 view .LVU426
 1860 0946 0221     		movs	r1, #2
 1861 0948 FFF7FEFF 		bl	lv_arc_set_mode
 1862              	.LVL242:
 325:generated/setup_scr_wave_model.c **** 	lv_arc_set_range(ui->wave_model_red, 0, 1);
 1863              		.loc 1 325 2 view .LVU427
 1864 094c 0122     		movs	r2, #1
 1865 094e 0021     		movs	r1, #0
 1866 0950 606D     		ldr	r0, [r4, #84]
 1867 0952 FFF7FEFF 		bl	lv_arc_set_range
 1868              	.LVL243:
 326:generated/setup_scr_wave_model.c **** 	lv_arc_set_bg_angles(ui->wave_model_red, 0, 0);
 1869              		.loc 1 326 2 view .LVU428
 1870 0956 0022     		movs	r2, #0
 1871 0958 1146     		mov	r1, r2
 1872 095a 606D     		ldr	r0, [r4, #84]
 1873 095c FFF7FEFF 		bl	lv_arc_set_bg_angles
 1874              	.LVL244:
 327:generated/setup_scr_wave_model.c **** 	lv_arc_set_angles(ui->wave_model_red, 0, 360);
 1875              		.loc 1 327 2 view .LVU429
 1876 0960 4FF4B472 		mov	r2, #360
 1877 0964 0021     		movs	r1, #0
 1878 0966 606D     		ldr	r0, [r4, #84]
 1879 0968 FFF7FEFF 		bl	lv_arc_set_angles
 1880              	.LVL245:
 328:generated/setup_scr_wave_model.c **** 	lv_arc_set_rotation(ui->wave_model_red, 0);
 1881              		.loc 1 328 2 view .LVU430
 1882 096c 0021     		movs	r1, #0
 1883 096e 606D     		ldr	r0, [r4, #84]
 1884 0970 FFF7FEFF 		bl	lv_arc_set_rotation
 1885              	.LVL246:
 329:generated/setup_scr_wave_model.c **** 	lv_obj_set_style_arc_rounded(ui->wave_model_red, 0, LV_PART_INDICATOR | LV_STATE_DEFAULT);
 1886              		.loc 1 329 2 view .LVU431
 1887 0974 4FF40032 		mov	r2, #131072
 1888 0978 0021     		movs	r1, #0
 1889 097a 606D     		ldr	r0, [r4, #84]
 1890 097c FFF7FEFF 		bl	lv_obj_set_style_arc_rounded
 1891              	.LVL247:
 330:generated/setup_scr_wave_model.c **** 	lv_obj_set_style_arc_rounded(ui->wave_model_red, 0, LV_STATE_DEFAULT);
 1892              		.loc 1 330 2 view .LVU432
 1893 0980 0022     		movs	r2, #0
 1894 0982 1146     		mov	r1, r2
 1895 0984 606D     		ldr	r0, [r4, #84]
 1896 0986 FFF7FEFF 		bl	lv_obj_set_style_arc_rounded
 1897              	.LVL248:
 331:generated/setup_scr_wave_model.c **** 	lv_obj_set_pos(ui->wave_model_red, 330, 25);
 1898              		.loc 1 331 2 view .LVU433
 1899 098a 1922     		movs	r2, #25
 1900 098c 4FF4A571 		mov	r1, #330
 1901 0990 606D     		ldr	r0, [r4, #84]
 1902 0992 FFF7FEFF 		bl	lv_obj_set_pos
 1903              	.LVL249:
 332:generated/setup_scr_wave_model.c **** 	lv_obj_set_size(ui->wave_model_red, 38, 38);
 1904              		.loc 1 332 2 view .LVU434
ARM GAS  C:\usertemp\cctMo5e7.s 			page 56


 1905 0996 2622     		movs	r2, #38
 1906 0998 1146     		mov	r1, r2
 1907 099a 606D     		ldr	r0, [r4, #84]
 1908 099c FFF7FEFF 		bl	lv_obj_set_size
 1909              	.LVL250:
 333:generated/setup_scr_wave_model.c **** 
 334:generated/setup_scr_wave_model.c **** 	// Write style for wave_model_red, Part: LV_PART_MAIN, State: LV_STATE_DEFAULT.
 335:generated/setup_scr_wave_model.c **** 	lv_obj_set_style_bg_opa(ui->wave_model_red, 0, LV_PART_MAIN | LV_STATE_DEFAULT);
 1910              		.loc 1 335 2 view .LVU435
 1911 09a0 0022     		movs	r2, #0
 1912 09a2 1146     		mov	r1, r2
 1913 09a4 606D     		ldr	r0, [r4, #84]
 1914 09a6 FFF7FEFF 		bl	lv_obj_set_style_bg_opa
 1915              	.LVL251:
 336:generated/setup_scr_wave_model.c **** 	lv_obj_set_style_border_width(ui->wave_model_red, 0, LV_PART_MAIN | LV_STATE_DEFAULT);
 1916              		.loc 1 336 2 view .LVU436
 1917 09aa 0022     		movs	r2, #0
 1918 09ac 1146     		mov	r1, r2
 1919 09ae 606D     		ldr	r0, [r4, #84]
 1920 09b0 FFF7FEFF 		bl	lv_obj_set_style_border_width
 1921              	.LVL252:
 337:generated/setup_scr_wave_model.c **** 	lv_obj_set_style_arc_width(ui->wave_model_red, 2, LV_PART_MAIN | LV_STATE_DEFAULT);
 1922              		.loc 1 337 2 view .LVU437
 1923 09b4 0022     		movs	r2, #0
 1924 09b6 0221     		movs	r1, #2
 1925 09b8 606D     		ldr	r0, [r4, #84]
 1926 09ba FFF7FEFF 		bl	lv_obj_set_style_arc_width
 1927              	.LVL253:
 338:generated/setup_scr_wave_model.c **** 	lv_obj_set_style_arc_opa(ui->wave_model_red, 255, LV_PART_MAIN | LV_STATE_DEFAULT);
 1928              		.loc 1 338 2 view .LVU438
 1929 09be 0022     		movs	r2, #0
 1930 09c0 FF21     		movs	r1, #255
 1931 09c2 606D     		ldr	r0, [r4, #84]
 1932 09c4 FFF7FEFF 		bl	lv_obj_set_style_arc_opa
 1933              	.LVL254:
 339:generated/setup_scr_wave_model.c **** 	lv_obj_set_style_arc_color(ui->wave_model_red, lv_color_hex(0xff0000), LV_PART_MAIN | LV_STATE_DEF
 1934              		.loc 1 339 2 view .LVU439
 1935              	.LBB196:
 1936              	.LBI196:
 597:lvgl/src/hal/../draw/../misc/lv_color.h **** {
 1937              		.loc 3 597 26 view .LVU440
 1938              	.LBB197:
 600:lvgl/src/hal/../draw/../misc/lv_color.h **** #if LV_COLOR_16_SWAP == 0
 1939              		.loc 3 600 5 view .LVU441
 616:lvgl/src/hal/../draw/../misc/lv_color.h **** #else
 1940              		.loc 3 616 5 view .LVU442
 616:lvgl/src/hal/../draw/../misc/lv_color.h **** #else
 1941              		.loc 3 616 12 is_stmt 0 view .LVU443
 1942 09c8 4FF47845 		mov	r5, #63488
 1943              		.loc 3 621 5 is_stmt 1 view .LVU444
 1944              	.LVL255:
 1945              		.loc 3 621 5 is_stmt 0 view .LVU445
 1946              	.LBE197:
 1947              	.LBE196:
 1948              		.loc 1 339 2 discriminator 1 view .LVU446
 1949 09cc 0022     		movs	r2, #0
 1950 09ce 2946     		mov	r1, r5	@ movhi
ARM GAS  C:\usertemp\cctMo5e7.s 			page 57


 1951 09d0 606D     		ldr	r0, [r4, #84]
 1952 09d2 FFF7FEFF 		bl	lv_obj_set_style_arc_color
 1953              	.LVL256:
 340:generated/setup_scr_wave_model.c **** 	lv_obj_set_style_radius(ui->wave_model_red, 6, LV_PART_MAIN | LV_STATE_DEFAULT);
 1954              		.loc 1 340 2 is_stmt 1 view .LVU447
 1955 09d6 0022     		movs	r2, #0
 1956 09d8 0621     		movs	r1, #6
 1957 09da 606D     		ldr	r0, [r4, #84]
 1958 09dc FFF7FEFF 		bl	lv_obj_set_style_radius
 1959              	.LVL257:
 341:generated/setup_scr_wave_model.c **** 	lv_obj_set_style_pad_top(ui->wave_model_red, 0, LV_PART_MAIN | LV_STATE_DEFAULT);
 1960              		.loc 1 341 2 view .LVU448
 1961 09e0 0022     		movs	r2, #0
 1962 09e2 1146     		mov	r1, r2
 1963 09e4 606D     		ldr	r0, [r4, #84]
 1964 09e6 FFF7FEFF 		bl	lv_obj_set_style_pad_top
 1965              	.LVL258:
 342:generated/setup_scr_wave_model.c **** 	lv_obj_set_style_pad_bottom(ui->wave_model_red, 0, LV_PART_MAIN | LV_STATE_DEFAULT);
 1966              		.loc 1 342 2 view .LVU449
 1967 09ea 0022     		movs	r2, #0
 1968 09ec 1146     		mov	r1, r2
 1969 09ee 606D     		ldr	r0, [r4, #84]
 1970 09f0 FFF7FEFF 		bl	lv_obj_set_style_pad_bottom
 1971              	.LVL259:
 343:generated/setup_scr_wave_model.c **** 	lv_obj_set_style_pad_left(ui->wave_model_red, 0, LV_PART_MAIN | LV_STATE_DEFAULT);
 1972              		.loc 1 343 2 view .LVU450
 1973 09f4 0022     		movs	r2, #0
 1974 09f6 1146     		mov	r1, r2
 1975 09f8 606D     		ldr	r0, [r4, #84]
 1976 09fa FFF7FEFF 		bl	lv_obj_set_style_pad_left
 1977              	.LVL260:
 344:generated/setup_scr_wave_model.c **** 	lv_obj_set_style_pad_right(ui->wave_model_red, 0, LV_PART_MAIN | LV_STATE_DEFAULT);
 1978              		.loc 1 344 2 view .LVU451
 1979 09fe 0022     		movs	r2, #0
 1980 0a00 1146     		mov	r1, r2
 1981 0a02 606D     		ldr	r0, [r4, #84]
 1982 0a04 FFF7FEFF 		bl	lv_obj_set_style_pad_right
 1983              	.LVL261:
 345:generated/setup_scr_wave_model.c **** 	lv_obj_set_style_shadow_width(ui->wave_model_red, 0, LV_PART_MAIN | LV_STATE_DEFAULT);
 1984              		.loc 1 345 2 view .LVU452
 1985 0a08 0022     		movs	r2, #0
 1986 0a0a 1146     		mov	r1, r2
 1987 0a0c 606D     		ldr	r0, [r4, #84]
 1988 0a0e FFF7FEFF 		bl	lv_obj_set_style_shadow_width
 1989              	.LVL262:
 346:generated/setup_scr_wave_model.c **** 
 347:generated/setup_scr_wave_model.c **** 	// Write style for wave_model_red, Part: LV_PART_INDICATOR, State: LV_STATE_DEFAULT.
 348:generated/setup_scr_wave_model.c **** 	lv_obj_set_style_arc_width(ui->wave_model_red, 2, LV_PART_INDICATOR | LV_STATE_DEFAULT);
 1990              		.loc 1 348 2 view .LVU453
 1991 0a12 4FF40032 		mov	r2, #131072
 1992 0a16 0221     		movs	r1, #2
 1993 0a18 606D     		ldr	r0, [r4, #84]
 1994 0a1a FFF7FEFF 		bl	lv_obj_set_style_arc_width
 1995              	.LVL263:
 349:generated/setup_scr_wave_model.c **** 	lv_obj_set_style_arc_opa(ui->wave_model_red, 255, LV_PART_INDICATOR | LV_STATE_DEFAULT);
 1996              		.loc 1 349 2 view .LVU454
 1997 0a1e 4FF40032 		mov	r2, #131072
ARM GAS  C:\usertemp\cctMo5e7.s 			page 58


 1998 0a22 FF21     		movs	r1, #255
 1999 0a24 606D     		ldr	r0, [r4, #84]
 2000 0a26 FFF7FEFF 		bl	lv_obj_set_style_arc_opa
 2001              	.LVL264:
 350:generated/setup_scr_wave_model.c **** 	lv_obj_set_style_arc_color(ui->wave_model_red, lv_color_hex(0xff0200), LV_PART_INDICATOR | LV_STAT
 2002              		.loc 1 350 2 view .LVU455
 2003              	.LBB198:
 2004              	.LBI198:
 597:lvgl/src/hal/../draw/../misc/lv_color.h **** {
 2005              		.loc 3 597 26 view .LVU456
 2006              	.LBB199:
 600:lvgl/src/hal/../draw/../misc/lv_color.h **** #if LV_COLOR_16_SWAP == 0
 2007              		.loc 3 600 5 view .LVU457
 616:lvgl/src/hal/../draw/../misc/lv_color.h **** #else
 2008              		.loc 3 616 5 view .LVU458
 2009              		.loc 3 621 5 view .LVU459
 2010              		.loc 3 621 5 is_stmt 0 view .LVU460
 2011              	.LBE199:
 2012              	.LBE198:
 2013              		.loc 1 350 2 discriminator 1 view .LVU461
 2014 0a2a 4FF40032 		mov	r2, #131072
 2015 0a2e 2946     		mov	r1, r5	@ movhi
 2016 0a30 606D     		ldr	r0, [r4, #84]
 2017 0a32 FFF7FEFF 		bl	lv_obj_set_style_arc_color
 2018              	.LVL265:
 351:generated/setup_scr_wave_model.c **** 
 352:generated/setup_scr_wave_model.c **** 	// Write style for wave_model_red, Part: LV_PART_KNOB, State: LV_STATE_DEFAULT.
 353:generated/setup_scr_wave_model.c **** 	lv_obj_set_style_bg_opa(ui->wave_model_red, 0, LV_PART_KNOB | LV_STATE_DEFAULT);
 2019              		.loc 1 353 2 is_stmt 1 view .LVU462
 2020 0a36 4FF44032 		mov	r2, #196608
 2021 0a3a 0021     		movs	r1, #0
 2022 0a3c 606D     		ldr	r0, [r4, #84]
 2023 0a3e FFF7FEFF 		bl	lv_obj_set_style_bg_opa
 2024              	.LVL266:
 354:generated/setup_scr_wave_model.c **** 	lv_obj_set_style_pad_all(ui->wave_model_red, 0, LV_PART_KNOB | LV_STATE_DEFAULT);
 2025              		.loc 1 354 2 view .LVU463
 2026 0a42 4FF44032 		mov	r2, #196608
 2027 0a46 0021     		movs	r1, #0
 2028 0a48 606D     		ldr	r0, [r4, #84]
 2029 0a4a FFF7FEFF 		bl	lv_obj_set_style_pad_all
 2030              	.LVL267:
 355:generated/setup_scr_wave_model.c **** 
 356:generated/setup_scr_wave_model.c **** 	// Write codes wave_model_two
 357:generated/setup_scr_wave_model.c **** 	ui->wave_model_two = lv_label_create(ui->wave_model);
 2031              		.loc 1 357 2 view .LVU464
 2032              		.loc 1 357 23 is_stmt 0 view .LVU465
 2033 0a4e 2068     		ldr	r0, [r4]
 2034 0a50 FFF7FEFF 		bl	lv_label_create
 2035              	.LVL268:
 2036              		.loc 1 357 21 discriminator 1 view .LVU466
 2037 0a54 A065     		str	r0, [r4, #88]
 358:generated/setup_scr_wave_model.c **** 	lv_label_set_text(ui->wave_model_two, "2");
 2038              		.loc 1 358 2 is_stmt 1 view .LVU467
 2039 0a56 D149     		ldr	r1, .L13
 2040 0a58 FFF7FEFF 		bl	lv_label_set_text
 2041              	.LVL269:
 359:generated/setup_scr_wave_model.c **** 	lv_label_set_long_mode(ui->wave_model_two, LV_LABEL_LONG_WRAP);
ARM GAS  C:\usertemp\cctMo5e7.s 			page 59


 2042              		.loc 1 359 2 view .LVU468
 2043 0a5c 0021     		movs	r1, #0
 2044 0a5e A06D     		ldr	r0, [r4, #88]
 2045 0a60 FFF7FEFF 		bl	lv_label_set_long_mode
 2046              	.LVL270:
 360:generated/setup_scr_wave_model.c **** 	lv_obj_set_pos(ui->wave_model_two, 137, 28);
 2047              		.loc 1 360 2 view .LVU469
 2048 0a64 1C22     		movs	r2, #28
 2049 0a66 8921     		movs	r1, #137
 2050 0a68 A06D     		ldr	r0, [r4, #88]
 2051 0a6a FFF7FEFF 		bl	lv_obj_set_pos
 2052              	.LVL271:
 361:generated/setup_scr_wave_model.c **** 	lv_obj_set_size(ui->wave_model_two, 100, 32);
 2053              		.loc 1 361 2 view .LVU470
 2054 0a6e 2022     		movs	r2, #32
 2055 0a70 6421     		movs	r1, #100
 2056 0a72 A06D     		ldr	r0, [r4, #88]
 2057 0a74 FFF7FEFF 		bl	lv_obj_set_size
 2058              	.LVL272:
 362:generated/setup_scr_wave_model.c **** 
 363:generated/setup_scr_wave_model.c **** 	// Write style for wave_model_two, Part: LV_PART_MAIN, State: LV_STATE_DEFAULT.
 364:generated/setup_scr_wave_model.c **** 	lv_obj_set_style_border_width(ui->wave_model_two, 0, LV_PART_MAIN | LV_STATE_DEFAULT);
 2059              		.loc 1 364 2 view .LVU471
 2060 0a78 0022     		movs	r2, #0
 2061 0a7a 1146     		mov	r1, r2
 2062 0a7c A06D     		ldr	r0, [r4, #88]
 2063 0a7e FFF7FEFF 		bl	lv_obj_set_style_border_width
 2064              	.LVL273:
 365:generated/setup_scr_wave_model.c **** 	lv_obj_set_style_radius(ui->wave_model_two, 0, LV_PART_MAIN | LV_STATE_DEFAULT);
 2065              		.loc 1 365 2 view .LVU472
 2066 0a82 0022     		movs	r2, #0
 2067 0a84 1146     		mov	r1, r2
 2068 0a86 A06D     		ldr	r0, [r4, #88]
 2069 0a88 FFF7FEFF 		bl	lv_obj_set_style_radius
 2070              	.LVL274:
 366:generated/setup_scr_wave_model.c **** 	lv_obj_set_style_text_color(ui->wave_model_two, lv_color_hex(0x000000), LV_PART_MAIN | LV_STATE_DE
 2071              		.loc 1 366 2 view .LVU473
 2072              	.LBB200:
 2073              	.LBI200:
 597:lvgl/src/hal/../draw/../misc/lv_color.h **** {
 2074              		.loc 3 597 26 view .LVU474
 2075              	.LBB201:
 600:lvgl/src/hal/../draw/../misc/lv_color.h **** #if LV_COLOR_16_SWAP == 0
 2076              		.loc 3 600 5 view .LVU475
 616:lvgl/src/hal/../draw/../misc/lv_color.h **** #else
 2077              		.loc 3 616 5 view .LVU476
 616:lvgl/src/hal/../draw/../misc/lv_color.h **** #else
 2078              		.loc 3 616 12 is_stmt 0 view .LVU477
 2079 0a8c 0025     		movs	r5, #0
 2080              		.loc 3 621 5 is_stmt 1 view .LVU478
 2081              	.LVL275:
 2082              		.loc 3 621 5 is_stmt 0 view .LVU479
 2083              	.LBE201:
 2084              	.LBE200:
 2085              		.loc 1 366 2 discriminator 1 view .LVU480
 2086 0a8e 2A46     		mov	r2, r5
 2087 0a90 2946     		mov	r1, r5	@ movhi
ARM GAS  C:\usertemp\cctMo5e7.s 			page 60


 2088 0a92 A06D     		ldr	r0, [r4, #88]
 2089 0a94 FFF7FEFF 		bl	lv_obj_set_style_text_color
 2090              	.LVL276:
 367:generated/setup_scr_wave_model.c **** 	lv_obj_set_style_text_font(ui->wave_model_two, &lv_font_arial_32, LV_PART_MAIN | LV_STATE_DEFAULT)
 2091              		.loc 1 367 2 is_stmt 1 view .LVU481
 2092 0a98 C14E     		ldr	r6, .L13+4
 2093 0a9a 2A46     		mov	r2, r5
 2094 0a9c 3146     		mov	r1, r6
 2095 0a9e A06D     		ldr	r0, [r4, #88]
 2096 0aa0 FFF7FEFF 		bl	lv_obj_set_style_text_font
 2097              	.LVL277:
 368:generated/setup_scr_wave_model.c **** 	lv_obj_set_style_text_letter_space(ui->wave_model_two, 2, LV_PART_MAIN | LV_STATE_DEFAULT);
 2098              		.loc 1 368 2 view .LVU482
 2099 0aa4 2A46     		mov	r2, r5
 2100 0aa6 0221     		movs	r1, #2
 2101 0aa8 A06D     		ldr	r0, [r4, #88]
 2102 0aaa FFF7FEFF 		bl	lv_obj_set_style_text_letter_space
 2103              	.LVL278:
 369:generated/setup_scr_wave_model.c **** 	lv_obj_set_style_text_line_space(ui->wave_model_two, 0, LV_PART_MAIN | LV_STATE_DEFAULT);
 2104              		.loc 1 369 2 view .LVU483
 2105 0aae 2A46     		mov	r2, r5
 2106 0ab0 2946     		mov	r1, r5
 2107 0ab2 A06D     		ldr	r0, [r4, #88]
 2108 0ab4 FFF7FEFF 		bl	lv_obj_set_style_text_line_space
 2109              	.LVL279:
 370:generated/setup_scr_wave_model.c **** 	lv_obj_set_style_text_align(ui->wave_model_two, LV_TEXT_ALIGN_CENTER, LV_PART_MAIN | LV_STATE_DEFA
 2110              		.loc 1 370 2 view .LVU484
 2111 0ab8 2A46     		mov	r2, r5
 2112 0aba 0221     		movs	r1, #2
 2113 0abc A06D     		ldr	r0, [r4, #88]
 2114 0abe FFF7FEFF 		bl	lv_obj_set_style_text_align
 2115              	.LVL280:
 371:generated/setup_scr_wave_model.c **** 	lv_obj_set_style_bg_opa(ui->wave_model_two, 0, LV_PART_MAIN | LV_STATE_DEFAULT);
 2116              		.loc 1 371 2 view .LVU485
 2117 0ac2 2A46     		mov	r2, r5
 2118 0ac4 2946     		mov	r1, r5
 2119 0ac6 A06D     		ldr	r0, [r4, #88]
 2120 0ac8 FFF7FEFF 		bl	lv_obj_set_style_bg_opa
 2121              	.LVL281:
 372:generated/setup_scr_wave_model.c **** 	lv_obj_set_style_pad_top(ui->wave_model_two, 0, LV_PART_MAIN | LV_STATE_DEFAULT);
 2122              		.loc 1 372 2 view .LVU486
 2123 0acc 2A46     		mov	r2, r5
 2124 0ace 2946     		mov	r1, r5
 2125 0ad0 A06D     		ldr	r0, [r4, #88]
 2126 0ad2 FFF7FEFF 		bl	lv_obj_set_style_pad_top
 2127              	.LVL282:
 373:generated/setup_scr_wave_model.c **** 	lv_obj_set_style_pad_right(ui->wave_model_two, 0, LV_PART_MAIN | LV_STATE_DEFAULT);
 2128              		.loc 1 373 2 view .LVU487
 2129 0ad6 2A46     		mov	r2, r5
 2130 0ad8 2946     		mov	r1, r5
 2131 0ada A06D     		ldr	r0, [r4, #88]
 2132 0adc FFF7FEFF 		bl	lv_obj_set_style_pad_right
 2133              	.LVL283:
 374:generated/setup_scr_wave_model.c **** 	lv_obj_set_style_pad_bottom(ui->wave_model_two, 0, LV_PART_MAIN | LV_STATE_DEFAULT);
 2134              		.loc 1 374 2 view .LVU488
 2135 0ae0 2A46     		mov	r2, r5
 2136 0ae2 2946     		mov	r1, r5
ARM GAS  C:\usertemp\cctMo5e7.s 			page 61


 2137 0ae4 A06D     		ldr	r0, [r4, #88]
 2138 0ae6 FFF7FEFF 		bl	lv_obj_set_style_pad_bottom
 2139              	.LVL284:
 375:generated/setup_scr_wave_model.c **** 	lv_obj_set_style_pad_left(ui->wave_model_two, 0, LV_PART_MAIN | LV_STATE_DEFAULT);
 2140              		.loc 1 375 2 view .LVU489
 2141 0aea 2A46     		mov	r2, r5
 2142 0aec 2946     		mov	r1, r5
 2143 0aee A06D     		ldr	r0, [r4, #88]
 2144 0af0 FFF7FEFF 		bl	lv_obj_set_style_pad_left
 2145              	.LVL285:
 376:generated/setup_scr_wave_model.c **** 	lv_obj_set_style_shadow_width(ui->wave_model_two, 0, LV_PART_MAIN | LV_STATE_DEFAULT);
 2146              		.loc 1 376 2 view .LVU490
 2147 0af4 2A46     		mov	r2, r5
 2148 0af6 2946     		mov	r1, r5
 2149 0af8 A06D     		ldr	r0, [r4, #88]
 2150 0afa FFF7FEFF 		bl	lv_obj_set_style_shadow_width
 2151              	.LVL286:
 377:generated/setup_scr_wave_model.c **** 
 378:generated/setup_scr_wave_model.c **** 	// Write codes wave_model_three
 379:generated/setup_scr_wave_model.c **** 	ui->wave_model_three = lv_label_create(ui->wave_model);
 2152              		.loc 1 379 2 view .LVU491
 2153              		.loc 1 379 25 is_stmt 0 view .LVU492
 2154 0afe 2068     		ldr	r0, [r4]
 2155 0b00 FFF7FEFF 		bl	lv_label_create
 2156              	.LVL287:
 2157              		.loc 1 379 23 discriminator 1 view .LVU493
 2158 0b04 E065     		str	r0, [r4, #92]
 380:generated/setup_scr_wave_model.c **** 	lv_label_set_text(ui->wave_model_three, "3");
 2159              		.loc 1 380 2 is_stmt 1 view .LVU494
 2160 0b06 A749     		ldr	r1, .L13+8
 2161 0b08 FFF7FEFF 		bl	lv_label_set_text
 2162              	.LVL288:
 381:generated/setup_scr_wave_model.c **** 	lv_label_set_long_mode(ui->wave_model_three, LV_LABEL_LONG_WRAP);
 2163              		.loc 1 381 2 view .LVU495
 2164 0b0c 2946     		mov	r1, r5
 2165 0b0e E06D     		ldr	r0, [r4, #92]
 2166 0b10 FFF7FEFF 		bl	lv_label_set_long_mode
 2167              	.LVL289:
 382:generated/setup_scr_wave_model.c **** 	lv_obj_set_pos(ui->wave_model_three, 300, 28);
 2168              		.loc 1 382 2 view .LVU496
 2169 0b14 1C22     		movs	r2, #28
 2170 0b16 4FF49671 		mov	r1, #300
 2171 0b1a E06D     		ldr	r0, [r4, #92]
 2172 0b1c FFF7FEFF 		bl	lv_obj_set_pos
 2173              	.LVL290:
 383:generated/setup_scr_wave_model.c **** 	lv_obj_set_size(ui->wave_model_three, 100, 32);
 2174              		.loc 1 383 2 view .LVU497
 2175 0b20 2022     		movs	r2, #32
 2176 0b22 6421     		movs	r1, #100
 2177 0b24 E06D     		ldr	r0, [r4, #92]
 2178 0b26 FFF7FEFF 		bl	lv_obj_set_size
 2179              	.LVL291:
 384:generated/setup_scr_wave_model.c **** 
 385:generated/setup_scr_wave_model.c **** 	// Write style for wave_model_three, Part: LV_PART_MAIN, State: LV_STATE_DEFAULT.
 386:generated/setup_scr_wave_model.c **** 	lv_obj_set_style_border_width(ui->wave_model_three, 0, LV_PART_MAIN | LV_STATE_DEFAULT);
 2180              		.loc 1 386 2 view .LVU498
 2181 0b2a 2A46     		mov	r2, r5
ARM GAS  C:\usertemp\cctMo5e7.s 			page 62


 2182 0b2c 2946     		mov	r1, r5
 2183 0b2e E06D     		ldr	r0, [r4, #92]
 2184 0b30 FFF7FEFF 		bl	lv_obj_set_style_border_width
 2185              	.LVL292:
 387:generated/setup_scr_wave_model.c **** 	lv_obj_set_style_radius(ui->wave_model_three, 0, LV_PART_MAIN | LV_STATE_DEFAULT);
 2186              		.loc 1 387 2 view .LVU499
 2187 0b34 2A46     		mov	r2, r5
 2188 0b36 2946     		mov	r1, r5
 2189 0b38 E06D     		ldr	r0, [r4, #92]
 2190 0b3a FFF7FEFF 		bl	lv_obj_set_style_radius
 2191              	.LVL293:
 388:generated/setup_scr_wave_model.c **** 	lv_obj_set_style_text_color(ui->wave_model_three, lv_color_hex(0x000000), LV_PART_MAIN | LV_STATE_
 2192              		.loc 1 388 2 view .LVU500
 2193              	.LBB202:
 2194              	.LBI202:
 597:lvgl/src/hal/../draw/../misc/lv_color.h **** {
 2195              		.loc 3 597 26 view .LVU501
 2196              	.LBB203:
 600:lvgl/src/hal/../draw/../misc/lv_color.h **** #if LV_COLOR_16_SWAP == 0
 2197              		.loc 3 600 5 view .LVU502
 616:lvgl/src/hal/../draw/../misc/lv_color.h **** #else
 2198              		.loc 3 616 5 view .LVU503
 2199              		.loc 3 621 5 view .LVU504
 2200              		.loc 3 621 5 is_stmt 0 view .LVU505
 2201              	.LBE203:
 2202              	.LBE202:
 2203              		.loc 1 388 2 discriminator 1 view .LVU506
 2204 0b3e 2A46     		mov	r2, r5
 2205 0b40 2946     		mov	r1, r5	@ movhi
 2206 0b42 E06D     		ldr	r0, [r4, #92]
 2207 0b44 FFF7FEFF 		bl	lv_obj_set_style_text_color
 2208              	.LVL294:
 389:generated/setup_scr_wave_model.c **** 	lv_obj_set_style_text_font(ui->wave_model_three, &lv_font_arial_32, LV_PART_MAIN | LV_STATE_DEFAUL
 2209              		.loc 1 389 2 is_stmt 1 view .LVU507
 2210 0b48 2A46     		mov	r2, r5
 2211 0b4a 3146     		mov	r1, r6
 2212 0b4c E06D     		ldr	r0, [r4, #92]
 2213 0b4e FFF7FEFF 		bl	lv_obj_set_style_text_font
 2214              	.LVL295:
 390:generated/setup_scr_wave_model.c **** 	lv_obj_set_style_text_letter_space(ui->wave_model_three, 2, LV_PART_MAIN | LV_STATE_DEFAULT);
 2215              		.loc 1 390 2 view .LVU508
 2216 0b52 2A46     		mov	r2, r5
 2217 0b54 0221     		movs	r1, #2
 2218 0b56 E06D     		ldr	r0, [r4, #92]
 2219 0b58 FFF7FEFF 		bl	lv_obj_set_style_text_letter_space
 2220              	.LVL296:
 391:generated/setup_scr_wave_model.c **** 	lv_obj_set_style_text_line_space(ui->wave_model_three, 0, LV_PART_MAIN | LV_STATE_DEFAULT);
 2221              		.loc 1 391 2 view .LVU509
 2222 0b5c 2A46     		mov	r2, r5
 2223 0b5e 2946     		mov	r1, r5
 2224 0b60 E06D     		ldr	r0, [r4, #92]
 2225 0b62 FFF7FEFF 		bl	lv_obj_set_style_text_line_space
 2226              	.LVL297:
 392:generated/setup_scr_wave_model.c **** 	lv_obj_set_style_text_align(ui->wave_model_three, LV_TEXT_ALIGN_CENTER, LV_PART_MAIN | LV_STATE_DE
 2227              		.loc 1 392 2 view .LVU510
 2228 0b66 2A46     		mov	r2, r5
 2229 0b68 0221     		movs	r1, #2
ARM GAS  C:\usertemp\cctMo5e7.s 			page 63


 2230 0b6a E06D     		ldr	r0, [r4, #92]
 2231 0b6c FFF7FEFF 		bl	lv_obj_set_style_text_align
 2232              	.LVL298:
 393:generated/setup_scr_wave_model.c **** 	lv_obj_set_style_bg_opa(ui->wave_model_three, 0, LV_PART_MAIN | LV_STATE_DEFAULT);
 2233              		.loc 1 393 2 view .LVU511
 2234 0b70 2A46     		mov	r2, r5
 2235 0b72 2946     		mov	r1, r5
 2236 0b74 E06D     		ldr	r0, [r4, #92]
 2237 0b76 FFF7FEFF 		bl	lv_obj_set_style_bg_opa
 2238              	.LVL299:
 394:generated/setup_scr_wave_model.c **** 	lv_obj_set_style_pad_top(ui->wave_model_three, 0, LV_PART_MAIN | LV_STATE_DEFAULT);
 2239              		.loc 1 394 2 view .LVU512
 2240 0b7a 2A46     		mov	r2, r5
 2241 0b7c 2946     		mov	r1, r5
 2242 0b7e E06D     		ldr	r0, [r4, #92]
 2243 0b80 FFF7FEFF 		bl	lv_obj_set_style_pad_top
 2244              	.LVL300:
 395:generated/setup_scr_wave_model.c **** 	lv_obj_set_style_pad_right(ui->wave_model_three, 0, LV_PART_MAIN | LV_STATE_DEFAULT);
 2245              		.loc 1 395 2 view .LVU513
 2246 0b84 2A46     		mov	r2, r5
 2247 0b86 2946     		mov	r1, r5
 2248 0b88 E06D     		ldr	r0, [r4, #92]
 2249 0b8a FFF7FEFF 		bl	lv_obj_set_style_pad_right
 2250              	.LVL301:
 396:generated/setup_scr_wave_model.c **** 	lv_obj_set_style_pad_bottom(ui->wave_model_three, 0, LV_PART_MAIN | LV_STATE_DEFAULT);
 2251              		.loc 1 396 2 view .LVU514
 2252 0b8e 2A46     		mov	r2, r5
 2253 0b90 2946     		mov	r1, r5
 2254 0b92 E06D     		ldr	r0, [r4, #92]
 2255 0b94 FFF7FEFF 		bl	lv_obj_set_style_pad_bottom
 2256              	.LVL302:
 397:generated/setup_scr_wave_model.c **** 	lv_obj_set_style_pad_left(ui->wave_model_three, 0, LV_PART_MAIN | LV_STATE_DEFAULT);
 2257              		.loc 1 397 2 view .LVU515
 2258 0b98 2A46     		mov	r2, r5
 2259 0b9a 2946     		mov	r1, r5
 2260 0b9c E06D     		ldr	r0, [r4, #92]
 2261 0b9e FFF7FEFF 		bl	lv_obj_set_style_pad_left
 2262              	.LVL303:
 398:generated/setup_scr_wave_model.c **** 	lv_obj_set_style_shadow_width(ui->wave_model_three, 0, LV_PART_MAIN | LV_STATE_DEFAULT);
 2263              		.loc 1 398 2 view .LVU516
 2264 0ba2 2A46     		mov	r2, r5
 2265 0ba4 2946     		mov	r1, r5
 2266 0ba6 E06D     		ldr	r0, [r4, #92]
 2267 0ba8 FFF7FEFF 		bl	lv_obj_set_style_shadow_width
 2268              	.LVL304:
 399:generated/setup_scr_wave_model.c **** 
 400:generated/setup_scr_wave_model.c **** 	// Write codes wave_model_N__
 401:generated/setup_scr_wave_model.c **** 	ui->wave_model_N__ = lv_label_create(ui->wave_model);
 2269              		.loc 1 401 2 view .LVU517
 2270              		.loc 1 401 23 is_stmt 0 view .LVU518
 2271 0bac 2068     		ldr	r0, [r4]
 2272 0bae FFF7FEFF 		bl	lv_label_create
 2273              	.LVL305:
 2274              		.loc 1 401 21 discriminator 1 view .LVU519
 2275 0bb2 2066     		str	r0, [r4, #96]
 402:generated/setup_scr_wave_model.c **** 	lv_label_set_text(ui->wave_model_N__, "N");
 2276              		.loc 1 402 2 is_stmt 1 view .LVU520
ARM GAS  C:\usertemp\cctMo5e7.s 			page 64


 2277 0bb4 7C49     		ldr	r1, .L13+12
 2278 0bb6 FFF7FEFF 		bl	lv_label_set_text
 2279              	.LVL306:
 403:generated/setup_scr_wave_model.c **** 	lv_label_set_long_mode(ui->wave_model_N__, LV_LABEL_LONG_WRAP);
 2280              		.loc 1 403 2 view .LVU521
 2281 0bba 2946     		mov	r1, r5
 2282 0bbc 206E     		ldr	r0, [r4, #96]
 2283 0bbe FFF7FEFF 		bl	lv_label_set_long_mode
 2284              	.LVL307:
 404:generated/setup_scr_wave_model.c **** 	lv_obj_set_pos(ui->wave_model_N__, 460, 29);
 2285              		.loc 1 404 2 view .LVU522
 2286 0bc2 1D22     		movs	r2, #29
 2287 0bc4 4FF4E671 		mov	r1, #460
 2288 0bc8 206E     		ldr	r0, [r4, #96]
 2289 0bca FFF7FEFF 		bl	lv_obj_set_pos
 2290              	.LVL308:
 405:generated/setup_scr_wave_model.c **** 	lv_obj_set_size(ui->wave_model_N__, 100, 32);
 2291              		.loc 1 405 2 view .LVU523
 2292 0bce 2022     		movs	r2, #32
 2293 0bd0 6421     		movs	r1, #100
 2294 0bd2 206E     		ldr	r0, [r4, #96]
 2295 0bd4 FFF7FEFF 		bl	lv_obj_set_size
 2296              	.LVL309:
 406:generated/setup_scr_wave_model.c **** 
 407:generated/setup_scr_wave_model.c **** 	// Write style for wave_model_N__, Part: LV_PART_MAIN, State: LV_STATE_DEFAULT.
 408:generated/setup_scr_wave_model.c **** 	lv_obj_set_style_border_width(ui->wave_model_N__, 0, LV_PART_MAIN | LV_STATE_DEFAULT);
 2297              		.loc 1 408 2 view .LVU524
 2298 0bd8 2A46     		mov	r2, r5
 2299 0bda 2946     		mov	r1, r5
 2300 0bdc 206E     		ldr	r0, [r4, #96]
 2301 0bde FFF7FEFF 		bl	lv_obj_set_style_border_width
 2302              	.LVL310:
 409:generated/setup_scr_wave_model.c **** 	lv_obj_set_style_radius(ui->wave_model_N__, 0, LV_PART_MAIN | LV_STATE_DEFAULT);
 2303              		.loc 1 409 2 view .LVU525
 2304 0be2 2A46     		mov	r2, r5
 2305 0be4 2946     		mov	r1, r5
 2306 0be6 206E     		ldr	r0, [r4, #96]
 2307 0be8 FFF7FEFF 		bl	lv_obj_set_style_radius
 2308              	.LVL311:
 410:generated/setup_scr_wave_model.c **** 	lv_obj_set_style_text_color(ui->wave_model_N__, lv_color_hex(0x000000), LV_PART_MAIN | LV_STATE_DE
 2309              		.loc 1 410 2 view .LVU526
 2310              	.LBB204:
 2311              	.LBI204:
 597:lvgl/src/hal/../draw/../misc/lv_color.h **** {
 2312              		.loc 3 597 26 view .LVU527
 2313              	.LBB205:
 600:lvgl/src/hal/../draw/../misc/lv_color.h **** #if LV_COLOR_16_SWAP == 0
 2314              		.loc 3 600 5 view .LVU528
 616:lvgl/src/hal/../draw/../misc/lv_color.h **** #else
 2315              		.loc 3 616 5 view .LVU529
 2316              		.loc 3 621 5 view .LVU530
 2317              		.loc 3 621 5 is_stmt 0 view .LVU531
 2318              	.LBE205:
 2319              	.LBE204:
 2320              		.loc 1 410 2 discriminator 1 view .LVU532
 2321 0bec 2A46     		mov	r2, r5
 2322 0bee 2946     		mov	r1, r5	@ movhi
ARM GAS  C:\usertemp\cctMo5e7.s 			page 65


 2323 0bf0 206E     		ldr	r0, [r4, #96]
 2324 0bf2 FFF7FEFF 		bl	lv_obj_set_style_text_color
 2325              	.LVL312:
 411:generated/setup_scr_wave_model.c **** 	lv_obj_set_style_text_font(ui->wave_model_N__, &lv_font_arial_32, LV_PART_MAIN | LV_STATE_DEFAULT)
 2326              		.loc 1 411 2 is_stmt 1 view .LVU533
 2327 0bf6 2A46     		mov	r2, r5
 2328 0bf8 3146     		mov	r1, r6
 2329 0bfa 206E     		ldr	r0, [r4, #96]
 2330 0bfc FFF7FEFF 		bl	lv_obj_set_style_text_font
 2331              	.LVL313:
 412:generated/setup_scr_wave_model.c **** 	lv_obj_set_style_text_letter_space(ui->wave_model_N__, 2, LV_PART_MAIN | LV_STATE_DEFAULT);
 2332              		.loc 1 412 2 view .LVU534
 2333 0c00 2A46     		mov	r2, r5
 2334 0c02 0221     		movs	r1, #2
 2335 0c04 206E     		ldr	r0, [r4, #96]
 2336 0c06 FFF7FEFF 		bl	lv_obj_set_style_text_letter_space
 2337              	.LVL314:
 413:generated/setup_scr_wave_model.c **** 	lv_obj_set_style_text_line_space(ui->wave_model_N__, 0, LV_PART_MAIN | LV_STATE_DEFAULT);
 2338              		.loc 1 413 2 view .LVU535
 2339 0c0a 2A46     		mov	r2, r5
 2340 0c0c 2946     		mov	r1, r5
 2341 0c0e 206E     		ldr	r0, [r4, #96]
 2342 0c10 FFF7FEFF 		bl	lv_obj_set_style_text_line_space
 2343              	.LVL315:
 414:generated/setup_scr_wave_model.c **** 	lv_obj_set_style_text_align(ui->wave_model_N__, LV_TEXT_ALIGN_CENTER, LV_PART_MAIN | LV_STATE_DEFA
 2344              		.loc 1 414 2 view .LVU536
 2345 0c14 2A46     		mov	r2, r5
 2346 0c16 0221     		movs	r1, #2
 2347 0c18 206E     		ldr	r0, [r4, #96]
 2348 0c1a FFF7FEFF 		bl	lv_obj_set_style_text_align
 2349              	.LVL316:
 415:generated/setup_scr_wave_model.c **** 	lv_obj_set_style_bg_opa(ui->wave_model_N__, 0, LV_PART_MAIN | LV_STATE_DEFAULT);
 2350              		.loc 1 415 2 view .LVU537
 2351 0c1e 2A46     		mov	r2, r5
 2352 0c20 2946     		mov	r1, r5
 2353 0c22 206E     		ldr	r0, [r4, #96]
 2354 0c24 FFF7FEFF 		bl	lv_obj_set_style_bg_opa
 2355              	.LVL317:
 416:generated/setup_scr_wave_model.c **** 	lv_obj_set_style_pad_top(ui->wave_model_N__, 0, LV_PART_MAIN | LV_STATE_DEFAULT);
 2356              		.loc 1 416 2 view .LVU538
 2357 0c28 2A46     		mov	r2, r5
 2358 0c2a 2946     		mov	r1, r5
 2359 0c2c 206E     		ldr	r0, [r4, #96]
 2360 0c2e FFF7FEFF 		bl	lv_obj_set_style_pad_top
 2361              	.LVL318:
 417:generated/setup_scr_wave_model.c **** 	lv_obj_set_style_pad_right(ui->wave_model_N__, 0, LV_PART_MAIN | LV_STATE_DEFAULT);
 2362              		.loc 1 417 2 view .LVU539
 2363 0c32 2A46     		mov	r2, r5
 2364 0c34 2946     		mov	r1, r5
 2365 0c36 206E     		ldr	r0, [r4, #96]
 2366 0c38 FFF7FEFF 		bl	lv_obj_set_style_pad_right
 2367              	.LVL319:
 418:generated/setup_scr_wave_model.c **** 	lv_obj_set_style_pad_bottom(ui->wave_model_N__, 0, LV_PART_MAIN | LV_STATE_DEFAULT);
 2368              		.loc 1 418 2 view .LVU540
 2369 0c3c 2A46     		mov	r2, r5
 2370 0c3e 2946     		mov	r1, r5
 2371 0c40 206E     		ldr	r0, [r4, #96]
ARM GAS  C:\usertemp\cctMo5e7.s 			page 66


 2372 0c42 FFF7FEFF 		bl	lv_obj_set_style_pad_bottom
 2373              	.LVL320:
 419:generated/setup_scr_wave_model.c **** 	lv_obj_set_style_pad_left(ui->wave_model_N__, 0, LV_PART_MAIN | LV_STATE_DEFAULT);
 2374              		.loc 1 419 2 view .LVU541
 2375 0c46 2A46     		mov	r2, r5
 2376 0c48 2946     		mov	r1, r5
 2377 0c4a 206E     		ldr	r0, [r4, #96]
 2378 0c4c FFF7FEFF 		bl	lv_obj_set_style_pad_left
 2379              	.LVL321:
 420:generated/setup_scr_wave_model.c **** 	lv_obj_set_style_shadow_width(ui->wave_model_N__, 0, LV_PART_MAIN | LV_STATE_DEFAULT);
 2380              		.loc 1 420 2 view .LVU542
 2381 0c50 2A46     		mov	r2, r5
 2382 0c52 2946     		mov	r1, r5
 2383 0c54 206E     		ldr	r0, [r4, #96]
 2384 0c56 FFF7FEFF 		bl	lv_obj_set_style_shadow_width
 2385              	.LVL322:
 421:generated/setup_scr_wave_model.c **** 
 422:generated/setup_scr_wave_model.c **** 	// Write codes wave_model_one_value
 423:generated/setup_scr_wave_model.c **** 	ui->wave_model_one_value = lv_label_create(ui->wave_model);
 2386              		.loc 1 423 2 view .LVU543
 2387              		.loc 1 423 29 is_stmt 0 view .LVU544
 2388 0c5a 2068     		ldr	r0, [r4]
 2389 0c5c FFF7FEFF 		bl	lv_label_create
 2390              	.LVL323:
 2391              		.loc 1 423 27 discriminator 1 view .LVU545
 2392 0c60 6066     		str	r0, [r4, #100]
 424:generated/setup_scr_wave_model.c **** 	lv_label_set_text(ui->wave_model_one_value, "000.0V");
 2393              		.loc 1 424 2 is_stmt 1 view .LVU546
 2394 0c62 524F     		ldr	r7, .L13+16
 2395 0c64 3946     		mov	r1, r7
 2396 0c66 FFF7FEFF 		bl	lv_label_set_text
 2397              	.LVL324:
 425:generated/setup_scr_wave_model.c **** 	lv_label_set_long_mode(ui->wave_model_one_value, LV_LABEL_LONG_WRAP);
 2398              		.loc 1 425 2 view .LVU547
 2399 0c6a 2946     		mov	r1, r5
 2400 0c6c 606E     		ldr	r0, [r4, #100]
 2401 0c6e FFF7FEFF 		bl	lv_label_set_long_mode
 2402              	.LVL325:
 426:generated/setup_scr_wave_model.c **** 	lv_obj_set_pos(ui->wave_model_one_value, 47, 31);
 2403              		.loc 1 426 2 view .LVU548
 2404 0c72 4246     		mov	r2, r8
 2405 0c74 2F21     		movs	r1, #47
 2406 0c76 606E     		ldr	r0, [r4, #100]
 2407 0c78 FFF7FEFF 		bl	lv_obj_set_pos
 2408              	.LVL326:
 427:generated/setup_scr_wave_model.c **** 	lv_obj_set_size(ui->wave_model_one_value, 120, 30);
 2409              		.loc 1 427 2 view .LVU549
 2410 0c7c 1E22     		movs	r2, #30
 2411 0c7e 7821     		movs	r1, #120
 2412 0c80 606E     		ldr	r0, [r4, #100]
 2413 0c82 FFF7FEFF 		bl	lv_obj_set_size
 2414              	.LVL327:
 428:generated/setup_scr_wave_model.c **** 
 429:generated/setup_scr_wave_model.c **** 	// Write style for wave_model_one_value, Part: LV_PART_MAIN, State: LV_STATE_DEFAULT.
 430:generated/setup_scr_wave_model.c **** 	lv_obj_set_style_border_width(ui->wave_model_one_value, 0, LV_PART_MAIN | LV_STATE_DEFAULT);
 2415              		.loc 1 430 2 view .LVU550
 2416 0c86 2A46     		mov	r2, r5
ARM GAS  C:\usertemp\cctMo5e7.s 			page 67


 2417 0c88 2946     		mov	r1, r5
 2418 0c8a 606E     		ldr	r0, [r4, #100]
 2419 0c8c FFF7FEFF 		bl	lv_obj_set_style_border_width
 2420              	.LVL328:
 431:generated/setup_scr_wave_model.c **** 	lv_obj_set_style_radius(ui->wave_model_one_value, 0, LV_PART_MAIN | LV_STATE_DEFAULT);
 2421              		.loc 1 431 2 view .LVU551
 2422 0c90 2A46     		mov	r2, r5
 2423 0c92 2946     		mov	r1, r5
 2424 0c94 606E     		ldr	r0, [r4, #100]
 2425 0c96 FFF7FEFF 		bl	lv_obj_set_style_radius
 2426              	.LVL329:
 432:generated/setup_scr_wave_model.c **** 	lv_obj_set_style_text_color(ui->wave_model_one_value, lv_color_hex(0x000000), LV_PART_MAIN | LV_ST
 2427              		.loc 1 432 2 view .LVU552
 2428              	.LBB206:
 2429              	.LBI206:
 597:lvgl/src/hal/../draw/../misc/lv_color.h **** {
 2430              		.loc 3 597 26 view .LVU553
 2431              	.LBB207:
 600:lvgl/src/hal/../draw/../misc/lv_color.h **** #if LV_COLOR_16_SWAP == 0
 2432              		.loc 3 600 5 view .LVU554
 616:lvgl/src/hal/../draw/../misc/lv_color.h **** #else
 2433              		.loc 3 616 5 view .LVU555
 2434              		.loc 3 621 5 view .LVU556
 2435              		.loc 3 621 5 is_stmt 0 view .LVU557
 2436              	.LBE207:
 2437              	.LBE206:
 2438              		.loc 1 432 2 discriminator 1 view .LVU558
 2439 0c9a 2A46     		mov	r2, r5
 2440 0c9c 2946     		mov	r1, r5	@ movhi
 2441 0c9e 606E     		ldr	r0, [r4, #100]
 2442 0ca0 FFF7FEFF 		bl	lv_obj_set_style_text_color
 2443              	.LVL330:
 433:generated/setup_scr_wave_model.c **** 	lv_obj_set_style_text_font(ui->wave_model_one_value, &lv_font_arial_30, LV_PART_MAIN | LV_STATE_DE
 2444              		.loc 1 433 2 is_stmt 1 view .LVU559
 2445 0ca4 424E     		ldr	r6, .L13+20
 2446 0ca6 2A46     		mov	r2, r5
 2447 0ca8 3146     		mov	r1, r6
 2448 0caa 606E     		ldr	r0, [r4, #100]
 2449 0cac FFF7FEFF 		bl	lv_obj_set_style_text_font
 2450              	.LVL331:
 434:generated/setup_scr_wave_model.c **** 	lv_obj_set_style_text_letter_space(ui->wave_model_one_value, 2, LV_PART_MAIN | LV_STATE_DEFAULT);
 2451              		.loc 1 434 2 view .LVU560
 2452 0cb0 2A46     		mov	r2, r5
 2453 0cb2 0221     		movs	r1, #2
 2454 0cb4 606E     		ldr	r0, [r4, #100]
 2455 0cb6 FFF7FEFF 		bl	lv_obj_set_style_text_letter_space
 2456              	.LVL332:
 435:generated/setup_scr_wave_model.c **** 	lv_obj_set_style_text_line_space(ui->wave_model_one_value, 0, LV_PART_MAIN | LV_STATE_DEFAULT);
 2457              		.loc 1 435 2 view .LVU561
 2458 0cba 2A46     		mov	r2, r5
 2459 0cbc 2946     		mov	r1, r5
 2460 0cbe 606E     		ldr	r0, [r4, #100]
 2461 0cc0 FFF7FEFF 		bl	lv_obj_set_style_text_line_space
 2462              	.LVL333:
 436:generated/setup_scr_wave_model.c **** 	lv_obj_set_style_text_align(ui->wave_model_one_value, LV_TEXT_ALIGN_LEFT, LV_PART_MAIN | LV_STATE_
 2463              		.loc 1 436 2 view .LVU562
 2464 0cc4 2A46     		mov	r2, r5
ARM GAS  C:\usertemp\cctMo5e7.s 			page 68


 2465 0cc6 0121     		movs	r1, #1
 2466 0cc8 606E     		ldr	r0, [r4, #100]
 2467 0cca FFF7FEFF 		bl	lv_obj_set_style_text_align
 2468              	.LVL334:
 437:generated/setup_scr_wave_model.c **** 	lv_obj_set_style_bg_opa(ui->wave_model_one_value, 0, LV_PART_MAIN | LV_STATE_DEFAULT);
 2469              		.loc 1 437 2 view .LVU563
 2470 0cce 2A46     		mov	r2, r5
 2471 0cd0 2946     		mov	r1, r5
 2472 0cd2 606E     		ldr	r0, [r4, #100]
 2473 0cd4 FFF7FEFF 		bl	lv_obj_set_style_bg_opa
 2474              	.LVL335:
 438:generated/setup_scr_wave_model.c **** 	lv_obj_set_style_pad_top(ui->wave_model_one_value, 0, LV_PART_MAIN | LV_STATE_DEFAULT);
 2475              		.loc 1 438 2 view .LVU564
 2476 0cd8 2A46     		mov	r2, r5
 2477 0cda 2946     		mov	r1, r5
 2478 0cdc 606E     		ldr	r0, [r4, #100]
 2479 0cde FFF7FEFF 		bl	lv_obj_set_style_pad_top
 2480              	.LVL336:
 439:generated/setup_scr_wave_model.c **** 	lv_obj_set_style_pad_right(ui->wave_model_one_value, 0, LV_PART_MAIN | LV_STATE_DEFAULT);
 2481              		.loc 1 439 2 view .LVU565
 2482 0ce2 2A46     		mov	r2, r5
 2483 0ce4 2946     		mov	r1, r5
 2484 0ce6 606E     		ldr	r0, [r4, #100]
 2485 0ce8 FFF7FEFF 		bl	lv_obj_set_style_pad_right
 2486              	.LVL337:
 440:generated/setup_scr_wave_model.c **** 	lv_obj_set_style_pad_bottom(ui->wave_model_one_value, 0, LV_PART_MAIN | LV_STATE_DEFAULT);
 2487              		.loc 1 440 2 view .LVU566
 2488 0cec 2A46     		mov	r2, r5
 2489 0cee 2946     		mov	r1, r5
 2490 0cf0 606E     		ldr	r0, [r4, #100]
 2491 0cf2 FFF7FEFF 		bl	lv_obj_set_style_pad_bottom
 2492              	.LVL338:
 441:generated/setup_scr_wave_model.c **** 	lv_obj_set_style_pad_left(ui->wave_model_one_value, 0, LV_PART_MAIN | LV_STATE_DEFAULT);
 2493              		.loc 1 441 2 view .LVU567
 2494 0cf6 2A46     		mov	r2, r5
 2495 0cf8 2946     		mov	r1, r5
 2496 0cfa 606E     		ldr	r0, [r4, #100]
 2497 0cfc FFF7FEFF 		bl	lv_obj_set_style_pad_left
 2498              	.LVL339:
 442:generated/setup_scr_wave_model.c **** 	lv_obj_set_style_shadow_width(ui->wave_model_one_value, 0, LV_PART_MAIN | LV_STATE_DEFAULT);
 2499              		.loc 1 442 2 view .LVU568
 2500 0d00 2A46     		mov	r2, r5
 2501 0d02 2946     		mov	r1, r5
 2502 0d04 606E     		ldr	r0, [r4, #100]
 2503 0d06 FFF7FEFF 		bl	lv_obj_set_style_shadow_width
 2504              	.LVL340:
 443:generated/setup_scr_wave_model.c **** 
 444:generated/setup_scr_wave_model.c **** 	// Write codes wave_model_two_value
 445:generated/setup_scr_wave_model.c **** 	ui->wave_model_two_value = lv_label_create(ui->wave_model);
 2505              		.loc 1 445 2 view .LVU569
 2506              		.loc 1 445 29 is_stmt 0 view .LVU570
 2507 0d0a 2068     		ldr	r0, [r4]
 2508 0d0c FFF7FEFF 		bl	lv_label_create
 2509              	.LVL341:
 2510              		.loc 1 445 27 discriminator 1 view .LVU571
 2511 0d10 A066     		str	r0, [r4, #104]
 446:generated/setup_scr_wave_model.c **** 	lv_label_set_text(ui->wave_model_two_value, "000.0V");
ARM GAS  C:\usertemp\cctMo5e7.s 			page 69


 2512              		.loc 1 446 2 is_stmt 1 view .LVU572
 2513 0d12 3946     		mov	r1, r7
 2514 0d14 FFF7FEFF 		bl	lv_label_set_text
 2515              	.LVL342:
 447:generated/setup_scr_wave_model.c **** 	lv_label_set_long_mode(ui->wave_model_two_value, LV_LABEL_LONG_WRAP);
 2516              		.loc 1 447 2 view .LVU573
 2517 0d18 2946     		mov	r1, r5
 2518 0d1a A06E     		ldr	r0, [r4, #104]
 2519 0d1c FFF7FEFF 		bl	lv_label_set_long_mode
 2520              	.LVL343:
 448:generated/setup_scr_wave_model.c **** 	lv_obj_set_pos(ui->wave_model_two_value, 210, 27);
 2521              		.loc 1 448 2 view .LVU574
 2522 0d20 1B22     		movs	r2, #27
 2523 0d22 D221     		movs	r1, #210
 2524 0d24 A06E     		ldr	r0, [r4, #104]
 2525 0d26 FFF7FEFF 		bl	lv_obj_set_pos
 2526              	.LVL344:
 449:generated/setup_scr_wave_model.c **** 	lv_obj_set_size(ui->wave_model_two_value, 120, 30);
 2527              		.loc 1 449 2 view .LVU575
 2528 0d2a 1E22     		movs	r2, #30
 2529 0d2c 7821     		movs	r1, #120
 2530 0d2e A06E     		ldr	r0, [r4, #104]
 2531 0d30 FFF7FEFF 		bl	lv_obj_set_size
 2532              	.LVL345:
 450:generated/setup_scr_wave_model.c **** 
 451:generated/setup_scr_wave_model.c **** 	// Write style for wave_model_two_value, Part: LV_PART_MAIN, State: LV_STATE_DEFAULT.
 452:generated/setup_scr_wave_model.c **** 	lv_obj_set_style_border_width(ui->wave_model_two_value, 0, LV_PART_MAIN | LV_STATE_DEFAULT);
 2533              		.loc 1 452 2 view .LVU576
 2534 0d34 2A46     		mov	r2, r5
 2535 0d36 2946     		mov	r1, r5
 2536 0d38 A06E     		ldr	r0, [r4, #104]
 2537 0d3a FFF7FEFF 		bl	lv_obj_set_style_border_width
 2538              	.LVL346:
 453:generated/setup_scr_wave_model.c **** 	lv_obj_set_style_radius(ui->wave_model_two_value, 0, LV_PART_MAIN | LV_STATE_DEFAULT);
 2539              		.loc 1 453 2 view .LVU577
 2540 0d3e 2A46     		mov	r2, r5
 2541 0d40 2946     		mov	r1, r5
 2542 0d42 A06E     		ldr	r0, [r4, #104]
 2543 0d44 FFF7FEFF 		bl	lv_obj_set_style_radius
 2544              	.LVL347:
 454:generated/setup_scr_wave_model.c **** 	lv_obj_set_style_text_color(ui->wave_model_two_value, lv_color_hex(0x000000), LV_PART_MAIN | LV_ST
 2545              		.loc 1 454 2 view .LVU578
 2546              	.LBB208:
 2547              	.LBI208:
 597:lvgl/src/hal/../draw/../misc/lv_color.h **** {
 2548              		.loc 3 597 26 view .LVU579
 2549              	.LBB209:
 600:lvgl/src/hal/../draw/../misc/lv_color.h **** #if LV_COLOR_16_SWAP == 0
 2550              		.loc 3 600 5 view .LVU580
 616:lvgl/src/hal/../draw/../misc/lv_color.h **** #else
 2551              		.loc 3 616 5 view .LVU581
 2552              		.loc 3 621 5 view .LVU582
 2553              		.loc 3 621 5 is_stmt 0 view .LVU583
 2554              	.LBE209:
 2555              	.LBE208:
 2556              		.loc 1 454 2 discriminator 1 view .LVU584
 2557 0d48 2A46     		mov	r2, r5
ARM GAS  C:\usertemp\cctMo5e7.s 			page 70


 2558 0d4a 2946     		mov	r1, r5	@ movhi
 2559 0d4c A06E     		ldr	r0, [r4, #104]
 2560 0d4e FFF7FEFF 		bl	lv_obj_set_style_text_color
 2561              	.LVL348:
 455:generated/setup_scr_wave_model.c **** 	lv_obj_set_style_text_font(ui->wave_model_two_value, &lv_font_arial_30, LV_PART_MAIN | LV_STATE_DE
 2562              		.loc 1 455 2 is_stmt 1 view .LVU585
 2563 0d52 2A46     		mov	r2, r5
 2564 0d54 3146     		mov	r1, r6
 2565 0d56 A06E     		ldr	r0, [r4, #104]
 2566 0d58 FFF7FEFF 		bl	lv_obj_set_style_text_font
 2567              	.LVL349:
 456:generated/setup_scr_wave_model.c **** 	lv_obj_set_style_text_letter_space(ui->wave_model_two_value, 2, LV_PART_MAIN | LV_STATE_DEFAULT);
 2568              		.loc 1 456 2 view .LVU586
 2569 0d5c 2A46     		mov	r2, r5
 2570 0d5e 0221     		movs	r1, #2
 2571 0d60 A06E     		ldr	r0, [r4, #104]
 2572 0d62 FFF7FEFF 		bl	lv_obj_set_style_text_letter_space
 2573              	.LVL350:
 457:generated/setup_scr_wave_model.c **** 	lv_obj_set_style_text_line_space(ui->wave_model_two_value, 0, LV_PART_MAIN | LV_STATE_DEFAULT);
 2574              		.loc 1 457 2 view .LVU587
 2575 0d66 2A46     		mov	r2, r5
 2576 0d68 2946     		mov	r1, r5
 2577 0d6a A06E     		ldr	r0, [r4, #104]
 2578 0d6c FFF7FEFF 		bl	lv_obj_set_style_text_line_space
 2579              	.LVL351:
 458:generated/setup_scr_wave_model.c **** 	lv_obj_set_style_text_align(ui->wave_model_two_value, LV_TEXT_ALIGN_LEFT, LV_PART_MAIN | LV_STATE_
 2580              		.loc 1 458 2 view .LVU588
 2581 0d70 2A46     		mov	r2, r5
 2582 0d72 0121     		movs	r1, #1
 2583 0d74 A06E     		ldr	r0, [r4, #104]
 2584 0d76 FFF7FEFF 		bl	lv_obj_set_style_text_align
 2585              	.LVL352:
 459:generated/setup_scr_wave_model.c **** 	lv_obj_set_style_bg_opa(ui->wave_model_two_value, 0, LV_PART_MAIN | LV_STATE_DEFAULT);
 2586              		.loc 1 459 2 view .LVU589
 2587 0d7a 2A46     		mov	r2, r5
 2588 0d7c 2946     		mov	r1, r5
 2589 0d7e A06E     		ldr	r0, [r4, #104]
 2590 0d80 FFF7FEFF 		bl	lv_obj_set_style_bg_opa
 2591              	.LVL353:
 460:generated/setup_scr_wave_model.c **** 	lv_obj_set_style_pad_top(ui->wave_model_two_value, 0, LV_PART_MAIN | LV_STATE_DEFAULT);
 2592              		.loc 1 460 2 view .LVU590
 2593 0d84 2A46     		mov	r2, r5
 2594 0d86 2946     		mov	r1, r5
 2595 0d88 A06E     		ldr	r0, [r4, #104]
 2596 0d8a FFF7FEFF 		bl	lv_obj_set_style_pad_top
 2597              	.LVL354:
 461:generated/setup_scr_wave_model.c **** 	lv_obj_set_style_pad_right(ui->wave_model_two_value, 0, LV_PART_MAIN | LV_STATE_DEFAULT);
 2598              		.loc 1 461 2 view .LVU591
 2599 0d8e 2A46     		mov	r2, r5
 2600 0d90 2946     		mov	r1, r5
 2601 0d92 A06E     		ldr	r0, [r4, #104]
 2602 0d94 FFF7FEFF 		bl	lv_obj_set_style_pad_right
 2603              	.LVL355:
 2604 0d98 0CE0     		b	.L14
 2605              	.L15:
 2606 0d9a 00BF     		.align	2
 2607              	.L13:
ARM GAS  C:\usertemp\cctMo5e7.s 			page 71


 2608 0d9c 2C000000 		.word	.LC9
 2609 0da0 00000000 		.word	lv_font_arial_32
 2610 0da4 30000000 		.word	.LC10
 2611 0da8 18000000 		.word	.LC6
 2612 0dac 34000000 		.word	.LC11
 2613 0db0 00000000 		.word	lv_font_arial_30
 2614              	.L14:
 462:generated/setup_scr_wave_model.c **** 	lv_obj_set_style_pad_bottom(ui->wave_model_two_value, 0, LV_PART_MAIN | LV_STATE_DEFAULT);
 2615              		.loc 1 462 2 view .LVU592
 2616 0db4 2A46     		mov	r2, r5
 2617 0db6 2946     		mov	r1, r5
 2618 0db8 A06E     		ldr	r0, [r4, #104]
 2619 0dba FFF7FEFF 		bl	lv_obj_set_style_pad_bottom
 2620              	.LVL356:
 463:generated/setup_scr_wave_model.c **** 	lv_obj_set_style_pad_left(ui->wave_model_two_value, 0, LV_PART_MAIN | LV_STATE_DEFAULT);
 2621              		.loc 1 463 2 view .LVU593
 2622 0dbe 2A46     		mov	r2, r5
 2623 0dc0 2946     		mov	r1, r5
 2624 0dc2 A06E     		ldr	r0, [r4, #104]
 2625 0dc4 FFF7FEFF 		bl	lv_obj_set_style_pad_left
 2626              	.LVL357:
 464:generated/setup_scr_wave_model.c **** 	lv_obj_set_style_shadow_width(ui->wave_model_two_value, 0, LV_PART_MAIN | LV_STATE_DEFAULT);
 2627              		.loc 1 464 2 view .LVU594
 2628 0dc8 2A46     		mov	r2, r5
 2629 0dca 2946     		mov	r1, r5
 2630 0dcc A06E     		ldr	r0, [r4, #104]
 2631 0dce FFF7FEFF 		bl	lv_obj_set_style_shadow_width
 2632              	.LVL358:
 465:generated/setup_scr_wave_model.c **** 
 466:generated/setup_scr_wave_model.c **** 	// Write codes wave_model_three_value
 467:generated/setup_scr_wave_model.c **** 	ui->wave_model_three_value = lv_label_create(ui->wave_model);
 2633              		.loc 1 467 2 view .LVU595
 2634              		.loc 1 467 31 is_stmt 0 view .LVU596
 2635 0dd2 2068     		ldr	r0, [r4]
 2636 0dd4 FFF7FEFF 		bl	lv_label_create
 2637              	.LVL359:
 2638              		.loc 1 467 29 discriminator 1 view .LVU597
 2639 0dd8 E066     		str	r0, [r4, #108]
 468:generated/setup_scr_wave_model.c **** 	lv_label_set_text(ui->wave_model_three_value, "000.0V");
 2640              		.loc 1 468 2 is_stmt 1 view .LVU598
 2641 0dda 3946     		mov	r1, r7
 2642 0ddc FFF7FEFF 		bl	lv_label_set_text
 2643              	.LVL360:
 469:generated/setup_scr_wave_model.c **** 	lv_label_set_long_mode(ui->wave_model_three_value, LV_LABEL_LONG_WRAP);
 2644              		.loc 1 469 2 view .LVU599
 2645 0de0 2946     		mov	r1, r5
 2646 0de2 E06E     		ldr	r0, [r4, #108]
 2647 0de4 FFF7FEFF 		bl	lv_label_set_long_mode
 2648              	.LVL361:
 470:generated/setup_scr_wave_model.c **** 	lv_obj_set_pos(ui->wave_model_three_value, 375, 27);
 2649              		.loc 1 470 2 view .LVU600
 2650 0de8 1B22     		movs	r2, #27
 2651 0dea 40F27711 		movw	r1, #375
 2652 0dee E06E     		ldr	r0, [r4, #108]
 2653 0df0 FFF7FEFF 		bl	lv_obj_set_pos
 2654              	.LVL362:
 471:generated/setup_scr_wave_model.c **** 	lv_obj_set_size(ui->wave_model_three_value, 120, 90);
ARM GAS  C:\usertemp\cctMo5e7.s 			page 72


 2655              		.loc 1 471 2 view .LVU601
 2656 0df4 5A22     		movs	r2, #90
 2657 0df6 7821     		movs	r1, #120
 2658 0df8 E06E     		ldr	r0, [r4, #108]
 2659 0dfa FFF7FEFF 		bl	lv_obj_set_size
 2660              	.LVL363:
 472:generated/setup_scr_wave_model.c **** 
 473:generated/setup_scr_wave_model.c **** 	// Write style for wave_model_three_value, Part: LV_PART_MAIN, State: LV_STATE_DEFAULT.
 474:generated/setup_scr_wave_model.c **** 	lv_obj_set_style_border_width(ui->wave_model_three_value, 0, LV_PART_MAIN | LV_STATE_DEFAULT);
 2661              		.loc 1 474 2 view .LVU602
 2662 0dfe 2A46     		mov	r2, r5
 2663 0e00 2946     		mov	r1, r5
 2664 0e02 E06E     		ldr	r0, [r4, #108]
 2665 0e04 FFF7FEFF 		bl	lv_obj_set_style_border_width
 2666              	.LVL364:
 475:generated/setup_scr_wave_model.c **** 	lv_obj_set_style_radius(ui->wave_model_three_value, 0, LV_PART_MAIN | LV_STATE_DEFAULT);
 2667              		.loc 1 475 2 view .LVU603
 2668 0e08 2A46     		mov	r2, r5
 2669 0e0a 2946     		mov	r1, r5
 2670 0e0c E06E     		ldr	r0, [r4, #108]
 2671 0e0e FFF7FEFF 		bl	lv_obj_set_style_radius
 2672              	.LVL365:
 476:generated/setup_scr_wave_model.c **** 	lv_obj_set_style_text_color(ui->wave_model_three_value, lv_color_hex(0x000000), LV_PART_MAIN | LV_
 2673              		.loc 1 476 2 view .LVU604
 2674              	.LBB210:
 2675              	.LBI210:
 597:lvgl/src/hal/../draw/../misc/lv_color.h **** {
 2676              		.loc 3 597 26 view .LVU605
 2677              	.LBB211:
 600:lvgl/src/hal/../draw/../misc/lv_color.h **** #if LV_COLOR_16_SWAP == 0
 2678              		.loc 3 600 5 view .LVU606
 616:lvgl/src/hal/../draw/../misc/lv_color.h **** #else
 2679              		.loc 3 616 5 view .LVU607
 2680              		.loc 3 621 5 view .LVU608
 2681              		.loc 3 621 5 is_stmt 0 view .LVU609
 2682              	.LBE211:
 2683              	.LBE210:
 2684              		.loc 1 476 2 discriminator 1 view .LVU610
 2685 0e12 2A46     		mov	r2, r5
 2686 0e14 2946     		mov	r1, r5	@ movhi
 2687 0e16 E06E     		ldr	r0, [r4, #108]
 2688 0e18 FFF7FEFF 		bl	lv_obj_set_style_text_color
 2689              	.LVL366:
 477:generated/setup_scr_wave_model.c **** 	lv_obj_set_style_text_font(ui->wave_model_three_value, &lv_font_arial_30, LV_PART_MAIN | LV_STATE_
 2690              		.loc 1 477 2 is_stmt 1 view .LVU611
 2691 0e1c 2A46     		mov	r2, r5
 2692 0e1e 3146     		mov	r1, r6
 2693 0e20 E06E     		ldr	r0, [r4, #108]
 2694 0e22 FFF7FEFF 		bl	lv_obj_set_style_text_font
 2695              	.LVL367:
 478:generated/setup_scr_wave_model.c **** 	lv_obj_set_style_text_letter_space(ui->wave_model_three_value, 2, LV_PART_MAIN | LV_STATE_DEFAULT)
 2696              		.loc 1 478 2 view .LVU612
 2697 0e26 2A46     		mov	r2, r5
 2698 0e28 0221     		movs	r1, #2
 2699 0e2a E06E     		ldr	r0, [r4, #108]
 2700 0e2c FFF7FEFF 		bl	lv_obj_set_style_text_letter_space
 2701              	.LVL368:
ARM GAS  C:\usertemp\cctMo5e7.s 			page 73


 479:generated/setup_scr_wave_model.c **** 	lv_obj_set_style_text_line_space(ui->wave_model_three_value, 0, LV_PART_MAIN | LV_STATE_DEFAULT);
 2702              		.loc 1 479 2 view .LVU613
 2703 0e30 2A46     		mov	r2, r5
 2704 0e32 2946     		mov	r1, r5
 2705 0e34 E06E     		ldr	r0, [r4, #108]
 2706 0e36 FFF7FEFF 		bl	lv_obj_set_style_text_line_space
 2707              	.LVL369:
 480:generated/setup_scr_wave_model.c **** 	lv_obj_set_style_text_align(ui->wave_model_three_value, LV_TEXT_ALIGN_LEFT, LV_PART_MAIN | LV_STAT
 2708              		.loc 1 480 2 view .LVU614
 2709 0e3a 2A46     		mov	r2, r5
 2710 0e3c 0121     		movs	r1, #1
 2711 0e3e E06E     		ldr	r0, [r4, #108]
 2712 0e40 FFF7FEFF 		bl	lv_obj_set_style_text_align
 2713              	.LVL370:
 481:generated/setup_scr_wave_model.c **** 	lv_obj_set_style_bg_opa(ui->wave_model_three_value, 0, LV_PART_MAIN | LV_STATE_DEFAULT);
 2714              		.loc 1 481 2 view .LVU615
 2715 0e44 2A46     		mov	r2, r5
 2716 0e46 2946     		mov	r1, r5
 2717 0e48 E06E     		ldr	r0, [r4, #108]
 2718 0e4a FFF7FEFF 		bl	lv_obj_set_style_bg_opa
 2719              	.LVL371:
 482:generated/setup_scr_wave_model.c **** 	lv_obj_set_style_pad_top(ui->wave_model_three_value, 0, LV_PART_MAIN | LV_STATE_DEFAULT);
 2720              		.loc 1 482 2 view .LVU616
 2721 0e4e 2A46     		mov	r2, r5
 2722 0e50 2946     		mov	r1, r5
 2723 0e52 E06E     		ldr	r0, [r4, #108]
 2724 0e54 FFF7FEFF 		bl	lv_obj_set_style_pad_top
 2725              	.LVL372:
 483:generated/setup_scr_wave_model.c **** 	lv_obj_set_style_pad_right(ui->wave_model_three_value, 0, LV_PART_MAIN | LV_STATE_DEFAULT);
 2726              		.loc 1 483 2 view .LVU617
 2727 0e58 2A46     		mov	r2, r5
 2728 0e5a 2946     		mov	r1, r5
 2729 0e5c E06E     		ldr	r0, [r4, #108]
 2730 0e5e FFF7FEFF 		bl	lv_obj_set_style_pad_right
 2731              	.LVL373:
 484:generated/setup_scr_wave_model.c **** 	lv_obj_set_style_pad_bottom(ui->wave_model_three_value, 0, LV_PART_MAIN | LV_STATE_DEFAULT);
 2732              		.loc 1 484 2 view .LVU618
 2733 0e62 2A46     		mov	r2, r5
 2734 0e64 2946     		mov	r1, r5
 2735 0e66 E06E     		ldr	r0, [r4, #108]
 2736 0e68 FFF7FEFF 		bl	lv_obj_set_style_pad_bottom
 2737              	.LVL374:
 485:generated/setup_scr_wave_model.c **** 	lv_obj_set_style_pad_left(ui->wave_model_three_value, 0, LV_PART_MAIN | LV_STATE_DEFAULT);
 2738              		.loc 1 485 2 view .LVU619
 2739 0e6c 2A46     		mov	r2, r5
 2740 0e6e 2946     		mov	r1, r5
 2741 0e70 E06E     		ldr	r0, [r4, #108]
 2742 0e72 FFF7FEFF 		bl	lv_obj_set_style_pad_left
 2743              	.LVL375:
 486:generated/setup_scr_wave_model.c **** 	lv_obj_set_style_shadow_width(ui->wave_model_three_value, 0, LV_PART_MAIN | LV_STATE_DEFAULT);
 2744              		.loc 1 486 2 view .LVU620
 2745 0e76 2A46     		mov	r2, r5
 2746 0e78 2946     		mov	r1, r5
 2747 0e7a E06E     		ldr	r0, [r4, #108]
 2748 0e7c FFF7FEFF 		bl	lv_obj_set_style_shadow_width
 2749              	.LVL376:
 487:generated/setup_scr_wave_model.c **** 
ARM GAS  C:\usertemp\cctMo5e7.s 			page 74


 488:generated/setup_scr_wave_model.c **** 	// Write codes wave_model_label_21
 489:generated/setup_scr_wave_model.c **** 	ui->wave_model_label_21 = lv_label_create(ui->wave_model);
 2750              		.loc 1 489 2 view .LVU621
 2751              		.loc 1 489 28 is_stmt 0 view .LVU622
 2752 0e80 2068     		ldr	r0, [r4]
 2753 0e82 FFF7FEFF 		bl	lv_label_create
 2754              	.LVL377:
 2755              		.loc 1 489 26 discriminator 1 view .LVU623
 2756 0e86 2067     		str	r0, [r4, #112]
 490:generated/setup_scr_wave_model.c **** 	lv_label_set_text(ui->wave_model_label_21, "Label");
 2757              		.loc 1 490 2 is_stmt 1 view .LVU624
 2758 0e88 D849     		ldr	r1, .L16
 2759 0e8a FFF7FEFF 		bl	lv_label_set_text
 2760              	.LVL378:
 491:generated/setup_scr_wave_model.c **** 	lv_label_set_long_mode(ui->wave_model_label_21, LV_LABEL_LONG_WRAP);
 2761              		.loc 1 491 2 view .LVU625
 2762 0e8e 2946     		mov	r1, r5
 2763 0e90 206F     		ldr	r0, [r4, #112]
 2764 0e92 FFF7FEFF 		bl	lv_label_set_long_mode
 2765              	.LVL379:
 492:generated/setup_scr_wave_model.c **** 	lv_obj_set_pos(ui->wave_model_label_21, 77, 413);
 2766              		.loc 1 492 2 view .LVU626
 2767 0e96 40F29D12 		movw	r2, #413
 2768 0e9a 4D21     		movs	r1, #77
 2769 0e9c 206F     		ldr	r0, [r4, #112]
 2770 0e9e FFF7FEFF 		bl	lv_obj_set_pos
 2771              	.LVL380:
 493:generated/setup_scr_wave_model.c **** 	lv_obj_set_size(ui->wave_model_label_21, 108, 27);
 2772              		.loc 1 493 2 view .LVU627
 2773 0ea2 1B22     		movs	r2, #27
 2774 0ea4 6C21     		movs	r1, #108
 2775 0ea6 206F     		ldr	r0, [r4, #112]
 2776 0ea8 FFF7FEFF 		bl	lv_obj_set_size
 2777              	.LVL381:
 494:generated/setup_scr_wave_model.c **** 
 495:generated/setup_scr_wave_model.c **** 	// Write style for wave_model_label_21, Part: LV_PART_MAIN, State: LV_STATE_DEFAULT.
 496:generated/setup_scr_wave_model.c **** 	lv_obj_set_style_border_width(ui->wave_model_label_21, 0, LV_PART_MAIN | LV_STATE_DEFAULT);
 2778              		.loc 1 496 2 view .LVU628
 2779 0eac 2A46     		mov	r2, r5
 2780 0eae 2946     		mov	r1, r5
 2781 0eb0 206F     		ldr	r0, [r4, #112]
 2782 0eb2 FFF7FEFF 		bl	lv_obj_set_style_border_width
 2783              	.LVL382:
 497:generated/setup_scr_wave_model.c **** 	lv_obj_set_style_radius(ui->wave_model_label_21, 0, LV_PART_MAIN | LV_STATE_DEFAULT);
 2784              		.loc 1 497 2 view .LVU629
 2785 0eb6 2A46     		mov	r2, r5
 2786 0eb8 2946     		mov	r1, r5
 2787 0eba 206F     		ldr	r0, [r4, #112]
 2788 0ebc FFF7FEFF 		bl	lv_obj_set_style_radius
 2789              	.LVL383:
 498:generated/setup_scr_wave_model.c **** 	lv_obj_set_style_text_color(ui->wave_model_label_21, lv_color_hex(0x000000), LV_PART_MAIN | LV_STA
 2790              		.loc 1 498 2 view .LVU630
 2791              	.LBB212:
 2792              	.LBI212:
 597:lvgl/src/hal/../draw/../misc/lv_color.h **** {
 2793              		.loc 3 597 26 view .LVU631
 2794              	.LBB213:
ARM GAS  C:\usertemp\cctMo5e7.s 			page 75


 600:lvgl/src/hal/../draw/../misc/lv_color.h **** #if LV_COLOR_16_SWAP == 0
 2795              		.loc 3 600 5 view .LVU632
 616:lvgl/src/hal/../draw/../misc/lv_color.h **** #else
 2796              		.loc 3 616 5 view .LVU633
 2797              		.loc 3 621 5 view .LVU634
 2798              		.loc 3 621 5 is_stmt 0 view .LVU635
 2799              	.LBE213:
 2800              	.LBE212:
 2801              		.loc 1 498 2 discriminator 1 view .LVU636
 2802 0ec0 2A46     		mov	r2, r5
 2803 0ec2 2946     		mov	r1, r5	@ movhi
 2804 0ec4 206F     		ldr	r0, [r4, #112]
 2805 0ec6 FFF7FEFF 		bl	lv_obj_set_style_text_color
 2806              	.LVL384:
 499:generated/setup_scr_wave_model.c **** 	lv_obj_set_style_text_font(ui->wave_model_label_21, &lv_font_arial_16, LV_PART_MAIN | LV_STATE_DEF
 2807              		.loc 1 499 2 is_stmt 1 view .LVU637
 2808 0eca 2A46     		mov	r2, r5
 2809 0ecc C849     		ldr	r1, .L16+4
 2810 0ece 206F     		ldr	r0, [r4, #112]
 2811 0ed0 FFF7FEFF 		bl	lv_obj_set_style_text_font
 2812              	.LVL385:
 500:generated/setup_scr_wave_model.c **** 	lv_obj_set_style_text_letter_space(ui->wave_model_label_21, 2, LV_PART_MAIN | LV_STATE_DEFAULT);
 2813              		.loc 1 500 2 view .LVU638
 2814 0ed4 2A46     		mov	r2, r5
 2815 0ed6 0221     		movs	r1, #2
 2816 0ed8 206F     		ldr	r0, [r4, #112]
 2817 0eda FFF7FEFF 		bl	lv_obj_set_style_text_letter_space
 2818              	.LVL386:
 501:generated/setup_scr_wave_model.c **** 	lv_obj_set_style_text_line_space(ui->wave_model_label_21, 0, LV_PART_MAIN | LV_STATE_DEFAULT);
 2819              		.loc 1 501 2 view .LVU639
 2820 0ede 2A46     		mov	r2, r5
 2821 0ee0 2946     		mov	r1, r5
 2822 0ee2 206F     		ldr	r0, [r4, #112]
 2823 0ee4 FFF7FEFF 		bl	lv_obj_set_style_text_line_space
 2824              	.LVL387:
 502:generated/setup_scr_wave_model.c **** 	lv_obj_set_style_text_align(ui->wave_model_label_21, LV_TEXT_ALIGN_CENTER, LV_PART_MAIN | LV_STATE
 2825              		.loc 1 502 2 view .LVU640
 2826 0ee8 2A46     		mov	r2, r5
 2827 0eea 0221     		movs	r1, #2
 2828 0eec 206F     		ldr	r0, [r4, #112]
 2829 0eee FFF7FEFF 		bl	lv_obj_set_style_text_align
 2830              	.LVL388:
 503:generated/setup_scr_wave_model.c **** 	lv_obj_set_style_bg_opa(ui->wave_model_label_21, 0, LV_PART_MAIN | LV_STATE_DEFAULT);
 2831              		.loc 1 503 2 view .LVU641
 2832 0ef2 2A46     		mov	r2, r5
 2833 0ef4 2946     		mov	r1, r5
 2834 0ef6 206F     		ldr	r0, [r4, #112]
 2835 0ef8 FFF7FEFF 		bl	lv_obj_set_style_bg_opa
 2836              	.LVL389:
 504:generated/setup_scr_wave_model.c **** 	lv_obj_set_style_pad_top(ui->wave_model_label_21, 8, LV_PART_MAIN | LV_STATE_DEFAULT);
 2837              		.loc 1 504 2 view .LVU642
 2838 0efc 2A46     		mov	r2, r5
 2839 0efe 0821     		movs	r1, #8
 2840 0f00 206F     		ldr	r0, [r4, #112]
 2841 0f02 FFF7FEFF 		bl	lv_obj_set_style_pad_top
 2842              	.LVL390:
 505:generated/setup_scr_wave_model.c **** 	lv_obj_set_style_pad_right(ui->wave_model_label_21, 0, LV_PART_MAIN | LV_STATE_DEFAULT);
ARM GAS  C:\usertemp\cctMo5e7.s 			page 76


 2843              		.loc 1 505 2 view .LVU643
 2844 0f06 2A46     		mov	r2, r5
 2845 0f08 2946     		mov	r1, r5
 2846 0f0a 206F     		ldr	r0, [r4, #112]
 2847 0f0c FFF7FEFF 		bl	lv_obj_set_style_pad_right
 2848              	.LVL391:
 506:generated/setup_scr_wave_model.c **** 	lv_obj_set_style_pad_bottom(ui->wave_model_label_21, 0, LV_PART_MAIN | LV_STATE_DEFAULT);
 2849              		.loc 1 506 2 view .LVU644
 2850 0f10 2A46     		mov	r2, r5
 2851 0f12 2946     		mov	r1, r5
 2852 0f14 206F     		ldr	r0, [r4, #112]
 2853 0f16 FFF7FEFF 		bl	lv_obj_set_style_pad_bottom
 2854              	.LVL392:
 507:generated/setup_scr_wave_model.c **** 	lv_obj_set_style_pad_left(ui->wave_model_label_21, 0, LV_PART_MAIN | LV_STATE_DEFAULT);
 2855              		.loc 1 507 2 view .LVU645
 2856 0f1a 2A46     		mov	r2, r5
 2857 0f1c 2946     		mov	r1, r5
 2858 0f1e 206F     		ldr	r0, [r4, #112]
 2859 0f20 FFF7FEFF 		bl	lv_obj_set_style_pad_left
 2860              	.LVL393:
 508:generated/setup_scr_wave_model.c **** 	lv_obj_set_style_shadow_width(ui->wave_model_label_21, 0, LV_PART_MAIN | LV_STATE_DEFAULT);
 2861              		.loc 1 508 2 view .LVU646
 2862 0f24 2A46     		mov	r2, r5
 2863 0f26 2946     		mov	r1, r5
 2864 0f28 206F     		ldr	r0, [r4, #112]
 2865 0f2a FFF7FEFF 		bl	lv_obj_set_style_shadow_width
 2866              	.LVL394:
 509:generated/setup_scr_wave_model.c **** 
 510:generated/setup_scr_wave_model.c **** 	// Write codes wave_model_label_22
 511:generated/setup_scr_wave_model.c **** 	ui->wave_model_label_22 = lv_label_create(ui->wave_model);
 2867              		.loc 1 511 2 view .LVU647
 2868              		.loc 1 511 28 is_stmt 0 view .LVU648
 2869 0f2e 2068     		ldr	r0, [r4]
 2870 0f30 FFF7FEFF 		bl	lv_label_create
 2871              	.LVL395:
 2872              		.loc 1 511 26 discriminator 1 view .LVU649
 2873 0f34 6067     		str	r0, [r4, #116]
 512:generated/setup_scr_wave_model.c **** 	lv_label_set_text(ui->wave_model_label_22, "Label");
 2874              		.loc 1 512 2 is_stmt 1 view .LVU650
 2875 0f36 AD4F     		ldr	r7, .L16
 2876 0f38 3946     		mov	r1, r7
 2877 0f3a FFF7FEFF 		bl	lv_label_set_text
 2878              	.LVL396:
 513:generated/setup_scr_wave_model.c **** 	lv_label_set_long_mode(ui->wave_model_label_22, LV_LABEL_LONG_WRAP);
 2879              		.loc 1 513 2 view .LVU651
 2880 0f3e 2946     		mov	r1, r5
 2881 0f40 606F     		ldr	r0, [r4, #116]
 2882 0f42 FFF7FEFF 		bl	lv_label_set_long_mode
 2883              	.LVL397:
 514:generated/setup_scr_wave_model.c **** 	lv_obj_set_pos(ui->wave_model_label_22, 184, 413);
 2884              		.loc 1 514 2 view .LVU652
 2885 0f46 40F29D12 		movw	r2, #413
 2886 0f4a B821     		movs	r1, #184
 2887 0f4c 606F     		ldr	r0, [r4, #116]
 2888 0f4e FFF7FEFF 		bl	lv_obj_set_pos
 2889              	.LVL398:
 515:generated/setup_scr_wave_model.c **** 	lv_obj_set_size(ui->wave_model_label_22, 100, 32);
ARM GAS  C:\usertemp\cctMo5e7.s 			page 77


 2890              		.loc 1 515 2 view .LVU653
 2891 0f52 2022     		movs	r2, #32
 2892 0f54 6421     		movs	r1, #100
 2893 0f56 606F     		ldr	r0, [r4, #116]
 2894 0f58 FFF7FEFF 		bl	lv_obj_set_size
 2895              	.LVL399:
 516:generated/setup_scr_wave_model.c **** 
 517:generated/setup_scr_wave_model.c **** 	// Write style for wave_model_label_22, Part: LV_PART_MAIN, State: LV_STATE_DEFAULT.
 518:generated/setup_scr_wave_model.c **** 	lv_obj_set_style_border_width(ui->wave_model_label_22, 0, LV_PART_MAIN | LV_STATE_DEFAULT);
 2896              		.loc 1 518 2 view .LVU654
 2897 0f5c 2A46     		mov	r2, r5
 2898 0f5e 2946     		mov	r1, r5
 2899 0f60 606F     		ldr	r0, [r4, #116]
 2900 0f62 FFF7FEFF 		bl	lv_obj_set_style_border_width
 2901              	.LVL400:
 519:generated/setup_scr_wave_model.c **** 	lv_obj_set_style_radius(ui->wave_model_label_22, 0, LV_PART_MAIN | LV_STATE_DEFAULT);
 2902              		.loc 1 519 2 view .LVU655
 2903 0f66 2A46     		mov	r2, r5
 2904 0f68 2946     		mov	r1, r5
 2905 0f6a 606F     		ldr	r0, [r4, #116]
 2906 0f6c FFF7FEFF 		bl	lv_obj_set_style_radius
 2907              	.LVL401:
 520:generated/setup_scr_wave_model.c **** 	lv_obj_set_style_text_color(ui->wave_model_label_22, lv_color_hex(0x000000), LV_PART_MAIN | LV_STA
 2908              		.loc 1 520 2 view .LVU656
 2909              	.LBB214:
 2910              	.LBI214:
 597:lvgl/src/hal/../draw/../misc/lv_color.h **** {
 2911              		.loc 3 597 26 view .LVU657
 2912              	.LBB215:
 600:lvgl/src/hal/../draw/../misc/lv_color.h **** #if LV_COLOR_16_SWAP == 0
 2913              		.loc 3 600 5 view .LVU658
 616:lvgl/src/hal/../draw/../misc/lv_color.h **** #else
 2914              		.loc 3 616 5 view .LVU659
 2915              		.loc 3 621 5 view .LVU660
 2916              		.loc 3 621 5 is_stmt 0 view .LVU661
 2917              	.LBE215:
 2918              	.LBE214:
 2919              		.loc 1 520 2 discriminator 1 view .LVU662
 2920 0f70 2A46     		mov	r2, r5
 2921 0f72 2946     		mov	r1, r5	@ movhi
 2922 0f74 606F     		ldr	r0, [r4, #116]
 2923 0f76 FFF7FEFF 		bl	lv_obj_set_style_text_color
 2924              	.LVL402:
 521:generated/setup_scr_wave_model.c **** 	lv_obj_set_style_text_font(ui->wave_model_label_22, &lv_font_arial_16, LV_PART_MAIN | LV_STATE_DEF
 2925              		.loc 1 521 2 is_stmt 1 view .LVU663
 2926 0f7a 9D4E     		ldr	r6, .L16+4
 2927 0f7c 2A46     		mov	r2, r5
 2928 0f7e 3146     		mov	r1, r6
 2929 0f80 606F     		ldr	r0, [r4, #116]
 2930 0f82 FFF7FEFF 		bl	lv_obj_set_style_text_font
 2931              	.LVL403:
 522:generated/setup_scr_wave_model.c **** 	lv_obj_set_style_text_letter_space(ui->wave_model_label_22, 2, LV_PART_MAIN | LV_STATE_DEFAULT);
 2932              		.loc 1 522 2 view .LVU664
 2933 0f86 2A46     		mov	r2, r5
 2934 0f88 0221     		movs	r1, #2
 2935 0f8a 606F     		ldr	r0, [r4, #116]
 2936 0f8c FFF7FEFF 		bl	lv_obj_set_style_text_letter_space
ARM GAS  C:\usertemp\cctMo5e7.s 			page 78


 2937              	.LVL404:
 523:generated/setup_scr_wave_model.c **** 	lv_obj_set_style_text_line_space(ui->wave_model_label_22, 0, LV_PART_MAIN | LV_STATE_DEFAULT);
 2938              		.loc 1 523 2 view .LVU665
 2939 0f90 2A46     		mov	r2, r5
 2940 0f92 2946     		mov	r1, r5
 2941 0f94 606F     		ldr	r0, [r4, #116]
 2942 0f96 FFF7FEFF 		bl	lv_obj_set_style_text_line_space
 2943              	.LVL405:
 524:generated/setup_scr_wave_model.c **** 	lv_obj_set_style_text_align(ui->wave_model_label_22, LV_TEXT_ALIGN_CENTER, LV_PART_MAIN | LV_STATE
 2944              		.loc 1 524 2 view .LVU666
 2945 0f9a 2A46     		mov	r2, r5
 2946 0f9c 0221     		movs	r1, #2
 2947 0f9e 606F     		ldr	r0, [r4, #116]
 2948 0fa0 FFF7FEFF 		bl	lv_obj_set_style_text_align
 2949              	.LVL406:
 525:generated/setup_scr_wave_model.c **** 	lv_obj_set_style_bg_opa(ui->wave_model_label_22, 0, LV_PART_MAIN | LV_STATE_DEFAULT);
 2950              		.loc 1 525 2 view .LVU667
 2951 0fa4 2A46     		mov	r2, r5
 2952 0fa6 2946     		mov	r1, r5
 2953 0fa8 606F     		ldr	r0, [r4, #116]
 2954 0faa FFF7FEFF 		bl	lv_obj_set_style_bg_opa
 2955              	.LVL407:
 526:generated/setup_scr_wave_model.c **** 	lv_obj_set_style_pad_top(ui->wave_model_label_22, 8, LV_PART_MAIN | LV_STATE_DEFAULT);
 2956              		.loc 1 526 2 view .LVU668
 2957 0fae 2A46     		mov	r2, r5
 2958 0fb0 0821     		movs	r1, #8
 2959 0fb2 606F     		ldr	r0, [r4, #116]
 2960 0fb4 FFF7FEFF 		bl	lv_obj_set_style_pad_top
 2961              	.LVL408:
 527:generated/setup_scr_wave_model.c **** 	lv_obj_set_style_pad_right(ui->wave_model_label_22, 0, LV_PART_MAIN | LV_STATE_DEFAULT);
 2962              		.loc 1 527 2 view .LVU669
 2963 0fb8 2A46     		mov	r2, r5
 2964 0fba 2946     		mov	r1, r5
 2965 0fbc 606F     		ldr	r0, [r4, #116]
 2966 0fbe FFF7FEFF 		bl	lv_obj_set_style_pad_right
 2967              	.LVL409:
 528:generated/setup_scr_wave_model.c **** 	lv_obj_set_style_pad_bottom(ui->wave_model_label_22, 0, LV_PART_MAIN | LV_STATE_DEFAULT);
 2968              		.loc 1 528 2 view .LVU670
 2969 0fc2 2A46     		mov	r2, r5
 2970 0fc4 2946     		mov	r1, r5
 2971 0fc6 606F     		ldr	r0, [r4, #116]
 2972 0fc8 FFF7FEFF 		bl	lv_obj_set_style_pad_bottom
 2973              	.LVL410:
 529:generated/setup_scr_wave_model.c **** 	lv_obj_set_style_pad_left(ui->wave_model_label_22, 0, LV_PART_MAIN | LV_STATE_DEFAULT);
 2974              		.loc 1 529 2 view .LVU671
 2975 0fcc 2A46     		mov	r2, r5
 2976 0fce 2946     		mov	r1, r5
 2977 0fd0 606F     		ldr	r0, [r4, #116]
 2978 0fd2 FFF7FEFF 		bl	lv_obj_set_style_pad_left
 2979              	.LVL411:
 530:generated/setup_scr_wave_model.c **** 	lv_obj_set_style_shadow_width(ui->wave_model_label_22, 0, LV_PART_MAIN | LV_STATE_DEFAULT);
 2980              		.loc 1 530 2 view .LVU672
 2981 0fd6 2A46     		mov	r2, r5
 2982 0fd8 2946     		mov	r1, r5
 2983 0fda 606F     		ldr	r0, [r4, #116]
 2984 0fdc FFF7FEFF 		bl	lv_obj_set_style_shadow_width
 2985              	.LVL412:
ARM GAS  C:\usertemp\cctMo5e7.s 			page 79


 531:generated/setup_scr_wave_model.c **** 
 532:generated/setup_scr_wave_model.c **** 	// Write codes wave_model_label_23
 533:generated/setup_scr_wave_model.c **** 	ui->wave_model_label_23 = lv_label_create(ui->wave_model);
 2986              		.loc 1 533 2 view .LVU673
 2987              		.loc 1 533 28 is_stmt 0 view .LVU674
 2988 0fe0 2068     		ldr	r0, [r4]
 2989 0fe2 FFF7FEFF 		bl	lv_label_create
 2990              	.LVL413:
 2991              		.loc 1 533 26 discriminator 1 view .LVU675
 2992 0fe6 A067     		str	r0, [r4, #120]
 534:generated/setup_scr_wave_model.c **** 	lv_label_set_text(ui->wave_model_label_23, "Label");
 2993              		.loc 1 534 2 is_stmt 1 view .LVU676
 2994 0fe8 3946     		mov	r1, r7
 2995 0fea FFF7FEFF 		bl	lv_label_set_text
 2996              	.LVL414:
 535:generated/setup_scr_wave_model.c **** 	lv_label_set_long_mode(ui->wave_model_label_23, LV_LABEL_LONG_WRAP);
 2997              		.loc 1 535 2 view .LVU677
 2998 0fee 2946     		mov	r1, r5
 2999 0ff0 A06F     		ldr	r0, [r4, #120]
 3000 0ff2 FFF7FEFF 		bl	lv_label_set_long_mode
 3001              	.LVL415:
 536:generated/setup_scr_wave_model.c **** 	lv_obj_set_pos(ui->wave_model_label_23, 285, 413);
 3002              		.loc 1 536 2 view .LVU678
 3003 0ff6 40F29D12 		movw	r2, #413
 3004 0ffa 40F21D11 		movw	r1, #285
 3005 0ffe A06F     		ldr	r0, [r4, #120]
 3006 1000 FFF7FEFF 		bl	lv_obj_set_pos
 3007              	.LVL416:
 537:generated/setup_scr_wave_model.c **** 	lv_obj_set_size(ui->wave_model_label_23, 100, 32);
 3008              		.loc 1 537 2 view .LVU679
 3009 1004 2022     		movs	r2, #32
 3010 1006 6421     		movs	r1, #100
 3011 1008 A06F     		ldr	r0, [r4, #120]
 3012 100a FFF7FEFF 		bl	lv_obj_set_size
 3013              	.LVL417:
 538:generated/setup_scr_wave_model.c **** 
 539:generated/setup_scr_wave_model.c **** 	// Write style for wave_model_label_23, Part: LV_PART_MAIN, State: LV_STATE_DEFAULT.
 540:generated/setup_scr_wave_model.c **** 	lv_obj_set_style_border_width(ui->wave_model_label_23, 0, LV_PART_MAIN | LV_STATE_DEFAULT);
 3014              		.loc 1 540 2 view .LVU680
 3015 100e 2A46     		mov	r2, r5
 3016 1010 2946     		mov	r1, r5
 3017 1012 A06F     		ldr	r0, [r4, #120]
 3018 1014 FFF7FEFF 		bl	lv_obj_set_style_border_width
 3019              	.LVL418:
 541:generated/setup_scr_wave_model.c **** 	lv_obj_set_style_radius(ui->wave_model_label_23, 0, LV_PART_MAIN | LV_STATE_DEFAULT);
 3020              		.loc 1 541 2 view .LVU681
 3021 1018 2A46     		mov	r2, r5
 3022 101a 2946     		mov	r1, r5
 3023 101c A06F     		ldr	r0, [r4, #120]
 3024 101e FFF7FEFF 		bl	lv_obj_set_style_radius
 3025              	.LVL419:
 542:generated/setup_scr_wave_model.c **** 	lv_obj_set_style_text_color(ui->wave_model_label_23, lv_color_hex(0x000000), LV_PART_MAIN | LV_STA
 3026              		.loc 1 542 2 view .LVU682
 3027              	.LBB216:
 3028              	.LBI216:
 597:lvgl/src/hal/../draw/../misc/lv_color.h **** {
 3029              		.loc 3 597 26 view .LVU683
ARM GAS  C:\usertemp\cctMo5e7.s 			page 80


 3030              	.LBB217:
 600:lvgl/src/hal/../draw/../misc/lv_color.h **** #if LV_COLOR_16_SWAP == 0
 3031              		.loc 3 600 5 view .LVU684
 616:lvgl/src/hal/../draw/../misc/lv_color.h **** #else
 3032              		.loc 3 616 5 view .LVU685
 3033              		.loc 3 621 5 view .LVU686
 3034              		.loc 3 621 5 is_stmt 0 view .LVU687
 3035              	.LBE217:
 3036              	.LBE216:
 3037              		.loc 1 542 2 discriminator 1 view .LVU688
 3038 1022 2A46     		mov	r2, r5
 3039 1024 2946     		mov	r1, r5	@ movhi
 3040 1026 A06F     		ldr	r0, [r4, #120]
 3041 1028 FFF7FEFF 		bl	lv_obj_set_style_text_color
 3042              	.LVL420:
 543:generated/setup_scr_wave_model.c **** 	lv_obj_set_style_text_font(ui->wave_model_label_23, &lv_font_arial_16, LV_PART_MAIN | LV_STATE_DEF
 3043              		.loc 1 543 2 is_stmt 1 view .LVU689
 3044 102c 2A46     		mov	r2, r5
 3045 102e 3146     		mov	r1, r6
 3046 1030 A06F     		ldr	r0, [r4, #120]
 3047 1032 FFF7FEFF 		bl	lv_obj_set_style_text_font
 3048              	.LVL421:
 544:generated/setup_scr_wave_model.c **** 	lv_obj_set_style_text_letter_space(ui->wave_model_label_23, 2, LV_PART_MAIN | LV_STATE_DEFAULT);
 3049              		.loc 1 544 2 view .LVU690
 3050 1036 2A46     		mov	r2, r5
 3051 1038 0221     		movs	r1, #2
 3052 103a A06F     		ldr	r0, [r4, #120]
 3053 103c FFF7FEFF 		bl	lv_obj_set_style_text_letter_space
 3054              	.LVL422:
 545:generated/setup_scr_wave_model.c **** 	lv_obj_set_style_text_line_space(ui->wave_model_label_23, 0, LV_PART_MAIN | LV_STATE_DEFAULT);
 3055              		.loc 1 545 2 view .LVU691
 3056 1040 2A46     		mov	r2, r5
 3057 1042 2946     		mov	r1, r5
 3058 1044 A06F     		ldr	r0, [r4, #120]
 3059 1046 FFF7FEFF 		bl	lv_obj_set_style_text_line_space
 3060              	.LVL423:
 546:generated/setup_scr_wave_model.c **** 	lv_obj_set_style_text_align(ui->wave_model_label_23, LV_TEXT_ALIGN_CENTER, LV_PART_MAIN | LV_STATE
 3061              		.loc 1 546 2 view .LVU692
 3062 104a 2A46     		mov	r2, r5
 3063 104c 0221     		movs	r1, #2
 3064 104e A06F     		ldr	r0, [r4, #120]
 3065 1050 FFF7FEFF 		bl	lv_obj_set_style_text_align
 3066              	.LVL424:
 547:generated/setup_scr_wave_model.c **** 	lv_obj_set_style_bg_opa(ui->wave_model_label_23, 0, LV_PART_MAIN | LV_STATE_DEFAULT);
 3067              		.loc 1 547 2 view .LVU693
 3068 1054 2A46     		mov	r2, r5
 3069 1056 2946     		mov	r1, r5
 3070 1058 A06F     		ldr	r0, [r4, #120]
 3071 105a FFF7FEFF 		bl	lv_obj_set_style_bg_opa
 3072              	.LVL425:
 548:generated/setup_scr_wave_model.c **** 	lv_obj_set_style_pad_top(ui->wave_model_label_23, 8, LV_PART_MAIN | LV_STATE_DEFAULT);
 3073              		.loc 1 548 2 view .LVU694
 3074 105e 2A46     		mov	r2, r5
 3075 1060 0821     		movs	r1, #8
 3076 1062 A06F     		ldr	r0, [r4, #120]
 3077 1064 FFF7FEFF 		bl	lv_obj_set_style_pad_top
 3078              	.LVL426:
ARM GAS  C:\usertemp\cctMo5e7.s 			page 81


 549:generated/setup_scr_wave_model.c **** 	lv_obj_set_style_pad_right(ui->wave_model_label_23, 0, LV_PART_MAIN | LV_STATE_DEFAULT);
 3079              		.loc 1 549 2 view .LVU695
 3080 1068 2A46     		mov	r2, r5
 3081 106a 2946     		mov	r1, r5
 3082 106c A06F     		ldr	r0, [r4, #120]
 3083 106e FFF7FEFF 		bl	lv_obj_set_style_pad_right
 3084              	.LVL427:
 550:generated/setup_scr_wave_model.c **** 	lv_obj_set_style_pad_bottom(ui->wave_model_label_23, 0, LV_PART_MAIN | LV_STATE_DEFAULT);
 3085              		.loc 1 550 2 view .LVU696
 3086 1072 2A46     		mov	r2, r5
 3087 1074 2946     		mov	r1, r5
 3088 1076 A06F     		ldr	r0, [r4, #120]
 3089 1078 FFF7FEFF 		bl	lv_obj_set_style_pad_bottom
 3090              	.LVL428:
 551:generated/setup_scr_wave_model.c **** 	lv_obj_set_style_pad_left(ui->wave_model_label_23, 0, LV_PART_MAIN | LV_STATE_DEFAULT);
 3091              		.loc 1 551 2 view .LVU697
 3092 107c 2A46     		mov	r2, r5
 3093 107e 2946     		mov	r1, r5
 3094 1080 A06F     		ldr	r0, [r4, #120]
 3095 1082 FFF7FEFF 		bl	lv_obj_set_style_pad_left
 3096              	.LVL429:
 552:generated/setup_scr_wave_model.c **** 	lv_obj_set_style_shadow_width(ui->wave_model_label_23, 0, LV_PART_MAIN | LV_STATE_DEFAULT);
 3097              		.loc 1 552 2 view .LVU698
 3098 1086 2A46     		mov	r2, r5
 3099 1088 2946     		mov	r1, r5
 3100 108a A06F     		ldr	r0, [r4, #120]
 3101 108c FFF7FEFF 		bl	lv_obj_set_style_shadow_width
 3102              	.LVL430:
 553:generated/setup_scr_wave_model.c **** 
 554:generated/setup_scr_wave_model.c **** 	// Write codes wave_model_label_24
 555:generated/setup_scr_wave_model.c **** 	ui->wave_model_label_24 = lv_label_create(ui->wave_model);
 3103              		.loc 1 555 2 view .LVU699
 3104              		.loc 1 555 28 is_stmt 0 view .LVU700
 3105 1090 2068     		ldr	r0, [r4]
 3106 1092 FFF7FEFF 		bl	lv_label_create
 3107              	.LVL431:
 3108              		.loc 1 555 26 discriminator 1 view .LVU701
 3109 1096 E067     		str	r0, [r4, #124]
 556:generated/setup_scr_wave_model.c **** 	lv_label_set_text(ui->wave_model_label_24, "Label");
 3110              		.loc 1 556 2 is_stmt 1 view .LVU702
 3111 1098 3946     		mov	r1, r7
 3112 109a FFF7FEFF 		bl	lv_label_set_text
 3113              	.LVL432:
 557:generated/setup_scr_wave_model.c **** 	lv_label_set_long_mode(ui->wave_model_label_24, LV_LABEL_LONG_WRAP);
 3114              		.loc 1 557 2 view .LVU703
 3115 109e 2946     		mov	r1, r5
 3116 10a0 E06F     		ldr	r0, [r4, #124]
 3117 10a2 FFF7FEFF 		bl	lv_label_set_long_mode
 3118              	.LVL433:
 558:generated/setup_scr_wave_model.c **** 	lv_obj_set_pos(ui->wave_model_label_24, 385, 413);
 3119              		.loc 1 558 2 view .LVU704
 3120 10a6 40F29D12 		movw	r2, #413
 3121 10aa 40F28111 		movw	r1, #385
 3122 10ae E06F     		ldr	r0, [r4, #124]
 3123 10b0 FFF7FEFF 		bl	lv_obj_set_pos
 3124              	.LVL434:
 559:generated/setup_scr_wave_model.c **** 	lv_obj_set_size(ui->wave_model_label_24, 100, 32);
ARM GAS  C:\usertemp\cctMo5e7.s 			page 82


 3125              		.loc 1 559 2 view .LVU705
 3126 10b4 2022     		movs	r2, #32
 3127 10b6 6421     		movs	r1, #100
 3128 10b8 E06F     		ldr	r0, [r4, #124]
 3129 10ba FFF7FEFF 		bl	lv_obj_set_size
 3130              	.LVL435:
 560:generated/setup_scr_wave_model.c **** 
 561:generated/setup_scr_wave_model.c **** 	// Write style for wave_model_label_24, Part: LV_PART_MAIN, State: LV_STATE_DEFAULT.
 562:generated/setup_scr_wave_model.c **** 	lv_obj_set_style_border_width(ui->wave_model_label_24, 0, LV_PART_MAIN | LV_STATE_DEFAULT);
 3131              		.loc 1 562 2 view .LVU706
 3132 10be 2A46     		mov	r2, r5
 3133 10c0 2946     		mov	r1, r5
 3134 10c2 E06F     		ldr	r0, [r4, #124]
 3135 10c4 FFF7FEFF 		bl	lv_obj_set_style_border_width
 3136              	.LVL436:
 563:generated/setup_scr_wave_model.c **** 	lv_obj_set_style_radius(ui->wave_model_label_24, 0, LV_PART_MAIN | LV_STATE_DEFAULT);
 3137              		.loc 1 563 2 view .LVU707
 3138 10c8 2A46     		mov	r2, r5
 3139 10ca 2946     		mov	r1, r5
 3140 10cc E06F     		ldr	r0, [r4, #124]
 3141 10ce FFF7FEFF 		bl	lv_obj_set_style_radius
 3142              	.LVL437:
 564:generated/setup_scr_wave_model.c **** 	lv_obj_set_style_text_color(ui->wave_model_label_24, lv_color_hex(0x000000), LV_PART_MAIN | LV_STA
 3143              		.loc 1 564 2 view .LVU708
 3144              	.LBB218:
 3145              	.LBI218:
 597:lvgl/src/hal/../draw/../misc/lv_color.h **** {
 3146              		.loc 3 597 26 view .LVU709
 3147              	.LBB219:
 600:lvgl/src/hal/../draw/../misc/lv_color.h **** #if LV_COLOR_16_SWAP == 0
 3148              		.loc 3 600 5 view .LVU710
 616:lvgl/src/hal/../draw/../misc/lv_color.h **** #else
 3149              		.loc 3 616 5 view .LVU711
 3150              		.loc 3 621 5 view .LVU712
 3151              		.loc 3 621 5 is_stmt 0 view .LVU713
 3152              	.LBE219:
 3153              	.LBE218:
 3154              		.loc 1 564 2 discriminator 1 view .LVU714
 3155 10d2 2A46     		mov	r2, r5
 3156 10d4 2946     		mov	r1, r5	@ movhi
 3157 10d6 E06F     		ldr	r0, [r4, #124]
 3158 10d8 FFF7FEFF 		bl	lv_obj_set_style_text_color
 3159              	.LVL438:
 565:generated/setup_scr_wave_model.c **** 	lv_obj_set_style_text_font(ui->wave_model_label_24, &lv_font_arial_16, LV_PART_MAIN | LV_STATE_DEF
 3160              		.loc 1 565 2 is_stmt 1 view .LVU715
 3161 10dc 2A46     		mov	r2, r5
 3162 10de 3146     		mov	r1, r6
 3163 10e0 E06F     		ldr	r0, [r4, #124]
 3164 10e2 FFF7FEFF 		bl	lv_obj_set_style_text_font
 3165              	.LVL439:
 566:generated/setup_scr_wave_model.c **** 	lv_obj_set_style_text_letter_space(ui->wave_model_label_24, 2, LV_PART_MAIN | LV_STATE_DEFAULT);
 3166              		.loc 1 566 2 view .LVU716
 3167 10e6 2A46     		mov	r2, r5
 3168 10e8 0221     		movs	r1, #2
 3169 10ea E06F     		ldr	r0, [r4, #124]
 3170 10ec FFF7FEFF 		bl	lv_obj_set_style_text_letter_space
 3171              	.LVL440:
ARM GAS  C:\usertemp\cctMo5e7.s 			page 83


 567:generated/setup_scr_wave_model.c **** 	lv_obj_set_style_text_line_space(ui->wave_model_label_24, 0, LV_PART_MAIN | LV_STATE_DEFAULT);
 3172              		.loc 1 567 2 view .LVU717
 3173 10f0 2A46     		mov	r2, r5
 3174 10f2 2946     		mov	r1, r5
 3175 10f4 E06F     		ldr	r0, [r4, #124]
 3176 10f6 FFF7FEFF 		bl	lv_obj_set_style_text_line_space
 3177              	.LVL441:
 568:generated/setup_scr_wave_model.c **** 	lv_obj_set_style_text_align(ui->wave_model_label_24, LV_TEXT_ALIGN_CENTER, LV_PART_MAIN | LV_STATE
 3178              		.loc 1 568 2 view .LVU718
 3179 10fa 2A46     		mov	r2, r5
 3180 10fc 0221     		movs	r1, #2
 3181 10fe E06F     		ldr	r0, [r4, #124]
 3182 1100 FFF7FEFF 		bl	lv_obj_set_style_text_align
 3183              	.LVL442:
 569:generated/setup_scr_wave_model.c **** 	lv_obj_set_style_bg_opa(ui->wave_model_label_24, 0, LV_PART_MAIN | LV_STATE_DEFAULT);
 3184              		.loc 1 569 2 view .LVU719
 3185 1104 2A46     		mov	r2, r5
 3186 1106 2946     		mov	r1, r5
 3187 1108 E06F     		ldr	r0, [r4, #124]
 3188 110a FFF7FEFF 		bl	lv_obj_set_style_bg_opa
 3189              	.LVL443:
 570:generated/setup_scr_wave_model.c **** 	lv_obj_set_style_pad_top(ui->wave_model_label_24, 8, LV_PART_MAIN | LV_STATE_DEFAULT);
 3190              		.loc 1 570 2 view .LVU720
 3191 110e 2A46     		mov	r2, r5
 3192 1110 0821     		movs	r1, #8
 3193 1112 E06F     		ldr	r0, [r4, #124]
 3194 1114 FFF7FEFF 		bl	lv_obj_set_style_pad_top
 3195              	.LVL444:
 571:generated/setup_scr_wave_model.c **** 	lv_obj_set_style_pad_right(ui->wave_model_label_24, 0, LV_PART_MAIN | LV_STATE_DEFAULT);
 3196              		.loc 1 571 2 view .LVU721
 3197 1118 2A46     		mov	r2, r5
 3198 111a 2946     		mov	r1, r5
 3199 111c E06F     		ldr	r0, [r4, #124]
 3200 111e FFF7FEFF 		bl	lv_obj_set_style_pad_right
 3201              	.LVL445:
 572:generated/setup_scr_wave_model.c **** 	lv_obj_set_style_pad_bottom(ui->wave_model_label_24, 0, LV_PART_MAIN | LV_STATE_DEFAULT);
 3202              		.loc 1 572 2 view .LVU722
 3203 1122 2A46     		mov	r2, r5
 3204 1124 2946     		mov	r1, r5
 3205 1126 E06F     		ldr	r0, [r4, #124]
 3206 1128 FFF7FEFF 		bl	lv_obj_set_style_pad_bottom
 3207              	.LVL446:
 573:generated/setup_scr_wave_model.c **** 	lv_obj_set_style_pad_left(ui->wave_model_label_24, 0, LV_PART_MAIN | LV_STATE_DEFAULT);
 3208              		.loc 1 573 2 view .LVU723
 3209 112c 2A46     		mov	r2, r5
 3210 112e 2946     		mov	r1, r5
 3211 1130 E06F     		ldr	r0, [r4, #124]
 3212 1132 FFF7FEFF 		bl	lv_obj_set_style_pad_left
 3213              	.LVL447:
 574:generated/setup_scr_wave_model.c **** 	lv_obj_set_style_shadow_width(ui->wave_model_label_24, 0, LV_PART_MAIN | LV_STATE_DEFAULT);
 3214              		.loc 1 574 2 view .LVU724
 3215 1136 2A46     		mov	r2, r5
 3216 1138 2946     		mov	r1, r5
 3217 113a E06F     		ldr	r0, [r4, #124]
 3218 113c FFF7FEFF 		bl	lv_obj_set_style_shadow_width
 3219              	.LVL448:
 575:generated/setup_scr_wave_model.c **** 
ARM GAS  C:\usertemp\cctMo5e7.s 			page 84


 576:generated/setup_scr_wave_model.c **** 	// Write codes wave_model_label_25
 577:generated/setup_scr_wave_model.c **** 	ui->wave_model_label_25 = lv_label_create(ui->wave_model);
 3220              		.loc 1 577 2 view .LVU725
 3221              		.loc 1 577 28 is_stmt 0 view .LVU726
 3222 1140 2068     		ldr	r0, [r4]
 3223 1142 FFF7FEFF 		bl	lv_label_create
 3224              	.LVL449:
 3225              		.loc 1 577 26 discriminator 1 view .LVU727
 3226 1146 C4F88000 		str	r0, [r4, #128]
 578:generated/setup_scr_wave_model.c **** 	lv_label_set_text(ui->wave_model_label_25, "Label");
 3227              		.loc 1 578 2 is_stmt 1 view .LVU728
 3228 114a 3946     		mov	r1, r7
 3229 114c FFF7FEFF 		bl	lv_label_set_text
 3230              	.LVL450:
 579:generated/setup_scr_wave_model.c **** 	lv_label_set_long_mode(ui->wave_model_label_25, LV_LABEL_LONG_WRAP);
 3231              		.loc 1 579 2 view .LVU729
 3232 1150 2946     		mov	r1, r5
 3233 1152 D4F88000 		ldr	r0, [r4, #128]
 3234 1156 FFF7FEFF 		bl	lv_label_set_long_mode
 3235              	.LVL451:
 580:generated/setup_scr_wave_model.c **** 	lv_obj_set_pos(ui->wave_model_label_25, 480, 413);
 3236              		.loc 1 580 2 view .LVU730
 3237 115a 40F29D12 		movw	r2, #413
 3238 115e 4FF4F071 		mov	r1, #480
 3239 1162 D4F88000 		ldr	r0, [r4, #128]
 3240 1166 FFF7FEFF 		bl	lv_obj_set_pos
 3241              	.LVL452:
 581:generated/setup_scr_wave_model.c **** 	lv_obj_set_size(ui->wave_model_label_25, 100, 32);
 3242              		.loc 1 581 2 view .LVU731
 3243 116a 2022     		movs	r2, #32
 3244 116c 6421     		movs	r1, #100
 3245 116e D4F88000 		ldr	r0, [r4, #128]
 3246 1172 FFF7FEFF 		bl	lv_obj_set_size
 3247              	.LVL453:
 582:generated/setup_scr_wave_model.c **** 
 583:generated/setup_scr_wave_model.c **** 	// Write style for wave_model_label_25, Part: LV_PART_MAIN, State: LV_STATE_DEFAULT.
 584:generated/setup_scr_wave_model.c **** 	lv_obj_set_style_border_width(ui->wave_model_label_25, 0, LV_PART_MAIN | LV_STATE_DEFAULT);
 3248              		.loc 1 584 2 view .LVU732
 3249 1176 2A46     		mov	r2, r5
 3250 1178 2946     		mov	r1, r5
 3251 117a D4F88000 		ldr	r0, [r4, #128]
 3252 117e FFF7FEFF 		bl	lv_obj_set_style_border_width
 3253              	.LVL454:
 585:generated/setup_scr_wave_model.c **** 	lv_obj_set_style_radius(ui->wave_model_label_25, 0, LV_PART_MAIN | LV_STATE_DEFAULT);
 3254              		.loc 1 585 2 view .LVU733
 3255 1182 2A46     		mov	r2, r5
 3256 1184 2946     		mov	r1, r5
 3257 1186 D4F88000 		ldr	r0, [r4, #128]
 3258 118a FFF7FEFF 		bl	lv_obj_set_style_radius
 3259              	.LVL455:
 586:generated/setup_scr_wave_model.c **** 	lv_obj_set_style_text_color(ui->wave_model_label_25, lv_color_hex(0x000000), LV_PART_MAIN | LV_STA
 3260              		.loc 1 586 2 view .LVU734
 3261              	.LBB220:
 3262              	.LBI220:
 597:lvgl/src/hal/../draw/../misc/lv_color.h **** {
 3263              		.loc 3 597 26 view .LVU735
 3264              	.LBB221:
ARM GAS  C:\usertemp\cctMo5e7.s 			page 85


 600:lvgl/src/hal/../draw/../misc/lv_color.h **** #if LV_COLOR_16_SWAP == 0
 3265              		.loc 3 600 5 view .LVU736
 616:lvgl/src/hal/../draw/../misc/lv_color.h **** #else
 3266              		.loc 3 616 5 view .LVU737
 3267              		.loc 3 621 5 view .LVU738
 3268              		.loc 3 621 5 is_stmt 0 view .LVU739
 3269              	.LBE221:
 3270              	.LBE220:
 3271              		.loc 1 586 2 discriminator 1 view .LVU740
 3272 118e 2A46     		mov	r2, r5
 3273 1190 2946     		mov	r1, r5	@ movhi
 3274 1192 D4F88000 		ldr	r0, [r4, #128]
 3275 1196 FFF7FEFF 		bl	lv_obj_set_style_text_color
 3276              	.LVL456:
 587:generated/setup_scr_wave_model.c **** 	lv_obj_set_style_text_font(ui->wave_model_label_25, &lv_font_arial_16, LV_PART_MAIN | LV_STATE_DEF
 3277              		.loc 1 587 2 is_stmt 1 view .LVU741
 3278 119a 2A46     		mov	r2, r5
 3279 119c 3146     		mov	r1, r6
 3280 119e D4F88000 		ldr	r0, [r4, #128]
 3281 11a2 FFF7FEFF 		bl	lv_obj_set_style_text_font
 3282              	.LVL457:
 588:generated/setup_scr_wave_model.c **** 	lv_obj_set_style_text_letter_space(ui->wave_model_label_25, 2, LV_PART_MAIN | LV_STATE_DEFAULT);
 3283              		.loc 1 588 2 view .LVU742
 3284 11a6 2A46     		mov	r2, r5
 3285 11a8 0221     		movs	r1, #2
 3286 11aa D4F88000 		ldr	r0, [r4, #128]
 3287 11ae FFF7FEFF 		bl	lv_obj_set_style_text_letter_space
 3288              	.LVL458:
 589:generated/setup_scr_wave_model.c **** 	lv_obj_set_style_text_line_space(ui->wave_model_label_25, 0, LV_PART_MAIN | LV_STATE_DEFAULT);
 3289              		.loc 1 589 2 view .LVU743
 3290 11b2 2A46     		mov	r2, r5
 3291 11b4 2946     		mov	r1, r5
 3292 11b6 D4F88000 		ldr	r0, [r4, #128]
 3293 11ba FFF7FEFF 		bl	lv_obj_set_style_text_line_space
 3294              	.LVL459:
 590:generated/setup_scr_wave_model.c **** 	lv_obj_set_style_text_align(ui->wave_model_label_25, LV_TEXT_ALIGN_CENTER, LV_PART_MAIN | LV_STATE
 3295              		.loc 1 590 2 view .LVU744
 3296 11be 2A46     		mov	r2, r5
 3297 11c0 0221     		movs	r1, #2
 3298 11c2 D4F88000 		ldr	r0, [r4, #128]
 3299 11c6 FFF7FEFF 		bl	lv_obj_set_style_text_align
 3300              	.LVL460:
 591:generated/setup_scr_wave_model.c **** 	lv_obj_set_style_bg_opa(ui->wave_model_label_25, 0, LV_PART_MAIN | LV_STATE_DEFAULT);
 3301              		.loc 1 591 2 view .LVU745
 3302 11ca 2A46     		mov	r2, r5
 3303 11cc 2946     		mov	r1, r5
 3304 11ce D4F88000 		ldr	r0, [r4, #128]
 3305 11d2 FFF7FEFF 		bl	lv_obj_set_style_bg_opa
 3306              	.LVL461:
 592:generated/setup_scr_wave_model.c **** 	lv_obj_set_style_pad_top(ui->wave_model_label_25, 8, LV_PART_MAIN | LV_STATE_DEFAULT);
 3307              		.loc 1 592 2 view .LVU746
 3308 11d6 2A46     		mov	r2, r5
 3309 11d8 0821     		movs	r1, #8
 3310 11da D4F88000 		ldr	r0, [r4, #128]
 3311 11de FFF7FEFF 		bl	lv_obj_set_style_pad_top
 3312              	.LVL462:
 593:generated/setup_scr_wave_model.c **** 	lv_obj_set_style_pad_right(ui->wave_model_label_25, 0, LV_PART_MAIN | LV_STATE_DEFAULT);
ARM GAS  C:\usertemp\cctMo5e7.s 			page 86


 3313              		.loc 1 593 2 view .LVU747
 3314 11e2 2A46     		mov	r2, r5
 3315 11e4 2946     		mov	r1, r5
 3316 11e6 D4F88000 		ldr	r0, [r4, #128]
 3317 11ea 03E0     		b	.L17
 3318              	.L18:
 3319              		.align	2
 3320              	.L16:
 3321 11ec 24000000 		.word	.LC8
 3322 11f0 00000000 		.word	lv_font_arial_16
 3323              	.L17:
 3324 11f4 FFF7FEFF 		bl	lv_obj_set_style_pad_right
 3325              	.LVL463:
 594:generated/setup_scr_wave_model.c **** 	lv_obj_set_style_pad_bottom(ui->wave_model_label_25, 0, LV_PART_MAIN | LV_STATE_DEFAULT);
 3326              		.loc 1 594 2 view .LVU748
 3327 11f8 2A46     		mov	r2, r5
 3328 11fa 2946     		mov	r1, r5
 3329 11fc D4F88000 		ldr	r0, [r4, #128]
 3330 1200 FFF7FEFF 		bl	lv_obj_set_style_pad_bottom
 3331              	.LVL464:
 595:generated/setup_scr_wave_model.c **** 	lv_obj_set_style_pad_left(ui->wave_model_label_25, 0, LV_PART_MAIN | LV_STATE_DEFAULT);
 3332              		.loc 1 595 2 view .LVU749
 3333 1204 2A46     		mov	r2, r5
 3334 1206 2946     		mov	r1, r5
 3335 1208 D4F88000 		ldr	r0, [r4, #128]
 3336 120c FFF7FEFF 		bl	lv_obj_set_style_pad_left
 3337              	.LVL465:
 596:generated/setup_scr_wave_model.c **** 	lv_obj_set_style_shadow_width(ui->wave_model_label_25, 0, LV_PART_MAIN | LV_STATE_DEFAULT);
 3338              		.loc 1 596 2 view .LVU750
 3339 1210 2A46     		mov	r2, r5
 3340 1212 2946     		mov	r1, r5
 3341 1214 D4F88000 		ldr	r0, [r4, #128]
 3342 1218 FFF7FEFF 		bl	lv_obj_set_style_shadow_width
 3343              	.LVL466:
 597:generated/setup_scr_wave_model.c **** 
 598:generated/setup_scr_wave_model.c **** 	// Write codes wave_model_N_val
 599:generated/setup_scr_wave_model.c **** 	ui->wave_model_N_val = lv_label_create(ui->wave_model);
 3344              		.loc 1 599 2 view .LVU751
 3345              		.loc 1 599 25 is_stmt 0 view .LVU752
 3346 121c 2068     		ldr	r0, [r4]
 3347 121e FFF7FEFF 		bl	lv_label_create
 3348              	.LVL467:
 3349              		.loc 1 599 23 discriminator 1 view .LVU753
 3350 1222 C4F88400 		str	r0, [r4, #132]
 600:generated/setup_scr_wave_model.c **** 	lv_label_set_text(ui->wave_model_N_val, "000.0V");
 3351              		.loc 1 600 2 is_stmt 1 view .LVU754
 3352 1226 F749     		ldr	r1, .L19
 3353 1228 FFF7FEFF 		bl	lv_label_set_text
 3354              	.LVL468:
 601:generated/setup_scr_wave_model.c **** 	lv_label_set_long_mode(ui->wave_model_N_val, LV_LABEL_LONG_WRAP);
 3355              		.loc 1 601 2 view .LVU755
 3356 122c 2946     		mov	r1, r5
 3357 122e D4F88400 		ldr	r0, [r4, #132]
 3358 1232 FFF7FEFF 		bl	lv_label_set_long_mode
 3359              	.LVL469:
 602:generated/setup_scr_wave_model.c **** 	lv_obj_set_pos(ui->wave_model_N_val, 530, 29);
 3360              		.loc 1 602 2 view .LVU756
ARM GAS  C:\usertemp\cctMo5e7.s 			page 87


 3361 1236 1D22     		movs	r2, #29
 3362 1238 40F21221 		movw	r1, #530
 3363 123c D4F88400 		ldr	r0, [r4, #132]
 3364 1240 FFF7FEFF 		bl	lv_obj_set_pos
 3365              	.LVL470:
 603:generated/setup_scr_wave_model.c **** 	lv_obj_set_size(ui->wave_model_N_val, 120, 30);
 3366              		.loc 1 603 2 view .LVU757
 3367 1244 1E22     		movs	r2, #30
 3368 1246 7821     		movs	r1, #120
 3369 1248 D4F88400 		ldr	r0, [r4, #132]
 3370 124c FFF7FEFF 		bl	lv_obj_set_size
 3371              	.LVL471:
 604:generated/setup_scr_wave_model.c **** 
 605:generated/setup_scr_wave_model.c **** 	// Write style for wave_model_N_val, Part: LV_PART_MAIN, State: LV_STATE_DEFAULT.
 606:generated/setup_scr_wave_model.c **** 	lv_obj_set_style_border_width(ui->wave_model_N_val, 0, LV_PART_MAIN | LV_STATE_DEFAULT);
 3372              		.loc 1 606 2 view .LVU758
 3373 1250 2A46     		mov	r2, r5
 3374 1252 2946     		mov	r1, r5
 3375 1254 D4F88400 		ldr	r0, [r4, #132]
 3376 1258 FFF7FEFF 		bl	lv_obj_set_style_border_width
 3377              	.LVL472:
 607:generated/setup_scr_wave_model.c **** 	lv_obj_set_style_radius(ui->wave_model_N_val, 0, LV_PART_MAIN | LV_STATE_DEFAULT);
 3378              		.loc 1 607 2 view .LVU759
 3379 125c 2A46     		mov	r2, r5
 3380 125e 2946     		mov	r1, r5
 3381 1260 D4F88400 		ldr	r0, [r4, #132]
 3382 1264 FFF7FEFF 		bl	lv_obj_set_style_radius
 3383              	.LVL473:
 608:generated/setup_scr_wave_model.c **** 	lv_obj_set_style_text_color(ui->wave_model_N_val, lv_color_hex(0x000000), LV_PART_MAIN | LV_STATE_
 3384              		.loc 1 608 2 view .LVU760
 3385              	.LBB222:
 3386              	.LBI222:
 597:lvgl/src/hal/../draw/../misc/lv_color.h **** {
 3387              		.loc 3 597 26 view .LVU761
 3388              	.LBB223:
 600:lvgl/src/hal/../draw/../misc/lv_color.h **** #if LV_COLOR_16_SWAP == 0
 3389              		.loc 3 600 5 view .LVU762
 616:lvgl/src/hal/../draw/../misc/lv_color.h **** #else
 3390              		.loc 3 616 5 view .LVU763
 3391              		.loc 3 621 5 view .LVU764
 3392              		.loc 3 621 5 is_stmt 0 view .LVU765
 3393              	.LBE223:
 3394              	.LBE222:
 3395              		.loc 1 608 2 discriminator 1 view .LVU766
 3396 1268 2A46     		mov	r2, r5
 3397 126a 2946     		mov	r1, r5	@ movhi
 3398 126c D4F88400 		ldr	r0, [r4, #132]
 3399 1270 FFF7FEFF 		bl	lv_obj_set_style_text_color
 3400              	.LVL474:
 609:generated/setup_scr_wave_model.c **** 	lv_obj_set_style_text_font(ui->wave_model_N_val, &lv_font_arial_30, LV_PART_MAIN | LV_STATE_DEFAUL
 3401              		.loc 1 609 2 is_stmt 1 view .LVU767
 3402 1274 2A46     		mov	r2, r5
 3403 1276 E449     		ldr	r1, .L19+4
 3404 1278 D4F88400 		ldr	r0, [r4, #132]
 3405 127c FFF7FEFF 		bl	lv_obj_set_style_text_font
 3406              	.LVL475:
 610:generated/setup_scr_wave_model.c **** 	lv_obj_set_style_text_letter_space(ui->wave_model_N_val, 2, LV_PART_MAIN | LV_STATE_DEFAULT);
ARM GAS  C:\usertemp\cctMo5e7.s 			page 88


 3407              		.loc 1 610 2 view .LVU768
 3408 1280 2A46     		mov	r2, r5
 3409 1282 0221     		movs	r1, #2
 3410 1284 D4F88400 		ldr	r0, [r4, #132]
 3411 1288 FFF7FEFF 		bl	lv_obj_set_style_text_letter_space
 3412              	.LVL476:
 611:generated/setup_scr_wave_model.c **** 	lv_obj_set_style_text_line_space(ui->wave_model_N_val, 0, LV_PART_MAIN | LV_STATE_DEFAULT);
 3413              		.loc 1 611 2 view .LVU769
 3414 128c 2A46     		mov	r2, r5
 3415 128e 2946     		mov	r1, r5
 3416 1290 D4F88400 		ldr	r0, [r4, #132]
 3417 1294 FFF7FEFF 		bl	lv_obj_set_style_text_line_space
 3418              	.LVL477:
 612:generated/setup_scr_wave_model.c **** 	lv_obj_set_style_text_align(ui->wave_model_N_val, LV_TEXT_ALIGN_LEFT, LV_PART_MAIN | LV_STATE_DEFA
 3419              		.loc 1 612 2 view .LVU770
 3420 1298 2A46     		mov	r2, r5
 3421 129a 0121     		movs	r1, #1
 3422 129c D4F88400 		ldr	r0, [r4, #132]
 3423 12a0 FFF7FEFF 		bl	lv_obj_set_style_text_align
 3424              	.LVL478:
 613:generated/setup_scr_wave_model.c **** 	lv_obj_set_style_bg_opa(ui->wave_model_N_val, 0, LV_PART_MAIN | LV_STATE_DEFAULT);
 3425              		.loc 1 613 2 view .LVU771
 3426 12a4 2A46     		mov	r2, r5
 3427 12a6 2946     		mov	r1, r5
 3428 12a8 D4F88400 		ldr	r0, [r4, #132]
 3429 12ac FFF7FEFF 		bl	lv_obj_set_style_bg_opa
 3430              	.LVL479:
 614:generated/setup_scr_wave_model.c **** 	lv_obj_set_style_pad_top(ui->wave_model_N_val, 0, LV_PART_MAIN | LV_STATE_DEFAULT);
 3431              		.loc 1 614 2 view .LVU772
 3432 12b0 2A46     		mov	r2, r5
 3433 12b2 2946     		mov	r1, r5
 3434 12b4 D4F88400 		ldr	r0, [r4, #132]
 3435 12b8 FFF7FEFF 		bl	lv_obj_set_style_pad_top
 3436              	.LVL480:
 615:generated/setup_scr_wave_model.c **** 	lv_obj_set_style_pad_right(ui->wave_model_N_val, 0, LV_PART_MAIN | LV_STATE_DEFAULT);
 3437              		.loc 1 615 2 view .LVU773
 3438 12bc 2A46     		mov	r2, r5
 3439 12be 2946     		mov	r1, r5
 3440 12c0 D4F88400 		ldr	r0, [r4, #132]
 3441 12c4 FFF7FEFF 		bl	lv_obj_set_style_pad_right
 3442              	.LVL481:
 616:generated/setup_scr_wave_model.c **** 	lv_obj_set_style_pad_bottom(ui->wave_model_N_val, 0, LV_PART_MAIN | LV_STATE_DEFAULT);
 3443              		.loc 1 616 2 view .LVU774
 3444 12c8 2A46     		mov	r2, r5
 3445 12ca 2946     		mov	r1, r5
 3446 12cc D4F88400 		ldr	r0, [r4, #132]
 3447 12d0 FFF7FEFF 		bl	lv_obj_set_style_pad_bottom
 3448              	.LVL482:
 617:generated/setup_scr_wave_model.c **** 	lv_obj_set_style_pad_left(ui->wave_model_N_val, 0, LV_PART_MAIN | LV_STATE_DEFAULT);
 3449              		.loc 1 617 2 view .LVU775
 3450 12d4 2A46     		mov	r2, r5
 3451 12d6 2946     		mov	r1, r5
 3452 12d8 D4F88400 		ldr	r0, [r4, #132]
 3453 12dc FFF7FEFF 		bl	lv_obj_set_style_pad_left
 3454              	.LVL483:
 618:generated/setup_scr_wave_model.c **** 	lv_obj_set_style_shadow_width(ui->wave_model_N_val, 0, LV_PART_MAIN | LV_STATE_DEFAULT);
 3455              		.loc 1 618 2 view .LVU776
ARM GAS  C:\usertemp\cctMo5e7.s 			page 89


 3456 12e0 2A46     		mov	r2, r5
 3457 12e2 2946     		mov	r1, r5
 3458 12e4 D4F88400 		ldr	r0, [r4, #132]
 3459 12e8 FFF7FEFF 		bl	lv_obj_set_style_shadow_width
 3460              	.LVL484:
 619:generated/setup_scr_wave_model.c **** 
 620:generated/setup_scr_wave_model.c **** 	// Write codes wave_model_num_1
 621:generated/setup_scr_wave_model.c **** 	ui->wave_model_num_1 = lv_label_create(ui->wave_model);
 3461              		.loc 1 621 2 view .LVU777
 3462              		.loc 1 621 25 is_stmt 0 view .LVU778
 3463 12ec 2068     		ldr	r0, [r4]
 3464 12ee FFF7FEFF 		bl	lv_label_create
 3465              	.LVL485:
 3466              		.loc 1 621 23 discriminator 1 view .LVU779
 3467 12f2 C4F88800 		str	r0, [r4, #136]
 622:generated/setup_scr_wave_model.c **** 	lv_label_set_text(ui->wave_model_num_1, "1");
 3468              		.loc 1 622 2 is_stmt 1 view .LVU780
 3469 12f6 C549     		ldr	r1, .L19+8
 3470 12f8 FFF7FEFF 		bl	lv_label_set_text
 3471              	.LVL486:
 623:generated/setup_scr_wave_model.c **** 	lv_label_set_long_mode(ui->wave_model_num_1, LV_LABEL_LONG_WRAP);
 3472              		.loc 1 623 2 view .LVU781
 3473 12fc 2946     		mov	r1, r5
 3474 12fe D4F88800 		ldr	r0, [r4, #136]
 3475 1302 FFF7FEFF 		bl	lv_label_set_long_mode
 3476              	.LVL487:
 624:generated/setup_scr_wave_model.c **** 	lv_obj_set_pos(ui->wave_model_num_1, -30, 30);
 3477              		.loc 1 624 2 view .LVU782
 3478 1306 1E22     		movs	r2, #30
 3479 1308 6FF01D01 		mvn	r1, #29
 3480 130c D4F88800 		ldr	r0, [r4, #136]
 3481 1310 FFF7FEFF 		bl	lv_obj_set_pos
 3482              	.LVL488:
 625:generated/setup_scr_wave_model.c **** 	lv_obj_set_size(ui->wave_model_num_1, 100, 32);
 3483              		.loc 1 625 2 view .LVU783
 3484 1314 2022     		movs	r2, #32
 3485 1316 6421     		movs	r1, #100
 3486 1318 D4F88800 		ldr	r0, [r4, #136]
 3487 131c FFF7FEFF 		bl	lv_obj_set_size
 3488              	.LVL489:
 626:generated/setup_scr_wave_model.c **** 
 627:generated/setup_scr_wave_model.c **** 	// Write style for wave_model_num_1, Part: LV_PART_MAIN, State: LV_STATE_DEFAULT.
 628:generated/setup_scr_wave_model.c **** 	lv_obj_set_style_border_width(ui->wave_model_num_1, 0, LV_PART_MAIN | LV_STATE_DEFAULT);
 3489              		.loc 1 628 2 view .LVU784
 3490 1320 2A46     		mov	r2, r5
 3491 1322 2946     		mov	r1, r5
 3492 1324 D4F88800 		ldr	r0, [r4, #136]
 3493 1328 FFF7FEFF 		bl	lv_obj_set_style_border_width
 3494              	.LVL490:
 629:generated/setup_scr_wave_model.c **** 	lv_obj_set_style_radius(ui->wave_model_num_1, 0, LV_PART_MAIN | LV_STATE_DEFAULT);
 3495              		.loc 1 629 2 view .LVU785
 3496 132c 2A46     		mov	r2, r5
 3497 132e 2946     		mov	r1, r5
 3498 1330 D4F88800 		ldr	r0, [r4, #136]
 3499 1334 FFF7FEFF 		bl	lv_obj_set_style_radius
 3500              	.LVL491:
 630:generated/setup_scr_wave_model.c **** 	lv_obj_set_style_text_color(ui->wave_model_num_1, lv_color_hex(0x000000), LV_PART_MAIN | LV_STATE_
ARM GAS  C:\usertemp\cctMo5e7.s 			page 90


 3501              		.loc 1 630 2 view .LVU786
 3502              	.LBB224:
 3503              	.LBI224:
 597:lvgl/src/hal/../draw/../misc/lv_color.h **** {
 3504              		.loc 3 597 26 view .LVU787
 3505              	.LBB225:
 600:lvgl/src/hal/../draw/../misc/lv_color.h **** #if LV_COLOR_16_SWAP == 0
 3506              		.loc 3 600 5 view .LVU788
 616:lvgl/src/hal/../draw/../misc/lv_color.h **** #else
 3507              		.loc 3 616 5 view .LVU789
 3508              		.loc 3 621 5 view .LVU790
 3509              		.loc 3 621 5 is_stmt 0 view .LVU791
 3510              	.LBE225:
 3511              	.LBE224:
 3512              		.loc 1 630 2 discriminator 1 view .LVU792
 3513 1338 2A46     		mov	r2, r5
 3514 133a 2946     		mov	r1, r5	@ movhi
 3515 133c D4F88800 		ldr	r0, [r4, #136]
 3516 1340 FFF7FEFF 		bl	lv_obj_set_style_text_color
 3517              	.LVL492:
 631:generated/setup_scr_wave_model.c **** 	lv_obj_set_style_text_font(ui->wave_model_num_1, &lv_font_arial_32, LV_PART_MAIN | LV_STATE_DEFAUL
 3518              		.loc 1 631 2 is_stmt 1 view .LVU793
 3519 1344 2A46     		mov	r2, r5
 3520 1346 B249     		ldr	r1, .L19+12
 3521 1348 D4F88800 		ldr	r0, [r4, #136]
 3522 134c FFF7FEFF 		bl	lv_obj_set_style_text_font
 3523              	.LVL493:
 632:generated/setup_scr_wave_model.c **** 	lv_obj_set_style_text_letter_space(ui->wave_model_num_1, 2, LV_PART_MAIN | LV_STATE_DEFAULT);
 3524              		.loc 1 632 2 view .LVU794
 3525 1350 2A46     		mov	r2, r5
 3526 1352 0221     		movs	r1, #2
 3527 1354 D4F88800 		ldr	r0, [r4, #136]
 3528 1358 FFF7FEFF 		bl	lv_obj_set_style_text_letter_space
 3529              	.LVL494:
 633:generated/setup_scr_wave_model.c **** 	lv_obj_set_style_text_line_space(ui->wave_model_num_1, 0, LV_PART_MAIN | LV_STATE_DEFAULT);
 3530              		.loc 1 633 2 view .LVU795
 3531 135c 2A46     		mov	r2, r5
 3532 135e 2946     		mov	r1, r5
 3533 1360 D4F88800 		ldr	r0, [r4, #136]
 3534 1364 FFF7FEFF 		bl	lv_obj_set_style_text_line_space
 3535              	.LVL495:
 634:generated/setup_scr_wave_model.c **** 	lv_obj_set_style_text_align(ui->wave_model_num_1, LV_TEXT_ALIGN_CENTER, LV_PART_MAIN | LV_STATE_DE
 3536              		.loc 1 634 2 view .LVU796
 3537 1368 2A46     		mov	r2, r5
 3538 136a 0221     		movs	r1, #2
 3539 136c D4F88800 		ldr	r0, [r4, #136]
 3540 1370 FFF7FEFF 		bl	lv_obj_set_style_text_align
 3541              	.LVL496:
 635:generated/setup_scr_wave_model.c **** 	lv_obj_set_style_bg_opa(ui->wave_model_num_1, 0, LV_PART_MAIN | LV_STATE_DEFAULT);
 3542              		.loc 1 635 2 view .LVU797
 3543 1374 2A46     		mov	r2, r5
 3544 1376 2946     		mov	r1, r5
 3545 1378 D4F88800 		ldr	r0, [r4, #136]
 3546 137c FFF7FEFF 		bl	lv_obj_set_style_bg_opa
 3547              	.LVL497:
 636:generated/setup_scr_wave_model.c **** 	lv_obj_set_style_pad_top(ui->wave_model_num_1, 0, LV_PART_MAIN | LV_STATE_DEFAULT);
 3548              		.loc 1 636 2 view .LVU798
ARM GAS  C:\usertemp\cctMo5e7.s 			page 91


 3549 1380 2A46     		mov	r2, r5
 3550 1382 2946     		mov	r1, r5
 3551 1384 D4F88800 		ldr	r0, [r4, #136]
 3552 1388 FFF7FEFF 		bl	lv_obj_set_style_pad_top
 3553              	.LVL498:
 637:generated/setup_scr_wave_model.c **** 	lv_obj_set_style_pad_right(ui->wave_model_num_1, 0, LV_PART_MAIN | LV_STATE_DEFAULT);
 3554              		.loc 1 637 2 view .LVU799
 3555 138c 2A46     		mov	r2, r5
 3556 138e 2946     		mov	r1, r5
 3557 1390 D4F88800 		ldr	r0, [r4, #136]
 3558 1394 FFF7FEFF 		bl	lv_obj_set_style_pad_right
 3559              	.LVL499:
 638:generated/setup_scr_wave_model.c **** 	lv_obj_set_style_pad_bottom(ui->wave_model_num_1, 0, LV_PART_MAIN | LV_STATE_DEFAULT);
 3560              		.loc 1 638 2 view .LVU800
 3561 1398 2A46     		mov	r2, r5
 3562 139a 2946     		mov	r1, r5
 3563 139c D4F88800 		ldr	r0, [r4, #136]
 3564 13a0 FFF7FEFF 		bl	lv_obj_set_style_pad_bottom
 3565              	.LVL500:
 639:generated/setup_scr_wave_model.c **** 	lv_obj_set_style_pad_left(ui->wave_model_num_1, 0, LV_PART_MAIN | LV_STATE_DEFAULT);
 3566              		.loc 1 639 2 view .LVU801
 3567 13a4 2A46     		mov	r2, r5
 3568 13a6 2946     		mov	r1, r5
 3569 13a8 D4F88800 		ldr	r0, [r4, #136]
 3570 13ac FFF7FEFF 		bl	lv_obj_set_style_pad_left
 3571              	.LVL501:
 640:generated/setup_scr_wave_model.c **** 	lv_obj_set_style_shadow_width(ui->wave_model_num_1, 0, LV_PART_MAIN | LV_STATE_DEFAULT);
 3572              		.loc 1 640 2 view .LVU802
 3573 13b0 2A46     		mov	r2, r5
 3574 13b2 2946     		mov	r1, r5
 3575 13b4 D4F88800 		ldr	r0, [r4, #136]
 3576 13b8 FFF7FEFF 		bl	lv_obj_set_style_shadow_width
 3577              	.LVL502:
 641:generated/setup_scr_wave_model.c **** 
 642:generated/setup_scr_wave_model.c **** 	// Write codes wave_model_chart_2
 643:generated/setup_scr_wave_model.c **** 	ui->wave_model_chart_2 = lv_chart_create(ui->wave_model);
 3578              		.loc 1 643 2 view .LVU803
 3579              		.loc 1 643 27 is_stmt 0 view .LVU804
 3580 13bc 2068     		ldr	r0, [r4]
 3581 13be FFF7FEFF 		bl	lv_chart_create
 3582              	.LVL503:
 3583              		.loc 1 643 25 discriminator 1 view .LVU805
 3584 13c2 C4F88C00 		str	r0, [r4, #140]
 644:generated/setup_scr_wave_model.c **** 	lv_chart_set_type(ui->wave_model_chart_2, LV_CHART_TYPE_LINE);
 3585              		.loc 1 644 2 is_stmt 1 view .LVU806
 3586 13c6 0121     		movs	r1, #1
 3587 13c8 FFF7FEFF 		bl	lv_chart_set_type
 3588              	.LVL504:
 645:generated/setup_scr_wave_model.c **** 	lv_chart_set_div_line_count(ui->wave_model_chart_2, 0, 0);
 3589              		.loc 1 645 2 view .LVU807
 3590 13cc 2A46     		mov	r2, r5
 3591 13ce 2946     		mov	r1, r5
 3592 13d0 D4F88C00 		ldr	r0, [r4, #140]
 3593 13d4 FFF7FEFF 		bl	lv_chart_set_div_line_count
 3594              	.LVL505:
 646:generated/setup_scr_wave_model.c **** 	lv_chart_set_point_count(ui->wave_model_chart_2, 5);
 3595              		.loc 1 646 2 view .LVU808
ARM GAS  C:\usertemp\cctMo5e7.s 			page 92


 3596 13d8 0521     		movs	r1, #5
 3597 13da D4F88C00 		ldr	r0, [r4, #140]
 3598 13de FFF7FEFF 		bl	lv_chart_set_point_count
 3599              	.LVL506:
 647:generated/setup_scr_wave_model.c **** 	lv_chart_set_range(ui->wave_model_chart_2, LV_CHART_AXIS_PRIMARY_Y, 0, 340);
 3600              		.loc 1 647 2 view .LVU809
 3601 13e2 4FF4AA73 		mov	r3, #340
 3602 13e6 2A46     		mov	r2, r5
 3603 13e8 2946     		mov	r1, r5
 3604 13ea D4F88C00 		ldr	r0, [r4, #140]
 3605 13ee FFF7FEFF 		bl	lv_chart_set_range
 3606              	.LVL507:
 648:generated/setup_scr_wave_model.c **** 	lv_chart_set_range(ui->wave_model_chart_2, LV_CHART_AXIS_SECONDARY_Y, 0, 100);
 3607              		.loc 1 648 2 view .LVU810
 3608 13f2 6423     		movs	r3, #100
 3609 13f4 2A46     		mov	r2, r5
 3610 13f6 0121     		movs	r1, #1
 3611 13f8 D4F88C00 		ldr	r0, [r4, #140]
 3612 13fc FFF7FEFF 		bl	lv_chart_set_range
 3613              	.LVL508:
 649:generated/setup_scr_wave_model.c **** 	lv_chart_set_zoom_x(ui->wave_model_chart_2, 256);
 3614              		.loc 1 649 2 view .LVU811
 3615 1400 4FF48071 		mov	r1, #256
 3616 1404 D4F88C00 		ldr	r0, [r4, #140]
 3617 1408 FFF7FEFF 		bl	lv_chart_set_zoom_x
 3618              	.LVL509:
 650:generated/setup_scr_wave_model.c **** 	lv_chart_set_zoom_y(ui->wave_model_chart_2, 256);
 3619              		.loc 1 650 2 view .LVU812
 3620 140c 4FF48071 		mov	r1, #256
 3621 1410 D4F88C00 		ldr	r0, [r4, #140]
 3622 1414 FFF7FEFF 		bl	lv_chart_set_zoom_y
 3623              	.LVL510:
 651:generated/setup_scr_wave_model.c **** 	lv_obj_set_pos(ui->wave_model_chart_2, 47, 70);
 3624              		.loc 1 651 2 view .LVU813
 3625 1418 4622     		movs	r2, #70
 3626 141a 2F21     		movs	r1, #47
 3627 141c D4F88C00 		ldr	r0, [r4, #140]
 3628 1420 FFF7FEFF 		bl	lv_obj_set_pos
 3629              	.LVL511:
 652:generated/setup_scr_wave_model.c **** 	lv_obj_set_size(ui->wave_model_chart_2, 520, 340);
 3630              		.loc 1 652 2 view .LVU814
 3631 1424 4FF4AA72 		mov	r2, #340
 3632 1428 4FF40271 		mov	r1, #520
 3633 142c D4F88C00 		ldr	r0, [r4, #140]
 3634 1430 FFF7FEFF 		bl	lv_obj_set_size
 3635              	.LVL512:
 653:generated/setup_scr_wave_model.c **** 	lv_obj_set_scrollbar_mode(ui->wave_model_chart_2, LV_SCROLLBAR_MODE_OFF);
 3636              		.loc 1 653 2 view .LVU815
 3637 1434 2946     		mov	r1, r5
 3638 1436 D4F88C00 		ldr	r0, [r4, #140]
 3639 143a FFF7FEFF 		bl	lv_obj_set_scrollbar_mode
 3640              	.LVL513:
 654:generated/setup_scr_wave_model.c **** 	// lv_obj_add_flag(ui->wave_model_chart_2, LV_OBJ_FLAG_HIDDEN);
 655:generated/setup_scr_wave_model.c **** 	lv_obj_add_flag(ui->wave_model_chart_2, LV_OBJ_FLAG_CLICK_FOCUSABLE);
 3641              		.loc 1 655 2 view .LVU816
 3642 143e 0421     		movs	r1, #4
 3643 1440 D4F88C00 		ldr	r0, [r4, #140]
ARM GAS  C:\usertemp\cctMo5e7.s 			page 93


 3644 1444 FFF7FEFF 		bl	lv_obj_add_flag
 3645              	.LVL514:
 656:generated/setup_scr_wave_model.c **** 
 657:generated/setup_scr_wave_model.c **** 	// Write style for wave_model_chart_2, Part: LV_PART_MAIN, State: LV_STATE_DEFAULT.
 658:generated/setup_scr_wave_model.c **** 	lv_obj_set_style_bg_opa(ui->wave_model_chart_2, 0, LV_PART_MAIN | LV_STATE_DEFAULT);
 3646              		.loc 1 658 2 view .LVU817
 3647 1448 2A46     		mov	r2, r5
 3648 144a 2946     		mov	r1, r5
 3649 144c D4F88C00 		ldr	r0, [r4, #140]
 3650 1450 FFF7FEFF 		bl	lv_obj_set_style_bg_opa
 3651              	.LVL515:
 659:generated/setup_scr_wave_model.c **** 	lv_obj_set_style_border_width(ui->wave_model_chart_2, 2, LV_PART_MAIN | LV_STATE_DEFAULT);
 3652              		.loc 1 659 2 view .LVU818
 3653 1454 2A46     		mov	r2, r5
 3654 1456 0221     		movs	r1, #2
 3655 1458 D4F88C00 		ldr	r0, [r4, #140]
 3656 145c FFF7FEFF 		bl	lv_obj_set_style_border_width
 3657              	.LVL516:
 660:generated/setup_scr_wave_model.c **** 	lv_obj_set_style_border_opa(ui->wave_model_chart_2, 255, LV_PART_MAIN | LV_STATE_DEFAULT);
 3658              		.loc 1 660 2 view .LVU819
 3659 1460 2A46     		mov	r2, r5
 3660 1462 FF21     		movs	r1, #255
 3661 1464 D4F88C00 		ldr	r0, [r4, #140]
 3662 1468 FFF7FEFF 		bl	lv_obj_set_style_border_opa
 3663              	.LVL517:
 661:generated/setup_scr_wave_model.c **** 	lv_obj_set_style_border_color(ui->wave_model_chart_2, lv_color_hex(0x000000), LV_PART_MAIN | LV_ST
 3664              		.loc 1 661 2 view .LVU820
 3665              	.LBB226:
 3666              	.LBI226:
 597:lvgl/src/hal/../draw/../misc/lv_color.h **** {
 3667              		.loc 3 597 26 view .LVU821
 3668              	.LBB227:
 600:lvgl/src/hal/../draw/../misc/lv_color.h **** #if LV_COLOR_16_SWAP == 0
 3669              		.loc 3 600 5 view .LVU822
 616:lvgl/src/hal/../draw/../misc/lv_color.h **** #else
 3670              		.loc 3 616 5 view .LVU823
 3671              		.loc 3 621 5 view .LVU824
 3672              		.loc 3 621 5 is_stmt 0 view .LVU825
 3673              	.LBE227:
 3674              	.LBE226:
 3675              		.loc 1 661 2 discriminator 1 view .LVU826
 3676 146c 2A46     		mov	r2, r5
 3677 146e 2946     		mov	r1, r5	@ movhi
 3678 1470 D4F88C00 		ldr	r0, [r4, #140]
 3679 1474 FFF7FEFF 		bl	lv_obj_set_style_border_color
 3680              	.LVL518:
 662:generated/setup_scr_wave_model.c **** 	lv_obj_set_style_border_side(ui->wave_model_chart_2, LV_BORDER_SIDE_FULL, LV_PART_MAIN | LV_STATE_
 3681              		.loc 1 662 2 is_stmt 1 view .LVU827
 3682 1478 2A46     		mov	r2, r5
 3683 147a 0F21     		movs	r1, #15
 3684 147c D4F88C00 		ldr	r0, [r4, #140]
 3685 1480 FFF7FEFF 		bl	lv_obj_set_style_border_side
 3686              	.LVL519:
 663:generated/setup_scr_wave_model.c **** 	lv_obj_set_style_radius(ui->wave_model_chart_2, 0, LV_PART_MAIN | LV_STATE_DEFAULT);
 3687              		.loc 1 663 2 view .LVU828
 3688 1484 2A46     		mov	r2, r5
 3689 1486 2946     		mov	r1, r5
ARM GAS  C:\usertemp\cctMo5e7.s 			page 94


 3690 1488 D4F88C00 		ldr	r0, [r4, #140]
 3691 148c FFF7FEFF 		bl	lv_obj_set_style_radius
 3692              	.LVL520:
 664:generated/setup_scr_wave_model.c **** 	lv_obj_set_style_line_width(ui->wave_model_chart_2, 2, LV_PART_MAIN | LV_STATE_DEFAULT);
 3693              		.loc 1 664 2 view .LVU829
 3694 1490 2A46     		mov	r2, r5
 3695 1492 0221     		movs	r1, #2
 3696 1494 D4F88C00 		ldr	r0, [r4, #140]
 3697 1498 FFF7FEFF 		bl	lv_obj_set_style_line_width
 3698              	.LVL521:
 665:generated/setup_scr_wave_model.c **** 	lv_obj_set_style_line_color(ui->wave_model_chart_2, lv_color_hex(0xaba0a0), LV_PART_MAIN | LV_STAT
 3699              		.loc 1 665 2 view .LVU830
 3700              	.LBB228:
 3701              	.LBI228:
 597:lvgl/src/hal/../draw/../misc/lv_color.h **** {
 3702              		.loc 3 597 26 view .LVU831
 3703              	.LBB229:
 600:lvgl/src/hal/../draw/../misc/lv_color.h **** #if LV_COLOR_16_SWAP == 0
 3704              		.loc 3 600 5 view .LVU832
 616:lvgl/src/hal/../draw/../misc/lv_color.h **** #else
 3705              		.loc 3 616 5 view .LVU833
 3706              		.loc 3 621 5 view .LVU834
 3707              		.loc 3 621 5 is_stmt 0 view .LVU835
 3708              	.LBE229:
 3709              	.LBE228:
 3710              		.loc 1 665 2 discriminator 1 view .LVU836
 3711 149c 2A46     		mov	r2, r5
 3712 149e 4AF61451 		movw	r1, 44308	@ movhi
 3713 14a2 D4F88C00 		ldr	r0, [r4, #140]
 3714 14a6 FFF7FEFF 		bl	lv_obj_set_style_line_color
 3715              	.LVL522:
 666:generated/setup_scr_wave_model.c **** 	lv_obj_set_style_line_opa(ui->wave_model_chart_2, 255, LV_PART_MAIN | LV_STATE_DEFAULT);
 3716              		.loc 1 666 2 is_stmt 1 view .LVU837
 3717 14aa 2A46     		mov	r2, r5
 3718 14ac FF21     		movs	r1, #255
 3719 14ae D4F88C00 		ldr	r0, [r4, #140]
 3720 14b2 FFF7FEFF 		bl	lv_obj_set_style_line_opa
 3721              	.LVL523:
 667:generated/setup_scr_wave_model.c **** 	lv_obj_set_style_shadow_width(ui->wave_model_chart_2, 0, LV_PART_MAIN | LV_STATE_DEFAULT);
 3722              		.loc 1 667 2 view .LVU838
 3723 14b6 2A46     		mov	r2, r5
 3724 14b8 2946     		mov	r1, r5
 3725 14ba D4F88C00 		ldr	r0, [r4, #140]
 3726 14be FFF7FEFF 		bl	lv_obj_set_style_shadow_width
 3727              	.LVL524:
 668:generated/setup_scr_wave_model.c **** 
 669:generated/setup_scr_wave_model.c **** 	// Write style for wave_model_chart_2, Part: LV_PART_TICKS, State: LV_STATE_DEFAULT.
 670:generated/setup_scr_wave_model.c **** 	lv_obj_set_style_text_color(ui->wave_model_chart_2, lv_color_hex(0x151212), LV_PART_TICKS | LV_STA
 3728              		.loc 1 670 2 view .LVU839
 3729              	.LBB230:
 3730              	.LBI230:
 597:lvgl/src/hal/../draw/../misc/lv_color.h **** {
 3731              		.loc 3 597 26 view .LVU840
 3732              	.LBB231:
 600:lvgl/src/hal/../draw/../misc/lv_color.h **** #if LV_COLOR_16_SWAP == 0
 3733              		.loc 3 600 5 view .LVU841
 616:lvgl/src/hal/../draw/../misc/lv_color.h **** #else
ARM GAS  C:\usertemp\cctMo5e7.s 			page 95


 3734              		.loc 3 616 5 view .LVU842
 3735              		.loc 3 621 5 view .LVU843
 3736              		.loc 3 621 5 is_stmt 0 view .LVU844
 3737              	.LBE231:
 3738              	.LBE230:
 3739              		.loc 1 670 2 discriminator 1 view .LVU845
 3740 14c2 4FF4C022 		mov	r2, #393216
 3741 14c6 41F28201 		movw	r1, 4226	@ movhi
 3742 14ca D4F88C00 		ldr	r0, [r4, #140]
 3743 14ce FFF7FEFF 		bl	lv_obj_set_style_text_color
 3744              	.LVL525:
 671:generated/setup_scr_wave_model.c **** 	lv_obj_set_style_text_font(ui->wave_model_chart_2, &lv_font_montserratMedium_12, LV_PART_TICKS | L
 3745              		.loc 1 671 2 is_stmt 1 view .LVU846
 3746 14d2 4FF4C022 		mov	r2, #393216
 3747 14d6 4F49     		ldr	r1, .L19+16
 3748 14d8 D4F88C00 		ldr	r0, [r4, #140]
 3749 14dc FFF7FEFF 		bl	lv_obj_set_style_text_font
 3750              	.LVL526:
 672:generated/setup_scr_wave_model.c **** 	lv_obj_set_style_line_width(ui->wave_model_chart_2, 2, LV_PART_TICKS | LV_STATE_DEFAULT);
 3751              		.loc 1 672 2 view .LVU847
 3752 14e0 4FF4C022 		mov	r2, #393216
 3753 14e4 0221     		movs	r1, #2
 3754 14e6 D4F88C00 		ldr	r0, [r4, #140]
 3755 14ea FFF7FEFF 		bl	lv_obj_set_style_line_width
 3756              	.LVL527:
 673:generated/setup_scr_wave_model.c **** 	lv_obj_set_style_line_color(ui->wave_model_chart_2, lv_color_hex(0xe8e8e8), LV_PART_TICKS | LV_STA
 3757              		.loc 1 673 2 view .LVU848
 3758              	.LBB232:
 3759              	.LBI232:
 597:lvgl/src/hal/../draw/../misc/lv_color.h **** {
 3760              		.loc 3 597 26 view .LVU849
 3761              	.LBB233:
 600:lvgl/src/hal/../draw/../misc/lv_color.h **** #if LV_COLOR_16_SWAP == 0
 3762              		.loc 3 600 5 view .LVU850
 616:lvgl/src/hal/../draw/../misc/lv_color.h **** #else
 3763              		.loc 3 616 5 view .LVU851
 3764              		.loc 3 621 5 view .LVU852
 3765              		.loc 3 621 5 is_stmt 0 view .LVU853
 3766              	.LBE233:
 3767              	.LBE232:
 3768              		.loc 1 673 2 discriminator 1 view .LVU854
 3769 14ee 4FF4C022 		mov	r2, #393216
 3770 14f2 4EF65D71 		movw	r1, 61277	@ movhi
 3771 14f6 D4F88C00 		ldr	r0, [r4, #140]
 3772 14fa FFF7FEFF 		bl	lv_obj_set_style_line_color
 3773              	.LVL528:
 674:generated/setup_scr_wave_model.c **** 	lv_obj_set_style_line_opa(ui->wave_model_chart_2, 255, LV_PART_TICKS | LV_STATE_DEFAULT);
 3774              		.loc 1 674 2 is_stmt 1 view .LVU855
 3775 14fe 4FF4C022 		mov	r2, #393216
 3776 1502 FF21     		movs	r1, #255
 3777 1504 D4F88C00 		ldr	r0, [r4, #140]
 3778 1508 FFF7FEFF 		bl	lv_obj_set_style_line_opa
 3779              	.LVL529:
 675:generated/setup_scr_wave_model.c **** 
 676:generated/setup_scr_wave_model.c **** 	// Write codes wave_model_btn_8
 677:generated/setup_scr_wave_model.c **** 	ui->wave_model_btn_8 = lv_btn_create(ui->wave_model);
 3780              		.loc 1 677 2 view .LVU856
ARM GAS  C:\usertemp\cctMo5e7.s 			page 96


 3781              		.loc 1 677 25 is_stmt 0 view .LVU857
 3782 150c 2068     		ldr	r0, [r4]
 3783 150e FFF7FEFF 		bl	lv_btn_create
 3784              	.LVL530:
 3785              		.loc 1 677 23 discriminator 1 view .LVU858
 3786 1512 C4F89800 		str	r0, [r4, #152]
 678:generated/setup_scr_wave_model.c **** 	ui->wave_model_btn_8_label = lv_label_create(ui->wave_model_btn_8);
 3787              		.loc 1 678 2 is_stmt 1 view .LVU859
 3788              		.loc 1 678 31 is_stmt 0 view .LVU860
 3789 1516 FFF7FEFF 		bl	lv_label_create
 3790              	.LVL531:
 3791              		.loc 1 678 29 discriminator 1 view .LVU861
 3792 151a C4F89C00 		str	r0, [r4, #156]
 679:generated/setup_scr_wave_model.c **** 	lv_label_set_text(ui->wave_model_btn_8_label, "<");
 3793              		.loc 1 679 2 is_stmt 1 view .LVU862
 3794 151e 3E49     		ldr	r1, .L19+20
 3795 1520 FFF7FEFF 		bl	lv_label_set_text
 3796              	.LVL532:
 680:generated/setup_scr_wave_model.c **** 	lv_label_set_long_mode(ui->wave_model_btn_8_label, LV_LABEL_LONG_WRAP);
 3797              		.loc 1 680 2 view .LVU863
 3798 1524 2946     		mov	r1, r5
 3799 1526 D4F89C00 		ldr	r0, [r4, #156]
 3800 152a FFF7FEFF 		bl	lv_label_set_long_mode
 3801              	.LVL533:
 681:generated/setup_scr_wave_model.c **** 	lv_obj_align(ui->wave_model_btn_8_label, LV_ALIGN_CENTER, 0, 0);
 3802              		.loc 1 681 2 view .LVU864
 3803 152e 2B46     		mov	r3, r5
 3804 1530 2A46     		mov	r2, r5
 3805 1532 0921     		movs	r1, #9
 3806 1534 D4F89C00 		ldr	r0, [r4, #156]
 3807 1538 FFF7FEFF 		bl	lv_obj_align
 3808              	.LVL534:
 682:generated/setup_scr_wave_model.c **** 	lv_obj_set_style_pad_all(ui->wave_model_btn_8, 0, LV_STATE_DEFAULT);
 3809              		.loc 1 682 2 view .LVU865
 3810 153c 2A46     		mov	r2, r5
 3811 153e 2946     		mov	r1, r5
 3812 1540 D4F89800 		ldr	r0, [r4, #152]
 3813 1544 FFF7FEFF 		bl	lv_obj_set_style_pad_all
 3814              	.LVL535:
 683:generated/setup_scr_wave_model.c **** 	lv_obj_set_pos(ui->wave_model_btn_8, 10, 445);
 3815              		.loc 1 683 2 view .LVU866
 3816 1548 40F2BD12 		movw	r2, #445
 3817 154c 0A21     		movs	r1, #10
 3818 154e D4F89800 		ldr	r0, [r4, #152]
 3819 1552 FFF7FEFF 		bl	lv_obj_set_pos
 3820              	.LVL536:
 684:generated/setup_scr_wave_model.c **** 	lv_obj_set_size(ui->wave_model_btn_8, 20, 27);
 3821              		.loc 1 684 2 view .LVU867
 3822 1556 1B22     		movs	r2, #27
 3823 1558 1421     		movs	r1, #20
 3824 155a D4F89800 		ldr	r0, [r4, #152]
 3825 155e FFF7FEFF 		bl	lv_obj_set_size
 3826              	.LVL537:
 685:generated/setup_scr_wave_model.c **** 
 686:generated/setup_scr_wave_model.c **** 	// Write style for wave_model_btn_8, Part: LV_PART_MAIN, State: LV_STATE_DEFAULT.
 687:generated/setup_scr_wave_model.c **** 	lv_obj_set_style_bg_opa(ui->wave_model_btn_8, 255, LV_PART_MAIN | LV_STATE_DEFAULT);
 3827              		.loc 1 687 2 view .LVU868
ARM GAS  C:\usertemp\cctMo5e7.s 			page 97


 3828 1562 2A46     		mov	r2, r5
 3829 1564 FF21     		movs	r1, #255
 3830 1566 D4F89800 		ldr	r0, [r4, #152]
 3831 156a FFF7FEFF 		bl	lv_obj_set_style_bg_opa
 3832              	.LVL538:
 688:generated/setup_scr_wave_model.c **** 	lv_obj_set_style_bg_color(ui->wave_model_btn_8, lv_color_hex(0x2195f6), LV_PART_MAIN | LV_STATE_DE
 3833              		.loc 1 688 2 view .LVU869
 3834              	.LBB234:
 3835              	.LBI234:
 597:lvgl/src/hal/../draw/../misc/lv_color.h **** {
 3836              		.loc 3 597 26 view .LVU870
 3837              	.LBB235:
 600:lvgl/src/hal/../draw/../misc/lv_color.h **** #if LV_COLOR_16_SWAP == 0
 3838              		.loc 3 600 5 view .LVU871
 616:lvgl/src/hal/../draw/../misc/lv_color.h **** #else
 3839              		.loc 3 616 5 view .LVU872
 3840              		.loc 3 621 5 view .LVU873
 3841              		.loc 3 621 5 is_stmt 0 view .LVU874
 3842              	.LBE235:
 3843              	.LBE234:
 3844              		.loc 1 688 2 discriminator 1 view .LVU875
 3845 156e 2A46     		mov	r2, r5
 3846 1570 42F2BE41 		movw	r1, 9406	@ movhi
 3847 1574 D4F89800 		ldr	r0, [r4, #152]
 3848 1578 FFF7FEFF 		bl	lv_obj_set_style_bg_color
 3849              	.LVL539:
 689:generated/setup_scr_wave_model.c **** 	lv_obj_set_style_border_width(ui->wave_model_btn_8, 0, LV_PART_MAIN | LV_STATE_DEFAULT);
 3850              		.loc 1 689 2 is_stmt 1 view .LVU876
 3851 157c 2A46     		mov	r2, r5
 3852 157e 2946     		mov	r1, r5
 3853 1580 D4F89800 		ldr	r0, [r4, #152]
 3854 1584 FFF7FEFF 		bl	lv_obj_set_style_border_width
 3855              	.LVL540:
 690:generated/setup_scr_wave_model.c **** 	lv_obj_set_style_radius(ui->wave_model_btn_8, 5, LV_PART_MAIN | LV_STATE_DEFAULT);
 3856              		.loc 1 690 2 view .LVU877
 3857 1588 2A46     		mov	r2, r5
 3858 158a 0521     		movs	r1, #5
 3859 158c D4F89800 		ldr	r0, [r4, #152]
 3860 1590 FFF7FEFF 		bl	lv_obj_set_style_radius
 3861              	.LVL541:
 691:generated/setup_scr_wave_model.c **** 	lv_obj_set_style_shadow_width(ui->wave_model_btn_8, 0, LV_PART_MAIN | LV_STATE_DEFAULT);
 3862              		.loc 1 691 2 view .LVU878
 3863 1594 2A46     		mov	r2, r5
 3864 1596 2946     		mov	r1, r5
 3865 1598 D4F89800 		ldr	r0, [r4, #152]
 3866 159c FFF7FEFF 		bl	lv_obj_set_style_shadow_width
 3867              	.LVL542:
 692:generated/setup_scr_wave_model.c **** 	lv_obj_set_style_text_color(ui->wave_model_btn_8, lv_color_hex(0xffffff), LV_PART_MAIN | LV_STATE_
 3868              		.loc 1 692 2 view .LVU879
 3869              	.LBB236:
 3870              	.LBI236:
 597:lvgl/src/hal/../draw/../misc/lv_color.h **** {
 3871              		.loc 3 597 26 view .LVU880
 3872              	.LBB237:
 600:lvgl/src/hal/../draw/../misc/lv_color.h **** #if LV_COLOR_16_SWAP == 0
 3873              		.loc 3 600 5 view .LVU881
 616:lvgl/src/hal/../draw/../misc/lv_color.h **** #else
ARM GAS  C:\usertemp\cctMo5e7.s 			page 98


 3874              		.loc 3 616 5 view .LVU882
 3875              		.loc 3 621 5 view .LVU883
 3876              		.loc 3 621 5 is_stmt 0 view .LVU884
 3877              	.LBE237:
 3878              	.LBE236:
 3879              		.loc 1 692 2 discriminator 1 view .LVU885
 3880 15a0 2A46     		mov	r2, r5
 3881 15a2 4FF0FF31 		mov	r1, #-1	@ movhi
 3882 15a6 D4F89800 		ldr	r0, [r4, #152]
 3883 15aa FFF7FEFF 		bl	lv_obj_set_style_text_color
 3884              	.LVL543:
 693:generated/setup_scr_wave_model.c **** 	lv_obj_set_style_text_font(ui->wave_model_btn_8, &lv_font_simsun_16, LV_PART_MAIN | LV_STATE_DEFAU
 3885              		.loc 1 693 2 is_stmt 1 view .LVU886
 3886 15ae 2A46     		mov	r2, r5
 3887 15b0 1A49     		ldr	r1, .L19+24
 3888 15b2 D4F89800 		ldr	r0, [r4, #152]
 3889 15b6 FFF7FEFF 		bl	lv_obj_set_style_text_font
 3890              	.LVL544:
 694:generated/setup_scr_wave_model.c **** 	lv_obj_set_style_text_align(ui->wave_model_btn_8, LV_TEXT_ALIGN_CENTER, LV_PART_MAIN | LV_STATE_DE
 3891              		.loc 1 694 2 view .LVU887
 3892 15ba 2A46     		mov	r2, r5
 3893 15bc 0221     		movs	r1, #2
 3894 15be D4F89800 		ldr	r0, [r4, #152]
 3895 15c2 FFF7FEFF 		bl	lv_obj_set_style_text_align
 3896              	.LVL545:
 695:generated/setup_scr_wave_model.c **** 
 696:generated/setup_scr_wave_model.c **** 	// Write codes wave_model_table_1
 697:generated/setup_scr_wave_model.c **** 	ui->wave_model_table_1 = lv_table_create(ui->wave_model);
 3897              		.loc 1 697 2 view .LVU888
 3898              		.loc 1 697 27 is_stmt 0 view .LVU889
 3899 15c6 2068     		ldr	r0, [r4]
 3900 15c8 FFF7FEFF 		bl	lv_table_create
 3901              	.LVL546:
 3902              		.loc 1 697 25 discriminator 1 view .LVU890
 3903 15cc C4F8A000 		str	r0, [r4, #160]
 698:generated/setup_scr_wave_model.c **** 	lv_table_set_col_cnt(ui->wave_model_table_1, 4);
 3904              		.loc 1 698 2 is_stmt 1 view .LVU891
 3905 15d0 0421     		movs	r1, #4
 3906 15d2 FFF7FEFF 		bl	lv_table_set_col_cnt
 3907              	.LVL547:
 699:generated/setup_scr_wave_model.c **** 	lv_table_set_row_cnt(ui->wave_model_table_1, 5);
 3908              		.loc 1 699 2 view .LVU892
 3909 15d6 0521     		movs	r1, #5
 3910 15d8 D4F8A000 		ldr	r0, [r4, #160]
 3911 15dc FFF7FEFF 		bl	lv_table_set_row_cnt
 3912              	.LVL548:
 700:generated/setup_scr_wave_model.c **** 	lv_obj_add_flag(ui->wave_model_table_1, LV_OBJ_FLAG_HIDDEN);
 3913              		.loc 1 700 2 view .LVU893
 3914 15e0 0121     		movs	r1, #1
 3915 15e2 D4F8A000 		ldr	r0, [r4, #160]
 3916 15e6 FFF7FEFF 		bl	lv_obj_add_flag
 3917              	.LVL549:
 701:generated/setup_scr_wave_model.c **** 	lv_table_set_cell_value(ui->wave_model_table_1, 0, 0, "RMS");
 3918              		.loc 1 701 2 view .LVU894
 3919 15ea 0D4B     		ldr	r3, .L19+28
 3920 15ec 2A46     		mov	r2, r5
 3921 15ee 2946     		mov	r1, r5
ARM GAS  C:\usertemp\cctMo5e7.s 			page 99


 3922 15f0 D4F8A000 		ldr	r0, [r4, #160]
 3923 15f4 FFF7FEFF 		bl	lv_table_set_cell_value
 3924              	.LVL550:
 702:generated/setup_scr_wave_model.c **** 	lv_table_set_cell_value(ui->wave_model_table_1, 1, 0, "MAX");
 3925              		.loc 1 702 2 view .LVU895
 3926 15f8 0A4B     		ldr	r3, .L19+32
 3927 15fa 2A46     		mov	r2, r5
 3928 15fc 0121     		movs	r1, #1
 3929 15fe D4F8A000 		ldr	r0, [r4, #160]
 3930 1602 11E0     		b	.L20
 3931              	.L21:
 3932              		.align	2
 3933              	.L19:
 3934 1604 34000000 		.word	.LC11
 3935 1608 00000000 		.word	lv_font_arial_30
 3936 160c 3C000000 		.word	.LC12
 3937 1610 00000000 		.word	lv_font_arial_32
 3938 1614 00000000 		.word	lv_font_montserratMedium_12
 3939 1618 40000000 		.word	.LC13
 3940 161c 00000000 		.word	lv_font_simsun_16
 3941 1620 44000000 		.word	.LC14
 3942 1624 48000000 		.word	.LC15
 3943              	.L20:
 3944 1628 FFF7FEFF 		bl	lv_table_set_cell_value
 3945              	.LVL551:
 703:generated/setup_scr_wave_model.c **** 	lv_table_set_cell_value(ui->wave_model_table_1, 2, 0, "MIN");
 3946              		.loc 1 703 2 view .LVU896
 3947 162c F74B     		ldr	r3, .L22
 3948 162e 2A46     		mov	r2, r5
 3949 1630 0221     		movs	r1, #2
 3950 1632 D4F8A000 		ldr	r0, [r4, #160]
 3951 1636 FFF7FEFF 		bl	lv_table_set_cell_value
 3952              	.LVL552:
 704:generated/setup_scr_wave_model.c **** 	lv_table_set_cell_value(ui->wave_model_table_1, 3, 0, "THD");
 3953              		.loc 1 704 2 view .LVU897
 3954 163a F54B     		ldr	r3, .L22+4
 3955 163c 2A46     		mov	r2, r5
 3956 163e 0321     		movs	r1, #3
 3957 1640 D4F8A000 		ldr	r0, [r4, #160]
 3958 1644 FFF7FEFF 		bl	lv_table_set_cell_value
 3959              	.LVL553:
 705:generated/setup_scr_wave_model.c **** 	lv_table_set_cell_value(ui->wave_model_table_1, 4, 0, "DC");
 3960              		.loc 1 705 2 view .LVU898
 3961 1648 F24B     		ldr	r3, .L22+8
 3962 164a 2A46     		mov	r2, r5
 3963 164c 0421     		movs	r1, #4
 3964 164e D4F8A000 		ldr	r0, [r4, #160]
 3965 1652 FFF7FEFF 		bl	lv_table_set_cell_value
 3966              	.LVL554:
 706:generated/setup_scr_wave_model.c **** 	lv_table_set_cell_value(ui->wave_model_table_1, 0, 1, "0");
 3967              		.loc 1 706 2 view .LVU899
 3968 1656 F04E     		ldr	r6, .L22+12
 3969 1658 3346     		mov	r3, r6
 3970 165a 0122     		movs	r2, #1
 3971 165c 2946     		mov	r1, r5
 3972 165e D4F8A000 		ldr	r0, [r4, #160]
 3973 1662 FFF7FEFF 		bl	lv_table_set_cell_value
ARM GAS  C:\usertemp\cctMo5e7.s 			page 100


 3974              	.LVL555:
 707:generated/setup_scr_wave_model.c **** 	lv_table_set_cell_value(ui->wave_model_table_1, 1, 1, "0");
 3975              		.loc 1 707 2 view .LVU900
 3976 1666 3346     		mov	r3, r6
 3977 1668 0122     		movs	r2, #1
 3978 166a 1146     		mov	r1, r2
 3979 166c D4F8A000 		ldr	r0, [r4, #160]
 3980 1670 FFF7FEFF 		bl	lv_table_set_cell_value
 3981              	.LVL556:
 708:generated/setup_scr_wave_model.c **** 	lv_table_set_cell_value(ui->wave_model_table_1, 2, 1, "0");
 3982              		.loc 1 708 2 view .LVU901
 3983 1674 3346     		mov	r3, r6
 3984 1676 0122     		movs	r2, #1
 3985 1678 0221     		movs	r1, #2
 3986 167a D4F8A000 		ldr	r0, [r4, #160]
 3987 167e FFF7FEFF 		bl	lv_table_set_cell_value
 3988              	.LVL557:
 709:generated/setup_scr_wave_model.c **** 	lv_table_set_cell_value(ui->wave_model_table_1, 3, 1, "0");
 3989              		.loc 1 709 2 view .LVU902
 3990 1682 3346     		mov	r3, r6
 3991 1684 0122     		movs	r2, #1
 3992 1686 0321     		movs	r1, #3
 3993 1688 D4F8A000 		ldr	r0, [r4, #160]
 3994 168c FFF7FEFF 		bl	lv_table_set_cell_value
 3995              	.LVL558:
 710:generated/setup_scr_wave_model.c **** 	lv_table_set_cell_value(ui->wave_model_table_1, 4, 1, "0");
 3996              		.loc 1 710 2 view .LVU903
 3997 1690 3346     		mov	r3, r6
 3998 1692 0122     		movs	r2, #1
 3999 1694 0421     		movs	r1, #4
 4000 1696 D4F8A000 		ldr	r0, [r4, #160]
 4001 169a FFF7FEFF 		bl	lv_table_set_cell_value
 4002              	.LVL559:
 711:generated/setup_scr_wave_model.c **** 	lv_table_set_cell_value(ui->wave_model_table_1, 0, 2, "0");
 4003              		.loc 1 711 2 view .LVU904
 4004 169e 3346     		mov	r3, r6
 4005 16a0 0222     		movs	r2, #2
 4006 16a2 2946     		mov	r1, r5
 4007 16a4 D4F8A000 		ldr	r0, [r4, #160]
 4008 16a8 FFF7FEFF 		bl	lv_table_set_cell_value
 4009              	.LVL560:
 712:generated/setup_scr_wave_model.c **** 	lv_table_set_cell_value(ui->wave_model_table_1, 1, 2, "0");
 4010              		.loc 1 712 2 view .LVU905
 4011 16ac 3346     		mov	r3, r6
 4012 16ae 0222     		movs	r2, #2
 4013 16b0 0121     		movs	r1, #1
 4014 16b2 D4F8A000 		ldr	r0, [r4, #160]
 4015 16b6 FFF7FEFF 		bl	lv_table_set_cell_value
 4016              	.LVL561:
 713:generated/setup_scr_wave_model.c **** 	lv_table_set_cell_value(ui->wave_model_table_1, 2, 2, "0");
 4017              		.loc 1 713 2 view .LVU906
 4018 16ba 3346     		mov	r3, r6
 4019 16bc 0222     		movs	r2, #2
 4020 16be 1146     		mov	r1, r2
 4021 16c0 D4F8A000 		ldr	r0, [r4, #160]
 4022 16c4 FFF7FEFF 		bl	lv_table_set_cell_value
 4023              	.LVL562:
ARM GAS  C:\usertemp\cctMo5e7.s 			page 101


 714:generated/setup_scr_wave_model.c **** 	lv_table_set_cell_value(ui->wave_model_table_1, 3, 2, "0");
 4024              		.loc 1 714 2 view .LVU907
 4025 16c8 3346     		mov	r3, r6
 4026 16ca 0222     		movs	r2, #2
 4027 16cc 0321     		movs	r1, #3
 4028 16ce D4F8A000 		ldr	r0, [r4, #160]
 4029 16d2 FFF7FEFF 		bl	lv_table_set_cell_value
 4030              	.LVL563:
 715:generated/setup_scr_wave_model.c **** 	lv_table_set_cell_value(ui->wave_model_table_1, 4, 2, "0");
 4031              		.loc 1 715 2 view .LVU908
 4032 16d6 3346     		mov	r3, r6
 4033 16d8 0222     		movs	r2, #2
 4034 16da 0421     		movs	r1, #4
 4035 16dc D4F8A000 		ldr	r0, [r4, #160]
 4036 16e0 FFF7FEFF 		bl	lv_table_set_cell_value
 4037              	.LVL564:
 716:generated/setup_scr_wave_model.c **** 	lv_table_set_cell_value(ui->wave_model_table_1, 0, 3, "0");
 4038              		.loc 1 716 2 view .LVU909
 4039 16e4 3346     		mov	r3, r6
 4040 16e6 0322     		movs	r2, #3
 4041 16e8 2946     		mov	r1, r5
 4042 16ea D4F8A000 		ldr	r0, [r4, #160]
 4043 16ee FFF7FEFF 		bl	lv_table_set_cell_value
 4044              	.LVL565:
 717:generated/setup_scr_wave_model.c **** 	lv_table_set_cell_value(ui->wave_model_table_1, 1, 3, "0");
 4045              		.loc 1 717 2 view .LVU910
 4046 16f2 3346     		mov	r3, r6
 4047 16f4 0322     		movs	r2, #3
 4048 16f6 0121     		movs	r1, #1
 4049 16f8 D4F8A000 		ldr	r0, [r4, #160]
 4050 16fc FFF7FEFF 		bl	lv_table_set_cell_value
 4051              	.LVL566:
 718:generated/setup_scr_wave_model.c **** 	lv_table_set_cell_value(ui->wave_model_table_1, 2, 3, "0");
 4052              		.loc 1 718 2 view .LVU911
 4053 1700 3346     		mov	r3, r6
 4054 1702 0322     		movs	r2, #3
 4055 1704 0221     		movs	r1, #2
 4056 1706 D4F8A000 		ldr	r0, [r4, #160]
 4057 170a FFF7FEFF 		bl	lv_table_set_cell_value
 4058              	.LVL567:
 719:generated/setup_scr_wave_model.c **** 	lv_table_set_cell_value(ui->wave_model_table_1, 3, 3, "0");
 4059              		.loc 1 719 2 view .LVU912
 4060 170e 3346     		mov	r3, r6
 4061 1710 0322     		movs	r2, #3
 4062 1712 1146     		mov	r1, r2
 4063 1714 D4F8A000 		ldr	r0, [r4, #160]
 4064 1718 FFF7FEFF 		bl	lv_table_set_cell_value
 4065              	.LVL568:
 720:generated/setup_scr_wave_model.c **** 	lv_table_set_cell_value(ui->wave_model_table_1, 4, 3, "0");
 4066              		.loc 1 720 2 view .LVU913
 4067 171c 3346     		mov	r3, r6
 4068 171e 0322     		movs	r2, #3
 4069 1720 0421     		movs	r1, #4
 4070 1722 D4F8A000 		ldr	r0, [r4, #160]
 4071 1726 FFF7FEFF 		bl	lv_table_set_cell_value
 4072              	.LVL569:
 721:generated/setup_scr_wave_model.c **** 	lv_obj_set_pos(ui->wave_model_table_1, 66, 160);
ARM GAS  C:\usertemp\cctMo5e7.s 			page 102


 4073              		.loc 1 721 2 view .LVU914
 4074 172a A022     		movs	r2, #160
 4075 172c 4221     		movs	r1, #66
 4076 172e D4F8A000 		ldr	r0, [r4, #160]
 4077 1732 FFF7FEFF 		bl	lv_obj_set_pos
 4078              	.LVL570:
 722:generated/setup_scr_wave_model.c **** 	lv_obj_set_scrollbar_mode(ui->wave_model_table_1, LV_SCROLLBAR_MODE_OFF);
 4079              		.loc 1 722 2 view .LVU915
 4080 1736 2946     		mov	r1, r5
 4081 1738 D4F8A000 		ldr	r0, [r4, #160]
 4082 173c FFF7FEFF 		bl	lv_obj_set_scrollbar_mode
 4083              	.LVL571:
 723:generated/setup_scr_wave_model.c **** 
 724:generated/setup_scr_wave_model.c **** 	// Write style for wave_model_table_1, Part: LV_PART_MAIN, State: LV_STATE_DEFAULT.
 725:generated/setup_scr_wave_model.c **** 	lv_obj_set_style_pad_top(ui->wave_model_table_1, 0, LV_PART_MAIN | LV_STATE_DEFAULT);
 4084              		.loc 1 725 2 view .LVU916
 4085 1740 2A46     		mov	r2, r5
 4086 1742 2946     		mov	r1, r5
 4087 1744 D4F8A000 		ldr	r0, [r4, #160]
 4088 1748 FFF7FEFF 		bl	lv_obj_set_style_pad_top
 4089              	.LVL572:
 726:generated/setup_scr_wave_model.c **** 	lv_obj_set_style_pad_bottom(ui->wave_model_table_1, 0, LV_PART_MAIN | LV_STATE_DEFAULT);
 4090              		.loc 1 726 2 view .LVU917
 4091 174c 2A46     		mov	r2, r5
 4092 174e 2946     		mov	r1, r5
 4093 1750 D4F8A000 		ldr	r0, [r4, #160]
 4094 1754 FFF7FEFF 		bl	lv_obj_set_style_pad_bottom
 4095              	.LVL573:
 727:generated/setup_scr_wave_model.c **** 	lv_obj_set_style_pad_left(ui->wave_model_table_1, 0, LV_PART_MAIN | LV_STATE_DEFAULT);
 4096              		.loc 1 727 2 view .LVU918
 4097 1758 2A46     		mov	r2, r5
 4098 175a 2946     		mov	r1, r5
 4099 175c D4F8A000 		ldr	r0, [r4, #160]
 4100 1760 FFF7FEFF 		bl	lv_obj_set_style_pad_left
 4101              	.LVL574:
 728:generated/setup_scr_wave_model.c **** 	lv_obj_set_style_pad_right(ui->wave_model_table_1, 0, LV_PART_MAIN | LV_STATE_DEFAULT);
 4102              		.loc 1 728 2 view .LVU919
 4103 1764 2A46     		mov	r2, r5
 4104 1766 2946     		mov	r1, r5
 4105 1768 D4F8A000 		ldr	r0, [r4, #160]
 4106 176c FFF7FEFF 		bl	lv_obj_set_style_pad_right
 4107              	.LVL575:
 729:generated/setup_scr_wave_model.c **** 	lv_obj_set_style_bg_opa(ui->wave_model_table_1, 255, LV_PART_MAIN | LV_STATE_DEFAULT);
 4108              		.loc 1 729 2 view .LVU920
 4109 1770 2A46     		mov	r2, r5
 4110 1772 FF21     		movs	r1, #255
 4111 1774 D4F8A000 		ldr	r0, [r4, #160]
 4112 1778 FFF7FEFF 		bl	lv_obj_set_style_bg_opa
 4113              	.LVL576:
 730:generated/setup_scr_wave_model.c **** 	lv_obj_set_style_bg_color(ui->wave_model_table_1, lv_color_hex(0xc3dfd6), LV_PART_MAIN | LV_STATE_
 4114              		.loc 1 730 2 view .LVU921
 4115              	.LBB238:
 4116              	.LBI238:
 597:lvgl/src/hal/../draw/../misc/lv_color.h **** {
 4117              		.loc 3 597 26 view .LVU922
 4118              	.LBB239:
 600:lvgl/src/hal/../draw/../misc/lv_color.h **** #if LV_COLOR_16_SWAP == 0
ARM GAS  C:\usertemp\cctMo5e7.s 			page 103


 4119              		.loc 3 600 5 view .LVU923
 616:lvgl/src/hal/../draw/../misc/lv_color.h **** #else
 4120              		.loc 3 616 5 view .LVU924
 4121              		.loc 3 621 5 view .LVU925
 4122              		.loc 3 621 5 is_stmt 0 view .LVU926
 4123              	.LBE239:
 4124              	.LBE238:
 4125              		.loc 1 730 2 discriminator 1 view .LVU927
 4126 177c 2A46     		mov	r2, r5
 4127 177e 4CF2FA61 		movw	r1, 50938	@ movhi
 4128 1782 D4F8A000 		ldr	r0, [r4, #160]
 4129 1786 FFF7FEFF 		bl	lv_obj_set_style_bg_color
 4130              	.LVL577:
 731:generated/setup_scr_wave_model.c **** 	lv_obj_set_style_border_width(ui->wave_model_table_1, 0, LV_PART_MAIN | LV_STATE_DEFAULT);
 4131              		.loc 1 731 2 is_stmt 1 view .LVU928
 4132 178a 2A46     		mov	r2, r5
 4133 178c 2946     		mov	r1, r5
 4134 178e D4F8A000 		ldr	r0, [r4, #160]
 4135 1792 FFF7FEFF 		bl	lv_obj_set_style_border_width
 4136              	.LVL578:
 732:generated/setup_scr_wave_model.c **** 	lv_obj_set_style_radius(ui->wave_model_table_1, 0, LV_PART_MAIN | LV_STATE_DEFAULT);
 4137              		.loc 1 732 2 view .LVU929
 4138 1796 2A46     		mov	r2, r5
 4139 1798 2946     		mov	r1, r5
 4140 179a D4F8A000 		ldr	r0, [r4, #160]
 4141 179e FFF7FEFF 		bl	lv_obj_set_style_radius
 4142              	.LVL579:
 733:generated/setup_scr_wave_model.c **** 	lv_obj_set_style_shadow_width(ui->wave_model_table_1, 0, LV_PART_MAIN | LV_STATE_DEFAULT);
 4143              		.loc 1 733 2 view .LVU930
 4144 17a2 2A46     		mov	r2, r5
 4145 17a4 2946     		mov	r1, r5
 4146 17a6 D4F8A000 		ldr	r0, [r4, #160]
 4147 17aa FFF7FEFF 		bl	lv_obj_set_style_shadow_width
 4148              	.LVL580:
 734:generated/setup_scr_wave_model.c **** 
 735:generated/setup_scr_wave_model.c **** 	// Write style for wave_model_table_1, Part: LV_PART_ITEMS, State: LV_STATE_DEFAULT.
 736:generated/setup_scr_wave_model.c **** 	lv_obj_set_style_text_color(ui->wave_model_table_1, lv_color_hex(0x393c41), LV_PART_ITEMS | LV_STA
 4149              		.loc 1 736 2 view .LVU931
 4150              	.LBB240:
 4151              	.LBI240:
 597:lvgl/src/hal/../draw/../misc/lv_color.h **** {
 4152              		.loc 3 597 26 view .LVU932
 4153              	.LBB241:
 600:lvgl/src/hal/../draw/../misc/lv_color.h **** #if LV_COLOR_16_SWAP == 0
 4154              		.loc 3 600 5 view .LVU933
 616:lvgl/src/hal/../draw/../misc/lv_color.h **** #else
 4155              		.loc 3 616 5 view .LVU934
 4156              		.loc 3 621 5 view .LVU935
 4157              		.loc 3 621 5 is_stmt 0 view .LVU936
 4158              	.LBE241:
 4159              	.LBE240:
 4160              		.loc 1 736 2 discriminator 1 view .LVU937
 4161 17ae 4FF4A022 		mov	r2, #327680
 4162 17b2 43F6E811 		movw	r1, 14824	@ movhi
 4163 17b6 D4F8A000 		ldr	r0, [r4, #160]
 4164 17ba FFF7FEFF 		bl	lv_obj_set_style_text_color
 4165              	.LVL581:
ARM GAS  C:\usertemp\cctMo5e7.s 			page 104


 737:generated/setup_scr_wave_model.c **** 	lv_obj_set_style_text_font(ui->wave_model_table_1, &lv_font_arial_16, LV_PART_ITEMS | LV_STATE_DEF
 4166              		.loc 1 737 2 is_stmt 1 view .LVU938
 4167 17be 4FF4A022 		mov	r2, #327680
 4168 17c2 9649     		ldr	r1, .L22+16
 4169 17c4 D4F8A000 		ldr	r0, [r4, #160]
 4170 17c8 FFF7FEFF 		bl	lv_obj_set_style_text_font
 4171              	.LVL582:
 738:generated/setup_scr_wave_model.c **** 	lv_obj_set_style_text_align(ui->wave_model_table_1, LV_TEXT_ALIGN_CENTER, LV_PART_ITEMS | LV_STATE
 4172              		.loc 1 738 2 view .LVU939
 4173 17cc 4FF4A022 		mov	r2, #327680
 4174 17d0 0221     		movs	r1, #2
 4175 17d2 D4F8A000 		ldr	r0, [r4, #160]
 4176 17d6 FFF7FEFF 		bl	lv_obj_set_style_text_align
 4177              	.LVL583:
 739:generated/setup_scr_wave_model.c **** 	lv_obj_set_style_bg_opa(ui->wave_model_table_1, 0, LV_PART_ITEMS | LV_STATE_DEFAULT);
 4178              		.loc 1 739 2 view .LVU940
 4179 17da 4FF4A022 		mov	r2, #327680
 4180 17de 2946     		mov	r1, r5
 4181 17e0 D4F8A000 		ldr	r0, [r4, #160]
 4182 17e4 FFF7FEFF 		bl	lv_obj_set_style_bg_opa
 4183              	.LVL584:
 740:generated/setup_scr_wave_model.c **** 	lv_obj_set_style_border_width(ui->wave_model_table_1, 3, LV_PART_ITEMS | LV_STATE_DEFAULT);
 4184              		.loc 1 740 2 view .LVU941
 4185 17e8 4FF4A022 		mov	r2, #327680
 4186 17ec 0321     		movs	r1, #3
 4187 17ee D4F8A000 		ldr	r0, [r4, #160]
 4188 17f2 FFF7FEFF 		bl	lv_obj_set_style_border_width
 4189              	.LVL585:
 741:generated/setup_scr_wave_model.c **** 	lv_obj_set_style_border_opa(ui->wave_model_table_1, 255, LV_PART_ITEMS | LV_STATE_DEFAULT);
 4190              		.loc 1 741 2 view .LVU942
 4191 17f6 4FF4A022 		mov	r2, #327680
 4192 17fa FF21     		movs	r1, #255
 4193 17fc D4F8A000 		ldr	r0, [r4, #160]
 4194 1800 FFF7FEFF 		bl	lv_obj_set_style_border_opa
 4195              	.LVL586:
 742:generated/setup_scr_wave_model.c **** 	lv_obj_set_style_border_color(ui->wave_model_table_1, lv_color_hex(0xd5dee6), LV_PART_ITEMS | LV_S
 4196              		.loc 1 742 2 view .LVU943
 4197              	.LBB242:
 4198              	.LBI242:
 597:lvgl/src/hal/../draw/../misc/lv_color.h **** {
 4199              		.loc 3 597 26 view .LVU944
 4200              	.LBB243:
 600:lvgl/src/hal/../draw/../misc/lv_color.h **** #if LV_COLOR_16_SWAP == 0
 4201              		.loc 3 600 5 view .LVU945
 616:lvgl/src/hal/../draw/../misc/lv_color.h **** #else
 4202              		.loc 3 616 5 view .LVU946
 4203              		.loc 3 621 5 view .LVU947
 4204              		.loc 3 621 5 is_stmt 0 view .LVU948
 4205              	.LBE243:
 4206              	.LBE242:
 4207              		.loc 1 742 2 discriminator 1 view .LVU949
 4208 1804 4FF4A022 		mov	r2, #327680
 4209 1808 4DF2FC61 		movw	r1, 55036	@ movhi
 4210 180c D4F8A000 		ldr	r0, [r4, #160]
 4211 1810 FFF7FEFF 		bl	lv_obj_set_style_border_color
 4212              	.LVL587:
 743:generated/setup_scr_wave_model.c **** 	lv_obj_set_style_border_side(ui->wave_model_table_1, LV_BORDER_SIDE_FULL, LV_PART_ITEMS | LV_STATE
ARM GAS  C:\usertemp\cctMo5e7.s 			page 105


 4213              		.loc 1 743 2 is_stmt 1 view .LVU950
 4214 1814 4FF4A022 		mov	r2, #327680
 4215 1818 0F21     		movs	r1, #15
 4216 181a D4F8A000 		ldr	r0, [r4, #160]
 4217 181e FFF7FEFF 		bl	lv_obj_set_style_border_side
 4218              	.LVL588:
 744:generated/setup_scr_wave_model.c **** 	lv_obj_set_style_pad_top(ui->wave_model_table_1, 10, LV_PART_ITEMS | LV_STATE_DEFAULT);
 4219              		.loc 1 744 2 view .LVU951
 4220 1822 4FF4A022 		mov	r2, #327680
 4221 1826 0A21     		movs	r1, #10
 4222 1828 D4F8A000 		ldr	r0, [r4, #160]
 4223 182c FFF7FEFF 		bl	lv_obj_set_style_pad_top
 4224              	.LVL589:
 745:generated/setup_scr_wave_model.c **** 	lv_obj_set_style_pad_bottom(ui->wave_model_table_1, 10, LV_PART_ITEMS | LV_STATE_DEFAULT);
 4225              		.loc 1 745 2 view .LVU952
 4226 1830 4FF4A022 		mov	r2, #327680
 4227 1834 0A21     		movs	r1, #10
 4228 1836 D4F8A000 		ldr	r0, [r4, #160]
 4229 183a FFF7FEFF 		bl	lv_obj_set_style_pad_bottom
 4230              	.LVL590:
 746:generated/setup_scr_wave_model.c **** 	lv_obj_set_style_pad_left(ui->wave_model_table_1, 10, LV_PART_ITEMS | LV_STATE_DEFAULT);
 4231              		.loc 1 746 2 view .LVU953
 4232 183e 4FF4A022 		mov	r2, #327680
 4233 1842 0A21     		movs	r1, #10
 4234 1844 D4F8A000 		ldr	r0, [r4, #160]
 4235 1848 FFF7FEFF 		bl	lv_obj_set_style_pad_left
 4236              	.LVL591:
 747:generated/setup_scr_wave_model.c **** 	lv_obj_set_style_pad_right(ui->wave_model_table_1, 10, LV_PART_ITEMS | LV_STATE_DEFAULT);
 4237              		.loc 1 747 2 view .LVU954
 4238 184c 4FF4A022 		mov	r2, #327680
 4239 1850 0A21     		movs	r1, #10
 4240 1852 D4F8A000 		ldr	r0, [r4, #160]
 4241 1856 FFF7FEFF 		bl	lv_obj_set_style_pad_right
 4242              	.LVL592:
 748:generated/setup_scr_wave_model.c **** 
 749:generated/setup_scr_wave_model.c **** 	// Write codes wave_model_label_26
 750:generated/setup_scr_wave_model.c **** 	ui->wave_model_label_26 = lv_label_create(ui->wave_model);
 4243              		.loc 1 750 2 view .LVU955
 4244              		.loc 1 750 28 is_stmt 0 view .LVU956
 4245 185a 2068     		ldr	r0, [r4]
 4246 185c FFF7FEFF 		bl	lv_label_create
 4247              	.LVL593:
 4248              		.loc 1 750 26 discriminator 1 view .LVU957
 4249 1860 C4F8A400 		str	r0, [r4, #164]
 751:generated/setup_scr_wave_model.c **** 	lv_label_set_text(ui->wave_model_label_26, "START:");
 4250              		.loc 1 751 2 is_stmt 1 view .LVU958
 4251 1864 6E49     		ldr	r1, .L22+20
 4252 1866 FFF7FEFF 		bl	lv_label_set_text
 4253              	.LVL594:
 752:generated/setup_scr_wave_model.c **** 	lv_label_set_long_mode(ui->wave_model_label_26, LV_LABEL_LONG_WRAP);
 4254              		.loc 1 752 2 view .LVU959
 4255 186a 2946     		mov	r1, r5
 4256 186c D4F8A400 		ldr	r0, [r4, #164]
 4257 1870 FFF7FEFF 		bl	lv_label_set_long_mode
 4258              	.LVL595:
 753:generated/setup_scr_wave_model.c **** 	lv_obj_set_pos(ui->wave_model_label_26, 27, 30);
 4259              		.loc 1 753 2 view .LVU960
ARM GAS  C:\usertemp\cctMo5e7.s 			page 106


 4260 1874 1E22     		movs	r2, #30
 4261 1876 1B21     		movs	r1, #27
 4262 1878 D4F8A400 		ldr	r0, [r4, #164]
 4263 187c FFF7FEFF 		bl	lv_obj_set_pos
 4264              	.LVL596:
 754:generated/setup_scr_wave_model.c **** 	lv_obj_set_size(ui->wave_model_label_26, 586, 26);
 4265              		.loc 1 754 2 view .LVU961
 4266 1880 1A22     		movs	r2, #26
 4267 1882 40F24A21 		movw	r1, #586
 4268 1886 D4F8A400 		ldr	r0, [r4, #164]
 4269 188a FFF7FEFF 		bl	lv_obj_set_size
 4270              	.LVL597:
 755:generated/setup_scr_wave_model.c **** 
 756:generated/setup_scr_wave_model.c **** 	// Write style for wave_model_label_26, Part: LV_PART_MAIN, State: LV_STATE_DEFAULT.
 757:generated/setup_scr_wave_model.c **** 	lv_obj_set_style_border_width(ui->wave_model_label_26, 0, LV_PART_MAIN | LV_STATE_DEFAULT);
 4271              		.loc 1 757 2 view .LVU962
 4272 188e 2A46     		mov	r2, r5
 4273 1890 2946     		mov	r1, r5
 4274 1892 D4F8A400 		ldr	r0, [r4, #164]
 4275 1896 FFF7FEFF 		bl	lv_obj_set_style_border_width
 4276              	.LVL598:
 758:generated/setup_scr_wave_model.c **** 	lv_obj_set_style_radius(ui->wave_model_label_26, 0, LV_PART_MAIN | LV_STATE_DEFAULT);
 4277              		.loc 1 758 2 view .LVU963
 4278 189a 2A46     		mov	r2, r5
 4279 189c 2946     		mov	r1, r5
 4280 189e D4F8A400 		ldr	r0, [r4, #164]
 4281 18a2 FFF7FEFF 		bl	lv_obj_set_style_radius
 4282              	.LVL599:
 759:generated/setup_scr_wave_model.c **** 	lv_obj_set_style_text_color(ui->wave_model_label_26, lv_color_hex(0x000000), LV_PART_MAIN | LV_STA
 4283              		.loc 1 759 2 view .LVU964
 4284              	.LBB244:
 4285              	.LBI244:
 597:lvgl/src/hal/../draw/../misc/lv_color.h **** {
 4286              		.loc 3 597 26 view .LVU965
 4287              	.LBB245:
 600:lvgl/src/hal/../draw/../misc/lv_color.h **** #if LV_COLOR_16_SWAP == 0
 4288              		.loc 3 600 5 view .LVU966
 616:lvgl/src/hal/../draw/../misc/lv_color.h **** #else
 4289              		.loc 3 616 5 view .LVU967
 4290              		.loc 3 621 5 view .LVU968
 4291              		.loc 3 621 5 is_stmt 0 view .LVU969
 4292              	.LBE245:
 4293              	.LBE244:
 4294              		.loc 1 759 2 discriminator 1 view .LVU970
 4295 18a6 2A46     		mov	r2, r5
 4296 18a8 2946     		mov	r1, r5	@ movhi
 4297 18aa D4F8A400 		ldr	r0, [r4, #164]
 4298 18ae FFF7FEFF 		bl	lv_obj_set_style_text_color
 4299              	.LVL600:
 760:generated/setup_scr_wave_model.c **** 	lv_obj_set_style_text_font(ui->wave_model_label_26, &lv_font_simsun_16, LV_PART_MAIN | LV_STATE_DE
 4300              		.loc 1 760 2 is_stmt 1 view .LVU971
 4301 18b2 2A46     		mov	r2, r5
 4302 18b4 5B49     		ldr	r1, .L22+24
 4303 18b6 D4F8A400 		ldr	r0, [r4, #164]
 4304 18ba FFF7FEFF 		bl	lv_obj_set_style_text_font
 4305              	.LVL601:
 761:generated/setup_scr_wave_model.c **** 	lv_obj_set_style_text_letter_space(ui->wave_model_label_26, 2, LV_PART_MAIN | LV_STATE_DEFAULT);
ARM GAS  C:\usertemp\cctMo5e7.s 			page 107


 4306              		.loc 1 761 2 view .LVU972
 4307 18be 2A46     		mov	r2, r5
 4308 18c0 0221     		movs	r1, #2
 4309 18c2 D4F8A400 		ldr	r0, [r4, #164]
 4310 18c6 FFF7FEFF 		bl	lv_obj_set_style_text_letter_space
 4311              	.LVL602:
 762:generated/setup_scr_wave_model.c **** 	lv_obj_set_style_text_line_space(ui->wave_model_label_26, 0, LV_PART_MAIN | LV_STATE_DEFAULT);
 4312              		.loc 1 762 2 view .LVU973
 4313 18ca 2A46     		mov	r2, r5
 4314 18cc 2946     		mov	r1, r5
 4315 18ce D4F8A400 		ldr	r0, [r4, #164]
 4316 18d2 FFF7FEFF 		bl	lv_obj_set_style_text_line_space
 4317              	.LVL603:
 763:generated/setup_scr_wave_model.c **** 	lv_obj_set_style_text_align(ui->wave_model_label_26, LV_TEXT_ALIGN_LEFT, LV_PART_MAIN | LV_STATE_D
 4318              		.loc 1 763 2 view .LVU974
 4319 18d6 2A46     		mov	r2, r5
 4320 18d8 0121     		movs	r1, #1
 4321 18da D4F8A400 		ldr	r0, [r4, #164]
 4322 18de FFF7FEFF 		bl	lv_obj_set_style_text_align
 4323              	.LVL604:
 764:generated/setup_scr_wave_model.c **** 	lv_obj_set_style_bg_opa(ui->wave_model_label_26, 255, LV_PART_MAIN | LV_STATE_DEFAULT);
 4324              		.loc 1 764 2 view .LVU975
 4325 18e2 2A46     		mov	r2, r5
 4326 18e4 FF21     		movs	r1, #255
 4327 18e6 D4F8A400 		ldr	r0, [r4, #164]
 4328 18ea FFF7FEFF 		bl	lv_obj_set_style_bg_opa
 4329              	.LVL605:
 765:generated/setup_scr_wave_model.c **** 	lv_obj_set_style_bg_color(ui->wave_model_label_26, lv_color_hex(0xf6e828), LV_PART_MAIN | LV_STATE
 4330              		.loc 1 765 2 view .LVU976
 4331              	.LBB246:
 4332              	.LBI246:
 597:lvgl/src/hal/../draw/../misc/lv_color.h **** {
 4333              		.loc 3 597 26 view .LVU977
 4334              	.LBB247:
 600:lvgl/src/hal/../draw/../misc/lv_color.h **** #if LV_COLOR_16_SWAP == 0
 4335              		.loc 3 600 5 view .LVU978
 616:lvgl/src/hal/../draw/../misc/lv_color.h **** #else
 4336              		.loc 3 616 5 view .LVU979
 4337              		.loc 3 621 5 view .LVU980
 4338              		.loc 3 621 5 is_stmt 0 view .LVU981
 4339              	.LBE247:
 4340              	.LBE246:
 4341              		.loc 1 765 2 discriminator 1 view .LVU982
 4342 18ee 2A46     		mov	r2, r5
 4343 18f0 4FF24571 		movw	r1, 63301	@ movhi
 4344 18f4 D4F8A400 		ldr	r0, [r4, #164]
 4345 18f8 FFF7FEFF 		bl	lv_obj_set_style_bg_color
 4346              	.LVL606:
 766:generated/setup_scr_wave_model.c **** 	lv_obj_set_style_pad_top(ui->wave_model_label_26, 4, LV_PART_MAIN | LV_STATE_DEFAULT);
 4347              		.loc 1 766 2 is_stmt 1 view .LVU983
 4348 18fc 2A46     		mov	r2, r5
 4349 18fe 0421     		movs	r1, #4
 4350 1900 D4F8A400 		ldr	r0, [r4, #164]
 4351 1904 FFF7FEFF 		bl	lv_obj_set_style_pad_top
 4352              	.LVL607:
 767:generated/setup_scr_wave_model.c **** 	lv_obj_set_style_pad_right(ui->wave_model_label_26, 0, LV_PART_MAIN | LV_STATE_DEFAULT);
 4353              		.loc 1 767 2 view .LVU984
ARM GAS  C:\usertemp\cctMo5e7.s 			page 108


 4354 1908 2A46     		mov	r2, r5
 4355 190a 2946     		mov	r1, r5
 4356 190c D4F8A400 		ldr	r0, [r4, #164]
 4357 1910 FFF7FEFF 		bl	lv_obj_set_style_pad_right
 4358              	.LVL608:
 768:generated/setup_scr_wave_model.c **** 	lv_obj_set_style_pad_bottom(ui->wave_model_label_26, 0, LV_PART_MAIN | LV_STATE_DEFAULT);
 4359              		.loc 1 768 2 view .LVU985
 4360 1914 2A46     		mov	r2, r5
 4361 1916 2946     		mov	r1, r5
 4362 1918 D4F8A400 		ldr	r0, [r4, #164]
 4363 191c FFF7FEFF 		bl	lv_obj_set_style_pad_bottom
 4364              	.LVL609:
 769:generated/setup_scr_wave_model.c **** 	lv_obj_set_style_pad_left(ui->wave_model_label_26, 5, LV_PART_MAIN | LV_STATE_DEFAULT);
 4365              		.loc 1 769 2 view .LVU986
 4366 1920 2A46     		mov	r2, r5
 4367 1922 0521     		movs	r1, #5
 4368 1924 D4F8A400 		ldr	r0, [r4, #164]
 4369 1928 FFF7FEFF 		bl	lv_obj_set_style_pad_left
 4370              	.LVL610:
 770:generated/setup_scr_wave_model.c **** 	lv_obj_set_style_shadow_width(ui->wave_model_label_26, 0, LV_PART_MAIN | LV_STATE_DEFAULT);
 4371              		.loc 1 770 2 view .LVU987
 4372 192c 2A46     		mov	r2, r5
 4373 192e 2946     		mov	r1, r5
 4374 1930 D4F8A400 		ldr	r0, [r4, #164]
 4375 1934 FFF7FEFF 		bl	lv_obj_set_style_shadow_width
 4376              	.LVL611:
 771:generated/setup_scr_wave_model.c **** 	lv_obj_add_flag(ui->wave_model_label_26, LV_OBJ_FLAG_HIDDEN);
 4377              		.loc 1 771 2 view .LVU988
 4378 1938 0121     		movs	r1, #1
 4379 193a D4F8A400 		ldr	r0, [r4, #164]
 4380 193e FFF7FEFF 		bl	lv_obj_add_flag
 4381              	.LVL612:
 772:generated/setup_scr_wave_model.c **** 
 773:generated/setup_scr_wave_model.c **** 	// Write codes wave_model_digital_clock_1
 774:generated/setup_scr_wave_model.c **** 	static bool wave_model_digital_clock_1_timer_enabled = false;
 4382              		.loc 1 774 2 view .LVU989
 775:generated/setup_scr_wave_model.c **** 	ui->wave_model_digital_clock_1 = lv_dclock_create(ui->wave_model, "00:00:00 AM");
 4383              		.loc 1 775 2 view .LVU990
 4384              		.loc 1 775 35 is_stmt 0 view .LVU991
 4385 1942 3949     		ldr	r1, .L22+28
 4386 1944 2068     		ldr	r0, [r4]
 4387 1946 FFF7FEFF 		bl	lv_dclock_create
 4388              	.LVL613:
 4389              		.loc 1 775 33 discriminator 1 view .LVU992
 4390 194a C4F8A800 		str	r0, [r4, #168]
 776:generated/setup_scr_wave_model.c **** 	if (!wave_model_digital_clock_1_timer_enabled)
 4391              		.loc 1 776 2 is_stmt 1 view .LVU993
 4392              		.loc 1 776 6 is_stmt 0 view .LVU994
 4393 194e 374B     		ldr	r3, .L22+32
 4394 1950 1B78     		ldrb	r3, [r3]	@ zero_extendqisi2
 4395              		.loc 1 776 5 view .LVU995
 4396 1952 002B     		cmp	r3, #0
 4397 1954 00F09F85 		beq	.L6
 4398              	.L4:
 777:generated/setup_scr_wave_model.c **** 	{
 778:generated/setup_scr_wave_model.c **** 		lv_timer_create(wave_model_digital_clock_1_timer, 1000, NULL);
 779:generated/setup_scr_wave_model.c **** 		wave_model_digital_clock_1_timer_enabled = true;
ARM GAS  C:\usertemp\cctMo5e7.s 			page 109


 780:generated/setup_scr_wave_model.c **** 	}
 781:generated/setup_scr_wave_model.c **** 	lv_obj_set_pos(ui->wave_model_digital_clock_1, 0, 4);
 4399              		.loc 1 781 2 is_stmt 1 view .LVU996
 4400 1958 0422     		movs	r2, #4
 4401 195a 0021     		movs	r1, #0
 4402 195c D4F8A800 		ldr	r0, [r4, #168]
 4403 1960 FFF7FEFF 		bl	lv_obj_set_pos
 4404              	.LVL614:
 782:generated/setup_scr_wave_model.c **** 	lv_obj_set_size(ui->wave_model_digital_clock_1, 90, 16);
 4405              		.loc 1 782 2 view .LVU997
 4406 1964 1022     		movs	r2, #16
 4407 1966 5A21     		movs	r1, #90
 4408 1968 D4F8A800 		ldr	r0, [r4, #168]
 4409 196c FFF7FEFF 		bl	lv_obj_set_size
 4410              	.LVL615:
 783:generated/setup_scr_wave_model.c **** 
 784:generated/setup_scr_wave_model.c **** 	// Write style for wave_model_digital_clock_1, Part: LV_PART_MAIN, State: LV_STATE_DEFAULT.
 785:generated/setup_scr_wave_model.c **** 	lv_obj_set_style_radius(ui->wave_model_digital_clock_1, 0, LV_PART_MAIN | LV_STATE_DEFAULT);
 4411              		.loc 1 785 2 view .LVU998
 4412 1970 0022     		movs	r2, #0
 4413 1972 1146     		mov	r1, r2
 4414 1974 D4F8A800 		ldr	r0, [r4, #168]
 4415 1978 FFF7FEFF 		bl	lv_obj_set_style_radius
 4416              	.LVL616:
 786:generated/setup_scr_wave_model.c **** 	lv_obj_set_style_text_color(ui->wave_model_digital_clock_1, lv_color_hex(0x000000), LV_PART_MAIN |
 4417              		.loc 1 786 2 view .LVU999
 4418              	.LBB248:
 4419              	.LBI248:
 597:lvgl/src/hal/../draw/../misc/lv_color.h **** {
 4420              		.loc 3 597 26 view .LVU1000
 4421              	.LBB249:
 600:lvgl/src/hal/../draw/../misc/lv_color.h **** #if LV_COLOR_16_SWAP == 0
 4422              		.loc 3 600 5 view .LVU1001
 616:lvgl/src/hal/../draw/../misc/lv_color.h **** #else
 4423              		.loc 3 616 5 view .LVU1002
 616:lvgl/src/hal/../draw/../misc/lv_color.h **** #else
 4424              		.loc 3 616 12 is_stmt 0 view .LVU1003
 4425 197c 0025     		movs	r5, #0
 4426              		.loc 3 621 5 is_stmt 1 view .LVU1004
 4427              	.LVL617:
 4428              		.loc 3 621 5 is_stmt 0 view .LVU1005
 4429              	.LBE249:
 4430              	.LBE248:
 4431              		.loc 1 786 2 discriminator 1 view .LVU1006
 4432 197e 2A46     		mov	r2, r5
 4433 1980 2946     		mov	r1, r5	@ movhi
 4434 1982 D4F8A800 		ldr	r0, [r4, #168]
 4435 1986 FFF7FEFF 		bl	lv_obj_set_style_text_color
 4436              	.LVL618:
 787:generated/setup_scr_wave_model.c **** 	lv_obj_set_style_text_font(ui->wave_model_digital_clock_1, &lv_font_arial_16, LV_PART_MAIN | LV_ST
 4437              		.loc 1 787 2 is_stmt 1 view .LVU1007
 4438 198a 244E     		ldr	r6, .L22+16
 4439 198c 2A46     		mov	r2, r5
 4440 198e 3146     		mov	r1, r6
 4441 1990 D4F8A800 		ldr	r0, [r4, #168]
 4442 1994 FFF7FEFF 		bl	lv_obj_set_style_text_font
 4443              	.LVL619:
ARM GAS  C:\usertemp\cctMo5e7.s 			page 110


 788:generated/setup_scr_wave_model.c **** 	lv_obj_set_style_text_letter_space(ui->wave_model_digital_clock_1, 0, LV_PART_MAIN | LV_STATE_DEFA
 4444              		.loc 1 788 2 view .LVU1008
 4445 1998 2A46     		mov	r2, r5
 4446 199a 2946     		mov	r1, r5
 4447 199c D4F8A800 		ldr	r0, [r4, #168]
 4448 19a0 FFF7FEFF 		bl	lv_obj_set_style_text_letter_space
 4449              	.LVL620:
 789:generated/setup_scr_wave_model.c **** 	lv_obj_set_style_text_align(ui->wave_model_digital_clock_1, LV_TEXT_ALIGN_CENTER, LV_PART_MAIN | L
 4450              		.loc 1 789 2 view .LVU1009
 4451 19a4 2A46     		mov	r2, r5
 4452 19a6 0221     		movs	r1, #2
 4453 19a8 D4F8A800 		ldr	r0, [r4, #168]
 4454 19ac FFF7FEFF 		bl	lv_obj_set_style_text_align
 4455              	.LVL621:
 790:generated/setup_scr_wave_model.c **** 	lv_obj_set_style_bg_opa(ui->wave_model_digital_clock_1, 255, LV_PART_MAIN | LV_STATE_DEFAULT);
 4456              		.loc 1 790 2 view .LVU1010
 4457 19b0 2A46     		mov	r2, r5
 4458 19b2 FF21     		movs	r1, #255
 4459 19b4 D4F8A800 		ldr	r0, [r4, #168]
 4460 19b8 FFF7FEFF 		bl	lv_obj_set_style_bg_opa
 4461              	.LVL622:
 791:generated/setup_scr_wave_model.c **** 	lv_obj_set_style_bg_color(ui->wave_model_digital_clock_1, lv_color_hex(0xc3dfd6), LV_PART_MAIN | L
 4462              		.loc 1 791 2 view .LVU1011
 4463              	.LBB250:
 4464              	.LBI250:
 597:lvgl/src/hal/../draw/../misc/lv_color.h **** {
 4465              		.loc 3 597 26 view .LVU1012
 4466              	.LBB251:
 600:lvgl/src/hal/../draw/../misc/lv_color.h **** #if LV_COLOR_16_SWAP == 0
 4467              		.loc 3 600 5 view .LVU1013
 616:lvgl/src/hal/../draw/../misc/lv_color.h **** #else
 4468              		.loc 3 616 5 view .LVU1014
 616:lvgl/src/hal/../draw/../misc/lv_color.h **** #else
 4469              		.loc 3 616 12 is_stmt 0 view .LVU1015
 4470 19bc 4CF2FA68 		movw	r8, #50938
 4471              		.loc 3 621 5 is_stmt 1 view .LVU1016
 4472              	.LVL623:
 4473              		.loc 3 621 5 is_stmt 0 view .LVU1017
 4474              	.LBE251:
 4475              	.LBE250:
 4476              		.loc 1 791 2 discriminator 1 view .LVU1018
 4477 19c0 2A46     		mov	r2, r5
 4478 19c2 4146     		mov	r1, r8	@ movhi
 4479 19c4 D4F8A800 		ldr	r0, [r4, #168]
 4480 19c8 FFF7FEFF 		bl	lv_obj_set_style_bg_color
 4481              	.LVL624:
 792:generated/setup_scr_wave_model.c **** 	lv_obj_set_style_pad_top(ui->wave_model_digital_clock_1, 0, LV_PART_MAIN | LV_STATE_DEFAULT);
 4482              		.loc 1 792 2 is_stmt 1 view .LVU1019
 4483 19cc 2A46     		mov	r2, r5
 4484 19ce 2946     		mov	r1, r5
 4485 19d0 D4F8A800 		ldr	r0, [r4, #168]
 4486 19d4 FFF7FEFF 		bl	lv_obj_set_style_pad_top
 4487              	.LVL625:
 793:generated/setup_scr_wave_model.c **** 	lv_obj_set_style_pad_right(ui->wave_model_digital_clock_1, 0, LV_PART_MAIN | LV_STATE_DEFAULT);
 4488              		.loc 1 793 2 view .LVU1020
 4489 19d8 2A46     		mov	r2, r5
 4490 19da 2946     		mov	r1, r5
ARM GAS  C:\usertemp\cctMo5e7.s 			page 111


 4491 19dc D4F8A800 		ldr	r0, [r4, #168]
 4492 19e0 FFF7FEFF 		bl	lv_obj_set_style_pad_right
 4493              	.LVL626:
 794:generated/setup_scr_wave_model.c **** 	lv_obj_set_style_pad_bottom(ui->wave_model_digital_clock_1, 0, LV_PART_MAIN | LV_STATE_DEFAULT);
 4494              		.loc 1 794 2 view .LVU1021
 4495 19e4 2A46     		mov	r2, r5
 4496 19e6 2946     		mov	r1, r5
 4497 19e8 D4F8A800 		ldr	r0, [r4, #168]
 4498 19ec FFF7FEFF 		bl	lv_obj_set_style_pad_bottom
 4499              	.LVL627:
 795:generated/setup_scr_wave_model.c **** 	lv_obj_set_style_pad_left(ui->wave_model_digital_clock_1, 0, LV_PART_MAIN | LV_STATE_DEFAULT);
 4500              		.loc 1 795 2 view .LVU1022
 4501 19f0 2A46     		mov	r2, r5
 4502 19f2 2946     		mov	r1, r5
 4503 19f4 D4F8A800 		ldr	r0, [r4, #168]
 4504 19f8 FFF7FEFF 		bl	lv_obj_set_style_pad_left
 4505              	.LVL628:
 796:generated/setup_scr_wave_model.c **** 	lv_obj_set_style_shadow_width(ui->wave_model_digital_clock_1, 0, LV_PART_MAIN | LV_STATE_DEFAULT);
 4506              		.loc 1 796 2 view .LVU1023
 4507 19fc 2A46     		mov	r2, r5
 4508 19fe 2946     		mov	r1, r5
 4509 1a00 D4F8A800 		ldr	r0, [r4, #168]
 4510 1a04 FFF7FEFF 		bl	lv_obj_set_style_shadow_width
 4511              	.LVL629:
 4512 1a08 12E0     		b	.L23
 4513              	.L24:
 4514 1a0a 00BF     		.align	2
 4515              	.L22:
 4516 1a0c 4C000000 		.word	.LC16
 4517 1a10 50000000 		.word	.LC17
 4518 1a14 54000000 		.word	.LC18
 4519 1a18 58000000 		.word	.LC19
 4520 1a1c 00000000 		.word	lv_font_arial_16
 4521 1a20 5C000000 		.word	.LC20
 4522 1a24 00000000 		.word	lv_font_simsun_16
 4523 1a28 64000000 		.word	.LC21
 4524 1a2c 00000000 		.word	wave_model_digital_clock_1_timer_enabled.0
 4525              	.L23:
 797:generated/setup_scr_wave_model.c **** 
 798:generated/setup_scr_wave_model.c **** 	// Write codes wave_model_img_1
 799:generated/setup_scr_wave_model.c **** 	ui->wave_model_img_1 = lv_img_create(ui->wave_model);
 4526              		.loc 1 799 2 view .LVU1024
 4527              		.loc 1 799 25 is_stmt 0 view .LVU1025
 4528 1a30 2068     		ldr	r0, [r4]
 4529 1a32 FFF7FEFF 		bl	lv_img_create
 4530              	.LVL630:
 4531              		.loc 1 799 23 discriminator 1 view .LVU1026
 4532 1a36 C4F8AC00 		str	r0, [r4, #172]
 800:generated/setup_scr_wave_model.c **** 	lv_obj_add_flag(ui->wave_model_img_1, LV_OBJ_FLAG_CLICKABLE);
 4533              		.loc 1 800 2 is_stmt 1 view .LVU1027
 4534 1a3a 0221     		movs	r1, #2
 4535 1a3c FFF7FEFF 		bl	lv_obj_add_flag
 4536              	.LVL631:
 801:generated/setup_scr_wave_model.c **** 	lv_img_set_src(ui->wave_model_img_1, &_f7b64978f5bff1ff9d8a4bf8f3d4d9d6_alpha_520x340);
 4537              		.loc 1 801 2 view .LVU1028
 4538 1a40 F849     		ldr	r1, .L25
 4539 1a42 D4F8AC00 		ldr	r0, [r4, #172]
ARM GAS  C:\usertemp\cctMo5e7.s 			page 112


 4540 1a46 FFF7FEFF 		bl	lv_img_set_src
 4541              	.LVL632:
 802:generated/setup_scr_wave_model.c **** 	lv_img_set_pivot(ui->wave_model_img_1, 50, 50);
 4542              		.loc 1 802 2 view .LVU1029
 4543 1a4a 3222     		movs	r2, #50
 4544 1a4c 1146     		mov	r1, r2
 4545 1a4e D4F8AC00 		ldr	r0, [r4, #172]
 4546 1a52 FFF7FEFF 		bl	lv_img_set_pivot
 4547              	.LVL633:
 803:generated/setup_scr_wave_model.c **** 	lv_img_set_angle(ui->wave_model_img_1, 0);
 4548              		.loc 1 803 2 view .LVU1030
 4549 1a56 2946     		mov	r1, r5
 4550 1a58 D4F8AC00 		ldr	r0, [r4, #172]
 4551 1a5c FFF7FEFF 		bl	lv_img_set_angle
 4552              	.LVL634:
 804:generated/setup_scr_wave_model.c **** 	lv_obj_set_pos(ui->wave_model_img_1, 20, 20);
 4553              		.loc 1 804 2 view .LVU1031
 4554 1a60 1422     		movs	r2, #20
 4555 1a62 1146     		mov	r1, r2
 4556 1a64 D4F8AC00 		ldr	r0, [r4, #172]
 4557 1a68 FFF7FEFF 		bl	lv_obj_set_pos
 4558              	.LVL635:
 805:generated/setup_scr_wave_model.c **** 	lv_obj_set_size(ui->wave_model_img_1, 600, 420);
 4559              		.loc 1 805 2 view .LVU1032
 4560 1a6c 4FF4D272 		mov	r2, #420
 4561 1a70 4FF41671 		mov	r1, #600
 4562 1a74 D4F8AC00 		ldr	r0, [r4, #172]
 4563 1a78 FFF7FEFF 		bl	lv_obj_set_size
 4564              	.LVL636:
 806:generated/setup_scr_wave_model.c **** 	lv_obj_add_flag(ui->wave_model_img_1, LV_OBJ_FLAG_CLICKABLE);
 4565              		.loc 1 806 2 view .LVU1033
 4566 1a7c 0221     		movs	r1, #2
 4567 1a7e D4F8AC00 		ldr	r0, [r4, #172]
 4568 1a82 FFF7FEFF 		bl	lv_obj_add_flag
 4569              	.LVL637:
 807:generated/setup_scr_wave_model.c **** 	lv_obj_add_flag(ui->wave_model_img_1, LV_OBJ_FLAG_CLICK_FOCUSABLE);
 4570              		.loc 1 807 2 view .LVU1034
 4571 1a86 0421     		movs	r1, #4
 4572 1a88 D4F8AC00 		ldr	r0, [r4, #172]
 4573 1a8c FFF7FEFF 		bl	lv_obj_add_flag
 4574              	.LVL638:
 808:generated/setup_scr_wave_model.c **** 	lv_obj_add_flag(ui->wave_model_img_1, LV_OBJ_FLAG_HIDDEN);
 4575              		.loc 1 808 2 view .LVU1035
 4576 1a90 0121     		movs	r1, #1
 4577 1a92 D4F8AC00 		ldr	r0, [r4, #172]
 4578 1a96 FFF7FEFF 		bl	lv_obj_add_flag
 4579              	.LVL639:
 809:generated/setup_scr_wave_model.c **** 
 810:generated/setup_scr_wave_model.c **** 	// Write style for wave_model_img_1, Part: LV_PART_MAIN, State: LV_STATE_DEFAULT.
 811:generated/setup_scr_wave_model.c **** 	lv_obj_set_style_img_opa(ui->wave_model_img_1, 255, LV_PART_MAIN | LV_STATE_DEFAULT);
 4580              		.loc 1 811 2 view .LVU1036
 4581 1a9a 2A46     		mov	r2, r5
 4582 1a9c FF21     		movs	r1, #255
 4583 1a9e D4F8AC00 		ldr	r0, [r4, #172]
 4584 1aa2 FFF7FEFF 		bl	lv_obj_set_style_img_opa
 4585              	.LVL640:
 812:generated/setup_scr_wave_model.c **** 
ARM GAS  C:\usertemp\cctMo5e7.s 			page 113


 813:generated/setup_scr_wave_model.c **** 	// Write codes wave_model_btn_9
 814:generated/setup_scr_wave_model.c **** 	ui->wave_model_btn_9 = lv_btn_create(ui->wave_model);
 4586              		.loc 1 814 2 view .LVU1037
 4587              		.loc 1 814 25 is_stmt 0 view .LVU1038
 4588 1aa6 2068     		ldr	r0, [r4]
 4589 1aa8 FFF7FEFF 		bl	lv_btn_create
 4590              	.LVL641:
 4591              		.loc 1 814 23 discriminator 1 view .LVU1039
 4592 1aac C4F8B000 		str	r0, [r4, #176]
 815:generated/setup_scr_wave_model.c **** 	ui->wave_model_btn_9_label = lv_label_create(ui->wave_model_btn_9);
 4593              		.loc 1 815 2 is_stmt 1 view .LVU1040
 4594              		.loc 1 815 31 is_stmt 0 view .LVU1041
 4595 1ab0 FFF7FEFF 		bl	lv_label_create
 4596              	.LVL642:
 4597              		.loc 1 815 29 discriminator 1 view .LVU1042
 4598 1ab4 C4F8B400 		str	r0, [r4, #180]
 816:generated/setup_scr_wave_model.c **** 	lv_label_set_text(ui->wave_model_btn_9_label, "X+");
 4599              		.loc 1 816 2 is_stmt 1 view .LVU1043
 4600 1ab8 DB49     		ldr	r1, .L25+4
 4601 1aba FFF7FEFF 		bl	lv_label_set_text
 4602              	.LVL643:
 817:generated/setup_scr_wave_model.c **** 	lv_label_set_long_mode(ui->wave_model_btn_9_label, LV_LABEL_LONG_WRAP);
 4603              		.loc 1 817 2 view .LVU1044
 4604 1abe 2946     		mov	r1, r5
 4605 1ac0 D4F8B400 		ldr	r0, [r4, #180]
 4606 1ac4 FFF7FEFF 		bl	lv_label_set_long_mode
 4607              	.LVL644:
 818:generated/setup_scr_wave_model.c **** 	lv_obj_align(ui->wave_model_btn_9_label, LV_ALIGN_CENTER, 0, 0);
 4608              		.loc 1 818 2 view .LVU1045
 4609 1ac8 2B46     		mov	r3, r5
 4610 1aca 2A46     		mov	r2, r5
 4611 1acc 0921     		movs	r1, #9
 4612 1ace D4F8B400 		ldr	r0, [r4, #180]
 4613 1ad2 FFF7FEFF 		bl	lv_obj_align
 4614              	.LVL645:
 819:generated/setup_scr_wave_model.c **** 	lv_obj_set_style_pad_all(ui->wave_model_btn_9, 0, LV_STATE_DEFAULT);
 4615              		.loc 1 819 2 view .LVU1046
 4616 1ad6 2A46     		mov	r2, r5
 4617 1ad8 2946     		mov	r1, r5
 4618 1ada D4F8B000 		ldr	r0, [r4, #176]
 4619 1ade FFF7FEFF 		bl	lv_obj_set_style_pad_all
 4620              	.LVL646:
 820:generated/setup_scr_wave_model.c **** 	lv_obj_set_pos(ui->wave_model_btn_9, 98, 445);
 4621              		.loc 1 820 2 view .LVU1047
 4622 1ae2 40F2BD12 		movw	r2, #445
 4623 1ae6 6221     		movs	r1, #98
 4624 1ae8 D4F8B000 		ldr	r0, [r4, #176]
 4625 1aec FFF7FEFF 		bl	lv_obj_set_pos
 4626              	.LVL647:
 821:generated/setup_scr_wave_model.c **** 	lv_obj_set_size(ui->wave_model_btn_9, 43, 30);
 4627              		.loc 1 821 2 view .LVU1048
 4628 1af0 1E22     		movs	r2, #30
 4629 1af2 2B21     		movs	r1, #43
 4630 1af4 D4F8B000 		ldr	r0, [r4, #176]
 4631 1af8 FFF7FEFF 		bl	lv_obj_set_size
 4632              	.LVL648:
 822:generated/setup_scr_wave_model.c **** 
ARM GAS  C:\usertemp\cctMo5e7.s 			page 114


 823:generated/setup_scr_wave_model.c **** 	// Write style for wave_model_btn_9, Part: LV_PART_MAIN, State: LV_STATE_DEFAULT.
 824:generated/setup_scr_wave_model.c **** 	lv_obj_set_style_bg_opa(ui->wave_model_btn_9, 255, LV_PART_MAIN | LV_STATE_DEFAULT);
 4633              		.loc 1 824 2 view .LVU1049
 4634 1afc 2A46     		mov	r2, r5
 4635 1afe FF21     		movs	r1, #255
 4636 1b00 D4F8B000 		ldr	r0, [r4, #176]
 4637 1b04 FFF7FEFF 		bl	lv_obj_set_style_bg_opa
 4638              	.LVL649:
 825:generated/setup_scr_wave_model.c **** 	lv_obj_set_style_bg_color(ui->wave_model_btn_9, lv_color_hex(0x808080), LV_PART_MAIN | LV_STATE_DE
 4639              		.loc 1 825 2 view .LVU1050
 4640              	.LBB252:
 4641              	.LBI252:
 597:lvgl/src/hal/../draw/../misc/lv_color.h **** {
 4642              		.loc 3 597 26 view .LVU1051
 4643              	.LBB253:
 600:lvgl/src/hal/../draw/../misc/lv_color.h **** #if LV_COLOR_16_SWAP == 0
 4644              		.loc 3 600 5 view .LVU1052
 616:lvgl/src/hal/../draw/../misc/lv_color.h **** #else
 4645              		.loc 3 616 5 view .LVU1053
 616:lvgl/src/hal/../draw/../misc/lv_color.h **** #else
 4646              		.loc 3 616 12 is_stmt 0 view .LVU1054
 4647 1b08 48F21047 		movw	r7, #33808
 4648              		.loc 3 621 5 is_stmt 1 view .LVU1055
 4649              	.LVL650:
 4650              		.loc 3 621 5 is_stmt 0 view .LVU1056
 4651              	.LBE253:
 4652              	.LBE252:
 4653              		.loc 1 825 2 discriminator 1 view .LVU1057
 4654 1b0c 2A46     		mov	r2, r5
 4655 1b0e 3946     		mov	r1, r7	@ movhi
 4656 1b10 D4F8B000 		ldr	r0, [r4, #176]
 4657 1b14 FFF7FEFF 		bl	lv_obj_set_style_bg_color
 4658              	.LVL651:
 826:generated/setup_scr_wave_model.c **** 	lv_obj_set_style_border_width(ui->wave_model_btn_9, 0, LV_PART_MAIN | LV_STATE_DEFAULT);
 4659              		.loc 1 826 2 is_stmt 1 view .LVU1058
 4660 1b18 2A46     		mov	r2, r5
 4661 1b1a 2946     		mov	r1, r5
 4662 1b1c D4F8B000 		ldr	r0, [r4, #176]
 4663 1b20 FFF7FEFF 		bl	lv_obj_set_style_border_width
 4664              	.LVL652:
 827:generated/setup_scr_wave_model.c **** 	lv_obj_set_style_radius(ui->wave_model_btn_9, 5, LV_PART_MAIN | LV_STATE_DEFAULT);
 4665              		.loc 1 827 2 view .LVU1059
 4666 1b24 2A46     		mov	r2, r5
 4667 1b26 0521     		movs	r1, #5
 4668 1b28 D4F8B000 		ldr	r0, [r4, #176]
 4669 1b2c FFF7FEFF 		bl	lv_obj_set_style_radius
 4670              	.LVL653:
 828:generated/setup_scr_wave_model.c **** 	lv_obj_set_style_shadow_width(ui->wave_model_btn_9, 0, LV_PART_MAIN | LV_STATE_DEFAULT);
 4671              		.loc 1 828 2 view .LVU1060
 4672 1b30 2A46     		mov	r2, r5
 4673 1b32 2946     		mov	r1, r5
 4674 1b34 D4F8B000 		ldr	r0, [r4, #176]
 4675 1b38 FFF7FEFF 		bl	lv_obj_set_style_shadow_width
 4676              	.LVL654:
 829:generated/setup_scr_wave_model.c **** 	lv_obj_set_style_text_color(ui->wave_model_btn_9, lv_color_hex(0x000000), LV_PART_MAIN | LV_STATE_
 4677              		.loc 1 829 2 view .LVU1061
 4678              	.LBB254:
ARM GAS  C:\usertemp\cctMo5e7.s 			page 115


 4679              	.LBI254:
 597:lvgl/src/hal/../draw/../misc/lv_color.h **** {
 4680              		.loc 3 597 26 view .LVU1062
 4681              	.LBB255:
 600:lvgl/src/hal/../draw/../misc/lv_color.h **** #if LV_COLOR_16_SWAP == 0
 4682              		.loc 3 600 5 view .LVU1063
 616:lvgl/src/hal/../draw/../misc/lv_color.h **** #else
 4683              		.loc 3 616 5 view .LVU1064
 4684              		.loc 3 621 5 view .LVU1065
 4685              		.loc 3 621 5 is_stmt 0 view .LVU1066
 4686              	.LBE255:
 4687              	.LBE254:
 4688              		.loc 1 829 2 discriminator 1 view .LVU1067
 4689 1b3c 2A46     		mov	r2, r5
 4690 1b3e 2946     		mov	r1, r5	@ movhi
 4691 1b40 D4F8B000 		ldr	r0, [r4, #176]
 4692 1b44 FFF7FEFF 		bl	lv_obj_set_style_text_color
 4693              	.LVL655:
 830:generated/setup_scr_wave_model.c **** 	lv_obj_set_style_text_font(ui->wave_model_btn_9, &lv_font_arial_16, LV_PART_MAIN | LV_STATE_DEFAUL
 4694              		.loc 1 830 2 is_stmt 1 view .LVU1068
 4695 1b48 2A46     		mov	r2, r5
 4696 1b4a 3146     		mov	r1, r6
 4697 1b4c D4F8B000 		ldr	r0, [r4, #176]
 4698 1b50 FFF7FEFF 		bl	lv_obj_set_style_text_font
 4699              	.LVL656:
 831:generated/setup_scr_wave_model.c **** 	lv_obj_set_style_text_align(ui->wave_model_btn_9, LV_TEXT_ALIGN_CENTER, LV_PART_MAIN | LV_STATE_DE
 4700              		.loc 1 831 2 view .LVU1069
 4701 1b54 2A46     		mov	r2, r5
 4702 1b56 0221     		movs	r1, #2
 4703 1b58 D4F8B000 		ldr	r0, [r4, #176]
 4704 1b5c FFF7FEFF 		bl	lv_obj_set_style_text_align
 4705              	.LVL657:
 832:generated/setup_scr_wave_model.c **** 
 833:generated/setup_scr_wave_model.c **** 	// Write codes wave_model_btn_10
 834:generated/setup_scr_wave_model.c **** 	ui->wave_model_btn_10 = lv_btn_create(ui->wave_model);
 4706              		.loc 1 834 2 view .LVU1070
 4707              		.loc 1 834 26 is_stmt 0 view .LVU1071
 4708 1b60 2068     		ldr	r0, [r4]
 4709 1b62 FFF7FEFF 		bl	lv_btn_create
 4710              	.LVL658:
 4711              		.loc 1 834 24 discriminator 1 view .LVU1072
 4712 1b66 C4F8B800 		str	r0, [r4, #184]
 835:generated/setup_scr_wave_model.c **** 	ui->wave_model_btn_10_label = lv_label_create(ui->wave_model_btn_10);
 4713              		.loc 1 835 2 is_stmt 1 view .LVU1073
 4714              		.loc 1 835 32 is_stmt 0 view .LVU1074
 4715 1b6a FFF7FEFF 		bl	lv_label_create
 4716              	.LVL659:
 4717              		.loc 1 835 30 discriminator 1 view .LVU1075
 4718 1b6e C4F8BC00 		str	r0, [r4, #188]
 836:generated/setup_scr_wave_model.c **** 	lv_label_set_text(ui->wave_model_btn_10_label, "X-");
 4719              		.loc 1 836 2 is_stmt 1 view .LVU1076
 4720 1b72 AE49     		ldr	r1, .L25+8
 4721 1b74 FFF7FEFF 		bl	lv_label_set_text
 4722              	.LVL660:
 837:generated/setup_scr_wave_model.c **** 	lv_label_set_long_mode(ui->wave_model_btn_10_label, LV_LABEL_LONG_WRAP);
 4723              		.loc 1 837 2 view .LVU1077
 4724 1b78 2946     		mov	r1, r5
ARM GAS  C:\usertemp\cctMo5e7.s 			page 116


 4725 1b7a D4F8BC00 		ldr	r0, [r4, #188]
 4726 1b7e FFF7FEFF 		bl	lv_label_set_long_mode
 4727              	.LVL661:
 838:generated/setup_scr_wave_model.c **** 	lv_obj_align(ui->wave_model_btn_10_label, LV_ALIGN_CENTER, 0, 0);
 4728              		.loc 1 838 2 view .LVU1078
 4729 1b82 2B46     		mov	r3, r5
 4730 1b84 2A46     		mov	r2, r5
 4731 1b86 0921     		movs	r1, #9
 4732 1b88 D4F8BC00 		ldr	r0, [r4, #188]
 4733 1b8c FFF7FEFF 		bl	lv_obj_align
 4734              	.LVL662:
 839:generated/setup_scr_wave_model.c **** 	lv_obj_set_style_pad_all(ui->wave_model_btn_10, 0, LV_STATE_DEFAULT);
 4735              		.loc 1 839 2 view .LVU1079
 4736 1b90 2A46     		mov	r2, r5
 4737 1b92 2946     		mov	r1, r5
 4738 1b94 D4F8B800 		ldr	r0, [r4, #184]
 4739 1b98 FFF7FEFF 		bl	lv_obj_set_style_pad_all
 4740              	.LVL663:
 840:generated/setup_scr_wave_model.c **** 	lv_obj_set_pos(ui->wave_model_btn_10, 178, 445);
 4741              		.loc 1 840 2 view .LVU1080
 4742 1b9c 40F2BD12 		movw	r2, #445
 4743 1ba0 B221     		movs	r1, #178
 4744 1ba2 D4F8B800 		ldr	r0, [r4, #184]
 4745 1ba6 FFF7FEFF 		bl	lv_obj_set_pos
 4746              	.LVL664:
 841:generated/setup_scr_wave_model.c **** 	lv_obj_set_size(ui->wave_model_btn_10, 43, 30);
 4747              		.loc 1 841 2 view .LVU1081
 4748 1baa 1E22     		movs	r2, #30
 4749 1bac 2B21     		movs	r1, #43
 4750 1bae D4F8B800 		ldr	r0, [r4, #184]
 4751 1bb2 FFF7FEFF 		bl	lv_obj_set_size
 4752              	.LVL665:
 842:generated/setup_scr_wave_model.c **** 
 843:generated/setup_scr_wave_model.c **** 	// Write style for wave_model_btn_10, Part: LV_PART_MAIN, State: LV_STATE_DEFAULT.
 844:generated/setup_scr_wave_model.c **** 	lv_obj_set_style_bg_opa(ui->wave_model_btn_10, 255, LV_PART_MAIN | LV_STATE_DEFAULT);
 4753              		.loc 1 844 2 view .LVU1082
 4754 1bb6 2A46     		mov	r2, r5
 4755 1bb8 FF21     		movs	r1, #255
 4756 1bba D4F8B800 		ldr	r0, [r4, #184]
 4757 1bbe FFF7FEFF 		bl	lv_obj_set_style_bg_opa
 4758              	.LVL666:
 845:generated/setup_scr_wave_model.c **** 	lv_obj_set_style_bg_color(ui->wave_model_btn_10, lv_color_hex(0x808080), LV_PART_MAIN | LV_STATE_D
 4759              		.loc 1 845 2 view .LVU1083
 4760              	.LBB256:
 4761              	.LBI256:
 597:lvgl/src/hal/../draw/../misc/lv_color.h **** {
 4762              		.loc 3 597 26 view .LVU1084
 4763              	.LBB257:
 600:lvgl/src/hal/../draw/../misc/lv_color.h **** #if LV_COLOR_16_SWAP == 0
 4764              		.loc 3 600 5 view .LVU1085
 616:lvgl/src/hal/../draw/../misc/lv_color.h **** #else
 4765              		.loc 3 616 5 view .LVU1086
 4766              		.loc 3 621 5 view .LVU1087
 4767              		.loc 3 621 5 is_stmt 0 view .LVU1088
 4768              	.LBE257:
 4769              	.LBE256:
 4770              		.loc 1 845 2 discriminator 1 view .LVU1089
ARM GAS  C:\usertemp\cctMo5e7.s 			page 117


 4771 1bc2 2A46     		mov	r2, r5
 4772 1bc4 3946     		mov	r1, r7	@ movhi
 4773 1bc6 D4F8B800 		ldr	r0, [r4, #184]
 4774 1bca FFF7FEFF 		bl	lv_obj_set_style_bg_color
 4775              	.LVL667:
 846:generated/setup_scr_wave_model.c **** 	lv_obj_set_style_border_width(ui->wave_model_btn_10, 0, LV_PART_MAIN | LV_STATE_DEFAULT);
 4776              		.loc 1 846 2 is_stmt 1 view .LVU1090
 4777 1bce 2A46     		mov	r2, r5
 4778 1bd0 2946     		mov	r1, r5
 4779 1bd2 D4F8B800 		ldr	r0, [r4, #184]
 4780 1bd6 FFF7FEFF 		bl	lv_obj_set_style_border_width
 4781              	.LVL668:
 847:generated/setup_scr_wave_model.c **** 	lv_obj_set_style_radius(ui->wave_model_btn_10, 5, LV_PART_MAIN | LV_STATE_DEFAULT);
 4782              		.loc 1 847 2 view .LVU1091
 4783 1bda 2A46     		mov	r2, r5
 4784 1bdc 0521     		movs	r1, #5
 4785 1bde D4F8B800 		ldr	r0, [r4, #184]
 4786 1be2 FFF7FEFF 		bl	lv_obj_set_style_radius
 4787              	.LVL669:
 848:generated/setup_scr_wave_model.c **** 	lv_obj_set_style_shadow_width(ui->wave_model_btn_10, 0, LV_PART_MAIN | LV_STATE_DEFAULT);
 4788              		.loc 1 848 2 view .LVU1092
 4789 1be6 2A46     		mov	r2, r5
 4790 1be8 2946     		mov	r1, r5
 4791 1bea D4F8B800 		ldr	r0, [r4, #184]
 4792 1bee FFF7FEFF 		bl	lv_obj_set_style_shadow_width
 4793              	.LVL670:
 849:generated/setup_scr_wave_model.c **** 	lv_obj_set_style_text_color(ui->wave_model_btn_10, lv_color_hex(0x000000), LV_PART_MAIN | LV_STATE
 4794              		.loc 1 849 2 view .LVU1093
 4795              	.LBB258:
 4796              	.LBI258:
 597:lvgl/src/hal/../draw/../misc/lv_color.h **** {
 4797              		.loc 3 597 26 view .LVU1094
 4798              	.LBB259:
 600:lvgl/src/hal/../draw/../misc/lv_color.h **** #if LV_COLOR_16_SWAP == 0
 4799              		.loc 3 600 5 view .LVU1095
 616:lvgl/src/hal/../draw/../misc/lv_color.h **** #else
 4800              		.loc 3 616 5 view .LVU1096
 4801              		.loc 3 621 5 view .LVU1097
 4802              		.loc 3 621 5 is_stmt 0 view .LVU1098
 4803              	.LBE259:
 4804              	.LBE258:
 4805              		.loc 1 849 2 discriminator 1 view .LVU1099
 4806 1bf2 2A46     		mov	r2, r5
 4807 1bf4 2946     		mov	r1, r5	@ movhi
 4808 1bf6 D4F8B800 		ldr	r0, [r4, #184]
 4809 1bfa FFF7FEFF 		bl	lv_obj_set_style_text_color
 4810              	.LVL671:
 850:generated/setup_scr_wave_model.c **** 	lv_obj_set_style_text_font(ui->wave_model_btn_10, &lv_font_arial_16, LV_PART_MAIN | LV_STATE_DEFAU
 4811              		.loc 1 850 2 is_stmt 1 view .LVU1100
 4812 1bfe 2A46     		mov	r2, r5
 4813 1c00 3146     		mov	r1, r6
 4814 1c02 D4F8B800 		ldr	r0, [r4, #184]
 4815 1c06 FFF7FEFF 		bl	lv_obj_set_style_text_font
 4816              	.LVL672:
 851:generated/setup_scr_wave_model.c **** 	lv_obj_set_style_text_align(ui->wave_model_btn_10, LV_TEXT_ALIGN_CENTER, LV_PART_MAIN | LV_STATE_D
 4817              		.loc 1 851 2 view .LVU1101
 4818 1c0a 2A46     		mov	r2, r5
ARM GAS  C:\usertemp\cctMo5e7.s 			page 118


 4819 1c0c 0221     		movs	r1, #2
 4820 1c0e D4F8B800 		ldr	r0, [r4, #184]
 4821 1c12 FFF7FEFF 		bl	lv_obj_set_style_text_align
 4822              	.LVL673:
 852:generated/setup_scr_wave_model.c **** 
 853:generated/setup_scr_wave_model.c **** 	// Write codes wave_model_btn_11
 854:generated/setup_scr_wave_model.c **** 	ui->wave_model_btn_11 = lv_btn_create(ui->wave_model);
 4823              		.loc 1 854 2 view .LVU1102
 4824              		.loc 1 854 26 is_stmt 0 view .LVU1103
 4825 1c16 2068     		ldr	r0, [r4]
 4826 1c18 FFF7FEFF 		bl	lv_btn_create
 4827              	.LVL674:
 4828              		.loc 1 854 24 discriminator 1 view .LVU1104
 4829 1c1c C4F8C000 		str	r0, [r4, #192]
 855:generated/setup_scr_wave_model.c **** 	ui->wave_model_btn_11_label = lv_label_create(ui->wave_model_btn_11);
 4830              		.loc 1 855 2 is_stmt 1 view .LVU1105
 4831              		.loc 1 855 32 is_stmt 0 view .LVU1106
 4832 1c20 FFF7FEFF 		bl	lv_label_create
 4833              	.LVL675:
 4834              		.loc 1 855 30 discriminator 1 view .LVU1107
 4835 1c24 C4F8C400 		str	r0, [r4, #196]
 856:generated/setup_scr_wave_model.c **** 	lv_label_set_text(ui->wave_model_btn_11_label, "L+");
 4836              		.loc 1 856 2 is_stmt 1 view .LVU1108
 4837 1c28 8149     		ldr	r1, .L25+12
 4838 1c2a FFF7FEFF 		bl	lv_label_set_text
 4839              	.LVL676:
 857:generated/setup_scr_wave_model.c **** 	lv_label_set_long_mode(ui->wave_model_btn_11_label, LV_LABEL_LONG_WRAP);
 4840              		.loc 1 857 2 view .LVU1109
 4841 1c2e 2946     		mov	r1, r5
 4842 1c30 D4F8C400 		ldr	r0, [r4, #196]
 4843 1c34 FFF7FEFF 		bl	lv_label_set_long_mode
 4844              	.LVL677:
 858:generated/setup_scr_wave_model.c **** 	lv_obj_align(ui->wave_model_btn_11_label, LV_ALIGN_CENTER, 0, 0);
 4845              		.loc 1 858 2 view .LVU1110
 4846 1c38 2B46     		mov	r3, r5
 4847 1c3a 2A46     		mov	r2, r5
 4848 1c3c 0921     		movs	r1, #9
 4849 1c3e D4F8C400 		ldr	r0, [r4, #196]
 4850 1c42 FFF7FEFF 		bl	lv_obj_align
 4851              	.LVL678:
 859:generated/setup_scr_wave_model.c **** 	lv_obj_set_style_pad_all(ui->wave_model_btn_11, 0, LV_STATE_DEFAULT);
 4852              		.loc 1 859 2 view .LVU1111
 4853 1c46 2A46     		mov	r2, r5
 4854 1c48 2946     		mov	r1, r5
 4855 1c4a D4F8C000 		ldr	r0, [r4, #192]
 4856 1c4e FFF7FEFF 		bl	lv_obj_set_style_pad_all
 4857              	.LVL679:
 860:generated/setup_scr_wave_model.c **** 	lv_obj_set_pos(ui->wave_model_btn_11, 258, 445);
 4858              		.loc 1 860 2 view .LVU1112
 4859 1c52 40F2BD12 		movw	r2, #445
 4860 1c56 4FF48171 		mov	r1, #258
 4861 1c5a D4F8C000 		ldr	r0, [r4, #192]
 4862 1c5e FFF7FEFF 		bl	lv_obj_set_pos
 4863              	.LVL680:
 861:generated/setup_scr_wave_model.c **** 	lv_obj_set_size(ui->wave_model_btn_11, 43, 30);
 4864              		.loc 1 861 2 view .LVU1113
 4865 1c62 1E22     		movs	r2, #30
ARM GAS  C:\usertemp\cctMo5e7.s 			page 119


 4866 1c64 2B21     		movs	r1, #43
 4867 1c66 D4F8C000 		ldr	r0, [r4, #192]
 4868 1c6a FFF7FEFF 		bl	lv_obj_set_size
 4869              	.LVL681:
 862:generated/setup_scr_wave_model.c **** 
 863:generated/setup_scr_wave_model.c **** 	// Write style for wave_model_btn_11, Part: LV_PART_MAIN, State: LV_STATE_DEFAULT.
 864:generated/setup_scr_wave_model.c **** 	lv_obj_set_style_bg_opa(ui->wave_model_btn_11, 255, LV_PART_MAIN | LV_STATE_DEFAULT);
 4870              		.loc 1 864 2 view .LVU1114
 4871 1c6e 2A46     		mov	r2, r5
 4872 1c70 FF21     		movs	r1, #255
 4873 1c72 D4F8C000 		ldr	r0, [r4, #192]
 4874 1c76 FFF7FEFF 		bl	lv_obj_set_style_bg_opa
 4875              	.LVL682:
 865:generated/setup_scr_wave_model.c **** 	lv_obj_set_style_bg_color(ui->wave_model_btn_11, lv_color_hex(0x808080), LV_PART_MAIN | LV_STATE_D
 4876              		.loc 1 865 2 view .LVU1115
 4877              	.LBB260:
 4878              	.LBI260:
 597:lvgl/src/hal/../draw/../misc/lv_color.h **** {
 4879              		.loc 3 597 26 view .LVU1116
 4880              	.LBB261:
 600:lvgl/src/hal/../draw/../misc/lv_color.h **** #if LV_COLOR_16_SWAP == 0
 4881              		.loc 3 600 5 view .LVU1117
 616:lvgl/src/hal/../draw/../misc/lv_color.h **** #else
 4882              		.loc 3 616 5 view .LVU1118
 4883              		.loc 3 621 5 view .LVU1119
 4884              		.loc 3 621 5 is_stmt 0 view .LVU1120
 4885              	.LBE261:
 4886              	.LBE260:
 4887              		.loc 1 865 2 discriminator 1 view .LVU1121
 4888 1c7a 2A46     		mov	r2, r5
 4889 1c7c 3946     		mov	r1, r7	@ movhi
 4890 1c7e D4F8C000 		ldr	r0, [r4, #192]
 4891 1c82 FFF7FEFF 		bl	lv_obj_set_style_bg_color
 4892              	.LVL683:
 866:generated/setup_scr_wave_model.c **** 	lv_obj_set_style_border_width(ui->wave_model_btn_11, 0, LV_PART_MAIN | LV_STATE_DEFAULT);
 4893              		.loc 1 866 2 is_stmt 1 view .LVU1122
 4894 1c86 2A46     		mov	r2, r5
 4895 1c88 2946     		mov	r1, r5
 4896 1c8a D4F8C000 		ldr	r0, [r4, #192]
 4897 1c8e FFF7FEFF 		bl	lv_obj_set_style_border_width
 4898              	.LVL684:
 867:generated/setup_scr_wave_model.c **** 	lv_obj_set_style_radius(ui->wave_model_btn_11, 5, LV_PART_MAIN | LV_STATE_DEFAULT);
 4899              		.loc 1 867 2 view .LVU1123
 4900 1c92 2A46     		mov	r2, r5
 4901 1c94 0521     		movs	r1, #5
 4902 1c96 D4F8C000 		ldr	r0, [r4, #192]
 4903 1c9a FFF7FEFF 		bl	lv_obj_set_style_radius
 4904              	.LVL685:
 868:generated/setup_scr_wave_model.c **** 	lv_obj_set_style_shadow_width(ui->wave_model_btn_11, 0, LV_PART_MAIN | LV_STATE_DEFAULT);
 4905              		.loc 1 868 2 view .LVU1124
 4906 1c9e 2A46     		mov	r2, r5
 4907 1ca0 2946     		mov	r1, r5
 4908 1ca2 D4F8C000 		ldr	r0, [r4, #192]
 4909 1ca6 FFF7FEFF 		bl	lv_obj_set_style_shadow_width
 4910              	.LVL686:
 869:generated/setup_scr_wave_model.c **** 	lv_obj_set_style_text_color(ui->wave_model_btn_11, lv_color_hex(0x000000), LV_PART_MAIN | LV_STATE
 4911              		.loc 1 869 2 view .LVU1125
ARM GAS  C:\usertemp\cctMo5e7.s 			page 120


 4912              	.LBB262:
 4913              	.LBI262:
 597:lvgl/src/hal/../draw/../misc/lv_color.h **** {
 4914              		.loc 3 597 26 view .LVU1126
 4915              	.LBB263:
 600:lvgl/src/hal/../draw/../misc/lv_color.h **** #if LV_COLOR_16_SWAP == 0
 4916              		.loc 3 600 5 view .LVU1127
 616:lvgl/src/hal/../draw/../misc/lv_color.h **** #else
 4917              		.loc 3 616 5 view .LVU1128
 4918              		.loc 3 621 5 view .LVU1129
 4919              		.loc 3 621 5 is_stmt 0 view .LVU1130
 4920              	.LBE263:
 4921              	.LBE262:
 4922              		.loc 1 869 2 discriminator 1 view .LVU1131
 4923 1caa 2A46     		mov	r2, r5
 4924 1cac 2946     		mov	r1, r5	@ movhi
 4925 1cae D4F8C000 		ldr	r0, [r4, #192]
 4926 1cb2 FFF7FEFF 		bl	lv_obj_set_style_text_color
 4927              	.LVL687:
 870:generated/setup_scr_wave_model.c **** 	lv_obj_set_style_text_font(ui->wave_model_btn_11, &lv_font_arial_16, LV_PART_MAIN | LV_STATE_DEFAU
 4928              		.loc 1 870 2 is_stmt 1 view .LVU1132
 4929 1cb6 2A46     		mov	r2, r5
 4930 1cb8 3146     		mov	r1, r6
 4931 1cba D4F8C000 		ldr	r0, [r4, #192]
 4932 1cbe FFF7FEFF 		bl	lv_obj_set_style_text_font
 4933              	.LVL688:
 871:generated/setup_scr_wave_model.c **** 	lv_obj_set_style_text_align(ui->wave_model_btn_11, LV_TEXT_ALIGN_CENTER, LV_PART_MAIN | LV_STATE_D
 4934              		.loc 1 871 2 view .LVU1133
 4935 1cc2 2A46     		mov	r2, r5
 4936 1cc4 0221     		movs	r1, #2
 4937 1cc6 D4F8C000 		ldr	r0, [r4, #192]
 4938 1cca FFF7FEFF 		bl	lv_obj_set_style_text_align
 4939              	.LVL689:
 872:generated/setup_scr_wave_model.c **** 
 873:generated/setup_scr_wave_model.c **** 	// Write codes wave_model_btn_12
 874:generated/setup_scr_wave_model.c **** 	ui->wave_model_btn_12 = lv_btn_create(ui->wave_model);
 4940              		.loc 1 874 2 view .LVU1134
 4941              		.loc 1 874 26 is_stmt 0 view .LVU1135
 4942 1cce 2068     		ldr	r0, [r4]
 4943 1cd0 FFF7FEFF 		bl	lv_btn_create
 4944              	.LVL690:
 4945              		.loc 1 874 24 discriminator 1 view .LVU1136
 4946 1cd4 C4F8C800 		str	r0, [r4, #200]
 875:generated/setup_scr_wave_model.c **** 	ui->wave_model_btn_12_label = lv_label_create(ui->wave_model_btn_12);
 4947              		.loc 1 875 2 is_stmt 1 view .LVU1137
 4948              		.loc 1 875 32 is_stmt 0 view .LVU1138
 4949 1cd8 FFF7FEFF 		bl	lv_label_create
 4950              	.LVL691:
 4951              		.loc 1 875 30 discriminator 1 view .LVU1139
 4952 1cdc C4F8CC00 		str	r0, [r4, #204]
 876:generated/setup_scr_wave_model.c **** 	lv_label_set_text(ui->wave_model_btn_12_label, "L-");
 4953              		.loc 1 876 2 is_stmt 1 view .LVU1140
 4954 1ce0 5449     		ldr	r1, .L25+16
 4955 1ce2 FFF7FEFF 		bl	lv_label_set_text
 4956              	.LVL692:
 877:generated/setup_scr_wave_model.c **** 	lv_label_set_long_mode(ui->wave_model_btn_12_label, LV_LABEL_LONG_WRAP);
 4957              		.loc 1 877 2 view .LVU1141
ARM GAS  C:\usertemp\cctMo5e7.s 			page 121


 4958 1ce6 2946     		mov	r1, r5
 4959 1ce8 D4F8CC00 		ldr	r0, [r4, #204]
 4960 1cec FFF7FEFF 		bl	lv_label_set_long_mode
 4961              	.LVL693:
 878:generated/setup_scr_wave_model.c **** 	lv_obj_align(ui->wave_model_btn_12_label, LV_ALIGN_CENTER, 0, 0);
 4962              		.loc 1 878 2 view .LVU1142
 4963 1cf0 2B46     		mov	r3, r5
 4964 1cf2 2A46     		mov	r2, r5
 4965 1cf4 0921     		movs	r1, #9
 4966 1cf6 D4F8CC00 		ldr	r0, [r4, #204]
 4967 1cfa FFF7FEFF 		bl	lv_obj_align
 4968              	.LVL694:
 879:generated/setup_scr_wave_model.c **** 	lv_obj_set_style_pad_all(ui->wave_model_btn_12, 0, LV_STATE_DEFAULT);
 4969              		.loc 1 879 2 view .LVU1143
 4970 1cfe 2A46     		mov	r2, r5
 4971 1d00 2946     		mov	r1, r5
 4972 1d02 D4F8C800 		ldr	r0, [r4, #200]
 4973 1d06 FFF7FEFF 		bl	lv_obj_set_style_pad_all
 4974              	.LVL695:
 880:generated/setup_scr_wave_model.c **** 	lv_obj_set_pos(ui->wave_model_btn_12, 338, 445);
 4975              		.loc 1 880 2 view .LVU1144
 4976 1d0a 40F2BD12 		movw	r2, #445
 4977 1d0e 4FF4A971 		mov	r1, #338
 4978 1d12 D4F8C800 		ldr	r0, [r4, #200]
 4979 1d16 FFF7FEFF 		bl	lv_obj_set_pos
 4980              	.LVL696:
 881:generated/setup_scr_wave_model.c **** 	lv_obj_set_size(ui->wave_model_btn_12, 43, 30);
 4981              		.loc 1 881 2 view .LVU1145
 4982 1d1a 1E22     		movs	r2, #30
 4983 1d1c 2B21     		movs	r1, #43
 4984 1d1e D4F8C800 		ldr	r0, [r4, #200]
 4985 1d22 FFF7FEFF 		bl	lv_obj_set_size
 4986              	.LVL697:
 882:generated/setup_scr_wave_model.c **** 
 883:generated/setup_scr_wave_model.c **** 	// Write style for wave_model_btn_12, Part: LV_PART_MAIN, State: LV_STATE_DEFAULT.
 884:generated/setup_scr_wave_model.c **** 	lv_obj_set_style_bg_opa(ui->wave_model_btn_12, 255, LV_PART_MAIN | LV_STATE_DEFAULT);
 4987              		.loc 1 884 2 view .LVU1146
 4988 1d26 2A46     		mov	r2, r5
 4989 1d28 FF21     		movs	r1, #255
 4990 1d2a D4F8C800 		ldr	r0, [r4, #200]
 4991 1d2e FFF7FEFF 		bl	lv_obj_set_style_bg_opa
 4992              	.LVL698:
 885:generated/setup_scr_wave_model.c **** 	lv_obj_set_style_bg_color(ui->wave_model_btn_12, lv_color_hex(0x808080), LV_PART_MAIN | LV_STATE_D
 4993              		.loc 1 885 2 view .LVU1147
 4994              	.LBB264:
 4995              	.LBI264:
 597:lvgl/src/hal/../draw/../misc/lv_color.h **** {
 4996              		.loc 3 597 26 view .LVU1148
 4997              	.LBB265:
 600:lvgl/src/hal/../draw/../misc/lv_color.h **** #if LV_COLOR_16_SWAP == 0
 4998              		.loc 3 600 5 view .LVU1149
 616:lvgl/src/hal/../draw/../misc/lv_color.h **** #else
 4999              		.loc 3 616 5 view .LVU1150
 5000              		.loc 3 621 5 view .LVU1151
 5001              		.loc 3 621 5 is_stmt 0 view .LVU1152
 5002              	.LBE265:
 5003              	.LBE264:
ARM GAS  C:\usertemp\cctMo5e7.s 			page 122


 5004              		.loc 1 885 2 discriminator 1 view .LVU1153
 5005 1d32 2A46     		mov	r2, r5
 5006 1d34 3946     		mov	r1, r7	@ movhi
 5007 1d36 D4F8C800 		ldr	r0, [r4, #200]
 5008 1d3a FFF7FEFF 		bl	lv_obj_set_style_bg_color
 5009              	.LVL699:
 886:generated/setup_scr_wave_model.c **** 	lv_obj_set_style_border_width(ui->wave_model_btn_12, 0, LV_PART_MAIN | LV_STATE_DEFAULT);
 5010              		.loc 1 886 2 is_stmt 1 view .LVU1154
 5011 1d3e 2A46     		mov	r2, r5
 5012 1d40 2946     		mov	r1, r5
 5013 1d42 D4F8C800 		ldr	r0, [r4, #200]
 5014 1d46 FFF7FEFF 		bl	lv_obj_set_style_border_width
 5015              	.LVL700:
 887:generated/setup_scr_wave_model.c **** 	lv_obj_set_style_radius(ui->wave_model_btn_12, 5, LV_PART_MAIN | LV_STATE_DEFAULT);
 5016              		.loc 1 887 2 view .LVU1155
 5017 1d4a 2A46     		mov	r2, r5
 5018 1d4c 0521     		movs	r1, #5
 5019 1d4e D4F8C800 		ldr	r0, [r4, #200]
 5020 1d52 FFF7FEFF 		bl	lv_obj_set_style_radius
 5021              	.LVL701:
 888:generated/setup_scr_wave_model.c **** 	lv_obj_set_style_shadow_width(ui->wave_model_btn_12, 0, LV_PART_MAIN | LV_STATE_DEFAULT);
 5022              		.loc 1 888 2 view .LVU1156
 5023 1d56 2A46     		mov	r2, r5
 5024 1d58 2946     		mov	r1, r5
 5025 1d5a D4F8C800 		ldr	r0, [r4, #200]
 5026 1d5e FFF7FEFF 		bl	lv_obj_set_style_shadow_width
 5027              	.LVL702:
 889:generated/setup_scr_wave_model.c **** 	lv_obj_set_style_text_color(ui->wave_model_btn_12, lv_color_hex(0x000000), LV_PART_MAIN | LV_STATE
 5028              		.loc 1 889 2 view .LVU1157
 5029              	.LBB266:
 5030              	.LBI266:
 597:lvgl/src/hal/../draw/../misc/lv_color.h **** {
 5031              		.loc 3 597 26 view .LVU1158
 5032              	.LBB267:
 600:lvgl/src/hal/../draw/../misc/lv_color.h **** #if LV_COLOR_16_SWAP == 0
 5033              		.loc 3 600 5 view .LVU1159
 616:lvgl/src/hal/../draw/../misc/lv_color.h **** #else
 5034              		.loc 3 616 5 view .LVU1160
 5035              		.loc 3 621 5 view .LVU1161
 5036              		.loc 3 621 5 is_stmt 0 view .LVU1162
 5037              	.LBE267:
 5038              	.LBE266:
 5039              		.loc 1 889 2 discriminator 1 view .LVU1163
 5040 1d62 2A46     		mov	r2, r5
 5041 1d64 2946     		mov	r1, r5	@ movhi
 5042 1d66 D4F8C800 		ldr	r0, [r4, #200]
 5043 1d6a FFF7FEFF 		bl	lv_obj_set_style_text_color
 5044              	.LVL703:
 890:generated/setup_scr_wave_model.c **** 	lv_obj_set_style_text_font(ui->wave_model_btn_12, &lv_font_arial_16, LV_PART_MAIN | LV_STATE_DEFAU
 5045              		.loc 1 890 2 is_stmt 1 view .LVU1164
 5046 1d6e 2A46     		mov	r2, r5
 5047 1d70 3146     		mov	r1, r6
 5048 1d72 D4F8C800 		ldr	r0, [r4, #200]
 5049 1d76 FFF7FEFF 		bl	lv_obj_set_style_text_font
 5050              	.LVL704:
 891:generated/setup_scr_wave_model.c **** 	lv_obj_set_style_text_align(ui->wave_model_btn_12, LV_TEXT_ALIGN_CENTER, LV_PART_MAIN | LV_STATE_D
 5051              		.loc 1 891 2 view .LVU1165
ARM GAS  C:\usertemp\cctMo5e7.s 			page 123


 5052 1d7a 2A46     		mov	r2, r5
 5053 1d7c 0221     		movs	r1, #2
 5054 1d7e D4F8C800 		ldr	r0, [r4, #200]
 5055 1d82 FFF7FEFF 		bl	lv_obj_set_style_text_align
 5056              	.LVL705:
 892:generated/setup_scr_wave_model.c **** 
 893:generated/setup_scr_wave_model.c **** 	// Write codes wave_model_btn_13
 894:generated/setup_scr_wave_model.c **** 	ui->wave_model_btn_13 = lv_btn_create(ui->wave_model);
 5057              		.loc 1 894 2 view .LVU1166
 5058              		.loc 1 894 26 is_stmt 0 view .LVU1167
 5059 1d86 2068     		ldr	r0, [r4]
 5060 1d88 FFF7FEFF 		bl	lv_btn_create
 5061              	.LVL706:
 5062              		.loc 1 894 24 discriminator 1 view .LVU1168
 5063 1d8c C4F8D000 		str	r0, [r4, #208]
 895:generated/setup_scr_wave_model.c **** 	ui->wave_model_btn_13_label = lv_label_create(ui->wave_model_btn_13);
 5064              		.loc 1 895 2 is_stmt 1 view .LVU1169
 5065              		.loc 1 895 32 is_stmt 0 view .LVU1170
 5066 1d90 FFF7FEFF 		bl	lv_label_create
 5067              	.LVL707:
 5068              		.loc 1 895 30 discriminator 1 view .LVU1171
 5069 1d94 C4F8D400 		str	r0, [r4, #212]
 896:generated/setup_scr_wave_model.c **** 	lv_label_set_text(ui->wave_model_btn_13_label, "Y+");
 5070              		.loc 1 896 2 is_stmt 1 view .LVU1172
 5071 1d98 2749     		ldr	r1, .L25+20
 5072 1d9a FFF7FEFF 		bl	lv_label_set_text
 5073              	.LVL708:
 897:generated/setup_scr_wave_model.c **** 	lv_label_set_long_mode(ui->wave_model_btn_13_label, LV_LABEL_LONG_WRAP);
 5074              		.loc 1 897 2 view .LVU1173
 5075 1d9e 2946     		mov	r1, r5
 5076 1da0 D4F8D400 		ldr	r0, [r4, #212]
 5077 1da4 FFF7FEFF 		bl	lv_label_set_long_mode
 5078              	.LVL709:
 898:generated/setup_scr_wave_model.c **** 	lv_obj_align(ui->wave_model_btn_13_label, LV_ALIGN_CENTER, 0, 0);
 5079              		.loc 1 898 2 view .LVU1174
 5080 1da8 2B46     		mov	r3, r5
 5081 1daa 2A46     		mov	r2, r5
 5082 1dac 0921     		movs	r1, #9
 5083 1dae D4F8D400 		ldr	r0, [r4, #212]
 5084 1db2 FFF7FEFF 		bl	lv_obj_align
 5085              	.LVL710:
 899:generated/setup_scr_wave_model.c **** 	lv_obj_set_style_pad_all(ui->wave_model_btn_13, 0, LV_STATE_DEFAULT);
 5086              		.loc 1 899 2 view .LVU1175
 5087 1db6 2A46     		mov	r2, r5
 5088 1db8 2946     		mov	r1, r5
 5089 1dba D4F8D000 		ldr	r0, [r4, #208]
 5090 1dbe FFF7FEFF 		bl	lv_obj_set_style_pad_all
 5091              	.LVL711:
 900:generated/setup_scr_wave_model.c **** 	lv_obj_set_pos(ui->wave_model_btn_13, 418, 445);
 5092              		.loc 1 900 2 view .LVU1176
 5093 1dc2 40F2BD12 		movw	r2, #445
 5094 1dc6 4FF4D171 		mov	r1, #418
 5095 1dca D4F8D000 		ldr	r0, [r4, #208]
 5096 1dce FFF7FEFF 		bl	lv_obj_set_pos
 5097              	.LVL712:
 901:generated/setup_scr_wave_model.c **** 	lv_obj_set_size(ui->wave_model_btn_13, 43, 30);
 5098              		.loc 1 901 2 view .LVU1177
ARM GAS  C:\usertemp\cctMo5e7.s 			page 124


 5099 1dd2 1E22     		movs	r2, #30
 5100 1dd4 2B21     		movs	r1, #43
 5101 1dd6 D4F8D000 		ldr	r0, [r4, #208]
 5102 1dda FFF7FEFF 		bl	lv_obj_set_size
 5103              	.LVL713:
 902:generated/setup_scr_wave_model.c **** 
 903:generated/setup_scr_wave_model.c **** 	// Write style for wave_model_btn_13, Part: LV_PART_MAIN, State: LV_STATE_DEFAULT.
 904:generated/setup_scr_wave_model.c **** 	lv_obj_set_style_bg_opa(ui->wave_model_btn_13, 255, LV_PART_MAIN | LV_STATE_DEFAULT);
 5104              		.loc 1 904 2 view .LVU1178
 5105 1dde 2A46     		mov	r2, r5
 5106 1de0 FF21     		movs	r1, #255
 5107 1de2 D4F8D000 		ldr	r0, [r4, #208]
 5108 1de6 FFF7FEFF 		bl	lv_obj_set_style_bg_opa
 5109              	.LVL714:
 905:generated/setup_scr_wave_model.c **** 	lv_obj_set_style_bg_color(ui->wave_model_btn_13, lv_color_hex(0x808080), LV_PART_MAIN | LV_STATE_D
 5110              		.loc 1 905 2 view .LVU1179
 5111              	.LBB268:
 5112              	.LBI268:
 597:lvgl/src/hal/../draw/../misc/lv_color.h **** {
 5113              		.loc 3 597 26 view .LVU1180
 5114              	.LBB269:
 600:lvgl/src/hal/../draw/../misc/lv_color.h **** #if LV_COLOR_16_SWAP == 0
 5115              		.loc 3 600 5 view .LVU1181
 616:lvgl/src/hal/../draw/../misc/lv_color.h **** #else
 5116              		.loc 3 616 5 view .LVU1182
 5117              		.loc 3 621 5 view .LVU1183
 5118              		.loc 3 621 5 is_stmt 0 view .LVU1184
 5119              	.LBE269:
 5120              	.LBE268:
 5121              		.loc 1 905 2 discriminator 1 view .LVU1185
 5122 1dea 2A46     		mov	r2, r5
 5123 1dec 3946     		mov	r1, r7	@ movhi
 5124 1dee D4F8D000 		ldr	r0, [r4, #208]
 5125 1df2 FFF7FEFF 		bl	lv_obj_set_style_bg_color
 5126              	.LVL715:
 906:generated/setup_scr_wave_model.c **** 	lv_obj_set_style_border_width(ui->wave_model_btn_13, 0, LV_PART_MAIN | LV_STATE_DEFAULT);
 5127              		.loc 1 906 2 is_stmt 1 view .LVU1186
 5128 1df6 2A46     		mov	r2, r5
 5129 1df8 2946     		mov	r1, r5
 5130 1dfa D4F8D000 		ldr	r0, [r4, #208]
 5131 1dfe FFF7FEFF 		bl	lv_obj_set_style_border_width
 5132              	.LVL716:
 907:generated/setup_scr_wave_model.c **** 	lv_obj_set_style_radius(ui->wave_model_btn_13, 5, LV_PART_MAIN | LV_STATE_DEFAULT);
 5133              		.loc 1 907 2 view .LVU1187
 5134 1e02 2A46     		mov	r2, r5
 5135 1e04 0521     		movs	r1, #5
 5136 1e06 D4F8D000 		ldr	r0, [r4, #208]
 5137 1e0a FFF7FEFF 		bl	lv_obj_set_style_radius
 5138              	.LVL717:
 908:generated/setup_scr_wave_model.c **** 	lv_obj_set_style_shadow_width(ui->wave_model_btn_13, 0, LV_PART_MAIN | LV_STATE_DEFAULT);
 5139              		.loc 1 908 2 view .LVU1188
 5140 1e0e 2A46     		mov	r2, r5
 5141 1e10 2946     		mov	r1, r5
 5142 1e12 D4F8D000 		ldr	r0, [r4, #208]
 5143 1e16 FFF7FEFF 		bl	lv_obj_set_style_shadow_width
 5144              	.LVL718:
 909:generated/setup_scr_wave_model.c **** 	lv_obj_set_style_text_color(ui->wave_model_btn_13, lv_color_hex(0x000000), LV_PART_MAIN | LV_STATE
ARM GAS  C:\usertemp\cctMo5e7.s 			page 125


 5145              		.loc 1 909 2 view .LVU1189
 5146              	.LBB270:
 5147              	.LBI270:
 597:lvgl/src/hal/../draw/../misc/lv_color.h **** {
 5148              		.loc 3 597 26 view .LVU1190
 5149              	.LBB271:
 600:lvgl/src/hal/../draw/../misc/lv_color.h **** #if LV_COLOR_16_SWAP == 0
 5150              		.loc 3 600 5 view .LVU1191
 616:lvgl/src/hal/../draw/../misc/lv_color.h **** #else
 5151              		.loc 3 616 5 view .LVU1192
 5152              		.loc 3 621 5 view .LVU1193
 5153              		.loc 3 621 5 is_stmt 0 view .LVU1194
 5154              	.LBE271:
 5155              	.LBE270:
 5156              		.loc 1 909 2 discriminator 1 view .LVU1195
 5157 1e1a 2A46     		mov	r2, r5
 5158 1e1c 2946     		mov	r1, r5	@ movhi
 5159 1e1e D4F8D000 		ldr	r0, [r4, #208]
 5160 1e22 0BE0     		b	.L26
 5161              	.L27:
 5162              		.align	2
 5163              	.L25:
 5164 1e24 00000000 		.word	_f7b64978f5bff1ff9d8a4bf8f3d4d9d6_alpha_520x340
 5165 1e28 70000000 		.word	.LC22
 5166 1e2c 74000000 		.word	.LC23
 5167 1e30 78000000 		.word	.LC24
 5168 1e34 7C000000 		.word	.LC25
 5169 1e38 80000000 		.word	.LC26
 5170              	.L26:
 5171 1e3c FFF7FEFF 		bl	lv_obj_set_style_text_color
 5172              	.LVL719:
 910:generated/setup_scr_wave_model.c **** 	lv_obj_set_style_text_font(ui->wave_model_btn_13, &lv_font_arial_16, LV_PART_MAIN | LV_STATE_DEFAU
 5173              		.loc 1 910 2 is_stmt 1 view .LVU1196
 5174 1e40 2A46     		mov	r2, r5
 5175 1e42 3146     		mov	r1, r6
 5176 1e44 D4F8D000 		ldr	r0, [r4, #208]
 5177 1e48 FFF7FEFF 		bl	lv_obj_set_style_text_font
 5178              	.LVL720:
 911:generated/setup_scr_wave_model.c **** 	lv_obj_set_style_text_align(ui->wave_model_btn_13, LV_TEXT_ALIGN_CENTER, LV_PART_MAIN | LV_STATE_D
 5179              		.loc 1 911 2 view .LVU1197
 5180 1e4c 2A46     		mov	r2, r5
 5181 1e4e 0221     		movs	r1, #2
 5182 1e50 D4F8D000 		ldr	r0, [r4, #208]
 5183 1e54 FFF7FEFF 		bl	lv_obj_set_style_text_align
 5184              	.LVL721:
 912:generated/setup_scr_wave_model.c **** 
 913:generated/setup_scr_wave_model.c **** 	// Write codes wave_model_btn_14
 914:generated/setup_scr_wave_model.c **** 	ui->wave_model_btn_14 = lv_btn_create(ui->wave_model);
 5185              		.loc 1 914 2 view .LVU1198
 5186              		.loc 1 914 26 is_stmt 0 view .LVU1199
 5187 1e58 2068     		ldr	r0, [r4]
 5188 1e5a FFF7FEFF 		bl	lv_btn_create
 5189              	.LVL722:
 5190              		.loc 1 914 24 discriminator 1 view .LVU1200
 5191 1e5e C4F8D800 		str	r0, [r4, #216]
 915:generated/setup_scr_wave_model.c **** 	ui->wave_model_btn_14_label = lv_label_create(ui->wave_model_btn_14);
 5192              		.loc 1 915 2 is_stmt 1 view .LVU1201
ARM GAS  C:\usertemp\cctMo5e7.s 			page 126


 5193              		.loc 1 915 32 is_stmt 0 view .LVU1202
 5194 1e62 FFF7FEFF 		bl	lv_label_create
 5195              	.LVL723:
 5196              		.loc 1 915 30 discriminator 1 view .LVU1203
 5197 1e66 C4F8DC00 		str	r0, [r4, #220]
 916:generated/setup_scr_wave_model.c **** 	lv_label_set_text(ui->wave_model_btn_14_label, "Y-");
 5198              		.loc 1 916 2 is_stmt 1 view .LVU1204
 5199 1e6a E649     		ldr	r1, .L28
 5200 1e6c FFF7FEFF 		bl	lv_label_set_text
 5201              	.LVL724:
 917:generated/setup_scr_wave_model.c **** 	lv_label_set_long_mode(ui->wave_model_btn_14_label, LV_LABEL_LONG_WRAP);
 5202              		.loc 1 917 2 view .LVU1205
 5203 1e70 2946     		mov	r1, r5
 5204 1e72 D4F8DC00 		ldr	r0, [r4, #220]
 5205 1e76 FFF7FEFF 		bl	lv_label_set_long_mode
 5206              	.LVL725:
 918:generated/setup_scr_wave_model.c **** 	lv_obj_align(ui->wave_model_btn_14_label, LV_ALIGN_CENTER, 0, 0);
 5207              		.loc 1 918 2 view .LVU1206
 5208 1e7a 2B46     		mov	r3, r5
 5209 1e7c 2A46     		mov	r2, r5
 5210 1e7e 0921     		movs	r1, #9
 5211 1e80 D4F8DC00 		ldr	r0, [r4, #220]
 5212 1e84 FFF7FEFF 		bl	lv_obj_align
 5213              	.LVL726:
 919:generated/setup_scr_wave_model.c **** 	lv_obj_set_style_pad_all(ui->wave_model_btn_14, 0, LV_STATE_DEFAULT);
 5214              		.loc 1 919 2 view .LVU1207
 5215 1e88 2A46     		mov	r2, r5
 5216 1e8a 2946     		mov	r1, r5
 5217 1e8c D4F8D800 		ldr	r0, [r4, #216]
 5218 1e90 FFF7FEFF 		bl	lv_obj_set_style_pad_all
 5219              	.LVL727:
 920:generated/setup_scr_wave_model.c **** 	lv_obj_set_pos(ui->wave_model_btn_14, 498, 445);
 5220              		.loc 1 920 2 view .LVU1208
 5221 1e94 40F2BD12 		movw	r2, #445
 5222 1e98 4FF4F971 		mov	r1, #498
 5223 1e9c D4F8D800 		ldr	r0, [r4, #216]
 5224 1ea0 FFF7FEFF 		bl	lv_obj_set_pos
 5225              	.LVL728:
 921:generated/setup_scr_wave_model.c **** 	lv_obj_set_size(ui->wave_model_btn_14, 43, 30);
 5226              		.loc 1 921 2 view .LVU1209
 5227 1ea4 1E22     		movs	r2, #30
 5228 1ea6 2B21     		movs	r1, #43
 5229 1ea8 D4F8D800 		ldr	r0, [r4, #216]
 5230 1eac FFF7FEFF 		bl	lv_obj_set_size
 5231              	.LVL729:
 922:generated/setup_scr_wave_model.c **** 
 923:generated/setup_scr_wave_model.c **** 	// Write style for wave_model_btn_14, Part: LV_PART_MAIN, State: LV_STATE_DEFAULT.
 924:generated/setup_scr_wave_model.c **** 	lv_obj_set_style_bg_opa(ui->wave_model_btn_14, 255, LV_PART_MAIN | LV_STATE_DEFAULT);
 5232              		.loc 1 924 2 view .LVU1210
 5233 1eb0 2A46     		mov	r2, r5
 5234 1eb2 FF21     		movs	r1, #255
 5235 1eb4 D4F8D800 		ldr	r0, [r4, #216]
 5236 1eb8 FFF7FEFF 		bl	lv_obj_set_style_bg_opa
 5237              	.LVL730:
 925:generated/setup_scr_wave_model.c **** 	lv_obj_set_style_bg_color(ui->wave_model_btn_14, lv_color_hex(0x808080), LV_PART_MAIN | LV_STATE_D
 5238              		.loc 1 925 2 view .LVU1211
 5239              	.LBB272:
ARM GAS  C:\usertemp\cctMo5e7.s 			page 127


 5240              	.LBI272:
 597:lvgl/src/hal/../draw/../misc/lv_color.h **** {
 5241              		.loc 3 597 26 view .LVU1212
 5242              	.LBB273:
 600:lvgl/src/hal/../draw/../misc/lv_color.h **** #if LV_COLOR_16_SWAP == 0
 5243              		.loc 3 600 5 view .LVU1213
 616:lvgl/src/hal/../draw/../misc/lv_color.h **** #else
 5244              		.loc 3 616 5 view .LVU1214
 5245              		.loc 3 621 5 view .LVU1215
 5246              		.loc 3 621 5 is_stmt 0 view .LVU1216
 5247              	.LBE273:
 5248              	.LBE272:
 5249              		.loc 1 925 2 discriminator 1 view .LVU1217
 5250 1ebc 2A46     		mov	r2, r5
 5251 1ebe 3946     		mov	r1, r7	@ movhi
 5252 1ec0 D4F8D800 		ldr	r0, [r4, #216]
 5253 1ec4 FFF7FEFF 		bl	lv_obj_set_style_bg_color
 5254              	.LVL731:
 926:generated/setup_scr_wave_model.c **** 	lv_obj_set_style_border_width(ui->wave_model_btn_14, 0, LV_PART_MAIN | LV_STATE_DEFAULT);
 5255              		.loc 1 926 2 is_stmt 1 view .LVU1218
 5256 1ec8 2A46     		mov	r2, r5
 5257 1eca 2946     		mov	r1, r5
 5258 1ecc D4F8D800 		ldr	r0, [r4, #216]
 5259 1ed0 FFF7FEFF 		bl	lv_obj_set_style_border_width
 5260              	.LVL732:
 927:generated/setup_scr_wave_model.c **** 	lv_obj_set_style_radius(ui->wave_model_btn_14, 5, LV_PART_MAIN | LV_STATE_DEFAULT);
 5261              		.loc 1 927 2 view .LVU1219
 5262 1ed4 2A46     		mov	r2, r5
 5263 1ed6 0521     		movs	r1, #5
 5264 1ed8 D4F8D800 		ldr	r0, [r4, #216]
 5265 1edc FFF7FEFF 		bl	lv_obj_set_style_radius
 5266              	.LVL733:
 928:generated/setup_scr_wave_model.c **** 	lv_obj_set_style_shadow_width(ui->wave_model_btn_14, 0, LV_PART_MAIN | LV_STATE_DEFAULT);
 5267              		.loc 1 928 2 view .LVU1220
 5268 1ee0 2A46     		mov	r2, r5
 5269 1ee2 2946     		mov	r1, r5
 5270 1ee4 D4F8D800 		ldr	r0, [r4, #216]
 5271 1ee8 FFF7FEFF 		bl	lv_obj_set_style_shadow_width
 5272              	.LVL734:
 929:generated/setup_scr_wave_model.c **** 	lv_obj_set_style_text_color(ui->wave_model_btn_14, lv_color_hex(0x000000), LV_PART_MAIN | LV_STATE
 5273              		.loc 1 929 2 view .LVU1221
 5274              	.LBB274:
 5275              	.LBI274:
 597:lvgl/src/hal/../draw/../misc/lv_color.h **** {
 5276              		.loc 3 597 26 view .LVU1222
 5277              	.LBB275:
 600:lvgl/src/hal/../draw/../misc/lv_color.h **** #if LV_COLOR_16_SWAP == 0
 5278              		.loc 3 600 5 view .LVU1223
 616:lvgl/src/hal/../draw/../misc/lv_color.h **** #else
 5279              		.loc 3 616 5 view .LVU1224
 5280              		.loc 3 621 5 view .LVU1225
 5281              		.loc 3 621 5 is_stmt 0 view .LVU1226
 5282              	.LBE275:
 5283              	.LBE274:
 5284              		.loc 1 929 2 discriminator 1 view .LVU1227
 5285 1eec 2A46     		mov	r2, r5
 5286 1eee 2946     		mov	r1, r5	@ movhi
ARM GAS  C:\usertemp\cctMo5e7.s 			page 128


 5287 1ef0 D4F8D800 		ldr	r0, [r4, #216]
 5288 1ef4 FFF7FEFF 		bl	lv_obj_set_style_text_color
 5289              	.LVL735:
 930:generated/setup_scr_wave_model.c **** 	lv_obj_set_style_text_font(ui->wave_model_btn_14, &lv_font_arial_16, LV_PART_MAIN | LV_STATE_DEFAU
 5290              		.loc 1 930 2 is_stmt 1 view .LVU1228
 5291 1ef8 2A46     		mov	r2, r5
 5292 1efa 3146     		mov	r1, r6
 5293 1efc D4F8D800 		ldr	r0, [r4, #216]
 5294 1f00 FFF7FEFF 		bl	lv_obj_set_style_text_font
 5295              	.LVL736:
 931:generated/setup_scr_wave_model.c **** 	lv_obj_set_style_text_align(ui->wave_model_btn_14, LV_TEXT_ALIGN_CENTER, LV_PART_MAIN | LV_STATE_D
 5296              		.loc 1 931 2 view .LVU1229
 5297 1f04 2A46     		mov	r2, r5
 5298 1f06 0221     		movs	r1, #2
 5299 1f08 D4F8D800 		ldr	r0, [r4, #216]
 5300 1f0c FFF7FEFF 		bl	lv_obj_set_style_text_align
 5301              	.LVL737:
 932:generated/setup_scr_wave_model.c **** 
 933:generated/setup_scr_wave_model.c **** 	// Write codes wave_model_chart_3
 934:generated/setup_scr_wave_model.c **** 	ui->wave_model_chart_3 = lv_chart_create(ui->wave_model);
 5302              		.loc 1 934 2 view .LVU1230
 5303              		.loc 1 934 27 is_stmt 0 view .LVU1231
 5304 1f10 2068     		ldr	r0, [r4]
 5305 1f12 FFF7FEFF 		bl	lv_chart_create
 5306              	.LVL738:
 5307              		.loc 1 934 25 discriminator 1 view .LVU1232
 5308 1f16 C4F8E000 		str	r0, [r4, #224]
 935:generated/setup_scr_wave_model.c **** 	lv_chart_set_type(ui->wave_model_chart_3, LV_CHART_TYPE_BAR);
 5309              		.loc 1 935 2 is_stmt 1 view .LVU1233
 5310 1f1a 0221     		movs	r1, #2
 5311 1f1c FFF7FEFF 		bl	lv_chart_set_type
 5312              	.LVL739:
 936:generated/setup_scr_wave_model.c **** 	lv_chart_set_div_line_count(ui->wave_model_chart_3, 0, 0);
 5313              		.loc 1 936 2 view .LVU1234
 5314 1f20 2A46     		mov	r2, r5
 5315 1f22 2946     		mov	r1, r5
 5316 1f24 D4F8E000 		ldr	r0, [r4, #224]
 5317 1f28 FFF7FEFF 		bl	lv_chart_set_div_line_count
 5318              	.LVL740:
 937:generated/setup_scr_wave_model.c **** 	lv_chart_set_point_count(ui->wave_model_chart_3, 50);
 5319              		.loc 1 937 2 view .LVU1235
 5320 1f2c 3221     		movs	r1, #50
 5321 1f2e D4F8E000 		ldr	r0, [r4, #224]
 5322 1f32 FFF7FEFF 		bl	lv_chart_set_point_count
 5323              	.LVL741:
 938:generated/setup_scr_wave_model.c **** 	lv_chart_set_range(ui->wave_model_chart_3, LV_CHART_AXIS_PRIMARY_Y, 0, 340);
 5324              		.loc 1 938 2 view .LVU1236
 5325 1f36 4FF4AA73 		mov	r3, #340
 5326 1f3a 2A46     		mov	r2, r5
 5327 1f3c 2946     		mov	r1, r5
 5328 1f3e D4F8E000 		ldr	r0, [r4, #224]
 5329 1f42 FFF7FEFF 		bl	lv_chart_set_range
 5330              	.LVL742:
 939:generated/setup_scr_wave_model.c **** 	lv_chart_set_range(ui->wave_model_chart_3, LV_CHART_AXIS_SECONDARY_Y, 0, 100);
 5331              		.loc 1 939 2 view .LVU1237
 5332 1f46 6423     		movs	r3, #100
 5333 1f48 2A46     		mov	r2, r5
ARM GAS  C:\usertemp\cctMo5e7.s 			page 129


 5334 1f4a 0121     		movs	r1, #1
 5335 1f4c D4F8E000 		ldr	r0, [r4, #224]
 5336 1f50 FFF7FEFF 		bl	lv_chart_set_range
 5337              	.LVL743:
 940:generated/setup_scr_wave_model.c **** 	lv_chart_set_zoom_x(ui->wave_model_chart_3, 256);
 5338              		.loc 1 940 2 view .LVU1238
 5339 1f54 4FF48071 		mov	r1, #256
 5340 1f58 D4F8E000 		ldr	r0, [r4, #224]
 5341 1f5c FFF7FEFF 		bl	lv_chart_set_zoom_x
 5342              	.LVL744:
 941:generated/setup_scr_wave_model.c **** 	lv_chart_set_zoom_y(ui->wave_model_chart_3, 256);
 5343              		.loc 1 941 2 view .LVU1239
 5344 1f60 4FF48071 		mov	r1, #256
 5345 1f64 D4F8E000 		ldr	r0, [r4, #224]
 5346 1f68 FFF7FEFF 		bl	lv_chart_set_zoom_y
 5347              	.LVL745:
 942:generated/setup_scr_wave_model.c **** 	lv_obj_set_width(guider_ui.wave_model_chart_3, 520);
 5348              		.loc 1 942 2 view .LVU1240
 5349              		.loc 1 942 28 is_stmt 0 view .LVU1241
 5350 1f6c A64E     		ldr	r6, .L28+4
 5351              		.loc 1 942 2 view .LVU1242
 5352 1f6e 4FF40271 		mov	r1, #520
 5353 1f72 D6F8E000 		ldr	r0, [r6, #224]
 5354 1f76 FFF7FEFF 		bl	lv_obj_set_width
 5355              	.LVL746:
 943:generated/setup_scr_wave_model.c **** 	lv_obj_set_height(guider_ui.wave_model_chart_3, 280);
 5356              		.loc 1 943 2 is_stmt 1 view .LVU1243
 5357 1f7a 4FF48C71 		mov	r1, #280
 5358 1f7e D6F8E000 		ldr	r0, [r6, #224]
 5359 1f82 FFF7FEFF 		bl	lv_obj_set_height
 5360              	.LVL747:
 944:generated/setup_scr_wave_model.c **** 	lv_obj_set_pos(guider_ui.wave_model_chart_3, 47, 130);
 5361              		.loc 1 944 2 view .LVU1244
 5362 1f86 8222     		movs	r2, #130
 5363 1f88 2F21     		movs	r1, #47
 5364 1f8a D6F8E000 		ldr	r0, [r6, #224]
 5365 1f8e FFF7FEFF 		bl	lv_obj_set_pos
 5366              	.LVL748:
 945:generated/setup_scr_wave_model.c **** 	lv_obj_set_scrollbar_mode(ui->wave_model_chart_3, LV_SCROLLBAR_MODE_OFF);
 5367              		.loc 1 945 2 view .LVU1245
 5368 1f92 2946     		mov	r1, r5
 5369 1f94 D4F8E000 		ldr	r0, [r4, #224]
 5370 1f98 FFF7FEFF 		bl	lv_obj_set_scrollbar_mode
 5371              	.LVL749:
 946:generated/setup_scr_wave_model.c **** 	lv_obj_add_flag(ui->wave_model_chart_3, LV_OBJ_FLAG_HIDDEN);
 5372              		.loc 1 946 2 view .LVU1246
 5373 1f9c 0121     		movs	r1, #1
 5374 1f9e D4F8E000 		ldr	r0, [r4, #224]
 5375 1fa2 FFF7FEFF 		bl	lv_obj_add_flag
 5376              	.LVL750:
 947:generated/setup_scr_wave_model.c **** 
 948:generated/setup_scr_wave_model.c **** 	// Write style for wave_model_chart_3, Part: LV_PART_MAIN, State: LV_STATE_DEFAULT.
 949:generated/setup_scr_wave_model.c **** 	lv_obj_set_style_bg_opa(ui->wave_model_chart_3, 0, LV_PART_MAIN | LV_STATE_DEFAULT);
 5377              		.loc 1 949 2 view .LVU1247
 5378 1fa6 2A46     		mov	r2, r5
 5379 1fa8 2946     		mov	r1, r5
 5380 1faa D4F8E000 		ldr	r0, [r4, #224]
ARM GAS  C:\usertemp\cctMo5e7.s 			page 130


 5381 1fae FFF7FEFF 		bl	lv_obj_set_style_bg_opa
 5382              	.LVL751:
 950:generated/setup_scr_wave_model.c **** 	lv_obj_set_style_border_width(ui->wave_model_chart_3, 2, LV_PART_MAIN | LV_STATE_DEFAULT);
 5383              		.loc 1 950 2 view .LVU1248
 5384 1fb2 2A46     		mov	r2, r5
 5385 1fb4 0221     		movs	r1, #2
 5386 1fb6 D4F8E000 		ldr	r0, [r4, #224]
 5387 1fba FFF7FEFF 		bl	lv_obj_set_style_border_width
 5388              	.LVL752:
 951:generated/setup_scr_wave_model.c **** 	lv_obj_set_style_border_opa(ui->wave_model_chart_3, 255, LV_PART_MAIN | LV_STATE_DEFAULT);
 5389              		.loc 1 951 2 view .LVU1249
 5390 1fbe 2A46     		mov	r2, r5
 5391 1fc0 FF21     		movs	r1, #255
 5392 1fc2 D4F8E000 		ldr	r0, [r4, #224]
 5393 1fc6 FFF7FEFF 		bl	lv_obj_set_style_border_opa
 5394              	.LVL753:
 952:generated/setup_scr_wave_model.c **** 	lv_obj_set_style_border_color(ui->wave_model_chart_3, lv_color_hex(0x000000), LV_PART_MAIN | LV_ST
 5395              		.loc 1 952 2 view .LVU1250
 5396              	.LBB276:
 5397              	.LBI276:
 597:lvgl/src/hal/../draw/../misc/lv_color.h **** {
 5398              		.loc 3 597 26 view .LVU1251
 5399              	.LBB277:
 600:lvgl/src/hal/../draw/../misc/lv_color.h **** #if LV_COLOR_16_SWAP == 0
 5400              		.loc 3 600 5 view .LVU1252
 616:lvgl/src/hal/../draw/../misc/lv_color.h **** #else
 5401              		.loc 3 616 5 view .LVU1253
 5402              		.loc 3 621 5 view .LVU1254
 5403              		.loc 3 621 5 is_stmt 0 view .LVU1255
 5404              	.LBE277:
 5405              	.LBE276:
 5406              		.loc 1 952 2 discriminator 1 view .LVU1256
 5407 1fca 2A46     		mov	r2, r5
 5408 1fcc 2946     		mov	r1, r5	@ movhi
 5409 1fce D4F8E000 		ldr	r0, [r4, #224]
 5410 1fd2 FFF7FEFF 		bl	lv_obj_set_style_border_color
 5411              	.LVL754:
 953:generated/setup_scr_wave_model.c **** 	lv_obj_set_style_border_side(ui->wave_model_chart_3, LV_BORDER_SIDE_FULL, LV_PART_MAIN | LV_STATE_
 5412              		.loc 1 953 2 is_stmt 1 view .LVU1257
 5413 1fd6 2A46     		mov	r2, r5
 5414 1fd8 0F21     		movs	r1, #15
 5415 1fda D4F8E000 		ldr	r0, [r4, #224]
 5416 1fde FFF7FEFF 		bl	lv_obj_set_style_border_side
 5417              	.LVL755:
 954:generated/setup_scr_wave_model.c **** 	lv_obj_set_style_radius(ui->wave_model_chart_3, 0, LV_PART_MAIN | LV_STATE_DEFAULT);
 5418              		.loc 1 954 2 view .LVU1258
 5419 1fe2 2A46     		mov	r2, r5
 5420 1fe4 2946     		mov	r1, r5
 5421 1fe6 D4F8E000 		ldr	r0, [r4, #224]
 5422 1fea FFF7FEFF 		bl	lv_obj_set_style_radius
 5423              	.LVL756:
 955:generated/setup_scr_wave_model.c **** 	lv_obj_set_style_line_width(ui->wave_model_chart_3, 2, LV_PART_MAIN | LV_STATE_DEFAULT);
 5424              		.loc 1 955 2 view .LVU1259
 5425 1fee 2A46     		mov	r2, r5
 5426 1ff0 0221     		movs	r1, #2
 5427 1ff2 D4F8E000 		ldr	r0, [r4, #224]
 5428 1ff6 FFF7FEFF 		bl	lv_obj_set_style_line_width
ARM GAS  C:\usertemp\cctMo5e7.s 			page 131


 5429              	.LVL757:
 956:generated/setup_scr_wave_model.c **** 	lv_obj_set_style_line_color(ui->wave_model_chart_3, lv_color_hex(0xaba0a0), LV_PART_MAIN | LV_STAT
 5430              		.loc 1 956 2 view .LVU1260
 5431              	.LBB278:
 5432              	.LBI278:
 597:lvgl/src/hal/../draw/../misc/lv_color.h **** {
 5433              		.loc 3 597 26 view .LVU1261
 5434              	.LBB279:
 600:lvgl/src/hal/../draw/../misc/lv_color.h **** #if LV_COLOR_16_SWAP == 0
 5435              		.loc 3 600 5 view .LVU1262
 616:lvgl/src/hal/../draw/../misc/lv_color.h **** #else
 5436              		.loc 3 616 5 view .LVU1263
 5437              		.loc 3 621 5 view .LVU1264
 5438              		.loc 3 621 5 is_stmt 0 view .LVU1265
 5439              	.LBE279:
 5440              	.LBE278:
 5441              		.loc 1 956 2 discriminator 1 view .LVU1266
 5442 1ffa 2A46     		mov	r2, r5
 5443 1ffc 4AF61451 		movw	r1, 44308	@ movhi
 5444 2000 D4F8E000 		ldr	r0, [r4, #224]
 5445 2004 FFF7FEFF 		bl	lv_obj_set_style_line_color
 5446              	.LVL758:
 957:generated/setup_scr_wave_model.c **** 	lv_obj_set_style_line_opa(ui->wave_model_chart_3, 255, LV_PART_MAIN | LV_STATE_DEFAULT);
 5447              		.loc 1 957 2 is_stmt 1 view .LVU1267
 5448 2008 2A46     		mov	r2, r5
 5449 200a FF21     		movs	r1, #255
 5450 200c D4F8E000 		ldr	r0, [r4, #224]
 5451 2010 FFF7FEFF 		bl	lv_obj_set_style_line_opa
 5452              	.LVL759:
 958:generated/setup_scr_wave_model.c **** 	lv_obj_set_style_shadow_width(ui->wave_model_chart_3, 0, LV_PART_MAIN | LV_STATE_DEFAULT);
 5453              		.loc 1 958 2 view .LVU1268
 5454 2014 2A46     		mov	r2, r5
 5455 2016 2946     		mov	r1, r5
 5456 2018 D4F8E000 		ldr	r0, [r4, #224]
 5457 201c FFF7FEFF 		bl	lv_obj_set_style_shadow_width
 5458              	.LVL760:
 959:generated/setup_scr_wave_model.c **** 
 960:generated/setup_scr_wave_model.c **** 	// Write style for wave_model_chart_3, Part: LV_PART_TICKS, State: LV_STATE_DEFAULT.
 961:generated/setup_scr_wave_model.c **** 	lv_obj_set_style_text_color(ui->wave_model_chart_3, lv_color_hex(0x151212), LV_PART_TICKS | LV_STA
 5459              		.loc 1 961 2 view .LVU1269
 5460              	.LBB280:
 5461              	.LBI280:
 597:lvgl/src/hal/../draw/../misc/lv_color.h **** {
 5462              		.loc 3 597 26 view .LVU1270
 5463              	.LBB281:
 600:lvgl/src/hal/../draw/../misc/lv_color.h **** #if LV_COLOR_16_SWAP == 0
 5464              		.loc 3 600 5 view .LVU1271
 616:lvgl/src/hal/../draw/../misc/lv_color.h **** #else
 5465              		.loc 3 616 5 view .LVU1272
 5466              		.loc 3 621 5 view .LVU1273
 5467              		.loc 3 621 5 is_stmt 0 view .LVU1274
 5468              	.LBE281:
 5469              	.LBE280:
 5470              		.loc 1 961 2 discriminator 1 view .LVU1275
 5471 2020 4FF4C022 		mov	r2, #393216
 5472 2024 41F28201 		movw	r1, 4226	@ movhi
 5473 2028 D4F8E000 		ldr	r0, [r4, #224]
ARM GAS  C:\usertemp\cctMo5e7.s 			page 132


 5474 202c FFF7FEFF 		bl	lv_obj_set_style_text_color
 5475              	.LVL761:
 962:generated/setup_scr_wave_model.c **** 	lv_obj_set_style_text_font(ui->wave_model_chart_3, &lv_font_montserratMedium_12, LV_PART_TICKS | L
 5476              		.loc 1 962 2 is_stmt 1 view .LVU1276
 5477 2030 4FF4C022 		mov	r2, #393216
 5478 2034 7549     		ldr	r1, .L28+8
 5479 2036 D4F8E000 		ldr	r0, [r4, #224]
 5480 203a FFF7FEFF 		bl	lv_obj_set_style_text_font
 5481              	.LVL762:
 963:generated/setup_scr_wave_model.c **** 	lv_obj_set_style_line_width(ui->wave_model_chart_3, 2, LV_PART_TICKS | LV_STATE_DEFAULT);
 5482              		.loc 1 963 2 view .LVU1277
 5483 203e 4FF4C022 		mov	r2, #393216
 5484 2042 0221     		movs	r1, #2
 5485 2044 D4F8E000 		ldr	r0, [r4, #224]
 5486 2048 FFF7FEFF 		bl	lv_obj_set_style_line_width
 5487              	.LVL763:
 964:generated/setup_scr_wave_model.c **** 	lv_obj_set_style_line_color(ui->wave_model_chart_3, lv_color_hex(0xe8e8e8), LV_PART_TICKS | LV_STA
 5488              		.loc 1 964 2 view .LVU1278
 5489              	.LBB282:
 5490              	.LBI282:
 597:lvgl/src/hal/../draw/../misc/lv_color.h **** {
 5491              		.loc 3 597 26 view .LVU1279
 5492              	.LBB283:
 600:lvgl/src/hal/../draw/../misc/lv_color.h **** #if LV_COLOR_16_SWAP == 0
 5493              		.loc 3 600 5 view .LVU1280
 616:lvgl/src/hal/../draw/../misc/lv_color.h **** #else
 5494              		.loc 3 616 5 view .LVU1281
 5495              		.loc 3 621 5 view .LVU1282
 5496              		.loc 3 621 5 is_stmt 0 view .LVU1283
 5497              	.LBE283:
 5498              	.LBE282:
 5499              		.loc 1 964 2 discriminator 1 view .LVU1284
 5500 204c 4FF4C022 		mov	r2, #393216
 5501 2050 4EF65D71 		movw	r1, 61277	@ movhi
 5502 2054 D4F8E000 		ldr	r0, [r4, #224]
 5503 2058 FFF7FEFF 		bl	lv_obj_set_style_line_color
 5504              	.LVL764:
 965:generated/setup_scr_wave_model.c **** 	lv_obj_set_style_line_opa(ui->wave_model_chart_3, 255, LV_PART_TICKS | LV_STATE_DEFAULT);
 5505              		.loc 1 965 2 is_stmt 1 view .LVU1285
 5506 205c 4FF4C022 		mov	r2, #393216
 5507 2060 FF21     		movs	r1, #255
 5508 2062 D4F8E000 		ldr	r0, [r4, #224]
 5509 2066 FFF7FEFF 		bl	lv_obj_set_style_line_opa
 5510              	.LVL765:
 966:generated/setup_scr_wave_model.c **** 
 967:generated/setup_scr_wave_model.c **** 	// Write codes wave_model_table_2
 968:generated/setup_scr_wave_model.c **** 	ui->wave_model_table_2 = lv_table_create(ui->wave_model);
 5511              		.loc 1 968 2 view .LVU1286
 5512              		.loc 1 968 27 is_stmt 0 view .LVU1287
 5513 206a 2068     		ldr	r0, [r4]
 5514 206c FFF7FEFF 		bl	lv_table_create
 5515              	.LVL766:
 5516              		.loc 1 968 25 discriminator 1 view .LVU1288
 5517 2070 A060     		str	r0, [r4, #8]
 969:generated/setup_scr_wave_model.c **** 	lv_table_set_col_cnt(ui->wave_model_table_2, 4);
 5518              		.loc 1 969 2 is_stmt 1 view .LVU1289
 5519 2072 0421     		movs	r1, #4
ARM GAS  C:\usertemp\cctMo5e7.s 			page 133


 5520 2074 FFF7FEFF 		bl	lv_table_set_col_cnt
 5521              	.LVL767:
 970:generated/setup_scr_wave_model.c **** 	lv_table_set_row_cnt(ui->wave_model_table_2, 5);
 5522              		.loc 1 970 2 view .LVU1290
 5523 2078 0521     		movs	r1, #5
 5524 207a A068     		ldr	r0, [r4, #8]
 5525 207c FFF7FEFF 		bl	lv_table_set_row_cnt
 5526              	.LVL768:
 971:generated/setup_scr_wave_model.c **** 	lv_table_set_cell_value(ui->wave_model_table_2, 0, 0, "PF");
 5527              		.loc 1 971 2 view .LVU1291
 5528 2080 634B     		ldr	r3, .L28+12
 5529 2082 2A46     		mov	r2, r5
 5530 2084 2946     		mov	r1, r5
 5531 2086 A068     		ldr	r0, [r4, #8]
 5532 2088 FFF7FEFF 		bl	lv_table_set_cell_value
 5533              	.LVL769:
 972:generated/setup_scr_wave_model.c **** 	lv_table_set_cell_value(ui->wave_model_table_2, 1, 0, "DPF");
 5534              		.loc 1 972 2 view .LVU1292
 5535 208c 614B     		ldr	r3, .L28+16
 5536 208e 2A46     		mov	r2, r5
 5537 2090 0121     		movs	r1, #1
 5538 2092 A068     		ldr	r0, [r4, #8]
 5539 2094 FFF7FEFF 		bl	lv_table_set_cell_value
 5540              	.LVL770:
 973:generated/setup_scr_wave_model.c **** 	lv_table_set_cell_value(ui->wave_model_table_2, 2, 0, "PHASE");
 5541              		.loc 1 973 2 view .LVU1293
 5542 2098 5F4B     		ldr	r3, .L28+20
 5543 209a 2A46     		mov	r2, r5
 5544 209c 0221     		movs	r1, #2
 5545 209e A068     		ldr	r0, [r4, #8]
 5546 20a0 FFF7FEFF 		bl	lv_table_set_cell_value
 5547              	.LVL771:
 974:generated/setup_scr_wave_model.c **** 	lv_table_set_cell_value(ui->wave_model_table_2, 3, 0, "W");
 5548              		.loc 1 974 2 view .LVU1294
 5549 20a4 5D4B     		ldr	r3, .L28+24
 5550 20a6 2A46     		mov	r2, r5
 5551 20a8 0321     		movs	r1, #3
 5552 20aa A068     		ldr	r0, [r4, #8]
 5553 20ac FFF7FEFF 		bl	lv_table_set_cell_value
 5554              	.LVL772:
 975:generated/setup_scr_wave_model.c **** 	lv_table_set_cell_value(ui->wave_model_table_2, 4, 0, "Wh");
 5555              		.loc 1 975 2 view .LVU1295
 5556 20b0 5B4B     		ldr	r3, .L28+28
 5557 20b2 2A46     		mov	r2, r5
 5558 20b4 0421     		movs	r1, #4
 5559 20b6 A068     		ldr	r0, [r4, #8]
 5560 20b8 FFF7FEFF 		bl	lv_table_set_cell_value
 5561              	.LVL773:
 976:generated/setup_scr_wave_model.c **** 	lv_table_set_cell_value(ui->wave_model_table_2, 0, 1, "0");
 5562              		.loc 1 976 2 view .LVU1296
 5563 20bc 594E     		ldr	r6, .L28+32
 5564 20be 3346     		mov	r3, r6
 5565 20c0 0122     		movs	r2, #1
 5566 20c2 2946     		mov	r1, r5
 5567 20c4 A068     		ldr	r0, [r4, #8]
 5568 20c6 FFF7FEFF 		bl	lv_table_set_cell_value
 5569              	.LVL774:
ARM GAS  C:\usertemp\cctMo5e7.s 			page 134


 977:generated/setup_scr_wave_model.c **** 	lv_table_set_cell_value(ui->wave_model_table_2, 1, 1, "0");
 5570              		.loc 1 977 2 view .LVU1297
 5571 20ca 3346     		mov	r3, r6
 5572 20cc 0122     		movs	r2, #1
 5573 20ce 1146     		mov	r1, r2
 5574 20d0 A068     		ldr	r0, [r4, #8]
 5575 20d2 FFF7FEFF 		bl	lv_table_set_cell_value
 5576              	.LVL775:
 978:generated/setup_scr_wave_model.c **** 	lv_table_set_cell_value(ui->wave_model_table_2, 2, 1, "0");
 5577              		.loc 1 978 2 view .LVU1298
 5578 20d6 3346     		mov	r3, r6
 5579 20d8 0122     		movs	r2, #1
 5580 20da 0221     		movs	r1, #2
 5581 20dc A068     		ldr	r0, [r4, #8]
 5582 20de FFF7FEFF 		bl	lv_table_set_cell_value
 5583              	.LVL776:
 979:generated/setup_scr_wave_model.c **** 	lv_table_set_cell_value(ui->wave_model_table_2, 3, 1, "0");
 5584              		.loc 1 979 2 view .LVU1299
 5585 20e2 3346     		mov	r3, r6
 5586 20e4 0122     		movs	r2, #1
 5587 20e6 0321     		movs	r1, #3
 5588 20e8 A068     		ldr	r0, [r4, #8]
 5589 20ea FFF7FEFF 		bl	lv_table_set_cell_value
 5590              	.LVL777:
 980:generated/setup_scr_wave_model.c **** 	lv_table_set_cell_value(ui->wave_model_table_2, 4, 1, "0");
 5591              		.loc 1 980 2 view .LVU1300
 5592 20ee 3346     		mov	r3, r6
 5593 20f0 0122     		movs	r2, #1
 5594 20f2 0421     		movs	r1, #4
 5595 20f4 A068     		ldr	r0, [r4, #8]
 5596 20f6 FFF7FEFF 		bl	lv_table_set_cell_value
 5597              	.LVL778:
 981:generated/setup_scr_wave_model.c **** 	lv_table_set_cell_value(ui->wave_model_table_2, 0, 2, "0");
 5598              		.loc 1 981 2 view .LVU1301
 5599 20fa 3346     		mov	r3, r6
 5600 20fc 0222     		movs	r2, #2
 5601 20fe 2946     		mov	r1, r5
 5602 2100 A068     		ldr	r0, [r4, #8]
 5603 2102 FFF7FEFF 		bl	lv_table_set_cell_value
 5604              	.LVL779:
 982:generated/setup_scr_wave_model.c **** 	lv_table_set_cell_value(ui->wave_model_table_2, 1, 2, "0");
 5605              		.loc 1 982 2 view .LVU1302
 5606 2106 3346     		mov	r3, r6
 5607 2108 0222     		movs	r2, #2
 5608 210a 0121     		movs	r1, #1
 5609 210c A068     		ldr	r0, [r4, #8]
 5610 210e FFF7FEFF 		bl	lv_table_set_cell_value
 5611              	.LVL780:
 983:generated/setup_scr_wave_model.c **** 	lv_table_set_cell_value(ui->wave_model_table_2, 2, 2, "0");
 5612              		.loc 1 983 2 view .LVU1303
 5613 2112 3346     		mov	r3, r6
 5614 2114 0222     		movs	r2, #2
 5615 2116 1146     		mov	r1, r2
 5616 2118 A068     		ldr	r0, [r4, #8]
 5617 211a FFF7FEFF 		bl	lv_table_set_cell_value
 5618              	.LVL781:
 984:generated/setup_scr_wave_model.c **** 	lv_table_set_cell_value(ui->wave_model_table_2, 3, 2, "0");
ARM GAS  C:\usertemp\cctMo5e7.s 			page 135


 5619              		.loc 1 984 2 view .LVU1304
 5620 211e 3346     		mov	r3, r6
 5621 2120 0222     		movs	r2, #2
 5622 2122 0321     		movs	r1, #3
 5623 2124 A068     		ldr	r0, [r4, #8]
 5624 2126 FFF7FEFF 		bl	lv_table_set_cell_value
 5625              	.LVL782:
 985:generated/setup_scr_wave_model.c **** 	lv_table_set_cell_value(ui->wave_model_table_2, 4, 2, "0");
 5626              		.loc 1 985 2 view .LVU1305
 5627 212a 3346     		mov	r3, r6
 5628 212c 0222     		movs	r2, #2
 5629 212e 0421     		movs	r1, #4
 5630 2130 A068     		ldr	r0, [r4, #8]
 5631 2132 FFF7FEFF 		bl	lv_table_set_cell_value
 5632              	.LVL783:
 986:generated/setup_scr_wave_model.c **** 	lv_table_set_cell_value(ui->wave_model_table_2, 0, 3, "0");
 5633              		.loc 1 986 2 view .LVU1306
 5634 2136 3346     		mov	r3, r6
 5635 2138 0322     		movs	r2, #3
 5636 213a 2946     		mov	r1, r5
 5637 213c A068     		ldr	r0, [r4, #8]
 5638 213e FFF7FEFF 		bl	lv_table_set_cell_value
 5639              	.LVL784:
 987:generated/setup_scr_wave_model.c **** 	lv_table_set_cell_value(ui->wave_model_table_2, 1, 3, "0");
 5640              		.loc 1 987 2 view .LVU1307
 5641 2142 3346     		mov	r3, r6
 5642 2144 0322     		movs	r2, #3
 5643 2146 0121     		movs	r1, #1
 5644 2148 A068     		ldr	r0, [r4, #8]
 5645 214a FFF7FEFF 		bl	lv_table_set_cell_value
 5646              	.LVL785:
 988:generated/setup_scr_wave_model.c **** 	lv_table_set_cell_value(ui->wave_model_table_2, 2, 3, "0");
 5647              		.loc 1 988 2 view .LVU1308
 5648 214e 3346     		mov	r3, r6
 5649 2150 0322     		movs	r2, #3
 5650 2152 0221     		movs	r1, #2
 5651 2154 A068     		ldr	r0, [r4, #8]
 5652 2156 FFF7FEFF 		bl	lv_table_set_cell_value
 5653              	.LVL786:
 989:generated/setup_scr_wave_model.c **** 	lv_table_set_cell_value(ui->wave_model_table_2, 3, 3, "0");
 5654              		.loc 1 989 2 view .LVU1309
 5655 215a 3346     		mov	r3, r6
 5656 215c 0322     		movs	r2, #3
 5657 215e 1146     		mov	r1, r2
 5658 2160 A068     		ldr	r0, [r4, #8]
 5659 2162 FFF7FEFF 		bl	lv_table_set_cell_value
 5660              	.LVL787:
 990:generated/setup_scr_wave_model.c **** 	lv_table_set_cell_value(ui->wave_model_table_2, 4, 3, "0");
 5661              		.loc 1 990 2 view .LVU1310
 5662 2166 3346     		mov	r3, r6
 5663 2168 0322     		movs	r2, #3
 5664 216a 0421     		movs	r1, #4
 5665 216c A068     		ldr	r0, [r4, #8]
 5666 216e FFF7FEFF 		bl	lv_table_set_cell_value
 5667              	.LVL788:
 991:generated/setup_scr_wave_model.c **** 	lv_obj_set_pos(ui->wave_model_table_2, 70, 142);
 5668              		.loc 1 991 2 view .LVU1311
ARM GAS  C:\usertemp\cctMo5e7.s 			page 136


 5669 2172 8E22     		movs	r2, #142
 5670 2174 4621     		movs	r1, #70
 5671 2176 A068     		ldr	r0, [r4, #8]
 5672 2178 FFF7FEFF 		bl	lv_obj_set_pos
 5673              	.LVL789:
 992:generated/setup_scr_wave_model.c **** 	lv_obj_set_scrollbar_mode(ui->wave_model_table_2, LV_SCROLLBAR_MODE_OFF);
 5674              		.loc 1 992 2 view .LVU1312
 5675 217c 2946     		mov	r1, r5
 5676 217e A068     		ldr	r0, [r4, #8]
 5677 2180 FFF7FEFF 		bl	lv_obj_set_scrollbar_mode
 5678              	.LVL790:
 993:generated/setup_scr_wave_model.c **** 
 994:generated/setup_scr_wave_model.c **** 	// Write style for wave_model_table_2, Part: LV_PART_MAIN, State: LV_STATE_DEFAULT.
 995:generated/setup_scr_wave_model.c **** 	lv_obj_set_style_pad_top(ui->wave_model_table_2, 0, LV_PART_MAIN | LV_STATE_DEFAULT);
 5679              		.loc 1 995 2 view .LVU1313
 5680 2184 2A46     		mov	r2, r5
 5681 2186 2946     		mov	r1, r5
 5682 2188 A068     		ldr	r0, [r4, #8]
 5683 218a FFF7FEFF 		bl	lv_obj_set_style_pad_top
 5684              	.LVL791:
 996:generated/setup_scr_wave_model.c **** 	lv_obj_set_style_pad_bottom(ui->wave_model_table_2, 0, LV_PART_MAIN | LV_STATE_DEFAULT);
 5685              		.loc 1 996 2 view .LVU1314
 5686 218e 2A46     		mov	r2, r5
 5687 2190 2946     		mov	r1, r5
 5688 2192 A068     		ldr	r0, [r4, #8]
 5689 2194 FFF7FEFF 		bl	lv_obj_set_style_pad_bottom
 5690              	.LVL792:
 997:generated/setup_scr_wave_model.c **** 	lv_obj_set_style_pad_left(ui->wave_model_table_2, 0, LV_PART_MAIN | LV_STATE_DEFAULT);
 5691              		.loc 1 997 2 view .LVU1315
 5692 2198 2A46     		mov	r2, r5
 5693 219a 2946     		mov	r1, r5
 5694 219c A068     		ldr	r0, [r4, #8]
 5695 219e FFF7FEFF 		bl	lv_obj_set_style_pad_left
 5696              	.LVL793:
 998:generated/setup_scr_wave_model.c **** 	lv_obj_set_style_pad_right(ui->wave_model_table_2, 0, LV_PART_MAIN | LV_STATE_DEFAULT);
 5697              		.loc 1 998 2 view .LVU1316
 5698 21a2 2A46     		mov	r2, r5
 5699 21a4 2946     		mov	r1, r5
 5700 21a6 A068     		ldr	r0, [r4, #8]
 5701 21a8 FFF7FEFF 		bl	lv_obj_set_style_pad_right
 5702              	.LVL794:
 999:generated/setup_scr_wave_model.c **** 	lv_obj_set_style_bg_opa(ui->wave_model_table_2, 255, LV_PART_MAIN | LV_STATE_DEFAULT);
 5703              		.loc 1 999 2 view .LVU1317
 5704 21ac 2A46     		mov	r2, r5
 5705 21ae FF21     		movs	r1, #255
 5706 21b0 A068     		ldr	r0, [r4, #8]
 5707 21b2 FFF7FEFF 		bl	lv_obj_set_style_bg_opa
 5708              	.LVL795:
1000:generated/setup_scr_wave_model.c **** 	lv_obj_set_style_bg_color(ui->wave_model_table_2, lv_color_hex(0xc3dfd6), LV_PART_MAIN | LV_STATE_
 5709              		.loc 1 1000 2 view .LVU1318
 5710              	.LBB284:
 5711              	.LBI284:
 597:lvgl/src/hal/../draw/../misc/lv_color.h **** {
 5712              		.loc 3 597 26 view .LVU1319
 5713              	.LBB285:
 600:lvgl/src/hal/../draw/../misc/lv_color.h **** #if LV_COLOR_16_SWAP == 0
 5714              		.loc 3 600 5 view .LVU1320
ARM GAS  C:\usertemp\cctMo5e7.s 			page 137


 616:lvgl/src/hal/../draw/../misc/lv_color.h **** #else
 5715              		.loc 3 616 5 view .LVU1321
 5716              		.loc 3 621 5 view .LVU1322
 5717              		.loc 3 621 5 is_stmt 0 view .LVU1323
 5718              	.LBE285:
 5719              	.LBE284:
 5720              		.loc 1 1000 2 discriminator 1 view .LVU1324
 5721 21b6 2A46     		mov	r2, r5
 5722 21b8 4146     		mov	r1, r8	@ movhi
 5723 21ba A068     		ldr	r0, [r4, #8]
 5724 21bc FFF7FEFF 		bl	lv_obj_set_style_bg_color
 5725              	.LVL796:
1001:generated/setup_scr_wave_model.c **** 	lv_obj_set_style_border_width(ui->wave_model_table_2, 0, LV_PART_MAIN | LV_STATE_DEFAULT);
 5726              		.loc 1 1001 2 is_stmt 1 view .LVU1325
 5727 21c0 2A46     		mov	r2, r5
 5728 21c2 2946     		mov	r1, r5
 5729 21c4 A068     		ldr	r0, [r4, #8]
 5730 21c6 FFF7FEFF 		bl	lv_obj_set_style_border_width
 5731              	.LVL797:
1002:generated/setup_scr_wave_model.c **** 	lv_obj_set_style_radius(ui->wave_model_table_2, 0, LV_PART_MAIN | LV_STATE_DEFAULT);
 5732              		.loc 1 1002 2 view .LVU1326
 5733 21ca 2A46     		mov	r2, r5
 5734 21cc 2946     		mov	r1, r5
 5735 21ce A068     		ldr	r0, [r4, #8]
 5736 21d0 FFF7FEFF 		bl	lv_obj_set_style_radius
 5737              	.LVL798:
1003:generated/setup_scr_wave_model.c **** 	lv_obj_set_style_shadow_width(ui->wave_model_table_2, 0, LV_PART_MAIN | LV_STATE_DEFAULT);
 5738              		.loc 1 1003 2 view .LVU1327
 5739 21d4 2A46     		mov	r2, r5
 5740 21d6 2946     		mov	r1, r5
 5741 21d8 A068     		ldr	r0, [r4, #8]
 5742 21da FFF7FEFF 		bl	lv_obj_set_style_shadow_width
 5743              	.LVL799:
1004:generated/setup_scr_wave_model.c **** 
1005:generated/setup_scr_wave_model.c **** 	// Write style for wave_model_table_2, Part: LV_PART_ITEMS, State: LV_STATE_DEFAULT.
1006:generated/setup_scr_wave_model.c **** 	lv_obj_set_style_text_color(ui->wave_model_table_2, lv_color_hex(0x393c41), LV_PART_ITEMS | LV_STA
 5744              		.loc 1 1006 2 view .LVU1328
 5745              	.LBB286:
 5746              	.LBI286:
 597:lvgl/src/hal/../draw/../misc/lv_color.h **** {
 5747              		.loc 3 597 26 view .LVU1329
 5748              	.LBB287:
 600:lvgl/src/hal/../draw/../misc/lv_color.h **** #if LV_COLOR_16_SWAP == 0
 5749              		.loc 3 600 5 view .LVU1330
 616:lvgl/src/hal/../draw/../misc/lv_color.h **** #else
 5750              		.loc 3 616 5 view .LVU1331
 5751              		.loc 3 621 5 view .LVU1332
 5752              		.loc 3 621 5 is_stmt 0 view .LVU1333
 5753              	.LBE287:
 5754              	.LBE286:
 5755              		.loc 1 1006 2 discriminator 1 view .LVU1334
 5756 21de 4FF4A022 		mov	r2, #327680
 5757 21e2 43F6E811 		movw	r1, 14824	@ movhi
 5758 21e6 A068     		ldr	r0, [r4, #8]
 5759 21e8 FFF7FEFF 		bl	lv_obj_set_style_text_color
 5760              	.LVL800:
1007:generated/setup_scr_wave_model.c **** 	lv_obj_set_style_text_font(ui->wave_model_table_2, &lv_font_arial_16, LV_PART_ITEMS | LV_STATE_DEF
ARM GAS  C:\usertemp\cctMo5e7.s 			page 138


 5761              		.loc 1 1007 2 is_stmt 1 view .LVU1335
 5762 21ec 0E4E     		ldr	r6, .L28+36
 5763 21ee 4FF4A022 		mov	r2, #327680
 5764 21f2 3146     		mov	r1, r6
 5765 21f4 A068     		ldr	r0, [r4, #8]
 5766 21f6 FFF7FEFF 		bl	lv_obj_set_style_text_font
 5767              	.LVL801:
1008:generated/setup_scr_wave_model.c **** 	lv_obj_set_style_text_align(ui->wave_model_table_2, LV_TEXT_ALIGN_CENTER, LV_PART_ITEMS | LV_STATE
 5768              		.loc 1 1008 2 view .LVU1336
 5769 21fa 4FF4A022 		mov	r2, #327680
 5770 21fe 0221     		movs	r1, #2
 5771 2200 A068     		ldr	r0, [r4, #8]
 5772 2202 13E0     		b	.L29
 5773              	.L30:
 5774              		.align	2
 5775              	.L28:
 5776 2204 84000000 		.word	.LC27
 5777 2208 00000000 		.word	guider_ui
 5778 220c 00000000 		.word	lv_font_montserratMedium_12
 5779 2210 88000000 		.word	.LC28
 5780 2214 8C000000 		.word	.LC29
 5781 2218 90000000 		.word	.LC30
 5782 221c 98000000 		.word	.LC31
 5783 2220 9C000000 		.word	.LC32
 5784 2224 58000000 		.word	.LC19
 5785 2228 00000000 		.word	lv_font_arial_16
 5786              	.L29:
 5787 222c FFF7FEFF 		bl	lv_obj_set_style_text_align
 5788              	.LVL802:
1009:generated/setup_scr_wave_model.c **** 	lv_obj_set_style_bg_opa(ui->wave_model_table_2, 0, LV_PART_ITEMS | LV_STATE_DEFAULT);
 5789              		.loc 1 1009 2 view .LVU1337
 5790 2230 4FF4A022 		mov	r2, #327680
 5791 2234 2946     		mov	r1, r5
 5792 2236 A068     		ldr	r0, [r4, #8]
 5793 2238 FFF7FEFF 		bl	lv_obj_set_style_bg_opa
 5794              	.LVL803:
1010:generated/setup_scr_wave_model.c **** 	lv_obj_set_style_border_width(ui->wave_model_table_2, 3, LV_PART_ITEMS | LV_STATE_DEFAULT);
 5795              		.loc 1 1010 2 view .LVU1338
 5796 223c 4FF4A022 		mov	r2, #327680
 5797 2240 0321     		movs	r1, #3
 5798 2242 A068     		ldr	r0, [r4, #8]
 5799 2244 FFF7FEFF 		bl	lv_obj_set_style_border_width
 5800              	.LVL804:
1011:generated/setup_scr_wave_model.c **** 	lv_obj_set_style_border_opa(ui->wave_model_table_2, 255, LV_PART_ITEMS | LV_STATE_DEFAULT);
 5801              		.loc 1 1011 2 view .LVU1339
 5802 2248 4FF4A022 		mov	r2, #327680
 5803 224c FF21     		movs	r1, #255
 5804 224e A068     		ldr	r0, [r4, #8]
 5805 2250 FFF7FEFF 		bl	lv_obj_set_style_border_opa
 5806              	.LVL805:
1012:generated/setup_scr_wave_model.c **** 	lv_obj_set_style_border_color(ui->wave_model_table_2, lv_color_hex(0xd5dee6), LV_PART_ITEMS | LV_S
 5807              		.loc 1 1012 2 view .LVU1340
 5808              	.LBB288:
 5809              	.LBI288:
 597:lvgl/src/hal/../draw/../misc/lv_color.h **** {
 5810              		.loc 3 597 26 view .LVU1341
 5811              	.LBB289:
ARM GAS  C:\usertemp\cctMo5e7.s 			page 139


 600:lvgl/src/hal/../draw/../misc/lv_color.h **** #if LV_COLOR_16_SWAP == 0
 5812              		.loc 3 600 5 view .LVU1342
 616:lvgl/src/hal/../draw/../misc/lv_color.h **** #else
 5813              		.loc 3 616 5 view .LVU1343
 5814              		.loc 3 621 5 view .LVU1344
 5815              		.loc 3 621 5 is_stmt 0 view .LVU1345
 5816              	.LBE289:
 5817              	.LBE288:
 5818              		.loc 1 1012 2 discriminator 1 view .LVU1346
 5819 2254 4FF4A022 		mov	r2, #327680
 5820 2258 4DF2FC61 		movw	r1, 55036	@ movhi
 5821 225c A068     		ldr	r0, [r4, #8]
 5822 225e FFF7FEFF 		bl	lv_obj_set_style_border_color
 5823              	.LVL806:
1013:generated/setup_scr_wave_model.c **** 	lv_obj_set_style_border_side(ui->wave_model_table_2, LV_BORDER_SIDE_FULL, LV_PART_ITEMS | LV_STATE
 5824              		.loc 1 1013 2 is_stmt 1 view .LVU1347
 5825 2262 4FF4A022 		mov	r2, #327680
 5826 2266 0F21     		movs	r1, #15
 5827 2268 A068     		ldr	r0, [r4, #8]
 5828 226a FFF7FEFF 		bl	lv_obj_set_style_border_side
 5829              	.LVL807:
1014:generated/setup_scr_wave_model.c **** 	lv_obj_set_style_pad_top(ui->wave_model_table_2, 10, LV_PART_ITEMS | LV_STATE_DEFAULT);
 5830              		.loc 1 1014 2 view .LVU1348
 5831 226e 4FF4A022 		mov	r2, #327680
 5832 2272 0A21     		movs	r1, #10
 5833 2274 A068     		ldr	r0, [r4, #8]
 5834 2276 FFF7FEFF 		bl	lv_obj_set_style_pad_top
 5835              	.LVL808:
1015:generated/setup_scr_wave_model.c **** 	lv_obj_set_style_pad_bottom(ui->wave_model_table_2, 10, LV_PART_ITEMS | LV_STATE_DEFAULT);
 5836              		.loc 1 1015 2 view .LVU1349
 5837 227a 4FF4A022 		mov	r2, #327680
 5838 227e 0A21     		movs	r1, #10
 5839 2280 A068     		ldr	r0, [r4, #8]
 5840 2282 FFF7FEFF 		bl	lv_obj_set_style_pad_bottom
 5841              	.LVL809:
1016:generated/setup_scr_wave_model.c **** 	lv_obj_set_style_pad_left(ui->wave_model_table_2, 10, LV_PART_ITEMS | LV_STATE_DEFAULT);
 5842              		.loc 1 1016 2 view .LVU1350
 5843 2286 4FF4A022 		mov	r2, #327680
 5844 228a 0A21     		movs	r1, #10
 5845 228c A068     		ldr	r0, [r4, #8]
 5846 228e FFF7FEFF 		bl	lv_obj_set_style_pad_left
 5847              	.LVL810:
1017:generated/setup_scr_wave_model.c **** 	lv_obj_set_style_pad_right(ui->wave_model_table_2, 10, LV_PART_ITEMS | LV_STATE_DEFAULT);
 5848              		.loc 1 1017 2 view .LVU1351
 5849 2292 4FF4A022 		mov	r2, #327680
 5850 2296 0A21     		movs	r1, #10
 5851 2298 A068     		ldr	r0, [r4, #8]
 5852 229a FFF7FEFF 		bl	lv_obj_set_style_pad_right
 5853              	.LVL811:
1018:generated/setup_scr_wave_model.c **** 	lv_obj_add_flag(ui->wave_model_table_2, LV_OBJ_FLAG_HIDDEN);
 5854              		.loc 1 1018 2 view .LVU1352
 5855 229e 0121     		movs	r1, #1
 5856 22a0 A068     		ldr	r0, [r4, #8]
 5857 22a2 FFF7FEFF 		bl	lv_obj_add_flag
 5858              	.LVL812:
1019:generated/setup_scr_wave_model.c **** 
1020:generated/setup_scr_wave_model.c **** 	// Write codes wave_model_label_27
ARM GAS  C:\usertemp\cctMo5e7.s 			page 140


1021:generated/setup_scr_wave_model.c **** 	ui->wave_model_label_27 = lv_label_create(ui->wave_model);
 5859              		.loc 1 1021 2 view .LVU1353
 5860              		.loc 1 1021 28 is_stmt 0 view .LVU1354
 5861 22a6 2068     		ldr	r0, [r4]
 5862 22a8 FFF7FEFF 		bl	lv_label_create
 5863              	.LVL813:
 5864              		.loc 1 1021 26 discriminator 1 view .LVU1355
 5865 22ac E060     		str	r0, [r4, #12]
1022:generated/setup_scr_wave_model.c **** 	lv_label_set_text(ui->wave_model_label_27, "IMAGE:");
 5866              		.loc 1 1022 2 is_stmt 1 view .LVU1356
 5867 22ae 7F49     		ldr	r1, .L31
 5868 22b0 FFF7FEFF 		bl	lv_label_set_text
 5869              	.LVL814:
1023:generated/setup_scr_wave_model.c **** 	lv_label_set_long_mode(ui->wave_model_label_27, LV_LABEL_LONG_WRAP);
 5870              		.loc 1 1023 2 view .LVU1357
 5871 22b4 2946     		mov	r1, r5
 5872 22b6 E068     		ldr	r0, [r4, #12]
 5873 22b8 FFF7FEFF 		bl	lv_label_set_long_mode
 5874              	.LVL815:
1024:generated/setup_scr_wave_model.c **** 	lv_obj_set_pos(ui->wave_model_label_27, 100, 450);
 5875              		.loc 1 1024 2 view .LVU1358
 5876 22bc 4FF4E172 		mov	r2, #450
 5877 22c0 6421     		movs	r1, #100
 5878 22c2 E068     		ldr	r0, [r4, #12]
 5879 22c4 FFF7FEFF 		bl	lv_obj_set_pos
 5880              	.LVL816:
1025:generated/setup_scr_wave_model.c **** 	lv_obj_set_size(ui->wave_model_label_27, 440, 16);
 5881              		.loc 1 1025 2 view .LVU1359
 5882 22c8 1022     		movs	r2, #16
 5883 22ca 4FF4DC71 		mov	r1, #440
 5884 22ce E068     		ldr	r0, [r4, #12]
 5885 22d0 FFF7FEFF 		bl	lv_obj_set_size
 5886              	.LVL817:
1026:generated/setup_scr_wave_model.c **** 	lv_obj_add_flag(ui->wave_model_label_27, LV_OBJ_FLAG_HIDDEN);
 5887              		.loc 1 1026 2 view .LVU1360
 5888 22d4 0121     		movs	r1, #1
 5889 22d6 E068     		ldr	r0, [r4, #12]
 5890 22d8 FFF7FEFF 		bl	lv_obj_add_flag
 5891              	.LVL818:
1027:generated/setup_scr_wave_model.c **** 
1028:generated/setup_scr_wave_model.c **** 	// Write style for wave_model_label_27, Part: LV_PART_MAIN, State: LV_STATE_DEFAULT.
1029:generated/setup_scr_wave_model.c **** 	lv_obj_set_style_border_width(ui->wave_model_label_27, 0, LV_PART_MAIN | LV_STATE_DEFAULT);
 5892              		.loc 1 1029 2 view .LVU1361
 5893 22dc 2A46     		mov	r2, r5
 5894 22de 2946     		mov	r1, r5
 5895 22e0 E068     		ldr	r0, [r4, #12]
 5896 22e2 FFF7FEFF 		bl	lv_obj_set_style_border_width
 5897              	.LVL819:
1030:generated/setup_scr_wave_model.c **** 	lv_obj_set_style_radius(ui->wave_model_label_27, 0, LV_PART_MAIN | LV_STATE_DEFAULT);
 5898              		.loc 1 1030 2 view .LVU1362
 5899 22e6 2A46     		mov	r2, r5
 5900 22e8 2946     		mov	r1, r5
 5901 22ea E068     		ldr	r0, [r4, #12]
 5902 22ec FFF7FEFF 		bl	lv_obj_set_style_radius
 5903              	.LVL820:
1031:generated/setup_scr_wave_model.c **** 	lv_obj_set_style_text_color(ui->wave_model_label_27, lv_color_hex(0x000000), LV_PART_MAIN | LV_STA
 5904              		.loc 1 1031 2 view .LVU1363
ARM GAS  C:\usertemp\cctMo5e7.s 			page 141


 5905              	.LBB290:
 5906              	.LBI290:
 597:lvgl/src/hal/../draw/../misc/lv_color.h **** {
 5907              		.loc 3 597 26 view .LVU1364
 5908              	.LBB291:
 600:lvgl/src/hal/../draw/../misc/lv_color.h **** #if LV_COLOR_16_SWAP == 0
 5909              		.loc 3 600 5 view .LVU1365
 616:lvgl/src/hal/../draw/../misc/lv_color.h **** #else
 5910              		.loc 3 616 5 view .LVU1366
 5911              		.loc 3 621 5 view .LVU1367
 5912              		.loc 3 621 5 is_stmt 0 view .LVU1368
 5913              	.LBE291:
 5914              	.LBE290:
 5915              		.loc 1 1031 2 discriminator 1 view .LVU1369
 5916 22f0 2A46     		mov	r2, r5
 5917 22f2 2946     		mov	r1, r5	@ movhi
 5918 22f4 E068     		ldr	r0, [r4, #12]
 5919 22f6 FFF7FEFF 		bl	lv_obj_set_style_text_color
 5920              	.LVL821:
1032:generated/setup_scr_wave_model.c **** 	lv_obj_set_style_text_font(ui->wave_model_label_27, &lv_font_arial_16, LV_PART_MAIN | LV_STATE_DEF
 5921              		.loc 1 1032 2 is_stmt 1 view .LVU1370
 5922 22fa 2A46     		mov	r2, r5
 5923 22fc 3146     		mov	r1, r6
 5924 22fe E068     		ldr	r0, [r4, #12]
 5925 2300 FFF7FEFF 		bl	lv_obj_set_style_text_font
 5926              	.LVL822:
1033:generated/setup_scr_wave_model.c **** 	lv_obj_set_style_text_letter_space(ui->wave_model_label_27, 2, LV_PART_MAIN | LV_STATE_DEFAULT);
 5927              		.loc 1 1033 2 view .LVU1371
 5928 2304 2A46     		mov	r2, r5
 5929 2306 0221     		movs	r1, #2
 5930 2308 E068     		ldr	r0, [r4, #12]
 5931 230a FFF7FEFF 		bl	lv_obj_set_style_text_letter_space
 5932              	.LVL823:
1034:generated/setup_scr_wave_model.c **** 	lv_obj_set_style_text_line_space(ui->wave_model_label_27, 0, LV_PART_MAIN | LV_STATE_DEFAULT);
 5933              		.loc 1 1034 2 view .LVU1372
 5934 230e 2A46     		mov	r2, r5
 5935 2310 2946     		mov	r1, r5
 5936 2312 E068     		ldr	r0, [r4, #12]
 5937 2314 FFF7FEFF 		bl	lv_obj_set_style_text_line_space
 5938              	.LVL824:
1035:generated/setup_scr_wave_model.c **** 	lv_obj_set_style_text_align(ui->wave_model_label_27, LV_TEXT_ALIGN_CENTER, LV_PART_MAIN | LV_STATE
 5939              		.loc 1 1035 2 view .LVU1373
 5940 2318 2A46     		mov	r2, r5
 5941 231a 0221     		movs	r1, #2
 5942 231c E068     		ldr	r0, [r4, #12]
 5943 231e FFF7FEFF 		bl	lv_obj_set_style_text_align
 5944              	.LVL825:
1036:generated/setup_scr_wave_model.c **** 	lv_obj_set_style_bg_opa(ui->wave_model_label_27, 0, LV_PART_MAIN | LV_STATE_DEFAULT);
 5945              		.loc 1 1036 2 view .LVU1374
 5946 2322 2A46     		mov	r2, r5
 5947 2324 2946     		mov	r1, r5
 5948 2326 E068     		ldr	r0, [r4, #12]
 5949 2328 FFF7FEFF 		bl	lv_obj_set_style_bg_opa
 5950              	.LVL826:
1037:generated/setup_scr_wave_model.c **** 	lv_obj_set_style_pad_top(ui->wave_model_label_27, 0, LV_PART_MAIN | LV_STATE_DEFAULT);
 5951              		.loc 1 1037 2 view .LVU1375
 5952 232c 2A46     		mov	r2, r5
ARM GAS  C:\usertemp\cctMo5e7.s 			page 142


 5953 232e 2946     		mov	r1, r5
 5954 2330 E068     		ldr	r0, [r4, #12]
 5955 2332 FFF7FEFF 		bl	lv_obj_set_style_pad_top
 5956              	.LVL827:
1038:generated/setup_scr_wave_model.c **** 	lv_obj_set_style_pad_right(ui->wave_model_label_27, 0, LV_PART_MAIN | LV_STATE_DEFAULT);
 5957              		.loc 1 1038 2 view .LVU1376
 5958 2336 2A46     		mov	r2, r5
 5959 2338 2946     		mov	r1, r5
 5960 233a E068     		ldr	r0, [r4, #12]
 5961 233c FFF7FEFF 		bl	lv_obj_set_style_pad_right
 5962              	.LVL828:
1039:generated/setup_scr_wave_model.c **** 	lv_obj_set_style_pad_bottom(ui->wave_model_label_27, 0, LV_PART_MAIN | LV_STATE_DEFAULT);
 5963              		.loc 1 1039 2 view .LVU1377
 5964 2340 2A46     		mov	r2, r5
 5965 2342 2946     		mov	r1, r5
 5966 2344 E068     		ldr	r0, [r4, #12]
 5967 2346 FFF7FEFF 		bl	lv_obj_set_style_pad_bottom
 5968              	.LVL829:
1040:generated/setup_scr_wave_model.c **** 	lv_obj_set_style_pad_left(ui->wave_model_label_27, 0, LV_PART_MAIN | LV_STATE_DEFAULT);
 5969              		.loc 1 1040 2 view .LVU1378
 5970 234a 2A46     		mov	r2, r5
 5971 234c 2946     		mov	r1, r5
 5972 234e E068     		ldr	r0, [r4, #12]
 5973 2350 FFF7FEFF 		bl	lv_obj_set_style_pad_left
 5974              	.LVL830:
1041:generated/setup_scr_wave_model.c **** 	lv_obj_set_style_shadow_width(ui->wave_model_label_27, 0, LV_PART_MAIN | LV_STATE_DEFAULT);
 5975              		.loc 1 1041 2 view .LVU1379
 5976 2354 2A46     		mov	r2, r5
 5977 2356 2946     		mov	r1, r5
 5978 2358 E068     		ldr	r0, [r4, #12]
 5979 235a FFF7FEFF 		bl	lv_obj_set_style_shadow_width
 5980              	.LVL831:
1042:generated/setup_scr_wave_model.c **** 
1043:generated/setup_scr_wave_model.c **** 	// Write codes wave_model_msg
1044:generated/setup_scr_wave_model.c **** 	ui->wave_model_msg = lv_label_create(ui->wave_model);
 5981              		.loc 1 1044 2 view .LVU1380
 5982              		.loc 1 1044 23 is_stmt 0 view .LVU1381
 5983 235e 2068     		ldr	r0, [r4]
 5984 2360 FFF7FEFF 		bl	lv_label_create
 5985              	.LVL832:
 5986              		.loc 1 1044 21 discriminator 1 view .LVU1382
 5987 2364 C4F8E400 		str	r0, [r4, #228]
1045:generated/setup_scr_wave_model.c **** 	lv_label_set_text(ui->wave_model_msg, "Label");
 5988              		.loc 1 1045 2 is_stmt 1 view .LVU1383
 5989 2368 5149     		ldr	r1, .L31+4
 5990 236a FFF7FEFF 		bl	lv_label_set_text
 5991              	.LVL833:
1046:generated/setup_scr_wave_model.c **** 	lv_label_set_long_mode(ui->wave_model_msg, LV_LABEL_LONG_WRAP);
 5992              		.loc 1 1046 2 view .LVU1384
 5993 236e 2946     		mov	r1, r5
 5994 2370 D4F8E400 		ldr	r0, [r4, #228]
 5995 2374 FFF7FEFF 		bl	lv_label_set_long_mode
 5996              	.LVL834:
1047:generated/setup_scr_wave_model.c **** 	lv_obj_set_pos(ui->wave_model_msg, 127, 363);
 5997              		.loc 1 1047 2 view .LVU1385
 5998 2378 40F26B12 		movw	r2, #363
 5999 237c 7F21     		movs	r1, #127
ARM GAS  C:\usertemp\cctMo5e7.s 			page 143


 6000 237e D4F8E400 		ldr	r0, [r4, #228]
 6001 2382 FFF7FEFF 		bl	lv_obj_set_pos
 6002              	.LVL835:
1048:generated/setup_scr_wave_model.c **** 	lv_obj_set_size(ui->wave_model_msg, 388, 30);
 6003              		.loc 1 1048 2 view .LVU1386
 6004 2386 1E22     		movs	r2, #30
 6005 2388 4FF4C271 		mov	r1, #388
 6006 238c D4F8E400 		ldr	r0, [r4, #228]
 6007 2390 FFF7FEFF 		bl	lv_obj_set_size
 6008              	.LVL836:
1049:generated/setup_scr_wave_model.c **** 	lv_obj_add_flag(ui->wave_model_msg, LV_OBJ_FLAG_HIDDEN);
 6009              		.loc 1 1049 2 view .LVU1387
 6010 2394 0121     		movs	r1, #1
 6011 2396 D4F8E400 		ldr	r0, [r4, #228]
 6012 239a FFF7FEFF 		bl	lv_obj_add_flag
 6013              	.LVL837:
1050:generated/setup_scr_wave_model.c **** 
1051:generated/setup_scr_wave_model.c **** 	// Write style for wave_model_msg, Part: LV_PART_MAIN, State: LV_STATE_DEFAULT.
1052:generated/setup_scr_wave_model.c **** 	lv_obj_set_style_border_width(ui->wave_model_msg, 0, LV_PART_MAIN | LV_STATE_DEFAULT);
 6014              		.loc 1 1052 2 view .LVU1388
 6015 239e 2A46     		mov	r2, r5
 6016 23a0 2946     		mov	r1, r5
 6017 23a2 D4F8E400 		ldr	r0, [r4, #228]
 6018 23a6 FFF7FEFF 		bl	lv_obj_set_style_border_width
 6019              	.LVL838:
1053:generated/setup_scr_wave_model.c **** 	lv_obj_set_style_radius(ui->wave_model_msg, 0, LV_PART_MAIN | LV_STATE_DEFAULT);
 6020              		.loc 1 1053 2 view .LVU1389
 6021 23aa 2A46     		mov	r2, r5
 6022 23ac 2946     		mov	r1, r5
 6023 23ae D4F8E400 		ldr	r0, [r4, #228]
 6024 23b2 FFF7FEFF 		bl	lv_obj_set_style_radius
 6025              	.LVL839:
1054:generated/setup_scr_wave_model.c **** 	lv_obj_set_style_text_color(ui->wave_model_msg, lv_color_hex(0x000000), LV_PART_MAIN | LV_STATE_DE
 6026              		.loc 1 1054 2 view .LVU1390
 6027              	.LBB292:
 6028              	.LBI292:
 597:lvgl/src/hal/../draw/../misc/lv_color.h **** {
 6029              		.loc 3 597 26 view .LVU1391
 6030              	.LBB293:
 600:lvgl/src/hal/../draw/../misc/lv_color.h **** #if LV_COLOR_16_SWAP == 0
 6031              		.loc 3 600 5 view .LVU1392
 616:lvgl/src/hal/../draw/../misc/lv_color.h **** #else
 6032              		.loc 3 616 5 view .LVU1393
 6033              		.loc 3 621 5 view .LVU1394
 6034              		.loc 3 621 5 is_stmt 0 view .LVU1395
 6035              	.LBE293:
 6036              	.LBE292:
 6037              		.loc 1 1054 2 discriminator 1 view .LVU1396
 6038 23b6 2A46     		mov	r2, r5
 6039 23b8 2946     		mov	r1, r5	@ movhi
 6040 23ba D4F8E400 		ldr	r0, [r4, #228]
 6041 23be FFF7FEFF 		bl	lv_obj_set_style_text_color
 6042              	.LVL840:
1055:generated/setup_scr_wave_model.c **** 	lv_obj_set_style_text_font(ui->wave_model_msg, &lv_font_arial_16, LV_PART_MAIN | LV_STATE_DEFAULT)
 6043              		.loc 1 1055 2 is_stmt 1 view .LVU1397
 6044 23c2 2A46     		mov	r2, r5
 6045 23c4 3146     		mov	r1, r6
ARM GAS  C:\usertemp\cctMo5e7.s 			page 144


 6046 23c6 D4F8E400 		ldr	r0, [r4, #228]
 6047 23ca FFF7FEFF 		bl	lv_obj_set_style_text_font
 6048              	.LVL841:
1056:generated/setup_scr_wave_model.c **** 	lv_obj_set_style_text_letter_space(ui->wave_model_msg, 2, LV_PART_MAIN | LV_STATE_DEFAULT);
 6049              		.loc 1 1056 2 view .LVU1398
 6050 23ce 2A46     		mov	r2, r5
 6051 23d0 0221     		movs	r1, #2
 6052 23d2 D4F8E400 		ldr	r0, [r4, #228]
 6053 23d6 FFF7FEFF 		bl	lv_obj_set_style_text_letter_space
 6054              	.LVL842:
1057:generated/setup_scr_wave_model.c **** 	lv_obj_set_style_text_line_space(ui->wave_model_msg, 0, LV_PART_MAIN | LV_STATE_DEFAULT);
 6055              		.loc 1 1057 2 view .LVU1399
 6056 23da 2A46     		mov	r2, r5
 6057 23dc 2946     		mov	r1, r5
 6058 23de D4F8E400 		ldr	r0, [r4, #228]
 6059 23e2 FFF7FEFF 		bl	lv_obj_set_style_text_line_space
 6060              	.LVL843:
1058:generated/setup_scr_wave_model.c **** 	lv_obj_set_style_text_align(ui->wave_model_msg, LV_TEXT_ALIGN_CENTER, LV_PART_MAIN | LV_STATE_DEFA
 6061              		.loc 1 1058 2 view .LVU1400
 6062 23e6 2A46     		mov	r2, r5
 6063 23e8 0221     		movs	r1, #2
 6064 23ea D4F8E400 		ldr	r0, [r4, #228]
 6065 23ee FFF7FEFF 		bl	lv_obj_set_style_text_align
 6066              	.LVL844:
1059:generated/setup_scr_wave_model.c **** 	lv_obj_set_style_bg_opa(ui->wave_model_msg, 255, LV_PART_MAIN | LV_STATE_DEFAULT);
 6067              		.loc 1 1059 2 view .LVU1401
 6068 23f2 2A46     		mov	r2, r5
 6069 23f4 FF21     		movs	r1, #255
 6070 23f6 D4F8E400 		ldr	r0, [r4, #228]
 6071 23fa FFF7FEFF 		bl	lv_obj_set_style_bg_opa
 6072              	.LVL845:
1060:generated/setup_scr_wave_model.c **** 	lv_obj_set_style_bg_color(ui->wave_model_msg, lv_color_hex(0xffffff), LV_PART_MAIN | LV_STATE_DEFA
 6073              		.loc 1 1060 2 view .LVU1402
 6074              	.LBB294:
 6075              	.LBI294:
 597:lvgl/src/hal/../draw/../misc/lv_color.h **** {
 6076              		.loc 3 597 26 view .LVU1403
 6077              	.LBB295:
 600:lvgl/src/hal/../draw/../misc/lv_color.h **** #if LV_COLOR_16_SWAP == 0
 6078              		.loc 3 600 5 view .LVU1404
 616:lvgl/src/hal/../draw/../misc/lv_color.h **** #else
 6079              		.loc 3 616 5 view .LVU1405
 6080              		.loc 3 621 5 view .LVU1406
 6081              		.loc 3 621 5 is_stmt 0 view .LVU1407
 6082              	.LBE295:
 6083              	.LBE294:
 6084              		.loc 1 1060 2 discriminator 1 view .LVU1408
 6085 23fe 2A46     		mov	r2, r5
 6086 2400 4FF0FF31 		mov	r1, #-1	@ movhi
 6087 2404 D4F8E400 		ldr	r0, [r4, #228]
 6088 2408 FFF7FEFF 		bl	lv_obj_set_style_bg_color
 6089              	.LVL846:
1061:generated/setup_scr_wave_model.c **** 	lv_obj_set_style_pad_top(ui->wave_model_msg, 6, LV_PART_MAIN | LV_STATE_DEFAULT);
 6090              		.loc 1 1061 2 is_stmt 1 view .LVU1409
 6091 240c 2A46     		mov	r2, r5
 6092 240e 0621     		movs	r1, #6
 6093 2410 D4F8E400 		ldr	r0, [r4, #228]
ARM GAS  C:\usertemp\cctMo5e7.s 			page 145


 6094 2414 FFF7FEFF 		bl	lv_obj_set_style_pad_top
 6095              	.LVL847:
1062:generated/setup_scr_wave_model.c **** 	lv_obj_set_style_pad_right(ui->wave_model_msg, 0, LV_PART_MAIN | LV_STATE_DEFAULT);
 6096              		.loc 1 1062 2 view .LVU1410
 6097 2418 2A46     		mov	r2, r5
 6098 241a 2946     		mov	r1, r5
 6099 241c D4F8E400 		ldr	r0, [r4, #228]
 6100 2420 FFF7FEFF 		bl	lv_obj_set_style_pad_right
 6101              	.LVL848:
1063:generated/setup_scr_wave_model.c **** 	lv_obj_set_style_pad_bottom(ui->wave_model_msg, 0, LV_PART_MAIN | LV_STATE_DEFAULT);
 6102              		.loc 1 1063 2 view .LVU1411
 6103 2424 2A46     		mov	r2, r5
 6104 2426 2946     		mov	r1, r5
 6105 2428 D4F8E400 		ldr	r0, [r4, #228]
 6106 242c FFF7FEFF 		bl	lv_obj_set_style_pad_bottom
 6107              	.LVL849:
1064:generated/setup_scr_wave_model.c **** 	lv_obj_set_style_pad_left(ui->wave_model_msg, 0, LV_PART_MAIN | LV_STATE_DEFAULT);
 6108              		.loc 1 1064 2 view .LVU1412
 6109 2430 2A46     		mov	r2, r5
 6110 2432 2946     		mov	r1, r5
 6111 2434 D4F8E400 		ldr	r0, [r4, #228]
 6112 2438 FFF7FEFF 		bl	lv_obj_set_style_pad_left
 6113              	.LVL850:
1065:generated/setup_scr_wave_model.c **** 	lv_obj_set_style_shadow_width(ui->wave_model_msg, 2, LV_PART_MAIN | LV_STATE_DEFAULT);
 6114              		.loc 1 1065 2 view .LVU1413
 6115 243c 2A46     		mov	r2, r5
 6116 243e 0221     		movs	r1, #2
 6117 2440 D4F8E400 		ldr	r0, [r4, #228]
 6118 2444 FFF7FEFF 		bl	lv_obj_set_style_shadow_width
 6119              	.LVL851:
1066:generated/setup_scr_wave_model.c **** 	lv_obj_set_style_shadow_color(ui->wave_model_msg, lv_color_hex(0xff005e), LV_PART_MAIN | LV_STATE_
 6120              		.loc 1 1066 2 view .LVU1414
 6121              	.LBB296:
 6122              	.LBI296:
 597:lvgl/src/hal/../draw/../misc/lv_color.h **** {
 6123              		.loc 3 597 26 view .LVU1415
 6124              	.LBB297:
 600:lvgl/src/hal/../draw/../misc/lv_color.h **** #if LV_COLOR_16_SWAP == 0
 6125              		.loc 3 600 5 view .LVU1416
 616:lvgl/src/hal/../draw/../misc/lv_color.h **** #else
 6126              		.loc 3 616 5 view .LVU1417
 6127              		.loc 3 621 5 view .LVU1418
 6128              		.loc 3 621 5 is_stmt 0 view .LVU1419
 6129              	.LBE297:
 6130              	.LBE296:
 6131              		.loc 1 1066 2 discriminator 1 view .LVU1420
 6132 2448 2A46     		mov	r2, r5
 6133 244a 4FF60B01 		movw	r1, 63499	@ movhi
 6134 244e D4F8E400 		ldr	r0, [r4, #228]
 6135 2452 FFF7FEFF 		bl	lv_obj_set_style_shadow_color
 6136              	.LVL852:
1067:generated/setup_scr_wave_model.c **** 	lv_obj_set_style_shadow_opa(ui->wave_model_msg, 255, LV_PART_MAIN | LV_STATE_DEFAULT);
 6137              		.loc 1 1067 2 is_stmt 1 view .LVU1421
 6138 2456 2A46     		mov	r2, r5
 6139 2458 FF21     		movs	r1, #255
 6140 245a D4F8E400 		ldr	r0, [r4, #228]
 6141 245e FFF7FEFF 		bl	lv_obj_set_style_shadow_opa
ARM GAS  C:\usertemp\cctMo5e7.s 			page 146


 6142              	.LVL853:
1068:generated/setup_scr_wave_model.c **** 	lv_obj_set_style_shadow_spread(ui->wave_model_msg, 2, LV_PART_MAIN | LV_STATE_DEFAULT);
 6143              		.loc 1 1068 2 view .LVU1422
 6144 2462 2A46     		mov	r2, r5
 6145 2464 0221     		movs	r1, #2
 6146 2466 D4F8E400 		ldr	r0, [r4, #228]
 6147 246a FFF7FEFF 		bl	lv_obj_set_style_shadow_spread
 6148              	.LVL854:
1069:generated/setup_scr_wave_model.c **** 	lv_obj_set_style_shadow_ofs_x(ui->wave_model_msg, 0, LV_PART_MAIN | LV_STATE_DEFAULT);
 6149              		.loc 1 1069 2 view .LVU1423
 6150 246e 2A46     		mov	r2, r5
 6151 2470 2946     		mov	r1, r5
 6152 2472 D4F8E400 		ldr	r0, [r4, #228]
 6153 2476 FFF7FEFF 		bl	lv_obj_set_style_shadow_ofs_x
 6154              	.LVL855:
1070:generated/setup_scr_wave_model.c **** 	lv_obj_set_style_shadow_ofs_y(ui->wave_model_msg, 0, LV_PART_MAIN | LV_STATE_DEFAULT);
 6155              		.loc 1 1070 2 view .LVU1424
 6156 247a 2A46     		mov	r2, r5
 6157 247c 2946     		mov	r1, r5
 6158 247e D4F8E400 		ldr	r0, [r4, #228]
 6159 2482 FFF7FEFF 		bl	lv_obj_set_style_shadow_ofs_y
 6160              	.LVL856:
1071:generated/setup_scr_wave_model.c **** 
1072:generated/setup_scr_wave_model.c **** 	// Update current screen layout.
1073:generated/setup_scr_wave_model.c **** 	lv_obj_update_layout(ui->wave_model);
 6161              		.loc 1 1073 2 view .LVU1425
 6162 2486 2068     		ldr	r0, [r4]
 6163 2488 FFF7FEFF 		bl	lv_obj_update_layout
 6164              	.LVL857:
1074:generated/setup_scr_wave_model.c **** 
1075:generated/setup_scr_wave_model.c **** 	// Init events for screen.
1076:generated/setup_scr_wave_model.c **** 	events_init_wave_model(ui);
 6165              		.loc 1 1076 2 view .LVU1426
 6166 248c 2046     		mov	r0, r4
 6167 248e FFF7FEFF 		bl	events_init_wave_model
 6168              	.LVL858:
1077:generated/setup_scr_wave_model.c **** }
 6169              		.loc 1 1077 1 is_stmt 0 view .LVU1427
 6170 2492 BDE8F081 		pop	{r4, r5, r6, r7, r8, pc}
 6171              	.LVL859:
 6172              	.L6:
 778:generated/setup_scr_wave_model.c **** 		wave_model_digital_clock_1_timer_enabled = true;
 6173              		.loc 1 778 3 is_stmt 1 view .LVU1428
 6174 2496 2A46     		mov	r2, r5
 6175 2498 4FF47A71 		mov	r1, #1000
 6176 249c 0548     		ldr	r0, .L31+8
 6177 249e FFF7FEFF 		bl	lv_timer_create
 6178              	.LVL860:
 779:generated/setup_scr_wave_model.c **** 	}
 6179              		.loc 1 779 3 view .LVU1429
 779:generated/setup_scr_wave_model.c **** 	}
 6180              		.loc 1 779 44 is_stmt 0 view .LVU1430
 6181 24a2 054B     		ldr	r3, .L31+12
 6182 24a4 0122     		movs	r2, #1
 6183 24a6 1A70     		strb	r2, [r3]
 6184 24a8 FFF756BA 		b	.L4
 6185              	.L32:
ARM GAS  C:\usertemp\cctMo5e7.s 			page 147


 6186              		.align	2
 6187              	.L31:
 6188 24ac A0000000 		.word	.LC33
 6189 24b0 24000000 		.word	.LC8
 6190 24b4 00000000 		.word	wave_model_digital_clock_1_timer
 6191 24b8 00000000 		.word	wave_model_digital_clock_1_timer_enabled.0
 6192              		.cfi_endproc
 6193              	.LFE529:
 6195              		.section	.bss.wave_model_digital_clock_1_timer_enabled.0,"aw",%nobits
 6198              	wave_model_digital_clock_1_timer_enabled.0:
 6199 0000 00       		.space	1
 6200              		.global	wave_model_digital_clock_1_meridiem
 6201              		.section	.bss.wave_model_digital_clock_1_meridiem,"aw",%nobits
 6202              		.align	2
 6205              	wave_model_digital_clock_1_meridiem:
 6206 0000 00       		.space	1
 6207              		.global	wave_model_digital_clock_1_sec_value
 6208              		.section	.bss.wave_model_digital_clock_1_sec_value,"aw",%nobits
 6209              		.align	2
 6212              	wave_model_digital_clock_1_sec_value:
 6213 0000 00000000 		.space	4
 6214              		.global	wave_model_digital_clock_1_hour_value
 6215              		.section	.bss.wave_model_digital_clock_1_hour_value,"aw",%nobits
 6216              		.align	2
 6219              	wave_model_digital_clock_1_hour_value:
 6220 0000 00000000 		.space	4
 6221              		.global	wave_model_digital_clock_1_min_value
 6222              		.section	.bss.wave_model_digital_clock_1_min_value,"aw",%nobits
 6223              		.align	2
 6226              	wave_model_digital_clock_1_min_value:
 6227 0000 00000000 		.space	4
 6228              		.text
 6229              	.Letext0:
 6230              		.file 4 "D:/armtoolchain/arm-gnu-toolchain-13.3.rel1-mingw-w64-i686-arm-none-eabi/arm-none-eabi/in
 6231              		.file 5 "D:/armtoolchain/arm-gnu-toolchain-13.3.rel1-mingw-w64-i686-arm-none-eabi/arm-none-eabi/in
 6232              		.file 6 "lvgl/src/misc/lv_timer.h"
 6233              		.file 7 "lvgl/src/hal/../draw/../misc/../font/../misc/lv_area.h"
 6234              		.file 8 "lvgl/src/hal/../draw/../misc/../font/lv_font.h"
 6235              		.file 9 "lvgl/src/hal/../draw/../misc/lv_txt.h"
 6236              		.file 10 "lvgl/src/hal/../draw/../misc/lv_style.h"
 6237              		.file 11 "lvgl/src/hal/../draw/lv_img_buf.h"
 6238              		.file 12 "lvgl/src/core/lv_obj.h"
 6239              		.file 13 "lvgl/src/hal/../misc/lv_ll.h"
 6240              		.file 14 "lvgl/src/core/lv_group.h"
 6241              		.file 15 "lvgl/src/core/lv_obj_scroll.h"
 6242              		.file 16 "lvgl/src/core/lv_obj_class.h"
 6243              		.file 17 "lvgl/src/core/lv_event.h"
 6244              		.file 18 "lvgl/src/widgets/lv_arc.h"
 6245              		.file 19 "lvgl/src/widgets/lv_label.h"
 6246              		.file 20 "lvgl/src/widgets/lv_bar.h"
 6247              		.file 21 "lvgl/src/extra/widgets/chart/lv_chart.h"
 6248              		.file 22 "lvgl/src/extra/widgets/imgbtn/lv_imgbtn.h"
 6249              		.file 23 "generated/gui_guider.h"
 6250              		.file 24 "generated/events_init.h"
 6251              		.file 25 "lvgl/src/hal/../draw/sw/../../core/lv_obj_pos.h"
 6252              		.file 26 "lvgl/src/core/lv_obj_style_gen.h"
 6253              		.file 27 "lvgl/src/widgets/lv_img.h"
ARM GAS  C:\usertemp\cctMo5e7.s 			page 148


 6254              		.file 28 "generated/widgets_init.h"
 6255              		.file 29 "lvgl/src/extra/widgets/dclock/lv_dclock.h"
 6256              		.file 30 "lvgl/src/widgets/lv_table.h"
 6257              		.file 31 "lvgl/src/widgets/lv_btn.h"
ARM GAS  C:\usertemp\cctMo5e7.s 			page 149


DEFINED SYMBOLS
                            *ABS*:00000000 setup_scr_wave_model.c
C:\usertemp\cctMo5e7.s:20     .text.lv_obj_set_style_pad_all:00000000 $t
C:\usertemp\cctMo5e7.s:25     .text.lv_obj_set_style_pad_all:00000000 lv_obj_set_style_pad_all
C:\usertemp\cctMo5e7.s:72     .rodata.setup_scr_wave_model.str1.4:00000000 $d
C:\usertemp\cctMo5e7.s:175    .text.setup_scr_wave_model:00000000 $t
C:\usertemp\cctMo5e7.s:181    .text.setup_scr_wave_model:00000000 setup_scr_wave_model
C:\usertemp\cctMo5e7.s:878    .text.setup_scr_wave_model:0000039c $d
C:\usertemp\cctMo5e7.s:887    .text.setup_scr_wave_model:000003bc $t
C:\usertemp\cctMo5e7.s:1545   .text.setup_scr_wave_model:0000076c $d
C:\usertemp\cctMo5e7.s:1550   .text.setup_scr_wave_model:00000778 $t
C:\usertemp\cctMo5e7.s:2608   .text.setup_scr_wave_model:00000d9c $d
C:\usertemp\cctMo5e7.s:2616   .text.setup_scr_wave_model:00000db4 $t
C:\usertemp\cctMo5e7.s:3321   .text.setup_scr_wave_model:000011ec $d
C:\usertemp\cctMo5e7.s:3324   .text.setup_scr_wave_model:000011f4 $t
C:\usertemp\cctMo5e7.s:3934   .text.setup_scr_wave_model:00001604 $d
C:\usertemp\cctMo5e7.s:3944   .text.setup_scr_wave_model:00001628 $t
C:\usertemp\cctMo5e7.s:4516   .text.setup_scr_wave_model:00001a0c $d
C:\usertemp\cctMo5e7.s:6198   .bss.wave_model_digital_clock_1_timer_enabled.0:00000000 wave_model_digital_clock_1_timer_enabled.0
C:\usertemp\cctMo5e7.s:4528   .text.setup_scr_wave_model:00001a30 $t
C:\usertemp\cctMo5e7.s:5164   .text.setup_scr_wave_model:00001e24 $d
C:\usertemp\cctMo5e7.s:5171   .text.setup_scr_wave_model:00001e3c $t
C:\usertemp\cctMo5e7.s:5776   .text.setup_scr_wave_model:00002204 $d
C:\usertemp\cctMo5e7.s:5787   .text.setup_scr_wave_model:0000222c $t
C:\usertemp\cctMo5e7.s:6188   .text.setup_scr_wave_model:000024ac $d
C:\usertemp\cctMo5e7.s:6199   .bss.wave_model_digital_clock_1_timer_enabled.0:00000000 $d
C:\usertemp\cctMo5e7.s:6205   .bss.wave_model_digital_clock_1_meridiem:00000000 wave_model_digital_clock_1_meridiem
C:\usertemp\cctMo5e7.s:6202   .bss.wave_model_digital_clock_1_meridiem:00000000 $d
C:\usertemp\cctMo5e7.s:6212   .bss.wave_model_digital_clock_1_sec_value:00000000 wave_model_digital_clock_1_sec_value
C:\usertemp\cctMo5e7.s:6209   .bss.wave_model_digital_clock_1_sec_value:00000000 $d
C:\usertemp\cctMo5e7.s:6219   .bss.wave_model_digital_clock_1_hour_value:00000000 wave_model_digital_clock_1_hour_value
C:\usertemp\cctMo5e7.s:6216   .bss.wave_model_digital_clock_1_hour_value:00000000 $d
C:\usertemp\cctMo5e7.s:6226   .bss.wave_model_digital_clock_1_min_value:00000000 wave_model_digital_clock_1_min_value
C:\usertemp\cctMo5e7.s:6223   .bss.wave_model_digital_clock_1_min_value:00000000 $d

UNDEFINED SYMBOLS
lv_obj_set_style_pad_left
lv_obj_set_style_pad_right
lv_obj_set_style_pad_top
lv_obj_set_style_pad_bottom
lv_obj_create
lv_obj_set_size
lv_obj_set_style_bg_opa
lv_obj_set_style_bg_color
lv_btn_create
lv_label_create
lv_label_set_text
lv_label_set_long_mode
lv_obj_align
lv_obj_set_pos
lv_obj_set_style_border_width
lv_obj_set_style_radius
lv_obj_set_style_shadow_width
lv_obj_set_style_text_color
lv_obj_set_style_text_font
lv_obj_set_style_text_align
lv_font_simsun_16
ARM GAS  C:\usertemp\cctMo5e7.s 			page 150


lv_font_arial_16
lv_obj_set_style_text_letter_space
lv_obj_set_style_text_line_space
lv_arc_create
lv_arc_set_mode
lv_arc_set_range
lv_arc_set_bg_angles
lv_arc_set_angles
lv_arc_set_rotation
lv_obj_set_style_arc_rounded
lv_obj_set_style_arc_width
lv_obj_set_style_arc_opa
lv_obj_set_style_arc_color
lv_font_arial_32
lv_font_arial_30
lv_chart_create
lv_chart_set_type
lv_chart_set_div_line_count
lv_chart_set_point_count
lv_chart_set_range
lv_chart_set_zoom_x
lv_chart_set_zoom_y
lv_obj_set_scrollbar_mode
lv_obj_add_flag
lv_obj_set_style_border_opa
lv_obj_set_style_border_color
lv_obj_set_style_border_side
lv_obj_set_style_line_width
lv_obj_set_style_line_color
lv_obj_set_style_line_opa
lv_table_create
lv_table_set_col_cnt
lv_table_set_row_cnt
lv_table_set_cell_value
lv_font_montserratMedium_12
lv_dclock_create
lv_img_create
lv_img_set_src
lv_img_set_pivot
lv_img_set_angle
lv_obj_set_style_img_opa
_f7b64978f5bff1ff9d8a4bf8f3d4d9d6_alpha_520x340
lv_obj_set_width
lv_obj_set_height
guider_ui
lv_obj_set_style_shadow_color
lv_obj_set_style_shadow_opa
lv_obj_set_style_shadow_spread
lv_obj_set_style_shadow_ofs_x
lv_obj_set_style_shadow_ofs_y
lv_obj_update_layout
events_init_wave_model
lv_timer_create
wave_model_digital_clock_1_timer
