ARM GAS  C:\Users\zdy\AppData\Local\Temp\cca8fajE.s 			page 1


   1              		.cpu cortex-m7
   2              		.arch armv7e-m
   3              		.fpu fpv5-d16
   4              		.eabi_attribute 28, 1
   5              		.eabi_attribute 20, 1
   6              		.eabi_attribute 21, 1
   7              		.eabi_attribute 23, 3
   8              		.eabi_attribute 24, 1
   9              		.eabi_attribute 25, 1
  10              		.eabi_attribute 26, 1
  11              		.eabi_attribute 30, 1
  12              		.eabi_attribute 34, 1
  13              		.eabi_attribute 18, 4
  14              		.file	"stm32h7xx_hal_rtc_ex.c"
  15              		.text
  16              	.Ltext0:
  17              		.cfi_sections	.debug_frame
  18              		.section	.text.HAL_RTCEx_SetTimeStamp,"ax",%progbits
  19              		.align	1
  20              		.global	HAL_RTCEx_SetTimeStamp
  21              		.syntax unified
  22              		.thumb
  23              		.thumb_func
  25              	HAL_RTCEx_SetTimeStamp:
  26              	.LVL0:
  27              	.LFB333:
  28              		.file 1 "Drivers/STM32H7xx_HAL_Driver/Src/stm32h7xx_hal_rtc_ex.c"
   1:Drivers/STM32H7xx_HAL_Driver/Src/stm32h7xx_hal_rtc_ex.c **** /**
   2:Drivers/STM32H7xx_HAL_Driver/Src/stm32h7xx_hal_rtc_ex.c ****   ******************************************************************************
   3:Drivers/STM32H7xx_HAL_Driver/Src/stm32h7xx_hal_rtc_ex.c ****   * @file    stm32h7xx_hal_rtc_ex.c
   4:Drivers/STM32H7xx_HAL_Driver/Src/stm32h7xx_hal_rtc_ex.c ****   * @author  MCD Application Team
   5:Drivers/STM32H7xx_HAL_Driver/Src/stm32h7xx_hal_rtc_ex.c ****   * @brief   Extended RTC HAL module driver.
   6:Drivers/STM32H7xx_HAL_Driver/Src/stm32h7xx_hal_rtc_ex.c ****   *          This file provides firmware functions to manage the following
   7:Drivers/STM32H7xx_HAL_Driver/Src/stm32h7xx_hal_rtc_ex.c ****   *          functionalities of the Real Time Clock (RTC) Extended peripheral:
   8:Drivers/STM32H7xx_HAL_Driver/Src/stm32h7xx_hal_rtc_ex.c ****   *           + RTC Time Stamp functions
   9:Drivers/STM32H7xx_HAL_Driver/Src/stm32h7xx_hal_rtc_ex.c ****   *           + RTC Tamper functions
  10:Drivers/STM32H7xx_HAL_Driver/Src/stm32h7xx_hal_rtc_ex.c ****   *           + RTC Wake-up functions
  11:Drivers/STM32H7xx_HAL_Driver/Src/stm32h7xx_hal_rtc_ex.c ****   *           + Extended Control functions
  12:Drivers/STM32H7xx_HAL_Driver/Src/stm32h7xx_hal_rtc_ex.c ****   *           + Extended RTC features functions
  13:Drivers/STM32H7xx_HAL_Driver/Src/stm32h7xx_hal_rtc_ex.c ****   *
  14:Drivers/STM32H7xx_HAL_Driver/Src/stm32h7xx_hal_rtc_ex.c ****   ******************************************************************************
  15:Drivers/STM32H7xx_HAL_Driver/Src/stm32h7xx_hal_rtc_ex.c ****   * @attention
  16:Drivers/STM32H7xx_HAL_Driver/Src/stm32h7xx_hal_rtc_ex.c ****   *
  17:Drivers/STM32H7xx_HAL_Driver/Src/stm32h7xx_hal_rtc_ex.c ****   * Copyright (c) 2017 STMicroelectronics.
  18:Drivers/STM32H7xx_HAL_Driver/Src/stm32h7xx_hal_rtc_ex.c ****   * All rights reserved.
  19:Drivers/STM32H7xx_HAL_Driver/Src/stm32h7xx_hal_rtc_ex.c ****   *
  20:Drivers/STM32H7xx_HAL_Driver/Src/stm32h7xx_hal_rtc_ex.c ****   * This software is licensed under terms that can be found in the LICENSE file
  21:Drivers/STM32H7xx_HAL_Driver/Src/stm32h7xx_hal_rtc_ex.c ****   * in the root directory of this software component.
  22:Drivers/STM32H7xx_HAL_Driver/Src/stm32h7xx_hal_rtc_ex.c ****   * If no LICENSE file comes with this software, it is provided AS-IS.
  23:Drivers/STM32H7xx_HAL_Driver/Src/stm32h7xx_hal_rtc_ex.c ****   *
  24:Drivers/STM32H7xx_HAL_Driver/Src/stm32h7xx_hal_rtc_ex.c ****   ******************************************************************************
  25:Drivers/STM32H7xx_HAL_Driver/Src/stm32h7xx_hal_rtc_ex.c ****   @verbatim
  26:Drivers/STM32H7xx_HAL_Driver/Src/stm32h7xx_hal_rtc_ex.c ****   ==============================================================================
  27:Drivers/STM32H7xx_HAL_Driver/Src/stm32h7xx_hal_rtc_ex.c ****                   ##### How to use this driver #####
  28:Drivers/STM32H7xx_HAL_Driver/Src/stm32h7xx_hal_rtc_ex.c ****   ==============================================================================
  29:Drivers/STM32H7xx_HAL_Driver/Src/stm32h7xx_hal_rtc_ex.c ****   [..]
  30:Drivers/STM32H7xx_HAL_Driver/Src/stm32h7xx_hal_rtc_ex.c ****     (+) Enable the RTC domain access.
ARM GAS  C:\Users\zdy\AppData\Local\Temp\cca8fajE.s 			page 2


  31:Drivers/STM32H7xx_HAL_Driver/Src/stm32h7xx_hal_rtc_ex.c ****     (+) Configure the RTC Prescaler (Asynchronous and Synchronous) and RTC hour
  32:Drivers/STM32H7xx_HAL_Driver/Src/stm32h7xx_hal_rtc_ex.c ****         format using the HAL_RTC_Init() function.
  33:Drivers/STM32H7xx_HAL_Driver/Src/stm32h7xx_hal_rtc_ex.c **** 
  34:Drivers/STM32H7xx_HAL_Driver/Src/stm32h7xx_hal_rtc_ex.c ****   *** RTC Wakeup configuration ***
  35:Drivers/STM32H7xx_HAL_Driver/Src/stm32h7xx_hal_rtc_ex.c ****   ================================
  36:Drivers/STM32H7xx_HAL_Driver/Src/stm32h7xx_hal_rtc_ex.c ****   [..]
  37:Drivers/STM32H7xx_HAL_Driver/Src/stm32h7xx_hal_rtc_ex.c ****     (+) To configure the RTC Wakeup Clock source and Counter use the HAL_RTCEx_SetWakeUpTimer()
  38:Drivers/STM32H7xx_HAL_Driver/Src/stm32h7xx_hal_rtc_ex.c ****         function. You can also configure the RTC Wakeup timer with interrupt mode
  39:Drivers/STM32H7xx_HAL_Driver/Src/stm32h7xx_hal_rtc_ex.c ****         using the HAL_RTCEx_SetWakeUpTimer_IT() function.
  40:Drivers/STM32H7xx_HAL_Driver/Src/stm32h7xx_hal_rtc_ex.c ****     (+) To read the RTC WakeUp Counter register, use the HAL_RTCEx_GetWakeUpTimer()
  41:Drivers/STM32H7xx_HAL_Driver/Src/stm32h7xx_hal_rtc_ex.c ****         function.
  42:Drivers/STM32H7xx_HAL_Driver/Src/stm32h7xx_hal_rtc_ex.c **** 
  43:Drivers/STM32H7xx_HAL_Driver/Src/stm32h7xx_hal_rtc_ex.c ****   *** Outputs configuration ***
  44:Drivers/STM32H7xx_HAL_Driver/Src/stm32h7xx_hal_rtc_ex.c ****   =============================
  45:Drivers/STM32H7xx_HAL_Driver/Src/stm32h7xx_hal_rtc_ex.c ****   [..]  The RTC has 2 different outputs:
  46:Drivers/STM32H7xx_HAL_Driver/Src/stm32h7xx_hal_rtc_ex.c ****     (+) RTC_ALARM: this output is used to manage the RTC Alarm A, Alarm B
  47:Drivers/STM32H7xx_HAL_Driver/Src/stm32h7xx_hal_rtc_ex.c ****         and WaKeUp signals.
  48:Drivers/STM32H7xx_HAL_Driver/Src/stm32h7xx_hal_rtc_ex.c ****         To output the selected RTC signal, use the HAL_RTC_Init() function.
  49:Drivers/STM32H7xx_HAL_Driver/Src/stm32h7xx_hal_rtc_ex.c ****     (+) RTC_CALIB: this output is 512Hz signal or 1Hz.
  50:Drivers/STM32H7xx_HAL_Driver/Src/stm32h7xx_hal_rtc_ex.c ****         To enable the RTC_CALIB, use the HAL_RTCEx_SetCalibrationOutPut() function.
  51:Drivers/STM32H7xx_HAL_Driver/Src/stm32h7xx_hal_rtc_ex.c ****     (+) Two pins can be used as RTC_ALARM or RTC_CALIB (PC13, PB2) managed on
  52:Drivers/STM32H7xx_HAL_Driver/Src/stm32h7xx_hal_rtc_ex.c ****         the RTC_OR register.
  53:Drivers/STM32H7xx_HAL_Driver/Src/stm32h7xx_hal_rtc_ex.c ****     (+) When the RTC_CALIB or RTC_ALARM output is selected, the RTC_OUT pin is
  54:Drivers/STM32H7xx_HAL_Driver/Src/stm32h7xx_hal_rtc_ex.c ****         automatically configured in output alternate function.
  55:Drivers/STM32H7xx_HAL_Driver/Src/stm32h7xx_hal_rtc_ex.c **** 
  56:Drivers/STM32H7xx_HAL_Driver/Src/stm32h7xx_hal_rtc_ex.c ****   *** Smooth digital Calibration configuration ***
  57:Drivers/STM32H7xx_HAL_Driver/Src/stm32h7xx_hal_rtc_ex.c ****   ================================================
  58:Drivers/STM32H7xx_HAL_Driver/Src/stm32h7xx_hal_rtc_ex.c ****   [..]
  59:Drivers/STM32H7xx_HAL_Driver/Src/stm32h7xx_hal_rtc_ex.c ****     (+) Configure the RTC Original Digital Calibration Value and the corresponding
  60:Drivers/STM32H7xx_HAL_Driver/Src/stm32h7xx_hal_rtc_ex.c ****         calibration cycle period (32s,16s and 8s) using the HAL_RTCEx_SetSmoothCalib()
  61:Drivers/STM32H7xx_HAL_Driver/Src/stm32h7xx_hal_rtc_ex.c ****         function.
  62:Drivers/STM32H7xx_HAL_Driver/Src/stm32h7xx_hal_rtc_ex.c **** 
  63:Drivers/STM32H7xx_HAL_Driver/Src/stm32h7xx_hal_rtc_ex.c ****   *** TimeStamp configuration ***
  64:Drivers/STM32H7xx_HAL_Driver/Src/stm32h7xx_hal_rtc_ex.c ****   ===============================
  65:Drivers/STM32H7xx_HAL_Driver/Src/stm32h7xx_hal_rtc_ex.c ****   [..]
  66:Drivers/STM32H7xx_HAL_Driver/Src/stm32h7xx_hal_rtc_ex.c ****     (+) Enable the RTC TimeStamp using the HAL_RTCEx_SetTimeStamp() function.
  67:Drivers/STM32H7xx_HAL_Driver/Src/stm32h7xx_hal_rtc_ex.c ****         You can also configure the RTC TimeStamp with interrupt mode using the
  68:Drivers/STM32H7xx_HAL_Driver/Src/stm32h7xx_hal_rtc_ex.c ****         HAL_RTCEx_SetTimeStamp_IT() function.
  69:Drivers/STM32H7xx_HAL_Driver/Src/stm32h7xx_hal_rtc_ex.c ****     (+) To read the RTC TimeStamp Time and Date register, use the HAL_RTCEx_GetTimeStamp()
  70:Drivers/STM32H7xx_HAL_Driver/Src/stm32h7xx_hal_rtc_ex.c ****         function.
  71:Drivers/STM32H7xx_HAL_Driver/Src/stm32h7xx_hal_rtc_ex.c **** 
  72:Drivers/STM32H7xx_HAL_Driver/Src/stm32h7xx_hal_rtc_ex.c ****   *** Internal TimeStamp configuration ***
  73:Drivers/STM32H7xx_HAL_Driver/Src/stm32h7xx_hal_rtc_ex.c ****   ===============================
  74:Drivers/STM32H7xx_HAL_Driver/Src/stm32h7xx_hal_rtc_ex.c ****   [..]
  75:Drivers/STM32H7xx_HAL_Driver/Src/stm32h7xx_hal_rtc_ex.c ****     (+) Enable the RTC internal TimeStamp using the HAL_RTCEx_SetInternalTimeStamp() function.
  76:Drivers/STM32H7xx_HAL_Driver/Src/stm32h7xx_hal_rtc_ex.c ****         User has to check internal timestamp occurrence using __HAL_RTC_INTERNAL_TIMESTAMP_GET_FLAG
  77:Drivers/STM32H7xx_HAL_Driver/Src/stm32h7xx_hal_rtc_ex.c ****     (+) To read the RTC TimeStamp Time and Date register, use the HAL_RTCEx_GetTimeStamp()
  78:Drivers/STM32H7xx_HAL_Driver/Src/stm32h7xx_hal_rtc_ex.c ****         function.
  79:Drivers/STM32H7xx_HAL_Driver/Src/stm32h7xx_hal_rtc_ex.c **** 
  80:Drivers/STM32H7xx_HAL_Driver/Src/stm32h7xx_hal_rtc_ex.c ****   *** Tamper configuration ***
  81:Drivers/STM32H7xx_HAL_Driver/Src/stm32h7xx_hal_rtc_ex.c ****   ============================
  82:Drivers/STM32H7xx_HAL_Driver/Src/stm32h7xx_hal_rtc_ex.c ****   [..]
  83:Drivers/STM32H7xx_HAL_Driver/Src/stm32h7xx_hal_rtc_ex.c ****     (+) Enable the RTC Tamper and configure the Tamper filter count, trigger Edge
  84:Drivers/STM32H7xx_HAL_Driver/Src/stm32h7xx_hal_rtc_ex.c ****         or Level according to the Tamper filter (if equal to 0 Edge else Level)
  85:Drivers/STM32H7xx_HAL_Driver/Src/stm32h7xx_hal_rtc_ex.c ****         value, sampling frequency, NoErase, MaskFlag,  precharge or discharge and
  86:Drivers/STM32H7xx_HAL_Driver/Src/stm32h7xx_hal_rtc_ex.c ****         Pull-UP using the HAL_RTCEx_SetTamper() function. You can configure RTC Tamper
  87:Drivers/STM32H7xx_HAL_Driver/Src/stm32h7xx_hal_rtc_ex.c ****         with interrupt mode using HAL_RTCEx_SetTamper_IT() function.
ARM GAS  C:\Users\zdy\AppData\Local\Temp\cca8fajE.s 			page 3


  88:Drivers/STM32H7xx_HAL_Driver/Src/stm32h7xx_hal_rtc_ex.c ****     (+) The default configuration of the Tamper erases the backup registers. To avoid
  89:Drivers/STM32H7xx_HAL_Driver/Src/stm32h7xx_hal_rtc_ex.c ****         erase, enable the NoErase field on the RTC_TAMPCR register.
  90:Drivers/STM32H7xx_HAL_Driver/Src/stm32h7xx_hal_rtc_ex.c **** 
  91:Drivers/STM32H7xx_HAL_Driver/Src/stm32h7xx_hal_rtc_ex.c ****   *** Backup Data Registers configuration ***
  92:Drivers/STM32H7xx_HAL_Driver/Src/stm32h7xx_hal_rtc_ex.c ****   ===========================================
  93:Drivers/STM32H7xx_HAL_Driver/Src/stm32h7xx_hal_rtc_ex.c ****   [..]
  94:Drivers/STM32H7xx_HAL_Driver/Src/stm32h7xx_hal_rtc_ex.c ****     (+) To write to the RTC Backup Data registers, use the HAL_RTCEx_BKUPWrite()
  95:Drivers/STM32H7xx_HAL_Driver/Src/stm32h7xx_hal_rtc_ex.c ****         function.
  96:Drivers/STM32H7xx_HAL_Driver/Src/stm32h7xx_hal_rtc_ex.c ****     (+) To read the RTC Backup Data registers, use the HAL_RTCEx_BKUPRead()
  97:Drivers/STM32H7xx_HAL_Driver/Src/stm32h7xx_hal_rtc_ex.c ****         function.
  98:Drivers/STM32H7xx_HAL_Driver/Src/stm32h7xx_hal_rtc_ex.c **** 
  99:Drivers/STM32H7xx_HAL_Driver/Src/stm32h7xx_hal_rtc_ex.c ****    @endverbatim
 100:Drivers/STM32H7xx_HAL_Driver/Src/stm32h7xx_hal_rtc_ex.c ****   */
 101:Drivers/STM32H7xx_HAL_Driver/Src/stm32h7xx_hal_rtc_ex.c **** 
 102:Drivers/STM32H7xx_HAL_Driver/Src/stm32h7xx_hal_rtc_ex.c **** /* Includes ------------------------------------------------------------------*/
 103:Drivers/STM32H7xx_HAL_Driver/Src/stm32h7xx_hal_rtc_ex.c **** #include "stm32h7xx_hal.h"
 104:Drivers/STM32H7xx_HAL_Driver/Src/stm32h7xx_hal_rtc_ex.c **** 
 105:Drivers/STM32H7xx_HAL_Driver/Src/stm32h7xx_hal_rtc_ex.c **** /** @addtogroup STM32H7xx_HAL_Driver
 106:Drivers/STM32H7xx_HAL_Driver/Src/stm32h7xx_hal_rtc_ex.c ****   * @{
 107:Drivers/STM32H7xx_HAL_Driver/Src/stm32h7xx_hal_rtc_ex.c ****   */
 108:Drivers/STM32H7xx_HAL_Driver/Src/stm32h7xx_hal_rtc_ex.c **** 
 109:Drivers/STM32H7xx_HAL_Driver/Src/stm32h7xx_hal_rtc_ex.c **** /** @addtogroup RTCEx
 110:Drivers/STM32H7xx_HAL_Driver/Src/stm32h7xx_hal_rtc_ex.c ****   * @brief RTC Extended HAL module driver
 111:Drivers/STM32H7xx_HAL_Driver/Src/stm32h7xx_hal_rtc_ex.c ****   * @{
 112:Drivers/STM32H7xx_HAL_Driver/Src/stm32h7xx_hal_rtc_ex.c ****   */
 113:Drivers/STM32H7xx_HAL_Driver/Src/stm32h7xx_hal_rtc_ex.c **** 
 114:Drivers/STM32H7xx_HAL_Driver/Src/stm32h7xx_hal_rtc_ex.c **** #ifdef HAL_RTC_MODULE_ENABLED
 115:Drivers/STM32H7xx_HAL_Driver/Src/stm32h7xx_hal_rtc_ex.c **** 
 116:Drivers/STM32H7xx_HAL_Driver/Src/stm32h7xx_hal_rtc_ex.c **** /* Private typedef -----------------------------------------------------------*/
 117:Drivers/STM32H7xx_HAL_Driver/Src/stm32h7xx_hal_rtc_ex.c **** /* Private define ------------------------------------------------------------*/
 118:Drivers/STM32H7xx_HAL_Driver/Src/stm32h7xx_hal_rtc_ex.c **** #define TAMP_ALL (TAMP_CR1_TAMP1E | TAMP_CR1_TAMP2E | TAMP_CR1_TAMP3E)
 119:Drivers/STM32H7xx_HAL_Driver/Src/stm32h7xx_hal_rtc_ex.c **** 
 120:Drivers/STM32H7xx_HAL_Driver/Src/stm32h7xx_hal_rtc_ex.c **** /* Private macro -------------------------------------------------------------*/
 121:Drivers/STM32H7xx_HAL_Driver/Src/stm32h7xx_hal_rtc_ex.c **** /* Private variables ---------------------------------------------------------*/
 122:Drivers/STM32H7xx_HAL_Driver/Src/stm32h7xx_hal_rtc_ex.c **** /* Private function prototypes -----------------------------------------------*/
 123:Drivers/STM32H7xx_HAL_Driver/Src/stm32h7xx_hal_rtc_ex.c **** /* Exported functions --------------------------------------------------------*/
 124:Drivers/STM32H7xx_HAL_Driver/Src/stm32h7xx_hal_rtc_ex.c **** 
 125:Drivers/STM32H7xx_HAL_Driver/Src/stm32h7xx_hal_rtc_ex.c **** /** @addtogroup RTCEx_Exported_Functions
 126:Drivers/STM32H7xx_HAL_Driver/Src/stm32h7xx_hal_rtc_ex.c ****   * @{
 127:Drivers/STM32H7xx_HAL_Driver/Src/stm32h7xx_hal_rtc_ex.c ****   */
 128:Drivers/STM32H7xx_HAL_Driver/Src/stm32h7xx_hal_rtc_ex.c **** 
 129:Drivers/STM32H7xx_HAL_Driver/Src/stm32h7xx_hal_rtc_ex.c **** 
 130:Drivers/STM32H7xx_HAL_Driver/Src/stm32h7xx_hal_rtc_ex.c **** /** @addtogroup RTCEx_Exported_Functions_Group1
 131:Drivers/STM32H7xx_HAL_Driver/Src/stm32h7xx_hal_rtc_ex.c ****  *  @brief   RTC TimeStamp and Tamper functions
 132:Drivers/STM32H7xx_HAL_Driver/Src/stm32h7xx_hal_rtc_ex.c ****   *
 133:Drivers/STM32H7xx_HAL_Driver/Src/stm32h7xx_hal_rtc_ex.c **** @verbatim
 134:Drivers/STM32H7xx_HAL_Driver/Src/stm32h7xx_hal_rtc_ex.c ****  ===============================================================================
 135:Drivers/STM32H7xx_HAL_Driver/Src/stm32h7xx_hal_rtc_ex.c ****                  ##### RTC TimeStamp and Tamper functions #####
 136:Drivers/STM32H7xx_HAL_Driver/Src/stm32h7xx_hal_rtc_ex.c ****  ===============================================================================
 137:Drivers/STM32H7xx_HAL_Driver/Src/stm32h7xx_hal_rtc_ex.c **** 
 138:Drivers/STM32H7xx_HAL_Driver/Src/stm32h7xx_hal_rtc_ex.c ****  [..] This section provides functions allowing to configure TimeStamp feature
 139:Drivers/STM32H7xx_HAL_Driver/Src/stm32h7xx_hal_rtc_ex.c **** 
 140:Drivers/STM32H7xx_HAL_Driver/Src/stm32h7xx_hal_rtc_ex.c **** @endverbatim
 141:Drivers/STM32H7xx_HAL_Driver/Src/stm32h7xx_hal_rtc_ex.c ****   * @{
 142:Drivers/STM32H7xx_HAL_Driver/Src/stm32h7xx_hal_rtc_ex.c ****   */
 143:Drivers/STM32H7xx_HAL_Driver/Src/stm32h7xx_hal_rtc_ex.c **** 
 144:Drivers/STM32H7xx_HAL_Driver/Src/stm32h7xx_hal_rtc_ex.c **** /**
ARM GAS  C:\Users\zdy\AppData\Local\Temp\cca8fajE.s 			page 4


 145:Drivers/STM32H7xx_HAL_Driver/Src/stm32h7xx_hal_rtc_ex.c ****   * @brief  Set TimeStamp.
 146:Drivers/STM32H7xx_HAL_Driver/Src/stm32h7xx_hal_rtc_ex.c ****   * @note   This API must be called before enabling the TimeStamp feature.
 147:Drivers/STM32H7xx_HAL_Driver/Src/stm32h7xx_hal_rtc_ex.c ****   * @param  hrtc RTC handle
 148:Drivers/STM32H7xx_HAL_Driver/Src/stm32h7xx_hal_rtc_ex.c ****   * @param  TimeStampEdge Specifies the pin edge on which the TimeStamp is
 149:Drivers/STM32H7xx_HAL_Driver/Src/stm32h7xx_hal_rtc_ex.c ****   *         activated.
 150:Drivers/STM32H7xx_HAL_Driver/Src/stm32h7xx_hal_rtc_ex.c ****   *          This parameter can be one of the following values:
 151:Drivers/STM32H7xx_HAL_Driver/Src/stm32h7xx_hal_rtc_ex.c ****   *             @arg RTC_TIMESTAMPEDGE_RISING: the Time stamp event occurs on the
 152:Drivers/STM32H7xx_HAL_Driver/Src/stm32h7xx_hal_rtc_ex.c ****   *                                        rising edge of the related pin.
 153:Drivers/STM32H7xx_HAL_Driver/Src/stm32h7xx_hal_rtc_ex.c ****   *             @arg RTC_TIMESTAMPEDGE_FALLING: the Time stamp event occurs on the
 154:Drivers/STM32H7xx_HAL_Driver/Src/stm32h7xx_hal_rtc_ex.c ****   *                                         falling edge of the related pin.
 155:Drivers/STM32H7xx_HAL_Driver/Src/stm32h7xx_hal_rtc_ex.c ****   * @param  RTC_TimeStampPin specifies the RTC TimeStamp Pin.
 156:Drivers/STM32H7xx_HAL_Driver/Src/stm32h7xx_hal_rtc_ex.c ****   *          This parameter can be one of the following values:
 157:Drivers/STM32H7xx_HAL_Driver/Src/stm32h7xx_hal_rtc_ex.c ****   *             @arg RTC_TIMESTAMPPIN_DEFAULT: PC13 is selected as RTC TimeStamp Pin.
 158:Drivers/STM32H7xx_HAL_Driver/Src/stm32h7xx_hal_rtc_ex.c ****   *               The RTC TimeStamp Pin is per default PC13, but for reasons of
 159:Drivers/STM32H7xx_HAL_Driver/Src/stm32h7xx_hal_rtc_ex.c ****   *               compatibility, this parameter is required.
 160:Drivers/STM32H7xx_HAL_Driver/Src/stm32h7xx_hal_rtc_ex.c ****   * @retval HAL status
 161:Drivers/STM32H7xx_HAL_Driver/Src/stm32h7xx_hal_rtc_ex.c ****   */
 162:Drivers/STM32H7xx_HAL_Driver/Src/stm32h7xx_hal_rtc_ex.c **** HAL_StatusTypeDef HAL_RTCEx_SetTimeStamp(RTC_HandleTypeDef *hrtc, uint32_t TimeStampEdge, uint32_t 
 163:Drivers/STM32H7xx_HAL_Driver/Src/stm32h7xx_hal_rtc_ex.c **** {
  29              		.loc 1 163 1 view -0
  30              		.cfi_startproc
  31              		@ args = 0, pretend = 0, frame = 0
  32              		@ frame_needed = 0, uses_anonymous_args = 0
  33              		@ link register save eliminated.
 164:Drivers/STM32H7xx_HAL_Driver/Src/stm32h7xx_hal_rtc_ex.c ****   uint32_t tmpreg;
  34              		.loc 1 164 3 view .LVU1
 165:Drivers/STM32H7xx_HAL_Driver/Src/stm32h7xx_hal_rtc_ex.c **** 
 166:Drivers/STM32H7xx_HAL_Driver/Src/stm32h7xx_hal_rtc_ex.c ****   /* Check the parameters */
 167:Drivers/STM32H7xx_HAL_Driver/Src/stm32h7xx_hal_rtc_ex.c ****   assert_param(IS_TIMESTAMP_EDGE(TimeStampEdge));
  35              		.loc 1 167 3 view .LVU2
 168:Drivers/STM32H7xx_HAL_Driver/Src/stm32h7xx_hal_rtc_ex.c ****   assert_param(IS_RTC_TIMESTAMP_PIN(RTC_TimeStampPin));
  36              		.loc 1 168 3 view .LVU3
 169:Drivers/STM32H7xx_HAL_Driver/Src/stm32h7xx_hal_rtc_ex.c **** 
 170:Drivers/STM32H7xx_HAL_Driver/Src/stm32h7xx_hal_rtc_ex.c ****   /* Prevent unused argument(s) compilation warning if no assert_param check */
 171:Drivers/STM32H7xx_HAL_Driver/Src/stm32h7xx_hal_rtc_ex.c ****   UNUSED(RTC_TimeStampPin);
  37              		.loc 1 171 3 view .LVU4
 172:Drivers/STM32H7xx_HAL_Driver/Src/stm32h7xx_hal_rtc_ex.c **** 
 173:Drivers/STM32H7xx_HAL_Driver/Src/stm32h7xx_hal_rtc_ex.c ****   /* Process Locked */
 174:Drivers/STM32H7xx_HAL_Driver/Src/stm32h7xx_hal_rtc_ex.c ****   __HAL_LOCK(hrtc);
  38              		.loc 1 174 3 view .LVU5
  39              		.loc 1 174 3 view .LVU6
  40 0000 90F82030 		ldrb	r3, [r0, #32]	@ zero_extendqisi2
  41 0004 012B     		cmp	r3, #1
  42 0006 23D0     		beq	.L3
 163:Drivers/STM32H7xx_HAL_Driver/Src/stm32h7xx_hal_rtc_ex.c ****   uint32_t tmpreg;
  43              		.loc 1 163 1 is_stmt 0 discriminator 2 view .LVU7
  44 0008 30B4     		push	{r4, r5}
  45              	.LCFI0:
  46              		.cfi_def_cfa_offset 8
  47              		.cfi_offset 4, -8
  48              		.cfi_offset 5, -4
  49              		.loc 1 174 3 is_stmt 1 discriminator 2 view .LVU8
  50 000a 0122     		movs	r2, #1
  51              	.LVL1:
  52              		.loc 1 174 3 is_stmt 0 discriminator 2 view .LVU9
  53 000c 80F82020 		strb	r2, [r0, #32]
  54              		.loc 1 174 3 is_stmt 1 discriminator 2 view .LVU10
ARM GAS  C:\Users\zdy\AppData\Local\Temp\cca8fajE.s 			page 5


 175:Drivers/STM32H7xx_HAL_Driver/Src/stm32h7xx_hal_rtc_ex.c **** 
 176:Drivers/STM32H7xx_HAL_Driver/Src/stm32h7xx_hal_rtc_ex.c ****   hrtc->State = HAL_RTC_STATE_BUSY;
  55              		.loc 1 176 3 discriminator 2 view .LVU11
  56              		.loc 1 176 15 is_stmt 0 discriminator 2 view .LVU12
  57 0010 0223     		movs	r3, #2
  58 0012 80F82130 		strb	r3, [r0, #33]
 177:Drivers/STM32H7xx_HAL_Driver/Src/stm32h7xx_hal_rtc_ex.c **** 
 178:Drivers/STM32H7xx_HAL_Driver/Src/stm32h7xx_hal_rtc_ex.c ****   /* Get the RTC_CR register and clear the bits to be configured */
 179:Drivers/STM32H7xx_HAL_Driver/Src/stm32h7xx_hal_rtc_ex.c ****   tmpreg = (uint32_t)(hrtc->Instance->CR & (uint32_t)~(RTC_CR_TSEDGE | RTC_CR_TSE));
  59              		.loc 1 179 3 is_stmt 1 discriminator 2 view .LVU13
  60              		.loc 1 179 27 is_stmt 0 discriminator 2 view .LVU14
  61 0016 0468     		ldr	r4, [r0]
  62              		.loc 1 179 37 discriminator 2 view .LVU15
  63 0018 A568     		ldr	r5, [r4, #8]
  64              		.loc 1 179 10 discriminator 2 view .LVU16
  65 001a A3F60B03 		subw	r3, r3, #2059
  66 001e 2B40     		ands	r3, r3, r5
  67              	.LVL2:
 180:Drivers/STM32H7xx_HAL_Driver/Src/stm32h7xx_hal_rtc_ex.c **** 
 181:Drivers/STM32H7xx_HAL_Driver/Src/stm32h7xx_hal_rtc_ex.c ****   tmpreg |= TimeStampEdge;
  68              		.loc 1 181 3 is_stmt 1 discriminator 2 view .LVU17
  69              		.loc 1 181 10 is_stmt 0 discriminator 2 view .LVU18
  70 0020 0B43     		orrs	r3, r3, r1
  71              	.LVL3:
 182:Drivers/STM32H7xx_HAL_Driver/Src/stm32h7xx_hal_rtc_ex.c **** 
 183:Drivers/STM32H7xx_HAL_Driver/Src/stm32h7xx_hal_rtc_ex.c ****   /* Disable the write protection for RTC registers */
 184:Drivers/STM32H7xx_HAL_Driver/Src/stm32h7xx_hal_rtc_ex.c ****   __HAL_RTC_WRITEPROTECTION_DISABLE(hrtc);
  72              		.loc 1 184 3 is_stmt 1 discriminator 2 view .LVU19
  73              		.loc 1 184 3 discriminator 2 view .LVU20
  74 0022 CA21     		movs	r1, #202
  75              	.LVL4:
  76              		.loc 1 184 3 is_stmt 0 discriminator 2 view .LVU21
  77 0024 6162     		str	r1, [r4, #36]
  78              		.loc 1 184 3 is_stmt 1 discriminator 2 view .LVU22
  79 0026 0168     		ldr	r1, [r0]
  80 0028 5324     		movs	r4, #83
  81 002a 4C62     		str	r4, [r1, #36]
  82              		.loc 1 184 3 discriminator 2 view .LVU23
 185:Drivers/STM32H7xx_HAL_Driver/Src/stm32h7xx_hal_rtc_ex.c **** 
 186:Drivers/STM32H7xx_HAL_Driver/Src/stm32h7xx_hal_rtc_ex.c ****   /* Configure the Time Stamp TSEDGE and Enable bits */
 187:Drivers/STM32H7xx_HAL_Driver/Src/stm32h7xx_hal_rtc_ex.c ****   hrtc->Instance->CR = (uint32_t)tmpreg;
  83              		.loc 1 187 3 discriminator 2 view .LVU24
  84              		.loc 1 187 7 is_stmt 0 discriminator 2 view .LVU25
  85 002c 0168     		ldr	r1, [r0]
  86              		.loc 1 187 22 discriminator 2 view .LVU26
  87 002e 8B60     		str	r3, [r1, #8]
 188:Drivers/STM32H7xx_HAL_Driver/Src/stm32h7xx_hal_rtc_ex.c **** 
 189:Drivers/STM32H7xx_HAL_Driver/Src/stm32h7xx_hal_rtc_ex.c ****   __HAL_RTC_TIMESTAMP_ENABLE(hrtc);
  88              		.loc 1 189 3 is_stmt 1 discriminator 2 view .LVU27
  89 0030 0168     		ldr	r1, [r0]
  90 0032 8B68     		ldr	r3, [r1, #8]
  91              	.LVL5:
  92              		.loc 1 189 3 is_stmt 0 discriminator 2 view .LVU28
  93 0034 43F40063 		orr	r3, r3, #2048
  94 0038 8B60     		str	r3, [r1, #8]
 190:Drivers/STM32H7xx_HAL_Driver/Src/stm32h7xx_hal_rtc_ex.c **** 
 191:Drivers/STM32H7xx_HAL_Driver/Src/stm32h7xx_hal_rtc_ex.c ****   /* Enable the write protection for RTC registers */
ARM GAS  C:\Users\zdy\AppData\Local\Temp\cca8fajE.s 			page 6


 192:Drivers/STM32H7xx_HAL_Driver/Src/stm32h7xx_hal_rtc_ex.c ****   __HAL_RTC_WRITEPROTECTION_ENABLE(hrtc);
  95              		.loc 1 192 3 is_stmt 1 discriminator 2 view .LVU29
  96              		.loc 1 192 3 discriminator 2 view .LVU30
  97 003a 0368     		ldr	r3, [r0]
  98 003c FF21     		movs	r1, #255
  99 003e 5962     		str	r1, [r3, #36]
 100              		.loc 1 192 3 discriminator 2 view .LVU31
 193:Drivers/STM32H7xx_HAL_Driver/Src/stm32h7xx_hal_rtc_ex.c **** 
 194:Drivers/STM32H7xx_HAL_Driver/Src/stm32h7xx_hal_rtc_ex.c ****   /* Change RTC state */
 195:Drivers/STM32H7xx_HAL_Driver/Src/stm32h7xx_hal_rtc_ex.c ****   hrtc->State = HAL_RTC_STATE_READY;
 101              		.loc 1 195 3 discriminator 2 view .LVU32
 102              		.loc 1 195 15 is_stmt 0 discriminator 2 view .LVU33
 103 0040 80F82120 		strb	r2, [r0, #33]
 196:Drivers/STM32H7xx_HAL_Driver/Src/stm32h7xx_hal_rtc_ex.c **** 
 197:Drivers/STM32H7xx_HAL_Driver/Src/stm32h7xx_hal_rtc_ex.c ****   /* Process Unlocked */
 198:Drivers/STM32H7xx_HAL_Driver/Src/stm32h7xx_hal_rtc_ex.c ****   __HAL_UNLOCK(hrtc);
 104              		.loc 1 198 3 is_stmt 1 discriminator 2 view .LVU34
 105              		.loc 1 198 3 discriminator 2 view .LVU35
 106 0044 0023     		movs	r3, #0
 107 0046 80F82030 		strb	r3, [r0, #32]
 108              		.loc 1 198 3 discriminator 2 view .LVU36
 199:Drivers/STM32H7xx_HAL_Driver/Src/stm32h7xx_hal_rtc_ex.c **** 
 200:Drivers/STM32H7xx_HAL_Driver/Src/stm32h7xx_hal_rtc_ex.c ****   return HAL_OK;
 109              		.loc 1 200 3 discriminator 2 view .LVU37
 110              		.loc 1 200 10 is_stmt 0 discriminator 2 view .LVU38
 111 004a 1846     		mov	r0, r3
 112              	.LVL6:
 201:Drivers/STM32H7xx_HAL_Driver/Src/stm32h7xx_hal_rtc_ex.c **** }
 113              		.loc 1 201 1 discriminator 2 view .LVU39
 114 004c 30BC     		pop	{r4, r5}
 115              	.LCFI1:
 116              		.cfi_restore 5
 117              		.cfi_restore 4
 118              		.cfi_def_cfa_offset 0
 119              	.LVL7:
 120              		.loc 1 201 1 discriminator 2 view .LVU40
 121 004e 7047     		bx	lr
 122              	.LVL8:
 123              	.L3:
 174:Drivers/STM32H7xx_HAL_Driver/Src/stm32h7xx_hal_rtc_ex.c **** 
 124              		.loc 1 174 3 view .LVU41
 125 0050 0220     		movs	r0, #2
 126              	.LVL9:
 127              		.loc 1 201 1 view .LVU42
 128 0052 7047     		bx	lr
 129              		.cfi_endproc
 130              	.LFE333:
 132              		.section	.text.HAL_RTCEx_SetTimeStamp_IT,"ax",%progbits
 133              		.align	1
 134              		.global	HAL_RTCEx_SetTimeStamp_IT
 135              		.syntax unified
 136              		.thumb
 137              		.thumb_func
 139              	HAL_RTCEx_SetTimeStamp_IT:
 140              	.LVL10:
 141              	.LFB334:
 202:Drivers/STM32H7xx_HAL_Driver/Src/stm32h7xx_hal_rtc_ex.c **** 
ARM GAS  C:\Users\zdy\AppData\Local\Temp\cca8fajE.s 			page 7


 203:Drivers/STM32H7xx_HAL_Driver/Src/stm32h7xx_hal_rtc_ex.c **** /**
 204:Drivers/STM32H7xx_HAL_Driver/Src/stm32h7xx_hal_rtc_ex.c ****   * @brief  Set TimeStamp with Interrupt.
 205:Drivers/STM32H7xx_HAL_Driver/Src/stm32h7xx_hal_rtc_ex.c ****   * @note   This API must be called before enabling the TimeStamp feature.
 206:Drivers/STM32H7xx_HAL_Driver/Src/stm32h7xx_hal_rtc_ex.c ****   * @param  hrtc RTC handle
 207:Drivers/STM32H7xx_HAL_Driver/Src/stm32h7xx_hal_rtc_ex.c ****   * @param  TimeStampEdge Specifies the pin edge on which the TimeStamp is
 208:Drivers/STM32H7xx_HAL_Driver/Src/stm32h7xx_hal_rtc_ex.c ****   *         activated.
 209:Drivers/STM32H7xx_HAL_Driver/Src/stm32h7xx_hal_rtc_ex.c ****   *          This parameter can be one of the following values:
 210:Drivers/STM32H7xx_HAL_Driver/Src/stm32h7xx_hal_rtc_ex.c ****   *             @arg RTC_TIMESTAMPEDGE_RISING: the Time stamp event occurs on the
 211:Drivers/STM32H7xx_HAL_Driver/Src/stm32h7xx_hal_rtc_ex.c ****   *                                        rising edge of the related pin.
 212:Drivers/STM32H7xx_HAL_Driver/Src/stm32h7xx_hal_rtc_ex.c ****   *             @arg RTC_TIMESTAMPEDGE_FALLING: the Time stamp event occurs on the
 213:Drivers/STM32H7xx_HAL_Driver/Src/stm32h7xx_hal_rtc_ex.c ****   *                                         falling edge of the related pin.
 214:Drivers/STM32H7xx_HAL_Driver/Src/stm32h7xx_hal_rtc_ex.c ****   * @param  RTC_TimeStampPin Specifies the RTC TimeStamp Pin.
 215:Drivers/STM32H7xx_HAL_Driver/Src/stm32h7xx_hal_rtc_ex.c ****   *          This parameter can be one of the following values:
 216:Drivers/STM32H7xx_HAL_Driver/Src/stm32h7xx_hal_rtc_ex.c ****   *             @arg RTC_TIMESTAMPPIN_DEFAULT: PC13 is selected as RTC TimeStamp Pin.
 217:Drivers/STM32H7xx_HAL_Driver/Src/stm32h7xx_hal_rtc_ex.c ****   *               The RTC TimeStamp Pin is per default PC13, but for reasons of
 218:Drivers/STM32H7xx_HAL_Driver/Src/stm32h7xx_hal_rtc_ex.c ****   *               compatibility, this parameter is required.
 219:Drivers/STM32H7xx_HAL_Driver/Src/stm32h7xx_hal_rtc_ex.c ****   * @retval HAL status
 220:Drivers/STM32H7xx_HAL_Driver/Src/stm32h7xx_hal_rtc_ex.c ****   */
 221:Drivers/STM32H7xx_HAL_Driver/Src/stm32h7xx_hal_rtc_ex.c **** HAL_StatusTypeDef HAL_RTCEx_SetTimeStamp_IT(RTC_HandleTypeDef *hrtc, uint32_t TimeStampEdge, uint32
 222:Drivers/STM32H7xx_HAL_Driver/Src/stm32h7xx_hal_rtc_ex.c **** {
 142              		.loc 1 222 1 is_stmt 1 view -0
 143              		.cfi_startproc
 144              		@ args = 0, pretend = 0, frame = 0
 145              		@ frame_needed = 0, uses_anonymous_args = 0
 146              		@ link register save eliminated.
 223:Drivers/STM32H7xx_HAL_Driver/Src/stm32h7xx_hal_rtc_ex.c ****   uint32_t tmpreg;
 147              		.loc 1 223 3 view .LVU44
 224:Drivers/STM32H7xx_HAL_Driver/Src/stm32h7xx_hal_rtc_ex.c **** 
 225:Drivers/STM32H7xx_HAL_Driver/Src/stm32h7xx_hal_rtc_ex.c ****   /* Check the parameters */
 226:Drivers/STM32H7xx_HAL_Driver/Src/stm32h7xx_hal_rtc_ex.c ****   assert_param(IS_TIMESTAMP_EDGE(TimeStampEdge));
 148              		.loc 1 226 3 view .LVU45
 227:Drivers/STM32H7xx_HAL_Driver/Src/stm32h7xx_hal_rtc_ex.c ****   assert_param(IS_RTC_TIMESTAMP_PIN(RTC_TimeStampPin));
 149              		.loc 1 227 3 view .LVU46
 228:Drivers/STM32H7xx_HAL_Driver/Src/stm32h7xx_hal_rtc_ex.c **** 
 229:Drivers/STM32H7xx_HAL_Driver/Src/stm32h7xx_hal_rtc_ex.c ****   /* Prevent unused argument(s) compilation warning if no assert_param check */
 230:Drivers/STM32H7xx_HAL_Driver/Src/stm32h7xx_hal_rtc_ex.c ****   UNUSED(RTC_TimeStampPin);
 150              		.loc 1 230 3 view .LVU47
 231:Drivers/STM32H7xx_HAL_Driver/Src/stm32h7xx_hal_rtc_ex.c **** 
 232:Drivers/STM32H7xx_HAL_Driver/Src/stm32h7xx_hal_rtc_ex.c ****   /* Process Locked */
 233:Drivers/STM32H7xx_HAL_Driver/Src/stm32h7xx_hal_rtc_ex.c ****   __HAL_LOCK(hrtc);
 151              		.loc 1 233 3 view .LVU48
 152              		.loc 1 233 3 view .LVU49
 153 0000 90F82030 		ldrb	r3, [r0, #32]	@ zero_extendqisi2
 154 0004 012B     		cmp	r3, #1
 155 0006 36D0     		beq	.L10
 222:Drivers/STM32H7xx_HAL_Driver/Src/stm32h7xx_hal_rtc_ex.c ****   uint32_t tmpreg;
 156              		.loc 1 222 1 is_stmt 0 discriminator 2 view .LVU50
 157 0008 10B4     		push	{r4}
 158              	.LCFI2:
 159              		.cfi_def_cfa_offset 4
 160              		.cfi_offset 4, -4
 161              		.loc 1 233 3 is_stmt 1 discriminator 2 view .LVU51
 162 000a 4FF0010C 		mov	ip, #1
 163 000e 80F820C0 		strb	ip, [r0, #32]
 164              		.loc 1 233 3 discriminator 2 view .LVU52
 234:Drivers/STM32H7xx_HAL_Driver/Src/stm32h7xx_hal_rtc_ex.c **** 
 235:Drivers/STM32H7xx_HAL_Driver/Src/stm32h7xx_hal_rtc_ex.c ****   hrtc->State = HAL_RTC_STATE_BUSY;
ARM GAS  C:\Users\zdy\AppData\Local\Temp\cca8fajE.s 			page 8


 165              		.loc 1 235 3 discriminator 2 view .LVU53
 166              		.loc 1 235 15 is_stmt 0 discriminator 2 view .LVU54
 167 0012 0223     		movs	r3, #2
 168 0014 80F82130 		strb	r3, [r0, #33]
 236:Drivers/STM32H7xx_HAL_Driver/Src/stm32h7xx_hal_rtc_ex.c **** 
 237:Drivers/STM32H7xx_HAL_Driver/Src/stm32h7xx_hal_rtc_ex.c ****   /* Get the RTC_CR register and clear the bits to be configured */
 238:Drivers/STM32H7xx_HAL_Driver/Src/stm32h7xx_hal_rtc_ex.c ****   tmpreg = (uint32_t)(hrtc->Instance->CR & (uint32_t)~(RTC_CR_TSEDGE | RTC_CR_TSE));
 169              		.loc 1 238 3 is_stmt 1 discriminator 2 view .LVU55
 170              		.loc 1 238 27 is_stmt 0 discriminator 2 view .LVU56
 171 0018 0268     		ldr	r2, [r0]
 172              	.LVL11:
 173              		.loc 1 238 37 discriminator 2 view .LVU57
 174 001a 9468     		ldr	r4, [r2, #8]
 175              		.loc 1 238 10 discriminator 2 view .LVU58
 176 001c A3F60B03 		subw	r3, r3, #2059
 177 0020 2340     		ands	r3, r3, r4
 178              	.LVL12:
 239:Drivers/STM32H7xx_HAL_Driver/Src/stm32h7xx_hal_rtc_ex.c **** 
 240:Drivers/STM32H7xx_HAL_Driver/Src/stm32h7xx_hal_rtc_ex.c ****   tmpreg |= TimeStampEdge;
 179              		.loc 1 240 3 is_stmt 1 discriminator 2 view .LVU59
 180              		.loc 1 240 10 is_stmt 0 discriminator 2 view .LVU60
 181 0022 0B43     		orrs	r3, r3, r1
 182              	.LVL13:
 241:Drivers/STM32H7xx_HAL_Driver/Src/stm32h7xx_hal_rtc_ex.c **** 
 242:Drivers/STM32H7xx_HAL_Driver/Src/stm32h7xx_hal_rtc_ex.c ****   /* Disable the write protection for RTC registers */
 243:Drivers/STM32H7xx_HAL_Driver/Src/stm32h7xx_hal_rtc_ex.c ****   __HAL_RTC_WRITEPROTECTION_DISABLE(hrtc);
 183              		.loc 1 243 3 is_stmt 1 discriminator 2 view .LVU61
 184              		.loc 1 243 3 discriminator 2 view .LVU62
 185 0024 CA21     		movs	r1, #202
 186              	.LVL14:
 187              		.loc 1 243 3 is_stmt 0 discriminator 2 view .LVU63
 188 0026 5162     		str	r1, [r2, #36]
 189              		.loc 1 243 3 is_stmt 1 discriminator 2 view .LVU64
 190 0028 0268     		ldr	r2, [r0]
 191 002a 5321     		movs	r1, #83
 192 002c 5162     		str	r1, [r2, #36]
 193              		.loc 1 243 3 discriminator 2 view .LVU65
 244:Drivers/STM32H7xx_HAL_Driver/Src/stm32h7xx_hal_rtc_ex.c **** 
 245:Drivers/STM32H7xx_HAL_Driver/Src/stm32h7xx_hal_rtc_ex.c ****   /* Configure the Time Stamp TSEDGE and Enable bits */
 246:Drivers/STM32H7xx_HAL_Driver/Src/stm32h7xx_hal_rtc_ex.c ****   hrtc->Instance->CR = (uint32_t)tmpreg;
 194              		.loc 1 246 3 discriminator 2 view .LVU66
 195              		.loc 1 246 7 is_stmt 0 discriminator 2 view .LVU67
 196 002e 0268     		ldr	r2, [r0]
 197              		.loc 1 246 22 discriminator 2 view .LVU68
 198 0030 9360     		str	r3, [r2, #8]
 247:Drivers/STM32H7xx_HAL_Driver/Src/stm32h7xx_hal_rtc_ex.c **** 
 248:Drivers/STM32H7xx_HAL_Driver/Src/stm32h7xx_hal_rtc_ex.c ****   __HAL_RTC_TIMESTAMP_ENABLE(hrtc);
 199              		.loc 1 248 3 is_stmt 1 discriminator 2 view .LVU69
 200 0032 0268     		ldr	r2, [r0]
 201 0034 9368     		ldr	r3, [r2, #8]
 202              	.LVL15:
 203              		.loc 1 248 3 is_stmt 0 discriminator 2 view .LVU70
 204 0036 43F40063 		orr	r3, r3, #2048
 205 003a 9360     		str	r3, [r2, #8]
 249:Drivers/STM32H7xx_HAL_Driver/Src/stm32h7xx_hal_rtc_ex.c **** 
 250:Drivers/STM32H7xx_HAL_Driver/Src/stm32h7xx_hal_rtc_ex.c ****   /* Enable IT timestamp */
 251:Drivers/STM32H7xx_HAL_Driver/Src/stm32h7xx_hal_rtc_ex.c ****   __HAL_RTC_TIMESTAMP_ENABLE_IT(hrtc, RTC_IT_TS);
ARM GAS  C:\Users\zdy\AppData\Local\Temp\cca8fajE.s 			page 9


 206              		.loc 1 251 3 is_stmt 1 discriminator 2 view .LVU71
 207 003c 0268     		ldr	r2, [r0]
 208 003e 9368     		ldr	r3, [r2, #8]
 209 0040 43F40043 		orr	r3, r3, #32768
 210 0044 9360     		str	r3, [r2, #8]
 252:Drivers/STM32H7xx_HAL_Driver/Src/stm32h7xx_hal_rtc_ex.c **** 
 253:Drivers/STM32H7xx_HAL_Driver/Src/stm32h7xx_hal_rtc_ex.c ****   /* RTC timestamp Interrupt Configuration: EXTI configuration */
 254:Drivers/STM32H7xx_HAL_Driver/Src/stm32h7xx_hal_rtc_ex.c **** #if defined(DUAL_CORE)
 255:Drivers/STM32H7xx_HAL_Driver/Src/stm32h7xx_hal_rtc_ex.c ****   if (HAL_GetCurrentCPUID() == CM7_CPUID)
 256:Drivers/STM32H7xx_HAL_Driver/Src/stm32h7xx_hal_rtc_ex.c ****   {
 257:Drivers/STM32H7xx_HAL_Driver/Src/stm32h7xx_hal_rtc_ex.c ****     __HAL_RTC_TAMPER_TIMESTAMP_EXTI_ENABLE_IT();
 258:Drivers/STM32H7xx_HAL_Driver/Src/stm32h7xx_hal_rtc_ex.c ****   }
 259:Drivers/STM32H7xx_HAL_Driver/Src/stm32h7xx_hal_rtc_ex.c ****   else
 260:Drivers/STM32H7xx_HAL_Driver/Src/stm32h7xx_hal_rtc_ex.c ****   {
 261:Drivers/STM32H7xx_HAL_Driver/Src/stm32h7xx_hal_rtc_ex.c ****     __HAL_RTC_TAMPER_TIMESTAMP_EXTID2_ENABLE_IT();
 262:Drivers/STM32H7xx_HAL_Driver/Src/stm32h7xx_hal_rtc_ex.c ****   }
 263:Drivers/STM32H7xx_HAL_Driver/Src/stm32h7xx_hal_rtc_ex.c **** #else /* SINGLE_CORE */
 264:Drivers/STM32H7xx_HAL_Driver/Src/stm32h7xx_hal_rtc_ex.c ****   __HAL_RTC_TAMPER_TIMESTAMP_EXTI_ENABLE_IT();
 211              		.loc 1 264 3 discriminator 2 view .LVU72
 212 0046 4FF0B043 		mov	r3, #1476395008
 213 004a D3F88020 		ldr	r2, [r3, #128]
 214 004e 42F48022 		orr	r2, r2, #262144
 215 0052 C3F88020 		str	r2, [r3, #128]
 265:Drivers/STM32H7xx_HAL_Driver/Src/stm32h7xx_hal_rtc_ex.c **** #endif /* DUAL_CORE */
 266:Drivers/STM32H7xx_HAL_Driver/Src/stm32h7xx_hal_rtc_ex.c **** 
 267:Drivers/STM32H7xx_HAL_Driver/Src/stm32h7xx_hal_rtc_ex.c ****   __HAL_RTC_TAMPER_TIMESTAMP_EXTI_ENABLE_RISING_EDGE();
 216              		.loc 1 267 3 discriminator 2 view .LVU73
 217 0056 1A68     		ldr	r2, [r3]
 218 0058 42F48022 		orr	r2, r2, #262144
 219 005c 1A60     		str	r2, [r3]
 268:Drivers/STM32H7xx_HAL_Driver/Src/stm32h7xx_hal_rtc_ex.c **** 
 269:Drivers/STM32H7xx_HAL_Driver/Src/stm32h7xx_hal_rtc_ex.c ****   /* Enable the write protection for RTC registers */
 270:Drivers/STM32H7xx_HAL_Driver/Src/stm32h7xx_hal_rtc_ex.c ****   __HAL_RTC_WRITEPROTECTION_ENABLE(hrtc);
 220              		.loc 1 270 3 discriminator 2 view .LVU74
 221              		.loc 1 270 3 discriminator 2 view .LVU75
 222 005e 0368     		ldr	r3, [r0]
 223 0060 FF22     		movs	r2, #255
 224 0062 5A62     		str	r2, [r3, #36]
 225              		.loc 1 270 3 discriminator 2 view .LVU76
 271:Drivers/STM32H7xx_HAL_Driver/Src/stm32h7xx_hal_rtc_ex.c **** 
 272:Drivers/STM32H7xx_HAL_Driver/Src/stm32h7xx_hal_rtc_ex.c ****   hrtc->State = HAL_RTC_STATE_READY;
 226              		.loc 1 272 3 discriminator 2 view .LVU77
 227              		.loc 1 272 15 is_stmt 0 discriminator 2 view .LVU78
 228 0064 80F821C0 		strb	ip, [r0, #33]
 273:Drivers/STM32H7xx_HAL_Driver/Src/stm32h7xx_hal_rtc_ex.c **** 
 274:Drivers/STM32H7xx_HAL_Driver/Src/stm32h7xx_hal_rtc_ex.c ****   /* Process Unlocked */
 275:Drivers/STM32H7xx_HAL_Driver/Src/stm32h7xx_hal_rtc_ex.c ****   __HAL_UNLOCK(hrtc);
 229              		.loc 1 275 3 is_stmt 1 discriminator 2 view .LVU79
 230              		.loc 1 275 3 discriminator 2 view .LVU80
 231 0068 0023     		movs	r3, #0
 232 006a 80F82030 		strb	r3, [r0, #32]
 233              		.loc 1 275 3 discriminator 2 view .LVU81
 276:Drivers/STM32H7xx_HAL_Driver/Src/stm32h7xx_hal_rtc_ex.c **** 
 277:Drivers/STM32H7xx_HAL_Driver/Src/stm32h7xx_hal_rtc_ex.c ****   return HAL_OK;
 234              		.loc 1 277 3 discriminator 2 view .LVU82
 235              		.loc 1 277 10 is_stmt 0 discriminator 2 view .LVU83
 236 006e 1846     		mov	r0, r3
ARM GAS  C:\Users\zdy\AppData\Local\Temp\cca8fajE.s 			page 10


 237              	.LVL16:
 278:Drivers/STM32H7xx_HAL_Driver/Src/stm32h7xx_hal_rtc_ex.c **** }
 238              		.loc 1 278 1 discriminator 2 view .LVU84
 239 0070 5DF8044B 		ldr	r4, [sp], #4
 240              	.LCFI3:
 241              		.cfi_restore 4
 242              		.cfi_def_cfa_offset 0
 243              	.LVL17:
 244              		.loc 1 278 1 discriminator 2 view .LVU85
 245 0074 7047     		bx	lr
 246              	.LVL18:
 247              	.L10:
 233:Drivers/STM32H7xx_HAL_Driver/Src/stm32h7xx_hal_rtc_ex.c **** 
 248              		.loc 1 233 3 view .LVU86
 249 0076 0220     		movs	r0, #2
 250              	.LVL19:
 251              		.loc 1 278 1 view .LVU87
 252 0078 7047     		bx	lr
 253              		.cfi_endproc
 254              	.LFE334:
 256              		.section	.text.HAL_RTCEx_DeactivateTimeStamp,"ax",%progbits
 257              		.align	1
 258              		.global	HAL_RTCEx_DeactivateTimeStamp
 259              		.syntax unified
 260              		.thumb
 261              		.thumb_func
 263              	HAL_RTCEx_DeactivateTimeStamp:
 264              	.LVL20:
 265              	.LFB335:
 279:Drivers/STM32H7xx_HAL_Driver/Src/stm32h7xx_hal_rtc_ex.c **** 
 280:Drivers/STM32H7xx_HAL_Driver/Src/stm32h7xx_hal_rtc_ex.c **** /**
 281:Drivers/STM32H7xx_HAL_Driver/Src/stm32h7xx_hal_rtc_ex.c ****   * @brief  Deactivate TimeStamp.
 282:Drivers/STM32H7xx_HAL_Driver/Src/stm32h7xx_hal_rtc_ex.c ****   * @param  hrtc RTC handle
 283:Drivers/STM32H7xx_HAL_Driver/Src/stm32h7xx_hal_rtc_ex.c ****   * @retval HAL status
 284:Drivers/STM32H7xx_HAL_Driver/Src/stm32h7xx_hal_rtc_ex.c ****   */
 285:Drivers/STM32H7xx_HAL_Driver/Src/stm32h7xx_hal_rtc_ex.c **** HAL_StatusTypeDef HAL_RTCEx_DeactivateTimeStamp(RTC_HandleTypeDef *hrtc)
 286:Drivers/STM32H7xx_HAL_Driver/Src/stm32h7xx_hal_rtc_ex.c **** {
 266              		.loc 1 286 1 is_stmt 1 view -0
 267              		.cfi_startproc
 268              		@ args = 0, pretend = 0, frame = 0
 269              		@ frame_needed = 0, uses_anonymous_args = 0
 270              		@ link register save eliminated.
 287:Drivers/STM32H7xx_HAL_Driver/Src/stm32h7xx_hal_rtc_ex.c ****   uint32_t tmpreg;
 271              		.loc 1 287 3 view .LVU89
 288:Drivers/STM32H7xx_HAL_Driver/Src/stm32h7xx_hal_rtc_ex.c **** 
 289:Drivers/STM32H7xx_HAL_Driver/Src/stm32h7xx_hal_rtc_ex.c ****   /* Process Locked */
 290:Drivers/STM32H7xx_HAL_Driver/Src/stm32h7xx_hal_rtc_ex.c ****   __HAL_LOCK(hrtc);
 272              		.loc 1 290 3 view .LVU90
 273              		.loc 1 290 3 view .LVU91
 274 0000 90F82030 		ldrb	r3, [r0, #32]	@ zero_extendqisi2
 275 0004 012B     		cmp	r3, #1
 276 0006 22D0     		beq	.L17
 286:Drivers/STM32H7xx_HAL_Driver/Src/stm32h7xx_hal_rtc_ex.c ****   uint32_t tmpreg;
 277              		.loc 1 286 1 is_stmt 0 discriminator 2 view .LVU92
 278 0008 10B4     		push	{r4}
 279              	.LCFI4:
 280              		.cfi_def_cfa_offset 4
ARM GAS  C:\Users\zdy\AppData\Local\Temp\cca8fajE.s 			page 11


 281              		.cfi_offset 4, -4
 282              		.loc 1 290 3 is_stmt 1 discriminator 2 view .LVU93
 283 000a 0122     		movs	r2, #1
 284 000c 80F82020 		strb	r2, [r0, #32]
 285              		.loc 1 290 3 discriminator 2 view .LVU94
 291:Drivers/STM32H7xx_HAL_Driver/Src/stm32h7xx_hal_rtc_ex.c **** 
 292:Drivers/STM32H7xx_HAL_Driver/Src/stm32h7xx_hal_rtc_ex.c ****   hrtc->State = HAL_RTC_STATE_BUSY;
 286              		.loc 1 292 3 discriminator 2 view .LVU95
 287              		.loc 1 292 15 is_stmt 0 discriminator 2 view .LVU96
 288 0010 0223     		movs	r3, #2
 289 0012 80F82130 		strb	r3, [r0, #33]
 293:Drivers/STM32H7xx_HAL_Driver/Src/stm32h7xx_hal_rtc_ex.c **** 
 294:Drivers/STM32H7xx_HAL_Driver/Src/stm32h7xx_hal_rtc_ex.c ****   /* Disable the write protection for RTC registers */
 295:Drivers/STM32H7xx_HAL_Driver/Src/stm32h7xx_hal_rtc_ex.c ****   __HAL_RTC_WRITEPROTECTION_DISABLE(hrtc);
 290              		.loc 1 295 3 is_stmt 1 discriminator 2 view .LVU97
 291              		.loc 1 295 3 discriminator 2 view .LVU98
 292 0016 0368     		ldr	r3, [r0]
 293 0018 CA21     		movs	r1, #202
 294 001a 5962     		str	r1, [r3, #36]
 295              		.loc 1 295 3 discriminator 2 view .LVU99
 296 001c 0368     		ldr	r3, [r0]
 297 001e 5321     		movs	r1, #83
 298 0020 5962     		str	r1, [r3, #36]
 299              		.loc 1 295 3 discriminator 2 view .LVU100
 296:Drivers/STM32H7xx_HAL_Driver/Src/stm32h7xx_hal_rtc_ex.c **** 
 297:Drivers/STM32H7xx_HAL_Driver/Src/stm32h7xx_hal_rtc_ex.c ****   /* In case of interrupt mode is used, the interrupt source must disabled */
 298:Drivers/STM32H7xx_HAL_Driver/Src/stm32h7xx_hal_rtc_ex.c ****   __HAL_RTC_TIMESTAMP_DISABLE_IT(hrtc, RTC_IT_TS);
 300              		.loc 1 298 3 discriminator 2 view .LVU101
 301 0022 0168     		ldr	r1, [r0]
 302 0024 8B68     		ldr	r3, [r1, #8]
 303 0026 23F40043 		bic	r3, r3, #32768
 304 002a 8B60     		str	r3, [r1, #8]
 299:Drivers/STM32H7xx_HAL_Driver/Src/stm32h7xx_hal_rtc_ex.c **** 
 300:Drivers/STM32H7xx_HAL_Driver/Src/stm32h7xx_hal_rtc_ex.c ****   /* Get the RTC_CR register and clear the bits to be configured */
 301:Drivers/STM32H7xx_HAL_Driver/Src/stm32h7xx_hal_rtc_ex.c ****   tmpreg = (uint32_t)(hrtc->Instance->CR & (uint32_t)~(RTC_CR_TSEDGE | RTC_CR_TSE));
 305              		.loc 1 301 3 discriminator 2 view .LVU102
 306              		.loc 1 301 27 is_stmt 0 discriminator 2 view .LVU103
 307 002c 0168     		ldr	r1, [r0]
 308              		.loc 1 301 37 discriminator 2 view .LVU104
 309 002e 8C68     		ldr	r4, [r1, #8]
 310              		.loc 1 301 10 discriminator 2 view .LVU105
 311 0030 084B     		ldr	r3, .L22
 312 0032 2340     		ands	r3, r3, r4
 313              	.LVL21:
 302:Drivers/STM32H7xx_HAL_Driver/Src/stm32h7xx_hal_rtc_ex.c **** 
 303:Drivers/STM32H7xx_HAL_Driver/Src/stm32h7xx_hal_rtc_ex.c ****   /* Configure the Time Stamp TSEDGE and Enable bits */
 304:Drivers/STM32H7xx_HAL_Driver/Src/stm32h7xx_hal_rtc_ex.c ****   hrtc->Instance->CR = (uint32_t)tmpreg;
 314              		.loc 1 304 3 is_stmt 1 discriminator 2 view .LVU106
 315              		.loc 1 304 22 is_stmt 0 discriminator 2 view .LVU107
 316 0034 8B60     		str	r3, [r1, #8]
 305:Drivers/STM32H7xx_HAL_Driver/Src/stm32h7xx_hal_rtc_ex.c **** 
 306:Drivers/STM32H7xx_HAL_Driver/Src/stm32h7xx_hal_rtc_ex.c ****   /* Enable the write protection for RTC registers */
 307:Drivers/STM32H7xx_HAL_Driver/Src/stm32h7xx_hal_rtc_ex.c ****   __HAL_RTC_WRITEPROTECTION_ENABLE(hrtc);
 317              		.loc 1 307 3 is_stmt 1 discriminator 2 view .LVU108
 318              		.loc 1 307 3 discriminator 2 view .LVU109
 319 0036 0368     		ldr	r3, [r0]
 320              	.LVL22:
ARM GAS  C:\Users\zdy\AppData\Local\Temp\cca8fajE.s 			page 12


 321              		.loc 1 307 3 is_stmt 0 discriminator 2 view .LVU110
 322 0038 FF21     		movs	r1, #255
 323              	.LVL23:
 324              		.loc 1 307 3 discriminator 2 view .LVU111
 325 003a 5962     		str	r1, [r3, #36]
 326              		.loc 1 307 3 is_stmt 1 discriminator 2 view .LVU112
 308:Drivers/STM32H7xx_HAL_Driver/Src/stm32h7xx_hal_rtc_ex.c **** 
 309:Drivers/STM32H7xx_HAL_Driver/Src/stm32h7xx_hal_rtc_ex.c ****   hrtc->State = HAL_RTC_STATE_READY;
 327              		.loc 1 309 3 discriminator 2 view .LVU113
 328              		.loc 1 309 15 is_stmt 0 discriminator 2 view .LVU114
 329 003c 80F82120 		strb	r2, [r0, #33]
 310:Drivers/STM32H7xx_HAL_Driver/Src/stm32h7xx_hal_rtc_ex.c **** 
 311:Drivers/STM32H7xx_HAL_Driver/Src/stm32h7xx_hal_rtc_ex.c ****   /* Process Unlocked */
 312:Drivers/STM32H7xx_HAL_Driver/Src/stm32h7xx_hal_rtc_ex.c ****   __HAL_UNLOCK(hrtc);
 330              		.loc 1 312 3 is_stmt 1 discriminator 2 view .LVU115
 331              		.loc 1 312 3 discriminator 2 view .LVU116
 332 0040 0023     		movs	r3, #0
 333 0042 80F82030 		strb	r3, [r0, #32]
 334              		.loc 1 312 3 discriminator 2 view .LVU117
 313:Drivers/STM32H7xx_HAL_Driver/Src/stm32h7xx_hal_rtc_ex.c **** 
 314:Drivers/STM32H7xx_HAL_Driver/Src/stm32h7xx_hal_rtc_ex.c ****   return HAL_OK;
 335              		.loc 1 314 3 discriminator 2 view .LVU118
 336              		.loc 1 314 10 is_stmt 0 discriminator 2 view .LVU119
 337 0046 1846     		mov	r0, r3
 338              	.LVL24:
 315:Drivers/STM32H7xx_HAL_Driver/Src/stm32h7xx_hal_rtc_ex.c **** }
 339              		.loc 1 315 1 discriminator 2 view .LVU120
 340 0048 5DF8044B 		ldr	r4, [sp], #4
 341              	.LCFI5:
 342              		.cfi_restore 4
 343              		.cfi_def_cfa_offset 0
 344              	.LVL25:
 345              		.loc 1 315 1 discriminator 2 view .LVU121
 346 004c 7047     		bx	lr
 347              	.LVL26:
 348              	.L17:
 290:Drivers/STM32H7xx_HAL_Driver/Src/stm32h7xx_hal_rtc_ex.c **** 
 349              		.loc 1 290 3 view .LVU122
 350 004e 0220     		movs	r0, #2
 351              	.LVL27:
 352              		.loc 1 315 1 view .LVU123
 353 0050 7047     		bx	lr
 354              	.L23:
 355 0052 00BF     		.align	2
 356              	.L22:
 357 0054 F7F7FFFF 		.word	-2057
 358              		.cfi_endproc
 359              	.LFE335:
 361              		.section	.text.HAL_RTCEx_SetInternalTimeStamp,"ax",%progbits
 362              		.align	1
 363              		.global	HAL_RTCEx_SetInternalTimeStamp
 364              		.syntax unified
 365              		.thumb
 366              		.thumb_func
 368              	HAL_RTCEx_SetInternalTimeStamp:
 369              	.LVL28:
 370              	.LFB336:
ARM GAS  C:\Users\zdy\AppData\Local\Temp\cca8fajE.s 			page 13


 316:Drivers/STM32H7xx_HAL_Driver/Src/stm32h7xx_hal_rtc_ex.c **** 
 317:Drivers/STM32H7xx_HAL_Driver/Src/stm32h7xx_hal_rtc_ex.c **** /**
 318:Drivers/STM32H7xx_HAL_Driver/Src/stm32h7xx_hal_rtc_ex.c ****   * @brief  Set Internal TimeStamp.
 319:Drivers/STM32H7xx_HAL_Driver/Src/stm32h7xx_hal_rtc_ex.c ****   * @note   This API must be called before enabling the internal TimeStamp feature.
 320:Drivers/STM32H7xx_HAL_Driver/Src/stm32h7xx_hal_rtc_ex.c ****   * @param  hrtc RTC handle
 321:Drivers/STM32H7xx_HAL_Driver/Src/stm32h7xx_hal_rtc_ex.c ****   * @retval HAL status
 322:Drivers/STM32H7xx_HAL_Driver/Src/stm32h7xx_hal_rtc_ex.c ****   */
 323:Drivers/STM32H7xx_HAL_Driver/Src/stm32h7xx_hal_rtc_ex.c **** HAL_StatusTypeDef HAL_RTCEx_SetInternalTimeStamp(RTC_HandleTypeDef *hrtc)
 324:Drivers/STM32H7xx_HAL_Driver/Src/stm32h7xx_hal_rtc_ex.c **** {
 371              		.loc 1 324 1 is_stmt 1 view -0
 372              		.cfi_startproc
 373              		@ args = 0, pretend = 0, frame = 0
 374              		@ frame_needed = 0, uses_anonymous_args = 0
 375              		@ link register save eliminated.
 325:Drivers/STM32H7xx_HAL_Driver/Src/stm32h7xx_hal_rtc_ex.c ****   /* Process Locked */
 326:Drivers/STM32H7xx_HAL_Driver/Src/stm32h7xx_hal_rtc_ex.c ****   __HAL_LOCK(hrtc);
 376              		.loc 1 326 3 view .LVU125
 377              		.loc 1 326 3 view .LVU126
 378 0000 90F82030 		ldrb	r3, [r0, #32]	@ zero_extendqisi2
 379 0004 012B     		cmp	r3, #1
 380 0006 1AD0     		beq	.L26
 381              		.loc 1 326 3 discriminator 2 view .LVU127
 382 0008 0122     		movs	r2, #1
 383 000a 80F82020 		strb	r2, [r0, #32]
 384              		.loc 1 326 3 discriminator 2 view .LVU128
 327:Drivers/STM32H7xx_HAL_Driver/Src/stm32h7xx_hal_rtc_ex.c **** 
 328:Drivers/STM32H7xx_HAL_Driver/Src/stm32h7xx_hal_rtc_ex.c ****   hrtc->State = HAL_RTC_STATE_BUSY;
 385              		.loc 1 328 3 discriminator 2 view .LVU129
 386              		.loc 1 328 15 is_stmt 0 discriminator 2 view .LVU130
 387 000e 0223     		movs	r3, #2
 388 0010 80F82130 		strb	r3, [r0, #33]
 329:Drivers/STM32H7xx_HAL_Driver/Src/stm32h7xx_hal_rtc_ex.c **** 
 330:Drivers/STM32H7xx_HAL_Driver/Src/stm32h7xx_hal_rtc_ex.c ****   /* Disable the write protection for RTC registers */
 331:Drivers/STM32H7xx_HAL_Driver/Src/stm32h7xx_hal_rtc_ex.c ****   __HAL_RTC_WRITEPROTECTION_DISABLE(hrtc);
 389              		.loc 1 331 3 is_stmt 1 discriminator 2 view .LVU131
 390              		.loc 1 331 3 discriminator 2 view .LVU132
 391 0014 0368     		ldr	r3, [r0]
 392 0016 CA21     		movs	r1, #202
 393 0018 5962     		str	r1, [r3, #36]
 394              		.loc 1 331 3 discriminator 2 view .LVU133
 395 001a 0368     		ldr	r3, [r0]
 396 001c 5321     		movs	r1, #83
 397 001e 5962     		str	r1, [r3, #36]
 398              		.loc 1 331 3 discriminator 2 view .LVU134
 332:Drivers/STM32H7xx_HAL_Driver/Src/stm32h7xx_hal_rtc_ex.c **** 
 333:Drivers/STM32H7xx_HAL_Driver/Src/stm32h7xx_hal_rtc_ex.c ****   /* Configure the internal Time Stamp Enable bits */
 334:Drivers/STM32H7xx_HAL_Driver/Src/stm32h7xx_hal_rtc_ex.c ****   __HAL_RTC_INTERNAL_TIMESTAMP_ENABLE(hrtc);
 399              		.loc 1 334 3 discriminator 2 view .LVU135
 400 0020 0168     		ldr	r1, [r0]
 401 0022 8B68     		ldr	r3, [r1, #8]
 402 0024 43F08073 		orr	r3, r3, #16777216
 403 0028 8B60     		str	r3, [r1, #8]
 335:Drivers/STM32H7xx_HAL_Driver/Src/stm32h7xx_hal_rtc_ex.c **** 
 336:Drivers/STM32H7xx_HAL_Driver/Src/stm32h7xx_hal_rtc_ex.c ****   /* Enable the write protection for RTC registers */
 337:Drivers/STM32H7xx_HAL_Driver/Src/stm32h7xx_hal_rtc_ex.c ****   __HAL_RTC_WRITEPROTECTION_ENABLE(hrtc);
 404              		.loc 1 337 3 discriminator 2 view .LVU136
 405              		.loc 1 337 3 discriminator 2 view .LVU137
ARM GAS  C:\Users\zdy\AppData\Local\Temp\cca8fajE.s 			page 14


 406 002a 0368     		ldr	r3, [r0]
 407 002c FF21     		movs	r1, #255
 408 002e 5962     		str	r1, [r3, #36]
 409              		.loc 1 337 3 discriminator 2 view .LVU138
 338:Drivers/STM32H7xx_HAL_Driver/Src/stm32h7xx_hal_rtc_ex.c **** 
 339:Drivers/STM32H7xx_HAL_Driver/Src/stm32h7xx_hal_rtc_ex.c ****   /* Change RTC state */
 340:Drivers/STM32H7xx_HAL_Driver/Src/stm32h7xx_hal_rtc_ex.c ****   hrtc->State = HAL_RTC_STATE_READY;
 410              		.loc 1 340 3 discriminator 2 view .LVU139
 411              		.loc 1 340 15 is_stmt 0 discriminator 2 view .LVU140
 412 0030 80F82120 		strb	r2, [r0, #33]
 341:Drivers/STM32H7xx_HAL_Driver/Src/stm32h7xx_hal_rtc_ex.c **** 
 342:Drivers/STM32H7xx_HAL_Driver/Src/stm32h7xx_hal_rtc_ex.c ****   /* Process Unlocked */
 343:Drivers/STM32H7xx_HAL_Driver/Src/stm32h7xx_hal_rtc_ex.c ****   __HAL_UNLOCK(hrtc);
 413              		.loc 1 343 3 is_stmt 1 discriminator 2 view .LVU141
 414              		.loc 1 343 3 discriminator 2 view .LVU142
 415 0034 0023     		movs	r3, #0
 416 0036 80F82030 		strb	r3, [r0, #32]
 417              		.loc 1 343 3 discriminator 2 view .LVU143
 344:Drivers/STM32H7xx_HAL_Driver/Src/stm32h7xx_hal_rtc_ex.c **** 
 345:Drivers/STM32H7xx_HAL_Driver/Src/stm32h7xx_hal_rtc_ex.c ****   return HAL_OK;
 418              		.loc 1 345 3 discriminator 2 view .LVU144
 419              		.loc 1 345 10 is_stmt 0 discriminator 2 view .LVU145
 420 003a 1846     		mov	r0, r3
 421              	.LVL29:
 422              		.loc 1 345 10 discriminator 2 view .LVU146
 423 003c 7047     		bx	lr
 424              	.LVL30:
 425              	.L26:
 326:Drivers/STM32H7xx_HAL_Driver/Src/stm32h7xx_hal_rtc_ex.c **** 
 426              		.loc 1 326 3 view .LVU147
 427 003e 0220     		movs	r0, #2
 428              	.LVL31:
 346:Drivers/STM32H7xx_HAL_Driver/Src/stm32h7xx_hal_rtc_ex.c **** }
 429              		.loc 1 346 1 view .LVU148
 430 0040 7047     		bx	lr
 431              		.cfi_endproc
 432              	.LFE336:
 434              		.section	.text.HAL_RTCEx_DeactivateInternalTimeStamp,"ax",%progbits
 435              		.align	1
 436              		.global	HAL_RTCEx_DeactivateInternalTimeStamp
 437              		.syntax unified
 438              		.thumb
 439              		.thumb_func
 441              	HAL_RTCEx_DeactivateInternalTimeStamp:
 442              	.LVL32:
 443              	.LFB337:
 347:Drivers/STM32H7xx_HAL_Driver/Src/stm32h7xx_hal_rtc_ex.c **** 
 348:Drivers/STM32H7xx_HAL_Driver/Src/stm32h7xx_hal_rtc_ex.c **** /**
 349:Drivers/STM32H7xx_HAL_Driver/Src/stm32h7xx_hal_rtc_ex.c ****   * @brief  Deactivate Internal TimeStamp.
 350:Drivers/STM32H7xx_HAL_Driver/Src/stm32h7xx_hal_rtc_ex.c ****   * @param  hrtc RTC handle
 351:Drivers/STM32H7xx_HAL_Driver/Src/stm32h7xx_hal_rtc_ex.c ****   * @retval HAL status
 352:Drivers/STM32H7xx_HAL_Driver/Src/stm32h7xx_hal_rtc_ex.c ****   */
 353:Drivers/STM32H7xx_HAL_Driver/Src/stm32h7xx_hal_rtc_ex.c **** HAL_StatusTypeDef HAL_RTCEx_DeactivateInternalTimeStamp(RTC_HandleTypeDef *hrtc)
 354:Drivers/STM32H7xx_HAL_Driver/Src/stm32h7xx_hal_rtc_ex.c **** {
 444              		.loc 1 354 1 is_stmt 1 view -0
 445              		.cfi_startproc
 446              		@ args = 0, pretend = 0, frame = 0
ARM GAS  C:\Users\zdy\AppData\Local\Temp\cca8fajE.s 			page 15


 447              		@ frame_needed = 0, uses_anonymous_args = 0
 448              		@ link register save eliminated.
 355:Drivers/STM32H7xx_HAL_Driver/Src/stm32h7xx_hal_rtc_ex.c ****   /* Process Locked */
 356:Drivers/STM32H7xx_HAL_Driver/Src/stm32h7xx_hal_rtc_ex.c ****   __HAL_LOCK(hrtc);
 449              		.loc 1 356 3 view .LVU150
 450              		.loc 1 356 3 view .LVU151
 451 0000 90F82030 		ldrb	r3, [r0, #32]	@ zero_extendqisi2
 452 0004 012B     		cmp	r3, #1
 453 0006 1AD0     		beq	.L29
 454              		.loc 1 356 3 discriminator 2 view .LVU152
 455 0008 0122     		movs	r2, #1
 456 000a 80F82020 		strb	r2, [r0, #32]
 457              		.loc 1 356 3 discriminator 2 view .LVU153
 357:Drivers/STM32H7xx_HAL_Driver/Src/stm32h7xx_hal_rtc_ex.c **** 
 358:Drivers/STM32H7xx_HAL_Driver/Src/stm32h7xx_hal_rtc_ex.c ****   hrtc->State = HAL_RTC_STATE_BUSY;
 458              		.loc 1 358 3 discriminator 2 view .LVU154
 459              		.loc 1 358 15 is_stmt 0 discriminator 2 view .LVU155
 460 000e 0223     		movs	r3, #2
 461 0010 80F82130 		strb	r3, [r0, #33]
 359:Drivers/STM32H7xx_HAL_Driver/Src/stm32h7xx_hal_rtc_ex.c **** 
 360:Drivers/STM32H7xx_HAL_Driver/Src/stm32h7xx_hal_rtc_ex.c ****   /* Disable the write protection for RTC registers */
 361:Drivers/STM32H7xx_HAL_Driver/Src/stm32h7xx_hal_rtc_ex.c ****   __HAL_RTC_WRITEPROTECTION_DISABLE(hrtc);
 462              		.loc 1 361 3 is_stmt 1 discriminator 2 view .LVU156
 463              		.loc 1 361 3 discriminator 2 view .LVU157
 464 0014 0368     		ldr	r3, [r0]
 465 0016 CA21     		movs	r1, #202
 466 0018 5962     		str	r1, [r3, #36]
 467              		.loc 1 361 3 discriminator 2 view .LVU158
 468 001a 0368     		ldr	r3, [r0]
 469 001c 5321     		movs	r1, #83
 470 001e 5962     		str	r1, [r3, #36]
 471              		.loc 1 361 3 discriminator 2 view .LVU159
 362:Drivers/STM32H7xx_HAL_Driver/Src/stm32h7xx_hal_rtc_ex.c **** 
 363:Drivers/STM32H7xx_HAL_Driver/Src/stm32h7xx_hal_rtc_ex.c ****   /* Configure the internal Time Stamp Enable bits */
 364:Drivers/STM32H7xx_HAL_Driver/Src/stm32h7xx_hal_rtc_ex.c ****   __HAL_RTC_INTERNAL_TIMESTAMP_DISABLE(hrtc);
 472              		.loc 1 364 3 discriminator 2 view .LVU160
 473 0020 0168     		ldr	r1, [r0]
 474 0022 8B68     		ldr	r3, [r1, #8]
 475 0024 23F08073 		bic	r3, r3, #16777216
 476 0028 8B60     		str	r3, [r1, #8]
 365:Drivers/STM32H7xx_HAL_Driver/Src/stm32h7xx_hal_rtc_ex.c **** 
 366:Drivers/STM32H7xx_HAL_Driver/Src/stm32h7xx_hal_rtc_ex.c ****   /* Enable the write protection for RTC registers */
 367:Drivers/STM32H7xx_HAL_Driver/Src/stm32h7xx_hal_rtc_ex.c ****   __HAL_RTC_WRITEPROTECTION_ENABLE(hrtc);
 477              		.loc 1 367 3 discriminator 2 view .LVU161
 478              		.loc 1 367 3 discriminator 2 view .LVU162
 479 002a 0368     		ldr	r3, [r0]
 480 002c FF21     		movs	r1, #255
 481 002e 5962     		str	r1, [r3, #36]
 482              		.loc 1 367 3 discriminator 2 view .LVU163
 368:Drivers/STM32H7xx_HAL_Driver/Src/stm32h7xx_hal_rtc_ex.c **** 
 369:Drivers/STM32H7xx_HAL_Driver/Src/stm32h7xx_hal_rtc_ex.c ****   hrtc->State = HAL_RTC_STATE_READY;
 483              		.loc 1 369 3 discriminator 2 view .LVU164
 484              		.loc 1 369 15 is_stmt 0 discriminator 2 view .LVU165
 485 0030 80F82120 		strb	r2, [r0, #33]
 370:Drivers/STM32H7xx_HAL_Driver/Src/stm32h7xx_hal_rtc_ex.c **** 
 371:Drivers/STM32H7xx_HAL_Driver/Src/stm32h7xx_hal_rtc_ex.c ****   /* Process Unlocked */
 372:Drivers/STM32H7xx_HAL_Driver/Src/stm32h7xx_hal_rtc_ex.c ****   __HAL_UNLOCK(hrtc);
ARM GAS  C:\Users\zdy\AppData\Local\Temp\cca8fajE.s 			page 16


 486              		.loc 1 372 3 is_stmt 1 discriminator 2 view .LVU166
 487              		.loc 1 372 3 discriminator 2 view .LVU167
 488 0034 0023     		movs	r3, #0
 489 0036 80F82030 		strb	r3, [r0, #32]
 490              		.loc 1 372 3 discriminator 2 view .LVU168
 373:Drivers/STM32H7xx_HAL_Driver/Src/stm32h7xx_hal_rtc_ex.c **** 
 374:Drivers/STM32H7xx_HAL_Driver/Src/stm32h7xx_hal_rtc_ex.c ****   return HAL_OK;
 491              		.loc 1 374 3 discriminator 2 view .LVU169
 492              		.loc 1 374 10 is_stmt 0 discriminator 2 view .LVU170
 493 003a 1846     		mov	r0, r3
 494              	.LVL33:
 495              		.loc 1 374 10 discriminator 2 view .LVU171
 496 003c 7047     		bx	lr
 497              	.LVL34:
 498              	.L29:
 356:Drivers/STM32H7xx_HAL_Driver/Src/stm32h7xx_hal_rtc_ex.c **** 
 499              		.loc 1 356 3 view .LVU172
 500 003e 0220     		movs	r0, #2
 501              	.LVL35:
 375:Drivers/STM32H7xx_HAL_Driver/Src/stm32h7xx_hal_rtc_ex.c **** }
 502              		.loc 1 375 1 view .LVU173
 503 0040 7047     		bx	lr
 504              		.cfi_endproc
 505              	.LFE337:
 507              		.section	.text.HAL_RTCEx_GetTimeStamp,"ax",%progbits
 508              		.align	1
 509              		.global	HAL_RTCEx_GetTimeStamp
 510              		.syntax unified
 511              		.thumb
 512              		.thumb_func
 514              	HAL_RTCEx_GetTimeStamp:
 515              	.LVL36:
 516              	.LFB338:
 376:Drivers/STM32H7xx_HAL_Driver/Src/stm32h7xx_hal_rtc_ex.c **** 
 377:Drivers/STM32H7xx_HAL_Driver/Src/stm32h7xx_hal_rtc_ex.c **** /**
 378:Drivers/STM32H7xx_HAL_Driver/Src/stm32h7xx_hal_rtc_ex.c ****   * @brief  Get the RTC TimeStamp value.
 379:Drivers/STM32H7xx_HAL_Driver/Src/stm32h7xx_hal_rtc_ex.c ****   * @param  hrtc RTC handle
 380:Drivers/STM32H7xx_HAL_Driver/Src/stm32h7xx_hal_rtc_ex.c ****   * @param  sTimeStamp Pointer to Time structure
 381:Drivers/STM32H7xx_HAL_Driver/Src/stm32h7xx_hal_rtc_ex.c ****   * @param  sTimeStampDate Pointer to Date structure
 382:Drivers/STM32H7xx_HAL_Driver/Src/stm32h7xx_hal_rtc_ex.c ****   * @param  Format specifies the format of the entered parameters.
 383:Drivers/STM32H7xx_HAL_Driver/Src/stm32h7xx_hal_rtc_ex.c ****   *          This parameter can be one of the following values:
 384:Drivers/STM32H7xx_HAL_Driver/Src/stm32h7xx_hal_rtc_ex.c ****   *             @arg RTC_FORMAT_BIN: Binary data format
 385:Drivers/STM32H7xx_HAL_Driver/Src/stm32h7xx_hal_rtc_ex.c ****   *             @arg RTC_FORMAT_BCD: BCD data format
 386:Drivers/STM32H7xx_HAL_Driver/Src/stm32h7xx_hal_rtc_ex.c ****   * @retval HAL status
 387:Drivers/STM32H7xx_HAL_Driver/Src/stm32h7xx_hal_rtc_ex.c ****   */
 388:Drivers/STM32H7xx_HAL_Driver/Src/stm32h7xx_hal_rtc_ex.c **** HAL_StatusTypeDef HAL_RTCEx_GetTimeStamp(RTC_HandleTypeDef *hrtc, RTC_TimeTypeDef *sTimeStamp, RTC_
 389:Drivers/STM32H7xx_HAL_Driver/Src/stm32h7xx_hal_rtc_ex.c **** {
 517              		.loc 1 389 1 is_stmt 1 view -0
 518              		.cfi_startproc
 519              		@ args = 0, pretend = 0, frame = 0
 520              		@ frame_needed = 0, uses_anonymous_args = 0
 521              		.loc 1 389 1 is_stmt 0 view .LVU175
 522 0000 70B5     		push	{r4, r5, r6, lr}
 523              	.LCFI6:
 524              		.cfi_def_cfa_offset 16
 525              		.cfi_offset 4, -16
 526              		.cfi_offset 5, -12
ARM GAS  C:\Users\zdy\AppData\Local\Temp\cca8fajE.s 			page 17


 527              		.cfi_offset 6, -8
 528              		.cfi_offset 14, -4
 529 0002 0646     		mov	r6, r0
 530 0004 0C46     		mov	r4, r1
 531 0006 1546     		mov	r5, r2
 390:Drivers/STM32H7xx_HAL_Driver/Src/stm32h7xx_hal_rtc_ex.c ****   uint32_t tmptime;
 532              		.loc 1 390 3 is_stmt 1 view .LVU176
 391:Drivers/STM32H7xx_HAL_Driver/Src/stm32h7xx_hal_rtc_ex.c ****   uint32_t tmpdate;
 533              		.loc 1 391 3 view .LVU177
 392:Drivers/STM32H7xx_HAL_Driver/Src/stm32h7xx_hal_rtc_ex.c **** 
 393:Drivers/STM32H7xx_HAL_Driver/Src/stm32h7xx_hal_rtc_ex.c ****   /* Check the parameters */
 394:Drivers/STM32H7xx_HAL_Driver/Src/stm32h7xx_hal_rtc_ex.c ****   assert_param(IS_RTC_FORMAT(Format));
 534              		.loc 1 394 3 view .LVU178
 395:Drivers/STM32H7xx_HAL_Driver/Src/stm32h7xx_hal_rtc_ex.c **** 
 396:Drivers/STM32H7xx_HAL_Driver/Src/stm32h7xx_hal_rtc_ex.c ****   /* Get the TimeStamp time and date registers values */
 397:Drivers/STM32H7xx_HAL_Driver/Src/stm32h7xx_hal_rtc_ex.c ****   tmptime = (uint32_t)(hrtc->Instance->TSTR & RTC_TR_RESERVED_MASK);
 535              		.loc 1 397 3 view .LVU179
 536              		.loc 1 397 28 is_stmt 0 view .LVU180
 537 0008 0168     		ldr	r1, [r0]
 538              	.LVL37:
 539              		.loc 1 397 38 view .LVU181
 540 000a 0A6B     		ldr	r2, [r1, #48]
 541              	.LVL38:
 398:Drivers/STM32H7xx_HAL_Driver/Src/stm32h7xx_hal_rtc_ex.c ****   tmpdate = (uint32_t)(hrtc->Instance->TSDR & RTC_DR_RESERVED_MASK);
 542              		.loc 1 398 3 is_stmt 1 view .LVU182
 543              		.loc 1 398 38 is_stmt 0 view .LVU183
 544 000c 496B     		ldr	r1, [r1, #52]
 545              	.LVL39:
 399:Drivers/STM32H7xx_HAL_Driver/Src/stm32h7xx_hal_rtc_ex.c **** 
 400:Drivers/STM32H7xx_HAL_Driver/Src/stm32h7xx_hal_rtc_ex.c ****   /* Fill the Time structure fields with the read parameters */
 401:Drivers/STM32H7xx_HAL_Driver/Src/stm32h7xx_hal_rtc_ex.c ****   sTimeStamp->Hours      = (uint8_t)((tmptime & (RTC_TSTR_HT  | RTC_TSTR_HU))  >> RTC_TSTR_HU_Pos);
 546              		.loc 1 401 3 is_stmt 1 view .LVU184
 547              		.loc 1 401 28 is_stmt 0 view .LVU185
 548 000e C2F30540 		ubfx	r0, r2, #16, #6
 549              	.LVL40:
 550              		.loc 1 401 26 view .LVU186
 551 0012 2070     		strb	r0, [r4]
 402:Drivers/STM32H7xx_HAL_Driver/Src/stm32h7xx_hal_rtc_ex.c ****   sTimeStamp->Minutes    = (uint8_t)((tmptime & (RTC_TSTR_MNT | RTC_TSTR_MNU)) >> RTC_TSTR_MNU_Pos)
 552              		.loc 1 402 3 is_stmt 1 view .LVU187
 553              		.loc 1 402 28 is_stmt 0 view .LVU188
 554 0014 C2F30620 		ubfx	r0, r2, #8, #7
 555              		.loc 1 402 26 view .LVU189
 556 0018 6070     		strb	r0, [r4, #1]
 403:Drivers/STM32H7xx_HAL_Driver/Src/stm32h7xx_hal_rtc_ex.c ****   sTimeStamp->Seconds    = (uint8_t)((tmptime & (RTC_TSTR_ST  | RTC_TSTR_SU))  >> RTC_TSTR_SU_Pos);
 557              		.loc 1 403 3 is_stmt 1 view .LVU190
 558              		.loc 1 403 28 is_stmt 0 view .LVU191
 559 001a 02F07F00 		and	r0, r2, #127
 560              		.loc 1 403 26 view .LVU192
 561 001e A070     		strb	r0, [r4, #2]
 404:Drivers/STM32H7xx_HAL_Driver/Src/stm32h7xx_hal_rtc_ex.c ****   sTimeStamp->TimeFormat = (uint8_t)((tmptime & (RTC_TSTR_PM))                 >> RTC_TSTR_PM_Pos);
 562              		.loc 1 404 3 is_stmt 1 view .LVU193
 563              		.loc 1 404 28 is_stmt 0 view .LVU194
 564 0020 C2F38052 		ubfx	r2, r2, #22, #1
 565              	.LVL41:
 566              		.loc 1 404 26 view .LVU195
 567 0024 E270     		strb	r2, [r4, #3]
 405:Drivers/STM32H7xx_HAL_Driver/Src/stm32h7xx_hal_rtc_ex.c ****   sTimeStamp->SubSeconds = (uint32_t) hrtc->Instance->TSSSR;
ARM GAS  C:\Users\zdy\AppData\Local\Temp\cca8fajE.s 			page 18


 568              		.loc 1 405 3 is_stmt 1 view .LVU196
 569              		.loc 1 405 43 is_stmt 0 view .LVU197
 570 0026 3268     		ldr	r2, [r6]
 571              		.loc 1 405 53 view .LVU198
 572 0028 926B     		ldr	r2, [r2, #56]
 573              		.loc 1 405 26 view .LVU199
 574 002a 6260     		str	r2, [r4, #4]
 406:Drivers/STM32H7xx_HAL_Driver/Src/stm32h7xx_hal_rtc_ex.c **** 
 407:Drivers/STM32H7xx_HAL_Driver/Src/stm32h7xx_hal_rtc_ex.c ****   /* Fill the Date structure fields with the read parameters */
 408:Drivers/STM32H7xx_HAL_Driver/Src/stm32h7xx_hal_rtc_ex.c ****   sTimeStampDate->Year    = 0U;
 575              		.loc 1 408 3 is_stmt 1 view .LVU200
 576              		.loc 1 408 27 is_stmt 0 view .LVU201
 577 002c 0022     		movs	r2, #0
 578 002e EA70     		strb	r2, [r5, #3]
 409:Drivers/STM32H7xx_HAL_Driver/Src/stm32h7xx_hal_rtc_ex.c ****   sTimeStampDate->Month   = (uint8_t)((tmpdate & (RTC_TSDR_MT | RTC_TSDR_MU)) >> RTC_TSDR_MU_Pos);
 579              		.loc 1 409 3 is_stmt 1 view .LVU202
 580              		.loc 1 409 29 is_stmt 0 view .LVU203
 581 0030 C1F30422 		ubfx	r2, r1, #8, #5
 582              		.loc 1 409 27 view .LVU204
 583 0034 6A70     		strb	r2, [r5, #1]
 410:Drivers/STM32H7xx_HAL_Driver/Src/stm32h7xx_hal_rtc_ex.c ****   sTimeStampDate->Date    = (uint8_t)((tmpdate & (RTC_TSDR_DT | RTC_TSDR_DU)) >> RTC_TSDR_DU_Pos);
 584              		.loc 1 410 3 is_stmt 1 view .LVU205
 585              		.loc 1 410 29 is_stmt 0 view .LVU206
 586 0036 01F03F02 		and	r2, r1, #63
 587              		.loc 1 410 27 view .LVU207
 588 003a AA70     		strb	r2, [r5, #2]
 411:Drivers/STM32H7xx_HAL_Driver/Src/stm32h7xx_hal_rtc_ex.c ****   sTimeStampDate->WeekDay = (uint8_t)((tmpdate & (RTC_TSDR_WDU))              >> RTC_TSDR_WDU_Pos);
 589              		.loc 1 411 3 is_stmt 1 view .LVU208
 590              		.loc 1 411 29 is_stmt 0 view .LVU209
 591 003c C1F34231 		ubfx	r1, r1, #13, #3
 592              	.LVL42:
 593              		.loc 1 411 27 view .LVU210
 594 0040 2970     		strb	r1, [r5]
 412:Drivers/STM32H7xx_HAL_Driver/Src/stm32h7xx_hal_rtc_ex.c **** 
 413:Drivers/STM32H7xx_HAL_Driver/Src/stm32h7xx_hal_rtc_ex.c ****   /* Check the input parameters format */
 414:Drivers/STM32H7xx_HAL_Driver/Src/stm32h7xx_hal_rtc_ex.c ****   if (Format == RTC_FORMAT_BIN)
 595              		.loc 1 414 3 is_stmt 1 view .LVU211
 596              		.loc 1 414 6 is_stmt 0 view .LVU212
 597 0042 6BB1     		cbz	r3, .L33
 598              	.LVL43:
 599              	.L31:
 415:Drivers/STM32H7xx_HAL_Driver/Src/stm32h7xx_hal_rtc_ex.c ****   {
 416:Drivers/STM32H7xx_HAL_Driver/Src/stm32h7xx_hal_rtc_ex.c ****     /* Convert the TimeStamp structure parameters to Binary format */
 417:Drivers/STM32H7xx_HAL_Driver/Src/stm32h7xx_hal_rtc_ex.c ****     sTimeStamp->Hours   = (uint8_t)RTC_Bcd2ToByte(sTimeStamp->Hours);
 418:Drivers/STM32H7xx_HAL_Driver/Src/stm32h7xx_hal_rtc_ex.c ****     sTimeStamp->Minutes = (uint8_t)RTC_Bcd2ToByte(sTimeStamp->Minutes);
 419:Drivers/STM32H7xx_HAL_Driver/Src/stm32h7xx_hal_rtc_ex.c ****     sTimeStamp->Seconds = (uint8_t)RTC_Bcd2ToByte(sTimeStamp->Seconds);
 420:Drivers/STM32H7xx_HAL_Driver/Src/stm32h7xx_hal_rtc_ex.c **** 
 421:Drivers/STM32H7xx_HAL_Driver/Src/stm32h7xx_hal_rtc_ex.c ****     /* Convert the DateTimeStamp structure parameters to Binary format */
 422:Drivers/STM32H7xx_HAL_Driver/Src/stm32h7xx_hal_rtc_ex.c ****     sTimeStampDate->Month   = (uint8_t)RTC_Bcd2ToByte(sTimeStampDate->Month);
 423:Drivers/STM32H7xx_HAL_Driver/Src/stm32h7xx_hal_rtc_ex.c ****     sTimeStampDate->Date    = (uint8_t)RTC_Bcd2ToByte(sTimeStampDate->Date);
 424:Drivers/STM32H7xx_HAL_Driver/Src/stm32h7xx_hal_rtc_ex.c ****     sTimeStampDate->WeekDay = (uint8_t)RTC_Bcd2ToByte(sTimeStampDate->WeekDay);
 425:Drivers/STM32H7xx_HAL_Driver/Src/stm32h7xx_hal_rtc_ex.c ****   }
 426:Drivers/STM32H7xx_HAL_Driver/Src/stm32h7xx_hal_rtc_ex.c **** 
 427:Drivers/STM32H7xx_HAL_Driver/Src/stm32h7xx_hal_rtc_ex.c ****   /* Clear the TIMESTAMP Flags */
 428:Drivers/STM32H7xx_HAL_Driver/Src/stm32h7xx_hal_rtc_ex.c ****   __HAL_RTC_INTERNAL_TIMESTAMP_CLEAR_FLAG(hrtc, RTC_FLAG_ITSF);
 600              		.loc 1 428 3 is_stmt 1 view .LVU213
 601 0044 3168     		ldr	r1, [r6]
ARM GAS  C:\Users\zdy\AppData\Local\Temp\cca8fajE.s 			page 19


 602 0046 CA68     		ldr	r2, [r1, #12]
 603 0048 D2B2     		uxtb	r2, r2
 604 004a 124B     		ldr	r3, .L34
 605 004c 1343     		orrs	r3, r3, r2
 606 004e CB60     		str	r3, [r1, #12]
 429:Drivers/STM32H7xx_HAL_Driver/Src/stm32h7xx_hal_rtc_ex.c ****   __HAL_RTC_TIMESTAMP_CLEAR_FLAG(hrtc, RTC_FLAG_TSF);
 607              		.loc 1 429 3 view .LVU214
 608 0050 3268     		ldr	r2, [r6]
 609 0052 D368     		ldr	r3, [r2, #12]
 610 0054 DBB2     		uxtb	r3, r3
 611 0056 63F40863 		orn	r3, r3, #2176
 612 005a D360     		str	r3, [r2, #12]
 430:Drivers/STM32H7xx_HAL_Driver/Src/stm32h7xx_hal_rtc_ex.c **** 
 431:Drivers/STM32H7xx_HAL_Driver/Src/stm32h7xx_hal_rtc_ex.c ****   return HAL_OK;
 613              		.loc 1 431 3 view .LVU215
 432:Drivers/STM32H7xx_HAL_Driver/Src/stm32h7xx_hal_rtc_ex.c **** }
 614              		.loc 1 432 1 is_stmt 0 view .LVU216
 615 005c 0020     		movs	r0, #0
 616 005e 70BD     		pop	{r4, r5, r6, pc}
 617              	.LVL44:
 618              	.L33:
 417:Drivers/STM32H7xx_HAL_Driver/Src/stm32h7xx_hal_rtc_ex.c ****     sTimeStamp->Minutes = (uint8_t)RTC_Bcd2ToByte(sTimeStamp->Minutes);
 619              		.loc 1 417 5 is_stmt 1 view .LVU217
 417:Drivers/STM32H7xx_HAL_Driver/Src/stm32h7xx_hal_rtc_ex.c ****     sTimeStamp->Minutes = (uint8_t)RTC_Bcd2ToByte(sTimeStamp->Minutes);
 620              		.loc 1 417 36 is_stmt 0 view .LVU218
 621 0060 2078     		ldrb	r0, [r4]	@ zero_extendqisi2
 622 0062 FFF7FEFF 		bl	RTC_Bcd2ToByte
 623              	.LVL45:
 417:Drivers/STM32H7xx_HAL_Driver/Src/stm32h7xx_hal_rtc_ex.c ****     sTimeStamp->Minutes = (uint8_t)RTC_Bcd2ToByte(sTimeStamp->Minutes);
 624              		.loc 1 417 25 view .LVU219
 625 0066 2070     		strb	r0, [r4]
 418:Drivers/STM32H7xx_HAL_Driver/Src/stm32h7xx_hal_rtc_ex.c ****     sTimeStamp->Seconds = (uint8_t)RTC_Bcd2ToByte(sTimeStamp->Seconds);
 626              		.loc 1 418 5 is_stmt 1 view .LVU220
 418:Drivers/STM32H7xx_HAL_Driver/Src/stm32h7xx_hal_rtc_ex.c ****     sTimeStamp->Seconds = (uint8_t)RTC_Bcd2ToByte(sTimeStamp->Seconds);
 627              		.loc 1 418 36 is_stmt 0 view .LVU221
 628 0068 6078     		ldrb	r0, [r4, #1]	@ zero_extendqisi2
 629 006a FFF7FEFF 		bl	RTC_Bcd2ToByte
 630              	.LVL46:
 418:Drivers/STM32H7xx_HAL_Driver/Src/stm32h7xx_hal_rtc_ex.c ****     sTimeStamp->Seconds = (uint8_t)RTC_Bcd2ToByte(sTimeStamp->Seconds);
 631              		.loc 1 418 25 view .LVU222
 632 006e 6070     		strb	r0, [r4, #1]
 419:Drivers/STM32H7xx_HAL_Driver/Src/stm32h7xx_hal_rtc_ex.c **** 
 633              		.loc 1 419 5 is_stmt 1 view .LVU223
 419:Drivers/STM32H7xx_HAL_Driver/Src/stm32h7xx_hal_rtc_ex.c **** 
 634              		.loc 1 419 36 is_stmt 0 view .LVU224
 635 0070 A078     		ldrb	r0, [r4, #2]	@ zero_extendqisi2
 636 0072 FFF7FEFF 		bl	RTC_Bcd2ToByte
 637              	.LVL47:
 419:Drivers/STM32H7xx_HAL_Driver/Src/stm32h7xx_hal_rtc_ex.c **** 
 638              		.loc 1 419 25 view .LVU225
 639 0076 A070     		strb	r0, [r4, #2]
 422:Drivers/STM32H7xx_HAL_Driver/Src/stm32h7xx_hal_rtc_ex.c ****     sTimeStampDate->Date    = (uint8_t)RTC_Bcd2ToByte(sTimeStampDate->Date);
 640              		.loc 1 422 5 is_stmt 1 view .LVU226
 422:Drivers/STM32H7xx_HAL_Driver/Src/stm32h7xx_hal_rtc_ex.c ****     sTimeStampDate->Date    = (uint8_t)RTC_Bcd2ToByte(sTimeStampDate->Date);
 641              		.loc 1 422 40 is_stmt 0 view .LVU227
 642 0078 6878     		ldrb	r0, [r5, #1]	@ zero_extendqisi2
 643 007a FFF7FEFF 		bl	RTC_Bcd2ToByte
ARM GAS  C:\Users\zdy\AppData\Local\Temp\cca8fajE.s 			page 20


 644              	.LVL48:
 422:Drivers/STM32H7xx_HAL_Driver/Src/stm32h7xx_hal_rtc_ex.c ****     sTimeStampDate->Date    = (uint8_t)RTC_Bcd2ToByte(sTimeStampDate->Date);
 645              		.loc 1 422 29 view .LVU228
 646 007e 6870     		strb	r0, [r5, #1]
 423:Drivers/STM32H7xx_HAL_Driver/Src/stm32h7xx_hal_rtc_ex.c ****     sTimeStampDate->WeekDay = (uint8_t)RTC_Bcd2ToByte(sTimeStampDate->WeekDay);
 647              		.loc 1 423 5 is_stmt 1 view .LVU229
 423:Drivers/STM32H7xx_HAL_Driver/Src/stm32h7xx_hal_rtc_ex.c ****     sTimeStampDate->WeekDay = (uint8_t)RTC_Bcd2ToByte(sTimeStampDate->WeekDay);
 648              		.loc 1 423 40 is_stmt 0 view .LVU230
 649 0080 A878     		ldrb	r0, [r5, #2]	@ zero_extendqisi2
 650 0082 FFF7FEFF 		bl	RTC_Bcd2ToByte
 651              	.LVL49:
 423:Drivers/STM32H7xx_HAL_Driver/Src/stm32h7xx_hal_rtc_ex.c ****     sTimeStampDate->WeekDay = (uint8_t)RTC_Bcd2ToByte(sTimeStampDate->WeekDay);
 652              		.loc 1 423 29 view .LVU231
 653 0086 A870     		strb	r0, [r5, #2]
 424:Drivers/STM32H7xx_HAL_Driver/Src/stm32h7xx_hal_rtc_ex.c ****   }
 654              		.loc 1 424 5 is_stmt 1 view .LVU232
 424:Drivers/STM32H7xx_HAL_Driver/Src/stm32h7xx_hal_rtc_ex.c ****   }
 655              		.loc 1 424 40 is_stmt 0 view .LVU233
 656 0088 2878     		ldrb	r0, [r5]	@ zero_extendqisi2
 657 008a FFF7FEFF 		bl	RTC_Bcd2ToByte
 658              	.LVL50:
 424:Drivers/STM32H7xx_HAL_Driver/Src/stm32h7xx_hal_rtc_ex.c ****   }
 659              		.loc 1 424 29 view .LVU234
 660 008e 2870     		strb	r0, [r5]
 661 0090 D8E7     		b	.L31
 662              	.L35:
 663 0092 00BF     		.align	2
 664              	.L34:
 665 0094 7FFFFDFF 		.word	-131201
 666              		.cfi_endproc
 667              	.LFE338:
 669              		.section	.text.HAL_RTCEx_SetTamper,"ax",%progbits
 670              		.align	1
 671              		.global	HAL_RTCEx_SetTamper
 672              		.syntax unified
 673              		.thumb
 674              		.thumb_func
 676              	HAL_RTCEx_SetTamper:
 677              	.LVL51:
 678              	.LFB339:
 433:Drivers/STM32H7xx_HAL_Driver/Src/stm32h7xx_hal_rtc_ex.c **** 
 434:Drivers/STM32H7xx_HAL_Driver/Src/stm32h7xx_hal_rtc_ex.c **** /**
 435:Drivers/STM32H7xx_HAL_Driver/Src/stm32h7xx_hal_rtc_ex.c ****   * @}
 436:Drivers/STM32H7xx_HAL_Driver/Src/stm32h7xx_hal_rtc_ex.c ****   */
 437:Drivers/STM32H7xx_HAL_Driver/Src/stm32h7xx_hal_rtc_ex.c **** 
 438:Drivers/STM32H7xx_HAL_Driver/Src/stm32h7xx_hal_rtc_ex.c **** /** @addtogroup RTCEx_Exported_Functions_Group5
 439:Drivers/STM32H7xx_HAL_Driver/Src/stm32h7xx_hal_rtc_ex.c ****   * @brief      Extended RTC Tamper functions
 440:Drivers/STM32H7xx_HAL_Driver/Src/stm32h7xx_hal_rtc_ex.c ****   *
 441:Drivers/STM32H7xx_HAL_Driver/Src/stm32h7xx_hal_rtc_ex.c **** @verbatim
 442:Drivers/STM32H7xx_HAL_Driver/Src/stm32h7xx_hal_rtc_ex.c ****  ==============================================================================
 443:Drivers/STM32H7xx_HAL_Driver/Src/stm32h7xx_hal_rtc_ex.c ****                         ##### Tamper functions #####
 444:Drivers/STM32H7xx_HAL_Driver/Src/stm32h7xx_hal_rtc_ex.c ****  ==============================================================================
 445:Drivers/STM32H7xx_HAL_Driver/Src/stm32h7xx_hal_rtc_ex.c ****  [..]
 446:Drivers/STM32H7xx_HAL_Driver/Src/stm32h7xx_hal_rtc_ex.c ****   (+) Before calling any tamper or internal tamper function, you have to call first
 447:Drivers/STM32H7xx_HAL_Driver/Src/stm32h7xx_hal_rtc_ex.c ****       HAL_RTC_Init() function.
 448:Drivers/STM32H7xx_HAL_Driver/Src/stm32h7xx_hal_rtc_ex.c ****   (+) In that ine you can select to output tamper event on RTC pin.
 449:Drivers/STM32H7xx_HAL_Driver/Src/stm32h7xx_hal_rtc_ex.c ****  [..]
ARM GAS  C:\Users\zdy\AppData\Local\Temp\cca8fajE.s 			page 21


 450:Drivers/STM32H7xx_HAL_Driver/Src/stm32h7xx_hal_rtc_ex.c ****   (+) Enable the Tamper and configure the Tamper filter count, trigger Edge
 451:Drivers/STM32H7xx_HAL_Driver/Src/stm32h7xx_hal_rtc_ex.c ****       or Level according to the Tamper filter (if equal to 0 Edge else Level)
 452:Drivers/STM32H7xx_HAL_Driver/Src/stm32h7xx_hal_rtc_ex.c ****       value, sampling frequency, NoErase, MaskFlag, precharge or discharge and
 453:Drivers/STM32H7xx_HAL_Driver/Src/stm32h7xx_hal_rtc_ex.c ****       Pull-UP, timestamp using the HAL_RTCEx_SetTamper() function.
 454:Drivers/STM32H7xx_HAL_Driver/Src/stm32h7xx_hal_rtc_ex.c ****       You can configure Tamper with interrupt mode using HAL_RTCEx_SetTamper_IT() function.
 455:Drivers/STM32H7xx_HAL_Driver/Src/stm32h7xx_hal_rtc_ex.c ****   (+) The default configuration of the Tamper erases the backup registers. To avoid
 456:Drivers/STM32H7xx_HAL_Driver/Src/stm32h7xx_hal_rtc_ex.c ****       erase, enable the NoErase field on the TAMP_TAMPCR register.
 457:Drivers/STM32H7xx_HAL_Driver/Src/stm32h7xx_hal_rtc_ex.c ****  [..]
 458:Drivers/STM32H7xx_HAL_Driver/Src/stm32h7xx_hal_rtc_ex.c ****   (+) Enable Internal Tamper and configure it with interrupt, timestamp using
 459:Drivers/STM32H7xx_HAL_Driver/Src/stm32h7xx_hal_rtc_ex.c ****       the HAL_RTCEx_SetInternalTamper() function.
 460:Drivers/STM32H7xx_HAL_Driver/Src/stm32h7xx_hal_rtc_ex.c **** 
 461:Drivers/STM32H7xx_HAL_Driver/Src/stm32h7xx_hal_rtc_ex.c **** @endverbatim
 462:Drivers/STM32H7xx_HAL_Driver/Src/stm32h7xx_hal_rtc_ex.c **** * @{
 463:Drivers/STM32H7xx_HAL_Driver/Src/stm32h7xx_hal_rtc_ex.c **** */
 464:Drivers/STM32H7xx_HAL_Driver/Src/stm32h7xx_hal_rtc_ex.c **** 
 465:Drivers/STM32H7xx_HAL_Driver/Src/stm32h7xx_hal_rtc_ex.c **** #if defined(TAMP_CR1_TAMP1E)
 466:Drivers/STM32H7xx_HAL_Driver/Src/stm32h7xx_hal_rtc_ex.c **** /**
 467:Drivers/STM32H7xx_HAL_Driver/Src/stm32h7xx_hal_rtc_ex.c ****   * @brief  Set Tamper
 468:Drivers/STM32H7xx_HAL_Driver/Src/stm32h7xx_hal_rtc_ex.c ****   * @param  hrtc RTC handle
 469:Drivers/STM32H7xx_HAL_Driver/Src/stm32h7xx_hal_rtc_ex.c ****   * @param  sTamper Pointer to Tamper Structure.
 470:Drivers/STM32H7xx_HAL_Driver/Src/stm32h7xx_hal_rtc_ex.c ****   * @retval HAL status
 471:Drivers/STM32H7xx_HAL_Driver/Src/stm32h7xx_hal_rtc_ex.c ****   */
 472:Drivers/STM32H7xx_HAL_Driver/Src/stm32h7xx_hal_rtc_ex.c **** HAL_StatusTypeDef HAL_RTCEx_SetTamper(RTC_HandleTypeDef * hrtc, RTC_TamperTypeDef * sTamper)
 473:Drivers/STM32H7xx_HAL_Driver/Src/stm32h7xx_hal_rtc_ex.c **** {
 474:Drivers/STM32H7xx_HAL_Driver/Src/stm32h7xx_hal_rtc_ex.c ****   uint32_t tmpreg;
 475:Drivers/STM32H7xx_HAL_Driver/Src/stm32h7xx_hal_rtc_ex.c **** 
 476:Drivers/STM32H7xx_HAL_Driver/Src/stm32h7xx_hal_rtc_ex.c ****   /* Point on TAMPER registers base address */
 477:Drivers/STM32H7xx_HAL_Driver/Src/stm32h7xx_hal_rtc_ex.c ****   TAMP_TypeDef *tamp = (TAMP_TypeDef *)((uint32_t)hrtc->Instance + TAMP_OFFSET);
 478:Drivers/STM32H7xx_HAL_Driver/Src/stm32h7xx_hal_rtc_ex.c **** 
 479:Drivers/STM32H7xx_HAL_Driver/Src/stm32h7xx_hal_rtc_ex.c ****   /* Check the parameters */
 480:Drivers/STM32H7xx_HAL_Driver/Src/stm32h7xx_hal_rtc_ex.c ****   assert_param(IS_RTC_TAMPER(sTamper->Tamper));
 481:Drivers/STM32H7xx_HAL_Driver/Src/stm32h7xx_hal_rtc_ex.c ****   assert_param(IS_RTC_TAMPER_TRIGGER(sTamper->Trigger));
 482:Drivers/STM32H7xx_HAL_Driver/Src/stm32h7xx_hal_rtc_ex.c ****   assert_param(IS_RTC_TAMPER_ERASE_MODE(sTamper->NoErase));
 483:Drivers/STM32H7xx_HAL_Driver/Src/stm32h7xx_hal_rtc_ex.c ****   assert_param(IS_RTC_TAMPER_MASKFLAG_STATE(sTamper->MaskFlag));
 484:Drivers/STM32H7xx_HAL_Driver/Src/stm32h7xx_hal_rtc_ex.c ****   assert_param(IS_RTC_TAMPER_TIMESTAMPONTAMPER_DETECTION(sTamper->TimeStampOnTamperDetection));
 485:Drivers/STM32H7xx_HAL_Driver/Src/stm32h7xx_hal_rtc_ex.c ****   assert_param(IS_RTC_TAMPER_FILTER(sTamper->Filter));
 486:Drivers/STM32H7xx_HAL_Driver/Src/stm32h7xx_hal_rtc_ex.c ****   assert_param(IS_RTC_TAMPER_SAMPLING_FREQ(sTamper->SamplingFrequency));
 487:Drivers/STM32H7xx_HAL_Driver/Src/stm32h7xx_hal_rtc_ex.c ****   assert_param(IS_RTC_TAMPER_PRECHARGE_DURATION(sTamper->PrechargeDuration));
 488:Drivers/STM32H7xx_HAL_Driver/Src/stm32h7xx_hal_rtc_ex.c ****   assert_param(IS_RTC_TAMPER_PULLUP_STATE(sTamper->TamperPullUp));
 489:Drivers/STM32H7xx_HAL_Driver/Src/stm32h7xx_hal_rtc_ex.c ****   assert_param(IS_RTC_TAMPER_FILTER_CONFIG_CORRECT(sTamper->Filter, sTamper->Trigger));
 490:Drivers/STM32H7xx_HAL_Driver/Src/stm32h7xx_hal_rtc_ex.c **** 
 491:Drivers/STM32H7xx_HAL_Driver/Src/stm32h7xx_hal_rtc_ex.c ****   /* Configuration register 2 */
 492:Drivers/STM32H7xx_HAL_Driver/Src/stm32h7xx_hal_rtc_ex.c ****   tmpreg = tamp->CR2;
 493:Drivers/STM32H7xx_HAL_Driver/Src/stm32h7xx_hal_rtc_ex.c ****   tmpreg &= ~((sTamper->Tamper << TAMP_CR2_TAMP1TRG_Pos) | (sTamper->Tamper << TAMP_CR2_TAMP1MSK_Po
 494:Drivers/STM32H7xx_HAL_Driver/Src/stm32h7xx_hal_rtc_ex.c **** 
 495:Drivers/STM32H7xx_HAL_Driver/Src/stm32h7xx_hal_rtc_ex.c ****   /* Configure the tamper trigger bit */
 496:Drivers/STM32H7xx_HAL_Driver/Src/stm32h7xx_hal_rtc_ex.c ****   if ((sTamper->Trigger == RTC_TAMPERTRIGGER_HIGHLEVEL) || (sTamper->Trigger == RTC_TAMPERTRIGGER_F
 497:Drivers/STM32H7xx_HAL_Driver/Src/stm32h7xx_hal_rtc_ex.c ****   {
 498:Drivers/STM32H7xx_HAL_Driver/Src/stm32h7xx_hal_rtc_ex.c ****     tmpreg |= (sTamper->Tamper << TAMP_CR2_TAMP1TRG_Pos);
 499:Drivers/STM32H7xx_HAL_Driver/Src/stm32h7xx_hal_rtc_ex.c ****   }
 500:Drivers/STM32H7xx_HAL_Driver/Src/stm32h7xx_hal_rtc_ex.c **** 
 501:Drivers/STM32H7xx_HAL_Driver/Src/stm32h7xx_hal_rtc_ex.c ****   /* Configure the tamper flags masking bit */
 502:Drivers/STM32H7xx_HAL_Driver/Src/stm32h7xx_hal_rtc_ex.c ****   if (sTamper->MaskFlag != RTC_TAMPERMASK_FLAG_DISABLE)
 503:Drivers/STM32H7xx_HAL_Driver/Src/stm32h7xx_hal_rtc_ex.c ****   {
 504:Drivers/STM32H7xx_HAL_Driver/Src/stm32h7xx_hal_rtc_ex.c ****     tmpreg |= (sTamper->Tamper << TAMP_CR2_TAMP1MSK_Pos);
 505:Drivers/STM32H7xx_HAL_Driver/Src/stm32h7xx_hal_rtc_ex.c ****   }
 506:Drivers/STM32H7xx_HAL_Driver/Src/stm32h7xx_hal_rtc_ex.c **** 
ARM GAS  C:\Users\zdy\AppData\Local\Temp\cca8fajE.s 			page 22


 507:Drivers/STM32H7xx_HAL_Driver/Src/stm32h7xx_hal_rtc_ex.c ****   /* Configure the tamper backup registers erasure bit */
 508:Drivers/STM32H7xx_HAL_Driver/Src/stm32h7xx_hal_rtc_ex.c ****   if (sTamper->NoErase != RTC_TAMPER_ERASE_BACKUP_ENABLE)
 509:Drivers/STM32H7xx_HAL_Driver/Src/stm32h7xx_hal_rtc_ex.c ****   {
 510:Drivers/STM32H7xx_HAL_Driver/Src/stm32h7xx_hal_rtc_ex.c ****     tmpreg |= (sTamper->Tamper << TAMP_CR2_TAMP1NOERASE_Pos);
 511:Drivers/STM32H7xx_HAL_Driver/Src/stm32h7xx_hal_rtc_ex.c ****   }
 512:Drivers/STM32H7xx_HAL_Driver/Src/stm32h7xx_hal_rtc_ex.c ****   tamp->CR2 = tmpreg;
 513:Drivers/STM32H7xx_HAL_Driver/Src/stm32h7xx_hal_rtc_ex.c **** 
 514:Drivers/STM32H7xx_HAL_Driver/Src/stm32h7xx_hal_rtc_ex.c ****   /* Configure filtering parameters */
 515:Drivers/STM32H7xx_HAL_Driver/Src/stm32h7xx_hal_rtc_ex.c ****   tamp->FLTCR = (sTamper->Filter)            | (sTamper->SamplingFrequency) | \
 516:Drivers/STM32H7xx_HAL_Driver/Src/stm32h7xx_hal_rtc_ex.c ****                 (sTamper->PrechargeDuration) | (sTamper->TamperPullUp);
 517:Drivers/STM32H7xx_HAL_Driver/Src/stm32h7xx_hal_rtc_ex.c **** 
 518:Drivers/STM32H7xx_HAL_Driver/Src/stm32h7xx_hal_rtc_ex.c ****   /* Configure Timestamp saving on tamper detection */
 519:Drivers/STM32H7xx_HAL_Driver/Src/stm32h7xx_hal_rtc_ex.c ****   if ((hrtc->Instance->CR & RTC_CR_TAMPTS) != (sTamper->TimeStampOnTamperDetection))
 520:Drivers/STM32H7xx_HAL_Driver/Src/stm32h7xx_hal_rtc_ex.c ****   {
 521:Drivers/STM32H7xx_HAL_Driver/Src/stm32h7xx_hal_rtc_ex.c ****     __HAL_RTC_WRITEPROTECTION_DISABLE(hrtc);
 522:Drivers/STM32H7xx_HAL_Driver/Src/stm32h7xx_hal_rtc_ex.c ****     tmpreg = (hrtc->Instance->CR & ~RTC_CR_TAMPTS);
 523:Drivers/STM32H7xx_HAL_Driver/Src/stm32h7xx_hal_rtc_ex.c ****     hrtc->Instance->CR = (tmpreg | (sTamper->TimeStampOnTamperDetection));
 524:Drivers/STM32H7xx_HAL_Driver/Src/stm32h7xx_hal_rtc_ex.c ****     __HAL_RTC_WRITEPROTECTION_ENABLE(hrtc);
 525:Drivers/STM32H7xx_HAL_Driver/Src/stm32h7xx_hal_rtc_ex.c ****   }
 526:Drivers/STM32H7xx_HAL_Driver/Src/stm32h7xx_hal_rtc_ex.c **** 
 527:Drivers/STM32H7xx_HAL_Driver/Src/stm32h7xx_hal_rtc_ex.c ****   /* Enable selected tamper */
 528:Drivers/STM32H7xx_HAL_Driver/Src/stm32h7xx_hal_rtc_ex.c ****   tamp->CR1 |= (sTamper->Tamper);
 529:Drivers/STM32H7xx_HAL_Driver/Src/stm32h7xx_hal_rtc_ex.c **** 
 530:Drivers/STM32H7xx_HAL_Driver/Src/stm32h7xx_hal_rtc_ex.c ****   return HAL_OK;
 531:Drivers/STM32H7xx_HAL_Driver/Src/stm32h7xx_hal_rtc_ex.c **** }
 532:Drivers/STM32H7xx_HAL_Driver/Src/stm32h7xx_hal_rtc_ex.c **** #endif /* TAMP_CR1_TAMP1E */
 533:Drivers/STM32H7xx_HAL_Driver/Src/stm32h7xx_hal_rtc_ex.c **** #if defined (RTC_TAMPCR_TAMP1E)
 534:Drivers/STM32H7xx_HAL_Driver/Src/stm32h7xx_hal_rtc_ex.c **** /**
 535:Drivers/STM32H7xx_HAL_Driver/Src/stm32h7xx_hal_rtc_ex.c ****   * @brief  Set Tamper.
 536:Drivers/STM32H7xx_HAL_Driver/Src/stm32h7xx_hal_rtc_ex.c ****   * @note   By calling this API we disable the tamper interrupt for all tampers.
 537:Drivers/STM32H7xx_HAL_Driver/Src/stm32h7xx_hal_rtc_ex.c ****   * @param  hrtc RTC handle
 538:Drivers/STM32H7xx_HAL_Driver/Src/stm32h7xx_hal_rtc_ex.c ****   * @param  sTamper Pointer to Tamper Structure.
 539:Drivers/STM32H7xx_HAL_Driver/Src/stm32h7xx_hal_rtc_ex.c ****   * @retval HAL status
 540:Drivers/STM32H7xx_HAL_Driver/Src/stm32h7xx_hal_rtc_ex.c ****   */
 541:Drivers/STM32H7xx_HAL_Driver/Src/stm32h7xx_hal_rtc_ex.c **** HAL_StatusTypeDef HAL_RTCEx_SetTamper(RTC_HandleTypeDef * hrtc, RTC_TamperTypeDef * sTamper)
 542:Drivers/STM32H7xx_HAL_Driver/Src/stm32h7xx_hal_rtc_ex.c **** {
 679              		.loc 1 542 1 is_stmt 1 view -0
 680              		.cfi_startproc
 681              		@ args = 0, pretend = 0, frame = 0
 682              		@ frame_needed = 0, uses_anonymous_args = 0
 683              		@ link register save eliminated.
 543:Drivers/STM32H7xx_HAL_Driver/Src/stm32h7xx_hal_rtc_ex.c ****   uint32_t tmpreg;
 684              		.loc 1 543 3 view .LVU236
 544:Drivers/STM32H7xx_HAL_Driver/Src/stm32h7xx_hal_rtc_ex.c **** 
 545:Drivers/STM32H7xx_HAL_Driver/Src/stm32h7xx_hal_rtc_ex.c ****   /* Check the parameters */
 546:Drivers/STM32H7xx_HAL_Driver/Src/stm32h7xx_hal_rtc_ex.c ****   assert_param(IS_RTC_TAMPER(sTamper->Tamper));
 685              		.loc 1 546 3 view .LVU237
 547:Drivers/STM32H7xx_HAL_Driver/Src/stm32h7xx_hal_rtc_ex.c ****   assert_param(IS_RTC_TAMPER_TRIGGER(sTamper->Trigger));
 686              		.loc 1 547 3 view .LVU238
 548:Drivers/STM32H7xx_HAL_Driver/Src/stm32h7xx_hal_rtc_ex.c ****   assert_param(IS_RTC_TAMPER_ERASE_MODE(sTamper->NoErase));
 687              		.loc 1 548 3 view .LVU239
 549:Drivers/STM32H7xx_HAL_Driver/Src/stm32h7xx_hal_rtc_ex.c ****   assert_param(IS_RTC_TAMPER_MASKFLAG_STATE(sTamper->MaskFlag));
 688              		.loc 1 549 3 view .LVU240
 550:Drivers/STM32H7xx_HAL_Driver/Src/stm32h7xx_hal_rtc_ex.c ****   assert_param(IS_RTC_TAMPER_FILTER(sTamper->Filter));
 689              		.loc 1 550 3 view .LVU241
 551:Drivers/STM32H7xx_HAL_Driver/Src/stm32h7xx_hal_rtc_ex.c ****   assert_param(IS_RTC_TAMPER_SAMPLING_FREQ(sTamper->SamplingFrequency));
 690              		.loc 1 551 3 view .LVU242
ARM GAS  C:\Users\zdy\AppData\Local\Temp\cca8fajE.s 			page 23


 552:Drivers/STM32H7xx_HAL_Driver/Src/stm32h7xx_hal_rtc_ex.c ****   assert_param(IS_RTC_TAMPER_PRECHARGE_DURATION(sTamper->PrechargeDuration));
 691              		.loc 1 552 3 view .LVU243
 553:Drivers/STM32H7xx_HAL_Driver/Src/stm32h7xx_hal_rtc_ex.c ****   assert_param(IS_RTC_TAMPER_PULLUP_STATE(sTamper->TamperPullUp));
 692              		.loc 1 553 3 view .LVU244
 554:Drivers/STM32H7xx_HAL_Driver/Src/stm32h7xx_hal_rtc_ex.c ****   assert_param(IS_RTC_TAMPER_TIMESTAMPONTAMPER_DETECTION(sTamper->TimeStampOnTamperDetection));
 693              		.loc 1 554 3 view .LVU245
 555:Drivers/STM32H7xx_HAL_Driver/Src/stm32h7xx_hal_rtc_ex.c ****   assert_param(IS_RTC_TAMPER_FILTER_CONFIG_CORRECT(sTamper->Filter, sTamper->Trigger));
 694              		.loc 1 555 3 view .LVU246
 556:Drivers/STM32H7xx_HAL_Driver/Src/stm32h7xx_hal_rtc_ex.c **** 
 557:Drivers/STM32H7xx_HAL_Driver/Src/stm32h7xx_hal_rtc_ex.c ****   /* Process Locked */
 558:Drivers/STM32H7xx_HAL_Driver/Src/stm32h7xx_hal_rtc_ex.c ****   __HAL_LOCK(hrtc);
 695              		.loc 1 558 3 view .LVU247
 696              		.loc 1 558 3 view .LVU248
 697 0000 90F82030 		ldrb	r3, [r0, #32]	@ zero_extendqisi2
 698 0004 012B     		cmp	r3, #1
 699 0006 6DD0     		beq	.L52
 542:Drivers/STM32H7xx_HAL_Driver/Src/stm32h7xx_hal_rtc_ex.c ****   uint32_t tmpreg;
 700              		.loc 1 542 1 is_stmt 0 discriminator 2 view .LVU249
 701 0008 30B4     		push	{r4, r5}
 702              	.LCFI7:
 703              		.cfi_def_cfa_offset 8
 704              		.cfi_offset 4, -8
 705              		.cfi_offset 5, -4
 706              		.loc 1 558 3 is_stmt 1 discriminator 2 view .LVU250
 707 000a 0123     		movs	r3, #1
 708 000c 80F82030 		strb	r3, [r0, #32]
 709              		.loc 1 558 3 discriminator 2 view .LVU251
 559:Drivers/STM32H7xx_HAL_Driver/Src/stm32h7xx_hal_rtc_ex.c **** 
 560:Drivers/STM32H7xx_HAL_Driver/Src/stm32h7xx_hal_rtc_ex.c ****   hrtc->State = HAL_RTC_STATE_BUSY;
 710              		.loc 1 560 3 discriminator 2 view .LVU252
 711              		.loc 1 560 15 is_stmt 0 discriminator 2 view .LVU253
 712 0010 0223     		movs	r3, #2
 713 0012 80F82130 		strb	r3, [r0, #33]
 561:Drivers/STM32H7xx_HAL_Driver/Src/stm32h7xx_hal_rtc_ex.c **** 
 562:Drivers/STM32H7xx_HAL_Driver/Src/stm32h7xx_hal_rtc_ex.c ****   /* Copy control register into temporary variable */
 563:Drivers/STM32H7xx_HAL_Driver/Src/stm32h7xx_hal_rtc_ex.c ****   tmpreg = hrtc->Instance->TAMPCR;
 714              		.loc 1 563 3 is_stmt 1 discriminator 2 view .LVU254
 715              		.loc 1 563 16 is_stmt 0 discriminator 2 view .LVU255
 716 0016 0568     		ldr	r5, [r0]
 717              		.loc 1 563 10 discriminator 2 view .LVU256
 718 0018 2A6C     		ldr	r2, [r5, #64]
 719              	.LVL52:
 564:Drivers/STM32H7xx_HAL_Driver/Src/stm32h7xx_hal_rtc_ex.c **** 
 565:Drivers/STM32H7xx_HAL_Driver/Src/stm32h7xx_hal_rtc_ex.c ****   /* Enable selected tamper */
 566:Drivers/STM32H7xx_HAL_Driver/Src/stm32h7xx_hal_rtc_ex.c ****   tmpreg |= (sTamper->Tamper);
 720              		.loc 1 566 3 is_stmt 1 discriminator 2 view .LVU257
 721              		.loc 1 566 21 is_stmt 0 discriminator 2 view .LVU258
 722 001a 0B68     		ldr	r3, [r1]
 723              		.loc 1 566 10 discriminator 2 view .LVU259
 724 001c 1A43     		orrs	r2, r2, r3
 725              	.LVL53:
 567:Drivers/STM32H7xx_HAL_Driver/Src/stm32h7xx_hal_rtc_ex.c **** 
 568:Drivers/STM32H7xx_HAL_Driver/Src/stm32h7xx_hal_rtc_ex.c ****   /* Configure the bit (located just next to the tamper enable bit) */
 569:Drivers/STM32H7xx_HAL_Driver/Src/stm32h7xx_hal_rtc_ex.c ****   if ((sTamper->Trigger == RTC_TAMPERTRIGGER_HIGHLEVEL) || (sTamper->Trigger == RTC_TAMPERTRIGGER_F
 726              		.loc 1 569 3 is_stmt 1 discriminator 2 view .LVU260
 727              		.loc 1 569 15 is_stmt 0 discriminator 2 view .LVU261
 728 001e 8C68     		ldr	r4, [r1, #8]
ARM GAS  C:\Users\zdy\AppData\Local\Temp\cca8fajE.s 			page 24


 729              		.loc 1 569 6 discriminator 2 view .LVU262
 730 0020 022C     		cmp	r4, #2
 731 0022 18BF     		it	ne
 732 0024 082C     		cmpne	r4, #8
 733 0026 3AD1     		bne	.L38
 570:Drivers/STM32H7xx_HAL_Driver/Src/stm32h7xx_hal_rtc_ex.c ****   {
 571:Drivers/STM32H7xx_HAL_Driver/Src/stm32h7xx_hal_rtc_ex.c ****     /* Set the tamper trigger bit */
 572:Drivers/STM32H7xx_HAL_Driver/Src/stm32h7xx_hal_rtc_ex.c ****     tmpreg |= (uint32_t)(sTamper->Tamper << 1U);
 734              		.loc 1 572 5 is_stmt 1 view .LVU263
 735              		.loc 1 572 12 is_stmt 0 view .LVU264
 736 0028 42EA4302 		orr	r2, r2, r3, lsl #1
 737              	.LVL54:
 738              	.L39:
 573:Drivers/STM32H7xx_HAL_Driver/Src/stm32h7xx_hal_rtc_ex.c ****   }
 574:Drivers/STM32H7xx_HAL_Driver/Src/stm32h7xx_hal_rtc_ex.c ****   else
 575:Drivers/STM32H7xx_HAL_Driver/Src/stm32h7xx_hal_rtc_ex.c ****   {
 576:Drivers/STM32H7xx_HAL_Driver/Src/stm32h7xx_hal_rtc_ex.c ****     /* Clear the tamper trigger bit */
 577:Drivers/STM32H7xx_HAL_Driver/Src/stm32h7xx_hal_rtc_ex.c ****     tmpreg &= (uint32_t)~(sTamper->Tamper << 1U);
 578:Drivers/STM32H7xx_HAL_Driver/Src/stm32h7xx_hal_rtc_ex.c ****   }
 579:Drivers/STM32H7xx_HAL_Driver/Src/stm32h7xx_hal_rtc_ex.c **** 
 580:Drivers/STM32H7xx_HAL_Driver/Src/stm32h7xx_hal_rtc_ex.c ****   /* Configure the tamper backup registers erasure bit */
 581:Drivers/STM32H7xx_HAL_Driver/Src/stm32h7xx_hal_rtc_ex.c ****   if (sTamper->NoErase != RTC_TAMPER_ERASE_BACKUP_ENABLE)
 739              		.loc 1 581 3 is_stmt 1 view .LVU265
 740              		.loc 1 581 14 is_stmt 0 view .LVU266
 741 002c CC68     		ldr	r4, [r1, #12]
 742              		.loc 1 581 6 view .LVU267
 743 002e 002C     		cmp	r4, #0
 744 0030 38D0     		beq	.L40
 582:Drivers/STM32H7xx_HAL_Driver/Src/stm32h7xx_hal_rtc_ex.c ****   {
 583:Drivers/STM32H7xx_HAL_Driver/Src/stm32h7xx_hal_rtc_ex.c **** #if defined(RTC_TAMPCR_TAMP1E)
 584:Drivers/STM32H7xx_HAL_Driver/Src/stm32h7xx_hal_rtc_ex.c ****     if ((sTamper->Tamper & RTC_TAMPER_1) != 0U)
 745              		.loc 1 584 5 is_stmt 1 view .LVU268
 746              		.loc 1 584 8 is_stmt 0 view .LVU269
 747 0032 13F0010F 		tst	r3, #1
 748 0036 01D0     		beq	.L41
 585:Drivers/STM32H7xx_HAL_Driver/Src/stm32h7xx_hal_rtc_ex.c ****     {
 586:Drivers/STM32H7xx_HAL_Driver/Src/stm32h7xx_hal_rtc_ex.c ****       tmpreg |= (uint32_t)(RTC_TAMPCR_TAMP1NOERASE);
 749              		.loc 1 586 7 is_stmt 1 view .LVU270
 750              		.loc 1 586 14 is_stmt 0 view .LVU271
 751 0038 42F40032 		orr	r2, r2, #131072
 752              	.LVL55:
 753              	.L41:
 587:Drivers/STM32H7xx_HAL_Driver/Src/stm32h7xx_hal_rtc_ex.c ****     }
 588:Drivers/STM32H7xx_HAL_Driver/Src/stm32h7xx_hal_rtc_ex.c **** #endif /* RTC_TAMPCR_TAMP1E */
 589:Drivers/STM32H7xx_HAL_Driver/Src/stm32h7xx_hal_rtc_ex.c **** #if defined(RTC_TAMPCR_TAMP2E)
 590:Drivers/STM32H7xx_HAL_Driver/Src/stm32h7xx_hal_rtc_ex.c ****     if ((sTamper->Tamper & RTC_TAMPER_2) != 0U)
 754              		.loc 1 590 5 is_stmt 1 view .LVU272
 755              		.loc 1 590 8 is_stmt 0 view .LVU273
 756 003c 13F0080F 		tst	r3, #8
 757 0040 01D0     		beq	.L42
 591:Drivers/STM32H7xx_HAL_Driver/Src/stm32h7xx_hal_rtc_ex.c ****     {
 592:Drivers/STM32H7xx_HAL_Driver/Src/stm32h7xx_hal_rtc_ex.c ****       tmpreg |= (uint32_t)(RTC_TAMPCR_TAMP2NOERASE);
 758              		.loc 1 592 7 is_stmt 1 view .LVU274
 759              		.loc 1 592 14 is_stmt 0 view .LVU275
 760 0042 42F48012 		orr	r2, r2, #1048576
 761              	.LVL56:
 762              	.L42:
ARM GAS  C:\Users\zdy\AppData\Local\Temp\cca8fajE.s 			page 25


 593:Drivers/STM32H7xx_HAL_Driver/Src/stm32h7xx_hal_rtc_ex.c ****     }
 594:Drivers/STM32H7xx_HAL_Driver/Src/stm32h7xx_hal_rtc_ex.c **** #endif /* RTC_TAMPCR_TAMP2E */
 595:Drivers/STM32H7xx_HAL_Driver/Src/stm32h7xx_hal_rtc_ex.c **** #if defined(RTC_TAMPCR_TAMP3E)
 596:Drivers/STM32H7xx_HAL_Driver/Src/stm32h7xx_hal_rtc_ex.c ****     if ((sTamper->Tamper & RTC_TAMPER_3) != 0U)
 763              		.loc 1 596 5 is_stmt 1 view .LVU276
 764              		.loc 1 596 8 is_stmt 0 view .LVU277
 765 0046 13F0200F 		tst	r3, #32
 766 004a 01D0     		beq	.L43
 597:Drivers/STM32H7xx_HAL_Driver/Src/stm32h7xx_hal_rtc_ex.c ****     {
 598:Drivers/STM32H7xx_HAL_Driver/Src/stm32h7xx_hal_rtc_ex.c ****       tmpreg |= (uint32_t)(RTC_TAMPCR_TAMP3NOERASE);
 767              		.loc 1 598 7 is_stmt 1 view .LVU278
 768              		.loc 1 598 14 is_stmt 0 view .LVU279
 769 004c 42F40002 		orr	r2, r2, #8388608
 770              	.LVL57:
 771              	.L43:
 599:Drivers/STM32H7xx_HAL_Driver/Src/stm32h7xx_hal_rtc_ex.c ****     }
 600:Drivers/STM32H7xx_HAL_Driver/Src/stm32h7xx_hal_rtc_ex.c **** #endif /* RTC_TAMPCR_TAMP3E */
 601:Drivers/STM32H7xx_HAL_Driver/Src/stm32h7xx_hal_rtc_ex.c ****   }
 602:Drivers/STM32H7xx_HAL_Driver/Src/stm32h7xx_hal_rtc_ex.c ****   else
 603:Drivers/STM32H7xx_HAL_Driver/Src/stm32h7xx_hal_rtc_ex.c ****   {
 604:Drivers/STM32H7xx_HAL_Driver/Src/stm32h7xx_hal_rtc_ex.c **** #if defined(RTC_TAMPCR_TAMP1E)
 605:Drivers/STM32H7xx_HAL_Driver/Src/stm32h7xx_hal_rtc_ex.c ****     if ((sTamper->Tamper & RTC_TAMPER_1) != 0U)
 606:Drivers/STM32H7xx_HAL_Driver/Src/stm32h7xx_hal_rtc_ex.c ****     {
 607:Drivers/STM32H7xx_HAL_Driver/Src/stm32h7xx_hal_rtc_ex.c ****       tmpreg &= (uint32_t)~(RTC_TAMPCR_TAMP1NOERASE);
 608:Drivers/STM32H7xx_HAL_Driver/Src/stm32h7xx_hal_rtc_ex.c ****     }
 609:Drivers/STM32H7xx_HAL_Driver/Src/stm32h7xx_hal_rtc_ex.c **** #endif /* RTC_TAMPCR_TAMP1E */
 610:Drivers/STM32H7xx_HAL_Driver/Src/stm32h7xx_hal_rtc_ex.c **** #if defined(RTC_TAMPCR_TAMP2E)
 611:Drivers/STM32H7xx_HAL_Driver/Src/stm32h7xx_hal_rtc_ex.c ****     if ((sTamper->Tamper & RTC_TAMPER_2) != 0U)
 612:Drivers/STM32H7xx_HAL_Driver/Src/stm32h7xx_hal_rtc_ex.c ****     {
 613:Drivers/STM32H7xx_HAL_Driver/Src/stm32h7xx_hal_rtc_ex.c ****       tmpreg &= (uint32_t)~(RTC_TAMPCR_TAMP2NOERASE);
 614:Drivers/STM32H7xx_HAL_Driver/Src/stm32h7xx_hal_rtc_ex.c ****     }
 615:Drivers/STM32H7xx_HAL_Driver/Src/stm32h7xx_hal_rtc_ex.c **** #endif /* RTC_TAMPCR_TAMP2E */
 616:Drivers/STM32H7xx_HAL_Driver/Src/stm32h7xx_hal_rtc_ex.c **** #if defined(RTC_TAMPCR_TAMP3E)
 617:Drivers/STM32H7xx_HAL_Driver/Src/stm32h7xx_hal_rtc_ex.c ****     if ((sTamper->Tamper & RTC_TAMPER_3) != 0U)
 618:Drivers/STM32H7xx_HAL_Driver/Src/stm32h7xx_hal_rtc_ex.c ****     {
 619:Drivers/STM32H7xx_HAL_Driver/Src/stm32h7xx_hal_rtc_ex.c ****       tmpreg &= (uint32_t)~(RTC_TAMPCR_TAMP3NOERASE);
 620:Drivers/STM32H7xx_HAL_Driver/Src/stm32h7xx_hal_rtc_ex.c ****     }
 621:Drivers/STM32H7xx_HAL_Driver/Src/stm32h7xx_hal_rtc_ex.c **** #endif /* RTC_TAMPCR_TAMP3E */
 622:Drivers/STM32H7xx_HAL_Driver/Src/stm32h7xx_hal_rtc_ex.c ****   }
 623:Drivers/STM32H7xx_HAL_Driver/Src/stm32h7xx_hal_rtc_ex.c **** 
 624:Drivers/STM32H7xx_HAL_Driver/Src/stm32h7xx_hal_rtc_ex.c ****   /* Configure the tamper flags masking bit */
 625:Drivers/STM32H7xx_HAL_Driver/Src/stm32h7xx_hal_rtc_ex.c ****   if (sTamper->MaskFlag != RTC_TAMPERMASK_FLAG_DISABLE)
 772              		.loc 1 625 3 is_stmt 1 view .LVU280
 773              		.loc 1 625 14 is_stmt 0 view .LVU281
 774 0050 0C69     		ldr	r4, [r1, #16]
 775              		.loc 1 625 6 view .LVU282
 776 0052 BCB3     		cbz	r4, .L46
 626:Drivers/STM32H7xx_HAL_Driver/Src/stm32h7xx_hal_rtc_ex.c ****   {
 627:Drivers/STM32H7xx_HAL_Driver/Src/stm32h7xx_hal_rtc_ex.c **** #if defined(RTC_TAMPCR_TAMP1E)
 628:Drivers/STM32H7xx_HAL_Driver/Src/stm32h7xx_hal_rtc_ex.c ****     if ((sTamper->Tamper & RTC_TAMPER_1) != 0U)
 777              		.loc 1 628 5 is_stmt 1 view .LVU283
 778              		.loc 1 628 8 is_stmt 0 view .LVU284
 779 0054 13F0010F 		tst	r3, #1
 780 0058 01D0     		beq	.L47
 629:Drivers/STM32H7xx_HAL_Driver/Src/stm32h7xx_hal_rtc_ex.c ****     {
 630:Drivers/STM32H7xx_HAL_Driver/Src/stm32h7xx_hal_rtc_ex.c ****       tmpreg |= (uint32_t)(RTC_TAMPCR_TAMP1MF);
 781              		.loc 1 630 7 is_stmt 1 view .LVU285
ARM GAS  C:\Users\zdy\AppData\Local\Temp\cca8fajE.s 			page 26


 782              		.loc 1 630 14 is_stmt 0 view .LVU286
 783 005a 42F48022 		orr	r2, r2, #262144
 784              	.LVL58:
 785              	.L47:
 631:Drivers/STM32H7xx_HAL_Driver/Src/stm32h7xx_hal_rtc_ex.c ****     }
 632:Drivers/STM32H7xx_HAL_Driver/Src/stm32h7xx_hal_rtc_ex.c **** #endif /* RTC_TAMPCR_TAMP1E */
 633:Drivers/STM32H7xx_HAL_Driver/Src/stm32h7xx_hal_rtc_ex.c **** #if defined(RTC_TAMPCR_TAMP2E)
 634:Drivers/STM32H7xx_HAL_Driver/Src/stm32h7xx_hal_rtc_ex.c ****     if ((sTamper->Tamper & RTC_TAMPER_2) != 0U)
 786              		.loc 1 634 5 is_stmt 1 view .LVU287
 787              		.loc 1 634 8 is_stmt 0 view .LVU288
 788 005e 13F0080F 		tst	r3, #8
 789 0062 01D0     		beq	.L48
 635:Drivers/STM32H7xx_HAL_Driver/Src/stm32h7xx_hal_rtc_ex.c ****     {
 636:Drivers/STM32H7xx_HAL_Driver/Src/stm32h7xx_hal_rtc_ex.c ****       tmpreg |= (uint32_t)(RTC_TAMPCR_TAMP2MF);
 790              		.loc 1 636 7 is_stmt 1 view .LVU289
 791              		.loc 1 636 14 is_stmt 0 view .LVU290
 792 0064 42F40012 		orr	r2, r2, #2097152
 793              	.LVL59:
 794              	.L48:
 637:Drivers/STM32H7xx_HAL_Driver/Src/stm32h7xx_hal_rtc_ex.c ****     }
 638:Drivers/STM32H7xx_HAL_Driver/Src/stm32h7xx_hal_rtc_ex.c **** #endif /* RTC_TAMPCR_TAMP2E */
 639:Drivers/STM32H7xx_HAL_Driver/Src/stm32h7xx_hal_rtc_ex.c **** #if defined(RTC_TAMPCR_TAMP3E)
 640:Drivers/STM32H7xx_HAL_Driver/Src/stm32h7xx_hal_rtc_ex.c ****     if ((sTamper->Tamper & RTC_TAMPER_3) != 0U)
 795              		.loc 1 640 5 is_stmt 1 view .LVU291
 796              		.loc 1 640 8 is_stmt 0 view .LVU292
 797 0068 13F0200F 		tst	r3, #32
 798 006c 01D0     		beq	.L49
 641:Drivers/STM32H7xx_HAL_Driver/Src/stm32h7xx_hal_rtc_ex.c ****     {
 642:Drivers/STM32H7xx_HAL_Driver/Src/stm32h7xx_hal_rtc_ex.c ****       tmpreg |= (uint32_t)(RTC_TAMPCR_TAMP3MF);
 799              		.loc 1 642 7 is_stmt 1 view .LVU293
 800              		.loc 1 642 14 is_stmt 0 view .LVU294
 801 006e 42F08072 		orr	r2, r2, #16777216
 802              	.LVL60:
 803              	.L49:
 643:Drivers/STM32H7xx_HAL_Driver/Src/stm32h7xx_hal_rtc_ex.c ****     }
 644:Drivers/STM32H7xx_HAL_Driver/Src/stm32h7xx_hal_rtc_ex.c **** #endif /* RTC_TAMPCR_TAMP3E */
 645:Drivers/STM32H7xx_HAL_Driver/Src/stm32h7xx_hal_rtc_ex.c ****   }
 646:Drivers/STM32H7xx_HAL_Driver/Src/stm32h7xx_hal_rtc_ex.c ****   else
 647:Drivers/STM32H7xx_HAL_Driver/Src/stm32h7xx_hal_rtc_ex.c ****   {
 648:Drivers/STM32H7xx_HAL_Driver/Src/stm32h7xx_hal_rtc_ex.c **** #if defined(RTC_TAMPCR_TAMP1E)
 649:Drivers/STM32H7xx_HAL_Driver/Src/stm32h7xx_hal_rtc_ex.c ****     if ((sTamper->Tamper & RTC_TAMPER_1) != 0U)
 650:Drivers/STM32H7xx_HAL_Driver/Src/stm32h7xx_hal_rtc_ex.c ****     {
 651:Drivers/STM32H7xx_HAL_Driver/Src/stm32h7xx_hal_rtc_ex.c ****       tmpreg &= (uint32_t)~(RTC_TAMPCR_TAMP1MF);
 652:Drivers/STM32H7xx_HAL_Driver/Src/stm32h7xx_hal_rtc_ex.c ****     }
 653:Drivers/STM32H7xx_HAL_Driver/Src/stm32h7xx_hal_rtc_ex.c **** #endif /* RTC_TAMPCR_TAMP1E */
 654:Drivers/STM32H7xx_HAL_Driver/Src/stm32h7xx_hal_rtc_ex.c **** #if defined(RTC_TAMPCR_TAMP2E)
 655:Drivers/STM32H7xx_HAL_Driver/Src/stm32h7xx_hal_rtc_ex.c ****     if ((sTamper->Tamper & RTC_TAMPER_2) != 0U)
 656:Drivers/STM32H7xx_HAL_Driver/Src/stm32h7xx_hal_rtc_ex.c ****     {
 657:Drivers/STM32H7xx_HAL_Driver/Src/stm32h7xx_hal_rtc_ex.c ****       tmpreg &= (uint32_t)~(RTC_TAMPCR_TAMP2MF);
 658:Drivers/STM32H7xx_HAL_Driver/Src/stm32h7xx_hal_rtc_ex.c ****     }
 659:Drivers/STM32H7xx_HAL_Driver/Src/stm32h7xx_hal_rtc_ex.c **** #endif /* RTC_TAMPCR_TAMP2E */
 660:Drivers/STM32H7xx_HAL_Driver/Src/stm32h7xx_hal_rtc_ex.c **** #if defined(RTC_TAMPCR_TAMP3E)
 661:Drivers/STM32H7xx_HAL_Driver/Src/stm32h7xx_hal_rtc_ex.c ****     if ((sTamper->Tamper & RTC_TAMPER_3) != 0U)
 662:Drivers/STM32H7xx_HAL_Driver/Src/stm32h7xx_hal_rtc_ex.c ****     {
 663:Drivers/STM32H7xx_HAL_Driver/Src/stm32h7xx_hal_rtc_ex.c ****       tmpreg &= (uint32_t)~(RTC_TAMPCR_TAMP3MF);
 664:Drivers/STM32H7xx_HAL_Driver/Src/stm32h7xx_hal_rtc_ex.c ****     }
 665:Drivers/STM32H7xx_HAL_Driver/Src/stm32h7xx_hal_rtc_ex.c **** #endif /* RTC_TAMPCR_TAMP3E */
ARM GAS  C:\Users\zdy\AppData\Local\Temp\cca8fajE.s 			page 27


 666:Drivers/STM32H7xx_HAL_Driver/Src/stm32h7xx_hal_rtc_ex.c ****   }
 667:Drivers/STM32H7xx_HAL_Driver/Src/stm32h7xx_hal_rtc_ex.c **** 
 668:Drivers/STM32H7xx_HAL_Driver/Src/stm32h7xx_hal_rtc_ex.c ****   /* Clearing remaining fields before setting them */
 669:Drivers/STM32H7xx_HAL_Driver/Src/stm32h7xx_hal_rtc_ex.c ****   tmpreg &= ~(RTC_TAMPERFILTER_MASK            | RTC_TAMPERSAMPLINGFREQ_RTCCLK_MASK | \
 804              		.loc 1 669 3 is_stmt 1 view .LVU295
 805              		.loc 1 669 10 is_stmt 0 view .LVU296
 806 0072 1D4C     		ldr	r4, .L57
 807 0074 1440     		ands	r4, r4, r2
 808              	.LVL61:
 670:Drivers/STM32H7xx_HAL_Driver/Src/stm32h7xx_hal_rtc_ex.c ****               RTC_TAMPERPRECHARGEDURATION_MASK | RTC_TAMPER_PULLUP_MASK             | \
 671:Drivers/STM32H7xx_HAL_Driver/Src/stm32h7xx_hal_rtc_ex.c ****               RTC_TIMESTAMPONTAMPERDETECTION_MASK);
 672:Drivers/STM32H7xx_HAL_Driver/Src/stm32h7xx_hal_rtc_ex.c **** 
 673:Drivers/STM32H7xx_HAL_Driver/Src/stm32h7xx_hal_rtc_ex.c ****   /* Set remaining parameters of desired configuration into temporary variable */
 674:Drivers/STM32H7xx_HAL_Driver/Src/stm32h7xx_hal_rtc_ex.c ****   tmpreg |= ((uint32_t)sTamper->Filter            | \
 809              		.loc 1 674 3 is_stmt 1 view .LVU297
 810              		.loc 1 674 31 is_stmt 0 view .LVU298
 811 0076 4B69     		ldr	r3, [r1, #20]
 675:Drivers/STM32H7xx_HAL_Driver/Src/stm32h7xx_hal_rtc_ex.c ****              (uint32_t)sTamper->SamplingFrequency | \
 812              		.loc 1 675 31 view .LVU299
 813 0078 8A69     		ldr	r2, [r1, #24]
 674:Drivers/STM32H7xx_HAL_Driver/Src/stm32h7xx_hal_rtc_ex.c ****              (uint32_t)sTamper->SamplingFrequency | \
 814              		.loc 1 674 51 view .LVU300
 815 007a 1343     		orrs	r3, r3, r2
 676:Drivers/STM32H7xx_HAL_Driver/Src/stm32h7xx_hal_rtc_ex.c ****              (uint32_t)sTamper->PrechargeDuration | \
 816              		.loc 1 676 31 view .LVU301
 817 007c CA69     		ldr	r2, [r1, #28]
 675:Drivers/STM32H7xx_HAL_Driver/Src/stm32h7xx_hal_rtc_ex.c ****              (uint32_t)sTamper->SamplingFrequency | \
 818              		.loc 1 675 51 view .LVU302
 819 007e 1343     		orrs	r3, r3, r2
 677:Drivers/STM32H7xx_HAL_Driver/Src/stm32h7xx_hal_rtc_ex.c ****              (uint32_t)sTamper->TamperPullUp      | \
 820              		.loc 1 677 31 view .LVU303
 821 0080 0A6A     		ldr	r2, [r1, #32]
 676:Drivers/STM32H7xx_HAL_Driver/Src/stm32h7xx_hal_rtc_ex.c ****              (uint32_t)sTamper->PrechargeDuration | \
 822              		.loc 1 676 51 view .LVU304
 823 0082 1343     		orrs	r3, r3, r2
 678:Drivers/STM32H7xx_HAL_Driver/Src/stm32h7xx_hal_rtc_ex.c ****              (uint32_t)sTamper->TimeStampOnTamperDetection);
 824              		.loc 1 678 31 view .LVU305
 825 0084 4A6A     		ldr	r2, [r1, #36]
 677:Drivers/STM32H7xx_HAL_Driver/Src/stm32h7xx_hal_rtc_ex.c ****              (uint32_t)sTamper->TamperPullUp      | \
 826              		.loc 1 677 51 view .LVU306
 827 0086 1343     		orrs	r3, r3, r2
 674:Drivers/STM32H7xx_HAL_Driver/Src/stm32h7xx_hal_rtc_ex.c ****              (uint32_t)sTamper->SamplingFrequency | \
 828              		.loc 1 674 10 view .LVU307
 829 0088 2343     		orrs	r3, r3, r4
 830              	.LVL62:
 679:Drivers/STM32H7xx_HAL_Driver/Src/stm32h7xx_hal_rtc_ex.c **** 
 680:Drivers/STM32H7xx_HAL_Driver/Src/stm32h7xx_hal_rtc_ex.c ****   /* Copy desired configuration into configuration register */
 681:Drivers/STM32H7xx_HAL_Driver/Src/stm32h7xx_hal_rtc_ex.c ****   hrtc->Instance->TAMPCR = tmpreg;
 831              		.loc 1 681 3 is_stmt 1 view .LVU308
 832              		.loc 1 681 26 is_stmt 0 view .LVU309
 833 008a 2B64     		str	r3, [r5, #64]
 682:Drivers/STM32H7xx_HAL_Driver/Src/stm32h7xx_hal_rtc_ex.c **** 
 683:Drivers/STM32H7xx_HAL_Driver/Src/stm32h7xx_hal_rtc_ex.c ****   hrtc->State = HAL_RTC_STATE_READY;
 834              		.loc 1 683 3 is_stmt 1 view .LVU310
 835              		.loc 1 683 15 is_stmt 0 view .LVU311
 836 008c 0123     		movs	r3, #1
 837              	.LVL63:
ARM GAS  C:\Users\zdy\AppData\Local\Temp\cca8fajE.s 			page 28


 838              		.loc 1 683 15 view .LVU312
 839 008e 80F82130 		strb	r3, [r0, #33]
 840              	.LVL64:
 684:Drivers/STM32H7xx_HAL_Driver/Src/stm32h7xx_hal_rtc_ex.c **** 
 685:Drivers/STM32H7xx_HAL_Driver/Src/stm32h7xx_hal_rtc_ex.c ****   /* Process Unlocked */
 686:Drivers/STM32H7xx_HAL_Driver/Src/stm32h7xx_hal_rtc_ex.c ****   __HAL_UNLOCK(hrtc);
 841              		.loc 1 686 3 is_stmt 1 view .LVU313
 842              		.loc 1 686 3 view .LVU314
 843 0092 0023     		movs	r3, #0
 844 0094 80F82030 		strb	r3, [r0, #32]
 845              		.loc 1 686 3 view .LVU315
 687:Drivers/STM32H7xx_HAL_Driver/Src/stm32h7xx_hal_rtc_ex.c **** 
 688:Drivers/STM32H7xx_HAL_Driver/Src/stm32h7xx_hal_rtc_ex.c ****   return HAL_OK;
 846              		.loc 1 688 3 view .LVU316
 847              		.loc 1 688 10 is_stmt 0 view .LVU317
 848 0098 1846     		mov	r0, r3
 849              	.LVL65:
 689:Drivers/STM32H7xx_HAL_Driver/Src/stm32h7xx_hal_rtc_ex.c **** }
 850              		.loc 1 689 1 view .LVU318
 851 009a 30BC     		pop	{r4, r5}
 852              	.LCFI8:
 853              		.cfi_remember_state
 854              		.cfi_restore 5
 855              		.cfi_restore 4
 856              		.cfi_def_cfa_offset 0
 857 009c 7047     		bx	lr
 858              	.LVL66:
 859              	.L38:
 860              	.LCFI9:
 861              		.cfi_restore_state
 577:Drivers/STM32H7xx_HAL_Driver/Src/stm32h7xx_hal_rtc_ex.c ****   }
 862              		.loc 1 577 5 is_stmt 1 view .LVU319
 577:Drivers/STM32H7xx_HAL_Driver/Src/stm32h7xx_hal_rtc_ex.c ****   }
 863              		.loc 1 577 12 is_stmt 0 view .LVU320
 864 009e 22EA4302 		bic	r2, r2, r3, lsl #1
 865              	.LVL67:
 577:Drivers/STM32H7xx_HAL_Driver/Src/stm32h7xx_hal_rtc_ex.c ****   }
 866              		.loc 1 577 12 view .LVU321
 867 00a2 C3E7     		b	.L39
 868              	.L40:
 605:Drivers/STM32H7xx_HAL_Driver/Src/stm32h7xx_hal_rtc_ex.c ****     {
 869              		.loc 1 605 5 is_stmt 1 view .LVU322
 605:Drivers/STM32H7xx_HAL_Driver/Src/stm32h7xx_hal_rtc_ex.c ****     {
 870              		.loc 1 605 8 is_stmt 0 view .LVU323
 871 00a4 13F0010F 		tst	r3, #1
 872 00a8 01D0     		beq	.L44
 607:Drivers/STM32H7xx_HAL_Driver/Src/stm32h7xx_hal_rtc_ex.c ****     }
 873              		.loc 1 607 7 is_stmt 1 view .LVU324
 607:Drivers/STM32H7xx_HAL_Driver/Src/stm32h7xx_hal_rtc_ex.c ****     }
 874              		.loc 1 607 14 is_stmt 0 view .LVU325
 875 00aa 22F40032 		bic	r2, r2, #131072
 876              	.LVL68:
 877              	.L44:
 611:Drivers/STM32H7xx_HAL_Driver/Src/stm32h7xx_hal_rtc_ex.c ****     {
 878              		.loc 1 611 5 is_stmt 1 view .LVU326
 611:Drivers/STM32H7xx_HAL_Driver/Src/stm32h7xx_hal_rtc_ex.c ****     {
 879              		.loc 1 611 8 is_stmt 0 view .LVU327
ARM GAS  C:\Users\zdy\AppData\Local\Temp\cca8fajE.s 			page 29


 880 00ae 13F0080F 		tst	r3, #8
 881 00b2 01D0     		beq	.L45
 613:Drivers/STM32H7xx_HAL_Driver/Src/stm32h7xx_hal_rtc_ex.c ****     }
 882              		.loc 1 613 7 is_stmt 1 view .LVU328
 613:Drivers/STM32H7xx_HAL_Driver/Src/stm32h7xx_hal_rtc_ex.c ****     }
 883              		.loc 1 613 14 is_stmt 0 view .LVU329
 884 00b4 22F48012 		bic	r2, r2, #1048576
 885              	.LVL69:
 886              	.L45:
 617:Drivers/STM32H7xx_HAL_Driver/Src/stm32h7xx_hal_rtc_ex.c ****     {
 887              		.loc 1 617 5 is_stmt 1 view .LVU330
 617:Drivers/STM32H7xx_HAL_Driver/Src/stm32h7xx_hal_rtc_ex.c ****     {
 888              		.loc 1 617 8 is_stmt 0 view .LVU331
 889 00b8 13F0200F 		tst	r3, #32
 890 00bc C8D0     		beq	.L43
 619:Drivers/STM32H7xx_HAL_Driver/Src/stm32h7xx_hal_rtc_ex.c ****     }
 891              		.loc 1 619 7 is_stmt 1 view .LVU332
 619:Drivers/STM32H7xx_HAL_Driver/Src/stm32h7xx_hal_rtc_ex.c ****     }
 892              		.loc 1 619 14 is_stmt 0 view .LVU333
 893 00be 22F40002 		bic	r2, r2, #8388608
 894              	.LVL70:
 619:Drivers/STM32H7xx_HAL_Driver/Src/stm32h7xx_hal_rtc_ex.c ****     }
 895              		.loc 1 619 14 view .LVU334
 896 00c2 C5E7     		b	.L43
 897              	.L46:
 649:Drivers/STM32H7xx_HAL_Driver/Src/stm32h7xx_hal_rtc_ex.c ****     {
 898              		.loc 1 649 5 is_stmt 1 view .LVU335
 649:Drivers/STM32H7xx_HAL_Driver/Src/stm32h7xx_hal_rtc_ex.c ****     {
 899              		.loc 1 649 8 is_stmt 0 view .LVU336
 900 00c4 13F0010F 		tst	r3, #1
 901 00c8 01D0     		beq	.L50
 651:Drivers/STM32H7xx_HAL_Driver/Src/stm32h7xx_hal_rtc_ex.c ****     }
 902              		.loc 1 651 7 is_stmt 1 view .LVU337
 651:Drivers/STM32H7xx_HAL_Driver/Src/stm32h7xx_hal_rtc_ex.c ****     }
 903              		.loc 1 651 14 is_stmt 0 view .LVU338
 904 00ca 22F48022 		bic	r2, r2, #262144
 905              	.LVL71:
 906              	.L50:
 655:Drivers/STM32H7xx_HAL_Driver/Src/stm32h7xx_hal_rtc_ex.c ****     {
 907              		.loc 1 655 5 is_stmt 1 view .LVU339
 655:Drivers/STM32H7xx_HAL_Driver/Src/stm32h7xx_hal_rtc_ex.c ****     {
 908              		.loc 1 655 8 is_stmt 0 view .LVU340
 909 00ce 13F0080F 		tst	r3, #8
 910 00d2 01D0     		beq	.L51
 657:Drivers/STM32H7xx_HAL_Driver/Src/stm32h7xx_hal_rtc_ex.c ****     }
 911              		.loc 1 657 7 is_stmt 1 view .LVU341
 657:Drivers/STM32H7xx_HAL_Driver/Src/stm32h7xx_hal_rtc_ex.c ****     }
 912              		.loc 1 657 14 is_stmt 0 view .LVU342
 913 00d4 22F40012 		bic	r2, r2, #2097152
 914              	.LVL72:
 915              	.L51:
 661:Drivers/STM32H7xx_HAL_Driver/Src/stm32h7xx_hal_rtc_ex.c ****     {
 916              		.loc 1 661 5 is_stmt 1 view .LVU343
 661:Drivers/STM32H7xx_HAL_Driver/Src/stm32h7xx_hal_rtc_ex.c ****     {
 917              		.loc 1 661 8 is_stmt 0 view .LVU344
 918 00d8 13F0200F 		tst	r3, #32
 919 00dc C9D0     		beq	.L49
ARM GAS  C:\Users\zdy\AppData\Local\Temp\cca8fajE.s 			page 30


 663:Drivers/STM32H7xx_HAL_Driver/Src/stm32h7xx_hal_rtc_ex.c ****     }
 920              		.loc 1 663 7 is_stmt 1 view .LVU345
 663:Drivers/STM32H7xx_HAL_Driver/Src/stm32h7xx_hal_rtc_ex.c ****     }
 921              		.loc 1 663 14 is_stmt 0 view .LVU346
 922 00de 22F08072 		bic	r2, r2, #16777216
 923              	.LVL73:
 663:Drivers/STM32H7xx_HAL_Driver/Src/stm32h7xx_hal_rtc_ex.c ****     }
 924              		.loc 1 663 14 view .LVU347
 925 00e2 C6E7     		b	.L49
 926              	.LVL74:
 927              	.L52:
 928              	.LCFI10:
 929              		.cfi_def_cfa_offset 0
 930              		.cfi_restore 4
 931              		.cfi_restore 5
 558:Drivers/STM32H7xx_HAL_Driver/Src/stm32h7xx_hal_rtc_ex.c **** 
 932              		.loc 1 558 3 view .LVU348
 933 00e4 0220     		movs	r0, #2
 934              	.LVL75:
 935              		.loc 1 689 1 view .LVU349
 936 00e6 7047     		bx	lr
 937              	.L58:
 938              		.align	2
 939              	.L57:
 940 00e8 7F00FFFF 		.word	-65409
 941              		.cfi_endproc
 942              	.LFE339:
 944              		.section	.text.HAL_RTCEx_SetTamper_IT,"ax",%progbits
 945              		.align	1
 946              		.global	HAL_RTCEx_SetTamper_IT
 947              		.syntax unified
 948              		.thumb
 949              		.thumb_func
 951              	HAL_RTCEx_SetTamper_IT:
 952              	.LVL76:
 953              	.LFB340:
 690:Drivers/STM32H7xx_HAL_Driver/Src/stm32h7xx_hal_rtc_ex.c **** #endif /* RTC_TAMPCR_TAMP1E */
 691:Drivers/STM32H7xx_HAL_Driver/Src/stm32h7xx_hal_rtc_ex.c **** 
 692:Drivers/STM32H7xx_HAL_Driver/Src/stm32h7xx_hal_rtc_ex.c **** #if defined(TAMP_CR1_TAMP1E)
 693:Drivers/STM32H7xx_HAL_Driver/Src/stm32h7xx_hal_rtc_ex.c **** /**
 694:Drivers/STM32H7xx_HAL_Driver/Src/stm32h7xx_hal_rtc_ex.c ****   * @brief  Set Tamper with interrupt.
 695:Drivers/STM32H7xx_HAL_Driver/Src/stm32h7xx_hal_rtc_ex.c ****   * @param  hrtc RTC handle
 696:Drivers/STM32H7xx_HAL_Driver/Src/stm32h7xx_hal_rtc_ex.c ****   * @param  sTamper Pointer to Tamper Structure.
 697:Drivers/STM32H7xx_HAL_Driver/Src/stm32h7xx_hal_rtc_ex.c ****   * @retval HAL status
 698:Drivers/STM32H7xx_HAL_Driver/Src/stm32h7xx_hal_rtc_ex.c ****   */
 699:Drivers/STM32H7xx_HAL_Driver/Src/stm32h7xx_hal_rtc_ex.c **** HAL_StatusTypeDef HAL_RTCEx_SetTamper_IT(RTC_HandleTypeDef * hrtc, RTC_TamperTypeDef * sTamper)
 700:Drivers/STM32H7xx_HAL_Driver/Src/stm32h7xx_hal_rtc_ex.c **** {
 701:Drivers/STM32H7xx_HAL_Driver/Src/stm32h7xx_hal_rtc_ex.c ****   uint32_t tmpreg;
 702:Drivers/STM32H7xx_HAL_Driver/Src/stm32h7xx_hal_rtc_ex.c **** 
 703:Drivers/STM32H7xx_HAL_Driver/Src/stm32h7xx_hal_rtc_ex.c ****   /* Point on TAMPER registers base address */
 704:Drivers/STM32H7xx_HAL_Driver/Src/stm32h7xx_hal_rtc_ex.c ****   TAMP_TypeDef *tamp = (TAMP_TypeDef *)((uint32_t)hrtc->Instance + TAMP_OFFSET);
 705:Drivers/STM32H7xx_HAL_Driver/Src/stm32h7xx_hal_rtc_ex.c **** 
 706:Drivers/STM32H7xx_HAL_Driver/Src/stm32h7xx_hal_rtc_ex.c ****   /* Check the parameters */
 707:Drivers/STM32H7xx_HAL_Driver/Src/stm32h7xx_hal_rtc_ex.c ****   assert_param(IS_RTC_TAMPER(sTamper->Tamper));
 708:Drivers/STM32H7xx_HAL_Driver/Src/stm32h7xx_hal_rtc_ex.c ****   assert_param(IS_RTC_TAMPER_TRIGGER(sTamper->Trigger));
 709:Drivers/STM32H7xx_HAL_Driver/Src/stm32h7xx_hal_rtc_ex.c ****   assert_param(IS_RTC_TAMPER_ERASE_MODE(sTamper->NoErase));
 710:Drivers/STM32H7xx_HAL_Driver/Src/stm32h7xx_hal_rtc_ex.c ****   assert_param(IS_RTC_TAMPER_MASKFLAG_STATE(sTamper->MaskFlag));
ARM GAS  C:\Users\zdy\AppData\Local\Temp\cca8fajE.s 			page 31


 711:Drivers/STM32H7xx_HAL_Driver/Src/stm32h7xx_hal_rtc_ex.c ****   assert_param(IS_RTC_TAMPER_FILTER(sTamper->Filter));
 712:Drivers/STM32H7xx_HAL_Driver/Src/stm32h7xx_hal_rtc_ex.c ****   assert_param(IS_RTC_TAMPER_SAMPLING_FREQ(sTamper->SamplingFrequency));
 713:Drivers/STM32H7xx_HAL_Driver/Src/stm32h7xx_hal_rtc_ex.c ****   assert_param(IS_RTC_TAMPER_PRECHARGE_DURATION(sTamper->PrechargeDuration));
 714:Drivers/STM32H7xx_HAL_Driver/Src/stm32h7xx_hal_rtc_ex.c ****   assert_param(IS_RTC_TAMPER_PULLUP_STATE(sTamper->TamperPullUp));
 715:Drivers/STM32H7xx_HAL_Driver/Src/stm32h7xx_hal_rtc_ex.c ****   assert_param(IS_RTC_TAMPER_TIMESTAMPONTAMPER_DETECTION(sTamper->TimeStampOnTamperDetection));
 716:Drivers/STM32H7xx_HAL_Driver/Src/stm32h7xx_hal_rtc_ex.c ****   assert_param(IS_RTC_TAMPER_FILTER_CONFIG_CORRECT(sTamper->Filter, sTamper->Trigger));
 717:Drivers/STM32H7xx_HAL_Driver/Src/stm32h7xx_hal_rtc_ex.c **** 
 718:Drivers/STM32H7xx_HAL_Driver/Src/stm32h7xx_hal_rtc_ex.c ****   /* Copy configuration register into temporary variable */
 719:Drivers/STM32H7xx_HAL_Driver/Src/stm32h7xx_hal_rtc_ex.c ****   tmpreg = tamp->CR2;
 720:Drivers/STM32H7xx_HAL_Driver/Src/stm32h7xx_hal_rtc_ex.c **** 
 721:Drivers/STM32H7xx_HAL_Driver/Src/stm32h7xx_hal_rtc_ex.c ****   /* Clear the bits that are going to be configured and leave the others unchanged */
 722:Drivers/STM32H7xx_HAL_Driver/Src/stm32h7xx_hal_rtc_ex.c ****   tmpreg &= ~((sTamper->Tamper << TAMP_CR2_TAMP1TRG_Pos) | (sTamper->Tamper << TAMP_CR2_TAMP1MSK_Po
 723:Drivers/STM32H7xx_HAL_Driver/Src/stm32h7xx_hal_rtc_ex.c **** 
 724:Drivers/STM32H7xx_HAL_Driver/Src/stm32h7xx_hal_rtc_ex.c ****   /* Configure the tamper trigger bit */
 725:Drivers/STM32H7xx_HAL_Driver/Src/stm32h7xx_hal_rtc_ex.c ****   if ((sTamper->Trigger == RTC_TAMPERTRIGGER_HIGHLEVEL) || (sTamper->Trigger == RTC_TAMPERTRIGGER_F
 726:Drivers/STM32H7xx_HAL_Driver/Src/stm32h7xx_hal_rtc_ex.c ****   {
 727:Drivers/STM32H7xx_HAL_Driver/Src/stm32h7xx_hal_rtc_ex.c ****     tmpreg |= (sTamper->Tamper << TAMP_CR2_TAMP1TRG_Pos);
 728:Drivers/STM32H7xx_HAL_Driver/Src/stm32h7xx_hal_rtc_ex.c ****   }
 729:Drivers/STM32H7xx_HAL_Driver/Src/stm32h7xx_hal_rtc_ex.c **** 
 730:Drivers/STM32H7xx_HAL_Driver/Src/stm32h7xx_hal_rtc_ex.c ****   /* Configure the tamper flags masking bit */
 731:Drivers/STM32H7xx_HAL_Driver/Src/stm32h7xx_hal_rtc_ex.c ****   if (sTamper->MaskFlag != RTC_TAMPERMASK_FLAG_DISABLE)
 732:Drivers/STM32H7xx_HAL_Driver/Src/stm32h7xx_hal_rtc_ex.c ****   {
 733:Drivers/STM32H7xx_HAL_Driver/Src/stm32h7xx_hal_rtc_ex.c ****     tmpreg |= (sTamper->Tamper << TAMP_CR2_TAMP1MSK_Pos);
 734:Drivers/STM32H7xx_HAL_Driver/Src/stm32h7xx_hal_rtc_ex.c ****   }
 735:Drivers/STM32H7xx_HAL_Driver/Src/stm32h7xx_hal_rtc_ex.c **** 
 736:Drivers/STM32H7xx_HAL_Driver/Src/stm32h7xx_hal_rtc_ex.c ****   /* Configure the tamper backup registers erasure bit */
 737:Drivers/STM32H7xx_HAL_Driver/Src/stm32h7xx_hal_rtc_ex.c ****   if (sTamper->NoErase != RTC_TAMPER_ERASE_BACKUP_ENABLE)
 738:Drivers/STM32H7xx_HAL_Driver/Src/stm32h7xx_hal_rtc_ex.c ****   {
 739:Drivers/STM32H7xx_HAL_Driver/Src/stm32h7xx_hal_rtc_ex.c ****     tmpreg |= (sTamper->Tamper << TAMP_CR2_TAMP1NOERASE_Pos);
 740:Drivers/STM32H7xx_HAL_Driver/Src/stm32h7xx_hal_rtc_ex.c ****   }
 741:Drivers/STM32H7xx_HAL_Driver/Src/stm32h7xx_hal_rtc_ex.c ****   tamp->CR2 = tmpreg;
 742:Drivers/STM32H7xx_HAL_Driver/Src/stm32h7xx_hal_rtc_ex.c **** 
 743:Drivers/STM32H7xx_HAL_Driver/Src/stm32h7xx_hal_rtc_ex.c ****   /* Configure filtering parameters */
 744:Drivers/STM32H7xx_HAL_Driver/Src/stm32h7xx_hal_rtc_ex.c ****   tamp->FLTCR = (sTamper->Filter)            | (sTamper->SamplingFrequency) | \
 745:Drivers/STM32H7xx_HAL_Driver/Src/stm32h7xx_hal_rtc_ex.c ****                 (sTamper->PrechargeDuration) | (sTamper->TamperPullUp);
 746:Drivers/STM32H7xx_HAL_Driver/Src/stm32h7xx_hal_rtc_ex.c **** 
 747:Drivers/STM32H7xx_HAL_Driver/Src/stm32h7xx_hal_rtc_ex.c ****   /* Configure Timestamp saving on tamper detection */
 748:Drivers/STM32H7xx_HAL_Driver/Src/stm32h7xx_hal_rtc_ex.c ****   if ((hrtc->Instance->CR & RTC_CR_TAMPTS) != (sTamper->TimeStampOnTamperDetection))
 749:Drivers/STM32H7xx_HAL_Driver/Src/stm32h7xx_hal_rtc_ex.c ****   {
 750:Drivers/STM32H7xx_HAL_Driver/Src/stm32h7xx_hal_rtc_ex.c ****     __HAL_RTC_WRITEPROTECTION_DISABLE(hrtc);
 751:Drivers/STM32H7xx_HAL_Driver/Src/stm32h7xx_hal_rtc_ex.c ****     tmpreg = (hrtc->Instance->CR & ~RTC_CR_TAMPTS);
 752:Drivers/STM32H7xx_HAL_Driver/Src/stm32h7xx_hal_rtc_ex.c ****     hrtc->Instance->CR = (tmpreg | (sTamper->TimeStampOnTamperDetection));
 753:Drivers/STM32H7xx_HAL_Driver/Src/stm32h7xx_hal_rtc_ex.c ****     __HAL_RTC_WRITEPROTECTION_ENABLE(hrtc);
 754:Drivers/STM32H7xx_HAL_Driver/Src/stm32h7xx_hal_rtc_ex.c ****   }
 755:Drivers/STM32H7xx_HAL_Driver/Src/stm32h7xx_hal_rtc_ex.c **** 
 756:Drivers/STM32H7xx_HAL_Driver/Src/stm32h7xx_hal_rtc_ex.c ****   /* Configure RTC Tamper Interrupt: EXTI configuration */
 757:Drivers/STM32H7xx_HAL_Driver/Src/stm32h7xx_hal_rtc_ex.c ****   __HAL_RTC_TAMPER_TIMESTAMP_EXTI_ENABLE_IT();
 758:Drivers/STM32H7xx_HAL_Driver/Src/stm32h7xx_hal_rtc_ex.c ****   __HAL_RTC_TAMPER_TIMESTAMP_EXTI_ENABLE_RISING_FALLING_EDGE();
 759:Drivers/STM32H7xx_HAL_Driver/Src/stm32h7xx_hal_rtc_ex.c **** 
 760:Drivers/STM32H7xx_HAL_Driver/Src/stm32h7xx_hal_rtc_ex.c ****   /* Enable interrupt on selected tamper */
 761:Drivers/STM32H7xx_HAL_Driver/Src/stm32h7xx_hal_rtc_ex.c ****   tamp->IER |= sTamper->Tamper;
 762:Drivers/STM32H7xx_HAL_Driver/Src/stm32h7xx_hal_rtc_ex.c **** 
 763:Drivers/STM32H7xx_HAL_Driver/Src/stm32h7xx_hal_rtc_ex.c ****   /* Enable selected tamper */
 764:Drivers/STM32H7xx_HAL_Driver/Src/stm32h7xx_hal_rtc_ex.c ****   tamp->CR1 |= sTamper->Tamper;
 765:Drivers/STM32H7xx_HAL_Driver/Src/stm32h7xx_hal_rtc_ex.c **** 
 766:Drivers/STM32H7xx_HAL_Driver/Src/stm32h7xx_hal_rtc_ex.c ****   return HAL_OK;
 767:Drivers/STM32H7xx_HAL_Driver/Src/stm32h7xx_hal_rtc_ex.c **** }
ARM GAS  C:\Users\zdy\AppData\Local\Temp\cca8fajE.s 			page 32


 768:Drivers/STM32H7xx_HAL_Driver/Src/stm32h7xx_hal_rtc_ex.c **** #endif /* TAMP_CR1_TAMP1E */
 769:Drivers/STM32H7xx_HAL_Driver/Src/stm32h7xx_hal_rtc_ex.c **** #if defined(RTC_TAMPCR_TAMP1E)
 770:Drivers/STM32H7xx_HAL_Driver/Src/stm32h7xx_hal_rtc_ex.c **** /**
 771:Drivers/STM32H7xx_HAL_Driver/Src/stm32h7xx_hal_rtc_ex.c ****   * @brief  Set Tamper with interrupt.
 772:Drivers/STM32H7xx_HAL_Driver/Src/stm32h7xx_hal_rtc_ex.c ****   * @note   By calling this API we force the tamper interrupt for all tampers.
 773:Drivers/STM32H7xx_HAL_Driver/Src/stm32h7xx_hal_rtc_ex.c ****   * @param  hrtc RTC handle
 774:Drivers/STM32H7xx_HAL_Driver/Src/stm32h7xx_hal_rtc_ex.c ****   * @param  sTamper Pointer to Tamper Structure.
 775:Drivers/STM32H7xx_HAL_Driver/Src/stm32h7xx_hal_rtc_ex.c ****   * @retval HAL status
 776:Drivers/STM32H7xx_HAL_Driver/Src/stm32h7xx_hal_rtc_ex.c ****   */
 777:Drivers/STM32H7xx_HAL_Driver/Src/stm32h7xx_hal_rtc_ex.c **** HAL_StatusTypeDef HAL_RTCEx_SetTamper_IT(RTC_HandleTypeDef * hrtc, RTC_TamperTypeDef * sTamper)
 778:Drivers/STM32H7xx_HAL_Driver/Src/stm32h7xx_hal_rtc_ex.c **** {
 954              		.loc 1 778 1 is_stmt 1 view -0
 955              		.cfi_startproc
 956              		@ args = 0, pretend = 0, frame = 0
 957              		@ frame_needed = 0, uses_anonymous_args = 0
 958              		@ link register save eliminated.
 779:Drivers/STM32H7xx_HAL_Driver/Src/stm32h7xx_hal_rtc_ex.c ****   uint32_t tmpreg;
 959              		.loc 1 779 3 view .LVU351
 780:Drivers/STM32H7xx_HAL_Driver/Src/stm32h7xx_hal_rtc_ex.c **** 
 781:Drivers/STM32H7xx_HAL_Driver/Src/stm32h7xx_hal_rtc_ex.c ****   /* Check the parameters */
 782:Drivers/STM32H7xx_HAL_Driver/Src/stm32h7xx_hal_rtc_ex.c ****   assert_param(IS_RTC_TAMPER(sTamper->Tamper));
 960              		.loc 1 782 3 view .LVU352
 783:Drivers/STM32H7xx_HAL_Driver/Src/stm32h7xx_hal_rtc_ex.c ****   assert_param(IS_RTC_TAMPER_INTERRUPT(sTamper->Interrupt));
 961              		.loc 1 783 3 view .LVU353
 784:Drivers/STM32H7xx_HAL_Driver/Src/stm32h7xx_hal_rtc_ex.c ****   assert_param(IS_RTC_TAMPER_TRIGGER(sTamper->Trigger));
 962              		.loc 1 784 3 view .LVU354
 785:Drivers/STM32H7xx_HAL_Driver/Src/stm32h7xx_hal_rtc_ex.c ****   assert_param(IS_RTC_TAMPER_ERASE_MODE(sTamper->NoErase));
 963              		.loc 1 785 3 view .LVU355
 786:Drivers/STM32H7xx_HAL_Driver/Src/stm32h7xx_hal_rtc_ex.c ****   assert_param(IS_RTC_TAMPER_MASKFLAG_STATE(sTamper->MaskFlag));
 964              		.loc 1 786 3 view .LVU356
 787:Drivers/STM32H7xx_HAL_Driver/Src/stm32h7xx_hal_rtc_ex.c ****   assert_param(IS_RTC_TAMPER_FILTER(sTamper->Filter));
 965              		.loc 1 787 3 view .LVU357
 788:Drivers/STM32H7xx_HAL_Driver/Src/stm32h7xx_hal_rtc_ex.c ****   assert_param(IS_RTC_TAMPER_SAMPLING_FREQ(sTamper->SamplingFrequency));
 966              		.loc 1 788 3 view .LVU358
 789:Drivers/STM32H7xx_HAL_Driver/Src/stm32h7xx_hal_rtc_ex.c ****   assert_param(IS_RTC_TAMPER_PRECHARGE_DURATION(sTamper->PrechargeDuration));
 967              		.loc 1 789 3 view .LVU359
 790:Drivers/STM32H7xx_HAL_Driver/Src/stm32h7xx_hal_rtc_ex.c ****   assert_param(IS_RTC_TAMPER_PULLUP_STATE(sTamper->TamperPullUp));
 968              		.loc 1 790 3 view .LVU360
 791:Drivers/STM32H7xx_HAL_Driver/Src/stm32h7xx_hal_rtc_ex.c ****   assert_param(IS_RTC_TAMPER_TIMESTAMPONTAMPER_DETECTION(sTamper->TimeStampOnTamperDetection));
 969              		.loc 1 791 3 view .LVU361
 792:Drivers/STM32H7xx_HAL_Driver/Src/stm32h7xx_hal_rtc_ex.c ****   assert_param(IS_RTC_TAMPER_FILTER_CONFIG_CORRECT(sTamper->Filter, sTamper->Trigger));
 970              		.loc 1 792 3 view .LVU362
 793:Drivers/STM32H7xx_HAL_Driver/Src/stm32h7xx_hal_rtc_ex.c **** 
 794:Drivers/STM32H7xx_HAL_Driver/Src/stm32h7xx_hal_rtc_ex.c ****   /* Process Locked */
 795:Drivers/STM32H7xx_HAL_Driver/Src/stm32h7xx_hal_rtc_ex.c ****   __HAL_LOCK(hrtc);
 971              		.loc 1 795 3 view .LVU363
 972              		.loc 1 795 3 view .LVU364
 973 0000 90F82030 		ldrb	r3, [r0, #32]	@ zero_extendqisi2
 974 0004 012B     		cmp	r3, #1
 975 0006 7CD0     		beq	.L75
 778:Drivers/STM32H7xx_HAL_Driver/Src/stm32h7xx_hal_rtc_ex.c ****   uint32_t tmpreg;
 976              		.loc 1 778 1 is_stmt 0 discriminator 2 view .LVU365
 977 0008 30B4     		push	{r4, r5}
 978              	.LCFI11:
 979              		.cfi_def_cfa_offset 8
 980              		.cfi_offset 4, -8
 981              		.cfi_offset 5, -4
ARM GAS  C:\Users\zdy\AppData\Local\Temp\cca8fajE.s 			page 33


 982              		.loc 1 795 3 is_stmt 1 discriminator 2 view .LVU366
 983 000a 0123     		movs	r3, #1
 984 000c 80F82030 		strb	r3, [r0, #32]
 985              		.loc 1 795 3 discriminator 2 view .LVU367
 796:Drivers/STM32H7xx_HAL_Driver/Src/stm32h7xx_hal_rtc_ex.c **** 
 797:Drivers/STM32H7xx_HAL_Driver/Src/stm32h7xx_hal_rtc_ex.c ****   hrtc->State = HAL_RTC_STATE_BUSY;
 986              		.loc 1 797 3 discriminator 2 view .LVU368
 987              		.loc 1 797 15 is_stmt 0 discriminator 2 view .LVU369
 988 0010 0223     		movs	r3, #2
 989 0012 80F82130 		strb	r3, [r0, #33]
 798:Drivers/STM32H7xx_HAL_Driver/Src/stm32h7xx_hal_rtc_ex.c **** 
 799:Drivers/STM32H7xx_HAL_Driver/Src/stm32h7xx_hal_rtc_ex.c ****   /* Copy control register into temporary variable */
 800:Drivers/STM32H7xx_HAL_Driver/Src/stm32h7xx_hal_rtc_ex.c ****   tmpreg = hrtc->Instance->TAMPCR;
 990              		.loc 1 800 3 is_stmt 1 discriminator 2 view .LVU370
 991              		.loc 1 800 16 is_stmt 0 discriminator 2 view .LVU371
 992 0016 0468     		ldr	r4, [r0]
 993              		.loc 1 800 10 discriminator 2 view .LVU372
 994 0018 226C     		ldr	r2, [r4, #64]
 995              	.LVL77:
 801:Drivers/STM32H7xx_HAL_Driver/Src/stm32h7xx_hal_rtc_ex.c **** 
 802:Drivers/STM32H7xx_HAL_Driver/Src/stm32h7xx_hal_rtc_ex.c ****   /* Enable selected tamper */
 803:Drivers/STM32H7xx_HAL_Driver/Src/stm32h7xx_hal_rtc_ex.c ****   tmpreg |= (sTamper->Tamper);
 996              		.loc 1 803 3 is_stmt 1 discriminator 2 view .LVU373
 997              		.loc 1 803 21 is_stmt 0 discriminator 2 view .LVU374
 998 001a 0B68     		ldr	r3, [r1]
 999              		.loc 1 803 10 discriminator 2 view .LVU375
 1000 001c 1A43     		orrs	r2, r2, r3
 1001              	.LVL78:
 804:Drivers/STM32H7xx_HAL_Driver/Src/stm32h7xx_hal_rtc_ex.c **** 
 805:Drivers/STM32H7xx_HAL_Driver/Src/stm32h7xx_hal_rtc_ex.c ****   /* Configure the tamper trigger bit (located just next to the tamper enable bit) */
 806:Drivers/STM32H7xx_HAL_Driver/Src/stm32h7xx_hal_rtc_ex.c ****   if ((sTamper->Trigger == RTC_TAMPERTRIGGER_HIGHLEVEL) || (sTamper->Trigger == RTC_TAMPERTRIGGER_F
 1002              		.loc 1 806 3 is_stmt 1 discriminator 2 view .LVU376
 1003              		.loc 1 806 15 is_stmt 0 discriminator 2 view .LVU377
 1004 001e 8D68     		ldr	r5, [r1, #8]
 1005              		.loc 1 806 6 discriminator 2 view .LVU378
 1006 0020 022D     		cmp	r5, #2
 1007 0022 18BF     		it	ne
 1008 0024 082D     		cmpne	r5, #8
 1009 0026 49D1     		bne	.L61
 807:Drivers/STM32H7xx_HAL_Driver/Src/stm32h7xx_hal_rtc_ex.c ****   {
 808:Drivers/STM32H7xx_HAL_Driver/Src/stm32h7xx_hal_rtc_ex.c ****     /* Set the tamper trigger bit */
 809:Drivers/STM32H7xx_HAL_Driver/Src/stm32h7xx_hal_rtc_ex.c ****     tmpreg |= (uint32_t)(sTamper->Tamper << 1U);
 1010              		.loc 1 809 5 is_stmt 1 view .LVU379
 1011              		.loc 1 809 12 is_stmt 0 view .LVU380
 1012 0028 42EA4302 		orr	r2, r2, r3, lsl #1
 1013              	.LVL79:
 1014              	.L62:
 810:Drivers/STM32H7xx_HAL_Driver/Src/stm32h7xx_hal_rtc_ex.c ****   }
 811:Drivers/STM32H7xx_HAL_Driver/Src/stm32h7xx_hal_rtc_ex.c ****   else
 812:Drivers/STM32H7xx_HAL_Driver/Src/stm32h7xx_hal_rtc_ex.c ****   {
 813:Drivers/STM32H7xx_HAL_Driver/Src/stm32h7xx_hal_rtc_ex.c ****     /* Clear the tamper trigger bit */
 814:Drivers/STM32H7xx_HAL_Driver/Src/stm32h7xx_hal_rtc_ex.c ****     tmpreg &= (uint32_t)~(sTamper->Tamper << 1U);
 815:Drivers/STM32H7xx_HAL_Driver/Src/stm32h7xx_hal_rtc_ex.c ****   }
 816:Drivers/STM32H7xx_HAL_Driver/Src/stm32h7xx_hal_rtc_ex.c **** 
 817:Drivers/STM32H7xx_HAL_Driver/Src/stm32h7xx_hal_rtc_ex.c ****   /* Configure the tamper backup registers erasure bit */
 818:Drivers/STM32H7xx_HAL_Driver/Src/stm32h7xx_hal_rtc_ex.c ****   if (sTamper->NoErase != RTC_TAMPER_ERASE_BACKUP_ENABLE)
 1015              		.loc 1 818 3 is_stmt 1 view .LVU381
ARM GAS  C:\Users\zdy\AppData\Local\Temp\cca8fajE.s 			page 34


 1016              		.loc 1 818 14 is_stmt 0 view .LVU382
 1017 002c CD68     		ldr	r5, [r1, #12]
 1018              		.loc 1 818 6 view .LVU383
 1019 002e 002D     		cmp	r5, #0
 1020 0030 47D0     		beq	.L63
 819:Drivers/STM32H7xx_HAL_Driver/Src/stm32h7xx_hal_rtc_ex.c ****   {
 820:Drivers/STM32H7xx_HAL_Driver/Src/stm32h7xx_hal_rtc_ex.c **** #if defined(RTC_TAMPCR_TAMP1E)
 821:Drivers/STM32H7xx_HAL_Driver/Src/stm32h7xx_hal_rtc_ex.c ****     if ((sTamper->Tamper & RTC_TAMPER_1) != 0U)
 1021              		.loc 1 821 5 is_stmt 1 view .LVU384
 1022              		.loc 1 821 8 is_stmt 0 view .LVU385
 1023 0032 13F0010F 		tst	r3, #1
 1024 0036 01D0     		beq	.L64
 822:Drivers/STM32H7xx_HAL_Driver/Src/stm32h7xx_hal_rtc_ex.c ****     {
 823:Drivers/STM32H7xx_HAL_Driver/Src/stm32h7xx_hal_rtc_ex.c ****       tmpreg |= (uint32_t)(RTC_TAMPCR_TAMP1NOERASE);
 1025              		.loc 1 823 7 is_stmt 1 view .LVU386
 1026              		.loc 1 823 14 is_stmt 0 view .LVU387
 1027 0038 42F40032 		orr	r2, r2, #131072
 1028              	.LVL80:
 1029              	.L64:
 824:Drivers/STM32H7xx_HAL_Driver/Src/stm32h7xx_hal_rtc_ex.c ****     }
 825:Drivers/STM32H7xx_HAL_Driver/Src/stm32h7xx_hal_rtc_ex.c **** #endif /* RTC_TAMPCR_TAMP1E */
 826:Drivers/STM32H7xx_HAL_Driver/Src/stm32h7xx_hal_rtc_ex.c **** #if defined(RTC_TAMPCR_TAMP2E)
 827:Drivers/STM32H7xx_HAL_Driver/Src/stm32h7xx_hal_rtc_ex.c ****     if ((sTamper->Tamper & RTC_TAMPER_2) != 0U)
 1030              		.loc 1 827 5 is_stmt 1 view .LVU388
 1031              		.loc 1 827 8 is_stmt 0 view .LVU389
 1032 003c 13F0080F 		tst	r3, #8
 1033 0040 01D0     		beq	.L65
 828:Drivers/STM32H7xx_HAL_Driver/Src/stm32h7xx_hal_rtc_ex.c ****     {
 829:Drivers/STM32H7xx_HAL_Driver/Src/stm32h7xx_hal_rtc_ex.c ****       tmpreg |= (uint32_t)(RTC_TAMPCR_TAMP2NOERASE);
 1034              		.loc 1 829 7 is_stmt 1 view .LVU390
 1035              		.loc 1 829 14 is_stmt 0 view .LVU391
 1036 0042 42F48012 		orr	r2, r2, #1048576
 1037              	.LVL81:
 1038              	.L65:
 830:Drivers/STM32H7xx_HAL_Driver/Src/stm32h7xx_hal_rtc_ex.c ****     }
 831:Drivers/STM32H7xx_HAL_Driver/Src/stm32h7xx_hal_rtc_ex.c **** #endif /* RTC_TAMPCR_TAMP2E */
 832:Drivers/STM32H7xx_HAL_Driver/Src/stm32h7xx_hal_rtc_ex.c **** #if defined(RTC_TAMPCR_TAMP3E)
 833:Drivers/STM32H7xx_HAL_Driver/Src/stm32h7xx_hal_rtc_ex.c ****     if ((sTamper->Tamper & RTC_TAMPER_3) != 0U)
 1039              		.loc 1 833 5 is_stmt 1 view .LVU392
 1040              		.loc 1 833 8 is_stmt 0 view .LVU393
 1041 0046 13F0200F 		tst	r3, #32
 1042 004a 01D0     		beq	.L66
 834:Drivers/STM32H7xx_HAL_Driver/Src/stm32h7xx_hal_rtc_ex.c ****     {
 835:Drivers/STM32H7xx_HAL_Driver/Src/stm32h7xx_hal_rtc_ex.c ****       tmpreg |= (uint32_t)(RTC_TAMPCR_TAMP3NOERASE);
 1043              		.loc 1 835 7 is_stmt 1 view .LVU394
 1044              		.loc 1 835 14 is_stmt 0 view .LVU395
 1045 004c 42F40002 		orr	r2, r2, #8388608
 1046              	.LVL82:
 1047              	.L66:
 836:Drivers/STM32H7xx_HAL_Driver/Src/stm32h7xx_hal_rtc_ex.c ****     }
 837:Drivers/STM32H7xx_HAL_Driver/Src/stm32h7xx_hal_rtc_ex.c **** #endif /* RTC_TAMPCR_TAMP3E */
 838:Drivers/STM32H7xx_HAL_Driver/Src/stm32h7xx_hal_rtc_ex.c ****   }
 839:Drivers/STM32H7xx_HAL_Driver/Src/stm32h7xx_hal_rtc_ex.c ****   else
 840:Drivers/STM32H7xx_HAL_Driver/Src/stm32h7xx_hal_rtc_ex.c ****   {
 841:Drivers/STM32H7xx_HAL_Driver/Src/stm32h7xx_hal_rtc_ex.c **** #if defined(RTC_TAMPCR_TAMP1E)
 842:Drivers/STM32H7xx_HAL_Driver/Src/stm32h7xx_hal_rtc_ex.c ****     if ((sTamper->Tamper & RTC_TAMPER_1) != 0U)
 843:Drivers/STM32H7xx_HAL_Driver/Src/stm32h7xx_hal_rtc_ex.c ****     {
ARM GAS  C:\Users\zdy\AppData\Local\Temp\cca8fajE.s 			page 35


 844:Drivers/STM32H7xx_HAL_Driver/Src/stm32h7xx_hal_rtc_ex.c ****       tmpreg &= (uint32_t)~(RTC_TAMPCR_TAMP1NOERASE);
 845:Drivers/STM32H7xx_HAL_Driver/Src/stm32h7xx_hal_rtc_ex.c ****     }
 846:Drivers/STM32H7xx_HAL_Driver/Src/stm32h7xx_hal_rtc_ex.c **** #endif /* RTC_TAMPCR_TAMP1E */
 847:Drivers/STM32H7xx_HAL_Driver/Src/stm32h7xx_hal_rtc_ex.c **** #if defined(RTC_TAMPCR_TAMP2E)
 848:Drivers/STM32H7xx_HAL_Driver/Src/stm32h7xx_hal_rtc_ex.c ****     if ((sTamper->Tamper & RTC_TAMPER_2) != 0U)
 849:Drivers/STM32H7xx_HAL_Driver/Src/stm32h7xx_hal_rtc_ex.c ****     {
 850:Drivers/STM32H7xx_HAL_Driver/Src/stm32h7xx_hal_rtc_ex.c ****       tmpreg &= (uint32_t)~(RTC_TAMPCR_TAMP2NOERASE);
 851:Drivers/STM32H7xx_HAL_Driver/Src/stm32h7xx_hal_rtc_ex.c ****     }
 852:Drivers/STM32H7xx_HAL_Driver/Src/stm32h7xx_hal_rtc_ex.c **** #endif /* RTC_TAMPCR_TAMP2E */
 853:Drivers/STM32H7xx_HAL_Driver/Src/stm32h7xx_hal_rtc_ex.c **** #if defined(RTC_TAMPCR_TAMP3E)
 854:Drivers/STM32H7xx_HAL_Driver/Src/stm32h7xx_hal_rtc_ex.c ****     if ((sTamper->Tamper & RTC_TAMPER_3) != 0U)
 855:Drivers/STM32H7xx_HAL_Driver/Src/stm32h7xx_hal_rtc_ex.c ****     {
 856:Drivers/STM32H7xx_HAL_Driver/Src/stm32h7xx_hal_rtc_ex.c ****       tmpreg &= (uint32_t)~(RTC_TAMPCR_TAMP3NOERASE);
 857:Drivers/STM32H7xx_HAL_Driver/Src/stm32h7xx_hal_rtc_ex.c ****     }
 858:Drivers/STM32H7xx_HAL_Driver/Src/stm32h7xx_hal_rtc_ex.c **** #endif /* RTC_TAMPCR_TAMP3E */
 859:Drivers/STM32H7xx_HAL_Driver/Src/stm32h7xx_hal_rtc_ex.c ****   }
 860:Drivers/STM32H7xx_HAL_Driver/Src/stm32h7xx_hal_rtc_ex.c **** 
 861:Drivers/STM32H7xx_HAL_Driver/Src/stm32h7xx_hal_rtc_ex.c ****   /* Configure the tamper flags masking bit */
 862:Drivers/STM32H7xx_HAL_Driver/Src/stm32h7xx_hal_rtc_ex.c ****   if (sTamper->MaskFlag != RTC_TAMPERMASK_FLAG_DISABLE)
 1048              		.loc 1 862 3 is_stmt 1 view .LVU396
 1049              		.loc 1 862 14 is_stmt 0 view .LVU397
 1050 0050 0D69     		ldr	r5, [r1, #16]
 1051              		.loc 1 862 6 view .LVU398
 1052 0052 002D     		cmp	r5, #0
 1053 0054 45D0     		beq	.L69
 863:Drivers/STM32H7xx_HAL_Driver/Src/stm32h7xx_hal_rtc_ex.c ****   {
 864:Drivers/STM32H7xx_HAL_Driver/Src/stm32h7xx_hal_rtc_ex.c **** #if defined(RTC_TAMPCR_TAMP1E)
 865:Drivers/STM32H7xx_HAL_Driver/Src/stm32h7xx_hal_rtc_ex.c ****     if ((sTamper->Tamper & RTC_TAMPER_1) != 0U)
 1054              		.loc 1 865 5 is_stmt 1 view .LVU399
 1055              		.loc 1 865 8 is_stmt 0 view .LVU400
 1056 0056 13F0010F 		tst	r3, #1
 1057 005a 01D0     		beq	.L70
 866:Drivers/STM32H7xx_HAL_Driver/Src/stm32h7xx_hal_rtc_ex.c ****     {
 867:Drivers/STM32H7xx_HAL_Driver/Src/stm32h7xx_hal_rtc_ex.c ****       tmpreg |= (uint32_t)(RTC_TAMPCR_TAMP1MF);
 1058              		.loc 1 867 7 is_stmt 1 view .LVU401
 1059              		.loc 1 867 14 is_stmt 0 view .LVU402
 1060 005c 42F48022 		orr	r2, r2, #262144
 1061              	.LVL83:
 1062              	.L70:
 868:Drivers/STM32H7xx_HAL_Driver/Src/stm32h7xx_hal_rtc_ex.c ****     }
 869:Drivers/STM32H7xx_HAL_Driver/Src/stm32h7xx_hal_rtc_ex.c **** #endif /* RTC_TAMPCR_TAMP1E */
 870:Drivers/STM32H7xx_HAL_Driver/Src/stm32h7xx_hal_rtc_ex.c **** #if defined(RTC_TAMPCR_TAMP2E)
 871:Drivers/STM32H7xx_HAL_Driver/Src/stm32h7xx_hal_rtc_ex.c ****     if ((sTamper->Tamper & RTC_TAMPER_2) != 0U)
 1063              		.loc 1 871 5 is_stmt 1 view .LVU403
 1064              		.loc 1 871 8 is_stmt 0 view .LVU404
 1065 0060 13F0080F 		tst	r3, #8
 1066 0064 01D0     		beq	.L71
 872:Drivers/STM32H7xx_HAL_Driver/Src/stm32h7xx_hal_rtc_ex.c ****     {
 873:Drivers/STM32H7xx_HAL_Driver/Src/stm32h7xx_hal_rtc_ex.c ****       tmpreg |= (uint32_t)(RTC_TAMPCR_TAMP2MF);
 1067              		.loc 1 873 7 is_stmt 1 view .LVU405
 1068              		.loc 1 873 14 is_stmt 0 view .LVU406
 1069 0066 42F40012 		orr	r2, r2, #2097152
 1070              	.LVL84:
 1071              	.L71:
 874:Drivers/STM32H7xx_HAL_Driver/Src/stm32h7xx_hal_rtc_ex.c ****     }
 875:Drivers/STM32H7xx_HAL_Driver/Src/stm32h7xx_hal_rtc_ex.c **** #endif /* RTC_TAMPCR_TAMP2E */
 876:Drivers/STM32H7xx_HAL_Driver/Src/stm32h7xx_hal_rtc_ex.c **** #if defined(RTC_TAMPCR_TAMP3E)
ARM GAS  C:\Users\zdy\AppData\Local\Temp\cca8fajE.s 			page 36


 877:Drivers/STM32H7xx_HAL_Driver/Src/stm32h7xx_hal_rtc_ex.c ****     if ((sTamper->Tamper & RTC_TAMPER_3) != 0U)
 1072              		.loc 1 877 5 is_stmt 1 view .LVU407
 1073              		.loc 1 877 8 is_stmt 0 view .LVU408
 1074 006a 13F0200F 		tst	r3, #32
 1075 006e 01D0     		beq	.L72
 878:Drivers/STM32H7xx_HAL_Driver/Src/stm32h7xx_hal_rtc_ex.c ****     {
 879:Drivers/STM32H7xx_HAL_Driver/Src/stm32h7xx_hal_rtc_ex.c ****       tmpreg |= (uint32_t)(RTC_TAMPCR_TAMP3MF);
 1076              		.loc 1 879 7 is_stmt 1 view .LVU409
 1077              		.loc 1 879 14 is_stmt 0 view .LVU410
 1078 0070 42F08072 		orr	r2, r2, #16777216
 1079              	.LVL85:
 1080              	.L72:
 880:Drivers/STM32H7xx_HAL_Driver/Src/stm32h7xx_hal_rtc_ex.c ****     }
 881:Drivers/STM32H7xx_HAL_Driver/Src/stm32h7xx_hal_rtc_ex.c **** #endif /* RTC_TAMPCR_TAMP3E */
 882:Drivers/STM32H7xx_HAL_Driver/Src/stm32h7xx_hal_rtc_ex.c ****   }
 883:Drivers/STM32H7xx_HAL_Driver/Src/stm32h7xx_hal_rtc_ex.c ****   else
 884:Drivers/STM32H7xx_HAL_Driver/Src/stm32h7xx_hal_rtc_ex.c ****   {
 885:Drivers/STM32H7xx_HAL_Driver/Src/stm32h7xx_hal_rtc_ex.c **** #if defined(RTC_TAMPCR_TAMP1E)
 886:Drivers/STM32H7xx_HAL_Driver/Src/stm32h7xx_hal_rtc_ex.c ****     if ((sTamper->Tamper & RTC_TAMPER_1) != 0U)
 887:Drivers/STM32H7xx_HAL_Driver/Src/stm32h7xx_hal_rtc_ex.c ****     {
 888:Drivers/STM32H7xx_HAL_Driver/Src/stm32h7xx_hal_rtc_ex.c ****       tmpreg &= (uint32_t)~(RTC_TAMPCR_TAMP1MF);
 889:Drivers/STM32H7xx_HAL_Driver/Src/stm32h7xx_hal_rtc_ex.c ****     }
 890:Drivers/STM32H7xx_HAL_Driver/Src/stm32h7xx_hal_rtc_ex.c **** #endif /* RTC_TAMPCR_TAMP1E */
 891:Drivers/STM32H7xx_HAL_Driver/Src/stm32h7xx_hal_rtc_ex.c **** #if defined(RTC_TAMPCR_TAMP2E)
 892:Drivers/STM32H7xx_HAL_Driver/Src/stm32h7xx_hal_rtc_ex.c ****     if ((sTamper->Tamper & RTC_TAMPER_2) != 0U)
 893:Drivers/STM32H7xx_HAL_Driver/Src/stm32h7xx_hal_rtc_ex.c ****     {
 894:Drivers/STM32H7xx_HAL_Driver/Src/stm32h7xx_hal_rtc_ex.c ****       tmpreg &= (uint32_t)~(RTC_TAMPCR_TAMP2MF);
 895:Drivers/STM32H7xx_HAL_Driver/Src/stm32h7xx_hal_rtc_ex.c ****     }
 896:Drivers/STM32H7xx_HAL_Driver/Src/stm32h7xx_hal_rtc_ex.c **** #endif /* RTC_TAMPCR_TAMP2E */
 897:Drivers/STM32H7xx_HAL_Driver/Src/stm32h7xx_hal_rtc_ex.c **** #if defined(RTC_TAMPCR_TAMP3E)
 898:Drivers/STM32H7xx_HAL_Driver/Src/stm32h7xx_hal_rtc_ex.c ****     if ((sTamper->Tamper & RTC_TAMPER_3) != 0U)
 899:Drivers/STM32H7xx_HAL_Driver/Src/stm32h7xx_hal_rtc_ex.c ****     {
 900:Drivers/STM32H7xx_HAL_Driver/Src/stm32h7xx_hal_rtc_ex.c ****       tmpreg &= (uint32_t)~(RTC_TAMPCR_TAMP3MF);
 901:Drivers/STM32H7xx_HAL_Driver/Src/stm32h7xx_hal_rtc_ex.c ****     }
 902:Drivers/STM32H7xx_HAL_Driver/Src/stm32h7xx_hal_rtc_ex.c **** #endif /* RTC_TAMPCR_TAMP3E */
 903:Drivers/STM32H7xx_HAL_Driver/Src/stm32h7xx_hal_rtc_ex.c ****   }
 904:Drivers/STM32H7xx_HAL_Driver/Src/stm32h7xx_hal_rtc_ex.c **** 
 905:Drivers/STM32H7xx_HAL_Driver/Src/stm32h7xx_hal_rtc_ex.c ****   /* Clearing remaining fields before setting them */
 906:Drivers/STM32H7xx_HAL_Driver/Src/stm32h7xx_hal_rtc_ex.c ****   tmpreg &= ~(RTC_TAMPERFILTER_MASK            | RTC_TAMPERSAMPLINGFREQ_RTCCLK_MASK | \
 1081              		.loc 1 906 3 is_stmt 1 view .LVU411
 1082              		.loc 1 906 10 is_stmt 0 view .LVU412
 1083 0074 244D     		ldr	r5, .L80
 1084 0076 1540     		ands	r5, r5, r2
 1085              	.LVL86:
 907:Drivers/STM32H7xx_HAL_Driver/Src/stm32h7xx_hal_rtc_ex.c ****               RTC_TAMPERPRECHARGEDURATION_MASK | RTC_TAMPER_PULLUP_MASK             | \
 908:Drivers/STM32H7xx_HAL_Driver/Src/stm32h7xx_hal_rtc_ex.c ****               RTC_TIMESTAMPONTAMPERDETECTION_MASK);
 909:Drivers/STM32H7xx_HAL_Driver/Src/stm32h7xx_hal_rtc_ex.c **** 
 910:Drivers/STM32H7xx_HAL_Driver/Src/stm32h7xx_hal_rtc_ex.c ****   /* Set remaining parameters of desired configuration into temporary variable */
 911:Drivers/STM32H7xx_HAL_Driver/Src/stm32h7xx_hal_rtc_ex.c ****   tmpreg |= ((uint32_t)sTamper->Filter            | \
 1086              		.loc 1 911 3 is_stmt 1 view .LVU413
 1087              		.loc 1 911 31 is_stmt 0 view .LVU414
 1088 0078 4B69     		ldr	r3, [r1, #20]
 912:Drivers/STM32H7xx_HAL_Driver/Src/stm32h7xx_hal_rtc_ex.c ****              (uint32_t)sTamper->SamplingFrequency | \
 1089              		.loc 1 912 31 view .LVU415
 1090 007a 8A69     		ldr	r2, [r1, #24]
 911:Drivers/STM32H7xx_HAL_Driver/Src/stm32h7xx_hal_rtc_ex.c ****              (uint32_t)sTamper->SamplingFrequency | \
 1091              		.loc 1 911 51 view .LVU416
ARM GAS  C:\Users\zdy\AppData\Local\Temp\cca8fajE.s 			page 37


 1092 007c 1343     		orrs	r3, r3, r2
 913:Drivers/STM32H7xx_HAL_Driver/Src/stm32h7xx_hal_rtc_ex.c ****              (uint32_t)sTamper->PrechargeDuration | \
 1093              		.loc 1 913 31 view .LVU417
 1094 007e CA69     		ldr	r2, [r1, #28]
 912:Drivers/STM32H7xx_HAL_Driver/Src/stm32h7xx_hal_rtc_ex.c ****              (uint32_t)sTamper->SamplingFrequency | \
 1095              		.loc 1 912 51 view .LVU418
 1096 0080 1343     		orrs	r3, r3, r2
 914:Drivers/STM32H7xx_HAL_Driver/Src/stm32h7xx_hal_rtc_ex.c ****              (uint32_t)sTamper->TamperPullUp      | \
 1097              		.loc 1 914 31 view .LVU419
 1098 0082 0A6A     		ldr	r2, [r1, #32]
 913:Drivers/STM32H7xx_HAL_Driver/Src/stm32h7xx_hal_rtc_ex.c ****              (uint32_t)sTamper->PrechargeDuration | \
 1099              		.loc 1 913 51 view .LVU420
 1100 0084 1343     		orrs	r3, r3, r2
 915:Drivers/STM32H7xx_HAL_Driver/Src/stm32h7xx_hal_rtc_ex.c ****              (uint32_t)sTamper->TimeStampOnTamperDetection);
 1101              		.loc 1 915 31 view .LVU421
 1102 0086 4A6A     		ldr	r2, [r1, #36]
 914:Drivers/STM32H7xx_HAL_Driver/Src/stm32h7xx_hal_rtc_ex.c ****              (uint32_t)sTamper->TamperPullUp      | \
 1103              		.loc 1 914 51 view .LVU422
 1104 0088 1343     		orrs	r3, r3, r2
 911:Drivers/STM32H7xx_HAL_Driver/Src/stm32h7xx_hal_rtc_ex.c ****              (uint32_t)sTamper->SamplingFrequency | \
 1105              		.loc 1 911 10 view .LVU423
 1106 008a 2B43     		orrs	r3, r3, r5
 1107              	.LVL87:
 916:Drivers/STM32H7xx_HAL_Driver/Src/stm32h7xx_hal_rtc_ex.c **** 
 917:Drivers/STM32H7xx_HAL_Driver/Src/stm32h7xx_hal_rtc_ex.c ****   /* Enable interrupt on selected tamper */
 918:Drivers/STM32H7xx_HAL_Driver/Src/stm32h7xx_hal_rtc_ex.c ****   tmpreg |= (uint32_t)sTamper->Interrupt;
 1108              		.loc 1 918 3 is_stmt 1 view .LVU424
 1109              		.loc 1 918 30 is_stmt 0 view .LVU425
 1110 008c 4A68     		ldr	r2, [r1, #4]
 1111              		.loc 1 918 10 view .LVU426
 1112 008e 1343     		orrs	r3, r3, r2
 1113              	.LVL88:
 919:Drivers/STM32H7xx_HAL_Driver/Src/stm32h7xx_hal_rtc_ex.c **** 
 920:Drivers/STM32H7xx_HAL_Driver/Src/stm32h7xx_hal_rtc_ex.c ****   /* Copy desired configuration into configuration register */
 921:Drivers/STM32H7xx_HAL_Driver/Src/stm32h7xx_hal_rtc_ex.c ****   hrtc->Instance->TAMPCR = tmpreg;
 1114              		.loc 1 921 3 is_stmt 1 view .LVU427
 1115              		.loc 1 921 26 is_stmt 0 view .LVU428
 1116 0090 2364     		str	r3, [r4, #64]
 922:Drivers/STM32H7xx_HAL_Driver/Src/stm32h7xx_hal_rtc_ex.c **** 
 923:Drivers/STM32H7xx_HAL_Driver/Src/stm32h7xx_hal_rtc_ex.c ****   /* RTC Tamper Interrupt Configuration: EXTI configuration */
 924:Drivers/STM32H7xx_HAL_Driver/Src/stm32h7xx_hal_rtc_ex.c **** #if defined(DUAL_CORE)
 925:Drivers/STM32H7xx_HAL_Driver/Src/stm32h7xx_hal_rtc_ex.c ****   if (HAL_GetCurrentCPUID() == CM7_CPUID)
 926:Drivers/STM32H7xx_HAL_Driver/Src/stm32h7xx_hal_rtc_ex.c ****   {
 927:Drivers/STM32H7xx_HAL_Driver/Src/stm32h7xx_hal_rtc_ex.c ****     __HAL_RTC_TAMPER_TIMESTAMP_EXTI_ENABLE_IT();
 928:Drivers/STM32H7xx_HAL_Driver/Src/stm32h7xx_hal_rtc_ex.c ****   }
 929:Drivers/STM32H7xx_HAL_Driver/Src/stm32h7xx_hal_rtc_ex.c ****   else
 930:Drivers/STM32H7xx_HAL_Driver/Src/stm32h7xx_hal_rtc_ex.c ****   {
 931:Drivers/STM32H7xx_HAL_Driver/Src/stm32h7xx_hal_rtc_ex.c ****     __HAL_RTC_TAMPER_TIMESTAMP_EXTID2_ENABLE_IT();
 932:Drivers/STM32H7xx_HAL_Driver/Src/stm32h7xx_hal_rtc_ex.c ****   }
 933:Drivers/STM32H7xx_HAL_Driver/Src/stm32h7xx_hal_rtc_ex.c **** #else /* SINGLE_CORE */
 934:Drivers/STM32H7xx_HAL_Driver/Src/stm32h7xx_hal_rtc_ex.c ****   __HAL_RTC_TAMPER_TIMESTAMP_EXTI_ENABLE_IT();
 1117              		.loc 1 934 3 is_stmt 1 view .LVU429
 1118 0092 4FF0B043 		mov	r3, #1476395008
 1119              	.LVL89:
 1120              		.loc 1 934 3 is_stmt 0 view .LVU430
 1121 0096 D3F88020 		ldr	r2, [r3, #128]
 1122 009a 42F48022 		orr	r2, r2, #262144
ARM GAS  C:\Users\zdy\AppData\Local\Temp\cca8fajE.s 			page 38


 1123 009e C3F88020 		str	r2, [r3, #128]
 1124              	.LVL90:
 935:Drivers/STM32H7xx_HAL_Driver/Src/stm32h7xx_hal_rtc_ex.c **** #endif /* DUAL_CORE */
 936:Drivers/STM32H7xx_HAL_Driver/Src/stm32h7xx_hal_rtc_ex.c **** 
 937:Drivers/STM32H7xx_HAL_Driver/Src/stm32h7xx_hal_rtc_ex.c ****   __HAL_RTC_TAMPER_TIMESTAMP_EXTI_ENABLE_RISING_EDGE();
 1125              		.loc 1 937 3 is_stmt 1 view .LVU431
 1126 00a2 1A68     		ldr	r2, [r3]
 1127 00a4 42F48022 		orr	r2, r2, #262144
 1128 00a8 1A60     		str	r2, [r3]
 938:Drivers/STM32H7xx_HAL_Driver/Src/stm32h7xx_hal_rtc_ex.c **** 
 939:Drivers/STM32H7xx_HAL_Driver/Src/stm32h7xx_hal_rtc_ex.c ****   hrtc->State = HAL_RTC_STATE_READY;
 1129              		.loc 1 939 3 view .LVU432
 1130              		.loc 1 939 15 is_stmt 0 view .LVU433
 1131 00aa 0123     		movs	r3, #1
 1132 00ac 80F82130 		strb	r3, [r0, #33]
 940:Drivers/STM32H7xx_HAL_Driver/Src/stm32h7xx_hal_rtc_ex.c **** 
 941:Drivers/STM32H7xx_HAL_Driver/Src/stm32h7xx_hal_rtc_ex.c ****   /* Process Unlocked */
 942:Drivers/STM32H7xx_HAL_Driver/Src/stm32h7xx_hal_rtc_ex.c ****   __HAL_UNLOCK(hrtc);
 1133              		.loc 1 942 3 is_stmt 1 view .LVU434
 1134              		.loc 1 942 3 view .LVU435
 1135 00b0 0023     		movs	r3, #0
 1136 00b2 80F82030 		strb	r3, [r0, #32]
 1137              		.loc 1 942 3 view .LVU436
 943:Drivers/STM32H7xx_HAL_Driver/Src/stm32h7xx_hal_rtc_ex.c **** 
 944:Drivers/STM32H7xx_HAL_Driver/Src/stm32h7xx_hal_rtc_ex.c ****   return HAL_OK;
 1138              		.loc 1 944 3 view .LVU437
 1139              		.loc 1 944 10 is_stmt 0 view .LVU438
 1140 00b6 1846     		mov	r0, r3
 1141              	.LVL91:
 945:Drivers/STM32H7xx_HAL_Driver/Src/stm32h7xx_hal_rtc_ex.c **** }
 1142              		.loc 1 945 1 view .LVU439
 1143 00b8 30BC     		pop	{r4, r5}
 1144              	.LCFI12:
 1145              		.cfi_remember_state
 1146              		.cfi_restore 5
 1147              		.cfi_restore 4
 1148              		.cfi_def_cfa_offset 0
 1149 00ba 7047     		bx	lr
 1150              	.LVL92:
 1151              	.L61:
 1152              	.LCFI13:
 1153              		.cfi_restore_state
 814:Drivers/STM32H7xx_HAL_Driver/Src/stm32h7xx_hal_rtc_ex.c ****   }
 1154              		.loc 1 814 5 is_stmt 1 view .LVU440
 814:Drivers/STM32H7xx_HAL_Driver/Src/stm32h7xx_hal_rtc_ex.c ****   }
 1155              		.loc 1 814 12 is_stmt 0 view .LVU441
 1156 00bc 22EA4302 		bic	r2, r2, r3, lsl #1
 1157              	.LVL93:
 814:Drivers/STM32H7xx_HAL_Driver/Src/stm32h7xx_hal_rtc_ex.c ****   }
 1158              		.loc 1 814 12 view .LVU442
 1159 00c0 B4E7     		b	.L62
 1160              	.L63:
 842:Drivers/STM32H7xx_HAL_Driver/Src/stm32h7xx_hal_rtc_ex.c ****     {
 1161              		.loc 1 842 5 is_stmt 1 view .LVU443
 842:Drivers/STM32H7xx_HAL_Driver/Src/stm32h7xx_hal_rtc_ex.c ****     {
 1162              		.loc 1 842 8 is_stmt 0 view .LVU444
 1163 00c2 13F0010F 		tst	r3, #1
ARM GAS  C:\Users\zdy\AppData\Local\Temp\cca8fajE.s 			page 39


 1164 00c6 01D0     		beq	.L67
 844:Drivers/STM32H7xx_HAL_Driver/Src/stm32h7xx_hal_rtc_ex.c ****     }
 1165              		.loc 1 844 7 is_stmt 1 view .LVU445
 844:Drivers/STM32H7xx_HAL_Driver/Src/stm32h7xx_hal_rtc_ex.c ****     }
 1166              		.loc 1 844 14 is_stmt 0 view .LVU446
 1167 00c8 22F40032 		bic	r2, r2, #131072
 1168              	.LVL94:
 1169              	.L67:
 848:Drivers/STM32H7xx_HAL_Driver/Src/stm32h7xx_hal_rtc_ex.c ****     {
 1170              		.loc 1 848 5 is_stmt 1 view .LVU447
 848:Drivers/STM32H7xx_HAL_Driver/Src/stm32h7xx_hal_rtc_ex.c ****     {
 1171              		.loc 1 848 8 is_stmt 0 view .LVU448
 1172 00cc 13F0080F 		tst	r3, #8
 1173 00d0 01D0     		beq	.L68
 850:Drivers/STM32H7xx_HAL_Driver/Src/stm32h7xx_hal_rtc_ex.c ****     }
 1174              		.loc 1 850 7 is_stmt 1 view .LVU449
 850:Drivers/STM32H7xx_HAL_Driver/Src/stm32h7xx_hal_rtc_ex.c ****     }
 1175              		.loc 1 850 14 is_stmt 0 view .LVU450
 1176 00d2 22F48012 		bic	r2, r2, #1048576
 1177              	.LVL95:
 1178              	.L68:
 854:Drivers/STM32H7xx_HAL_Driver/Src/stm32h7xx_hal_rtc_ex.c ****     {
 1179              		.loc 1 854 5 is_stmt 1 view .LVU451
 854:Drivers/STM32H7xx_HAL_Driver/Src/stm32h7xx_hal_rtc_ex.c ****     {
 1180              		.loc 1 854 8 is_stmt 0 view .LVU452
 1181 00d6 13F0200F 		tst	r3, #32
 1182 00da B9D0     		beq	.L66
 856:Drivers/STM32H7xx_HAL_Driver/Src/stm32h7xx_hal_rtc_ex.c ****     }
 1183              		.loc 1 856 7 is_stmt 1 view .LVU453
 856:Drivers/STM32H7xx_HAL_Driver/Src/stm32h7xx_hal_rtc_ex.c ****     }
 1184              		.loc 1 856 14 is_stmt 0 view .LVU454
 1185 00dc 22F40002 		bic	r2, r2, #8388608
 1186              	.LVL96:
 856:Drivers/STM32H7xx_HAL_Driver/Src/stm32h7xx_hal_rtc_ex.c ****     }
 1187              		.loc 1 856 14 view .LVU455
 1188 00e0 B6E7     		b	.L66
 1189              	.L69:
 886:Drivers/STM32H7xx_HAL_Driver/Src/stm32h7xx_hal_rtc_ex.c ****     {
 1190              		.loc 1 886 5 is_stmt 1 view .LVU456
 886:Drivers/STM32H7xx_HAL_Driver/Src/stm32h7xx_hal_rtc_ex.c ****     {
 1191              		.loc 1 886 8 is_stmt 0 view .LVU457
 1192 00e2 13F0010F 		tst	r3, #1
 1193 00e6 01D0     		beq	.L73
 888:Drivers/STM32H7xx_HAL_Driver/Src/stm32h7xx_hal_rtc_ex.c ****     }
 1194              		.loc 1 888 7 is_stmt 1 view .LVU458
 888:Drivers/STM32H7xx_HAL_Driver/Src/stm32h7xx_hal_rtc_ex.c ****     }
 1195              		.loc 1 888 14 is_stmt 0 view .LVU459
 1196 00e8 22F48022 		bic	r2, r2, #262144
 1197              	.LVL97:
 1198              	.L73:
 892:Drivers/STM32H7xx_HAL_Driver/Src/stm32h7xx_hal_rtc_ex.c ****     {
 1199              		.loc 1 892 5 is_stmt 1 view .LVU460
 892:Drivers/STM32H7xx_HAL_Driver/Src/stm32h7xx_hal_rtc_ex.c ****     {
 1200              		.loc 1 892 8 is_stmt 0 view .LVU461
 1201 00ec 13F0080F 		tst	r3, #8
 1202 00f0 01D0     		beq	.L74
 894:Drivers/STM32H7xx_HAL_Driver/Src/stm32h7xx_hal_rtc_ex.c ****     }
ARM GAS  C:\Users\zdy\AppData\Local\Temp\cca8fajE.s 			page 40


 1203              		.loc 1 894 7 is_stmt 1 view .LVU462
 894:Drivers/STM32H7xx_HAL_Driver/Src/stm32h7xx_hal_rtc_ex.c ****     }
 1204              		.loc 1 894 14 is_stmt 0 view .LVU463
 1205 00f2 22F40012 		bic	r2, r2, #2097152
 1206              	.LVL98:
 1207              	.L74:
 898:Drivers/STM32H7xx_HAL_Driver/Src/stm32h7xx_hal_rtc_ex.c ****     {
 1208              		.loc 1 898 5 is_stmt 1 view .LVU464
 898:Drivers/STM32H7xx_HAL_Driver/Src/stm32h7xx_hal_rtc_ex.c ****     {
 1209              		.loc 1 898 8 is_stmt 0 view .LVU465
 1210 00f6 13F0200F 		tst	r3, #32
 1211 00fa BBD0     		beq	.L72
 900:Drivers/STM32H7xx_HAL_Driver/Src/stm32h7xx_hal_rtc_ex.c ****     }
 1212              		.loc 1 900 7 is_stmt 1 view .LVU466
 900:Drivers/STM32H7xx_HAL_Driver/Src/stm32h7xx_hal_rtc_ex.c ****     }
 1213              		.loc 1 900 14 is_stmt 0 view .LVU467
 1214 00fc 22F08072 		bic	r2, r2, #16777216
 1215              	.LVL99:
 900:Drivers/STM32H7xx_HAL_Driver/Src/stm32h7xx_hal_rtc_ex.c ****     }
 1216              		.loc 1 900 14 view .LVU468
 1217 0100 B8E7     		b	.L72
 1218              	.LVL100:
 1219              	.L75:
 1220              	.LCFI14:
 1221              		.cfi_def_cfa_offset 0
 1222              		.cfi_restore 4
 1223              		.cfi_restore 5
 795:Drivers/STM32H7xx_HAL_Driver/Src/stm32h7xx_hal_rtc_ex.c **** 
 1224              		.loc 1 795 3 view .LVU469
 1225 0102 0220     		movs	r0, #2
 1226              	.LVL101:
 1227              		.loc 1 945 1 view .LVU470
 1228 0104 7047     		bx	lr
 1229              	.L81:
 1230 0106 00BF     		.align	2
 1231              	.L80:
 1232 0108 7F00FFFF 		.word	-65409
 1233              		.cfi_endproc
 1234              	.LFE340:
 1236              		.section	.text.HAL_RTCEx_DeactivateTamper,"ax",%progbits
 1237              		.align	1
 1238              		.global	HAL_RTCEx_DeactivateTamper
 1239              		.syntax unified
 1240              		.thumb
 1241              		.thumb_func
 1243              	HAL_RTCEx_DeactivateTamper:
 1244              	.LVL102:
 1245              	.LFB341:
 946:Drivers/STM32H7xx_HAL_Driver/Src/stm32h7xx_hal_rtc_ex.c **** #endif /* RTC_TAMPCR_TAMP1E */
 947:Drivers/STM32H7xx_HAL_Driver/Src/stm32h7xx_hal_rtc_ex.c **** 
 948:Drivers/STM32H7xx_HAL_Driver/Src/stm32h7xx_hal_rtc_ex.c **** #if defined(TAMP_CR1_TAMP1E)
 949:Drivers/STM32H7xx_HAL_Driver/Src/stm32h7xx_hal_rtc_ex.c **** /**
 950:Drivers/STM32H7xx_HAL_Driver/Src/stm32h7xx_hal_rtc_ex.c ****   * @brief  Deactivate Tamper.
 951:Drivers/STM32H7xx_HAL_Driver/Src/stm32h7xx_hal_rtc_ex.c ****   * @param  hrtc RTC handle
 952:Drivers/STM32H7xx_HAL_Driver/Src/stm32h7xx_hal_rtc_ex.c ****   * @param  Tamper Selected tamper pin.
 953:Drivers/STM32H7xx_HAL_Driver/Src/stm32h7xx_hal_rtc_ex.c ****   *         This parameter can be a combination of the following values:
 954:Drivers/STM32H7xx_HAL_Driver/Src/stm32h7xx_hal_rtc_ex.c ****   *         @arg RTC_TAMPER_1
ARM GAS  C:\Users\zdy\AppData\Local\Temp\cca8fajE.s 			page 41


 955:Drivers/STM32H7xx_HAL_Driver/Src/stm32h7xx_hal_rtc_ex.c ****   *         @arg RTC_TAMPER_2
 956:Drivers/STM32H7xx_HAL_Driver/Src/stm32h7xx_hal_rtc_ex.c ****   * @retval HAL status
 957:Drivers/STM32H7xx_HAL_Driver/Src/stm32h7xx_hal_rtc_ex.c ****   */
 958:Drivers/STM32H7xx_HAL_Driver/Src/stm32h7xx_hal_rtc_ex.c **** HAL_StatusTypeDef HAL_RTCEx_DeactivateTamper(RTC_HandleTypeDef * hrtc, uint32_t Tamper)
 959:Drivers/STM32H7xx_HAL_Driver/Src/stm32h7xx_hal_rtc_ex.c **** {
 960:Drivers/STM32H7xx_HAL_Driver/Src/stm32h7xx_hal_rtc_ex.c ****   /* Point on TAMPER registers base address */
 961:Drivers/STM32H7xx_HAL_Driver/Src/stm32h7xx_hal_rtc_ex.c ****   TAMP_TypeDef *tamp = (TAMP_TypeDef *)((uint32_t)hrtc->Instance + TAMP_OFFSET);
 962:Drivers/STM32H7xx_HAL_Driver/Src/stm32h7xx_hal_rtc_ex.c **** 
 963:Drivers/STM32H7xx_HAL_Driver/Src/stm32h7xx_hal_rtc_ex.c ****   assert_param(IS_RTC_TAMPER(Tamper));
 964:Drivers/STM32H7xx_HAL_Driver/Src/stm32h7xx_hal_rtc_ex.c **** 
 965:Drivers/STM32H7xx_HAL_Driver/Src/stm32h7xx_hal_rtc_ex.c ****   /* Disable the selected Tamper pin */
 966:Drivers/STM32H7xx_HAL_Driver/Src/stm32h7xx_hal_rtc_ex.c ****   tamp->CR1 &= ~Tamper;
 967:Drivers/STM32H7xx_HAL_Driver/Src/stm32h7xx_hal_rtc_ex.c **** 
 968:Drivers/STM32H7xx_HAL_Driver/Src/stm32h7xx_hal_rtc_ex.c ****   /* Disable the selected Tamper interrupt */
 969:Drivers/STM32H7xx_HAL_Driver/Src/stm32h7xx_hal_rtc_ex.c ****   tamp->IER &= ~Tamper;
 970:Drivers/STM32H7xx_HAL_Driver/Src/stm32h7xx_hal_rtc_ex.c **** 
 971:Drivers/STM32H7xx_HAL_Driver/Src/stm32h7xx_hal_rtc_ex.c ****   /* Clear the selected tamper flags in SR register by setting corresponding bits in SCR register *
 972:Drivers/STM32H7xx_HAL_Driver/Src/stm32h7xx_hal_rtc_ex.c ****   tamp->SCR = Tamper;
 973:Drivers/STM32H7xx_HAL_Driver/Src/stm32h7xx_hal_rtc_ex.c **** 
 974:Drivers/STM32H7xx_HAL_Driver/Src/stm32h7xx_hal_rtc_ex.c ****   /* Clear the selected tamper configuration (trigger, mask flag, and no-erase) */
 975:Drivers/STM32H7xx_HAL_Driver/Src/stm32h7xx_hal_rtc_ex.c ****   tamp->CR2 &= ~((Tamper << TAMP_CR2_TAMP1TRG_Pos) | (Tamper << TAMP_CR2_TAMP1MSK_Pos) | (Tamper <<
 976:Drivers/STM32H7xx_HAL_Driver/Src/stm32h7xx_hal_rtc_ex.c **** 
 977:Drivers/STM32H7xx_HAL_Driver/Src/stm32h7xx_hal_rtc_ex.c ****   return HAL_OK;
 978:Drivers/STM32H7xx_HAL_Driver/Src/stm32h7xx_hal_rtc_ex.c **** }
 979:Drivers/STM32H7xx_HAL_Driver/Src/stm32h7xx_hal_rtc_ex.c **** #endif /* TAMP_CR1_TAMP1E */
 980:Drivers/STM32H7xx_HAL_Driver/Src/stm32h7xx_hal_rtc_ex.c **** #if defined(RTC_TAMPCR_TAMP1E)
 981:Drivers/STM32H7xx_HAL_Driver/Src/stm32h7xx_hal_rtc_ex.c **** /**
 982:Drivers/STM32H7xx_HAL_Driver/Src/stm32h7xx_hal_rtc_ex.c ****   * @brief  Deactivate Tamper.
 983:Drivers/STM32H7xx_HAL_Driver/Src/stm32h7xx_hal_rtc_ex.c ****   * @param  hrtc RTC handle
 984:Drivers/STM32H7xx_HAL_Driver/Src/stm32h7xx_hal_rtc_ex.c ****   * @param  Tamper Selected tamper pin.
 985:Drivers/STM32H7xx_HAL_Driver/Src/stm32h7xx_hal_rtc_ex.c ****   *         This parameter can be any combination of the following values:
 986:Drivers/STM32H7xx_HAL_Driver/Src/stm32h7xx_hal_rtc_ex.c ****   *         @arg RTC_TAMPER_1
 987:Drivers/STM32H7xx_HAL_Driver/Src/stm32h7xx_hal_rtc_ex.c ****   *         @arg RTC_TAMPER_2
 988:Drivers/STM32H7xx_HAL_Driver/Src/stm32h7xx_hal_rtc_ex.c ****   *         @arg RTC_TAMPER_3
 989:Drivers/STM32H7xx_HAL_Driver/Src/stm32h7xx_hal_rtc_ex.c ****   * @retval HAL status
 990:Drivers/STM32H7xx_HAL_Driver/Src/stm32h7xx_hal_rtc_ex.c ****   */
 991:Drivers/STM32H7xx_HAL_Driver/Src/stm32h7xx_hal_rtc_ex.c **** HAL_StatusTypeDef HAL_RTCEx_DeactivateTamper(RTC_HandleTypeDef * hrtc, uint32_t Tamper)
 992:Drivers/STM32H7xx_HAL_Driver/Src/stm32h7xx_hal_rtc_ex.c **** {
 1246              		.loc 1 992 1 is_stmt 1 view -0
 1247              		.cfi_startproc
 1248              		@ args = 0, pretend = 0, frame = 0
 1249              		@ frame_needed = 0, uses_anonymous_args = 0
 1250              		@ link register save eliminated.
 993:Drivers/STM32H7xx_HAL_Driver/Src/stm32h7xx_hal_rtc_ex.c ****   assert_param(IS_RTC_TAMPER(Tamper));
 1251              		.loc 1 993 3 view .LVU472
 994:Drivers/STM32H7xx_HAL_Driver/Src/stm32h7xx_hal_rtc_ex.c **** 
 995:Drivers/STM32H7xx_HAL_Driver/Src/stm32h7xx_hal_rtc_ex.c ****   /* Process Locked */
 996:Drivers/STM32H7xx_HAL_Driver/Src/stm32h7xx_hal_rtc_ex.c ****   __HAL_LOCK(hrtc);
 1252              		.loc 1 996 3 view .LVU473
 1253              		.loc 1 996 3 view .LVU474
 1254 0000 90F82030 		ldrb	r3, [r0, #32]	@ zero_extendqisi2
 1255 0004 012B     		cmp	r3, #1
 1256 0006 2DD0     		beq	.L87
 992:Drivers/STM32H7xx_HAL_Driver/Src/stm32h7xx_hal_rtc_ex.c ****   assert_param(IS_RTC_TAMPER(Tamper));
 1257              		.loc 1 992 1 is_stmt 0 discriminator 2 view .LVU475
 1258 0008 10B4     		push	{r4}
 1259              	.LCFI15:
ARM GAS  C:\Users\zdy\AppData\Local\Temp\cca8fajE.s 			page 42


 1260              		.cfi_def_cfa_offset 4
 1261              		.cfi_offset 4, -4
 1262              		.loc 1 996 3 is_stmt 1 discriminator 2 view .LVU476
 1263 000a 0123     		movs	r3, #1
 1264 000c 80F82030 		strb	r3, [r0, #32]
 1265              		.loc 1 996 3 discriminator 2 view .LVU477
 997:Drivers/STM32H7xx_HAL_Driver/Src/stm32h7xx_hal_rtc_ex.c **** 
 998:Drivers/STM32H7xx_HAL_Driver/Src/stm32h7xx_hal_rtc_ex.c ****   hrtc->State = HAL_RTC_STATE_BUSY;
 1266              		.loc 1 998 3 discriminator 2 view .LVU478
 1267              		.loc 1 998 15 is_stmt 0 discriminator 2 view .LVU479
 1268 0010 0223     		movs	r3, #2
 1269 0012 80F82130 		strb	r3, [r0, #33]
 999:Drivers/STM32H7xx_HAL_Driver/Src/stm32h7xx_hal_rtc_ex.c **** 
1000:Drivers/STM32H7xx_HAL_Driver/Src/stm32h7xx_hal_rtc_ex.c ****   /* Disable the selected Tamper pin */
1001:Drivers/STM32H7xx_HAL_Driver/Src/stm32h7xx_hal_rtc_ex.c ****   hrtc->Instance->TAMPCR &= ((uint32_t)~Tamper);
 1270              		.loc 1 1001 3 is_stmt 1 discriminator 2 view .LVU480
 1271              		.loc 1 1001 7 is_stmt 0 discriminator 2 view .LVU481
 1272 0016 0268     		ldr	r2, [r0]
 1273              		.loc 1 1001 26 discriminator 2 view .LVU482
 1274 0018 136C     		ldr	r3, [r2, #64]
 1275 001a 23EA0103 		bic	r3, r3, r1
 1276 001e 1364     		str	r3, [r2, #64]
1002:Drivers/STM32H7xx_HAL_Driver/Src/stm32h7xx_hal_rtc_ex.c **** 
1003:Drivers/STM32H7xx_HAL_Driver/Src/stm32h7xx_hal_rtc_ex.c ****   /* Disable the selected Tamper interrupt */
1004:Drivers/STM32H7xx_HAL_Driver/Src/stm32h7xx_hal_rtc_ex.c **** #if defined(RTC_TAMPCR_TAMP1E)
1005:Drivers/STM32H7xx_HAL_Driver/Src/stm32h7xx_hal_rtc_ex.c ****   if ((Tamper & RTC_TAMPER_1) != 0U)
 1277              		.loc 1 1005 3 is_stmt 1 discriminator 2 view .LVU483
 1278              		.loc 1 1005 6 is_stmt 0 discriminator 2 view .LVU484
 1279 0020 11F0010F 		tst	r1, #1
 1280 0024 04D0     		beq	.L84
1006:Drivers/STM32H7xx_HAL_Driver/Src/stm32h7xx_hal_rtc_ex.c ****   {
1007:Drivers/STM32H7xx_HAL_Driver/Src/stm32h7xx_hal_rtc_ex.c ****     hrtc->Instance->TAMPCR &= ((uint32_t)~(RTC_IT_TAMP | RTC_IT_TAMP1));
 1281              		.loc 1 1007 5 is_stmt 1 view .LVU485
 1282              		.loc 1 1007 9 is_stmt 0 view .LVU486
 1283 0026 0268     		ldr	r2, [r0]
 1284              		.loc 1 1007 28 view .LVU487
 1285 0028 146C     		ldr	r4, [r2, #64]
 1286 002a 0F4B     		ldr	r3, .L92
 1287 002c 2340     		ands	r3, r3, r4
 1288 002e 1364     		str	r3, [r2, #64]
 1289              	.L84:
1008:Drivers/STM32H7xx_HAL_Driver/Src/stm32h7xx_hal_rtc_ex.c ****   }
1009:Drivers/STM32H7xx_HAL_Driver/Src/stm32h7xx_hal_rtc_ex.c **** #endif /* RTC_TAMPCR_TAMP1E */
1010:Drivers/STM32H7xx_HAL_Driver/Src/stm32h7xx_hal_rtc_ex.c **** #if defined(RTC_TAMPCR_TAMP2E)
1011:Drivers/STM32H7xx_HAL_Driver/Src/stm32h7xx_hal_rtc_ex.c ****   if ((Tamper & RTC_TAMPER_2) != 0U)
 1290              		.loc 1 1011 3 is_stmt 1 view .LVU488
 1291              		.loc 1 1011 6 is_stmt 0 view .LVU489
 1292 0030 11F0080F 		tst	r1, #8
 1293 0034 04D0     		beq	.L85
1012:Drivers/STM32H7xx_HAL_Driver/Src/stm32h7xx_hal_rtc_ex.c ****   {
1013:Drivers/STM32H7xx_HAL_Driver/Src/stm32h7xx_hal_rtc_ex.c ****     hrtc->Instance->TAMPCR &= ((uint32_t)~(RTC_IT_TAMP | RTC_IT_TAMP2));
 1294              		.loc 1 1013 5 is_stmt 1 view .LVU490
 1295              		.loc 1 1013 9 is_stmt 0 view .LVU491
 1296 0036 0268     		ldr	r2, [r0]
 1297              		.loc 1 1013 28 view .LVU492
 1298 0038 146C     		ldr	r4, [r2, #64]
 1299 003a 0C4B     		ldr	r3, .L92+4
ARM GAS  C:\Users\zdy\AppData\Local\Temp\cca8fajE.s 			page 43


 1300 003c 2340     		ands	r3, r3, r4
 1301 003e 1364     		str	r3, [r2, #64]
 1302              	.L85:
1014:Drivers/STM32H7xx_HAL_Driver/Src/stm32h7xx_hal_rtc_ex.c ****   }
1015:Drivers/STM32H7xx_HAL_Driver/Src/stm32h7xx_hal_rtc_ex.c **** #endif /* RTC_TAMPCR_TAMP2E */
1016:Drivers/STM32H7xx_HAL_Driver/Src/stm32h7xx_hal_rtc_ex.c **** #if defined(RTC_TAMPCR_TAMP3E)
1017:Drivers/STM32H7xx_HAL_Driver/Src/stm32h7xx_hal_rtc_ex.c ****   if ((Tamper & RTC_TAMPER_3) != 0U)
 1303              		.loc 1 1017 3 is_stmt 1 view .LVU493
 1304              		.loc 1 1017 6 is_stmt 0 view .LVU494
 1305 0040 11F0200F 		tst	r1, #32
 1306 0044 04D0     		beq	.L86
1018:Drivers/STM32H7xx_HAL_Driver/Src/stm32h7xx_hal_rtc_ex.c ****   {
1019:Drivers/STM32H7xx_HAL_Driver/Src/stm32h7xx_hal_rtc_ex.c ****     hrtc->Instance->TAMPCR &= ((uint32_t)~(RTC_IT_TAMP | RTC_IT_TAMP3));
 1307              		.loc 1 1019 5 is_stmt 1 view .LVU495
 1308              		.loc 1 1019 9 is_stmt 0 view .LVU496
 1309 0046 0268     		ldr	r2, [r0]
 1310              		.loc 1 1019 28 view .LVU497
 1311 0048 116C     		ldr	r1, [r2, #64]
 1312              	.LVL103:
 1313              		.loc 1 1019 28 view .LVU498
 1314 004a 094B     		ldr	r3, .L92+8
 1315 004c 0B40     		ands	r3, r3, r1
 1316 004e 1364     		str	r3, [r2, #64]
 1317              	.L86:
1020:Drivers/STM32H7xx_HAL_Driver/Src/stm32h7xx_hal_rtc_ex.c ****   }
1021:Drivers/STM32H7xx_HAL_Driver/Src/stm32h7xx_hal_rtc_ex.c **** #endif /* RTC_TAMPCR_TAMP3E */
1022:Drivers/STM32H7xx_HAL_Driver/Src/stm32h7xx_hal_rtc_ex.c **** 
1023:Drivers/STM32H7xx_HAL_Driver/Src/stm32h7xx_hal_rtc_ex.c ****   hrtc->State = HAL_RTC_STATE_READY;
 1318              		.loc 1 1023 3 is_stmt 1 view .LVU499
 1319              		.loc 1 1023 15 is_stmt 0 view .LVU500
 1320 0050 0123     		movs	r3, #1
 1321 0052 80F82130 		strb	r3, [r0, #33]
1024:Drivers/STM32H7xx_HAL_Driver/Src/stm32h7xx_hal_rtc_ex.c **** 
1025:Drivers/STM32H7xx_HAL_Driver/Src/stm32h7xx_hal_rtc_ex.c ****   /* Process Unlocked */
1026:Drivers/STM32H7xx_HAL_Driver/Src/stm32h7xx_hal_rtc_ex.c ****   __HAL_UNLOCK(hrtc);
 1322              		.loc 1 1026 3 is_stmt 1 view .LVU501
 1323              		.loc 1 1026 3 view .LVU502
 1324 0056 0023     		movs	r3, #0
 1325 0058 80F82030 		strb	r3, [r0, #32]
 1326              		.loc 1 1026 3 view .LVU503
1027:Drivers/STM32H7xx_HAL_Driver/Src/stm32h7xx_hal_rtc_ex.c **** 
1028:Drivers/STM32H7xx_HAL_Driver/Src/stm32h7xx_hal_rtc_ex.c ****   return HAL_OK;
 1327              		.loc 1 1028 3 view .LVU504
 1328              		.loc 1 1028 10 is_stmt 0 view .LVU505
 1329 005c 1846     		mov	r0, r3
 1330              	.LVL104:
1029:Drivers/STM32H7xx_HAL_Driver/Src/stm32h7xx_hal_rtc_ex.c **** }
 1331              		.loc 1 1029 1 view .LVU506
 1332 005e 5DF8044B 		ldr	r4, [sp], #4
 1333              	.LCFI16:
 1334              		.cfi_restore 4
 1335              		.cfi_def_cfa_offset 0
 1336 0062 7047     		bx	lr
 1337              	.LVL105:
 1338              	.L87:
 996:Drivers/STM32H7xx_HAL_Driver/Src/stm32h7xx_hal_rtc_ex.c **** 
 1339              		.loc 1 996 3 view .LVU507
ARM GAS  C:\Users\zdy\AppData\Local\Temp\cca8fajE.s 			page 44


 1340 0064 0220     		movs	r0, #2
 1341              	.LVL106:
 1342              		.loc 1 1029 1 view .LVU508
 1343 0066 7047     		bx	lr
 1344              	.L93:
 1345              		.align	2
 1346              	.L92:
 1347 0068 FBFFFEFF 		.word	-65541
 1348 006c FBFFF7FF 		.word	-524293
 1349 0070 FBFFBFFF 		.word	-4194309
 1350              		.cfi_endproc
 1351              	.LFE341:
 1353              		.section	.text.HAL_RTCEx_TimeStampEventCallback,"ax",%progbits
 1354              		.align	1
 1355              		.weak	HAL_RTCEx_TimeStampEventCallback
 1356              		.syntax unified
 1357              		.thumb
 1358              		.thumb_func
 1360              	HAL_RTCEx_TimeStampEventCallback:
 1361              	.LVL107:
 1362              	.LFB343:
1030:Drivers/STM32H7xx_HAL_Driver/Src/stm32h7xx_hal_rtc_ex.c **** #endif /* RTC_TAMPCR_TAMP1E */
1031:Drivers/STM32H7xx_HAL_Driver/Src/stm32h7xx_hal_rtc_ex.c **** 
1032:Drivers/STM32H7xx_HAL_Driver/Src/stm32h7xx_hal_rtc_ex.c **** #if defined(TAMP_CR1_ITAMP1E)
1033:Drivers/STM32H7xx_HAL_Driver/Src/stm32h7xx_hal_rtc_ex.c **** /**
1034:Drivers/STM32H7xx_HAL_Driver/Src/stm32h7xx_hal_rtc_ex.c ****   * @brief  Set Internal Tamper
1035:Drivers/STM32H7xx_HAL_Driver/Src/stm32h7xx_hal_rtc_ex.c ****   * @param  hrtc RTC handle
1036:Drivers/STM32H7xx_HAL_Driver/Src/stm32h7xx_hal_rtc_ex.c ****   * @param  sIntTamper Pointer to Internal Tamper Structure.
1037:Drivers/STM32H7xx_HAL_Driver/Src/stm32h7xx_hal_rtc_ex.c ****   * @retval HAL status
1038:Drivers/STM32H7xx_HAL_Driver/Src/stm32h7xx_hal_rtc_ex.c ****   */
1039:Drivers/STM32H7xx_HAL_Driver/Src/stm32h7xx_hal_rtc_ex.c **** HAL_StatusTypeDef HAL_RTCEx_SetInternalTamper(RTC_HandleTypeDef *hrtc, RTC_InternalTamperTypeDef *s
1040:Drivers/STM32H7xx_HAL_Driver/Src/stm32h7xx_hal_rtc_ex.c **** {
1041:Drivers/STM32H7xx_HAL_Driver/Src/stm32h7xx_hal_rtc_ex.c ****   /* Check the parameters */
1042:Drivers/STM32H7xx_HAL_Driver/Src/stm32h7xx_hal_rtc_ex.c ****   assert_param(IS_RTC_INTERNAL_TAMPER(sIntTamper->IntTamper));
1043:Drivers/STM32H7xx_HAL_Driver/Src/stm32h7xx_hal_rtc_ex.c ****   assert_param(IS_RTC_TAMPER_TIMESTAMPONTAMPER_DETECTION(sIntTamper->TimeStampOnTamperDetection));
1044:Drivers/STM32H7xx_HAL_Driver/Src/stm32h7xx_hal_rtc_ex.c **** 
1045:Drivers/STM32H7xx_HAL_Driver/Src/stm32h7xx_hal_rtc_ex.c ****   /* Time-Stamp on internal tamper */
1046:Drivers/STM32H7xx_HAL_Driver/Src/stm32h7xx_hal_rtc_ex.c ****   if (READ_BIT(RTC->CR, RTC_CR_TAMPTS) != sIntTamper->TimeStampOnTamperDetection)
1047:Drivers/STM32H7xx_HAL_Driver/Src/stm32h7xx_hal_rtc_ex.c ****   {
1048:Drivers/STM32H7xx_HAL_Driver/Src/stm32h7xx_hal_rtc_ex.c ****     __HAL_RTC_WRITEPROTECTION_DISABLE(hrtc);
1049:Drivers/STM32H7xx_HAL_Driver/Src/stm32h7xx_hal_rtc_ex.c ****     MODIFY_REG(RTC->CR, RTC_CR_TAMPTS, sIntTamper->TimeStampOnTamperDetection);
1050:Drivers/STM32H7xx_HAL_Driver/Src/stm32h7xx_hal_rtc_ex.c ****     __HAL_RTC_WRITEPROTECTION_ENABLE(hrtc);
1051:Drivers/STM32H7xx_HAL_Driver/Src/stm32h7xx_hal_rtc_ex.c ****   }
1052:Drivers/STM32H7xx_HAL_Driver/Src/stm32h7xx_hal_rtc_ex.c **** 
1053:Drivers/STM32H7xx_HAL_Driver/Src/stm32h7xx_hal_rtc_ex.c ****   /* Control register 1 */
1054:Drivers/STM32H7xx_HAL_Driver/Src/stm32h7xx_hal_rtc_ex.c ****   SET_BIT(TAMP->CR1, sIntTamper->IntTamper);
1055:Drivers/STM32H7xx_HAL_Driver/Src/stm32h7xx_hal_rtc_ex.c **** 
1056:Drivers/STM32H7xx_HAL_Driver/Src/stm32h7xx_hal_rtc_ex.c ****   return HAL_OK;
1057:Drivers/STM32H7xx_HAL_Driver/Src/stm32h7xx_hal_rtc_ex.c **** }
1058:Drivers/STM32H7xx_HAL_Driver/Src/stm32h7xx_hal_rtc_ex.c **** 
1059:Drivers/STM32H7xx_HAL_Driver/Src/stm32h7xx_hal_rtc_ex.c **** /**
1060:Drivers/STM32H7xx_HAL_Driver/Src/stm32h7xx_hal_rtc_ex.c ****   * @brief  Set Internal Tamper in interrupt mode
1061:Drivers/STM32H7xx_HAL_Driver/Src/stm32h7xx_hal_rtc_ex.c ****   * @param  hrtc RTC handle
1062:Drivers/STM32H7xx_HAL_Driver/Src/stm32h7xx_hal_rtc_ex.c ****   * @param  sIntTamper Pointer to Internal Tamper Structure.
1063:Drivers/STM32H7xx_HAL_Driver/Src/stm32h7xx_hal_rtc_ex.c ****   * @retval HAL status
1064:Drivers/STM32H7xx_HAL_Driver/Src/stm32h7xx_hal_rtc_ex.c ****   */
1065:Drivers/STM32H7xx_HAL_Driver/Src/stm32h7xx_hal_rtc_ex.c **** HAL_StatusTypeDef HAL_RTCEx_SetInternalTamper_IT(RTC_HandleTypeDef *hrtc, RTC_InternalTamperTypeDef
ARM GAS  C:\Users\zdy\AppData\Local\Temp\cca8fajE.s 			page 45


1066:Drivers/STM32H7xx_HAL_Driver/Src/stm32h7xx_hal_rtc_ex.c **** {
1067:Drivers/STM32H7xx_HAL_Driver/Src/stm32h7xx_hal_rtc_ex.c ****   /* Check the parameters */
1068:Drivers/STM32H7xx_HAL_Driver/Src/stm32h7xx_hal_rtc_ex.c ****   assert_param(IS_RTC_INTERNAL_TAMPER(sIntTamper->IntTamper));
1069:Drivers/STM32H7xx_HAL_Driver/Src/stm32h7xx_hal_rtc_ex.c ****   assert_param(IS_RTC_TAMPER_TIMESTAMPONTAMPER_DETECTION(sIntTamper->TimeStampOnTamperDetection));
1070:Drivers/STM32H7xx_HAL_Driver/Src/stm32h7xx_hal_rtc_ex.c **** 
1071:Drivers/STM32H7xx_HAL_Driver/Src/stm32h7xx_hal_rtc_ex.c ****   /* Time-stamp on internal tamper */
1072:Drivers/STM32H7xx_HAL_Driver/Src/stm32h7xx_hal_rtc_ex.c ****   if (READ_BIT(RTC->CR, RTC_CR_TAMPTS) != sIntTamper->TimeStampOnTamperDetection)
1073:Drivers/STM32H7xx_HAL_Driver/Src/stm32h7xx_hal_rtc_ex.c ****   {
1074:Drivers/STM32H7xx_HAL_Driver/Src/stm32h7xx_hal_rtc_ex.c ****     __HAL_RTC_WRITEPROTECTION_DISABLE(hrtc);
1075:Drivers/STM32H7xx_HAL_Driver/Src/stm32h7xx_hal_rtc_ex.c ****     MODIFY_REG(RTC->CR, RTC_CR_TAMPTS, sIntTamper->TimeStampOnTamperDetection);
1076:Drivers/STM32H7xx_HAL_Driver/Src/stm32h7xx_hal_rtc_ex.c ****     __HAL_RTC_WRITEPROTECTION_ENABLE(hrtc);
1077:Drivers/STM32H7xx_HAL_Driver/Src/stm32h7xx_hal_rtc_ex.c ****   }
1078:Drivers/STM32H7xx_HAL_Driver/Src/stm32h7xx_hal_rtc_ex.c **** 
1079:Drivers/STM32H7xx_HAL_Driver/Src/stm32h7xx_hal_rtc_ex.c ****   /* RTC Tamper Interrupt Configuration: EXTI configuration */
1080:Drivers/STM32H7xx_HAL_Driver/Src/stm32h7xx_hal_rtc_ex.c ****   __HAL_RTC_TAMPER_TIMESTAMP_EXTI_ENABLE_IT();
1081:Drivers/STM32H7xx_HAL_Driver/Src/stm32h7xx_hal_rtc_ex.c ****   __HAL_RTC_TAMPER_TIMESTAMP_EXTI_ENABLE_RISING_FALLING_EDGE();
1082:Drivers/STM32H7xx_HAL_Driver/Src/stm32h7xx_hal_rtc_ex.c ****   /* Interrupt enable register */
1083:Drivers/STM32H7xx_HAL_Driver/Src/stm32h7xx_hal_rtc_ex.c ****   SET_BIT(TAMP->IER, sIntTamper->IntTamper);
1084:Drivers/STM32H7xx_HAL_Driver/Src/stm32h7xx_hal_rtc_ex.c **** 
1085:Drivers/STM32H7xx_HAL_Driver/Src/stm32h7xx_hal_rtc_ex.c ****   /* Control register 1 */
1086:Drivers/STM32H7xx_HAL_Driver/Src/stm32h7xx_hal_rtc_ex.c ****   SET_BIT(TAMP->CR1, sIntTamper->IntTamper);
1087:Drivers/STM32H7xx_HAL_Driver/Src/stm32h7xx_hal_rtc_ex.c **** 
1088:Drivers/STM32H7xx_HAL_Driver/Src/stm32h7xx_hal_rtc_ex.c ****   return HAL_OK;
1089:Drivers/STM32H7xx_HAL_Driver/Src/stm32h7xx_hal_rtc_ex.c **** }
1090:Drivers/STM32H7xx_HAL_Driver/Src/stm32h7xx_hal_rtc_ex.c **** 
1091:Drivers/STM32H7xx_HAL_Driver/Src/stm32h7xx_hal_rtc_ex.c **** /**
1092:Drivers/STM32H7xx_HAL_Driver/Src/stm32h7xx_hal_rtc_ex.c ****   * @brief  Deactivate Internal Tamper.
1093:Drivers/STM32H7xx_HAL_Driver/Src/stm32h7xx_hal_rtc_ex.c ****   * @param  hrtc RTC handle
1094:Drivers/STM32H7xx_HAL_Driver/Src/stm32h7xx_hal_rtc_ex.c ****   * @param  IntTamper Selected internal tamper event.
1095:Drivers/STM32H7xx_HAL_Driver/Src/stm32h7xx_hal_rtc_ex.c ****   *          This parameter can be any combination of existing internal tampers.
1096:Drivers/STM32H7xx_HAL_Driver/Src/stm32h7xx_hal_rtc_ex.c ****   * @retval HAL status
1097:Drivers/STM32H7xx_HAL_Driver/Src/stm32h7xx_hal_rtc_ex.c ****   */
1098:Drivers/STM32H7xx_HAL_Driver/Src/stm32h7xx_hal_rtc_ex.c **** HAL_StatusTypeDef HAL_RTCEx_DeactivateInternalTamper(RTC_HandleTypeDef *hrtc, uint32_t IntTamper)
1099:Drivers/STM32H7xx_HAL_Driver/Src/stm32h7xx_hal_rtc_ex.c **** {
1100:Drivers/STM32H7xx_HAL_Driver/Src/stm32h7xx_hal_rtc_ex.c ****   UNUSED(hrtc);
1101:Drivers/STM32H7xx_HAL_Driver/Src/stm32h7xx_hal_rtc_ex.c ****   assert_param(IS_RTC_INTERNAL_TAMPER(IntTamper));
1102:Drivers/STM32H7xx_HAL_Driver/Src/stm32h7xx_hal_rtc_ex.c **** 
1103:Drivers/STM32H7xx_HAL_Driver/Src/stm32h7xx_hal_rtc_ex.c ****   /* Disable the selected Tamper pin */
1104:Drivers/STM32H7xx_HAL_Driver/Src/stm32h7xx_hal_rtc_ex.c ****   CLEAR_BIT(TAMP->CR1, IntTamper);
1105:Drivers/STM32H7xx_HAL_Driver/Src/stm32h7xx_hal_rtc_ex.c **** 
1106:Drivers/STM32H7xx_HAL_Driver/Src/stm32h7xx_hal_rtc_ex.c ****   /* Clear internal tamper interrupt mode configuration */
1107:Drivers/STM32H7xx_HAL_Driver/Src/stm32h7xx_hal_rtc_ex.c ****   CLEAR_BIT(TAMP->IER, IntTamper);
1108:Drivers/STM32H7xx_HAL_Driver/Src/stm32h7xx_hal_rtc_ex.c **** 
1109:Drivers/STM32H7xx_HAL_Driver/Src/stm32h7xx_hal_rtc_ex.c ****   /* Clear internal tamper interrupt */
1110:Drivers/STM32H7xx_HAL_Driver/Src/stm32h7xx_hal_rtc_ex.c ****   WRITE_REG(TAMP->SCR, IntTamper);
1111:Drivers/STM32H7xx_HAL_Driver/Src/stm32h7xx_hal_rtc_ex.c **** 
1112:Drivers/STM32H7xx_HAL_Driver/Src/stm32h7xx_hal_rtc_ex.c ****   return HAL_OK;
1113:Drivers/STM32H7xx_HAL_Driver/Src/stm32h7xx_hal_rtc_ex.c **** }
1114:Drivers/STM32H7xx_HAL_Driver/Src/stm32h7xx_hal_rtc_ex.c **** #endif /* TAMP_CR1_ITAMP1E */
1115:Drivers/STM32H7xx_HAL_Driver/Src/stm32h7xx_hal_rtc_ex.c **** 
1116:Drivers/STM32H7xx_HAL_Driver/Src/stm32h7xx_hal_rtc_ex.c **** #if defined(TAMP_ATCR1_TAMP1AM)
1117:Drivers/STM32H7xx_HAL_Driver/Src/stm32h7xx_hal_rtc_ex.c **** /**
1118:Drivers/STM32H7xx_HAL_Driver/Src/stm32h7xx_hal_rtc_ex.c ****   * @brief  Set all active Tampers at the same time.
1119:Drivers/STM32H7xx_HAL_Driver/Src/stm32h7xx_hal_rtc_ex.c ****   * @param  hrtc RTC handle
1120:Drivers/STM32H7xx_HAL_Driver/Src/stm32h7xx_hal_rtc_ex.c ****   * @param  sAllTamper Pointer to active Tamper Structure.
1121:Drivers/STM32H7xx_HAL_Driver/Src/stm32h7xx_hal_rtc_ex.c ****   * @retval HAL status
1122:Drivers/STM32H7xx_HAL_Driver/Src/stm32h7xx_hal_rtc_ex.c ****   */
ARM GAS  C:\Users\zdy\AppData\Local\Temp\cca8fajE.s 			page 46


1123:Drivers/STM32H7xx_HAL_Driver/Src/stm32h7xx_hal_rtc_ex.c **** HAL_StatusTypeDef HAL_RTCEx_SetActiveTampers(RTC_HandleTypeDef *hrtc, RTC_ActiveTampersTypeDef *sAl
1124:Drivers/STM32H7xx_HAL_Driver/Src/stm32h7xx_hal_rtc_ex.c **** {
1125:Drivers/STM32H7xx_HAL_Driver/Src/stm32h7xx_hal_rtc_ex.c ****   uint32_t IER, CR1, CR2, ATCR1, CR, i, tickstart;
1126:Drivers/STM32H7xx_HAL_Driver/Src/stm32h7xx_hal_rtc_ex.c **** 
1127:Drivers/STM32H7xx_HAL_Driver/Src/stm32h7xx_hal_rtc_ex.c **** #ifdef  USE_FULL_ASSERT
1128:Drivers/STM32H7xx_HAL_Driver/Src/stm32h7xx_hal_rtc_ex.c ****   for (i = 0; i < RTC_TAMP_NB; i++)
1129:Drivers/STM32H7xx_HAL_Driver/Src/stm32h7xx_hal_rtc_ex.c ****   {
1130:Drivers/STM32H7xx_HAL_Driver/Src/stm32h7xx_hal_rtc_ex.c ****     assert_param(IS_RTC_TAMPER_ERASE_MODE(sAllTamper->TampInput[i].NoErase));
1131:Drivers/STM32H7xx_HAL_Driver/Src/stm32h7xx_hal_rtc_ex.c ****     assert_param(IS_RTC_TAMPER_MASKFLAG_STATE(sAllTamper->TampInput[i].MaskFlag));
1132:Drivers/STM32H7xx_HAL_Driver/Src/stm32h7xx_hal_rtc_ex.c ****     /* Mask flag only supported by TAMPER 1, 2 and 3 */
1133:Drivers/STM32H7xx_HAL_Driver/Src/stm32h7xx_hal_rtc_ex.c ****     assert_param(!((sAllTamper->TampInput[i].MaskFlag != RTC_TAMPERMASK_FLAG_DISABLE) && (i > RTC_T
1134:Drivers/STM32H7xx_HAL_Driver/Src/stm32h7xx_hal_rtc_ex.c ****   }
1135:Drivers/STM32H7xx_HAL_Driver/Src/stm32h7xx_hal_rtc_ex.c ****   assert_param(IS_RTC_TAMPER_TIMESTAMPONTAMPER_DETECTION(sAllTamper->TimeStampOnTamperDetection));
1136:Drivers/STM32H7xx_HAL_Driver/Src/stm32h7xx_hal_rtc_ex.c **** #endif /* #ifdef  USE_FULL_ASSERT */
1137:Drivers/STM32H7xx_HAL_Driver/Src/stm32h7xx_hal_rtc_ex.c **** 
1138:Drivers/STM32H7xx_HAL_Driver/Src/stm32h7xx_hal_rtc_ex.c ****   /* Active Tampers must not be already enabled */
1139:Drivers/STM32H7xx_HAL_Driver/Src/stm32h7xx_hal_rtc_ex.c ****   if (READ_BIT(TAMP->ATOR, TAMP_ATOR_INITS) != 0U)
1140:Drivers/STM32H7xx_HAL_Driver/Src/stm32h7xx_hal_rtc_ex.c ****   {
1141:Drivers/STM32H7xx_HAL_Driver/Src/stm32h7xx_hal_rtc_ex.c ****     /* Disable all active tampers with HAL_RTCEx_DeactivateActiveTampers */
1142:Drivers/STM32H7xx_HAL_Driver/Src/stm32h7xx_hal_rtc_ex.c ****     if (HAL_RTCEx_DeactivateActiveTampers(hrtc) != HAL_OK)
1143:Drivers/STM32H7xx_HAL_Driver/Src/stm32h7xx_hal_rtc_ex.c ****     {
1144:Drivers/STM32H7xx_HAL_Driver/Src/stm32h7xx_hal_rtc_ex.c ****       return HAL_ERROR;
1145:Drivers/STM32H7xx_HAL_Driver/Src/stm32h7xx_hal_rtc_ex.c ****     }
1146:Drivers/STM32H7xx_HAL_Driver/Src/stm32h7xx_hal_rtc_ex.c ****   }
1147:Drivers/STM32H7xx_HAL_Driver/Src/stm32h7xx_hal_rtc_ex.c **** 
1148:Drivers/STM32H7xx_HAL_Driver/Src/stm32h7xx_hal_rtc_ex.c ****   /* Set TimeStamp on tamper detection */
1149:Drivers/STM32H7xx_HAL_Driver/Src/stm32h7xx_hal_rtc_ex.c ****   CR = READ_REG(RTC->CR);
1150:Drivers/STM32H7xx_HAL_Driver/Src/stm32h7xx_hal_rtc_ex.c ****   if ((CR & RTC_CR_TAMPTS) != (sAllTamper->TimeStampOnTamperDetection))
1151:Drivers/STM32H7xx_HAL_Driver/Src/stm32h7xx_hal_rtc_ex.c ****   {
1152:Drivers/STM32H7xx_HAL_Driver/Src/stm32h7xx_hal_rtc_ex.c ****     __HAL_RTC_WRITEPROTECTION_DISABLE(hrtc);
1153:Drivers/STM32H7xx_HAL_Driver/Src/stm32h7xx_hal_rtc_ex.c ****     MODIFY_REG(RTC->CR, RTC_CR_TAMPTS, sAllTamper->TimeStampOnTamperDetection);
1154:Drivers/STM32H7xx_HAL_Driver/Src/stm32h7xx_hal_rtc_ex.c ****     __HAL_RTC_WRITEPROTECTION_ENABLE(hrtc);
1155:Drivers/STM32H7xx_HAL_Driver/Src/stm32h7xx_hal_rtc_ex.c ****   }
1156:Drivers/STM32H7xx_HAL_Driver/Src/stm32h7xx_hal_rtc_ex.c **** 
1157:Drivers/STM32H7xx_HAL_Driver/Src/stm32h7xx_hal_rtc_ex.c ****   CR1 = READ_REG(TAMP->CR1);
1158:Drivers/STM32H7xx_HAL_Driver/Src/stm32h7xx_hal_rtc_ex.c ****   CR2 = READ_REG(TAMP->CR2);
1159:Drivers/STM32H7xx_HAL_Driver/Src/stm32h7xx_hal_rtc_ex.c ****   IER = READ_REG(TAMP->IER);
1160:Drivers/STM32H7xx_HAL_Driver/Src/stm32h7xx_hal_rtc_ex.c **** 
1161:Drivers/STM32H7xx_HAL_Driver/Src/stm32h7xx_hal_rtc_ex.c ****   /* Set common parameters */
1162:Drivers/STM32H7xx_HAL_Driver/Src/stm32h7xx_hal_rtc_ex.c ****   ATCR1 = (sAllTamper->ActiveFilter | (sAllTamper->ActiveOutputChangePeriod << TAMP_ATCR1_ATPER_Pos
1163:Drivers/STM32H7xx_HAL_Driver/Src/stm32h7xx_hal_rtc_ex.c **** 
1164:Drivers/STM32H7xx_HAL_Driver/Src/stm32h7xx_hal_rtc_ex.c ****   /* Set specific parameters for each active tamper inputs if enable */
1165:Drivers/STM32H7xx_HAL_Driver/Src/stm32h7xx_hal_rtc_ex.c ****   for (i = 0; i < RTC_TAMP_NB; i++)
1166:Drivers/STM32H7xx_HAL_Driver/Src/stm32h7xx_hal_rtc_ex.c ****   {
1167:Drivers/STM32H7xx_HAL_Driver/Src/stm32h7xx_hal_rtc_ex.c ****     if (sAllTamper->TampInput[i].Enable != RTC_ATAMP_DISABLE)
1168:Drivers/STM32H7xx_HAL_Driver/Src/stm32h7xx_hal_rtc_ex.c ****     {
1169:Drivers/STM32H7xx_HAL_Driver/Src/stm32h7xx_hal_rtc_ex.c ****       CR1 |= (TAMP_CR1_TAMP1E << i);
1170:Drivers/STM32H7xx_HAL_Driver/Src/stm32h7xx_hal_rtc_ex.c ****       ATCR1 |= (TAMP_ATCR1_TAMP1AM << i);
1171:Drivers/STM32H7xx_HAL_Driver/Src/stm32h7xx_hal_rtc_ex.c **** 
1172:Drivers/STM32H7xx_HAL_Driver/Src/stm32h7xx_hal_rtc_ex.c ****       if (sAllTamper->TampInput[i].Interrupt != RTC_ATAMP_INTERRUPT_DISABLE)
1173:Drivers/STM32H7xx_HAL_Driver/Src/stm32h7xx_hal_rtc_ex.c ****       {
1174:Drivers/STM32H7xx_HAL_Driver/Src/stm32h7xx_hal_rtc_ex.c ****         /* RTC Tamper Interrupt Configuration: EXTI configuration */
1175:Drivers/STM32H7xx_HAL_Driver/Src/stm32h7xx_hal_rtc_ex.c ****         __HAL_RTC_TAMPER_TIMESTAMP_EXTI_ENABLE_IT();
1176:Drivers/STM32H7xx_HAL_Driver/Src/stm32h7xx_hal_rtc_ex.c ****         __HAL_RTC_TAMPER_TIMESTAMP_EXTI_ENABLE_RISING_EDGE();
1177:Drivers/STM32H7xx_HAL_Driver/Src/stm32h7xx_hal_rtc_ex.c **** 
1178:Drivers/STM32H7xx_HAL_Driver/Src/stm32h7xx_hal_rtc_ex.c ****         /* Interrupt enable register */
1179:Drivers/STM32H7xx_HAL_Driver/Src/stm32h7xx_hal_rtc_ex.c ****         IER |= (TAMP_IER_TAMP1IE << i);
ARM GAS  C:\Users\zdy\AppData\Local\Temp\cca8fajE.s 			page 47


1180:Drivers/STM32H7xx_HAL_Driver/Src/stm32h7xx_hal_rtc_ex.c ****       }
1181:Drivers/STM32H7xx_HAL_Driver/Src/stm32h7xx_hal_rtc_ex.c **** 
1182:Drivers/STM32H7xx_HAL_Driver/Src/stm32h7xx_hal_rtc_ex.c ****       if (sAllTamper->TampInput[i].MaskFlag != RTC_TAMPERMASK_FLAG_DISABLE)
1183:Drivers/STM32H7xx_HAL_Driver/Src/stm32h7xx_hal_rtc_ex.c ****       {
1184:Drivers/STM32H7xx_HAL_Driver/Src/stm32h7xx_hal_rtc_ex.c ****         CR2 |= (TAMP_CR2_TAMP1MSK << i);
1185:Drivers/STM32H7xx_HAL_Driver/Src/stm32h7xx_hal_rtc_ex.c ****       }
1186:Drivers/STM32H7xx_HAL_Driver/Src/stm32h7xx_hal_rtc_ex.c **** 
1187:Drivers/STM32H7xx_HAL_Driver/Src/stm32h7xx_hal_rtc_ex.c ****       if (sAllTamper->TampInput[i].NoErase != RTC_TAMPER_ERASE_BACKUP_ENABLE)
1188:Drivers/STM32H7xx_HAL_Driver/Src/stm32h7xx_hal_rtc_ex.c ****       {
1189:Drivers/STM32H7xx_HAL_Driver/Src/stm32h7xx_hal_rtc_ex.c ****         CR2 |= (TAMP_CR2_TAMP1NOERASE << i);
1190:Drivers/STM32H7xx_HAL_Driver/Src/stm32h7xx_hal_rtc_ex.c ****       }
1191:Drivers/STM32H7xx_HAL_Driver/Src/stm32h7xx_hal_rtc_ex.c **** 
1192:Drivers/STM32H7xx_HAL_Driver/Src/stm32h7xx_hal_rtc_ex.c ****       /* Set ATOSHARE and configure ATOSELx[] in case of output sharing */
1193:Drivers/STM32H7xx_HAL_Driver/Src/stm32h7xx_hal_rtc_ex.c ****       if (sAllTamper->TampInput[i].Output != i)
1194:Drivers/STM32H7xx_HAL_Driver/Src/stm32h7xx_hal_rtc_ex.c ****       {
1195:Drivers/STM32H7xx_HAL_Driver/Src/stm32h7xx_hal_rtc_ex.c ****         ATCR1 |= TAMP_ATCR1_ATOSHARE;
1196:Drivers/STM32H7xx_HAL_Driver/Src/stm32h7xx_hal_rtc_ex.c ****         ATCR1 |= sAllTamper->TampInput[i].Output << ((2u * i) + TAMP_ATCR1_ATOSEL1_Pos);
1197:Drivers/STM32H7xx_HAL_Driver/Src/stm32h7xx_hal_rtc_ex.c ****       }
1198:Drivers/STM32H7xx_HAL_Driver/Src/stm32h7xx_hal_rtc_ex.c ****     }
1199:Drivers/STM32H7xx_HAL_Driver/Src/stm32h7xx_hal_rtc_ex.c ****   }
1200:Drivers/STM32H7xx_HAL_Driver/Src/stm32h7xx_hal_rtc_ex.c **** 
1201:Drivers/STM32H7xx_HAL_Driver/Src/stm32h7xx_hal_rtc_ex.c ****   WRITE_REG(TAMP->IER, IER);
1202:Drivers/STM32H7xx_HAL_Driver/Src/stm32h7xx_hal_rtc_ex.c ****   WRITE_REG(TAMP->IER, IER);
1203:Drivers/STM32H7xx_HAL_Driver/Src/stm32h7xx_hal_rtc_ex.c ****   WRITE_REG(TAMP->ATCR1, ATCR1);
1204:Drivers/STM32H7xx_HAL_Driver/Src/stm32h7xx_hal_rtc_ex.c **** #if defined(TAMP_ATCR2_ATOSEL1)
1205:Drivers/STM32H7xx_HAL_Driver/Src/stm32h7xx_hal_rtc_ex.c ****   WRITE_REG(TAMP->ATCR2, ATCR2);
1206:Drivers/STM32H7xx_HAL_Driver/Src/stm32h7xx_hal_rtc_ex.c **** #endif /* TAMP_ATCR2_ATOSEL1 */
1207:Drivers/STM32H7xx_HAL_Driver/Src/stm32h7xx_hal_rtc_ex.c ****   WRITE_REG(TAMP->CR2, CR2);
1208:Drivers/STM32H7xx_HAL_Driver/Src/stm32h7xx_hal_rtc_ex.c ****   WRITE_REG(TAMP->CR1, CR1);
1209:Drivers/STM32H7xx_HAL_Driver/Src/stm32h7xx_hal_rtc_ex.c **** 
1210:Drivers/STM32H7xx_HAL_Driver/Src/stm32h7xx_hal_rtc_ex.c ****   /* Write seed */
1211:Drivers/STM32H7xx_HAL_Driver/Src/stm32h7xx_hal_rtc_ex.c ****   for (i = 0; i < RTC_ATAMP_SEED_NB_UINT32; i++)
1212:Drivers/STM32H7xx_HAL_Driver/Src/stm32h7xx_hal_rtc_ex.c ****   {
1213:Drivers/STM32H7xx_HAL_Driver/Src/stm32h7xx_hal_rtc_ex.c ****     WRITE_REG(TAMP->ATSEEDR, sAllTamper->Seed[i]);
1214:Drivers/STM32H7xx_HAL_Driver/Src/stm32h7xx_hal_rtc_ex.c ****   }
1215:Drivers/STM32H7xx_HAL_Driver/Src/stm32h7xx_hal_rtc_ex.c **** 
1216:Drivers/STM32H7xx_HAL_Driver/Src/stm32h7xx_hal_rtc_ex.c ****   /* Wait till RTC SEEDF flag is set and if Time out is reached exit */
1217:Drivers/STM32H7xx_HAL_Driver/Src/stm32h7xx_hal_rtc_ex.c ****   tickstart = HAL_GetTick();
1218:Drivers/STM32H7xx_HAL_Driver/Src/stm32h7xx_hal_rtc_ex.c ****   while (READ_BIT(TAMP->ATOR,  TAMP_ATOR_SEEDF) != 0u)
1219:Drivers/STM32H7xx_HAL_Driver/Src/stm32h7xx_hal_rtc_ex.c ****   {
1220:Drivers/STM32H7xx_HAL_Driver/Src/stm32h7xx_hal_rtc_ex.c ****     if ((HAL_GetTick() - tickstart) > RTC_TIMEOUT_VALUE)
1221:Drivers/STM32H7xx_HAL_Driver/Src/stm32h7xx_hal_rtc_ex.c ****     {
1222:Drivers/STM32H7xx_HAL_Driver/Src/stm32h7xx_hal_rtc_ex.c ****       hrtc->State = HAL_RTC_STATE_TIMEOUT;
1223:Drivers/STM32H7xx_HAL_Driver/Src/stm32h7xx_hal_rtc_ex.c ****       return HAL_TIMEOUT;
1224:Drivers/STM32H7xx_HAL_Driver/Src/stm32h7xx_hal_rtc_ex.c ****     }
1225:Drivers/STM32H7xx_HAL_Driver/Src/stm32h7xx_hal_rtc_ex.c ****   }
1226:Drivers/STM32H7xx_HAL_Driver/Src/stm32h7xx_hal_rtc_ex.c **** 
1227:Drivers/STM32H7xx_HAL_Driver/Src/stm32h7xx_hal_rtc_ex.c ****   return HAL_OK;
1228:Drivers/STM32H7xx_HAL_Driver/Src/stm32h7xx_hal_rtc_ex.c **** }
1229:Drivers/STM32H7xx_HAL_Driver/Src/stm32h7xx_hal_rtc_ex.c **** #endif /* TAMP_ATCR1_TAMP1AM */
1230:Drivers/STM32H7xx_HAL_Driver/Src/stm32h7xx_hal_rtc_ex.c **** 
1231:Drivers/STM32H7xx_HAL_Driver/Src/stm32h7xx_hal_rtc_ex.c **** #if defined(TAMP_ATSEEDR_SEED)
1232:Drivers/STM32H7xx_HAL_Driver/Src/stm32h7xx_hal_rtc_ex.c **** /**
1233:Drivers/STM32H7xx_HAL_Driver/Src/stm32h7xx_hal_rtc_ex.c ****   * @brief  Write a new seed. Active tamper must be enabled.
1234:Drivers/STM32H7xx_HAL_Driver/Src/stm32h7xx_hal_rtc_ex.c ****   * @param  hrtc RTC handle
1235:Drivers/STM32H7xx_HAL_Driver/Src/stm32h7xx_hal_rtc_ex.c ****   * @param  pSeed Pointer to active tamper seed values.
1236:Drivers/STM32H7xx_HAL_Driver/Src/stm32h7xx_hal_rtc_ex.c ****   * @retval HAL status
ARM GAS  C:\Users\zdy\AppData\Local\Temp\cca8fajE.s 			page 48


1237:Drivers/STM32H7xx_HAL_Driver/Src/stm32h7xx_hal_rtc_ex.c ****   */
1238:Drivers/STM32H7xx_HAL_Driver/Src/stm32h7xx_hal_rtc_ex.c **** HAL_StatusTypeDef HAL_RTCEx_SetActiveSeed(RTC_HandleTypeDef *hrtc, uint32_t *pSeed)
1239:Drivers/STM32H7xx_HAL_Driver/Src/stm32h7xx_hal_rtc_ex.c **** {
1240:Drivers/STM32H7xx_HAL_Driver/Src/stm32h7xx_hal_rtc_ex.c ****   uint32_t i, tickstart;
1241:Drivers/STM32H7xx_HAL_Driver/Src/stm32h7xx_hal_rtc_ex.c **** 
1242:Drivers/STM32H7xx_HAL_Driver/Src/stm32h7xx_hal_rtc_ex.c ****   /* Active Tampers must be enabled */
1243:Drivers/STM32H7xx_HAL_Driver/Src/stm32h7xx_hal_rtc_ex.c ****   if (READ_BIT(TAMP->ATOR,  TAMP_ATOR_INITS) == 0U)
1244:Drivers/STM32H7xx_HAL_Driver/Src/stm32h7xx_hal_rtc_ex.c ****   {
1245:Drivers/STM32H7xx_HAL_Driver/Src/stm32h7xx_hal_rtc_ex.c ****     return HAL_ERROR;
1246:Drivers/STM32H7xx_HAL_Driver/Src/stm32h7xx_hal_rtc_ex.c ****   }
1247:Drivers/STM32H7xx_HAL_Driver/Src/stm32h7xx_hal_rtc_ex.c **** 
1248:Drivers/STM32H7xx_HAL_Driver/Src/stm32h7xx_hal_rtc_ex.c ****   for (i = 0; i < RTC_ATAMP_SEED_NB_UINT32; i++)
1249:Drivers/STM32H7xx_HAL_Driver/Src/stm32h7xx_hal_rtc_ex.c ****   {
1250:Drivers/STM32H7xx_HAL_Driver/Src/stm32h7xx_hal_rtc_ex.c ****     WRITE_REG(TAMP->ATSEEDR, pSeed[i]);
1251:Drivers/STM32H7xx_HAL_Driver/Src/stm32h7xx_hal_rtc_ex.c ****   }
1252:Drivers/STM32H7xx_HAL_Driver/Src/stm32h7xx_hal_rtc_ex.c **** 
1253:Drivers/STM32H7xx_HAL_Driver/Src/stm32h7xx_hal_rtc_ex.c ****   /* Wait till RTC SEEDF flag is set and if Time out is reached exit */
1254:Drivers/STM32H7xx_HAL_Driver/Src/stm32h7xx_hal_rtc_ex.c ****   tickstart = HAL_GetTick();
1255:Drivers/STM32H7xx_HAL_Driver/Src/stm32h7xx_hal_rtc_ex.c ****   while (READ_BIT(TAMP->ATOR,  TAMP_ATOR_SEEDF) != 0U)
1256:Drivers/STM32H7xx_HAL_Driver/Src/stm32h7xx_hal_rtc_ex.c ****   {
1257:Drivers/STM32H7xx_HAL_Driver/Src/stm32h7xx_hal_rtc_ex.c ****     if ((HAL_GetTick() - tickstart) > RTC_TIMEOUT_VALUE)
1258:Drivers/STM32H7xx_HAL_Driver/Src/stm32h7xx_hal_rtc_ex.c ****     {
1259:Drivers/STM32H7xx_HAL_Driver/Src/stm32h7xx_hal_rtc_ex.c ****       hrtc->State = HAL_RTC_STATE_TIMEOUT;
1260:Drivers/STM32H7xx_HAL_Driver/Src/stm32h7xx_hal_rtc_ex.c ****       return HAL_TIMEOUT;
1261:Drivers/STM32H7xx_HAL_Driver/Src/stm32h7xx_hal_rtc_ex.c ****     }
1262:Drivers/STM32H7xx_HAL_Driver/Src/stm32h7xx_hal_rtc_ex.c ****   }
1263:Drivers/STM32H7xx_HAL_Driver/Src/stm32h7xx_hal_rtc_ex.c **** 
1264:Drivers/STM32H7xx_HAL_Driver/Src/stm32h7xx_hal_rtc_ex.c ****   return HAL_OK;
1265:Drivers/STM32H7xx_HAL_Driver/Src/stm32h7xx_hal_rtc_ex.c **** }
1266:Drivers/STM32H7xx_HAL_Driver/Src/stm32h7xx_hal_rtc_ex.c **** #endif /* TAMP_ATSEEDR_SEED */
1267:Drivers/STM32H7xx_HAL_Driver/Src/stm32h7xx_hal_rtc_ex.c **** 
1268:Drivers/STM32H7xx_HAL_Driver/Src/stm32h7xx_hal_rtc_ex.c **** #if defined(TAMP_ATCR1_TAMP1AM)
1269:Drivers/STM32H7xx_HAL_Driver/Src/stm32h7xx_hal_rtc_ex.c **** /**
1270:Drivers/STM32H7xx_HAL_Driver/Src/stm32h7xx_hal_rtc_ex.c ****   * @brief  Deactivate all Active Tampers at the same time.
1271:Drivers/STM32H7xx_HAL_Driver/Src/stm32h7xx_hal_rtc_ex.c ****   * @param  hrtc RTC handle
1272:Drivers/STM32H7xx_HAL_Driver/Src/stm32h7xx_hal_rtc_ex.c ****   * @retval HAL status
1273:Drivers/STM32H7xx_HAL_Driver/Src/stm32h7xx_hal_rtc_ex.c ****   */
1274:Drivers/STM32H7xx_HAL_Driver/Src/stm32h7xx_hal_rtc_ex.c **** HAL_StatusTypeDef HAL_RTCEx_DeactivateActiveTampers(RTC_HandleTypeDef *hrtc)
1275:Drivers/STM32H7xx_HAL_Driver/Src/stm32h7xx_hal_rtc_ex.c **** {
1276:Drivers/STM32H7xx_HAL_Driver/Src/stm32h7xx_hal_rtc_ex.c ****   /* Get Active tampers */
1277:Drivers/STM32H7xx_HAL_Driver/Src/stm32h7xx_hal_rtc_ex.c ****   uint32_t ATamp_mask = READ_BIT(TAMP->ATCR1, TAMP_ALL);
1278:Drivers/STM32H7xx_HAL_Driver/Src/stm32h7xx_hal_rtc_ex.c **** 
1279:Drivers/STM32H7xx_HAL_Driver/Src/stm32h7xx_hal_rtc_ex.c ****   UNUSED(hrtc);
1280:Drivers/STM32H7xx_HAL_Driver/Src/stm32h7xx_hal_rtc_ex.c ****   /* Disable all actives tampers but not passives tampers */
1281:Drivers/STM32H7xx_HAL_Driver/Src/stm32h7xx_hal_rtc_ex.c ****   CLEAR_BIT(TAMP->CR1, ATamp_mask);
1282:Drivers/STM32H7xx_HAL_Driver/Src/stm32h7xx_hal_rtc_ex.c ****   /* Disable no erase and mask */
1283:Drivers/STM32H7xx_HAL_Driver/Src/stm32h7xx_hal_rtc_ex.c ****   CLEAR_BIT(TAMP->CR2, (ATamp_mask | ((ATamp_mask & (TAMP_ATCR1_TAMP1AM | TAMP_ATCR1_TAMP2AM | TAMP
1284:Drivers/STM32H7xx_HAL_Driver/Src/stm32h7xx_hal_rtc_ex.c **** 
1285:Drivers/STM32H7xx_HAL_Driver/Src/stm32h7xx_hal_rtc_ex.c ****   /* Clear tamper interrupt and event flags (WO register) of all actives tampers but not passives t
1286:Drivers/STM32H7xx_HAL_Driver/Src/stm32h7xx_hal_rtc_ex.c ****   WRITE_REG(TAMP->SCR, ATamp_mask);
1287:Drivers/STM32H7xx_HAL_Driver/Src/stm32h7xx_hal_rtc_ex.c **** 
1288:Drivers/STM32H7xx_HAL_Driver/Src/stm32h7xx_hal_rtc_ex.c ****   /* Clear all active tampers interrupt mode configuration but not passives tampers */
1289:Drivers/STM32H7xx_HAL_Driver/Src/stm32h7xx_hal_rtc_ex.c ****   CLEAR_BIT(TAMP->IER, ATamp_mask);
1290:Drivers/STM32H7xx_HAL_Driver/Src/stm32h7xx_hal_rtc_ex.c **** 
1291:Drivers/STM32H7xx_HAL_Driver/Src/stm32h7xx_hal_rtc_ex.c ****   CLEAR_BIT(TAMP->ATCR1, TAMP_ALL | TAMP_ATCR1_ATCKSEL | TAMP_ATCR1_ATPER | \
1292:Drivers/STM32H7xx_HAL_Driver/Src/stm32h7xx_hal_rtc_ex.c ****             TAMP_ATCR1_ATOSHARE | TAMP_ATCR1_FLTEN);
1293:Drivers/STM32H7xx_HAL_Driver/Src/stm32h7xx_hal_rtc_ex.c **** 
ARM GAS  C:\Users\zdy\AppData\Local\Temp\cca8fajE.s 			page 49


1294:Drivers/STM32H7xx_HAL_Driver/Src/stm32h7xx_hal_rtc_ex.c **** #if defined(TAMP_ATCR2_ATOSEL1)
1295:Drivers/STM32H7xx_HAL_Driver/Src/stm32h7xx_hal_rtc_ex.c ****   CLEAR_BIT(TAMP->ATCR2, TAMP_ATCR2_ATOSEL1 | TAMP_ATCR2_ATOSEL2 | TAMP_ATCR2_ATOSEL3 | TAMP_ATCR2_
1296:Drivers/STM32H7xx_HAL_Driver/Src/stm32h7xx_hal_rtc_ex.c ****             TAMP_ATCR2_ATOSEL5 | TAMP_ATCR2_ATOSEL6 | TAMP_ATCR2_ATOSEL7 | TAMP_ATCR2_ATOSEL8);
1297:Drivers/STM32H7xx_HAL_Driver/Src/stm32h7xx_hal_rtc_ex.c **** #endif /* TAMP_ATCR2_ATOSEL1 */
1298:Drivers/STM32H7xx_HAL_Driver/Src/stm32h7xx_hal_rtc_ex.c **** 
1299:Drivers/STM32H7xx_HAL_Driver/Src/stm32h7xx_hal_rtc_ex.c ****   return HAL_OK;
1300:Drivers/STM32H7xx_HAL_Driver/Src/stm32h7xx_hal_rtc_ex.c **** }
1301:Drivers/STM32H7xx_HAL_Driver/Src/stm32h7xx_hal_rtc_ex.c **** #endif /* TAMP_ATCR1_TAMP1AM */
1302:Drivers/STM32H7xx_HAL_Driver/Src/stm32h7xx_hal_rtc_ex.c **** 
1303:Drivers/STM32H7xx_HAL_Driver/Src/stm32h7xx_hal_rtc_ex.c **** /**
1304:Drivers/STM32H7xx_HAL_Driver/Src/stm32h7xx_hal_rtc_ex.c ****   * @}
1305:Drivers/STM32H7xx_HAL_Driver/Src/stm32h7xx_hal_rtc_ex.c ****   */
1306:Drivers/STM32H7xx_HAL_Driver/Src/stm32h7xx_hal_rtc_ex.c **** 
1307:Drivers/STM32H7xx_HAL_Driver/Src/stm32h7xx_hal_rtc_ex.c **** /** @addtogroup RTCEx_Exported_Functions_Group1
1308:Drivers/STM32H7xx_HAL_Driver/Src/stm32h7xx_hal_rtc_ex.c ****  *  @brief   RTC TimeStamp and Tamper functions
1309:Drivers/STM32H7xx_HAL_Driver/Src/stm32h7xx_hal_rtc_ex.c ****  *
1310:Drivers/STM32H7xx_HAL_Driver/Src/stm32h7xx_hal_rtc_ex.c **** * @{
1311:Drivers/STM32H7xx_HAL_Driver/Src/stm32h7xx_hal_rtc_ex.c **** */
1312:Drivers/STM32H7xx_HAL_Driver/Src/stm32h7xx_hal_rtc_ex.c **** 
1313:Drivers/STM32H7xx_HAL_Driver/Src/stm32h7xx_hal_rtc_ex.c **** /**
1314:Drivers/STM32H7xx_HAL_Driver/Src/stm32h7xx_hal_rtc_ex.c ****   * @brief  Handle TimeStamp interrupt request.
1315:Drivers/STM32H7xx_HAL_Driver/Src/stm32h7xx_hal_rtc_ex.c ****   * @param  hrtc RTC handle
1316:Drivers/STM32H7xx_HAL_Driver/Src/stm32h7xx_hal_rtc_ex.c ****   * @retval None
1317:Drivers/STM32H7xx_HAL_Driver/Src/stm32h7xx_hal_rtc_ex.c ****   */
1318:Drivers/STM32H7xx_HAL_Driver/Src/stm32h7xx_hal_rtc_ex.c **** #if defined(RTC_MISR_TSMF)
1319:Drivers/STM32H7xx_HAL_Driver/Src/stm32h7xx_hal_rtc_ex.c **** void HAL_RTCEx_TamperTimeStampIRQHandler(RTC_HandleTypeDef *hrtc)
1320:Drivers/STM32H7xx_HAL_Driver/Src/stm32h7xx_hal_rtc_ex.c **** {
1321:Drivers/STM32H7xx_HAL_Driver/Src/stm32h7xx_hal_rtc_ex.c **** 
1322:Drivers/STM32H7xx_HAL_Driver/Src/stm32h7xx_hal_rtc_ex.c ****   /* Point on TAMPER registers base address */
1323:Drivers/STM32H7xx_HAL_Driver/Src/stm32h7xx_hal_rtc_ex.c ****   TAMP_TypeDef *tamp = (TAMP_TypeDef *)((uint32_t)hrtc->Instance + TAMP_OFFSET);
1324:Drivers/STM32H7xx_HAL_Driver/Src/stm32h7xx_hal_rtc_ex.c **** 
1325:Drivers/STM32H7xx_HAL_Driver/Src/stm32h7xx_hal_rtc_ex.c ****   /* Clear the EXTI's Flag for RTC TimeStamp and Tamper */
1326:Drivers/STM32H7xx_HAL_Driver/Src/stm32h7xx_hal_rtc_ex.c ****   __HAL_RTC_TAMPER_TIMESTAMP_EXTI_CLEAR_FLAG();
1327:Drivers/STM32H7xx_HAL_Driver/Src/stm32h7xx_hal_rtc_ex.c **** 
1328:Drivers/STM32H7xx_HAL_Driver/Src/stm32h7xx_hal_rtc_ex.c ****   if ((hrtc->Instance->MISR & RTC_MISR_TSMF) != 0u)
1329:Drivers/STM32H7xx_HAL_Driver/Src/stm32h7xx_hal_rtc_ex.c ****   {
1330:Drivers/STM32H7xx_HAL_Driver/Src/stm32h7xx_hal_rtc_ex.c **** #if (USE_HAL_RTC_REGISTER_CALLBACKS == 1)
1331:Drivers/STM32H7xx_HAL_Driver/Src/stm32h7xx_hal_rtc_ex.c ****     /* Call TimeStampEvent registered Callback */
1332:Drivers/STM32H7xx_HAL_Driver/Src/stm32h7xx_hal_rtc_ex.c ****     hrtc->TimeStampEventCallback(hrtc);
1333:Drivers/STM32H7xx_HAL_Driver/Src/stm32h7xx_hal_rtc_ex.c **** #else
1334:Drivers/STM32H7xx_HAL_Driver/Src/stm32h7xx_hal_rtc_ex.c ****     HAL_RTCEx_TimeStampEventCallback(hrtc);
1335:Drivers/STM32H7xx_HAL_Driver/Src/stm32h7xx_hal_rtc_ex.c **** #endif /* USE_HAL_RTC_REGISTER_CALLBACKS */
1336:Drivers/STM32H7xx_HAL_Driver/Src/stm32h7xx_hal_rtc_ex.c ****     /* Not immediately clear flags because the content of RTC_TSTR and RTC_TSDR are cleared when TS
1337:Drivers/STM32H7xx_HAL_Driver/Src/stm32h7xx_hal_rtc_ex.c ****     hrtc->Instance->SCR = RTC_SCR_CTSF;
1338:Drivers/STM32H7xx_HAL_Driver/Src/stm32h7xx_hal_rtc_ex.c ****   }
1339:Drivers/STM32H7xx_HAL_Driver/Src/stm32h7xx_hal_rtc_ex.c **** 
1340:Drivers/STM32H7xx_HAL_Driver/Src/stm32h7xx_hal_rtc_ex.c ****   /* Get interrupt status */
1341:Drivers/STM32H7xx_HAL_Driver/Src/stm32h7xx_hal_rtc_ex.c ****   uint32_t tmp = tamp->MISR;
1342:Drivers/STM32H7xx_HAL_Driver/Src/stm32h7xx_hal_rtc_ex.c **** 
1343:Drivers/STM32H7xx_HAL_Driver/Src/stm32h7xx_hal_rtc_ex.c ****   /* Immediately clear flags */
1344:Drivers/STM32H7xx_HAL_Driver/Src/stm32h7xx_hal_rtc_ex.c ****   tamp->SCR = tmp;
1345:Drivers/STM32H7xx_HAL_Driver/Src/stm32h7xx_hal_rtc_ex.c **** 
1346:Drivers/STM32H7xx_HAL_Driver/Src/stm32h7xx_hal_rtc_ex.c **** #if defined(TAMP_CR1_TAMP1E)
1347:Drivers/STM32H7xx_HAL_Driver/Src/stm32h7xx_hal_rtc_ex.c ****   /* Check Tamper1 status */
1348:Drivers/STM32H7xx_HAL_Driver/Src/stm32h7xx_hal_rtc_ex.c ****   if ((tmp & RTC_TAMPER_1) == RTC_TAMPER_1)
1349:Drivers/STM32H7xx_HAL_Driver/Src/stm32h7xx_hal_rtc_ex.c ****   {
1350:Drivers/STM32H7xx_HAL_Driver/Src/stm32h7xx_hal_rtc_ex.c **** #if (USE_HAL_RTC_REGISTER_CALLBACKS == 1)
ARM GAS  C:\Users\zdy\AppData\Local\Temp\cca8fajE.s 			page 50


1351:Drivers/STM32H7xx_HAL_Driver/Src/stm32h7xx_hal_rtc_ex.c ****     /* Call Tamper 1 Event registered Callback */
1352:Drivers/STM32H7xx_HAL_Driver/Src/stm32h7xx_hal_rtc_ex.c ****     hrtc->Tamper1EventCallback(hrtc);
1353:Drivers/STM32H7xx_HAL_Driver/Src/stm32h7xx_hal_rtc_ex.c **** #else
1354:Drivers/STM32H7xx_HAL_Driver/Src/stm32h7xx_hal_rtc_ex.c ****     /* Tamper1 callback */
1355:Drivers/STM32H7xx_HAL_Driver/Src/stm32h7xx_hal_rtc_ex.c ****     HAL_RTCEx_Tamper1EventCallback(hrtc);
1356:Drivers/STM32H7xx_HAL_Driver/Src/stm32h7xx_hal_rtc_ex.c **** #endif /* USE_HAL_RTC_REGISTER_CALLBACKS */
1357:Drivers/STM32H7xx_HAL_Driver/Src/stm32h7xx_hal_rtc_ex.c ****   }
1358:Drivers/STM32H7xx_HAL_Driver/Src/stm32h7xx_hal_rtc_ex.c **** #endif /* TAMP_CR1_TAMP1E */
1359:Drivers/STM32H7xx_HAL_Driver/Src/stm32h7xx_hal_rtc_ex.c **** 
1360:Drivers/STM32H7xx_HAL_Driver/Src/stm32h7xx_hal_rtc_ex.c **** #if defined(TAMP_CR1_TAMP2E)
1361:Drivers/STM32H7xx_HAL_Driver/Src/stm32h7xx_hal_rtc_ex.c ****   /* Check Tamper2 status */
1362:Drivers/STM32H7xx_HAL_Driver/Src/stm32h7xx_hal_rtc_ex.c ****   if ((tmp & RTC_TAMPER_2) == RTC_TAMPER_2)
1363:Drivers/STM32H7xx_HAL_Driver/Src/stm32h7xx_hal_rtc_ex.c ****   {
1364:Drivers/STM32H7xx_HAL_Driver/Src/stm32h7xx_hal_rtc_ex.c **** #if (USE_HAL_RTC_REGISTER_CALLBACKS == 1)
1365:Drivers/STM32H7xx_HAL_Driver/Src/stm32h7xx_hal_rtc_ex.c ****     /* Call Tamper 2 Event registered Callback */
1366:Drivers/STM32H7xx_HAL_Driver/Src/stm32h7xx_hal_rtc_ex.c ****     hrtc->Tamper2EventCallback(hrtc);
1367:Drivers/STM32H7xx_HAL_Driver/Src/stm32h7xx_hal_rtc_ex.c **** #else
1368:Drivers/STM32H7xx_HAL_Driver/Src/stm32h7xx_hal_rtc_ex.c ****     /* Tamper2 callback */
1369:Drivers/STM32H7xx_HAL_Driver/Src/stm32h7xx_hal_rtc_ex.c ****     HAL_RTCEx_Tamper2EventCallback(hrtc);
1370:Drivers/STM32H7xx_HAL_Driver/Src/stm32h7xx_hal_rtc_ex.c **** #endif /* USE_HAL_RTC_REGISTER_CALLBACKS */
1371:Drivers/STM32H7xx_HAL_Driver/Src/stm32h7xx_hal_rtc_ex.c ****   }
1372:Drivers/STM32H7xx_HAL_Driver/Src/stm32h7xx_hal_rtc_ex.c **** #endif /* TAMP_CR1_TAMP2E */
1373:Drivers/STM32H7xx_HAL_Driver/Src/stm32h7xx_hal_rtc_ex.c **** 
1374:Drivers/STM32H7xx_HAL_Driver/Src/stm32h7xx_hal_rtc_ex.c **** #if defined(TAMP_CR1_TAMP3E)
1375:Drivers/STM32H7xx_HAL_Driver/Src/stm32h7xx_hal_rtc_ex.c ****   /* Check Tamper3 status */
1376:Drivers/STM32H7xx_HAL_Driver/Src/stm32h7xx_hal_rtc_ex.c ****   if ((tmp & RTC_TAMPER_3) == RTC_TAMPER_3)
1377:Drivers/STM32H7xx_HAL_Driver/Src/stm32h7xx_hal_rtc_ex.c ****   {
1378:Drivers/STM32H7xx_HAL_Driver/Src/stm32h7xx_hal_rtc_ex.c **** #if (USE_HAL_RTC_REGISTER_CALLBACKS == 1)
1379:Drivers/STM32H7xx_HAL_Driver/Src/stm32h7xx_hal_rtc_ex.c ****     /* Call Tamper 3 Event registered Callback */
1380:Drivers/STM32H7xx_HAL_Driver/Src/stm32h7xx_hal_rtc_ex.c ****     hrtc->Tamper3EventCallback(hrtc);
1381:Drivers/STM32H7xx_HAL_Driver/Src/stm32h7xx_hal_rtc_ex.c **** #else
1382:Drivers/STM32H7xx_HAL_Driver/Src/stm32h7xx_hal_rtc_ex.c ****     /* Tamper3 callback */
1383:Drivers/STM32H7xx_HAL_Driver/Src/stm32h7xx_hal_rtc_ex.c ****     HAL_RTCEx_Tamper3EventCallback(hrtc);
1384:Drivers/STM32H7xx_HAL_Driver/Src/stm32h7xx_hal_rtc_ex.c **** #endif /* USE_HAL_RTC_REGISTER_CALLBACKS */
1385:Drivers/STM32H7xx_HAL_Driver/Src/stm32h7xx_hal_rtc_ex.c ****   }
1386:Drivers/STM32H7xx_HAL_Driver/Src/stm32h7xx_hal_rtc_ex.c **** #endif /* TAMP_CR1_TAMP3E */
1387:Drivers/STM32H7xx_HAL_Driver/Src/stm32h7xx_hal_rtc_ex.c **** 
1388:Drivers/STM32H7xx_HAL_Driver/Src/stm32h7xx_hal_rtc_ex.c **** #if defined(TAMP_CR1_ITAMP1E)
1389:Drivers/STM32H7xx_HAL_Driver/Src/stm32h7xx_hal_rtc_ex.c ****   /* Check Internal Tamper status */
1390:Drivers/STM32H7xx_HAL_Driver/Src/stm32h7xx_hal_rtc_ex.c ****   if ((tmp & RTC_INT_TAMPER_1) == RTC_INT_TAMPER_1)
1391:Drivers/STM32H7xx_HAL_Driver/Src/stm32h7xx_hal_rtc_ex.c ****   {
1392:Drivers/STM32H7xx_HAL_Driver/Src/stm32h7xx_hal_rtc_ex.c **** #if (USE_HAL_RTC_REGISTER_CALLBACKS == 1)
1393:Drivers/STM32H7xx_HAL_Driver/Src/stm32h7xx_hal_rtc_ex.c ****     /* Call Internal Tamper Event registered callback */
1394:Drivers/STM32H7xx_HAL_Driver/Src/stm32h7xx_hal_rtc_ex.c ****     hrtc->InternalTamper1EventCallback(hrtc);
1395:Drivers/STM32H7xx_HAL_Driver/Src/stm32h7xx_hal_rtc_ex.c **** #else
1396:Drivers/STM32H7xx_HAL_Driver/Src/stm32h7xx_hal_rtc_ex.c ****     /* Call Internal Tamper Event by-default callback */
1397:Drivers/STM32H7xx_HAL_Driver/Src/stm32h7xx_hal_rtc_ex.c ****     HAL_RTCEx_InternalTamper1EventCallback(hrtc);
1398:Drivers/STM32H7xx_HAL_Driver/Src/stm32h7xx_hal_rtc_ex.c **** #endif /* USE_HAL_RTC_REGISTER_CALLBACKS */
1399:Drivers/STM32H7xx_HAL_Driver/Src/stm32h7xx_hal_rtc_ex.c ****   }
1400:Drivers/STM32H7xx_HAL_Driver/Src/stm32h7xx_hal_rtc_ex.c **** #endif /* TAMP_CR1_ITAMP1E */
1401:Drivers/STM32H7xx_HAL_Driver/Src/stm32h7xx_hal_rtc_ex.c **** 
1402:Drivers/STM32H7xx_HAL_Driver/Src/stm32h7xx_hal_rtc_ex.c **** #if defined(TAMP_CR1_ITAMP2E)
1403:Drivers/STM32H7xx_HAL_Driver/Src/stm32h7xx_hal_rtc_ex.c ****   /* Check Internal Tamper status */
1404:Drivers/STM32H7xx_HAL_Driver/Src/stm32h7xx_hal_rtc_ex.c ****   if ((tmp & RTC_INT_TAMPER_2) == RTC_INT_TAMPER_2)
1405:Drivers/STM32H7xx_HAL_Driver/Src/stm32h7xx_hal_rtc_ex.c ****   {
1406:Drivers/STM32H7xx_HAL_Driver/Src/stm32h7xx_hal_rtc_ex.c **** #if (USE_HAL_RTC_REGISTER_CALLBACKS == 1)
1407:Drivers/STM32H7xx_HAL_Driver/Src/stm32h7xx_hal_rtc_ex.c ****     /* Call Internal Tamper Event registered callback */
ARM GAS  C:\Users\zdy\AppData\Local\Temp\cca8fajE.s 			page 51


1408:Drivers/STM32H7xx_HAL_Driver/Src/stm32h7xx_hal_rtc_ex.c ****     hrtc->InternalTamper2EventCallback(hrtc);
1409:Drivers/STM32H7xx_HAL_Driver/Src/stm32h7xx_hal_rtc_ex.c **** #else
1410:Drivers/STM32H7xx_HAL_Driver/Src/stm32h7xx_hal_rtc_ex.c ****     /* Call Internal Tamper Event by-default callback */
1411:Drivers/STM32H7xx_HAL_Driver/Src/stm32h7xx_hal_rtc_ex.c ****     HAL_RTCEx_InternalTamper2EventCallback(hrtc);
1412:Drivers/STM32H7xx_HAL_Driver/Src/stm32h7xx_hal_rtc_ex.c **** #endif /* USE_HAL_RTC_REGISTER_CALLBACKS */
1413:Drivers/STM32H7xx_HAL_Driver/Src/stm32h7xx_hal_rtc_ex.c ****   }
1414:Drivers/STM32H7xx_HAL_Driver/Src/stm32h7xx_hal_rtc_ex.c **** #endif /* TAMP_CR1_ITAMP2E */
1415:Drivers/STM32H7xx_HAL_Driver/Src/stm32h7xx_hal_rtc_ex.c **** 
1416:Drivers/STM32H7xx_HAL_Driver/Src/stm32h7xx_hal_rtc_ex.c **** #if defined(TAMP_CR1_ITAMP3E)
1417:Drivers/STM32H7xx_HAL_Driver/Src/stm32h7xx_hal_rtc_ex.c ****   /* Check Internal Tamper status */
1418:Drivers/STM32H7xx_HAL_Driver/Src/stm32h7xx_hal_rtc_ex.c ****   if ((tmp & RTC_INT_TAMPER_3) == RTC_INT_TAMPER_3)
1419:Drivers/STM32H7xx_HAL_Driver/Src/stm32h7xx_hal_rtc_ex.c ****   {
1420:Drivers/STM32H7xx_HAL_Driver/Src/stm32h7xx_hal_rtc_ex.c **** #if (USE_HAL_RTC_REGISTER_CALLBACKS == 1)
1421:Drivers/STM32H7xx_HAL_Driver/Src/stm32h7xx_hal_rtc_ex.c ****     /* Call Internal Tamper Event registered callback */
1422:Drivers/STM32H7xx_HAL_Driver/Src/stm32h7xx_hal_rtc_ex.c ****     hrtc->InternalTamper3EventCallback(hrtc);
1423:Drivers/STM32H7xx_HAL_Driver/Src/stm32h7xx_hal_rtc_ex.c **** #else
1424:Drivers/STM32H7xx_HAL_Driver/Src/stm32h7xx_hal_rtc_ex.c ****     /* Call Internal Tamper Event by-default callback */
1425:Drivers/STM32H7xx_HAL_Driver/Src/stm32h7xx_hal_rtc_ex.c ****     HAL_RTCEx_InternalTamper3EventCallback(hrtc);
1426:Drivers/STM32H7xx_HAL_Driver/Src/stm32h7xx_hal_rtc_ex.c **** #endif /* USE_HAL_RTC_REGISTER_CALLBACKS */
1427:Drivers/STM32H7xx_HAL_Driver/Src/stm32h7xx_hal_rtc_ex.c ****   }
1428:Drivers/STM32H7xx_HAL_Driver/Src/stm32h7xx_hal_rtc_ex.c **** #endif /* TAMP_CR1_ITAMP3E */
1429:Drivers/STM32H7xx_HAL_Driver/Src/stm32h7xx_hal_rtc_ex.c **** 
1430:Drivers/STM32H7xx_HAL_Driver/Src/stm32h7xx_hal_rtc_ex.c **** #if defined(TAMP_CR1_ITAMP4E)
1431:Drivers/STM32H7xx_HAL_Driver/Src/stm32h7xx_hal_rtc_ex.c ****   /* Check Internal Tamper status */
1432:Drivers/STM32H7xx_HAL_Driver/Src/stm32h7xx_hal_rtc_ex.c ****   if ((tmp & RTC_INT_TAMPER_4) == RTC_INT_TAMPER_4)
1433:Drivers/STM32H7xx_HAL_Driver/Src/stm32h7xx_hal_rtc_ex.c ****   {
1434:Drivers/STM32H7xx_HAL_Driver/Src/stm32h7xx_hal_rtc_ex.c **** #if (USE_HAL_RTC_REGISTER_CALLBACKS == 1)
1435:Drivers/STM32H7xx_HAL_Driver/Src/stm32h7xx_hal_rtc_ex.c ****     /* Call Internal Tamper Event registered callback */
1436:Drivers/STM32H7xx_HAL_Driver/Src/stm32h7xx_hal_rtc_ex.c ****     hrtc->InternalTamper4EventCallback(hrtc);
1437:Drivers/STM32H7xx_HAL_Driver/Src/stm32h7xx_hal_rtc_ex.c **** #else
1438:Drivers/STM32H7xx_HAL_Driver/Src/stm32h7xx_hal_rtc_ex.c ****     /* Call Internal Tamper Event by-default callback */
1439:Drivers/STM32H7xx_HAL_Driver/Src/stm32h7xx_hal_rtc_ex.c ****     HAL_RTCEx_InternalTamper4EventCallback(hrtc);
1440:Drivers/STM32H7xx_HAL_Driver/Src/stm32h7xx_hal_rtc_ex.c **** #endif /* USE_HAL_RTC_REGISTER_CALLBACKS */
1441:Drivers/STM32H7xx_HAL_Driver/Src/stm32h7xx_hal_rtc_ex.c ****   }
1442:Drivers/STM32H7xx_HAL_Driver/Src/stm32h7xx_hal_rtc_ex.c **** #endif /* TAMP_CR1_ITAMP4E */
1443:Drivers/STM32H7xx_HAL_Driver/Src/stm32h7xx_hal_rtc_ex.c **** 
1444:Drivers/STM32H7xx_HAL_Driver/Src/stm32h7xx_hal_rtc_ex.c **** #if defined(TAMP_CR1_ITAMP5E)
1445:Drivers/STM32H7xx_HAL_Driver/Src/stm32h7xx_hal_rtc_ex.c ****   /* Check Internal Tamper status */
1446:Drivers/STM32H7xx_HAL_Driver/Src/stm32h7xx_hal_rtc_ex.c ****   if ((tmp & RTC_INT_TAMPER_5) == RTC_INT_TAMPER_5)
1447:Drivers/STM32H7xx_HAL_Driver/Src/stm32h7xx_hal_rtc_ex.c ****   {
1448:Drivers/STM32H7xx_HAL_Driver/Src/stm32h7xx_hal_rtc_ex.c **** #if (USE_HAL_RTC_REGISTER_CALLBACKS == 1)
1449:Drivers/STM32H7xx_HAL_Driver/Src/stm32h7xx_hal_rtc_ex.c ****     /* Call Internal Tamper Event registered callback */
1450:Drivers/STM32H7xx_HAL_Driver/Src/stm32h7xx_hal_rtc_ex.c ****     hrtc->InternalTamper5EventCallback(hrtc);
1451:Drivers/STM32H7xx_HAL_Driver/Src/stm32h7xx_hal_rtc_ex.c **** #else
1452:Drivers/STM32H7xx_HAL_Driver/Src/stm32h7xx_hal_rtc_ex.c ****     /* Call Internal Tamper Event by-default callback */
1453:Drivers/STM32H7xx_HAL_Driver/Src/stm32h7xx_hal_rtc_ex.c ****     HAL_RTCEx_InternalTamper5EventCallback(hrtc);
1454:Drivers/STM32H7xx_HAL_Driver/Src/stm32h7xx_hal_rtc_ex.c **** #endif /* USE_HAL_RTC_REGISTER_CALLBACKS */
1455:Drivers/STM32H7xx_HAL_Driver/Src/stm32h7xx_hal_rtc_ex.c ****   }
1456:Drivers/STM32H7xx_HAL_Driver/Src/stm32h7xx_hal_rtc_ex.c **** #endif /* TAMP_CR1_ITAMP5E */
1457:Drivers/STM32H7xx_HAL_Driver/Src/stm32h7xx_hal_rtc_ex.c **** 
1458:Drivers/STM32H7xx_HAL_Driver/Src/stm32h7xx_hal_rtc_ex.c **** #if defined(TAMP_CR1_ITAMP6E)
1459:Drivers/STM32H7xx_HAL_Driver/Src/stm32h7xx_hal_rtc_ex.c ****   /* Check Internal Tamper status */
1460:Drivers/STM32H7xx_HAL_Driver/Src/stm32h7xx_hal_rtc_ex.c ****   if ((tmp & RTC_INT_TAMPER_6) == RTC_INT_TAMPER_6)
1461:Drivers/STM32H7xx_HAL_Driver/Src/stm32h7xx_hal_rtc_ex.c ****   {
1462:Drivers/STM32H7xx_HAL_Driver/Src/stm32h7xx_hal_rtc_ex.c **** #if (USE_HAL_RTC_REGISTER_CALLBACKS == 1)
1463:Drivers/STM32H7xx_HAL_Driver/Src/stm32h7xx_hal_rtc_ex.c ****     /* Call Internal Tamper Event registered callback */
1464:Drivers/STM32H7xx_HAL_Driver/Src/stm32h7xx_hal_rtc_ex.c ****     hrtc->InternalTamper6EventCallback(hrtc);
ARM GAS  C:\Users\zdy\AppData\Local\Temp\cca8fajE.s 			page 52


1465:Drivers/STM32H7xx_HAL_Driver/Src/stm32h7xx_hal_rtc_ex.c **** #else
1466:Drivers/STM32H7xx_HAL_Driver/Src/stm32h7xx_hal_rtc_ex.c ****     /* Call Internal Tamper Event by-default callback */
1467:Drivers/STM32H7xx_HAL_Driver/Src/stm32h7xx_hal_rtc_ex.c ****     HAL_RTCEx_InternalTamper6EventCallback(hrtc);
1468:Drivers/STM32H7xx_HAL_Driver/Src/stm32h7xx_hal_rtc_ex.c **** #endif /* USE_HAL_RTC_REGISTER_CALLBACKS */
1469:Drivers/STM32H7xx_HAL_Driver/Src/stm32h7xx_hal_rtc_ex.c ****   }
1470:Drivers/STM32H7xx_HAL_Driver/Src/stm32h7xx_hal_rtc_ex.c **** #endif /* TAMP_CR1_ITAMP6E */
1471:Drivers/STM32H7xx_HAL_Driver/Src/stm32h7xx_hal_rtc_ex.c **** 
1472:Drivers/STM32H7xx_HAL_Driver/Src/stm32h7xx_hal_rtc_ex.c **** #if defined(TAMP_CR1_ITAMP8E)
1473:Drivers/STM32H7xx_HAL_Driver/Src/stm32h7xx_hal_rtc_ex.c ****   /* Check Internal Tamper status */
1474:Drivers/STM32H7xx_HAL_Driver/Src/stm32h7xx_hal_rtc_ex.c ****   if ((tmp & RTC_INT_TAMPER_8) == RTC_INT_TAMPER_8)
1475:Drivers/STM32H7xx_HAL_Driver/Src/stm32h7xx_hal_rtc_ex.c ****   {
1476:Drivers/STM32H7xx_HAL_Driver/Src/stm32h7xx_hal_rtc_ex.c **** #if (USE_HAL_RTC_REGISTER_CALLBACKS == 1)
1477:Drivers/STM32H7xx_HAL_Driver/Src/stm32h7xx_hal_rtc_ex.c ****     /* Call Internal Tamper Event registered callback */
1478:Drivers/STM32H7xx_HAL_Driver/Src/stm32h7xx_hal_rtc_ex.c ****     hrtc->InternalTamper8EventCallback(hrtc);
1479:Drivers/STM32H7xx_HAL_Driver/Src/stm32h7xx_hal_rtc_ex.c **** #else
1480:Drivers/STM32H7xx_HAL_Driver/Src/stm32h7xx_hal_rtc_ex.c ****     /* Call Internal Tamper Event by-default callback */
1481:Drivers/STM32H7xx_HAL_Driver/Src/stm32h7xx_hal_rtc_ex.c ****     HAL_RTCEx_InternalTamper8EventCallback(hrtc);
1482:Drivers/STM32H7xx_HAL_Driver/Src/stm32h7xx_hal_rtc_ex.c **** #endif /* USE_HAL_RTC_REGISTER_CALLBACKS */
1483:Drivers/STM32H7xx_HAL_Driver/Src/stm32h7xx_hal_rtc_ex.c ****   }
1484:Drivers/STM32H7xx_HAL_Driver/Src/stm32h7xx_hal_rtc_ex.c **** #endif /* TAMP_CR1_ITAMP8E */
1485:Drivers/STM32H7xx_HAL_Driver/Src/stm32h7xx_hal_rtc_ex.c **** 
1486:Drivers/STM32H7xx_HAL_Driver/Src/stm32h7xx_hal_rtc_ex.c ****   /* Change RTC state */
1487:Drivers/STM32H7xx_HAL_Driver/Src/stm32h7xx_hal_rtc_ex.c ****   hrtc->State = HAL_RTC_STATE_READY;
1488:Drivers/STM32H7xx_HAL_Driver/Src/stm32h7xx_hal_rtc_ex.c **** }
1489:Drivers/STM32H7xx_HAL_Driver/Src/stm32h7xx_hal_rtc_ex.c **** #endif /* RTC_MISR_TSMF */
1490:Drivers/STM32H7xx_HAL_Driver/Src/stm32h7xx_hal_rtc_ex.c **** #if defined(RTC_ISR_TSF)
1491:Drivers/STM32H7xx_HAL_Driver/Src/stm32h7xx_hal_rtc_ex.c **** void HAL_RTCEx_TamperTimeStampIRQHandler(RTC_HandleTypeDef *hrtc)
1492:Drivers/STM32H7xx_HAL_Driver/Src/stm32h7xx_hal_rtc_ex.c **** {
1493:Drivers/STM32H7xx_HAL_Driver/Src/stm32h7xx_hal_rtc_ex.c ****   /* Clear the EXTI's Flag for RTC TimeStamp and Tamper */
1494:Drivers/STM32H7xx_HAL_Driver/Src/stm32h7xx_hal_rtc_ex.c **** #if defined(DUAL_CORE)
1495:Drivers/STM32H7xx_HAL_Driver/Src/stm32h7xx_hal_rtc_ex.c ****   if (HAL_GetCurrentCPUID() == CM7_CPUID)
1496:Drivers/STM32H7xx_HAL_Driver/Src/stm32h7xx_hal_rtc_ex.c ****   {
1497:Drivers/STM32H7xx_HAL_Driver/Src/stm32h7xx_hal_rtc_ex.c ****     __HAL_RTC_TAMPER_TIMESTAMP_EXTI_CLEAR_FLAG();
1498:Drivers/STM32H7xx_HAL_Driver/Src/stm32h7xx_hal_rtc_ex.c ****   }
1499:Drivers/STM32H7xx_HAL_Driver/Src/stm32h7xx_hal_rtc_ex.c ****   else
1500:Drivers/STM32H7xx_HAL_Driver/Src/stm32h7xx_hal_rtc_ex.c ****   {
1501:Drivers/STM32H7xx_HAL_Driver/Src/stm32h7xx_hal_rtc_ex.c ****     __HAL_RTC_TAMPER_TIMESTAMP_EXTID2_CLEAR_FLAG();
1502:Drivers/STM32H7xx_HAL_Driver/Src/stm32h7xx_hal_rtc_ex.c ****   }
1503:Drivers/STM32H7xx_HAL_Driver/Src/stm32h7xx_hal_rtc_ex.c **** #else /* SINGLE_CORE */
1504:Drivers/STM32H7xx_HAL_Driver/Src/stm32h7xx_hal_rtc_ex.c ****   __HAL_RTC_TAMPER_TIMESTAMP_EXTI_CLEAR_FLAG();
1505:Drivers/STM32H7xx_HAL_Driver/Src/stm32h7xx_hal_rtc_ex.c **** #endif /* DUAL_CORE */
1506:Drivers/STM32H7xx_HAL_Driver/Src/stm32h7xx_hal_rtc_ex.c **** 
1507:Drivers/STM32H7xx_HAL_Driver/Src/stm32h7xx_hal_rtc_ex.c ****   /* Get the TimeStamp interrupt source enable status */
1508:Drivers/STM32H7xx_HAL_Driver/Src/stm32h7xx_hal_rtc_ex.c ****   if (__HAL_RTC_TIMESTAMP_GET_IT_SOURCE(hrtc, RTC_IT_TS) != 0U)
1509:Drivers/STM32H7xx_HAL_Driver/Src/stm32h7xx_hal_rtc_ex.c ****   {
1510:Drivers/STM32H7xx_HAL_Driver/Src/stm32h7xx_hal_rtc_ex.c ****     /* Get the pending status of the TIMESTAMP Interrupt */
1511:Drivers/STM32H7xx_HAL_Driver/Src/stm32h7xx_hal_rtc_ex.c ****     if (__HAL_RTC_TIMESTAMP_GET_FLAG(hrtc, RTC_FLAG_TSF) != 0U)
1512:Drivers/STM32H7xx_HAL_Driver/Src/stm32h7xx_hal_rtc_ex.c ****     {
1513:Drivers/STM32H7xx_HAL_Driver/Src/stm32h7xx_hal_rtc_ex.c ****       /* TIMESTAMP callback */
1514:Drivers/STM32H7xx_HAL_Driver/Src/stm32h7xx_hal_rtc_ex.c **** #if (USE_HAL_RTC_REGISTER_CALLBACKS == 1)
1515:Drivers/STM32H7xx_HAL_Driver/Src/stm32h7xx_hal_rtc_ex.c ****       hrtc->TimeStampEventCallback(hrtc);
1516:Drivers/STM32H7xx_HAL_Driver/Src/stm32h7xx_hal_rtc_ex.c **** #else  /* (USE_HAL_RTC_REGISTER_CALLBACKS == 1) */
1517:Drivers/STM32H7xx_HAL_Driver/Src/stm32h7xx_hal_rtc_ex.c ****       HAL_RTCEx_TimeStampEventCallback(hrtc);
1518:Drivers/STM32H7xx_HAL_Driver/Src/stm32h7xx_hal_rtc_ex.c **** #endif /* (USE_HAL_RTC_REGISTER_CALLBACKS == 1) */
1519:Drivers/STM32H7xx_HAL_Driver/Src/stm32h7xx_hal_rtc_ex.c **** 
1520:Drivers/STM32H7xx_HAL_Driver/Src/stm32h7xx_hal_rtc_ex.c ****       /* Clear the TIMESTAMP interrupt pending bit (this will clear timestamp time and date registe
1521:Drivers/STM32H7xx_HAL_Driver/Src/stm32h7xx_hal_rtc_ex.c ****       __HAL_RTC_TIMESTAMP_CLEAR_FLAG(hrtc, RTC_FLAG_TSF);
ARM GAS  C:\Users\zdy\AppData\Local\Temp\cca8fajE.s 			page 53


1522:Drivers/STM32H7xx_HAL_Driver/Src/stm32h7xx_hal_rtc_ex.c ****     }
1523:Drivers/STM32H7xx_HAL_Driver/Src/stm32h7xx_hal_rtc_ex.c ****   }
1524:Drivers/STM32H7xx_HAL_Driver/Src/stm32h7xx_hal_rtc_ex.c **** 
1525:Drivers/STM32H7xx_HAL_Driver/Src/stm32h7xx_hal_rtc_ex.c **** #if defined(RTC_TAMPCR_TAMP1E)
1526:Drivers/STM32H7xx_HAL_Driver/Src/stm32h7xx_hal_rtc_ex.c ****   /* Get the Tamper1 interrupt source enable status */
1527:Drivers/STM32H7xx_HAL_Driver/Src/stm32h7xx_hal_rtc_ex.c ****   if (__HAL_RTC_TAMPER_GET_IT_SOURCE(hrtc, RTC_IT_TAMP | RTC_IT_TAMP1) != 0U)
1528:Drivers/STM32H7xx_HAL_Driver/Src/stm32h7xx_hal_rtc_ex.c ****   {
1529:Drivers/STM32H7xx_HAL_Driver/Src/stm32h7xx_hal_rtc_ex.c ****     /* Get the pending status of the Tamper1 Interrupt */
1530:Drivers/STM32H7xx_HAL_Driver/Src/stm32h7xx_hal_rtc_ex.c ****     if (__HAL_RTC_TAMPER_GET_FLAG(hrtc, RTC_FLAG_TAMP1F) != 0U)
1531:Drivers/STM32H7xx_HAL_Driver/Src/stm32h7xx_hal_rtc_ex.c ****     {
1532:Drivers/STM32H7xx_HAL_Driver/Src/stm32h7xx_hal_rtc_ex.c ****       /* Clear the Tamper1 interrupt pending bit */
1533:Drivers/STM32H7xx_HAL_Driver/Src/stm32h7xx_hal_rtc_ex.c ****       __HAL_RTC_TAMPER_CLEAR_FLAG(hrtc, RTC_FLAG_TAMP1F);
1534:Drivers/STM32H7xx_HAL_Driver/Src/stm32h7xx_hal_rtc_ex.c **** 
1535:Drivers/STM32H7xx_HAL_Driver/Src/stm32h7xx_hal_rtc_ex.c ****       /* Tamper1 callback */
1536:Drivers/STM32H7xx_HAL_Driver/Src/stm32h7xx_hal_rtc_ex.c **** #if (USE_HAL_RTC_REGISTER_CALLBACKS == 1)
1537:Drivers/STM32H7xx_HAL_Driver/Src/stm32h7xx_hal_rtc_ex.c ****       hrtc->Tamper1EventCallback(hrtc);
1538:Drivers/STM32H7xx_HAL_Driver/Src/stm32h7xx_hal_rtc_ex.c **** #else  /* (USE_HAL_RTC_REGISTER_CALLBACKS == 1) */
1539:Drivers/STM32H7xx_HAL_Driver/Src/stm32h7xx_hal_rtc_ex.c ****       HAL_RTCEx_Tamper1EventCallback(hrtc);
1540:Drivers/STM32H7xx_HAL_Driver/Src/stm32h7xx_hal_rtc_ex.c **** #endif /* (USE_HAL_RTC_REGISTER_CALLBACKS == 1) */
1541:Drivers/STM32H7xx_HAL_Driver/Src/stm32h7xx_hal_rtc_ex.c ****     }
1542:Drivers/STM32H7xx_HAL_Driver/Src/stm32h7xx_hal_rtc_ex.c ****   }
1543:Drivers/STM32H7xx_HAL_Driver/Src/stm32h7xx_hal_rtc_ex.c **** #endif /* RTC_TAMPCR_TAMP1E */
1544:Drivers/STM32H7xx_HAL_Driver/Src/stm32h7xx_hal_rtc_ex.c **** 
1545:Drivers/STM32H7xx_HAL_Driver/Src/stm32h7xx_hal_rtc_ex.c **** #if defined(RTC_TAMPCR_TAMP2E)
1546:Drivers/STM32H7xx_HAL_Driver/Src/stm32h7xx_hal_rtc_ex.c ****   /* Get the Tamper2 interrupt source enable status */
1547:Drivers/STM32H7xx_HAL_Driver/Src/stm32h7xx_hal_rtc_ex.c ****   if (__HAL_RTC_TAMPER_GET_IT_SOURCE(hrtc, RTC_IT_TAMP | RTC_IT_TAMP2) != 0U)
1548:Drivers/STM32H7xx_HAL_Driver/Src/stm32h7xx_hal_rtc_ex.c ****   {
1549:Drivers/STM32H7xx_HAL_Driver/Src/stm32h7xx_hal_rtc_ex.c ****     /* Get the pending status of the Tamper2 Interrupt */
1550:Drivers/STM32H7xx_HAL_Driver/Src/stm32h7xx_hal_rtc_ex.c ****     if (__HAL_RTC_TAMPER_GET_FLAG(hrtc, RTC_FLAG_TAMP2F) != 0U)
1551:Drivers/STM32H7xx_HAL_Driver/Src/stm32h7xx_hal_rtc_ex.c ****     {
1552:Drivers/STM32H7xx_HAL_Driver/Src/stm32h7xx_hal_rtc_ex.c ****       /* Clear the Tamper2 interrupt pending bit */
1553:Drivers/STM32H7xx_HAL_Driver/Src/stm32h7xx_hal_rtc_ex.c ****       __HAL_RTC_TAMPER_CLEAR_FLAG(hrtc, RTC_FLAG_TAMP2F);
1554:Drivers/STM32H7xx_HAL_Driver/Src/stm32h7xx_hal_rtc_ex.c **** 
1555:Drivers/STM32H7xx_HAL_Driver/Src/stm32h7xx_hal_rtc_ex.c ****       /* Tamper2 callback */
1556:Drivers/STM32H7xx_HAL_Driver/Src/stm32h7xx_hal_rtc_ex.c **** #if (USE_HAL_RTC_REGISTER_CALLBACKS == 1)
1557:Drivers/STM32H7xx_HAL_Driver/Src/stm32h7xx_hal_rtc_ex.c ****       hrtc->Tamper2EventCallback(hrtc);
1558:Drivers/STM32H7xx_HAL_Driver/Src/stm32h7xx_hal_rtc_ex.c **** #else  /* (USE_HAL_RTC_REGISTER_CALLBACKS == 1) */
1559:Drivers/STM32H7xx_HAL_Driver/Src/stm32h7xx_hal_rtc_ex.c ****       HAL_RTCEx_Tamper2EventCallback(hrtc);
1560:Drivers/STM32H7xx_HAL_Driver/Src/stm32h7xx_hal_rtc_ex.c **** #endif /* (USE_HAL_RTC_REGISTER_CALLBACKS == 1) */
1561:Drivers/STM32H7xx_HAL_Driver/Src/stm32h7xx_hal_rtc_ex.c ****     }
1562:Drivers/STM32H7xx_HAL_Driver/Src/stm32h7xx_hal_rtc_ex.c ****   }
1563:Drivers/STM32H7xx_HAL_Driver/Src/stm32h7xx_hal_rtc_ex.c **** #endif /* RTC_TAMPCR_TAMP2E */
1564:Drivers/STM32H7xx_HAL_Driver/Src/stm32h7xx_hal_rtc_ex.c **** 
1565:Drivers/STM32H7xx_HAL_Driver/Src/stm32h7xx_hal_rtc_ex.c **** #if defined(RTC_TAMPCR_TAMP3E)
1566:Drivers/STM32H7xx_HAL_Driver/Src/stm32h7xx_hal_rtc_ex.c ****   /* Get the Tamper3 interrupts source enable status */
1567:Drivers/STM32H7xx_HAL_Driver/Src/stm32h7xx_hal_rtc_ex.c ****   if (__HAL_RTC_TAMPER_GET_IT_SOURCE(hrtc, RTC_IT_TAMP | RTC_IT_TAMP3) != 0U)
1568:Drivers/STM32H7xx_HAL_Driver/Src/stm32h7xx_hal_rtc_ex.c ****   {
1569:Drivers/STM32H7xx_HAL_Driver/Src/stm32h7xx_hal_rtc_ex.c ****     /* Get the pending status of the Tamper3 Interrupt */
1570:Drivers/STM32H7xx_HAL_Driver/Src/stm32h7xx_hal_rtc_ex.c ****     if (__HAL_RTC_TAMPER_GET_FLAG(hrtc, RTC_FLAG_TAMP3F) != 0U)
1571:Drivers/STM32H7xx_HAL_Driver/Src/stm32h7xx_hal_rtc_ex.c ****     {
1572:Drivers/STM32H7xx_HAL_Driver/Src/stm32h7xx_hal_rtc_ex.c ****       /* Clear the Tamper3 interrupt pending bit */
1573:Drivers/STM32H7xx_HAL_Driver/Src/stm32h7xx_hal_rtc_ex.c ****       __HAL_RTC_TAMPER_CLEAR_FLAG(hrtc, RTC_FLAG_TAMP3F);
1574:Drivers/STM32H7xx_HAL_Driver/Src/stm32h7xx_hal_rtc_ex.c **** 
1575:Drivers/STM32H7xx_HAL_Driver/Src/stm32h7xx_hal_rtc_ex.c ****       /* Tamper3 callback */
1576:Drivers/STM32H7xx_HAL_Driver/Src/stm32h7xx_hal_rtc_ex.c **** #if (USE_HAL_RTC_REGISTER_CALLBACKS == 1)
1577:Drivers/STM32H7xx_HAL_Driver/Src/stm32h7xx_hal_rtc_ex.c ****       hrtc->Tamper3EventCallback(hrtc);
1578:Drivers/STM32H7xx_HAL_Driver/Src/stm32h7xx_hal_rtc_ex.c **** #else  /* (USE_HAL_RTC_REGISTER_CALLBACKS == 1) */
ARM GAS  C:\Users\zdy\AppData\Local\Temp\cca8fajE.s 			page 54


1579:Drivers/STM32H7xx_HAL_Driver/Src/stm32h7xx_hal_rtc_ex.c ****       HAL_RTCEx_Tamper3EventCallback(hrtc);
1580:Drivers/STM32H7xx_HAL_Driver/Src/stm32h7xx_hal_rtc_ex.c **** #endif /* (USE_HAL_RTC_REGISTER_CALLBACKS == 1) */
1581:Drivers/STM32H7xx_HAL_Driver/Src/stm32h7xx_hal_rtc_ex.c ****     }
1582:Drivers/STM32H7xx_HAL_Driver/Src/stm32h7xx_hal_rtc_ex.c ****   }
1583:Drivers/STM32H7xx_HAL_Driver/Src/stm32h7xx_hal_rtc_ex.c **** #endif /* RTC_TAMPCR_TAMP3E */
1584:Drivers/STM32H7xx_HAL_Driver/Src/stm32h7xx_hal_rtc_ex.c **** 
1585:Drivers/STM32H7xx_HAL_Driver/Src/stm32h7xx_hal_rtc_ex.c ****   /* Change RTC state */
1586:Drivers/STM32H7xx_HAL_Driver/Src/stm32h7xx_hal_rtc_ex.c ****   hrtc->State = HAL_RTC_STATE_READY;
1587:Drivers/STM32H7xx_HAL_Driver/Src/stm32h7xx_hal_rtc_ex.c **** }
1588:Drivers/STM32H7xx_HAL_Driver/Src/stm32h7xx_hal_rtc_ex.c **** #endif /* RTC_ISR_TSF */
1589:Drivers/STM32H7xx_HAL_Driver/Src/stm32h7xx_hal_rtc_ex.c **** 
1590:Drivers/STM32H7xx_HAL_Driver/Src/stm32h7xx_hal_rtc_ex.c **** /**
1591:Drivers/STM32H7xx_HAL_Driver/Src/stm32h7xx_hal_rtc_ex.c ****   * @brief  TimeStamp callback.
1592:Drivers/STM32H7xx_HAL_Driver/Src/stm32h7xx_hal_rtc_ex.c ****   * @param  hrtc RTC handle
1593:Drivers/STM32H7xx_HAL_Driver/Src/stm32h7xx_hal_rtc_ex.c ****   * @retval None
1594:Drivers/STM32H7xx_HAL_Driver/Src/stm32h7xx_hal_rtc_ex.c ****   */
1595:Drivers/STM32H7xx_HAL_Driver/Src/stm32h7xx_hal_rtc_ex.c **** __weak void HAL_RTCEx_TimeStampEventCallback(RTC_HandleTypeDef *hrtc)
1596:Drivers/STM32H7xx_HAL_Driver/Src/stm32h7xx_hal_rtc_ex.c **** {
 1363              		.loc 1 1596 1 is_stmt 1 view -0
 1364              		.cfi_startproc
 1365              		@ args = 0, pretend = 0, frame = 0
 1366              		@ frame_needed = 0, uses_anonymous_args = 0
 1367              		@ link register save eliminated.
1597:Drivers/STM32H7xx_HAL_Driver/Src/stm32h7xx_hal_rtc_ex.c ****   /* Prevent unused argument(s) compilation warning */
1598:Drivers/STM32H7xx_HAL_Driver/Src/stm32h7xx_hal_rtc_ex.c ****   UNUSED(hrtc);
 1368              		.loc 1 1598 3 view .LVU510
1599:Drivers/STM32H7xx_HAL_Driver/Src/stm32h7xx_hal_rtc_ex.c **** 
1600:Drivers/STM32H7xx_HAL_Driver/Src/stm32h7xx_hal_rtc_ex.c ****   /* NOTE : This function should not be modified, when the callback is needed,
1601:Drivers/STM32H7xx_HAL_Driver/Src/stm32h7xx_hal_rtc_ex.c ****             the HAL_RTCEx_TimeStampEventCallback could be implemented in the user file
1602:Drivers/STM32H7xx_HAL_Driver/Src/stm32h7xx_hal_rtc_ex.c ****   */
1603:Drivers/STM32H7xx_HAL_Driver/Src/stm32h7xx_hal_rtc_ex.c **** }
 1369              		.loc 1 1603 1 is_stmt 0 view .LVU511
 1370 0000 7047     		bx	lr
 1371              		.cfi_endproc
 1372              	.LFE343:
 1374              		.section	.text.HAL_RTCEx_Tamper1EventCallback,"ax",%progbits
 1375              		.align	1
 1376              		.weak	HAL_RTCEx_Tamper1EventCallback
 1377              		.syntax unified
 1378              		.thumb
 1379              		.thumb_func
 1381              	HAL_RTCEx_Tamper1EventCallback:
 1382              	.LVL108:
 1383              	.LFB344:
1604:Drivers/STM32H7xx_HAL_Driver/Src/stm32h7xx_hal_rtc_ex.c **** 
1605:Drivers/STM32H7xx_HAL_Driver/Src/stm32h7xx_hal_rtc_ex.c **** /**
1606:Drivers/STM32H7xx_HAL_Driver/Src/stm32h7xx_hal_rtc_ex.c ****   * @}
1607:Drivers/STM32H7xx_HAL_Driver/Src/stm32h7xx_hal_rtc_ex.c ****   */
1608:Drivers/STM32H7xx_HAL_Driver/Src/stm32h7xx_hal_rtc_ex.c **** 
1609:Drivers/STM32H7xx_HAL_Driver/Src/stm32h7xx_hal_rtc_ex.c **** /** @addtogroup RTCEx_Exported_Functions_Group5
1610:Drivers/STM32H7xx_HAL_Driver/Src/stm32h7xx_hal_rtc_ex.c ****   * @brief      Extended RTC Tamper functions
1611:Drivers/STM32H7xx_HAL_Driver/Src/stm32h7xx_hal_rtc_ex.c ****   *
1612:Drivers/STM32H7xx_HAL_Driver/Src/stm32h7xx_hal_rtc_ex.c **** * @{
1613:Drivers/STM32H7xx_HAL_Driver/Src/stm32h7xx_hal_rtc_ex.c **** */
1614:Drivers/STM32H7xx_HAL_Driver/Src/stm32h7xx_hal_rtc_ex.c **** 
1615:Drivers/STM32H7xx_HAL_Driver/Src/stm32h7xx_hal_rtc_ex.c **** #if defined(RTC_TAMPER_1)
1616:Drivers/STM32H7xx_HAL_Driver/Src/stm32h7xx_hal_rtc_ex.c **** /**
ARM GAS  C:\Users\zdy\AppData\Local\Temp\cca8fajE.s 			page 55


1617:Drivers/STM32H7xx_HAL_Driver/Src/stm32h7xx_hal_rtc_ex.c ****   * @brief  Tamper 1 callback.
1618:Drivers/STM32H7xx_HAL_Driver/Src/stm32h7xx_hal_rtc_ex.c ****   * @param  hrtc RTC handle
1619:Drivers/STM32H7xx_HAL_Driver/Src/stm32h7xx_hal_rtc_ex.c ****   * @retval None
1620:Drivers/STM32H7xx_HAL_Driver/Src/stm32h7xx_hal_rtc_ex.c ****   */
1621:Drivers/STM32H7xx_HAL_Driver/Src/stm32h7xx_hal_rtc_ex.c **** __weak void HAL_RTCEx_Tamper1EventCallback(RTC_HandleTypeDef * hrtc)
1622:Drivers/STM32H7xx_HAL_Driver/Src/stm32h7xx_hal_rtc_ex.c **** {
 1384              		.loc 1 1622 1 is_stmt 1 view -0
 1385              		.cfi_startproc
 1386              		@ args = 0, pretend = 0, frame = 0
 1387              		@ frame_needed = 0, uses_anonymous_args = 0
 1388              		@ link register save eliminated.
1623:Drivers/STM32H7xx_HAL_Driver/Src/stm32h7xx_hal_rtc_ex.c ****   /* Prevent unused argument(s) compilation warning */
1624:Drivers/STM32H7xx_HAL_Driver/Src/stm32h7xx_hal_rtc_ex.c ****   UNUSED(hrtc);
 1389              		.loc 1 1624 3 view .LVU513
1625:Drivers/STM32H7xx_HAL_Driver/Src/stm32h7xx_hal_rtc_ex.c **** 
1626:Drivers/STM32H7xx_HAL_Driver/Src/stm32h7xx_hal_rtc_ex.c ****   /* NOTE : This function should not be modified, when the callback is needed,
1627:Drivers/STM32H7xx_HAL_Driver/Src/stm32h7xx_hal_rtc_ex.c ****             the HAL_RTCEx_Tamper1EventCallback could be implemented in the user file
1628:Drivers/STM32H7xx_HAL_Driver/Src/stm32h7xx_hal_rtc_ex.c ****    */
1629:Drivers/STM32H7xx_HAL_Driver/Src/stm32h7xx_hal_rtc_ex.c **** }
 1390              		.loc 1 1629 1 is_stmt 0 view .LVU514
 1391 0000 7047     		bx	lr
 1392              		.cfi_endproc
 1393              	.LFE344:
 1395              		.section	.text.HAL_RTCEx_Tamper2EventCallback,"ax",%progbits
 1396              		.align	1
 1397              		.weak	HAL_RTCEx_Tamper2EventCallback
 1398              		.syntax unified
 1399              		.thumb
 1400              		.thumb_func
 1402              	HAL_RTCEx_Tamper2EventCallback:
 1403              	.LVL109:
 1404              	.LFB345:
1630:Drivers/STM32H7xx_HAL_Driver/Src/stm32h7xx_hal_rtc_ex.c **** #endif /* RTC_TAMPER_1 */
1631:Drivers/STM32H7xx_HAL_Driver/Src/stm32h7xx_hal_rtc_ex.c **** 
1632:Drivers/STM32H7xx_HAL_Driver/Src/stm32h7xx_hal_rtc_ex.c **** #if defined(RTC_TAMPER_2)
1633:Drivers/STM32H7xx_HAL_Driver/Src/stm32h7xx_hal_rtc_ex.c **** /**
1634:Drivers/STM32H7xx_HAL_Driver/Src/stm32h7xx_hal_rtc_ex.c ****   * @brief  Tamper 2 callback.
1635:Drivers/STM32H7xx_HAL_Driver/Src/stm32h7xx_hal_rtc_ex.c ****   * @param  hrtc RTC handle
1636:Drivers/STM32H7xx_HAL_Driver/Src/stm32h7xx_hal_rtc_ex.c ****   * @retval None
1637:Drivers/STM32H7xx_HAL_Driver/Src/stm32h7xx_hal_rtc_ex.c ****   */
1638:Drivers/STM32H7xx_HAL_Driver/Src/stm32h7xx_hal_rtc_ex.c **** __weak void HAL_RTCEx_Tamper2EventCallback(RTC_HandleTypeDef * hrtc)
1639:Drivers/STM32H7xx_HAL_Driver/Src/stm32h7xx_hal_rtc_ex.c **** {
 1405              		.loc 1 1639 1 is_stmt 1 view -0
 1406              		.cfi_startproc
 1407              		@ args = 0, pretend = 0, frame = 0
 1408              		@ frame_needed = 0, uses_anonymous_args = 0
 1409              		@ link register save eliminated.
1640:Drivers/STM32H7xx_HAL_Driver/Src/stm32h7xx_hal_rtc_ex.c ****   /* Prevent unused argument(s) compilation warning */
1641:Drivers/STM32H7xx_HAL_Driver/Src/stm32h7xx_hal_rtc_ex.c ****   UNUSED(hrtc);
 1410              		.loc 1 1641 3 view .LVU516
1642:Drivers/STM32H7xx_HAL_Driver/Src/stm32h7xx_hal_rtc_ex.c **** 
1643:Drivers/STM32H7xx_HAL_Driver/Src/stm32h7xx_hal_rtc_ex.c ****   /* NOTE : This function should not be modified, when the callback is needed,
1644:Drivers/STM32H7xx_HAL_Driver/Src/stm32h7xx_hal_rtc_ex.c ****             the HAL_RTCEx_Tamper2EventCallback could be implemented in the user file
1645:Drivers/STM32H7xx_HAL_Driver/Src/stm32h7xx_hal_rtc_ex.c ****    */
1646:Drivers/STM32H7xx_HAL_Driver/Src/stm32h7xx_hal_rtc_ex.c **** }
 1411              		.loc 1 1646 1 is_stmt 0 view .LVU517
 1412 0000 7047     		bx	lr
ARM GAS  C:\Users\zdy\AppData\Local\Temp\cca8fajE.s 			page 56


 1413              		.cfi_endproc
 1414              	.LFE345:
 1416              		.section	.text.HAL_RTCEx_Tamper3EventCallback,"ax",%progbits
 1417              		.align	1
 1418              		.weak	HAL_RTCEx_Tamper3EventCallback
 1419              		.syntax unified
 1420              		.thumb
 1421              		.thumb_func
 1423              	HAL_RTCEx_Tamper3EventCallback:
 1424              	.LVL110:
 1425              	.LFB346:
1647:Drivers/STM32H7xx_HAL_Driver/Src/stm32h7xx_hal_rtc_ex.c **** #endif /* RTC_TAMPER_2 */
1648:Drivers/STM32H7xx_HAL_Driver/Src/stm32h7xx_hal_rtc_ex.c **** 
1649:Drivers/STM32H7xx_HAL_Driver/Src/stm32h7xx_hal_rtc_ex.c **** #if defined(RTC_TAMPER_3)
1650:Drivers/STM32H7xx_HAL_Driver/Src/stm32h7xx_hal_rtc_ex.c **** /**
1651:Drivers/STM32H7xx_HAL_Driver/Src/stm32h7xx_hal_rtc_ex.c ****   * @brief  Tamper 3 callback.
1652:Drivers/STM32H7xx_HAL_Driver/Src/stm32h7xx_hal_rtc_ex.c ****   * @param  hrtc RTC handle
1653:Drivers/STM32H7xx_HAL_Driver/Src/stm32h7xx_hal_rtc_ex.c ****   * @retval None
1654:Drivers/STM32H7xx_HAL_Driver/Src/stm32h7xx_hal_rtc_ex.c ****   */
1655:Drivers/STM32H7xx_HAL_Driver/Src/stm32h7xx_hal_rtc_ex.c **** __weak void HAL_RTCEx_Tamper3EventCallback(RTC_HandleTypeDef * hrtc)
1656:Drivers/STM32H7xx_HAL_Driver/Src/stm32h7xx_hal_rtc_ex.c **** {
 1426              		.loc 1 1656 1 is_stmt 1 view -0
 1427              		.cfi_startproc
 1428              		@ args = 0, pretend = 0, frame = 0
 1429              		@ frame_needed = 0, uses_anonymous_args = 0
 1430              		@ link register save eliminated.
1657:Drivers/STM32H7xx_HAL_Driver/Src/stm32h7xx_hal_rtc_ex.c ****   /* Prevent unused argument(s) compilation warning */
1658:Drivers/STM32H7xx_HAL_Driver/Src/stm32h7xx_hal_rtc_ex.c ****   UNUSED(hrtc);
 1431              		.loc 1 1658 3 view .LVU519
1659:Drivers/STM32H7xx_HAL_Driver/Src/stm32h7xx_hal_rtc_ex.c **** 
1660:Drivers/STM32H7xx_HAL_Driver/Src/stm32h7xx_hal_rtc_ex.c ****   /* NOTE : This function should not be modified, when the callback is needed,
1661:Drivers/STM32H7xx_HAL_Driver/Src/stm32h7xx_hal_rtc_ex.c ****             the HAL_RTCEx_Tamper3EventCallback could be implemented in the user file
1662:Drivers/STM32H7xx_HAL_Driver/Src/stm32h7xx_hal_rtc_ex.c ****    */
1663:Drivers/STM32H7xx_HAL_Driver/Src/stm32h7xx_hal_rtc_ex.c **** }
 1432              		.loc 1 1663 1 is_stmt 0 view .LVU520
 1433 0000 7047     		bx	lr
 1434              		.cfi_endproc
 1435              	.LFE346:
 1437              		.section	.text.HAL_RTCEx_TamperTimeStampIRQHandler,"ax",%progbits
 1438              		.align	1
 1439              		.global	HAL_RTCEx_TamperTimeStampIRQHandler
 1440              		.syntax unified
 1441              		.thumb
 1442              		.thumb_func
 1444              	HAL_RTCEx_TamperTimeStampIRQHandler:
 1445              	.LVL111:
 1446              	.LFB342:
1492:Drivers/STM32H7xx_HAL_Driver/Src/stm32h7xx_hal_rtc_ex.c ****   /* Clear the EXTI's Flag for RTC TimeStamp and Tamper */
 1447              		.loc 1 1492 1 is_stmt 1 view -0
 1448              		.cfi_startproc
 1449              		@ args = 0, pretend = 0, frame = 0
 1450              		@ frame_needed = 0, uses_anonymous_args = 0
1492:Drivers/STM32H7xx_HAL_Driver/Src/stm32h7xx_hal_rtc_ex.c ****   /* Clear the EXTI's Flag for RTC TimeStamp and Tamper */
 1451              		.loc 1 1492 1 is_stmt 0 view .LVU522
 1452 0000 10B5     		push	{r4, lr}
 1453              	.LCFI17:
 1454              		.cfi_def_cfa_offset 8
ARM GAS  C:\Users\zdy\AppData\Local\Temp\cca8fajE.s 			page 57


 1455              		.cfi_offset 4, -8
 1456              		.cfi_offset 14, -4
 1457 0002 0446     		mov	r4, r0
1504:Drivers/STM32H7xx_HAL_Driver/Src/stm32h7xx_hal_rtc_ex.c **** #endif /* DUAL_CORE */
 1458              		.loc 1 1504 3 is_stmt 1 view .LVU523
 1459 0004 4FF0B043 		mov	r3, #1476395008
 1460 0008 4FF48022 		mov	r2, #262144
 1461 000c C3F88820 		str	r2, [r3, #136]
1508:Drivers/STM32H7xx_HAL_Driver/Src/stm32h7xx_hal_rtc_ex.c ****   {
 1462              		.loc 1 1508 3 view .LVU524
1508:Drivers/STM32H7xx_HAL_Driver/Src/stm32h7xx_hal_rtc_ex.c ****   {
 1463              		.loc 1 1508 7 is_stmt 0 view .LVU525
 1464 0010 0368     		ldr	r3, [r0]
 1465 0012 9A68     		ldr	r2, [r3, #8]
1508:Drivers/STM32H7xx_HAL_Driver/Src/stm32h7xx_hal_rtc_ex.c ****   {
 1466              		.loc 1 1508 6 view .LVU526
 1467 0014 12F4004F 		tst	r2, #32768
 1468 0018 03D0     		beq	.L99
1511:Drivers/STM32H7xx_HAL_Driver/Src/stm32h7xx_hal_rtc_ex.c ****     {
 1469              		.loc 1 1511 5 is_stmt 1 view .LVU527
1511:Drivers/STM32H7xx_HAL_Driver/Src/stm32h7xx_hal_rtc_ex.c ****     {
 1470              		.loc 1 1511 9 is_stmt 0 view .LVU528
 1471 001a DB68     		ldr	r3, [r3, #12]
1511:Drivers/STM32H7xx_HAL_Driver/Src/stm32h7xx_hal_rtc_ex.c ****     {
 1472              		.loc 1 1511 8 view .LVU529
 1473 001c 13F4006F 		tst	r3, #2048
 1474 0020 1ED1     		bne	.L104
 1475              	.LVL112:
 1476              	.L99:
1527:Drivers/STM32H7xx_HAL_Driver/Src/stm32h7xx_hal_rtc_ex.c ****   {
 1477              		.loc 1 1527 3 is_stmt 1 view .LVU530
1527:Drivers/STM32H7xx_HAL_Driver/Src/stm32h7xx_hal_rtc_ex.c ****   {
 1478              		.loc 1 1527 7 is_stmt 0 view .LVU531
 1479 0022 2268     		ldr	r2, [r4]
 1480 0024 116C     		ldr	r1, [r2, #64]
 1481 0026 234B     		ldr	r3, .L108
 1482 0028 0B40     		ands	r3, r3, r1
1527:Drivers/STM32H7xx_HAL_Driver/Src/stm32h7xx_hal_rtc_ex.c ****   {
 1483              		.loc 1 1527 6 view .LVU532
 1484 002a 1BB1     		cbz	r3, .L100
1530:Drivers/STM32H7xx_HAL_Driver/Src/stm32h7xx_hal_rtc_ex.c ****     {
 1485              		.loc 1 1530 5 is_stmt 1 view .LVU533
1530:Drivers/STM32H7xx_HAL_Driver/Src/stm32h7xx_hal_rtc_ex.c ****     {
 1486              		.loc 1 1530 9 is_stmt 0 view .LVU534
 1487 002c D368     		ldr	r3, [r2, #12]
1530:Drivers/STM32H7xx_HAL_Driver/Src/stm32h7xx_hal_rtc_ex.c ****     {
 1488              		.loc 1 1530 8 view .LVU535
 1489 002e 13F4005F 		tst	r3, #8192
 1490 0032 1ED1     		bne	.L105
 1491              	.L100:
1547:Drivers/STM32H7xx_HAL_Driver/Src/stm32h7xx_hal_rtc_ex.c ****   {
 1492              		.loc 1 1547 3 is_stmt 1 view .LVU536
1547:Drivers/STM32H7xx_HAL_Driver/Src/stm32h7xx_hal_rtc_ex.c ****   {
 1493              		.loc 1 1547 7 is_stmt 0 view .LVU537
 1494 0034 2268     		ldr	r2, [r4]
 1495 0036 116C     		ldr	r1, [r2, #64]
 1496 0038 1F4B     		ldr	r3, .L108+4
ARM GAS  C:\Users\zdy\AppData\Local\Temp\cca8fajE.s 			page 58


 1497 003a 0B40     		ands	r3, r3, r1
1547:Drivers/STM32H7xx_HAL_Driver/Src/stm32h7xx_hal_rtc_ex.c ****   {
 1498              		.loc 1 1547 6 view .LVU538
 1499 003c 1BB1     		cbz	r3, .L101
1550:Drivers/STM32H7xx_HAL_Driver/Src/stm32h7xx_hal_rtc_ex.c ****     {
 1500              		.loc 1 1550 5 is_stmt 1 view .LVU539
1550:Drivers/STM32H7xx_HAL_Driver/Src/stm32h7xx_hal_rtc_ex.c ****     {
 1501              		.loc 1 1550 9 is_stmt 0 view .LVU540
 1502 003e D368     		ldr	r3, [r2, #12]
1550:Drivers/STM32H7xx_HAL_Driver/Src/stm32h7xx_hal_rtc_ex.c ****     {
 1503              		.loc 1 1550 8 view .LVU541
 1504 0040 13F4804F 		tst	r3, #16384
 1505 0044 1ED1     		bne	.L106
 1506              	.L101:
1567:Drivers/STM32H7xx_HAL_Driver/Src/stm32h7xx_hal_rtc_ex.c ****   {
 1507              		.loc 1 1567 3 is_stmt 1 view .LVU542
1567:Drivers/STM32H7xx_HAL_Driver/Src/stm32h7xx_hal_rtc_ex.c ****   {
 1508              		.loc 1 1567 7 is_stmt 0 view .LVU543
 1509 0046 2268     		ldr	r2, [r4]
 1510 0048 116C     		ldr	r1, [r2, #64]
 1511 004a 1C4B     		ldr	r3, .L108+8
 1512 004c 0B40     		ands	r3, r3, r1
1567:Drivers/STM32H7xx_HAL_Driver/Src/stm32h7xx_hal_rtc_ex.c ****   {
 1513              		.loc 1 1567 6 view .LVU544
 1514 004e 1BB1     		cbz	r3, .L102
1570:Drivers/STM32H7xx_HAL_Driver/Src/stm32h7xx_hal_rtc_ex.c ****     {
 1515              		.loc 1 1570 5 is_stmt 1 view .LVU545
1570:Drivers/STM32H7xx_HAL_Driver/Src/stm32h7xx_hal_rtc_ex.c ****     {
 1516              		.loc 1 1570 9 is_stmt 0 view .LVU546
 1517 0050 D368     		ldr	r3, [r2, #12]
1570:Drivers/STM32H7xx_HAL_Driver/Src/stm32h7xx_hal_rtc_ex.c ****     {
 1518              		.loc 1 1570 8 view .LVU547
 1519 0052 13F4004F 		tst	r3, #32768
 1520 0056 1ED1     		bne	.L107
 1521              	.L102:
1586:Drivers/STM32H7xx_HAL_Driver/Src/stm32h7xx_hal_rtc_ex.c **** }
 1522              		.loc 1 1586 3 is_stmt 1 view .LVU548
1586:Drivers/STM32H7xx_HAL_Driver/Src/stm32h7xx_hal_rtc_ex.c **** }
 1523              		.loc 1 1586 15 is_stmt 0 view .LVU549
 1524 0058 0123     		movs	r3, #1
 1525 005a 84F82130 		strb	r3, [r4, #33]
1587:Drivers/STM32H7xx_HAL_Driver/Src/stm32h7xx_hal_rtc_ex.c **** #endif /* RTC_ISR_TSF */
 1526              		.loc 1 1587 1 view .LVU550
 1527 005e 10BD     		pop	{r4, pc}
 1528              	.LVL113:
 1529              	.L104:
1517:Drivers/STM32H7xx_HAL_Driver/Src/stm32h7xx_hal_rtc_ex.c **** #endif /* (USE_HAL_RTC_REGISTER_CALLBACKS == 1) */
 1530              		.loc 1 1517 7 is_stmt 1 view .LVU551
 1531 0060 FFF7FEFF 		bl	HAL_RTCEx_TimeStampEventCallback
 1532              	.LVL114:
1521:Drivers/STM32H7xx_HAL_Driver/Src/stm32h7xx_hal_rtc_ex.c ****     }
 1533              		.loc 1 1521 7 view .LVU552
 1534 0064 2268     		ldr	r2, [r4]
 1535 0066 D368     		ldr	r3, [r2, #12]
 1536 0068 DBB2     		uxtb	r3, r3
 1537 006a 63F40863 		orn	r3, r3, #2176
 1538 006e D360     		str	r3, [r2, #12]
ARM GAS  C:\Users\zdy\AppData\Local\Temp\cca8fajE.s 			page 59


 1539 0070 D7E7     		b	.L99
 1540              	.L105:
1533:Drivers/STM32H7xx_HAL_Driver/Src/stm32h7xx_hal_rtc_ex.c **** 
 1541              		.loc 1 1533 7 view .LVU553
 1542 0072 D368     		ldr	r3, [r2, #12]
 1543 0074 DBB2     		uxtb	r3, r3
 1544 0076 63F40253 		orn	r3, r3, #8320
 1545 007a D360     		str	r3, [r2, #12]
1539:Drivers/STM32H7xx_HAL_Driver/Src/stm32h7xx_hal_rtc_ex.c **** #endif /* (USE_HAL_RTC_REGISTER_CALLBACKS == 1) */
 1546              		.loc 1 1539 7 view .LVU554
 1547 007c 2046     		mov	r0, r4
 1548 007e FFF7FEFF 		bl	HAL_RTCEx_Tamper1EventCallback
 1549              	.LVL115:
 1550 0082 D7E7     		b	.L100
 1551              	.L106:
1553:Drivers/STM32H7xx_HAL_Driver/Src/stm32h7xx_hal_rtc_ex.c **** 
 1552              		.loc 1 1553 7 view .LVU555
 1553 0084 D368     		ldr	r3, [r2, #12]
 1554 0086 DBB2     		uxtb	r3, r3
 1555 0088 63F48143 		orn	r3, r3, #16512
 1556 008c D360     		str	r3, [r2, #12]
1559:Drivers/STM32H7xx_HAL_Driver/Src/stm32h7xx_hal_rtc_ex.c **** #endif /* (USE_HAL_RTC_REGISTER_CALLBACKS == 1) */
 1557              		.loc 1 1559 7 view .LVU556
 1558 008e 2046     		mov	r0, r4
 1559 0090 FFF7FEFF 		bl	HAL_RTCEx_Tamper2EventCallback
 1560              	.LVL116:
 1561 0094 D7E7     		b	.L101
 1562              	.L107:
1573:Drivers/STM32H7xx_HAL_Driver/Src/stm32h7xx_hal_rtc_ex.c **** 
 1563              		.loc 1 1573 7 view .LVU557
 1564 0096 D368     		ldr	r3, [r2, #12]
 1565 0098 DBB2     		uxtb	r3, r3
 1566 009a 43F07F43 		orr	r3, r3, #-16777216
 1567 009e 43F47F03 		orr	r3, r3, #16711680
 1568 00a2 43F4FE43 		orr	r3, r3, #32512
 1569 00a6 43F07F03 		orr	r3, r3, #127
 1570 00aa D360     		str	r3, [r2, #12]
1579:Drivers/STM32H7xx_HAL_Driver/Src/stm32h7xx_hal_rtc_ex.c **** #endif /* (USE_HAL_RTC_REGISTER_CALLBACKS == 1) */
 1571              		.loc 1 1579 7 view .LVU558
 1572 00ac 2046     		mov	r0, r4
 1573 00ae FFF7FEFF 		bl	HAL_RTCEx_Tamper3EventCallback
 1574              	.LVL117:
 1575 00b2 D1E7     		b	.L102
 1576              	.L109:
 1577              		.align	2
 1578              	.L108:
 1579 00b4 04000100 		.word	65540
 1580 00b8 04000800 		.word	524292
 1581 00bc 04004000 		.word	4194308
 1582              		.cfi_endproc
 1583              	.LFE342:
 1585              		.section	.text.HAL_RTCEx_InternalTamper1EventCallback,"ax",%progbits
 1586              		.align	1
 1587              		.weak	HAL_RTCEx_InternalTamper1EventCallback
 1588              		.syntax unified
 1589              		.thumb
 1590              		.thumb_func
ARM GAS  C:\Users\zdy\AppData\Local\Temp\cca8fajE.s 			page 60


 1592              	HAL_RTCEx_InternalTamper1EventCallback:
 1593              	.LVL118:
 1594              	.LFB347:
1664:Drivers/STM32H7xx_HAL_Driver/Src/stm32h7xx_hal_rtc_ex.c **** #endif /* RTC_TAMPER_3 */
1665:Drivers/STM32H7xx_HAL_Driver/Src/stm32h7xx_hal_rtc_ex.c **** 
1666:Drivers/STM32H7xx_HAL_Driver/Src/stm32h7xx_hal_rtc_ex.c **** /**
1667:Drivers/STM32H7xx_HAL_Driver/Src/stm32h7xx_hal_rtc_ex.c ****   * @brief  Internal Tamper 1 callback.
1668:Drivers/STM32H7xx_HAL_Driver/Src/stm32h7xx_hal_rtc_ex.c ****   * @param  hrtc RTC handle
1669:Drivers/STM32H7xx_HAL_Driver/Src/stm32h7xx_hal_rtc_ex.c ****   * @retval None
1670:Drivers/STM32H7xx_HAL_Driver/Src/stm32h7xx_hal_rtc_ex.c ****   */
1671:Drivers/STM32H7xx_HAL_Driver/Src/stm32h7xx_hal_rtc_ex.c **** __weak void HAL_RTCEx_InternalTamper1EventCallback(RTC_HandleTypeDef *hrtc)
1672:Drivers/STM32H7xx_HAL_Driver/Src/stm32h7xx_hal_rtc_ex.c **** {
 1595              		.loc 1 1672 1 view -0
 1596              		.cfi_startproc
 1597              		@ args = 0, pretend = 0, frame = 0
 1598              		@ frame_needed = 0, uses_anonymous_args = 0
 1599              		@ link register save eliminated.
1673:Drivers/STM32H7xx_HAL_Driver/Src/stm32h7xx_hal_rtc_ex.c ****   /* Prevent unused argument(s) compilation warning */
1674:Drivers/STM32H7xx_HAL_Driver/Src/stm32h7xx_hal_rtc_ex.c ****   UNUSED(hrtc);
 1600              		.loc 1 1674 3 view .LVU560
1675:Drivers/STM32H7xx_HAL_Driver/Src/stm32h7xx_hal_rtc_ex.c **** 
1676:Drivers/STM32H7xx_HAL_Driver/Src/stm32h7xx_hal_rtc_ex.c ****   /* NOTE : This function should not be modified, when the callback is needed,
1677:Drivers/STM32H7xx_HAL_Driver/Src/stm32h7xx_hal_rtc_ex.c ****             the HAL_RTCEx_InternalTamper1EventCallback could be implemented in the user file
1678:Drivers/STM32H7xx_HAL_Driver/Src/stm32h7xx_hal_rtc_ex.c ****    */
1679:Drivers/STM32H7xx_HAL_Driver/Src/stm32h7xx_hal_rtc_ex.c **** }
 1601              		.loc 1 1679 1 is_stmt 0 view .LVU561
 1602 0000 7047     		bx	lr
 1603              		.cfi_endproc
 1604              	.LFE347:
 1606              		.section	.text.HAL_RTCEx_InternalTamper2EventCallback,"ax",%progbits
 1607              		.align	1
 1608              		.weak	HAL_RTCEx_InternalTamper2EventCallback
