ARM GAS  C:\usertemp\cccKQ01c.s 			page 1


   1              		.cpu cortex-m7
   2              		.arch armv7e-m
   3              		.fpu fpv5-d16
   4              		.eabi_attribute 28, 1
   5              		.eabi_attribute 20, 1
   6              		.eabi_attribute 21, 1
   7              		.eabi_attribute 23, 3
   8              		.eabi_attribute 24, 1
   9              		.eabi_attribute 25, 1
  10              		.eabi_attribute 26, 1
  11              		.eabi_attribute 30, 1
  12              		.eabi_attribute 34, 1
  13              		.eabi_attribute 18, 4
  14              		.file	"stm32h7xx_hal_sram.c"
  15              		.text
  16              	.Ltext0:
  17              		.cfi_sections	.debug_frame
  18              		.file 1 "Drivers/STM32H7xx_HAL_Driver/Src/stm32h7xx_hal_sram.c"
  19              		.section	.text.HAL_SRAM_MspInit,"ax",%progbits
  20              		.align	1
  21              		.weak	HAL_SRAM_MspInit
  22              		.syntax unified
  23              		.thumb
  24              		.thumb_func
  26              	HAL_SRAM_MspInit:
  27              	.LVL0:
  28              	.LFB335:
   1:Drivers/STM32H7xx_HAL_Driver/Src/stm32h7xx_hal_sram.c **** /**
   2:Drivers/STM32H7xx_HAL_Driver/Src/stm32h7xx_hal_sram.c ****   ******************************************************************************
   3:Drivers/STM32H7xx_HAL_Driver/Src/stm32h7xx_hal_sram.c ****   * @file    stm32h7xx_hal_sram.c
   4:Drivers/STM32H7xx_HAL_Driver/Src/stm32h7xx_hal_sram.c ****   * @author  MCD Application Team
   5:Drivers/STM32H7xx_HAL_Driver/Src/stm32h7xx_hal_sram.c ****   * @brief   SRAM HAL module driver.
   6:Drivers/STM32H7xx_HAL_Driver/Src/stm32h7xx_hal_sram.c ****   *          This file provides a generic firmware to drive SRAM memories
   7:Drivers/STM32H7xx_HAL_Driver/Src/stm32h7xx_hal_sram.c ****   *          mounted as external device.
   8:Drivers/STM32H7xx_HAL_Driver/Src/stm32h7xx_hal_sram.c ****   *
   9:Drivers/STM32H7xx_HAL_Driver/Src/stm32h7xx_hal_sram.c ****   ******************************************************************************
  10:Drivers/STM32H7xx_HAL_Driver/Src/stm32h7xx_hal_sram.c ****   * @attention
  11:Drivers/STM32H7xx_HAL_Driver/Src/stm32h7xx_hal_sram.c ****   *
  12:Drivers/STM32H7xx_HAL_Driver/Src/stm32h7xx_hal_sram.c ****   * Copyright (c) 2017 STMicroelectronics.
  13:Drivers/STM32H7xx_HAL_Driver/Src/stm32h7xx_hal_sram.c ****   * All rights reserved.
  14:Drivers/STM32H7xx_HAL_Driver/Src/stm32h7xx_hal_sram.c ****   *
  15:Drivers/STM32H7xx_HAL_Driver/Src/stm32h7xx_hal_sram.c ****   * This software is licensed under terms that can be found in the LICENSE file
  16:Drivers/STM32H7xx_HAL_Driver/Src/stm32h7xx_hal_sram.c ****   * in the root directory of this software component.
  17:Drivers/STM32H7xx_HAL_Driver/Src/stm32h7xx_hal_sram.c ****   * If no LICENSE file comes with this software, it is provided AS-IS.
  18:Drivers/STM32H7xx_HAL_Driver/Src/stm32h7xx_hal_sram.c ****   *
  19:Drivers/STM32H7xx_HAL_Driver/Src/stm32h7xx_hal_sram.c ****   ******************************************************************************
  20:Drivers/STM32H7xx_HAL_Driver/Src/stm32h7xx_hal_sram.c ****   @verbatim
  21:Drivers/STM32H7xx_HAL_Driver/Src/stm32h7xx_hal_sram.c ****   ==============================================================================
  22:Drivers/STM32H7xx_HAL_Driver/Src/stm32h7xx_hal_sram.c ****                           ##### How to use this driver #####
  23:Drivers/STM32H7xx_HAL_Driver/Src/stm32h7xx_hal_sram.c ****   ==============================================================================
  24:Drivers/STM32H7xx_HAL_Driver/Src/stm32h7xx_hal_sram.c ****   [..]
  25:Drivers/STM32H7xx_HAL_Driver/Src/stm32h7xx_hal_sram.c ****     This driver is a generic layered driver which contains a set of APIs used to
  26:Drivers/STM32H7xx_HAL_Driver/Src/stm32h7xx_hal_sram.c ****     control SRAM memories. It uses the FMC layer functions to interface
  27:Drivers/STM32H7xx_HAL_Driver/Src/stm32h7xx_hal_sram.c ****     with SRAM devices.
  28:Drivers/STM32H7xx_HAL_Driver/Src/stm32h7xx_hal_sram.c ****     The following sequence should be followed to configure the FMC to interface
  29:Drivers/STM32H7xx_HAL_Driver/Src/stm32h7xx_hal_sram.c ****     with SRAM/PSRAM memories:
  30:Drivers/STM32H7xx_HAL_Driver/Src/stm32h7xx_hal_sram.c **** 
ARM GAS  C:\usertemp\cccKQ01c.s 			page 2


  31:Drivers/STM32H7xx_HAL_Driver/Src/stm32h7xx_hal_sram.c ****    (#) Declare a SRAM_HandleTypeDef handle structure, for example:
  32:Drivers/STM32H7xx_HAL_Driver/Src/stm32h7xx_hal_sram.c ****           SRAM_HandleTypeDef  hsram; and:
  33:Drivers/STM32H7xx_HAL_Driver/Src/stm32h7xx_hal_sram.c **** 
  34:Drivers/STM32H7xx_HAL_Driver/Src/stm32h7xx_hal_sram.c ****        (++) Fill the SRAM_HandleTypeDef handle "Init" field with the allowed
  35:Drivers/STM32H7xx_HAL_Driver/Src/stm32h7xx_hal_sram.c ****             values of the structure member.
  36:Drivers/STM32H7xx_HAL_Driver/Src/stm32h7xx_hal_sram.c **** 
  37:Drivers/STM32H7xx_HAL_Driver/Src/stm32h7xx_hal_sram.c ****        (++) Fill the SRAM_HandleTypeDef handle "Instance" field with a predefined
  38:Drivers/STM32H7xx_HAL_Driver/Src/stm32h7xx_hal_sram.c ****             base register instance for NOR or SRAM device
  39:Drivers/STM32H7xx_HAL_Driver/Src/stm32h7xx_hal_sram.c **** 
  40:Drivers/STM32H7xx_HAL_Driver/Src/stm32h7xx_hal_sram.c ****        (++) Fill the SRAM_HandleTypeDef handle "Extended" field with a predefined
  41:Drivers/STM32H7xx_HAL_Driver/Src/stm32h7xx_hal_sram.c ****             base register instance for NOR or SRAM extended mode
  42:Drivers/STM32H7xx_HAL_Driver/Src/stm32h7xx_hal_sram.c **** 
  43:Drivers/STM32H7xx_HAL_Driver/Src/stm32h7xx_hal_sram.c ****    (#) Declare two FMC_NORSRAM_TimingTypeDef structures, for both normal and extended
  44:Drivers/STM32H7xx_HAL_Driver/Src/stm32h7xx_hal_sram.c ****        mode timings; for example:
  45:Drivers/STM32H7xx_HAL_Driver/Src/stm32h7xx_hal_sram.c ****           FMC_NORSRAM_TimingTypeDef  Timing and FMC_NORSRAM_TimingTypeDef  ExTiming;
  46:Drivers/STM32H7xx_HAL_Driver/Src/stm32h7xx_hal_sram.c ****       and fill its fields with the allowed values of the structure member.
  47:Drivers/STM32H7xx_HAL_Driver/Src/stm32h7xx_hal_sram.c **** 
  48:Drivers/STM32H7xx_HAL_Driver/Src/stm32h7xx_hal_sram.c ****    (#) Initialize the SRAM Controller by calling the function HAL_SRAM_Init(). This function
  49:Drivers/STM32H7xx_HAL_Driver/Src/stm32h7xx_hal_sram.c ****        performs the following sequence:
  50:Drivers/STM32H7xx_HAL_Driver/Src/stm32h7xx_hal_sram.c **** 
  51:Drivers/STM32H7xx_HAL_Driver/Src/stm32h7xx_hal_sram.c ****        (##) MSP hardware layer configuration using the function HAL_SRAM_MspInit()
  52:Drivers/STM32H7xx_HAL_Driver/Src/stm32h7xx_hal_sram.c ****        (##) Control register configuration using the FMC NORSRAM interface function
  53:Drivers/STM32H7xx_HAL_Driver/Src/stm32h7xx_hal_sram.c ****             FMC_NORSRAM_Init()
  54:Drivers/STM32H7xx_HAL_Driver/Src/stm32h7xx_hal_sram.c ****        (##) Timing register configuration using the FMC NORSRAM interface function
  55:Drivers/STM32H7xx_HAL_Driver/Src/stm32h7xx_hal_sram.c ****             FMC_NORSRAM_Timing_Init()
  56:Drivers/STM32H7xx_HAL_Driver/Src/stm32h7xx_hal_sram.c ****        (##) Extended mode Timing register configuration using the FMC NORSRAM interface function
  57:Drivers/STM32H7xx_HAL_Driver/Src/stm32h7xx_hal_sram.c ****             FMC_NORSRAM_Extended_Timing_Init()
  58:Drivers/STM32H7xx_HAL_Driver/Src/stm32h7xx_hal_sram.c ****        (##) Enable the SRAM device using the macro __FMC_NORSRAM_ENABLE()
  59:Drivers/STM32H7xx_HAL_Driver/Src/stm32h7xx_hal_sram.c **** 
  60:Drivers/STM32H7xx_HAL_Driver/Src/stm32h7xx_hal_sram.c ****    (#) At this stage you can perform read/write accesses from/to the memory connected
  61:Drivers/STM32H7xx_HAL_Driver/Src/stm32h7xx_hal_sram.c ****        to the NOR/SRAM Bank. You can perform either polling or DMA transfer using the
  62:Drivers/STM32H7xx_HAL_Driver/Src/stm32h7xx_hal_sram.c ****        following APIs:
  63:Drivers/STM32H7xx_HAL_Driver/Src/stm32h7xx_hal_sram.c ****        (++) HAL_SRAM_Read()/HAL_SRAM_Write() for polling read/write access
  64:Drivers/STM32H7xx_HAL_Driver/Src/stm32h7xx_hal_sram.c ****        (++) HAL_SRAM_Read_DMA()/HAL_SRAM_Write_DMA() for DMA read/write transfer
  65:Drivers/STM32H7xx_HAL_Driver/Src/stm32h7xx_hal_sram.c **** 
  66:Drivers/STM32H7xx_HAL_Driver/Src/stm32h7xx_hal_sram.c ****    (#) You can also control the SRAM device by calling the control APIs HAL_SRAM_WriteOperation_Ena
  67:Drivers/STM32H7xx_HAL_Driver/Src/stm32h7xx_hal_sram.c ****        HAL_SRAM_WriteOperation_Disable() to respectively enable/disable the SRAM write operation
  68:Drivers/STM32H7xx_HAL_Driver/Src/stm32h7xx_hal_sram.c **** 
  69:Drivers/STM32H7xx_HAL_Driver/Src/stm32h7xx_hal_sram.c ****    (#) You can continuously monitor the SRAM device HAL state by calling the function
  70:Drivers/STM32H7xx_HAL_Driver/Src/stm32h7xx_hal_sram.c ****        HAL_SRAM_GetState()
  71:Drivers/STM32H7xx_HAL_Driver/Src/stm32h7xx_hal_sram.c **** 
  72:Drivers/STM32H7xx_HAL_Driver/Src/stm32h7xx_hal_sram.c ****        *** Callback registration ***
  73:Drivers/STM32H7xx_HAL_Driver/Src/stm32h7xx_hal_sram.c ****     =============================================
  74:Drivers/STM32H7xx_HAL_Driver/Src/stm32h7xx_hal_sram.c ****     [..]
  75:Drivers/STM32H7xx_HAL_Driver/Src/stm32h7xx_hal_sram.c ****       The compilation define  USE_HAL_SRAM_REGISTER_CALLBACKS when set to 1
  76:Drivers/STM32H7xx_HAL_Driver/Src/stm32h7xx_hal_sram.c ****       allows the user to configure dynamically the driver callbacks.
  77:Drivers/STM32H7xx_HAL_Driver/Src/stm32h7xx_hal_sram.c **** 
  78:Drivers/STM32H7xx_HAL_Driver/Src/stm32h7xx_hal_sram.c ****       Use Functions HAL_SRAM_RegisterCallback() to register a user callback,
  79:Drivers/STM32H7xx_HAL_Driver/Src/stm32h7xx_hal_sram.c ****       it allows to register following callbacks:
  80:Drivers/STM32H7xx_HAL_Driver/Src/stm32h7xx_hal_sram.c ****         (+) MspInitCallback    : SRAM MspInit.
  81:Drivers/STM32H7xx_HAL_Driver/Src/stm32h7xx_hal_sram.c ****         (+) MspDeInitCallback  : SRAM MspDeInit.
  82:Drivers/STM32H7xx_HAL_Driver/Src/stm32h7xx_hal_sram.c ****       This function takes as parameters the HAL peripheral handle, the Callback ID
  83:Drivers/STM32H7xx_HAL_Driver/Src/stm32h7xx_hal_sram.c ****       and a pointer to the user callback function.
  84:Drivers/STM32H7xx_HAL_Driver/Src/stm32h7xx_hal_sram.c **** 
  85:Drivers/STM32H7xx_HAL_Driver/Src/stm32h7xx_hal_sram.c ****       Use function HAL_SRAM_UnRegisterCallback() to reset a callback to the default
  86:Drivers/STM32H7xx_HAL_Driver/Src/stm32h7xx_hal_sram.c ****       weak (surcharged) function. It allows to reset following callbacks:
  87:Drivers/STM32H7xx_HAL_Driver/Src/stm32h7xx_hal_sram.c ****         (+) MspInitCallback    : SRAM MspInit.
ARM GAS  C:\usertemp\cccKQ01c.s 			page 3


  88:Drivers/STM32H7xx_HAL_Driver/Src/stm32h7xx_hal_sram.c ****         (+) MspDeInitCallback  : SRAM MspDeInit.
  89:Drivers/STM32H7xx_HAL_Driver/Src/stm32h7xx_hal_sram.c ****       This function) takes as parameters the HAL peripheral handle and the Callback ID.
  90:Drivers/STM32H7xx_HAL_Driver/Src/stm32h7xx_hal_sram.c **** 
  91:Drivers/STM32H7xx_HAL_Driver/Src/stm32h7xx_hal_sram.c ****       By default, after the HAL_SRAM_Init and if the state is HAL_SRAM_STATE_RESET
  92:Drivers/STM32H7xx_HAL_Driver/Src/stm32h7xx_hal_sram.c ****       all callbacks are reset to the corresponding legacy weak (surcharged) functions.
  93:Drivers/STM32H7xx_HAL_Driver/Src/stm32h7xx_hal_sram.c ****       Exception done for MspInit and MspDeInit callbacks that are respectively
  94:Drivers/STM32H7xx_HAL_Driver/Src/stm32h7xx_hal_sram.c ****       reset to the legacy weak (surcharged) functions in the HAL_SRAM_Init
  95:Drivers/STM32H7xx_HAL_Driver/Src/stm32h7xx_hal_sram.c ****       and  HAL_SRAM_DeInit only when these callbacks are null (not registered beforehand).
  96:Drivers/STM32H7xx_HAL_Driver/Src/stm32h7xx_hal_sram.c ****       If not, MspInit or MspDeInit are not null, the HAL_SRAM_Init and HAL_SRAM_DeInit
  97:Drivers/STM32H7xx_HAL_Driver/Src/stm32h7xx_hal_sram.c ****       keep and use the user MspInit/MspDeInit callbacks (registered beforehand)
  98:Drivers/STM32H7xx_HAL_Driver/Src/stm32h7xx_hal_sram.c **** 
  99:Drivers/STM32H7xx_HAL_Driver/Src/stm32h7xx_hal_sram.c ****       Callbacks can be registered/unregistered in READY state only.
 100:Drivers/STM32H7xx_HAL_Driver/Src/stm32h7xx_hal_sram.c ****       Exception done for MspInit/MspDeInit callbacks that can be registered/unregistered
 101:Drivers/STM32H7xx_HAL_Driver/Src/stm32h7xx_hal_sram.c ****       in READY or RESET state, thus registered (user) MspInit/DeInit callbacks can be used
 102:Drivers/STM32H7xx_HAL_Driver/Src/stm32h7xx_hal_sram.c ****       during the Init/DeInit.
 103:Drivers/STM32H7xx_HAL_Driver/Src/stm32h7xx_hal_sram.c ****       In that case first register the MspInit/MspDeInit user callbacks
 104:Drivers/STM32H7xx_HAL_Driver/Src/stm32h7xx_hal_sram.c ****       using HAL_SRAM_RegisterCallback before calling HAL_SRAM_DeInit
 105:Drivers/STM32H7xx_HAL_Driver/Src/stm32h7xx_hal_sram.c ****       or HAL_SRAM_Init function.
 106:Drivers/STM32H7xx_HAL_Driver/Src/stm32h7xx_hal_sram.c **** 
 107:Drivers/STM32H7xx_HAL_Driver/Src/stm32h7xx_hal_sram.c ****       When The compilation define USE_HAL_SRAM_REGISTER_CALLBACKS is set to 0 or
 108:Drivers/STM32H7xx_HAL_Driver/Src/stm32h7xx_hal_sram.c ****       not defined, the callback registering feature is not available
 109:Drivers/STM32H7xx_HAL_Driver/Src/stm32h7xx_hal_sram.c ****       and weak (surcharged) callbacks are used.
 110:Drivers/STM32H7xx_HAL_Driver/Src/stm32h7xx_hal_sram.c **** 
 111:Drivers/STM32H7xx_HAL_Driver/Src/stm32h7xx_hal_sram.c ****   @endverbatim
 112:Drivers/STM32H7xx_HAL_Driver/Src/stm32h7xx_hal_sram.c ****   ******************************************************************************
 113:Drivers/STM32H7xx_HAL_Driver/Src/stm32h7xx_hal_sram.c ****   */
 114:Drivers/STM32H7xx_HAL_Driver/Src/stm32h7xx_hal_sram.c **** 
 115:Drivers/STM32H7xx_HAL_Driver/Src/stm32h7xx_hal_sram.c **** /* Includes ------------------------------------------------------------------*/
 116:Drivers/STM32H7xx_HAL_Driver/Src/stm32h7xx_hal_sram.c **** #include "stm32h7xx_hal.h"
 117:Drivers/STM32H7xx_HAL_Driver/Src/stm32h7xx_hal_sram.c **** 
 118:Drivers/STM32H7xx_HAL_Driver/Src/stm32h7xx_hal_sram.c **** 
 119:Drivers/STM32H7xx_HAL_Driver/Src/stm32h7xx_hal_sram.c **** /** @addtogroup STM32H7xx_HAL_Driver
 120:Drivers/STM32H7xx_HAL_Driver/Src/stm32h7xx_hal_sram.c ****   * @{
 121:Drivers/STM32H7xx_HAL_Driver/Src/stm32h7xx_hal_sram.c ****   */
 122:Drivers/STM32H7xx_HAL_Driver/Src/stm32h7xx_hal_sram.c **** 
 123:Drivers/STM32H7xx_HAL_Driver/Src/stm32h7xx_hal_sram.c **** #ifdef HAL_SRAM_MODULE_ENABLED
 124:Drivers/STM32H7xx_HAL_Driver/Src/stm32h7xx_hal_sram.c **** 
 125:Drivers/STM32H7xx_HAL_Driver/Src/stm32h7xx_hal_sram.c **** /** @defgroup SRAM SRAM
 126:Drivers/STM32H7xx_HAL_Driver/Src/stm32h7xx_hal_sram.c ****   * @brief SRAM driver modules
 127:Drivers/STM32H7xx_HAL_Driver/Src/stm32h7xx_hal_sram.c ****   * @{
 128:Drivers/STM32H7xx_HAL_Driver/Src/stm32h7xx_hal_sram.c ****   */
 129:Drivers/STM32H7xx_HAL_Driver/Src/stm32h7xx_hal_sram.c **** 
 130:Drivers/STM32H7xx_HAL_Driver/Src/stm32h7xx_hal_sram.c **** /* Private typedef -----------------------------------------------------------*/
 131:Drivers/STM32H7xx_HAL_Driver/Src/stm32h7xx_hal_sram.c **** /* Private define ------------------------------------------------------------*/
 132:Drivers/STM32H7xx_HAL_Driver/Src/stm32h7xx_hal_sram.c **** /* Private macro -------------------------------------------------------------*/
 133:Drivers/STM32H7xx_HAL_Driver/Src/stm32h7xx_hal_sram.c **** /* Private variables ---------------------------------------------------------*/
 134:Drivers/STM32H7xx_HAL_Driver/Src/stm32h7xx_hal_sram.c **** /* Private function prototypes -----------------------------------------------*/
 135:Drivers/STM32H7xx_HAL_Driver/Src/stm32h7xx_hal_sram.c **** static void SRAM_DMACplt(MDMA_HandleTypeDef *hmdma);
 136:Drivers/STM32H7xx_HAL_Driver/Src/stm32h7xx_hal_sram.c **** static void SRAM_DMACpltProt(MDMA_HandleTypeDef *hmdma);
 137:Drivers/STM32H7xx_HAL_Driver/Src/stm32h7xx_hal_sram.c **** static void SRAM_DMAError(MDMA_HandleTypeDef *hmdma);
 138:Drivers/STM32H7xx_HAL_Driver/Src/stm32h7xx_hal_sram.c **** 
 139:Drivers/STM32H7xx_HAL_Driver/Src/stm32h7xx_hal_sram.c **** /* Exported functions --------------------------------------------------------*/
 140:Drivers/STM32H7xx_HAL_Driver/Src/stm32h7xx_hal_sram.c **** 
 141:Drivers/STM32H7xx_HAL_Driver/Src/stm32h7xx_hal_sram.c **** /** @defgroup SRAM_Exported_Functions SRAM Exported Functions
 142:Drivers/STM32H7xx_HAL_Driver/Src/stm32h7xx_hal_sram.c ****   * @{
 143:Drivers/STM32H7xx_HAL_Driver/Src/stm32h7xx_hal_sram.c ****   */
 144:Drivers/STM32H7xx_HAL_Driver/Src/stm32h7xx_hal_sram.c **** 
ARM GAS  C:\usertemp\cccKQ01c.s 			page 4


 145:Drivers/STM32H7xx_HAL_Driver/Src/stm32h7xx_hal_sram.c **** /** @defgroup SRAM_Exported_Functions_Group1 Initialization and de-initialization functions
 146:Drivers/STM32H7xx_HAL_Driver/Src/stm32h7xx_hal_sram.c ****   * @brief    Initialization and Configuration functions.
 147:Drivers/STM32H7xx_HAL_Driver/Src/stm32h7xx_hal_sram.c ****   *
 148:Drivers/STM32H7xx_HAL_Driver/Src/stm32h7xx_hal_sram.c ****   @verbatim
 149:Drivers/STM32H7xx_HAL_Driver/Src/stm32h7xx_hal_sram.c ****   ==============================================================================
 150:Drivers/STM32H7xx_HAL_Driver/Src/stm32h7xx_hal_sram.c ****            ##### SRAM Initialization and de_initialization functions #####
 151:Drivers/STM32H7xx_HAL_Driver/Src/stm32h7xx_hal_sram.c ****   ==============================================================================
 152:Drivers/STM32H7xx_HAL_Driver/Src/stm32h7xx_hal_sram.c ****     [..]  This section provides functions allowing to initialize/de-initialize
 153:Drivers/STM32H7xx_HAL_Driver/Src/stm32h7xx_hal_sram.c ****           the SRAM memory
 154:Drivers/STM32H7xx_HAL_Driver/Src/stm32h7xx_hal_sram.c **** 
 155:Drivers/STM32H7xx_HAL_Driver/Src/stm32h7xx_hal_sram.c **** @endverbatim
 156:Drivers/STM32H7xx_HAL_Driver/Src/stm32h7xx_hal_sram.c ****   * @{
 157:Drivers/STM32H7xx_HAL_Driver/Src/stm32h7xx_hal_sram.c ****   */
 158:Drivers/STM32H7xx_HAL_Driver/Src/stm32h7xx_hal_sram.c **** 
 159:Drivers/STM32H7xx_HAL_Driver/Src/stm32h7xx_hal_sram.c **** /**
 160:Drivers/STM32H7xx_HAL_Driver/Src/stm32h7xx_hal_sram.c ****   * @brief  Performs the SRAM device initialization sequence
 161:Drivers/STM32H7xx_HAL_Driver/Src/stm32h7xx_hal_sram.c ****   * @param  hsram pointer to a SRAM_HandleTypeDef structure that contains
 162:Drivers/STM32H7xx_HAL_Driver/Src/stm32h7xx_hal_sram.c ****   *                the configuration information for SRAM module.
 163:Drivers/STM32H7xx_HAL_Driver/Src/stm32h7xx_hal_sram.c ****   * @param  Timing Pointer to SRAM control timing structure
 164:Drivers/STM32H7xx_HAL_Driver/Src/stm32h7xx_hal_sram.c ****   * @param  ExtTiming Pointer to SRAM extended mode timing structure
 165:Drivers/STM32H7xx_HAL_Driver/Src/stm32h7xx_hal_sram.c ****   * @retval HAL status
 166:Drivers/STM32H7xx_HAL_Driver/Src/stm32h7xx_hal_sram.c ****   */
 167:Drivers/STM32H7xx_HAL_Driver/Src/stm32h7xx_hal_sram.c **** HAL_StatusTypeDef HAL_SRAM_Init(SRAM_HandleTypeDef *hsram, FMC_NORSRAM_TimingTypeDef *Timing,
 168:Drivers/STM32H7xx_HAL_Driver/Src/stm32h7xx_hal_sram.c ****                                 FMC_NORSRAM_TimingTypeDef *ExtTiming)
 169:Drivers/STM32H7xx_HAL_Driver/Src/stm32h7xx_hal_sram.c **** {
 170:Drivers/STM32H7xx_HAL_Driver/Src/stm32h7xx_hal_sram.c ****   /* Check the SRAM handle parameter */
 171:Drivers/STM32H7xx_HAL_Driver/Src/stm32h7xx_hal_sram.c ****   if (hsram == NULL)
 172:Drivers/STM32H7xx_HAL_Driver/Src/stm32h7xx_hal_sram.c ****   {
 173:Drivers/STM32H7xx_HAL_Driver/Src/stm32h7xx_hal_sram.c ****     return HAL_ERROR;
 174:Drivers/STM32H7xx_HAL_Driver/Src/stm32h7xx_hal_sram.c ****   }
 175:Drivers/STM32H7xx_HAL_Driver/Src/stm32h7xx_hal_sram.c **** 
 176:Drivers/STM32H7xx_HAL_Driver/Src/stm32h7xx_hal_sram.c ****   if (hsram->State == HAL_SRAM_STATE_RESET)
 177:Drivers/STM32H7xx_HAL_Driver/Src/stm32h7xx_hal_sram.c ****   {
 178:Drivers/STM32H7xx_HAL_Driver/Src/stm32h7xx_hal_sram.c ****     /* Allocate lock resource and initialize it */
 179:Drivers/STM32H7xx_HAL_Driver/Src/stm32h7xx_hal_sram.c ****     hsram->Lock = HAL_UNLOCKED;
 180:Drivers/STM32H7xx_HAL_Driver/Src/stm32h7xx_hal_sram.c **** 
 181:Drivers/STM32H7xx_HAL_Driver/Src/stm32h7xx_hal_sram.c **** #if (USE_HAL_SRAM_REGISTER_CALLBACKS == 1)
 182:Drivers/STM32H7xx_HAL_Driver/Src/stm32h7xx_hal_sram.c ****     if (hsram->MspInitCallback == NULL)
 183:Drivers/STM32H7xx_HAL_Driver/Src/stm32h7xx_hal_sram.c ****     {
 184:Drivers/STM32H7xx_HAL_Driver/Src/stm32h7xx_hal_sram.c ****       hsram->MspInitCallback = HAL_SRAM_MspInit;
 185:Drivers/STM32H7xx_HAL_Driver/Src/stm32h7xx_hal_sram.c ****     }
 186:Drivers/STM32H7xx_HAL_Driver/Src/stm32h7xx_hal_sram.c ****     hsram->DmaXferCpltCallback = HAL_SRAM_DMA_XferCpltCallback;
 187:Drivers/STM32H7xx_HAL_Driver/Src/stm32h7xx_hal_sram.c ****     hsram->DmaXferErrorCallback = HAL_SRAM_DMA_XferErrorCallback;
 188:Drivers/STM32H7xx_HAL_Driver/Src/stm32h7xx_hal_sram.c **** 
 189:Drivers/STM32H7xx_HAL_Driver/Src/stm32h7xx_hal_sram.c ****     /* Init the low level hardware */
 190:Drivers/STM32H7xx_HAL_Driver/Src/stm32h7xx_hal_sram.c ****     hsram->MspInitCallback(hsram);
 191:Drivers/STM32H7xx_HAL_Driver/Src/stm32h7xx_hal_sram.c **** #else
 192:Drivers/STM32H7xx_HAL_Driver/Src/stm32h7xx_hal_sram.c ****     /* Initialize the low level hardware (MSP) */
 193:Drivers/STM32H7xx_HAL_Driver/Src/stm32h7xx_hal_sram.c ****     HAL_SRAM_MspInit(hsram);
 194:Drivers/STM32H7xx_HAL_Driver/Src/stm32h7xx_hal_sram.c **** #endif /* USE_HAL_SRAM_REGISTER_CALLBACKS */
 195:Drivers/STM32H7xx_HAL_Driver/Src/stm32h7xx_hal_sram.c ****   }
 196:Drivers/STM32H7xx_HAL_Driver/Src/stm32h7xx_hal_sram.c **** 
 197:Drivers/STM32H7xx_HAL_Driver/Src/stm32h7xx_hal_sram.c ****   /* Initialize SRAM control Interface */
 198:Drivers/STM32H7xx_HAL_Driver/Src/stm32h7xx_hal_sram.c ****   (void)FMC_NORSRAM_Init(hsram->Instance, &(hsram->Init));
 199:Drivers/STM32H7xx_HAL_Driver/Src/stm32h7xx_hal_sram.c **** 
 200:Drivers/STM32H7xx_HAL_Driver/Src/stm32h7xx_hal_sram.c ****   /* Initialize SRAM timing Interface */
 201:Drivers/STM32H7xx_HAL_Driver/Src/stm32h7xx_hal_sram.c ****   (void)FMC_NORSRAM_Timing_Init(hsram->Instance, Timing, hsram->Init.NSBank);
ARM GAS  C:\usertemp\cccKQ01c.s 			page 5


 202:Drivers/STM32H7xx_HAL_Driver/Src/stm32h7xx_hal_sram.c **** 
 203:Drivers/STM32H7xx_HAL_Driver/Src/stm32h7xx_hal_sram.c ****   /* Initialize SRAM extended mode timing Interface */
 204:Drivers/STM32H7xx_HAL_Driver/Src/stm32h7xx_hal_sram.c ****   (void)FMC_NORSRAM_Extended_Timing_Init(hsram->Extended, ExtTiming, hsram->Init.NSBank,
 205:Drivers/STM32H7xx_HAL_Driver/Src/stm32h7xx_hal_sram.c ****                                          hsram->Init.ExtendedMode);
 206:Drivers/STM32H7xx_HAL_Driver/Src/stm32h7xx_hal_sram.c **** 
 207:Drivers/STM32H7xx_HAL_Driver/Src/stm32h7xx_hal_sram.c ****   /* Enable the NORSRAM device */
 208:Drivers/STM32H7xx_HAL_Driver/Src/stm32h7xx_hal_sram.c ****   __FMC_NORSRAM_ENABLE(hsram->Instance, hsram->Init.NSBank);
 209:Drivers/STM32H7xx_HAL_Driver/Src/stm32h7xx_hal_sram.c **** 
 210:Drivers/STM32H7xx_HAL_Driver/Src/stm32h7xx_hal_sram.c ****   /* Enable FMC Peripheral */
 211:Drivers/STM32H7xx_HAL_Driver/Src/stm32h7xx_hal_sram.c ****   __FMC_ENABLE();
 212:Drivers/STM32H7xx_HAL_Driver/Src/stm32h7xx_hal_sram.c **** 
 213:Drivers/STM32H7xx_HAL_Driver/Src/stm32h7xx_hal_sram.c ****   /* Initialize the SRAM controller state */
 214:Drivers/STM32H7xx_HAL_Driver/Src/stm32h7xx_hal_sram.c ****   hsram->State = HAL_SRAM_STATE_READY;
 215:Drivers/STM32H7xx_HAL_Driver/Src/stm32h7xx_hal_sram.c **** 
 216:Drivers/STM32H7xx_HAL_Driver/Src/stm32h7xx_hal_sram.c ****   return HAL_OK;
 217:Drivers/STM32H7xx_HAL_Driver/Src/stm32h7xx_hal_sram.c **** }
 218:Drivers/STM32H7xx_HAL_Driver/Src/stm32h7xx_hal_sram.c **** 
 219:Drivers/STM32H7xx_HAL_Driver/Src/stm32h7xx_hal_sram.c **** /**
 220:Drivers/STM32H7xx_HAL_Driver/Src/stm32h7xx_hal_sram.c ****   * @brief  Performs the SRAM device De-initialization sequence.
 221:Drivers/STM32H7xx_HAL_Driver/Src/stm32h7xx_hal_sram.c ****   * @param  hsram pointer to a SRAM_HandleTypeDef structure that contains
 222:Drivers/STM32H7xx_HAL_Driver/Src/stm32h7xx_hal_sram.c ****   *                the configuration information for SRAM module.
 223:Drivers/STM32H7xx_HAL_Driver/Src/stm32h7xx_hal_sram.c ****   * @retval HAL status
 224:Drivers/STM32H7xx_HAL_Driver/Src/stm32h7xx_hal_sram.c ****   */
 225:Drivers/STM32H7xx_HAL_Driver/Src/stm32h7xx_hal_sram.c **** HAL_StatusTypeDef HAL_SRAM_DeInit(SRAM_HandleTypeDef *hsram)
 226:Drivers/STM32H7xx_HAL_Driver/Src/stm32h7xx_hal_sram.c **** {
 227:Drivers/STM32H7xx_HAL_Driver/Src/stm32h7xx_hal_sram.c **** #if (USE_HAL_SRAM_REGISTER_CALLBACKS == 1)
 228:Drivers/STM32H7xx_HAL_Driver/Src/stm32h7xx_hal_sram.c ****   if (hsram->MspDeInitCallback == NULL)
 229:Drivers/STM32H7xx_HAL_Driver/Src/stm32h7xx_hal_sram.c ****   {
 230:Drivers/STM32H7xx_HAL_Driver/Src/stm32h7xx_hal_sram.c ****     hsram->MspDeInitCallback = HAL_SRAM_MspDeInit;
 231:Drivers/STM32H7xx_HAL_Driver/Src/stm32h7xx_hal_sram.c ****   }
 232:Drivers/STM32H7xx_HAL_Driver/Src/stm32h7xx_hal_sram.c **** 
 233:Drivers/STM32H7xx_HAL_Driver/Src/stm32h7xx_hal_sram.c ****   /* DeInit the low level hardware */
 234:Drivers/STM32H7xx_HAL_Driver/Src/stm32h7xx_hal_sram.c ****   hsram->MspDeInitCallback(hsram);
 235:Drivers/STM32H7xx_HAL_Driver/Src/stm32h7xx_hal_sram.c **** #else
 236:Drivers/STM32H7xx_HAL_Driver/Src/stm32h7xx_hal_sram.c ****   /* De-Initialize the low level hardware (MSP) */
 237:Drivers/STM32H7xx_HAL_Driver/Src/stm32h7xx_hal_sram.c ****   HAL_SRAM_MspDeInit(hsram);
 238:Drivers/STM32H7xx_HAL_Driver/Src/stm32h7xx_hal_sram.c **** #endif /* USE_HAL_SRAM_REGISTER_CALLBACKS */
 239:Drivers/STM32H7xx_HAL_Driver/Src/stm32h7xx_hal_sram.c **** 
 240:Drivers/STM32H7xx_HAL_Driver/Src/stm32h7xx_hal_sram.c ****   /* Configure the SRAM registers with their reset values */
 241:Drivers/STM32H7xx_HAL_Driver/Src/stm32h7xx_hal_sram.c ****   (void)FMC_NORSRAM_DeInit(hsram->Instance, hsram->Extended, hsram->Init.NSBank);
 242:Drivers/STM32H7xx_HAL_Driver/Src/stm32h7xx_hal_sram.c **** 
 243:Drivers/STM32H7xx_HAL_Driver/Src/stm32h7xx_hal_sram.c ****   /* Reset the SRAM controller state */
 244:Drivers/STM32H7xx_HAL_Driver/Src/stm32h7xx_hal_sram.c ****   hsram->State = HAL_SRAM_STATE_RESET;
 245:Drivers/STM32H7xx_HAL_Driver/Src/stm32h7xx_hal_sram.c **** 
 246:Drivers/STM32H7xx_HAL_Driver/Src/stm32h7xx_hal_sram.c ****   /* Release Lock */
 247:Drivers/STM32H7xx_HAL_Driver/Src/stm32h7xx_hal_sram.c ****   __HAL_UNLOCK(hsram);
 248:Drivers/STM32H7xx_HAL_Driver/Src/stm32h7xx_hal_sram.c **** 
 249:Drivers/STM32H7xx_HAL_Driver/Src/stm32h7xx_hal_sram.c ****   return HAL_OK;
 250:Drivers/STM32H7xx_HAL_Driver/Src/stm32h7xx_hal_sram.c **** }
 251:Drivers/STM32H7xx_HAL_Driver/Src/stm32h7xx_hal_sram.c **** 
 252:Drivers/STM32H7xx_HAL_Driver/Src/stm32h7xx_hal_sram.c **** /**
 253:Drivers/STM32H7xx_HAL_Driver/Src/stm32h7xx_hal_sram.c ****   * @brief  SRAM MSP Init.
 254:Drivers/STM32H7xx_HAL_Driver/Src/stm32h7xx_hal_sram.c ****   * @param  hsram pointer to a SRAM_HandleTypeDef structure that contains
 255:Drivers/STM32H7xx_HAL_Driver/Src/stm32h7xx_hal_sram.c ****   *                the configuration information for SRAM module.
 256:Drivers/STM32H7xx_HAL_Driver/Src/stm32h7xx_hal_sram.c ****   * @retval None
 257:Drivers/STM32H7xx_HAL_Driver/Src/stm32h7xx_hal_sram.c ****   */
 258:Drivers/STM32H7xx_HAL_Driver/Src/stm32h7xx_hal_sram.c **** __weak void HAL_SRAM_MspInit(SRAM_HandleTypeDef *hsram)
ARM GAS  C:\usertemp\cccKQ01c.s 			page 6


 259:Drivers/STM32H7xx_HAL_Driver/Src/stm32h7xx_hal_sram.c **** {
  29              		.loc 1 259 1 view -0
  30              		.cfi_startproc
  31              		@ args = 0, pretend = 0, frame = 0
  32              		@ frame_needed = 0, uses_anonymous_args = 0
  33              		@ link register save eliminated.
 260:Drivers/STM32H7xx_HAL_Driver/Src/stm32h7xx_hal_sram.c ****   /* Prevent unused argument(s) compilation warning */
 261:Drivers/STM32H7xx_HAL_Driver/Src/stm32h7xx_hal_sram.c ****   UNUSED(hsram);
  34              		.loc 1 261 3 view .LVU1
 262:Drivers/STM32H7xx_HAL_Driver/Src/stm32h7xx_hal_sram.c **** 
 263:Drivers/STM32H7xx_HAL_Driver/Src/stm32h7xx_hal_sram.c ****   /* NOTE : This function Should not be modified, when the callback is needed,
 264:Drivers/STM32H7xx_HAL_Driver/Src/stm32h7xx_hal_sram.c ****             the HAL_SRAM_MspInit could be implemented in the user file
 265:Drivers/STM32H7xx_HAL_Driver/Src/stm32h7xx_hal_sram.c ****    */
 266:Drivers/STM32H7xx_HAL_Driver/Src/stm32h7xx_hal_sram.c **** }
  35              		.loc 1 266 1 is_stmt 0 view .LVU2
  36 0000 7047     		bx	lr
  37              		.cfi_endproc
  38              	.LFE335:
  40              		.section	.text.HAL_SRAM_Init,"ax",%progbits
  41              		.align	1
  42              		.global	HAL_SRAM_Init
  43              		.syntax unified
  44              		.thumb
  45              		.thumb_func
  47              	HAL_SRAM_Init:
  48              	.LVL1:
  49              	.LFB333:
 169:Drivers/STM32H7xx_HAL_Driver/Src/stm32h7xx_hal_sram.c ****   /* Check the SRAM handle parameter */
  50              		.loc 1 169 1 is_stmt 1 view -0
  51              		.cfi_startproc
  52              		@ args = 0, pretend = 0, frame = 0
  53              		@ frame_needed = 0, uses_anonymous_args = 0
 171:Drivers/STM32H7xx_HAL_Driver/Src/stm32h7xx_hal_sram.c ****   {
  54              		.loc 1 171 3 view .LVU4
 171:Drivers/STM32H7xx_HAL_Driver/Src/stm32h7xx_hal_sram.c ****   {
  55              		.loc 1 171 6 is_stmt 0 view .LVU5
  56 0000 68B3     		cbz	r0, .L5
 169:Drivers/STM32H7xx_HAL_Driver/Src/stm32h7xx_hal_sram.c ****   /* Check the SRAM handle parameter */
  57              		.loc 1 169 1 view .LVU6
  58 0002 70B5     		push	{r4, r5, r6, lr}
  59              	.LCFI0:
  60              		.cfi_def_cfa_offset 16
  61              		.cfi_offset 4, -16
  62              		.cfi_offset 5, -12
  63              		.cfi_offset 6, -8
  64              		.cfi_offset 14, -4
  65 0004 0E46     		mov	r6, r1
  66 0006 1546     		mov	r5, r2
  67 0008 0446     		mov	r4, r0
 176:Drivers/STM32H7xx_HAL_Driver/Src/stm32h7xx_hal_sram.c ****   {
  68              		.loc 1 176 3 is_stmt 1 view .LVU7
 176:Drivers/STM32H7xx_HAL_Driver/Src/stm32h7xx_hal_sram.c ****   {
  69              		.loc 1 176 12 is_stmt 0 view .LVU8
  70 000a 90F84530 		ldrb	r3, [r0, #69]	@ zero_extendqisi2
 176:Drivers/STM32H7xx_HAL_Driver/Src/stm32h7xx_hal_sram.c ****   {
  71              		.loc 1 176 6 view .LVU9
  72 000e 0BB3     		cbz	r3, .L10
ARM GAS  C:\usertemp\cccKQ01c.s 			page 7


  73              	.LVL2:
  74              	.L4:
 198:Drivers/STM32H7xx_HAL_Driver/Src/stm32h7xx_hal_sram.c **** 
  75              		.loc 1 198 3 is_stmt 1 view .LVU10
 198:Drivers/STM32H7xx_HAL_Driver/Src/stm32h7xx_hal_sram.c **** 
  76              		.loc 1 198 9 is_stmt 0 view .LVU11
  77 0010 2146     		mov	r1, r4
  78 0012 51F8080B 		ldr	r0, [r1], #8
  79 0016 FFF7FEFF 		bl	FMC_NORSRAM_Init
  80              	.LVL3:
 201:Drivers/STM32H7xx_HAL_Driver/Src/stm32h7xx_hal_sram.c **** 
  81              		.loc 1 201 3 is_stmt 1 view .LVU12
 201:Drivers/STM32H7xx_HAL_Driver/Src/stm32h7xx_hal_sram.c **** 
  82              		.loc 1 201 9 is_stmt 0 view .LVU13
  83 001a A268     		ldr	r2, [r4, #8]
  84 001c 3146     		mov	r1, r6
  85 001e 2068     		ldr	r0, [r4]
  86 0020 FFF7FEFF 		bl	FMC_NORSRAM_Timing_Init
  87              	.LVL4:
 204:Drivers/STM32H7xx_HAL_Driver/Src/stm32h7xx_hal_sram.c ****                                          hsram->Init.ExtendedMode);
  88              		.loc 1 204 3 is_stmt 1 view .LVU14
 204:Drivers/STM32H7xx_HAL_Driver/Src/stm32h7xx_hal_sram.c ****                                          hsram->Init.ExtendedMode);
  89              		.loc 1 204 9 is_stmt 0 view .LVU15
  90 0024 E36A     		ldr	r3, [r4, #44]
  91 0026 A268     		ldr	r2, [r4, #8]
  92 0028 2946     		mov	r1, r5
  93 002a 6068     		ldr	r0, [r4, #4]
  94 002c FFF7FEFF 		bl	FMC_NORSRAM_Extended_Timing_Init
  95              	.LVL5:
 208:Drivers/STM32H7xx_HAL_Driver/Src/stm32h7xx_hal_sram.c **** 
  96              		.loc 1 208 3 is_stmt 1 view .LVU16
  97 0030 2268     		ldr	r2, [r4]
  98 0032 A168     		ldr	r1, [r4, #8]
  99 0034 52F82130 		ldr	r3, [r2, r1, lsl #2]
 100 0038 43F00103 		orr	r3, r3, #1
 101 003c 42F82130 		str	r3, [r2, r1, lsl #2]
 211:Drivers/STM32H7xx_HAL_Driver/Src/stm32h7xx_hal_sram.c **** 
 102              		.loc 1 211 3 view .LVU17
 103 0040 084A     		ldr	r2, .L11
 104 0042 1368     		ldr	r3, [r2]
 105 0044 43F00043 		orr	r3, r3, #-2147483648
 106 0048 1360     		str	r3, [r2]
 214:Drivers/STM32H7xx_HAL_Driver/Src/stm32h7xx_hal_sram.c **** 
 107              		.loc 1 214 3 view .LVU18
 214:Drivers/STM32H7xx_HAL_Driver/Src/stm32h7xx_hal_sram.c **** 
 108              		.loc 1 214 16 is_stmt 0 view .LVU19
 109 004a 0123     		movs	r3, #1
 110 004c 84F84530 		strb	r3, [r4, #69]
 216:Drivers/STM32H7xx_HAL_Driver/Src/stm32h7xx_hal_sram.c **** }
 111              		.loc 1 216 3 is_stmt 1 view .LVU20
 216:Drivers/STM32H7xx_HAL_Driver/Src/stm32h7xx_hal_sram.c **** }
 112              		.loc 1 216 10 is_stmt 0 view .LVU21
 113 0050 0020     		movs	r0, #0
 217:Drivers/STM32H7xx_HAL_Driver/Src/stm32h7xx_hal_sram.c **** 
 114              		.loc 1 217 1 view .LVU22
 115 0052 70BD     		pop	{r4, r5, r6, pc}
 116              	.LVL6:
ARM GAS  C:\usertemp\cccKQ01c.s 			page 8


 117              	.L10:
 179:Drivers/STM32H7xx_HAL_Driver/Src/stm32h7xx_hal_sram.c **** 
 118              		.loc 1 179 5 is_stmt 1 view .LVU23
 179:Drivers/STM32H7xx_HAL_Driver/Src/stm32h7xx_hal_sram.c **** 
 119              		.loc 1 179 17 is_stmt 0 view .LVU24
 120 0054 80F84430 		strb	r3, [r0, #68]
 193:Drivers/STM32H7xx_HAL_Driver/Src/stm32h7xx_hal_sram.c **** #endif /* USE_HAL_SRAM_REGISTER_CALLBACKS */
 121              		.loc 1 193 5 is_stmt 1 view .LVU25
 122 0058 FFF7FEFF 		bl	HAL_SRAM_MspInit
 123              	.LVL7:
 193:Drivers/STM32H7xx_HAL_Driver/Src/stm32h7xx_hal_sram.c **** #endif /* USE_HAL_SRAM_REGISTER_CALLBACKS */
 124              		.loc 1 193 5 is_stmt 0 view .LVU26
 125 005c D8E7     		b	.L4
 126              	.LVL8:
 127              	.L5:
 128              	.LCFI1:
 129              		.cfi_def_cfa_offset 0
 130              		.cfi_restore 4
 131              		.cfi_restore 5
 132              		.cfi_restore 6
 133              		.cfi_restore 14
 173:Drivers/STM32H7xx_HAL_Driver/Src/stm32h7xx_hal_sram.c ****   }
 134              		.loc 1 173 12 view .LVU27
 135 005e 0120     		movs	r0, #1
 136              	.LVL9:
 217:Drivers/STM32H7xx_HAL_Driver/Src/stm32h7xx_hal_sram.c **** 
 137              		.loc 1 217 1 view .LVU28
 138 0060 7047     		bx	lr
 139              	.L12:
 140 0062 00BF     		.align	2
 141              	.L11:
 142 0064 00400052 		.word	1375748096
 143              		.cfi_endproc
 144              	.LFE333:
 146              		.section	.text.HAL_SRAM_MspDeInit,"ax",%progbits
 147              		.align	1
 148              		.weak	HAL_SRAM_MspDeInit
 149              		.syntax unified
 150              		.thumb
 151              		.thumb_func
 153              	HAL_SRAM_MspDeInit:
 154              	.LVL10:
 155              	.LFB336:
 267:Drivers/STM32H7xx_HAL_Driver/Src/stm32h7xx_hal_sram.c **** 
 268:Drivers/STM32H7xx_HAL_Driver/Src/stm32h7xx_hal_sram.c **** /**
 269:Drivers/STM32H7xx_HAL_Driver/Src/stm32h7xx_hal_sram.c ****   * @brief  SRAM MSP DeInit.
 270:Drivers/STM32H7xx_HAL_Driver/Src/stm32h7xx_hal_sram.c ****   * @param  hsram pointer to a SRAM_HandleTypeDef structure that contains
 271:Drivers/STM32H7xx_HAL_Driver/Src/stm32h7xx_hal_sram.c ****   *                the configuration information for SRAM module.
 272:Drivers/STM32H7xx_HAL_Driver/Src/stm32h7xx_hal_sram.c ****   * @retval None
 273:Drivers/STM32H7xx_HAL_Driver/Src/stm32h7xx_hal_sram.c ****   */
 274:Drivers/STM32H7xx_HAL_Driver/Src/stm32h7xx_hal_sram.c **** __weak void HAL_SRAM_MspDeInit(SRAM_HandleTypeDef *hsram)
 275:Drivers/STM32H7xx_HAL_Driver/Src/stm32h7xx_hal_sram.c **** {
 156              		.loc 1 275 1 is_stmt 1 view -0
 157              		.cfi_startproc
 158              		@ args = 0, pretend = 0, frame = 0
 159              		@ frame_needed = 0, uses_anonymous_args = 0
 160              		@ link register save eliminated.
ARM GAS  C:\usertemp\cccKQ01c.s 			page 9


 276:Drivers/STM32H7xx_HAL_Driver/Src/stm32h7xx_hal_sram.c ****   /* Prevent unused argument(s) compilation warning */
 277:Drivers/STM32H7xx_HAL_Driver/Src/stm32h7xx_hal_sram.c ****   UNUSED(hsram);
 161              		.loc 1 277 3 view .LVU30
 278:Drivers/STM32H7xx_HAL_Driver/Src/stm32h7xx_hal_sram.c **** 
 279:Drivers/STM32H7xx_HAL_Driver/Src/stm32h7xx_hal_sram.c ****   /* NOTE : This function Should not be modified, when the callback is needed,
 280:Drivers/STM32H7xx_HAL_Driver/Src/stm32h7xx_hal_sram.c ****             the HAL_SRAM_MspDeInit could be implemented in the user file
 281:Drivers/STM32H7xx_HAL_Driver/Src/stm32h7xx_hal_sram.c ****    */
 282:Drivers/STM32H7xx_HAL_Driver/Src/stm32h7xx_hal_sram.c **** }
 162              		.loc 1 282 1 is_stmt 0 view .LVU31
 163 0000 7047     		bx	lr
 164              		.cfi_endproc
 165              	.LFE336:
 167              		.section	.text.HAL_SRAM_DeInit,"ax",%progbits
 168              		.align	1
 169              		.global	HAL_SRAM_DeInit
 170              		.syntax unified
 171              		.thumb
 172              		.thumb_func
 174              	HAL_SRAM_DeInit:
 175              	.LVL11:
 176              	.LFB334:
 226:Drivers/STM32H7xx_HAL_Driver/Src/stm32h7xx_hal_sram.c **** #if (USE_HAL_SRAM_REGISTER_CALLBACKS == 1)
 177              		.loc 1 226 1 is_stmt 1 view -0
 178              		.cfi_startproc
 179              		@ args = 0, pretend = 0, frame = 0
 180              		@ frame_needed = 0, uses_anonymous_args = 0
 226:Drivers/STM32H7xx_HAL_Driver/Src/stm32h7xx_hal_sram.c **** #if (USE_HAL_SRAM_REGISTER_CALLBACKS == 1)
 181              		.loc 1 226 1 is_stmt 0 view .LVU33
 182 0000 10B5     		push	{r4, lr}
 183              	.LCFI2:
 184              		.cfi_def_cfa_offset 8
 185              		.cfi_offset 4, -8
 186              		.cfi_offset 14, -4
 187 0002 0446     		mov	r4, r0
 237:Drivers/STM32H7xx_HAL_Driver/Src/stm32h7xx_hal_sram.c **** #endif /* USE_HAL_SRAM_REGISTER_CALLBACKS */
 188              		.loc 1 237 3 is_stmt 1 view .LVU34
 189 0004 FFF7FEFF 		bl	HAL_SRAM_MspDeInit
 190              	.LVL12:
 241:Drivers/STM32H7xx_HAL_Driver/Src/stm32h7xx_hal_sram.c **** 
 191              		.loc 1 241 3 view .LVU35
 241:Drivers/STM32H7xx_HAL_Driver/Src/stm32h7xx_hal_sram.c **** 
 192              		.loc 1 241 9 is_stmt 0 view .LVU36
 193 0008 A268     		ldr	r2, [r4, #8]
 194 000a 6168     		ldr	r1, [r4, #4]
 195 000c 2068     		ldr	r0, [r4]
 196 000e FFF7FEFF 		bl	FMC_NORSRAM_DeInit
 197              	.LVL13:
 244:Drivers/STM32H7xx_HAL_Driver/Src/stm32h7xx_hal_sram.c **** 
 198              		.loc 1 244 3 is_stmt 1 view .LVU37
 244:Drivers/STM32H7xx_HAL_Driver/Src/stm32h7xx_hal_sram.c **** 
 199              		.loc 1 244 16 is_stmt 0 view .LVU38
 200 0012 0020     		movs	r0, #0
 201 0014 84F84500 		strb	r0, [r4, #69]
 247:Drivers/STM32H7xx_HAL_Driver/Src/stm32h7xx_hal_sram.c **** 
 202              		.loc 1 247 3 is_stmt 1 view .LVU39
 247:Drivers/STM32H7xx_HAL_Driver/Src/stm32h7xx_hal_sram.c **** 
 203              		.loc 1 247 3 view .LVU40
ARM GAS  C:\usertemp\cccKQ01c.s 			page 10


 204 0018 84F84400 		strb	r0, [r4, #68]
 247:Drivers/STM32H7xx_HAL_Driver/Src/stm32h7xx_hal_sram.c **** 
 205              		.loc 1 247 3 view .LVU41
 249:Drivers/STM32H7xx_HAL_Driver/Src/stm32h7xx_hal_sram.c **** }
 206              		.loc 1 249 3 view .LVU42
 250:Drivers/STM32H7xx_HAL_Driver/Src/stm32h7xx_hal_sram.c **** 
 207              		.loc 1 250 1 is_stmt 0 view .LVU43
 208 001c 10BD     		pop	{r4, pc}
 250:Drivers/STM32H7xx_HAL_Driver/Src/stm32h7xx_hal_sram.c **** 
 209              		.loc 1 250 1 view .LVU44
 210              		.cfi_endproc
 211              	.LFE334:
 213              		.section	.text.HAL_SRAM_DMA_XferCpltCallback,"ax",%progbits
 214              		.align	1
 215              		.weak	HAL_SRAM_DMA_XferCpltCallback
 216              		.syntax unified
 217              		.thumb
 218              		.thumb_func
 220              	HAL_SRAM_DMA_XferCpltCallback:
 221              	.LVL14:
 222              	.LFB337:
 283:Drivers/STM32H7xx_HAL_Driver/Src/stm32h7xx_hal_sram.c **** 
 284:Drivers/STM32H7xx_HAL_Driver/Src/stm32h7xx_hal_sram.c **** /**
 285:Drivers/STM32H7xx_HAL_Driver/Src/stm32h7xx_hal_sram.c ****   * @brief  DMA transfer complete callback.
 286:Drivers/STM32H7xx_HAL_Driver/Src/stm32h7xx_hal_sram.c ****   * @param  hmdma pointer to a SRAM_HandleTypeDef structure that contains
 287:Drivers/STM32H7xx_HAL_Driver/Src/stm32h7xx_hal_sram.c ****   *                the configuration information for SRAM module.
 288:Drivers/STM32H7xx_HAL_Driver/Src/stm32h7xx_hal_sram.c ****   * @retval None
 289:Drivers/STM32H7xx_HAL_Driver/Src/stm32h7xx_hal_sram.c ****   */
 290:Drivers/STM32H7xx_HAL_Driver/Src/stm32h7xx_hal_sram.c **** __weak void HAL_SRAM_DMA_XferCpltCallback(MDMA_HandleTypeDef *hmdma)
 291:Drivers/STM32H7xx_HAL_Driver/Src/stm32h7xx_hal_sram.c **** {
 223              		.loc 1 291 1 is_stmt 1 view -0
 224              		.cfi_startproc
 225              		@ args = 0, pretend = 0, frame = 0
 226              		@ frame_needed = 0, uses_anonymous_args = 0
 227              		@ link register save eliminated.
 292:Drivers/STM32H7xx_HAL_Driver/Src/stm32h7xx_hal_sram.c ****   /* Prevent unused argument(s) compilation warning */
 293:Drivers/STM32H7xx_HAL_Driver/Src/stm32h7xx_hal_sram.c ****   UNUSED(hmdma);
 228              		.loc 1 293 3 view .LVU46
 294:Drivers/STM32H7xx_HAL_Driver/Src/stm32h7xx_hal_sram.c **** 
 295:Drivers/STM32H7xx_HAL_Driver/Src/stm32h7xx_hal_sram.c ****   /* NOTE : This function Should not be modified, when the callback is needed,
 296:Drivers/STM32H7xx_HAL_Driver/Src/stm32h7xx_hal_sram.c ****             the HAL_SRAM_DMA_XferCpltCallback could be implemented in the user file
 297:Drivers/STM32H7xx_HAL_Driver/Src/stm32h7xx_hal_sram.c ****    */
 298:Drivers/STM32H7xx_HAL_Driver/Src/stm32h7xx_hal_sram.c **** }
 229              		.loc 1 298 1 is_stmt 0 view .LVU47
 230 0000 7047     		bx	lr
 231              		.cfi_endproc
 232              	.LFE337:
 234              		.section	.text.SRAM_DMACpltProt,"ax",%progbits
 235              		.align	1
 236              		.syntax unified
 237              		.thumb
 238              		.thumb_func
 240              	SRAM_DMACpltProt:
 241              	.LVL15:
 242              	.LFB351:
 299:Drivers/STM32H7xx_HAL_Driver/Src/stm32h7xx_hal_sram.c **** 
 300:Drivers/STM32H7xx_HAL_Driver/Src/stm32h7xx_hal_sram.c **** /**
ARM GAS  C:\usertemp\cccKQ01c.s 			page 11


 301:Drivers/STM32H7xx_HAL_Driver/Src/stm32h7xx_hal_sram.c ****   * @brief  DMA transfer complete error callback.
 302:Drivers/STM32H7xx_HAL_Driver/Src/stm32h7xx_hal_sram.c ****   * @param  hmdma pointer to a SRAM_HandleTypeDef structure that contains
 303:Drivers/STM32H7xx_HAL_Driver/Src/stm32h7xx_hal_sram.c ****   *                the configuration information for SRAM module.
 304:Drivers/STM32H7xx_HAL_Driver/Src/stm32h7xx_hal_sram.c ****   * @retval None
 305:Drivers/STM32H7xx_HAL_Driver/Src/stm32h7xx_hal_sram.c ****   */
 306:Drivers/STM32H7xx_HAL_Driver/Src/stm32h7xx_hal_sram.c **** __weak void HAL_SRAM_DMA_XferErrorCallback(MDMA_HandleTypeDef *hmdma)
 307:Drivers/STM32H7xx_HAL_Driver/Src/stm32h7xx_hal_sram.c **** {
 308:Drivers/STM32H7xx_HAL_Driver/Src/stm32h7xx_hal_sram.c ****   /* Prevent unused argument(s) compilation warning */
 309:Drivers/STM32H7xx_HAL_Driver/Src/stm32h7xx_hal_sram.c ****   UNUSED(hmdma);
 310:Drivers/STM32H7xx_HAL_Driver/Src/stm32h7xx_hal_sram.c **** 
 311:Drivers/STM32H7xx_HAL_Driver/Src/stm32h7xx_hal_sram.c ****   /* NOTE : This function Should not be modified, when the callback is needed,
 312:Drivers/STM32H7xx_HAL_Driver/Src/stm32h7xx_hal_sram.c ****             the HAL_SRAM_DMA_XferErrorCallback could be implemented in the user file
 313:Drivers/STM32H7xx_HAL_Driver/Src/stm32h7xx_hal_sram.c ****    */
 314:Drivers/STM32H7xx_HAL_Driver/Src/stm32h7xx_hal_sram.c **** }
 315:Drivers/STM32H7xx_HAL_Driver/Src/stm32h7xx_hal_sram.c **** 
 316:Drivers/STM32H7xx_HAL_Driver/Src/stm32h7xx_hal_sram.c **** /**
 317:Drivers/STM32H7xx_HAL_Driver/Src/stm32h7xx_hal_sram.c ****   * @}
 318:Drivers/STM32H7xx_HAL_Driver/Src/stm32h7xx_hal_sram.c ****   */
 319:Drivers/STM32H7xx_HAL_Driver/Src/stm32h7xx_hal_sram.c **** 
 320:Drivers/STM32H7xx_HAL_Driver/Src/stm32h7xx_hal_sram.c **** /** @defgroup SRAM_Exported_Functions_Group2 Input Output and memory control functions
 321:Drivers/STM32H7xx_HAL_Driver/Src/stm32h7xx_hal_sram.c ****   * @brief    Input Output and memory control functions
 322:Drivers/STM32H7xx_HAL_Driver/Src/stm32h7xx_hal_sram.c ****   *
 323:Drivers/STM32H7xx_HAL_Driver/Src/stm32h7xx_hal_sram.c ****   @verbatim
 324:Drivers/STM32H7xx_HAL_Driver/Src/stm32h7xx_hal_sram.c ****   ==============================================================================
 325:Drivers/STM32H7xx_HAL_Driver/Src/stm32h7xx_hal_sram.c ****                   ##### SRAM Input and Output functions #####
 326:Drivers/STM32H7xx_HAL_Driver/Src/stm32h7xx_hal_sram.c ****   ==============================================================================
 327:Drivers/STM32H7xx_HAL_Driver/Src/stm32h7xx_hal_sram.c ****   [..]
 328:Drivers/STM32H7xx_HAL_Driver/Src/stm32h7xx_hal_sram.c ****     This section provides functions allowing to use and control the SRAM memory
 329:Drivers/STM32H7xx_HAL_Driver/Src/stm32h7xx_hal_sram.c **** 
 330:Drivers/STM32H7xx_HAL_Driver/Src/stm32h7xx_hal_sram.c **** @endverbatim
 331:Drivers/STM32H7xx_HAL_Driver/Src/stm32h7xx_hal_sram.c ****   * @{
 332:Drivers/STM32H7xx_HAL_Driver/Src/stm32h7xx_hal_sram.c ****   */
 333:Drivers/STM32H7xx_HAL_Driver/Src/stm32h7xx_hal_sram.c **** 
 334:Drivers/STM32H7xx_HAL_Driver/Src/stm32h7xx_hal_sram.c **** /**
 335:Drivers/STM32H7xx_HAL_Driver/Src/stm32h7xx_hal_sram.c ****   * @brief  Reads 8-bit buffer from SRAM memory.
 336:Drivers/STM32H7xx_HAL_Driver/Src/stm32h7xx_hal_sram.c ****   * @param  hsram pointer to a SRAM_HandleTypeDef structure that contains
 337:Drivers/STM32H7xx_HAL_Driver/Src/stm32h7xx_hal_sram.c ****   *                the configuration information for SRAM module.
 338:Drivers/STM32H7xx_HAL_Driver/Src/stm32h7xx_hal_sram.c ****   * @param  pAddress Pointer to read start address
 339:Drivers/STM32H7xx_HAL_Driver/Src/stm32h7xx_hal_sram.c ****   * @param  pDstBuffer Pointer to destination buffer
 340:Drivers/STM32H7xx_HAL_Driver/Src/stm32h7xx_hal_sram.c ****   * @param  BufferSize Size of the buffer to read from memory
 341:Drivers/STM32H7xx_HAL_Driver/Src/stm32h7xx_hal_sram.c ****   * @retval HAL status
 342:Drivers/STM32H7xx_HAL_Driver/Src/stm32h7xx_hal_sram.c ****   */
 343:Drivers/STM32H7xx_HAL_Driver/Src/stm32h7xx_hal_sram.c **** HAL_StatusTypeDef HAL_SRAM_Read_8b(SRAM_HandleTypeDef *hsram, uint32_t *pAddress, uint8_t *pDstBuff
 344:Drivers/STM32H7xx_HAL_Driver/Src/stm32h7xx_hal_sram.c ****                                    uint32_t BufferSize)
 345:Drivers/STM32H7xx_HAL_Driver/Src/stm32h7xx_hal_sram.c **** {
 346:Drivers/STM32H7xx_HAL_Driver/Src/stm32h7xx_hal_sram.c ****   uint32_t size;
 347:Drivers/STM32H7xx_HAL_Driver/Src/stm32h7xx_hal_sram.c ****   __IO uint8_t *psramaddress = (uint8_t *)pAddress;
 348:Drivers/STM32H7xx_HAL_Driver/Src/stm32h7xx_hal_sram.c ****   uint8_t *pdestbuff = pDstBuffer;
 349:Drivers/STM32H7xx_HAL_Driver/Src/stm32h7xx_hal_sram.c ****   HAL_SRAM_StateTypeDef state = hsram->State;
 350:Drivers/STM32H7xx_HAL_Driver/Src/stm32h7xx_hal_sram.c **** 
 351:Drivers/STM32H7xx_HAL_Driver/Src/stm32h7xx_hal_sram.c ****   /* Check the SRAM controller state */
 352:Drivers/STM32H7xx_HAL_Driver/Src/stm32h7xx_hal_sram.c ****   if ((state == HAL_SRAM_STATE_READY) || (state == HAL_SRAM_STATE_PROTECTED))
 353:Drivers/STM32H7xx_HAL_Driver/Src/stm32h7xx_hal_sram.c ****   {
 354:Drivers/STM32H7xx_HAL_Driver/Src/stm32h7xx_hal_sram.c ****     /* Process Locked */
 355:Drivers/STM32H7xx_HAL_Driver/Src/stm32h7xx_hal_sram.c ****     __HAL_LOCK(hsram);
 356:Drivers/STM32H7xx_HAL_Driver/Src/stm32h7xx_hal_sram.c **** 
 357:Drivers/STM32H7xx_HAL_Driver/Src/stm32h7xx_hal_sram.c ****     /* Update the SRAM controller state */
ARM GAS  C:\usertemp\cccKQ01c.s 			page 12


 358:Drivers/STM32H7xx_HAL_Driver/Src/stm32h7xx_hal_sram.c ****     hsram->State = HAL_SRAM_STATE_BUSY;
 359:Drivers/STM32H7xx_HAL_Driver/Src/stm32h7xx_hal_sram.c **** 
 360:Drivers/STM32H7xx_HAL_Driver/Src/stm32h7xx_hal_sram.c ****     /* Read data from memory */
 361:Drivers/STM32H7xx_HAL_Driver/Src/stm32h7xx_hal_sram.c ****     for (size = BufferSize; size != 0U; size--)
 362:Drivers/STM32H7xx_HAL_Driver/Src/stm32h7xx_hal_sram.c ****     {
 363:Drivers/STM32H7xx_HAL_Driver/Src/stm32h7xx_hal_sram.c ****       *pdestbuff = *psramaddress;
 364:Drivers/STM32H7xx_HAL_Driver/Src/stm32h7xx_hal_sram.c ****       pdestbuff++;
 365:Drivers/STM32H7xx_HAL_Driver/Src/stm32h7xx_hal_sram.c ****       psramaddress++;
 366:Drivers/STM32H7xx_HAL_Driver/Src/stm32h7xx_hal_sram.c ****     }
 367:Drivers/STM32H7xx_HAL_Driver/Src/stm32h7xx_hal_sram.c **** 
 368:Drivers/STM32H7xx_HAL_Driver/Src/stm32h7xx_hal_sram.c ****     /* Update the SRAM controller state */
 369:Drivers/STM32H7xx_HAL_Driver/Src/stm32h7xx_hal_sram.c ****     hsram->State = state;
 370:Drivers/STM32H7xx_HAL_Driver/Src/stm32h7xx_hal_sram.c **** 
 371:Drivers/STM32H7xx_HAL_Driver/Src/stm32h7xx_hal_sram.c ****     /* Process unlocked */
 372:Drivers/STM32H7xx_HAL_Driver/Src/stm32h7xx_hal_sram.c ****     __HAL_UNLOCK(hsram);
 373:Drivers/STM32H7xx_HAL_Driver/Src/stm32h7xx_hal_sram.c ****   }
 374:Drivers/STM32H7xx_HAL_Driver/Src/stm32h7xx_hal_sram.c ****   else
 375:Drivers/STM32H7xx_HAL_Driver/Src/stm32h7xx_hal_sram.c ****   {
 376:Drivers/STM32H7xx_HAL_Driver/Src/stm32h7xx_hal_sram.c ****     return HAL_ERROR;
 377:Drivers/STM32H7xx_HAL_Driver/Src/stm32h7xx_hal_sram.c ****   }
 378:Drivers/STM32H7xx_HAL_Driver/Src/stm32h7xx_hal_sram.c **** 
 379:Drivers/STM32H7xx_HAL_Driver/Src/stm32h7xx_hal_sram.c ****   return HAL_OK;
 380:Drivers/STM32H7xx_HAL_Driver/Src/stm32h7xx_hal_sram.c **** }
 381:Drivers/STM32H7xx_HAL_Driver/Src/stm32h7xx_hal_sram.c **** 
 382:Drivers/STM32H7xx_HAL_Driver/Src/stm32h7xx_hal_sram.c **** /**
 383:Drivers/STM32H7xx_HAL_Driver/Src/stm32h7xx_hal_sram.c ****   * @brief  Writes 8-bit buffer to SRAM memory.
 384:Drivers/STM32H7xx_HAL_Driver/Src/stm32h7xx_hal_sram.c ****   * @param  hsram pointer to a SRAM_HandleTypeDef structure that contains
 385:Drivers/STM32H7xx_HAL_Driver/Src/stm32h7xx_hal_sram.c ****   *                the configuration information for SRAM module.
 386:Drivers/STM32H7xx_HAL_Driver/Src/stm32h7xx_hal_sram.c ****   * @param  pAddress Pointer to write start address
 387:Drivers/STM32H7xx_HAL_Driver/Src/stm32h7xx_hal_sram.c ****   * @param  pSrcBuffer Pointer to source buffer to write
 388:Drivers/STM32H7xx_HAL_Driver/Src/stm32h7xx_hal_sram.c ****   * @param  BufferSize Size of the buffer to write to memory
 389:Drivers/STM32H7xx_HAL_Driver/Src/stm32h7xx_hal_sram.c ****   * @retval HAL status
 390:Drivers/STM32H7xx_HAL_Driver/Src/stm32h7xx_hal_sram.c ****   */
 391:Drivers/STM32H7xx_HAL_Driver/Src/stm32h7xx_hal_sram.c **** HAL_StatusTypeDef HAL_SRAM_Write_8b(SRAM_HandleTypeDef *hsram, uint32_t *pAddress, uint8_t *pSrcBuf
 392:Drivers/STM32H7xx_HAL_Driver/Src/stm32h7xx_hal_sram.c ****                                     uint32_t BufferSize)
 393:Drivers/STM32H7xx_HAL_Driver/Src/stm32h7xx_hal_sram.c **** {
 394:Drivers/STM32H7xx_HAL_Driver/Src/stm32h7xx_hal_sram.c ****   uint32_t size;
 395:Drivers/STM32H7xx_HAL_Driver/Src/stm32h7xx_hal_sram.c ****   __IO uint8_t *psramaddress = (uint8_t *)pAddress;
 396:Drivers/STM32H7xx_HAL_Driver/Src/stm32h7xx_hal_sram.c ****   uint8_t *psrcbuff = pSrcBuffer;
 397:Drivers/STM32H7xx_HAL_Driver/Src/stm32h7xx_hal_sram.c **** 
 398:Drivers/STM32H7xx_HAL_Driver/Src/stm32h7xx_hal_sram.c ****   /* Check the SRAM controller state */
 399:Drivers/STM32H7xx_HAL_Driver/Src/stm32h7xx_hal_sram.c ****   if (hsram->State == HAL_SRAM_STATE_READY)
 400:Drivers/STM32H7xx_HAL_Driver/Src/stm32h7xx_hal_sram.c ****   {
 401:Drivers/STM32H7xx_HAL_Driver/Src/stm32h7xx_hal_sram.c ****     /* Process Locked */
 402:Drivers/STM32H7xx_HAL_Driver/Src/stm32h7xx_hal_sram.c ****     __HAL_LOCK(hsram);
 403:Drivers/STM32H7xx_HAL_Driver/Src/stm32h7xx_hal_sram.c **** 
 404:Drivers/STM32H7xx_HAL_Driver/Src/stm32h7xx_hal_sram.c ****     /* Update the SRAM controller state */
 405:Drivers/STM32H7xx_HAL_Driver/Src/stm32h7xx_hal_sram.c ****     hsram->State = HAL_SRAM_STATE_BUSY;
 406:Drivers/STM32H7xx_HAL_Driver/Src/stm32h7xx_hal_sram.c **** 
 407:Drivers/STM32H7xx_HAL_Driver/Src/stm32h7xx_hal_sram.c ****     /* Write data to memory */
 408:Drivers/STM32H7xx_HAL_Driver/Src/stm32h7xx_hal_sram.c ****     for (size = BufferSize; size != 0U; size--)
 409:Drivers/STM32H7xx_HAL_Driver/Src/stm32h7xx_hal_sram.c ****     {
 410:Drivers/STM32H7xx_HAL_Driver/Src/stm32h7xx_hal_sram.c ****       *psramaddress = *psrcbuff;
 411:Drivers/STM32H7xx_HAL_Driver/Src/stm32h7xx_hal_sram.c ****       psrcbuff++;
 412:Drivers/STM32H7xx_HAL_Driver/Src/stm32h7xx_hal_sram.c ****       psramaddress++;
 413:Drivers/STM32H7xx_HAL_Driver/Src/stm32h7xx_hal_sram.c ****     }
 414:Drivers/STM32H7xx_HAL_Driver/Src/stm32h7xx_hal_sram.c **** 
ARM GAS  C:\usertemp\cccKQ01c.s 			page 13


 415:Drivers/STM32H7xx_HAL_Driver/Src/stm32h7xx_hal_sram.c ****     /* Update the SRAM controller state */
 416:Drivers/STM32H7xx_HAL_Driver/Src/stm32h7xx_hal_sram.c ****     hsram->State = HAL_SRAM_STATE_READY;
 417:Drivers/STM32H7xx_HAL_Driver/Src/stm32h7xx_hal_sram.c **** 
 418:Drivers/STM32H7xx_HAL_Driver/Src/stm32h7xx_hal_sram.c ****     /* Process unlocked */
 419:Drivers/STM32H7xx_HAL_Driver/Src/stm32h7xx_hal_sram.c ****     __HAL_UNLOCK(hsram);
 420:Drivers/STM32H7xx_HAL_Driver/Src/stm32h7xx_hal_sram.c ****   }
 421:Drivers/STM32H7xx_HAL_Driver/Src/stm32h7xx_hal_sram.c ****   else
 422:Drivers/STM32H7xx_HAL_Driver/Src/stm32h7xx_hal_sram.c ****   {
 423:Drivers/STM32H7xx_HAL_Driver/Src/stm32h7xx_hal_sram.c ****     return HAL_ERROR;
 424:Drivers/STM32H7xx_HAL_Driver/Src/stm32h7xx_hal_sram.c ****   }
 425:Drivers/STM32H7xx_HAL_Driver/Src/stm32h7xx_hal_sram.c **** 
 426:Drivers/STM32H7xx_HAL_Driver/Src/stm32h7xx_hal_sram.c ****   return HAL_OK;
 427:Drivers/STM32H7xx_HAL_Driver/Src/stm32h7xx_hal_sram.c **** }
 428:Drivers/STM32H7xx_HAL_Driver/Src/stm32h7xx_hal_sram.c **** 
 429:Drivers/STM32H7xx_HAL_Driver/Src/stm32h7xx_hal_sram.c **** /**
 430:Drivers/STM32H7xx_HAL_Driver/Src/stm32h7xx_hal_sram.c ****   * @brief  Reads 16-bit buffer from SRAM memory.
 431:Drivers/STM32H7xx_HAL_Driver/Src/stm32h7xx_hal_sram.c ****   * @param  hsram pointer to a SRAM_HandleTypeDef structure that contains
 432:Drivers/STM32H7xx_HAL_Driver/Src/stm32h7xx_hal_sram.c ****   *                the configuration information for SRAM module.
 433:Drivers/STM32H7xx_HAL_Driver/Src/stm32h7xx_hal_sram.c ****   * @param  pAddress Pointer to read start address
 434:Drivers/STM32H7xx_HAL_Driver/Src/stm32h7xx_hal_sram.c ****   * @param  pDstBuffer Pointer to destination buffer
 435:Drivers/STM32H7xx_HAL_Driver/Src/stm32h7xx_hal_sram.c ****   * @param  BufferSize Size of the buffer to read from memory
 436:Drivers/STM32H7xx_HAL_Driver/Src/stm32h7xx_hal_sram.c ****   * @retval HAL status
 437:Drivers/STM32H7xx_HAL_Driver/Src/stm32h7xx_hal_sram.c ****   */
 438:Drivers/STM32H7xx_HAL_Driver/Src/stm32h7xx_hal_sram.c **** HAL_StatusTypeDef HAL_SRAM_Read_16b(SRAM_HandleTypeDef *hsram, uint32_t *pAddress, uint16_t *pDstBu
 439:Drivers/STM32H7xx_HAL_Driver/Src/stm32h7xx_hal_sram.c ****                                     uint32_t BufferSize)
 440:Drivers/STM32H7xx_HAL_Driver/Src/stm32h7xx_hal_sram.c **** {
 441:Drivers/STM32H7xx_HAL_Driver/Src/stm32h7xx_hal_sram.c ****   uint32_t size;
 442:Drivers/STM32H7xx_HAL_Driver/Src/stm32h7xx_hal_sram.c ****   __IO uint32_t *psramaddress = pAddress;
 443:Drivers/STM32H7xx_HAL_Driver/Src/stm32h7xx_hal_sram.c ****   uint16_t *pdestbuff = pDstBuffer;
 444:Drivers/STM32H7xx_HAL_Driver/Src/stm32h7xx_hal_sram.c ****   uint8_t limit;
 445:Drivers/STM32H7xx_HAL_Driver/Src/stm32h7xx_hal_sram.c ****   HAL_SRAM_StateTypeDef state = hsram->State;
 446:Drivers/STM32H7xx_HAL_Driver/Src/stm32h7xx_hal_sram.c **** 
 447:Drivers/STM32H7xx_HAL_Driver/Src/stm32h7xx_hal_sram.c ****   /* Check the SRAM controller state */
 448:Drivers/STM32H7xx_HAL_Driver/Src/stm32h7xx_hal_sram.c ****   if ((state == HAL_SRAM_STATE_READY) || (state == HAL_SRAM_STATE_PROTECTED))
 449:Drivers/STM32H7xx_HAL_Driver/Src/stm32h7xx_hal_sram.c ****   {
 450:Drivers/STM32H7xx_HAL_Driver/Src/stm32h7xx_hal_sram.c ****     /* Process Locked */
 451:Drivers/STM32H7xx_HAL_Driver/Src/stm32h7xx_hal_sram.c ****     __HAL_LOCK(hsram);
 452:Drivers/STM32H7xx_HAL_Driver/Src/stm32h7xx_hal_sram.c **** 
 453:Drivers/STM32H7xx_HAL_Driver/Src/stm32h7xx_hal_sram.c ****     /* Update the SRAM controller state */
 454:Drivers/STM32H7xx_HAL_Driver/Src/stm32h7xx_hal_sram.c ****     hsram->State = HAL_SRAM_STATE_BUSY;
 455:Drivers/STM32H7xx_HAL_Driver/Src/stm32h7xx_hal_sram.c **** 
 456:Drivers/STM32H7xx_HAL_Driver/Src/stm32h7xx_hal_sram.c ****     /* Check if the size is a 32-bits multiple */
 457:Drivers/STM32H7xx_HAL_Driver/Src/stm32h7xx_hal_sram.c ****     limit = (((BufferSize % 2U) != 0U) ? 1U : 0U);
 458:Drivers/STM32H7xx_HAL_Driver/Src/stm32h7xx_hal_sram.c **** 
 459:Drivers/STM32H7xx_HAL_Driver/Src/stm32h7xx_hal_sram.c ****     /* Read data from memory */
 460:Drivers/STM32H7xx_HAL_Driver/Src/stm32h7xx_hal_sram.c ****     for (size = BufferSize; size != limit; size -= 2U)
 461:Drivers/STM32H7xx_HAL_Driver/Src/stm32h7xx_hal_sram.c ****     {
 462:Drivers/STM32H7xx_HAL_Driver/Src/stm32h7xx_hal_sram.c ****       *pdestbuff = (uint16_t)((*psramaddress) & 0x0000FFFFU);
 463:Drivers/STM32H7xx_HAL_Driver/Src/stm32h7xx_hal_sram.c ****       pdestbuff++;
 464:Drivers/STM32H7xx_HAL_Driver/Src/stm32h7xx_hal_sram.c ****       *pdestbuff = (uint16_t)(((*psramaddress) & 0xFFFF0000U) >> 16U);
 465:Drivers/STM32H7xx_HAL_Driver/Src/stm32h7xx_hal_sram.c ****       pdestbuff++;
 466:Drivers/STM32H7xx_HAL_Driver/Src/stm32h7xx_hal_sram.c ****       psramaddress++;
 467:Drivers/STM32H7xx_HAL_Driver/Src/stm32h7xx_hal_sram.c ****     }
 468:Drivers/STM32H7xx_HAL_Driver/Src/stm32h7xx_hal_sram.c **** 
 469:Drivers/STM32H7xx_HAL_Driver/Src/stm32h7xx_hal_sram.c ****     /* Read last 16-bits if size is not 32-bits multiple */
 470:Drivers/STM32H7xx_HAL_Driver/Src/stm32h7xx_hal_sram.c ****     if (limit != 0U)
 471:Drivers/STM32H7xx_HAL_Driver/Src/stm32h7xx_hal_sram.c ****     {
ARM GAS  C:\usertemp\cccKQ01c.s 			page 14


 472:Drivers/STM32H7xx_HAL_Driver/Src/stm32h7xx_hal_sram.c ****       *pdestbuff = (uint16_t)((*psramaddress) & 0x0000FFFFU);
 473:Drivers/STM32H7xx_HAL_Driver/Src/stm32h7xx_hal_sram.c ****     }
 474:Drivers/STM32H7xx_HAL_Driver/Src/stm32h7xx_hal_sram.c **** 
 475:Drivers/STM32H7xx_HAL_Driver/Src/stm32h7xx_hal_sram.c ****     /* Update the SRAM controller state */
 476:Drivers/STM32H7xx_HAL_Driver/Src/stm32h7xx_hal_sram.c ****     hsram->State = state;
 477:Drivers/STM32H7xx_HAL_Driver/Src/stm32h7xx_hal_sram.c **** 
 478:Drivers/STM32H7xx_HAL_Driver/Src/stm32h7xx_hal_sram.c ****     /* Process unlocked */
 479:Drivers/STM32H7xx_HAL_Driver/Src/stm32h7xx_hal_sram.c ****     __HAL_UNLOCK(hsram);
 480:Drivers/STM32H7xx_HAL_Driver/Src/stm32h7xx_hal_sram.c ****   }
 481:Drivers/STM32H7xx_HAL_Driver/Src/stm32h7xx_hal_sram.c ****   else
 482:Drivers/STM32H7xx_HAL_Driver/Src/stm32h7xx_hal_sram.c ****   {
 483:Drivers/STM32H7xx_HAL_Driver/Src/stm32h7xx_hal_sram.c ****     return HAL_ERROR;
 484:Drivers/STM32H7xx_HAL_Driver/Src/stm32h7xx_hal_sram.c ****   }
 485:Drivers/STM32H7xx_HAL_Driver/Src/stm32h7xx_hal_sram.c **** 
 486:Drivers/STM32H7xx_HAL_Driver/Src/stm32h7xx_hal_sram.c ****   return HAL_OK;
 487:Drivers/STM32H7xx_HAL_Driver/Src/stm32h7xx_hal_sram.c **** }
 488:Drivers/STM32H7xx_HAL_Driver/Src/stm32h7xx_hal_sram.c **** 
 489:Drivers/STM32H7xx_HAL_Driver/Src/stm32h7xx_hal_sram.c **** /**
 490:Drivers/STM32H7xx_HAL_Driver/Src/stm32h7xx_hal_sram.c ****   * @brief  Writes 16-bit buffer to SRAM memory.
 491:Drivers/STM32H7xx_HAL_Driver/Src/stm32h7xx_hal_sram.c ****   * @param  hsram pointer to a SRAM_HandleTypeDef structure that contains
 492:Drivers/STM32H7xx_HAL_Driver/Src/stm32h7xx_hal_sram.c ****   *                the configuration information for SRAM module.
 493:Drivers/STM32H7xx_HAL_Driver/Src/stm32h7xx_hal_sram.c ****   * @param  pAddress Pointer to write start address
 494:Drivers/STM32H7xx_HAL_Driver/Src/stm32h7xx_hal_sram.c ****   * @param  pSrcBuffer Pointer to source buffer to write
 495:Drivers/STM32H7xx_HAL_Driver/Src/stm32h7xx_hal_sram.c ****   * @param  BufferSize Size of the buffer to write to memory
 496:Drivers/STM32H7xx_HAL_Driver/Src/stm32h7xx_hal_sram.c ****   * @retval HAL status
 497:Drivers/STM32H7xx_HAL_Driver/Src/stm32h7xx_hal_sram.c ****   */
 498:Drivers/STM32H7xx_HAL_Driver/Src/stm32h7xx_hal_sram.c **** HAL_StatusTypeDef HAL_SRAM_Write_16b(SRAM_HandleTypeDef *hsram, uint32_t *pAddress, uint16_t *pSrcB
 499:Drivers/STM32H7xx_HAL_Driver/Src/stm32h7xx_hal_sram.c ****                                      uint32_t BufferSize)
 500:Drivers/STM32H7xx_HAL_Driver/Src/stm32h7xx_hal_sram.c **** {
 501:Drivers/STM32H7xx_HAL_Driver/Src/stm32h7xx_hal_sram.c ****   uint32_t size;
 502:Drivers/STM32H7xx_HAL_Driver/Src/stm32h7xx_hal_sram.c ****   __IO uint32_t *psramaddress = pAddress;
 503:Drivers/STM32H7xx_HAL_Driver/Src/stm32h7xx_hal_sram.c ****   uint16_t *psrcbuff = pSrcBuffer;
 504:Drivers/STM32H7xx_HAL_Driver/Src/stm32h7xx_hal_sram.c ****   uint8_t limit;
 505:Drivers/STM32H7xx_HAL_Driver/Src/stm32h7xx_hal_sram.c **** 
 506:Drivers/STM32H7xx_HAL_Driver/Src/stm32h7xx_hal_sram.c ****   /* Check the SRAM controller state */
 507:Drivers/STM32H7xx_HAL_Driver/Src/stm32h7xx_hal_sram.c ****   if (hsram->State == HAL_SRAM_STATE_READY)
 508:Drivers/STM32H7xx_HAL_Driver/Src/stm32h7xx_hal_sram.c ****   {
 509:Drivers/STM32H7xx_HAL_Driver/Src/stm32h7xx_hal_sram.c ****     /* Process Locked */
 510:Drivers/STM32H7xx_HAL_Driver/Src/stm32h7xx_hal_sram.c ****     __HAL_LOCK(hsram);
 511:Drivers/STM32H7xx_HAL_Driver/Src/stm32h7xx_hal_sram.c **** 
 512:Drivers/STM32H7xx_HAL_Driver/Src/stm32h7xx_hal_sram.c ****     /* Update the SRAM controller state */
 513:Drivers/STM32H7xx_HAL_Driver/Src/stm32h7xx_hal_sram.c ****     hsram->State = HAL_SRAM_STATE_BUSY;
 514:Drivers/STM32H7xx_HAL_Driver/Src/stm32h7xx_hal_sram.c **** 
 515:Drivers/STM32H7xx_HAL_Driver/Src/stm32h7xx_hal_sram.c ****     /* Check if the size is a 32-bits multiple */
 516:Drivers/STM32H7xx_HAL_Driver/Src/stm32h7xx_hal_sram.c ****     limit = (((BufferSize % 2U) != 0U) ? 1U : 0U);
 517:Drivers/STM32H7xx_HAL_Driver/Src/stm32h7xx_hal_sram.c **** 
 518:Drivers/STM32H7xx_HAL_Driver/Src/stm32h7xx_hal_sram.c ****     /* Write data to memory */
 519:Drivers/STM32H7xx_HAL_Driver/Src/stm32h7xx_hal_sram.c ****     for (size = BufferSize; size != limit; size -= 2U)
 520:Drivers/STM32H7xx_HAL_Driver/Src/stm32h7xx_hal_sram.c ****     {
 521:Drivers/STM32H7xx_HAL_Driver/Src/stm32h7xx_hal_sram.c ****       *psramaddress = (uint32_t)(*psrcbuff);
 522:Drivers/STM32H7xx_HAL_Driver/Src/stm32h7xx_hal_sram.c ****       psrcbuff++;
 523:Drivers/STM32H7xx_HAL_Driver/Src/stm32h7xx_hal_sram.c ****       *psramaddress |= ((uint32_t)(*psrcbuff) << 16U);
 524:Drivers/STM32H7xx_HAL_Driver/Src/stm32h7xx_hal_sram.c ****       psrcbuff++;
 525:Drivers/STM32H7xx_HAL_Driver/Src/stm32h7xx_hal_sram.c ****       psramaddress++;
 526:Drivers/STM32H7xx_HAL_Driver/Src/stm32h7xx_hal_sram.c ****     }
 527:Drivers/STM32H7xx_HAL_Driver/Src/stm32h7xx_hal_sram.c **** 
 528:Drivers/STM32H7xx_HAL_Driver/Src/stm32h7xx_hal_sram.c ****     /* Write last 16-bits if size is not 32-bits multiple */
ARM GAS  C:\usertemp\cccKQ01c.s 			page 15


 529:Drivers/STM32H7xx_HAL_Driver/Src/stm32h7xx_hal_sram.c ****     if (limit != 0U)
 530:Drivers/STM32H7xx_HAL_Driver/Src/stm32h7xx_hal_sram.c ****     {
 531:Drivers/STM32H7xx_HAL_Driver/Src/stm32h7xx_hal_sram.c ****       *psramaddress = ((uint32_t)(*psrcbuff) & 0x0000FFFFU) | ((*psramaddress) & 0xFFFF0000U);
 532:Drivers/STM32H7xx_HAL_Driver/Src/stm32h7xx_hal_sram.c ****     }
 533:Drivers/STM32H7xx_HAL_Driver/Src/stm32h7xx_hal_sram.c **** 
 534:Drivers/STM32H7xx_HAL_Driver/Src/stm32h7xx_hal_sram.c ****     /* Update the SRAM controller state */
 535:Drivers/STM32H7xx_HAL_Driver/Src/stm32h7xx_hal_sram.c ****     hsram->State = HAL_SRAM_STATE_READY;
 536:Drivers/STM32H7xx_HAL_Driver/Src/stm32h7xx_hal_sram.c **** 
 537:Drivers/STM32H7xx_HAL_Driver/Src/stm32h7xx_hal_sram.c ****     /* Process unlocked */
 538:Drivers/STM32H7xx_HAL_Driver/Src/stm32h7xx_hal_sram.c ****     __HAL_UNLOCK(hsram);
 539:Drivers/STM32H7xx_HAL_Driver/Src/stm32h7xx_hal_sram.c ****   }
 540:Drivers/STM32H7xx_HAL_Driver/Src/stm32h7xx_hal_sram.c ****   else
 541:Drivers/STM32H7xx_HAL_Driver/Src/stm32h7xx_hal_sram.c ****   {
 542:Drivers/STM32H7xx_HAL_Driver/Src/stm32h7xx_hal_sram.c ****     return HAL_ERROR;
 543:Drivers/STM32H7xx_HAL_Driver/Src/stm32h7xx_hal_sram.c ****   }
 544:Drivers/STM32H7xx_HAL_Driver/Src/stm32h7xx_hal_sram.c **** 
 545:Drivers/STM32H7xx_HAL_Driver/Src/stm32h7xx_hal_sram.c ****   return HAL_OK;
 546:Drivers/STM32H7xx_HAL_Driver/Src/stm32h7xx_hal_sram.c **** }
 547:Drivers/STM32H7xx_HAL_Driver/Src/stm32h7xx_hal_sram.c **** 
 548:Drivers/STM32H7xx_HAL_Driver/Src/stm32h7xx_hal_sram.c **** /**
 549:Drivers/STM32H7xx_HAL_Driver/Src/stm32h7xx_hal_sram.c ****   * @brief  Reads 32-bit buffer from SRAM memory.
 550:Drivers/STM32H7xx_HAL_Driver/Src/stm32h7xx_hal_sram.c ****   * @param  hsram pointer to a SRAM_HandleTypeDef structure that contains
 551:Drivers/STM32H7xx_HAL_Driver/Src/stm32h7xx_hal_sram.c ****   *                the configuration information for SRAM module.
 552:Drivers/STM32H7xx_HAL_Driver/Src/stm32h7xx_hal_sram.c ****   * @param  pAddress Pointer to read start address
 553:Drivers/STM32H7xx_HAL_Driver/Src/stm32h7xx_hal_sram.c ****   * @param  pDstBuffer Pointer to destination buffer
 554:Drivers/STM32H7xx_HAL_Driver/Src/stm32h7xx_hal_sram.c ****   * @param  BufferSize Size of the buffer to read from memory
 555:Drivers/STM32H7xx_HAL_Driver/Src/stm32h7xx_hal_sram.c ****   * @retval HAL status
 556:Drivers/STM32H7xx_HAL_Driver/Src/stm32h7xx_hal_sram.c ****   */
 557:Drivers/STM32H7xx_HAL_Driver/Src/stm32h7xx_hal_sram.c **** HAL_StatusTypeDef HAL_SRAM_Read_32b(SRAM_HandleTypeDef *hsram, uint32_t *pAddress, uint32_t *pDstBu
 558:Drivers/STM32H7xx_HAL_Driver/Src/stm32h7xx_hal_sram.c ****                                     uint32_t BufferSize)
 559:Drivers/STM32H7xx_HAL_Driver/Src/stm32h7xx_hal_sram.c **** {
 560:Drivers/STM32H7xx_HAL_Driver/Src/stm32h7xx_hal_sram.c ****   uint32_t size;
 561:Drivers/STM32H7xx_HAL_Driver/Src/stm32h7xx_hal_sram.c ****   __IO uint32_t *psramaddress = pAddress;
 562:Drivers/STM32H7xx_HAL_Driver/Src/stm32h7xx_hal_sram.c ****   uint32_t *pdestbuff = pDstBuffer;
 563:Drivers/STM32H7xx_HAL_Driver/Src/stm32h7xx_hal_sram.c ****   HAL_SRAM_StateTypeDef state = hsram->State;
 564:Drivers/STM32H7xx_HAL_Driver/Src/stm32h7xx_hal_sram.c **** 
 565:Drivers/STM32H7xx_HAL_Driver/Src/stm32h7xx_hal_sram.c ****   /* Check the SRAM controller state */
 566:Drivers/STM32H7xx_HAL_Driver/Src/stm32h7xx_hal_sram.c ****   if ((state == HAL_SRAM_STATE_READY) || (state == HAL_SRAM_STATE_PROTECTED))
 567:Drivers/STM32H7xx_HAL_Driver/Src/stm32h7xx_hal_sram.c ****   {
 568:Drivers/STM32H7xx_HAL_Driver/Src/stm32h7xx_hal_sram.c ****     /* Process Locked */
 569:Drivers/STM32H7xx_HAL_Driver/Src/stm32h7xx_hal_sram.c ****     __HAL_LOCK(hsram);
 570:Drivers/STM32H7xx_HAL_Driver/Src/stm32h7xx_hal_sram.c **** 
 571:Drivers/STM32H7xx_HAL_Driver/Src/stm32h7xx_hal_sram.c ****     /* Update the SRAM controller state */
 572:Drivers/STM32H7xx_HAL_Driver/Src/stm32h7xx_hal_sram.c ****     hsram->State = HAL_SRAM_STATE_BUSY;
 573:Drivers/STM32H7xx_HAL_Driver/Src/stm32h7xx_hal_sram.c **** 
 574:Drivers/STM32H7xx_HAL_Driver/Src/stm32h7xx_hal_sram.c ****     /* Read data from memory */
 575:Drivers/STM32H7xx_HAL_Driver/Src/stm32h7xx_hal_sram.c ****     for (size = BufferSize; size != 0U; size--)
 576:Drivers/STM32H7xx_HAL_Driver/Src/stm32h7xx_hal_sram.c ****     {
 577:Drivers/STM32H7xx_HAL_Driver/Src/stm32h7xx_hal_sram.c ****       *pdestbuff = *psramaddress;
 578:Drivers/STM32H7xx_HAL_Driver/Src/stm32h7xx_hal_sram.c ****       pdestbuff++;
 579:Drivers/STM32H7xx_HAL_Driver/Src/stm32h7xx_hal_sram.c ****       psramaddress++;
 580:Drivers/STM32H7xx_HAL_Driver/Src/stm32h7xx_hal_sram.c ****     }
 581:Drivers/STM32H7xx_HAL_Driver/Src/stm32h7xx_hal_sram.c **** 
 582:Drivers/STM32H7xx_HAL_Driver/Src/stm32h7xx_hal_sram.c ****     /* Update the SRAM controller state */
 583:Drivers/STM32H7xx_HAL_Driver/Src/stm32h7xx_hal_sram.c ****     hsram->State = state;
 584:Drivers/STM32H7xx_HAL_Driver/Src/stm32h7xx_hal_sram.c **** 
 585:Drivers/STM32H7xx_HAL_Driver/Src/stm32h7xx_hal_sram.c ****     /* Process unlocked */
ARM GAS  C:\usertemp\cccKQ01c.s 			page 16


 586:Drivers/STM32H7xx_HAL_Driver/Src/stm32h7xx_hal_sram.c ****     __HAL_UNLOCK(hsram);
 587:Drivers/STM32H7xx_HAL_Driver/Src/stm32h7xx_hal_sram.c ****   }
 588:Drivers/STM32H7xx_HAL_Driver/Src/stm32h7xx_hal_sram.c ****   else
 589:Drivers/STM32H7xx_HAL_Driver/Src/stm32h7xx_hal_sram.c ****   {
 590:Drivers/STM32H7xx_HAL_Driver/Src/stm32h7xx_hal_sram.c ****     return HAL_ERROR;
 591:Drivers/STM32H7xx_HAL_Driver/Src/stm32h7xx_hal_sram.c ****   }
 592:Drivers/STM32H7xx_HAL_Driver/Src/stm32h7xx_hal_sram.c **** 
 593:Drivers/STM32H7xx_HAL_Driver/Src/stm32h7xx_hal_sram.c ****   return HAL_OK;
 594:Drivers/STM32H7xx_HAL_Driver/Src/stm32h7xx_hal_sram.c **** }
 595:Drivers/STM32H7xx_HAL_Driver/Src/stm32h7xx_hal_sram.c **** 
 596:Drivers/STM32H7xx_HAL_Driver/Src/stm32h7xx_hal_sram.c **** /**
 597:Drivers/STM32H7xx_HAL_Driver/Src/stm32h7xx_hal_sram.c ****   * @brief  Writes 32-bit buffer to SRAM memory.
 598:Drivers/STM32H7xx_HAL_Driver/Src/stm32h7xx_hal_sram.c ****   * @param  hsram pointer to a SRAM_HandleTypeDef structure that contains
 599:Drivers/STM32H7xx_HAL_Driver/Src/stm32h7xx_hal_sram.c ****   *                the configuration information for SRAM module.
 600:Drivers/STM32H7xx_HAL_Driver/Src/stm32h7xx_hal_sram.c ****   * @param  pAddress Pointer to write start address
 601:Drivers/STM32H7xx_HAL_Driver/Src/stm32h7xx_hal_sram.c ****   * @param  pSrcBuffer Pointer to source buffer to write
 602:Drivers/STM32H7xx_HAL_Driver/Src/stm32h7xx_hal_sram.c ****   * @param  BufferSize Size of the buffer to write to memory
 603:Drivers/STM32H7xx_HAL_Driver/Src/stm32h7xx_hal_sram.c ****   * @retval HAL status
 604:Drivers/STM32H7xx_HAL_Driver/Src/stm32h7xx_hal_sram.c ****   */
 605:Drivers/STM32H7xx_HAL_Driver/Src/stm32h7xx_hal_sram.c **** HAL_StatusTypeDef HAL_SRAM_Write_32b(SRAM_HandleTypeDef *hsram, uint32_t *pAddress, uint32_t *pSrcB
 606:Drivers/STM32H7xx_HAL_Driver/Src/stm32h7xx_hal_sram.c ****                                      uint32_t BufferSize)
 607:Drivers/STM32H7xx_HAL_Driver/Src/stm32h7xx_hal_sram.c **** {
 608:Drivers/STM32H7xx_HAL_Driver/Src/stm32h7xx_hal_sram.c ****   uint32_t size;
 609:Drivers/STM32H7xx_HAL_Driver/Src/stm32h7xx_hal_sram.c ****   __IO uint32_t *psramaddress = pAddress;
 610:Drivers/STM32H7xx_HAL_Driver/Src/stm32h7xx_hal_sram.c ****   uint32_t *psrcbuff = pSrcBuffer;
 611:Drivers/STM32H7xx_HAL_Driver/Src/stm32h7xx_hal_sram.c **** 
 612:Drivers/STM32H7xx_HAL_Driver/Src/stm32h7xx_hal_sram.c ****   /* Check the SRAM controller state */
 613:Drivers/STM32H7xx_HAL_Driver/Src/stm32h7xx_hal_sram.c ****   if (hsram->State == HAL_SRAM_STATE_READY)
 614:Drivers/STM32H7xx_HAL_Driver/Src/stm32h7xx_hal_sram.c ****   {
 615:Drivers/STM32H7xx_HAL_Driver/Src/stm32h7xx_hal_sram.c ****     /* Process Locked */
 616:Drivers/STM32H7xx_HAL_Driver/Src/stm32h7xx_hal_sram.c ****     __HAL_LOCK(hsram);
 617:Drivers/STM32H7xx_HAL_Driver/Src/stm32h7xx_hal_sram.c **** 
 618:Drivers/STM32H7xx_HAL_Driver/Src/stm32h7xx_hal_sram.c ****     /* Update the SRAM controller state */
 619:Drivers/STM32H7xx_HAL_Driver/Src/stm32h7xx_hal_sram.c ****     hsram->State = HAL_SRAM_STATE_BUSY;
 620:Drivers/STM32H7xx_HAL_Driver/Src/stm32h7xx_hal_sram.c **** 
 621:Drivers/STM32H7xx_HAL_Driver/Src/stm32h7xx_hal_sram.c ****     /* Write data to memory */
 622:Drivers/STM32H7xx_HAL_Driver/Src/stm32h7xx_hal_sram.c ****     for (size = BufferSize; size != 0U; size--)
 623:Drivers/STM32H7xx_HAL_Driver/Src/stm32h7xx_hal_sram.c ****     {
 624:Drivers/STM32H7xx_HAL_Driver/Src/stm32h7xx_hal_sram.c ****       *psramaddress = *psrcbuff;
 625:Drivers/STM32H7xx_HAL_Driver/Src/stm32h7xx_hal_sram.c ****       psrcbuff++;
 626:Drivers/STM32H7xx_HAL_Driver/Src/stm32h7xx_hal_sram.c ****       psramaddress++;
 627:Drivers/STM32H7xx_HAL_Driver/Src/stm32h7xx_hal_sram.c ****     }
 628:Drivers/STM32H7xx_HAL_Driver/Src/stm32h7xx_hal_sram.c **** 
 629:Drivers/STM32H7xx_HAL_Driver/Src/stm32h7xx_hal_sram.c ****     /* Update the SRAM controller state */
 630:Drivers/STM32H7xx_HAL_Driver/Src/stm32h7xx_hal_sram.c ****     hsram->State = HAL_SRAM_STATE_READY;
 631:Drivers/STM32H7xx_HAL_Driver/Src/stm32h7xx_hal_sram.c **** 
 632:Drivers/STM32H7xx_HAL_Driver/Src/stm32h7xx_hal_sram.c ****     /* Process unlocked */
 633:Drivers/STM32H7xx_HAL_Driver/Src/stm32h7xx_hal_sram.c ****     __HAL_UNLOCK(hsram);
 634:Drivers/STM32H7xx_HAL_Driver/Src/stm32h7xx_hal_sram.c ****   }
 635:Drivers/STM32H7xx_HAL_Driver/Src/stm32h7xx_hal_sram.c ****   else
 636:Drivers/STM32H7xx_HAL_Driver/Src/stm32h7xx_hal_sram.c ****   {
 637:Drivers/STM32H7xx_HAL_Driver/Src/stm32h7xx_hal_sram.c ****     return HAL_ERROR;
 638:Drivers/STM32H7xx_HAL_Driver/Src/stm32h7xx_hal_sram.c ****   }
 639:Drivers/STM32H7xx_HAL_Driver/Src/stm32h7xx_hal_sram.c **** 
 640:Drivers/STM32H7xx_HAL_Driver/Src/stm32h7xx_hal_sram.c ****   return HAL_OK;
 641:Drivers/STM32H7xx_HAL_Driver/Src/stm32h7xx_hal_sram.c **** }
 642:Drivers/STM32H7xx_HAL_Driver/Src/stm32h7xx_hal_sram.c **** 
ARM GAS  C:\usertemp\cccKQ01c.s 			page 17


 643:Drivers/STM32H7xx_HAL_Driver/Src/stm32h7xx_hal_sram.c **** /**
 644:Drivers/STM32H7xx_HAL_Driver/Src/stm32h7xx_hal_sram.c ****   * @brief  Reads a Words data from the SRAM memory using DMA transfer.
 645:Drivers/STM32H7xx_HAL_Driver/Src/stm32h7xx_hal_sram.c ****   * @param  hsram pointer to a SRAM_HandleTypeDef structure that contains
 646:Drivers/STM32H7xx_HAL_Driver/Src/stm32h7xx_hal_sram.c ****   *                the configuration information for SRAM module.
 647:Drivers/STM32H7xx_HAL_Driver/Src/stm32h7xx_hal_sram.c ****   * @param  pAddress Pointer to read start address
 648:Drivers/STM32H7xx_HAL_Driver/Src/stm32h7xx_hal_sram.c ****   * @param  pDstBuffer Pointer to destination buffer
 649:Drivers/STM32H7xx_HAL_Driver/Src/stm32h7xx_hal_sram.c ****   * @param  BufferSize Size of the buffer to read from memory
 650:Drivers/STM32H7xx_HAL_Driver/Src/stm32h7xx_hal_sram.c ****   * @retval HAL status
 651:Drivers/STM32H7xx_HAL_Driver/Src/stm32h7xx_hal_sram.c ****   */
 652:Drivers/STM32H7xx_HAL_Driver/Src/stm32h7xx_hal_sram.c **** HAL_StatusTypeDef HAL_SRAM_Read_DMA(SRAM_HandleTypeDef *hsram, uint32_t *pAddress, uint32_t *pDstBu
 653:Drivers/STM32H7xx_HAL_Driver/Src/stm32h7xx_hal_sram.c ****                                     uint32_t BufferSize)
 654:Drivers/STM32H7xx_HAL_Driver/Src/stm32h7xx_hal_sram.c **** {
 655:Drivers/STM32H7xx_HAL_Driver/Src/stm32h7xx_hal_sram.c ****   HAL_StatusTypeDef status;
 656:Drivers/STM32H7xx_HAL_Driver/Src/stm32h7xx_hal_sram.c ****   HAL_SRAM_StateTypeDef state = hsram->State;
 657:Drivers/STM32H7xx_HAL_Driver/Src/stm32h7xx_hal_sram.c **** 
 658:Drivers/STM32H7xx_HAL_Driver/Src/stm32h7xx_hal_sram.c ****   /* Check the SRAM controller state */
 659:Drivers/STM32H7xx_HAL_Driver/Src/stm32h7xx_hal_sram.c ****   if ((state == HAL_SRAM_STATE_READY) || (state == HAL_SRAM_STATE_PROTECTED))
 660:Drivers/STM32H7xx_HAL_Driver/Src/stm32h7xx_hal_sram.c ****   {
 661:Drivers/STM32H7xx_HAL_Driver/Src/stm32h7xx_hal_sram.c ****     /* Process Locked */
 662:Drivers/STM32H7xx_HAL_Driver/Src/stm32h7xx_hal_sram.c ****     __HAL_LOCK(hsram);
 663:Drivers/STM32H7xx_HAL_Driver/Src/stm32h7xx_hal_sram.c **** 
 664:Drivers/STM32H7xx_HAL_Driver/Src/stm32h7xx_hal_sram.c ****     /* Update the SRAM controller state */
 665:Drivers/STM32H7xx_HAL_Driver/Src/stm32h7xx_hal_sram.c ****     hsram->State = HAL_SRAM_STATE_BUSY;
 666:Drivers/STM32H7xx_HAL_Driver/Src/stm32h7xx_hal_sram.c **** 
 667:Drivers/STM32H7xx_HAL_Driver/Src/stm32h7xx_hal_sram.c ****     /* Configure DMA user callbacks */
 668:Drivers/STM32H7xx_HAL_Driver/Src/stm32h7xx_hal_sram.c ****     if (state == HAL_SRAM_STATE_READY)
 669:Drivers/STM32H7xx_HAL_Driver/Src/stm32h7xx_hal_sram.c ****     {
 670:Drivers/STM32H7xx_HAL_Driver/Src/stm32h7xx_hal_sram.c ****       hsram->hmdma->XferCpltCallback = SRAM_DMACplt;
 671:Drivers/STM32H7xx_HAL_Driver/Src/stm32h7xx_hal_sram.c ****     }
 672:Drivers/STM32H7xx_HAL_Driver/Src/stm32h7xx_hal_sram.c ****     else
 673:Drivers/STM32H7xx_HAL_Driver/Src/stm32h7xx_hal_sram.c ****     {
 674:Drivers/STM32H7xx_HAL_Driver/Src/stm32h7xx_hal_sram.c ****       hsram->hmdma->XferCpltCallback = SRAM_DMACpltProt;
 675:Drivers/STM32H7xx_HAL_Driver/Src/stm32h7xx_hal_sram.c ****     }
 676:Drivers/STM32H7xx_HAL_Driver/Src/stm32h7xx_hal_sram.c ****     hsram->hmdma->XferErrorCallback = SRAM_DMAError;
 677:Drivers/STM32H7xx_HAL_Driver/Src/stm32h7xx_hal_sram.c **** 
 678:Drivers/STM32H7xx_HAL_Driver/Src/stm32h7xx_hal_sram.c ****     /* Enable the DMA Stream */
 679:Drivers/STM32H7xx_HAL_Driver/Src/stm32h7xx_hal_sram.c ****     status = HAL_MDMA_Start_IT(hsram->hmdma, (uint32_t)pAddress, (uint32_t)pDstBuffer, (uint32_t)(B
 680:Drivers/STM32H7xx_HAL_Driver/Src/stm32h7xx_hal_sram.c **** 
 681:Drivers/STM32H7xx_HAL_Driver/Src/stm32h7xx_hal_sram.c ****     /* Process unlocked */
 682:Drivers/STM32H7xx_HAL_Driver/Src/stm32h7xx_hal_sram.c ****     __HAL_UNLOCK(hsram);
 683:Drivers/STM32H7xx_HAL_Driver/Src/stm32h7xx_hal_sram.c ****   }
 684:Drivers/STM32H7xx_HAL_Driver/Src/stm32h7xx_hal_sram.c ****   else
 685:Drivers/STM32H7xx_HAL_Driver/Src/stm32h7xx_hal_sram.c ****   {
 686:Drivers/STM32H7xx_HAL_Driver/Src/stm32h7xx_hal_sram.c ****     status = HAL_ERROR;
 687:Drivers/STM32H7xx_HAL_Driver/Src/stm32h7xx_hal_sram.c ****   }
 688:Drivers/STM32H7xx_HAL_Driver/Src/stm32h7xx_hal_sram.c **** 
 689:Drivers/STM32H7xx_HAL_Driver/Src/stm32h7xx_hal_sram.c ****   return status;
 690:Drivers/STM32H7xx_HAL_Driver/Src/stm32h7xx_hal_sram.c **** }
 691:Drivers/STM32H7xx_HAL_Driver/Src/stm32h7xx_hal_sram.c **** 
 692:Drivers/STM32H7xx_HAL_Driver/Src/stm32h7xx_hal_sram.c **** /**
 693:Drivers/STM32H7xx_HAL_Driver/Src/stm32h7xx_hal_sram.c ****   * @brief  Writes a Words data buffer to SRAM memory using DMA transfer.
 694:Drivers/STM32H7xx_HAL_Driver/Src/stm32h7xx_hal_sram.c ****   * @param  hsram pointer to a SRAM_HandleTypeDef structure that contains
 695:Drivers/STM32H7xx_HAL_Driver/Src/stm32h7xx_hal_sram.c ****   *                the configuration information for SRAM module.
 696:Drivers/STM32H7xx_HAL_Driver/Src/stm32h7xx_hal_sram.c ****   * @param  pAddress Pointer to write start address
 697:Drivers/STM32H7xx_HAL_Driver/Src/stm32h7xx_hal_sram.c ****   * @param  pSrcBuffer Pointer to source buffer to write
 698:Drivers/STM32H7xx_HAL_Driver/Src/stm32h7xx_hal_sram.c ****   * @param  BufferSize Size of the buffer to write to memory
 699:Drivers/STM32H7xx_HAL_Driver/Src/stm32h7xx_hal_sram.c ****   * @retval HAL status
ARM GAS  C:\usertemp\cccKQ01c.s 			page 18


 700:Drivers/STM32H7xx_HAL_Driver/Src/stm32h7xx_hal_sram.c ****   */
 701:Drivers/STM32H7xx_HAL_Driver/Src/stm32h7xx_hal_sram.c **** HAL_StatusTypeDef HAL_SRAM_Write_DMA(SRAM_HandleTypeDef *hsram, uint32_t *pAddress, uint32_t *pSrcB
 702:Drivers/STM32H7xx_HAL_Driver/Src/stm32h7xx_hal_sram.c ****                                      uint32_t BufferSize)
 703:Drivers/STM32H7xx_HAL_Driver/Src/stm32h7xx_hal_sram.c **** {
 704:Drivers/STM32H7xx_HAL_Driver/Src/stm32h7xx_hal_sram.c ****   HAL_StatusTypeDef status;
 705:Drivers/STM32H7xx_HAL_Driver/Src/stm32h7xx_hal_sram.c **** 
 706:Drivers/STM32H7xx_HAL_Driver/Src/stm32h7xx_hal_sram.c ****   /* Check the SRAM controller state */
 707:Drivers/STM32H7xx_HAL_Driver/Src/stm32h7xx_hal_sram.c ****   if (hsram->State == HAL_SRAM_STATE_READY)
 708:Drivers/STM32H7xx_HAL_Driver/Src/stm32h7xx_hal_sram.c ****   {
 709:Drivers/STM32H7xx_HAL_Driver/Src/stm32h7xx_hal_sram.c ****     /* Process Locked */
 710:Drivers/STM32H7xx_HAL_Driver/Src/stm32h7xx_hal_sram.c ****     __HAL_LOCK(hsram);
 711:Drivers/STM32H7xx_HAL_Driver/Src/stm32h7xx_hal_sram.c **** 
 712:Drivers/STM32H7xx_HAL_Driver/Src/stm32h7xx_hal_sram.c ****     /* Update the SRAM controller state */
 713:Drivers/STM32H7xx_HAL_Driver/Src/stm32h7xx_hal_sram.c ****     hsram->State = HAL_SRAM_STATE_BUSY;
 714:Drivers/STM32H7xx_HAL_Driver/Src/stm32h7xx_hal_sram.c **** 
 715:Drivers/STM32H7xx_HAL_Driver/Src/stm32h7xx_hal_sram.c ****     /* Configure DMA user callbacks */
 716:Drivers/STM32H7xx_HAL_Driver/Src/stm32h7xx_hal_sram.c ****     hsram->hmdma->XferCpltCallback = SRAM_DMACplt;
 717:Drivers/STM32H7xx_HAL_Driver/Src/stm32h7xx_hal_sram.c ****     hsram->hmdma->XferErrorCallback = SRAM_DMAError;
 718:Drivers/STM32H7xx_HAL_Driver/Src/stm32h7xx_hal_sram.c **** 
 719:Drivers/STM32H7xx_HAL_Driver/Src/stm32h7xx_hal_sram.c ****     /* Enable the DMA Stream */
 720:Drivers/STM32H7xx_HAL_Driver/Src/stm32h7xx_hal_sram.c ****     status = HAL_MDMA_Start_IT(hsram->hmdma, (uint32_t)pSrcBuffer, (uint32_t)pAddress, (uint32_t)(B
 721:Drivers/STM32H7xx_HAL_Driver/Src/stm32h7xx_hal_sram.c **** 
 722:Drivers/STM32H7xx_HAL_Driver/Src/stm32h7xx_hal_sram.c ****     /* Process unlocked */
 723:Drivers/STM32H7xx_HAL_Driver/Src/stm32h7xx_hal_sram.c ****     __HAL_UNLOCK(hsram);
 724:Drivers/STM32H7xx_HAL_Driver/Src/stm32h7xx_hal_sram.c ****   }
 725:Drivers/STM32H7xx_HAL_Driver/Src/stm32h7xx_hal_sram.c ****   else
 726:Drivers/STM32H7xx_HAL_Driver/Src/stm32h7xx_hal_sram.c ****   {
 727:Drivers/STM32H7xx_HAL_Driver/Src/stm32h7xx_hal_sram.c ****     status = HAL_ERROR;
 728:Drivers/STM32H7xx_HAL_Driver/Src/stm32h7xx_hal_sram.c ****   }
 729:Drivers/STM32H7xx_HAL_Driver/Src/stm32h7xx_hal_sram.c **** 
 730:Drivers/STM32H7xx_HAL_Driver/Src/stm32h7xx_hal_sram.c ****   return status;
 731:Drivers/STM32H7xx_HAL_Driver/Src/stm32h7xx_hal_sram.c **** }
 732:Drivers/STM32H7xx_HAL_Driver/Src/stm32h7xx_hal_sram.c **** 
 733:Drivers/STM32H7xx_HAL_Driver/Src/stm32h7xx_hal_sram.c **** #if (USE_HAL_SRAM_REGISTER_CALLBACKS == 1)
 734:Drivers/STM32H7xx_HAL_Driver/Src/stm32h7xx_hal_sram.c **** /**
 735:Drivers/STM32H7xx_HAL_Driver/Src/stm32h7xx_hal_sram.c ****   * @brief  Register a User SRAM Callback
 736:Drivers/STM32H7xx_HAL_Driver/Src/stm32h7xx_hal_sram.c ****   *         To be used instead of the weak (surcharged) predefined callback
 737:Drivers/STM32H7xx_HAL_Driver/Src/stm32h7xx_hal_sram.c ****   * @param hsram : SRAM handle
 738:Drivers/STM32H7xx_HAL_Driver/Src/stm32h7xx_hal_sram.c ****   * @param CallbackId : ID of the callback to be registered
 739:Drivers/STM32H7xx_HAL_Driver/Src/stm32h7xx_hal_sram.c ****   *        This parameter can be one of the following values:
 740:Drivers/STM32H7xx_HAL_Driver/Src/stm32h7xx_hal_sram.c ****   *          @arg @ref HAL_SRAM_MSP_INIT_CB_ID       SRAM MspInit callback ID
 741:Drivers/STM32H7xx_HAL_Driver/Src/stm32h7xx_hal_sram.c ****   *          @arg @ref HAL_SRAM_MSP_DEINIT_CB_ID     SRAM MspDeInit callback ID
 742:Drivers/STM32H7xx_HAL_Driver/Src/stm32h7xx_hal_sram.c ****   * @param pCallback : pointer to the Callback function
 743:Drivers/STM32H7xx_HAL_Driver/Src/stm32h7xx_hal_sram.c ****   * @retval status
 744:Drivers/STM32H7xx_HAL_Driver/Src/stm32h7xx_hal_sram.c ****   */
 745:Drivers/STM32H7xx_HAL_Driver/Src/stm32h7xx_hal_sram.c **** HAL_StatusTypeDef HAL_SRAM_RegisterCallback(SRAM_HandleTypeDef *hsram, HAL_SRAM_CallbackIDTypeDef C
 746:Drivers/STM32H7xx_HAL_Driver/Src/stm32h7xx_hal_sram.c ****                                             pSRAM_CallbackTypeDef pCallback)
 747:Drivers/STM32H7xx_HAL_Driver/Src/stm32h7xx_hal_sram.c **** {
 748:Drivers/STM32H7xx_HAL_Driver/Src/stm32h7xx_hal_sram.c ****   HAL_StatusTypeDef status = HAL_OK;
 749:Drivers/STM32H7xx_HAL_Driver/Src/stm32h7xx_hal_sram.c ****   HAL_SRAM_StateTypeDef state;
 750:Drivers/STM32H7xx_HAL_Driver/Src/stm32h7xx_hal_sram.c **** 
 751:Drivers/STM32H7xx_HAL_Driver/Src/stm32h7xx_hal_sram.c ****   if (pCallback == NULL)
 752:Drivers/STM32H7xx_HAL_Driver/Src/stm32h7xx_hal_sram.c ****   {
 753:Drivers/STM32H7xx_HAL_Driver/Src/stm32h7xx_hal_sram.c ****     return HAL_ERROR;
 754:Drivers/STM32H7xx_HAL_Driver/Src/stm32h7xx_hal_sram.c ****   }
 755:Drivers/STM32H7xx_HAL_Driver/Src/stm32h7xx_hal_sram.c **** 
 756:Drivers/STM32H7xx_HAL_Driver/Src/stm32h7xx_hal_sram.c ****   /* Process locked */
ARM GAS  C:\usertemp\cccKQ01c.s 			page 19


 757:Drivers/STM32H7xx_HAL_Driver/Src/stm32h7xx_hal_sram.c ****   __HAL_LOCK(hsram);
 758:Drivers/STM32H7xx_HAL_Driver/Src/stm32h7xx_hal_sram.c **** 
 759:Drivers/STM32H7xx_HAL_Driver/Src/stm32h7xx_hal_sram.c ****   state = hsram->State;
 760:Drivers/STM32H7xx_HAL_Driver/Src/stm32h7xx_hal_sram.c ****   if ((state == HAL_SRAM_STATE_READY) || (state == HAL_SRAM_STATE_RESET) || (state == HAL_SRAM_STAT
 761:Drivers/STM32H7xx_HAL_Driver/Src/stm32h7xx_hal_sram.c ****   {
 762:Drivers/STM32H7xx_HAL_Driver/Src/stm32h7xx_hal_sram.c ****     switch (CallbackId)
 763:Drivers/STM32H7xx_HAL_Driver/Src/stm32h7xx_hal_sram.c ****     {
 764:Drivers/STM32H7xx_HAL_Driver/Src/stm32h7xx_hal_sram.c ****       case HAL_SRAM_MSP_INIT_CB_ID :
 765:Drivers/STM32H7xx_HAL_Driver/Src/stm32h7xx_hal_sram.c ****         hsram->MspInitCallback = pCallback;
 766:Drivers/STM32H7xx_HAL_Driver/Src/stm32h7xx_hal_sram.c ****         break;
 767:Drivers/STM32H7xx_HAL_Driver/Src/stm32h7xx_hal_sram.c ****       case HAL_SRAM_MSP_DEINIT_CB_ID :
 768:Drivers/STM32H7xx_HAL_Driver/Src/stm32h7xx_hal_sram.c ****         hsram->MspDeInitCallback = pCallback;
 769:Drivers/STM32H7xx_HAL_Driver/Src/stm32h7xx_hal_sram.c ****         break;
 770:Drivers/STM32H7xx_HAL_Driver/Src/stm32h7xx_hal_sram.c ****       default :
 771:Drivers/STM32H7xx_HAL_Driver/Src/stm32h7xx_hal_sram.c ****         /* update return status */
 772:Drivers/STM32H7xx_HAL_Driver/Src/stm32h7xx_hal_sram.c ****         status =  HAL_ERROR;
 773:Drivers/STM32H7xx_HAL_Driver/Src/stm32h7xx_hal_sram.c ****         break;
 774:Drivers/STM32H7xx_HAL_Driver/Src/stm32h7xx_hal_sram.c ****     }
 775:Drivers/STM32H7xx_HAL_Driver/Src/stm32h7xx_hal_sram.c ****   }
 776:Drivers/STM32H7xx_HAL_Driver/Src/stm32h7xx_hal_sram.c ****   else
 777:Drivers/STM32H7xx_HAL_Driver/Src/stm32h7xx_hal_sram.c ****   {
 778:Drivers/STM32H7xx_HAL_Driver/Src/stm32h7xx_hal_sram.c ****     /* update return status */
 779:Drivers/STM32H7xx_HAL_Driver/Src/stm32h7xx_hal_sram.c ****     status =  HAL_ERROR;
 780:Drivers/STM32H7xx_HAL_Driver/Src/stm32h7xx_hal_sram.c ****   }
 781:Drivers/STM32H7xx_HAL_Driver/Src/stm32h7xx_hal_sram.c **** 
 782:Drivers/STM32H7xx_HAL_Driver/Src/stm32h7xx_hal_sram.c ****   /* Release Lock */
 783:Drivers/STM32H7xx_HAL_Driver/Src/stm32h7xx_hal_sram.c ****   __HAL_UNLOCK(hsram);
 784:Drivers/STM32H7xx_HAL_Driver/Src/stm32h7xx_hal_sram.c ****   return status;
 785:Drivers/STM32H7xx_HAL_Driver/Src/stm32h7xx_hal_sram.c **** }
 786:Drivers/STM32H7xx_HAL_Driver/Src/stm32h7xx_hal_sram.c **** 
 787:Drivers/STM32H7xx_HAL_Driver/Src/stm32h7xx_hal_sram.c **** /**
 788:Drivers/STM32H7xx_HAL_Driver/Src/stm32h7xx_hal_sram.c ****   * @brief  Unregister a User SRAM Callback
 789:Drivers/STM32H7xx_HAL_Driver/Src/stm32h7xx_hal_sram.c ****   *         SRAM Callback is redirected to the weak (surcharged) predefined callback
 790:Drivers/STM32H7xx_HAL_Driver/Src/stm32h7xx_hal_sram.c ****   * @param hsram : SRAM handle
 791:Drivers/STM32H7xx_HAL_Driver/Src/stm32h7xx_hal_sram.c ****   * @param CallbackId : ID of the callback to be unregistered
 792:Drivers/STM32H7xx_HAL_Driver/Src/stm32h7xx_hal_sram.c ****   *        This parameter can be one of the following values:
 793:Drivers/STM32H7xx_HAL_Driver/Src/stm32h7xx_hal_sram.c ****   *          @arg @ref HAL_SRAM_MSP_INIT_CB_ID       SRAM MspInit callback ID
 794:Drivers/STM32H7xx_HAL_Driver/Src/stm32h7xx_hal_sram.c ****   *          @arg @ref HAL_SRAM_MSP_DEINIT_CB_ID     SRAM MspDeInit callback ID
 795:Drivers/STM32H7xx_HAL_Driver/Src/stm32h7xx_hal_sram.c ****   *          @arg @ref HAL_SRAM_DMA_XFER_CPLT_CB_ID  SRAM DMA Xfer Complete callback ID
 796:Drivers/STM32H7xx_HAL_Driver/Src/stm32h7xx_hal_sram.c ****   *          @arg @ref HAL_SRAM_DMA_XFER_ERR_CB_ID   SRAM DMA Xfer Error callback ID
 797:Drivers/STM32H7xx_HAL_Driver/Src/stm32h7xx_hal_sram.c ****   * @retval status
 798:Drivers/STM32H7xx_HAL_Driver/Src/stm32h7xx_hal_sram.c ****   */
 799:Drivers/STM32H7xx_HAL_Driver/Src/stm32h7xx_hal_sram.c **** HAL_StatusTypeDef HAL_SRAM_UnRegisterCallback(SRAM_HandleTypeDef *hsram, HAL_SRAM_CallbackIDTypeDef
 800:Drivers/STM32H7xx_HAL_Driver/Src/stm32h7xx_hal_sram.c **** {
 801:Drivers/STM32H7xx_HAL_Driver/Src/stm32h7xx_hal_sram.c ****   HAL_StatusTypeDef status = HAL_OK;
 802:Drivers/STM32H7xx_HAL_Driver/Src/stm32h7xx_hal_sram.c ****   HAL_SRAM_StateTypeDef state;
 803:Drivers/STM32H7xx_HAL_Driver/Src/stm32h7xx_hal_sram.c **** 
 804:Drivers/STM32H7xx_HAL_Driver/Src/stm32h7xx_hal_sram.c ****   /* Process locked */
 805:Drivers/STM32H7xx_HAL_Driver/Src/stm32h7xx_hal_sram.c ****   __HAL_LOCK(hsram);
 806:Drivers/STM32H7xx_HAL_Driver/Src/stm32h7xx_hal_sram.c **** 
 807:Drivers/STM32H7xx_HAL_Driver/Src/stm32h7xx_hal_sram.c ****   state = hsram->State;
 808:Drivers/STM32H7xx_HAL_Driver/Src/stm32h7xx_hal_sram.c ****   if ((state == HAL_SRAM_STATE_READY) || (state == HAL_SRAM_STATE_PROTECTED))
 809:Drivers/STM32H7xx_HAL_Driver/Src/stm32h7xx_hal_sram.c ****   {
 810:Drivers/STM32H7xx_HAL_Driver/Src/stm32h7xx_hal_sram.c ****     switch (CallbackId)
 811:Drivers/STM32H7xx_HAL_Driver/Src/stm32h7xx_hal_sram.c ****     {
 812:Drivers/STM32H7xx_HAL_Driver/Src/stm32h7xx_hal_sram.c ****       case HAL_SRAM_MSP_INIT_CB_ID :
 813:Drivers/STM32H7xx_HAL_Driver/Src/stm32h7xx_hal_sram.c ****         hsram->MspInitCallback = HAL_SRAM_MspInit;
ARM GAS  C:\usertemp\cccKQ01c.s 			page 20


 814:Drivers/STM32H7xx_HAL_Driver/Src/stm32h7xx_hal_sram.c ****         break;
 815:Drivers/STM32H7xx_HAL_Driver/Src/stm32h7xx_hal_sram.c ****       case HAL_SRAM_MSP_DEINIT_CB_ID :
 816:Drivers/STM32H7xx_HAL_Driver/Src/stm32h7xx_hal_sram.c ****         hsram->MspDeInitCallback = HAL_SRAM_MspDeInit;
 817:Drivers/STM32H7xx_HAL_Driver/Src/stm32h7xx_hal_sram.c ****         break;
 818:Drivers/STM32H7xx_HAL_Driver/Src/stm32h7xx_hal_sram.c ****       case HAL_SRAM_DMA_XFER_CPLT_CB_ID :
 819:Drivers/STM32H7xx_HAL_Driver/Src/stm32h7xx_hal_sram.c ****         hsram->DmaXferCpltCallback = HAL_SRAM_DMA_XferCpltCallback;
 820:Drivers/STM32H7xx_HAL_Driver/Src/stm32h7xx_hal_sram.c ****         break;
 821:Drivers/STM32H7xx_HAL_Driver/Src/stm32h7xx_hal_sram.c ****       case HAL_SRAM_DMA_XFER_ERR_CB_ID :
 822:Drivers/STM32H7xx_HAL_Driver/Src/stm32h7xx_hal_sram.c ****         hsram->DmaXferErrorCallback = HAL_SRAM_DMA_XferErrorCallback;
 823:Drivers/STM32H7xx_HAL_Driver/Src/stm32h7xx_hal_sram.c ****         break;
 824:Drivers/STM32H7xx_HAL_Driver/Src/stm32h7xx_hal_sram.c ****       default :
 825:Drivers/STM32H7xx_HAL_Driver/Src/stm32h7xx_hal_sram.c ****         /* update return status */
 826:Drivers/STM32H7xx_HAL_Driver/Src/stm32h7xx_hal_sram.c ****         status =  HAL_ERROR;
 827:Drivers/STM32H7xx_HAL_Driver/Src/stm32h7xx_hal_sram.c ****         break;
 828:Drivers/STM32H7xx_HAL_Driver/Src/stm32h7xx_hal_sram.c ****     }
 829:Drivers/STM32H7xx_HAL_Driver/Src/stm32h7xx_hal_sram.c ****   }
 830:Drivers/STM32H7xx_HAL_Driver/Src/stm32h7xx_hal_sram.c ****   else if (state == HAL_SRAM_STATE_RESET)
 831:Drivers/STM32H7xx_HAL_Driver/Src/stm32h7xx_hal_sram.c ****   {
 832:Drivers/STM32H7xx_HAL_Driver/Src/stm32h7xx_hal_sram.c ****     switch (CallbackId)
 833:Drivers/STM32H7xx_HAL_Driver/Src/stm32h7xx_hal_sram.c ****     {
 834:Drivers/STM32H7xx_HAL_Driver/Src/stm32h7xx_hal_sram.c ****       case HAL_SRAM_MSP_INIT_CB_ID :
 835:Drivers/STM32H7xx_HAL_Driver/Src/stm32h7xx_hal_sram.c ****         hsram->MspInitCallback = HAL_SRAM_MspInit;
 836:Drivers/STM32H7xx_HAL_Driver/Src/stm32h7xx_hal_sram.c ****         break;
 837:Drivers/STM32H7xx_HAL_Driver/Src/stm32h7xx_hal_sram.c ****       case HAL_SRAM_MSP_DEINIT_CB_ID :
 838:Drivers/STM32H7xx_HAL_Driver/Src/stm32h7xx_hal_sram.c ****         hsram->MspDeInitCallback = HAL_SRAM_MspDeInit;
 839:Drivers/STM32H7xx_HAL_Driver/Src/stm32h7xx_hal_sram.c ****         break;
 840:Drivers/STM32H7xx_HAL_Driver/Src/stm32h7xx_hal_sram.c ****       default :
 841:Drivers/STM32H7xx_HAL_Driver/Src/stm32h7xx_hal_sram.c ****         /* update return status */
 842:Drivers/STM32H7xx_HAL_Driver/Src/stm32h7xx_hal_sram.c ****         status =  HAL_ERROR;
 843:Drivers/STM32H7xx_HAL_Driver/Src/stm32h7xx_hal_sram.c ****         break;
 844:Drivers/STM32H7xx_HAL_Driver/Src/stm32h7xx_hal_sram.c ****     }
 845:Drivers/STM32H7xx_HAL_Driver/Src/stm32h7xx_hal_sram.c ****   }
 846:Drivers/STM32H7xx_HAL_Driver/Src/stm32h7xx_hal_sram.c ****   else
 847:Drivers/STM32H7xx_HAL_Driver/Src/stm32h7xx_hal_sram.c ****   {
 848:Drivers/STM32H7xx_HAL_Driver/Src/stm32h7xx_hal_sram.c ****     /* update return status */
 849:Drivers/STM32H7xx_HAL_Driver/Src/stm32h7xx_hal_sram.c ****     status =  HAL_ERROR;
 850:Drivers/STM32H7xx_HAL_Driver/Src/stm32h7xx_hal_sram.c ****   }
 851:Drivers/STM32H7xx_HAL_Driver/Src/stm32h7xx_hal_sram.c **** 
 852:Drivers/STM32H7xx_HAL_Driver/Src/stm32h7xx_hal_sram.c ****   /* Release Lock */
 853:Drivers/STM32H7xx_HAL_Driver/Src/stm32h7xx_hal_sram.c ****   __HAL_UNLOCK(hsram);
 854:Drivers/STM32H7xx_HAL_Driver/Src/stm32h7xx_hal_sram.c ****   return status;
 855:Drivers/STM32H7xx_HAL_Driver/Src/stm32h7xx_hal_sram.c **** }
 856:Drivers/STM32H7xx_HAL_Driver/Src/stm32h7xx_hal_sram.c **** 
 857:Drivers/STM32H7xx_HAL_Driver/Src/stm32h7xx_hal_sram.c **** /**
 858:Drivers/STM32H7xx_HAL_Driver/Src/stm32h7xx_hal_sram.c ****   * @brief  Register a User SRAM Callback for DMA transfers
 859:Drivers/STM32H7xx_HAL_Driver/Src/stm32h7xx_hal_sram.c ****   *         To be used instead of the weak (surcharged) predefined callback
 860:Drivers/STM32H7xx_HAL_Driver/Src/stm32h7xx_hal_sram.c ****   * @param hsram : SRAM handle
 861:Drivers/STM32H7xx_HAL_Driver/Src/stm32h7xx_hal_sram.c ****   * @param CallbackId : ID of the callback to be registered
 862:Drivers/STM32H7xx_HAL_Driver/Src/stm32h7xx_hal_sram.c ****   *        This parameter can be one of the following values:
 863:Drivers/STM32H7xx_HAL_Driver/Src/stm32h7xx_hal_sram.c ****   *          @arg @ref HAL_SRAM_DMA_XFER_CPLT_CB_ID  SRAM DMA Xfer Complete callback ID
 864:Drivers/STM32H7xx_HAL_Driver/Src/stm32h7xx_hal_sram.c ****   *          @arg @ref HAL_SRAM_DMA_XFER_ERR_CB_ID   SRAM DMA Xfer Error callback ID
 865:Drivers/STM32H7xx_HAL_Driver/Src/stm32h7xx_hal_sram.c ****   * @param pCallback : pointer to the Callback function
 866:Drivers/STM32H7xx_HAL_Driver/Src/stm32h7xx_hal_sram.c ****   * @retval status
 867:Drivers/STM32H7xx_HAL_Driver/Src/stm32h7xx_hal_sram.c ****   */
 868:Drivers/STM32H7xx_HAL_Driver/Src/stm32h7xx_hal_sram.c **** HAL_StatusTypeDef HAL_SRAM_RegisterDmaCallback(SRAM_HandleTypeDef *hsram, HAL_SRAM_CallbackIDTypeDe
 869:Drivers/STM32H7xx_HAL_Driver/Src/stm32h7xx_hal_sram.c ****                                                pSRAM_DmaCallbackTypeDef pCallback)
 870:Drivers/STM32H7xx_HAL_Driver/Src/stm32h7xx_hal_sram.c **** {
ARM GAS  C:\usertemp\cccKQ01c.s 			page 21


 871:Drivers/STM32H7xx_HAL_Driver/Src/stm32h7xx_hal_sram.c ****   HAL_StatusTypeDef status = HAL_OK;
 872:Drivers/STM32H7xx_HAL_Driver/Src/stm32h7xx_hal_sram.c ****   HAL_SRAM_StateTypeDef state;
 873:Drivers/STM32H7xx_HAL_Driver/Src/stm32h7xx_hal_sram.c **** 
 874:Drivers/STM32H7xx_HAL_Driver/Src/stm32h7xx_hal_sram.c ****   if (pCallback == NULL)
 875:Drivers/STM32H7xx_HAL_Driver/Src/stm32h7xx_hal_sram.c ****   {
 876:Drivers/STM32H7xx_HAL_Driver/Src/stm32h7xx_hal_sram.c ****     return HAL_ERROR;
 877:Drivers/STM32H7xx_HAL_Driver/Src/stm32h7xx_hal_sram.c ****   }
 878:Drivers/STM32H7xx_HAL_Driver/Src/stm32h7xx_hal_sram.c **** 
 879:Drivers/STM32H7xx_HAL_Driver/Src/stm32h7xx_hal_sram.c ****   /* Process locked */
 880:Drivers/STM32H7xx_HAL_Driver/Src/stm32h7xx_hal_sram.c ****   __HAL_LOCK(hsram);
 881:Drivers/STM32H7xx_HAL_Driver/Src/stm32h7xx_hal_sram.c **** 
 882:Drivers/STM32H7xx_HAL_Driver/Src/stm32h7xx_hal_sram.c ****   state = hsram->State;
 883:Drivers/STM32H7xx_HAL_Driver/Src/stm32h7xx_hal_sram.c ****   if ((state == HAL_SRAM_STATE_READY) || (state == HAL_SRAM_STATE_PROTECTED))
 884:Drivers/STM32H7xx_HAL_Driver/Src/stm32h7xx_hal_sram.c ****   {
 885:Drivers/STM32H7xx_HAL_Driver/Src/stm32h7xx_hal_sram.c ****     switch (CallbackId)
 886:Drivers/STM32H7xx_HAL_Driver/Src/stm32h7xx_hal_sram.c ****     {
 887:Drivers/STM32H7xx_HAL_Driver/Src/stm32h7xx_hal_sram.c ****       case HAL_SRAM_DMA_XFER_CPLT_CB_ID :
 888:Drivers/STM32H7xx_HAL_Driver/Src/stm32h7xx_hal_sram.c ****         hsram->DmaXferCpltCallback = pCallback;
 889:Drivers/STM32H7xx_HAL_Driver/Src/stm32h7xx_hal_sram.c ****         break;
 890:Drivers/STM32H7xx_HAL_Driver/Src/stm32h7xx_hal_sram.c ****       case HAL_SRAM_DMA_XFER_ERR_CB_ID :
 891:Drivers/STM32H7xx_HAL_Driver/Src/stm32h7xx_hal_sram.c ****         hsram->DmaXferErrorCallback = pCallback;
 892:Drivers/STM32H7xx_HAL_Driver/Src/stm32h7xx_hal_sram.c ****         break;
 893:Drivers/STM32H7xx_HAL_Driver/Src/stm32h7xx_hal_sram.c ****       default :
 894:Drivers/STM32H7xx_HAL_Driver/Src/stm32h7xx_hal_sram.c ****         /* update return status */
 895:Drivers/STM32H7xx_HAL_Driver/Src/stm32h7xx_hal_sram.c ****         status =  HAL_ERROR;
 896:Drivers/STM32H7xx_HAL_Driver/Src/stm32h7xx_hal_sram.c ****         break;
 897:Drivers/STM32H7xx_HAL_Driver/Src/stm32h7xx_hal_sram.c ****     }
 898:Drivers/STM32H7xx_HAL_Driver/Src/stm32h7xx_hal_sram.c ****   }
 899:Drivers/STM32H7xx_HAL_Driver/Src/stm32h7xx_hal_sram.c ****   else
 900:Drivers/STM32H7xx_HAL_Driver/Src/stm32h7xx_hal_sram.c ****   {
 901:Drivers/STM32H7xx_HAL_Driver/Src/stm32h7xx_hal_sram.c ****     /* update return status */
 902:Drivers/STM32H7xx_HAL_Driver/Src/stm32h7xx_hal_sram.c ****     status =  HAL_ERROR;
 903:Drivers/STM32H7xx_HAL_Driver/Src/stm32h7xx_hal_sram.c ****   }
 904:Drivers/STM32H7xx_HAL_Driver/Src/stm32h7xx_hal_sram.c **** 
 905:Drivers/STM32H7xx_HAL_Driver/Src/stm32h7xx_hal_sram.c ****   /* Release Lock */
 906:Drivers/STM32H7xx_HAL_Driver/Src/stm32h7xx_hal_sram.c ****   __HAL_UNLOCK(hsram);
 907:Drivers/STM32H7xx_HAL_Driver/Src/stm32h7xx_hal_sram.c ****   return status;
 908:Drivers/STM32H7xx_HAL_Driver/Src/stm32h7xx_hal_sram.c **** }
 909:Drivers/STM32H7xx_HAL_Driver/Src/stm32h7xx_hal_sram.c **** #endif /* USE_HAL_SRAM_REGISTER_CALLBACKS */
 910:Drivers/STM32H7xx_HAL_Driver/Src/stm32h7xx_hal_sram.c **** 
 911:Drivers/STM32H7xx_HAL_Driver/Src/stm32h7xx_hal_sram.c **** /**
 912:Drivers/STM32H7xx_HAL_Driver/Src/stm32h7xx_hal_sram.c ****   * @}
 913:Drivers/STM32H7xx_HAL_Driver/Src/stm32h7xx_hal_sram.c ****   */
 914:Drivers/STM32H7xx_HAL_Driver/Src/stm32h7xx_hal_sram.c **** 
 915:Drivers/STM32H7xx_HAL_Driver/Src/stm32h7xx_hal_sram.c **** /** @defgroup SRAM_Exported_Functions_Group3 Control functions
 916:Drivers/STM32H7xx_HAL_Driver/Src/stm32h7xx_hal_sram.c ****   *  @brief   Control functions
 917:Drivers/STM32H7xx_HAL_Driver/Src/stm32h7xx_hal_sram.c ****   *
 918:Drivers/STM32H7xx_HAL_Driver/Src/stm32h7xx_hal_sram.c **** @verbatim
 919:Drivers/STM32H7xx_HAL_Driver/Src/stm32h7xx_hal_sram.c ****   ==============================================================================
 920:Drivers/STM32H7xx_HAL_Driver/Src/stm32h7xx_hal_sram.c ****                         ##### SRAM Control functions #####
 921:Drivers/STM32H7xx_HAL_Driver/Src/stm32h7xx_hal_sram.c ****   ==============================================================================
 922:Drivers/STM32H7xx_HAL_Driver/Src/stm32h7xx_hal_sram.c ****   [..]
 923:Drivers/STM32H7xx_HAL_Driver/Src/stm32h7xx_hal_sram.c ****     This subsection provides a set of functions allowing to control dynamically
 924:Drivers/STM32H7xx_HAL_Driver/Src/stm32h7xx_hal_sram.c ****     the SRAM interface.
 925:Drivers/STM32H7xx_HAL_Driver/Src/stm32h7xx_hal_sram.c **** 
 926:Drivers/STM32H7xx_HAL_Driver/Src/stm32h7xx_hal_sram.c **** @endverbatim
 927:Drivers/STM32H7xx_HAL_Driver/Src/stm32h7xx_hal_sram.c ****   * @{
ARM GAS  C:\usertemp\cccKQ01c.s 			page 22


 928:Drivers/STM32H7xx_HAL_Driver/Src/stm32h7xx_hal_sram.c ****   */
 929:Drivers/STM32H7xx_HAL_Driver/Src/stm32h7xx_hal_sram.c **** 
 930:Drivers/STM32H7xx_HAL_Driver/Src/stm32h7xx_hal_sram.c **** /**
 931:Drivers/STM32H7xx_HAL_Driver/Src/stm32h7xx_hal_sram.c ****   * @brief  Enables dynamically SRAM write operation.
 932:Drivers/STM32H7xx_HAL_Driver/Src/stm32h7xx_hal_sram.c ****   * @param  hsram pointer to a SRAM_HandleTypeDef structure that contains
 933:Drivers/STM32H7xx_HAL_Driver/Src/stm32h7xx_hal_sram.c ****   *                the configuration information for SRAM module.
 934:Drivers/STM32H7xx_HAL_Driver/Src/stm32h7xx_hal_sram.c ****   * @retval HAL status
 935:Drivers/STM32H7xx_HAL_Driver/Src/stm32h7xx_hal_sram.c ****   */
 936:Drivers/STM32H7xx_HAL_Driver/Src/stm32h7xx_hal_sram.c **** HAL_StatusTypeDef HAL_SRAM_WriteOperation_Enable(SRAM_HandleTypeDef *hsram)
 937:Drivers/STM32H7xx_HAL_Driver/Src/stm32h7xx_hal_sram.c **** {
 938:Drivers/STM32H7xx_HAL_Driver/Src/stm32h7xx_hal_sram.c ****   /* Check the SRAM controller state */
 939:Drivers/STM32H7xx_HAL_Driver/Src/stm32h7xx_hal_sram.c ****   if (hsram->State == HAL_SRAM_STATE_PROTECTED)
 940:Drivers/STM32H7xx_HAL_Driver/Src/stm32h7xx_hal_sram.c ****   {
 941:Drivers/STM32H7xx_HAL_Driver/Src/stm32h7xx_hal_sram.c ****     /* Process Locked */
 942:Drivers/STM32H7xx_HAL_Driver/Src/stm32h7xx_hal_sram.c ****     __HAL_LOCK(hsram);
 943:Drivers/STM32H7xx_HAL_Driver/Src/stm32h7xx_hal_sram.c **** 
 944:Drivers/STM32H7xx_HAL_Driver/Src/stm32h7xx_hal_sram.c ****     /* Update the SRAM controller state */
 945:Drivers/STM32H7xx_HAL_Driver/Src/stm32h7xx_hal_sram.c ****     hsram->State = HAL_SRAM_STATE_BUSY;
 946:Drivers/STM32H7xx_HAL_Driver/Src/stm32h7xx_hal_sram.c **** 
 947:Drivers/STM32H7xx_HAL_Driver/Src/stm32h7xx_hal_sram.c ****     /* Enable write operation */
 948:Drivers/STM32H7xx_HAL_Driver/Src/stm32h7xx_hal_sram.c ****     (void)FMC_NORSRAM_WriteOperation_Enable(hsram->Instance, hsram->Init.NSBank);
 949:Drivers/STM32H7xx_HAL_Driver/Src/stm32h7xx_hal_sram.c **** 
 950:Drivers/STM32H7xx_HAL_Driver/Src/stm32h7xx_hal_sram.c ****     /* Update the SRAM controller state */
 951:Drivers/STM32H7xx_HAL_Driver/Src/stm32h7xx_hal_sram.c ****     hsram->State = HAL_SRAM_STATE_READY;
 952:Drivers/STM32H7xx_HAL_Driver/Src/stm32h7xx_hal_sram.c **** 
 953:Drivers/STM32H7xx_HAL_Driver/Src/stm32h7xx_hal_sram.c ****     /* Process unlocked */
 954:Drivers/STM32H7xx_HAL_Driver/Src/stm32h7xx_hal_sram.c ****     __HAL_UNLOCK(hsram);
 955:Drivers/STM32H7xx_HAL_Driver/Src/stm32h7xx_hal_sram.c ****   }
 956:Drivers/STM32H7xx_HAL_Driver/Src/stm32h7xx_hal_sram.c ****   else
 957:Drivers/STM32H7xx_HAL_Driver/Src/stm32h7xx_hal_sram.c ****   {
 958:Drivers/STM32H7xx_HAL_Driver/Src/stm32h7xx_hal_sram.c ****     return HAL_ERROR;
 959:Drivers/STM32H7xx_HAL_Driver/Src/stm32h7xx_hal_sram.c ****   }
 960:Drivers/STM32H7xx_HAL_Driver/Src/stm32h7xx_hal_sram.c **** 
 961:Drivers/STM32H7xx_HAL_Driver/Src/stm32h7xx_hal_sram.c ****   return HAL_OK;
 962:Drivers/STM32H7xx_HAL_Driver/Src/stm32h7xx_hal_sram.c **** }
 963:Drivers/STM32H7xx_HAL_Driver/Src/stm32h7xx_hal_sram.c **** 
 964:Drivers/STM32H7xx_HAL_Driver/Src/stm32h7xx_hal_sram.c **** /**
 965:Drivers/STM32H7xx_HAL_Driver/Src/stm32h7xx_hal_sram.c ****   * @brief  Disables dynamically SRAM write operation.
 966:Drivers/STM32H7xx_HAL_Driver/Src/stm32h7xx_hal_sram.c ****   * @param  hsram pointer to a SRAM_HandleTypeDef structure that contains
 967:Drivers/STM32H7xx_HAL_Driver/Src/stm32h7xx_hal_sram.c ****   *                the configuration information for SRAM module.
 968:Drivers/STM32H7xx_HAL_Driver/Src/stm32h7xx_hal_sram.c ****   * @retval HAL status
 969:Drivers/STM32H7xx_HAL_Driver/Src/stm32h7xx_hal_sram.c ****   */
 970:Drivers/STM32H7xx_HAL_Driver/Src/stm32h7xx_hal_sram.c **** HAL_StatusTypeDef HAL_SRAM_WriteOperation_Disable(SRAM_HandleTypeDef *hsram)
 971:Drivers/STM32H7xx_HAL_Driver/Src/stm32h7xx_hal_sram.c **** {
 972:Drivers/STM32H7xx_HAL_Driver/Src/stm32h7xx_hal_sram.c ****   /* Check the SRAM controller state */
 973:Drivers/STM32H7xx_HAL_Driver/Src/stm32h7xx_hal_sram.c ****   if (hsram->State == HAL_SRAM_STATE_READY)
 974:Drivers/STM32H7xx_HAL_Driver/Src/stm32h7xx_hal_sram.c ****   {
 975:Drivers/STM32H7xx_HAL_Driver/Src/stm32h7xx_hal_sram.c ****     /* Process Locked */
 976:Drivers/STM32H7xx_HAL_Driver/Src/stm32h7xx_hal_sram.c ****     __HAL_LOCK(hsram);
 977:Drivers/STM32H7xx_HAL_Driver/Src/stm32h7xx_hal_sram.c **** 
 978:Drivers/STM32H7xx_HAL_Driver/Src/stm32h7xx_hal_sram.c ****     /* Update the SRAM controller state */
 979:Drivers/STM32H7xx_HAL_Driver/Src/stm32h7xx_hal_sram.c ****     hsram->State = HAL_SRAM_STATE_BUSY;
 980:Drivers/STM32H7xx_HAL_Driver/Src/stm32h7xx_hal_sram.c **** 
 981:Drivers/STM32H7xx_HAL_Driver/Src/stm32h7xx_hal_sram.c ****     /* Disable write operation */
 982:Drivers/STM32H7xx_HAL_Driver/Src/stm32h7xx_hal_sram.c ****     (void)FMC_NORSRAM_WriteOperation_Disable(hsram->Instance, hsram->Init.NSBank);
 983:Drivers/STM32H7xx_HAL_Driver/Src/stm32h7xx_hal_sram.c **** 
 984:Drivers/STM32H7xx_HAL_Driver/Src/stm32h7xx_hal_sram.c ****     /* Update the SRAM controller state */
ARM GAS  C:\usertemp\cccKQ01c.s 			page 23


 985:Drivers/STM32H7xx_HAL_Driver/Src/stm32h7xx_hal_sram.c ****     hsram->State = HAL_SRAM_STATE_PROTECTED;
 986:Drivers/STM32H7xx_HAL_Driver/Src/stm32h7xx_hal_sram.c **** 
 987:Drivers/STM32H7xx_HAL_Driver/Src/stm32h7xx_hal_sram.c ****     /* Process unlocked */
 988:Drivers/STM32H7xx_HAL_Driver/Src/stm32h7xx_hal_sram.c ****     __HAL_UNLOCK(hsram);
 989:Drivers/STM32H7xx_HAL_Driver/Src/stm32h7xx_hal_sram.c ****   }
 990:Drivers/STM32H7xx_HAL_Driver/Src/stm32h7xx_hal_sram.c ****   else
 991:Drivers/STM32H7xx_HAL_Driver/Src/stm32h7xx_hal_sram.c ****   {
 992:Drivers/STM32H7xx_HAL_Driver/Src/stm32h7xx_hal_sram.c ****     return HAL_ERROR;
 993:Drivers/STM32H7xx_HAL_Driver/Src/stm32h7xx_hal_sram.c ****   }
 994:Drivers/STM32H7xx_HAL_Driver/Src/stm32h7xx_hal_sram.c **** 
 995:Drivers/STM32H7xx_HAL_Driver/Src/stm32h7xx_hal_sram.c ****   return HAL_OK;
 996:Drivers/STM32H7xx_HAL_Driver/Src/stm32h7xx_hal_sram.c **** }
 997:Drivers/STM32H7xx_HAL_Driver/Src/stm32h7xx_hal_sram.c **** 
 998:Drivers/STM32H7xx_HAL_Driver/Src/stm32h7xx_hal_sram.c **** /**
 999:Drivers/STM32H7xx_HAL_Driver/Src/stm32h7xx_hal_sram.c ****   * @}
1000:Drivers/STM32H7xx_HAL_Driver/Src/stm32h7xx_hal_sram.c ****   */
1001:Drivers/STM32H7xx_HAL_Driver/Src/stm32h7xx_hal_sram.c **** 
1002:Drivers/STM32H7xx_HAL_Driver/Src/stm32h7xx_hal_sram.c **** /** @defgroup SRAM_Exported_Functions_Group4 Peripheral State functions
1003:Drivers/STM32H7xx_HAL_Driver/Src/stm32h7xx_hal_sram.c ****   *  @brief   Peripheral State functions
1004:Drivers/STM32H7xx_HAL_Driver/Src/stm32h7xx_hal_sram.c ****   *
1005:Drivers/STM32H7xx_HAL_Driver/Src/stm32h7xx_hal_sram.c **** @verbatim
1006:Drivers/STM32H7xx_HAL_Driver/Src/stm32h7xx_hal_sram.c ****   ==============================================================================
1007:Drivers/STM32H7xx_HAL_Driver/Src/stm32h7xx_hal_sram.c ****                       ##### SRAM State functions #####
1008:Drivers/STM32H7xx_HAL_Driver/Src/stm32h7xx_hal_sram.c ****   ==============================================================================
1009:Drivers/STM32H7xx_HAL_Driver/Src/stm32h7xx_hal_sram.c ****   [..]
1010:Drivers/STM32H7xx_HAL_Driver/Src/stm32h7xx_hal_sram.c ****     This subsection permits to get in run-time the status of the SRAM controller
1011:Drivers/STM32H7xx_HAL_Driver/Src/stm32h7xx_hal_sram.c ****     and the data flow.
1012:Drivers/STM32H7xx_HAL_Driver/Src/stm32h7xx_hal_sram.c **** 
1013:Drivers/STM32H7xx_HAL_Driver/Src/stm32h7xx_hal_sram.c **** @endverbatim
1014:Drivers/STM32H7xx_HAL_Driver/Src/stm32h7xx_hal_sram.c ****   * @{
1015:Drivers/STM32H7xx_HAL_Driver/Src/stm32h7xx_hal_sram.c ****   */
1016:Drivers/STM32H7xx_HAL_Driver/Src/stm32h7xx_hal_sram.c **** 
1017:Drivers/STM32H7xx_HAL_Driver/Src/stm32h7xx_hal_sram.c **** /**
1018:Drivers/STM32H7xx_HAL_Driver/Src/stm32h7xx_hal_sram.c ****   * @brief  Returns the SRAM controller state
1019:Drivers/STM32H7xx_HAL_Driver/Src/stm32h7xx_hal_sram.c ****   * @param  hsram pointer to a SRAM_HandleTypeDef structure that contains
1020:Drivers/STM32H7xx_HAL_Driver/Src/stm32h7xx_hal_sram.c ****   *                the configuration information for SRAM module.
1021:Drivers/STM32H7xx_HAL_Driver/Src/stm32h7xx_hal_sram.c ****   * @retval HAL state
1022:Drivers/STM32H7xx_HAL_Driver/Src/stm32h7xx_hal_sram.c ****   */
1023:Drivers/STM32H7xx_HAL_Driver/Src/stm32h7xx_hal_sram.c **** HAL_SRAM_StateTypeDef HAL_SRAM_GetState(SRAM_HandleTypeDef *hsram)
1024:Drivers/STM32H7xx_HAL_Driver/Src/stm32h7xx_hal_sram.c **** {
1025:Drivers/STM32H7xx_HAL_Driver/Src/stm32h7xx_hal_sram.c ****   return hsram->State;
1026:Drivers/STM32H7xx_HAL_Driver/Src/stm32h7xx_hal_sram.c **** }
1027:Drivers/STM32H7xx_HAL_Driver/Src/stm32h7xx_hal_sram.c **** 
1028:Drivers/STM32H7xx_HAL_Driver/Src/stm32h7xx_hal_sram.c **** /**
1029:Drivers/STM32H7xx_HAL_Driver/Src/stm32h7xx_hal_sram.c ****   * @}
1030:Drivers/STM32H7xx_HAL_Driver/Src/stm32h7xx_hal_sram.c ****   */
1031:Drivers/STM32H7xx_HAL_Driver/Src/stm32h7xx_hal_sram.c **** 
1032:Drivers/STM32H7xx_HAL_Driver/Src/stm32h7xx_hal_sram.c **** /**
1033:Drivers/STM32H7xx_HAL_Driver/Src/stm32h7xx_hal_sram.c ****   * @}
1034:Drivers/STM32H7xx_HAL_Driver/Src/stm32h7xx_hal_sram.c ****   */
1035:Drivers/STM32H7xx_HAL_Driver/Src/stm32h7xx_hal_sram.c **** 
1036:Drivers/STM32H7xx_HAL_Driver/Src/stm32h7xx_hal_sram.c **** /**
1037:Drivers/STM32H7xx_HAL_Driver/Src/stm32h7xx_hal_sram.c ****   * @brief  MDMA SRAM process complete callback.
1038:Drivers/STM32H7xx_HAL_Driver/Src/stm32h7xx_hal_sram.c ****   * @param  hmdma : MDMA handle
1039:Drivers/STM32H7xx_HAL_Driver/Src/stm32h7xx_hal_sram.c ****   * @retval None
1040:Drivers/STM32H7xx_HAL_Driver/Src/stm32h7xx_hal_sram.c ****   */
1041:Drivers/STM32H7xx_HAL_Driver/Src/stm32h7xx_hal_sram.c **** static void SRAM_DMACplt(MDMA_HandleTypeDef *hmdma)
ARM GAS  C:\usertemp\cccKQ01c.s 			page 24


1042:Drivers/STM32H7xx_HAL_Driver/Src/stm32h7xx_hal_sram.c **** {
1043:Drivers/STM32H7xx_HAL_Driver/Src/stm32h7xx_hal_sram.c ****   SRAM_HandleTypeDef *hsram = (SRAM_HandleTypeDef *)(hmdma->Parent);
1044:Drivers/STM32H7xx_HAL_Driver/Src/stm32h7xx_hal_sram.c **** 
1045:Drivers/STM32H7xx_HAL_Driver/Src/stm32h7xx_hal_sram.c ****   /* Disable the MDMA channel */
1046:Drivers/STM32H7xx_HAL_Driver/Src/stm32h7xx_hal_sram.c ****   __HAL_MDMA_DISABLE(hmdma);
1047:Drivers/STM32H7xx_HAL_Driver/Src/stm32h7xx_hal_sram.c **** 
1048:Drivers/STM32H7xx_HAL_Driver/Src/stm32h7xx_hal_sram.c ****   /* Update the SRAM controller state */
1049:Drivers/STM32H7xx_HAL_Driver/Src/stm32h7xx_hal_sram.c ****   hsram->State = HAL_SRAM_STATE_READY;
1050:Drivers/STM32H7xx_HAL_Driver/Src/stm32h7xx_hal_sram.c **** 
1051:Drivers/STM32H7xx_HAL_Driver/Src/stm32h7xx_hal_sram.c **** #if (USE_HAL_SRAM_REGISTER_CALLBACKS == 1)
1052:Drivers/STM32H7xx_HAL_Driver/Src/stm32h7xx_hal_sram.c ****   hsram->DmaXferCpltCallback(hmdma);
1053:Drivers/STM32H7xx_HAL_Driver/Src/stm32h7xx_hal_sram.c **** #else
1054:Drivers/STM32H7xx_HAL_Driver/Src/stm32h7xx_hal_sram.c ****   HAL_SRAM_DMA_XferCpltCallback(hmdma);
1055:Drivers/STM32H7xx_HAL_Driver/Src/stm32h7xx_hal_sram.c **** #endif /* USE_HAL_SRAM_REGISTER_CALLBACKS */
1056:Drivers/STM32H7xx_HAL_Driver/Src/stm32h7xx_hal_sram.c **** }
1057:Drivers/STM32H7xx_HAL_Driver/Src/stm32h7xx_hal_sram.c **** 
1058:Drivers/STM32H7xx_HAL_Driver/Src/stm32h7xx_hal_sram.c **** /**
1059:Drivers/STM32H7xx_HAL_Driver/Src/stm32h7xx_hal_sram.c ****   * @brief  MDMA SRAM process complete callback.
1060:Drivers/STM32H7xx_HAL_Driver/Src/stm32h7xx_hal_sram.c ****   * @param  hmdma : MDMA handle
1061:Drivers/STM32H7xx_HAL_Driver/Src/stm32h7xx_hal_sram.c ****   * @retval None
1062:Drivers/STM32H7xx_HAL_Driver/Src/stm32h7xx_hal_sram.c ****   */
1063:Drivers/STM32H7xx_HAL_Driver/Src/stm32h7xx_hal_sram.c **** static void SRAM_DMACpltProt(MDMA_HandleTypeDef *hmdma)
1064:Drivers/STM32H7xx_HAL_Driver/Src/stm32h7xx_hal_sram.c **** {
 243              		.loc 1 1064 1 is_stmt 1 view -0
 244              		.cfi_startproc
 245              		@ args = 0, pretend = 0, frame = 0
 246              		@ frame_needed = 0, uses_anonymous_args = 0
 247              		.loc 1 1064 1 is_stmt 0 view .LVU49
 248 0000 08B5     		push	{r3, lr}
 249              	.LCFI3:
 250              		.cfi_def_cfa_offset 8
 251              		.cfi_offset 3, -8
 252              		.cfi_offset 14, -4
1065:Drivers/STM32H7xx_HAL_Driver/Src/stm32h7xx_hal_sram.c ****   SRAM_HandleTypeDef *hsram = (SRAM_HandleTypeDef *)(hmdma->Parent);
 253              		.loc 1 1065 3 is_stmt 1 view .LVU50
 254              		.loc 1 1065 23 is_stmt 0 view .LVU51
 255 0002 016C     		ldr	r1, [r0, #64]
 256              	.LVL16:
1066:Drivers/STM32H7xx_HAL_Driver/Src/stm32h7xx_hal_sram.c **** 
1067:Drivers/STM32H7xx_HAL_Driver/Src/stm32h7xx_hal_sram.c ****   /* Disable the MDMA channel */
1068:Drivers/STM32H7xx_HAL_Driver/Src/stm32h7xx_hal_sram.c ****   __HAL_MDMA_DISABLE(hmdma);
 257              		.loc 1 1068 3 is_stmt 1 view .LVU52
 258 0004 0268     		ldr	r2, [r0]
 259 0006 D368     		ldr	r3, [r2, #12]
 260 0008 23F00103 		bic	r3, r3, #1
 261 000c D360     		str	r3, [r2, #12]
1069:Drivers/STM32H7xx_HAL_Driver/Src/stm32h7xx_hal_sram.c **** 
1070:Drivers/STM32H7xx_HAL_Driver/Src/stm32h7xx_hal_sram.c ****   /* Update the SRAM controller state */
1071:Drivers/STM32H7xx_HAL_Driver/Src/stm32h7xx_hal_sram.c ****   hsram->State = HAL_SRAM_STATE_PROTECTED;
 262              		.loc 1 1071 3 view .LVU53
 263              		.loc 1 1071 16 is_stmt 0 view .LVU54
 264 000e 0423     		movs	r3, #4
 265 0010 81F84530 		strb	r3, [r1, #69]
1072:Drivers/STM32H7xx_HAL_Driver/Src/stm32h7xx_hal_sram.c **** 
1073:Drivers/STM32H7xx_HAL_Driver/Src/stm32h7xx_hal_sram.c **** #if (USE_HAL_SRAM_REGISTER_CALLBACKS == 1)
1074:Drivers/STM32H7xx_HAL_Driver/Src/stm32h7xx_hal_sram.c ****   hsram->DmaXferCpltCallback(hmdma);
1075:Drivers/STM32H7xx_HAL_Driver/Src/stm32h7xx_hal_sram.c **** #else
ARM GAS  C:\usertemp\cccKQ01c.s 			page 25


1076:Drivers/STM32H7xx_HAL_Driver/Src/stm32h7xx_hal_sram.c ****   HAL_SRAM_DMA_XferCpltCallback(hmdma);
 266              		.loc 1 1076 3 is_stmt 1 view .LVU55
 267 0014 FFF7FEFF 		bl	HAL_SRAM_DMA_XferCpltCallback
 268              	.LVL17:
1077:Drivers/STM32H7xx_HAL_Driver/Src/stm32h7xx_hal_sram.c **** #endif /* USE_HAL_SRAM_REGISTER_CALLBACKS */
1078:Drivers/STM32H7xx_HAL_Driver/Src/stm32h7xx_hal_sram.c **** }
 269              		.loc 1 1078 1 is_stmt 0 view .LVU56
 270 0018 08BD     		pop	{r3, pc}
 271              		.cfi_endproc
 272              	.LFE351:
 274              		.section	.text.SRAM_DMACplt,"ax",%progbits
 275              		.align	1
 276              		.syntax unified
 277              		.thumb
 278              		.thumb_func
 280              	SRAM_DMACplt:
 281              	.LVL18:
 282              	.LFB350:
1042:Drivers/STM32H7xx_HAL_Driver/Src/stm32h7xx_hal_sram.c ****   SRAM_HandleTypeDef *hsram = (SRAM_HandleTypeDef *)(hmdma->Parent);
 283              		.loc 1 1042 1 is_stmt 1 view -0
 284              		.cfi_startproc
 285              		@ args = 0, pretend = 0, frame = 0
 286              		@ frame_needed = 0, uses_anonymous_args = 0
1042:Drivers/STM32H7xx_HAL_Driver/Src/stm32h7xx_hal_sram.c ****   SRAM_HandleTypeDef *hsram = (SRAM_HandleTypeDef *)(hmdma->Parent);
 287              		.loc 1 1042 1 is_stmt 0 view .LVU58
 288 0000 08B5     		push	{r3, lr}
 289              	.LCFI4:
 290              		.cfi_def_cfa_offset 8
 291              		.cfi_offset 3, -8
 292              		.cfi_offset 14, -4
1043:Drivers/STM32H7xx_HAL_Driver/Src/stm32h7xx_hal_sram.c **** 
 293              		.loc 1 1043 3 is_stmt 1 view .LVU59
1043:Drivers/STM32H7xx_HAL_Driver/Src/stm32h7xx_hal_sram.c **** 
 294              		.loc 1 1043 23 is_stmt 0 view .LVU60
 295 0002 016C     		ldr	r1, [r0, #64]
 296              	.LVL19:
1046:Drivers/STM32H7xx_HAL_Driver/Src/stm32h7xx_hal_sram.c **** 
 297              		.loc 1 1046 3 is_stmt 1 view .LVU61
 298 0004 0268     		ldr	r2, [r0]
 299 0006 D368     		ldr	r3, [r2, #12]
 300 0008 23F00103 		bic	r3, r3, #1
 301 000c D360     		str	r3, [r2, #12]
1049:Drivers/STM32H7xx_HAL_Driver/Src/stm32h7xx_hal_sram.c **** 
 302              		.loc 1 1049 3 view .LVU62
1049:Drivers/STM32H7xx_HAL_Driver/Src/stm32h7xx_hal_sram.c **** 
 303              		.loc 1 1049 16 is_stmt 0 view .LVU63
 304 000e 0123     		movs	r3, #1
 305 0010 81F84530 		strb	r3, [r1, #69]
1054:Drivers/STM32H7xx_HAL_Driver/Src/stm32h7xx_hal_sram.c **** #endif /* USE_HAL_SRAM_REGISTER_CALLBACKS */
 306              		.loc 1 1054 3 is_stmt 1 view .LVU64
 307 0014 FFF7FEFF 		bl	HAL_SRAM_DMA_XferCpltCallback
 308              	.LVL20:
1056:Drivers/STM32H7xx_HAL_Driver/Src/stm32h7xx_hal_sram.c **** 
 309              		.loc 1 1056 1 is_stmt 0 view .LVU65
 310 0018 08BD     		pop	{r3, pc}
 311              		.cfi_endproc
 312              	.LFE350:
ARM GAS  C:\usertemp\cccKQ01c.s 			page 26


 314              		.section	.text.HAL_SRAM_DMA_XferErrorCallback,"ax",%progbits
 315              		.align	1
 316              		.weak	HAL_SRAM_DMA_XferErrorCallback
 317              		.syntax unified
 318              		.thumb
 319              		.thumb_func
 321              	HAL_SRAM_DMA_XferErrorCallback:
 322              	.LVL21:
 323              	.LFB338:
 307:Drivers/STM32H7xx_HAL_Driver/Src/stm32h7xx_hal_sram.c ****   /* Prevent unused argument(s) compilation warning */
 324              		.loc 1 307 1 is_stmt 1 view -0
 325              		.cfi_startproc
 326              		@ args = 0, pretend = 0, frame = 0
 327              		@ frame_needed = 0, uses_anonymous_args = 0
 328              		@ link register save eliminated.
 309:Drivers/STM32H7xx_HAL_Driver/Src/stm32h7xx_hal_sram.c **** 
 329              		.loc 1 309 3 view .LVU67
 314:Drivers/STM32H7xx_HAL_Driver/Src/stm32h7xx_hal_sram.c **** 
 330              		.loc 1 314 1 is_stmt 0 view .LVU68
 331 0000 7047     		bx	lr
 332              		.cfi_endproc
 333              	.LFE338:
 335              		.section	.text.SRAM_DMAError,"ax",%progbits
 336              		.align	1
 337              		.syntax unified
 338              		.thumb
 339              		.thumb_func
 341              	SRAM_DMAError:
 342              	.LVL22:
 343              	.LFB352:
1079:Drivers/STM32H7xx_HAL_Driver/Src/stm32h7xx_hal_sram.c **** 
1080:Drivers/STM32H7xx_HAL_Driver/Src/stm32h7xx_hal_sram.c **** /**
1081:Drivers/STM32H7xx_HAL_Driver/Src/stm32h7xx_hal_sram.c ****   * @brief  MDMA SRAM error callback.
1082:Drivers/STM32H7xx_HAL_Driver/Src/stm32h7xx_hal_sram.c ****   * @param  hmdma : MDMA handle
1083:Drivers/STM32H7xx_HAL_Driver/Src/stm32h7xx_hal_sram.c ****   * @retval None
1084:Drivers/STM32H7xx_HAL_Driver/Src/stm32h7xx_hal_sram.c ****   */
1085:Drivers/STM32H7xx_HAL_Driver/Src/stm32h7xx_hal_sram.c **** static void SRAM_DMAError(MDMA_HandleTypeDef *hmdma)
1086:Drivers/STM32H7xx_HAL_Driver/Src/stm32h7xx_hal_sram.c **** {
 344              		.loc 1 1086 1 is_stmt 1 view -0
 345              		.cfi_startproc
 346              		@ args = 0, pretend = 0, frame = 0
 347              		@ frame_needed = 0, uses_anonymous_args = 0
 348              		.loc 1 1086 1 is_stmt 0 view .LVU70
 349 0000 08B5     		push	{r3, lr}
 350              	.LCFI5:
 351              		.cfi_def_cfa_offset 8
 352              		.cfi_offset 3, -8
 353              		.cfi_offset 14, -4
1087:Drivers/STM32H7xx_HAL_Driver/Src/stm32h7xx_hal_sram.c ****   SRAM_HandleTypeDef *hsram = (SRAM_HandleTypeDef *)(hmdma->Parent);
 354              		.loc 1 1087 3 is_stmt 1 view .LVU71
 355              		.loc 1 1087 23 is_stmt 0 view .LVU72
 356 0002 016C     		ldr	r1, [r0, #64]
 357              	.LVL23:
1088:Drivers/STM32H7xx_HAL_Driver/Src/stm32h7xx_hal_sram.c **** 
1089:Drivers/STM32H7xx_HAL_Driver/Src/stm32h7xx_hal_sram.c ****   /* Disable the MDMA channel */
1090:Drivers/STM32H7xx_HAL_Driver/Src/stm32h7xx_hal_sram.c ****   __HAL_MDMA_DISABLE(hmdma);
 358              		.loc 1 1090 3 is_stmt 1 view .LVU73
ARM GAS  C:\usertemp\cccKQ01c.s 			page 27


 359 0004 0268     		ldr	r2, [r0]
 360 0006 D368     		ldr	r3, [r2, #12]
 361 0008 23F00103 		bic	r3, r3, #1
 362 000c D360     		str	r3, [r2, #12]
1091:Drivers/STM32H7xx_HAL_Driver/Src/stm32h7xx_hal_sram.c **** 
1092:Drivers/STM32H7xx_HAL_Driver/Src/stm32h7xx_hal_sram.c ****   /* Update the SRAM controller state */
1093:Drivers/STM32H7xx_HAL_Driver/Src/stm32h7xx_hal_sram.c ****   hsram->State = HAL_SRAM_STATE_ERROR;
 363              		.loc 1 1093 3 view .LVU74
 364              		.loc 1 1093 16 is_stmt 0 view .LVU75
 365 000e 0323     		movs	r3, #3
 366 0010 81F84530 		strb	r3, [r1, #69]
1094:Drivers/STM32H7xx_HAL_Driver/Src/stm32h7xx_hal_sram.c **** 
1095:Drivers/STM32H7xx_HAL_Driver/Src/stm32h7xx_hal_sram.c **** #if (USE_HAL_SRAM_REGISTER_CALLBACKS == 1)
1096:Drivers/STM32H7xx_HAL_Driver/Src/stm32h7xx_hal_sram.c ****   hsram->DmaXferErrorCallback(hmdma);
1097:Drivers/STM32H7xx_HAL_Driver/Src/stm32h7xx_hal_sram.c **** #else
1098:Drivers/STM32H7xx_HAL_Driver/Src/stm32h7xx_hal_sram.c ****   HAL_SRAM_DMA_XferErrorCallback(hmdma);
 367              		.loc 1 1098 3 is_stmt 1 view .LVU76
 368 0014 FFF7FEFF 		bl	HAL_SRAM_DMA_XferErrorCallback
 369              	.LVL24:
1099:Drivers/STM32H7xx_HAL_Driver/Src/stm32h7xx_hal_sram.c **** #endif /* USE_HAL_SRAM_REGISTER_CALLBACKS */
1100:Drivers/STM32H7xx_HAL_Driver/Src/stm32h7xx_hal_sram.c **** }
 370              		.loc 1 1100 1 is_stmt 0 view .LVU77
 371 0018 08BD     		pop	{r3, pc}
 372              		.cfi_endproc
 373              	.LFE352:
 375              		.section	.text.HAL_SRAM_Read_8b,"ax",%progbits
 376              		.align	1
 377              		.global	HAL_SRAM_Read_8b
 378              		.syntax unified
 379              		.thumb
 380              		.thumb_func
 382              	HAL_SRAM_Read_8b:
 383              	.LVL25:
 384              	.LFB339:
 345:Drivers/STM32H7xx_HAL_Driver/Src/stm32h7xx_hal_sram.c ****   uint32_t size;
 385              		.loc 1 345 1 is_stmt 1 view -0
 386              		.cfi_startproc
 387              		@ args = 0, pretend = 0, frame = 0
 388              		@ frame_needed = 0, uses_anonymous_args = 0
 345:Drivers/STM32H7xx_HAL_Driver/Src/stm32h7xx_hal_sram.c ****   uint32_t size;
 389              		.loc 1 345 1 is_stmt 0 view .LVU79
 390 0000 00B5     		push	{lr}
 391              	.LCFI6:
 392              		.cfi_def_cfa_offset 4
 393              		.cfi_offset 14, -4
 394 0002 8646     		mov	lr, r0
 346:Drivers/STM32H7xx_HAL_Driver/Src/stm32h7xx_hal_sram.c ****   __IO uint8_t *psramaddress = (uint8_t *)pAddress;
 395              		.loc 1 346 3 is_stmt 1 view .LVU80
 347:Drivers/STM32H7xx_HAL_Driver/Src/stm32h7xx_hal_sram.c ****   uint8_t *pdestbuff = pDstBuffer;
 396              		.loc 1 347 3 view .LVU81
 397              	.LVL26:
 348:Drivers/STM32H7xx_HAL_Driver/Src/stm32h7xx_hal_sram.c ****   HAL_SRAM_StateTypeDef state = hsram->State;
 398              		.loc 1 348 3 view .LVU82
 349:Drivers/STM32H7xx_HAL_Driver/Src/stm32h7xx_hal_sram.c **** 
 399              		.loc 1 349 3 view .LVU83
 349:Drivers/STM32H7xx_HAL_Driver/Src/stm32h7xx_hal_sram.c **** 
 400              		.loc 1 349 25 is_stmt 0 view .LVU84
ARM GAS  C:\usertemp\cccKQ01c.s 			page 28


 401 0004 90F84500 		ldrb	r0, [r0, #69]	@ zero_extendqisi2
 402              	.LVL27:
 349:Drivers/STM32H7xx_HAL_Driver/Src/stm32h7xx_hal_sram.c **** 
 403              		.loc 1 349 25 view .LVU85
 404 0008 C0B2     		uxtb	r0, r0
 405              	.LVL28:
 352:Drivers/STM32H7xx_HAL_Driver/Src/stm32h7xx_hal_sram.c ****   {
 406              		.loc 1 352 3 is_stmt 1 view .LVU86
 352:Drivers/STM32H7xx_HAL_Driver/Src/stm32h7xx_hal_sram.c ****   {
 407              		.loc 1 352 6 is_stmt 0 view .LVU87
 408 000a 0428     		cmp	r0, #4
 409 000c 18BF     		it	ne
 410 000e 0128     		cmpne	r0, #1
 411 0010 1BD1     		bne	.L28
 355:Drivers/STM32H7xx_HAL_Driver/Src/stm32h7xx_hal_sram.c **** 
 412              		.loc 1 355 5 is_stmt 1 view .LVU88
 355:Drivers/STM32H7xx_HAL_Driver/Src/stm32h7xx_hal_sram.c **** 
 413              		.loc 1 355 5 view .LVU89
 414 0012 9EF844C0 		ldrb	ip, [lr, #68]	@ zero_extendqisi2
 415 0016 BCF1010F 		cmp	ip, #1
 416 001a 18D0     		beq	.L29
 355:Drivers/STM32H7xx_HAL_Driver/Src/stm32h7xx_hal_sram.c **** 
 417              		.loc 1 355 5 discriminator 2 view .LVU90
 418 001c 4FF0010C 		mov	ip, #1
 419 0020 8EF844C0 		strb	ip, [lr, #68]
 355:Drivers/STM32H7xx_HAL_Driver/Src/stm32h7xx_hal_sram.c **** 
 420              		.loc 1 355 5 discriminator 2 view .LVU91
 358:Drivers/STM32H7xx_HAL_Driver/Src/stm32h7xx_hal_sram.c **** 
 421              		.loc 1 358 5 view .LVU92
 358:Drivers/STM32H7xx_HAL_Driver/Src/stm32h7xx_hal_sram.c **** 
 422              		.loc 1 358 18 is_stmt 0 view .LVU93
 423 0024 4FF0020C 		mov	ip, #2
 424 0028 8EF845C0 		strb	ip, [lr, #69]
 361:Drivers/STM32H7xx_HAL_Driver/Src/stm32h7xx_hal_sram.c ****     {
 425              		.loc 1 361 5 is_stmt 1 view .LVU94
 426              	.LVL29:
 361:Drivers/STM32H7xx_HAL_Driver/Src/stm32h7xx_hal_sram.c ****     {
 427              		.loc 1 361 5 is_stmt 0 view .LVU95
 428 002c 04E0     		b	.L26
 429              	.LVL30:
 430              	.L27:
 363:Drivers/STM32H7xx_HAL_Driver/Src/stm32h7xx_hal_sram.c ****       pdestbuff++;
 431              		.loc 1 363 7 is_stmt 1 view .LVU96
 363:Drivers/STM32H7xx_HAL_Driver/Src/stm32h7xx_hal_sram.c ****       pdestbuff++;
 432              		.loc 1 363 20 is_stmt 0 view .LVU97
 433 002e 11F801CB 		ldrb	ip, [r1], #1	@ zero_extendqisi2
 434              	.LVL31:
 363:Drivers/STM32H7xx_HAL_Driver/Src/stm32h7xx_hal_sram.c ****       pdestbuff++;
 435              		.loc 1 363 18 view .LVU98
 436 0032 02F801CB 		strb	ip, [r2], #1
 437              	.LVL32:
 364:Drivers/STM32H7xx_HAL_Driver/Src/stm32h7xx_hal_sram.c ****       psramaddress++;
 438              		.loc 1 364 7 is_stmt 1 view .LVU99
 365:Drivers/STM32H7xx_HAL_Driver/Src/stm32h7xx_hal_sram.c ****     }
 439              		.loc 1 365 7 view .LVU100
 361:Drivers/STM32H7xx_HAL_Driver/Src/stm32h7xx_hal_sram.c ****     {
 440              		.loc 1 361 45 discriminator 3 view .LVU101
ARM GAS  C:\usertemp\cccKQ01c.s 			page 29


 441 0036 013B     		subs	r3, r3, #1
 442              	.LVL33:
 443              	.L26:
 361:Drivers/STM32H7xx_HAL_Driver/Src/stm32h7xx_hal_sram.c ****     {
 444              		.loc 1 361 34 discriminator 1 view .LVU102
 445 0038 002B     		cmp	r3, #0
 446 003a F8D1     		bne	.L27
 369:Drivers/STM32H7xx_HAL_Driver/Src/stm32h7xx_hal_sram.c **** 
 447              		.loc 1 369 5 view .LVU103
 369:Drivers/STM32H7xx_HAL_Driver/Src/stm32h7xx_hal_sram.c **** 
 448              		.loc 1 369 18 is_stmt 0 view .LVU104
 449 003c 8EF84500 		strb	r0, [lr, #69]
 372:Drivers/STM32H7xx_HAL_Driver/Src/stm32h7xx_hal_sram.c ****   }
 450              		.loc 1 372 5 is_stmt 1 view .LVU105
 372:Drivers/STM32H7xx_HAL_Driver/Src/stm32h7xx_hal_sram.c ****   }
 451              		.loc 1 372 5 view .LVU106
 452 0040 0020     		movs	r0, #0
 453              	.LVL34:
 372:Drivers/STM32H7xx_HAL_Driver/Src/stm32h7xx_hal_sram.c ****   }
 454              		.loc 1 372 5 is_stmt 0 view .LVU107
 455 0042 8EF84400 		strb	r0, [lr, #68]
 372:Drivers/STM32H7xx_HAL_Driver/Src/stm32h7xx_hal_sram.c ****   }
 456              		.loc 1 372 5 is_stmt 1 view .LVU108
 379:Drivers/STM32H7xx_HAL_Driver/Src/stm32h7xx_hal_sram.c **** }
 457              		.loc 1 379 3 view .LVU109
 458              	.LVL35:
 459              	.L25:
 380:Drivers/STM32H7xx_HAL_Driver/Src/stm32h7xx_hal_sram.c **** 
 460              		.loc 1 380 1 is_stmt 0 view .LVU110
 461 0046 5DF804FB 		ldr	pc, [sp], #4
 462              	.LVL36:
 463              	.L28:
 376:Drivers/STM32H7xx_HAL_Driver/Src/stm32h7xx_hal_sram.c ****   }
 464              		.loc 1 376 12 view .LVU111
 465 004a 0120     		movs	r0, #1
 466              	.LVL37:
 376:Drivers/STM32H7xx_HAL_Driver/Src/stm32h7xx_hal_sram.c ****   }
 467              		.loc 1 376 12 view .LVU112
 468 004c FBE7     		b	.L25
 469              	.LVL38:
 470              	.L29:
 355:Drivers/STM32H7xx_HAL_Driver/Src/stm32h7xx_hal_sram.c **** 
 471              		.loc 1 355 5 discriminator 1 view .LVU113
 472 004e 0220     		movs	r0, #2
 473              	.LVL39:
 355:Drivers/STM32H7xx_HAL_Driver/Src/stm32h7xx_hal_sram.c **** 
 474              		.loc 1 355 5 discriminator 1 view .LVU114
 475 0050 F9E7     		b	.L25
 476              		.cfi_endproc
 477              	.LFE339:
 479              		.section	.text.HAL_SRAM_Write_8b,"ax",%progbits
 480              		.align	1
 481              		.global	HAL_SRAM_Write_8b
 482              		.syntax unified
 483              		.thumb
 484              		.thumb_func
 486              	HAL_SRAM_Write_8b:
ARM GAS  C:\usertemp\cccKQ01c.s 			page 30


 487              	.LVL40:
 488              	.LFB340:
 393:Drivers/STM32H7xx_HAL_Driver/Src/stm32h7xx_hal_sram.c ****   uint32_t size;
 489              		.loc 1 393 1 is_stmt 1 view -0
 490              		.cfi_startproc
 491              		@ args = 0, pretend = 0, frame = 0
 492              		@ frame_needed = 0, uses_anonymous_args = 0
 493              		@ link register save eliminated.
 394:Drivers/STM32H7xx_HAL_Driver/Src/stm32h7xx_hal_sram.c ****   __IO uint8_t *psramaddress = (uint8_t *)pAddress;
 494              		.loc 1 394 3 view .LVU116
 395:Drivers/STM32H7xx_HAL_Driver/Src/stm32h7xx_hal_sram.c ****   uint8_t *psrcbuff = pSrcBuffer;
 495              		.loc 1 395 3 view .LVU117
 396:Drivers/STM32H7xx_HAL_Driver/Src/stm32h7xx_hal_sram.c **** 
 496              		.loc 1 396 3 view .LVU118
 399:Drivers/STM32H7xx_HAL_Driver/Src/stm32h7xx_hal_sram.c ****   {
 497              		.loc 1 399 3 view .LVU119
 399:Drivers/STM32H7xx_HAL_Driver/Src/stm32h7xx_hal_sram.c ****   {
 498              		.loc 1 399 12 is_stmt 0 view .LVU120
 499 0000 90F845C0 		ldrb	ip, [r0, #69]	@ zero_extendqisi2
 500 0004 5FFA8CFC 		uxtb	ip, ip
 399:Drivers/STM32H7xx_HAL_Driver/Src/stm32h7xx_hal_sram.c ****   {
 501              		.loc 1 399 6 view .LVU121
 502 0008 BCF1010F 		cmp	ip, #1
 503 000c 1CD1     		bne	.L35
 402:Drivers/STM32H7xx_HAL_Driver/Src/stm32h7xx_hal_sram.c **** 
 504              		.loc 1 402 5 is_stmt 1 view .LVU122
 402:Drivers/STM32H7xx_HAL_Driver/Src/stm32h7xx_hal_sram.c **** 
 505              		.loc 1 402 5 view .LVU123
 506 000e 90F844C0 		ldrb	ip, [r0, #68]	@ zero_extendqisi2
 507 0012 BCF1010F 		cmp	ip, #1
 508 0016 19D0     		beq	.L36
 402:Drivers/STM32H7xx_HAL_Driver/Src/stm32h7xx_hal_sram.c **** 
 509              		.loc 1 402 5 discriminator 2 view .LVU124
 510 0018 4FF0010C 		mov	ip, #1
 511 001c 80F844C0 		strb	ip, [r0, #68]
 402:Drivers/STM32H7xx_HAL_Driver/Src/stm32h7xx_hal_sram.c **** 
 512              		.loc 1 402 5 discriminator 2 view .LVU125
 405:Drivers/STM32H7xx_HAL_Driver/Src/stm32h7xx_hal_sram.c **** 
 513              		.loc 1 405 5 view .LVU126
 405:Drivers/STM32H7xx_HAL_Driver/Src/stm32h7xx_hal_sram.c **** 
 514              		.loc 1 405 18 is_stmt 0 view .LVU127
 515 0020 4FF0020C 		mov	ip, #2
 516 0024 80F845C0 		strb	ip, [r0, #69]
 408:Drivers/STM32H7xx_HAL_Driver/Src/stm32h7xx_hal_sram.c ****     {
 517              		.loc 1 408 5 is_stmt 1 view .LVU128
 518              	.LVL41:
 408:Drivers/STM32H7xx_HAL_Driver/Src/stm32h7xx_hal_sram.c ****     {
 519              		.loc 1 408 5 is_stmt 0 view .LVU129
 520 0028 04E0     		b	.L33
 521              	.LVL42:
 522              	.L34:
 410:Drivers/STM32H7xx_HAL_Driver/Src/stm32h7xx_hal_sram.c ****       psrcbuff++;
 523              		.loc 1 410 7 is_stmt 1 view .LVU130
 410:Drivers/STM32H7xx_HAL_Driver/Src/stm32h7xx_hal_sram.c ****       psrcbuff++;
 524              		.loc 1 410 23 is_stmt 0 view .LVU131
 525 002a 12F801CB 		ldrb	ip, [r2], #1	@ zero_extendqisi2
 526              	.LVL43:
ARM GAS  C:\usertemp\cccKQ01c.s 			page 31


 410:Drivers/STM32H7xx_HAL_Driver/Src/stm32h7xx_hal_sram.c ****       psrcbuff++;
 527              		.loc 1 410 21 view .LVU132
 528 002e 01F801CB 		strb	ip, [r1], #1
 529              	.LVL44:
 411:Drivers/STM32H7xx_HAL_Driver/Src/stm32h7xx_hal_sram.c ****       psramaddress++;
 530              		.loc 1 411 7 is_stmt 1 view .LVU133
 412:Drivers/STM32H7xx_HAL_Driver/Src/stm32h7xx_hal_sram.c ****     }
 531              		.loc 1 412 7 view .LVU134
 408:Drivers/STM32H7xx_HAL_Driver/Src/stm32h7xx_hal_sram.c ****     {
 532              		.loc 1 408 45 discriminator 3 view .LVU135
 533 0032 013B     		subs	r3, r3, #1
 534              	.LVL45:
 535              	.L33:
 408:Drivers/STM32H7xx_HAL_Driver/Src/stm32h7xx_hal_sram.c ****     {
 536              		.loc 1 408 34 discriminator 1 view .LVU136
 537 0034 002B     		cmp	r3, #0
 538 0036 F8D1     		bne	.L34
 416:Drivers/STM32H7xx_HAL_Driver/Src/stm32h7xx_hal_sram.c **** 
 539              		.loc 1 416 5 view .LVU137
 416:Drivers/STM32H7xx_HAL_Driver/Src/stm32h7xx_hal_sram.c **** 
 540              		.loc 1 416 18 is_stmt 0 view .LVU138
 541 0038 0123     		movs	r3, #1
 542              	.LVL46:
 416:Drivers/STM32H7xx_HAL_Driver/Src/stm32h7xx_hal_sram.c **** 
 543              		.loc 1 416 18 view .LVU139
 544 003a 80F84530 		strb	r3, [r0, #69]
 419:Drivers/STM32H7xx_HAL_Driver/Src/stm32h7xx_hal_sram.c ****   }
 545              		.loc 1 419 5 is_stmt 1 view .LVU140
 419:Drivers/STM32H7xx_HAL_Driver/Src/stm32h7xx_hal_sram.c ****   }
 546              		.loc 1 419 5 view .LVU141
 547 003e 0023     		movs	r3, #0
 548 0040 80F84430 		strb	r3, [r0, #68]
 419:Drivers/STM32H7xx_HAL_Driver/Src/stm32h7xx_hal_sram.c ****   }
 549              		.loc 1 419 5 view .LVU142
 426:Drivers/STM32H7xx_HAL_Driver/Src/stm32h7xx_hal_sram.c **** }
 550              		.loc 1 426 3 view .LVU143
 426:Drivers/STM32H7xx_HAL_Driver/Src/stm32h7xx_hal_sram.c **** }
 551              		.loc 1 426 10 is_stmt 0 view .LVU144
 552 0044 1846     		mov	r0, r3
 553              	.LVL47:
 426:Drivers/STM32H7xx_HAL_Driver/Src/stm32h7xx_hal_sram.c **** }
 554              		.loc 1 426 10 view .LVU145
 555 0046 7047     		bx	lr
 556              	.LVL48:
 557              	.L35:
 423:Drivers/STM32H7xx_HAL_Driver/Src/stm32h7xx_hal_sram.c ****   }
 558              		.loc 1 423 12 view .LVU146
 559 0048 0120     		movs	r0, #1
 560              	.LVL49:
 423:Drivers/STM32H7xx_HAL_Driver/Src/stm32h7xx_hal_sram.c ****   }
 561              		.loc 1 423 12 view .LVU147
 562 004a 7047     		bx	lr
 563              	.LVL50:
 564              	.L36:
 402:Drivers/STM32H7xx_HAL_Driver/Src/stm32h7xx_hal_sram.c **** 
 565              		.loc 1 402 5 discriminator 1 view .LVU148
 566 004c 0220     		movs	r0, #2
ARM GAS  C:\usertemp\cccKQ01c.s 			page 32


 567              	.LVL51:
 427:Drivers/STM32H7xx_HAL_Driver/Src/stm32h7xx_hal_sram.c **** 
 568              		.loc 1 427 1 view .LVU149
 569 004e 7047     		bx	lr
 570              		.cfi_endproc
 571              	.LFE340:
 573              		.section	.text.HAL_SRAM_Read_16b,"ax",%progbits
 574              		.align	1
 575              		.global	HAL_SRAM_Read_16b
 576              		.syntax unified
 577              		.thumb
 578              		.thumb_func
 580              	HAL_SRAM_Read_16b:
 581              	.LVL52:
 582              	.LFB341:
 440:Drivers/STM32H7xx_HAL_Driver/Src/stm32h7xx_hal_sram.c ****   uint32_t size;
 583              		.loc 1 440 1 is_stmt 1 view -0
 584              		.cfi_startproc
 585              		@ args = 0, pretend = 0, frame = 0
 586              		@ frame_needed = 0, uses_anonymous_args = 0
 440:Drivers/STM32H7xx_HAL_Driver/Src/stm32h7xx_hal_sram.c ****   uint32_t size;
 587              		.loc 1 440 1 is_stmt 0 view .LVU151
 588 0000 30B5     		push	{r4, r5, lr}
 589              	.LCFI7:
 590              		.cfi_def_cfa_offset 12
 591              		.cfi_offset 4, -12
 592              		.cfi_offset 5, -8
 593              		.cfi_offset 14, -4
 441:Drivers/STM32H7xx_HAL_Driver/Src/stm32h7xx_hal_sram.c ****   __IO uint32_t *psramaddress = pAddress;
 594              		.loc 1 441 3 is_stmt 1 view .LVU152
 442:Drivers/STM32H7xx_HAL_Driver/Src/stm32h7xx_hal_sram.c ****   uint16_t *pdestbuff = pDstBuffer;
 595              		.loc 1 442 3 view .LVU153
 596              	.LVL53:
 443:Drivers/STM32H7xx_HAL_Driver/Src/stm32h7xx_hal_sram.c ****   uint8_t limit;
 597              		.loc 1 443 3 view .LVU154
 444:Drivers/STM32H7xx_HAL_Driver/Src/stm32h7xx_hal_sram.c ****   HAL_SRAM_StateTypeDef state = hsram->State;
 598              		.loc 1 444 3 view .LVU155
 445:Drivers/STM32H7xx_HAL_Driver/Src/stm32h7xx_hal_sram.c **** 
 599              		.loc 1 445 3 view .LVU156
 445:Drivers/STM32H7xx_HAL_Driver/Src/stm32h7xx_hal_sram.c **** 
 600              		.loc 1 445 25 is_stmt 0 view .LVU157
 601 0002 90F84550 		ldrb	r5, [r0, #69]	@ zero_extendqisi2
 602 0006 EDB2     		uxtb	r5, r5
 603              	.LVL54:
 448:Drivers/STM32H7xx_HAL_Driver/Src/stm32h7xx_hal_sram.c ****   {
 604              		.loc 1 448 3 is_stmt 1 view .LVU158
 448:Drivers/STM32H7xx_HAL_Driver/Src/stm32h7xx_hal_sram.c ****   {
 605              		.loc 1 448 6 is_stmt 0 view .LVU159
 606 0008 042D     		cmp	r5, #4
 607 000a 18BF     		it	ne
 608 000c 012D     		cmpne	r5, #1
 609 000e 22D1     		bne	.L42
 610 0010 8646     		mov	lr, r0
 451:Drivers/STM32H7xx_HAL_Driver/Src/stm32h7xx_hal_sram.c **** 
 611              		.loc 1 451 5 is_stmt 1 view .LVU160
 451:Drivers/STM32H7xx_HAL_Driver/Src/stm32h7xx_hal_sram.c **** 
 612              		.loc 1 451 5 view .LVU161
ARM GAS  C:\usertemp\cccKQ01c.s 			page 33


 613 0012 90F84400 		ldrb	r0, [r0, #68]	@ zero_extendqisi2
 614              	.LVL55:
 451:Drivers/STM32H7xx_HAL_Driver/Src/stm32h7xx_hal_sram.c **** 
 615              		.loc 1 451 5 is_stmt 0 view .LVU162
 616 0016 0128     		cmp	r0, #1
 617 0018 1FD0     		beq	.L43
 451:Drivers/STM32H7xx_HAL_Driver/Src/stm32h7xx_hal_sram.c **** 
 618              		.loc 1 451 5 is_stmt 1 discriminator 2 view .LVU163
 619 001a 0120     		movs	r0, #1
 620 001c 8EF84400 		strb	r0, [lr, #68]
 451:Drivers/STM32H7xx_HAL_Driver/Src/stm32h7xx_hal_sram.c **** 
 621              		.loc 1 451 5 discriminator 2 view .LVU164
 454:Drivers/STM32H7xx_HAL_Driver/Src/stm32h7xx_hal_sram.c **** 
 622              		.loc 1 454 5 view .LVU165
 454:Drivers/STM32H7xx_HAL_Driver/Src/stm32h7xx_hal_sram.c **** 
 623              		.loc 1 454 18 is_stmt 0 view .LVU166
 624 0020 0220     		movs	r0, #2
 625 0022 8EF84500 		strb	r0, [lr, #69]
 457:Drivers/STM32H7xx_HAL_Driver/Src/stm32h7xx_hal_sram.c **** 
 626              		.loc 1 457 5 is_stmt 1 view .LVU167
 457:Drivers/STM32H7xx_HAL_Driver/Src/stm32h7xx_hal_sram.c **** 
 627              		.loc 1 457 11 is_stmt 0 view .LVU168
 628 0026 03F00100 		and	r0, r3, #1
 629              	.LVL56:
 460:Drivers/STM32H7xx_HAL_Driver/Src/stm32h7xx_hal_sram.c ****     {
 630              		.loc 1 460 5 is_stmt 1 view .LVU169
 460:Drivers/STM32H7xx_HAL_Driver/Src/stm32h7xx_hal_sram.c ****     {
 631              		.loc 1 460 5 is_stmt 0 view .LVU170
 632 002a 09E0     		b	.L39
 633              	.LVL57:
 634              	.L40:
 462:Drivers/STM32H7xx_HAL_Driver/Src/stm32h7xx_hal_sram.c ****       pdestbuff++;
 635              		.loc 1 462 7 is_stmt 1 view .LVU171
 462:Drivers/STM32H7xx_HAL_Driver/Src/stm32h7xx_hal_sram.c ****       pdestbuff++;
 636              		.loc 1 462 32 is_stmt 0 view .LVU172
 637 002c 0C68     		ldr	r4, [r1]
 462:Drivers/STM32H7xx_HAL_Driver/Src/stm32h7xx_hal_sram.c ****       pdestbuff++;
 638              		.loc 1 462 18 view .LVU173
 639 002e 1480     		strh	r4, [r2]	@ movhi
 463:Drivers/STM32H7xx_HAL_Driver/Src/stm32h7xx_hal_sram.c ****       *pdestbuff = (uint16_t)(((*psramaddress) & 0xFFFF0000U) >> 16U);
 640              		.loc 1 463 7 is_stmt 1 view .LVU174
 641              	.LVL58:
 464:Drivers/STM32H7xx_HAL_Driver/Src/stm32h7xx_hal_sram.c ****       pdestbuff++;
 642              		.loc 1 464 7 view .LVU175
 464:Drivers/STM32H7xx_HAL_Driver/Src/stm32h7xx_hal_sram.c ****       pdestbuff++;
 643              		.loc 1 464 33 is_stmt 0 view .LVU176
 644 0030 51F8044B 		ldr	r4, [r1], #4
 645              	.LVL59:
 464:Drivers/STM32H7xx_HAL_Driver/Src/stm32h7xx_hal_sram.c ****       pdestbuff++;
 646              		.loc 1 464 20 view .LVU177
 647 0034 4FEA144C 		lsr	ip, r4, #16
 464:Drivers/STM32H7xx_HAL_Driver/Src/stm32h7xx_hal_sram.c ****       pdestbuff++;
 648              		.loc 1 464 18 view .LVU178
 649 0038 A2F802C0 		strh	ip, [r2, #2]	@ movhi
 465:Drivers/STM32H7xx_HAL_Driver/Src/stm32h7xx_hal_sram.c ****       psramaddress++;
 650              		.loc 1 465 7 is_stmt 1 view .LVU179
 465:Drivers/STM32H7xx_HAL_Driver/Src/stm32h7xx_hal_sram.c ****       psramaddress++;
ARM GAS  C:\usertemp\cccKQ01c.s 			page 34


 651              		.loc 1 465 16 is_stmt 0 view .LVU180
 652 003c 0432     		adds	r2, r2, #4
 653              	.LVL60:
 466:Drivers/STM32H7xx_HAL_Driver/Src/stm32h7xx_hal_sram.c ****     }
 654              		.loc 1 466 7 is_stmt 1 view .LVU181
 460:Drivers/STM32H7xx_HAL_Driver/Src/stm32h7xx_hal_sram.c ****     {
 655              		.loc 1 460 49 discriminator 3 view .LVU182
 656 003e 023B     		subs	r3, r3, #2
 657              	.LVL61:
 658              	.L39:
 460:Drivers/STM32H7xx_HAL_Driver/Src/stm32h7xx_hal_sram.c ****     {
 659              		.loc 1 460 34 discriminator 1 view .LVU183
 660 0040 9842     		cmp	r0, r3
 661 0042 F3D1     		bne	.L40
 470:Drivers/STM32H7xx_HAL_Driver/Src/stm32h7xx_hal_sram.c ****     {
 662              		.loc 1 470 5 view .LVU184
 470:Drivers/STM32H7xx_HAL_Driver/Src/stm32h7xx_hal_sram.c ****     {
 663              		.loc 1 470 8 is_stmt 0 view .LVU185
 664 0044 08B1     		cbz	r0, .L41
 472:Drivers/STM32H7xx_HAL_Driver/Src/stm32h7xx_hal_sram.c ****     }
 665              		.loc 1 472 7 is_stmt 1 view .LVU186
 472:Drivers/STM32H7xx_HAL_Driver/Src/stm32h7xx_hal_sram.c ****     }
 666              		.loc 1 472 32 is_stmt 0 view .LVU187
 667 0046 0B68     		ldr	r3, [r1]
 668              	.LVL62:
 472:Drivers/STM32H7xx_HAL_Driver/Src/stm32h7xx_hal_sram.c ****     }
 669              		.loc 1 472 18 view .LVU188
 670 0048 1380     		strh	r3, [r2]	@ movhi
 671              	.L41:
 476:Drivers/STM32H7xx_HAL_Driver/Src/stm32h7xx_hal_sram.c **** 
 672              		.loc 1 476 5 is_stmt 1 view .LVU189
 476:Drivers/STM32H7xx_HAL_Driver/Src/stm32h7xx_hal_sram.c **** 
 673              		.loc 1 476 18 is_stmt 0 view .LVU190
 674 004a 8EF84550 		strb	r5, [lr, #69]
 479:Drivers/STM32H7xx_HAL_Driver/Src/stm32h7xx_hal_sram.c ****   }
 675              		.loc 1 479 5 is_stmt 1 view .LVU191
 479:Drivers/STM32H7xx_HAL_Driver/Src/stm32h7xx_hal_sram.c ****   }
 676              		.loc 1 479 5 view .LVU192
 677 004e 0020     		movs	r0, #0
 678              	.LVL63:
 479:Drivers/STM32H7xx_HAL_Driver/Src/stm32h7xx_hal_sram.c ****   }
 679              		.loc 1 479 5 is_stmt 0 view .LVU193
 680 0050 8EF84400 		strb	r0, [lr, #68]
 479:Drivers/STM32H7xx_HAL_Driver/Src/stm32h7xx_hal_sram.c ****   }
 681              		.loc 1 479 5 is_stmt 1 view .LVU194
 486:Drivers/STM32H7xx_HAL_Driver/Src/stm32h7xx_hal_sram.c **** }
 682              		.loc 1 486 3 view .LVU195
 683              	.LVL64:
 684              	.L38:
 487:Drivers/STM32H7xx_HAL_Driver/Src/stm32h7xx_hal_sram.c **** 
 685              		.loc 1 487 1 is_stmt 0 view .LVU196
 686 0054 30BD     		pop	{r4, r5, pc}
 687              	.LVL65:
 688              	.L42:
 483:Drivers/STM32H7xx_HAL_Driver/Src/stm32h7xx_hal_sram.c ****   }
 689              		.loc 1 483 12 view .LVU197
 690 0056 0120     		movs	r0, #1
ARM GAS  C:\usertemp\cccKQ01c.s 			page 35


 691              	.LVL66:
 483:Drivers/STM32H7xx_HAL_Driver/Src/stm32h7xx_hal_sram.c ****   }
 692              		.loc 1 483 12 view .LVU198
 693 0058 FCE7     		b	.L38
 694              	.LVL67:
 695              	.L43:
 451:Drivers/STM32H7xx_HAL_Driver/Src/stm32h7xx_hal_sram.c **** 
 696              		.loc 1 451 5 discriminator 1 view .LVU199
 697 005a 0220     		movs	r0, #2
 698 005c FAE7     		b	.L38
 699              		.cfi_endproc
 700              	.LFE341:
 702              		.section	.text.HAL_SRAM_Write_16b,"ax",%progbits
 703              		.align	1
 704              		.global	HAL_SRAM_Write_16b
 705              		.syntax unified
 706              		.thumb
 707              		.thumb_func
 709              	HAL_SRAM_Write_16b:
 710              	.LVL68:
 711              	.LFB342:
 500:Drivers/STM32H7xx_HAL_Driver/Src/stm32h7xx_hal_sram.c ****   uint32_t size;
 712              		.loc 1 500 1 is_stmt 1 view -0
 713              		.cfi_startproc
 714              		@ args = 0, pretend = 0, frame = 0
 715              		@ frame_needed = 0, uses_anonymous_args = 0
 716              		@ link register save eliminated.
 500:Drivers/STM32H7xx_HAL_Driver/Src/stm32h7xx_hal_sram.c ****   uint32_t size;
 717              		.loc 1 500 1 is_stmt 0 view .LVU201
 718 0000 30B4     		push	{r4, r5}
 719              	.LCFI8:
 720              		.cfi_def_cfa_offset 8
 721              		.cfi_offset 4, -8
 722              		.cfi_offset 5, -4
 501:Drivers/STM32H7xx_HAL_Driver/Src/stm32h7xx_hal_sram.c ****   __IO uint32_t *psramaddress = pAddress;
 723              		.loc 1 501 3 is_stmt 1 view .LVU202
 502:Drivers/STM32H7xx_HAL_Driver/Src/stm32h7xx_hal_sram.c ****   uint16_t *psrcbuff = pSrcBuffer;
 724              		.loc 1 502 3 view .LVU203
 725              	.LVL69:
 503:Drivers/STM32H7xx_HAL_Driver/Src/stm32h7xx_hal_sram.c ****   uint8_t limit;
 726              		.loc 1 503 3 view .LVU204
 504:Drivers/STM32H7xx_HAL_Driver/Src/stm32h7xx_hal_sram.c **** 
 727              		.loc 1 504 3 view .LVU205
 507:Drivers/STM32H7xx_HAL_Driver/Src/stm32h7xx_hal_sram.c ****   {
 728              		.loc 1 507 3 view .LVU206
 507:Drivers/STM32H7xx_HAL_Driver/Src/stm32h7xx_hal_sram.c ****   {
 729              		.loc 1 507 12 is_stmt 0 view .LVU207
 730 0002 90F84540 		ldrb	r4, [r0, #69]	@ zero_extendqisi2
 731 0006 E4B2     		uxtb	r4, r4
 507:Drivers/STM32H7xx_HAL_Driver/Src/stm32h7xx_hal_sram.c ****   {
 732              		.loc 1 507 6 view .LVU208
 733 0008 012C     		cmp	r4, #1
 734 000a 28D1     		bne	.L50
 510:Drivers/STM32H7xx_HAL_Driver/Src/stm32h7xx_hal_sram.c **** 
 735              		.loc 1 510 5 is_stmt 1 view .LVU209
 510:Drivers/STM32H7xx_HAL_Driver/Src/stm32h7xx_hal_sram.c **** 
 736              		.loc 1 510 5 view .LVU210
ARM GAS  C:\usertemp\cccKQ01c.s 			page 36


 737 000c 90F84440 		ldrb	r4, [r0, #68]	@ zero_extendqisi2
 738 0010 012C     		cmp	r4, #1
 739 0012 27D0     		beq	.L51
 510:Drivers/STM32H7xx_HAL_Driver/Src/stm32h7xx_hal_sram.c **** 
 740              		.loc 1 510 5 discriminator 2 view .LVU211
 741 0014 0124     		movs	r4, #1
 742 0016 80F84440 		strb	r4, [r0, #68]
 510:Drivers/STM32H7xx_HAL_Driver/Src/stm32h7xx_hal_sram.c **** 
 743              		.loc 1 510 5 discriminator 2 view .LVU212
 513:Drivers/STM32H7xx_HAL_Driver/Src/stm32h7xx_hal_sram.c **** 
 744              		.loc 1 513 5 view .LVU213
 513:Drivers/STM32H7xx_HAL_Driver/Src/stm32h7xx_hal_sram.c **** 
 745              		.loc 1 513 18 is_stmt 0 view .LVU214
 746 001a 0224     		movs	r4, #2
 747 001c 80F84540 		strb	r4, [r0, #69]
 516:Drivers/STM32H7xx_HAL_Driver/Src/stm32h7xx_hal_sram.c **** 
 748              		.loc 1 516 5 is_stmt 1 view .LVU215
 516:Drivers/STM32H7xx_HAL_Driver/Src/stm32h7xx_hal_sram.c **** 
 749              		.loc 1 516 11 is_stmt 0 view .LVU216
 750 0020 03F00105 		and	r5, r3, #1
 751              	.LVL70:
 519:Drivers/STM32H7xx_HAL_Driver/Src/stm32h7xx_hal_sram.c ****     {
 752              		.loc 1 519 5 is_stmt 1 view .LVU217
 519:Drivers/STM32H7xx_HAL_Driver/Src/stm32h7xx_hal_sram.c ****     {
 753              		.loc 1 519 5 is_stmt 0 view .LVU218
 754 0024 0AE0     		b	.L47
 755              	.LVL71:
 756              	.L48:
 521:Drivers/STM32H7xx_HAL_Driver/Src/stm32h7xx_hal_sram.c ****       psrcbuff++;
 757              		.loc 1 521 7 is_stmt 1 view .LVU219
 521:Drivers/STM32H7xx_HAL_Driver/Src/stm32h7xx_hal_sram.c ****       psrcbuff++;
 758              		.loc 1 521 34 is_stmt 0 view .LVU220
 759 0026 1488     		ldrh	r4, [r2]
 521:Drivers/STM32H7xx_HAL_Driver/Src/stm32h7xx_hal_sram.c ****       psrcbuff++;
 760              		.loc 1 521 21 view .LVU221
 761 0028 0C60     		str	r4, [r1]
 522:Drivers/STM32H7xx_HAL_Driver/Src/stm32h7xx_hal_sram.c ****       *psramaddress |= ((uint32_t)(*psrcbuff) << 16U);
 762              		.loc 1 522 7 is_stmt 1 view .LVU222
 763              	.LVL72:
 523:Drivers/STM32H7xx_HAL_Driver/Src/stm32h7xx_hal_sram.c ****       psrcbuff++;
 764              		.loc 1 523 7 view .LVU223
 765 002a 0C68     		ldr	r4, [r1]
 523:Drivers/STM32H7xx_HAL_Driver/Src/stm32h7xx_hal_sram.c ****       psrcbuff++;
 766              		.loc 1 523 36 is_stmt 0 view .LVU224
 767 002c B2F802C0 		ldrh	ip, [r2, #2]
 523:Drivers/STM32H7xx_HAL_Driver/Src/stm32h7xx_hal_sram.c ****       psrcbuff++;
 768              		.loc 1 523 21 view .LVU225
 769 0030 44EA0C44 		orr	r4, r4, ip, lsl #16
 770 0034 41F8044B 		str	r4, [r1], #4
 771              	.LVL73:
 524:Drivers/STM32H7xx_HAL_Driver/Src/stm32h7xx_hal_sram.c ****       psramaddress++;
 772              		.loc 1 524 7 is_stmt 1 view .LVU226
 524:Drivers/STM32H7xx_HAL_Driver/Src/stm32h7xx_hal_sram.c ****       psramaddress++;
 773              		.loc 1 524 15 is_stmt 0 view .LVU227
 774 0038 0432     		adds	r2, r2, #4
 775              	.LVL74:
 525:Drivers/STM32H7xx_HAL_Driver/Src/stm32h7xx_hal_sram.c ****     }
ARM GAS  C:\usertemp\cccKQ01c.s 			page 37


 776              		.loc 1 525 7 is_stmt 1 view .LVU228
 519:Drivers/STM32H7xx_HAL_Driver/Src/stm32h7xx_hal_sram.c ****     {
 777              		.loc 1 519 49 discriminator 3 view .LVU229
 778 003a 023B     		subs	r3, r3, #2
 779              	.LVL75:
 780              	.L47:
 519:Drivers/STM32H7xx_HAL_Driver/Src/stm32h7xx_hal_sram.c ****     {
 781              		.loc 1 519 34 discriminator 1 view .LVU230
 782 003c 9D42     		cmp	r5, r3
 783 003e F2D1     		bne	.L48
 529:Drivers/STM32H7xx_HAL_Driver/Src/stm32h7xx_hal_sram.c ****     {
 784              		.loc 1 529 5 view .LVU231
 529:Drivers/STM32H7xx_HAL_Driver/Src/stm32h7xx_hal_sram.c ****     {
 785              		.loc 1 529 8 is_stmt 0 view .LVU232
 786 0040 2DB1     		cbz	r5, .L49
 531:Drivers/STM32H7xx_HAL_Driver/Src/stm32h7xx_hal_sram.c ****     }
 787              		.loc 1 531 7 is_stmt 1 view .LVU233
 531:Drivers/STM32H7xx_HAL_Driver/Src/stm32h7xx_hal_sram.c ****     }
 788              		.loc 1 531 35 is_stmt 0 view .LVU234
 789 0042 1388     		ldrh	r3, [r2]
 790              	.LVL76:
 531:Drivers/STM32H7xx_HAL_Driver/Src/stm32h7xx_hal_sram.c ****     }
 791              		.loc 1 531 65 view .LVU235
 792 0044 0A68     		ldr	r2, [r1]
 793              	.LVL77:
 531:Drivers/STM32H7xx_HAL_Driver/Src/stm32h7xx_hal_sram.c ****     }
 794              		.loc 1 531 80 view .LVU236
 795 0046 6FF30F02 		bfc	r2, #0, #16
 531:Drivers/STM32H7xx_HAL_Driver/Src/stm32h7xx_hal_sram.c ****     }
 796              		.loc 1 531 61 view .LVU237
 797 004a 1343     		orrs	r3, r3, r2
 531:Drivers/STM32H7xx_HAL_Driver/Src/stm32h7xx_hal_sram.c ****     }
 798              		.loc 1 531 21 view .LVU238
 799 004c 0B60     		str	r3, [r1]
 800              	.L49:
 535:Drivers/STM32H7xx_HAL_Driver/Src/stm32h7xx_hal_sram.c **** 
 801              		.loc 1 535 5 is_stmt 1 view .LVU239
 535:Drivers/STM32H7xx_HAL_Driver/Src/stm32h7xx_hal_sram.c **** 
 802              		.loc 1 535 18 is_stmt 0 view .LVU240
 803 004e 0123     		movs	r3, #1
 804 0050 80F84530 		strb	r3, [r0, #69]
 538:Drivers/STM32H7xx_HAL_Driver/Src/stm32h7xx_hal_sram.c ****   }
 805              		.loc 1 538 5 is_stmt 1 view .LVU241
 538:Drivers/STM32H7xx_HAL_Driver/Src/stm32h7xx_hal_sram.c ****   }
 806              		.loc 1 538 5 view .LVU242
 807 0054 0023     		movs	r3, #0
 808 0056 80F84430 		strb	r3, [r0, #68]
 538:Drivers/STM32H7xx_HAL_Driver/Src/stm32h7xx_hal_sram.c ****   }
 809              		.loc 1 538 5 view .LVU243
 545:Drivers/STM32H7xx_HAL_Driver/Src/stm32h7xx_hal_sram.c **** }
 810              		.loc 1 545 3 view .LVU244
 545:Drivers/STM32H7xx_HAL_Driver/Src/stm32h7xx_hal_sram.c **** }
 811              		.loc 1 545 10 is_stmt 0 view .LVU245
 812 005a 1846     		mov	r0, r3
 813              	.LVL78:
 545:Drivers/STM32H7xx_HAL_Driver/Src/stm32h7xx_hal_sram.c **** }
 814              		.loc 1 545 10 view .LVU246
ARM GAS  C:\usertemp\cccKQ01c.s 			page 38


 815 005c 00E0     		b	.L46
 816              	.LVL79:
 817              	.L50:
 542:Drivers/STM32H7xx_HAL_Driver/Src/stm32h7xx_hal_sram.c ****   }
 818              		.loc 1 542 12 view .LVU247
 819 005e 0120     		movs	r0, #1
 820              	.LVL80:
 821              	.L46:
 546:Drivers/STM32H7xx_HAL_Driver/Src/stm32h7xx_hal_sram.c **** 
 822              		.loc 1 546 1 view .LVU248
 823 0060 30BC     		pop	{r4, r5}
 824              	.LCFI9:
 825              		.cfi_remember_state
 826              		.cfi_restore 5
 827              		.cfi_restore 4
 828              		.cfi_def_cfa_offset 0
 829 0062 7047     		bx	lr
 830              	.LVL81:
 831              	.L51:
 832              	.LCFI10:
 833              		.cfi_restore_state
 510:Drivers/STM32H7xx_HAL_Driver/Src/stm32h7xx_hal_sram.c **** 
 834              		.loc 1 510 5 discriminator 1 view .LVU249
 835 0064 0220     		movs	r0, #2
 836              	.LVL82:
 510:Drivers/STM32H7xx_HAL_Driver/Src/stm32h7xx_hal_sram.c **** 
 837              		.loc 1 510 5 discriminator 1 view .LVU250
 838 0066 FBE7     		b	.L46
 839              		.cfi_endproc
 840              	.LFE342:
 842              		.section	.text.HAL_SRAM_Read_32b,"ax",%progbits
 843              		.align	1
 844              		.global	HAL_SRAM_Read_32b
 845              		.syntax unified
 846              		.thumb
 847              		.thumb_func
 849              	HAL_SRAM_Read_32b:
 850              	.LVL83:
 851              	.LFB343:
 559:Drivers/STM32H7xx_HAL_Driver/Src/stm32h7xx_hal_sram.c ****   uint32_t size;
 852              		.loc 1 559 1 is_stmt 1 view -0
 853              		.cfi_startproc
 854              		@ args = 0, pretend = 0, frame = 0
 855              		@ frame_needed = 0, uses_anonymous_args = 0
 856              		@ link register save eliminated.
 559:Drivers/STM32H7xx_HAL_Driver/Src/stm32h7xx_hal_sram.c ****   uint32_t size;
 857              		.loc 1 559 1 is_stmt 0 view .LVU252
 858 0000 8446     		mov	ip, r0
 560:Drivers/STM32H7xx_HAL_Driver/Src/stm32h7xx_hal_sram.c ****   __IO uint32_t *psramaddress = pAddress;
 859              		.loc 1 560 3 is_stmt 1 view .LVU253
 561:Drivers/STM32H7xx_HAL_Driver/Src/stm32h7xx_hal_sram.c ****   uint32_t *pdestbuff = pDstBuffer;
 860              		.loc 1 561 3 view .LVU254
 861              	.LVL84:
 562:Drivers/STM32H7xx_HAL_Driver/Src/stm32h7xx_hal_sram.c ****   HAL_SRAM_StateTypeDef state = hsram->State;
 862              		.loc 1 562 3 view .LVU255
 563:Drivers/STM32H7xx_HAL_Driver/Src/stm32h7xx_hal_sram.c **** 
 863              		.loc 1 563 3 view .LVU256
ARM GAS  C:\usertemp\cccKQ01c.s 			page 39


 563:Drivers/STM32H7xx_HAL_Driver/Src/stm32h7xx_hal_sram.c **** 
 864              		.loc 1 563 25 is_stmt 0 view .LVU257
 865 0002 90F84500 		ldrb	r0, [r0, #69]	@ zero_extendqisi2
 866              	.LVL85:
 563:Drivers/STM32H7xx_HAL_Driver/Src/stm32h7xx_hal_sram.c **** 
 867              		.loc 1 563 25 view .LVU258
 868 0006 C0B2     		uxtb	r0, r0
 869              	.LVL86:
 566:Drivers/STM32H7xx_HAL_Driver/Src/stm32h7xx_hal_sram.c ****   {
 870              		.loc 1 566 3 is_stmt 1 view .LVU259
 566:Drivers/STM32H7xx_HAL_Driver/Src/stm32h7xx_hal_sram.c ****   {
 871              		.loc 1 566 6 is_stmt 0 view .LVU260
 872 0008 0428     		cmp	r0, #4
 873 000a 18BF     		it	ne
 874 000c 0128     		cmpne	r0, #1
 875 000e 1AD1     		bne	.L57
 559:Drivers/STM32H7xx_HAL_Driver/Src/stm32h7xx_hal_sram.c ****   uint32_t size;
 876              		.loc 1 559 1 view .LVU261
 877 0010 10B4     		push	{r4}
 878              	.LCFI11:
 879              		.cfi_def_cfa_offset 4
 880              		.cfi_offset 4, -4
 569:Drivers/STM32H7xx_HAL_Driver/Src/stm32h7xx_hal_sram.c **** 
 881              		.loc 1 569 5 is_stmt 1 view .LVU262
 569:Drivers/STM32H7xx_HAL_Driver/Src/stm32h7xx_hal_sram.c **** 
 882              		.loc 1 569 5 view .LVU263
 883 0012 9CF84440 		ldrb	r4, [ip, #68]	@ zero_extendqisi2
 884 0016 012C     		cmp	r4, #1
 885 0018 17D0     		beq	.L58
 569:Drivers/STM32H7xx_HAL_Driver/Src/stm32h7xx_hal_sram.c **** 
 886              		.loc 1 569 5 discriminator 2 view .LVU264
 887 001a 0124     		movs	r4, #1
 888 001c 8CF84440 		strb	r4, [ip, #68]
 569:Drivers/STM32H7xx_HAL_Driver/Src/stm32h7xx_hal_sram.c **** 
 889              		.loc 1 569 5 discriminator 2 view .LVU265
 572:Drivers/STM32H7xx_HAL_Driver/Src/stm32h7xx_hal_sram.c **** 
 890              		.loc 1 572 5 view .LVU266
 572:Drivers/STM32H7xx_HAL_Driver/Src/stm32h7xx_hal_sram.c **** 
 891              		.loc 1 572 18 is_stmt 0 view .LVU267
 892 0020 0224     		movs	r4, #2
 893 0022 8CF84540 		strb	r4, [ip, #69]
 575:Drivers/STM32H7xx_HAL_Driver/Src/stm32h7xx_hal_sram.c ****     {
 894              		.loc 1 575 5 is_stmt 1 view .LVU268
 895              	.LVL87:
 575:Drivers/STM32H7xx_HAL_Driver/Src/stm32h7xx_hal_sram.c ****     {
 896              		.loc 1 575 5 is_stmt 0 view .LVU269
 897 0026 04E0     		b	.L55
 898              	.LVL88:
 899              	.L56:
 577:Drivers/STM32H7xx_HAL_Driver/Src/stm32h7xx_hal_sram.c ****       pdestbuff++;
 900              		.loc 1 577 7 is_stmt 1 view .LVU270
 577:Drivers/STM32H7xx_HAL_Driver/Src/stm32h7xx_hal_sram.c ****       pdestbuff++;
 901              		.loc 1 577 20 is_stmt 0 view .LVU271
 902 0028 51F8044B 		ldr	r4, [r1], #4
 903              	.LVL89:
 577:Drivers/STM32H7xx_HAL_Driver/Src/stm32h7xx_hal_sram.c ****       pdestbuff++;
 904              		.loc 1 577 18 view .LVU272
ARM GAS  C:\usertemp\cccKQ01c.s 			page 40


 905 002c 42F8044B 		str	r4, [r2], #4
 906              	.LVL90:
 578:Drivers/STM32H7xx_HAL_Driver/Src/stm32h7xx_hal_sram.c ****       psramaddress++;
 907              		.loc 1 578 7 is_stmt 1 view .LVU273
 579:Drivers/STM32H7xx_HAL_Driver/Src/stm32h7xx_hal_sram.c ****     }
 908              		.loc 1 579 7 view .LVU274
 575:Drivers/STM32H7xx_HAL_Driver/Src/stm32h7xx_hal_sram.c ****     {
 909              		.loc 1 575 45 discriminator 3 view .LVU275
 910 0030 013B     		subs	r3, r3, #1
 911              	.LVL91:
 912              	.L55:
 575:Drivers/STM32H7xx_HAL_Driver/Src/stm32h7xx_hal_sram.c ****     {
 913              		.loc 1 575 34 discriminator 1 view .LVU276
 914 0032 002B     		cmp	r3, #0
 915 0034 F8D1     		bne	.L56
 583:Drivers/STM32H7xx_HAL_Driver/Src/stm32h7xx_hal_sram.c **** 
 916              		.loc 1 583 5 view .LVU277
 583:Drivers/STM32H7xx_HAL_Driver/Src/stm32h7xx_hal_sram.c **** 
 917              		.loc 1 583 18 is_stmt 0 view .LVU278
 918 0036 8CF84500 		strb	r0, [ip, #69]
 586:Drivers/STM32H7xx_HAL_Driver/Src/stm32h7xx_hal_sram.c ****   }
 919              		.loc 1 586 5 is_stmt 1 view .LVU279
 586:Drivers/STM32H7xx_HAL_Driver/Src/stm32h7xx_hal_sram.c ****   }
 920              		.loc 1 586 5 view .LVU280
 921 003a 0020     		movs	r0, #0
 922              	.LVL92:
 586:Drivers/STM32H7xx_HAL_Driver/Src/stm32h7xx_hal_sram.c ****   }
 923              		.loc 1 586 5 is_stmt 0 view .LVU281
 924 003c 8CF84400 		strb	r0, [ip, #68]
 586:Drivers/STM32H7xx_HAL_Driver/Src/stm32h7xx_hal_sram.c ****   }
 925              		.loc 1 586 5 is_stmt 1 view .LVU282
 593:Drivers/STM32H7xx_HAL_Driver/Src/stm32h7xx_hal_sram.c **** }
 926              		.loc 1 593 3 view .LVU283
 927              	.LVL93:
 928              	.L54:
 594:Drivers/STM32H7xx_HAL_Driver/Src/stm32h7xx_hal_sram.c **** 
 929              		.loc 1 594 1 is_stmt 0 view .LVU284
 930 0040 5DF8044B 		ldr	r4, [sp], #4
 931              	.LCFI12:
 932              		.cfi_restore 4
 933              		.cfi_def_cfa_offset 0
 934 0044 7047     		bx	lr
 935              	.LVL94:
 936              	.L57:
 590:Drivers/STM32H7xx_HAL_Driver/Src/stm32h7xx_hal_sram.c ****   }
 937              		.loc 1 590 12 view .LVU285
 938 0046 0120     		movs	r0, #1
 939              	.LVL95:
 594:Drivers/STM32H7xx_HAL_Driver/Src/stm32h7xx_hal_sram.c **** 
 940              		.loc 1 594 1 view .LVU286
 941 0048 7047     		bx	lr
 942              	.LVL96:
 943              	.L58:
 944              	.LCFI13:
 945              		.cfi_def_cfa_offset 4
 946              		.cfi_offset 4, -4
 569:Drivers/STM32H7xx_HAL_Driver/Src/stm32h7xx_hal_sram.c **** 
ARM GAS  C:\usertemp\cccKQ01c.s 			page 41


 947              		.loc 1 569 5 discriminator 1 view .LVU287
 948 004a 0220     		movs	r0, #2
 949              	.LVL97:
 569:Drivers/STM32H7xx_HAL_Driver/Src/stm32h7xx_hal_sram.c **** 
 950              		.loc 1 569 5 discriminator 1 view .LVU288
 951 004c F8E7     		b	.L54
 952              		.cfi_endproc
 953              	.LFE343:
 955              		.section	.text.HAL_SRAM_Write_32b,"ax",%progbits
 956              		.align	1
 957              		.global	HAL_SRAM_Write_32b
 958              		.syntax unified
 959              		.thumb
 960              		.thumb_func
 962              	HAL_SRAM_Write_32b:
 963              	.LVL98:
 964              	.LFB344:
 607:Drivers/STM32H7xx_HAL_Driver/Src/stm32h7xx_hal_sram.c ****   uint32_t size;
 965              		.loc 1 607 1 is_stmt 1 view -0
 966              		.cfi_startproc
 967              		@ args = 0, pretend = 0, frame = 0
 968              		@ frame_needed = 0, uses_anonymous_args = 0
 969              		@ link register save eliminated.
 607:Drivers/STM32H7xx_HAL_Driver/Src/stm32h7xx_hal_sram.c ****   uint32_t size;
 970              		.loc 1 607 1 is_stmt 0 view .LVU290
 971 0000 10B4     		push	{r4}
 972              	.LCFI14:
 973              		.cfi_def_cfa_offset 4
 974              		.cfi_offset 4, -4
 608:Drivers/STM32H7xx_HAL_Driver/Src/stm32h7xx_hal_sram.c ****   __IO uint32_t *psramaddress = pAddress;
 975              		.loc 1 608 3 is_stmt 1 view .LVU291
 609:Drivers/STM32H7xx_HAL_Driver/Src/stm32h7xx_hal_sram.c ****   uint32_t *psrcbuff = pSrcBuffer;
 976              		.loc 1 609 3 view .LVU292
 977              	.LVL99:
 610:Drivers/STM32H7xx_HAL_Driver/Src/stm32h7xx_hal_sram.c **** 
 978              		.loc 1 610 3 view .LVU293
 613:Drivers/STM32H7xx_HAL_Driver/Src/stm32h7xx_hal_sram.c ****   {
 979              		.loc 1 613 3 view .LVU294
 613:Drivers/STM32H7xx_HAL_Driver/Src/stm32h7xx_hal_sram.c ****   {
 980              		.loc 1 613 12 is_stmt 0 view .LVU295
 981 0002 90F84540 		ldrb	r4, [r0, #69]	@ zero_extendqisi2
 982 0006 E4B2     		uxtb	r4, r4
 613:Drivers/STM32H7xx_HAL_Driver/Src/stm32h7xx_hal_sram.c ****   {
 983              		.loc 1 613 6 view .LVU296
 984 0008 012C     		cmp	r4, #1
 985 000a 19D1     		bne	.L67
 616:Drivers/STM32H7xx_HAL_Driver/Src/stm32h7xx_hal_sram.c **** 
 986              		.loc 1 616 5 is_stmt 1 view .LVU297
 616:Drivers/STM32H7xx_HAL_Driver/Src/stm32h7xx_hal_sram.c **** 
 987              		.loc 1 616 5 view .LVU298
 988 000c 90F84440 		ldrb	r4, [r0, #68]	@ zero_extendqisi2
 989 0010 012C     		cmp	r4, #1
 990 0012 19D0     		beq	.L68
 616:Drivers/STM32H7xx_HAL_Driver/Src/stm32h7xx_hal_sram.c **** 
 991              		.loc 1 616 5 discriminator 2 view .LVU299
 992 0014 0124     		movs	r4, #1
 993 0016 80F84440 		strb	r4, [r0, #68]
ARM GAS  C:\usertemp\cccKQ01c.s 			page 42


 616:Drivers/STM32H7xx_HAL_Driver/Src/stm32h7xx_hal_sram.c **** 
 994              		.loc 1 616 5 discriminator 2 view .LVU300
 619:Drivers/STM32H7xx_HAL_Driver/Src/stm32h7xx_hal_sram.c **** 
 995              		.loc 1 619 5 view .LVU301
 619:Drivers/STM32H7xx_HAL_Driver/Src/stm32h7xx_hal_sram.c **** 
 996              		.loc 1 619 18 is_stmt 0 view .LVU302
 997 001a 0224     		movs	r4, #2
 998 001c 80F84540 		strb	r4, [r0, #69]
 622:Drivers/STM32H7xx_HAL_Driver/Src/stm32h7xx_hal_sram.c ****     {
 999              		.loc 1 622 5 is_stmt 1 view .LVU303
 1000              	.LVL100:
 622:Drivers/STM32H7xx_HAL_Driver/Src/stm32h7xx_hal_sram.c ****     {
 1001              		.loc 1 622 5 is_stmt 0 view .LVU304
 1002 0020 04E0     		b	.L65
 1003              	.LVL101:
 1004              	.L66:
 624:Drivers/STM32H7xx_HAL_Driver/Src/stm32h7xx_hal_sram.c ****       psrcbuff++;
 1005              		.loc 1 624 7 is_stmt 1 view .LVU305
 624:Drivers/STM32H7xx_HAL_Driver/Src/stm32h7xx_hal_sram.c ****       psrcbuff++;
 1006              		.loc 1 624 23 is_stmt 0 view .LVU306
 1007 0022 52F8044B 		ldr	r4, [r2], #4
 1008              	.LVL102:
 624:Drivers/STM32H7xx_HAL_Driver/Src/stm32h7xx_hal_sram.c ****       psrcbuff++;
 1009              		.loc 1 624 21 view .LVU307
 1010 0026 41F8044B 		str	r4, [r1], #4
 1011              	.LVL103:
 625:Drivers/STM32H7xx_HAL_Driver/Src/stm32h7xx_hal_sram.c ****       psramaddress++;
 1012              		.loc 1 625 7 is_stmt 1 view .LVU308
 626:Drivers/STM32H7xx_HAL_Driver/Src/stm32h7xx_hal_sram.c ****     }
 1013              		.loc 1 626 7 view .LVU309
 622:Drivers/STM32H7xx_HAL_Driver/Src/stm32h7xx_hal_sram.c ****     {
 1014              		.loc 1 622 45 discriminator 3 view .LVU310
 1015 002a 013B     		subs	r3, r3, #1
 1016              	.LVL104:
 1017              	.L65:
 622:Drivers/STM32H7xx_HAL_Driver/Src/stm32h7xx_hal_sram.c ****     {
 1018              		.loc 1 622 34 discriminator 1 view .LVU311
 1019 002c 002B     		cmp	r3, #0
 1020 002e F8D1     		bne	.L66
 630:Drivers/STM32H7xx_HAL_Driver/Src/stm32h7xx_hal_sram.c **** 
 1021              		.loc 1 630 5 view .LVU312
 630:Drivers/STM32H7xx_HAL_Driver/Src/stm32h7xx_hal_sram.c **** 
 1022              		.loc 1 630 18 is_stmt 0 view .LVU313
 1023 0030 0123     		movs	r3, #1
 1024              	.LVL105:
 630:Drivers/STM32H7xx_HAL_Driver/Src/stm32h7xx_hal_sram.c **** 
 1025              		.loc 1 630 18 view .LVU314
 1026 0032 80F84530 		strb	r3, [r0, #69]
 633:Drivers/STM32H7xx_HAL_Driver/Src/stm32h7xx_hal_sram.c ****   }
 1027              		.loc 1 633 5 is_stmt 1 view .LVU315
 633:Drivers/STM32H7xx_HAL_Driver/Src/stm32h7xx_hal_sram.c ****   }
 1028              		.loc 1 633 5 view .LVU316
 1029 0036 0023     		movs	r3, #0
 1030 0038 80F84430 		strb	r3, [r0, #68]
 633:Drivers/STM32H7xx_HAL_Driver/Src/stm32h7xx_hal_sram.c ****   }
 1031              		.loc 1 633 5 view .LVU317
 640:Drivers/STM32H7xx_HAL_Driver/Src/stm32h7xx_hal_sram.c **** }
ARM GAS  C:\usertemp\cccKQ01c.s 			page 43


 1032              		.loc 1 640 3 view .LVU318
 640:Drivers/STM32H7xx_HAL_Driver/Src/stm32h7xx_hal_sram.c **** }
 1033              		.loc 1 640 10 is_stmt 0 view .LVU319
 1034 003c 1846     		mov	r0, r3
 1035              	.LVL106:
 640:Drivers/STM32H7xx_HAL_Driver/Src/stm32h7xx_hal_sram.c **** }
 1036              		.loc 1 640 10 view .LVU320
 1037 003e 00E0     		b	.L64
 1038              	.LVL107:
 1039              	.L67:
 637:Drivers/STM32H7xx_HAL_Driver/Src/stm32h7xx_hal_sram.c ****   }
 1040              		.loc 1 637 12 view .LVU321
 1041 0040 0120     		movs	r0, #1
 1042              	.LVL108:
 1043              	.L64:
 641:Drivers/STM32H7xx_HAL_Driver/Src/stm32h7xx_hal_sram.c **** 
 1044              		.loc 1 641 1 view .LVU322
 1045 0042 5DF8044B 		ldr	r4, [sp], #4
 1046              	.LCFI15:
 1047              		.cfi_remember_state
 1048              		.cfi_restore 4
 1049              		.cfi_def_cfa_offset 0
 1050 0046 7047     		bx	lr
 1051              	.LVL109:
 1052              	.L68:
 1053              	.LCFI16:
 1054              		.cfi_restore_state
 616:Drivers/STM32H7xx_HAL_Driver/Src/stm32h7xx_hal_sram.c **** 
 1055              		.loc 1 616 5 discriminator 1 view .LVU323
 1056 0048 0220     		movs	r0, #2
 1057              	.LVL110:
 616:Drivers/STM32H7xx_HAL_Driver/Src/stm32h7xx_hal_sram.c **** 
 1058              		.loc 1 616 5 discriminator 1 view .LVU324
 1059 004a FAE7     		b	.L64
 1060              		.cfi_endproc
 1061              	.LFE344:
 1063              		.section	.text.HAL_SRAM_Read_DMA,"ax",%progbits
 1064              		.align	1
 1065              		.global	HAL_SRAM_Read_DMA
 1066              		.syntax unified
 1067              		.thumb
 1068              		.thumb_func
 1070              	HAL_SRAM_Read_DMA:
 1071              	.LVL111:
 1072              	.LFB345:
 654:Drivers/STM32H7xx_HAL_Driver/Src/stm32h7xx_hal_sram.c ****   HAL_StatusTypeDef status;
 1073              		.loc 1 654 1 is_stmt 1 view -0
 1074              		.cfi_startproc
 1075              		@ args = 0, pretend = 0, frame = 0
 1076              		@ frame_needed = 0, uses_anonymous_args = 0
 654:Drivers/STM32H7xx_HAL_Driver/Src/stm32h7xx_hal_sram.c ****   HAL_StatusTypeDef status;
 1077              		.loc 1 654 1 is_stmt 0 view .LVU326
 1078 0000 30B5     		push	{r4, r5, lr}
 1079              	.LCFI17:
 1080              		.cfi_def_cfa_offset 12
 1081              		.cfi_offset 4, -12
 1082              		.cfi_offset 5, -8
ARM GAS  C:\usertemp\cccKQ01c.s 			page 44


 1083              		.cfi_offset 14, -4
 1084 0002 83B0     		sub	sp, sp, #12
 1085              	.LCFI18:
 1086              		.cfi_def_cfa_offset 24
 1087 0004 0446     		mov	r4, r0
 655:Drivers/STM32H7xx_HAL_Driver/Src/stm32h7xx_hal_sram.c ****   HAL_SRAM_StateTypeDef state = hsram->State;
 1088              		.loc 1 655 3 is_stmt 1 view .LVU327
 656:Drivers/STM32H7xx_HAL_Driver/Src/stm32h7xx_hal_sram.c **** 
 1089              		.loc 1 656 3 view .LVU328
 656:Drivers/STM32H7xx_HAL_Driver/Src/stm32h7xx_hal_sram.c **** 
 1090              		.loc 1 656 25 is_stmt 0 view .LVU329
 1091 0006 90F84500 		ldrb	r0, [r0, #69]	@ zero_extendqisi2
 1092              	.LVL112:
 656:Drivers/STM32H7xx_HAL_Driver/Src/stm32h7xx_hal_sram.c **** 
 1093              		.loc 1 656 25 view .LVU330
 1094 000a C0B2     		uxtb	r0, r0
 1095              	.LVL113:
 659:Drivers/STM32H7xx_HAL_Driver/Src/stm32h7xx_hal_sram.c ****   {
 1096              		.loc 1 659 3 is_stmt 1 view .LVU331
 659:Drivers/STM32H7xx_HAL_Driver/Src/stm32h7xx_hal_sram.c ****   {
 1097              		.loc 1 659 6 is_stmt 0 view .LVU332
 1098 000c 0428     		cmp	r0, #4
 1099 000e 18BF     		it	ne
 1100 0010 0128     		cmpne	r0, #1
 1101 0012 20D1     		bne	.L74
 662:Drivers/STM32H7xx_HAL_Driver/Src/stm32h7xx_hal_sram.c **** 
 1102              		.loc 1 662 5 is_stmt 1 view .LVU333
 662:Drivers/STM32H7xx_HAL_Driver/Src/stm32h7xx_hal_sram.c **** 
 1103              		.loc 1 662 5 view .LVU334
 1104 0014 94F844C0 		ldrb	ip, [r4, #68]	@ zero_extendqisi2
 1105 0018 BCF1010F 		cmp	ip, #1
 1106 001c 1ED0     		beq	.L75
 662:Drivers/STM32H7xx_HAL_Driver/Src/stm32h7xx_hal_sram.c **** 
 1107              		.loc 1 662 5 discriminator 2 view .LVU335
 1108 001e 0125     		movs	r5, #1
 1109 0020 84F84450 		strb	r5, [r4, #68]
 662:Drivers/STM32H7xx_HAL_Driver/Src/stm32h7xx_hal_sram.c **** 
 1110              		.loc 1 662 5 discriminator 2 view .LVU336
 665:Drivers/STM32H7xx_HAL_Driver/Src/stm32h7xx_hal_sram.c **** 
 1111              		.loc 1 665 5 view .LVU337
 665:Drivers/STM32H7xx_HAL_Driver/Src/stm32h7xx_hal_sram.c **** 
 1112              		.loc 1 665 18 is_stmt 0 view .LVU338
 1113 0024 0225     		movs	r5, #2
 1114 0026 84F84550 		strb	r5, [r4, #69]
 668:Drivers/STM32H7xx_HAL_Driver/Src/stm32h7xx_hal_sram.c ****     {
 1115              		.loc 1 668 5 is_stmt 1 view .LVU339
 668:Drivers/STM32H7xx_HAL_Driver/Src/stm32h7xx_hal_sram.c ****     {
 1116              		.loc 1 668 8 is_stmt 0 view .LVU340
 1117 002a 0128     		cmp	r0, #1
 1118 002c 0FD0     		beq	.L77
 674:Drivers/STM32H7xx_HAL_Driver/Src/stm32h7xx_hal_sram.c ****     }
 1119              		.loc 1 674 7 is_stmt 1 view .LVU341
 674:Drivers/STM32H7xx_HAL_Driver/Src/stm32h7xx_hal_sram.c ****     }
 1120              		.loc 1 674 12 is_stmt 0 view .LVU342
 1121 002e A06C     		ldr	r0, [r4, #72]
 1122              	.LVL114:
 674:Drivers/STM32H7xx_HAL_Driver/Src/stm32h7xx_hal_sram.c ****     }
ARM GAS  C:\usertemp\cccKQ01c.s 			page 45


 1123              		.loc 1 674 38 view .LVU343
 1124 0030 0B4D     		ldr	r5, .L78
 1125 0032 4564     		str	r5, [r0, #68]
 1126              	.L73:
 676:Drivers/STM32H7xx_HAL_Driver/Src/stm32h7xx_hal_sram.c **** 
 1127              		.loc 1 676 5 is_stmt 1 view .LVU344
 676:Drivers/STM32H7xx_HAL_Driver/Src/stm32h7xx_hal_sram.c **** 
 1128              		.loc 1 676 10 is_stmt 0 view .LVU345
 1129 0034 A06C     		ldr	r0, [r4, #72]
 676:Drivers/STM32H7xx_HAL_Driver/Src/stm32h7xx_hal_sram.c **** 
 1130              		.loc 1 676 37 view .LVU346
 1131 0036 0B4D     		ldr	r5, .L78+4
 1132 0038 4565     		str	r5, [r0, #84]
 679:Drivers/STM32H7xx_HAL_Driver/Src/stm32h7xx_hal_sram.c **** 
 1133              		.loc 1 679 5 is_stmt 1 view .LVU347
 679:Drivers/STM32H7xx_HAL_Driver/Src/stm32h7xx_hal_sram.c **** 
 1134              		.loc 1 679 14 is_stmt 0 view .LVU348
 1135 003a 0120     		movs	r0, #1
 1136 003c 0090     		str	r0, [sp]
 1137 003e 9B00     		lsls	r3, r3, #2
 1138              	.LVL115:
 679:Drivers/STM32H7xx_HAL_Driver/Src/stm32h7xx_hal_sram.c **** 
 1139              		.loc 1 679 14 view .LVU349
 1140 0040 A06C     		ldr	r0, [r4, #72]
 1141 0042 FFF7FEFF 		bl	HAL_MDMA_Start_IT
 1142              	.LVL116:
 682:Drivers/STM32H7xx_HAL_Driver/Src/stm32h7xx_hal_sram.c ****   }
 1143              		.loc 1 682 5 is_stmt 1 view .LVU350
 682:Drivers/STM32H7xx_HAL_Driver/Src/stm32h7xx_hal_sram.c ****   }
 1144              		.loc 1 682 5 view .LVU351
 1145 0046 0023     		movs	r3, #0
 1146 0048 84F84430 		strb	r3, [r4, #68]
 682:Drivers/STM32H7xx_HAL_Driver/Src/stm32h7xx_hal_sram.c ****   }
 1147              		.loc 1 682 5 view .LVU352
 1148 004c 04E0     		b	.L71
 1149              	.LVL117:
 1150              	.L77:
 670:Drivers/STM32H7xx_HAL_Driver/Src/stm32h7xx_hal_sram.c ****     }
 1151              		.loc 1 670 7 view .LVU353
 670:Drivers/STM32H7xx_HAL_Driver/Src/stm32h7xx_hal_sram.c ****     }
 1152              		.loc 1 670 12 is_stmt 0 view .LVU354
 1153 004e A06C     		ldr	r0, [r4, #72]
 1154              	.LVL118:
 670:Drivers/STM32H7xx_HAL_Driver/Src/stm32h7xx_hal_sram.c ****     }
 1155              		.loc 1 670 38 view .LVU355
 1156 0050 054D     		ldr	r5, .L78+8
 1157 0052 4564     		str	r5, [r0, #68]
 1158 0054 EEE7     		b	.L73
 1159              	.LVL119:
 1160              	.L74:
 686:Drivers/STM32H7xx_HAL_Driver/Src/stm32h7xx_hal_sram.c ****   }
 1161              		.loc 1 686 12 view .LVU356
 1162 0056 0120     		movs	r0, #1
 1163              	.LVL120:
 1164              	.L71:
 690:Drivers/STM32H7xx_HAL_Driver/Src/stm32h7xx_hal_sram.c **** 
 1165              		.loc 1 690 1 view .LVU357
ARM GAS  C:\usertemp\cccKQ01c.s 			page 46


 1166 0058 03B0     		add	sp, sp, #12
 1167              	.LCFI19:
 1168              		.cfi_remember_state
 1169              		.cfi_def_cfa_offset 12
 1170              		@ sp needed
 1171 005a 30BD     		pop	{r4, r5, pc}
 1172              	.LVL121:
 1173              	.L75:
 1174              	.LCFI20:
 1175              		.cfi_restore_state
 662:Drivers/STM32H7xx_HAL_Driver/Src/stm32h7xx_hal_sram.c **** 
 1176              		.loc 1 662 5 discriminator 1 view .LVU358
 1177 005c 0220     		movs	r0, #2
 1178              	.LVL122:
 662:Drivers/STM32H7xx_HAL_Driver/Src/stm32h7xx_hal_sram.c **** 
 1179              		.loc 1 662 5 discriminator 1 view .LVU359
 1180 005e FBE7     		b	.L71
 1181              	.L79:
 1182              		.align	2
 1183              	.L78:
 1184 0060 00000000 		.word	SRAM_DMACpltProt
 1185 0064 00000000 		.word	SRAM_DMAError
 1186 0068 00000000 		.word	SRAM_DMACplt
 1187              		.cfi_endproc
 1188              	.LFE345:
 1190              		.section	.text.HAL_SRAM_Write_DMA,"ax",%progbits
 1191              		.align	1
 1192              		.global	HAL_SRAM_Write_DMA
 1193              		.syntax unified
 1194              		.thumb
 1195              		.thumb_func
 1197              	HAL_SRAM_Write_DMA:
 1198              	.LVL123:
 1199              	.LFB346:
 703:Drivers/STM32H7xx_HAL_Driver/Src/stm32h7xx_hal_sram.c ****   HAL_StatusTypeDef status;
 1200              		.loc 1 703 1 is_stmt 1 view -0
 1201              		.cfi_startproc
 1202              		@ args = 0, pretend = 0, frame = 0
 1203              		@ frame_needed = 0, uses_anonymous_args = 0
 703:Drivers/STM32H7xx_HAL_Driver/Src/stm32h7xx_hal_sram.c ****   HAL_StatusTypeDef status;
 1204              		.loc 1 703 1 is_stmt 0 view .LVU361
 1205 0000 30B5     		push	{r4, r5, lr}
 1206              	.LCFI21:
 1207              		.cfi_def_cfa_offset 12
 1208              		.cfi_offset 4, -12
 1209              		.cfi_offset 5, -8
 1210              		.cfi_offset 14, -4
 1211 0002 83B0     		sub	sp, sp, #12
 1212              	.LCFI22:
 1213              		.cfi_def_cfa_offset 24
 1214 0004 0446     		mov	r4, r0
 704:Drivers/STM32H7xx_HAL_Driver/Src/stm32h7xx_hal_sram.c **** 
 1215              		.loc 1 704 3 is_stmt 1 view .LVU362
 707:Drivers/STM32H7xx_HAL_Driver/Src/stm32h7xx_hal_sram.c ****   {
 1216              		.loc 1 707 3 view .LVU363
 707:Drivers/STM32H7xx_HAL_Driver/Src/stm32h7xx_hal_sram.c ****   {
 1217              		.loc 1 707 12 is_stmt 0 view .LVU364
ARM GAS  C:\usertemp\cccKQ01c.s 			page 47


 1218 0006 90F84500 		ldrb	r0, [r0, #69]	@ zero_extendqisi2
 1219              	.LVL124:
 707:Drivers/STM32H7xx_HAL_Driver/Src/stm32h7xx_hal_sram.c ****   {
 1220              		.loc 1 707 12 view .LVU365
 1221 000a C0B2     		uxtb	r0, r0
 707:Drivers/STM32H7xx_HAL_Driver/Src/stm32h7xx_hal_sram.c ****   {
 1222              		.loc 1 707 6 view .LVU366
 1223 000c 0128     		cmp	r0, #1
 1224 000e 02D0     		beq	.L85
 727:Drivers/STM32H7xx_HAL_Driver/Src/stm32h7xx_hal_sram.c ****   }
 1225              		.loc 1 727 12 view .LVU367
 1226 0010 0120     		movs	r0, #1
 1227              	.LVL125:
 1228              	.L81:
 731:Drivers/STM32H7xx_HAL_Driver/Src/stm32h7xx_hal_sram.c **** 
 1229              		.loc 1 731 1 view .LVU368
 1230 0012 03B0     		add	sp, sp, #12
 1231              	.LCFI23:
 1232              		.cfi_remember_state
 1233              		.cfi_def_cfa_offset 12
 1234              		@ sp needed
 1235 0014 30BD     		pop	{r4, r5, pc}
 1236              	.LVL126:
 1237              	.L85:
 1238              	.LCFI24:
 1239              		.cfi_restore_state
 731:Drivers/STM32H7xx_HAL_Driver/Src/stm32h7xx_hal_sram.c **** 
 1240              		.loc 1 731 1 view .LVU369
 1241 0016 8C46     		mov	ip, r1
 1242 0018 1146     		mov	r1, r2
 1243              	.LVL127:
 710:Drivers/STM32H7xx_HAL_Driver/Src/stm32h7xx_hal_sram.c **** 
 1244              		.loc 1 710 5 is_stmt 1 view .LVU370
 710:Drivers/STM32H7xx_HAL_Driver/Src/stm32h7xx_hal_sram.c **** 
 1245              		.loc 1 710 5 view .LVU371
 1246 001a 94F84420 		ldrb	r2, [r4, #68]	@ zero_extendqisi2
 1247              	.LVL128:
 710:Drivers/STM32H7xx_HAL_Driver/Src/stm32h7xx_hal_sram.c **** 
 1248              		.loc 1 710 5 is_stmt 0 view .LVU372
 1249 001e 012A     		cmp	r2, #1
 1250 0020 15D0     		beq	.L83
 710:Drivers/STM32H7xx_HAL_Driver/Src/stm32h7xx_hal_sram.c **** 
 1251              		.loc 1 710 5 is_stmt 1 discriminator 2 view .LVU373
 1252 0022 0122     		movs	r2, #1
 1253 0024 84F84420 		strb	r2, [r4, #68]
 710:Drivers/STM32H7xx_HAL_Driver/Src/stm32h7xx_hal_sram.c **** 
 1254              		.loc 1 710 5 discriminator 2 view .LVU374
 713:Drivers/STM32H7xx_HAL_Driver/Src/stm32h7xx_hal_sram.c **** 
 1255              		.loc 1 713 5 view .LVU375
 713:Drivers/STM32H7xx_HAL_Driver/Src/stm32h7xx_hal_sram.c **** 
 1256              		.loc 1 713 18 is_stmt 0 view .LVU376
 1257 0028 0220     		movs	r0, #2
 1258 002a 84F84500 		strb	r0, [r4, #69]
 716:Drivers/STM32H7xx_HAL_Driver/Src/stm32h7xx_hal_sram.c ****     hsram->hmdma->XferErrorCallback = SRAM_DMAError;
 1259              		.loc 1 716 5 is_stmt 1 view .LVU377
 716:Drivers/STM32H7xx_HAL_Driver/Src/stm32h7xx_hal_sram.c ****     hsram->hmdma->XferErrorCallback = SRAM_DMAError;
 1260              		.loc 1 716 10 is_stmt 0 view .LVU378
ARM GAS  C:\usertemp\cccKQ01c.s 			page 48


 1261 002e A06C     		ldr	r0, [r4, #72]
 716:Drivers/STM32H7xx_HAL_Driver/Src/stm32h7xx_hal_sram.c ****     hsram->hmdma->XferErrorCallback = SRAM_DMAError;
 1262              		.loc 1 716 36 view .LVU379
 1263 0030 084D     		ldr	r5, .L86
 1264 0032 4564     		str	r5, [r0, #68]
 717:Drivers/STM32H7xx_HAL_Driver/Src/stm32h7xx_hal_sram.c **** 
 1265              		.loc 1 717 5 is_stmt 1 view .LVU380
 717:Drivers/STM32H7xx_HAL_Driver/Src/stm32h7xx_hal_sram.c **** 
 1266              		.loc 1 717 10 is_stmt 0 view .LVU381
 1267 0034 A06C     		ldr	r0, [r4, #72]
 717:Drivers/STM32H7xx_HAL_Driver/Src/stm32h7xx_hal_sram.c **** 
 1268              		.loc 1 717 37 view .LVU382
 1269 0036 084D     		ldr	r5, .L86+4
 1270 0038 4565     		str	r5, [r0, #84]
 720:Drivers/STM32H7xx_HAL_Driver/Src/stm32h7xx_hal_sram.c **** 
 1271              		.loc 1 720 5 is_stmt 1 view .LVU383
 720:Drivers/STM32H7xx_HAL_Driver/Src/stm32h7xx_hal_sram.c **** 
 1272              		.loc 1 720 14 is_stmt 0 view .LVU384
 1273 003a 0092     		str	r2, [sp]
 1274 003c 9B00     		lsls	r3, r3, #2
 1275              	.LVL129:
 720:Drivers/STM32H7xx_HAL_Driver/Src/stm32h7xx_hal_sram.c **** 
 1276              		.loc 1 720 14 view .LVU385
 1277 003e 6246     		mov	r2, ip
 1278 0040 A06C     		ldr	r0, [r4, #72]
 1279 0042 FFF7FEFF 		bl	HAL_MDMA_Start_IT
 1280              	.LVL130:
 723:Drivers/STM32H7xx_HAL_Driver/Src/stm32h7xx_hal_sram.c ****   }
 1281              		.loc 1 723 5 is_stmt 1 view .LVU386
 723:Drivers/STM32H7xx_HAL_Driver/Src/stm32h7xx_hal_sram.c ****   }
 1282              		.loc 1 723 5 view .LVU387
 1283 0046 0023     		movs	r3, #0
 1284 0048 84F84430 		strb	r3, [r4, #68]
 723:Drivers/STM32H7xx_HAL_Driver/Src/stm32h7xx_hal_sram.c ****   }
 1285              		.loc 1 723 5 view .LVU388
 1286 004c E1E7     		b	.L81
 1287              	.LVL131:
 1288              	.L83:
 710:Drivers/STM32H7xx_HAL_Driver/Src/stm32h7xx_hal_sram.c **** 
 1289              		.loc 1 710 5 is_stmt 0 discriminator 1 view .LVU389
 1290 004e 0220     		movs	r0, #2
 1291 0050 DFE7     		b	.L81
 1292              	.L87:
 1293 0052 00BF     		.align	2
 1294              	.L86:
 1295 0054 00000000 		.word	SRAM_DMACplt
 1296 0058 00000000 		.word	SRAM_DMAError
 1297              		.cfi_endproc
 1298              	.LFE346:
 1300              		.section	.text.HAL_SRAM_WriteOperation_Enable,"ax",%progbits
 1301              		.align	1
 1302              		.global	HAL_SRAM_WriteOperation_Enable
 1303              		.syntax unified
 1304              		.thumb
 1305              		.thumb_func
 1307              	HAL_SRAM_WriteOperation_Enable:
 1308              	.LVL132:
ARM GAS  C:\usertemp\cccKQ01c.s 			page 49


 1309              	.LFB347:
 937:Drivers/STM32H7xx_HAL_Driver/Src/stm32h7xx_hal_sram.c ****   /* Check the SRAM controller state */
 1310              		.loc 1 937 1 is_stmt 1 view -0
 1311              		.cfi_startproc
 1312              		@ args = 0, pretend = 0, frame = 0
 1313              		@ frame_needed = 0, uses_anonymous_args = 0
 937:Drivers/STM32H7xx_HAL_Driver/Src/stm32h7xx_hal_sram.c ****   /* Check the SRAM controller state */
 1314              		.loc 1 937 1 is_stmt 0 view .LVU391
 1315 0000 38B5     		push	{r3, r4, r5, lr}
 1316              	.LCFI25:
 1317              		.cfi_def_cfa_offset 16
 1318              		.cfi_offset 3, -16
 1319              		.cfi_offset 4, -12
 1320              		.cfi_offset 5, -8
 1321              		.cfi_offset 14, -4
 939:Drivers/STM32H7xx_HAL_Driver/Src/stm32h7xx_hal_sram.c ****   {
 1322              		.loc 1 939 3 is_stmt 1 view .LVU392
 939:Drivers/STM32H7xx_HAL_Driver/Src/stm32h7xx_hal_sram.c ****   {
 1323              		.loc 1 939 12 is_stmt 0 view .LVU393
 1324 0002 90F84530 		ldrb	r3, [r0, #69]	@ zero_extendqisi2
 1325 0006 DBB2     		uxtb	r3, r3
 939:Drivers/STM32H7xx_HAL_Driver/Src/stm32h7xx_hal_sram.c ****   {
 1326              		.loc 1 939 6 view .LVU394
 1327 0008 042B     		cmp	r3, #4
 1328 000a 14D1     		bne	.L90
 1329 000c 0446     		mov	r4, r0
 942:Drivers/STM32H7xx_HAL_Driver/Src/stm32h7xx_hal_sram.c **** 
 1330              		.loc 1 942 5 is_stmt 1 view .LVU395
 942:Drivers/STM32H7xx_HAL_Driver/Src/stm32h7xx_hal_sram.c **** 
 1331              		.loc 1 942 5 view .LVU396
 1332 000e 90F84430 		ldrb	r3, [r0, #68]	@ zero_extendqisi2
 1333 0012 012B     		cmp	r3, #1
 1334 0014 11D0     		beq	.L91
 942:Drivers/STM32H7xx_HAL_Driver/Src/stm32h7xx_hal_sram.c **** 
 1335              		.loc 1 942 5 discriminator 2 view .LVU397
 1336 0016 0125     		movs	r5, #1
 1337 0018 80F84450 		strb	r5, [r0, #68]
 942:Drivers/STM32H7xx_HAL_Driver/Src/stm32h7xx_hal_sram.c **** 
 1338              		.loc 1 942 5 discriminator 2 view .LVU398
 945:Drivers/STM32H7xx_HAL_Driver/Src/stm32h7xx_hal_sram.c **** 
 1339              		.loc 1 945 5 view .LVU399
 945:Drivers/STM32H7xx_HAL_Driver/Src/stm32h7xx_hal_sram.c **** 
 1340              		.loc 1 945 18 is_stmt 0 view .LVU400
 1341 001c 0223     		movs	r3, #2
 1342 001e 80F84530 		strb	r3, [r0, #69]
 948:Drivers/STM32H7xx_HAL_Driver/Src/stm32h7xx_hal_sram.c **** 
 1343              		.loc 1 948 5 is_stmt 1 view .LVU401
 948:Drivers/STM32H7xx_HAL_Driver/Src/stm32h7xx_hal_sram.c **** 
 1344              		.loc 1 948 11 is_stmt 0 view .LVU402
 1345 0022 8168     		ldr	r1, [r0, #8]
 1346 0024 0068     		ldr	r0, [r0]
 1347              	.LVL133:
 948:Drivers/STM32H7xx_HAL_Driver/Src/stm32h7xx_hal_sram.c **** 
 1348              		.loc 1 948 11 view .LVU403
 1349 0026 FFF7FEFF 		bl	FMC_NORSRAM_WriteOperation_Enable
 1350              	.LVL134:
 951:Drivers/STM32H7xx_HAL_Driver/Src/stm32h7xx_hal_sram.c **** 
ARM GAS  C:\usertemp\cccKQ01c.s 			page 50


 1351              		.loc 1 951 5 is_stmt 1 view .LVU404
 951:Drivers/STM32H7xx_HAL_Driver/Src/stm32h7xx_hal_sram.c **** 
 1352              		.loc 1 951 18 is_stmt 0 view .LVU405
 1353 002a 84F84550 		strb	r5, [r4, #69]
 954:Drivers/STM32H7xx_HAL_Driver/Src/stm32h7xx_hal_sram.c ****   }
 1354              		.loc 1 954 5 is_stmt 1 view .LVU406
 954:Drivers/STM32H7xx_HAL_Driver/Src/stm32h7xx_hal_sram.c ****   }
 1355              		.loc 1 954 5 view .LVU407
 1356 002e 0020     		movs	r0, #0
 1357 0030 84F84400 		strb	r0, [r4, #68]
 954:Drivers/STM32H7xx_HAL_Driver/Src/stm32h7xx_hal_sram.c ****   }
 1358              		.loc 1 954 5 view .LVU408
 961:Drivers/STM32H7xx_HAL_Driver/Src/stm32h7xx_hal_sram.c **** }
 1359              		.loc 1 961 3 view .LVU409
 961:Drivers/STM32H7xx_HAL_Driver/Src/stm32h7xx_hal_sram.c **** }
 1360              		.loc 1 961 10 is_stmt 0 view .LVU410
 1361 0034 00E0     		b	.L89
 1362              	.LVL135:
 1363              	.L90:
 958:Drivers/STM32H7xx_HAL_Driver/Src/stm32h7xx_hal_sram.c ****   }
 1364              		.loc 1 958 12 view .LVU411
 1365 0036 0120     		movs	r0, #1
 1366              	.LVL136:
 1367              	.L89:
 962:Drivers/STM32H7xx_HAL_Driver/Src/stm32h7xx_hal_sram.c **** 
 1368              		.loc 1 962 1 view .LVU412
 1369 0038 38BD     		pop	{r3, r4, r5, pc}
 1370              	.LVL137:
 1371              	.L91:
 942:Drivers/STM32H7xx_HAL_Driver/Src/stm32h7xx_hal_sram.c **** 
 1372              		.loc 1 942 5 discriminator 1 view .LVU413
 1373 003a 0220     		movs	r0, #2
 1374              	.LVL138:
 942:Drivers/STM32H7xx_HAL_Driver/Src/stm32h7xx_hal_sram.c **** 
 1375              		.loc 1 942 5 discriminator 1 view .LVU414
 1376 003c FCE7     		b	.L89
 1377              		.cfi_endproc
 1378              	.LFE347:
 1380              		.section	.text.HAL_SRAM_WriteOperation_Disable,"ax",%progbits
 1381              		.align	1
 1382              		.global	HAL_SRAM_WriteOperation_Disable
 1383              		.syntax unified
 1384              		.thumb
 1385              		.thumb_func
 1387              	HAL_SRAM_WriteOperation_Disable:
 1388              	.LVL139:
 1389              	.LFB348:
 971:Drivers/STM32H7xx_HAL_Driver/Src/stm32h7xx_hal_sram.c ****   /* Check the SRAM controller state */
 1390              		.loc 1 971 1 is_stmt 1 view -0
 1391              		.cfi_startproc
 1392              		@ args = 0, pretend = 0, frame = 0
 1393              		@ frame_needed = 0, uses_anonymous_args = 0
 973:Drivers/STM32H7xx_HAL_Driver/Src/stm32h7xx_hal_sram.c ****   {
 1394              		.loc 1 973 3 view .LVU416
 973:Drivers/STM32H7xx_HAL_Driver/Src/stm32h7xx_hal_sram.c ****   {
 1395              		.loc 1 973 12 is_stmt 0 view .LVU417
 1396 0000 90F84530 		ldrb	r3, [r0, #69]	@ zero_extendqisi2
ARM GAS  C:\usertemp\cccKQ01c.s 			page 51


 1397 0004 DBB2     		uxtb	r3, r3
 973:Drivers/STM32H7xx_HAL_Driver/Src/stm32h7xx_hal_sram.c ****   {
 1398              		.loc 1 973 6 view .LVU418
 1399 0006 012B     		cmp	r3, #1
 1400 0008 16D1     		bne	.L95
 971:Drivers/STM32H7xx_HAL_Driver/Src/stm32h7xx_hal_sram.c ****   /* Check the SRAM controller state */
 1401              		.loc 1 971 1 view .LVU419
 1402 000a 10B5     		push	{r4, lr}
 1403              	.LCFI26:
 1404              		.cfi_def_cfa_offset 8
 1405              		.cfi_offset 4, -8
 1406              		.cfi_offset 14, -4
 1407 000c 0446     		mov	r4, r0
 976:Drivers/STM32H7xx_HAL_Driver/Src/stm32h7xx_hal_sram.c **** 
 1408              		.loc 1 976 5 is_stmt 1 view .LVU420
 976:Drivers/STM32H7xx_HAL_Driver/Src/stm32h7xx_hal_sram.c **** 
 1409              		.loc 1 976 5 view .LVU421
 1410 000e 90F84430 		ldrb	r3, [r0, #68]	@ zero_extendqisi2
 1411 0012 012B     		cmp	r3, #1
 1412 0014 12D0     		beq	.L96
 976:Drivers/STM32H7xx_HAL_Driver/Src/stm32h7xx_hal_sram.c **** 
 1413              		.loc 1 976 5 discriminator 2 view .LVU422
 1414 0016 0123     		movs	r3, #1
 1415 0018 80F84430 		strb	r3, [r0, #68]
 976:Drivers/STM32H7xx_HAL_Driver/Src/stm32h7xx_hal_sram.c **** 
 1416              		.loc 1 976 5 discriminator 2 view .LVU423
 979:Drivers/STM32H7xx_HAL_Driver/Src/stm32h7xx_hal_sram.c **** 
 1417              		.loc 1 979 5 view .LVU424
 979:Drivers/STM32H7xx_HAL_Driver/Src/stm32h7xx_hal_sram.c **** 
 1418              		.loc 1 979 18 is_stmt 0 view .LVU425
 1419 001c 0223     		movs	r3, #2
 1420 001e 80F84530 		strb	r3, [r0, #69]
 982:Drivers/STM32H7xx_HAL_Driver/Src/stm32h7xx_hal_sram.c **** 
 1421              		.loc 1 982 5 is_stmt 1 view .LVU426
 982:Drivers/STM32H7xx_HAL_Driver/Src/stm32h7xx_hal_sram.c **** 
 1422              		.loc 1 982 11 is_stmt 0 view .LVU427
 1423 0022 8168     		ldr	r1, [r0, #8]
 1424 0024 0068     		ldr	r0, [r0]
 1425              	.LVL140:
 982:Drivers/STM32H7xx_HAL_Driver/Src/stm32h7xx_hal_sram.c **** 
 1426              		.loc 1 982 11 view .LVU428
 1427 0026 FFF7FEFF 		bl	FMC_NORSRAM_WriteOperation_Disable
 1428              	.LVL141:
 985:Drivers/STM32H7xx_HAL_Driver/Src/stm32h7xx_hal_sram.c **** 
 1429              		.loc 1 985 5 is_stmt 1 view .LVU429
 985:Drivers/STM32H7xx_HAL_Driver/Src/stm32h7xx_hal_sram.c **** 
 1430              		.loc 1 985 18 is_stmt 0 view .LVU430
 1431 002a 0423     		movs	r3, #4
 1432 002c 84F84530 		strb	r3, [r4, #69]
 988:Drivers/STM32H7xx_HAL_Driver/Src/stm32h7xx_hal_sram.c ****   }
 1433              		.loc 1 988 5 is_stmt 1 view .LVU431
 988:Drivers/STM32H7xx_HAL_Driver/Src/stm32h7xx_hal_sram.c ****   }
 1434              		.loc 1 988 5 view .LVU432
 1435 0030 0020     		movs	r0, #0
 1436 0032 84F84400 		strb	r0, [r4, #68]
 988:Drivers/STM32H7xx_HAL_Driver/Src/stm32h7xx_hal_sram.c ****   }
 1437              		.loc 1 988 5 view .LVU433
ARM GAS  C:\usertemp\cccKQ01c.s 			page 52


 995:Drivers/STM32H7xx_HAL_Driver/Src/stm32h7xx_hal_sram.c **** }
 1438              		.loc 1 995 3 view .LVU434
 1439              	.L94:
 996:Drivers/STM32H7xx_HAL_Driver/Src/stm32h7xx_hal_sram.c **** 
 1440              		.loc 1 996 1 is_stmt 0 view .LVU435
 1441 0036 10BD     		pop	{r4, pc}
 1442              	.LVL142:
 1443              	.L95:
 1444              	.LCFI27:
 1445              		.cfi_def_cfa_offset 0
 1446              		.cfi_restore 4
 1447              		.cfi_restore 14
 992:Drivers/STM32H7xx_HAL_Driver/Src/stm32h7xx_hal_sram.c ****   }
 1448              		.loc 1 992 12 view .LVU436
 1449 0038 0120     		movs	r0, #1
 1450              	.LVL143:
 996:Drivers/STM32H7xx_HAL_Driver/Src/stm32h7xx_hal_sram.c **** 
 1451              		.loc 1 996 1 view .LVU437
 1452 003a 7047     		bx	lr
 1453              	.LVL144:
 1454              	.L96:
 1455              	.LCFI28:
 1456              		.cfi_def_cfa_offset 8
 1457              		.cfi_offset 4, -8
 1458              		.cfi_offset 14, -4
 976:Drivers/STM32H7xx_HAL_Driver/Src/stm32h7xx_hal_sram.c **** 
 1459              		.loc 1 976 5 discriminator 1 view .LVU438
 1460 003c 0220     		movs	r0, #2
 1461              	.LVL145:
 976:Drivers/STM32H7xx_HAL_Driver/Src/stm32h7xx_hal_sram.c **** 
 1462              		.loc 1 976 5 discriminator 1 view .LVU439
 1463 003e FAE7     		b	.L94
 1464              		.cfi_endproc
 1465              	.LFE348:
 1467              		.section	.text.HAL_SRAM_GetState,"ax",%progbits
 1468              		.align	1
 1469              		.global	HAL_SRAM_GetState
 1470              		.syntax unified
 1471              		.thumb
 1472              		.thumb_func
 1474              	HAL_SRAM_GetState:
 1475              	.LVL146:
 1476              	.LFB349:
1024:Drivers/STM32H7xx_HAL_Driver/Src/stm32h7xx_hal_sram.c ****   return hsram->State;
 1477              		.loc 1 1024 1 is_stmt 1 view -0
 1478              		.cfi_startproc
 1479              		@ args = 0, pretend = 0, frame = 0
 1480              		@ frame_needed = 0, uses_anonymous_args = 0
 1481              		@ link register save eliminated.
1025:Drivers/STM32H7xx_HAL_Driver/Src/stm32h7xx_hal_sram.c **** }
 1482              		.loc 1 1025 3 view .LVU441
1025:Drivers/STM32H7xx_HAL_Driver/Src/stm32h7xx_hal_sram.c **** }
 1483              		.loc 1 1025 15 is_stmt 0 view .LVU442
 1484 0000 90F84500 		ldrb	r0, [r0, #69]	@ zero_extendqisi2
 1485              	.LVL147:
1026:Drivers/STM32H7xx_HAL_Driver/Src/stm32h7xx_hal_sram.c **** 
 1486              		.loc 1 1026 1 view .LVU443
ARM GAS  C:\usertemp\cccKQ01c.s 			page 53


 1487 0004 7047     		bx	lr
 1488              		.cfi_endproc
 1489              	.LFE349:
 1491              		.text
 1492              	.Letext0:
 1493              		.file 2 "D:/armtoolchain/arm-gnu-toolchain-13.3.rel1-mingw-w64-i686-arm-none-eabi/arm-none-eabi/in
 1494              		.file 3 "D:/armtoolchain/arm-gnu-toolchain-13.3.rel1-mingw-w64-i686-arm-none-eabi/arm-none-eabi/in
 1495              		.file 4 "Drivers/CMSIS/Device/ST/STM32H7xx/Include/stm32h743xx.h"
 1496              		.file 5 "Drivers/STM32H7xx_HAL_Driver/Inc/stm32h7xx_hal_def.h"
 1497              		.file 6 "Drivers/STM32H7xx_HAL_Driver/Inc/stm32h7xx_hal_mdma.h"
 1498              		.file 7 "Drivers/STM32H7xx_HAL_Driver/Inc/stm32h7xx_ll_fmc.h"
 1499              		.file 8 "Drivers/STM32H7xx_HAL_Driver/Inc/stm32h7xx_hal_sram.h"
ARM GAS  C:\usertemp\cccKQ01c.s 			page 54

