ARM GAS  C:\usertemp\cc0y2B3r.s 			page 1


   1              		.cpu cortex-m7
   2              		.arch armv7e-m
   3              		.fpu fpv5-d16
   4              		.eabi_attribute 28, 1
   5              		.eabi_attribute 20, 1
   6              		.eabi_attribute 21, 1
   7              		.eabi_attribute 23, 3
   8              		.eabi_attribute 24, 1
   9              		.eabi_attribute 25, 1
  10              		.eabi_attribute 26, 1
  11              		.eabi_attribute 30, 1
  12              		.eabi_attribute 34, 1
  13              		.eabi_attribute 18, 4
  14              		.file	"stm32h7xx_hal_rtc_ex.c"
  15              		.text
  16              	.Ltext0:
  17              		.cfi_sections	.debug_frame
  18              		.file 1 "Drivers/STM32H7xx_HAL_Driver/Src/stm32h7xx_hal_rtc_ex.c"
  19              		.section	.text.HAL_RTCEx_SetTimeStamp,"ax",%progbits
  20              		.align	1
  21              		.global	HAL_RTCEx_SetTimeStamp
  22              		.syntax unified
  23              		.thumb
  24              		.thumb_func
  26              	HAL_RTCEx_SetTimeStamp:
  27              	.LVL0:
  28              	.LFB333:
   1:Drivers/STM32H7xx_HAL_Driver/Src/stm32h7xx_hal_rtc_ex.c **** /**
   2:Drivers/STM32H7xx_HAL_Driver/Src/stm32h7xx_hal_rtc_ex.c ****   ******************************************************************************
   3:Drivers/STM32H7xx_HAL_Driver/Src/stm32h7xx_hal_rtc_ex.c ****   * @file    stm32h7xx_hal_rtc_ex.c
   4:Drivers/STM32H7xx_HAL_Driver/Src/stm32h7xx_hal_rtc_ex.c ****   * @author  MCD Application Team
   5:Drivers/STM32H7xx_HAL_Driver/Src/stm32h7xx_hal_rtc_ex.c ****   * @brief   Extended RTC HAL module driver.
   6:Drivers/STM32H7xx_HAL_Driver/Src/stm32h7xx_hal_rtc_ex.c ****   *          This file provides firmware functions to manage the following
   7:Drivers/STM32H7xx_HAL_Driver/Src/stm32h7xx_hal_rtc_ex.c ****   *          functionalities of the Real Time Clock (RTC) Extended peripheral:
   8:Drivers/STM32H7xx_HAL_Driver/Src/stm32h7xx_hal_rtc_ex.c ****   *           + RTC Time Stamp functions
   9:Drivers/STM32H7xx_HAL_Driver/Src/stm32h7xx_hal_rtc_ex.c ****   *           + RTC Tamper functions
  10:Drivers/STM32H7xx_HAL_Driver/Src/stm32h7xx_hal_rtc_ex.c ****   *           + RTC Wake-up functions
  11:Drivers/STM32H7xx_HAL_Driver/Src/stm32h7xx_hal_rtc_ex.c ****   *           + Extended Control functions
  12:Drivers/STM32H7xx_HAL_Driver/Src/stm32h7xx_hal_rtc_ex.c ****   *           + Extended RTC features functions
  13:Drivers/STM32H7xx_HAL_Driver/Src/stm32h7xx_hal_rtc_ex.c ****   *
  14:Drivers/STM32H7xx_HAL_Driver/Src/stm32h7xx_hal_rtc_ex.c ****   ******************************************************************************
  15:Drivers/STM32H7xx_HAL_Driver/Src/stm32h7xx_hal_rtc_ex.c ****   * @attention
  16:Drivers/STM32H7xx_HAL_Driver/Src/stm32h7xx_hal_rtc_ex.c ****   *
  17:Drivers/STM32H7xx_HAL_Driver/Src/stm32h7xx_hal_rtc_ex.c ****   * Copyright (c) 2017 STMicroelectronics.
  18:Drivers/STM32H7xx_HAL_Driver/Src/stm32h7xx_hal_rtc_ex.c ****   * All rights reserved.
  19:Drivers/STM32H7xx_HAL_Driver/Src/stm32h7xx_hal_rtc_ex.c ****   *
  20:Drivers/STM32H7xx_HAL_Driver/Src/stm32h7xx_hal_rtc_ex.c ****   * This software is licensed under terms that can be found in the LICENSE file
  21:Drivers/STM32H7xx_HAL_Driver/Src/stm32h7xx_hal_rtc_ex.c ****   * in the root directory of this software component.
  22:Drivers/STM32H7xx_HAL_Driver/Src/stm32h7xx_hal_rtc_ex.c ****   * If no LICENSE file comes with this software, it is provided AS-IS.
  23:Drivers/STM32H7xx_HAL_Driver/Src/stm32h7xx_hal_rtc_ex.c ****   *
  24:Drivers/STM32H7xx_HAL_Driver/Src/stm32h7xx_hal_rtc_ex.c ****   ******************************************************************************
  25:Drivers/STM32H7xx_HAL_Driver/Src/stm32h7xx_hal_rtc_ex.c ****   @verbatim
  26:Drivers/STM32H7xx_HAL_Driver/Src/stm32h7xx_hal_rtc_ex.c ****   ==============================================================================
  27:Drivers/STM32H7xx_HAL_Driver/Src/stm32h7xx_hal_rtc_ex.c ****                   ##### How to use this driver #####
  28:Drivers/STM32H7xx_HAL_Driver/Src/stm32h7xx_hal_rtc_ex.c ****   ==============================================================================
  29:Drivers/STM32H7xx_HAL_Driver/Src/stm32h7xx_hal_rtc_ex.c ****   [..]
  30:Drivers/STM32H7xx_HAL_Driver/Src/stm32h7xx_hal_rtc_ex.c ****     (+) Enable the RTC domain access.
ARM GAS  C:\usertemp\cc0y2B3r.s 			page 2


  31:Drivers/STM32H7xx_HAL_Driver/Src/stm32h7xx_hal_rtc_ex.c ****     (+) Configure the RTC Prescaler (Asynchronous and Synchronous) and RTC hour
  32:Drivers/STM32H7xx_HAL_Driver/Src/stm32h7xx_hal_rtc_ex.c ****         format using the HAL_RTC_Init() function.
  33:Drivers/STM32H7xx_HAL_Driver/Src/stm32h7xx_hal_rtc_ex.c **** 
  34:Drivers/STM32H7xx_HAL_Driver/Src/stm32h7xx_hal_rtc_ex.c ****   *** RTC Wakeup configuration ***
  35:Drivers/STM32H7xx_HAL_Driver/Src/stm32h7xx_hal_rtc_ex.c ****   ================================
  36:Drivers/STM32H7xx_HAL_Driver/Src/stm32h7xx_hal_rtc_ex.c ****   [..]
  37:Drivers/STM32H7xx_HAL_Driver/Src/stm32h7xx_hal_rtc_ex.c ****     (+) To configure the RTC Wakeup Clock source and Counter use the HAL_RTCEx_SetWakeUpTimer()
  38:Drivers/STM32H7xx_HAL_Driver/Src/stm32h7xx_hal_rtc_ex.c ****         function. You can also configure the RTC Wakeup timer with interrupt mode
  39:Drivers/STM32H7xx_HAL_Driver/Src/stm32h7xx_hal_rtc_ex.c ****         using the HAL_RTCEx_SetWakeUpTimer_IT() function.
  40:Drivers/STM32H7xx_HAL_Driver/Src/stm32h7xx_hal_rtc_ex.c ****     (+) To read the RTC WakeUp Counter register, use the HAL_RTCEx_GetWakeUpTimer()
  41:Drivers/STM32H7xx_HAL_Driver/Src/stm32h7xx_hal_rtc_ex.c ****         function.
  42:Drivers/STM32H7xx_HAL_Driver/Src/stm32h7xx_hal_rtc_ex.c **** 
  43:Drivers/STM32H7xx_HAL_Driver/Src/stm32h7xx_hal_rtc_ex.c ****   *** Outputs configuration ***
  44:Drivers/STM32H7xx_HAL_Driver/Src/stm32h7xx_hal_rtc_ex.c ****   =============================
  45:Drivers/STM32H7xx_HAL_Driver/Src/stm32h7xx_hal_rtc_ex.c ****   [..]  The RTC has 2 different outputs:
  46:Drivers/STM32H7xx_HAL_Driver/Src/stm32h7xx_hal_rtc_ex.c ****     (+) RTC_ALARM: this output is used to manage the RTC Alarm A, Alarm B
  47:Drivers/STM32H7xx_HAL_Driver/Src/stm32h7xx_hal_rtc_ex.c ****         and WaKeUp signals.
  48:Drivers/STM32H7xx_HAL_Driver/Src/stm32h7xx_hal_rtc_ex.c ****         To output the selected RTC signal, use the HAL_RTC_Init() function.
  49:Drivers/STM32H7xx_HAL_Driver/Src/stm32h7xx_hal_rtc_ex.c ****     (+) RTC_CALIB: this output is 512Hz signal or 1Hz.
  50:Drivers/STM32H7xx_HAL_Driver/Src/stm32h7xx_hal_rtc_ex.c ****         To enable the RTC_CALIB, use the HAL_RTCEx_SetCalibrationOutPut() function.
  51:Drivers/STM32H7xx_HAL_Driver/Src/stm32h7xx_hal_rtc_ex.c ****     (+) Two pins can be used as RTC_ALARM or RTC_CALIB (PC13, PB2) managed on
  52:Drivers/STM32H7xx_HAL_Driver/Src/stm32h7xx_hal_rtc_ex.c ****         the RTC_OR register.
  53:Drivers/STM32H7xx_HAL_Driver/Src/stm32h7xx_hal_rtc_ex.c ****     (+) When the RTC_CALIB or RTC_ALARM output is selected, the RTC_OUT pin is
  54:Drivers/STM32H7xx_HAL_Driver/Src/stm32h7xx_hal_rtc_ex.c ****         automatically configured in output alternate function.
  55:Drivers/STM32H7xx_HAL_Driver/Src/stm32h7xx_hal_rtc_ex.c **** 
  56:Drivers/STM32H7xx_HAL_Driver/Src/stm32h7xx_hal_rtc_ex.c ****   *** Smooth digital Calibration configuration ***
  57:Drivers/STM32H7xx_HAL_Driver/Src/stm32h7xx_hal_rtc_ex.c ****   ================================================
  58:Drivers/STM32H7xx_HAL_Driver/Src/stm32h7xx_hal_rtc_ex.c ****   [..]
  59:Drivers/STM32H7xx_HAL_Driver/Src/stm32h7xx_hal_rtc_ex.c ****     (+) Configure the RTC Original Digital Calibration Value and the corresponding
  60:Drivers/STM32H7xx_HAL_Driver/Src/stm32h7xx_hal_rtc_ex.c ****         calibration cycle period (32s,16s and 8s) using the HAL_RTCEx_SetSmoothCalib()
  61:Drivers/STM32H7xx_HAL_Driver/Src/stm32h7xx_hal_rtc_ex.c ****         function.
  62:Drivers/STM32H7xx_HAL_Driver/Src/stm32h7xx_hal_rtc_ex.c **** 
  63:Drivers/STM32H7xx_HAL_Driver/Src/stm32h7xx_hal_rtc_ex.c ****   *** TimeStamp configuration ***
  64:Drivers/STM32H7xx_HAL_Driver/Src/stm32h7xx_hal_rtc_ex.c ****   ===============================
  65:Drivers/STM32H7xx_HAL_Driver/Src/stm32h7xx_hal_rtc_ex.c ****   [..]
  66:Drivers/STM32H7xx_HAL_Driver/Src/stm32h7xx_hal_rtc_ex.c ****     (+) Enable the RTC TimeStamp using the HAL_RTCEx_SetTimeStamp() function.
  67:Drivers/STM32H7xx_HAL_Driver/Src/stm32h7xx_hal_rtc_ex.c ****         You can also configure the RTC TimeStamp with interrupt mode using the
  68:Drivers/STM32H7xx_HAL_Driver/Src/stm32h7xx_hal_rtc_ex.c ****         HAL_RTCEx_SetTimeStamp_IT() function.
  69:Drivers/STM32H7xx_HAL_Driver/Src/stm32h7xx_hal_rtc_ex.c ****     (+) To read the RTC TimeStamp Time and Date register, use the HAL_RTCEx_GetTimeStamp()
  70:Drivers/STM32H7xx_HAL_Driver/Src/stm32h7xx_hal_rtc_ex.c ****         function.
  71:Drivers/STM32H7xx_HAL_Driver/Src/stm32h7xx_hal_rtc_ex.c **** 
  72:Drivers/STM32H7xx_HAL_Driver/Src/stm32h7xx_hal_rtc_ex.c ****   *** Internal TimeStamp configuration ***
  73:Drivers/STM32H7xx_HAL_Driver/Src/stm32h7xx_hal_rtc_ex.c ****   ===============================
  74:Drivers/STM32H7xx_HAL_Driver/Src/stm32h7xx_hal_rtc_ex.c ****   [..]
  75:Drivers/STM32H7xx_HAL_Driver/Src/stm32h7xx_hal_rtc_ex.c ****     (+) Enable the RTC internal TimeStamp using the HAL_RTCEx_SetInternalTimeStamp() function.
  76:Drivers/STM32H7xx_HAL_Driver/Src/stm32h7xx_hal_rtc_ex.c ****         User has to check internal timestamp occurrence using __HAL_RTC_INTERNAL_TIMESTAMP_GET_FLAG
  77:Drivers/STM32H7xx_HAL_Driver/Src/stm32h7xx_hal_rtc_ex.c ****     (+) To read the RTC TimeStamp Time and Date register, use the HAL_RTCEx_GetTimeStamp()
  78:Drivers/STM32H7xx_HAL_Driver/Src/stm32h7xx_hal_rtc_ex.c ****         function.
  79:Drivers/STM32H7xx_HAL_Driver/Src/stm32h7xx_hal_rtc_ex.c **** 
  80:Drivers/STM32H7xx_HAL_Driver/Src/stm32h7xx_hal_rtc_ex.c ****   *** Tamper configuration ***
  81:Drivers/STM32H7xx_HAL_Driver/Src/stm32h7xx_hal_rtc_ex.c ****   ============================
  82:Drivers/STM32H7xx_HAL_Driver/Src/stm32h7xx_hal_rtc_ex.c ****   [..]
  83:Drivers/STM32H7xx_HAL_Driver/Src/stm32h7xx_hal_rtc_ex.c ****     (+) Enable the RTC Tamper and configure the Tamper filter count, trigger Edge
  84:Drivers/STM32H7xx_HAL_Driver/Src/stm32h7xx_hal_rtc_ex.c ****         or Level according to the Tamper filter (if equal to 0 Edge else Level)
  85:Drivers/STM32H7xx_HAL_Driver/Src/stm32h7xx_hal_rtc_ex.c ****         value, sampling frequency, NoErase, MaskFlag,  precharge or discharge and
  86:Drivers/STM32H7xx_HAL_Driver/Src/stm32h7xx_hal_rtc_ex.c ****         Pull-UP using the HAL_RTCEx_SetTamper() function. You can configure RTC Tamper
  87:Drivers/STM32H7xx_HAL_Driver/Src/stm32h7xx_hal_rtc_ex.c ****         with interrupt mode using HAL_RTCEx_SetTamper_IT() function.
ARM GAS  C:\usertemp\cc0y2B3r.s 			page 3


  88:Drivers/STM32H7xx_HAL_Driver/Src/stm32h7xx_hal_rtc_ex.c ****     (+) The default configuration of the Tamper erases the backup registers. To avoid
  89:Drivers/STM32H7xx_HAL_Driver/Src/stm32h7xx_hal_rtc_ex.c ****         erase, enable the NoErase field on the RTC_TAMPCR register.
  90:Drivers/STM32H7xx_HAL_Driver/Src/stm32h7xx_hal_rtc_ex.c **** 
  91:Drivers/STM32H7xx_HAL_Driver/Src/stm32h7xx_hal_rtc_ex.c ****   *** Backup Data Registers configuration ***
  92:Drivers/STM32H7xx_HAL_Driver/Src/stm32h7xx_hal_rtc_ex.c ****   ===========================================
  93:Drivers/STM32H7xx_HAL_Driver/Src/stm32h7xx_hal_rtc_ex.c ****   [..]
  94:Drivers/STM32H7xx_HAL_Driver/Src/stm32h7xx_hal_rtc_ex.c ****     (+) To write to the RTC Backup Data registers, use the HAL_RTCEx_BKUPWrite()
  95:Drivers/STM32H7xx_HAL_Driver/Src/stm32h7xx_hal_rtc_ex.c ****         function.
  96:Drivers/STM32H7xx_HAL_Driver/Src/stm32h7xx_hal_rtc_ex.c ****     (+) To read the RTC Backup Data registers, use the HAL_RTCEx_BKUPRead()
  97:Drivers/STM32H7xx_HAL_Driver/Src/stm32h7xx_hal_rtc_ex.c ****         function.
  98:Drivers/STM32H7xx_HAL_Driver/Src/stm32h7xx_hal_rtc_ex.c **** 
  99:Drivers/STM32H7xx_HAL_Driver/Src/stm32h7xx_hal_rtc_ex.c ****    @endverbatim
 100:Drivers/STM32H7xx_HAL_Driver/Src/stm32h7xx_hal_rtc_ex.c ****   */
 101:Drivers/STM32H7xx_HAL_Driver/Src/stm32h7xx_hal_rtc_ex.c **** 
 102:Drivers/STM32H7xx_HAL_Driver/Src/stm32h7xx_hal_rtc_ex.c **** /* Includes ------------------------------------------------------------------*/
 103:Drivers/STM32H7xx_HAL_Driver/Src/stm32h7xx_hal_rtc_ex.c **** #include "stm32h7xx_hal.h"
 104:Drivers/STM32H7xx_HAL_Driver/Src/stm32h7xx_hal_rtc_ex.c **** 
 105:Drivers/STM32H7xx_HAL_Driver/Src/stm32h7xx_hal_rtc_ex.c **** /** @addtogroup STM32H7xx_HAL_Driver
 106:Drivers/STM32H7xx_HAL_Driver/Src/stm32h7xx_hal_rtc_ex.c ****   * @{
 107:Drivers/STM32H7xx_HAL_Driver/Src/stm32h7xx_hal_rtc_ex.c ****   */
 108:Drivers/STM32H7xx_HAL_Driver/Src/stm32h7xx_hal_rtc_ex.c **** 
 109:Drivers/STM32H7xx_HAL_Driver/Src/stm32h7xx_hal_rtc_ex.c **** /** @addtogroup RTCEx
 110:Drivers/STM32H7xx_HAL_Driver/Src/stm32h7xx_hal_rtc_ex.c ****   * @brief RTC Extended HAL module driver
 111:Drivers/STM32H7xx_HAL_Driver/Src/stm32h7xx_hal_rtc_ex.c ****   * @{
 112:Drivers/STM32H7xx_HAL_Driver/Src/stm32h7xx_hal_rtc_ex.c ****   */
 113:Drivers/STM32H7xx_HAL_Driver/Src/stm32h7xx_hal_rtc_ex.c **** 
 114:Drivers/STM32H7xx_HAL_Driver/Src/stm32h7xx_hal_rtc_ex.c **** #ifdef HAL_RTC_MODULE_ENABLED
 115:Drivers/STM32H7xx_HAL_Driver/Src/stm32h7xx_hal_rtc_ex.c **** 
 116:Drivers/STM32H7xx_HAL_Driver/Src/stm32h7xx_hal_rtc_ex.c **** /* Private typedef -----------------------------------------------------------*/
 117:Drivers/STM32H7xx_HAL_Driver/Src/stm32h7xx_hal_rtc_ex.c **** /* Private define ------------------------------------------------------------*/
 118:Drivers/STM32H7xx_HAL_Driver/Src/stm32h7xx_hal_rtc_ex.c **** #define TAMP_ALL (TAMP_CR1_TAMP1E | TAMP_CR1_TAMP2E | TAMP_CR1_TAMP3E)
 119:Drivers/STM32H7xx_HAL_Driver/Src/stm32h7xx_hal_rtc_ex.c **** 
 120:Drivers/STM32H7xx_HAL_Driver/Src/stm32h7xx_hal_rtc_ex.c **** /* Private macro -------------------------------------------------------------*/
 121:Drivers/STM32H7xx_HAL_Driver/Src/stm32h7xx_hal_rtc_ex.c **** /* Private variables ---------------------------------------------------------*/
 122:Drivers/STM32H7xx_HAL_Driver/Src/stm32h7xx_hal_rtc_ex.c **** /* Private function prototypes -----------------------------------------------*/
 123:Drivers/STM32H7xx_HAL_Driver/Src/stm32h7xx_hal_rtc_ex.c **** /* Exported functions --------------------------------------------------------*/
 124:Drivers/STM32H7xx_HAL_Driver/Src/stm32h7xx_hal_rtc_ex.c **** 
 125:Drivers/STM32H7xx_HAL_Driver/Src/stm32h7xx_hal_rtc_ex.c **** /** @addtogroup RTCEx_Exported_Functions
 126:Drivers/STM32H7xx_HAL_Driver/Src/stm32h7xx_hal_rtc_ex.c ****   * @{
 127:Drivers/STM32H7xx_HAL_Driver/Src/stm32h7xx_hal_rtc_ex.c ****   */
 128:Drivers/STM32H7xx_HAL_Driver/Src/stm32h7xx_hal_rtc_ex.c **** 
 129:Drivers/STM32H7xx_HAL_Driver/Src/stm32h7xx_hal_rtc_ex.c **** 
 130:Drivers/STM32H7xx_HAL_Driver/Src/stm32h7xx_hal_rtc_ex.c **** /** @addtogroup RTCEx_Exported_Functions_Group1
 131:Drivers/STM32H7xx_HAL_Driver/Src/stm32h7xx_hal_rtc_ex.c ****  *  @brief   RTC TimeStamp and Tamper functions
 132:Drivers/STM32H7xx_HAL_Driver/Src/stm32h7xx_hal_rtc_ex.c ****   *
 133:Drivers/STM32H7xx_HAL_Driver/Src/stm32h7xx_hal_rtc_ex.c **** @verbatim
 134:Drivers/STM32H7xx_HAL_Driver/Src/stm32h7xx_hal_rtc_ex.c ****  ===============================================================================
 135:Drivers/STM32H7xx_HAL_Driver/Src/stm32h7xx_hal_rtc_ex.c ****                  ##### RTC TimeStamp and Tamper functions #####
 136:Drivers/STM32H7xx_HAL_Driver/Src/stm32h7xx_hal_rtc_ex.c ****  ===============================================================================
 137:Drivers/STM32H7xx_HAL_Driver/Src/stm32h7xx_hal_rtc_ex.c **** 
 138:Drivers/STM32H7xx_HAL_Driver/Src/stm32h7xx_hal_rtc_ex.c ****  [..] This section provides functions allowing to configure TimeStamp feature
 139:Drivers/STM32H7xx_HAL_Driver/Src/stm32h7xx_hal_rtc_ex.c **** 
 140:Drivers/STM32H7xx_HAL_Driver/Src/stm32h7xx_hal_rtc_ex.c **** @endverbatim
 141:Drivers/STM32H7xx_HAL_Driver/Src/stm32h7xx_hal_rtc_ex.c ****   * @{
 142:Drivers/STM32H7xx_HAL_Driver/Src/stm32h7xx_hal_rtc_ex.c ****   */
 143:Drivers/STM32H7xx_HAL_Driver/Src/stm32h7xx_hal_rtc_ex.c **** 
 144:Drivers/STM32H7xx_HAL_Driver/Src/stm32h7xx_hal_rtc_ex.c **** /**
ARM GAS  C:\usertemp\cc0y2B3r.s 			page 4


 145:Drivers/STM32H7xx_HAL_Driver/Src/stm32h7xx_hal_rtc_ex.c ****   * @brief  Set TimeStamp.
 146:Drivers/STM32H7xx_HAL_Driver/Src/stm32h7xx_hal_rtc_ex.c ****   * @note   This API must be called before enabling the TimeStamp feature.
 147:Drivers/STM32H7xx_HAL_Driver/Src/stm32h7xx_hal_rtc_ex.c ****   * @param  hrtc RTC handle
 148:Drivers/STM32H7xx_HAL_Driver/Src/stm32h7xx_hal_rtc_ex.c ****   * @param  TimeStampEdge Specifies the pin edge on which the TimeStamp is
 149:Drivers/STM32H7xx_HAL_Driver/Src/stm32h7xx_hal_rtc_ex.c ****   *         activated.
 150:Drivers/STM32H7xx_HAL_Driver/Src/stm32h7xx_hal_rtc_ex.c ****   *          This parameter can be one of the following values:
 151:Drivers/STM32H7xx_HAL_Driver/Src/stm32h7xx_hal_rtc_ex.c ****   *             @arg RTC_TIMESTAMPEDGE_RISING: the Time stamp event occurs on the
 152:Drivers/STM32H7xx_HAL_Driver/Src/stm32h7xx_hal_rtc_ex.c ****   *                                        rising edge of the related pin.
 153:Drivers/STM32H7xx_HAL_Driver/Src/stm32h7xx_hal_rtc_ex.c ****   *             @arg RTC_TIMESTAMPEDGE_FALLING: the Time stamp event occurs on the
 154:Drivers/STM32H7xx_HAL_Driver/Src/stm32h7xx_hal_rtc_ex.c ****   *                                         falling edge of the related pin.
 155:Drivers/STM32H7xx_HAL_Driver/Src/stm32h7xx_hal_rtc_ex.c ****   * @param  RTC_TimeStampPin specifies the RTC TimeStamp Pin.
 156:Drivers/STM32H7xx_HAL_Driver/Src/stm32h7xx_hal_rtc_ex.c ****   *          This parameter can be one of the following values:
 157:Drivers/STM32H7xx_HAL_Driver/Src/stm32h7xx_hal_rtc_ex.c ****   *             @arg RTC_TIMESTAMPPIN_DEFAULT: PC13 is selected as RTC TimeStamp Pin.
 158:Drivers/STM32H7xx_HAL_Driver/Src/stm32h7xx_hal_rtc_ex.c ****   *               The RTC TimeStamp Pin is per default PC13, but for reasons of
 159:Drivers/STM32H7xx_HAL_Driver/Src/stm32h7xx_hal_rtc_ex.c ****   *               compatibility, this parameter is required.
 160:Drivers/STM32H7xx_HAL_Driver/Src/stm32h7xx_hal_rtc_ex.c ****   * @retval HAL status
 161:Drivers/STM32H7xx_HAL_Driver/Src/stm32h7xx_hal_rtc_ex.c ****   */
 162:Drivers/STM32H7xx_HAL_Driver/Src/stm32h7xx_hal_rtc_ex.c **** HAL_StatusTypeDef HAL_RTCEx_SetTimeStamp(RTC_HandleTypeDef *hrtc, uint32_t TimeStampEdge, uint32_t 
 163:Drivers/STM32H7xx_HAL_Driver/Src/stm32h7xx_hal_rtc_ex.c **** {
  29              		.loc 1 163 1 view -0
  30              		.cfi_startproc
  31              		@ args = 0, pretend = 0, frame = 0
  32              		@ frame_needed = 0, uses_anonymous_args = 0
  33              		@ link register save eliminated.
 164:Drivers/STM32H7xx_HAL_Driver/Src/stm32h7xx_hal_rtc_ex.c ****   uint32_t tmpreg;
  34              		.loc 1 164 3 view .LVU1
 165:Drivers/STM32H7xx_HAL_Driver/Src/stm32h7xx_hal_rtc_ex.c **** 
 166:Drivers/STM32H7xx_HAL_Driver/Src/stm32h7xx_hal_rtc_ex.c ****   /* Check the parameters */
 167:Drivers/STM32H7xx_HAL_Driver/Src/stm32h7xx_hal_rtc_ex.c ****   assert_param(IS_TIMESTAMP_EDGE(TimeStampEdge));
  35              		.loc 1 167 3 view .LVU2
 168:Drivers/STM32H7xx_HAL_Driver/Src/stm32h7xx_hal_rtc_ex.c ****   assert_param(IS_RTC_TIMESTAMP_PIN(RTC_TimeStampPin));
  36              		.loc 1 168 3 view .LVU3
 169:Drivers/STM32H7xx_HAL_Driver/Src/stm32h7xx_hal_rtc_ex.c **** 
 170:Drivers/STM32H7xx_HAL_Driver/Src/stm32h7xx_hal_rtc_ex.c ****   /* Prevent unused argument(s) compilation warning if no assert_param check */
 171:Drivers/STM32H7xx_HAL_Driver/Src/stm32h7xx_hal_rtc_ex.c ****   UNUSED(RTC_TimeStampPin);
  37              		.loc 1 171 3 view .LVU4
 172:Drivers/STM32H7xx_HAL_Driver/Src/stm32h7xx_hal_rtc_ex.c **** 
 173:Drivers/STM32H7xx_HAL_Driver/Src/stm32h7xx_hal_rtc_ex.c ****   /* Process Locked */
 174:Drivers/STM32H7xx_HAL_Driver/Src/stm32h7xx_hal_rtc_ex.c ****   __HAL_LOCK(hrtc);
  38              		.loc 1 174 3 view .LVU5
  39              		.loc 1 174 3 view .LVU6
  40 0000 90F82020 		ldrb	r2, [r0, #32]	@ zero_extendqisi2
  41              	.LVL1:
  42              		.loc 1 174 3 is_stmt 0 view .LVU7
  43 0004 012A     		cmp	r2, #1
  44 0006 23D0     		beq	.L3
 163:Drivers/STM32H7xx_HAL_Driver/Src/stm32h7xx_hal_rtc_ex.c ****   uint32_t tmpreg;
  45              		.loc 1 163 1 view .LVU8
  46 0008 30B4     		push	{r4, r5}
  47              	.LCFI0:
  48              		.cfi_def_cfa_offset 8
  49              		.cfi_offset 4, -8
  50              		.cfi_offset 5, -4
  51 000a 0346     		mov	r3, r0
  52              		.loc 1 174 3 is_stmt 1 discriminator 2 view .LVU9
  53 000c 0120     		movs	r0, #1
  54              	.LVL2:
ARM GAS  C:\usertemp\cc0y2B3r.s 			page 5


  55              		.loc 1 174 3 is_stmt 0 discriminator 2 view .LVU10
  56 000e 83F82000 		strb	r0, [r3, #32]
  57              		.loc 1 174 3 is_stmt 1 discriminator 2 view .LVU11
 175:Drivers/STM32H7xx_HAL_Driver/Src/stm32h7xx_hal_rtc_ex.c **** 
 176:Drivers/STM32H7xx_HAL_Driver/Src/stm32h7xx_hal_rtc_ex.c ****   hrtc->State = HAL_RTC_STATE_BUSY;
  58              		.loc 1 176 3 view .LVU12
  59              		.loc 1 176 15 is_stmt 0 view .LVU13
  60 0012 0222     		movs	r2, #2
  61 0014 83F82120 		strb	r2, [r3, #33]
 177:Drivers/STM32H7xx_HAL_Driver/Src/stm32h7xx_hal_rtc_ex.c **** 
 178:Drivers/STM32H7xx_HAL_Driver/Src/stm32h7xx_hal_rtc_ex.c ****   /* Get the RTC_CR register and clear the bits to be configured */
 179:Drivers/STM32H7xx_HAL_Driver/Src/stm32h7xx_hal_rtc_ex.c ****   tmpreg = (uint32_t)(hrtc->Instance->CR & (uint32_t)~(RTC_CR_TSEDGE | RTC_CR_TSE));
  62              		.loc 1 179 3 is_stmt 1 view .LVU14
  63              		.loc 1 179 27 is_stmt 0 view .LVU15
  64 0018 1C68     		ldr	r4, [r3]
  65              		.loc 1 179 37 view .LVU16
  66 001a A568     		ldr	r5, [r4, #8]
  67              		.loc 1 179 10 view .LVU17
  68 001c A2F60B02 		subw	r2, r2, #2059
  69 0020 2A40     		ands	r2, r2, r5
  70              	.LVL3:
 180:Drivers/STM32H7xx_HAL_Driver/Src/stm32h7xx_hal_rtc_ex.c **** 
 181:Drivers/STM32H7xx_HAL_Driver/Src/stm32h7xx_hal_rtc_ex.c ****   tmpreg |= TimeStampEdge;
  71              		.loc 1 181 3 is_stmt 1 view .LVU18
  72              		.loc 1 181 10 is_stmt 0 view .LVU19
  73 0022 0A43     		orrs	r2, r2, r1
  74              	.LVL4:
 182:Drivers/STM32H7xx_HAL_Driver/Src/stm32h7xx_hal_rtc_ex.c **** 
 183:Drivers/STM32H7xx_HAL_Driver/Src/stm32h7xx_hal_rtc_ex.c ****   /* Disable the write protection for RTC registers */
 184:Drivers/STM32H7xx_HAL_Driver/Src/stm32h7xx_hal_rtc_ex.c ****   __HAL_RTC_WRITEPROTECTION_DISABLE(hrtc);
  75              		.loc 1 184 3 is_stmt 1 view .LVU20
  76              		.loc 1 184 3 view .LVU21
  77 0024 CA21     		movs	r1, #202
  78              	.LVL5:
  79              		.loc 1 184 3 is_stmt 0 view .LVU22
  80 0026 6162     		str	r1, [r4, #36]
  81              		.loc 1 184 3 is_stmt 1 view .LVU23
  82 0028 1968     		ldr	r1, [r3]
  83 002a 5324     		movs	r4, #83
  84 002c 4C62     		str	r4, [r1, #36]
  85              		.loc 1 184 3 view .LVU24
 185:Drivers/STM32H7xx_HAL_Driver/Src/stm32h7xx_hal_rtc_ex.c **** 
 186:Drivers/STM32H7xx_HAL_Driver/Src/stm32h7xx_hal_rtc_ex.c ****   /* Configure the Time Stamp TSEDGE and Enable bits */
 187:Drivers/STM32H7xx_HAL_Driver/Src/stm32h7xx_hal_rtc_ex.c ****   hrtc->Instance->CR = (uint32_t)tmpreg;
  86              		.loc 1 187 3 view .LVU25
  87              		.loc 1 187 7 is_stmt 0 view .LVU26
  88 002e 1968     		ldr	r1, [r3]
  89              		.loc 1 187 22 view .LVU27
  90 0030 8A60     		str	r2, [r1, #8]
 188:Drivers/STM32H7xx_HAL_Driver/Src/stm32h7xx_hal_rtc_ex.c **** 
 189:Drivers/STM32H7xx_HAL_Driver/Src/stm32h7xx_hal_rtc_ex.c ****   __HAL_RTC_TIMESTAMP_ENABLE(hrtc);
  91              		.loc 1 189 3 is_stmt 1 view .LVU28
  92 0032 1968     		ldr	r1, [r3]
  93 0034 8A68     		ldr	r2, [r1, #8]
  94              	.LVL6:
  95              		.loc 1 189 3 is_stmt 0 view .LVU29
  96 0036 42F40062 		orr	r2, r2, #2048
ARM GAS  C:\usertemp\cc0y2B3r.s 			page 6


  97 003a 8A60     		str	r2, [r1, #8]
 190:Drivers/STM32H7xx_HAL_Driver/Src/stm32h7xx_hal_rtc_ex.c **** 
 191:Drivers/STM32H7xx_HAL_Driver/Src/stm32h7xx_hal_rtc_ex.c ****   /* Enable the write protection for RTC registers */
 192:Drivers/STM32H7xx_HAL_Driver/Src/stm32h7xx_hal_rtc_ex.c ****   __HAL_RTC_WRITEPROTECTION_ENABLE(hrtc);
  98              		.loc 1 192 3 is_stmt 1 view .LVU30
  99              		.loc 1 192 3 view .LVU31
 100 003c 1A68     		ldr	r2, [r3]
 101 003e FF21     		movs	r1, #255
 102 0040 5162     		str	r1, [r2, #36]
 103              		.loc 1 192 3 view .LVU32
 193:Drivers/STM32H7xx_HAL_Driver/Src/stm32h7xx_hal_rtc_ex.c **** 
 194:Drivers/STM32H7xx_HAL_Driver/Src/stm32h7xx_hal_rtc_ex.c ****   /* Change RTC state */
 195:Drivers/STM32H7xx_HAL_Driver/Src/stm32h7xx_hal_rtc_ex.c ****   hrtc->State = HAL_RTC_STATE_READY;
 104              		.loc 1 195 3 view .LVU33
 105              		.loc 1 195 15 is_stmt 0 view .LVU34
 106 0042 83F82100 		strb	r0, [r3, #33]
 196:Drivers/STM32H7xx_HAL_Driver/Src/stm32h7xx_hal_rtc_ex.c **** 
 197:Drivers/STM32H7xx_HAL_Driver/Src/stm32h7xx_hal_rtc_ex.c ****   /* Process Unlocked */
 198:Drivers/STM32H7xx_HAL_Driver/Src/stm32h7xx_hal_rtc_ex.c ****   __HAL_UNLOCK(hrtc);
 107              		.loc 1 198 3 is_stmt 1 view .LVU35
 108              		.loc 1 198 3 view .LVU36
 109 0046 0020     		movs	r0, #0
 110 0048 83F82000 		strb	r0, [r3, #32]
 111              		.loc 1 198 3 view .LVU37
 199:Drivers/STM32H7xx_HAL_Driver/Src/stm32h7xx_hal_rtc_ex.c **** 
 200:Drivers/STM32H7xx_HAL_Driver/Src/stm32h7xx_hal_rtc_ex.c ****   return HAL_OK;
 112              		.loc 1 200 3 view .LVU38
 201:Drivers/STM32H7xx_HAL_Driver/Src/stm32h7xx_hal_rtc_ex.c **** }
 113              		.loc 1 201 1 is_stmt 0 view .LVU39
 114 004c 30BC     		pop	{r4, r5}
 115              	.LCFI1:
 116              		.cfi_restore 5
 117              		.cfi_restore 4
 118              		.cfi_def_cfa_offset 0
 119              	.LVL7:
 120              		.loc 1 201 1 view .LVU40
 121 004e 7047     		bx	lr
 122              	.LVL8:
 123              	.L3:
 174:Drivers/STM32H7xx_HAL_Driver/Src/stm32h7xx_hal_rtc_ex.c **** 
 124              		.loc 1 174 3 discriminator 1 view .LVU41
 125 0050 0220     		movs	r0, #2
 126              	.LVL9:
 127              		.loc 1 201 1 view .LVU42
 128 0052 7047     		bx	lr
 129              		.cfi_endproc
 130              	.LFE333:
 132              		.section	.text.HAL_RTCEx_SetTimeStamp_IT,"ax",%progbits
 133              		.align	1
 134              		.global	HAL_RTCEx_SetTimeStamp_IT
 135              		.syntax unified
 136              		.thumb
 137              		.thumb_func
 139              	HAL_RTCEx_SetTimeStamp_IT:
 140              	.LVL10:
 141              	.LFB334:
 202:Drivers/STM32H7xx_HAL_Driver/Src/stm32h7xx_hal_rtc_ex.c **** 
ARM GAS  C:\usertemp\cc0y2B3r.s 			page 7


 203:Drivers/STM32H7xx_HAL_Driver/Src/stm32h7xx_hal_rtc_ex.c **** /**
 204:Drivers/STM32H7xx_HAL_Driver/Src/stm32h7xx_hal_rtc_ex.c ****   * @brief  Set TimeStamp with Interrupt.
 205:Drivers/STM32H7xx_HAL_Driver/Src/stm32h7xx_hal_rtc_ex.c ****   * @note   This API must be called before enabling the TimeStamp feature.
 206:Drivers/STM32H7xx_HAL_Driver/Src/stm32h7xx_hal_rtc_ex.c ****   * @param  hrtc RTC handle
 207:Drivers/STM32H7xx_HAL_Driver/Src/stm32h7xx_hal_rtc_ex.c ****   * @param  TimeStampEdge Specifies the pin edge on which the TimeStamp is
 208:Drivers/STM32H7xx_HAL_Driver/Src/stm32h7xx_hal_rtc_ex.c ****   *         activated.
 209:Drivers/STM32H7xx_HAL_Driver/Src/stm32h7xx_hal_rtc_ex.c ****   *          This parameter can be one of the following values:
 210:Drivers/STM32H7xx_HAL_Driver/Src/stm32h7xx_hal_rtc_ex.c ****   *             @arg RTC_TIMESTAMPEDGE_RISING: the Time stamp event occurs on the
 211:Drivers/STM32H7xx_HAL_Driver/Src/stm32h7xx_hal_rtc_ex.c ****   *                                        rising edge of the related pin.
 212:Drivers/STM32H7xx_HAL_Driver/Src/stm32h7xx_hal_rtc_ex.c ****   *             @arg RTC_TIMESTAMPEDGE_FALLING: the Time stamp event occurs on the
 213:Drivers/STM32H7xx_HAL_Driver/Src/stm32h7xx_hal_rtc_ex.c ****   *                                         falling edge of the related pin.
 214:Drivers/STM32H7xx_HAL_Driver/Src/stm32h7xx_hal_rtc_ex.c ****   * @param  RTC_TimeStampPin Specifies the RTC TimeStamp Pin.
 215:Drivers/STM32H7xx_HAL_Driver/Src/stm32h7xx_hal_rtc_ex.c ****   *          This parameter can be one of the following values:
 216:Drivers/STM32H7xx_HAL_Driver/Src/stm32h7xx_hal_rtc_ex.c ****   *             @arg RTC_TIMESTAMPPIN_DEFAULT: PC13 is selected as RTC TimeStamp Pin.
 217:Drivers/STM32H7xx_HAL_Driver/Src/stm32h7xx_hal_rtc_ex.c ****   *               The RTC TimeStamp Pin is per default PC13, but for reasons of
 218:Drivers/STM32H7xx_HAL_Driver/Src/stm32h7xx_hal_rtc_ex.c ****   *               compatibility, this parameter is required.
 219:Drivers/STM32H7xx_HAL_Driver/Src/stm32h7xx_hal_rtc_ex.c ****   * @retval HAL status
 220:Drivers/STM32H7xx_HAL_Driver/Src/stm32h7xx_hal_rtc_ex.c ****   */
 221:Drivers/STM32H7xx_HAL_Driver/Src/stm32h7xx_hal_rtc_ex.c **** HAL_StatusTypeDef HAL_RTCEx_SetTimeStamp_IT(RTC_HandleTypeDef *hrtc, uint32_t TimeStampEdge, uint32
 222:Drivers/STM32H7xx_HAL_Driver/Src/stm32h7xx_hal_rtc_ex.c **** {
 142              		.loc 1 222 1 is_stmt 1 view -0
 143              		.cfi_startproc
 144              		@ args = 0, pretend = 0, frame = 0
 145              		@ frame_needed = 0, uses_anonymous_args = 0
 146              		@ link register save eliminated.
 223:Drivers/STM32H7xx_HAL_Driver/Src/stm32h7xx_hal_rtc_ex.c ****   uint32_t tmpreg;
 147              		.loc 1 223 3 view .LVU44
 224:Drivers/STM32H7xx_HAL_Driver/Src/stm32h7xx_hal_rtc_ex.c **** 
 225:Drivers/STM32H7xx_HAL_Driver/Src/stm32h7xx_hal_rtc_ex.c ****   /* Check the parameters */
 226:Drivers/STM32H7xx_HAL_Driver/Src/stm32h7xx_hal_rtc_ex.c ****   assert_param(IS_TIMESTAMP_EDGE(TimeStampEdge));
 148              		.loc 1 226 3 view .LVU45
 227:Drivers/STM32H7xx_HAL_Driver/Src/stm32h7xx_hal_rtc_ex.c ****   assert_param(IS_RTC_TIMESTAMP_PIN(RTC_TimeStampPin));
 149              		.loc 1 227 3 view .LVU46
 228:Drivers/STM32H7xx_HAL_Driver/Src/stm32h7xx_hal_rtc_ex.c **** 
 229:Drivers/STM32H7xx_HAL_Driver/Src/stm32h7xx_hal_rtc_ex.c ****   /* Prevent unused argument(s) compilation warning if no assert_param check */
 230:Drivers/STM32H7xx_HAL_Driver/Src/stm32h7xx_hal_rtc_ex.c ****   UNUSED(RTC_TimeStampPin);
 150              		.loc 1 230 3 view .LVU47
 231:Drivers/STM32H7xx_HAL_Driver/Src/stm32h7xx_hal_rtc_ex.c **** 
 232:Drivers/STM32H7xx_HAL_Driver/Src/stm32h7xx_hal_rtc_ex.c ****   /* Process Locked */
 233:Drivers/STM32H7xx_HAL_Driver/Src/stm32h7xx_hal_rtc_ex.c ****   __HAL_LOCK(hrtc);
 151              		.loc 1 233 3 view .LVU48
 152              		.loc 1 233 3 view .LVU49
 153 0000 90F82020 		ldrb	r2, [r0, #32]	@ zero_extendqisi2
 154              	.LVL11:
 155              		.loc 1 233 3 is_stmt 0 view .LVU50
 156 0004 012A     		cmp	r2, #1
 157 0006 34D0     		beq	.L10
 222:Drivers/STM32H7xx_HAL_Driver/Src/stm32h7xx_hal_rtc_ex.c ****   uint32_t tmpreg;
 158              		.loc 1 222 1 view .LVU51
 159 0008 30B4     		push	{r4, r5}
 160              	.LCFI2:
 161              		.cfi_def_cfa_offset 8
 162              		.cfi_offset 4, -8
 163              		.cfi_offset 5, -4
 164 000a 0346     		mov	r3, r0
 165              		.loc 1 233 3 is_stmt 1 discriminator 2 view .LVU52
 166 000c 0120     		movs	r0, #1
ARM GAS  C:\usertemp\cc0y2B3r.s 			page 8


 167              	.LVL12:
 168              		.loc 1 233 3 is_stmt 0 discriminator 2 view .LVU53
 169 000e 83F82000 		strb	r0, [r3, #32]
 170              		.loc 1 233 3 is_stmt 1 discriminator 2 view .LVU54
 234:Drivers/STM32H7xx_HAL_Driver/Src/stm32h7xx_hal_rtc_ex.c **** 
 235:Drivers/STM32H7xx_HAL_Driver/Src/stm32h7xx_hal_rtc_ex.c ****   hrtc->State = HAL_RTC_STATE_BUSY;
 171              		.loc 1 235 3 view .LVU55
 172              		.loc 1 235 15 is_stmt 0 view .LVU56
 173 0012 0222     		movs	r2, #2
 174 0014 83F82120 		strb	r2, [r3, #33]
 236:Drivers/STM32H7xx_HAL_Driver/Src/stm32h7xx_hal_rtc_ex.c **** 
 237:Drivers/STM32H7xx_HAL_Driver/Src/stm32h7xx_hal_rtc_ex.c ****   /* Get the RTC_CR register and clear the bits to be configured */
 238:Drivers/STM32H7xx_HAL_Driver/Src/stm32h7xx_hal_rtc_ex.c ****   tmpreg = (uint32_t)(hrtc->Instance->CR & (uint32_t)~(RTC_CR_TSEDGE | RTC_CR_TSE));
 175              		.loc 1 238 3 is_stmt 1 view .LVU57
 176              		.loc 1 238 27 is_stmt 0 view .LVU58
 177 0018 1C68     		ldr	r4, [r3]
 178              		.loc 1 238 37 view .LVU59
 179 001a A568     		ldr	r5, [r4, #8]
 180              		.loc 1 238 10 view .LVU60
 181 001c A2F60B02 		subw	r2, r2, #2059
 182 0020 2A40     		ands	r2, r2, r5
 183              	.LVL13:
 239:Drivers/STM32H7xx_HAL_Driver/Src/stm32h7xx_hal_rtc_ex.c **** 
 240:Drivers/STM32H7xx_HAL_Driver/Src/stm32h7xx_hal_rtc_ex.c ****   tmpreg |= TimeStampEdge;
 184              		.loc 1 240 3 is_stmt 1 view .LVU61
 185              		.loc 1 240 10 is_stmt 0 view .LVU62
 186 0022 0A43     		orrs	r2, r2, r1
 187              	.LVL14:
 241:Drivers/STM32H7xx_HAL_Driver/Src/stm32h7xx_hal_rtc_ex.c **** 
 242:Drivers/STM32H7xx_HAL_Driver/Src/stm32h7xx_hal_rtc_ex.c ****   /* Disable the write protection for RTC registers */
 243:Drivers/STM32H7xx_HAL_Driver/Src/stm32h7xx_hal_rtc_ex.c ****   __HAL_RTC_WRITEPROTECTION_DISABLE(hrtc);
 188              		.loc 1 243 3 is_stmt 1 view .LVU63
 189              		.loc 1 243 3 view .LVU64
 190 0024 CA21     		movs	r1, #202
 191              	.LVL15:
 192              		.loc 1 243 3 is_stmt 0 view .LVU65
 193 0026 6162     		str	r1, [r4, #36]
 194              		.loc 1 243 3 is_stmt 1 view .LVU66
 195 0028 1968     		ldr	r1, [r3]
 196 002a 5324     		movs	r4, #83
 197 002c 4C62     		str	r4, [r1, #36]
 198              		.loc 1 243 3 view .LVU67
 244:Drivers/STM32H7xx_HAL_Driver/Src/stm32h7xx_hal_rtc_ex.c **** 
 245:Drivers/STM32H7xx_HAL_Driver/Src/stm32h7xx_hal_rtc_ex.c ****   /* Configure the Time Stamp TSEDGE and Enable bits */
 246:Drivers/STM32H7xx_HAL_Driver/Src/stm32h7xx_hal_rtc_ex.c ****   hrtc->Instance->CR = (uint32_t)tmpreg;
 199              		.loc 1 246 3 view .LVU68
 200              		.loc 1 246 7 is_stmt 0 view .LVU69
 201 002e 1968     		ldr	r1, [r3]
 202              		.loc 1 246 22 view .LVU70
 203 0030 8A60     		str	r2, [r1, #8]
 247:Drivers/STM32H7xx_HAL_Driver/Src/stm32h7xx_hal_rtc_ex.c **** 
 248:Drivers/STM32H7xx_HAL_Driver/Src/stm32h7xx_hal_rtc_ex.c ****   __HAL_RTC_TIMESTAMP_ENABLE(hrtc);
 204              		.loc 1 248 3 is_stmt 1 view .LVU71
 205 0032 1968     		ldr	r1, [r3]
 206 0034 8A68     		ldr	r2, [r1, #8]
 207              	.LVL16:
 208              		.loc 1 248 3 is_stmt 0 view .LVU72
ARM GAS  C:\usertemp\cc0y2B3r.s 			page 9


 209 0036 42F40062 		orr	r2, r2, #2048
 210 003a 8A60     		str	r2, [r1, #8]
 249:Drivers/STM32H7xx_HAL_Driver/Src/stm32h7xx_hal_rtc_ex.c **** 
 250:Drivers/STM32H7xx_HAL_Driver/Src/stm32h7xx_hal_rtc_ex.c ****   /* Enable IT timestamp */
 251:Drivers/STM32H7xx_HAL_Driver/Src/stm32h7xx_hal_rtc_ex.c ****   __HAL_RTC_TIMESTAMP_ENABLE_IT(hrtc, RTC_IT_TS);
 211              		.loc 1 251 3 is_stmt 1 view .LVU73
 212 003c 1968     		ldr	r1, [r3]
 213 003e 8A68     		ldr	r2, [r1, #8]
 214 0040 42F40042 		orr	r2, r2, #32768
 215 0044 8A60     		str	r2, [r1, #8]
 252:Drivers/STM32H7xx_HAL_Driver/Src/stm32h7xx_hal_rtc_ex.c **** 
 253:Drivers/STM32H7xx_HAL_Driver/Src/stm32h7xx_hal_rtc_ex.c ****   /* RTC timestamp Interrupt Configuration: EXTI configuration */
 254:Drivers/STM32H7xx_HAL_Driver/Src/stm32h7xx_hal_rtc_ex.c **** #if defined(DUAL_CORE)
 255:Drivers/STM32H7xx_HAL_Driver/Src/stm32h7xx_hal_rtc_ex.c ****   if (HAL_GetCurrentCPUID() == CM7_CPUID)
 256:Drivers/STM32H7xx_HAL_Driver/Src/stm32h7xx_hal_rtc_ex.c ****   {
 257:Drivers/STM32H7xx_HAL_Driver/Src/stm32h7xx_hal_rtc_ex.c ****     __HAL_RTC_TAMPER_TIMESTAMP_EXTI_ENABLE_IT();
 258:Drivers/STM32H7xx_HAL_Driver/Src/stm32h7xx_hal_rtc_ex.c ****   }
 259:Drivers/STM32H7xx_HAL_Driver/Src/stm32h7xx_hal_rtc_ex.c ****   else
 260:Drivers/STM32H7xx_HAL_Driver/Src/stm32h7xx_hal_rtc_ex.c ****   {
 261:Drivers/STM32H7xx_HAL_Driver/Src/stm32h7xx_hal_rtc_ex.c ****     __HAL_RTC_TAMPER_TIMESTAMP_EXTID2_ENABLE_IT();
 262:Drivers/STM32H7xx_HAL_Driver/Src/stm32h7xx_hal_rtc_ex.c ****   }
 263:Drivers/STM32H7xx_HAL_Driver/Src/stm32h7xx_hal_rtc_ex.c **** #else /* SINGLE_CORE */
 264:Drivers/STM32H7xx_HAL_Driver/Src/stm32h7xx_hal_rtc_ex.c ****   __HAL_RTC_TAMPER_TIMESTAMP_EXTI_ENABLE_IT();
 216              		.loc 1 264 3 view .LVU74
 217 0046 4FF0B042 		mov	r2, #1476395008
 218 004a D2F88010 		ldr	r1, [r2, #128]
 219 004e 41F48021 		orr	r1, r1, #262144
 220 0052 C2F88010 		str	r1, [r2, #128]
 265:Drivers/STM32H7xx_HAL_Driver/Src/stm32h7xx_hal_rtc_ex.c **** #endif /* DUAL_CORE */
 266:Drivers/STM32H7xx_HAL_Driver/Src/stm32h7xx_hal_rtc_ex.c **** 
 267:Drivers/STM32H7xx_HAL_Driver/Src/stm32h7xx_hal_rtc_ex.c ****   __HAL_RTC_TAMPER_TIMESTAMP_EXTI_ENABLE_RISING_EDGE();
 221              		.loc 1 267 3 view .LVU75
 222 0056 1168     		ldr	r1, [r2]
 223 0058 41F48021 		orr	r1, r1, #262144
 224 005c 1160     		str	r1, [r2]
 268:Drivers/STM32H7xx_HAL_Driver/Src/stm32h7xx_hal_rtc_ex.c **** 
 269:Drivers/STM32H7xx_HAL_Driver/Src/stm32h7xx_hal_rtc_ex.c ****   /* Enable the write protection for RTC registers */
 270:Drivers/STM32H7xx_HAL_Driver/Src/stm32h7xx_hal_rtc_ex.c ****   __HAL_RTC_WRITEPROTECTION_ENABLE(hrtc);
 225              		.loc 1 270 3 view .LVU76
 226              		.loc 1 270 3 view .LVU77
 227 005e 1A68     		ldr	r2, [r3]
 228 0060 FF21     		movs	r1, #255
 229 0062 5162     		str	r1, [r2, #36]
 230              		.loc 1 270 3 view .LVU78
 271:Drivers/STM32H7xx_HAL_Driver/Src/stm32h7xx_hal_rtc_ex.c **** 
 272:Drivers/STM32H7xx_HAL_Driver/Src/stm32h7xx_hal_rtc_ex.c ****   hrtc->State = HAL_RTC_STATE_READY;
 231              		.loc 1 272 3 view .LVU79
 232              		.loc 1 272 15 is_stmt 0 view .LVU80
 233 0064 83F82100 		strb	r0, [r3, #33]
 273:Drivers/STM32H7xx_HAL_Driver/Src/stm32h7xx_hal_rtc_ex.c **** 
 274:Drivers/STM32H7xx_HAL_Driver/Src/stm32h7xx_hal_rtc_ex.c ****   /* Process Unlocked */
 275:Drivers/STM32H7xx_HAL_Driver/Src/stm32h7xx_hal_rtc_ex.c ****   __HAL_UNLOCK(hrtc);
 234              		.loc 1 275 3 is_stmt 1 view .LVU81
 235              		.loc 1 275 3 view .LVU82
 236 0068 0020     		movs	r0, #0
 237 006a 83F82000 		strb	r0, [r3, #32]
 238              		.loc 1 275 3 view .LVU83
ARM GAS  C:\usertemp\cc0y2B3r.s 			page 10


 276:Drivers/STM32H7xx_HAL_Driver/Src/stm32h7xx_hal_rtc_ex.c **** 
 277:Drivers/STM32H7xx_HAL_Driver/Src/stm32h7xx_hal_rtc_ex.c ****   return HAL_OK;
 239              		.loc 1 277 3 view .LVU84
 278:Drivers/STM32H7xx_HAL_Driver/Src/stm32h7xx_hal_rtc_ex.c **** }
 240              		.loc 1 278 1 is_stmt 0 view .LVU85
 241 006e 30BC     		pop	{r4, r5}
 242              	.LCFI3:
 243              		.cfi_restore 5
 244              		.cfi_restore 4
 245              		.cfi_def_cfa_offset 0
 246              	.LVL17:
 247              		.loc 1 278 1 view .LVU86
 248 0070 7047     		bx	lr
 249              	.LVL18:
 250              	.L10:
 233:Drivers/STM32H7xx_HAL_Driver/Src/stm32h7xx_hal_rtc_ex.c **** 
 251              		.loc 1 233 3 discriminator 1 view .LVU87
 252 0072 0220     		movs	r0, #2
 253              	.LVL19:
 254              		.loc 1 278 1 view .LVU88
 255 0074 7047     		bx	lr
 256              		.cfi_endproc
 257              	.LFE334:
 259              		.section	.text.HAL_RTCEx_DeactivateTimeStamp,"ax",%progbits
 260              		.align	1
 261              		.global	HAL_RTCEx_DeactivateTimeStamp
 262              		.syntax unified
 263              		.thumb
 264              		.thumb_func
 266              	HAL_RTCEx_DeactivateTimeStamp:
 267              	.LVL20:
 268              	.LFB335:
 279:Drivers/STM32H7xx_HAL_Driver/Src/stm32h7xx_hal_rtc_ex.c **** 
 280:Drivers/STM32H7xx_HAL_Driver/Src/stm32h7xx_hal_rtc_ex.c **** /**
 281:Drivers/STM32H7xx_HAL_Driver/Src/stm32h7xx_hal_rtc_ex.c ****   * @brief  Deactivate TimeStamp.
 282:Drivers/STM32H7xx_HAL_Driver/Src/stm32h7xx_hal_rtc_ex.c ****   * @param  hrtc RTC handle
 283:Drivers/STM32H7xx_HAL_Driver/Src/stm32h7xx_hal_rtc_ex.c ****   * @retval HAL status
 284:Drivers/STM32H7xx_HAL_Driver/Src/stm32h7xx_hal_rtc_ex.c ****   */
 285:Drivers/STM32H7xx_HAL_Driver/Src/stm32h7xx_hal_rtc_ex.c **** HAL_StatusTypeDef HAL_RTCEx_DeactivateTimeStamp(RTC_HandleTypeDef *hrtc)
 286:Drivers/STM32H7xx_HAL_Driver/Src/stm32h7xx_hal_rtc_ex.c **** {
 269              		.loc 1 286 1 is_stmt 1 view -0
 270              		.cfi_startproc
 271              		@ args = 0, pretend = 0, frame = 0
 272              		@ frame_needed = 0, uses_anonymous_args = 0
 273              		@ link register save eliminated.
 287:Drivers/STM32H7xx_HAL_Driver/Src/stm32h7xx_hal_rtc_ex.c ****   uint32_t tmpreg;
 274              		.loc 1 287 3 view .LVU90
 288:Drivers/STM32H7xx_HAL_Driver/Src/stm32h7xx_hal_rtc_ex.c **** 
 289:Drivers/STM32H7xx_HAL_Driver/Src/stm32h7xx_hal_rtc_ex.c ****   /* Process Locked */
 290:Drivers/STM32H7xx_HAL_Driver/Src/stm32h7xx_hal_rtc_ex.c ****   __HAL_LOCK(hrtc);
 275              		.loc 1 290 3 view .LVU91
 276              		.loc 1 290 3 view .LVU92
 277 0000 90F82020 		ldrb	r2, [r0, #32]	@ zero_extendqisi2
 278 0004 012A     		cmp	r2, #1
 279 0006 22D0     		beq	.L17
 286:Drivers/STM32H7xx_HAL_Driver/Src/stm32h7xx_hal_rtc_ex.c ****   uint32_t tmpreg;
 280              		.loc 1 286 1 is_stmt 0 view .LVU93
ARM GAS  C:\usertemp\cc0y2B3r.s 			page 11


 281 0008 10B4     		push	{r4}
 282              	.LCFI4:
 283              		.cfi_def_cfa_offset 4
 284              		.cfi_offset 4, -4
 285 000a 0346     		mov	r3, r0
 286              		.loc 1 290 3 is_stmt 1 discriminator 2 view .LVU94
 287 000c 0121     		movs	r1, #1
 288 000e 80F82010 		strb	r1, [r0, #32]
 289              		.loc 1 290 3 discriminator 2 view .LVU95
 291:Drivers/STM32H7xx_HAL_Driver/Src/stm32h7xx_hal_rtc_ex.c **** 
 292:Drivers/STM32H7xx_HAL_Driver/Src/stm32h7xx_hal_rtc_ex.c ****   hrtc->State = HAL_RTC_STATE_BUSY;
 290              		.loc 1 292 3 view .LVU96
 291              		.loc 1 292 15 is_stmt 0 view .LVU97
 292 0012 0222     		movs	r2, #2
 293 0014 80F82120 		strb	r2, [r0, #33]
 293:Drivers/STM32H7xx_HAL_Driver/Src/stm32h7xx_hal_rtc_ex.c **** 
 294:Drivers/STM32H7xx_HAL_Driver/Src/stm32h7xx_hal_rtc_ex.c ****   /* Disable the write protection for RTC registers */
 295:Drivers/STM32H7xx_HAL_Driver/Src/stm32h7xx_hal_rtc_ex.c ****   __HAL_RTC_WRITEPROTECTION_DISABLE(hrtc);
 294              		.loc 1 295 3 is_stmt 1 view .LVU98
 295              		.loc 1 295 3 view .LVU99
 296 0018 0268     		ldr	r2, [r0]
 297 001a CA20     		movs	r0, #202
 298              	.LVL21:
 299              		.loc 1 295 3 is_stmt 0 view .LVU100
 300 001c 5062     		str	r0, [r2, #36]
 301              		.loc 1 295 3 is_stmt 1 view .LVU101
 302 001e 1A68     		ldr	r2, [r3]
 303 0020 5320     		movs	r0, #83
 304 0022 5062     		str	r0, [r2, #36]
 305              		.loc 1 295 3 view .LVU102
 296:Drivers/STM32H7xx_HAL_Driver/Src/stm32h7xx_hal_rtc_ex.c **** 
 297:Drivers/STM32H7xx_HAL_Driver/Src/stm32h7xx_hal_rtc_ex.c ****   /* In case of interrupt mode is used, the interrupt source must disabled */
 298:Drivers/STM32H7xx_HAL_Driver/Src/stm32h7xx_hal_rtc_ex.c ****   __HAL_RTC_TIMESTAMP_DISABLE_IT(hrtc, RTC_IT_TS);
 306              		.loc 1 298 3 view .LVU103
 307 0024 1868     		ldr	r0, [r3]
 308 0026 8268     		ldr	r2, [r0, #8]
 309 0028 22F40042 		bic	r2, r2, #32768
 310 002c 8260     		str	r2, [r0, #8]
 299:Drivers/STM32H7xx_HAL_Driver/Src/stm32h7xx_hal_rtc_ex.c **** 
 300:Drivers/STM32H7xx_HAL_Driver/Src/stm32h7xx_hal_rtc_ex.c ****   /* Get the RTC_CR register and clear the bits to be configured */
 301:Drivers/STM32H7xx_HAL_Driver/Src/stm32h7xx_hal_rtc_ex.c ****   tmpreg = (uint32_t)(hrtc->Instance->CR & (uint32_t)~(RTC_CR_TSEDGE | RTC_CR_TSE));
 311              		.loc 1 301 3 view .LVU104
 312              		.loc 1 301 27 is_stmt 0 view .LVU105
 313 002e 1868     		ldr	r0, [r3]
 314              		.loc 1 301 37 view .LVU106
 315 0030 8468     		ldr	r4, [r0, #8]
 316              		.loc 1 301 10 view .LVU107
 317 0032 084A     		ldr	r2, .L22
 318 0034 2240     		ands	r2, r2, r4
 319              	.LVL22:
 302:Drivers/STM32H7xx_HAL_Driver/Src/stm32h7xx_hal_rtc_ex.c **** 
 303:Drivers/STM32H7xx_HAL_Driver/Src/stm32h7xx_hal_rtc_ex.c ****   /* Configure the Time Stamp TSEDGE and Enable bits */
 304:Drivers/STM32H7xx_HAL_Driver/Src/stm32h7xx_hal_rtc_ex.c ****   hrtc->Instance->CR = (uint32_t)tmpreg;
 320              		.loc 1 304 3 is_stmt 1 view .LVU108
 321              		.loc 1 304 22 is_stmt 0 view .LVU109
 322 0036 8260     		str	r2, [r0, #8]
 305:Drivers/STM32H7xx_HAL_Driver/Src/stm32h7xx_hal_rtc_ex.c **** 
ARM GAS  C:\usertemp\cc0y2B3r.s 			page 12


 306:Drivers/STM32H7xx_HAL_Driver/Src/stm32h7xx_hal_rtc_ex.c ****   /* Enable the write protection for RTC registers */
 307:Drivers/STM32H7xx_HAL_Driver/Src/stm32h7xx_hal_rtc_ex.c ****   __HAL_RTC_WRITEPROTECTION_ENABLE(hrtc);
 323              		.loc 1 307 3 is_stmt 1 view .LVU110
 324              		.loc 1 307 3 view .LVU111
 325 0038 1A68     		ldr	r2, [r3]
 326              	.LVL23:
 327              		.loc 1 307 3 is_stmt 0 view .LVU112
 328 003a FF20     		movs	r0, #255
 329              	.LVL24:
 330              		.loc 1 307 3 view .LVU113
 331 003c 5062     		str	r0, [r2, #36]
 332              		.loc 1 307 3 is_stmt 1 view .LVU114
 308:Drivers/STM32H7xx_HAL_Driver/Src/stm32h7xx_hal_rtc_ex.c **** 
 309:Drivers/STM32H7xx_HAL_Driver/Src/stm32h7xx_hal_rtc_ex.c ****   hrtc->State = HAL_RTC_STATE_READY;
 333              		.loc 1 309 3 view .LVU115
 334              		.loc 1 309 15 is_stmt 0 view .LVU116
 335 003e 83F82110 		strb	r1, [r3, #33]
 310:Drivers/STM32H7xx_HAL_Driver/Src/stm32h7xx_hal_rtc_ex.c **** 
 311:Drivers/STM32H7xx_HAL_Driver/Src/stm32h7xx_hal_rtc_ex.c ****   /* Process Unlocked */
 312:Drivers/STM32H7xx_HAL_Driver/Src/stm32h7xx_hal_rtc_ex.c ****   __HAL_UNLOCK(hrtc);
 336              		.loc 1 312 3 is_stmt 1 view .LVU117
 337              		.loc 1 312 3 view .LVU118
 338 0042 0020     		movs	r0, #0
 339 0044 83F82000 		strb	r0, [r3, #32]
 340              		.loc 1 312 3 view .LVU119
 313:Drivers/STM32H7xx_HAL_Driver/Src/stm32h7xx_hal_rtc_ex.c **** 
 314:Drivers/STM32H7xx_HAL_Driver/Src/stm32h7xx_hal_rtc_ex.c ****   return HAL_OK;
 341              		.loc 1 314 3 view .LVU120
 315:Drivers/STM32H7xx_HAL_Driver/Src/stm32h7xx_hal_rtc_ex.c **** }
 342              		.loc 1 315 1 is_stmt 0 view .LVU121
 343 0048 5DF8044B 		ldr	r4, [sp], #4
 344              	.LCFI5:
 345              		.cfi_restore 4
 346              		.cfi_def_cfa_offset 0
 347              	.LVL25:
 348              		.loc 1 315 1 view .LVU122
 349 004c 7047     		bx	lr
 350              	.LVL26:
 351              	.L17:
 290:Drivers/STM32H7xx_HAL_Driver/Src/stm32h7xx_hal_rtc_ex.c **** 
 352              		.loc 1 290 3 discriminator 1 view .LVU123
 353 004e 0220     		movs	r0, #2
 354              	.LVL27:
 355              		.loc 1 315 1 view .LVU124
 356 0050 7047     		bx	lr
 357              	.L23:
 358 0052 00BF     		.align	2
 359              	.L22:
 360 0054 F7F7FFFF 		.word	-2057
 361              		.cfi_endproc
 362              	.LFE335:
 364              		.section	.text.HAL_RTCEx_SetInternalTimeStamp,"ax",%progbits
 365              		.align	1
 366              		.global	HAL_RTCEx_SetInternalTimeStamp
 367              		.syntax unified
 368              		.thumb
 369              		.thumb_func
ARM GAS  C:\usertemp\cc0y2B3r.s 			page 13


 371              	HAL_RTCEx_SetInternalTimeStamp:
 372              	.LVL28:
 373              	.LFB336:
 316:Drivers/STM32H7xx_HAL_Driver/Src/stm32h7xx_hal_rtc_ex.c **** 
 317:Drivers/STM32H7xx_HAL_Driver/Src/stm32h7xx_hal_rtc_ex.c **** /**
 318:Drivers/STM32H7xx_HAL_Driver/Src/stm32h7xx_hal_rtc_ex.c ****   * @brief  Set Internal TimeStamp.
 319:Drivers/STM32H7xx_HAL_Driver/Src/stm32h7xx_hal_rtc_ex.c ****   * @note   This API must be called before enabling the internal TimeStamp feature.
 320:Drivers/STM32H7xx_HAL_Driver/Src/stm32h7xx_hal_rtc_ex.c ****   * @param  hrtc RTC handle
 321:Drivers/STM32H7xx_HAL_Driver/Src/stm32h7xx_hal_rtc_ex.c ****   * @retval HAL status
 322:Drivers/STM32H7xx_HAL_Driver/Src/stm32h7xx_hal_rtc_ex.c ****   */
 323:Drivers/STM32H7xx_HAL_Driver/Src/stm32h7xx_hal_rtc_ex.c **** HAL_StatusTypeDef HAL_RTCEx_SetInternalTimeStamp(RTC_HandleTypeDef *hrtc)
 324:Drivers/STM32H7xx_HAL_Driver/Src/stm32h7xx_hal_rtc_ex.c **** {
 374              		.loc 1 324 1 is_stmt 1 view -0
 375              		.cfi_startproc
 376              		@ args = 0, pretend = 0, frame = 0
 377              		@ frame_needed = 0, uses_anonymous_args = 0
 378              		@ link register save eliminated.
 325:Drivers/STM32H7xx_HAL_Driver/Src/stm32h7xx_hal_rtc_ex.c ****   /* Process Locked */
 326:Drivers/STM32H7xx_HAL_Driver/Src/stm32h7xx_hal_rtc_ex.c ****   __HAL_LOCK(hrtc);
 379              		.loc 1 326 3 view .LVU126
 380              		.loc 1 326 3 view .LVU127
 381 0000 90F82030 		ldrb	r3, [r0, #32]	@ zero_extendqisi2
 382 0004 012B     		cmp	r3, #1
 383 0006 1AD0     		beq	.L26
 384              		.loc 1 326 3 discriminator 2 view .LVU128
 385 0008 0122     		movs	r2, #1
 386 000a 80F82020 		strb	r2, [r0, #32]
 387              		.loc 1 326 3 discriminator 2 view .LVU129
 327:Drivers/STM32H7xx_HAL_Driver/Src/stm32h7xx_hal_rtc_ex.c **** 
 328:Drivers/STM32H7xx_HAL_Driver/Src/stm32h7xx_hal_rtc_ex.c ****   hrtc->State = HAL_RTC_STATE_BUSY;
 388              		.loc 1 328 3 view .LVU130
 389              		.loc 1 328 15 is_stmt 0 view .LVU131
 390 000e 0223     		movs	r3, #2
 391 0010 80F82130 		strb	r3, [r0, #33]
 329:Drivers/STM32H7xx_HAL_Driver/Src/stm32h7xx_hal_rtc_ex.c **** 
 330:Drivers/STM32H7xx_HAL_Driver/Src/stm32h7xx_hal_rtc_ex.c ****   /* Disable the write protection for RTC registers */
 331:Drivers/STM32H7xx_HAL_Driver/Src/stm32h7xx_hal_rtc_ex.c ****   __HAL_RTC_WRITEPROTECTION_DISABLE(hrtc);
 392              		.loc 1 331 3 is_stmt 1 view .LVU132
 393              		.loc 1 331 3 view .LVU133
 394 0014 0368     		ldr	r3, [r0]
 395 0016 CA21     		movs	r1, #202
 396 0018 5962     		str	r1, [r3, #36]
 397              		.loc 1 331 3 view .LVU134
 398 001a 0368     		ldr	r3, [r0]
 399 001c 5321     		movs	r1, #83
 400 001e 5962     		str	r1, [r3, #36]
 401              		.loc 1 331 3 view .LVU135
 332:Drivers/STM32H7xx_HAL_Driver/Src/stm32h7xx_hal_rtc_ex.c **** 
 333:Drivers/STM32H7xx_HAL_Driver/Src/stm32h7xx_hal_rtc_ex.c ****   /* Configure the internal Time Stamp Enable bits */
 334:Drivers/STM32H7xx_HAL_Driver/Src/stm32h7xx_hal_rtc_ex.c ****   __HAL_RTC_INTERNAL_TIMESTAMP_ENABLE(hrtc);
 402              		.loc 1 334 3 view .LVU136
 403 0020 0168     		ldr	r1, [r0]
 404 0022 8B68     		ldr	r3, [r1, #8]
 405 0024 43F08073 		orr	r3, r3, #16777216
 406 0028 8B60     		str	r3, [r1, #8]
 335:Drivers/STM32H7xx_HAL_Driver/Src/stm32h7xx_hal_rtc_ex.c **** 
 336:Drivers/STM32H7xx_HAL_Driver/Src/stm32h7xx_hal_rtc_ex.c ****   /* Enable the write protection for RTC registers */
ARM GAS  C:\usertemp\cc0y2B3r.s 			page 14


 337:Drivers/STM32H7xx_HAL_Driver/Src/stm32h7xx_hal_rtc_ex.c ****   __HAL_RTC_WRITEPROTECTION_ENABLE(hrtc);
 407              		.loc 1 337 3 view .LVU137
 408              		.loc 1 337 3 view .LVU138
 409 002a 0368     		ldr	r3, [r0]
 410 002c FF21     		movs	r1, #255
 411 002e 5962     		str	r1, [r3, #36]
 412              		.loc 1 337 3 view .LVU139
 338:Drivers/STM32H7xx_HAL_Driver/Src/stm32h7xx_hal_rtc_ex.c **** 
 339:Drivers/STM32H7xx_HAL_Driver/Src/stm32h7xx_hal_rtc_ex.c ****   /* Change RTC state */
 340:Drivers/STM32H7xx_HAL_Driver/Src/stm32h7xx_hal_rtc_ex.c ****   hrtc->State = HAL_RTC_STATE_READY;
 413              		.loc 1 340 3 view .LVU140
 414              		.loc 1 340 15 is_stmt 0 view .LVU141
 415 0030 80F82120 		strb	r2, [r0, #33]
 341:Drivers/STM32H7xx_HAL_Driver/Src/stm32h7xx_hal_rtc_ex.c **** 
 342:Drivers/STM32H7xx_HAL_Driver/Src/stm32h7xx_hal_rtc_ex.c ****   /* Process Unlocked */
 343:Drivers/STM32H7xx_HAL_Driver/Src/stm32h7xx_hal_rtc_ex.c ****   __HAL_UNLOCK(hrtc);
 416              		.loc 1 343 3 is_stmt 1 view .LVU142
 417              		.loc 1 343 3 view .LVU143
 418 0034 0023     		movs	r3, #0
 419 0036 80F82030 		strb	r3, [r0, #32]
 420              		.loc 1 343 3 view .LVU144
 344:Drivers/STM32H7xx_HAL_Driver/Src/stm32h7xx_hal_rtc_ex.c **** 
 345:Drivers/STM32H7xx_HAL_Driver/Src/stm32h7xx_hal_rtc_ex.c ****   return HAL_OK;
 421              		.loc 1 345 3 view .LVU145
 422              		.loc 1 345 10 is_stmt 0 view .LVU146
 423 003a 1846     		mov	r0, r3
 424              	.LVL29:
 425              		.loc 1 345 10 view .LVU147
 426 003c 7047     		bx	lr
 427              	.LVL30:
 428              	.L26:
 326:Drivers/STM32H7xx_HAL_Driver/Src/stm32h7xx_hal_rtc_ex.c **** 
 429              		.loc 1 326 3 discriminator 1 view .LVU148
 430 003e 0220     		movs	r0, #2
 431              	.LVL31:
 346:Drivers/STM32H7xx_HAL_Driver/Src/stm32h7xx_hal_rtc_ex.c **** }
 432              		.loc 1 346 1 view .LVU149
 433 0040 7047     		bx	lr
 434              		.cfi_endproc
 435              	.LFE336:
 437              		.section	.text.HAL_RTCEx_DeactivateInternalTimeStamp,"ax",%progbits
 438              		.align	1
 439              		.global	HAL_RTCEx_DeactivateInternalTimeStamp
 440              		.syntax unified
 441              		.thumb
 442              		.thumb_func
 444              	HAL_RTCEx_DeactivateInternalTimeStamp:
 445              	.LVL32:
 446              	.LFB337:
 347:Drivers/STM32H7xx_HAL_Driver/Src/stm32h7xx_hal_rtc_ex.c **** 
 348:Drivers/STM32H7xx_HAL_Driver/Src/stm32h7xx_hal_rtc_ex.c **** /**
 349:Drivers/STM32H7xx_HAL_Driver/Src/stm32h7xx_hal_rtc_ex.c ****   * @brief  Deactivate Internal TimeStamp.
 350:Drivers/STM32H7xx_HAL_Driver/Src/stm32h7xx_hal_rtc_ex.c ****   * @param  hrtc RTC handle
 351:Drivers/STM32H7xx_HAL_Driver/Src/stm32h7xx_hal_rtc_ex.c ****   * @retval HAL status
 352:Drivers/STM32H7xx_HAL_Driver/Src/stm32h7xx_hal_rtc_ex.c ****   */
 353:Drivers/STM32H7xx_HAL_Driver/Src/stm32h7xx_hal_rtc_ex.c **** HAL_StatusTypeDef HAL_RTCEx_DeactivateInternalTimeStamp(RTC_HandleTypeDef *hrtc)
 354:Drivers/STM32H7xx_HAL_Driver/Src/stm32h7xx_hal_rtc_ex.c **** {
ARM GAS  C:\usertemp\cc0y2B3r.s 			page 15


 447              		.loc 1 354 1 is_stmt 1 view -0
 448              		.cfi_startproc
 449              		@ args = 0, pretend = 0, frame = 0
 450              		@ frame_needed = 0, uses_anonymous_args = 0
 451              		@ link register save eliminated.
 355:Drivers/STM32H7xx_HAL_Driver/Src/stm32h7xx_hal_rtc_ex.c ****   /* Process Locked */
 356:Drivers/STM32H7xx_HAL_Driver/Src/stm32h7xx_hal_rtc_ex.c ****   __HAL_LOCK(hrtc);
 452              		.loc 1 356 3 view .LVU151
 453              		.loc 1 356 3 view .LVU152
 454 0000 90F82030 		ldrb	r3, [r0, #32]	@ zero_extendqisi2
 455 0004 012B     		cmp	r3, #1
 456 0006 1AD0     		beq	.L29
 457              		.loc 1 356 3 discriminator 2 view .LVU153
 458 0008 0122     		movs	r2, #1
 459 000a 80F82020 		strb	r2, [r0, #32]
 460              		.loc 1 356 3 discriminator 2 view .LVU154
 357:Drivers/STM32H7xx_HAL_Driver/Src/stm32h7xx_hal_rtc_ex.c **** 
 358:Drivers/STM32H7xx_HAL_Driver/Src/stm32h7xx_hal_rtc_ex.c ****   hrtc->State = HAL_RTC_STATE_BUSY;
 461              		.loc 1 358 3 view .LVU155
 462              		.loc 1 358 15 is_stmt 0 view .LVU156
 463 000e 0223     		movs	r3, #2
 464 0010 80F82130 		strb	r3, [r0, #33]
 359:Drivers/STM32H7xx_HAL_Driver/Src/stm32h7xx_hal_rtc_ex.c **** 
 360:Drivers/STM32H7xx_HAL_Driver/Src/stm32h7xx_hal_rtc_ex.c ****   /* Disable the write protection for RTC registers */
 361:Drivers/STM32H7xx_HAL_Driver/Src/stm32h7xx_hal_rtc_ex.c ****   __HAL_RTC_WRITEPROTECTION_DISABLE(hrtc);
 465              		.loc 1 361 3 is_stmt 1 view .LVU157
 466              		.loc 1 361 3 view .LVU158
 467 0014 0368     		ldr	r3, [r0]
 468 0016 CA21     		movs	r1, #202
 469 0018 5962     		str	r1, [r3, #36]
 470              		.loc 1 361 3 view .LVU159
 471 001a 0368     		ldr	r3, [r0]
 472 001c 5321     		movs	r1, #83
 473 001e 5962     		str	r1, [r3, #36]
 474              		.loc 1 361 3 view .LVU160
 362:Drivers/STM32H7xx_HAL_Driver/Src/stm32h7xx_hal_rtc_ex.c **** 
 363:Drivers/STM32H7xx_HAL_Driver/Src/stm32h7xx_hal_rtc_ex.c ****   /* Configure the internal Time Stamp Enable bits */
 364:Drivers/STM32H7xx_HAL_Driver/Src/stm32h7xx_hal_rtc_ex.c ****   __HAL_RTC_INTERNAL_TIMESTAMP_DISABLE(hrtc);
 475              		.loc 1 364 3 view .LVU161
 476 0020 0168     		ldr	r1, [r0]
 477 0022 8B68     		ldr	r3, [r1, #8]
 478 0024 23F08073 		bic	r3, r3, #16777216
 479 0028 8B60     		str	r3, [r1, #8]
 365:Drivers/STM32H7xx_HAL_Driver/Src/stm32h7xx_hal_rtc_ex.c **** 
 366:Drivers/STM32H7xx_HAL_Driver/Src/stm32h7xx_hal_rtc_ex.c ****   /* Enable the write protection for RTC registers */
 367:Drivers/STM32H7xx_HAL_Driver/Src/stm32h7xx_hal_rtc_ex.c ****   __HAL_RTC_WRITEPROTECTION_ENABLE(hrtc);
 480              		.loc 1 367 3 view .LVU162
 481              		.loc 1 367 3 view .LVU163
 482 002a 0368     		ldr	r3, [r0]
 483 002c FF21     		movs	r1, #255
 484 002e 5962     		str	r1, [r3, #36]
 485              		.loc 1 367 3 view .LVU164
 368:Drivers/STM32H7xx_HAL_Driver/Src/stm32h7xx_hal_rtc_ex.c **** 
 369:Drivers/STM32H7xx_HAL_Driver/Src/stm32h7xx_hal_rtc_ex.c ****   hrtc->State = HAL_RTC_STATE_READY;
 486              		.loc 1 369 3 view .LVU165
 487              		.loc 1 369 15 is_stmt 0 view .LVU166
 488 0030 80F82120 		strb	r2, [r0, #33]
ARM GAS  C:\usertemp\cc0y2B3r.s 			page 16


 370:Drivers/STM32H7xx_HAL_Driver/Src/stm32h7xx_hal_rtc_ex.c **** 
 371:Drivers/STM32H7xx_HAL_Driver/Src/stm32h7xx_hal_rtc_ex.c ****   /* Process Unlocked */
 372:Drivers/STM32H7xx_HAL_Driver/Src/stm32h7xx_hal_rtc_ex.c ****   __HAL_UNLOCK(hrtc);
 489              		.loc 1 372 3 is_stmt 1 view .LVU167
 490              		.loc 1 372 3 view .LVU168
 491 0034 0023     		movs	r3, #0
 492 0036 80F82030 		strb	r3, [r0, #32]
 493              		.loc 1 372 3 view .LVU169
 373:Drivers/STM32H7xx_HAL_Driver/Src/stm32h7xx_hal_rtc_ex.c **** 
 374:Drivers/STM32H7xx_HAL_Driver/Src/stm32h7xx_hal_rtc_ex.c ****   return HAL_OK;
 494              		.loc 1 374 3 view .LVU170
 495              		.loc 1 374 10 is_stmt 0 view .LVU171
 496 003a 1846     		mov	r0, r3
 497              	.LVL33:
 498              		.loc 1 374 10 view .LVU172
 499 003c 7047     		bx	lr
 500              	.LVL34:
 501              	.L29:
 356:Drivers/STM32H7xx_HAL_Driver/Src/stm32h7xx_hal_rtc_ex.c **** 
 502              		.loc 1 356 3 discriminator 1 view .LVU173
 503 003e 0220     		movs	r0, #2
 504              	.LVL35:
 375:Drivers/STM32H7xx_HAL_Driver/Src/stm32h7xx_hal_rtc_ex.c **** }
 505              		.loc 1 375 1 view .LVU174
 506 0040 7047     		bx	lr
 507              		.cfi_endproc
 508              	.LFE337:
 510              		.section	.text.HAL_RTCEx_GetTimeStamp,"ax",%progbits
 511              		.align	1
 512              		.global	HAL_RTCEx_GetTimeStamp
 513              		.syntax unified
 514              		.thumb
 515              		.thumb_func
 517              	HAL_RTCEx_GetTimeStamp:
 518              	.LVL36:
 519              	.LFB338:
 376:Drivers/STM32H7xx_HAL_Driver/Src/stm32h7xx_hal_rtc_ex.c **** 
 377:Drivers/STM32H7xx_HAL_Driver/Src/stm32h7xx_hal_rtc_ex.c **** /**
 378:Drivers/STM32H7xx_HAL_Driver/Src/stm32h7xx_hal_rtc_ex.c ****   * @brief  Get the RTC TimeStamp value.
 379:Drivers/STM32H7xx_HAL_Driver/Src/stm32h7xx_hal_rtc_ex.c ****   * @param  hrtc RTC handle
 380:Drivers/STM32H7xx_HAL_Driver/Src/stm32h7xx_hal_rtc_ex.c ****   * @param  sTimeStamp Pointer to Time structure
 381:Drivers/STM32H7xx_HAL_Driver/Src/stm32h7xx_hal_rtc_ex.c ****   * @param  sTimeStampDate Pointer to Date structure
 382:Drivers/STM32H7xx_HAL_Driver/Src/stm32h7xx_hal_rtc_ex.c ****   * @param  Format specifies the format of the entered parameters.
 383:Drivers/STM32H7xx_HAL_Driver/Src/stm32h7xx_hal_rtc_ex.c ****   *          This parameter can be one of the following values:
 384:Drivers/STM32H7xx_HAL_Driver/Src/stm32h7xx_hal_rtc_ex.c ****   *             @arg RTC_FORMAT_BIN: Binary data format
 385:Drivers/STM32H7xx_HAL_Driver/Src/stm32h7xx_hal_rtc_ex.c ****   *             @arg RTC_FORMAT_BCD: BCD data format
 386:Drivers/STM32H7xx_HAL_Driver/Src/stm32h7xx_hal_rtc_ex.c ****   * @retval HAL status
 387:Drivers/STM32H7xx_HAL_Driver/Src/stm32h7xx_hal_rtc_ex.c ****   */
 388:Drivers/STM32H7xx_HAL_Driver/Src/stm32h7xx_hal_rtc_ex.c **** HAL_StatusTypeDef HAL_RTCEx_GetTimeStamp(RTC_HandleTypeDef *hrtc, RTC_TimeTypeDef *sTimeStamp, RTC_
 389:Drivers/STM32H7xx_HAL_Driver/Src/stm32h7xx_hal_rtc_ex.c **** {
 520              		.loc 1 389 1 is_stmt 1 view -0
 521              		.cfi_startproc
 522              		@ args = 0, pretend = 0, frame = 0
 523              		@ frame_needed = 0, uses_anonymous_args = 0
 524              		.loc 1 389 1 is_stmt 0 view .LVU176
 525 0000 70B5     		push	{r4, r5, r6, lr}
 526              	.LCFI6:
ARM GAS  C:\usertemp\cc0y2B3r.s 			page 17


 527              		.cfi_def_cfa_offset 16
 528              		.cfi_offset 4, -16
 529              		.cfi_offset 5, -12
 530              		.cfi_offset 6, -8
 531              		.cfi_offset 14, -4
 532 0002 0646     		mov	r6, r0
 533 0004 0C46     		mov	r4, r1
 534 0006 1546     		mov	r5, r2
 390:Drivers/STM32H7xx_HAL_Driver/Src/stm32h7xx_hal_rtc_ex.c ****   uint32_t tmptime;
 535              		.loc 1 390 3 is_stmt 1 view .LVU177
 391:Drivers/STM32H7xx_HAL_Driver/Src/stm32h7xx_hal_rtc_ex.c ****   uint32_t tmpdate;
 536              		.loc 1 391 3 view .LVU178
 392:Drivers/STM32H7xx_HAL_Driver/Src/stm32h7xx_hal_rtc_ex.c **** 
 393:Drivers/STM32H7xx_HAL_Driver/Src/stm32h7xx_hal_rtc_ex.c ****   /* Check the parameters */
 394:Drivers/STM32H7xx_HAL_Driver/Src/stm32h7xx_hal_rtc_ex.c ****   assert_param(IS_RTC_FORMAT(Format));
 537              		.loc 1 394 3 view .LVU179
 395:Drivers/STM32H7xx_HAL_Driver/Src/stm32h7xx_hal_rtc_ex.c **** 
 396:Drivers/STM32H7xx_HAL_Driver/Src/stm32h7xx_hal_rtc_ex.c ****   /* Get the TimeStamp time and date registers values */
 397:Drivers/STM32H7xx_HAL_Driver/Src/stm32h7xx_hal_rtc_ex.c ****   tmptime = (uint32_t)(hrtc->Instance->TSTR & RTC_TR_RESERVED_MASK);
 538              		.loc 1 397 3 view .LVU180
 539              		.loc 1 397 28 is_stmt 0 view .LVU181
 540 0008 0168     		ldr	r1, [r0]
 541              	.LVL37:
 542              		.loc 1 397 38 view .LVU182
 543 000a 0A6B     		ldr	r2, [r1, #48]
 544              	.LVL38:
 398:Drivers/STM32H7xx_HAL_Driver/Src/stm32h7xx_hal_rtc_ex.c ****   tmpdate = (uint32_t)(hrtc->Instance->TSDR & RTC_DR_RESERVED_MASK);
 545              		.loc 1 398 3 is_stmt 1 view .LVU183
 546              		.loc 1 398 38 is_stmt 0 view .LVU184
 547 000c 496B     		ldr	r1, [r1, #52]
 548              	.LVL39:
 399:Drivers/STM32H7xx_HAL_Driver/Src/stm32h7xx_hal_rtc_ex.c **** 
 400:Drivers/STM32H7xx_HAL_Driver/Src/stm32h7xx_hal_rtc_ex.c ****   /* Fill the Time structure fields with the read parameters */
 401:Drivers/STM32H7xx_HAL_Driver/Src/stm32h7xx_hal_rtc_ex.c ****   sTimeStamp->Hours      = (uint8_t)((tmptime & (RTC_TSTR_HT  | RTC_TSTR_HU))  >> RTC_TSTR_HU_Pos);
 549              		.loc 1 401 3 is_stmt 1 view .LVU185
 550              		.loc 1 401 28 is_stmt 0 view .LVU186
 551 000e C2F30540 		ubfx	r0, r2, #16, #6
 552              	.LVL40:
 553              		.loc 1 401 26 view .LVU187
 554 0012 2070     		strb	r0, [r4]
 402:Drivers/STM32H7xx_HAL_Driver/Src/stm32h7xx_hal_rtc_ex.c ****   sTimeStamp->Minutes    = (uint8_t)((tmptime & (RTC_TSTR_MNT | RTC_TSTR_MNU)) >> RTC_TSTR_MNU_Pos)
 555              		.loc 1 402 3 is_stmt 1 view .LVU188
 556              		.loc 1 402 28 is_stmt 0 view .LVU189
 557 0014 C2F30620 		ubfx	r0, r2, #8, #7
 558              		.loc 1 402 26 view .LVU190
 559 0018 6070     		strb	r0, [r4, #1]
 403:Drivers/STM32H7xx_HAL_Driver/Src/stm32h7xx_hal_rtc_ex.c ****   sTimeStamp->Seconds    = (uint8_t)((tmptime & (RTC_TSTR_ST  | RTC_TSTR_SU))  >> RTC_TSTR_SU_Pos);
 560              		.loc 1 403 3 is_stmt 1 view .LVU191
 561              		.loc 1 403 28 is_stmt 0 view .LVU192
 562 001a 02F07F00 		and	r0, r2, #127
 563              		.loc 1 403 26 view .LVU193
 564 001e A070     		strb	r0, [r4, #2]
 404:Drivers/STM32H7xx_HAL_Driver/Src/stm32h7xx_hal_rtc_ex.c ****   sTimeStamp->TimeFormat = (uint8_t)((tmptime & (RTC_TSTR_PM))                 >> RTC_TSTR_PM_Pos);
 565              		.loc 1 404 3 is_stmt 1 view .LVU194
 566              		.loc 1 404 28 is_stmt 0 view .LVU195
 567 0020 C2F38052 		ubfx	r2, r2, #22, #1
 568              	.LVL41:
ARM GAS  C:\usertemp\cc0y2B3r.s 			page 18


 569              		.loc 1 404 26 view .LVU196
 570 0024 E270     		strb	r2, [r4, #3]
 405:Drivers/STM32H7xx_HAL_Driver/Src/stm32h7xx_hal_rtc_ex.c ****   sTimeStamp->SubSeconds = (uint32_t) hrtc->Instance->TSSSR;
 571              		.loc 1 405 3 is_stmt 1 view .LVU197
 572              		.loc 1 405 43 is_stmt 0 view .LVU198
 573 0026 3268     		ldr	r2, [r6]
 574              		.loc 1 405 53 view .LVU199
 575 0028 926B     		ldr	r2, [r2, #56]
 576              		.loc 1 405 26 view .LVU200
 577 002a 6260     		str	r2, [r4, #4]
 406:Drivers/STM32H7xx_HAL_Driver/Src/stm32h7xx_hal_rtc_ex.c **** 
 407:Drivers/STM32H7xx_HAL_Driver/Src/stm32h7xx_hal_rtc_ex.c ****   /* Fill the Date structure fields with the read parameters */
 408:Drivers/STM32H7xx_HAL_Driver/Src/stm32h7xx_hal_rtc_ex.c ****   sTimeStampDate->Year    = 0U;
 578              		.loc 1 408 3 is_stmt 1 view .LVU201
 579              		.loc 1 408 27 is_stmt 0 view .LVU202
 580 002c 0022     		movs	r2, #0
 581 002e EA70     		strb	r2, [r5, #3]
 409:Drivers/STM32H7xx_HAL_Driver/Src/stm32h7xx_hal_rtc_ex.c ****   sTimeStampDate->Month   = (uint8_t)((tmpdate & (RTC_TSDR_MT | RTC_TSDR_MU)) >> RTC_TSDR_MU_Pos);
 582              		.loc 1 409 3 is_stmt 1 view .LVU203
 583              		.loc 1 409 29 is_stmt 0 view .LVU204
 584 0030 C1F30422 		ubfx	r2, r1, #8, #5
 585              		.loc 1 409 27 view .LVU205
 586 0034 6A70     		strb	r2, [r5, #1]
 410:Drivers/STM32H7xx_HAL_Driver/Src/stm32h7xx_hal_rtc_ex.c ****   sTimeStampDate->Date    = (uint8_t)((tmpdate & (RTC_TSDR_DT | RTC_TSDR_DU)) >> RTC_TSDR_DU_Pos);
 587              		.loc 1 410 3 is_stmt 1 view .LVU206
 588              		.loc 1 410 29 is_stmt 0 view .LVU207
 589 0036 01F03F02 		and	r2, r1, #63
 590              		.loc 1 410 27 view .LVU208
 591 003a AA70     		strb	r2, [r5, #2]
 411:Drivers/STM32H7xx_HAL_Driver/Src/stm32h7xx_hal_rtc_ex.c ****   sTimeStampDate->WeekDay = (uint8_t)((tmpdate & (RTC_TSDR_WDU))              >> RTC_TSDR_WDU_Pos);
 592              		.loc 1 411 3 is_stmt 1 view .LVU209
 593              		.loc 1 411 29 is_stmt 0 view .LVU210
 594 003c C1F34231 		ubfx	r1, r1, #13, #3
 595              	.LVL42:
 596              		.loc 1 411 27 view .LVU211
 597 0040 2970     		strb	r1, [r5]
 412:Drivers/STM32H7xx_HAL_Driver/Src/stm32h7xx_hal_rtc_ex.c **** 
 413:Drivers/STM32H7xx_HAL_Driver/Src/stm32h7xx_hal_rtc_ex.c ****   /* Check the input parameters format */
 414:Drivers/STM32H7xx_HAL_Driver/Src/stm32h7xx_hal_rtc_ex.c ****   if (Format == RTC_FORMAT_BIN)
 598              		.loc 1 414 3 is_stmt 1 view .LVU212
 599              		.loc 1 414 6 is_stmt 0 view .LVU213
 600 0042 6BB1     		cbz	r3, .L33
 601              	.LVL43:
 602              	.L31:
 415:Drivers/STM32H7xx_HAL_Driver/Src/stm32h7xx_hal_rtc_ex.c ****   {
 416:Drivers/STM32H7xx_HAL_Driver/Src/stm32h7xx_hal_rtc_ex.c ****     /* Convert the TimeStamp structure parameters to Binary format */
 417:Drivers/STM32H7xx_HAL_Driver/Src/stm32h7xx_hal_rtc_ex.c ****     sTimeStamp->Hours   = (uint8_t)RTC_Bcd2ToByte(sTimeStamp->Hours);
 418:Drivers/STM32H7xx_HAL_Driver/Src/stm32h7xx_hal_rtc_ex.c ****     sTimeStamp->Minutes = (uint8_t)RTC_Bcd2ToByte(sTimeStamp->Minutes);
 419:Drivers/STM32H7xx_HAL_Driver/Src/stm32h7xx_hal_rtc_ex.c ****     sTimeStamp->Seconds = (uint8_t)RTC_Bcd2ToByte(sTimeStamp->Seconds);
 420:Drivers/STM32H7xx_HAL_Driver/Src/stm32h7xx_hal_rtc_ex.c **** 
 421:Drivers/STM32H7xx_HAL_Driver/Src/stm32h7xx_hal_rtc_ex.c ****     /* Convert the DateTimeStamp structure parameters to Binary format */
 422:Drivers/STM32H7xx_HAL_Driver/Src/stm32h7xx_hal_rtc_ex.c ****     sTimeStampDate->Month   = (uint8_t)RTC_Bcd2ToByte(sTimeStampDate->Month);
 423:Drivers/STM32H7xx_HAL_Driver/Src/stm32h7xx_hal_rtc_ex.c ****     sTimeStampDate->Date    = (uint8_t)RTC_Bcd2ToByte(sTimeStampDate->Date);
 424:Drivers/STM32H7xx_HAL_Driver/Src/stm32h7xx_hal_rtc_ex.c ****     sTimeStampDate->WeekDay = (uint8_t)RTC_Bcd2ToByte(sTimeStampDate->WeekDay);
 425:Drivers/STM32H7xx_HAL_Driver/Src/stm32h7xx_hal_rtc_ex.c ****   }
 426:Drivers/STM32H7xx_HAL_Driver/Src/stm32h7xx_hal_rtc_ex.c **** 
 427:Drivers/STM32H7xx_HAL_Driver/Src/stm32h7xx_hal_rtc_ex.c ****   /* Clear the TIMESTAMP Flags */
ARM GAS  C:\usertemp\cc0y2B3r.s 			page 19


 428:Drivers/STM32H7xx_HAL_Driver/Src/stm32h7xx_hal_rtc_ex.c ****   __HAL_RTC_INTERNAL_TIMESTAMP_CLEAR_FLAG(hrtc, RTC_FLAG_ITSF);
 603              		.loc 1 428 3 is_stmt 1 view .LVU214
 604 0044 3168     		ldr	r1, [r6]
 605 0046 CA68     		ldr	r2, [r1, #12]
 606 0048 D2B2     		uxtb	r2, r2
 607 004a 124B     		ldr	r3, .L34
 608 004c 1343     		orrs	r3, r3, r2
 609 004e CB60     		str	r3, [r1, #12]
 429:Drivers/STM32H7xx_HAL_Driver/Src/stm32h7xx_hal_rtc_ex.c ****   __HAL_RTC_TIMESTAMP_CLEAR_FLAG(hrtc, RTC_FLAG_TSF);
 610              		.loc 1 429 3 view .LVU215
 611 0050 3268     		ldr	r2, [r6]
 612 0052 D368     		ldr	r3, [r2, #12]
 613 0054 DBB2     		uxtb	r3, r3
 614 0056 63F40863 		orn	r3, r3, #2176
 615 005a D360     		str	r3, [r2, #12]
 430:Drivers/STM32H7xx_HAL_Driver/Src/stm32h7xx_hal_rtc_ex.c **** 
 431:Drivers/STM32H7xx_HAL_Driver/Src/stm32h7xx_hal_rtc_ex.c ****   return HAL_OK;
 616              		.loc 1 431 3 view .LVU216
 432:Drivers/STM32H7xx_HAL_Driver/Src/stm32h7xx_hal_rtc_ex.c **** }
 617              		.loc 1 432 1 is_stmt 0 view .LVU217
 618 005c 0020     		movs	r0, #0
 619 005e 70BD     		pop	{r4, r5, r6, pc}
 620              	.LVL44:
 621              	.L33:
 417:Drivers/STM32H7xx_HAL_Driver/Src/stm32h7xx_hal_rtc_ex.c ****     sTimeStamp->Minutes = (uint8_t)RTC_Bcd2ToByte(sTimeStamp->Minutes);
 622              		.loc 1 417 5 is_stmt 1 view .LVU218
 417:Drivers/STM32H7xx_HAL_Driver/Src/stm32h7xx_hal_rtc_ex.c ****     sTimeStamp->Minutes = (uint8_t)RTC_Bcd2ToByte(sTimeStamp->Minutes);
 623              		.loc 1 417 36 is_stmt 0 view .LVU219
 624 0060 2078     		ldrb	r0, [r4]	@ zero_extendqisi2
 625 0062 FFF7FEFF 		bl	RTC_Bcd2ToByte
 626              	.LVL45:
 417:Drivers/STM32H7xx_HAL_Driver/Src/stm32h7xx_hal_rtc_ex.c ****     sTimeStamp->Minutes = (uint8_t)RTC_Bcd2ToByte(sTimeStamp->Minutes);
 627              		.loc 1 417 25 discriminator 1 view .LVU220
 628 0066 2070     		strb	r0, [r4]
 418:Drivers/STM32H7xx_HAL_Driver/Src/stm32h7xx_hal_rtc_ex.c ****     sTimeStamp->Seconds = (uint8_t)RTC_Bcd2ToByte(sTimeStamp->Seconds);
 629              		.loc 1 418 5 is_stmt 1 view .LVU221
 418:Drivers/STM32H7xx_HAL_Driver/Src/stm32h7xx_hal_rtc_ex.c ****     sTimeStamp->Seconds = (uint8_t)RTC_Bcd2ToByte(sTimeStamp->Seconds);
 630              		.loc 1 418 36 is_stmt 0 view .LVU222
 631 0068 6078     		ldrb	r0, [r4, #1]	@ zero_extendqisi2
 632 006a FFF7FEFF 		bl	RTC_Bcd2ToByte
 633              	.LVL46:
 418:Drivers/STM32H7xx_HAL_Driver/Src/stm32h7xx_hal_rtc_ex.c ****     sTimeStamp->Seconds = (uint8_t)RTC_Bcd2ToByte(sTimeStamp->Seconds);
 634              		.loc 1 418 25 discriminator 1 view .LVU223
 635 006e 6070     		strb	r0, [r4, #1]
 419:Drivers/STM32H7xx_HAL_Driver/Src/stm32h7xx_hal_rtc_ex.c **** 
 636              		.loc 1 419 5 is_stmt 1 view .LVU224
 419:Drivers/STM32H7xx_HAL_Driver/Src/stm32h7xx_hal_rtc_ex.c **** 
 637              		.loc 1 419 36 is_stmt 0 view .LVU225
 638 0070 A078     		ldrb	r0, [r4, #2]	@ zero_extendqisi2
 639 0072 FFF7FEFF 		bl	RTC_Bcd2ToByte
 640              	.LVL47:
 419:Drivers/STM32H7xx_HAL_Driver/Src/stm32h7xx_hal_rtc_ex.c **** 
 641              		.loc 1 419 25 discriminator 1 view .LVU226
 642 0076 A070     		strb	r0, [r4, #2]
 422:Drivers/STM32H7xx_HAL_Driver/Src/stm32h7xx_hal_rtc_ex.c ****     sTimeStampDate->Date    = (uint8_t)RTC_Bcd2ToByte(sTimeStampDate->Date);
 643              		.loc 1 422 5 is_stmt 1 view .LVU227
 422:Drivers/STM32H7xx_HAL_Driver/Src/stm32h7xx_hal_rtc_ex.c ****     sTimeStampDate->Date    = (uint8_t)RTC_Bcd2ToByte(sTimeStampDate->Date);
ARM GAS  C:\usertemp\cc0y2B3r.s 			page 20


 644              		.loc 1 422 40 is_stmt 0 view .LVU228
 645 0078 6878     		ldrb	r0, [r5, #1]	@ zero_extendqisi2
 646 007a FFF7FEFF 		bl	RTC_Bcd2ToByte
 647              	.LVL48:
 422:Drivers/STM32H7xx_HAL_Driver/Src/stm32h7xx_hal_rtc_ex.c ****     sTimeStampDate->Date    = (uint8_t)RTC_Bcd2ToByte(sTimeStampDate->Date);
 648              		.loc 1 422 29 discriminator 1 view .LVU229
 649 007e 6870     		strb	r0, [r5, #1]
 423:Drivers/STM32H7xx_HAL_Driver/Src/stm32h7xx_hal_rtc_ex.c ****     sTimeStampDate->WeekDay = (uint8_t)RTC_Bcd2ToByte(sTimeStampDate->WeekDay);
 650              		.loc 1 423 5 is_stmt 1 view .LVU230
 423:Drivers/STM32H7xx_HAL_Driver/Src/stm32h7xx_hal_rtc_ex.c ****     sTimeStampDate->WeekDay = (uint8_t)RTC_Bcd2ToByte(sTimeStampDate->WeekDay);
 651              		.loc 1 423 40 is_stmt 0 view .LVU231
 652 0080 A878     		ldrb	r0, [r5, #2]	@ zero_extendqisi2
 653 0082 FFF7FEFF 		bl	RTC_Bcd2ToByte
 654              	.LVL49:
 423:Drivers/STM32H7xx_HAL_Driver/Src/stm32h7xx_hal_rtc_ex.c ****     sTimeStampDate->WeekDay = (uint8_t)RTC_Bcd2ToByte(sTimeStampDate->WeekDay);
 655              		.loc 1 423 29 discriminator 1 view .LVU232
 656 0086 A870     		strb	r0, [r5, #2]
 424:Drivers/STM32H7xx_HAL_Driver/Src/stm32h7xx_hal_rtc_ex.c ****   }
 657              		.loc 1 424 5 is_stmt 1 view .LVU233
 424:Drivers/STM32H7xx_HAL_Driver/Src/stm32h7xx_hal_rtc_ex.c ****   }
 658              		.loc 1 424 40 is_stmt 0 view .LVU234
 659 0088 2878     		ldrb	r0, [r5]	@ zero_extendqisi2
 660 008a FFF7FEFF 		bl	RTC_Bcd2ToByte
 661              	.LVL50:
 424:Drivers/STM32H7xx_HAL_Driver/Src/stm32h7xx_hal_rtc_ex.c ****   }
 662              		.loc 1 424 29 discriminator 1 view .LVU235
 663 008e 2870     		strb	r0, [r5]
 664 0090 D8E7     		b	.L31
 665              	.L35:
 666 0092 00BF     		.align	2
 667              	.L34:
 668 0094 7FFFFDFF 		.word	-131201
 669              		.cfi_endproc
 670              	.LFE338:
 672              		.section	.text.HAL_RTCEx_SetTamper,"ax",%progbits
 673              		.align	1
 674              		.global	HAL_RTCEx_SetTamper
 675              		.syntax unified
 676              		.thumb
 677              		.thumb_func
 679              	HAL_RTCEx_SetTamper:
 680              	.LVL51:
 681              	.LFB339:
 433:Drivers/STM32H7xx_HAL_Driver/Src/stm32h7xx_hal_rtc_ex.c **** 
 434:Drivers/STM32H7xx_HAL_Driver/Src/stm32h7xx_hal_rtc_ex.c **** /**
 435:Drivers/STM32H7xx_HAL_Driver/Src/stm32h7xx_hal_rtc_ex.c ****   * @}
 436:Drivers/STM32H7xx_HAL_Driver/Src/stm32h7xx_hal_rtc_ex.c ****   */
 437:Drivers/STM32H7xx_HAL_Driver/Src/stm32h7xx_hal_rtc_ex.c **** 
 438:Drivers/STM32H7xx_HAL_Driver/Src/stm32h7xx_hal_rtc_ex.c **** /** @addtogroup RTCEx_Exported_Functions_Group5
 439:Drivers/STM32H7xx_HAL_Driver/Src/stm32h7xx_hal_rtc_ex.c ****   * @brief      Extended RTC Tamper functions
 440:Drivers/STM32H7xx_HAL_Driver/Src/stm32h7xx_hal_rtc_ex.c ****   *
 441:Drivers/STM32H7xx_HAL_Driver/Src/stm32h7xx_hal_rtc_ex.c **** @verbatim
 442:Drivers/STM32H7xx_HAL_Driver/Src/stm32h7xx_hal_rtc_ex.c ****  ==============================================================================
 443:Drivers/STM32H7xx_HAL_Driver/Src/stm32h7xx_hal_rtc_ex.c ****                         ##### Tamper functions #####
 444:Drivers/STM32H7xx_HAL_Driver/Src/stm32h7xx_hal_rtc_ex.c ****  ==============================================================================
 445:Drivers/STM32H7xx_HAL_Driver/Src/stm32h7xx_hal_rtc_ex.c ****  [..]
 446:Drivers/STM32H7xx_HAL_Driver/Src/stm32h7xx_hal_rtc_ex.c ****   (+) Before calling any tamper or internal tamper function, you have to call first
ARM GAS  C:\usertemp\cc0y2B3r.s 			page 21


 447:Drivers/STM32H7xx_HAL_Driver/Src/stm32h7xx_hal_rtc_ex.c ****       HAL_RTC_Init() function.
 448:Drivers/STM32H7xx_HAL_Driver/Src/stm32h7xx_hal_rtc_ex.c ****   (+) In that ine you can select to output tamper event on RTC pin.
 449:Drivers/STM32H7xx_HAL_Driver/Src/stm32h7xx_hal_rtc_ex.c ****  [..]
 450:Drivers/STM32H7xx_HAL_Driver/Src/stm32h7xx_hal_rtc_ex.c ****   (+) Enable the Tamper and configure the Tamper filter count, trigger Edge
 451:Drivers/STM32H7xx_HAL_Driver/Src/stm32h7xx_hal_rtc_ex.c ****       or Level according to the Tamper filter (if equal to 0 Edge else Level)
 452:Drivers/STM32H7xx_HAL_Driver/Src/stm32h7xx_hal_rtc_ex.c ****       value, sampling frequency, NoErase, MaskFlag, precharge or discharge and
 453:Drivers/STM32H7xx_HAL_Driver/Src/stm32h7xx_hal_rtc_ex.c ****       Pull-UP, timestamp using the HAL_RTCEx_SetTamper() function.
 454:Drivers/STM32H7xx_HAL_Driver/Src/stm32h7xx_hal_rtc_ex.c ****       You can configure Tamper with interrupt mode using HAL_RTCEx_SetTamper_IT() function.
 455:Drivers/STM32H7xx_HAL_Driver/Src/stm32h7xx_hal_rtc_ex.c ****   (+) The default configuration of the Tamper erases the backup registers. To avoid
 456:Drivers/STM32H7xx_HAL_Driver/Src/stm32h7xx_hal_rtc_ex.c ****       erase, enable the NoErase field on the TAMP_TAMPCR register.
 457:Drivers/STM32H7xx_HAL_Driver/Src/stm32h7xx_hal_rtc_ex.c ****  [..]
 458:Drivers/STM32H7xx_HAL_Driver/Src/stm32h7xx_hal_rtc_ex.c ****   (+) Enable Internal Tamper and configure it with interrupt, timestamp using
 459:Drivers/STM32H7xx_HAL_Driver/Src/stm32h7xx_hal_rtc_ex.c ****       the HAL_RTCEx_SetInternalTamper() function.
 460:Drivers/STM32H7xx_HAL_Driver/Src/stm32h7xx_hal_rtc_ex.c **** 
 461:Drivers/STM32H7xx_HAL_Driver/Src/stm32h7xx_hal_rtc_ex.c **** @endverbatim
 462:Drivers/STM32H7xx_HAL_Driver/Src/stm32h7xx_hal_rtc_ex.c **** * @{
 463:Drivers/STM32H7xx_HAL_Driver/Src/stm32h7xx_hal_rtc_ex.c **** */
 464:Drivers/STM32H7xx_HAL_Driver/Src/stm32h7xx_hal_rtc_ex.c **** 
 465:Drivers/STM32H7xx_HAL_Driver/Src/stm32h7xx_hal_rtc_ex.c **** #if defined(TAMP_CR1_TAMP1E)
 466:Drivers/STM32H7xx_HAL_Driver/Src/stm32h7xx_hal_rtc_ex.c **** /**
 467:Drivers/STM32H7xx_HAL_Driver/Src/stm32h7xx_hal_rtc_ex.c ****   * @brief  Set Tamper
 468:Drivers/STM32H7xx_HAL_Driver/Src/stm32h7xx_hal_rtc_ex.c ****   * @param  hrtc RTC handle
 469:Drivers/STM32H7xx_HAL_Driver/Src/stm32h7xx_hal_rtc_ex.c ****   * @param  sTamper Pointer to Tamper Structure.
 470:Drivers/STM32H7xx_HAL_Driver/Src/stm32h7xx_hal_rtc_ex.c ****   * @retval HAL status
 471:Drivers/STM32H7xx_HAL_Driver/Src/stm32h7xx_hal_rtc_ex.c ****   */
 472:Drivers/STM32H7xx_HAL_Driver/Src/stm32h7xx_hal_rtc_ex.c **** HAL_StatusTypeDef HAL_RTCEx_SetTamper(RTC_HandleTypeDef * hrtc, RTC_TamperTypeDef * sTamper)
 473:Drivers/STM32H7xx_HAL_Driver/Src/stm32h7xx_hal_rtc_ex.c **** {
 474:Drivers/STM32H7xx_HAL_Driver/Src/stm32h7xx_hal_rtc_ex.c ****   uint32_t tmpreg;
 475:Drivers/STM32H7xx_HAL_Driver/Src/stm32h7xx_hal_rtc_ex.c **** 
 476:Drivers/STM32H7xx_HAL_Driver/Src/stm32h7xx_hal_rtc_ex.c ****   /* Point on TAMPER registers base address */
 477:Drivers/STM32H7xx_HAL_Driver/Src/stm32h7xx_hal_rtc_ex.c ****   TAMP_TypeDef *tamp = (TAMP_TypeDef *)((uint32_t)hrtc->Instance + TAMP_OFFSET);
 478:Drivers/STM32H7xx_HAL_Driver/Src/stm32h7xx_hal_rtc_ex.c **** 
 479:Drivers/STM32H7xx_HAL_Driver/Src/stm32h7xx_hal_rtc_ex.c ****   /* Check the parameters */
 480:Drivers/STM32H7xx_HAL_Driver/Src/stm32h7xx_hal_rtc_ex.c ****   assert_param(IS_RTC_TAMPER(sTamper->Tamper));
 481:Drivers/STM32H7xx_HAL_Driver/Src/stm32h7xx_hal_rtc_ex.c ****   assert_param(IS_RTC_TAMPER_TRIGGER(sTamper->Trigger));
 482:Drivers/STM32H7xx_HAL_Driver/Src/stm32h7xx_hal_rtc_ex.c ****   assert_param(IS_RTC_TAMPER_ERASE_MODE(sTamper->NoErase));
 483:Drivers/STM32H7xx_HAL_Driver/Src/stm32h7xx_hal_rtc_ex.c ****   assert_param(IS_RTC_TAMPER_MASKFLAG_STATE(sTamper->MaskFlag));
 484:Drivers/STM32H7xx_HAL_Driver/Src/stm32h7xx_hal_rtc_ex.c ****   assert_param(IS_RTC_TAMPER_TIMESTAMPONTAMPER_DETECTION(sTamper->TimeStampOnTamperDetection));
 485:Drivers/STM32H7xx_HAL_Driver/Src/stm32h7xx_hal_rtc_ex.c ****   assert_param(IS_RTC_TAMPER_FILTER(sTamper->Filter));
 486:Drivers/STM32H7xx_HAL_Driver/Src/stm32h7xx_hal_rtc_ex.c ****   assert_param(IS_RTC_TAMPER_SAMPLING_FREQ(sTamper->SamplingFrequency));
 487:Drivers/STM32H7xx_HAL_Driver/Src/stm32h7xx_hal_rtc_ex.c ****   assert_param(IS_RTC_TAMPER_PRECHARGE_DURATION(sTamper->PrechargeDuration));
 488:Drivers/STM32H7xx_HAL_Driver/Src/stm32h7xx_hal_rtc_ex.c ****   assert_param(IS_RTC_TAMPER_PULLUP_STATE(sTamper->TamperPullUp));
 489:Drivers/STM32H7xx_HAL_Driver/Src/stm32h7xx_hal_rtc_ex.c ****   assert_param(IS_RTC_TAMPER_FILTER_CONFIG_CORRECT(sTamper->Filter, sTamper->Trigger));
 490:Drivers/STM32H7xx_HAL_Driver/Src/stm32h7xx_hal_rtc_ex.c **** 
 491:Drivers/STM32H7xx_HAL_Driver/Src/stm32h7xx_hal_rtc_ex.c ****   /* Configuration register 2 */
 492:Drivers/STM32H7xx_HAL_Driver/Src/stm32h7xx_hal_rtc_ex.c ****   tmpreg = tamp->CR2;
 493:Drivers/STM32H7xx_HAL_Driver/Src/stm32h7xx_hal_rtc_ex.c ****   tmpreg &= ~((sTamper->Tamper << TAMP_CR2_TAMP1TRG_Pos) | (sTamper->Tamper << TAMP_CR2_TAMP1MSK_Po
 494:Drivers/STM32H7xx_HAL_Driver/Src/stm32h7xx_hal_rtc_ex.c **** 
 495:Drivers/STM32H7xx_HAL_Driver/Src/stm32h7xx_hal_rtc_ex.c ****   /* Configure the tamper trigger bit */
 496:Drivers/STM32H7xx_HAL_Driver/Src/stm32h7xx_hal_rtc_ex.c ****   if ((sTamper->Trigger == RTC_TAMPERTRIGGER_HIGHLEVEL) || (sTamper->Trigger == RTC_TAMPERTRIGGER_F
 497:Drivers/STM32H7xx_HAL_Driver/Src/stm32h7xx_hal_rtc_ex.c ****   {
 498:Drivers/STM32H7xx_HAL_Driver/Src/stm32h7xx_hal_rtc_ex.c ****     tmpreg |= (sTamper->Tamper << TAMP_CR2_TAMP1TRG_Pos);
 499:Drivers/STM32H7xx_HAL_Driver/Src/stm32h7xx_hal_rtc_ex.c ****   }
 500:Drivers/STM32H7xx_HAL_Driver/Src/stm32h7xx_hal_rtc_ex.c **** 
 501:Drivers/STM32H7xx_HAL_Driver/Src/stm32h7xx_hal_rtc_ex.c ****   /* Configure the tamper flags masking bit */
 502:Drivers/STM32H7xx_HAL_Driver/Src/stm32h7xx_hal_rtc_ex.c ****   if (sTamper->MaskFlag != RTC_TAMPERMASK_FLAG_DISABLE)
 503:Drivers/STM32H7xx_HAL_Driver/Src/stm32h7xx_hal_rtc_ex.c ****   {
ARM GAS  C:\usertemp\cc0y2B3r.s 			page 22


 504:Drivers/STM32H7xx_HAL_Driver/Src/stm32h7xx_hal_rtc_ex.c ****     tmpreg |= (sTamper->Tamper << TAMP_CR2_TAMP1MSK_Pos);
 505:Drivers/STM32H7xx_HAL_Driver/Src/stm32h7xx_hal_rtc_ex.c ****   }
 506:Drivers/STM32H7xx_HAL_Driver/Src/stm32h7xx_hal_rtc_ex.c **** 
 507:Drivers/STM32H7xx_HAL_Driver/Src/stm32h7xx_hal_rtc_ex.c ****   /* Configure the tamper backup registers erasure bit */
 508:Drivers/STM32H7xx_HAL_Driver/Src/stm32h7xx_hal_rtc_ex.c ****   if (sTamper->NoErase != RTC_TAMPER_ERASE_BACKUP_ENABLE)
 509:Drivers/STM32H7xx_HAL_Driver/Src/stm32h7xx_hal_rtc_ex.c ****   {
 510:Drivers/STM32H7xx_HAL_Driver/Src/stm32h7xx_hal_rtc_ex.c ****     tmpreg |= (sTamper->Tamper << TAMP_CR2_TAMP1NOERASE_Pos);
 511:Drivers/STM32H7xx_HAL_Driver/Src/stm32h7xx_hal_rtc_ex.c ****   }
 512:Drivers/STM32H7xx_HAL_Driver/Src/stm32h7xx_hal_rtc_ex.c ****   tamp->CR2 = tmpreg;
 513:Drivers/STM32H7xx_HAL_Driver/Src/stm32h7xx_hal_rtc_ex.c **** 
 514:Drivers/STM32H7xx_HAL_Driver/Src/stm32h7xx_hal_rtc_ex.c ****   /* Configure filtering parameters */
 515:Drivers/STM32H7xx_HAL_Driver/Src/stm32h7xx_hal_rtc_ex.c ****   tamp->FLTCR = (sTamper->Filter)            | (sTamper->SamplingFrequency) | \
 516:Drivers/STM32H7xx_HAL_Driver/Src/stm32h7xx_hal_rtc_ex.c ****                 (sTamper->PrechargeDuration) | (sTamper->TamperPullUp);
 517:Drivers/STM32H7xx_HAL_Driver/Src/stm32h7xx_hal_rtc_ex.c **** 
 518:Drivers/STM32H7xx_HAL_Driver/Src/stm32h7xx_hal_rtc_ex.c ****   /* Configure Timestamp saving on tamper detection */
 519:Drivers/STM32H7xx_HAL_Driver/Src/stm32h7xx_hal_rtc_ex.c ****   if ((hrtc->Instance->CR & RTC_CR_TAMPTS) != (sTamper->TimeStampOnTamperDetection))
 520:Drivers/STM32H7xx_HAL_Driver/Src/stm32h7xx_hal_rtc_ex.c ****   {
 521:Drivers/STM32H7xx_HAL_Driver/Src/stm32h7xx_hal_rtc_ex.c ****     __HAL_RTC_WRITEPROTECTION_DISABLE(hrtc);
 522:Drivers/STM32H7xx_HAL_Driver/Src/stm32h7xx_hal_rtc_ex.c ****     tmpreg = (hrtc->Instance->CR & ~RTC_CR_TAMPTS);
 523:Drivers/STM32H7xx_HAL_Driver/Src/stm32h7xx_hal_rtc_ex.c ****     hrtc->Instance->CR = (tmpreg | (sTamper->TimeStampOnTamperDetection));
 524:Drivers/STM32H7xx_HAL_Driver/Src/stm32h7xx_hal_rtc_ex.c ****     __HAL_RTC_WRITEPROTECTION_ENABLE(hrtc);
 525:Drivers/STM32H7xx_HAL_Driver/Src/stm32h7xx_hal_rtc_ex.c ****   }
 526:Drivers/STM32H7xx_HAL_Driver/Src/stm32h7xx_hal_rtc_ex.c **** 
 527:Drivers/STM32H7xx_HAL_Driver/Src/stm32h7xx_hal_rtc_ex.c ****   /* Enable selected tamper */
 528:Drivers/STM32H7xx_HAL_Driver/Src/stm32h7xx_hal_rtc_ex.c ****   tamp->CR1 |= (sTamper->Tamper);
 529:Drivers/STM32H7xx_HAL_Driver/Src/stm32h7xx_hal_rtc_ex.c **** 
 530:Drivers/STM32H7xx_HAL_Driver/Src/stm32h7xx_hal_rtc_ex.c ****   return HAL_OK;
 531:Drivers/STM32H7xx_HAL_Driver/Src/stm32h7xx_hal_rtc_ex.c **** }
 532:Drivers/STM32H7xx_HAL_Driver/Src/stm32h7xx_hal_rtc_ex.c **** #endif /* TAMP_CR1_TAMP1E */
 533:Drivers/STM32H7xx_HAL_Driver/Src/stm32h7xx_hal_rtc_ex.c **** #if defined (RTC_TAMPCR_TAMP1E)
 534:Drivers/STM32H7xx_HAL_Driver/Src/stm32h7xx_hal_rtc_ex.c **** /**
 535:Drivers/STM32H7xx_HAL_Driver/Src/stm32h7xx_hal_rtc_ex.c ****   * @brief  Set Tamper.
 536:Drivers/STM32H7xx_HAL_Driver/Src/stm32h7xx_hal_rtc_ex.c ****   * @note   By calling this API we disable the tamper interrupt for all tampers.
 537:Drivers/STM32H7xx_HAL_Driver/Src/stm32h7xx_hal_rtc_ex.c ****   * @param  hrtc RTC handle
 538:Drivers/STM32H7xx_HAL_Driver/Src/stm32h7xx_hal_rtc_ex.c ****   * @param  sTamper Pointer to Tamper Structure.
 539:Drivers/STM32H7xx_HAL_Driver/Src/stm32h7xx_hal_rtc_ex.c ****   * @retval HAL status
 540:Drivers/STM32H7xx_HAL_Driver/Src/stm32h7xx_hal_rtc_ex.c ****   */
 541:Drivers/STM32H7xx_HAL_Driver/Src/stm32h7xx_hal_rtc_ex.c **** HAL_StatusTypeDef HAL_RTCEx_SetTamper(RTC_HandleTypeDef * hrtc, RTC_TamperTypeDef * sTamper)
 542:Drivers/STM32H7xx_HAL_Driver/Src/stm32h7xx_hal_rtc_ex.c **** {
 682              		.loc 1 542 1 is_stmt 1 view -0
 683              		.cfi_startproc
 684              		@ args = 0, pretend = 0, frame = 0
 685              		@ frame_needed = 0, uses_anonymous_args = 0
 686              		@ link register save eliminated.
 543:Drivers/STM32H7xx_HAL_Driver/Src/stm32h7xx_hal_rtc_ex.c ****   uint32_t tmpreg;
 687              		.loc 1 543 3 view .LVU237
 544:Drivers/STM32H7xx_HAL_Driver/Src/stm32h7xx_hal_rtc_ex.c **** 
 545:Drivers/STM32H7xx_HAL_Driver/Src/stm32h7xx_hal_rtc_ex.c ****   /* Check the parameters */
 546:Drivers/STM32H7xx_HAL_Driver/Src/stm32h7xx_hal_rtc_ex.c ****   assert_param(IS_RTC_TAMPER(sTamper->Tamper));
 688              		.loc 1 546 3 view .LVU238
 547:Drivers/STM32H7xx_HAL_Driver/Src/stm32h7xx_hal_rtc_ex.c ****   assert_param(IS_RTC_TAMPER_TRIGGER(sTamper->Trigger));
 689              		.loc 1 547 3 view .LVU239
 548:Drivers/STM32H7xx_HAL_Driver/Src/stm32h7xx_hal_rtc_ex.c ****   assert_param(IS_RTC_TAMPER_ERASE_MODE(sTamper->NoErase));
 690              		.loc 1 548 3 view .LVU240
 549:Drivers/STM32H7xx_HAL_Driver/Src/stm32h7xx_hal_rtc_ex.c ****   assert_param(IS_RTC_TAMPER_MASKFLAG_STATE(sTamper->MaskFlag));
 691              		.loc 1 549 3 view .LVU241
 550:Drivers/STM32H7xx_HAL_Driver/Src/stm32h7xx_hal_rtc_ex.c ****   assert_param(IS_RTC_TAMPER_FILTER(sTamper->Filter));
ARM GAS  C:\usertemp\cc0y2B3r.s 			page 23


 692              		.loc 1 550 3 view .LVU242
 551:Drivers/STM32H7xx_HAL_Driver/Src/stm32h7xx_hal_rtc_ex.c ****   assert_param(IS_RTC_TAMPER_SAMPLING_FREQ(sTamper->SamplingFrequency));
 693              		.loc 1 551 3 view .LVU243
 552:Drivers/STM32H7xx_HAL_Driver/Src/stm32h7xx_hal_rtc_ex.c ****   assert_param(IS_RTC_TAMPER_PRECHARGE_DURATION(sTamper->PrechargeDuration));
 694              		.loc 1 552 3 view .LVU244
 553:Drivers/STM32H7xx_HAL_Driver/Src/stm32h7xx_hal_rtc_ex.c ****   assert_param(IS_RTC_TAMPER_PULLUP_STATE(sTamper->TamperPullUp));
 695              		.loc 1 553 3 view .LVU245
 554:Drivers/STM32H7xx_HAL_Driver/Src/stm32h7xx_hal_rtc_ex.c ****   assert_param(IS_RTC_TAMPER_TIMESTAMPONTAMPER_DETECTION(sTamper->TimeStampOnTamperDetection));
 696              		.loc 1 554 3 view .LVU246
 555:Drivers/STM32H7xx_HAL_Driver/Src/stm32h7xx_hal_rtc_ex.c ****   assert_param(IS_RTC_TAMPER_FILTER_CONFIG_CORRECT(sTamper->Filter, sTamper->Trigger));
 697              		.loc 1 555 3 view .LVU247
 556:Drivers/STM32H7xx_HAL_Driver/Src/stm32h7xx_hal_rtc_ex.c **** 
 557:Drivers/STM32H7xx_HAL_Driver/Src/stm32h7xx_hal_rtc_ex.c ****   /* Process Locked */
 558:Drivers/STM32H7xx_HAL_Driver/Src/stm32h7xx_hal_rtc_ex.c ****   __HAL_LOCK(hrtc);
 698              		.loc 1 558 3 view .LVU248
 699              		.loc 1 558 3 view .LVU249
 700 0000 90F82030 		ldrb	r3, [r0, #32]	@ zero_extendqisi2
 701 0004 012B     		cmp	r3, #1
 702 0006 6ED0     		beq	.L52
 542:Drivers/STM32H7xx_HAL_Driver/Src/stm32h7xx_hal_rtc_ex.c ****   uint32_t tmpreg;
 703              		.loc 1 542 1 is_stmt 0 view .LVU250
 704 0008 10B4     		push	{r4}
 705              	.LCFI7:
 706              		.cfi_def_cfa_offset 4
 707              		.cfi_offset 4, -4
 708 000a 8446     		mov	ip, r0
 709              		.loc 1 558 3 is_stmt 1 discriminator 2 view .LVU251
 710 000c 0123     		movs	r3, #1
 711 000e 80F82030 		strb	r3, [r0, #32]
 712              		.loc 1 558 3 discriminator 2 view .LVU252
 559:Drivers/STM32H7xx_HAL_Driver/Src/stm32h7xx_hal_rtc_ex.c **** 
 560:Drivers/STM32H7xx_HAL_Driver/Src/stm32h7xx_hal_rtc_ex.c ****   hrtc->State = HAL_RTC_STATE_BUSY;
 713              		.loc 1 560 3 view .LVU253
 714              		.loc 1 560 15 is_stmt 0 view .LVU254
 715 0012 0223     		movs	r3, #2
 716 0014 80F82130 		strb	r3, [r0, #33]
 561:Drivers/STM32H7xx_HAL_Driver/Src/stm32h7xx_hal_rtc_ex.c **** 
 562:Drivers/STM32H7xx_HAL_Driver/Src/stm32h7xx_hal_rtc_ex.c ****   /* Copy control register into temporary variable */
 563:Drivers/STM32H7xx_HAL_Driver/Src/stm32h7xx_hal_rtc_ex.c ****   tmpreg = hrtc->Instance->TAMPCR;
 717              		.loc 1 563 3 is_stmt 1 view .LVU255
 718              		.loc 1 563 16 is_stmt 0 view .LVU256
 719 0018 0068     		ldr	r0, [r0]
 720              	.LVL52:
 721              		.loc 1 563 10 view .LVU257
 722 001a 036C     		ldr	r3, [r0, #64]
 723              	.LVL53:
 564:Drivers/STM32H7xx_HAL_Driver/Src/stm32h7xx_hal_rtc_ex.c **** 
 565:Drivers/STM32H7xx_HAL_Driver/Src/stm32h7xx_hal_rtc_ex.c ****   /* Enable selected tamper */
 566:Drivers/STM32H7xx_HAL_Driver/Src/stm32h7xx_hal_rtc_ex.c ****   tmpreg |= (sTamper->Tamper);
 724              		.loc 1 566 3 is_stmt 1 view .LVU258
 725              		.loc 1 566 21 is_stmt 0 view .LVU259
 726 001c 0A68     		ldr	r2, [r1]
 727              		.loc 1 566 10 view .LVU260
 728 001e 1343     		orrs	r3, r3, r2
 729              	.LVL54:
 567:Drivers/STM32H7xx_HAL_Driver/Src/stm32h7xx_hal_rtc_ex.c **** 
 568:Drivers/STM32H7xx_HAL_Driver/Src/stm32h7xx_hal_rtc_ex.c ****   /* Configure the bit (located just next to the tamper enable bit) */
ARM GAS  C:\usertemp\cc0y2B3r.s 			page 24


 569:Drivers/STM32H7xx_HAL_Driver/Src/stm32h7xx_hal_rtc_ex.c ****   if ((sTamper->Trigger == RTC_TAMPERTRIGGER_HIGHLEVEL) || (sTamper->Trigger == RTC_TAMPERTRIGGER_F
 730              		.loc 1 569 3 is_stmt 1 view .LVU261
 731              		.loc 1 569 15 is_stmt 0 view .LVU262
 732 0020 8C68     		ldr	r4, [r1, #8]
 733              		.loc 1 569 6 view .LVU263
 734 0022 022C     		cmp	r4, #2
 735 0024 18BF     		it	ne
 736 0026 082C     		cmpne	r4, #8
 737 0028 3AD1     		bne	.L38
 570:Drivers/STM32H7xx_HAL_Driver/Src/stm32h7xx_hal_rtc_ex.c ****   {
 571:Drivers/STM32H7xx_HAL_Driver/Src/stm32h7xx_hal_rtc_ex.c ****     /* Set the tamper trigger bit */
 572:Drivers/STM32H7xx_HAL_Driver/Src/stm32h7xx_hal_rtc_ex.c ****     tmpreg |= (uint32_t)(sTamper->Tamper << 1U);
 738              		.loc 1 572 5 is_stmt 1 view .LVU264
 739              		.loc 1 572 12 is_stmt 0 view .LVU265
 740 002a 43EA4203 		orr	r3, r3, r2, lsl #1
 741              	.LVL55:
 742              	.L39:
 573:Drivers/STM32H7xx_HAL_Driver/Src/stm32h7xx_hal_rtc_ex.c ****   }
 574:Drivers/STM32H7xx_HAL_Driver/Src/stm32h7xx_hal_rtc_ex.c ****   else
 575:Drivers/STM32H7xx_HAL_Driver/Src/stm32h7xx_hal_rtc_ex.c ****   {
 576:Drivers/STM32H7xx_HAL_Driver/Src/stm32h7xx_hal_rtc_ex.c ****     /* Clear the tamper trigger bit */
 577:Drivers/STM32H7xx_HAL_Driver/Src/stm32h7xx_hal_rtc_ex.c ****     tmpreg &= (uint32_t)~(sTamper->Tamper << 1U);
 578:Drivers/STM32H7xx_HAL_Driver/Src/stm32h7xx_hal_rtc_ex.c ****   }
 579:Drivers/STM32H7xx_HAL_Driver/Src/stm32h7xx_hal_rtc_ex.c **** 
 580:Drivers/STM32H7xx_HAL_Driver/Src/stm32h7xx_hal_rtc_ex.c ****   /* Configure the tamper backup registers erasure bit */
 581:Drivers/STM32H7xx_HAL_Driver/Src/stm32h7xx_hal_rtc_ex.c ****   if (sTamper->NoErase != RTC_TAMPER_ERASE_BACKUP_ENABLE)
 743              		.loc 1 581 3 is_stmt 1 view .LVU266
 744              		.loc 1 581 14 is_stmt 0 view .LVU267
 745 002e CC68     		ldr	r4, [r1, #12]
 746              		.loc 1 581 6 view .LVU268
 747 0030 002C     		cmp	r4, #0
 748 0032 38D0     		beq	.L40
 582:Drivers/STM32H7xx_HAL_Driver/Src/stm32h7xx_hal_rtc_ex.c ****   {
 583:Drivers/STM32H7xx_HAL_Driver/Src/stm32h7xx_hal_rtc_ex.c **** #if defined(RTC_TAMPCR_TAMP1E)
 584:Drivers/STM32H7xx_HAL_Driver/Src/stm32h7xx_hal_rtc_ex.c ****     if ((sTamper->Tamper & RTC_TAMPER_1) != 0U)
 749              		.loc 1 584 5 is_stmt 1 view .LVU269
 750              		.loc 1 584 8 is_stmt 0 view .LVU270
 751 0034 12F0010F 		tst	r2, #1
 752 0038 01D0     		beq	.L41
 585:Drivers/STM32H7xx_HAL_Driver/Src/stm32h7xx_hal_rtc_ex.c ****     {
 586:Drivers/STM32H7xx_HAL_Driver/Src/stm32h7xx_hal_rtc_ex.c ****       tmpreg |= (uint32_t)(RTC_TAMPCR_TAMP1NOERASE);
 753              		.loc 1 586 7 is_stmt 1 view .LVU271
 754              		.loc 1 586 14 is_stmt 0 view .LVU272
 755 003a 43F40033 		orr	r3, r3, #131072
 756              	.LVL56:
 757              	.L41:
 587:Drivers/STM32H7xx_HAL_Driver/Src/stm32h7xx_hal_rtc_ex.c ****     }
 588:Drivers/STM32H7xx_HAL_Driver/Src/stm32h7xx_hal_rtc_ex.c **** #endif /* RTC_TAMPCR_TAMP1E */
 589:Drivers/STM32H7xx_HAL_Driver/Src/stm32h7xx_hal_rtc_ex.c **** #if defined(RTC_TAMPCR_TAMP2E)
 590:Drivers/STM32H7xx_HAL_Driver/Src/stm32h7xx_hal_rtc_ex.c ****     if ((sTamper->Tamper & RTC_TAMPER_2) != 0U)
 758              		.loc 1 590 5 is_stmt 1 view .LVU273
 759              		.loc 1 590 8 is_stmt 0 view .LVU274
 760 003e 12F0080F 		tst	r2, #8
 761 0042 01D0     		beq	.L42
 591:Drivers/STM32H7xx_HAL_Driver/Src/stm32h7xx_hal_rtc_ex.c ****     {
 592:Drivers/STM32H7xx_HAL_Driver/Src/stm32h7xx_hal_rtc_ex.c ****       tmpreg |= (uint32_t)(RTC_TAMPCR_TAMP2NOERASE);
 762              		.loc 1 592 7 is_stmt 1 view .LVU275
ARM GAS  C:\usertemp\cc0y2B3r.s 			page 25


 763              		.loc 1 592 14 is_stmt 0 view .LVU276
 764 0044 43F48013 		orr	r3, r3, #1048576
 765              	.LVL57:
 766              	.L42:
 593:Drivers/STM32H7xx_HAL_Driver/Src/stm32h7xx_hal_rtc_ex.c ****     }
 594:Drivers/STM32H7xx_HAL_Driver/Src/stm32h7xx_hal_rtc_ex.c **** #endif /* RTC_TAMPCR_TAMP2E */
 595:Drivers/STM32H7xx_HAL_Driver/Src/stm32h7xx_hal_rtc_ex.c **** #if defined(RTC_TAMPCR_TAMP3E)
 596:Drivers/STM32H7xx_HAL_Driver/Src/stm32h7xx_hal_rtc_ex.c ****     if ((sTamper->Tamper & RTC_TAMPER_3) != 0U)
 767              		.loc 1 596 5 is_stmt 1 view .LVU277
 768              		.loc 1 596 8 is_stmt 0 view .LVU278
 769 0048 12F0200F 		tst	r2, #32
 770 004c 01D0     		beq	.L43
 597:Drivers/STM32H7xx_HAL_Driver/Src/stm32h7xx_hal_rtc_ex.c ****     {
 598:Drivers/STM32H7xx_HAL_Driver/Src/stm32h7xx_hal_rtc_ex.c ****       tmpreg |= (uint32_t)(RTC_TAMPCR_TAMP3NOERASE);
 771              		.loc 1 598 7 is_stmt 1 view .LVU279
 772              		.loc 1 598 14 is_stmt 0 view .LVU280
 773 004e 43F40003 		orr	r3, r3, #8388608
 774              	.LVL58:
 775              	.L43:
 599:Drivers/STM32H7xx_HAL_Driver/Src/stm32h7xx_hal_rtc_ex.c ****     }
 600:Drivers/STM32H7xx_HAL_Driver/Src/stm32h7xx_hal_rtc_ex.c **** #endif /* RTC_TAMPCR_TAMP3E */
 601:Drivers/STM32H7xx_HAL_Driver/Src/stm32h7xx_hal_rtc_ex.c ****   }
 602:Drivers/STM32H7xx_HAL_Driver/Src/stm32h7xx_hal_rtc_ex.c ****   else
 603:Drivers/STM32H7xx_HAL_Driver/Src/stm32h7xx_hal_rtc_ex.c ****   {
 604:Drivers/STM32H7xx_HAL_Driver/Src/stm32h7xx_hal_rtc_ex.c **** #if defined(RTC_TAMPCR_TAMP1E)
 605:Drivers/STM32H7xx_HAL_Driver/Src/stm32h7xx_hal_rtc_ex.c ****     if ((sTamper->Tamper & RTC_TAMPER_1) != 0U)
 606:Drivers/STM32H7xx_HAL_Driver/Src/stm32h7xx_hal_rtc_ex.c ****     {
 607:Drivers/STM32H7xx_HAL_Driver/Src/stm32h7xx_hal_rtc_ex.c ****       tmpreg &= (uint32_t)~(RTC_TAMPCR_TAMP1NOERASE);
 608:Drivers/STM32H7xx_HAL_Driver/Src/stm32h7xx_hal_rtc_ex.c ****     }
 609:Drivers/STM32H7xx_HAL_Driver/Src/stm32h7xx_hal_rtc_ex.c **** #endif /* RTC_TAMPCR_TAMP1E */
 610:Drivers/STM32H7xx_HAL_Driver/Src/stm32h7xx_hal_rtc_ex.c **** #if defined(RTC_TAMPCR_TAMP2E)
 611:Drivers/STM32H7xx_HAL_Driver/Src/stm32h7xx_hal_rtc_ex.c ****     if ((sTamper->Tamper & RTC_TAMPER_2) != 0U)
 612:Drivers/STM32H7xx_HAL_Driver/Src/stm32h7xx_hal_rtc_ex.c ****     {
 613:Drivers/STM32H7xx_HAL_Driver/Src/stm32h7xx_hal_rtc_ex.c ****       tmpreg &= (uint32_t)~(RTC_TAMPCR_TAMP2NOERASE);
 614:Drivers/STM32H7xx_HAL_Driver/Src/stm32h7xx_hal_rtc_ex.c ****     }
 615:Drivers/STM32H7xx_HAL_Driver/Src/stm32h7xx_hal_rtc_ex.c **** #endif /* RTC_TAMPCR_TAMP2E */
 616:Drivers/STM32H7xx_HAL_Driver/Src/stm32h7xx_hal_rtc_ex.c **** #if defined(RTC_TAMPCR_TAMP3E)
 617:Drivers/STM32H7xx_HAL_Driver/Src/stm32h7xx_hal_rtc_ex.c ****     if ((sTamper->Tamper & RTC_TAMPER_3) != 0U)
 618:Drivers/STM32H7xx_HAL_Driver/Src/stm32h7xx_hal_rtc_ex.c ****     {
 619:Drivers/STM32H7xx_HAL_Driver/Src/stm32h7xx_hal_rtc_ex.c ****       tmpreg &= (uint32_t)~(RTC_TAMPCR_TAMP3NOERASE);
 620:Drivers/STM32H7xx_HAL_Driver/Src/stm32h7xx_hal_rtc_ex.c ****     }
 621:Drivers/STM32H7xx_HAL_Driver/Src/stm32h7xx_hal_rtc_ex.c **** #endif /* RTC_TAMPCR_TAMP3E */
 622:Drivers/STM32H7xx_HAL_Driver/Src/stm32h7xx_hal_rtc_ex.c ****   }
 623:Drivers/STM32H7xx_HAL_Driver/Src/stm32h7xx_hal_rtc_ex.c **** 
 624:Drivers/STM32H7xx_HAL_Driver/Src/stm32h7xx_hal_rtc_ex.c ****   /* Configure the tamper flags masking bit */
 625:Drivers/STM32H7xx_HAL_Driver/Src/stm32h7xx_hal_rtc_ex.c ****   if (sTamper->MaskFlag != RTC_TAMPERMASK_FLAG_DISABLE)
 776              		.loc 1 625 3 is_stmt 1 view .LVU281
 777              		.loc 1 625 14 is_stmt 0 view .LVU282
 778 0052 0C69     		ldr	r4, [r1, #16]
 779              		.loc 1 625 6 view .LVU283
 780 0054 BCB3     		cbz	r4, .L46
 626:Drivers/STM32H7xx_HAL_Driver/Src/stm32h7xx_hal_rtc_ex.c ****   {
 627:Drivers/STM32H7xx_HAL_Driver/Src/stm32h7xx_hal_rtc_ex.c **** #if defined(RTC_TAMPCR_TAMP1E)
 628:Drivers/STM32H7xx_HAL_Driver/Src/stm32h7xx_hal_rtc_ex.c ****     if ((sTamper->Tamper & RTC_TAMPER_1) != 0U)
 781              		.loc 1 628 5 is_stmt 1 view .LVU284
 782              		.loc 1 628 8 is_stmt 0 view .LVU285
 783 0056 12F0010F 		tst	r2, #1
ARM GAS  C:\usertemp\cc0y2B3r.s 			page 26


 784 005a 01D0     		beq	.L47
 629:Drivers/STM32H7xx_HAL_Driver/Src/stm32h7xx_hal_rtc_ex.c ****     {
 630:Drivers/STM32H7xx_HAL_Driver/Src/stm32h7xx_hal_rtc_ex.c ****       tmpreg |= (uint32_t)(RTC_TAMPCR_TAMP1MF);
 785              		.loc 1 630 7 is_stmt 1 view .LVU286
 786              		.loc 1 630 14 is_stmt 0 view .LVU287
 787 005c 43F48023 		orr	r3, r3, #262144
 788              	.LVL59:
 789              	.L47:
 631:Drivers/STM32H7xx_HAL_Driver/Src/stm32h7xx_hal_rtc_ex.c ****     }
 632:Drivers/STM32H7xx_HAL_Driver/Src/stm32h7xx_hal_rtc_ex.c **** #endif /* RTC_TAMPCR_TAMP1E */
 633:Drivers/STM32H7xx_HAL_Driver/Src/stm32h7xx_hal_rtc_ex.c **** #if defined(RTC_TAMPCR_TAMP2E)
 634:Drivers/STM32H7xx_HAL_Driver/Src/stm32h7xx_hal_rtc_ex.c ****     if ((sTamper->Tamper & RTC_TAMPER_2) != 0U)
 790              		.loc 1 634 5 is_stmt 1 view .LVU288
 791              		.loc 1 634 8 is_stmt 0 view .LVU289
 792 0060 12F0080F 		tst	r2, #8
 793 0064 01D0     		beq	.L48
 635:Drivers/STM32H7xx_HAL_Driver/Src/stm32h7xx_hal_rtc_ex.c ****     {
 636:Drivers/STM32H7xx_HAL_Driver/Src/stm32h7xx_hal_rtc_ex.c ****       tmpreg |= (uint32_t)(RTC_TAMPCR_TAMP2MF);
 794              		.loc 1 636 7 is_stmt 1 view .LVU290
 795              		.loc 1 636 14 is_stmt 0 view .LVU291
 796 0066 43F40013 		orr	r3, r3, #2097152
 797              	.LVL60:
 798              	.L48:
 637:Drivers/STM32H7xx_HAL_Driver/Src/stm32h7xx_hal_rtc_ex.c ****     }
 638:Drivers/STM32H7xx_HAL_Driver/Src/stm32h7xx_hal_rtc_ex.c **** #endif /* RTC_TAMPCR_TAMP2E */
 639:Drivers/STM32H7xx_HAL_Driver/Src/stm32h7xx_hal_rtc_ex.c **** #if defined(RTC_TAMPCR_TAMP3E)
 640:Drivers/STM32H7xx_HAL_Driver/Src/stm32h7xx_hal_rtc_ex.c ****     if ((sTamper->Tamper & RTC_TAMPER_3) != 0U)
 799              		.loc 1 640 5 is_stmt 1 view .LVU292
 800              		.loc 1 640 8 is_stmt 0 view .LVU293
 801 006a 12F0200F 		tst	r2, #32
 802 006e 01D0     		beq	.L49
 641:Drivers/STM32H7xx_HAL_Driver/Src/stm32h7xx_hal_rtc_ex.c ****     {
 642:Drivers/STM32H7xx_HAL_Driver/Src/stm32h7xx_hal_rtc_ex.c ****       tmpreg |= (uint32_t)(RTC_TAMPCR_TAMP3MF);
 803              		.loc 1 642 7 is_stmt 1 view .LVU294
 804              		.loc 1 642 14 is_stmt 0 view .LVU295
 805 0070 43F08073 		orr	r3, r3, #16777216
 806              	.LVL61:
 807              	.L49:
 643:Drivers/STM32H7xx_HAL_Driver/Src/stm32h7xx_hal_rtc_ex.c ****     }
 644:Drivers/STM32H7xx_HAL_Driver/Src/stm32h7xx_hal_rtc_ex.c **** #endif /* RTC_TAMPCR_TAMP3E */
 645:Drivers/STM32H7xx_HAL_Driver/Src/stm32h7xx_hal_rtc_ex.c ****   }
 646:Drivers/STM32H7xx_HAL_Driver/Src/stm32h7xx_hal_rtc_ex.c ****   else
 647:Drivers/STM32H7xx_HAL_Driver/Src/stm32h7xx_hal_rtc_ex.c ****   {
 648:Drivers/STM32H7xx_HAL_Driver/Src/stm32h7xx_hal_rtc_ex.c **** #if defined(RTC_TAMPCR_TAMP1E)
 649:Drivers/STM32H7xx_HAL_Driver/Src/stm32h7xx_hal_rtc_ex.c ****     if ((sTamper->Tamper & RTC_TAMPER_1) != 0U)
 650:Drivers/STM32H7xx_HAL_Driver/Src/stm32h7xx_hal_rtc_ex.c ****     {
 651:Drivers/STM32H7xx_HAL_Driver/Src/stm32h7xx_hal_rtc_ex.c ****       tmpreg &= (uint32_t)~(RTC_TAMPCR_TAMP1MF);
 652:Drivers/STM32H7xx_HAL_Driver/Src/stm32h7xx_hal_rtc_ex.c ****     }
 653:Drivers/STM32H7xx_HAL_Driver/Src/stm32h7xx_hal_rtc_ex.c **** #endif /* RTC_TAMPCR_TAMP1E */
 654:Drivers/STM32H7xx_HAL_Driver/Src/stm32h7xx_hal_rtc_ex.c **** #if defined(RTC_TAMPCR_TAMP2E)
 655:Drivers/STM32H7xx_HAL_Driver/Src/stm32h7xx_hal_rtc_ex.c ****     if ((sTamper->Tamper & RTC_TAMPER_2) != 0U)
 656:Drivers/STM32H7xx_HAL_Driver/Src/stm32h7xx_hal_rtc_ex.c ****     {
 657:Drivers/STM32H7xx_HAL_Driver/Src/stm32h7xx_hal_rtc_ex.c ****       tmpreg &= (uint32_t)~(RTC_TAMPCR_TAMP2MF);
 658:Drivers/STM32H7xx_HAL_Driver/Src/stm32h7xx_hal_rtc_ex.c ****     }
 659:Drivers/STM32H7xx_HAL_Driver/Src/stm32h7xx_hal_rtc_ex.c **** #endif /* RTC_TAMPCR_TAMP2E */
 660:Drivers/STM32H7xx_HAL_Driver/Src/stm32h7xx_hal_rtc_ex.c **** #if defined(RTC_TAMPCR_TAMP3E)
 661:Drivers/STM32H7xx_HAL_Driver/Src/stm32h7xx_hal_rtc_ex.c ****     if ((sTamper->Tamper & RTC_TAMPER_3) != 0U)
ARM GAS  C:\usertemp\cc0y2B3r.s 			page 27


 662:Drivers/STM32H7xx_HAL_Driver/Src/stm32h7xx_hal_rtc_ex.c ****     {
 663:Drivers/STM32H7xx_HAL_Driver/Src/stm32h7xx_hal_rtc_ex.c ****       tmpreg &= (uint32_t)~(RTC_TAMPCR_TAMP3MF);
 664:Drivers/STM32H7xx_HAL_Driver/Src/stm32h7xx_hal_rtc_ex.c ****     }
 665:Drivers/STM32H7xx_HAL_Driver/Src/stm32h7xx_hal_rtc_ex.c **** #endif /* RTC_TAMPCR_TAMP3E */
 666:Drivers/STM32H7xx_HAL_Driver/Src/stm32h7xx_hal_rtc_ex.c ****   }
 667:Drivers/STM32H7xx_HAL_Driver/Src/stm32h7xx_hal_rtc_ex.c **** 
 668:Drivers/STM32H7xx_HAL_Driver/Src/stm32h7xx_hal_rtc_ex.c ****   /* Clearing remaining fields before setting them */
 669:Drivers/STM32H7xx_HAL_Driver/Src/stm32h7xx_hal_rtc_ex.c ****   tmpreg &= ~(RTC_TAMPERFILTER_MASK            | RTC_TAMPERSAMPLINGFREQ_RTCCLK_MASK | \
 808              		.loc 1 669 3 is_stmt 1 view .LVU296
 809              		.loc 1 669 10 is_stmt 0 view .LVU297
 810 0074 6FF3CF13 		bfc	r3, #7, #9
 811              	.LVL62:
 670:Drivers/STM32H7xx_HAL_Driver/Src/stm32h7xx_hal_rtc_ex.c ****               RTC_TAMPERPRECHARGEDURATION_MASK | RTC_TAMPER_PULLUP_MASK             | \
 671:Drivers/STM32H7xx_HAL_Driver/Src/stm32h7xx_hal_rtc_ex.c ****               RTC_TIMESTAMPONTAMPERDETECTION_MASK);
 672:Drivers/STM32H7xx_HAL_Driver/Src/stm32h7xx_hal_rtc_ex.c **** 
 673:Drivers/STM32H7xx_HAL_Driver/Src/stm32h7xx_hal_rtc_ex.c ****   /* Set remaining parameters of desired configuration into temporary variable */
 674:Drivers/STM32H7xx_HAL_Driver/Src/stm32h7xx_hal_rtc_ex.c ****   tmpreg |= ((uint32_t)sTamper->Filter            | \
 812              		.loc 1 674 3 is_stmt 1 view .LVU298
 813              		.loc 1 674 31 is_stmt 0 view .LVU299
 814 0078 4A69     		ldr	r2, [r1, #20]
 675:Drivers/STM32H7xx_HAL_Driver/Src/stm32h7xx_hal_rtc_ex.c ****              (uint32_t)sTamper->SamplingFrequency | \
 815              		.loc 1 675 31 view .LVU300
 816 007a 8C69     		ldr	r4, [r1, #24]
 674:Drivers/STM32H7xx_HAL_Driver/Src/stm32h7xx_hal_rtc_ex.c ****              (uint32_t)sTamper->SamplingFrequency | \
 817              		.loc 1 674 51 view .LVU301
 818 007c 2243     		orrs	r2, r2, r4
 676:Drivers/STM32H7xx_HAL_Driver/Src/stm32h7xx_hal_rtc_ex.c ****              (uint32_t)sTamper->PrechargeDuration | \
 819              		.loc 1 676 31 view .LVU302
 820 007e CC69     		ldr	r4, [r1, #28]
 675:Drivers/STM32H7xx_HAL_Driver/Src/stm32h7xx_hal_rtc_ex.c ****              (uint32_t)sTamper->SamplingFrequency | \
 821              		.loc 1 675 51 view .LVU303
 822 0080 2243     		orrs	r2, r2, r4
 677:Drivers/STM32H7xx_HAL_Driver/Src/stm32h7xx_hal_rtc_ex.c ****              (uint32_t)sTamper->TamperPullUp      | \
 823              		.loc 1 677 31 view .LVU304
 824 0082 0C6A     		ldr	r4, [r1, #32]
 676:Drivers/STM32H7xx_HAL_Driver/Src/stm32h7xx_hal_rtc_ex.c ****              (uint32_t)sTamper->PrechargeDuration | \
 825              		.loc 1 676 51 view .LVU305
 826 0084 2243     		orrs	r2, r2, r4
 678:Drivers/STM32H7xx_HAL_Driver/Src/stm32h7xx_hal_rtc_ex.c ****              (uint32_t)sTamper->TimeStampOnTamperDetection);
 827              		.loc 1 678 31 view .LVU306
 828 0086 496A     		ldr	r1, [r1, #36]
 829              	.LVL63:
 677:Drivers/STM32H7xx_HAL_Driver/Src/stm32h7xx_hal_rtc_ex.c ****              (uint32_t)sTamper->TamperPullUp      | \
 830              		.loc 1 677 51 view .LVU307
 831 0088 0A43     		orrs	r2, r2, r1
 674:Drivers/STM32H7xx_HAL_Driver/Src/stm32h7xx_hal_rtc_ex.c ****              (uint32_t)sTamper->SamplingFrequency | \
 832              		.loc 1 674 10 view .LVU308
 833 008a 1343     		orrs	r3, r3, r2
 834              	.LVL64:
 679:Drivers/STM32H7xx_HAL_Driver/Src/stm32h7xx_hal_rtc_ex.c **** 
 680:Drivers/STM32H7xx_HAL_Driver/Src/stm32h7xx_hal_rtc_ex.c ****   /* Copy desired configuration into configuration register */
 681:Drivers/STM32H7xx_HAL_Driver/Src/stm32h7xx_hal_rtc_ex.c ****   hrtc->Instance->TAMPCR = tmpreg;
 835              		.loc 1 681 3 is_stmt 1 view .LVU309
 836              		.loc 1 681 26 is_stmt 0 view .LVU310
 837 008c 0364     		str	r3, [r0, #64]
 682:Drivers/STM32H7xx_HAL_Driver/Src/stm32h7xx_hal_rtc_ex.c **** 
 683:Drivers/STM32H7xx_HAL_Driver/Src/stm32h7xx_hal_rtc_ex.c ****   hrtc->State = HAL_RTC_STATE_READY;
ARM GAS  C:\usertemp\cc0y2B3r.s 			page 28


 838              		.loc 1 683 3 is_stmt 1 view .LVU311
 839              		.loc 1 683 15 is_stmt 0 view .LVU312
 840 008e 0123     		movs	r3, #1
 841              	.LVL65:
 842              		.loc 1 683 15 view .LVU313
 843 0090 8CF82130 		strb	r3, [ip, #33]
 844              	.LVL66:
 684:Drivers/STM32H7xx_HAL_Driver/Src/stm32h7xx_hal_rtc_ex.c **** 
 685:Drivers/STM32H7xx_HAL_Driver/Src/stm32h7xx_hal_rtc_ex.c ****   /* Process Unlocked */
 686:Drivers/STM32H7xx_HAL_Driver/Src/stm32h7xx_hal_rtc_ex.c ****   __HAL_UNLOCK(hrtc);
 845              		.loc 1 686 3 is_stmt 1 view .LVU314
 846              		.loc 1 686 3 view .LVU315
 847 0094 0020     		movs	r0, #0
 848 0096 8CF82000 		strb	r0, [ip, #32]
 849              		.loc 1 686 3 view .LVU316
 687:Drivers/STM32H7xx_HAL_Driver/Src/stm32h7xx_hal_rtc_ex.c **** 
 688:Drivers/STM32H7xx_HAL_Driver/Src/stm32h7xx_hal_rtc_ex.c ****   return HAL_OK;
 850              		.loc 1 688 3 view .LVU317
 689:Drivers/STM32H7xx_HAL_Driver/Src/stm32h7xx_hal_rtc_ex.c **** }
 851              		.loc 1 689 1 is_stmt 0 view .LVU318
 852 009a 5DF8044B 		ldr	r4, [sp], #4
 853              	.LCFI8:
 854              		.cfi_remember_state
 855              		.cfi_restore 4
 856              		.cfi_def_cfa_offset 0
 857 009e 7047     		bx	lr
 858              	.LVL67:
 859              	.L38:
 860              	.LCFI9:
 861              		.cfi_restore_state
 577:Drivers/STM32H7xx_HAL_Driver/Src/stm32h7xx_hal_rtc_ex.c ****   }
 862              		.loc 1 577 5 is_stmt 1 view .LVU319
 577:Drivers/STM32H7xx_HAL_Driver/Src/stm32h7xx_hal_rtc_ex.c ****   }
 863              		.loc 1 577 12 is_stmt 0 view .LVU320
 864 00a0 23EA4203 		bic	r3, r3, r2, lsl #1
 865              	.LVL68:
 577:Drivers/STM32H7xx_HAL_Driver/Src/stm32h7xx_hal_rtc_ex.c ****   }
 866              		.loc 1 577 12 view .LVU321
 867 00a4 C3E7     		b	.L39
 868              	.L40:
 605:Drivers/STM32H7xx_HAL_Driver/Src/stm32h7xx_hal_rtc_ex.c ****     {
 869              		.loc 1 605 5 is_stmt 1 view .LVU322
 605:Drivers/STM32H7xx_HAL_Driver/Src/stm32h7xx_hal_rtc_ex.c ****     {
 870              		.loc 1 605 8 is_stmt 0 view .LVU323
 871 00a6 12F0010F 		tst	r2, #1
 872 00aa 01D0     		beq	.L44
 607:Drivers/STM32H7xx_HAL_Driver/Src/stm32h7xx_hal_rtc_ex.c ****     }
 873              		.loc 1 607 7 is_stmt 1 view .LVU324
 607:Drivers/STM32H7xx_HAL_Driver/Src/stm32h7xx_hal_rtc_ex.c ****     }
 874              		.loc 1 607 14 is_stmt 0 view .LVU325
 875 00ac 23F40033 		bic	r3, r3, #131072
 876              	.LVL69:
 877              	.L44:
 611:Drivers/STM32H7xx_HAL_Driver/Src/stm32h7xx_hal_rtc_ex.c ****     {
 878              		.loc 1 611 5 is_stmt 1 view .LVU326
 611:Drivers/STM32H7xx_HAL_Driver/Src/stm32h7xx_hal_rtc_ex.c ****     {
 879              		.loc 1 611 8 is_stmt 0 view .LVU327
ARM GAS  C:\usertemp\cc0y2B3r.s 			page 29


 880 00b0 12F0080F 		tst	r2, #8
 881 00b4 01D0     		beq	.L45
 613:Drivers/STM32H7xx_HAL_Driver/Src/stm32h7xx_hal_rtc_ex.c ****     }
 882              		.loc 1 613 7 is_stmt 1 view .LVU328
 613:Drivers/STM32H7xx_HAL_Driver/Src/stm32h7xx_hal_rtc_ex.c ****     }
 883              		.loc 1 613 14 is_stmt 0 view .LVU329
 884 00b6 23F48013 		bic	r3, r3, #1048576
 885              	.LVL70:
 886              	.L45:
 617:Drivers/STM32H7xx_HAL_Driver/Src/stm32h7xx_hal_rtc_ex.c ****     {
 887              		.loc 1 617 5 is_stmt 1 view .LVU330
 617:Drivers/STM32H7xx_HAL_Driver/Src/stm32h7xx_hal_rtc_ex.c ****     {
 888              		.loc 1 617 8 is_stmt 0 view .LVU331
 889 00ba 12F0200F 		tst	r2, #32
 890 00be C8D0     		beq	.L43
 619:Drivers/STM32H7xx_HAL_Driver/Src/stm32h7xx_hal_rtc_ex.c ****     }
 891              		.loc 1 619 7 is_stmt 1 view .LVU332
 619:Drivers/STM32H7xx_HAL_Driver/Src/stm32h7xx_hal_rtc_ex.c ****     }
 892              		.loc 1 619 14 is_stmt 0 view .LVU333
 893 00c0 23F40003 		bic	r3, r3, #8388608
 894              	.LVL71:
 619:Drivers/STM32H7xx_HAL_Driver/Src/stm32h7xx_hal_rtc_ex.c ****     }
 895              		.loc 1 619 14 view .LVU334
 896 00c4 C5E7     		b	.L43
 897              	.L46:
 649:Drivers/STM32H7xx_HAL_Driver/Src/stm32h7xx_hal_rtc_ex.c ****     {
 898              		.loc 1 649 5 is_stmt 1 view .LVU335
 649:Drivers/STM32H7xx_HAL_Driver/Src/stm32h7xx_hal_rtc_ex.c ****     {
 899              		.loc 1 649 8 is_stmt 0 view .LVU336
 900 00c6 12F0010F 		tst	r2, #1
 901 00ca 01D0     		beq	.L50
 651:Drivers/STM32H7xx_HAL_Driver/Src/stm32h7xx_hal_rtc_ex.c ****     }
 902              		.loc 1 651 7 is_stmt 1 view .LVU337
 651:Drivers/STM32H7xx_HAL_Driver/Src/stm32h7xx_hal_rtc_ex.c ****     }
 903              		.loc 1 651 14 is_stmt 0 view .LVU338
 904 00cc 23F48023 		bic	r3, r3, #262144
 905              	.LVL72:
 906              	.L50:
 655:Drivers/STM32H7xx_HAL_Driver/Src/stm32h7xx_hal_rtc_ex.c ****     {
 907              		.loc 1 655 5 is_stmt 1 view .LVU339
 655:Drivers/STM32H7xx_HAL_Driver/Src/stm32h7xx_hal_rtc_ex.c ****     {
 908              		.loc 1 655 8 is_stmt 0 view .LVU340
 909 00d0 12F0080F 		tst	r2, #8
 910 00d4 01D0     		beq	.L51
 657:Drivers/STM32H7xx_HAL_Driver/Src/stm32h7xx_hal_rtc_ex.c ****     }
 911              		.loc 1 657 7 is_stmt 1 view .LVU341
 657:Drivers/STM32H7xx_HAL_Driver/Src/stm32h7xx_hal_rtc_ex.c ****     }
 912              		.loc 1 657 14 is_stmt 0 view .LVU342
 913 00d6 23F40013 		bic	r3, r3, #2097152
 914              	.LVL73:
 915              	.L51:
 661:Drivers/STM32H7xx_HAL_Driver/Src/stm32h7xx_hal_rtc_ex.c ****     {
 916              		.loc 1 661 5 is_stmt 1 view .LVU343
 661:Drivers/STM32H7xx_HAL_Driver/Src/stm32h7xx_hal_rtc_ex.c ****     {
 917              		.loc 1 661 8 is_stmt 0 view .LVU344
 918 00da 12F0200F 		tst	r2, #32
 919 00de C9D0     		beq	.L49
ARM GAS  C:\usertemp\cc0y2B3r.s 			page 30


 663:Drivers/STM32H7xx_HAL_Driver/Src/stm32h7xx_hal_rtc_ex.c ****     }
 920              		.loc 1 663 7 is_stmt 1 view .LVU345
 663:Drivers/STM32H7xx_HAL_Driver/Src/stm32h7xx_hal_rtc_ex.c ****     }
 921              		.loc 1 663 14 is_stmt 0 view .LVU346
 922 00e0 23F08073 		bic	r3, r3, #16777216
 923              	.LVL74:
 663:Drivers/STM32H7xx_HAL_Driver/Src/stm32h7xx_hal_rtc_ex.c ****     }
 924              		.loc 1 663 14 view .LVU347
 925 00e4 C6E7     		b	.L49
 926              	.LVL75:
 927              	.L52:
 928              	.LCFI10:
 929              		.cfi_def_cfa_offset 0
 930              		.cfi_restore 4
 558:Drivers/STM32H7xx_HAL_Driver/Src/stm32h7xx_hal_rtc_ex.c **** 
 931              		.loc 1 558 3 discriminator 1 view .LVU348
 932 00e6 0220     		movs	r0, #2
 933              	.LVL76:
 934              		.loc 1 689 1 view .LVU349
 935 00e8 7047     		bx	lr
 936              		.cfi_endproc
 937              	.LFE339:
 939              		.section	.text.HAL_RTCEx_SetTamper_IT,"ax",%progbits
 940              		.align	1
 941              		.global	HAL_RTCEx_SetTamper_IT
 942              		.syntax unified
 943              		.thumb
 944              		.thumb_func
 946              	HAL_RTCEx_SetTamper_IT:
 947              	.LVL77:
 948              	.LFB340:
 690:Drivers/STM32H7xx_HAL_Driver/Src/stm32h7xx_hal_rtc_ex.c **** #endif /* RTC_TAMPCR_TAMP1E */
 691:Drivers/STM32H7xx_HAL_Driver/Src/stm32h7xx_hal_rtc_ex.c **** 
 692:Drivers/STM32H7xx_HAL_Driver/Src/stm32h7xx_hal_rtc_ex.c **** #if defined(TAMP_CR1_TAMP1E)
 693:Drivers/STM32H7xx_HAL_Driver/Src/stm32h7xx_hal_rtc_ex.c **** /**
 694:Drivers/STM32H7xx_HAL_Driver/Src/stm32h7xx_hal_rtc_ex.c ****   * @brief  Set Tamper with interrupt.
 695:Drivers/STM32H7xx_HAL_Driver/Src/stm32h7xx_hal_rtc_ex.c ****   * @param  hrtc RTC handle
 696:Drivers/STM32H7xx_HAL_Driver/Src/stm32h7xx_hal_rtc_ex.c ****   * @param  sTamper Pointer to Tamper Structure.
 697:Drivers/STM32H7xx_HAL_Driver/Src/stm32h7xx_hal_rtc_ex.c ****   * @retval HAL status
 698:Drivers/STM32H7xx_HAL_Driver/Src/stm32h7xx_hal_rtc_ex.c ****   */
 699:Drivers/STM32H7xx_HAL_Driver/Src/stm32h7xx_hal_rtc_ex.c **** HAL_StatusTypeDef HAL_RTCEx_SetTamper_IT(RTC_HandleTypeDef * hrtc, RTC_TamperTypeDef * sTamper)
 700:Drivers/STM32H7xx_HAL_Driver/Src/stm32h7xx_hal_rtc_ex.c **** {
 701:Drivers/STM32H7xx_HAL_Driver/Src/stm32h7xx_hal_rtc_ex.c ****   uint32_t tmpreg;
 702:Drivers/STM32H7xx_HAL_Driver/Src/stm32h7xx_hal_rtc_ex.c **** 
 703:Drivers/STM32H7xx_HAL_Driver/Src/stm32h7xx_hal_rtc_ex.c ****   /* Point on TAMPER registers base address */
 704:Drivers/STM32H7xx_HAL_Driver/Src/stm32h7xx_hal_rtc_ex.c ****   TAMP_TypeDef *tamp = (TAMP_TypeDef *)((uint32_t)hrtc->Instance + TAMP_OFFSET);
 705:Drivers/STM32H7xx_HAL_Driver/Src/stm32h7xx_hal_rtc_ex.c **** 
 706:Drivers/STM32H7xx_HAL_Driver/Src/stm32h7xx_hal_rtc_ex.c ****   /* Check the parameters */
 707:Drivers/STM32H7xx_HAL_Driver/Src/stm32h7xx_hal_rtc_ex.c ****   assert_param(IS_RTC_TAMPER(sTamper->Tamper));
 708:Drivers/STM32H7xx_HAL_Driver/Src/stm32h7xx_hal_rtc_ex.c ****   assert_param(IS_RTC_TAMPER_TRIGGER(sTamper->Trigger));
 709:Drivers/STM32H7xx_HAL_Driver/Src/stm32h7xx_hal_rtc_ex.c ****   assert_param(IS_RTC_TAMPER_ERASE_MODE(sTamper->NoErase));
 710:Drivers/STM32H7xx_HAL_Driver/Src/stm32h7xx_hal_rtc_ex.c ****   assert_param(IS_RTC_TAMPER_MASKFLAG_STATE(sTamper->MaskFlag));
 711:Drivers/STM32H7xx_HAL_Driver/Src/stm32h7xx_hal_rtc_ex.c ****   assert_param(IS_RTC_TAMPER_FILTER(sTamper->Filter));
 712:Drivers/STM32H7xx_HAL_Driver/Src/stm32h7xx_hal_rtc_ex.c ****   assert_param(IS_RTC_TAMPER_SAMPLING_FREQ(sTamper->SamplingFrequency));
 713:Drivers/STM32H7xx_HAL_Driver/Src/stm32h7xx_hal_rtc_ex.c ****   assert_param(IS_RTC_TAMPER_PRECHARGE_DURATION(sTamper->PrechargeDuration));
 714:Drivers/STM32H7xx_HAL_Driver/Src/stm32h7xx_hal_rtc_ex.c ****   assert_param(IS_RTC_TAMPER_PULLUP_STATE(sTamper->TamperPullUp));
 715:Drivers/STM32H7xx_HAL_Driver/Src/stm32h7xx_hal_rtc_ex.c ****   assert_param(IS_RTC_TAMPER_TIMESTAMPONTAMPER_DETECTION(sTamper->TimeStampOnTamperDetection));
ARM GAS  C:\usertemp\cc0y2B3r.s 			page 31


 716:Drivers/STM32H7xx_HAL_Driver/Src/stm32h7xx_hal_rtc_ex.c ****   assert_param(IS_RTC_TAMPER_FILTER_CONFIG_CORRECT(sTamper->Filter, sTamper->Trigger));
 717:Drivers/STM32H7xx_HAL_Driver/Src/stm32h7xx_hal_rtc_ex.c **** 
 718:Drivers/STM32H7xx_HAL_Driver/Src/stm32h7xx_hal_rtc_ex.c ****   /* Copy configuration register into temporary variable */
 719:Drivers/STM32H7xx_HAL_Driver/Src/stm32h7xx_hal_rtc_ex.c ****   tmpreg = tamp->CR2;
 720:Drivers/STM32H7xx_HAL_Driver/Src/stm32h7xx_hal_rtc_ex.c **** 
 721:Drivers/STM32H7xx_HAL_Driver/Src/stm32h7xx_hal_rtc_ex.c ****   /* Clear the bits that are going to be configured and leave the others unchanged */
 722:Drivers/STM32H7xx_HAL_Driver/Src/stm32h7xx_hal_rtc_ex.c ****   tmpreg &= ~((sTamper->Tamper << TAMP_CR2_TAMP1TRG_Pos) | (sTamper->Tamper << TAMP_CR2_TAMP1MSK_Po
 723:Drivers/STM32H7xx_HAL_Driver/Src/stm32h7xx_hal_rtc_ex.c **** 
 724:Drivers/STM32H7xx_HAL_Driver/Src/stm32h7xx_hal_rtc_ex.c ****   /* Configure the tamper trigger bit */
 725:Drivers/STM32H7xx_HAL_Driver/Src/stm32h7xx_hal_rtc_ex.c ****   if ((sTamper->Trigger == RTC_TAMPERTRIGGER_HIGHLEVEL) || (sTamper->Trigger == RTC_TAMPERTRIGGER_F
 726:Drivers/STM32H7xx_HAL_Driver/Src/stm32h7xx_hal_rtc_ex.c ****   {
 727:Drivers/STM32H7xx_HAL_Driver/Src/stm32h7xx_hal_rtc_ex.c ****     tmpreg |= (sTamper->Tamper << TAMP_CR2_TAMP1TRG_Pos);
 728:Drivers/STM32H7xx_HAL_Driver/Src/stm32h7xx_hal_rtc_ex.c ****   }
 729:Drivers/STM32H7xx_HAL_Driver/Src/stm32h7xx_hal_rtc_ex.c **** 
 730:Drivers/STM32H7xx_HAL_Driver/Src/stm32h7xx_hal_rtc_ex.c ****   /* Configure the tamper flags masking bit */
 731:Drivers/STM32H7xx_HAL_Driver/Src/stm32h7xx_hal_rtc_ex.c ****   if (sTamper->MaskFlag != RTC_TAMPERMASK_FLAG_DISABLE)
 732:Drivers/STM32H7xx_HAL_Driver/Src/stm32h7xx_hal_rtc_ex.c ****   {
 733:Drivers/STM32H7xx_HAL_Driver/Src/stm32h7xx_hal_rtc_ex.c ****     tmpreg |= (sTamper->Tamper << TAMP_CR2_TAMP1MSK_Pos);
 734:Drivers/STM32H7xx_HAL_Driver/Src/stm32h7xx_hal_rtc_ex.c ****   }
 735:Drivers/STM32H7xx_HAL_Driver/Src/stm32h7xx_hal_rtc_ex.c **** 
 736:Drivers/STM32H7xx_HAL_Driver/Src/stm32h7xx_hal_rtc_ex.c ****   /* Configure the tamper backup registers erasure bit */
 737:Drivers/STM32H7xx_HAL_Driver/Src/stm32h7xx_hal_rtc_ex.c ****   if (sTamper->NoErase != RTC_TAMPER_ERASE_BACKUP_ENABLE)
 738:Drivers/STM32H7xx_HAL_Driver/Src/stm32h7xx_hal_rtc_ex.c ****   {
 739:Drivers/STM32H7xx_HAL_Driver/Src/stm32h7xx_hal_rtc_ex.c ****     tmpreg |= (sTamper->Tamper << TAMP_CR2_TAMP1NOERASE_Pos);
 740:Drivers/STM32H7xx_HAL_Driver/Src/stm32h7xx_hal_rtc_ex.c ****   }
 741:Drivers/STM32H7xx_HAL_Driver/Src/stm32h7xx_hal_rtc_ex.c ****   tamp->CR2 = tmpreg;
 742:Drivers/STM32H7xx_HAL_Driver/Src/stm32h7xx_hal_rtc_ex.c **** 
 743:Drivers/STM32H7xx_HAL_Driver/Src/stm32h7xx_hal_rtc_ex.c ****   /* Configure filtering parameters */
 744:Drivers/STM32H7xx_HAL_Driver/Src/stm32h7xx_hal_rtc_ex.c ****   tamp->FLTCR = (sTamper->Filter)            | (sTamper->SamplingFrequency) | \
 745:Drivers/STM32H7xx_HAL_Driver/Src/stm32h7xx_hal_rtc_ex.c ****                 (sTamper->PrechargeDuration) | (sTamper->TamperPullUp);
 746:Drivers/STM32H7xx_HAL_Driver/Src/stm32h7xx_hal_rtc_ex.c **** 
 747:Drivers/STM32H7xx_HAL_Driver/Src/stm32h7xx_hal_rtc_ex.c ****   /* Configure Timestamp saving on tamper detection */
 748:Drivers/STM32H7xx_HAL_Driver/Src/stm32h7xx_hal_rtc_ex.c ****   if ((hrtc->Instance->CR & RTC_CR_TAMPTS) != (sTamper->TimeStampOnTamperDetection))
 749:Drivers/STM32H7xx_HAL_Driver/Src/stm32h7xx_hal_rtc_ex.c ****   {
 750:Drivers/STM32H7xx_HAL_Driver/Src/stm32h7xx_hal_rtc_ex.c ****     __HAL_RTC_WRITEPROTECTION_DISABLE(hrtc);
 751:Drivers/STM32H7xx_HAL_Driver/Src/stm32h7xx_hal_rtc_ex.c ****     tmpreg = (hrtc->Instance->CR & ~RTC_CR_TAMPTS);
 752:Drivers/STM32H7xx_HAL_Driver/Src/stm32h7xx_hal_rtc_ex.c ****     hrtc->Instance->CR = (tmpreg | (sTamper->TimeStampOnTamperDetection));
 753:Drivers/STM32H7xx_HAL_Driver/Src/stm32h7xx_hal_rtc_ex.c ****     __HAL_RTC_WRITEPROTECTION_ENABLE(hrtc);
 754:Drivers/STM32H7xx_HAL_Driver/Src/stm32h7xx_hal_rtc_ex.c ****   }
 755:Drivers/STM32H7xx_HAL_Driver/Src/stm32h7xx_hal_rtc_ex.c **** 
 756:Drivers/STM32H7xx_HAL_Driver/Src/stm32h7xx_hal_rtc_ex.c ****   /* Configure RTC Tamper Interrupt: EXTI configuration */
 757:Drivers/STM32H7xx_HAL_Driver/Src/stm32h7xx_hal_rtc_ex.c ****   __HAL_RTC_TAMPER_TIMESTAMP_EXTI_ENABLE_IT();
 758:Drivers/STM32H7xx_HAL_Driver/Src/stm32h7xx_hal_rtc_ex.c ****   __HAL_RTC_TAMPER_TIMESTAMP_EXTI_ENABLE_RISING_FALLING_EDGE();
 759:Drivers/STM32H7xx_HAL_Driver/Src/stm32h7xx_hal_rtc_ex.c **** 
 760:Drivers/STM32H7xx_HAL_Driver/Src/stm32h7xx_hal_rtc_ex.c ****   /* Enable interrupt on selected tamper */
 761:Drivers/STM32H7xx_HAL_Driver/Src/stm32h7xx_hal_rtc_ex.c ****   tamp->IER |= sTamper->Tamper;
 762:Drivers/STM32H7xx_HAL_Driver/Src/stm32h7xx_hal_rtc_ex.c **** 
 763:Drivers/STM32H7xx_HAL_Driver/Src/stm32h7xx_hal_rtc_ex.c ****   /* Enable selected tamper */
 764:Drivers/STM32H7xx_HAL_Driver/Src/stm32h7xx_hal_rtc_ex.c ****   tamp->CR1 |= sTamper->Tamper;
 765:Drivers/STM32H7xx_HAL_Driver/Src/stm32h7xx_hal_rtc_ex.c **** 
 766:Drivers/STM32H7xx_HAL_Driver/Src/stm32h7xx_hal_rtc_ex.c ****   return HAL_OK;
 767:Drivers/STM32H7xx_HAL_Driver/Src/stm32h7xx_hal_rtc_ex.c **** }
 768:Drivers/STM32H7xx_HAL_Driver/Src/stm32h7xx_hal_rtc_ex.c **** #endif /* TAMP_CR1_TAMP1E */
 769:Drivers/STM32H7xx_HAL_Driver/Src/stm32h7xx_hal_rtc_ex.c **** #if defined(RTC_TAMPCR_TAMP1E)
 770:Drivers/STM32H7xx_HAL_Driver/Src/stm32h7xx_hal_rtc_ex.c **** /**
 771:Drivers/STM32H7xx_HAL_Driver/Src/stm32h7xx_hal_rtc_ex.c ****   * @brief  Set Tamper with interrupt.
 772:Drivers/STM32H7xx_HAL_Driver/Src/stm32h7xx_hal_rtc_ex.c ****   * @note   By calling this API we force the tamper interrupt for all tampers.
ARM GAS  C:\usertemp\cc0y2B3r.s 			page 32


 773:Drivers/STM32H7xx_HAL_Driver/Src/stm32h7xx_hal_rtc_ex.c ****   * @param  hrtc RTC handle
 774:Drivers/STM32H7xx_HAL_Driver/Src/stm32h7xx_hal_rtc_ex.c ****   * @param  sTamper Pointer to Tamper Structure.
 775:Drivers/STM32H7xx_HAL_Driver/Src/stm32h7xx_hal_rtc_ex.c ****   * @retval HAL status
 776:Drivers/STM32H7xx_HAL_Driver/Src/stm32h7xx_hal_rtc_ex.c ****   */
 777:Drivers/STM32H7xx_HAL_Driver/Src/stm32h7xx_hal_rtc_ex.c **** HAL_StatusTypeDef HAL_RTCEx_SetTamper_IT(RTC_HandleTypeDef * hrtc, RTC_TamperTypeDef * sTamper)
 778:Drivers/STM32H7xx_HAL_Driver/Src/stm32h7xx_hal_rtc_ex.c **** {
 949              		.loc 1 778 1 is_stmt 1 view -0
 950              		.cfi_startproc
 951              		@ args = 0, pretend = 0, frame = 0
 952              		@ frame_needed = 0, uses_anonymous_args = 0
 953              		@ link register save eliminated.
 779:Drivers/STM32H7xx_HAL_Driver/Src/stm32h7xx_hal_rtc_ex.c ****   uint32_t tmpreg;
 954              		.loc 1 779 3 view .LVU351
 780:Drivers/STM32H7xx_HAL_Driver/Src/stm32h7xx_hal_rtc_ex.c **** 
 781:Drivers/STM32H7xx_HAL_Driver/Src/stm32h7xx_hal_rtc_ex.c ****   /* Check the parameters */
 782:Drivers/STM32H7xx_HAL_Driver/Src/stm32h7xx_hal_rtc_ex.c ****   assert_param(IS_RTC_TAMPER(sTamper->Tamper));
 955              		.loc 1 782 3 view .LVU352
 783:Drivers/STM32H7xx_HAL_Driver/Src/stm32h7xx_hal_rtc_ex.c ****   assert_param(IS_RTC_TAMPER_INTERRUPT(sTamper->Interrupt));
 956              		.loc 1 783 3 view .LVU353
 784:Drivers/STM32H7xx_HAL_Driver/Src/stm32h7xx_hal_rtc_ex.c ****   assert_param(IS_RTC_TAMPER_TRIGGER(sTamper->Trigger));
 957              		.loc 1 784 3 view .LVU354
 785:Drivers/STM32H7xx_HAL_Driver/Src/stm32h7xx_hal_rtc_ex.c ****   assert_param(IS_RTC_TAMPER_ERASE_MODE(sTamper->NoErase));
 958              		.loc 1 785 3 view .LVU355
 786:Drivers/STM32H7xx_HAL_Driver/Src/stm32h7xx_hal_rtc_ex.c ****   assert_param(IS_RTC_TAMPER_MASKFLAG_STATE(sTamper->MaskFlag));
 959              		.loc 1 786 3 view .LVU356
 787:Drivers/STM32H7xx_HAL_Driver/Src/stm32h7xx_hal_rtc_ex.c ****   assert_param(IS_RTC_TAMPER_FILTER(sTamper->Filter));
 960              		.loc 1 787 3 view .LVU357
 788:Drivers/STM32H7xx_HAL_Driver/Src/stm32h7xx_hal_rtc_ex.c ****   assert_param(IS_RTC_TAMPER_SAMPLING_FREQ(sTamper->SamplingFrequency));
 961              		.loc 1 788 3 view .LVU358
 789:Drivers/STM32H7xx_HAL_Driver/Src/stm32h7xx_hal_rtc_ex.c ****   assert_param(IS_RTC_TAMPER_PRECHARGE_DURATION(sTamper->PrechargeDuration));
 962              		.loc 1 789 3 view .LVU359
 790:Drivers/STM32H7xx_HAL_Driver/Src/stm32h7xx_hal_rtc_ex.c ****   assert_param(IS_RTC_TAMPER_PULLUP_STATE(sTamper->TamperPullUp));
 963              		.loc 1 790 3 view .LVU360
 791:Drivers/STM32H7xx_HAL_Driver/Src/stm32h7xx_hal_rtc_ex.c ****   assert_param(IS_RTC_TAMPER_TIMESTAMPONTAMPER_DETECTION(sTamper->TimeStampOnTamperDetection));
 964              		.loc 1 791 3 view .LVU361
 792:Drivers/STM32H7xx_HAL_Driver/Src/stm32h7xx_hal_rtc_ex.c ****   assert_param(IS_RTC_TAMPER_FILTER_CONFIG_CORRECT(sTamper->Filter, sTamper->Trigger));
 965              		.loc 1 792 3 view .LVU362
 793:Drivers/STM32H7xx_HAL_Driver/Src/stm32h7xx_hal_rtc_ex.c **** 
 794:Drivers/STM32H7xx_HAL_Driver/Src/stm32h7xx_hal_rtc_ex.c ****   /* Process Locked */
 795:Drivers/STM32H7xx_HAL_Driver/Src/stm32h7xx_hal_rtc_ex.c ****   __HAL_LOCK(hrtc);
 966              		.loc 1 795 3 view .LVU363
 967              		.loc 1 795 3 view .LVU364
 968 0000 90F82030 		ldrb	r3, [r0, #32]	@ zero_extendqisi2
 969 0004 012B     		cmp	r3, #1
 970 0006 7DD0     		beq	.L73
 778:Drivers/STM32H7xx_HAL_Driver/Src/stm32h7xx_hal_rtc_ex.c ****   uint32_t tmpreg;
 971              		.loc 1 778 1 is_stmt 0 view .LVU365
 972 0008 10B4     		push	{r4}
 973              	.LCFI11:
 974              		.cfi_def_cfa_offset 4
 975              		.cfi_offset 4, -4
 976 000a 8446     		mov	ip, r0
 977              		.loc 1 795 3 is_stmt 1 discriminator 2 view .LVU366
 978 000c 0123     		movs	r3, #1
 979 000e 80F82030 		strb	r3, [r0, #32]
 980              		.loc 1 795 3 discriminator 2 view .LVU367
 796:Drivers/STM32H7xx_HAL_Driver/Src/stm32h7xx_hal_rtc_ex.c **** 
ARM GAS  C:\usertemp\cc0y2B3r.s 			page 33


 797:Drivers/STM32H7xx_HAL_Driver/Src/stm32h7xx_hal_rtc_ex.c ****   hrtc->State = HAL_RTC_STATE_BUSY;
 981              		.loc 1 797 3 view .LVU368
 982              		.loc 1 797 15 is_stmt 0 view .LVU369
 983 0012 0223     		movs	r3, #2
 984 0014 80F82130 		strb	r3, [r0, #33]
 798:Drivers/STM32H7xx_HAL_Driver/Src/stm32h7xx_hal_rtc_ex.c **** 
 799:Drivers/STM32H7xx_HAL_Driver/Src/stm32h7xx_hal_rtc_ex.c ****   /* Copy control register into temporary variable */
 800:Drivers/STM32H7xx_HAL_Driver/Src/stm32h7xx_hal_rtc_ex.c ****   tmpreg = hrtc->Instance->TAMPCR;
 985              		.loc 1 800 3 is_stmt 1 view .LVU370
 986              		.loc 1 800 16 is_stmt 0 view .LVU371
 987 0018 0068     		ldr	r0, [r0]
 988              	.LVL78:
 989              		.loc 1 800 10 view .LVU372
 990 001a 036C     		ldr	r3, [r0, #64]
 991              	.LVL79:
 801:Drivers/STM32H7xx_HAL_Driver/Src/stm32h7xx_hal_rtc_ex.c **** 
 802:Drivers/STM32H7xx_HAL_Driver/Src/stm32h7xx_hal_rtc_ex.c ****   /* Enable selected tamper */
 803:Drivers/STM32H7xx_HAL_Driver/Src/stm32h7xx_hal_rtc_ex.c ****   tmpreg |= (sTamper->Tamper);
 992              		.loc 1 803 3 is_stmt 1 view .LVU373
 993              		.loc 1 803 21 is_stmt 0 view .LVU374
 994 001c 0A68     		ldr	r2, [r1]
 995              		.loc 1 803 10 view .LVU375
 996 001e 1343     		orrs	r3, r3, r2
 997              	.LVL80:
 804:Drivers/STM32H7xx_HAL_Driver/Src/stm32h7xx_hal_rtc_ex.c **** 
 805:Drivers/STM32H7xx_HAL_Driver/Src/stm32h7xx_hal_rtc_ex.c ****   /* Configure the tamper trigger bit (located just next to the tamper enable bit) */
 806:Drivers/STM32H7xx_HAL_Driver/Src/stm32h7xx_hal_rtc_ex.c ****   if ((sTamper->Trigger == RTC_TAMPERTRIGGER_HIGHLEVEL) || (sTamper->Trigger == RTC_TAMPERTRIGGER_F
 998              		.loc 1 806 3 is_stmt 1 view .LVU376
 999              		.loc 1 806 15 is_stmt 0 view .LVU377
 1000 0020 8C68     		ldr	r4, [r1, #8]
 1001              		.loc 1 806 6 view .LVU378
 1002 0022 022C     		cmp	r4, #2
 1003 0024 18BF     		it	ne
 1004 0026 082C     		cmpne	r4, #8
 1005 0028 49D1     		bne	.L59
 807:Drivers/STM32H7xx_HAL_Driver/Src/stm32h7xx_hal_rtc_ex.c ****   {
 808:Drivers/STM32H7xx_HAL_Driver/Src/stm32h7xx_hal_rtc_ex.c ****     /* Set the tamper trigger bit */
 809:Drivers/STM32H7xx_HAL_Driver/Src/stm32h7xx_hal_rtc_ex.c ****     tmpreg |= (uint32_t)(sTamper->Tamper << 1U);
 1006              		.loc 1 809 5 is_stmt 1 view .LVU379
 1007              		.loc 1 809 12 is_stmt 0 view .LVU380
 1008 002a 43EA4203 		orr	r3, r3, r2, lsl #1
 1009              	.LVL81:
 1010              	.L60:
 810:Drivers/STM32H7xx_HAL_Driver/Src/stm32h7xx_hal_rtc_ex.c ****   }
 811:Drivers/STM32H7xx_HAL_Driver/Src/stm32h7xx_hal_rtc_ex.c ****   else
 812:Drivers/STM32H7xx_HAL_Driver/Src/stm32h7xx_hal_rtc_ex.c ****   {
 813:Drivers/STM32H7xx_HAL_Driver/Src/stm32h7xx_hal_rtc_ex.c ****     /* Clear the tamper trigger bit */
 814:Drivers/STM32H7xx_HAL_Driver/Src/stm32h7xx_hal_rtc_ex.c ****     tmpreg &= (uint32_t)~(sTamper->Tamper << 1U);
 815:Drivers/STM32H7xx_HAL_Driver/Src/stm32h7xx_hal_rtc_ex.c ****   }
 816:Drivers/STM32H7xx_HAL_Driver/Src/stm32h7xx_hal_rtc_ex.c **** 
 817:Drivers/STM32H7xx_HAL_Driver/Src/stm32h7xx_hal_rtc_ex.c ****   /* Configure the tamper backup registers erasure bit */
 818:Drivers/STM32H7xx_HAL_Driver/Src/stm32h7xx_hal_rtc_ex.c ****   if (sTamper->NoErase != RTC_TAMPER_ERASE_BACKUP_ENABLE)
 1011              		.loc 1 818 3 is_stmt 1 view .LVU381
 1012              		.loc 1 818 14 is_stmt 0 view .LVU382
 1013 002e CC68     		ldr	r4, [r1, #12]
 1014              		.loc 1 818 6 view .LVU383
 1015 0030 002C     		cmp	r4, #0
ARM GAS  C:\usertemp\cc0y2B3r.s 			page 34


 1016 0032 47D0     		beq	.L61
 819:Drivers/STM32H7xx_HAL_Driver/Src/stm32h7xx_hal_rtc_ex.c ****   {
 820:Drivers/STM32H7xx_HAL_Driver/Src/stm32h7xx_hal_rtc_ex.c **** #if defined(RTC_TAMPCR_TAMP1E)
 821:Drivers/STM32H7xx_HAL_Driver/Src/stm32h7xx_hal_rtc_ex.c ****     if ((sTamper->Tamper & RTC_TAMPER_1) != 0U)
 1017              		.loc 1 821 5 is_stmt 1 view .LVU384
 1018              		.loc 1 821 8 is_stmt 0 view .LVU385
 1019 0034 12F0010F 		tst	r2, #1
 1020 0038 01D0     		beq	.L62
 822:Drivers/STM32H7xx_HAL_Driver/Src/stm32h7xx_hal_rtc_ex.c ****     {
 823:Drivers/STM32H7xx_HAL_Driver/Src/stm32h7xx_hal_rtc_ex.c ****       tmpreg |= (uint32_t)(RTC_TAMPCR_TAMP1NOERASE);
 1021              		.loc 1 823 7 is_stmt 1 view .LVU386
 1022              		.loc 1 823 14 is_stmt 0 view .LVU387
 1023 003a 43F40033 		orr	r3, r3, #131072
 1024              	.LVL82:
 1025              	.L62:
 824:Drivers/STM32H7xx_HAL_Driver/Src/stm32h7xx_hal_rtc_ex.c ****     }
 825:Drivers/STM32H7xx_HAL_Driver/Src/stm32h7xx_hal_rtc_ex.c **** #endif /* RTC_TAMPCR_TAMP1E */
 826:Drivers/STM32H7xx_HAL_Driver/Src/stm32h7xx_hal_rtc_ex.c **** #if defined(RTC_TAMPCR_TAMP2E)
 827:Drivers/STM32H7xx_HAL_Driver/Src/stm32h7xx_hal_rtc_ex.c ****     if ((sTamper->Tamper & RTC_TAMPER_2) != 0U)
 1026              		.loc 1 827 5 is_stmt 1 view .LVU388
 1027              		.loc 1 827 8 is_stmt 0 view .LVU389
 1028 003e 12F0080F 		tst	r2, #8
 1029 0042 01D0     		beq	.L63
 828:Drivers/STM32H7xx_HAL_Driver/Src/stm32h7xx_hal_rtc_ex.c ****     {
 829:Drivers/STM32H7xx_HAL_Driver/Src/stm32h7xx_hal_rtc_ex.c ****       tmpreg |= (uint32_t)(RTC_TAMPCR_TAMP2NOERASE);
 1030              		.loc 1 829 7 is_stmt 1 view .LVU390
 1031              		.loc 1 829 14 is_stmt 0 view .LVU391
 1032 0044 43F48013 		orr	r3, r3, #1048576
 1033              	.LVL83:
 1034              	.L63:
 830:Drivers/STM32H7xx_HAL_Driver/Src/stm32h7xx_hal_rtc_ex.c ****     }
 831:Drivers/STM32H7xx_HAL_Driver/Src/stm32h7xx_hal_rtc_ex.c **** #endif /* RTC_TAMPCR_TAMP2E */
 832:Drivers/STM32H7xx_HAL_Driver/Src/stm32h7xx_hal_rtc_ex.c **** #if defined(RTC_TAMPCR_TAMP3E)
 833:Drivers/STM32H7xx_HAL_Driver/Src/stm32h7xx_hal_rtc_ex.c ****     if ((sTamper->Tamper & RTC_TAMPER_3) != 0U)
 1035              		.loc 1 833 5 is_stmt 1 view .LVU392
 1036              		.loc 1 833 8 is_stmt 0 view .LVU393
 1037 0048 12F0200F 		tst	r2, #32
 1038 004c 01D0     		beq	.L64
 834:Drivers/STM32H7xx_HAL_Driver/Src/stm32h7xx_hal_rtc_ex.c ****     {
 835:Drivers/STM32H7xx_HAL_Driver/Src/stm32h7xx_hal_rtc_ex.c ****       tmpreg |= (uint32_t)(RTC_TAMPCR_TAMP3NOERASE);
 1039              		.loc 1 835 7 is_stmt 1 view .LVU394
 1040              		.loc 1 835 14 is_stmt 0 view .LVU395
 1041 004e 43F40003 		orr	r3, r3, #8388608
 1042              	.LVL84:
 1043              	.L64:
 836:Drivers/STM32H7xx_HAL_Driver/Src/stm32h7xx_hal_rtc_ex.c ****     }
 837:Drivers/STM32H7xx_HAL_Driver/Src/stm32h7xx_hal_rtc_ex.c **** #endif /* RTC_TAMPCR_TAMP3E */
 838:Drivers/STM32H7xx_HAL_Driver/Src/stm32h7xx_hal_rtc_ex.c ****   }
 839:Drivers/STM32H7xx_HAL_Driver/Src/stm32h7xx_hal_rtc_ex.c ****   else
 840:Drivers/STM32H7xx_HAL_Driver/Src/stm32h7xx_hal_rtc_ex.c ****   {
 841:Drivers/STM32H7xx_HAL_Driver/Src/stm32h7xx_hal_rtc_ex.c **** #if defined(RTC_TAMPCR_TAMP1E)
 842:Drivers/STM32H7xx_HAL_Driver/Src/stm32h7xx_hal_rtc_ex.c ****     if ((sTamper->Tamper & RTC_TAMPER_1) != 0U)
 843:Drivers/STM32H7xx_HAL_Driver/Src/stm32h7xx_hal_rtc_ex.c ****     {
 844:Drivers/STM32H7xx_HAL_Driver/Src/stm32h7xx_hal_rtc_ex.c ****       tmpreg &= (uint32_t)~(RTC_TAMPCR_TAMP1NOERASE);
 845:Drivers/STM32H7xx_HAL_Driver/Src/stm32h7xx_hal_rtc_ex.c ****     }
 846:Drivers/STM32H7xx_HAL_Driver/Src/stm32h7xx_hal_rtc_ex.c **** #endif /* RTC_TAMPCR_TAMP1E */
 847:Drivers/STM32H7xx_HAL_Driver/Src/stm32h7xx_hal_rtc_ex.c **** #if defined(RTC_TAMPCR_TAMP2E)
ARM GAS  C:\usertemp\cc0y2B3r.s 			page 35


 848:Drivers/STM32H7xx_HAL_Driver/Src/stm32h7xx_hal_rtc_ex.c ****     if ((sTamper->Tamper & RTC_TAMPER_2) != 0U)
 849:Drivers/STM32H7xx_HAL_Driver/Src/stm32h7xx_hal_rtc_ex.c ****     {
 850:Drivers/STM32H7xx_HAL_Driver/Src/stm32h7xx_hal_rtc_ex.c ****       tmpreg &= (uint32_t)~(RTC_TAMPCR_TAMP2NOERASE);
 851:Drivers/STM32H7xx_HAL_Driver/Src/stm32h7xx_hal_rtc_ex.c ****     }
 852:Drivers/STM32H7xx_HAL_Driver/Src/stm32h7xx_hal_rtc_ex.c **** #endif /* RTC_TAMPCR_TAMP2E */
 853:Drivers/STM32H7xx_HAL_Driver/Src/stm32h7xx_hal_rtc_ex.c **** #if defined(RTC_TAMPCR_TAMP3E)
 854:Drivers/STM32H7xx_HAL_Driver/Src/stm32h7xx_hal_rtc_ex.c ****     if ((sTamper->Tamper & RTC_TAMPER_3) != 0U)
 855:Drivers/STM32H7xx_HAL_Driver/Src/stm32h7xx_hal_rtc_ex.c ****     {
 856:Drivers/STM32H7xx_HAL_Driver/Src/stm32h7xx_hal_rtc_ex.c ****       tmpreg &= (uint32_t)~(RTC_TAMPCR_TAMP3NOERASE);
 857:Drivers/STM32H7xx_HAL_Driver/Src/stm32h7xx_hal_rtc_ex.c ****     }
 858:Drivers/STM32H7xx_HAL_Driver/Src/stm32h7xx_hal_rtc_ex.c **** #endif /* RTC_TAMPCR_TAMP3E */
 859:Drivers/STM32H7xx_HAL_Driver/Src/stm32h7xx_hal_rtc_ex.c ****   }
 860:Drivers/STM32H7xx_HAL_Driver/Src/stm32h7xx_hal_rtc_ex.c **** 
 861:Drivers/STM32H7xx_HAL_Driver/Src/stm32h7xx_hal_rtc_ex.c ****   /* Configure the tamper flags masking bit */
 862:Drivers/STM32H7xx_HAL_Driver/Src/stm32h7xx_hal_rtc_ex.c ****   if (sTamper->MaskFlag != RTC_TAMPERMASK_FLAG_DISABLE)
 1044              		.loc 1 862 3 is_stmt 1 view .LVU396
 1045              		.loc 1 862 14 is_stmt 0 view .LVU397
 1046 0052 0C69     		ldr	r4, [r1, #16]
 1047              		.loc 1 862 6 view .LVU398
 1048 0054 002C     		cmp	r4, #0
 1049 0056 45D0     		beq	.L67
 863:Drivers/STM32H7xx_HAL_Driver/Src/stm32h7xx_hal_rtc_ex.c ****   {
 864:Drivers/STM32H7xx_HAL_Driver/Src/stm32h7xx_hal_rtc_ex.c **** #if defined(RTC_TAMPCR_TAMP1E)
 865:Drivers/STM32H7xx_HAL_Driver/Src/stm32h7xx_hal_rtc_ex.c ****     if ((sTamper->Tamper & RTC_TAMPER_1) != 0U)
 1050              		.loc 1 865 5 is_stmt 1 view .LVU399
 1051              		.loc 1 865 8 is_stmt 0 view .LVU400
 1052 0058 12F0010F 		tst	r2, #1
 1053 005c 01D0     		beq	.L68
 866:Drivers/STM32H7xx_HAL_Driver/Src/stm32h7xx_hal_rtc_ex.c ****     {
 867:Drivers/STM32H7xx_HAL_Driver/Src/stm32h7xx_hal_rtc_ex.c ****       tmpreg |= (uint32_t)(RTC_TAMPCR_TAMP1MF);
 1054              		.loc 1 867 7 is_stmt 1 view .LVU401
 1055              		.loc 1 867 14 is_stmt 0 view .LVU402
 1056 005e 43F48023 		orr	r3, r3, #262144
 1057              	.LVL85:
 1058              	.L68:
 868:Drivers/STM32H7xx_HAL_Driver/Src/stm32h7xx_hal_rtc_ex.c ****     }
 869:Drivers/STM32H7xx_HAL_Driver/Src/stm32h7xx_hal_rtc_ex.c **** #endif /* RTC_TAMPCR_TAMP1E */
 870:Drivers/STM32H7xx_HAL_Driver/Src/stm32h7xx_hal_rtc_ex.c **** #if defined(RTC_TAMPCR_TAMP2E)
 871:Drivers/STM32H7xx_HAL_Driver/Src/stm32h7xx_hal_rtc_ex.c ****     if ((sTamper->Tamper & RTC_TAMPER_2) != 0U)
 1059              		.loc 1 871 5 is_stmt 1 view .LVU403
 1060              		.loc 1 871 8 is_stmt 0 view .LVU404
 1061 0062 12F0080F 		tst	r2, #8
 1062 0066 01D0     		beq	.L69
 872:Drivers/STM32H7xx_HAL_Driver/Src/stm32h7xx_hal_rtc_ex.c ****     {
 873:Drivers/STM32H7xx_HAL_Driver/Src/stm32h7xx_hal_rtc_ex.c ****       tmpreg |= (uint32_t)(RTC_TAMPCR_TAMP2MF);
 1063              		.loc 1 873 7 is_stmt 1 view .LVU405
 1064              		.loc 1 873 14 is_stmt 0 view .LVU406
 1065 0068 43F40013 		orr	r3, r3, #2097152
 1066              	.LVL86:
 1067              	.L69:
 874:Drivers/STM32H7xx_HAL_Driver/Src/stm32h7xx_hal_rtc_ex.c ****     }
 875:Drivers/STM32H7xx_HAL_Driver/Src/stm32h7xx_hal_rtc_ex.c **** #endif /* RTC_TAMPCR_TAMP2E */
 876:Drivers/STM32H7xx_HAL_Driver/Src/stm32h7xx_hal_rtc_ex.c **** #if defined(RTC_TAMPCR_TAMP3E)
 877:Drivers/STM32H7xx_HAL_Driver/Src/stm32h7xx_hal_rtc_ex.c ****     if ((sTamper->Tamper & RTC_TAMPER_3) != 0U)
 1068              		.loc 1 877 5 is_stmt 1 view .LVU407
 1069              		.loc 1 877 8 is_stmt 0 view .LVU408
 1070 006c 12F0200F 		tst	r2, #32
ARM GAS  C:\usertemp\cc0y2B3r.s 			page 36


 1071 0070 01D0     		beq	.L70
 878:Drivers/STM32H7xx_HAL_Driver/Src/stm32h7xx_hal_rtc_ex.c ****     {
 879:Drivers/STM32H7xx_HAL_Driver/Src/stm32h7xx_hal_rtc_ex.c ****       tmpreg |= (uint32_t)(RTC_TAMPCR_TAMP3MF);
 1072              		.loc 1 879 7 is_stmt 1 view .LVU409
 1073              		.loc 1 879 14 is_stmt 0 view .LVU410
 1074 0072 43F08073 		orr	r3, r3, #16777216
 1075              	.LVL87:
 1076              	.L70:
 880:Drivers/STM32H7xx_HAL_Driver/Src/stm32h7xx_hal_rtc_ex.c ****     }
 881:Drivers/STM32H7xx_HAL_Driver/Src/stm32h7xx_hal_rtc_ex.c **** #endif /* RTC_TAMPCR_TAMP3E */
 882:Drivers/STM32H7xx_HAL_Driver/Src/stm32h7xx_hal_rtc_ex.c ****   }
 883:Drivers/STM32H7xx_HAL_Driver/Src/stm32h7xx_hal_rtc_ex.c ****   else
 884:Drivers/STM32H7xx_HAL_Driver/Src/stm32h7xx_hal_rtc_ex.c ****   {
 885:Drivers/STM32H7xx_HAL_Driver/Src/stm32h7xx_hal_rtc_ex.c **** #if defined(RTC_TAMPCR_TAMP1E)
 886:Drivers/STM32H7xx_HAL_Driver/Src/stm32h7xx_hal_rtc_ex.c ****     if ((sTamper->Tamper & RTC_TAMPER_1) != 0U)
 887:Drivers/STM32H7xx_HAL_Driver/Src/stm32h7xx_hal_rtc_ex.c ****     {
 888:Drivers/STM32H7xx_HAL_Driver/Src/stm32h7xx_hal_rtc_ex.c ****       tmpreg &= (uint32_t)~(RTC_TAMPCR_TAMP1MF);
 889:Drivers/STM32H7xx_HAL_Driver/Src/stm32h7xx_hal_rtc_ex.c ****     }
 890:Drivers/STM32H7xx_HAL_Driver/Src/stm32h7xx_hal_rtc_ex.c **** #endif /* RTC_TAMPCR_TAMP1E */
 891:Drivers/STM32H7xx_HAL_Driver/Src/stm32h7xx_hal_rtc_ex.c **** #if defined(RTC_TAMPCR_TAMP2E)
 892:Drivers/STM32H7xx_HAL_Driver/Src/stm32h7xx_hal_rtc_ex.c ****     if ((sTamper->Tamper & RTC_TAMPER_2) != 0U)
 893:Drivers/STM32H7xx_HAL_Driver/Src/stm32h7xx_hal_rtc_ex.c ****     {
 894:Drivers/STM32H7xx_HAL_Driver/Src/stm32h7xx_hal_rtc_ex.c ****       tmpreg &= (uint32_t)~(RTC_TAMPCR_TAMP2MF);
 895:Drivers/STM32H7xx_HAL_Driver/Src/stm32h7xx_hal_rtc_ex.c ****     }
 896:Drivers/STM32H7xx_HAL_Driver/Src/stm32h7xx_hal_rtc_ex.c **** #endif /* RTC_TAMPCR_TAMP2E */
 897:Drivers/STM32H7xx_HAL_Driver/Src/stm32h7xx_hal_rtc_ex.c **** #if defined(RTC_TAMPCR_TAMP3E)
 898:Drivers/STM32H7xx_HAL_Driver/Src/stm32h7xx_hal_rtc_ex.c ****     if ((sTamper->Tamper & RTC_TAMPER_3) != 0U)
 899:Drivers/STM32H7xx_HAL_Driver/Src/stm32h7xx_hal_rtc_ex.c ****     {
 900:Drivers/STM32H7xx_HAL_Driver/Src/stm32h7xx_hal_rtc_ex.c ****       tmpreg &= (uint32_t)~(RTC_TAMPCR_TAMP3MF);
 901:Drivers/STM32H7xx_HAL_Driver/Src/stm32h7xx_hal_rtc_ex.c ****     }
 902:Drivers/STM32H7xx_HAL_Driver/Src/stm32h7xx_hal_rtc_ex.c **** #endif /* RTC_TAMPCR_TAMP3E */
 903:Drivers/STM32H7xx_HAL_Driver/Src/stm32h7xx_hal_rtc_ex.c ****   }
 904:Drivers/STM32H7xx_HAL_Driver/Src/stm32h7xx_hal_rtc_ex.c **** 
 905:Drivers/STM32H7xx_HAL_Driver/Src/stm32h7xx_hal_rtc_ex.c ****   /* Clearing remaining fields before setting them */
 906:Drivers/STM32H7xx_HAL_Driver/Src/stm32h7xx_hal_rtc_ex.c ****   tmpreg &= ~(RTC_TAMPERFILTER_MASK            | RTC_TAMPERSAMPLINGFREQ_RTCCLK_MASK | \
 1077              		.loc 1 906 3 is_stmt 1 view .LVU411
 1078              		.loc 1 906 10 is_stmt 0 view .LVU412
 1079 0076 6FF3CF13 		bfc	r3, #7, #9
 1080              	.LVL88:
 907:Drivers/STM32H7xx_HAL_Driver/Src/stm32h7xx_hal_rtc_ex.c ****               RTC_TAMPERPRECHARGEDURATION_MASK | RTC_TAMPER_PULLUP_MASK             | \
 908:Drivers/STM32H7xx_HAL_Driver/Src/stm32h7xx_hal_rtc_ex.c ****               RTC_TIMESTAMPONTAMPERDETECTION_MASK);
 909:Drivers/STM32H7xx_HAL_Driver/Src/stm32h7xx_hal_rtc_ex.c **** 
 910:Drivers/STM32H7xx_HAL_Driver/Src/stm32h7xx_hal_rtc_ex.c ****   /* Set remaining parameters of desired configuration into temporary variable */
 911:Drivers/STM32H7xx_HAL_Driver/Src/stm32h7xx_hal_rtc_ex.c ****   tmpreg |= ((uint32_t)sTamper->Filter            | \
 1081              		.loc 1 911 3 is_stmt 1 view .LVU413
 1082              		.loc 1 911 31 is_stmt 0 view .LVU414
 1083 007a 4A69     		ldr	r2, [r1, #20]
 912:Drivers/STM32H7xx_HAL_Driver/Src/stm32h7xx_hal_rtc_ex.c ****              (uint32_t)sTamper->SamplingFrequency | \
 1084              		.loc 1 912 31 view .LVU415
 1085 007c 8C69     		ldr	r4, [r1, #24]
 911:Drivers/STM32H7xx_HAL_Driver/Src/stm32h7xx_hal_rtc_ex.c ****              (uint32_t)sTamper->SamplingFrequency | \
 1086              		.loc 1 911 51 view .LVU416
 1087 007e 2243     		orrs	r2, r2, r4
 913:Drivers/STM32H7xx_HAL_Driver/Src/stm32h7xx_hal_rtc_ex.c ****              (uint32_t)sTamper->PrechargeDuration | \
 1088              		.loc 1 913 31 view .LVU417
 1089 0080 CC69     		ldr	r4, [r1, #28]
 912:Drivers/STM32H7xx_HAL_Driver/Src/stm32h7xx_hal_rtc_ex.c ****              (uint32_t)sTamper->SamplingFrequency | \
ARM GAS  C:\usertemp\cc0y2B3r.s 			page 37


 1090              		.loc 1 912 51 view .LVU418
 1091 0082 2243     		orrs	r2, r2, r4
 914:Drivers/STM32H7xx_HAL_Driver/Src/stm32h7xx_hal_rtc_ex.c ****              (uint32_t)sTamper->TamperPullUp      | \
 1092              		.loc 1 914 31 view .LVU419
 1093 0084 0C6A     		ldr	r4, [r1, #32]
 913:Drivers/STM32H7xx_HAL_Driver/Src/stm32h7xx_hal_rtc_ex.c ****              (uint32_t)sTamper->PrechargeDuration | \
 1094              		.loc 1 913 51 view .LVU420
 1095 0086 2243     		orrs	r2, r2, r4
 915:Drivers/STM32H7xx_HAL_Driver/Src/stm32h7xx_hal_rtc_ex.c ****              (uint32_t)sTamper->TimeStampOnTamperDetection);
 1096              		.loc 1 915 31 view .LVU421
 1097 0088 4C6A     		ldr	r4, [r1, #36]
 914:Drivers/STM32H7xx_HAL_Driver/Src/stm32h7xx_hal_rtc_ex.c ****              (uint32_t)sTamper->TamperPullUp      | \
 1098              		.loc 1 914 51 view .LVU422
 1099 008a 2243     		orrs	r2, r2, r4
 911:Drivers/STM32H7xx_HAL_Driver/Src/stm32h7xx_hal_rtc_ex.c ****              (uint32_t)sTamper->SamplingFrequency | \
 1100              		.loc 1 911 10 view .LVU423
 1101 008c 1343     		orrs	r3, r3, r2
 1102              	.LVL89:
 916:Drivers/STM32H7xx_HAL_Driver/Src/stm32h7xx_hal_rtc_ex.c **** 
 917:Drivers/STM32H7xx_HAL_Driver/Src/stm32h7xx_hal_rtc_ex.c ****   /* Enable interrupt on selected tamper */
 918:Drivers/STM32H7xx_HAL_Driver/Src/stm32h7xx_hal_rtc_ex.c ****   tmpreg |= (uint32_t)sTamper->Interrupt;
 1103              		.loc 1 918 3 is_stmt 1 view .LVU424
 1104              		.loc 1 918 30 is_stmt 0 view .LVU425
 1105 008e 4A68     		ldr	r2, [r1, #4]
 1106              		.loc 1 918 10 view .LVU426
 1107 0090 1343     		orrs	r3, r3, r2
 1108              	.LVL90:
 919:Drivers/STM32H7xx_HAL_Driver/Src/stm32h7xx_hal_rtc_ex.c **** 
 920:Drivers/STM32H7xx_HAL_Driver/Src/stm32h7xx_hal_rtc_ex.c ****   /* Copy desired configuration into configuration register */
 921:Drivers/STM32H7xx_HAL_Driver/Src/stm32h7xx_hal_rtc_ex.c ****   hrtc->Instance->TAMPCR = tmpreg;
 1109              		.loc 1 921 3 is_stmt 1 view .LVU427
 1110              		.loc 1 921 26 is_stmt 0 view .LVU428
 1111 0092 0364     		str	r3, [r0, #64]
 922:Drivers/STM32H7xx_HAL_Driver/Src/stm32h7xx_hal_rtc_ex.c **** 
 923:Drivers/STM32H7xx_HAL_Driver/Src/stm32h7xx_hal_rtc_ex.c ****   /* RTC Tamper Interrupt Configuration: EXTI configuration */
 924:Drivers/STM32H7xx_HAL_Driver/Src/stm32h7xx_hal_rtc_ex.c **** #if defined(DUAL_CORE)
 925:Drivers/STM32H7xx_HAL_Driver/Src/stm32h7xx_hal_rtc_ex.c ****   if (HAL_GetCurrentCPUID() == CM7_CPUID)
 926:Drivers/STM32H7xx_HAL_Driver/Src/stm32h7xx_hal_rtc_ex.c ****   {
 927:Drivers/STM32H7xx_HAL_Driver/Src/stm32h7xx_hal_rtc_ex.c ****     __HAL_RTC_TAMPER_TIMESTAMP_EXTI_ENABLE_IT();
 928:Drivers/STM32H7xx_HAL_Driver/Src/stm32h7xx_hal_rtc_ex.c ****   }
 929:Drivers/STM32H7xx_HAL_Driver/Src/stm32h7xx_hal_rtc_ex.c ****   else
 930:Drivers/STM32H7xx_HAL_Driver/Src/stm32h7xx_hal_rtc_ex.c ****   {
 931:Drivers/STM32H7xx_HAL_Driver/Src/stm32h7xx_hal_rtc_ex.c ****     __HAL_RTC_TAMPER_TIMESTAMP_EXTID2_ENABLE_IT();
 932:Drivers/STM32H7xx_HAL_Driver/Src/stm32h7xx_hal_rtc_ex.c ****   }
 933:Drivers/STM32H7xx_HAL_Driver/Src/stm32h7xx_hal_rtc_ex.c **** #else /* SINGLE_CORE */
 934:Drivers/STM32H7xx_HAL_Driver/Src/stm32h7xx_hal_rtc_ex.c ****   __HAL_RTC_TAMPER_TIMESTAMP_EXTI_ENABLE_IT();
 1112              		.loc 1 934 3 is_stmt 1 view .LVU429
 1113 0094 4FF0B043 		mov	r3, #1476395008
 1114              	.LVL91:
 1115              		.loc 1 934 3 is_stmt 0 view .LVU430
 1116 0098 D3F88020 		ldr	r2, [r3, #128]
 1117 009c 42F48022 		orr	r2, r2, #262144
 1118 00a0 C3F88020 		str	r2, [r3, #128]
 1119              	.LVL92:
 935:Drivers/STM32H7xx_HAL_Driver/Src/stm32h7xx_hal_rtc_ex.c **** #endif /* DUAL_CORE */
 936:Drivers/STM32H7xx_HAL_Driver/Src/stm32h7xx_hal_rtc_ex.c **** 
 937:Drivers/STM32H7xx_HAL_Driver/Src/stm32h7xx_hal_rtc_ex.c ****   __HAL_RTC_TAMPER_TIMESTAMP_EXTI_ENABLE_RISING_EDGE();
ARM GAS  C:\usertemp\cc0y2B3r.s 			page 38


 1120              		.loc 1 937 3 is_stmt 1 view .LVU431
 1121 00a4 1A68     		ldr	r2, [r3]
 1122 00a6 42F48022 		orr	r2, r2, #262144
 1123 00aa 1A60     		str	r2, [r3]
 938:Drivers/STM32H7xx_HAL_Driver/Src/stm32h7xx_hal_rtc_ex.c **** 
 939:Drivers/STM32H7xx_HAL_Driver/Src/stm32h7xx_hal_rtc_ex.c ****   hrtc->State = HAL_RTC_STATE_READY;
 1124              		.loc 1 939 3 view .LVU432
 1125              		.loc 1 939 15 is_stmt 0 view .LVU433
 1126 00ac 0123     		movs	r3, #1
 1127 00ae 8CF82130 		strb	r3, [ip, #33]
 940:Drivers/STM32H7xx_HAL_Driver/Src/stm32h7xx_hal_rtc_ex.c **** 
 941:Drivers/STM32H7xx_HAL_Driver/Src/stm32h7xx_hal_rtc_ex.c ****   /* Process Unlocked */
 942:Drivers/STM32H7xx_HAL_Driver/Src/stm32h7xx_hal_rtc_ex.c ****   __HAL_UNLOCK(hrtc);
 1128              		.loc 1 942 3 is_stmt 1 view .LVU434
 1129              		.loc 1 942 3 view .LVU435
 1130 00b2 0020     		movs	r0, #0
 1131 00b4 8CF82000 		strb	r0, [ip, #32]
 1132              		.loc 1 942 3 view .LVU436
 943:Drivers/STM32H7xx_HAL_Driver/Src/stm32h7xx_hal_rtc_ex.c **** 
 944:Drivers/STM32H7xx_HAL_Driver/Src/stm32h7xx_hal_rtc_ex.c ****   return HAL_OK;
 1133              		.loc 1 944 3 view .LVU437
 945:Drivers/STM32H7xx_HAL_Driver/Src/stm32h7xx_hal_rtc_ex.c **** }
 1134              		.loc 1 945 1 is_stmt 0 view .LVU438
 1135 00b8 5DF8044B 		ldr	r4, [sp], #4
 1136              	.LCFI12:
 1137              		.cfi_remember_state
 1138              		.cfi_restore 4
 1139              		.cfi_def_cfa_offset 0
 1140 00bc 7047     		bx	lr
 1141              	.LVL93:
 1142              	.L59:
 1143              	.LCFI13:
 1144              		.cfi_restore_state
 814:Drivers/STM32H7xx_HAL_Driver/Src/stm32h7xx_hal_rtc_ex.c ****   }
 1145              		.loc 1 814 5 is_stmt 1 view .LVU439
 814:Drivers/STM32H7xx_HAL_Driver/Src/stm32h7xx_hal_rtc_ex.c ****   }
 1146              		.loc 1 814 12 is_stmt 0 view .LVU440
 1147 00be 23EA4203 		bic	r3, r3, r2, lsl #1
 1148              	.LVL94:
 814:Drivers/STM32H7xx_HAL_Driver/Src/stm32h7xx_hal_rtc_ex.c ****   }
 1149              		.loc 1 814 12 view .LVU441
 1150 00c2 B4E7     		b	.L60
 1151              	.L61:
 842:Drivers/STM32H7xx_HAL_Driver/Src/stm32h7xx_hal_rtc_ex.c ****     {
 1152              		.loc 1 842 5 is_stmt 1 view .LVU442
 842:Drivers/STM32H7xx_HAL_Driver/Src/stm32h7xx_hal_rtc_ex.c ****     {
 1153              		.loc 1 842 8 is_stmt 0 view .LVU443
 1154 00c4 12F0010F 		tst	r2, #1
 1155 00c8 01D0     		beq	.L65
 844:Drivers/STM32H7xx_HAL_Driver/Src/stm32h7xx_hal_rtc_ex.c ****     }
 1156              		.loc 1 844 7 is_stmt 1 view .LVU444
 844:Drivers/STM32H7xx_HAL_Driver/Src/stm32h7xx_hal_rtc_ex.c ****     }
 1157              		.loc 1 844 14 is_stmt 0 view .LVU445
 1158 00ca 23F40033 		bic	r3, r3, #131072
 1159              	.LVL95:
 1160              	.L65:
 848:Drivers/STM32H7xx_HAL_Driver/Src/stm32h7xx_hal_rtc_ex.c ****     {
ARM GAS  C:\usertemp\cc0y2B3r.s 			page 39


 1161              		.loc 1 848 5 is_stmt 1 view .LVU446
 848:Drivers/STM32H7xx_HAL_Driver/Src/stm32h7xx_hal_rtc_ex.c ****     {
 1162              		.loc 1 848 8 is_stmt 0 view .LVU447
 1163 00ce 12F0080F 		tst	r2, #8
 1164 00d2 01D0     		beq	.L66
 850:Drivers/STM32H7xx_HAL_Driver/Src/stm32h7xx_hal_rtc_ex.c ****     }
 1165              		.loc 1 850 7 is_stmt 1 view .LVU448
 850:Drivers/STM32H7xx_HAL_Driver/Src/stm32h7xx_hal_rtc_ex.c ****     }
 1166              		.loc 1 850 14 is_stmt 0 view .LVU449
 1167 00d4 23F48013 		bic	r3, r3, #1048576
 1168              	.LVL96:
 1169              	.L66:
 854:Drivers/STM32H7xx_HAL_Driver/Src/stm32h7xx_hal_rtc_ex.c ****     {
 1170              		.loc 1 854 5 is_stmt 1 view .LVU450
 854:Drivers/STM32H7xx_HAL_Driver/Src/stm32h7xx_hal_rtc_ex.c ****     {
 1171              		.loc 1 854 8 is_stmt 0 view .LVU451
 1172 00d8 12F0200F 		tst	r2, #32
 1173 00dc B9D0     		beq	.L64
 856:Drivers/STM32H7xx_HAL_Driver/Src/stm32h7xx_hal_rtc_ex.c ****     }
 1174              		.loc 1 856 7 is_stmt 1 view .LVU452
 856:Drivers/STM32H7xx_HAL_Driver/Src/stm32h7xx_hal_rtc_ex.c ****     }
 1175              		.loc 1 856 14 is_stmt 0 view .LVU453
 1176 00de 23F40003 		bic	r3, r3, #8388608
 1177              	.LVL97:
 856:Drivers/STM32H7xx_HAL_Driver/Src/stm32h7xx_hal_rtc_ex.c ****     }
 1178              		.loc 1 856 14 view .LVU454
 1179 00e2 B6E7     		b	.L64
 1180              	.L67:
 886:Drivers/STM32H7xx_HAL_Driver/Src/stm32h7xx_hal_rtc_ex.c ****     {
 1181              		.loc 1 886 5 is_stmt 1 view .LVU455
 886:Drivers/STM32H7xx_HAL_Driver/Src/stm32h7xx_hal_rtc_ex.c ****     {
 1182              		.loc 1 886 8 is_stmt 0 view .LVU456
 1183 00e4 12F0010F 		tst	r2, #1
 1184 00e8 01D0     		beq	.L71
 888:Drivers/STM32H7xx_HAL_Driver/Src/stm32h7xx_hal_rtc_ex.c ****     }
 1185              		.loc 1 888 7 is_stmt 1 view .LVU457
 888:Drivers/STM32H7xx_HAL_Driver/Src/stm32h7xx_hal_rtc_ex.c ****     }
 1186              		.loc 1 888 14 is_stmt 0 view .LVU458
 1187 00ea 23F48023 		bic	r3, r3, #262144
 1188              	.LVL98:
 1189              	.L71:
 892:Drivers/STM32H7xx_HAL_Driver/Src/stm32h7xx_hal_rtc_ex.c ****     {
 1190              		.loc 1 892 5 is_stmt 1 view .LVU459
 892:Drivers/STM32H7xx_HAL_Driver/Src/stm32h7xx_hal_rtc_ex.c ****     {
 1191              		.loc 1 892 8 is_stmt 0 view .LVU460
 1192 00ee 12F0080F 		tst	r2, #8
 1193 00f2 01D0     		beq	.L72
 894:Drivers/STM32H7xx_HAL_Driver/Src/stm32h7xx_hal_rtc_ex.c ****     }
 1194              		.loc 1 894 7 is_stmt 1 view .LVU461
 894:Drivers/STM32H7xx_HAL_Driver/Src/stm32h7xx_hal_rtc_ex.c ****     }
 1195              		.loc 1 894 14 is_stmt 0 view .LVU462
 1196 00f4 23F40013 		bic	r3, r3, #2097152
 1197              	.LVL99:
 1198              	.L72:
 898:Drivers/STM32H7xx_HAL_Driver/Src/stm32h7xx_hal_rtc_ex.c ****     {
 1199              		.loc 1 898 5 is_stmt 1 view .LVU463
 898:Drivers/STM32H7xx_HAL_Driver/Src/stm32h7xx_hal_rtc_ex.c ****     {
ARM GAS  C:\usertemp\cc0y2B3r.s 			page 40


 1200              		.loc 1 898 8 is_stmt 0 view .LVU464
 1201 00f8 12F0200F 		tst	r2, #32
 1202 00fc BBD0     		beq	.L70
 900:Drivers/STM32H7xx_HAL_Driver/Src/stm32h7xx_hal_rtc_ex.c ****     }
 1203              		.loc 1 900 7 is_stmt 1 view .LVU465
 900:Drivers/STM32H7xx_HAL_Driver/Src/stm32h7xx_hal_rtc_ex.c ****     }
 1204              		.loc 1 900 14 is_stmt 0 view .LVU466
 1205 00fe 23F08073 		bic	r3, r3, #16777216
 1206              	.LVL100:
 900:Drivers/STM32H7xx_HAL_Driver/Src/stm32h7xx_hal_rtc_ex.c ****     }
 1207              		.loc 1 900 14 view .LVU467
 1208 0102 B8E7     		b	.L70
 1209              	.LVL101:
 1210              	.L73:
 1211              	.LCFI14:
 1212              		.cfi_def_cfa_offset 0
 1213              		.cfi_restore 4
 795:Drivers/STM32H7xx_HAL_Driver/Src/stm32h7xx_hal_rtc_ex.c **** 
 1214              		.loc 1 795 3 discriminator 1 view .LVU468
 1215 0104 0220     		movs	r0, #2
 1216              	.LVL102:
 1217              		.loc 1 945 1 view .LVU469
 1218 0106 7047     		bx	lr
 1219              		.cfi_endproc
 1220              	.LFE340:
 1222              		.section	.text.HAL_RTCEx_DeactivateTamper,"ax",%progbits
 1223              		.align	1
 1224              		.global	HAL_RTCEx_DeactivateTamper
 1225              		.syntax unified
 1226              		.thumb
 1227              		.thumb_func
 1229              	HAL_RTCEx_DeactivateTamper:
 1230              	.LVL103:
 1231              	.LFB341:
 946:Drivers/STM32H7xx_HAL_Driver/Src/stm32h7xx_hal_rtc_ex.c **** #endif /* RTC_TAMPCR_TAMP1E */
 947:Drivers/STM32H7xx_HAL_Driver/Src/stm32h7xx_hal_rtc_ex.c **** 
 948:Drivers/STM32H7xx_HAL_Driver/Src/stm32h7xx_hal_rtc_ex.c **** #if defined(TAMP_CR1_TAMP1E)
 949:Drivers/STM32H7xx_HAL_Driver/Src/stm32h7xx_hal_rtc_ex.c **** /**
 950:Drivers/STM32H7xx_HAL_Driver/Src/stm32h7xx_hal_rtc_ex.c ****   * @brief  Deactivate Tamper.
 951:Drivers/STM32H7xx_HAL_Driver/Src/stm32h7xx_hal_rtc_ex.c ****   * @param  hrtc RTC handle
 952:Drivers/STM32H7xx_HAL_Driver/Src/stm32h7xx_hal_rtc_ex.c ****   * @param  Tamper Selected tamper pin.
 953:Drivers/STM32H7xx_HAL_Driver/Src/stm32h7xx_hal_rtc_ex.c ****   *         This parameter can be a combination of the following values:
 954:Drivers/STM32H7xx_HAL_Driver/Src/stm32h7xx_hal_rtc_ex.c ****   *         @arg RTC_TAMPER_1
 955:Drivers/STM32H7xx_HAL_Driver/Src/stm32h7xx_hal_rtc_ex.c ****   *         @arg RTC_TAMPER_2
 956:Drivers/STM32H7xx_HAL_Driver/Src/stm32h7xx_hal_rtc_ex.c ****   * @retval HAL status
 957:Drivers/STM32H7xx_HAL_Driver/Src/stm32h7xx_hal_rtc_ex.c ****   */
 958:Drivers/STM32H7xx_HAL_Driver/Src/stm32h7xx_hal_rtc_ex.c **** HAL_StatusTypeDef HAL_RTCEx_DeactivateTamper(RTC_HandleTypeDef * hrtc, uint32_t Tamper)
 959:Drivers/STM32H7xx_HAL_Driver/Src/stm32h7xx_hal_rtc_ex.c **** {
 960:Drivers/STM32H7xx_HAL_Driver/Src/stm32h7xx_hal_rtc_ex.c ****   /* Point on TAMPER registers base address */
 961:Drivers/STM32H7xx_HAL_Driver/Src/stm32h7xx_hal_rtc_ex.c ****   TAMP_TypeDef *tamp = (TAMP_TypeDef *)((uint32_t)hrtc->Instance + TAMP_OFFSET);
 962:Drivers/STM32H7xx_HAL_Driver/Src/stm32h7xx_hal_rtc_ex.c **** 
 963:Drivers/STM32H7xx_HAL_Driver/Src/stm32h7xx_hal_rtc_ex.c ****   assert_param(IS_RTC_TAMPER(Tamper));
 964:Drivers/STM32H7xx_HAL_Driver/Src/stm32h7xx_hal_rtc_ex.c **** 
 965:Drivers/STM32H7xx_HAL_Driver/Src/stm32h7xx_hal_rtc_ex.c ****   /* Disable the selected Tamper pin */
 966:Drivers/STM32H7xx_HAL_Driver/Src/stm32h7xx_hal_rtc_ex.c ****   tamp->CR1 &= ~Tamper;
 967:Drivers/STM32H7xx_HAL_Driver/Src/stm32h7xx_hal_rtc_ex.c **** 
 968:Drivers/STM32H7xx_HAL_Driver/Src/stm32h7xx_hal_rtc_ex.c ****   /* Disable the selected Tamper interrupt */
ARM GAS  C:\usertemp\cc0y2B3r.s 			page 41


 969:Drivers/STM32H7xx_HAL_Driver/Src/stm32h7xx_hal_rtc_ex.c ****   tamp->IER &= ~Tamper;
 970:Drivers/STM32H7xx_HAL_Driver/Src/stm32h7xx_hal_rtc_ex.c **** 
 971:Drivers/STM32H7xx_HAL_Driver/Src/stm32h7xx_hal_rtc_ex.c ****   /* Clear the selected tamper flags in SR register by setting corresponding bits in SCR register *
 972:Drivers/STM32H7xx_HAL_Driver/Src/stm32h7xx_hal_rtc_ex.c ****   tamp->SCR = Tamper;
 973:Drivers/STM32H7xx_HAL_Driver/Src/stm32h7xx_hal_rtc_ex.c **** 
 974:Drivers/STM32H7xx_HAL_Driver/Src/stm32h7xx_hal_rtc_ex.c ****   /* Clear the selected tamper configuration (trigger, mask flag, and no-erase) */
 975:Drivers/STM32H7xx_HAL_Driver/Src/stm32h7xx_hal_rtc_ex.c ****   tamp->CR2 &= ~((Tamper << TAMP_CR2_TAMP1TRG_Pos) | (Tamper << TAMP_CR2_TAMP1MSK_Pos) | (Tamper <<
 976:Drivers/STM32H7xx_HAL_Driver/Src/stm32h7xx_hal_rtc_ex.c **** 
 977:Drivers/STM32H7xx_HAL_Driver/Src/stm32h7xx_hal_rtc_ex.c ****   return HAL_OK;
 978:Drivers/STM32H7xx_HAL_Driver/Src/stm32h7xx_hal_rtc_ex.c **** }
 979:Drivers/STM32H7xx_HAL_Driver/Src/stm32h7xx_hal_rtc_ex.c **** #endif /* TAMP_CR1_TAMP1E */
 980:Drivers/STM32H7xx_HAL_Driver/Src/stm32h7xx_hal_rtc_ex.c **** #if defined(RTC_TAMPCR_TAMP1E)
 981:Drivers/STM32H7xx_HAL_Driver/Src/stm32h7xx_hal_rtc_ex.c **** /**
 982:Drivers/STM32H7xx_HAL_Driver/Src/stm32h7xx_hal_rtc_ex.c ****   * @brief  Deactivate Tamper.
 983:Drivers/STM32H7xx_HAL_Driver/Src/stm32h7xx_hal_rtc_ex.c ****   * @param  hrtc RTC handle
 984:Drivers/STM32H7xx_HAL_Driver/Src/stm32h7xx_hal_rtc_ex.c ****   * @param  Tamper Selected tamper pin.
 985:Drivers/STM32H7xx_HAL_Driver/Src/stm32h7xx_hal_rtc_ex.c ****   *         This parameter can be any combination of the following values:
 986:Drivers/STM32H7xx_HAL_Driver/Src/stm32h7xx_hal_rtc_ex.c ****   *         @arg RTC_TAMPER_1
 987:Drivers/STM32H7xx_HAL_Driver/Src/stm32h7xx_hal_rtc_ex.c ****   *         @arg RTC_TAMPER_2
 988:Drivers/STM32H7xx_HAL_Driver/Src/stm32h7xx_hal_rtc_ex.c ****   *         @arg RTC_TAMPER_3
 989:Drivers/STM32H7xx_HAL_Driver/Src/stm32h7xx_hal_rtc_ex.c ****   * @retval HAL status
 990:Drivers/STM32H7xx_HAL_Driver/Src/stm32h7xx_hal_rtc_ex.c ****   */
 991:Drivers/STM32H7xx_HAL_Driver/Src/stm32h7xx_hal_rtc_ex.c **** HAL_StatusTypeDef HAL_RTCEx_DeactivateTamper(RTC_HandleTypeDef * hrtc, uint32_t Tamper)
 992:Drivers/STM32H7xx_HAL_Driver/Src/stm32h7xx_hal_rtc_ex.c **** {
 1232              		.loc 1 992 1 is_stmt 1 view -0
 1233              		.cfi_startproc
 1234              		@ args = 0, pretend = 0, frame = 0
 1235              		@ frame_needed = 0, uses_anonymous_args = 0
 1236              		@ link register save eliminated.
 993:Drivers/STM32H7xx_HAL_Driver/Src/stm32h7xx_hal_rtc_ex.c ****   assert_param(IS_RTC_TAMPER(Tamper));
 1237              		.loc 1 993 3 view .LVU471
 994:Drivers/STM32H7xx_HAL_Driver/Src/stm32h7xx_hal_rtc_ex.c **** 
 995:Drivers/STM32H7xx_HAL_Driver/Src/stm32h7xx_hal_rtc_ex.c ****   /* Process Locked */
 996:Drivers/STM32H7xx_HAL_Driver/Src/stm32h7xx_hal_rtc_ex.c ****   __HAL_LOCK(hrtc);
 1238              		.loc 1 996 3 view .LVU472
 1239              		.loc 1 996 3 view .LVU473
 1240 0000 90F82020 		ldrb	r2, [r0, #32]	@ zero_extendqisi2
 1241 0004 012A     		cmp	r2, #1
 1242 0006 2DD0     		beq	.L83
 992:Drivers/STM32H7xx_HAL_Driver/Src/stm32h7xx_hal_rtc_ex.c ****   assert_param(IS_RTC_TAMPER(Tamper));
 1243              		.loc 1 992 1 is_stmt 0 view .LVU474
 1244 0008 10B4     		push	{r4}
 1245              	.LCFI15:
 1246              		.cfi_def_cfa_offset 4
 1247              		.cfi_offset 4, -4
 1248 000a 0346     		mov	r3, r0
 1249              		.loc 1 996 3 is_stmt 1 discriminator 2 view .LVU475
 1250 000c 0122     		movs	r2, #1
 1251 000e 80F82020 		strb	r2, [r0, #32]
 1252              		.loc 1 996 3 discriminator 2 view .LVU476
 997:Drivers/STM32H7xx_HAL_Driver/Src/stm32h7xx_hal_rtc_ex.c **** 
 998:Drivers/STM32H7xx_HAL_Driver/Src/stm32h7xx_hal_rtc_ex.c ****   hrtc->State = HAL_RTC_STATE_BUSY;
 1253              		.loc 1 998 3 view .LVU477
 1254              		.loc 1 998 15 is_stmt 0 view .LVU478
 1255 0012 0222     		movs	r2, #2
 1256 0014 80F82120 		strb	r2, [r0, #33]
 999:Drivers/STM32H7xx_HAL_Driver/Src/stm32h7xx_hal_rtc_ex.c **** 
ARM GAS  C:\usertemp\cc0y2B3r.s 			page 42


1000:Drivers/STM32H7xx_HAL_Driver/Src/stm32h7xx_hal_rtc_ex.c ****   /* Disable the selected Tamper pin */
1001:Drivers/STM32H7xx_HAL_Driver/Src/stm32h7xx_hal_rtc_ex.c ****   hrtc->Instance->TAMPCR &= ((uint32_t)~Tamper);
 1257              		.loc 1 1001 3 is_stmt 1 view .LVU479
 1258              		.loc 1 1001 7 is_stmt 0 view .LVU480
 1259 0018 0068     		ldr	r0, [r0]
 1260              	.LVL104:
 1261              		.loc 1 1001 17 view .LVU481
 1262 001a 026C     		ldr	r2, [r0, #64]
 1263              		.loc 1 1001 26 view .LVU482
 1264 001c 22EA0102 		bic	r2, r2, r1
 1265 0020 0264     		str	r2, [r0, #64]
1002:Drivers/STM32H7xx_HAL_Driver/Src/stm32h7xx_hal_rtc_ex.c **** 
1003:Drivers/STM32H7xx_HAL_Driver/Src/stm32h7xx_hal_rtc_ex.c ****   /* Disable the selected Tamper interrupt */
1004:Drivers/STM32H7xx_HAL_Driver/Src/stm32h7xx_hal_rtc_ex.c **** #if defined(RTC_TAMPCR_TAMP1E)
1005:Drivers/STM32H7xx_HAL_Driver/Src/stm32h7xx_hal_rtc_ex.c ****   if ((Tamper & RTC_TAMPER_1) != 0U)
 1266              		.loc 1 1005 3 is_stmt 1 view .LVU483
 1267              		.loc 1 1005 6 is_stmt 0 view .LVU484
 1268 0022 11F0010F 		tst	r1, #1
 1269 0026 04D0     		beq	.L80
1006:Drivers/STM32H7xx_HAL_Driver/Src/stm32h7xx_hal_rtc_ex.c ****   {
1007:Drivers/STM32H7xx_HAL_Driver/Src/stm32h7xx_hal_rtc_ex.c ****     hrtc->Instance->TAMPCR &= ((uint32_t)~(RTC_IT_TAMP | RTC_IT_TAMP1));
 1270              		.loc 1 1007 5 is_stmt 1 view .LVU485
 1271              		.loc 1 1007 9 is_stmt 0 view .LVU486
 1272 0028 1868     		ldr	r0, [r3]
 1273              		.loc 1 1007 19 view .LVU487
 1274 002a 046C     		ldr	r4, [r0, #64]
 1275              		.loc 1 1007 28 view .LVU488
 1276 002c 0E4A     		ldr	r2, .L88
 1277 002e 2240     		ands	r2, r2, r4
 1278 0030 0264     		str	r2, [r0, #64]
 1279              	.L80:
1008:Drivers/STM32H7xx_HAL_Driver/Src/stm32h7xx_hal_rtc_ex.c ****   }
1009:Drivers/STM32H7xx_HAL_Driver/Src/stm32h7xx_hal_rtc_ex.c **** #endif /* RTC_TAMPCR_TAMP1E */
1010:Drivers/STM32H7xx_HAL_Driver/Src/stm32h7xx_hal_rtc_ex.c **** #if defined(RTC_TAMPCR_TAMP2E)
1011:Drivers/STM32H7xx_HAL_Driver/Src/stm32h7xx_hal_rtc_ex.c ****   if ((Tamper & RTC_TAMPER_2) != 0U)
 1280              		.loc 1 1011 3 is_stmt 1 view .LVU489
 1281              		.loc 1 1011 6 is_stmt 0 view .LVU490
 1282 0032 11F0080F 		tst	r1, #8
 1283 0036 04D0     		beq	.L81
1012:Drivers/STM32H7xx_HAL_Driver/Src/stm32h7xx_hal_rtc_ex.c ****   {
1013:Drivers/STM32H7xx_HAL_Driver/Src/stm32h7xx_hal_rtc_ex.c ****     hrtc->Instance->TAMPCR &= ((uint32_t)~(RTC_IT_TAMP | RTC_IT_TAMP2));
 1284              		.loc 1 1013 5 is_stmt 1 view .LVU491
 1285              		.loc 1 1013 9 is_stmt 0 view .LVU492
 1286 0038 1868     		ldr	r0, [r3]
 1287              		.loc 1 1013 19 view .LVU493
 1288 003a 046C     		ldr	r4, [r0, #64]
 1289              		.loc 1 1013 28 view .LVU494
 1290 003c 0B4A     		ldr	r2, .L88+4
 1291 003e 2240     		ands	r2, r2, r4
 1292 0040 0264     		str	r2, [r0, #64]
 1293              	.L81:
1014:Drivers/STM32H7xx_HAL_Driver/Src/stm32h7xx_hal_rtc_ex.c ****   }
1015:Drivers/STM32H7xx_HAL_Driver/Src/stm32h7xx_hal_rtc_ex.c **** #endif /* RTC_TAMPCR_TAMP2E */
1016:Drivers/STM32H7xx_HAL_Driver/Src/stm32h7xx_hal_rtc_ex.c **** #if defined(RTC_TAMPCR_TAMP3E)
1017:Drivers/STM32H7xx_HAL_Driver/Src/stm32h7xx_hal_rtc_ex.c ****   if ((Tamper & RTC_TAMPER_3) != 0U)
 1294              		.loc 1 1017 3 is_stmt 1 view .LVU495
 1295              		.loc 1 1017 6 is_stmt 0 view .LVU496
ARM GAS  C:\usertemp\cc0y2B3r.s 			page 43


 1296 0042 11F0200F 		tst	r1, #32
 1297 0046 04D0     		beq	.L82
1018:Drivers/STM32H7xx_HAL_Driver/Src/stm32h7xx_hal_rtc_ex.c ****   {
1019:Drivers/STM32H7xx_HAL_Driver/Src/stm32h7xx_hal_rtc_ex.c ****     hrtc->Instance->TAMPCR &= ((uint32_t)~(RTC_IT_TAMP | RTC_IT_TAMP3));
 1298              		.loc 1 1019 5 is_stmt 1 view .LVU497
 1299              		.loc 1 1019 9 is_stmt 0 view .LVU498
 1300 0048 1968     		ldr	r1, [r3]
 1301              	.LVL105:
 1302              		.loc 1 1019 19 view .LVU499
 1303 004a 086C     		ldr	r0, [r1, #64]
 1304              		.loc 1 1019 28 view .LVU500
 1305 004c 084A     		ldr	r2, .L88+8
 1306 004e 0240     		ands	r2, r2, r0
 1307 0050 0A64     		str	r2, [r1, #64]
 1308              	.L82:
1020:Drivers/STM32H7xx_HAL_Driver/Src/stm32h7xx_hal_rtc_ex.c ****   }
1021:Drivers/STM32H7xx_HAL_Driver/Src/stm32h7xx_hal_rtc_ex.c **** #endif /* RTC_TAMPCR_TAMP3E */
1022:Drivers/STM32H7xx_HAL_Driver/Src/stm32h7xx_hal_rtc_ex.c **** 
1023:Drivers/STM32H7xx_HAL_Driver/Src/stm32h7xx_hal_rtc_ex.c ****   hrtc->State = HAL_RTC_STATE_READY;
 1309              		.loc 1 1023 3 is_stmt 1 view .LVU501
 1310              		.loc 1 1023 15 is_stmt 0 view .LVU502
 1311 0052 0122     		movs	r2, #1
 1312 0054 83F82120 		strb	r2, [r3, #33]
1024:Drivers/STM32H7xx_HAL_Driver/Src/stm32h7xx_hal_rtc_ex.c **** 
1025:Drivers/STM32H7xx_HAL_Driver/Src/stm32h7xx_hal_rtc_ex.c ****   /* Process Unlocked */
1026:Drivers/STM32H7xx_HAL_Driver/Src/stm32h7xx_hal_rtc_ex.c ****   __HAL_UNLOCK(hrtc);
 1313              		.loc 1 1026 3 is_stmt 1 view .LVU503
 1314              		.loc 1 1026 3 view .LVU504
 1315 0058 0020     		movs	r0, #0
 1316 005a 83F82000 		strb	r0, [r3, #32]
 1317              		.loc 1 1026 3 view .LVU505
1027:Drivers/STM32H7xx_HAL_Driver/Src/stm32h7xx_hal_rtc_ex.c **** 
1028:Drivers/STM32H7xx_HAL_Driver/Src/stm32h7xx_hal_rtc_ex.c ****   return HAL_OK;
 1318              		.loc 1 1028 3 view .LVU506
1029:Drivers/STM32H7xx_HAL_Driver/Src/stm32h7xx_hal_rtc_ex.c **** }
 1319              		.loc 1 1029 1 is_stmt 0 view .LVU507
 1320 005e 5DF8044B 		ldr	r4, [sp], #4
 1321              	.LCFI16:
 1322              		.cfi_restore 4
 1323              		.cfi_def_cfa_offset 0
 1324 0062 7047     		bx	lr
 1325              	.LVL106:
 1326              	.L83:
 996:Drivers/STM32H7xx_HAL_Driver/Src/stm32h7xx_hal_rtc_ex.c **** 
 1327              		.loc 1 996 3 discriminator 1 view .LVU508
 1328 0064 0220     		movs	r0, #2
 1329              	.LVL107:
 1330              		.loc 1 1029 1 view .LVU509
 1331 0066 7047     		bx	lr
 1332              	.L89:
 1333              		.align	2
 1334              	.L88:
 1335 0068 FBFFFEFF 		.word	-65541
 1336 006c FBFFF7FF 		.word	-524293
 1337 0070 FBFFBFFF 		.word	-4194309
 1338              		.cfi_endproc
 1339              	.LFE341:
ARM GAS  C:\usertemp\cc0y2B3r.s 			page 44


 1341              		.section	.text.HAL_RTCEx_TimeStampEventCallback,"ax",%progbits
 1342              		.align	1
 1343              		.weak	HAL_RTCEx_TimeStampEventCallback
 1344              		.syntax unified
 1345              		.thumb
 1346              		.thumb_func
 1348              	HAL_RTCEx_TimeStampEventCallback:
 1349              	.LVL108:
 1350              	.LFB343:
1030:Drivers/STM32H7xx_HAL_Driver/Src/stm32h7xx_hal_rtc_ex.c **** #endif /* RTC_TAMPCR_TAMP1E */
1031:Drivers/STM32H7xx_HAL_Driver/Src/stm32h7xx_hal_rtc_ex.c **** 
1032:Drivers/STM32H7xx_HAL_Driver/Src/stm32h7xx_hal_rtc_ex.c **** #if defined(TAMP_CR1_ITAMP1E)
1033:Drivers/STM32H7xx_HAL_Driver/Src/stm32h7xx_hal_rtc_ex.c **** /**
1034:Drivers/STM32H7xx_HAL_Driver/Src/stm32h7xx_hal_rtc_ex.c ****   * @brief  Set Internal Tamper
1035:Drivers/STM32H7xx_HAL_Driver/Src/stm32h7xx_hal_rtc_ex.c ****   * @param  hrtc RTC handle
1036:Drivers/STM32H7xx_HAL_Driver/Src/stm32h7xx_hal_rtc_ex.c ****   * @param  sIntTamper Pointer to Internal Tamper Structure.
1037:Drivers/STM32H7xx_HAL_Driver/Src/stm32h7xx_hal_rtc_ex.c ****   * @retval HAL status
1038:Drivers/STM32H7xx_HAL_Driver/Src/stm32h7xx_hal_rtc_ex.c ****   */
1039:Drivers/STM32H7xx_HAL_Driver/Src/stm32h7xx_hal_rtc_ex.c **** HAL_StatusTypeDef HAL_RTCEx_SetInternalTamper(RTC_HandleTypeDef *hrtc, RTC_InternalTamperTypeDef *s
1040:Drivers/STM32H7xx_HAL_Driver/Src/stm32h7xx_hal_rtc_ex.c **** {
1041:Drivers/STM32H7xx_HAL_Driver/Src/stm32h7xx_hal_rtc_ex.c ****   /* Check the parameters */
1042:Drivers/STM32H7xx_HAL_Driver/Src/stm32h7xx_hal_rtc_ex.c ****   assert_param(IS_RTC_INTERNAL_TAMPER(sIntTamper->IntTamper));
1043:Drivers/STM32H7xx_HAL_Driver/Src/stm32h7xx_hal_rtc_ex.c ****   assert_param(IS_RTC_TAMPER_TIMESTAMPONTAMPER_DETECTION(sIntTamper->TimeStampOnTamperDetection));
1044:Drivers/STM32H7xx_HAL_Driver/Src/stm32h7xx_hal_rtc_ex.c **** 
1045:Drivers/STM32H7xx_HAL_Driver/Src/stm32h7xx_hal_rtc_ex.c ****   /* Time-Stamp on internal tamper */
1046:Drivers/STM32H7xx_HAL_Driver/Src/stm32h7xx_hal_rtc_ex.c ****   if (READ_BIT(RTC->CR, RTC_CR_TAMPTS) != sIntTamper->TimeStampOnTamperDetection)
1047:Drivers/STM32H7xx_HAL_Driver/Src/stm32h7xx_hal_rtc_ex.c ****   {
1048:Drivers/STM32H7xx_HAL_Driver/Src/stm32h7xx_hal_rtc_ex.c ****     __HAL_RTC_WRITEPROTECTION_DISABLE(hrtc);
1049:Drivers/STM32H7xx_HAL_Driver/Src/stm32h7xx_hal_rtc_ex.c ****     MODIFY_REG(RTC->CR, RTC_CR_TAMPTS, sIntTamper->TimeStampOnTamperDetection);
1050:Drivers/STM32H7xx_HAL_Driver/Src/stm32h7xx_hal_rtc_ex.c ****     __HAL_RTC_WRITEPROTECTION_ENABLE(hrtc);
1051:Drivers/STM32H7xx_HAL_Driver/Src/stm32h7xx_hal_rtc_ex.c ****   }
1052:Drivers/STM32H7xx_HAL_Driver/Src/stm32h7xx_hal_rtc_ex.c **** 
1053:Drivers/STM32H7xx_HAL_Driver/Src/stm32h7xx_hal_rtc_ex.c ****   /* Control register 1 */
1054:Drivers/STM32H7xx_HAL_Driver/Src/stm32h7xx_hal_rtc_ex.c ****   SET_BIT(TAMP->CR1, sIntTamper->IntTamper);
1055:Drivers/STM32H7xx_HAL_Driver/Src/stm32h7xx_hal_rtc_ex.c **** 
1056:Drivers/STM32H7xx_HAL_Driver/Src/stm32h7xx_hal_rtc_ex.c ****   return HAL_OK;
1057:Drivers/STM32H7xx_HAL_Driver/Src/stm32h7xx_hal_rtc_ex.c **** }
1058:Drivers/STM32H7xx_HAL_Driver/Src/stm32h7xx_hal_rtc_ex.c **** 
1059:Drivers/STM32H7xx_HAL_Driver/Src/stm32h7xx_hal_rtc_ex.c **** /**
1060:Drivers/STM32H7xx_HAL_Driver/Src/stm32h7xx_hal_rtc_ex.c ****   * @brief  Set Internal Tamper in interrupt mode
1061:Drivers/STM32H7xx_HAL_Driver/Src/stm32h7xx_hal_rtc_ex.c ****   * @param  hrtc RTC handle
1062:Drivers/STM32H7xx_HAL_Driver/Src/stm32h7xx_hal_rtc_ex.c ****   * @param  sIntTamper Pointer to Internal Tamper Structure.
1063:Drivers/STM32H7xx_HAL_Driver/Src/stm32h7xx_hal_rtc_ex.c ****   * @retval HAL status
1064:Drivers/STM32H7xx_HAL_Driver/Src/stm32h7xx_hal_rtc_ex.c ****   */
1065:Drivers/STM32H7xx_HAL_Driver/Src/stm32h7xx_hal_rtc_ex.c **** HAL_StatusTypeDef HAL_RTCEx_SetInternalTamper_IT(RTC_HandleTypeDef *hrtc, RTC_InternalTamperTypeDef
1066:Drivers/STM32H7xx_HAL_Driver/Src/stm32h7xx_hal_rtc_ex.c **** {
1067:Drivers/STM32H7xx_HAL_Driver/Src/stm32h7xx_hal_rtc_ex.c ****   /* Check the parameters */
1068:Drivers/STM32H7xx_HAL_Driver/Src/stm32h7xx_hal_rtc_ex.c ****   assert_param(IS_RTC_INTERNAL_TAMPER(sIntTamper->IntTamper));
1069:Drivers/STM32H7xx_HAL_Driver/Src/stm32h7xx_hal_rtc_ex.c ****   assert_param(IS_RTC_TAMPER_TIMESTAMPONTAMPER_DETECTION(sIntTamper->TimeStampOnTamperDetection));
1070:Drivers/STM32H7xx_HAL_Driver/Src/stm32h7xx_hal_rtc_ex.c **** 
1071:Drivers/STM32H7xx_HAL_Driver/Src/stm32h7xx_hal_rtc_ex.c ****   /* Time-stamp on internal tamper */
1072:Drivers/STM32H7xx_HAL_Driver/Src/stm32h7xx_hal_rtc_ex.c ****   if (READ_BIT(RTC->CR, RTC_CR_TAMPTS) != sIntTamper->TimeStampOnTamperDetection)
1073:Drivers/STM32H7xx_HAL_Driver/Src/stm32h7xx_hal_rtc_ex.c ****   {
1074:Drivers/STM32H7xx_HAL_Driver/Src/stm32h7xx_hal_rtc_ex.c ****     __HAL_RTC_WRITEPROTECTION_DISABLE(hrtc);
1075:Drivers/STM32H7xx_HAL_Driver/Src/stm32h7xx_hal_rtc_ex.c ****     MODIFY_REG(RTC->CR, RTC_CR_TAMPTS, sIntTamper->TimeStampOnTamperDetection);
1076:Drivers/STM32H7xx_HAL_Driver/Src/stm32h7xx_hal_rtc_ex.c ****     __HAL_RTC_WRITEPROTECTION_ENABLE(hrtc);
1077:Drivers/STM32H7xx_HAL_Driver/Src/stm32h7xx_hal_rtc_ex.c ****   }
ARM GAS  C:\usertemp\cc0y2B3r.s 			page 45


1078:Drivers/STM32H7xx_HAL_Driver/Src/stm32h7xx_hal_rtc_ex.c **** 
1079:Drivers/STM32H7xx_HAL_Driver/Src/stm32h7xx_hal_rtc_ex.c ****   /* RTC Tamper Interrupt Configuration: EXTI configuration */
1080:Drivers/STM32H7xx_HAL_Driver/Src/stm32h7xx_hal_rtc_ex.c ****   __HAL_RTC_TAMPER_TIMESTAMP_EXTI_ENABLE_IT();
1081:Drivers/STM32H7xx_HAL_Driver/Src/stm32h7xx_hal_rtc_ex.c ****   __HAL_RTC_TAMPER_TIMESTAMP_EXTI_ENABLE_RISING_FALLING_EDGE();
1082:Drivers/STM32H7xx_HAL_Driver/Src/stm32h7xx_hal_rtc_ex.c ****   /* Interrupt enable register */
1083:Drivers/STM32H7xx_HAL_Driver/Src/stm32h7xx_hal_rtc_ex.c ****   SET_BIT(TAMP->IER, sIntTamper->IntTamper);
1084:Drivers/STM32H7xx_HAL_Driver/Src/stm32h7xx_hal_rtc_ex.c **** 
1085:Drivers/STM32H7xx_HAL_Driver/Src/stm32h7xx_hal_rtc_ex.c ****   /* Control register 1 */
1086:Drivers/STM32H7xx_HAL_Driver/Src/stm32h7xx_hal_rtc_ex.c ****   SET_BIT(TAMP->CR1, sIntTamper->IntTamper);
1087:Drivers/STM32H7xx_HAL_Driver/Src/stm32h7xx_hal_rtc_ex.c **** 
1088:Drivers/STM32H7xx_HAL_Driver/Src/stm32h7xx_hal_rtc_ex.c ****   return HAL_OK;
1089:Drivers/STM32H7xx_HAL_Driver/Src/stm32h7xx_hal_rtc_ex.c **** }
1090:Drivers/STM32H7xx_HAL_Driver/Src/stm32h7xx_hal_rtc_ex.c **** 
1091:Drivers/STM32H7xx_HAL_Driver/Src/stm32h7xx_hal_rtc_ex.c **** /**
1092:Drivers/STM32H7xx_HAL_Driver/Src/stm32h7xx_hal_rtc_ex.c ****   * @brief  Deactivate Internal Tamper.
1093:Drivers/STM32H7xx_HAL_Driver/Src/stm32h7xx_hal_rtc_ex.c ****   * @param  hrtc RTC handle
1094:Drivers/STM32H7xx_HAL_Driver/Src/stm32h7xx_hal_rtc_ex.c ****   * @param  IntTamper Selected internal tamper event.
1095:Drivers/STM32H7xx_HAL_Driver/Src/stm32h7xx_hal_rtc_ex.c ****   *          This parameter can be any combination of existing internal tampers.
1096:Drivers/STM32H7xx_HAL_Driver/Src/stm32h7xx_hal_rtc_ex.c ****   * @retval HAL status
1097:Drivers/STM32H7xx_HAL_Driver/Src/stm32h7xx_hal_rtc_ex.c ****   */
1098:Drivers/STM32H7xx_HAL_Driver/Src/stm32h7xx_hal_rtc_ex.c **** HAL_StatusTypeDef HAL_RTCEx_DeactivateInternalTamper(RTC_HandleTypeDef *hrtc, uint32_t IntTamper)
1099:Drivers/STM32H7xx_HAL_Driver/Src/stm32h7xx_hal_rtc_ex.c **** {
1100:Drivers/STM32H7xx_HAL_Driver/Src/stm32h7xx_hal_rtc_ex.c ****   UNUSED(hrtc);
1101:Drivers/STM32H7xx_HAL_Driver/Src/stm32h7xx_hal_rtc_ex.c ****   assert_param(IS_RTC_INTERNAL_TAMPER(IntTamper));
1102:Drivers/STM32H7xx_HAL_Driver/Src/stm32h7xx_hal_rtc_ex.c **** 
1103:Drivers/STM32H7xx_HAL_Driver/Src/stm32h7xx_hal_rtc_ex.c ****   /* Disable the selected Tamper pin */
1104:Drivers/STM32H7xx_HAL_Driver/Src/stm32h7xx_hal_rtc_ex.c ****   CLEAR_BIT(TAMP->CR1, IntTamper);
1105:Drivers/STM32H7xx_HAL_Driver/Src/stm32h7xx_hal_rtc_ex.c **** 
1106:Drivers/STM32H7xx_HAL_Driver/Src/stm32h7xx_hal_rtc_ex.c ****   /* Clear internal tamper interrupt mode configuration */
1107:Drivers/STM32H7xx_HAL_Driver/Src/stm32h7xx_hal_rtc_ex.c ****   CLEAR_BIT(TAMP->IER, IntTamper);
1108:Drivers/STM32H7xx_HAL_Driver/Src/stm32h7xx_hal_rtc_ex.c **** 
1109:Drivers/STM32H7xx_HAL_Driver/Src/stm32h7xx_hal_rtc_ex.c ****   /* Clear internal tamper interrupt */
1110:Drivers/STM32H7xx_HAL_Driver/Src/stm32h7xx_hal_rtc_ex.c ****   WRITE_REG(TAMP->SCR, IntTamper);
1111:Drivers/STM32H7xx_HAL_Driver/Src/stm32h7xx_hal_rtc_ex.c **** 
1112:Drivers/STM32H7xx_HAL_Driver/Src/stm32h7xx_hal_rtc_ex.c ****   return HAL_OK;
1113:Drivers/STM32H7xx_HAL_Driver/Src/stm32h7xx_hal_rtc_ex.c **** }
1114:Drivers/STM32H7xx_HAL_Driver/Src/stm32h7xx_hal_rtc_ex.c **** #endif /* TAMP_CR1_ITAMP1E */
1115:Drivers/STM32H7xx_HAL_Driver/Src/stm32h7xx_hal_rtc_ex.c **** 
1116:Drivers/STM32H7xx_HAL_Driver/Src/stm32h7xx_hal_rtc_ex.c **** #if defined(TAMP_ATCR1_TAMP1AM)
1117:Drivers/STM32H7xx_HAL_Driver/Src/stm32h7xx_hal_rtc_ex.c **** /**
1118:Drivers/STM32H7xx_HAL_Driver/Src/stm32h7xx_hal_rtc_ex.c ****   * @brief  Set all active Tampers at the same time.
1119:Drivers/STM32H7xx_HAL_Driver/Src/stm32h7xx_hal_rtc_ex.c ****   * @param  hrtc RTC handle
1120:Drivers/STM32H7xx_HAL_Driver/Src/stm32h7xx_hal_rtc_ex.c ****   * @param  sAllTamper Pointer to active Tamper Structure.
1121:Drivers/STM32H7xx_HAL_Driver/Src/stm32h7xx_hal_rtc_ex.c ****   * @retval HAL status
1122:Drivers/STM32H7xx_HAL_Driver/Src/stm32h7xx_hal_rtc_ex.c ****   */
1123:Drivers/STM32H7xx_HAL_Driver/Src/stm32h7xx_hal_rtc_ex.c **** HAL_StatusTypeDef HAL_RTCEx_SetActiveTampers(RTC_HandleTypeDef *hrtc, RTC_ActiveTampersTypeDef *sAl
1124:Drivers/STM32H7xx_HAL_Driver/Src/stm32h7xx_hal_rtc_ex.c **** {
1125:Drivers/STM32H7xx_HAL_Driver/Src/stm32h7xx_hal_rtc_ex.c ****   uint32_t IER, CR1, CR2, ATCR1, CR, i, tickstart;
1126:Drivers/STM32H7xx_HAL_Driver/Src/stm32h7xx_hal_rtc_ex.c **** 
1127:Drivers/STM32H7xx_HAL_Driver/Src/stm32h7xx_hal_rtc_ex.c **** #ifdef  USE_FULL_ASSERT
1128:Drivers/STM32H7xx_HAL_Driver/Src/stm32h7xx_hal_rtc_ex.c ****   for (i = 0; i < RTC_TAMP_NB; i++)
1129:Drivers/STM32H7xx_HAL_Driver/Src/stm32h7xx_hal_rtc_ex.c ****   {
1130:Drivers/STM32H7xx_HAL_Driver/Src/stm32h7xx_hal_rtc_ex.c ****     assert_param(IS_RTC_TAMPER_ERASE_MODE(sAllTamper->TampInput[i].NoErase));
1131:Drivers/STM32H7xx_HAL_Driver/Src/stm32h7xx_hal_rtc_ex.c ****     assert_param(IS_RTC_TAMPER_MASKFLAG_STATE(sAllTamper->TampInput[i].MaskFlag));
1132:Drivers/STM32H7xx_HAL_Driver/Src/stm32h7xx_hal_rtc_ex.c ****     /* Mask flag only supported by TAMPER 1, 2 and 3 */
1133:Drivers/STM32H7xx_HAL_Driver/Src/stm32h7xx_hal_rtc_ex.c ****     assert_param(!((sAllTamper->TampInput[i].MaskFlag != RTC_TAMPERMASK_FLAG_DISABLE) && (i > RTC_T
1134:Drivers/STM32H7xx_HAL_Driver/Src/stm32h7xx_hal_rtc_ex.c ****   }
ARM GAS  C:\usertemp\cc0y2B3r.s 			page 46


1135:Drivers/STM32H7xx_HAL_Driver/Src/stm32h7xx_hal_rtc_ex.c ****   assert_param(IS_RTC_TAMPER_TIMESTAMPONTAMPER_DETECTION(sAllTamper->TimeStampOnTamperDetection));
1136:Drivers/STM32H7xx_HAL_Driver/Src/stm32h7xx_hal_rtc_ex.c **** #endif /* #ifdef  USE_FULL_ASSERT */
1137:Drivers/STM32H7xx_HAL_Driver/Src/stm32h7xx_hal_rtc_ex.c **** 
1138:Drivers/STM32H7xx_HAL_Driver/Src/stm32h7xx_hal_rtc_ex.c ****   /* Active Tampers must not be already enabled */
1139:Drivers/STM32H7xx_HAL_Driver/Src/stm32h7xx_hal_rtc_ex.c ****   if (READ_BIT(TAMP->ATOR, TAMP_ATOR_INITS) != 0U)
1140:Drivers/STM32H7xx_HAL_Driver/Src/stm32h7xx_hal_rtc_ex.c ****   {
1141:Drivers/STM32H7xx_HAL_Driver/Src/stm32h7xx_hal_rtc_ex.c ****     /* Disable all active tampers with HAL_RTCEx_DeactivateActiveTampers */
1142:Drivers/STM32H7xx_HAL_Driver/Src/stm32h7xx_hal_rtc_ex.c ****     if (HAL_RTCEx_DeactivateActiveTampers(hrtc) != HAL_OK)
1143:Drivers/STM32H7xx_HAL_Driver/Src/stm32h7xx_hal_rtc_ex.c ****     {
1144:Drivers/STM32H7xx_HAL_Driver/Src/stm32h7xx_hal_rtc_ex.c ****       return HAL_ERROR;
1145:Drivers/STM32H7xx_HAL_Driver/Src/stm32h7xx_hal_rtc_ex.c ****     }
1146:Drivers/STM32H7xx_HAL_Driver/Src/stm32h7xx_hal_rtc_ex.c ****   }
1147:Drivers/STM32H7xx_HAL_Driver/Src/stm32h7xx_hal_rtc_ex.c **** 
1148:Drivers/STM32H7xx_HAL_Driver/Src/stm32h7xx_hal_rtc_ex.c ****   /* Set TimeStamp on tamper detection */
1149:Drivers/STM32H7xx_HAL_Driver/Src/stm32h7xx_hal_rtc_ex.c ****   CR = READ_REG(RTC->CR);
1150:Drivers/STM32H7xx_HAL_Driver/Src/stm32h7xx_hal_rtc_ex.c ****   if ((CR & RTC_CR_TAMPTS) != (sAllTamper->TimeStampOnTamperDetection))
1151:Drivers/STM32H7xx_HAL_Driver/Src/stm32h7xx_hal_rtc_ex.c ****   {
1152:Drivers/STM32H7xx_HAL_Driver/Src/stm32h7xx_hal_rtc_ex.c ****     __HAL_RTC_WRITEPROTECTION_DISABLE(hrtc);
1153:Drivers/STM32H7xx_HAL_Driver/Src/stm32h7xx_hal_rtc_ex.c ****     MODIFY_REG(RTC->CR, RTC_CR_TAMPTS, sAllTamper->TimeStampOnTamperDetection);
1154:Drivers/STM32H7xx_HAL_Driver/Src/stm32h7xx_hal_rtc_ex.c ****     __HAL_RTC_WRITEPROTECTION_ENABLE(hrtc);
1155:Drivers/STM32H7xx_HAL_Driver/Src/stm32h7xx_hal_rtc_ex.c ****   }
1156:Drivers/STM32H7xx_HAL_Driver/Src/stm32h7xx_hal_rtc_ex.c **** 
1157:Drivers/STM32H7xx_HAL_Driver/Src/stm32h7xx_hal_rtc_ex.c ****   CR1 = READ_REG(TAMP->CR1);
1158:Drivers/STM32H7xx_HAL_Driver/Src/stm32h7xx_hal_rtc_ex.c ****   CR2 = READ_REG(TAMP->CR2);
1159:Drivers/STM32H7xx_HAL_Driver/Src/stm32h7xx_hal_rtc_ex.c ****   IER = READ_REG(TAMP->IER);
1160:Drivers/STM32H7xx_HAL_Driver/Src/stm32h7xx_hal_rtc_ex.c **** 
1161:Drivers/STM32H7xx_HAL_Driver/Src/stm32h7xx_hal_rtc_ex.c ****   /* Set common parameters */
1162:Drivers/STM32H7xx_HAL_Driver/Src/stm32h7xx_hal_rtc_ex.c ****   ATCR1 = (sAllTamper->ActiveFilter | (sAllTamper->ActiveOutputChangePeriod << TAMP_ATCR1_ATPER_Pos
1163:Drivers/STM32H7xx_HAL_Driver/Src/stm32h7xx_hal_rtc_ex.c **** 
1164:Drivers/STM32H7xx_HAL_Driver/Src/stm32h7xx_hal_rtc_ex.c ****   /* Set specific parameters for each active tamper inputs if enable */
1165:Drivers/STM32H7xx_HAL_Driver/Src/stm32h7xx_hal_rtc_ex.c ****   for (i = 0; i < RTC_TAMP_NB; i++)
1166:Drivers/STM32H7xx_HAL_Driver/Src/stm32h7xx_hal_rtc_ex.c ****   {
1167:Drivers/STM32H7xx_HAL_Driver/Src/stm32h7xx_hal_rtc_ex.c ****     if (sAllTamper->TampInput[i].Enable != RTC_ATAMP_DISABLE)
1168:Drivers/STM32H7xx_HAL_Driver/Src/stm32h7xx_hal_rtc_ex.c ****     {
1169:Drivers/STM32H7xx_HAL_Driver/Src/stm32h7xx_hal_rtc_ex.c ****       CR1 |= (TAMP_CR1_TAMP1E << i);
1170:Drivers/STM32H7xx_HAL_Driver/Src/stm32h7xx_hal_rtc_ex.c ****       ATCR1 |= (TAMP_ATCR1_TAMP1AM << i);
1171:Drivers/STM32H7xx_HAL_Driver/Src/stm32h7xx_hal_rtc_ex.c **** 
1172:Drivers/STM32H7xx_HAL_Driver/Src/stm32h7xx_hal_rtc_ex.c ****       if (sAllTamper->TampInput[i].Interrupt != RTC_ATAMP_INTERRUPT_DISABLE)
1173:Drivers/STM32H7xx_HAL_Driver/Src/stm32h7xx_hal_rtc_ex.c ****       {
1174:Drivers/STM32H7xx_HAL_Driver/Src/stm32h7xx_hal_rtc_ex.c ****         /* RTC Tamper Interrupt Configuration: EXTI configuration */
1175:Drivers/STM32H7xx_HAL_Driver/Src/stm32h7xx_hal_rtc_ex.c ****         __HAL_RTC_TAMPER_TIMESTAMP_EXTI_ENABLE_IT();
1176:Drivers/STM32H7xx_HAL_Driver/Src/stm32h7xx_hal_rtc_ex.c ****         __HAL_RTC_TAMPER_TIMESTAMP_EXTI_ENABLE_RISING_EDGE();
1177:Drivers/STM32H7xx_HAL_Driver/Src/stm32h7xx_hal_rtc_ex.c **** 
1178:Drivers/STM32H7xx_HAL_Driver/Src/stm32h7xx_hal_rtc_ex.c ****         /* Interrupt enable register */
1179:Drivers/STM32H7xx_HAL_Driver/Src/stm32h7xx_hal_rtc_ex.c ****         IER |= (TAMP_IER_TAMP1IE << i);
1180:Drivers/STM32H7xx_HAL_Driver/Src/stm32h7xx_hal_rtc_ex.c ****       }
1181:Drivers/STM32H7xx_HAL_Driver/Src/stm32h7xx_hal_rtc_ex.c **** 
1182:Drivers/STM32H7xx_HAL_Driver/Src/stm32h7xx_hal_rtc_ex.c ****       if (sAllTamper->TampInput[i].MaskFlag != RTC_TAMPERMASK_FLAG_DISABLE)
1183:Drivers/STM32H7xx_HAL_Driver/Src/stm32h7xx_hal_rtc_ex.c ****       {
1184:Drivers/STM32H7xx_HAL_Driver/Src/stm32h7xx_hal_rtc_ex.c ****         CR2 |= (TAMP_CR2_TAMP1MSK << i);
1185:Drivers/STM32H7xx_HAL_Driver/Src/stm32h7xx_hal_rtc_ex.c ****       }
1186:Drivers/STM32H7xx_HAL_Driver/Src/stm32h7xx_hal_rtc_ex.c **** 
1187:Drivers/STM32H7xx_HAL_Driver/Src/stm32h7xx_hal_rtc_ex.c ****       if (sAllTamper->TampInput[i].NoErase != RTC_TAMPER_ERASE_BACKUP_ENABLE)
1188:Drivers/STM32H7xx_HAL_Driver/Src/stm32h7xx_hal_rtc_ex.c ****       {
1189:Drivers/STM32H7xx_HAL_Driver/Src/stm32h7xx_hal_rtc_ex.c ****         CR2 |= (TAMP_CR2_TAMP1NOERASE << i);
1190:Drivers/STM32H7xx_HAL_Driver/Src/stm32h7xx_hal_rtc_ex.c ****       }
1191:Drivers/STM32H7xx_HAL_Driver/Src/stm32h7xx_hal_rtc_ex.c **** 
ARM GAS  C:\usertemp\cc0y2B3r.s 			page 47


1192:Drivers/STM32H7xx_HAL_Driver/Src/stm32h7xx_hal_rtc_ex.c ****       /* Set ATOSHARE and configure ATOSELx[] in case of output sharing */
1193:Drivers/STM32H7xx_HAL_Driver/Src/stm32h7xx_hal_rtc_ex.c ****       if (sAllTamper->TampInput[i].Output != i)
1194:Drivers/STM32H7xx_HAL_Driver/Src/stm32h7xx_hal_rtc_ex.c ****       {
1195:Drivers/STM32H7xx_HAL_Driver/Src/stm32h7xx_hal_rtc_ex.c ****         ATCR1 |= TAMP_ATCR1_ATOSHARE;
1196:Drivers/STM32H7xx_HAL_Driver/Src/stm32h7xx_hal_rtc_ex.c ****         ATCR1 |= sAllTamper->TampInput[i].Output << ((2u * i) + TAMP_ATCR1_ATOSEL1_Pos);
1197:Drivers/STM32H7xx_HAL_Driver/Src/stm32h7xx_hal_rtc_ex.c ****       }
1198:Drivers/STM32H7xx_HAL_Driver/Src/stm32h7xx_hal_rtc_ex.c ****     }
1199:Drivers/STM32H7xx_HAL_Driver/Src/stm32h7xx_hal_rtc_ex.c ****   }
1200:Drivers/STM32H7xx_HAL_Driver/Src/stm32h7xx_hal_rtc_ex.c **** 
1201:Drivers/STM32H7xx_HAL_Driver/Src/stm32h7xx_hal_rtc_ex.c ****   WRITE_REG(TAMP->IER, IER);
1202:Drivers/STM32H7xx_HAL_Driver/Src/stm32h7xx_hal_rtc_ex.c ****   WRITE_REG(TAMP->IER, IER);
1203:Drivers/STM32H7xx_HAL_Driver/Src/stm32h7xx_hal_rtc_ex.c ****   WRITE_REG(TAMP->ATCR1, ATCR1);
1204:Drivers/STM32H7xx_HAL_Driver/Src/stm32h7xx_hal_rtc_ex.c **** #if defined(TAMP_ATCR2_ATOSEL1)
1205:Drivers/STM32H7xx_HAL_Driver/Src/stm32h7xx_hal_rtc_ex.c ****   WRITE_REG(TAMP->ATCR2, ATCR2);
1206:Drivers/STM32H7xx_HAL_Driver/Src/stm32h7xx_hal_rtc_ex.c **** #endif /* TAMP_ATCR2_ATOSEL1 */
1207:Drivers/STM32H7xx_HAL_Driver/Src/stm32h7xx_hal_rtc_ex.c ****   WRITE_REG(TAMP->CR2, CR2);
1208:Drivers/STM32H7xx_HAL_Driver/Src/stm32h7xx_hal_rtc_ex.c ****   WRITE_REG(TAMP->CR1, CR1);
1209:Drivers/STM32H7xx_HAL_Driver/Src/stm32h7xx_hal_rtc_ex.c **** 
1210:Drivers/STM32H7xx_HAL_Driver/Src/stm32h7xx_hal_rtc_ex.c ****   /* Write seed */
1211:Drivers/STM32H7xx_HAL_Driver/Src/stm32h7xx_hal_rtc_ex.c ****   for (i = 0; i < RTC_ATAMP_SEED_NB_UINT32; i++)
1212:Drivers/STM32H7xx_HAL_Driver/Src/stm32h7xx_hal_rtc_ex.c ****   {
1213:Drivers/STM32H7xx_HAL_Driver/Src/stm32h7xx_hal_rtc_ex.c ****     WRITE_REG(TAMP->ATSEEDR, sAllTamper->Seed[i]);
1214:Drivers/STM32H7xx_HAL_Driver/Src/stm32h7xx_hal_rtc_ex.c ****   }
1215:Drivers/STM32H7xx_HAL_Driver/Src/stm32h7xx_hal_rtc_ex.c **** 
1216:Drivers/STM32H7xx_HAL_Driver/Src/stm32h7xx_hal_rtc_ex.c ****   /* Wait till RTC SEEDF flag is set and if Time out is reached exit */
1217:Drivers/STM32H7xx_HAL_Driver/Src/stm32h7xx_hal_rtc_ex.c ****   tickstart = HAL_GetTick();
1218:Drivers/STM32H7xx_HAL_Driver/Src/stm32h7xx_hal_rtc_ex.c ****   while (READ_BIT(TAMP->ATOR,  TAMP_ATOR_SEEDF) != 0u)
1219:Drivers/STM32H7xx_HAL_Driver/Src/stm32h7xx_hal_rtc_ex.c ****   {
1220:Drivers/STM32H7xx_HAL_Driver/Src/stm32h7xx_hal_rtc_ex.c ****     if ((HAL_GetTick() - tickstart) > RTC_TIMEOUT_VALUE)
1221:Drivers/STM32H7xx_HAL_Driver/Src/stm32h7xx_hal_rtc_ex.c ****     {
1222:Drivers/STM32H7xx_HAL_Driver/Src/stm32h7xx_hal_rtc_ex.c ****       hrtc->State = HAL_RTC_STATE_TIMEOUT;
1223:Drivers/STM32H7xx_HAL_Driver/Src/stm32h7xx_hal_rtc_ex.c ****       return HAL_TIMEOUT;
1224:Drivers/STM32H7xx_HAL_Driver/Src/stm32h7xx_hal_rtc_ex.c ****     }
1225:Drivers/STM32H7xx_HAL_Driver/Src/stm32h7xx_hal_rtc_ex.c ****   }
1226:Drivers/STM32H7xx_HAL_Driver/Src/stm32h7xx_hal_rtc_ex.c **** 
1227:Drivers/STM32H7xx_HAL_Driver/Src/stm32h7xx_hal_rtc_ex.c ****   return HAL_OK;
1228:Drivers/STM32H7xx_HAL_Driver/Src/stm32h7xx_hal_rtc_ex.c **** }
1229:Drivers/STM32H7xx_HAL_Driver/Src/stm32h7xx_hal_rtc_ex.c **** #endif /* TAMP_ATCR1_TAMP1AM */
1230:Drivers/STM32H7xx_HAL_Driver/Src/stm32h7xx_hal_rtc_ex.c **** 
1231:Drivers/STM32H7xx_HAL_Driver/Src/stm32h7xx_hal_rtc_ex.c **** #if defined(TAMP_ATSEEDR_SEED)
1232:Drivers/STM32H7xx_HAL_Driver/Src/stm32h7xx_hal_rtc_ex.c **** /**
1233:Drivers/STM32H7xx_HAL_Driver/Src/stm32h7xx_hal_rtc_ex.c ****   * @brief  Write a new seed. Active tamper must be enabled.
1234:Drivers/STM32H7xx_HAL_Driver/Src/stm32h7xx_hal_rtc_ex.c ****   * @param  hrtc RTC handle
1235:Drivers/STM32H7xx_HAL_Driver/Src/stm32h7xx_hal_rtc_ex.c ****   * @param  pSeed Pointer to active tamper seed values.
1236:Drivers/STM32H7xx_HAL_Driver/Src/stm32h7xx_hal_rtc_ex.c ****   * @retval HAL status
1237:Drivers/STM32H7xx_HAL_Driver/Src/stm32h7xx_hal_rtc_ex.c ****   */
1238:Drivers/STM32H7xx_HAL_Driver/Src/stm32h7xx_hal_rtc_ex.c **** HAL_StatusTypeDef HAL_RTCEx_SetActiveSeed(RTC_HandleTypeDef *hrtc, uint32_t *pSeed)
1239:Drivers/STM32H7xx_HAL_Driver/Src/stm32h7xx_hal_rtc_ex.c **** {
1240:Drivers/STM32H7xx_HAL_Driver/Src/stm32h7xx_hal_rtc_ex.c ****   uint32_t i, tickstart;
1241:Drivers/STM32H7xx_HAL_Driver/Src/stm32h7xx_hal_rtc_ex.c **** 
1242:Drivers/STM32H7xx_HAL_Driver/Src/stm32h7xx_hal_rtc_ex.c ****   /* Active Tampers must be enabled */
1243:Drivers/STM32H7xx_HAL_Driver/Src/stm32h7xx_hal_rtc_ex.c ****   if (READ_BIT(TAMP->ATOR,  TAMP_ATOR_INITS) == 0U)
1244:Drivers/STM32H7xx_HAL_Driver/Src/stm32h7xx_hal_rtc_ex.c ****   {
1245:Drivers/STM32H7xx_HAL_Driver/Src/stm32h7xx_hal_rtc_ex.c ****     return HAL_ERROR;
1246:Drivers/STM32H7xx_HAL_Driver/Src/stm32h7xx_hal_rtc_ex.c ****   }
1247:Drivers/STM32H7xx_HAL_Driver/Src/stm32h7xx_hal_rtc_ex.c **** 
1248:Drivers/STM32H7xx_HAL_Driver/Src/stm32h7xx_hal_rtc_ex.c ****   for (i = 0; i < RTC_ATAMP_SEED_NB_UINT32; i++)
ARM GAS  C:\usertemp\cc0y2B3r.s 			page 48


1249:Drivers/STM32H7xx_HAL_Driver/Src/stm32h7xx_hal_rtc_ex.c ****   {
1250:Drivers/STM32H7xx_HAL_Driver/Src/stm32h7xx_hal_rtc_ex.c ****     WRITE_REG(TAMP->ATSEEDR, pSeed[i]);
1251:Drivers/STM32H7xx_HAL_Driver/Src/stm32h7xx_hal_rtc_ex.c ****   }
1252:Drivers/STM32H7xx_HAL_Driver/Src/stm32h7xx_hal_rtc_ex.c **** 
1253:Drivers/STM32H7xx_HAL_Driver/Src/stm32h7xx_hal_rtc_ex.c ****   /* Wait till RTC SEEDF flag is set and if Time out is reached exit */
1254:Drivers/STM32H7xx_HAL_Driver/Src/stm32h7xx_hal_rtc_ex.c ****   tickstart = HAL_GetTick();
1255:Drivers/STM32H7xx_HAL_Driver/Src/stm32h7xx_hal_rtc_ex.c ****   while (READ_BIT(TAMP->ATOR,  TAMP_ATOR_SEEDF) != 0U)
1256:Drivers/STM32H7xx_HAL_Driver/Src/stm32h7xx_hal_rtc_ex.c ****   {
1257:Drivers/STM32H7xx_HAL_Driver/Src/stm32h7xx_hal_rtc_ex.c ****     if ((HAL_GetTick() - tickstart) > RTC_TIMEOUT_VALUE)
1258:Drivers/STM32H7xx_HAL_Driver/Src/stm32h7xx_hal_rtc_ex.c ****     {
1259:Drivers/STM32H7xx_HAL_Driver/Src/stm32h7xx_hal_rtc_ex.c ****       hrtc->State = HAL_RTC_STATE_TIMEOUT;
1260:Drivers/STM32H7xx_HAL_Driver/Src/stm32h7xx_hal_rtc_ex.c ****       return HAL_TIMEOUT;
1261:Drivers/STM32H7xx_HAL_Driver/Src/stm32h7xx_hal_rtc_ex.c ****     }
1262:Drivers/STM32H7xx_HAL_Driver/Src/stm32h7xx_hal_rtc_ex.c ****   }
1263:Drivers/STM32H7xx_HAL_Driver/Src/stm32h7xx_hal_rtc_ex.c **** 
1264:Drivers/STM32H7xx_HAL_Driver/Src/stm32h7xx_hal_rtc_ex.c ****   return HAL_OK;
1265:Drivers/STM32H7xx_HAL_Driver/Src/stm32h7xx_hal_rtc_ex.c **** }
1266:Drivers/STM32H7xx_HAL_Driver/Src/stm32h7xx_hal_rtc_ex.c **** #endif /* TAMP_ATSEEDR_SEED */
1267:Drivers/STM32H7xx_HAL_Driver/Src/stm32h7xx_hal_rtc_ex.c **** 
1268:Drivers/STM32H7xx_HAL_Driver/Src/stm32h7xx_hal_rtc_ex.c **** #if defined(TAMP_ATCR1_TAMP1AM)
1269:Drivers/STM32H7xx_HAL_Driver/Src/stm32h7xx_hal_rtc_ex.c **** /**
1270:Drivers/STM32H7xx_HAL_Driver/Src/stm32h7xx_hal_rtc_ex.c ****   * @brief  Deactivate all Active Tampers at the same time.
1271:Drivers/STM32H7xx_HAL_Driver/Src/stm32h7xx_hal_rtc_ex.c ****   * @param  hrtc RTC handle
1272:Drivers/STM32H7xx_HAL_Driver/Src/stm32h7xx_hal_rtc_ex.c ****   * @retval HAL status
1273:Drivers/STM32H7xx_HAL_Driver/Src/stm32h7xx_hal_rtc_ex.c ****   */
1274:Drivers/STM32H7xx_HAL_Driver/Src/stm32h7xx_hal_rtc_ex.c **** HAL_StatusTypeDef HAL_RTCEx_DeactivateActiveTampers(RTC_HandleTypeDef *hrtc)
1275:Drivers/STM32H7xx_HAL_Driver/Src/stm32h7xx_hal_rtc_ex.c **** {
1276:Drivers/STM32H7xx_HAL_Driver/Src/stm32h7xx_hal_rtc_ex.c ****   /* Get Active tampers */
1277:Drivers/STM32H7xx_HAL_Driver/Src/stm32h7xx_hal_rtc_ex.c ****   uint32_t ATamp_mask = READ_BIT(TAMP->ATCR1, TAMP_ALL);
1278:Drivers/STM32H7xx_HAL_Driver/Src/stm32h7xx_hal_rtc_ex.c **** 
1279:Drivers/STM32H7xx_HAL_Driver/Src/stm32h7xx_hal_rtc_ex.c ****   UNUSED(hrtc);
1280:Drivers/STM32H7xx_HAL_Driver/Src/stm32h7xx_hal_rtc_ex.c ****   /* Disable all actives tampers but not passives tampers */
1281:Drivers/STM32H7xx_HAL_Driver/Src/stm32h7xx_hal_rtc_ex.c ****   CLEAR_BIT(TAMP->CR1, ATamp_mask);
1282:Drivers/STM32H7xx_HAL_Driver/Src/stm32h7xx_hal_rtc_ex.c ****   /* Disable no erase and mask */
1283:Drivers/STM32H7xx_HAL_Driver/Src/stm32h7xx_hal_rtc_ex.c ****   CLEAR_BIT(TAMP->CR2, (ATamp_mask | ((ATamp_mask & (TAMP_ATCR1_TAMP1AM | TAMP_ATCR1_TAMP2AM | TAMP
1284:Drivers/STM32H7xx_HAL_Driver/Src/stm32h7xx_hal_rtc_ex.c **** 
1285:Drivers/STM32H7xx_HAL_Driver/Src/stm32h7xx_hal_rtc_ex.c ****   /* Clear tamper interrupt and event flags (WO register) of all actives tampers but not passives t
1286:Drivers/STM32H7xx_HAL_Driver/Src/stm32h7xx_hal_rtc_ex.c ****   WRITE_REG(TAMP->SCR, ATamp_mask);
1287:Drivers/STM32H7xx_HAL_Driver/Src/stm32h7xx_hal_rtc_ex.c **** 
1288:Drivers/STM32H7xx_HAL_Driver/Src/stm32h7xx_hal_rtc_ex.c ****   /* Clear all active tampers interrupt mode configuration but not passives tampers */
1289:Drivers/STM32H7xx_HAL_Driver/Src/stm32h7xx_hal_rtc_ex.c ****   CLEAR_BIT(TAMP->IER, ATamp_mask);
1290:Drivers/STM32H7xx_HAL_Driver/Src/stm32h7xx_hal_rtc_ex.c **** 
1291:Drivers/STM32H7xx_HAL_Driver/Src/stm32h7xx_hal_rtc_ex.c ****   CLEAR_BIT(TAMP->ATCR1, TAMP_ALL | TAMP_ATCR1_ATCKSEL | TAMP_ATCR1_ATPER | \
1292:Drivers/STM32H7xx_HAL_Driver/Src/stm32h7xx_hal_rtc_ex.c ****             TAMP_ATCR1_ATOSHARE | TAMP_ATCR1_FLTEN);
1293:Drivers/STM32H7xx_HAL_Driver/Src/stm32h7xx_hal_rtc_ex.c **** 
1294:Drivers/STM32H7xx_HAL_Driver/Src/stm32h7xx_hal_rtc_ex.c **** #if defined(TAMP_ATCR2_ATOSEL1)
1295:Drivers/STM32H7xx_HAL_Driver/Src/stm32h7xx_hal_rtc_ex.c ****   CLEAR_BIT(TAMP->ATCR2, TAMP_ATCR2_ATOSEL1 | TAMP_ATCR2_ATOSEL2 | TAMP_ATCR2_ATOSEL3 | TAMP_ATCR2_
1296:Drivers/STM32H7xx_HAL_Driver/Src/stm32h7xx_hal_rtc_ex.c ****             TAMP_ATCR2_ATOSEL5 | TAMP_ATCR2_ATOSEL6 | TAMP_ATCR2_ATOSEL7 | TAMP_ATCR2_ATOSEL8);
1297:Drivers/STM32H7xx_HAL_Driver/Src/stm32h7xx_hal_rtc_ex.c **** #endif /* TAMP_ATCR2_ATOSEL1 */
1298:Drivers/STM32H7xx_HAL_Driver/Src/stm32h7xx_hal_rtc_ex.c **** 
1299:Drivers/STM32H7xx_HAL_Driver/Src/stm32h7xx_hal_rtc_ex.c ****   return HAL_OK;
1300:Drivers/STM32H7xx_HAL_Driver/Src/stm32h7xx_hal_rtc_ex.c **** }
1301:Drivers/STM32H7xx_HAL_Driver/Src/stm32h7xx_hal_rtc_ex.c **** #endif /* TAMP_ATCR1_TAMP1AM */
1302:Drivers/STM32H7xx_HAL_Driver/Src/stm32h7xx_hal_rtc_ex.c **** 
1303:Drivers/STM32H7xx_HAL_Driver/Src/stm32h7xx_hal_rtc_ex.c **** /**
1304:Drivers/STM32H7xx_HAL_Driver/Src/stm32h7xx_hal_rtc_ex.c ****   * @}
1305:Drivers/STM32H7xx_HAL_Driver/Src/stm32h7xx_hal_rtc_ex.c ****   */
ARM GAS  C:\usertemp\cc0y2B3r.s 			page 49


1306:Drivers/STM32H7xx_HAL_Driver/Src/stm32h7xx_hal_rtc_ex.c **** 
1307:Drivers/STM32H7xx_HAL_Driver/Src/stm32h7xx_hal_rtc_ex.c **** /** @addtogroup RTCEx_Exported_Functions_Group1
1308:Drivers/STM32H7xx_HAL_Driver/Src/stm32h7xx_hal_rtc_ex.c ****  *  @brief   RTC TimeStamp and Tamper functions
1309:Drivers/STM32H7xx_HAL_Driver/Src/stm32h7xx_hal_rtc_ex.c ****  *
1310:Drivers/STM32H7xx_HAL_Driver/Src/stm32h7xx_hal_rtc_ex.c **** * @{
1311:Drivers/STM32H7xx_HAL_Driver/Src/stm32h7xx_hal_rtc_ex.c **** */
1312:Drivers/STM32H7xx_HAL_Driver/Src/stm32h7xx_hal_rtc_ex.c **** 
1313:Drivers/STM32H7xx_HAL_Driver/Src/stm32h7xx_hal_rtc_ex.c **** /**
1314:Drivers/STM32H7xx_HAL_Driver/Src/stm32h7xx_hal_rtc_ex.c ****   * @brief  Handle TimeStamp interrupt request.
1315:Drivers/STM32H7xx_HAL_Driver/Src/stm32h7xx_hal_rtc_ex.c ****   * @param  hrtc RTC handle
1316:Drivers/STM32H7xx_HAL_Driver/Src/stm32h7xx_hal_rtc_ex.c ****   * @retval None
1317:Drivers/STM32H7xx_HAL_Driver/Src/stm32h7xx_hal_rtc_ex.c ****   */
1318:Drivers/STM32H7xx_HAL_Driver/Src/stm32h7xx_hal_rtc_ex.c **** #if defined(RTC_MISR_TSMF)
1319:Drivers/STM32H7xx_HAL_Driver/Src/stm32h7xx_hal_rtc_ex.c **** void HAL_RTCEx_TamperTimeStampIRQHandler(RTC_HandleTypeDef *hrtc)
1320:Drivers/STM32H7xx_HAL_Driver/Src/stm32h7xx_hal_rtc_ex.c **** {
1321:Drivers/STM32H7xx_HAL_Driver/Src/stm32h7xx_hal_rtc_ex.c **** 
1322:Drivers/STM32H7xx_HAL_Driver/Src/stm32h7xx_hal_rtc_ex.c ****   /* Point on TAMPER registers base address */
1323:Drivers/STM32H7xx_HAL_Driver/Src/stm32h7xx_hal_rtc_ex.c ****   TAMP_TypeDef *tamp = (TAMP_TypeDef *)((uint32_t)hrtc->Instance + TAMP_OFFSET);
1324:Drivers/STM32H7xx_HAL_Driver/Src/stm32h7xx_hal_rtc_ex.c **** 
1325:Drivers/STM32H7xx_HAL_Driver/Src/stm32h7xx_hal_rtc_ex.c ****   /* Clear the EXTI's Flag for RTC TimeStamp and Tamper */
1326:Drivers/STM32H7xx_HAL_Driver/Src/stm32h7xx_hal_rtc_ex.c ****   __HAL_RTC_TAMPER_TIMESTAMP_EXTI_CLEAR_FLAG();
1327:Drivers/STM32H7xx_HAL_Driver/Src/stm32h7xx_hal_rtc_ex.c **** 
1328:Drivers/STM32H7xx_HAL_Driver/Src/stm32h7xx_hal_rtc_ex.c ****   if ((hrtc->Instance->MISR & RTC_MISR_TSMF) != 0u)
1329:Drivers/STM32H7xx_HAL_Driver/Src/stm32h7xx_hal_rtc_ex.c ****   {
1330:Drivers/STM32H7xx_HAL_Driver/Src/stm32h7xx_hal_rtc_ex.c **** #if (USE_HAL_RTC_REGISTER_CALLBACKS == 1)
1331:Drivers/STM32H7xx_HAL_Driver/Src/stm32h7xx_hal_rtc_ex.c ****     /* Call TimeStampEvent registered Callback */
1332:Drivers/STM32H7xx_HAL_Driver/Src/stm32h7xx_hal_rtc_ex.c ****     hrtc->TimeStampEventCallback(hrtc);
1333:Drivers/STM32H7xx_HAL_Driver/Src/stm32h7xx_hal_rtc_ex.c **** #else
1334:Drivers/STM32H7xx_HAL_Driver/Src/stm32h7xx_hal_rtc_ex.c ****     HAL_RTCEx_TimeStampEventCallback(hrtc);
1335:Drivers/STM32H7xx_HAL_Driver/Src/stm32h7xx_hal_rtc_ex.c **** #endif /* USE_HAL_RTC_REGISTER_CALLBACKS */
1336:Drivers/STM32H7xx_HAL_Driver/Src/stm32h7xx_hal_rtc_ex.c ****     /* Not immediately clear flags because the content of RTC_TSTR and RTC_TSDR are cleared when TS
1337:Drivers/STM32H7xx_HAL_Driver/Src/stm32h7xx_hal_rtc_ex.c ****     hrtc->Instance->SCR = RTC_SCR_CTSF;
1338:Drivers/STM32H7xx_HAL_Driver/Src/stm32h7xx_hal_rtc_ex.c ****   }
1339:Drivers/STM32H7xx_HAL_Driver/Src/stm32h7xx_hal_rtc_ex.c **** 
1340:Drivers/STM32H7xx_HAL_Driver/Src/stm32h7xx_hal_rtc_ex.c ****   /* Get interrupt status */
1341:Drivers/STM32H7xx_HAL_Driver/Src/stm32h7xx_hal_rtc_ex.c ****   uint32_t tmp = tamp->MISR;
1342:Drivers/STM32H7xx_HAL_Driver/Src/stm32h7xx_hal_rtc_ex.c **** 
1343:Drivers/STM32H7xx_HAL_Driver/Src/stm32h7xx_hal_rtc_ex.c ****   /* Immediately clear flags */
1344:Drivers/STM32H7xx_HAL_Driver/Src/stm32h7xx_hal_rtc_ex.c ****   tamp->SCR = tmp;
1345:Drivers/STM32H7xx_HAL_Driver/Src/stm32h7xx_hal_rtc_ex.c **** 
1346:Drivers/STM32H7xx_HAL_Driver/Src/stm32h7xx_hal_rtc_ex.c **** #if defined(TAMP_CR1_TAMP1E)
1347:Drivers/STM32H7xx_HAL_Driver/Src/stm32h7xx_hal_rtc_ex.c ****   /* Check Tamper1 status */
1348:Drivers/STM32H7xx_HAL_Driver/Src/stm32h7xx_hal_rtc_ex.c ****   if ((tmp & RTC_TAMPER_1) == RTC_TAMPER_1)
1349:Drivers/STM32H7xx_HAL_Driver/Src/stm32h7xx_hal_rtc_ex.c ****   {
1350:Drivers/STM32H7xx_HAL_Driver/Src/stm32h7xx_hal_rtc_ex.c **** #if (USE_HAL_RTC_REGISTER_CALLBACKS == 1)
1351:Drivers/STM32H7xx_HAL_Driver/Src/stm32h7xx_hal_rtc_ex.c ****     /* Call Tamper 1 Event registered Callback */
1352:Drivers/STM32H7xx_HAL_Driver/Src/stm32h7xx_hal_rtc_ex.c ****     hrtc->Tamper1EventCallback(hrtc);
1353:Drivers/STM32H7xx_HAL_Driver/Src/stm32h7xx_hal_rtc_ex.c **** #else
1354:Drivers/STM32H7xx_HAL_Driver/Src/stm32h7xx_hal_rtc_ex.c ****     /* Tamper1 callback */
1355:Drivers/STM32H7xx_HAL_Driver/Src/stm32h7xx_hal_rtc_ex.c ****     HAL_RTCEx_Tamper1EventCallback(hrtc);
1356:Drivers/STM32H7xx_HAL_Driver/Src/stm32h7xx_hal_rtc_ex.c **** #endif /* USE_HAL_RTC_REGISTER_CALLBACKS */
1357:Drivers/STM32H7xx_HAL_Driver/Src/stm32h7xx_hal_rtc_ex.c ****   }
1358:Drivers/STM32H7xx_HAL_Driver/Src/stm32h7xx_hal_rtc_ex.c **** #endif /* TAMP_CR1_TAMP1E */
1359:Drivers/STM32H7xx_HAL_Driver/Src/stm32h7xx_hal_rtc_ex.c **** 
1360:Drivers/STM32H7xx_HAL_Driver/Src/stm32h7xx_hal_rtc_ex.c **** #if defined(TAMP_CR1_TAMP2E)
1361:Drivers/STM32H7xx_HAL_Driver/Src/stm32h7xx_hal_rtc_ex.c ****   /* Check Tamper2 status */
1362:Drivers/STM32H7xx_HAL_Driver/Src/stm32h7xx_hal_rtc_ex.c ****   if ((tmp & RTC_TAMPER_2) == RTC_TAMPER_2)
ARM GAS  C:\usertemp\cc0y2B3r.s 			page 50


1363:Drivers/STM32H7xx_HAL_Driver/Src/stm32h7xx_hal_rtc_ex.c ****   {
1364:Drivers/STM32H7xx_HAL_Driver/Src/stm32h7xx_hal_rtc_ex.c **** #if (USE_HAL_RTC_REGISTER_CALLBACKS == 1)
1365:Drivers/STM32H7xx_HAL_Driver/Src/stm32h7xx_hal_rtc_ex.c ****     /* Call Tamper 2 Event registered Callback */
1366:Drivers/STM32H7xx_HAL_Driver/Src/stm32h7xx_hal_rtc_ex.c ****     hrtc->Tamper2EventCallback(hrtc);
1367:Drivers/STM32H7xx_HAL_Driver/Src/stm32h7xx_hal_rtc_ex.c **** #else
1368:Drivers/STM32H7xx_HAL_Driver/Src/stm32h7xx_hal_rtc_ex.c ****     /* Tamper2 callback */
1369:Drivers/STM32H7xx_HAL_Driver/Src/stm32h7xx_hal_rtc_ex.c ****     HAL_RTCEx_Tamper2EventCallback(hrtc);
1370:Drivers/STM32H7xx_HAL_Driver/Src/stm32h7xx_hal_rtc_ex.c **** #endif /* USE_HAL_RTC_REGISTER_CALLBACKS */
1371:Drivers/STM32H7xx_HAL_Driver/Src/stm32h7xx_hal_rtc_ex.c ****   }
1372:Drivers/STM32H7xx_HAL_Driver/Src/stm32h7xx_hal_rtc_ex.c **** #endif /* TAMP_CR1_TAMP2E */
1373:Drivers/STM32H7xx_HAL_Driver/Src/stm32h7xx_hal_rtc_ex.c **** 
1374:Drivers/STM32H7xx_HAL_Driver/Src/stm32h7xx_hal_rtc_ex.c **** #if defined(TAMP_CR1_TAMP3E)
1375:Drivers/STM32H7xx_HAL_Driver/Src/stm32h7xx_hal_rtc_ex.c ****   /* Check Tamper3 status */
1376:Drivers/STM32H7xx_HAL_Driver/Src/stm32h7xx_hal_rtc_ex.c ****   if ((tmp & RTC_TAMPER_3) == RTC_TAMPER_3)
1377:Drivers/STM32H7xx_HAL_Driver/Src/stm32h7xx_hal_rtc_ex.c ****   {
1378:Drivers/STM32H7xx_HAL_Driver/Src/stm32h7xx_hal_rtc_ex.c **** #if (USE_HAL_RTC_REGISTER_CALLBACKS == 1)
1379:Drivers/STM32H7xx_HAL_Driver/Src/stm32h7xx_hal_rtc_ex.c ****     /* Call Tamper 3 Event registered Callback */
1380:Drivers/STM32H7xx_HAL_Driver/Src/stm32h7xx_hal_rtc_ex.c ****     hrtc->Tamper3EventCallback(hrtc);
1381:Drivers/STM32H7xx_HAL_Driver/Src/stm32h7xx_hal_rtc_ex.c **** #else
1382:Drivers/STM32H7xx_HAL_Driver/Src/stm32h7xx_hal_rtc_ex.c ****     /* Tamper3 callback */
1383:Drivers/STM32H7xx_HAL_Driver/Src/stm32h7xx_hal_rtc_ex.c ****     HAL_RTCEx_Tamper3EventCallback(hrtc);
1384:Drivers/STM32H7xx_HAL_Driver/Src/stm32h7xx_hal_rtc_ex.c **** #endif /* USE_HAL_RTC_REGISTER_CALLBACKS */
1385:Drivers/STM32H7xx_HAL_Driver/Src/stm32h7xx_hal_rtc_ex.c ****   }
1386:Drivers/STM32H7xx_HAL_Driver/Src/stm32h7xx_hal_rtc_ex.c **** #endif /* TAMP_CR1_TAMP3E */
1387:Drivers/STM32H7xx_HAL_Driver/Src/stm32h7xx_hal_rtc_ex.c **** 
1388:Drivers/STM32H7xx_HAL_Driver/Src/stm32h7xx_hal_rtc_ex.c **** #if defined(TAMP_CR1_ITAMP1E)
1389:Drivers/STM32H7xx_HAL_Driver/Src/stm32h7xx_hal_rtc_ex.c ****   /* Check Internal Tamper status */
1390:Drivers/STM32H7xx_HAL_Driver/Src/stm32h7xx_hal_rtc_ex.c ****   if ((tmp & RTC_INT_TAMPER_1) == RTC_INT_TAMPER_1)
1391:Drivers/STM32H7xx_HAL_Driver/Src/stm32h7xx_hal_rtc_ex.c ****   {
1392:Drivers/STM32H7xx_HAL_Driver/Src/stm32h7xx_hal_rtc_ex.c **** #if (USE_HAL_RTC_REGISTER_CALLBACKS == 1)
1393:Drivers/STM32H7xx_HAL_Driver/Src/stm32h7xx_hal_rtc_ex.c ****     /* Call Internal Tamper Event registered callback */
1394:Drivers/STM32H7xx_HAL_Driver/Src/stm32h7xx_hal_rtc_ex.c ****     hrtc->InternalTamper1EventCallback(hrtc);
1395:Drivers/STM32H7xx_HAL_Driver/Src/stm32h7xx_hal_rtc_ex.c **** #else
1396:Drivers/STM32H7xx_HAL_Driver/Src/stm32h7xx_hal_rtc_ex.c ****     /* Call Internal Tamper Event by-default callback */
1397:Drivers/STM32H7xx_HAL_Driver/Src/stm32h7xx_hal_rtc_ex.c ****     HAL_RTCEx_InternalTamper1EventCallback(hrtc);
1398:Drivers/STM32H7xx_HAL_Driver/Src/stm32h7xx_hal_rtc_ex.c **** #endif /* USE_HAL_RTC_REGISTER_CALLBACKS */
1399:Drivers/STM32H7xx_HAL_Driver/Src/stm32h7xx_hal_rtc_ex.c ****   }
1400:Drivers/STM32H7xx_HAL_Driver/Src/stm32h7xx_hal_rtc_ex.c **** #endif /* TAMP_CR1_ITAMP1E */
1401:Drivers/STM32H7xx_HAL_Driver/Src/stm32h7xx_hal_rtc_ex.c **** 
1402:Drivers/STM32H7xx_HAL_Driver/Src/stm32h7xx_hal_rtc_ex.c **** #if defined(TAMP_CR1_ITAMP2E)
1403:Drivers/STM32H7xx_HAL_Driver/Src/stm32h7xx_hal_rtc_ex.c ****   /* Check Internal Tamper status */
1404:Drivers/STM32H7xx_HAL_Driver/Src/stm32h7xx_hal_rtc_ex.c ****   if ((tmp & RTC_INT_TAMPER_2) == RTC_INT_TAMPER_2)
1405:Drivers/STM32H7xx_HAL_Driver/Src/stm32h7xx_hal_rtc_ex.c ****   {
1406:Drivers/STM32H7xx_HAL_Driver/Src/stm32h7xx_hal_rtc_ex.c **** #if (USE_HAL_RTC_REGISTER_CALLBACKS == 1)
1407:Drivers/STM32H7xx_HAL_Driver/Src/stm32h7xx_hal_rtc_ex.c ****     /* Call Internal Tamper Event registered callback */
1408:Drivers/STM32H7xx_HAL_Driver/Src/stm32h7xx_hal_rtc_ex.c ****     hrtc->InternalTamper2EventCallback(hrtc);
1409:Drivers/STM32H7xx_HAL_Driver/Src/stm32h7xx_hal_rtc_ex.c **** #else
1410:Drivers/STM32H7xx_HAL_Driver/Src/stm32h7xx_hal_rtc_ex.c ****     /* Call Internal Tamper Event by-default callback */
1411:Drivers/STM32H7xx_HAL_Driver/Src/stm32h7xx_hal_rtc_ex.c ****     HAL_RTCEx_InternalTamper2EventCallback(hrtc);
1412:Drivers/STM32H7xx_HAL_Driver/Src/stm32h7xx_hal_rtc_ex.c **** #endif /* USE_HAL_RTC_REGISTER_CALLBACKS */
1413:Drivers/STM32H7xx_HAL_Driver/Src/stm32h7xx_hal_rtc_ex.c ****   }
1414:Drivers/STM32H7xx_HAL_Driver/Src/stm32h7xx_hal_rtc_ex.c **** #endif /* TAMP_CR1_ITAMP2E */
1415:Drivers/STM32H7xx_HAL_Driver/Src/stm32h7xx_hal_rtc_ex.c **** 
1416:Drivers/STM32H7xx_HAL_Driver/Src/stm32h7xx_hal_rtc_ex.c **** #if defined(TAMP_CR1_ITAMP3E)
1417:Drivers/STM32H7xx_HAL_Driver/Src/stm32h7xx_hal_rtc_ex.c ****   /* Check Internal Tamper status */
1418:Drivers/STM32H7xx_HAL_Driver/Src/stm32h7xx_hal_rtc_ex.c ****   if ((tmp & RTC_INT_TAMPER_3) == RTC_INT_TAMPER_3)
1419:Drivers/STM32H7xx_HAL_Driver/Src/stm32h7xx_hal_rtc_ex.c ****   {
ARM GAS  C:\usertemp\cc0y2B3r.s 			page 51


1420:Drivers/STM32H7xx_HAL_Driver/Src/stm32h7xx_hal_rtc_ex.c **** #if (USE_HAL_RTC_REGISTER_CALLBACKS == 1)
1421:Drivers/STM32H7xx_HAL_Driver/Src/stm32h7xx_hal_rtc_ex.c ****     /* Call Internal Tamper Event registered callback */
1422:Drivers/STM32H7xx_HAL_Driver/Src/stm32h7xx_hal_rtc_ex.c ****     hrtc->InternalTamper3EventCallback(hrtc);
1423:Drivers/STM32H7xx_HAL_Driver/Src/stm32h7xx_hal_rtc_ex.c **** #else
1424:Drivers/STM32H7xx_HAL_Driver/Src/stm32h7xx_hal_rtc_ex.c ****     /* Call Internal Tamper Event by-default callback */
1425:Drivers/STM32H7xx_HAL_Driver/Src/stm32h7xx_hal_rtc_ex.c ****     HAL_RTCEx_InternalTamper3EventCallback(hrtc);
1426:Drivers/STM32H7xx_HAL_Driver/Src/stm32h7xx_hal_rtc_ex.c **** #endif /* USE_HAL_RTC_REGISTER_CALLBACKS */
1427:Drivers/STM32H7xx_HAL_Driver/Src/stm32h7xx_hal_rtc_ex.c ****   }
1428:Drivers/STM32H7xx_HAL_Driver/Src/stm32h7xx_hal_rtc_ex.c **** #endif /* TAMP_CR1_ITAMP3E */
1429:Drivers/STM32H7xx_HAL_Driver/Src/stm32h7xx_hal_rtc_ex.c **** 
1430:Drivers/STM32H7xx_HAL_Driver/Src/stm32h7xx_hal_rtc_ex.c **** #if defined(TAMP_CR1_ITAMP4E)
1431:Drivers/STM32H7xx_HAL_Driver/Src/stm32h7xx_hal_rtc_ex.c ****   /* Check Internal Tamper status */
1432:Drivers/STM32H7xx_HAL_Driver/Src/stm32h7xx_hal_rtc_ex.c ****   if ((tmp & RTC_INT_TAMPER_4) == RTC_INT_TAMPER_4)
1433:Drivers/STM32H7xx_HAL_Driver/Src/stm32h7xx_hal_rtc_ex.c ****   {
1434:Drivers/STM32H7xx_HAL_Driver/Src/stm32h7xx_hal_rtc_ex.c **** #if (USE_HAL_RTC_REGISTER_CALLBACKS == 1)
1435:Drivers/STM32H7xx_HAL_Driver/Src/stm32h7xx_hal_rtc_ex.c ****     /* Call Internal Tamper Event registered callback */
1436:Drivers/STM32H7xx_HAL_Driver/Src/stm32h7xx_hal_rtc_ex.c ****     hrtc->InternalTamper4EventCallback(hrtc);
1437:Drivers/STM32H7xx_HAL_Driver/Src/stm32h7xx_hal_rtc_ex.c **** #else
1438:Drivers/STM32H7xx_HAL_Driver/Src/stm32h7xx_hal_rtc_ex.c ****     /* Call Internal Tamper Event by-default callback */
1439:Drivers/STM32H7xx_HAL_Driver/Src/stm32h7xx_hal_rtc_ex.c ****     HAL_RTCEx_InternalTamper4EventCallback(hrtc);
1440:Drivers/STM32H7xx_HAL_Driver/Src/stm32h7xx_hal_rtc_ex.c **** #endif /* USE_HAL_RTC_REGISTER_CALLBACKS */
1441:Drivers/STM32H7xx_HAL_Driver/Src/stm32h7xx_hal_rtc_ex.c ****   }
1442:Drivers/STM32H7xx_HAL_Driver/Src/stm32h7xx_hal_rtc_ex.c **** #endif /* TAMP_CR1_ITAMP4E */
1443:Drivers/STM32H7xx_HAL_Driver/Src/stm32h7xx_hal_rtc_ex.c **** 
1444:Drivers/STM32H7xx_HAL_Driver/Src/stm32h7xx_hal_rtc_ex.c **** #if defined(TAMP_CR1_ITAMP5E)
1445:Drivers/STM32H7xx_HAL_Driver/Src/stm32h7xx_hal_rtc_ex.c ****   /* Check Internal Tamper status */
1446:Drivers/STM32H7xx_HAL_Driver/Src/stm32h7xx_hal_rtc_ex.c ****   if ((tmp & RTC_INT_TAMPER_5) == RTC_INT_TAMPER_5)
1447:Drivers/STM32H7xx_HAL_Driver/Src/stm32h7xx_hal_rtc_ex.c ****   {
1448:Drivers/STM32H7xx_HAL_Driver/Src/stm32h7xx_hal_rtc_ex.c **** #if (USE_HAL_RTC_REGISTER_CALLBACKS == 1)
1449:Drivers/STM32H7xx_HAL_Driver/Src/stm32h7xx_hal_rtc_ex.c ****     /* Call Internal Tamper Event registered callback */
1450:Drivers/STM32H7xx_HAL_Driver/Src/stm32h7xx_hal_rtc_ex.c ****     hrtc->InternalTamper5EventCallback(hrtc);
1451:Drivers/STM32H7xx_HAL_Driver/Src/stm32h7xx_hal_rtc_ex.c **** #else
1452:Drivers/STM32H7xx_HAL_Driver/Src/stm32h7xx_hal_rtc_ex.c ****     /* Call Internal Tamper Event by-default callback */
1453:Drivers/STM32H7xx_HAL_Driver/Src/stm32h7xx_hal_rtc_ex.c ****     HAL_RTCEx_InternalTamper5EventCallback(hrtc);
1454:Drivers/STM32H7xx_HAL_Driver/Src/stm32h7xx_hal_rtc_ex.c **** #endif /* USE_HAL_RTC_REGISTER_CALLBACKS */
1455:Drivers/STM32H7xx_HAL_Driver/Src/stm32h7xx_hal_rtc_ex.c ****   }
1456:Drivers/STM32H7xx_HAL_Driver/Src/stm32h7xx_hal_rtc_ex.c **** #endif /* TAMP_CR1_ITAMP5E */
1457:Drivers/STM32H7xx_HAL_Driver/Src/stm32h7xx_hal_rtc_ex.c **** 
1458:Drivers/STM32H7xx_HAL_Driver/Src/stm32h7xx_hal_rtc_ex.c **** #if defined(TAMP_CR1_ITAMP6E)
1459:Drivers/STM32H7xx_HAL_Driver/Src/stm32h7xx_hal_rtc_ex.c ****   /* Check Internal Tamper status */
1460:Drivers/STM32H7xx_HAL_Driver/Src/stm32h7xx_hal_rtc_ex.c ****   if ((tmp & RTC_INT_TAMPER_6) == RTC_INT_TAMPER_6)
1461:Drivers/STM32H7xx_HAL_Driver/Src/stm32h7xx_hal_rtc_ex.c ****   {
1462:Drivers/STM32H7xx_HAL_Driver/Src/stm32h7xx_hal_rtc_ex.c **** #if (USE_HAL_RTC_REGISTER_CALLBACKS == 1)
1463:Drivers/STM32H7xx_HAL_Driver/Src/stm32h7xx_hal_rtc_ex.c ****     /* Call Internal Tamper Event registered callback */
1464:Drivers/STM32H7xx_HAL_Driver/Src/stm32h7xx_hal_rtc_ex.c ****     hrtc->InternalTamper6EventCallback(hrtc);
1465:Drivers/STM32H7xx_HAL_Driver/Src/stm32h7xx_hal_rtc_ex.c **** #else
1466:Drivers/STM32H7xx_HAL_Driver/Src/stm32h7xx_hal_rtc_ex.c ****     /* Call Internal Tamper Event by-default callback */
1467:Drivers/STM32H7xx_HAL_Driver/Src/stm32h7xx_hal_rtc_ex.c ****     HAL_RTCEx_InternalTamper6EventCallback(hrtc);
1468:Drivers/STM32H7xx_HAL_Driver/Src/stm32h7xx_hal_rtc_ex.c **** #endif /* USE_HAL_RTC_REGISTER_CALLBACKS */
1469:Drivers/STM32H7xx_HAL_Driver/Src/stm32h7xx_hal_rtc_ex.c ****   }
1470:Drivers/STM32H7xx_HAL_Driver/Src/stm32h7xx_hal_rtc_ex.c **** #endif /* TAMP_CR1_ITAMP6E */
1471:Drivers/STM32H7xx_HAL_Driver/Src/stm32h7xx_hal_rtc_ex.c **** 
1472:Drivers/STM32H7xx_HAL_Driver/Src/stm32h7xx_hal_rtc_ex.c **** #if defined(TAMP_CR1_ITAMP8E)
1473:Drivers/STM32H7xx_HAL_Driver/Src/stm32h7xx_hal_rtc_ex.c ****   /* Check Internal Tamper status */
1474:Drivers/STM32H7xx_HAL_Driver/Src/stm32h7xx_hal_rtc_ex.c ****   if ((tmp & RTC_INT_TAMPER_8) == RTC_INT_TAMPER_8)
1475:Drivers/STM32H7xx_HAL_Driver/Src/stm32h7xx_hal_rtc_ex.c ****   {
1476:Drivers/STM32H7xx_HAL_Driver/Src/stm32h7xx_hal_rtc_ex.c **** #if (USE_HAL_RTC_REGISTER_CALLBACKS == 1)
ARM GAS  C:\usertemp\cc0y2B3r.s 			page 52


1477:Drivers/STM32H7xx_HAL_Driver/Src/stm32h7xx_hal_rtc_ex.c ****     /* Call Internal Tamper Event registered callback */
1478:Drivers/STM32H7xx_HAL_Driver/Src/stm32h7xx_hal_rtc_ex.c ****     hrtc->InternalTamper8EventCallback(hrtc);
1479:Drivers/STM32H7xx_HAL_Driver/Src/stm32h7xx_hal_rtc_ex.c **** #else
1480:Drivers/STM32H7xx_HAL_Driver/Src/stm32h7xx_hal_rtc_ex.c ****     /* Call Internal Tamper Event by-default callback */
1481:Drivers/STM32H7xx_HAL_Driver/Src/stm32h7xx_hal_rtc_ex.c ****     HAL_RTCEx_InternalTamper8EventCallback(hrtc);
1482:Drivers/STM32H7xx_HAL_Driver/Src/stm32h7xx_hal_rtc_ex.c **** #endif /* USE_HAL_RTC_REGISTER_CALLBACKS */
1483:Drivers/STM32H7xx_HAL_Driver/Src/stm32h7xx_hal_rtc_ex.c ****   }
1484:Drivers/STM32H7xx_HAL_Driver/Src/stm32h7xx_hal_rtc_ex.c **** #endif /* TAMP_CR1_ITAMP8E */
1485:Drivers/STM32H7xx_HAL_Driver/Src/stm32h7xx_hal_rtc_ex.c **** 
1486:Drivers/STM32H7xx_HAL_Driver/Src/stm32h7xx_hal_rtc_ex.c ****   /* Change RTC state */
1487:Drivers/STM32H7xx_HAL_Driver/Src/stm32h7xx_hal_rtc_ex.c ****   hrtc->State = HAL_RTC_STATE_READY;
1488:Drivers/STM32H7xx_HAL_Driver/Src/stm32h7xx_hal_rtc_ex.c **** }
1489:Drivers/STM32H7xx_HAL_Driver/Src/stm32h7xx_hal_rtc_ex.c **** #endif /* RTC_MISR_TSMF */
1490:Drivers/STM32H7xx_HAL_Driver/Src/stm32h7xx_hal_rtc_ex.c **** #if defined(RTC_ISR_TSF)
1491:Drivers/STM32H7xx_HAL_Driver/Src/stm32h7xx_hal_rtc_ex.c **** void HAL_RTCEx_TamperTimeStampIRQHandler(RTC_HandleTypeDef *hrtc)
1492:Drivers/STM32H7xx_HAL_Driver/Src/stm32h7xx_hal_rtc_ex.c **** {
1493:Drivers/STM32H7xx_HAL_Driver/Src/stm32h7xx_hal_rtc_ex.c ****   /* Clear the EXTI's Flag for RTC TimeStamp and Tamper */
1494:Drivers/STM32H7xx_HAL_Driver/Src/stm32h7xx_hal_rtc_ex.c **** #if defined(DUAL_CORE)
1495:Drivers/STM32H7xx_HAL_Driver/Src/stm32h7xx_hal_rtc_ex.c ****   if (HAL_GetCurrentCPUID() == CM7_CPUID)
1496:Drivers/STM32H7xx_HAL_Driver/Src/stm32h7xx_hal_rtc_ex.c ****   {
1497:Drivers/STM32H7xx_HAL_Driver/Src/stm32h7xx_hal_rtc_ex.c ****     __HAL_RTC_TAMPER_TIMESTAMP_EXTI_CLEAR_FLAG();
1498:Drivers/STM32H7xx_HAL_Driver/Src/stm32h7xx_hal_rtc_ex.c ****   }
1499:Drivers/STM32H7xx_HAL_Driver/Src/stm32h7xx_hal_rtc_ex.c ****   else
1500:Drivers/STM32H7xx_HAL_Driver/Src/stm32h7xx_hal_rtc_ex.c ****   {
1501:Drivers/STM32H7xx_HAL_Driver/Src/stm32h7xx_hal_rtc_ex.c ****     __HAL_RTC_TAMPER_TIMESTAMP_EXTID2_CLEAR_FLAG();
1502:Drivers/STM32H7xx_HAL_Driver/Src/stm32h7xx_hal_rtc_ex.c ****   }
1503:Drivers/STM32H7xx_HAL_Driver/Src/stm32h7xx_hal_rtc_ex.c **** #else /* SINGLE_CORE */
1504:Drivers/STM32H7xx_HAL_Driver/Src/stm32h7xx_hal_rtc_ex.c ****   __HAL_RTC_TAMPER_TIMESTAMP_EXTI_CLEAR_FLAG();
1505:Drivers/STM32H7xx_HAL_Driver/Src/stm32h7xx_hal_rtc_ex.c **** #endif /* DUAL_CORE */
1506:Drivers/STM32H7xx_HAL_Driver/Src/stm32h7xx_hal_rtc_ex.c **** 
1507:Drivers/STM32H7xx_HAL_Driver/Src/stm32h7xx_hal_rtc_ex.c ****   /* Get the TimeStamp interrupt source enable status */
1508:Drivers/STM32H7xx_HAL_Driver/Src/stm32h7xx_hal_rtc_ex.c ****   if (__HAL_RTC_TIMESTAMP_GET_IT_SOURCE(hrtc, RTC_IT_TS) != 0U)
1509:Drivers/STM32H7xx_HAL_Driver/Src/stm32h7xx_hal_rtc_ex.c ****   {
1510:Drivers/STM32H7xx_HAL_Driver/Src/stm32h7xx_hal_rtc_ex.c ****     /* Get the pending status of the TIMESTAMP Interrupt */
1511:Drivers/STM32H7xx_HAL_Driver/Src/stm32h7xx_hal_rtc_ex.c ****     if (__HAL_RTC_TIMESTAMP_GET_FLAG(hrtc, RTC_FLAG_TSF) != 0U)
1512:Drivers/STM32H7xx_HAL_Driver/Src/stm32h7xx_hal_rtc_ex.c ****     {
1513:Drivers/STM32H7xx_HAL_Driver/Src/stm32h7xx_hal_rtc_ex.c ****       /* TIMESTAMP callback */
1514:Drivers/STM32H7xx_HAL_Driver/Src/stm32h7xx_hal_rtc_ex.c **** #if (USE_HAL_RTC_REGISTER_CALLBACKS == 1)
1515:Drivers/STM32H7xx_HAL_Driver/Src/stm32h7xx_hal_rtc_ex.c ****       hrtc->TimeStampEventCallback(hrtc);
1516:Drivers/STM32H7xx_HAL_Driver/Src/stm32h7xx_hal_rtc_ex.c **** #else  /* (USE_HAL_RTC_REGISTER_CALLBACKS == 1) */
1517:Drivers/STM32H7xx_HAL_Driver/Src/stm32h7xx_hal_rtc_ex.c ****       HAL_RTCEx_TimeStampEventCallback(hrtc);
1518:Drivers/STM32H7xx_HAL_Driver/Src/stm32h7xx_hal_rtc_ex.c **** #endif /* (USE_HAL_RTC_REGISTER_CALLBACKS == 1) */
1519:Drivers/STM32H7xx_HAL_Driver/Src/stm32h7xx_hal_rtc_ex.c **** 
1520:Drivers/STM32H7xx_HAL_Driver/Src/stm32h7xx_hal_rtc_ex.c ****       /* Clear the TIMESTAMP interrupt pending bit (this will clear timestamp time and date registe
1521:Drivers/STM32H7xx_HAL_Driver/Src/stm32h7xx_hal_rtc_ex.c ****       __HAL_RTC_TIMESTAMP_CLEAR_FLAG(hrtc, RTC_FLAG_TSF);
1522:Drivers/STM32H7xx_HAL_Driver/Src/stm32h7xx_hal_rtc_ex.c ****     }
1523:Drivers/STM32H7xx_HAL_Driver/Src/stm32h7xx_hal_rtc_ex.c ****   }
1524:Drivers/STM32H7xx_HAL_Driver/Src/stm32h7xx_hal_rtc_ex.c **** 
1525:Drivers/STM32H7xx_HAL_Driver/Src/stm32h7xx_hal_rtc_ex.c **** #if defined(RTC_TAMPCR_TAMP1E)
1526:Drivers/STM32H7xx_HAL_Driver/Src/stm32h7xx_hal_rtc_ex.c ****   /* Get the Tamper1 interrupt source enable status */
1527:Drivers/STM32H7xx_HAL_Driver/Src/stm32h7xx_hal_rtc_ex.c ****   if (__HAL_RTC_TAMPER_GET_IT_SOURCE(hrtc, RTC_IT_TAMP | RTC_IT_TAMP1) != 0U)
1528:Drivers/STM32H7xx_HAL_Driver/Src/stm32h7xx_hal_rtc_ex.c ****   {
1529:Drivers/STM32H7xx_HAL_Driver/Src/stm32h7xx_hal_rtc_ex.c ****     /* Get the pending status of the Tamper1 Interrupt */
1530:Drivers/STM32H7xx_HAL_Driver/Src/stm32h7xx_hal_rtc_ex.c ****     if (__HAL_RTC_TAMPER_GET_FLAG(hrtc, RTC_FLAG_TAMP1F) != 0U)
1531:Drivers/STM32H7xx_HAL_Driver/Src/stm32h7xx_hal_rtc_ex.c ****     {
1532:Drivers/STM32H7xx_HAL_Driver/Src/stm32h7xx_hal_rtc_ex.c ****       /* Clear the Tamper1 interrupt pending bit */
1533:Drivers/STM32H7xx_HAL_Driver/Src/stm32h7xx_hal_rtc_ex.c ****       __HAL_RTC_TAMPER_CLEAR_FLAG(hrtc, RTC_FLAG_TAMP1F);
ARM GAS  C:\usertemp\cc0y2B3r.s 			page 53


1534:Drivers/STM32H7xx_HAL_Driver/Src/stm32h7xx_hal_rtc_ex.c **** 
1535:Drivers/STM32H7xx_HAL_Driver/Src/stm32h7xx_hal_rtc_ex.c ****       /* Tamper1 callback */
1536:Drivers/STM32H7xx_HAL_Driver/Src/stm32h7xx_hal_rtc_ex.c **** #if (USE_HAL_RTC_REGISTER_CALLBACKS == 1)
1537:Drivers/STM32H7xx_HAL_Driver/Src/stm32h7xx_hal_rtc_ex.c ****       hrtc->Tamper1EventCallback(hrtc);
1538:Drivers/STM32H7xx_HAL_Driver/Src/stm32h7xx_hal_rtc_ex.c **** #else  /* (USE_HAL_RTC_REGISTER_CALLBACKS == 1) */
1539:Drivers/STM32H7xx_HAL_Driver/Src/stm32h7xx_hal_rtc_ex.c ****       HAL_RTCEx_Tamper1EventCallback(hrtc);
1540:Drivers/STM32H7xx_HAL_Driver/Src/stm32h7xx_hal_rtc_ex.c **** #endif /* (USE_HAL_RTC_REGISTER_CALLBACKS == 1) */
1541:Drivers/STM32H7xx_HAL_Driver/Src/stm32h7xx_hal_rtc_ex.c ****     }
1542:Drivers/STM32H7xx_HAL_Driver/Src/stm32h7xx_hal_rtc_ex.c ****   }
1543:Drivers/STM32H7xx_HAL_Driver/Src/stm32h7xx_hal_rtc_ex.c **** #endif /* RTC_TAMPCR_TAMP1E */
1544:Drivers/STM32H7xx_HAL_Driver/Src/stm32h7xx_hal_rtc_ex.c **** 
1545:Drivers/STM32H7xx_HAL_Driver/Src/stm32h7xx_hal_rtc_ex.c **** #if defined(RTC_TAMPCR_TAMP2E)
1546:Drivers/STM32H7xx_HAL_Driver/Src/stm32h7xx_hal_rtc_ex.c ****   /* Get the Tamper2 interrupt source enable status */
1547:Drivers/STM32H7xx_HAL_Driver/Src/stm32h7xx_hal_rtc_ex.c ****   if (__HAL_RTC_TAMPER_GET_IT_SOURCE(hrtc, RTC_IT_TAMP | RTC_IT_TAMP2) != 0U)
1548:Drivers/STM32H7xx_HAL_Driver/Src/stm32h7xx_hal_rtc_ex.c ****   {
1549:Drivers/STM32H7xx_HAL_Driver/Src/stm32h7xx_hal_rtc_ex.c ****     /* Get the pending status of the Tamper2 Interrupt */
1550:Drivers/STM32H7xx_HAL_Driver/Src/stm32h7xx_hal_rtc_ex.c ****     if (__HAL_RTC_TAMPER_GET_FLAG(hrtc, RTC_FLAG_TAMP2F) != 0U)
1551:Drivers/STM32H7xx_HAL_Driver/Src/stm32h7xx_hal_rtc_ex.c ****     {
1552:Drivers/STM32H7xx_HAL_Driver/Src/stm32h7xx_hal_rtc_ex.c ****       /* Clear the Tamper2 interrupt pending bit */
1553:Drivers/STM32H7xx_HAL_Driver/Src/stm32h7xx_hal_rtc_ex.c ****       __HAL_RTC_TAMPER_CLEAR_FLAG(hrtc, RTC_FLAG_TAMP2F);
1554:Drivers/STM32H7xx_HAL_Driver/Src/stm32h7xx_hal_rtc_ex.c **** 
1555:Drivers/STM32H7xx_HAL_Driver/Src/stm32h7xx_hal_rtc_ex.c ****       /* Tamper2 callback */
1556:Drivers/STM32H7xx_HAL_Driver/Src/stm32h7xx_hal_rtc_ex.c **** #if (USE_HAL_RTC_REGISTER_CALLBACKS == 1)
1557:Drivers/STM32H7xx_HAL_Driver/Src/stm32h7xx_hal_rtc_ex.c ****       hrtc->Tamper2EventCallback(hrtc);
1558:Drivers/STM32H7xx_HAL_Driver/Src/stm32h7xx_hal_rtc_ex.c **** #else  /* (USE_HAL_RTC_REGISTER_CALLBACKS == 1) */
1559:Drivers/STM32H7xx_HAL_Driver/Src/stm32h7xx_hal_rtc_ex.c ****       HAL_RTCEx_Tamper2EventCallback(hrtc);
1560:Drivers/STM32H7xx_HAL_Driver/Src/stm32h7xx_hal_rtc_ex.c **** #endif /* (USE_HAL_RTC_REGISTER_CALLBACKS == 1) */
1561:Drivers/STM32H7xx_HAL_Driver/Src/stm32h7xx_hal_rtc_ex.c ****     }
1562:Drivers/STM32H7xx_HAL_Driver/Src/stm32h7xx_hal_rtc_ex.c ****   }
1563:Drivers/STM32H7xx_HAL_Driver/Src/stm32h7xx_hal_rtc_ex.c **** #endif /* RTC_TAMPCR_TAMP2E */
1564:Drivers/STM32H7xx_HAL_Driver/Src/stm32h7xx_hal_rtc_ex.c **** 
1565:Drivers/STM32H7xx_HAL_Driver/Src/stm32h7xx_hal_rtc_ex.c **** #if defined(RTC_TAMPCR_TAMP3E)
1566:Drivers/STM32H7xx_HAL_Driver/Src/stm32h7xx_hal_rtc_ex.c ****   /* Get the Tamper3 interrupts source enable status */
1567:Drivers/STM32H7xx_HAL_Driver/Src/stm32h7xx_hal_rtc_ex.c ****   if (__HAL_RTC_TAMPER_GET_IT_SOURCE(hrtc, RTC_IT_TAMP | RTC_IT_TAMP3) != 0U)
1568:Drivers/STM32H7xx_HAL_Driver/Src/stm32h7xx_hal_rtc_ex.c ****   {
1569:Drivers/STM32H7xx_HAL_Driver/Src/stm32h7xx_hal_rtc_ex.c ****     /* Get the pending status of the Tamper3 Interrupt */
1570:Drivers/STM32H7xx_HAL_Driver/Src/stm32h7xx_hal_rtc_ex.c ****     if (__HAL_RTC_TAMPER_GET_FLAG(hrtc, RTC_FLAG_TAMP3F) != 0U)
1571:Drivers/STM32H7xx_HAL_Driver/Src/stm32h7xx_hal_rtc_ex.c ****     {
1572:Drivers/STM32H7xx_HAL_Driver/Src/stm32h7xx_hal_rtc_ex.c ****       /* Clear the Tamper3 interrupt pending bit */
1573:Drivers/STM32H7xx_HAL_Driver/Src/stm32h7xx_hal_rtc_ex.c ****       __HAL_RTC_TAMPER_CLEAR_FLAG(hrtc, RTC_FLAG_TAMP3F);
1574:Drivers/STM32H7xx_HAL_Driver/Src/stm32h7xx_hal_rtc_ex.c **** 
1575:Drivers/STM32H7xx_HAL_Driver/Src/stm32h7xx_hal_rtc_ex.c ****       /* Tamper3 callback */
1576:Drivers/STM32H7xx_HAL_Driver/Src/stm32h7xx_hal_rtc_ex.c **** #if (USE_HAL_RTC_REGISTER_CALLBACKS == 1)
1577:Drivers/STM32H7xx_HAL_Driver/Src/stm32h7xx_hal_rtc_ex.c ****       hrtc->Tamper3EventCallback(hrtc);
1578:Drivers/STM32H7xx_HAL_Driver/Src/stm32h7xx_hal_rtc_ex.c **** #else  /* (USE_HAL_RTC_REGISTER_CALLBACKS == 1) */
1579:Drivers/STM32H7xx_HAL_Driver/Src/stm32h7xx_hal_rtc_ex.c ****       HAL_RTCEx_Tamper3EventCallback(hrtc);
1580:Drivers/STM32H7xx_HAL_Driver/Src/stm32h7xx_hal_rtc_ex.c **** #endif /* (USE_HAL_RTC_REGISTER_CALLBACKS == 1) */
1581:Drivers/STM32H7xx_HAL_Driver/Src/stm32h7xx_hal_rtc_ex.c ****     }
1582:Drivers/STM32H7xx_HAL_Driver/Src/stm32h7xx_hal_rtc_ex.c ****   }
1583:Drivers/STM32H7xx_HAL_Driver/Src/stm32h7xx_hal_rtc_ex.c **** #endif /* RTC_TAMPCR_TAMP3E */
1584:Drivers/STM32H7xx_HAL_Driver/Src/stm32h7xx_hal_rtc_ex.c **** 
1585:Drivers/STM32H7xx_HAL_Driver/Src/stm32h7xx_hal_rtc_ex.c ****   /* Change RTC state */
1586:Drivers/STM32H7xx_HAL_Driver/Src/stm32h7xx_hal_rtc_ex.c ****   hrtc->State = HAL_RTC_STATE_READY;
1587:Drivers/STM32H7xx_HAL_Driver/Src/stm32h7xx_hal_rtc_ex.c **** }
1588:Drivers/STM32H7xx_HAL_Driver/Src/stm32h7xx_hal_rtc_ex.c **** #endif /* RTC_ISR_TSF */
1589:Drivers/STM32H7xx_HAL_Driver/Src/stm32h7xx_hal_rtc_ex.c **** 
1590:Drivers/STM32H7xx_HAL_Driver/Src/stm32h7xx_hal_rtc_ex.c **** /**
ARM GAS  C:\usertemp\cc0y2B3r.s 			page 54


1591:Drivers/STM32H7xx_HAL_Driver/Src/stm32h7xx_hal_rtc_ex.c ****   * @brief  TimeStamp callback.
1592:Drivers/STM32H7xx_HAL_Driver/Src/stm32h7xx_hal_rtc_ex.c ****   * @param  hrtc RTC handle
1593:Drivers/STM32H7xx_HAL_Driver/Src/stm32h7xx_hal_rtc_ex.c ****   * @retval None
1594:Drivers/STM32H7xx_HAL_Driver/Src/stm32h7xx_hal_rtc_ex.c ****   */
1595:Drivers/STM32H7xx_HAL_Driver/Src/stm32h7xx_hal_rtc_ex.c **** __weak void HAL_RTCEx_TimeStampEventCallback(RTC_HandleTypeDef *hrtc)
1596:Drivers/STM32H7xx_HAL_Driver/Src/stm32h7xx_hal_rtc_ex.c **** {
 1351              		.loc 1 1596 1 is_stmt 1 view -0
 1352              		.cfi_startproc
 1353              		@ args = 0, pretend = 0, frame = 0
 1354              		@ frame_needed = 0, uses_anonymous_args = 0
 1355              		@ link register save eliminated.
1597:Drivers/STM32H7xx_HAL_Driver/Src/stm32h7xx_hal_rtc_ex.c ****   /* Prevent unused argument(s) compilation warning */
1598:Drivers/STM32H7xx_HAL_Driver/Src/stm32h7xx_hal_rtc_ex.c ****   UNUSED(hrtc);
 1356              		.loc 1 1598 3 view .LVU511
1599:Drivers/STM32H7xx_HAL_Driver/Src/stm32h7xx_hal_rtc_ex.c **** 
1600:Drivers/STM32H7xx_HAL_Driver/Src/stm32h7xx_hal_rtc_ex.c ****   /* NOTE : This function should not be modified, when the callback is needed,
1601:Drivers/STM32H7xx_HAL_Driver/Src/stm32h7xx_hal_rtc_ex.c ****             the HAL_RTCEx_TimeStampEventCallback could be implemented in the user file
1602:Drivers/STM32H7xx_HAL_Driver/Src/stm32h7xx_hal_rtc_ex.c ****   */
1603:Drivers/STM32H7xx_HAL_Driver/Src/stm32h7xx_hal_rtc_ex.c **** }
 1357              		.loc 1 1603 1 is_stmt 0 view .LVU512
 1358 0000 7047     		bx	lr
 1359              		.cfi_endproc
 1360              	.LFE343:
 1362              		.section	.text.HAL_RTCEx_Tamper1EventCallback,"ax",%progbits
 1363              		.align	1
 1364              		.weak	HAL_RTCEx_Tamper1EventCallback
 1365              		.syntax unified
 1366              		.thumb
 1367              		.thumb_func
 1369              	HAL_RTCEx_Tamper1EventCallback:
 1370              	.LVL109:
 1371              	.LFB344:
1604:Drivers/STM32H7xx_HAL_Driver/Src/stm32h7xx_hal_rtc_ex.c **** 
1605:Drivers/STM32H7xx_HAL_Driver/Src/stm32h7xx_hal_rtc_ex.c **** /**
1606:Drivers/STM32H7xx_HAL_Driver/Src/stm32h7xx_hal_rtc_ex.c ****   * @}
1607:Drivers/STM32H7xx_HAL_Driver/Src/stm32h7xx_hal_rtc_ex.c ****   */
1608:Drivers/STM32H7xx_HAL_Driver/Src/stm32h7xx_hal_rtc_ex.c **** 
1609:Drivers/STM32H7xx_HAL_Driver/Src/stm32h7xx_hal_rtc_ex.c **** /** @addtogroup RTCEx_Exported_Functions_Group5
1610:Drivers/STM32H7xx_HAL_Driver/Src/stm32h7xx_hal_rtc_ex.c ****   * @brief      Extended RTC Tamper functions
1611:Drivers/STM32H7xx_HAL_Driver/Src/stm32h7xx_hal_rtc_ex.c ****   *
1612:Drivers/STM32H7xx_HAL_Driver/Src/stm32h7xx_hal_rtc_ex.c **** * @{
1613:Drivers/STM32H7xx_HAL_Driver/Src/stm32h7xx_hal_rtc_ex.c **** */
1614:Drivers/STM32H7xx_HAL_Driver/Src/stm32h7xx_hal_rtc_ex.c **** 
1615:Drivers/STM32H7xx_HAL_Driver/Src/stm32h7xx_hal_rtc_ex.c **** #if defined(RTC_TAMPER_1)
1616:Drivers/STM32H7xx_HAL_Driver/Src/stm32h7xx_hal_rtc_ex.c **** /**
1617:Drivers/STM32H7xx_HAL_Driver/Src/stm32h7xx_hal_rtc_ex.c ****   * @brief  Tamper 1 callback.
1618:Drivers/STM32H7xx_HAL_Driver/Src/stm32h7xx_hal_rtc_ex.c ****   * @param  hrtc RTC handle
1619:Drivers/STM32H7xx_HAL_Driver/Src/stm32h7xx_hal_rtc_ex.c ****   * @retval None
1620:Drivers/STM32H7xx_HAL_Driver/Src/stm32h7xx_hal_rtc_ex.c ****   */
1621:Drivers/STM32H7xx_HAL_Driver/Src/stm32h7xx_hal_rtc_ex.c **** __weak void HAL_RTCEx_Tamper1EventCallback(RTC_HandleTypeDef * hrtc)
1622:Drivers/STM32H7xx_HAL_Driver/Src/stm32h7xx_hal_rtc_ex.c **** {
 1372              		.loc 1 1622 1 is_stmt 1 view -0
 1373              		.cfi_startproc
 1374              		@ args = 0, pretend = 0, frame = 0
 1375              		@ frame_needed = 0, uses_anonymous_args = 0
 1376              		@ link register save eliminated.
1623:Drivers/STM32H7xx_HAL_Driver/Src/stm32h7xx_hal_rtc_ex.c ****   /* Prevent unused argument(s) compilation warning */
ARM GAS  C:\usertemp\cc0y2B3r.s 			page 55


1624:Drivers/STM32H7xx_HAL_Driver/Src/stm32h7xx_hal_rtc_ex.c ****   UNUSED(hrtc);
 1377              		.loc 1 1624 3 view .LVU514
1625:Drivers/STM32H7xx_HAL_Driver/Src/stm32h7xx_hal_rtc_ex.c **** 
1626:Drivers/STM32H7xx_HAL_Driver/Src/stm32h7xx_hal_rtc_ex.c ****   /* NOTE : This function should not be modified, when the callback is needed,
1627:Drivers/STM32H7xx_HAL_Driver/Src/stm32h7xx_hal_rtc_ex.c ****             the HAL_RTCEx_Tamper1EventCallback could be implemented in the user file
1628:Drivers/STM32H7xx_HAL_Driver/Src/stm32h7xx_hal_rtc_ex.c ****    */
1629:Drivers/STM32H7xx_HAL_Driver/Src/stm32h7xx_hal_rtc_ex.c **** }
 1378              		.loc 1 1629 1 is_stmt 0 view .LVU515
 1379 0000 7047     		bx	lr
 1380              		.cfi_endproc
 1381              	.LFE344:
 1383              		.section	.text.HAL_RTCEx_Tamper2EventCallback,"ax",%progbits
 1384              		.align	1
 1385              		.weak	HAL_RTCEx_Tamper2EventCallback
 1386              		.syntax unified
 1387              		.thumb
 1388              		.thumb_func
 1390              	HAL_RTCEx_Tamper2EventCallback:
 1391              	.LVL110:
 1392              	.LFB345:
1630:Drivers/STM32H7xx_HAL_Driver/Src/stm32h7xx_hal_rtc_ex.c **** #endif /* RTC_TAMPER_1 */
1631:Drivers/STM32H7xx_HAL_Driver/Src/stm32h7xx_hal_rtc_ex.c **** 
1632:Drivers/STM32H7xx_HAL_Driver/Src/stm32h7xx_hal_rtc_ex.c **** #if defined(RTC_TAMPER_2)
1633:Drivers/STM32H7xx_HAL_Driver/Src/stm32h7xx_hal_rtc_ex.c **** /**
1634:Drivers/STM32H7xx_HAL_Driver/Src/stm32h7xx_hal_rtc_ex.c ****   * @brief  Tamper 2 callback.
1635:Drivers/STM32H7xx_HAL_Driver/Src/stm32h7xx_hal_rtc_ex.c ****   * @param  hrtc RTC handle
1636:Drivers/STM32H7xx_HAL_Driver/Src/stm32h7xx_hal_rtc_ex.c ****   * @retval None
1637:Drivers/STM32H7xx_HAL_Driver/Src/stm32h7xx_hal_rtc_ex.c ****   */
1638:Drivers/STM32H7xx_HAL_Driver/Src/stm32h7xx_hal_rtc_ex.c **** __weak void HAL_RTCEx_Tamper2EventCallback(RTC_HandleTypeDef * hrtc)
1639:Drivers/STM32H7xx_HAL_Driver/Src/stm32h7xx_hal_rtc_ex.c **** {
 1393              		.loc 1 1639 1 is_stmt 1 view -0
 1394              		.cfi_startproc
 1395              		@ args = 0, pretend = 0, frame = 0
 1396              		@ frame_needed = 0, uses_anonymous_args = 0
 1397              		@ link register save eliminated.
1640:Drivers/STM32H7xx_HAL_Driver/Src/stm32h7xx_hal_rtc_ex.c ****   /* Prevent unused argument(s) compilation warning */
1641:Drivers/STM32H7xx_HAL_Driver/Src/stm32h7xx_hal_rtc_ex.c ****   UNUSED(hrtc);
 1398              		.loc 1 1641 3 view .LVU517
1642:Drivers/STM32H7xx_HAL_Driver/Src/stm32h7xx_hal_rtc_ex.c **** 
1643:Drivers/STM32H7xx_HAL_Driver/Src/stm32h7xx_hal_rtc_ex.c ****   /* NOTE : This function should not be modified, when the callback is needed,
1644:Drivers/STM32H7xx_HAL_Driver/Src/stm32h7xx_hal_rtc_ex.c ****             the HAL_RTCEx_Tamper2EventCallback could be implemented in the user file
1645:Drivers/STM32H7xx_HAL_Driver/Src/stm32h7xx_hal_rtc_ex.c ****    */
1646:Drivers/STM32H7xx_HAL_Driver/Src/stm32h7xx_hal_rtc_ex.c **** }
 1399              		.loc 1 1646 1 is_stmt 0 view .LVU518
 1400 0000 7047     		bx	lr
 1401              		.cfi_endproc
 1402              	.LFE345:
 1404              		.section	.text.HAL_RTCEx_Tamper3EventCallback,"ax",%progbits
 1405              		.align	1
 1406              		.weak	HAL_RTCEx_Tamper3EventCallback
 1407              		.syntax unified
 1408              		.thumb
 1409              		.thumb_func
 1411              	HAL_RTCEx_Tamper3EventCallback:
 1412              	.LVL111:
 1413              	.LFB346:
1647:Drivers/STM32H7xx_HAL_Driver/Src/stm32h7xx_hal_rtc_ex.c **** #endif /* RTC_TAMPER_2 */
ARM GAS  C:\usertemp\cc0y2B3r.s 			page 56


1648:Drivers/STM32H7xx_HAL_Driver/Src/stm32h7xx_hal_rtc_ex.c **** 
1649:Drivers/STM32H7xx_HAL_Driver/Src/stm32h7xx_hal_rtc_ex.c **** #if defined(RTC_TAMPER_3)
1650:Drivers/STM32H7xx_HAL_Driver/Src/stm32h7xx_hal_rtc_ex.c **** /**
1651:Drivers/STM32H7xx_HAL_Driver/Src/stm32h7xx_hal_rtc_ex.c ****   * @brief  Tamper 3 callback.
1652:Drivers/STM32H7xx_HAL_Driver/Src/stm32h7xx_hal_rtc_ex.c ****   * @param  hrtc RTC handle
1653:Drivers/STM32H7xx_HAL_Driver/Src/stm32h7xx_hal_rtc_ex.c ****   * @retval None
1654:Drivers/STM32H7xx_HAL_Driver/Src/stm32h7xx_hal_rtc_ex.c ****   */
1655:Drivers/STM32H7xx_HAL_Driver/Src/stm32h7xx_hal_rtc_ex.c **** __weak void HAL_RTCEx_Tamper3EventCallback(RTC_HandleTypeDef * hrtc)
1656:Drivers/STM32H7xx_HAL_Driver/Src/stm32h7xx_hal_rtc_ex.c **** {
 1414              		.loc 1 1656 1 is_stmt 1 view -0
 1415              		.cfi_startproc
 1416              		@ args = 0, pretend = 0, frame = 0
 1417              		@ frame_needed = 0, uses_anonymous_args = 0
 1418              		@ link register save eliminated.
1657:Drivers/STM32H7xx_HAL_Driver/Src/stm32h7xx_hal_rtc_ex.c ****   /* Prevent unused argument(s) compilation warning */
1658:Drivers/STM32H7xx_HAL_Driver/Src/stm32h7xx_hal_rtc_ex.c ****   UNUSED(hrtc);
 1419              		.loc 1 1658 3 view .LVU520
1659:Drivers/STM32H7xx_HAL_Driver/Src/stm32h7xx_hal_rtc_ex.c **** 
1660:Drivers/STM32H7xx_HAL_Driver/Src/stm32h7xx_hal_rtc_ex.c ****   /* NOTE : This function should not be modified, when the callback is needed,
1661:Drivers/STM32H7xx_HAL_Driver/Src/stm32h7xx_hal_rtc_ex.c ****             the HAL_RTCEx_Tamper3EventCallback could be implemented in the user file
1662:Drivers/STM32H7xx_HAL_Driver/Src/stm32h7xx_hal_rtc_ex.c ****    */
1663:Drivers/STM32H7xx_HAL_Driver/Src/stm32h7xx_hal_rtc_ex.c **** }
 1420              		.loc 1 1663 1 is_stmt 0 view .LVU521
 1421 0000 7047     		bx	lr
 1422              		.cfi_endproc
 1423              	.LFE346:
 1425              		.section	.text.HAL_RTCEx_TamperTimeStampIRQHandler,"ax",%progbits
 1426              		.align	1
 1427              		.global	HAL_RTCEx_TamperTimeStampIRQHandler
 1428              		.syntax unified
 1429              		.thumb
 1430              		.thumb_func
 1432              	HAL_RTCEx_TamperTimeStampIRQHandler:
 1433              	.LVL112:
 1434              	.LFB342:
1492:Drivers/STM32H7xx_HAL_Driver/Src/stm32h7xx_hal_rtc_ex.c ****   /* Clear the EXTI's Flag for RTC TimeStamp and Tamper */
 1435              		.loc 1 1492 1 is_stmt 1 view -0
 1436              		.cfi_startproc
 1437              		@ args = 0, pretend = 0, frame = 0
 1438              		@ frame_needed = 0, uses_anonymous_args = 0
1492:Drivers/STM32H7xx_HAL_Driver/Src/stm32h7xx_hal_rtc_ex.c ****   /* Clear the EXTI's Flag for RTC TimeStamp and Tamper */
 1439              		.loc 1 1492 1 is_stmt 0 view .LVU523
 1440 0000 10B5     		push	{r4, lr}
 1441              	.LCFI17:
 1442              		.cfi_def_cfa_offset 8
 1443              		.cfi_offset 4, -8
 1444              		.cfi_offset 14, -4
 1445 0002 0446     		mov	r4, r0
1504:Drivers/STM32H7xx_HAL_Driver/Src/stm32h7xx_hal_rtc_ex.c **** #endif /* DUAL_CORE */
 1446              		.loc 1 1504 3 is_stmt 1 view .LVU524
 1447 0004 4FF0B043 		mov	r3, #1476395008
 1448 0008 4FF48022 		mov	r2, #262144
 1449 000c C3F88820 		str	r2, [r3, #136]
1508:Drivers/STM32H7xx_HAL_Driver/Src/stm32h7xx_hal_rtc_ex.c ****   {
 1450              		.loc 1 1508 3 view .LVU525
1508:Drivers/STM32H7xx_HAL_Driver/Src/stm32h7xx_hal_rtc_ex.c ****   {
 1451              		.loc 1 1508 7 is_stmt 0 view .LVU526
ARM GAS  C:\usertemp\cc0y2B3r.s 			page 57


 1452 0010 0368     		ldr	r3, [r0]
 1453 0012 9A68     		ldr	r2, [r3, #8]
1508:Drivers/STM32H7xx_HAL_Driver/Src/stm32h7xx_hal_rtc_ex.c ****   {
 1454              		.loc 1 1508 6 view .LVU527
 1455 0014 12F4004F 		tst	r2, #32768
 1456 0018 03D0     		beq	.L95
1511:Drivers/STM32H7xx_HAL_Driver/Src/stm32h7xx_hal_rtc_ex.c ****     {
 1457              		.loc 1 1511 5 is_stmt 1 view .LVU528
1511:Drivers/STM32H7xx_HAL_Driver/Src/stm32h7xx_hal_rtc_ex.c ****     {
 1458              		.loc 1 1511 9 is_stmt 0 view .LVU529
 1459 001a DB68     		ldr	r3, [r3, #12]
1511:Drivers/STM32H7xx_HAL_Driver/Src/stm32h7xx_hal_rtc_ex.c ****     {
 1460              		.loc 1 1511 8 view .LVU530
 1461 001c 13F4006F 		tst	r3, #2048
 1462 0020 1ED1     		bne	.L100
 1463              	.LVL113:
 1464              	.L95:
1527:Drivers/STM32H7xx_HAL_Driver/Src/stm32h7xx_hal_rtc_ex.c ****   {
 1465              		.loc 1 1527 3 is_stmt 1 view .LVU531
1527:Drivers/STM32H7xx_HAL_Driver/Src/stm32h7xx_hal_rtc_ex.c ****   {
 1466              		.loc 1 1527 7 is_stmt 0 view .LVU532
 1467 0022 2268     		ldr	r2, [r4]
 1468 0024 116C     		ldr	r1, [r2, #64]
 1469 0026 234B     		ldr	r3, .L104
 1470 0028 0B40     		ands	r3, r3, r1
1527:Drivers/STM32H7xx_HAL_Driver/Src/stm32h7xx_hal_rtc_ex.c ****   {
 1471              		.loc 1 1527 6 view .LVU533
 1472 002a 1BB1     		cbz	r3, .L96
1530:Drivers/STM32H7xx_HAL_Driver/Src/stm32h7xx_hal_rtc_ex.c ****     {
 1473              		.loc 1 1530 5 is_stmt 1 view .LVU534
1530:Drivers/STM32H7xx_HAL_Driver/Src/stm32h7xx_hal_rtc_ex.c ****     {
 1474              		.loc 1 1530 9 is_stmt 0 view .LVU535
 1475 002c D368     		ldr	r3, [r2, #12]
1530:Drivers/STM32H7xx_HAL_Driver/Src/stm32h7xx_hal_rtc_ex.c ****     {
 1476              		.loc 1 1530 8 view .LVU536
 1477 002e 13F4005F 		tst	r3, #8192
 1478 0032 1ED1     		bne	.L101
 1479              	.L96:
1547:Drivers/STM32H7xx_HAL_Driver/Src/stm32h7xx_hal_rtc_ex.c ****   {
 1480              		.loc 1 1547 3 is_stmt 1 view .LVU537
1547:Drivers/STM32H7xx_HAL_Driver/Src/stm32h7xx_hal_rtc_ex.c ****   {
 1481              		.loc 1 1547 7 is_stmt 0 view .LVU538
 1482 0034 2268     		ldr	r2, [r4]
 1483 0036 116C     		ldr	r1, [r2, #64]
 1484 0038 1F4B     		ldr	r3, .L104+4
 1485 003a 0B40     		ands	r3, r3, r1
1547:Drivers/STM32H7xx_HAL_Driver/Src/stm32h7xx_hal_rtc_ex.c ****   {
 1486              		.loc 1 1547 6 view .LVU539
 1487 003c 1BB1     		cbz	r3, .L97
1550:Drivers/STM32H7xx_HAL_Driver/Src/stm32h7xx_hal_rtc_ex.c ****     {
 1488              		.loc 1 1550 5 is_stmt 1 view .LVU540
1550:Drivers/STM32H7xx_HAL_Driver/Src/stm32h7xx_hal_rtc_ex.c ****     {
 1489              		.loc 1 1550 9 is_stmt 0 view .LVU541
 1490 003e D368     		ldr	r3, [r2, #12]
1550:Drivers/STM32H7xx_HAL_Driver/Src/stm32h7xx_hal_rtc_ex.c ****     {
 1491              		.loc 1 1550 8 view .LVU542
 1492 0040 13F4804F 		tst	r3, #16384
ARM GAS  C:\usertemp\cc0y2B3r.s 			page 58


 1493 0044 1ED1     		bne	.L102
 1494              	.L97:
1567:Drivers/STM32H7xx_HAL_Driver/Src/stm32h7xx_hal_rtc_ex.c ****   {
 1495              		.loc 1 1567 3 is_stmt 1 view .LVU543
1567:Drivers/STM32H7xx_HAL_Driver/Src/stm32h7xx_hal_rtc_ex.c ****   {
 1496              		.loc 1 1567 7 is_stmt 0 view .LVU544
 1497 0046 2268     		ldr	r2, [r4]
 1498 0048 116C     		ldr	r1, [r2, #64]
 1499 004a 1C4B     		ldr	r3, .L104+8
 1500 004c 0B40     		ands	r3, r3, r1
1567:Drivers/STM32H7xx_HAL_Driver/Src/stm32h7xx_hal_rtc_ex.c ****   {
 1501              		.loc 1 1567 6 view .LVU545
 1502 004e 1BB1     		cbz	r3, .L98
1570:Drivers/STM32H7xx_HAL_Driver/Src/stm32h7xx_hal_rtc_ex.c ****     {
 1503              		.loc 1 1570 5 is_stmt 1 view .LVU546
1570:Drivers/STM32H7xx_HAL_Driver/Src/stm32h7xx_hal_rtc_ex.c ****     {
 1504              		.loc 1 1570 9 is_stmt 0 view .LVU547
 1505 0050 D368     		ldr	r3, [r2, #12]
1570:Drivers/STM32H7xx_HAL_Driver/Src/stm32h7xx_hal_rtc_ex.c ****     {
 1506              		.loc 1 1570 8 view .LVU548
 1507 0052 13F4004F 		tst	r3, #32768
 1508 0056 1ED1     		bne	.L103
 1509              	.L98:
1586:Drivers/STM32H7xx_HAL_Driver/Src/stm32h7xx_hal_rtc_ex.c **** }
 1510              		.loc 1 1586 3 is_stmt 1 view .LVU549
1586:Drivers/STM32H7xx_HAL_Driver/Src/stm32h7xx_hal_rtc_ex.c **** }
 1511              		.loc 1 1586 15 is_stmt 0 view .LVU550
 1512 0058 0123     		movs	r3, #1
 1513 005a 84F82130 		strb	r3, [r4, #33]
1587:Drivers/STM32H7xx_HAL_Driver/Src/stm32h7xx_hal_rtc_ex.c **** #endif /* RTC_ISR_TSF */
 1514              		.loc 1 1587 1 view .LVU551
 1515 005e 10BD     		pop	{r4, pc}
 1516              	.LVL114:
 1517              	.L100:
1517:Drivers/STM32H7xx_HAL_Driver/Src/stm32h7xx_hal_rtc_ex.c **** #endif /* (USE_HAL_RTC_REGISTER_CALLBACKS == 1) */
 1518              		.loc 1 1517 7 is_stmt 1 view .LVU552
 1519 0060 FFF7FEFF 		bl	HAL_RTCEx_TimeStampEventCallback
 1520              	.LVL115:
1521:Drivers/STM32H7xx_HAL_Driver/Src/stm32h7xx_hal_rtc_ex.c ****     }
 1521              		.loc 1 1521 7 view .LVU553
 1522 0064 2268     		ldr	r2, [r4]
 1523 0066 D368     		ldr	r3, [r2, #12]
 1524 0068 DBB2     		uxtb	r3, r3
 1525 006a 63F40863 		orn	r3, r3, #2176
 1526 006e D360     		str	r3, [r2, #12]
 1527 0070 D7E7     		b	.L95
 1528              	.L101:
1533:Drivers/STM32H7xx_HAL_Driver/Src/stm32h7xx_hal_rtc_ex.c **** 
 1529              		.loc 1 1533 7 view .LVU554
 1530 0072 D368     		ldr	r3, [r2, #12]
 1531 0074 DBB2     		uxtb	r3, r3
 1532 0076 63F40253 		orn	r3, r3, #8320
 1533 007a D360     		str	r3, [r2, #12]
1539:Drivers/STM32H7xx_HAL_Driver/Src/stm32h7xx_hal_rtc_ex.c **** #endif /* (USE_HAL_RTC_REGISTER_CALLBACKS == 1) */
 1534              		.loc 1 1539 7 view .LVU555
 1535 007c 2046     		mov	r0, r4
 1536 007e FFF7FEFF 		bl	HAL_RTCEx_Tamper1EventCallback
ARM GAS  C:\usertemp\cc0y2B3r.s 			page 59


 1537              	.LVL116:
 1538 0082 D7E7     		b	.L96
 1539              	.L102:
1553:Drivers/STM32H7xx_HAL_Driver/Src/stm32h7xx_hal_rtc_ex.c **** 
 1540              		.loc 1 1553 7 view .LVU556
 1541 0084 D368     		ldr	r3, [r2, #12]
 1542 0086 DBB2     		uxtb	r3, r3
 1543 0088 63F48143 		orn	r3, r3, #16512
 1544 008c D360     		str	r3, [r2, #12]
1559:Drivers/STM32H7xx_HAL_Driver/Src/stm32h7xx_hal_rtc_ex.c **** #endif /* (USE_HAL_RTC_REGISTER_CALLBACKS == 1) */
 1545              		.loc 1 1559 7 view .LVU557
 1546 008e 2046     		mov	r0, r4
 1547 0090 FFF7FEFF 		bl	HAL_RTCEx_Tamper2EventCallback
 1548              	.LVL117:
 1549 0094 D7E7     		b	.L97
 1550              	.L103:
1573:Drivers/STM32H7xx_HAL_Driver/Src/stm32h7xx_hal_rtc_ex.c **** 
 1551              		.loc 1 1573 7 view .LVU558
 1552 0096 D368     		ldr	r3, [r2, #12]
 1553 0098 DBB2     		uxtb	r3, r3
 1554 009a 43F07F43 		orr	r3, r3, #-16777216
 1555 009e 43F47F03 		orr	r3, r3, #16711680
 1556 00a2 43F4FE43 		orr	r3, r3, #32512
 1557 00a6 43F07F03 		orr	r3, r3, #127
 1558 00aa D360     		str	r3, [r2, #12]
1579:Drivers/STM32H7xx_HAL_Driver/Src/stm32h7xx_hal_rtc_ex.c **** #endif /* (USE_HAL_RTC_REGISTER_CALLBACKS == 1) */
 1559              		.loc 1 1579 7 view .LVU559
 1560 00ac 2046     		mov	r0, r4
 1561 00ae FFF7FEFF 		bl	HAL_RTCEx_Tamper3EventCallback
 1562              	.LVL118:
 1563 00b2 D1E7     		b	.L98
 1564              	.L105:
 1565              		.align	2
 1566              	.L104:
 1567 00b4 04000100 		.word	65540
 1568 00b8 04000800 		.word	524292
 1569 00bc 04004000 		.word	4194308
 1570              		.cfi_endproc
 1571              	.LFE342:
 1573              		.section	.text.HAL_RTCEx_InternalTamper1EventCallback,"ax",%progbits
 1574              		.align	1
 1575              		.weak	HAL_RTCEx_InternalTamper1EventCallback
 1576              		.syntax unified
 1577              		.thumb
 1578              		.thumb_func
 1580              	HAL_RTCEx_InternalTamper1EventCallback:
 1581              	.LVL119:
 1582              	.LFB347:
1664:Drivers/STM32H7xx_HAL_Driver/Src/stm32h7xx_hal_rtc_ex.c **** #endif /* RTC_TAMPER_3 */
1665:Drivers/STM32H7xx_HAL_Driver/Src/stm32h7xx_hal_rtc_ex.c **** 
1666:Drivers/STM32H7xx_HAL_Driver/Src/stm32h7xx_hal_rtc_ex.c **** /**
1667:Drivers/STM32H7xx_HAL_Driver/Src/stm32h7xx_hal_rtc_ex.c ****   * @brief  Internal Tamper 1 callback.
1668:Drivers/STM32H7xx_HAL_Driver/Src/stm32h7xx_hal_rtc_ex.c ****   * @param  hrtc RTC handle
1669:Drivers/STM32H7xx_HAL_Driver/Src/stm32h7xx_hal_rtc_ex.c ****   * @retval None
1670:Drivers/STM32H7xx_HAL_Driver/Src/stm32h7xx_hal_rtc_ex.c ****   */
1671:Drivers/STM32H7xx_HAL_Driver/Src/stm32h7xx_hal_rtc_ex.c **** __weak void HAL_RTCEx_InternalTamper1EventCallback(RTC_HandleTypeDef *hrtc)
1672:Drivers/STM32H7xx_HAL_Driver/Src/stm32h7xx_hal_rtc_ex.c **** {
ARM GAS  C:\usertemp\cc0y2B3r.s 			page 60


 1583              		.loc 1 1672 1 view -0
 1584              		.cfi_startproc
 1585              		@ args = 0, pretend = 0, frame = 0
 1586              		@ frame_needed = 0, uses_anonymous_args = 0
 1587              		@ link register save eliminated.
1673:Drivers/STM32H7xx_HAL_Driver/Src/stm32h7xx_hal_rtc_ex.c ****   /* Prevent unused argument(s) compilation warning */
1674:Drivers/STM32H7xx_HAL_Driver/Src/stm32h7xx_hal_rtc_ex.c ****   UNUSED(hrtc);
 1588              		.loc 1 1674 3 view .LVU561
1675:Drivers/STM32H7xx_HAL_Driver/Src/stm32h7xx_hal_rtc_ex.c **** 
1676:Drivers/STM32H7xx_HAL_Driver/Src/stm32h7xx_hal_rtc_ex.c ****   /* NOTE : This function should not be modified, when the callback is needed,
1677:Drivers/STM32H7xx_HAL_Driver/Src/stm32h7xx_hal_rtc_ex.c ****             the HAL_RTCEx_InternalTamper1EventCallback could be implemented in the user file
1678:Drivers/STM32H7xx_HAL_Driver/Src/stm32h7xx_hal_rtc_ex.c ****    */
1679:Drivers/STM32H7xx_HAL_Driver/Src/stm32h7xx_hal_rtc_ex.c **** }
 1589              		.loc 1 1679 1 is_stmt 0 view .LVU562
 1590 0000 7047     		bx	lr
 1591              		.cfi_endproc
 1592              	.LFE347:
 1594              		.section	.text.HAL_RTCEx_InternalTamper2EventCallback,"ax",%progbits
 1595              		.align	1
 1596              		.weak	HAL_RTCEx_InternalTamper2EventCallback
 1597              		.syntax unified
 1598              		.thumb
 1599              		.thumb_func
 1601              	HAL_RTCEx_InternalTamper2EventCallback:
 1602              	.LVL120:
 1603              	.LFB348:
1680:Drivers/STM32H7xx_HAL_Driver/Src/stm32h7xx_hal_rtc_ex.c **** 
1681:Drivers/STM32H7xx_HAL_Driver/Src/stm32h7xx_hal_rtc_ex.c **** /**
1682:Drivers/STM32H7xx_HAL_Driver/Src/stm32h7xx_hal_rtc_ex.c ****   * @brief  Internal Tamper 2 callback.
1683:Drivers/STM32H7xx_HAL_Driver/Src/stm32h7xx_hal_rtc_ex.c ****   * @param  hrtc RTC handle
1684:Drivers/STM32H7xx_HAL_Driver/Src/stm32h7xx_hal_rtc_ex.c ****   * @retval None
1685:Drivers/STM32H7xx_HAL_Driver/Src/stm32h7xx_hal_rtc_ex.c ****   */
1686:Drivers/STM32H7xx_HAL_Driver/Src/stm32h7xx_hal_rtc_ex.c **** __weak void HAL_RTCEx_InternalTamper2EventCallback(RTC_HandleTypeDef *hrtc)
1687:Drivers/STM32H7xx_HAL_Driver/Src/stm32h7xx_hal_rtc_ex.c **** {
 1604              		.loc 1 1687 1 is_stmt 1 view -0
 1605              		.cfi_startproc
 1606              		@ args = 0, pretend = 0, frame = 0
 1607              		@ frame_needed = 0, uses_anonymous_args = 0
 1608              		@ link register save eliminated.
1688:Drivers/STM32H7xx_HAL_Driver/Src/stm32h7xx_hal_rtc_ex.c ****   /* Prevent unused argument(s) compilation warning */
1689:Drivers/STM32H7xx_HAL_Driver/Src/stm32h7xx_hal_rtc_ex.c ****   UNUSED(hrtc);
 1609              		.loc 1 1689 3 view .LVU564
1690:Drivers/STM32H7xx_HAL_Driver/Src/stm32h7xx_hal_rtc_ex.c **** 
1691:Drivers/STM32H7xx_HAL_Driver/Src/stm32h7xx_hal_rtc_ex.c ****   /* NOTE : This function should not be modified, when the callback is needed,
1692:Drivers/STM32H7xx_HAL_Driver/Src/stm32h7xx_hal_rtc_ex.c ****             the HAL_RTCEx_InternalTamper2EventCallback could be implemented in the user file
1693:Drivers/STM32H7xx_HAL_Driver/Src/stm32h7xx_hal_rtc_ex.c ****    */
1694:Drivers/STM32H7xx_HAL_Driver/Src/stm32h7xx_hal_rtc_ex.c **** }
 1610              		.loc 1 1694 1 is_stmt 0 view .LVU565
 1611 0000 7047     		bx	lr
 1612              		.cfi_endproc
 1613              	.LFE348:
 1615              		.section	.text.HAL_RTCEx_InternalTamper3EventCallback,"ax",%progbits
 1616              		.align	1
 1617              		.weak	HAL_RTCEx_InternalTamper3EventCallback
 1618              		.syntax unified
 1619              		.thumb
 1620              		.thumb_func
ARM GAS  C:\usertemp\cc0y2B3r.s 			page 61


 1622              	HAL_RTCEx_InternalTamper3EventCallback:
 1623              	.LVL121:
 1624              	.LFB349:
1695:Drivers/STM32H7xx_HAL_Driver/Src/stm32h7xx_hal_rtc_ex.c **** 
1696:Drivers/STM32H7xx_HAL_Driver/Src/stm32h7xx_hal_rtc_ex.c **** /**
1697:Drivers/STM32H7xx_HAL_Driver/Src/stm32h7xx_hal_rtc_ex.c ****   * @brief  Internal Tamper 3 callback.
1698:Drivers/STM32H7xx_HAL_Driver/Src/stm32h7xx_hal_rtc_ex.c ****   * @param  hrtc RTC handle
1699:Drivers/STM32H7xx_HAL_Driver/Src/stm32h7xx_hal_rtc_ex.c ****   * @retval None
1700:Drivers/STM32H7xx_HAL_Driver/Src/stm32h7xx_hal_rtc_ex.c ****   */
1701:Drivers/STM32H7xx_HAL_Driver/Src/stm32h7xx_hal_rtc_ex.c **** __weak void HAL_RTCEx_InternalTamper3EventCallback(RTC_HandleTypeDef *hrtc)
1702:Drivers/STM32H7xx_HAL_Driver/Src/stm32h7xx_hal_rtc_ex.c **** {
 1625              		.loc 1 1702 1 is_stmt 1 view -0
 1626              		.cfi_startproc
 1627              		@ args = 0, pretend = 0, frame = 0
 1628              		@ frame_needed = 0, uses_anonymous_args = 0
 1629              		@ link register save eliminated.
1703:Drivers/STM32H7xx_HAL_Driver/Src/stm32h7xx_hal_rtc_ex.c ****   /* Prevent unused argument(s) compilation warning */
1704:Drivers/STM32H7xx_HAL_Driver/Src/stm32h7xx_hal_rtc_ex.c ****   UNUSED(hrtc);
 1630              		.loc 1 1704 3 view .LVU567
1705:Drivers/STM32H7xx_HAL_Driver/Src/stm32h7xx_hal_rtc_ex.c **** 
1706:Drivers/STM32H7xx_HAL_Driver/Src/stm32h7xx_hal_rtc_ex.c ****   /* NOTE : This function should not be modified, when the callback is needed,
1707:Drivers/STM32H7xx_HAL_Driver/Src/stm32h7xx_hal_rtc_ex.c ****             the HAL_RTCEx_InternalTamper3EventCallback could be implemented in the user file
1708:Drivers/STM32H7xx_HAL_Driver/Src/stm32h7xx_hal_rtc_ex.c ****    */
1709:Drivers/STM32H7xx_HAL_Driver/Src/stm32h7xx_hal_rtc_ex.c **** }
 1631              		.loc 1 1709 1 is_stmt 0 view .LVU568
 1632 0000 7047     		bx	lr
 1633              		.cfi_endproc
 1634              	.LFE349:
 1636              		.section	.text.HAL_RTCEx_InternalTamper4EventCallback,"ax",%progbits
 1637              		.align	1
 1638              		.weak	HAL_RTCEx_InternalTamper4EventCallback
 1639              		.syntax unified
 1640              		.thumb
 1641              		.thumb_func
 1643              	HAL_RTCEx_InternalTamper4EventCallback:
 1644              	.LVL122:
 1645              	.LFB350:
1710:Drivers/STM32H7xx_HAL_Driver/Src/stm32h7xx_hal_rtc_ex.c **** 
1711:Drivers/STM32H7xx_HAL_Driver/Src/stm32h7xx_hal_rtc_ex.c **** /**
1712:Drivers/STM32H7xx_HAL_Driver/Src/stm32h7xx_hal_rtc_ex.c ****   * @brief  Internal Tamper 4 callback.
1713:Drivers/STM32H7xx_HAL_Driver/Src/stm32h7xx_hal_rtc_ex.c ****   * @param  hrtc RTC handle
1714:Drivers/STM32H7xx_HAL_Driver/Src/stm32h7xx_hal_rtc_ex.c ****   * @retval None
1715:Drivers/STM32H7xx_HAL_Driver/Src/stm32h7xx_hal_rtc_ex.c ****   */
1716:Drivers/STM32H7xx_HAL_Driver/Src/stm32h7xx_hal_rtc_ex.c **** __weak void HAL_RTCEx_InternalTamper4EventCallback(RTC_HandleTypeDef *hrtc)
1717:Drivers/STM32H7xx_HAL_Driver/Src/stm32h7xx_hal_rtc_ex.c **** {
 1646              		.loc 1 1717 1 is_stmt 1 view -0
 1647              		.cfi_startproc
 1648              		@ args = 0, pretend = 0, frame = 0
 1649              		@ frame_needed = 0, uses_anonymous_args = 0
 1650              		@ link register save eliminated.
1718:Drivers/STM32H7xx_HAL_Driver/Src/stm32h7xx_hal_rtc_ex.c ****   /* Prevent unused argument(s) compilation warning */
1719:Drivers/STM32H7xx_HAL_Driver/Src/stm32h7xx_hal_rtc_ex.c ****   UNUSED(hrtc);
 1651              		.loc 1 1719 3 view .LVU570
1720:Drivers/STM32H7xx_HAL_Driver/Src/stm32h7xx_hal_rtc_ex.c **** 
1721:Drivers/STM32H7xx_HAL_Driver/Src/stm32h7xx_hal_rtc_ex.c ****   /* NOTE : This function should not be modified, when the callback is needed,
1722:Drivers/STM32H7xx_HAL_Driver/Src/stm32h7xx_hal_rtc_ex.c ****             the HAL_RTCEx_InternalTamper4EventCallback could be implemented in the user file
1723:Drivers/STM32H7xx_HAL_Driver/Src/stm32h7xx_hal_rtc_ex.c ****    */
ARM GAS  C:\usertemp\cc0y2B3r.s 			page 62


1724:Drivers/STM32H7xx_HAL_Driver/Src/stm32h7xx_hal_rtc_ex.c **** }
 1652              		.loc 1 1724 1 is_stmt 0 view .LVU571
 1653 0000 7047     		bx	lr
 1654              		.cfi_endproc
 1655              	.LFE350:
 1657              		.section	.text.HAL_RTCEx_InternalTamper5EventCallback,"ax",%progbits
 1658              		.align	1
 1659              		.weak	HAL_RTCEx_InternalTamper5EventCallback
 1660              		.syntax unified
 1661              		.thumb
 1662              		.thumb_func
 1664              	HAL_RTCEx_InternalTamper5EventCallback:
 1665              	.LVL123:
 1666              	.LFB351:
1725:Drivers/STM32H7xx_HAL_Driver/Src/stm32h7xx_hal_rtc_ex.c **** 
1726:Drivers/STM32H7xx_HAL_Driver/Src/stm32h7xx_hal_rtc_ex.c **** /**
1727:Drivers/STM32H7xx_HAL_Driver/Src/stm32h7xx_hal_rtc_ex.c ****   * @brief  Internal Tamper 5 callback.
1728:Drivers/STM32H7xx_HAL_Driver/Src/stm32h7xx_hal_rtc_ex.c ****   * @param  hrtc RTC handle
1729:Drivers/STM32H7xx_HAL_Driver/Src/stm32h7xx_hal_rtc_ex.c ****   * @retval None
1730:Drivers/STM32H7xx_HAL_Driver/Src/stm32h7xx_hal_rtc_ex.c ****   */
1731:Drivers/STM32H7xx_HAL_Driver/Src/stm32h7xx_hal_rtc_ex.c **** __weak void HAL_RTCEx_InternalTamper5EventCallback(RTC_HandleTypeDef *hrtc)
1732:Drivers/STM32H7xx_HAL_Driver/Src/stm32h7xx_hal_rtc_ex.c **** {
 1667              		.loc 1 1732 1 is_stmt 1 view -0
 1668              		.cfi_startproc
 1669              		@ args = 0, pretend = 0, frame = 0
 1670              		@ frame_needed = 0, uses_anonymous_args = 0
 1671              		@ link register save eliminated.
1733:Drivers/STM32H7xx_HAL_Driver/Src/stm32h7xx_hal_rtc_ex.c ****   /* Prevent unused argument(s) compilation warning */
1734:Drivers/STM32H7xx_HAL_Driver/Src/stm32h7xx_hal_rtc_ex.c ****   UNUSED(hrtc);
 1672              		.loc 1 1734 3 view .LVU573
1735:Drivers/STM32H7xx_HAL_Driver/Src/stm32h7xx_hal_rtc_ex.c **** 
1736:Drivers/STM32H7xx_HAL_Driver/Src/stm32h7xx_hal_rtc_ex.c ****   /* NOTE : This function should not be modified, when the callback is needed,
1737:Drivers/STM32H7xx_HAL_Driver/Src/stm32h7xx_hal_rtc_ex.c ****             the HAL_RTCEx_InternalTamper5EventCallback could be implemented in the user file
1738:Drivers/STM32H7xx_HAL_Driver/Src/stm32h7xx_hal_rtc_ex.c ****    */
1739:Drivers/STM32H7xx_HAL_Driver/Src/stm32h7xx_hal_rtc_ex.c **** }
 1673              		.loc 1 1739 1 is_stmt 0 view .LVU574
 1674 0000 7047     		bx	lr
 1675              		.cfi_endproc
 1676              	.LFE351:
 1678              		.section	.text.HAL_RTCEx_InternalTamper6EventCallback,"ax",%progbits
 1679              		.align	1
 1680              		.weak	HAL_RTCEx_InternalTamper6EventCallback
 1681              		.syntax unified
 1682              		.thumb
 1683              		.thumb_func
 1685              	HAL_RTCEx_InternalTamper6EventCallback:
 1686              	.LVL124:
 1687              	.LFB352:
1740:Drivers/STM32H7xx_HAL_Driver/Src/stm32h7xx_hal_rtc_ex.c **** 
1741:Drivers/STM32H7xx_HAL_Driver/Src/stm32h7xx_hal_rtc_ex.c **** /**
1742:Drivers/STM32H7xx_HAL_Driver/Src/stm32h7xx_hal_rtc_ex.c ****   * @brief  Internal Tamper 6 callback.
1743:Drivers/STM32H7xx_HAL_Driver/Src/stm32h7xx_hal_rtc_ex.c ****   * @param  hrtc RTC handle
1744:Drivers/STM32H7xx_HAL_Driver/Src/stm32h7xx_hal_rtc_ex.c ****   * @retval None
1745:Drivers/STM32H7xx_HAL_Driver/Src/stm32h7xx_hal_rtc_ex.c ****   */
1746:Drivers/STM32H7xx_HAL_Driver/Src/stm32h7xx_hal_rtc_ex.c **** __weak void HAL_RTCEx_InternalTamper6EventCallback(RTC_HandleTypeDef *hrtc)
1747:Drivers/STM32H7xx_HAL_Driver/Src/stm32h7xx_hal_rtc_ex.c **** {
 1688              		.loc 1 1747 1 is_stmt 1 view -0
ARM GAS  C:\usertemp\cc0y2B3r.s 			page 63


 1689              		.cfi_startproc
 1690              		@ args = 0, pretend = 0, frame = 0
 1691              		@ frame_needed = 0, uses_anonymous_args = 0
 1692              		@ link register save eliminated.
1748:Drivers/STM32H7xx_HAL_Driver/Src/stm32h7xx_hal_rtc_ex.c ****   /* Prevent unused argument(s) compilation warning */
1749:Drivers/STM32H7xx_HAL_Driver/Src/stm32h7xx_hal_rtc_ex.c ****   UNUSED(hrtc);
 1693              		.loc 1 1749 3 view .LVU576
1750:Drivers/STM32H7xx_HAL_Driver/Src/stm32h7xx_hal_rtc_ex.c **** 
1751:Drivers/STM32H7xx_HAL_Driver/Src/stm32h7xx_hal_rtc_ex.c ****   /* NOTE : This function should not be modified, when the callback is needed,
1752:Drivers/STM32H7xx_HAL_Driver/Src/stm32h7xx_hal_rtc_ex.c ****             the HAL_RTCEx_InternalTamper6EventCallback could be implemented in the user file
1753:Drivers/STM32H7xx_HAL_Driver/Src/stm32h7xx_hal_rtc_ex.c ****    */
1754:Drivers/STM32H7xx_HAL_Driver/Src/stm32h7xx_hal_rtc_ex.c **** }
 1694              		.loc 1 1754 1 is_stmt 0 view .LVU577
 1695 0000 7047     		bx	lr
 1696              		.cfi_endproc
 1697              	.LFE352:
 1699              		.section	.text.HAL_RTCEx_InternalTamper8EventCallback,"ax",%progbits
 1700              		.align	1
 1701              		.weak	HAL_RTCEx_InternalTamper8EventCallback
 1702              		.syntax unified
 1703              		.thumb
 1704              		.thumb_func
 1706              	HAL_RTCEx_InternalTamper8EventCallback:
 1707              	.LVL125:
 1708              	.LFB353:
1755:Drivers/STM32H7xx_HAL_Driver/Src/stm32h7xx_hal_rtc_ex.c **** 
1756:Drivers/STM32H7xx_HAL_Driver/Src/stm32h7xx_hal_rtc_ex.c **** /**
1757:Drivers/STM32H7xx_HAL_Driver/Src/stm32h7xx_hal_rtc_ex.c ****   * @brief  Internal Tamper 8 callback.
1758:Drivers/STM32H7xx_HAL_Driver/Src/stm32h7xx_hal_rtc_ex.c ****   * @param  hrtc RTC handle
1759:Drivers/STM32H7xx_HAL_Driver/Src/stm32h7xx_hal_rtc_ex.c ****   * @retval None
1760:Drivers/STM32H7xx_HAL_Driver/Src/stm32h7xx_hal_rtc_ex.c ****   */
1761:Drivers/STM32H7xx_HAL_Driver/Src/stm32h7xx_hal_rtc_ex.c **** __weak void HAL_RTCEx_InternalTamper8EventCallback(RTC_HandleTypeDef *hrtc)
1762:Drivers/STM32H7xx_HAL_Driver/Src/stm32h7xx_hal_rtc_ex.c **** {
 1709              		.loc 1 1762 1 is_stmt 1 view -0
 1710              		.cfi_startproc
 1711              		@ args = 0, pretend = 0, frame = 0
 1712              		@ frame_needed = 0, uses_anonymous_args = 0
 1713              		@ link register save eliminated.
1763:Drivers/STM32H7xx_HAL_Driver/Src/stm32h7xx_hal_rtc_ex.c ****   /* Prevent unused argument(s) compilation warning */
1764:Drivers/STM32H7xx_HAL_Driver/Src/stm32h7xx_hal_rtc_ex.c ****   UNUSED(hrtc);
 1714              		.loc 1 1764 3 view .LVU579
1765:Drivers/STM32H7xx_HAL_Driver/Src/stm32h7xx_hal_rtc_ex.c **** 
1766:Drivers/STM32H7xx_HAL_Driver/Src/stm32h7xx_hal_rtc_ex.c ****   /* NOTE : This function should not be modified, when the callback is needed,
1767:Drivers/STM32H7xx_HAL_Driver/Src/stm32h7xx_hal_rtc_ex.c ****             the HAL_RTCEx_InternalTamper8EventCallback could be implemented in the user file
1768:Drivers/STM32H7xx_HAL_Driver/Src/stm32h7xx_hal_rtc_ex.c ****    */
1769:Drivers/STM32H7xx_HAL_Driver/Src/stm32h7xx_hal_rtc_ex.c **** }
 1715              		.loc 1 1769 1 is_stmt 0 view .LVU580
 1716 0000 7047     		bx	lr
 1717              		.cfi_endproc
 1718              	.LFE353:
 1720              		.section	.text.HAL_RTCEx_PollForTimeStampEvent,"ax",%progbits
 1721              		.align	1
 1722              		.global	HAL_RTCEx_PollForTimeStampEvent
 1723              		.syntax unified
 1724              		.thumb
 1725              		.thumb_func
 1727              	HAL_RTCEx_PollForTimeStampEvent:
ARM GAS  C:\usertemp\cc0y2B3r.s 			page 64


 1728              	.LVL126:
 1729              	.LFB354:
1770:Drivers/STM32H7xx_HAL_Driver/Src/stm32h7xx_hal_rtc_ex.c **** /**
1771:Drivers/STM32H7xx_HAL_Driver/Src/stm32h7xx_hal_rtc_ex.c ****   * @}
1772:Drivers/STM32H7xx_HAL_Driver/Src/stm32h7xx_hal_rtc_ex.c ****   */
1773:Drivers/STM32H7xx_HAL_Driver/Src/stm32h7xx_hal_rtc_ex.c **** 
1774:Drivers/STM32H7xx_HAL_Driver/Src/stm32h7xx_hal_rtc_ex.c **** /** @addtogroup RTCEx_Exported_Functions_Group1
1775:Drivers/STM32H7xx_HAL_Driver/Src/stm32h7xx_hal_rtc_ex.c ****  *  @brief   RTC TimeStamp and Tamper functions
1776:Drivers/STM32H7xx_HAL_Driver/Src/stm32h7xx_hal_rtc_ex.c ****  *
1777:Drivers/STM32H7xx_HAL_Driver/Src/stm32h7xx_hal_rtc_ex.c **** * @{
1778:Drivers/STM32H7xx_HAL_Driver/Src/stm32h7xx_hal_rtc_ex.c **** */
1779:Drivers/STM32H7xx_HAL_Driver/Src/stm32h7xx_hal_rtc_ex.c **** 
1780:Drivers/STM32H7xx_HAL_Driver/Src/stm32h7xx_hal_rtc_ex.c **** /**
1781:Drivers/STM32H7xx_HAL_Driver/Src/stm32h7xx_hal_rtc_ex.c ****   * @brief  Handle TimeStamp polling request.
1782:Drivers/STM32H7xx_HAL_Driver/Src/stm32h7xx_hal_rtc_ex.c ****   * @param  hrtc RTC handle
1783:Drivers/STM32H7xx_HAL_Driver/Src/stm32h7xx_hal_rtc_ex.c ****   * @param  Timeout Timeout duration
1784:Drivers/STM32H7xx_HAL_Driver/Src/stm32h7xx_hal_rtc_ex.c ****   * @retval HAL status
1785:Drivers/STM32H7xx_HAL_Driver/Src/stm32h7xx_hal_rtc_ex.c ****   */
1786:Drivers/STM32H7xx_HAL_Driver/Src/stm32h7xx_hal_rtc_ex.c **** HAL_StatusTypeDef HAL_RTCEx_PollForTimeStampEvent(RTC_HandleTypeDef *hrtc, uint32_t Timeout)
1787:Drivers/STM32H7xx_HAL_Driver/Src/stm32h7xx_hal_rtc_ex.c **** {
 1730              		.loc 1 1787 1 is_stmt 1 view -0
 1731              		.cfi_startproc
 1732              		@ args = 0, pretend = 0, frame = 0
 1733              		@ frame_needed = 0, uses_anonymous_args = 0
 1734              		.loc 1 1787 1 is_stmt 0 view .LVU582
 1735 0000 70B5     		push	{r4, r5, r6, lr}
 1736              	.LCFI18:
 1737              		.cfi_def_cfa_offset 16
 1738              		.cfi_offset 4, -16
 1739              		.cfi_offset 5, -12
 1740              		.cfi_offset 6, -8
 1741              		.cfi_offset 14, -4
 1742 0002 0446     		mov	r4, r0
 1743 0004 0D46     		mov	r5, r1
1788:Drivers/STM32H7xx_HAL_Driver/Src/stm32h7xx_hal_rtc_ex.c ****   uint32_t tickstart = HAL_GetTick();
 1744              		.loc 1 1788 3 is_stmt 1 view .LVU583
 1745              		.loc 1 1788 24 is_stmt 0 view .LVU584
 1746 0006 FFF7FEFF 		bl	HAL_GetTick
 1747              	.LVL127:
 1748              		.loc 1 1788 24 view .LVU585
 1749 000a 0646     		mov	r6, r0
 1750              	.LVL128:
1789:Drivers/STM32H7xx_HAL_Driver/Src/stm32h7xx_hal_rtc_ex.c **** 
1790:Drivers/STM32H7xx_HAL_Driver/Src/stm32h7xx_hal_rtc_ex.c ****   while (__HAL_RTC_TIMESTAMP_GET_FLAG(hrtc, RTC_FLAG_TSF) == 0U)
 1751              		.loc 1 1790 3 is_stmt 1 view .LVU586
 1752              	.L117:
 1753              		.loc 1 1790 59 view .LVU587
 1754              		.loc 1 1790 10 is_stmt 0 view .LVU588
 1755 000c 2368     		ldr	r3, [r4]
 1756 000e DA68     		ldr	r2, [r3, #12]
 1757              		.loc 1 1790 59 view .LVU589
 1758 0010 12F4006F 		tst	r2, #2048
 1759 0014 1BD1     		bne	.L121
1791:Drivers/STM32H7xx_HAL_Driver/Src/stm32h7xx_hal_rtc_ex.c ****   {
1792:Drivers/STM32H7xx_HAL_Driver/Src/stm32h7xx_hal_rtc_ex.c ****     if (__HAL_RTC_TIMESTAMP_GET_FLAG(hrtc, RTC_FLAG_TSOVF) != 0U)
 1760              		.loc 1 1792 5 is_stmt 1 view .LVU590
 1761              		.loc 1 1792 9 is_stmt 0 view .LVU591
ARM GAS  C:\usertemp\cc0y2B3r.s 			page 65


 1762 0016 DA68     		ldr	r2, [r3, #12]
 1763              		.loc 1 1792 8 view .LVU592
 1764 0018 12F4805F 		tst	r2, #4096
 1765 001c 0DD1     		bne	.L122
1793:Drivers/STM32H7xx_HAL_Driver/Src/stm32h7xx_hal_rtc_ex.c ****     {
1794:Drivers/STM32H7xx_HAL_Driver/Src/stm32h7xx_hal_rtc_ex.c ****       /* Clear the TIMESTAMP OverRun Flag */
1795:Drivers/STM32H7xx_HAL_Driver/Src/stm32h7xx_hal_rtc_ex.c ****       __HAL_RTC_TIMESTAMP_CLEAR_FLAG(hrtc, RTC_FLAG_TSOVF);
1796:Drivers/STM32H7xx_HAL_Driver/Src/stm32h7xx_hal_rtc_ex.c **** 
1797:Drivers/STM32H7xx_HAL_Driver/Src/stm32h7xx_hal_rtc_ex.c ****       /* Change TIMESTAMP state */
1798:Drivers/STM32H7xx_HAL_Driver/Src/stm32h7xx_hal_rtc_ex.c ****       hrtc->State = HAL_RTC_STATE_ERROR;
1799:Drivers/STM32H7xx_HAL_Driver/Src/stm32h7xx_hal_rtc_ex.c **** 
1800:Drivers/STM32H7xx_HAL_Driver/Src/stm32h7xx_hal_rtc_ex.c ****       return HAL_ERROR;
1801:Drivers/STM32H7xx_HAL_Driver/Src/stm32h7xx_hal_rtc_ex.c ****     }
1802:Drivers/STM32H7xx_HAL_Driver/Src/stm32h7xx_hal_rtc_ex.c **** 
1803:Drivers/STM32H7xx_HAL_Driver/Src/stm32h7xx_hal_rtc_ex.c ****     if (Timeout != HAL_MAX_DELAY)
 1766              		.loc 1 1803 5 is_stmt 1 view .LVU593
 1767              		.loc 1 1803 8 is_stmt 0 view .LVU594
 1768 001e B5F1FF3F 		cmp	r5, #-1
 1769 0022 F3D0     		beq	.L117
1804:Drivers/STM32H7xx_HAL_Driver/Src/stm32h7xx_hal_rtc_ex.c ****     {
1805:Drivers/STM32H7xx_HAL_Driver/Src/stm32h7xx_hal_rtc_ex.c ****       if (((HAL_GetTick() - tickstart) > Timeout) || (Timeout == 0U))
 1770              		.loc 1 1805 7 is_stmt 1 view .LVU595
 1771              		.loc 1 1805 13 is_stmt 0 view .LVU596
 1772 0024 FFF7FEFF 		bl	HAL_GetTick
 1773              	.LVL129:
 1774              		.loc 1 1805 27 discriminator 1 view .LVU597
 1775 0028 801B     		subs	r0, r0, r6
 1776              		.loc 1 1805 10 discriminator 1 view .LVU598
 1777 002a A842     		cmp	r0, r5
 1778 002c 01D8     		bhi	.L118
 1779              		.loc 1 1805 51 discriminator 1 view .LVU599
 1780 002e 002D     		cmp	r5, #0
 1781 0030 ECD1     		bne	.L117
 1782              	.L118:
1806:Drivers/STM32H7xx_HAL_Driver/Src/stm32h7xx_hal_rtc_ex.c ****       {
1807:Drivers/STM32H7xx_HAL_Driver/Src/stm32h7xx_hal_rtc_ex.c ****         hrtc->State = HAL_RTC_STATE_TIMEOUT;
 1783              		.loc 1 1807 9 is_stmt 1 view .LVU600
 1784              		.loc 1 1807 21 is_stmt 0 view .LVU601
 1785 0032 0320     		movs	r0, #3
 1786 0034 84F82100 		strb	r0, [r4, #33]
1808:Drivers/STM32H7xx_HAL_Driver/Src/stm32h7xx_hal_rtc_ex.c ****         return HAL_TIMEOUT;
 1787              		.loc 1 1808 9 is_stmt 1 view .LVU602
 1788              		.loc 1 1808 16 is_stmt 0 view .LVU603
 1789 0038 0DE0     		b	.L116
 1790              	.L122:
1795:Drivers/STM32H7xx_HAL_Driver/Src/stm32h7xx_hal_rtc_ex.c **** 
 1791              		.loc 1 1795 7 is_stmt 1 view .LVU604
 1792 003a DA68     		ldr	r2, [r3, #12]
 1793 003c D2B2     		uxtb	r2, r2
 1794 003e 62F48452 		orn	r2, r2, #4224
 1795 0042 DA60     		str	r2, [r3, #12]
1798:Drivers/STM32H7xx_HAL_Driver/Src/stm32h7xx_hal_rtc_ex.c **** 
 1796              		.loc 1 1798 7 view .LVU605
1798:Drivers/STM32H7xx_HAL_Driver/Src/stm32h7xx_hal_rtc_ex.c **** 
 1797              		.loc 1 1798 19 is_stmt 0 view .LVU606
 1798 0044 0423     		movs	r3, #4
 1799 0046 84F82130 		strb	r3, [r4, #33]
ARM GAS  C:\usertemp\cc0y2B3r.s 			page 66


1800:Drivers/STM32H7xx_HAL_Driver/Src/stm32h7xx_hal_rtc_ex.c ****     }
 1800              		.loc 1 1800 7 is_stmt 1 view .LVU607
1800:Drivers/STM32H7xx_HAL_Driver/Src/stm32h7xx_hal_rtc_ex.c ****     }
 1801              		.loc 1 1800 14 is_stmt 0 view .LVU608
 1802 004a 0120     		movs	r0, #1
 1803 004c 03E0     		b	.L116
 1804              	.L121:
1809:Drivers/STM32H7xx_HAL_Driver/Src/stm32h7xx_hal_rtc_ex.c ****       }
1810:Drivers/STM32H7xx_HAL_Driver/Src/stm32h7xx_hal_rtc_ex.c ****     }
1811:Drivers/STM32H7xx_HAL_Driver/Src/stm32h7xx_hal_rtc_ex.c ****   }
1812:Drivers/STM32H7xx_HAL_Driver/Src/stm32h7xx_hal_rtc_ex.c **** 
1813:Drivers/STM32H7xx_HAL_Driver/Src/stm32h7xx_hal_rtc_ex.c ****   /* Change RTC state */
1814:Drivers/STM32H7xx_HAL_Driver/Src/stm32h7xx_hal_rtc_ex.c ****   hrtc->State = HAL_RTC_STATE_READY;
 1805              		.loc 1 1814 3 is_stmt 1 view .LVU609
 1806              		.loc 1 1814 15 is_stmt 0 view .LVU610
 1807 004e 0123     		movs	r3, #1
 1808 0050 84F82130 		strb	r3, [r4, #33]
1815:Drivers/STM32H7xx_HAL_Driver/Src/stm32h7xx_hal_rtc_ex.c **** 
1816:Drivers/STM32H7xx_HAL_Driver/Src/stm32h7xx_hal_rtc_ex.c ****   return HAL_OK;
 1809              		.loc 1 1816 3 is_stmt 1 view .LVU611
 1810              		.loc 1 1816 10 is_stmt 0 view .LVU612
 1811 0054 0020     		movs	r0, #0
 1812              	.L116:
1817:Drivers/STM32H7xx_HAL_Driver/Src/stm32h7xx_hal_rtc_ex.c **** }
 1813              		.loc 1 1817 1 view .LVU613
 1814 0056 70BD     		pop	{r4, r5, r6, pc}
 1815              		.loc 1 1817 1 view .LVU614
 1816              		.cfi_endproc
 1817              	.LFE354:
 1819              		.section	.text.HAL_RTCEx_PollForTamper1Event,"ax",%progbits
 1820              		.align	1
 1821              		.global	HAL_RTCEx_PollForTamper1Event
 1822              		.syntax unified
 1823              		.thumb
 1824              		.thumb_func
 1826              	HAL_RTCEx_PollForTamper1Event:
 1827              	.LVL130:
 1828              	.LFB355:
1818:Drivers/STM32H7xx_HAL_Driver/Src/stm32h7xx_hal_rtc_ex.c **** 
1819:Drivers/STM32H7xx_HAL_Driver/Src/stm32h7xx_hal_rtc_ex.c **** /**
1820:Drivers/STM32H7xx_HAL_Driver/Src/stm32h7xx_hal_rtc_ex.c ****   * @}
1821:Drivers/STM32H7xx_HAL_Driver/Src/stm32h7xx_hal_rtc_ex.c ****   */
1822:Drivers/STM32H7xx_HAL_Driver/Src/stm32h7xx_hal_rtc_ex.c **** 
1823:Drivers/STM32H7xx_HAL_Driver/Src/stm32h7xx_hal_rtc_ex.c **** /** @addtogroup RTCEx_Exported_Functions_Group5
1824:Drivers/STM32H7xx_HAL_Driver/Src/stm32h7xx_hal_rtc_ex.c ****   * @brief      Extended RTC Tamper functions
1825:Drivers/STM32H7xx_HAL_Driver/Src/stm32h7xx_hal_rtc_ex.c ****   *
1826:Drivers/STM32H7xx_HAL_Driver/Src/stm32h7xx_hal_rtc_ex.c **** * @{
1827:Drivers/STM32H7xx_HAL_Driver/Src/stm32h7xx_hal_rtc_ex.c **** */
1828:Drivers/STM32H7xx_HAL_Driver/Src/stm32h7xx_hal_rtc_ex.c **** 
1829:Drivers/STM32H7xx_HAL_Driver/Src/stm32h7xx_hal_rtc_ex.c **** #if defined(RTC_TAMPER_1)
1830:Drivers/STM32H7xx_HAL_Driver/Src/stm32h7xx_hal_rtc_ex.c **** /**
1831:Drivers/STM32H7xx_HAL_Driver/Src/stm32h7xx_hal_rtc_ex.c ****   * @brief  Handle Tamper1 Polling.
1832:Drivers/STM32H7xx_HAL_Driver/Src/stm32h7xx_hal_rtc_ex.c ****   * @param  hrtc RTC handle
1833:Drivers/STM32H7xx_HAL_Driver/Src/stm32h7xx_hal_rtc_ex.c ****   * @param  Timeout Timeout duration
1834:Drivers/STM32H7xx_HAL_Driver/Src/stm32h7xx_hal_rtc_ex.c ****   * @retval HAL status
1835:Drivers/STM32H7xx_HAL_Driver/Src/stm32h7xx_hal_rtc_ex.c ****   */
1836:Drivers/STM32H7xx_HAL_Driver/Src/stm32h7xx_hal_rtc_ex.c **** HAL_StatusTypeDef HAL_RTCEx_PollForTamper1Event(RTC_HandleTypeDef * hrtc, uint32_t Timeout)
ARM GAS  C:\usertemp\cc0y2B3r.s 			page 67


1837:Drivers/STM32H7xx_HAL_Driver/Src/stm32h7xx_hal_rtc_ex.c **** {
 1829              		.loc 1 1837 1 is_stmt 1 view -0
 1830              		.cfi_startproc
 1831              		@ args = 0, pretend = 0, frame = 0
 1832              		@ frame_needed = 0, uses_anonymous_args = 0
 1833              		.loc 1 1837 1 is_stmt 0 view .LVU616
 1834 0000 70B5     		push	{r4, r5, r6, lr}
 1835              	.LCFI19:
 1836              		.cfi_def_cfa_offset 16
 1837              		.cfi_offset 4, -16
 1838              		.cfi_offset 5, -12
 1839              		.cfi_offset 6, -8
 1840              		.cfi_offset 14, -4
 1841 0002 0446     		mov	r4, r0
 1842 0004 0D46     		mov	r5, r1
1838:Drivers/STM32H7xx_HAL_Driver/Src/stm32h7xx_hal_rtc_ex.c ****   uint32_t tickstart = HAL_GetTick();
 1843              		.loc 1 1838 3 is_stmt 1 view .LVU617
 1844              		.loc 1 1838 24 is_stmt 0 view .LVU618
 1845 0006 FFF7FEFF 		bl	HAL_GetTick
 1846              	.LVL131:
 1847              		.loc 1 1838 24 view .LVU619
 1848 000a 0646     		mov	r6, r0
 1849              	.LVL132:
1839:Drivers/STM32H7xx_HAL_Driver/Src/stm32h7xx_hal_rtc_ex.c **** 
1840:Drivers/STM32H7xx_HAL_Driver/Src/stm32h7xx_hal_rtc_ex.c ****   /* Get the status of the Interrupt */
1841:Drivers/STM32H7xx_HAL_Driver/Src/stm32h7xx_hal_rtc_ex.c ****   while (__HAL_RTC_TAMPER_GET_FLAG(hrtc, RTC_FLAG_TAMP1F) == 0U)
 1850              		.loc 1 1841 3 is_stmt 1 view .LVU620
 1851              	.L125:
 1852              		.loc 1 1841 59 view .LVU621
 1853              		.loc 1 1841 10 is_stmt 0 view .LVU622
 1854 000c 2368     		ldr	r3, [r4]
 1855 000e DA68     		ldr	r2, [r3, #12]
 1856              		.loc 1 1841 59 view .LVU623
 1857 0010 12F4005F 		tst	r2, #8192
 1858 0014 0DD1     		bne	.L130
1842:Drivers/STM32H7xx_HAL_Driver/Src/stm32h7xx_hal_rtc_ex.c ****   {
1843:Drivers/STM32H7xx_HAL_Driver/Src/stm32h7xx_hal_rtc_ex.c ****     if (Timeout != HAL_MAX_DELAY)
 1859              		.loc 1 1843 5 is_stmt 1 view .LVU624
 1860              		.loc 1 1843 8 is_stmt 0 view .LVU625
 1861 0016 B5F1FF3F 		cmp	r5, #-1
 1862 001a F7D0     		beq	.L125
1844:Drivers/STM32H7xx_HAL_Driver/Src/stm32h7xx_hal_rtc_ex.c ****     {
1845:Drivers/STM32H7xx_HAL_Driver/Src/stm32h7xx_hal_rtc_ex.c ****       if (((HAL_GetTick() - tickstart) > Timeout) || (Timeout == 0U))
 1863              		.loc 1 1845 7 is_stmt 1 view .LVU626
 1864              		.loc 1 1845 13 is_stmt 0 view .LVU627
 1865 001c FFF7FEFF 		bl	HAL_GetTick
 1866              	.LVL133:
 1867              		.loc 1 1845 27 discriminator 1 view .LVU628
 1868 0020 801B     		subs	r0, r0, r6
 1869              		.loc 1 1845 10 discriminator 1 view .LVU629
 1870 0022 A842     		cmp	r0, r5
 1871 0024 01D8     		bhi	.L126
 1872              		.loc 1 1845 51 discriminator 1 view .LVU630
 1873 0026 002D     		cmp	r5, #0
 1874 0028 F0D1     		bne	.L125
 1875              	.L126:
1846:Drivers/STM32H7xx_HAL_Driver/Src/stm32h7xx_hal_rtc_ex.c ****       {
ARM GAS  C:\usertemp\cc0y2B3r.s 			page 68


1847:Drivers/STM32H7xx_HAL_Driver/Src/stm32h7xx_hal_rtc_ex.c ****         hrtc->State = HAL_RTC_STATE_TIMEOUT;
 1876              		.loc 1 1847 9 is_stmt 1 view .LVU631
 1877              		.loc 1 1847 21 is_stmt 0 view .LVU632
 1878 002a 0320     		movs	r0, #3
 1879 002c 84F82100 		strb	r0, [r4, #33]
1848:Drivers/STM32H7xx_HAL_Driver/Src/stm32h7xx_hal_rtc_ex.c ****         return HAL_TIMEOUT;
 1880              		.loc 1 1848 9 is_stmt 1 view .LVU633
 1881              		.loc 1 1848 16 is_stmt 0 view .LVU634
 1882 0030 08E0     		b	.L127
 1883              	.L130:
1849:Drivers/STM32H7xx_HAL_Driver/Src/stm32h7xx_hal_rtc_ex.c ****       }
1850:Drivers/STM32H7xx_HAL_Driver/Src/stm32h7xx_hal_rtc_ex.c ****     }
1851:Drivers/STM32H7xx_HAL_Driver/Src/stm32h7xx_hal_rtc_ex.c ****   }
1852:Drivers/STM32H7xx_HAL_Driver/Src/stm32h7xx_hal_rtc_ex.c **** 
1853:Drivers/STM32H7xx_HAL_Driver/Src/stm32h7xx_hal_rtc_ex.c ****   /* Clear the Tamper Flag */
1854:Drivers/STM32H7xx_HAL_Driver/Src/stm32h7xx_hal_rtc_ex.c ****   __HAL_RTC_TAMPER_CLEAR_FLAG(hrtc, RTC_FLAG_TAMP1F);
 1884              		.loc 1 1854 3 is_stmt 1 view .LVU635
 1885 0032 DA68     		ldr	r2, [r3, #12]
 1886 0034 D2B2     		uxtb	r2, r2
 1887 0036 62F40252 		orn	r2, r2, #8320
 1888 003a DA60     		str	r2, [r3, #12]
1855:Drivers/STM32H7xx_HAL_Driver/Src/stm32h7xx_hal_rtc_ex.c **** 
1856:Drivers/STM32H7xx_HAL_Driver/Src/stm32h7xx_hal_rtc_ex.c ****   /* Change RTC state */
1857:Drivers/STM32H7xx_HAL_Driver/Src/stm32h7xx_hal_rtc_ex.c ****   hrtc->State = HAL_RTC_STATE_READY;
 1889              		.loc 1 1857 3 view .LVU636
 1890              		.loc 1 1857 15 is_stmt 0 view .LVU637
 1891 003c 0123     		movs	r3, #1
 1892 003e 84F82130 		strb	r3, [r4, #33]
1858:Drivers/STM32H7xx_HAL_Driver/Src/stm32h7xx_hal_rtc_ex.c **** 
1859:Drivers/STM32H7xx_HAL_Driver/Src/stm32h7xx_hal_rtc_ex.c ****   return HAL_OK;
 1893              		.loc 1 1859 3 is_stmt 1 view .LVU638
 1894              		.loc 1 1859 10 is_stmt 0 view .LVU639
 1895 0042 0020     		movs	r0, #0
 1896              	.L127:
1860:Drivers/STM32H7xx_HAL_Driver/Src/stm32h7xx_hal_rtc_ex.c **** }
 1897              		.loc 1 1860 1 view .LVU640
 1898 0044 70BD     		pop	{r4, r5, r6, pc}
 1899              		.loc 1 1860 1 view .LVU641
 1900              		.cfi_endproc
 1901              	.LFE355:
 1903              		.section	.text.HAL_RTCEx_PollForTamper2Event,"ax",%progbits
 1904              		.align	1
 1905              		.global	HAL_RTCEx_PollForTamper2Event
 1906              		.syntax unified
 1907              		.thumb
 1908              		.thumb_func
 1910              	HAL_RTCEx_PollForTamper2Event:
 1911              	.LVL134:
 1912              	.LFB356:
1861:Drivers/STM32H7xx_HAL_Driver/Src/stm32h7xx_hal_rtc_ex.c **** #endif /* RTC_TAMPER_1 */
1862:Drivers/STM32H7xx_HAL_Driver/Src/stm32h7xx_hal_rtc_ex.c **** 
1863:Drivers/STM32H7xx_HAL_Driver/Src/stm32h7xx_hal_rtc_ex.c **** #if defined(RTC_TAMPER_2)
1864:Drivers/STM32H7xx_HAL_Driver/Src/stm32h7xx_hal_rtc_ex.c **** /**
1865:Drivers/STM32H7xx_HAL_Driver/Src/stm32h7xx_hal_rtc_ex.c ****   * @brief  Handle Tamper2 Polling.
1866:Drivers/STM32H7xx_HAL_Driver/Src/stm32h7xx_hal_rtc_ex.c ****   * @param  hrtc RTC handle
1867:Drivers/STM32H7xx_HAL_Driver/Src/stm32h7xx_hal_rtc_ex.c ****   * @param  Timeout Timeout duration
1868:Drivers/STM32H7xx_HAL_Driver/Src/stm32h7xx_hal_rtc_ex.c ****   * @retval HAL status
ARM GAS  C:\usertemp\cc0y2B3r.s 			page 69


1869:Drivers/STM32H7xx_HAL_Driver/Src/stm32h7xx_hal_rtc_ex.c ****   */
1870:Drivers/STM32H7xx_HAL_Driver/Src/stm32h7xx_hal_rtc_ex.c **** HAL_StatusTypeDef HAL_RTCEx_PollForTamper2Event(RTC_HandleTypeDef * hrtc, uint32_t Timeout)
1871:Drivers/STM32H7xx_HAL_Driver/Src/stm32h7xx_hal_rtc_ex.c **** {
 1913              		.loc 1 1871 1 is_stmt 1 view -0
 1914              		.cfi_startproc
 1915              		@ args = 0, pretend = 0, frame = 0
 1916              		@ frame_needed = 0, uses_anonymous_args = 0
 1917              		.loc 1 1871 1 is_stmt 0 view .LVU643
 1918 0000 70B5     		push	{r4, r5, r6, lr}
 1919              	.LCFI20:
 1920              		.cfi_def_cfa_offset 16
 1921              		.cfi_offset 4, -16
 1922              		.cfi_offset 5, -12
 1923              		.cfi_offset 6, -8
 1924              		.cfi_offset 14, -4
 1925 0002 0446     		mov	r4, r0
 1926 0004 0D46     		mov	r5, r1
1872:Drivers/STM32H7xx_HAL_Driver/Src/stm32h7xx_hal_rtc_ex.c ****   uint32_t tickstart = HAL_GetTick();
 1927              		.loc 1 1872 3 is_stmt 1 view .LVU644
 1928              		.loc 1 1872 24 is_stmt 0 view .LVU645
 1929 0006 FFF7FEFF 		bl	HAL_GetTick
 1930              	.LVL135:
 1931              		.loc 1 1872 24 view .LVU646
 1932 000a 0646     		mov	r6, r0
 1933              	.LVL136:
1873:Drivers/STM32H7xx_HAL_Driver/Src/stm32h7xx_hal_rtc_ex.c **** 
1874:Drivers/STM32H7xx_HAL_Driver/Src/stm32h7xx_hal_rtc_ex.c ****   /* Get the status of the Interrupt */
1875:Drivers/STM32H7xx_HAL_Driver/Src/stm32h7xx_hal_rtc_ex.c ****   while (__HAL_RTC_TAMPER_GET_FLAG(hrtc, RTC_FLAG_TAMP2F) == 0U)
 1934              		.loc 1 1875 3 is_stmt 1 view .LVU647
 1935              	.L133:
 1936              		.loc 1 1875 59 view .LVU648
 1937              		.loc 1 1875 10 is_stmt 0 view .LVU649
 1938 000c 2368     		ldr	r3, [r4]
 1939 000e DA68     		ldr	r2, [r3, #12]
 1940              		.loc 1 1875 59 view .LVU650
 1941 0010 12F4804F 		tst	r2, #16384
 1942 0014 0DD1     		bne	.L138
1876:Drivers/STM32H7xx_HAL_Driver/Src/stm32h7xx_hal_rtc_ex.c ****   {
1877:Drivers/STM32H7xx_HAL_Driver/Src/stm32h7xx_hal_rtc_ex.c ****     if (Timeout != HAL_MAX_DELAY)
 1943              		.loc 1 1877 5 is_stmt 1 view .LVU651
 1944              		.loc 1 1877 8 is_stmt 0 view .LVU652
 1945 0016 B5F1FF3F 		cmp	r5, #-1
 1946 001a F7D0     		beq	.L133
1878:Drivers/STM32H7xx_HAL_Driver/Src/stm32h7xx_hal_rtc_ex.c ****     {
1879:Drivers/STM32H7xx_HAL_Driver/Src/stm32h7xx_hal_rtc_ex.c ****       if (((HAL_GetTick() - tickstart) > Timeout) || (Timeout == 0U))
 1947              		.loc 1 1879 7 is_stmt 1 view .LVU653
 1948              		.loc 1 1879 13 is_stmt 0 view .LVU654
 1949 001c FFF7FEFF 		bl	HAL_GetTick
 1950              	.LVL137:
 1951              		.loc 1 1879 27 discriminator 1 view .LVU655
 1952 0020 801B     		subs	r0, r0, r6
 1953              		.loc 1 1879 10 discriminator 1 view .LVU656
 1954 0022 A842     		cmp	r0, r5
 1955 0024 01D8     		bhi	.L134
 1956              		.loc 1 1879 51 discriminator 1 view .LVU657
 1957 0026 002D     		cmp	r5, #0
 1958 0028 F0D1     		bne	.L133
ARM GAS  C:\usertemp\cc0y2B3r.s 			page 70


 1959              	.L134:
1880:Drivers/STM32H7xx_HAL_Driver/Src/stm32h7xx_hal_rtc_ex.c ****       {
1881:Drivers/STM32H7xx_HAL_Driver/Src/stm32h7xx_hal_rtc_ex.c ****         hrtc->State = HAL_RTC_STATE_TIMEOUT;
 1960              		.loc 1 1881 9 is_stmt 1 view .LVU658
 1961              		.loc 1 1881 21 is_stmt 0 view .LVU659
 1962 002a 0320     		movs	r0, #3
 1963 002c 84F82100 		strb	r0, [r4, #33]
1882:Drivers/STM32H7xx_HAL_Driver/Src/stm32h7xx_hal_rtc_ex.c ****         return HAL_TIMEOUT;
 1964              		.loc 1 1882 9 is_stmt 1 view .LVU660
 1965              		.loc 1 1882 16 is_stmt 0 view .LVU661
 1966 0030 08E0     		b	.L135
 1967              	.L138:
1883:Drivers/STM32H7xx_HAL_Driver/Src/stm32h7xx_hal_rtc_ex.c ****       }
1884:Drivers/STM32H7xx_HAL_Driver/Src/stm32h7xx_hal_rtc_ex.c ****     }
1885:Drivers/STM32H7xx_HAL_Driver/Src/stm32h7xx_hal_rtc_ex.c ****   }
1886:Drivers/STM32H7xx_HAL_Driver/Src/stm32h7xx_hal_rtc_ex.c **** 
1887:Drivers/STM32H7xx_HAL_Driver/Src/stm32h7xx_hal_rtc_ex.c ****   /* Clear the Tamper Flag */
1888:Drivers/STM32H7xx_HAL_Driver/Src/stm32h7xx_hal_rtc_ex.c ****   __HAL_RTC_TAMPER_CLEAR_FLAG(hrtc, RTC_FLAG_TAMP2F);
 1968              		.loc 1 1888 3 is_stmt 1 view .LVU662
 1969 0032 DA68     		ldr	r2, [r3, #12]
 1970 0034 D2B2     		uxtb	r2, r2
 1971 0036 62F48142 		orn	r2, r2, #16512
 1972 003a DA60     		str	r2, [r3, #12]
1889:Drivers/STM32H7xx_HAL_Driver/Src/stm32h7xx_hal_rtc_ex.c **** 
1890:Drivers/STM32H7xx_HAL_Driver/Src/stm32h7xx_hal_rtc_ex.c ****   /* Change RTC state */
1891:Drivers/STM32H7xx_HAL_Driver/Src/stm32h7xx_hal_rtc_ex.c ****   hrtc->State = HAL_RTC_STATE_READY;
 1973              		.loc 1 1891 3 view .LVU663
 1974              		.loc 1 1891 15 is_stmt 0 view .LVU664
 1975 003c 0123     		movs	r3, #1
 1976 003e 84F82130 		strb	r3, [r4, #33]
1892:Drivers/STM32H7xx_HAL_Driver/Src/stm32h7xx_hal_rtc_ex.c **** 
1893:Drivers/STM32H7xx_HAL_Driver/Src/stm32h7xx_hal_rtc_ex.c ****   return HAL_OK;
 1977              		.loc 1 1893 3 is_stmt 1 view .LVU665
 1978              		.loc 1 1893 10 is_stmt 0 view .LVU666
 1979 0042 0020     		movs	r0, #0
 1980              	.L135:
1894:Drivers/STM32H7xx_HAL_Driver/Src/stm32h7xx_hal_rtc_ex.c **** }
 1981              		.loc 1 1894 1 view .LVU667
 1982 0044 70BD     		pop	{r4, r5, r6, pc}
 1983              		.loc 1 1894 1 view .LVU668
 1984              		.cfi_endproc
 1985              	.LFE356:
 1987              		.section	.text.HAL_RTCEx_PollForTamper3Event,"ax",%progbits
 1988              		.align	1
 1989              		.global	HAL_RTCEx_PollForTamper3Event
 1990              		.syntax unified
 1991              		.thumb
 1992              		.thumb_func
 1994              	HAL_RTCEx_PollForTamper3Event:
 1995              	.LVL138:
 1996              	.LFB357:
1895:Drivers/STM32H7xx_HAL_Driver/Src/stm32h7xx_hal_rtc_ex.c **** #endif /* RTC_TAMPER_2 */
1896:Drivers/STM32H7xx_HAL_Driver/Src/stm32h7xx_hal_rtc_ex.c **** 
1897:Drivers/STM32H7xx_HAL_Driver/Src/stm32h7xx_hal_rtc_ex.c **** #if defined(RTC_TAMPER_3)
1898:Drivers/STM32H7xx_HAL_Driver/Src/stm32h7xx_hal_rtc_ex.c **** /**
1899:Drivers/STM32H7xx_HAL_Driver/Src/stm32h7xx_hal_rtc_ex.c ****   * @brief  Handle Tamper3 Polling.
1900:Drivers/STM32H7xx_HAL_Driver/Src/stm32h7xx_hal_rtc_ex.c ****   * @param  hrtc RTC handle
ARM GAS  C:\usertemp\cc0y2B3r.s 			page 71


1901:Drivers/STM32H7xx_HAL_Driver/Src/stm32h7xx_hal_rtc_ex.c ****   * @param  Timeout Timeout duration
1902:Drivers/STM32H7xx_HAL_Driver/Src/stm32h7xx_hal_rtc_ex.c ****   * @retval HAL status
1903:Drivers/STM32H7xx_HAL_Driver/Src/stm32h7xx_hal_rtc_ex.c ****   */
1904:Drivers/STM32H7xx_HAL_Driver/Src/stm32h7xx_hal_rtc_ex.c **** HAL_StatusTypeDef HAL_RTCEx_PollForTamper3Event(RTC_HandleTypeDef * hrtc, uint32_t Timeout)
1905:Drivers/STM32H7xx_HAL_Driver/Src/stm32h7xx_hal_rtc_ex.c **** {
 1997              		.loc 1 1905 1 is_stmt 1 view -0
 1998              		.cfi_startproc
 1999              		@ args = 0, pretend = 0, frame = 0
 2000              		@ frame_needed = 0, uses_anonymous_args = 0
 2001              		.loc 1 1905 1 is_stmt 0 view .LVU670
 2002 0000 70B5     		push	{r4, r5, r6, lr}
 2003              	.LCFI21:
 2004              		.cfi_def_cfa_offset 16
 2005              		.cfi_offset 4, -16
 2006              		.cfi_offset 5, -12
 2007              		.cfi_offset 6, -8
 2008              		.cfi_offset 14, -4
 2009 0002 0446     		mov	r4, r0
 2010 0004 0D46     		mov	r5, r1
1906:Drivers/STM32H7xx_HAL_Driver/Src/stm32h7xx_hal_rtc_ex.c ****   uint32_t tickstart = HAL_GetTick();
 2011              		.loc 1 1906 3 is_stmt 1 view .LVU671
 2012              		.loc 1 1906 24 is_stmt 0 view .LVU672
 2013 0006 FFF7FEFF 		bl	HAL_GetTick
 2014              	.LVL139:
 2015              		.loc 1 1906 24 view .LVU673
 2016 000a 0646     		mov	r6, r0
 2017              	.LVL140:
1907:Drivers/STM32H7xx_HAL_Driver/Src/stm32h7xx_hal_rtc_ex.c **** 
1908:Drivers/STM32H7xx_HAL_Driver/Src/stm32h7xx_hal_rtc_ex.c ****   /* Get the status of the Interrupt */
1909:Drivers/STM32H7xx_HAL_Driver/Src/stm32h7xx_hal_rtc_ex.c ****   while (__HAL_RTC_TAMPER_GET_FLAG(hrtc, RTC_FLAG_TAMP3F) == 0U)
 2018              		.loc 1 1909 3 is_stmt 1 view .LVU674
 2019              	.L141:
 2020              		.loc 1 1909 59 view .LVU675
 2021              		.loc 1 1909 10 is_stmt 0 view .LVU676
 2022 000c 2368     		ldr	r3, [r4]
 2023 000e DA68     		ldr	r2, [r3, #12]
 2024              		.loc 1 1909 59 view .LVU677
 2025 0010 12F4004F 		tst	r2, #32768
 2026 0014 0DD1     		bne	.L146
1910:Drivers/STM32H7xx_HAL_Driver/Src/stm32h7xx_hal_rtc_ex.c ****   {
1911:Drivers/STM32H7xx_HAL_Driver/Src/stm32h7xx_hal_rtc_ex.c ****     if (Timeout != HAL_MAX_DELAY)
 2027              		.loc 1 1911 5 is_stmt 1 view .LVU678
 2028              		.loc 1 1911 8 is_stmt 0 view .LVU679
 2029 0016 B5F1FF3F 		cmp	r5, #-1
 2030 001a F7D0     		beq	.L141
1912:Drivers/STM32H7xx_HAL_Driver/Src/stm32h7xx_hal_rtc_ex.c ****     {
1913:Drivers/STM32H7xx_HAL_Driver/Src/stm32h7xx_hal_rtc_ex.c ****       if (((HAL_GetTick() - tickstart) > Timeout) || (Timeout == 0U))
 2031              		.loc 1 1913 7 is_stmt 1 view .LVU680
 2032              		.loc 1 1913 13 is_stmt 0 view .LVU681
 2033 001c FFF7FEFF 		bl	HAL_GetTick
 2034              	.LVL141:
 2035              		.loc 1 1913 27 discriminator 1 view .LVU682
 2036 0020 801B     		subs	r0, r0, r6
 2037              		.loc 1 1913 10 discriminator 1 view .LVU683
 2038 0022 A842     		cmp	r0, r5
 2039 0024 01D8     		bhi	.L142
 2040              		.loc 1 1913 51 discriminator 1 view .LVU684
ARM GAS  C:\usertemp\cc0y2B3r.s 			page 72


 2041 0026 002D     		cmp	r5, #0
 2042 0028 F0D1     		bne	.L141
 2043              	.L142:
1914:Drivers/STM32H7xx_HAL_Driver/Src/stm32h7xx_hal_rtc_ex.c ****       {
1915:Drivers/STM32H7xx_HAL_Driver/Src/stm32h7xx_hal_rtc_ex.c ****         hrtc->State = HAL_RTC_STATE_TIMEOUT;
 2044              		.loc 1 1915 9 is_stmt 1 view .LVU685
 2045              		.loc 1 1915 21 is_stmt 0 view .LVU686
 2046 002a 0320     		movs	r0, #3
 2047 002c 84F82100 		strb	r0, [r4, #33]
1916:Drivers/STM32H7xx_HAL_Driver/Src/stm32h7xx_hal_rtc_ex.c ****         return HAL_TIMEOUT;
 2048              		.loc 1 1916 9 is_stmt 1 view .LVU687
 2049              		.loc 1 1916 16 is_stmt 0 view .LVU688
 2050 0030 0EE0     		b	.L143
 2051              	.L146:
1917:Drivers/STM32H7xx_HAL_Driver/Src/stm32h7xx_hal_rtc_ex.c ****       }
1918:Drivers/STM32H7xx_HAL_Driver/Src/stm32h7xx_hal_rtc_ex.c ****     }
1919:Drivers/STM32H7xx_HAL_Driver/Src/stm32h7xx_hal_rtc_ex.c ****   }
1920:Drivers/STM32H7xx_HAL_Driver/Src/stm32h7xx_hal_rtc_ex.c **** 
1921:Drivers/STM32H7xx_HAL_Driver/Src/stm32h7xx_hal_rtc_ex.c ****   /* Clear the Tamper Flag */
1922:Drivers/STM32H7xx_HAL_Driver/Src/stm32h7xx_hal_rtc_ex.c ****   __HAL_RTC_TAMPER_CLEAR_FLAG(hrtc, RTC_FLAG_TAMP3F);
 2052              		.loc 1 1922 3 is_stmt 1 view .LVU689
 2053 0032 DA68     		ldr	r2, [r3, #12]
 2054 0034 D2B2     		uxtb	r2, r2
 2055 0036 42F07F42 		orr	r2, r2, #-16777216
 2056 003a 42F47F02 		orr	r2, r2, #16711680
 2057 003e 42F4FE42 		orr	r2, r2, #32512
 2058 0042 42F07F02 		orr	r2, r2, #127
 2059 0046 DA60     		str	r2, [r3, #12]
1923:Drivers/STM32H7xx_HAL_Driver/Src/stm32h7xx_hal_rtc_ex.c **** 
1924:Drivers/STM32H7xx_HAL_Driver/Src/stm32h7xx_hal_rtc_ex.c ****   /* Change RTC state */
1925:Drivers/STM32H7xx_HAL_Driver/Src/stm32h7xx_hal_rtc_ex.c ****   hrtc->State = HAL_RTC_STATE_READY;
 2060              		.loc 1 1925 3 view .LVU690
 2061              		.loc 1 1925 15 is_stmt 0 view .LVU691
 2062 0048 0123     		movs	r3, #1
 2063 004a 84F82130 		strb	r3, [r4, #33]
1926:Drivers/STM32H7xx_HAL_Driver/Src/stm32h7xx_hal_rtc_ex.c **** 
1927:Drivers/STM32H7xx_HAL_Driver/Src/stm32h7xx_hal_rtc_ex.c ****   return HAL_OK;
 2064              		.loc 1 1927 3 is_stmt 1 view .LVU692
 2065              		.loc 1 1927 10 is_stmt 0 view .LVU693
 2066 004e 0020     		movs	r0, #0
 2067              	.L143:
1928:Drivers/STM32H7xx_HAL_Driver/Src/stm32h7xx_hal_rtc_ex.c **** }
 2068              		.loc 1 1928 1 view .LVU694
 2069 0050 70BD     		pop	{r4, r5, r6, pc}
 2070              		.loc 1 1928 1 view .LVU695
 2071              		.cfi_endproc
 2072              	.LFE357:
 2074              		.section	.text.HAL_RTCEx_SetWakeUpTimer,"ax",%progbits
 2075              		.align	1
 2076              		.global	HAL_RTCEx_SetWakeUpTimer
 2077              		.syntax unified
 2078              		.thumb
 2079              		.thumb_func
 2081              	HAL_RTCEx_SetWakeUpTimer:
 2082              	.LVL142:
 2083              	.LFB358:
1929:Drivers/STM32H7xx_HAL_Driver/Src/stm32h7xx_hal_rtc_ex.c **** #endif /* RTC_TAMPER_3 */
ARM GAS  C:\usertemp\cc0y2B3r.s 			page 73


1930:Drivers/STM32H7xx_HAL_Driver/Src/stm32h7xx_hal_rtc_ex.c **** 
1931:Drivers/STM32H7xx_HAL_Driver/Src/stm32h7xx_hal_rtc_ex.c **** #if defined(TAMP_CR1_ITAMP1E)
1932:Drivers/STM32H7xx_HAL_Driver/Src/stm32h7xx_hal_rtc_ex.c **** /**
1933:Drivers/STM32H7xx_HAL_Driver/Src/stm32h7xx_hal_rtc_ex.c ****   * @brief  Internal Tamper event polling.
1934:Drivers/STM32H7xx_HAL_Driver/Src/stm32h7xx_hal_rtc_ex.c ****   * @param  hrtc RTC handle
1935:Drivers/STM32H7xx_HAL_Driver/Src/stm32h7xx_hal_rtc_ex.c ****   * @param  IntTamper selected tamper.
1936:Drivers/STM32H7xx_HAL_Driver/Src/stm32h7xx_hal_rtc_ex.c ****   *          This parameter can be any combination of existing internal tampers.
1937:Drivers/STM32H7xx_HAL_Driver/Src/stm32h7xx_hal_rtc_ex.c ****   * @param  Timeout Timeout duration
1938:Drivers/STM32H7xx_HAL_Driver/Src/stm32h7xx_hal_rtc_ex.c ****   * @retval HAL status
1939:Drivers/STM32H7xx_HAL_Driver/Src/stm32h7xx_hal_rtc_ex.c ****   */
1940:Drivers/STM32H7xx_HAL_Driver/Src/stm32h7xx_hal_rtc_ex.c **** HAL_StatusTypeDef HAL_RTCEx_PollForInternalTamperEvent(RTC_HandleTypeDef *hrtc, uint32_t IntTamper,
1941:Drivers/STM32H7xx_HAL_Driver/Src/stm32h7xx_hal_rtc_ex.c **** {
1942:Drivers/STM32H7xx_HAL_Driver/Src/stm32h7xx_hal_rtc_ex.c ****   UNUSED(hrtc);
1943:Drivers/STM32H7xx_HAL_Driver/Src/stm32h7xx_hal_rtc_ex.c ****   assert_param(IS_RTC_INTERNAL_TAMPER(IntTamper));
1944:Drivers/STM32H7xx_HAL_Driver/Src/stm32h7xx_hal_rtc_ex.c **** 
1945:Drivers/STM32H7xx_HAL_Driver/Src/stm32h7xx_hal_rtc_ex.c ****   uint32_t tickstart = HAL_GetTick();
1946:Drivers/STM32H7xx_HAL_Driver/Src/stm32h7xx_hal_rtc_ex.c **** 
1947:Drivers/STM32H7xx_HAL_Driver/Src/stm32h7xx_hal_rtc_ex.c ****   /* Get the status of the Interrupt */
1948:Drivers/STM32H7xx_HAL_Driver/Src/stm32h7xx_hal_rtc_ex.c ****   while (READ_BIT(TAMP->SR, IntTamper) != IntTamper)
1949:Drivers/STM32H7xx_HAL_Driver/Src/stm32h7xx_hal_rtc_ex.c ****   {
1950:Drivers/STM32H7xx_HAL_Driver/Src/stm32h7xx_hal_rtc_ex.c ****     if (Timeout != HAL_MAX_DELAY)
1951:Drivers/STM32H7xx_HAL_Driver/Src/stm32h7xx_hal_rtc_ex.c ****     {
1952:Drivers/STM32H7xx_HAL_Driver/Src/stm32h7xx_hal_rtc_ex.c ****       if (((HAL_GetTick() - tickstart) > Timeout) || (Timeout == 0U))
1953:Drivers/STM32H7xx_HAL_Driver/Src/stm32h7xx_hal_rtc_ex.c ****       {
1954:Drivers/STM32H7xx_HAL_Driver/Src/stm32h7xx_hal_rtc_ex.c ****         return HAL_TIMEOUT;
1955:Drivers/STM32H7xx_HAL_Driver/Src/stm32h7xx_hal_rtc_ex.c ****       }
1956:Drivers/STM32H7xx_HAL_Driver/Src/stm32h7xx_hal_rtc_ex.c ****     }
1957:Drivers/STM32H7xx_HAL_Driver/Src/stm32h7xx_hal_rtc_ex.c ****   }
1958:Drivers/STM32H7xx_HAL_Driver/Src/stm32h7xx_hal_rtc_ex.c **** 
1959:Drivers/STM32H7xx_HAL_Driver/Src/stm32h7xx_hal_rtc_ex.c ****   /* Clear the Tamper Flag */
1960:Drivers/STM32H7xx_HAL_Driver/Src/stm32h7xx_hal_rtc_ex.c ****   WRITE_REG(TAMP->SCR, IntTamper);
1961:Drivers/STM32H7xx_HAL_Driver/Src/stm32h7xx_hal_rtc_ex.c **** 
1962:Drivers/STM32H7xx_HAL_Driver/Src/stm32h7xx_hal_rtc_ex.c ****   return HAL_OK;
1963:Drivers/STM32H7xx_HAL_Driver/Src/stm32h7xx_hal_rtc_ex.c **** }
1964:Drivers/STM32H7xx_HAL_Driver/Src/stm32h7xx_hal_rtc_ex.c **** #endif /* TAMP_CR1_ITAMP1E */
1965:Drivers/STM32H7xx_HAL_Driver/Src/stm32h7xx_hal_rtc_ex.c **** 
1966:Drivers/STM32H7xx_HAL_Driver/Src/stm32h7xx_hal_rtc_ex.c **** /**
1967:Drivers/STM32H7xx_HAL_Driver/Src/stm32h7xx_hal_rtc_ex.c ****   * @}
1968:Drivers/STM32H7xx_HAL_Driver/Src/stm32h7xx_hal_rtc_ex.c ****   */
1969:Drivers/STM32H7xx_HAL_Driver/Src/stm32h7xx_hal_rtc_ex.c **** 
1970:Drivers/STM32H7xx_HAL_Driver/Src/stm32h7xx_hal_rtc_ex.c **** /** @addtogroup RTCEx_Exported_Functions_Group2
1971:Drivers/STM32H7xx_HAL_Driver/Src/stm32h7xx_hal_rtc_ex.c ****   * @brief    RTC Wake-up functions
1972:Drivers/STM32H7xx_HAL_Driver/Src/stm32h7xx_hal_rtc_ex.c ****   *
1973:Drivers/STM32H7xx_HAL_Driver/Src/stm32h7xx_hal_rtc_ex.c **** @verbatim
1974:Drivers/STM32H7xx_HAL_Driver/Src/stm32h7xx_hal_rtc_ex.c ****  ===============================================================================
1975:Drivers/STM32H7xx_HAL_Driver/Src/stm32h7xx_hal_rtc_ex.c ****                         ##### RTC Wake-up functions #####
1976:Drivers/STM32H7xx_HAL_Driver/Src/stm32h7xx_hal_rtc_ex.c ****  ===============================================================================
1977:Drivers/STM32H7xx_HAL_Driver/Src/stm32h7xx_hal_rtc_ex.c **** 
1978:Drivers/STM32H7xx_HAL_Driver/Src/stm32h7xx_hal_rtc_ex.c ****  [..] This section provides functions allowing to configure Wake-up feature
1979:Drivers/STM32H7xx_HAL_Driver/Src/stm32h7xx_hal_rtc_ex.c **** 
1980:Drivers/STM32H7xx_HAL_Driver/Src/stm32h7xx_hal_rtc_ex.c **** @endverbatim
1981:Drivers/STM32H7xx_HAL_Driver/Src/stm32h7xx_hal_rtc_ex.c ****   * @{
1982:Drivers/STM32H7xx_HAL_Driver/Src/stm32h7xx_hal_rtc_ex.c ****   */
1983:Drivers/STM32H7xx_HAL_Driver/Src/stm32h7xx_hal_rtc_ex.c **** 
1984:Drivers/STM32H7xx_HAL_Driver/Src/stm32h7xx_hal_rtc_ex.c **** /**
1985:Drivers/STM32H7xx_HAL_Driver/Src/stm32h7xx_hal_rtc_ex.c ****   * @brief  Set wake up timer.
1986:Drivers/STM32H7xx_HAL_Driver/Src/stm32h7xx_hal_rtc_ex.c ****   * @param  hrtc RTC handle
ARM GAS  C:\usertemp\cc0y2B3r.s 			page 74


1987:Drivers/STM32H7xx_HAL_Driver/Src/stm32h7xx_hal_rtc_ex.c ****   * @param  WakeUpCounter Wake up counter
1988:Drivers/STM32H7xx_HAL_Driver/Src/stm32h7xx_hal_rtc_ex.c ****   * @param  WakeUpClock Wake up clock
1989:Drivers/STM32H7xx_HAL_Driver/Src/stm32h7xx_hal_rtc_ex.c ****   * @retval HAL status
1990:Drivers/STM32H7xx_HAL_Driver/Src/stm32h7xx_hal_rtc_ex.c ****   */
1991:Drivers/STM32H7xx_HAL_Driver/Src/stm32h7xx_hal_rtc_ex.c **** HAL_StatusTypeDef HAL_RTCEx_SetWakeUpTimer(RTC_HandleTypeDef *hrtc, uint32_t WakeUpCounter, uint32_
1992:Drivers/STM32H7xx_HAL_Driver/Src/stm32h7xx_hal_rtc_ex.c **** {
 2084              		.loc 1 1992 1 is_stmt 1 view -0
 2085              		.cfi_startproc
 2086              		@ args = 0, pretend = 0, frame = 0
 2087              		@ frame_needed = 0, uses_anonymous_args = 0
 2088              		.loc 1 1992 1 is_stmt 0 view .LVU697
 2089 0000 F8B5     		push	{r3, r4, r5, r6, r7, lr}
 2090              	.LCFI22:
 2091              		.cfi_def_cfa_offset 24
 2092              		.cfi_offset 3, -24
 2093              		.cfi_offset 4, -20
 2094              		.cfi_offset 5, -16
 2095              		.cfi_offset 6, -12
 2096              		.cfi_offset 7, -8
 2097              		.cfi_offset 14, -4
1993:Drivers/STM32H7xx_HAL_Driver/Src/stm32h7xx_hal_rtc_ex.c ****   uint32_t tickstart;
 2098              		.loc 1 1993 3 is_stmt 1 view .LVU698
1994:Drivers/STM32H7xx_HAL_Driver/Src/stm32h7xx_hal_rtc_ex.c **** 
1995:Drivers/STM32H7xx_HAL_Driver/Src/stm32h7xx_hal_rtc_ex.c ****   /* Check the parameters */
1996:Drivers/STM32H7xx_HAL_Driver/Src/stm32h7xx_hal_rtc_ex.c ****   assert_param(IS_RTC_WAKEUP_CLOCK(WakeUpClock));
 2099              		.loc 1 1996 3 view .LVU699
1997:Drivers/STM32H7xx_HAL_Driver/Src/stm32h7xx_hal_rtc_ex.c ****   assert_param(IS_RTC_WAKEUP_COUNTER(WakeUpCounter));
 2100              		.loc 1 1997 3 view .LVU700
1998:Drivers/STM32H7xx_HAL_Driver/Src/stm32h7xx_hal_rtc_ex.c **** 
1999:Drivers/STM32H7xx_HAL_Driver/Src/stm32h7xx_hal_rtc_ex.c ****   /* Process Locked */
2000:Drivers/STM32H7xx_HAL_Driver/Src/stm32h7xx_hal_rtc_ex.c ****   __HAL_LOCK(hrtc);
 2101              		.loc 1 2000 3 view .LVU701
 2102              		.loc 1 2000 3 view .LVU702
 2103 0002 90F82030 		ldrb	r3, [r0, #32]	@ zero_extendqisi2
 2104 0006 012B     		cmp	r3, #1
 2105 0008 46D0     		beq	.L152
 2106 000a 0446     		mov	r4, r0
 2107 000c 0D46     		mov	r5, r1
 2108 000e 1646     		mov	r6, r2
 2109              		.loc 1 2000 3 discriminator 2 view .LVU703
 2110 0010 0123     		movs	r3, #1
 2111 0012 80F82030 		strb	r3, [r0, #32]
 2112              		.loc 1 2000 3 discriminator 2 view .LVU704
2001:Drivers/STM32H7xx_HAL_Driver/Src/stm32h7xx_hal_rtc_ex.c **** 
2002:Drivers/STM32H7xx_HAL_Driver/Src/stm32h7xx_hal_rtc_ex.c ****   hrtc->State = HAL_RTC_STATE_BUSY;
 2113              		.loc 1 2002 3 view .LVU705
 2114              		.loc 1 2002 15 is_stmt 0 view .LVU706
 2115 0016 0223     		movs	r3, #2
 2116 0018 80F82130 		strb	r3, [r0, #33]
2003:Drivers/STM32H7xx_HAL_Driver/Src/stm32h7xx_hal_rtc_ex.c **** 
2004:Drivers/STM32H7xx_HAL_Driver/Src/stm32h7xx_hal_rtc_ex.c ****   /* Disable the write protection for RTC registers */
2005:Drivers/STM32H7xx_HAL_Driver/Src/stm32h7xx_hal_rtc_ex.c ****   __HAL_RTC_WRITEPROTECTION_DISABLE(hrtc);
 2117              		.loc 1 2005 3 is_stmt 1 view .LVU707
 2118              		.loc 1 2005 3 view .LVU708
 2119 001c 0368     		ldr	r3, [r0]
 2120 001e CA22     		movs	r2, #202
 2121              	.LVL143:
ARM GAS  C:\usertemp\cc0y2B3r.s 			page 75


 2122              		.loc 1 2005 3 is_stmt 0 view .LVU709
 2123 0020 5A62     		str	r2, [r3, #36]
 2124              		.loc 1 2005 3 is_stmt 1 view .LVU710
 2125 0022 0368     		ldr	r3, [r0]
 2126 0024 5322     		movs	r2, #83
 2127 0026 5A62     		str	r2, [r3, #36]
 2128              		.loc 1 2005 3 view .LVU711
2006:Drivers/STM32H7xx_HAL_Driver/Src/stm32h7xx_hal_rtc_ex.c **** 
2007:Drivers/STM32H7xx_HAL_Driver/Src/stm32h7xx_hal_rtc_ex.c ****   /* Clear WUTE in RTC_CR to disable the wakeup timer */
2008:Drivers/STM32H7xx_HAL_Driver/Src/stm32h7xx_hal_rtc_ex.c ****   CLEAR_BIT(RTC->CR, RTC_CR_WUTE);
 2129              		.loc 1 2008 3 view .LVU712
 2130 0028 1C4B     		ldr	r3, .L155
 2131 002a 9A68     		ldr	r2, [r3, #8]
 2132 002c 22F48062 		bic	r2, r2, #1024
 2133 0030 9A60     		str	r2, [r3, #8]
2009:Drivers/STM32H7xx_HAL_Driver/Src/stm32h7xx_hal_rtc_ex.c **** 
2010:Drivers/STM32H7xx_HAL_Driver/Src/stm32h7xx_hal_rtc_ex.c ****   /* Poll WUTWF until it is set in RTC_ICSR / RTC_ISR to make sure the access to wakeup autoreload
2011:Drivers/STM32H7xx_HAL_Driver/Src/stm32h7xx_hal_rtc_ex.c ****   counter and to WUCKSEL[2:0] bits is allowed. This step must be skipped in
2012:Drivers/STM32H7xx_HAL_Driver/Src/stm32h7xx_hal_rtc_ex.c ****   calendar initialization mode. */
2013:Drivers/STM32H7xx_HAL_Driver/Src/stm32h7xx_hal_rtc_ex.c **** #if defined(RTC_ISR_INITF)
2014:Drivers/STM32H7xx_HAL_Driver/Src/stm32h7xx_hal_rtc_ex.c ****   if (READ_BIT(RTC->ISR, RTC_ISR_INITF) == 0U)
 2134              		.loc 1 2014 3 view .LVU713
 2135              		.loc 1 2014 7 is_stmt 0 view .LVU714
 2136 0032 DB68     		ldr	r3, [r3, #12]
 2137              		.loc 1 2014 6 view .LVU715
 2138 0034 13F0400F 		tst	r3, #64
 2139 0038 16D0     		beq	.L154
 2140              	.LVL144:
 2141              	.L149:
2015:Drivers/STM32H7xx_HAL_Driver/Src/stm32h7xx_hal_rtc_ex.c **** #endif /* RTC_ISR_INITF */
2016:Drivers/STM32H7xx_HAL_Driver/Src/stm32h7xx_hal_rtc_ex.c **** #if defined(RTC_ICSR_INITF)
2017:Drivers/STM32H7xx_HAL_Driver/Src/stm32h7xx_hal_rtc_ex.c ****     if (READ_BIT(RTC->ICSR, RTC_ICSR_INITF) == 0U)
2018:Drivers/STM32H7xx_HAL_Driver/Src/stm32h7xx_hal_rtc_ex.c **** #endif /* RTC_ICSR_INITF */
2019:Drivers/STM32H7xx_HAL_Driver/Src/stm32h7xx_hal_rtc_ex.c ****     {
2020:Drivers/STM32H7xx_HAL_Driver/Src/stm32h7xx_hal_rtc_ex.c ****       tickstart = HAL_GetTick();
2021:Drivers/STM32H7xx_HAL_Driver/Src/stm32h7xx_hal_rtc_ex.c **** 
2022:Drivers/STM32H7xx_HAL_Driver/Src/stm32h7xx_hal_rtc_ex.c **** #if defined(RTC_ICSR_WUTWF)
2023:Drivers/STM32H7xx_HAL_Driver/Src/stm32h7xx_hal_rtc_ex.c ****       while (READ_BIT(hrtc->Instance->ICSR, RTC_FLAG_WUTWF) == 0U)
2024:Drivers/STM32H7xx_HAL_Driver/Src/stm32h7xx_hal_rtc_ex.c **** #endif /* RTC_ICSR_WUTWF */
2025:Drivers/STM32H7xx_HAL_Driver/Src/stm32h7xx_hal_rtc_ex.c **** #if defined(RTC_ISR_WUTWF)
2026:Drivers/STM32H7xx_HAL_Driver/Src/stm32h7xx_hal_rtc_ex.c ****         while(__HAL_RTC_WAKEUPTIMER_GET_FLAG(hrtc, RTC_FLAG_WUTWF) == 0U)
2027:Drivers/STM32H7xx_HAL_Driver/Src/stm32h7xx_hal_rtc_ex.c **** #endif /* RTC_ISR_WUTWF */
2028:Drivers/STM32H7xx_HAL_Driver/Src/stm32h7xx_hal_rtc_ex.c ****         {
2029:Drivers/STM32H7xx_HAL_Driver/Src/stm32h7xx_hal_rtc_ex.c ****           if ((HAL_GetTick() - tickstart) > RTC_TIMEOUT_VALUE)
2030:Drivers/STM32H7xx_HAL_Driver/Src/stm32h7xx_hal_rtc_ex.c ****           {
2031:Drivers/STM32H7xx_HAL_Driver/Src/stm32h7xx_hal_rtc_ex.c ****             /* Enable the write protection for RTC registers */
2032:Drivers/STM32H7xx_HAL_Driver/Src/stm32h7xx_hal_rtc_ex.c ****             __HAL_RTC_WRITEPROTECTION_ENABLE(hrtc);
2033:Drivers/STM32H7xx_HAL_Driver/Src/stm32h7xx_hal_rtc_ex.c **** 
2034:Drivers/STM32H7xx_HAL_Driver/Src/stm32h7xx_hal_rtc_ex.c ****             hrtc->State = HAL_RTC_STATE_TIMEOUT;
2035:Drivers/STM32H7xx_HAL_Driver/Src/stm32h7xx_hal_rtc_ex.c **** 
2036:Drivers/STM32H7xx_HAL_Driver/Src/stm32h7xx_hal_rtc_ex.c ****             /* Process Unlocked */
2037:Drivers/STM32H7xx_HAL_Driver/Src/stm32h7xx_hal_rtc_ex.c ****             __HAL_UNLOCK(hrtc);
2038:Drivers/STM32H7xx_HAL_Driver/Src/stm32h7xx_hal_rtc_ex.c **** 
2039:Drivers/STM32H7xx_HAL_Driver/Src/stm32h7xx_hal_rtc_ex.c ****             return HAL_TIMEOUT;
2040:Drivers/STM32H7xx_HAL_Driver/Src/stm32h7xx_hal_rtc_ex.c ****           }
2041:Drivers/STM32H7xx_HAL_Driver/Src/stm32h7xx_hal_rtc_ex.c ****         }
2042:Drivers/STM32H7xx_HAL_Driver/Src/stm32h7xx_hal_rtc_ex.c ****     }
ARM GAS  C:\usertemp\cc0y2B3r.s 			page 76


2043:Drivers/STM32H7xx_HAL_Driver/Src/stm32h7xx_hal_rtc_ex.c **** 
2044:Drivers/STM32H7xx_HAL_Driver/Src/stm32h7xx_hal_rtc_ex.c ****   /* Clear the Wakeup Timer clock source bits and configure the clock source in CR register */
2045:Drivers/STM32H7xx_HAL_Driver/Src/stm32h7xx_hal_rtc_ex.c ****   uint32_t CR_tmp = hrtc->Instance->CR;
 2142              		.loc 1 2045 3 is_stmt 1 view .LVU716
 2143              		.loc 1 2045 25 is_stmt 0 view .LVU717
 2144 003a 2168     		ldr	r1, [r4]
 2145              		.loc 1 2045 12 view .LVU718
 2146 003c 8B68     		ldr	r3, [r1, #8]
 2147              	.LVL145:
2046:Drivers/STM32H7xx_HAL_Driver/Src/stm32h7xx_hal_rtc_ex.c ****   CR_tmp &= (uint32_t)~RTC_CR_WUCKSEL;
 2148              		.loc 1 2046 3 is_stmt 1 view .LVU719
 2149              		.loc 1 2046 10 is_stmt 0 view .LVU720
 2150 003e 23F00703 		bic	r3, r3, #7
 2151              	.LVL146:
2047:Drivers/STM32H7xx_HAL_Driver/Src/stm32h7xx_hal_rtc_ex.c ****   CR_tmp |= (uint32_t)WakeUpClock;
 2152              		.loc 1 2047 3 is_stmt 1 view .LVU721
 2153              		.loc 1 2047 10 is_stmt 0 view .LVU722
 2154 0042 3343     		orrs	r3, r3, r6
 2155              	.LVL147:
2048:Drivers/STM32H7xx_HAL_Driver/Src/stm32h7xx_hal_rtc_ex.c ****   hrtc->Instance->CR = CR_tmp;
 2156              		.loc 1 2048 3 is_stmt 1 view .LVU723
 2157              		.loc 1 2048 22 is_stmt 0 view .LVU724
 2158 0044 8B60     		str	r3, [r1, #8]
2049:Drivers/STM32H7xx_HAL_Driver/Src/stm32h7xx_hal_rtc_ex.c **** 
2050:Drivers/STM32H7xx_HAL_Driver/Src/stm32h7xx_hal_rtc_ex.c ****   /* Configure the Wakeup Timer counter */
2051:Drivers/STM32H7xx_HAL_Driver/Src/stm32h7xx_hal_rtc_ex.c ****   hrtc->Instance->WUTR = (uint32_t)WakeUpCounter;
 2159              		.loc 1 2051 3 is_stmt 1 view .LVU725
 2160              		.loc 1 2051 7 is_stmt 0 view .LVU726
 2161 0046 2368     		ldr	r3, [r4]
 2162              	.LVL148:
 2163              		.loc 1 2051 24 view .LVU727
 2164 0048 5D61     		str	r5, [r3, #20]
 2165              	.LVL149:
2052:Drivers/STM32H7xx_HAL_Driver/Src/stm32h7xx_hal_rtc_ex.c **** 
2053:Drivers/STM32H7xx_HAL_Driver/Src/stm32h7xx_hal_rtc_ex.c ****   /* Enable the Wakeup Timer */
2054:Drivers/STM32H7xx_HAL_Driver/Src/stm32h7xx_hal_rtc_ex.c ****   __HAL_RTC_WAKEUPTIMER_ENABLE(hrtc);
 2166              		.loc 1 2054 3 is_stmt 1 view .LVU728
 2167 004a 2268     		ldr	r2, [r4]
 2168 004c 9368     		ldr	r3, [r2, #8]
 2169 004e 43F48063 		orr	r3, r3, #1024
 2170 0052 9360     		str	r3, [r2, #8]
2055:Drivers/STM32H7xx_HAL_Driver/Src/stm32h7xx_hal_rtc_ex.c **** 
2056:Drivers/STM32H7xx_HAL_Driver/Src/stm32h7xx_hal_rtc_ex.c ****   /* Enable the write protection for RTC registers */
2057:Drivers/STM32H7xx_HAL_Driver/Src/stm32h7xx_hal_rtc_ex.c ****   __HAL_RTC_WRITEPROTECTION_ENABLE(hrtc);
 2171              		.loc 1 2057 3 view .LVU729
 2172              		.loc 1 2057 3 view .LVU730
 2173 0054 2368     		ldr	r3, [r4]
 2174 0056 FF22     		movs	r2, #255
 2175 0058 5A62     		str	r2, [r3, #36]
 2176              		.loc 1 2057 3 view .LVU731
2058:Drivers/STM32H7xx_HAL_Driver/Src/stm32h7xx_hal_rtc_ex.c **** 
2059:Drivers/STM32H7xx_HAL_Driver/Src/stm32h7xx_hal_rtc_ex.c ****   hrtc->State = HAL_RTC_STATE_READY;
 2177              		.loc 1 2059 3 view .LVU732
 2178              		.loc 1 2059 15 is_stmt 0 view .LVU733
 2179 005a 0123     		movs	r3, #1
 2180 005c 84F82130 		strb	r3, [r4, #33]
2060:Drivers/STM32H7xx_HAL_Driver/Src/stm32h7xx_hal_rtc_ex.c **** 
ARM GAS  C:\usertemp\cc0y2B3r.s 			page 77


2061:Drivers/STM32H7xx_HAL_Driver/Src/stm32h7xx_hal_rtc_ex.c ****   /* Process Unlocked */
2062:Drivers/STM32H7xx_HAL_Driver/Src/stm32h7xx_hal_rtc_ex.c ****   __HAL_UNLOCK(hrtc);
 2181              		.loc 1 2062 3 is_stmt 1 view .LVU734
 2182              		.loc 1 2062 3 view .LVU735
 2183 0060 0020     		movs	r0, #0
 2184 0062 84F82000 		strb	r0, [r4, #32]
 2185              		.loc 1 2062 3 view .LVU736
2063:Drivers/STM32H7xx_HAL_Driver/Src/stm32h7xx_hal_rtc_ex.c **** 
2064:Drivers/STM32H7xx_HAL_Driver/Src/stm32h7xx_hal_rtc_ex.c ****   return HAL_OK;
 2186              		.loc 1 2064 3 view .LVU737
 2187              	.LVL150:
 2188              	.L148:
2065:Drivers/STM32H7xx_HAL_Driver/Src/stm32h7xx_hal_rtc_ex.c **** }
 2189              		.loc 1 2065 1 is_stmt 0 view .LVU738
 2190 0066 F8BD     		pop	{r3, r4, r5, r6, r7, pc}
 2191              	.LVL151:
 2192              	.L154:
2020:Drivers/STM32H7xx_HAL_Driver/Src/stm32h7xx_hal_rtc_ex.c **** 
 2193              		.loc 1 2020 7 is_stmt 1 view .LVU739
2020:Drivers/STM32H7xx_HAL_Driver/Src/stm32h7xx_hal_rtc_ex.c **** 
 2194              		.loc 1 2020 19 is_stmt 0 view .LVU740
 2195 0068 FFF7FEFF 		bl	HAL_GetTick
 2196              	.LVL152:
2020:Drivers/STM32H7xx_HAL_Driver/Src/stm32h7xx_hal_rtc_ex.c **** 
 2197              		.loc 1 2020 19 view .LVU741
 2198 006c 0746     		mov	r7, r0
 2199              	.LVL153:
2026:Drivers/STM32H7xx_HAL_Driver/Src/stm32h7xx_hal_rtc_ex.c **** #endif /* RTC_ISR_WUTWF */
 2200              		.loc 1 2026 9 is_stmt 1 view .LVU742
 2201              	.L150:
2026:Drivers/STM32H7xx_HAL_Driver/Src/stm32h7xx_hal_rtc_ex.c **** #endif /* RTC_ISR_WUTWF */
 2202              		.loc 1 2026 68 view .LVU743
2026:Drivers/STM32H7xx_HAL_Driver/Src/stm32h7xx_hal_rtc_ex.c **** #endif /* RTC_ISR_WUTWF */
 2203              		.loc 1 2026 15 is_stmt 0 view .LVU744
 2204 006e 2368     		ldr	r3, [r4]
 2205 0070 DB68     		ldr	r3, [r3, #12]
2026:Drivers/STM32H7xx_HAL_Driver/Src/stm32h7xx_hal_rtc_ex.c **** #endif /* RTC_ISR_WUTWF */
 2206              		.loc 1 2026 68 view .LVU745
 2207 0072 13F0040F 		tst	r3, #4
 2208 0076 E0D1     		bne	.L149
2029:Drivers/STM32H7xx_HAL_Driver/Src/stm32h7xx_hal_rtc_ex.c ****           {
 2209              		.loc 1 2029 11 is_stmt 1 view .LVU746
2029:Drivers/STM32H7xx_HAL_Driver/Src/stm32h7xx_hal_rtc_ex.c ****           {
 2210              		.loc 1 2029 16 is_stmt 0 view .LVU747
 2211 0078 FFF7FEFF 		bl	HAL_GetTick
 2212              	.LVL154:
2029:Drivers/STM32H7xx_HAL_Driver/Src/stm32h7xx_hal_rtc_ex.c ****           {
 2213              		.loc 1 2029 30 discriminator 1 view .LVU748
 2214 007c C01B     		subs	r0, r0, r7
2029:Drivers/STM32H7xx_HAL_Driver/Src/stm32h7xx_hal_rtc_ex.c ****           {
 2215              		.loc 1 2029 14 discriminator 1 view .LVU749
 2216 007e B0F57A7F 		cmp	r0, #1000
 2217 0082 F4D9     		bls	.L150
2032:Drivers/STM32H7xx_HAL_Driver/Src/stm32h7xx_hal_rtc_ex.c **** 
 2218              		.loc 1 2032 13 is_stmt 1 view .LVU750
2032:Drivers/STM32H7xx_HAL_Driver/Src/stm32h7xx_hal_rtc_ex.c **** 
 2219              		.loc 1 2032 13 view .LVU751
ARM GAS  C:\usertemp\cc0y2B3r.s 			page 78


 2220 0084 2368     		ldr	r3, [r4]
 2221 0086 FF22     		movs	r2, #255
 2222 0088 5A62     		str	r2, [r3, #36]
2032:Drivers/STM32H7xx_HAL_Driver/Src/stm32h7xx_hal_rtc_ex.c **** 
 2223              		.loc 1 2032 13 view .LVU752
2034:Drivers/STM32H7xx_HAL_Driver/Src/stm32h7xx_hal_rtc_ex.c **** 
 2224              		.loc 1 2034 13 view .LVU753
2034:Drivers/STM32H7xx_HAL_Driver/Src/stm32h7xx_hal_rtc_ex.c **** 
 2225              		.loc 1 2034 25 is_stmt 0 view .LVU754
 2226 008a 0320     		movs	r0, #3
 2227 008c 84F82100 		strb	r0, [r4, #33]
2037:Drivers/STM32H7xx_HAL_Driver/Src/stm32h7xx_hal_rtc_ex.c **** 
 2228              		.loc 1 2037 13 is_stmt 1 view .LVU755
2037:Drivers/STM32H7xx_HAL_Driver/Src/stm32h7xx_hal_rtc_ex.c **** 
 2229              		.loc 1 2037 13 view .LVU756
 2230 0090 0023     		movs	r3, #0
 2231 0092 84F82030 		strb	r3, [r4, #32]
2037:Drivers/STM32H7xx_HAL_Driver/Src/stm32h7xx_hal_rtc_ex.c **** 
 2232              		.loc 1 2037 13 view .LVU757
2039:Drivers/STM32H7xx_HAL_Driver/Src/stm32h7xx_hal_rtc_ex.c ****           }
 2233              		.loc 1 2039 13 view .LVU758
2039:Drivers/STM32H7xx_HAL_Driver/Src/stm32h7xx_hal_rtc_ex.c ****           }
 2234              		.loc 1 2039 20 is_stmt 0 view .LVU759
 2235 0096 E6E7     		b	.L148
 2236              	.LVL155:
 2237              	.L152:
2000:Drivers/STM32H7xx_HAL_Driver/Src/stm32h7xx_hal_rtc_ex.c **** 
 2238              		.loc 1 2000 3 discriminator 1 view .LVU760
 2239 0098 0220     		movs	r0, #2
 2240              	.LVL156:
2000:Drivers/STM32H7xx_HAL_Driver/Src/stm32h7xx_hal_rtc_ex.c **** 
 2241              		.loc 1 2000 3 discriminator 1 view .LVU761
 2242 009a E4E7     		b	.L148
 2243              	.L156:
 2244              		.align	2
 2245              	.L155:
 2246 009c 00400058 		.word	1476411392
 2247              		.cfi_endproc
 2248              	.LFE358:
 2250              		.section	.text.HAL_RTCEx_SetWakeUpTimer_IT,"ax",%progbits
 2251              		.align	1
 2252              		.global	HAL_RTCEx_SetWakeUpTimer_IT
 2253              		.syntax unified
 2254              		.thumb
 2255              		.thumb_func
 2257              	HAL_RTCEx_SetWakeUpTimer_IT:
 2258              	.LVL157:
 2259              	.LFB359:
2066:Drivers/STM32H7xx_HAL_Driver/Src/stm32h7xx_hal_rtc_ex.c **** 
2067:Drivers/STM32H7xx_HAL_Driver/Src/stm32h7xx_hal_rtc_ex.c **** /**
2068:Drivers/STM32H7xx_HAL_Driver/Src/stm32h7xx_hal_rtc_ex.c ****   * @brief  Set wake up timer with interrupt.
2069:Drivers/STM32H7xx_HAL_Driver/Src/stm32h7xx_hal_rtc_ex.c ****   * @param  hrtc RTC handle
2070:Drivers/STM32H7xx_HAL_Driver/Src/stm32h7xx_hal_rtc_ex.c ****   * @param  WakeUpCounter Wake up counter
2071:Drivers/STM32H7xx_HAL_Driver/Src/stm32h7xx_hal_rtc_ex.c ****   * @param  WakeUpClock Wake up clock
2072:Drivers/STM32H7xx_HAL_Driver/Src/stm32h7xx_hal_rtc_ex.c ****   * @retval HAL status
2073:Drivers/STM32H7xx_HAL_Driver/Src/stm32h7xx_hal_rtc_ex.c ****   */
2074:Drivers/STM32H7xx_HAL_Driver/Src/stm32h7xx_hal_rtc_ex.c **** HAL_StatusTypeDef HAL_RTCEx_SetWakeUpTimer_IT(RTC_HandleTypeDef *hrtc, uint32_t WakeUpCounter, uint
ARM GAS  C:\usertemp\cc0y2B3r.s 			page 79


2075:Drivers/STM32H7xx_HAL_Driver/Src/stm32h7xx_hal_rtc_ex.c **** {
 2260              		.loc 1 2075 1 is_stmt 1 view -0
 2261              		.cfi_startproc
 2262              		@ args = 0, pretend = 0, frame = 0
 2263              		@ frame_needed = 0, uses_anonymous_args = 0
 2264              		.loc 1 2075 1 is_stmt 0 view .LVU763
 2265 0000 F8B5     		push	{r3, r4, r5, r6, r7, lr}
 2266              	.LCFI23:
 2267              		.cfi_def_cfa_offset 24
 2268              		.cfi_offset 3, -24
 2269              		.cfi_offset 4, -20
 2270              		.cfi_offset 5, -16
 2271              		.cfi_offset 6, -12
 2272              		.cfi_offset 7, -8
 2273              		.cfi_offset 14, -4
2076:Drivers/STM32H7xx_HAL_Driver/Src/stm32h7xx_hal_rtc_ex.c ****   uint32_t tickstart;
 2274              		.loc 1 2076 3 is_stmt 1 view .LVU764
2077:Drivers/STM32H7xx_HAL_Driver/Src/stm32h7xx_hal_rtc_ex.c **** 
2078:Drivers/STM32H7xx_HAL_Driver/Src/stm32h7xx_hal_rtc_ex.c ****   /* Check the parameters */
2079:Drivers/STM32H7xx_HAL_Driver/Src/stm32h7xx_hal_rtc_ex.c ****   assert_param(IS_RTC_WAKEUP_CLOCK(WakeUpClock));
 2275              		.loc 1 2079 3 view .LVU765
2080:Drivers/STM32H7xx_HAL_Driver/Src/stm32h7xx_hal_rtc_ex.c ****   assert_param(IS_RTC_WAKEUP_COUNTER(WakeUpCounter));
 2276              		.loc 1 2080 3 view .LVU766
2081:Drivers/STM32H7xx_HAL_Driver/Src/stm32h7xx_hal_rtc_ex.c **** 
2082:Drivers/STM32H7xx_HAL_Driver/Src/stm32h7xx_hal_rtc_ex.c ****   /* Process Locked */
2083:Drivers/STM32H7xx_HAL_Driver/Src/stm32h7xx_hal_rtc_ex.c ****   __HAL_LOCK(hrtc);
 2277              		.loc 1 2083 3 view .LVU767
 2278              		.loc 1 2083 3 view .LVU768
 2279 0002 90F82030 		ldrb	r3, [r0, #32]	@ zero_extendqisi2
 2280 0006 012B     		cmp	r3, #1
 2281 0008 57D0     		beq	.L162
 2282 000a 0446     		mov	r4, r0
 2283 000c 0E46     		mov	r6, r1
 2284 000e 1546     		mov	r5, r2
 2285              		.loc 1 2083 3 discriminator 2 view .LVU769
 2286 0010 0123     		movs	r3, #1
 2287 0012 80F82030 		strb	r3, [r0, #32]
 2288              		.loc 1 2083 3 discriminator 2 view .LVU770
2084:Drivers/STM32H7xx_HAL_Driver/Src/stm32h7xx_hal_rtc_ex.c **** 
2085:Drivers/STM32H7xx_HAL_Driver/Src/stm32h7xx_hal_rtc_ex.c ****   hrtc->State = HAL_RTC_STATE_BUSY;
 2289              		.loc 1 2085 3 view .LVU771
 2290              		.loc 1 2085 15 is_stmt 0 view .LVU772
 2291 0016 0223     		movs	r3, #2
 2292 0018 80F82130 		strb	r3, [r0, #33]
2086:Drivers/STM32H7xx_HAL_Driver/Src/stm32h7xx_hal_rtc_ex.c **** 
2087:Drivers/STM32H7xx_HAL_Driver/Src/stm32h7xx_hal_rtc_ex.c ****   /* Disable the write protection for RTC registers */
2088:Drivers/STM32H7xx_HAL_Driver/Src/stm32h7xx_hal_rtc_ex.c ****   __HAL_RTC_WRITEPROTECTION_DISABLE(hrtc);
 2293              		.loc 1 2088 3 is_stmt 1 view .LVU773
 2294              		.loc 1 2088 3 view .LVU774
 2295 001c 0368     		ldr	r3, [r0]
 2296 001e CA22     		movs	r2, #202
 2297              	.LVL158:
 2298              		.loc 1 2088 3 is_stmt 0 view .LVU775
 2299 0020 5A62     		str	r2, [r3, #36]
 2300              		.loc 1 2088 3 is_stmt 1 view .LVU776
 2301 0022 0368     		ldr	r3, [r0]
 2302 0024 5322     		movs	r2, #83
ARM GAS  C:\usertemp\cc0y2B3r.s 			page 80


 2303 0026 5A62     		str	r2, [r3, #36]
 2304              		.loc 1 2088 3 view .LVU777
2089:Drivers/STM32H7xx_HAL_Driver/Src/stm32h7xx_hal_rtc_ex.c **** 
2090:Drivers/STM32H7xx_HAL_Driver/Src/stm32h7xx_hal_rtc_ex.c ****   /* Clear WUTE in RTC_CR to disable the wakeup timer */
2091:Drivers/STM32H7xx_HAL_Driver/Src/stm32h7xx_hal_rtc_ex.c ****   CLEAR_BIT(RTC->CR, RTC_CR_WUTE);
 2305              		.loc 1 2091 3 view .LVU778
 2306 0028 254B     		ldr	r3, .L165
 2307 002a 9A68     		ldr	r2, [r3, #8]
 2308 002c 22F48062 		bic	r2, r2, #1024
 2309 0030 9A60     		str	r2, [r3, #8]
2092:Drivers/STM32H7xx_HAL_Driver/Src/stm32h7xx_hal_rtc_ex.c **** 
2093:Drivers/STM32H7xx_HAL_Driver/Src/stm32h7xx_hal_rtc_ex.c ****   /* Poll WUTWF until it is set in RTC_ICSR to make sure the access to wakeup autoreload
2094:Drivers/STM32H7xx_HAL_Driver/Src/stm32h7xx_hal_rtc_ex.c ****   counter and to WUCKSEL[2:0] bits is allowed. This step must be skipped in
2095:Drivers/STM32H7xx_HAL_Driver/Src/stm32h7xx_hal_rtc_ex.c ****   calendar initialization mode. */
2096:Drivers/STM32H7xx_HAL_Driver/Src/stm32h7xx_hal_rtc_ex.c **** #if defined(RTC_ISR_INITF)
2097:Drivers/STM32H7xx_HAL_Driver/Src/stm32h7xx_hal_rtc_ex.c ****   if (READ_BIT(RTC->ISR, RTC_ISR_INITF) == 0U)
 2310              		.loc 1 2097 3 view .LVU779
 2311              		.loc 1 2097 7 is_stmt 0 view .LVU780
 2312 0032 DB68     		ldr	r3, [r3, #12]
 2313              		.loc 1 2097 6 view .LVU781
 2314 0034 13F0400F 		tst	r3, #64
 2315 0038 27D0     		beq	.L164
 2316              	.LVL159:
 2317              	.L159:
2098:Drivers/STM32H7xx_HAL_Driver/Src/stm32h7xx_hal_rtc_ex.c **** #endif /* RTC_ISR_INITF */
2099:Drivers/STM32H7xx_HAL_Driver/Src/stm32h7xx_hal_rtc_ex.c **** #if defined(RTC_ICSR_INITF)
2100:Drivers/STM32H7xx_HAL_Driver/Src/stm32h7xx_hal_rtc_ex.c ****     if (READ_BIT(RTC->ICSR, RTC_ICSR_INITF) == 0U)
2101:Drivers/STM32H7xx_HAL_Driver/Src/stm32h7xx_hal_rtc_ex.c **** #endif /* RTC_ICSR_INITF */
2102:Drivers/STM32H7xx_HAL_Driver/Src/stm32h7xx_hal_rtc_ex.c ****     {
2103:Drivers/STM32H7xx_HAL_Driver/Src/stm32h7xx_hal_rtc_ex.c ****       tickstart = HAL_GetTick();
2104:Drivers/STM32H7xx_HAL_Driver/Src/stm32h7xx_hal_rtc_ex.c **** 
2105:Drivers/STM32H7xx_HAL_Driver/Src/stm32h7xx_hal_rtc_ex.c **** #if defined(RTC_ICSR_WUTWF)
2106:Drivers/STM32H7xx_HAL_Driver/Src/stm32h7xx_hal_rtc_ex.c ****       while (READ_BIT(hrtc->Instance->ICSR, RTC_FLAG_WUTWF) == 0U)
2107:Drivers/STM32H7xx_HAL_Driver/Src/stm32h7xx_hal_rtc_ex.c **** #endif /* RTC_ICSR_WUTWF */
2108:Drivers/STM32H7xx_HAL_Driver/Src/stm32h7xx_hal_rtc_ex.c **** #if defined(RTC_ISR_WUTWF)
2109:Drivers/STM32H7xx_HAL_Driver/Src/stm32h7xx_hal_rtc_ex.c ****         while(__HAL_RTC_WAKEUPTIMER_GET_FLAG(hrtc, RTC_FLAG_WUTWF) == 0U)
2110:Drivers/STM32H7xx_HAL_Driver/Src/stm32h7xx_hal_rtc_ex.c **** #endif /* RTC_ISR_WUTWF */
2111:Drivers/STM32H7xx_HAL_Driver/Src/stm32h7xx_hal_rtc_ex.c ****         {
2112:Drivers/STM32H7xx_HAL_Driver/Src/stm32h7xx_hal_rtc_ex.c ****           if ((HAL_GetTick() - tickstart) > RTC_TIMEOUT_VALUE)
2113:Drivers/STM32H7xx_HAL_Driver/Src/stm32h7xx_hal_rtc_ex.c ****           {
2114:Drivers/STM32H7xx_HAL_Driver/Src/stm32h7xx_hal_rtc_ex.c ****             /* Enable the write protection for RTC registers */
2115:Drivers/STM32H7xx_HAL_Driver/Src/stm32h7xx_hal_rtc_ex.c ****             __HAL_RTC_WRITEPROTECTION_ENABLE(hrtc);
2116:Drivers/STM32H7xx_HAL_Driver/Src/stm32h7xx_hal_rtc_ex.c **** 
2117:Drivers/STM32H7xx_HAL_Driver/Src/stm32h7xx_hal_rtc_ex.c ****             hrtc->State = HAL_RTC_STATE_TIMEOUT;
2118:Drivers/STM32H7xx_HAL_Driver/Src/stm32h7xx_hal_rtc_ex.c **** 
2119:Drivers/STM32H7xx_HAL_Driver/Src/stm32h7xx_hal_rtc_ex.c ****             /* Process Unlocked */
2120:Drivers/STM32H7xx_HAL_Driver/Src/stm32h7xx_hal_rtc_ex.c ****             __HAL_UNLOCK(hrtc);
2121:Drivers/STM32H7xx_HAL_Driver/Src/stm32h7xx_hal_rtc_ex.c **** 
2122:Drivers/STM32H7xx_HAL_Driver/Src/stm32h7xx_hal_rtc_ex.c ****             return HAL_TIMEOUT;
2123:Drivers/STM32H7xx_HAL_Driver/Src/stm32h7xx_hal_rtc_ex.c ****           }
2124:Drivers/STM32H7xx_HAL_Driver/Src/stm32h7xx_hal_rtc_ex.c ****         }
2125:Drivers/STM32H7xx_HAL_Driver/Src/stm32h7xx_hal_rtc_ex.c ****     }
2126:Drivers/STM32H7xx_HAL_Driver/Src/stm32h7xx_hal_rtc_ex.c **** 
2127:Drivers/STM32H7xx_HAL_Driver/Src/stm32h7xx_hal_rtc_ex.c ****   /* Configure the Wakeup Timer counter */
2128:Drivers/STM32H7xx_HAL_Driver/Src/stm32h7xx_hal_rtc_ex.c ****   hrtc->Instance->WUTR = (uint32_t)WakeUpCounter;
 2318              		.loc 1 2128 3 is_stmt 1 view .LVU782
 2319              		.loc 1 2128 7 is_stmt 0 view .LVU783
ARM GAS  C:\usertemp\cc0y2B3r.s 			page 81


 2320 003a 2368     		ldr	r3, [r4]
 2321              		.loc 1 2128 24 view .LVU784
 2322 003c 5E61     		str	r6, [r3, #20]
 2323              	.LBB2:
2129:Drivers/STM32H7xx_HAL_Driver/Src/stm32h7xx_hal_rtc_ex.c **** 
2130:Drivers/STM32H7xx_HAL_Driver/Src/stm32h7xx_hal_rtc_ex.c ****   /* Clear the Wakeup Timer clock source bits and configure the clock source in CR register */
2131:Drivers/STM32H7xx_HAL_Driver/Src/stm32h7xx_hal_rtc_ex.c ****   {
2132:Drivers/STM32H7xx_HAL_Driver/Src/stm32h7xx_hal_rtc_ex.c ****     uint32_t CR_tmp = hrtc->Instance->CR;
 2324              		.loc 1 2132 5 is_stmt 1 view .LVU785
 2325              		.loc 1 2132 27 is_stmt 0 view .LVU786
 2326 003e 2168     		ldr	r1, [r4]
 2327              		.loc 1 2132 14 view .LVU787
 2328 0040 8B68     		ldr	r3, [r1, #8]
 2329              	.LVL160:
2133:Drivers/STM32H7xx_HAL_Driver/Src/stm32h7xx_hal_rtc_ex.c ****     CR_tmp &= (uint32_t)~RTC_CR_WUCKSEL;
 2330              		.loc 1 2133 5 is_stmt 1 view .LVU788
 2331              		.loc 1 2133 12 is_stmt 0 view .LVU789
 2332 0042 23F00703 		bic	r3, r3, #7
 2333              	.LVL161:
2134:Drivers/STM32H7xx_HAL_Driver/Src/stm32h7xx_hal_rtc_ex.c ****     CR_tmp |= (uint32_t)WakeUpClock;
 2334              		.loc 1 2134 5 is_stmt 1 view .LVU790
 2335              		.loc 1 2134 12 is_stmt 0 view .LVU791
 2336 0046 2B43     		orrs	r3, r3, r5
 2337              	.LVL162:
2135:Drivers/STM32H7xx_HAL_Driver/Src/stm32h7xx_hal_rtc_ex.c ****     hrtc->Instance->CR = CR_tmp;
 2338              		.loc 1 2135 5 is_stmt 1 view .LVU792
 2339              		.loc 1 2135 24 is_stmt 0 view .LVU793
 2340 0048 8B60     		str	r3, [r1, #8]
 2341              	.LBE2:
2136:Drivers/STM32H7xx_HAL_Driver/Src/stm32h7xx_hal_rtc_ex.c ****   }
2137:Drivers/STM32H7xx_HAL_Driver/Src/stm32h7xx_hal_rtc_ex.c **** 
2138:Drivers/STM32H7xx_HAL_Driver/Src/stm32h7xx_hal_rtc_ex.c ****   /* RTC WakeUpTimer Interrupt Configuration: EXTI configuration */
2139:Drivers/STM32H7xx_HAL_Driver/Src/stm32h7xx_hal_rtc_ex.c **** #if defined(DUAL_CORE)
2140:Drivers/STM32H7xx_HAL_Driver/Src/stm32h7xx_hal_rtc_ex.c ****   if (HAL_GetCurrentCPUID() == CM7_CPUID)
2141:Drivers/STM32H7xx_HAL_Driver/Src/stm32h7xx_hal_rtc_ex.c ****   {
2142:Drivers/STM32H7xx_HAL_Driver/Src/stm32h7xx_hal_rtc_ex.c ****     __HAL_RTC_WAKEUPTIMER_EXTI_ENABLE_IT();
2143:Drivers/STM32H7xx_HAL_Driver/Src/stm32h7xx_hal_rtc_ex.c ****   }
2144:Drivers/STM32H7xx_HAL_Driver/Src/stm32h7xx_hal_rtc_ex.c ****   else
2145:Drivers/STM32H7xx_HAL_Driver/Src/stm32h7xx_hal_rtc_ex.c ****   {
2146:Drivers/STM32H7xx_HAL_Driver/Src/stm32h7xx_hal_rtc_ex.c ****     __HAL_RTC_WAKEUPTIMER_EXTID2_ENABLE_IT();
2147:Drivers/STM32H7xx_HAL_Driver/Src/stm32h7xx_hal_rtc_ex.c ****   }
2148:Drivers/STM32H7xx_HAL_Driver/Src/stm32h7xx_hal_rtc_ex.c **** #else /* SINGLE_CORE */
2149:Drivers/STM32H7xx_HAL_Driver/Src/stm32h7xx_hal_rtc_ex.c ****   __HAL_RTC_WAKEUPTIMER_EXTI_ENABLE_IT();
 2342              		.loc 1 2149 3 is_stmt 1 view .LVU794
 2343 004a 4FF0B043 		mov	r3, #1476395008
 2344              	.LVL163:
 2345              		.loc 1 2149 3 is_stmt 0 view .LVU795
 2346 004e D3F88020 		ldr	r2, [r3, #128]
 2347 0052 42F40022 		orr	r2, r2, #524288
 2348 0056 C3F88020 		str	r2, [r3, #128]
 2349              	.LVL164:
2150:Drivers/STM32H7xx_HAL_Driver/Src/stm32h7xx_hal_rtc_ex.c **** #endif /* DUAL_CORE */
2151:Drivers/STM32H7xx_HAL_Driver/Src/stm32h7xx_hal_rtc_ex.c **** 
2152:Drivers/STM32H7xx_HAL_Driver/Src/stm32h7xx_hal_rtc_ex.c ****   __HAL_RTC_WAKEUPTIMER_EXTI_ENABLE_RISING_EDGE();
 2350              		.loc 1 2152 3 is_stmt 1 view .LVU796
 2351 005a 1A68     		ldr	r2, [r3]
 2352 005c 42F40022 		orr	r2, r2, #524288
ARM GAS  C:\usertemp\cc0y2B3r.s 			page 82


 2353 0060 1A60     		str	r2, [r3]
2153:Drivers/STM32H7xx_HAL_Driver/Src/stm32h7xx_hal_rtc_ex.c **** 
2154:Drivers/STM32H7xx_HAL_Driver/Src/stm32h7xx_hal_rtc_ex.c ****   /* Configure the Interrupt in the RTC_CR register */
2155:Drivers/STM32H7xx_HAL_Driver/Src/stm32h7xx_hal_rtc_ex.c ****   __HAL_RTC_WAKEUPTIMER_ENABLE_IT(hrtc, RTC_IT_WUT);
 2354              		.loc 1 2155 3 view .LVU797
 2355 0062 2268     		ldr	r2, [r4]
 2356 0064 9368     		ldr	r3, [r2, #8]
 2357 0066 43F48043 		orr	r3, r3, #16384
 2358 006a 9360     		str	r3, [r2, #8]
2156:Drivers/STM32H7xx_HAL_Driver/Src/stm32h7xx_hal_rtc_ex.c **** 
2157:Drivers/STM32H7xx_HAL_Driver/Src/stm32h7xx_hal_rtc_ex.c ****   /* Enable the Wakeup Timer */
2158:Drivers/STM32H7xx_HAL_Driver/Src/stm32h7xx_hal_rtc_ex.c ****   __HAL_RTC_WAKEUPTIMER_ENABLE(hrtc);
 2359              		.loc 1 2158 3 view .LVU798
 2360 006c 2268     		ldr	r2, [r4]
 2361 006e 9368     		ldr	r3, [r2, #8]
 2362 0070 43F48063 		orr	r3, r3, #1024
 2363 0074 9360     		str	r3, [r2, #8]
2159:Drivers/STM32H7xx_HAL_Driver/Src/stm32h7xx_hal_rtc_ex.c **** 
2160:Drivers/STM32H7xx_HAL_Driver/Src/stm32h7xx_hal_rtc_ex.c ****   /* Enable the write protection for RTC registers */
2161:Drivers/STM32H7xx_HAL_Driver/Src/stm32h7xx_hal_rtc_ex.c ****   __HAL_RTC_WRITEPROTECTION_ENABLE(hrtc);
 2364              		.loc 1 2161 3 view .LVU799
 2365              		.loc 1 2161 3 view .LVU800
 2366 0076 2368     		ldr	r3, [r4]
 2367 0078 FF22     		movs	r2, #255
 2368 007a 5A62     		str	r2, [r3, #36]
 2369              		.loc 1 2161 3 view .LVU801
2162:Drivers/STM32H7xx_HAL_Driver/Src/stm32h7xx_hal_rtc_ex.c **** 
2163:Drivers/STM32H7xx_HAL_Driver/Src/stm32h7xx_hal_rtc_ex.c ****   hrtc->State = HAL_RTC_STATE_READY;
 2370              		.loc 1 2163 3 view .LVU802
 2371              		.loc 1 2163 15 is_stmt 0 view .LVU803
 2372 007c 0123     		movs	r3, #1
 2373 007e 84F82130 		strb	r3, [r4, #33]
2164:Drivers/STM32H7xx_HAL_Driver/Src/stm32h7xx_hal_rtc_ex.c **** 
2165:Drivers/STM32H7xx_HAL_Driver/Src/stm32h7xx_hal_rtc_ex.c ****   /* Process Unlocked */
2166:Drivers/STM32H7xx_HAL_Driver/Src/stm32h7xx_hal_rtc_ex.c ****   __HAL_UNLOCK(hrtc);
 2374              		.loc 1 2166 3 is_stmt 1 view .LVU804
 2375              		.loc 1 2166 3 view .LVU805
 2376 0082 0020     		movs	r0, #0
 2377 0084 84F82000 		strb	r0, [r4, #32]
 2378              		.loc 1 2166 3 view .LVU806
2167:Drivers/STM32H7xx_HAL_Driver/Src/stm32h7xx_hal_rtc_ex.c **** 
2168:Drivers/STM32H7xx_HAL_Driver/Src/stm32h7xx_hal_rtc_ex.c ****   return HAL_OK;
 2379              		.loc 1 2168 3 view .LVU807
 2380              	.LVL165:
 2381              	.L158:
2169:Drivers/STM32H7xx_HAL_Driver/Src/stm32h7xx_hal_rtc_ex.c **** }
 2382              		.loc 1 2169 1 is_stmt 0 view .LVU808
 2383 0088 F8BD     		pop	{r3, r4, r5, r6, r7, pc}
 2384              	.LVL166:
 2385              	.L164:
2103:Drivers/STM32H7xx_HAL_Driver/Src/stm32h7xx_hal_rtc_ex.c **** 
 2386              		.loc 1 2103 7 is_stmt 1 view .LVU809
2103:Drivers/STM32H7xx_HAL_Driver/Src/stm32h7xx_hal_rtc_ex.c **** 
 2387              		.loc 1 2103 19 is_stmt 0 view .LVU810
 2388 008a FFF7FEFF 		bl	HAL_GetTick
 2389              	.LVL167:
2103:Drivers/STM32H7xx_HAL_Driver/Src/stm32h7xx_hal_rtc_ex.c **** 
ARM GAS  C:\usertemp\cc0y2B3r.s 			page 83


 2390              		.loc 1 2103 19 view .LVU811
 2391 008e 0746     		mov	r7, r0
 2392              	.LVL168:
2109:Drivers/STM32H7xx_HAL_Driver/Src/stm32h7xx_hal_rtc_ex.c **** #endif /* RTC_ISR_WUTWF */
 2393              		.loc 1 2109 9 is_stmt 1 view .LVU812
 2394              	.L160:
2109:Drivers/STM32H7xx_HAL_Driver/Src/stm32h7xx_hal_rtc_ex.c **** #endif /* RTC_ISR_WUTWF */
 2395              		.loc 1 2109 68 view .LVU813
2109:Drivers/STM32H7xx_HAL_Driver/Src/stm32h7xx_hal_rtc_ex.c **** #endif /* RTC_ISR_WUTWF */
 2396              		.loc 1 2109 15 is_stmt 0 view .LVU814
 2397 0090 2368     		ldr	r3, [r4]
 2398 0092 DB68     		ldr	r3, [r3, #12]
2109:Drivers/STM32H7xx_HAL_Driver/Src/stm32h7xx_hal_rtc_ex.c **** #endif /* RTC_ISR_WUTWF */
 2399              		.loc 1 2109 68 view .LVU815
 2400 0094 13F0040F 		tst	r3, #4
 2401 0098 CFD1     		bne	.L159
2112:Drivers/STM32H7xx_HAL_Driver/Src/stm32h7xx_hal_rtc_ex.c ****           {
 2402              		.loc 1 2112 11 is_stmt 1 view .LVU816
2112:Drivers/STM32H7xx_HAL_Driver/Src/stm32h7xx_hal_rtc_ex.c ****           {
 2403              		.loc 1 2112 16 is_stmt 0 view .LVU817
 2404 009a FFF7FEFF 		bl	HAL_GetTick
 2405              	.LVL169:
2112:Drivers/STM32H7xx_HAL_Driver/Src/stm32h7xx_hal_rtc_ex.c ****           {
 2406              		.loc 1 2112 30 discriminator 1 view .LVU818
 2407 009e C01B     		subs	r0, r0, r7
2112:Drivers/STM32H7xx_HAL_Driver/Src/stm32h7xx_hal_rtc_ex.c ****           {
 2408              		.loc 1 2112 14 discriminator 1 view .LVU819
 2409 00a0 B0F57A7F 		cmp	r0, #1000
 2410 00a4 F4D9     		bls	.L160
2115:Drivers/STM32H7xx_HAL_Driver/Src/stm32h7xx_hal_rtc_ex.c **** 
 2411              		.loc 1 2115 13 is_stmt 1 view .LVU820
2115:Drivers/STM32H7xx_HAL_Driver/Src/stm32h7xx_hal_rtc_ex.c **** 
 2412              		.loc 1 2115 13 view .LVU821
 2413 00a6 2368     		ldr	r3, [r4]
 2414 00a8 FF22     		movs	r2, #255
 2415 00aa 5A62     		str	r2, [r3, #36]
2115:Drivers/STM32H7xx_HAL_Driver/Src/stm32h7xx_hal_rtc_ex.c **** 
 2416              		.loc 1 2115 13 view .LVU822
2117:Drivers/STM32H7xx_HAL_Driver/Src/stm32h7xx_hal_rtc_ex.c **** 
 2417              		.loc 1 2117 13 view .LVU823
2117:Drivers/STM32H7xx_HAL_Driver/Src/stm32h7xx_hal_rtc_ex.c **** 
 2418              		.loc 1 2117 25 is_stmt 0 view .LVU824
 2419 00ac 0320     		movs	r0, #3
 2420 00ae 84F82100 		strb	r0, [r4, #33]
2120:Drivers/STM32H7xx_HAL_Driver/Src/stm32h7xx_hal_rtc_ex.c **** 
 2421              		.loc 1 2120 13 is_stmt 1 view .LVU825
2120:Drivers/STM32H7xx_HAL_Driver/Src/stm32h7xx_hal_rtc_ex.c **** 
 2422              		.loc 1 2120 13 view .LVU826
 2423 00b2 0023     		movs	r3, #0
 2424 00b4 84F82030 		strb	r3, [r4, #32]
2120:Drivers/STM32H7xx_HAL_Driver/Src/stm32h7xx_hal_rtc_ex.c **** 
 2425              		.loc 1 2120 13 view .LVU827
2122:Drivers/STM32H7xx_HAL_Driver/Src/stm32h7xx_hal_rtc_ex.c ****           }
 2426              		.loc 1 2122 13 view .LVU828
2122:Drivers/STM32H7xx_HAL_Driver/Src/stm32h7xx_hal_rtc_ex.c ****           }
 2427              		.loc 1 2122 20 is_stmt 0 view .LVU829
 2428 00b8 E6E7     		b	.L158
ARM GAS  C:\usertemp\cc0y2B3r.s 			page 84


 2429              	.LVL170:
 2430              	.L162:
2083:Drivers/STM32H7xx_HAL_Driver/Src/stm32h7xx_hal_rtc_ex.c **** 
 2431              		.loc 1 2083 3 discriminator 1 view .LVU830
 2432 00ba 0220     		movs	r0, #2
 2433              	.LVL171:
2083:Drivers/STM32H7xx_HAL_Driver/Src/stm32h7xx_hal_rtc_ex.c **** 
 2434              		.loc 1 2083 3 discriminator 1 view .LVU831
 2435 00bc E4E7     		b	.L158
 2436              	.L166:
 2437 00be 00BF     		.align	2
 2438              	.L165:
 2439 00c0 00400058 		.word	1476411392
 2440              		.cfi_endproc
 2441              	.LFE359:
 2443              		.section	.text.HAL_RTCEx_DeactivateWakeUpTimer,"ax",%progbits
 2444              		.align	1
 2445              		.global	HAL_RTCEx_DeactivateWakeUpTimer
 2446              		.syntax unified
 2447              		.thumb
 2448              		.thumb_func
 2450              	HAL_RTCEx_DeactivateWakeUpTimer:
 2451              	.LVL172:
 2452              	.LFB360:
2170:Drivers/STM32H7xx_HAL_Driver/Src/stm32h7xx_hal_rtc_ex.c **** 
2171:Drivers/STM32H7xx_HAL_Driver/Src/stm32h7xx_hal_rtc_ex.c **** /**
2172:Drivers/STM32H7xx_HAL_Driver/Src/stm32h7xx_hal_rtc_ex.c ****   * @brief  Deactivate wake up timer counter.
2173:Drivers/STM32H7xx_HAL_Driver/Src/stm32h7xx_hal_rtc_ex.c ****   * @param  hrtc RTC handle
2174:Drivers/STM32H7xx_HAL_Driver/Src/stm32h7xx_hal_rtc_ex.c ****   * @retval HAL status
2175:Drivers/STM32H7xx_HAL_Driver/Src/stm32h7xx_hal_rtc_ex.c ****   */
2176:Drivers/STM32H7xx_HAL_Driver/Src/stm32h7xx_hal_rtc_ex.c **** HAL_StatusTypeDef HAL_RTCEx_DeactivateWakeUpTimer(RTC_HandleTypeDef *hrtc)
2177:Drivers/STM32H7xx_HAL_Driver/Src/stm32h7xx_hal_rtc_ex.c **** {
 2453              		.loc 1 2177 1 is_stmt 1 view -0
 2454              		.cfi_startproc
 2455              		@ args = 0, pretend = 0, frame = 0
 2456              		@ frame_needed = 0, uses_anonymous_args = 0
 2457              		.loc 1 2177 1 is_stmt 0 view .LVU833
 2458 0000 38B5     		push	{r3, r4, r5, lr}
 2459              	.LCFI24:
 2460              		.cfi_def_cfa_offset 16
 2461              		.cfi_offset 3, -16
 2462              		.cfi_offset 4, -12
 2463              		.cfi_offset 5, -8
 2464              		.cfi_offset 14, -4
2178:Drivers/STM32H7xx_HAL_Driver/Src/stm32h7xx_hal_rtc_ex.c ****   uint32_t tickstart;
 2465              		.loc 1 2178 3 is_stmt 1 view .LVU834
2179:Drivers/STM32H7xx_HAL_Driver/Src/stm32h7xx_hal_rtc_ex.c **** 
2180:Drivers/STM32H7xx_HAL_Driver/Src/stm32h7xx_hal_rtc_ex.c ****   /* Process Locked */
2181:Drivers/STM32H7xx_HAL_Driver/Src/stm32h7xx_hal_rtc_ex.c ****   __HAL_LOCK(hrtc);
 2466              		.loc 1 2181 3 view .LVU835
 2467              		.loc 1 2181 3 view .LVU836
 2468 0002 90F82030 		ldrb	r3, [r0, #32]	@ zero_extendqisi2
 2469 0006 012B     		cmp	r3, #1
 2470 0008 37D0     		beq	.L171
 2471 000a 0446     		mov	r4, r0
 2472              		.loc 1 2181 3 discriminator 2 view .LVU837
 2473 000c 0123     		movs	r3, #1
ARM GAS  C:\usertemp\cc0y2B3r.s 			page 85


 2474 000e 80F82030 		strb	r3, [r0, #32]
 2475              		.loc 1 2181 3 discriminator 2 view .LVU838
2182:Drivers/STM32H7xx_HAL_Driver/Src/stm32h7xx_hal_rtc_ex.c **** 
2183:Drivers/STM32H7xx_HAL_Driver/Src/stm32h7xx_hal_rtc_ex.c ****   hrtc->State = HAL_RTC_STATE_BUSY;
 2476              		.loc 1 2183 3 view .LVU839
 2477              		.loc 1 2183 15 is_stmt 0 view .LVU840
 2478 0012 0223     		movs	r3, #2
 2479 0014 80F82130 		strb	r3, [r0, #33]
2184:Drivers/STM32H7xx_HAL_Driver/Src/stm32h7xx_hal_rtc_ex.c **** 
2185:Drivers/STM32H7xx_HAL_Driver/Src/stm32h7xx_hal_rtc_ex.c ****   /* Disable the write protection for RTC registers */
2186:Drivers/STM32H7xx_HAL_Driver/Src/stm32h7xx_hal_rtc_ex.c ****   __HAL_RTC_WRITEPROTECTION_DISABLE(hrtc);
 2480              		.loc 1 2186 3 is_stmt 1 view .LVU841
 2481              		.loc 1 2186 3 view .LVU842
 2482 0018 0368     		ldr	r3, [r0]
 2483 001a CA22     		movs	r2, #202
 2484 001c 5A62     		str	r2, [r3, #36]
 2485              		.loc 1 2186 3 view .LVU843
 2486 001e 0368     		ldr	r3, [r0]
 2487 0020 5322     		movs	r2, #83
 2488 0022 5A62     		str	r2, [r3, #36]
 2489              		.loc 1 2186 3 view .LVU844
2187:Drivers/STM32H7xx_HAL_Driver/Src/stm32h7xx_hal_rtc_ex.c **** 
2188:Drivers/STM32H7xx_HAL_Driver/Src/stm32h7xx_hal_rtc_ex.c ****   /* Disable the Wakeup Timer */
2189:Drivers/STM32H7xx_HAL_Driver/Src/stm32h7xx_hal_rtc_ex.c ****   __HAL_RTC_WAKEUPTIMER_DISABLE(hrtc);
 2490              		.loc 1 2189 3 view .LVU845
 2491 0024 0268     		ldr	r2, [r0]
 2492 0026 9368     		ldr	r3, [r2, #8]
 2493 0028 23F48063 		bic	r3, r3, #1024
 2494 002c 9360     		str	r3, [r2, #8]
2190:Drivers/STM32H7xx_HAL_Driver/Src/stm32h7xx_hal_rtc_ex.c **** 
2191:Drivers/STM32H7xx_HAL_Driver/Src/stm32h7xx_hal_rtc_ex.c ****   /* In case of interrupt mode is used, the interrupt source must disabled */
2192:Drivers/STM32H7xx_HAL_Driver/Src/stm32h7xx_hal_rtc_ex.c ****   __HAL_RTC_WAKEUPTIMER_DISABLE_IT(hrtc, RTC_IT_WUT);
 2495              		.loc 1 2192 3 view .LVU846
 2496 002e 0268     		ldr	r2, [r0]
 2497 0030 9368     		ldr	r3, [r2, #8]
 2498 0032 23F48043 		bic	r3, r3, #16384
 2499 0036 9360     		str	r3, [r2, #8]
2193:Drivers/STM32H7xx_HAL_Driver/Src/stm32h7xx_hal_rtc_ex.c **** 
2194:Drivers/STM32H7xx_HAL_Driver/Src/stm32h7xx_hal_rtc_ex.c ****   tickstart = HAL_GetTick();
 2500              		.loc 1 2194 3 view .LVU847
 2501              		.loc 1 2194 15 is_stmt 0 view .LVU848
 2502 0038 FFF7FEFF 		bl	HAL_GetTick
 2503              	.LVL173:
 2504              		.loc 1 2194 15 view .LVU849
 2505 003c 0546     		mov	r5, r0
 2506              	.LVL174:
2195:Drivers/STM32H7xx_HAL_Driver/Src/stm32h7xx_hal_rtc_ex.c ****   /* Wait till RTC WUTWF flag is set and if Time out is reached exit */
2196:Drivers/STM32H7xx_HAL_Driver/Src/stm32h7xx_hal_rtc_ex.c ****   #if defined(RTC_ICSR_WUTWF)
2197:Drivers/STM32H7xx_HAL_Driver/Src/stm32h7xx_hal_rtc_ex.c ****     while (READ_BIT(hrtc->Instance->ICSR, RTC_FLAG_WUTWF) == 0U)
2198:Drivers/STM32H7xx_HAL_Driver/Src/stm32h7xx_hal_rtc_ex.c ****   #endif /* RTC_ICSR_WUTWF */
2199:Drivers/STM32H7xx_HAL_Driver/Src/stm32h7xx_hal_rtc_ex.c ****   #if defined(RTC_ISR_WUTWF)
2200:Drivers/STM32H7xx_HAL_Driver/Src/stm32h7xx_hal_rtc_ex.c ****     while(__HAL_RTC_WAKEUPTIMER_GET_FLAG(hrtc, RTC_FLAG_WUTWF) == 0U)
 2507              		.loc 1 2200 5 is_stmt 1 view .LVU850
 2508              	.L169:
 2509              		.loc 1 2200 64 view .LVU851
 2510              		.loc 1 2200 11 is_stmt 0 view .LVU852
 2511 003e 2368     		ldr	r3, [r4]
ARM GAS  C:\usertemp\cc0y2B3r.s 			page 86


 2512 0040 DA68     		ldr	r2, [r3, #12]
 2513              		.loc 1 2200 64 view .LVU853
 2514 0042 12F0040F 		tst	r2, #4
 2515 0046 0FD1     		bne	.L173
2201:Drivers/STM32H7xx_HAL_Driver/Src/stm32h7xx_hal_rtc_ex.c ****   #endif /* RTC_ISR_WUTWF */
2202:Drivers/STM32H7xx_HAL_Driver/Src/stm32h7xx_hal_rtc_ex.c ****   {
2203:Drivers/STM32H7xx_HAL_Driver/Src/stm32h7xx_hal_rtc_ex.c ****     if ((HAL_GetTick() - tickstart) > RTC_TIMEOUT_VALUE)
 2516              		.loc 1 2203 5 is_stmt 1 view .LVU854
 2517              		.loc 1 2203 10 is_stmt 0 view .LVU855
 2518 0048 FFF7FEFF 		bl	HAL_GetTick
 2519              	.LVL175:
 2520              		.loc 1 2203 24 discriminator 1 view .LVU856
 2521 004c 431B     		subs	r3, r0, r5
 2522              		.loc 1 2203 8 discriminator 1 view .LVU857
 2523 004e B3F57A7F 		cmp	r3, #1000
 2524 0052 F4D9     		bls	.L169
2204:Drivers/STM32H7xx_HAL_Driver/Src/stm32h7xx_hal_rtc_ex.c ****     {
2205:Drivers/STM32H7xx_HAL_Driver/Src/stm32h7xx_hal_rtc_ex.c ****       /* Enable the write protection for RTC registers */
2206:Drivers/STM32H7xx_HAL_Driver/Src/stm32h7xx_hal_rtc_ex.c ****       __HAL_RTC_WRITEPROTECTION_ENABLE(hrtc);
 2525              		.loc 1 2206 7 is_stmt 1 view .LVU858
 2526              		.loc 1 2206 7 view .LVU859
 2527 0054 2368     		ldr	r3, [r4]
 2528 0056 FF22     		movs	r2, #255
 2529 0058 5A62     		str	r2, [r3, #36]
 2530              		.loc 1 2206 7 view .LVU860
2207:Drivers/STM32H7xx_HAL_Driver/Src/stm32h7xx_hal_rtc_ex.c **** 
2208:Drivers/STM32H7xx_HAL_Driver/Src/stm32h7xx_hal_rtc_ex.c ****       hrtc->State = HAL_RTC_STATE_TIMEOUT;
 2531              		.loc 1 2208 7 view .LVU861
 2532              		.loc 1 2208 19 is_stmt 0 view .LVU862
 2533 005a 0320     		movs	r0, #3
 2534 005c 84F82100 		strb	r0, [r4, #33]
2209:Drivers/STM32H7xx_HAL_Driver/Src/stm32h7xx_hal_rtc_ex.c **** 
2210:Drivers/STM32H7xx_HAL_Driver/Src/stm32h7xx_hal_rtc_ex.c ****       /* Process Unlocked */
2211:Drivers/STM32H7xx_HAL_Driver/Src/stm32h7xx_hal_rtc_ex.c ****       __HAL_UNLOCK(hrtc);
 2535              		.loc 1 2211 7 is_stmt 1 view .LVU863
 2536              		.loc 1 2211 7 view .LVU864
 2537 0060 0023     		movs	r3, #0
 2538 0062 84F82030 		strb	r3, [r4, #32]
 2539              		.loc 1 2211 7 view .LVU865
2212:Drivers/STM32H7xx_HAL_Driver/Src/stm32h7xx_hal_rtc_ex.c **** 
2213:Drivers/STM32H7xx_HAL_Driver/Src/stm32h7xx_hal_rtc_ex.c ****       return HAL_TIMEOUT;
 2540              		.loc 1 2213 7 view .LVU866
 2541              		.loc 1 2213 14 is_stmt 0 view .LVU867
 2542 0066 07E0     		b	.L168
 2543              	.L173:
2214:Drivers/STM32H7xx_HAL_Driver/Src/stm32h7xx_hal_rtc_ex.c ****     }
2215:Drivers/STM32H7xx_HAL_Driver/Src/stm32h7xx_hal_rtc_ex.c ****   }
2216:Drivers/STM32H7xx_HAL_Driver/Src/stm32h7xx_hal_rtc_ex.c **** 
2217:Drivers/STM32H7xx_HAL_Driver/Src/stm32h7xx_hal_rtc_ex.c ****   /* Enable the write protection for RTC registers */
2218:Drivers/STM32H7xx_HAL_Driver/Src/stm32h7xx_hal_rtc_ex.c ****   __HAL_RTC_WRITEPROTECTION_ENABLE(hrtc);
 2544              		.loc 1 2218 3 is_stmt 1 view .LVU868
 2545              		.loc 1 2218 3 view .LVU869
 2546 0068 FF22     		movs	r2, #255
 2547 006a 5A62     		str	r2, [r3, #36]
 2548              		.loc 1 2218 3 view .LVU870
2219:Drivers/STM32H7xx_HAL_Driver/Src/stm32h7xx_hal_rtc_ex.c **** 
2220:Drivers/STM32H7xx_HAL_Driver/Src/stm32h7xx_hal_rtc_ex.c ****   hrtc->State = HAL_RTC_STATE_READY;
ARM GAS  C:\usertemp\cc0y2B3r.s 			page 87


 2549              		.loc 1 2220 3 view .LVU871
 2550              		.loc 1 2220 15 is_stmt 0 view .LVU872
 2551 006c 0123     		movs	r3, #1
 2552 006e 84F82130 		strb	r3, [r4, #33]
2221:Drivers/STM32H7xx_HAL_Driver/Src/stm32h7xx_hal_rtc_ex.c **** 
2222:Drivers/STM32H7xx_HAL_Driver/Src/stm32h7xx_hal_rtc_ex.c ****   /* Process Unlocked */
2223:Drivers/STM32H7xx_HAL_Driver/Src/stm32h7xx_hal_rtc_ex.c ****   __HAL_UNLOCK(hrtc);
 2553              		.loc 1 2223 3 is_stmt 1 view .LVU873
 2554              		.loc 1 2223 3 view .LVU874
 2555 0072 0020     		movs	r0, #0
 2556 0074 84F82000 		strb	r0, [r4, #32]
 2557              		.loc 1 2223 3 view .LVU875
2224:Drivers/STM32H7xx_HAL_Driver/Src/stm32h7xx_hal_rtc_ex.c **** 
2225:Drivers/STM32H7xx_HAL_Driver/Src/stm32h7xx_hal_rtc_ex.c ****   return HAL_OK;
 2558              		.loc 1 2225 3 view .LVU876
 2559              	.LVL176:
 2560              	.L168:
2226:Drivers/STM32H7xx_HAL_Driver/Src/stm32h7xx_hal_rtc_ex.c **** }
 2561              		.loc 1 2226 1 is_stmt 0 view .LVU877
 2562 0078 38BD     		pop	{r3, r4, r5, pc}
 2563              	.LVL177:
 2564              	.L171:
2181:Drivers/STM32H7xx_HAL_Driver/Src/stm32h7xx_hal_rtc_ex.c **** 
 2565              		.loc 1 2181 3 discriminator 1 view .LVU878
 2566 007a 0220     		movs	r0, #2
 2567              	.LVL178:
2181:Drivers/STM32H7xx_HAL_Driver/Src/stm32h7xx_hal_rtc_ex.c **** 
 2568              		.loc 1 2181 3 discriminator 1 view .LVU879
 2569 007c FCE7     		b	.L168
 2570              		.cfi_endproc
 2571              	.LFE360:
 2573              		.section	.text.HAL_RTCEx_GetWakeUpTimer,"ax",%progbits
 2574              		.align	1
 2575              		.global	HAL_RTCEx_GetWakeUpTimer
 2576              		.syntax unified
 2577              		.thumb
 2578              		.thumb_func
 2580              	HAL_RTCEx_GetWakeUpTimer:
 2581              	.LVL179:
 2582              	.LFB361:
2227:Drivers/STM32H7xx_HAL_Driver/Src/stm32h7xx_hal_rtc_ex.c **** 
2228:Drivers/STM32H7xx_HAL_Driver/Src/stm32h7xx_hal_rtc_ex.c **** /**
2229:Drivers/STM32H7xx_HAL_Driver/Src/stm32h7xx_hal_rtc_ex.c ****   * @brief  Get wake up timer counter.
2230:Drivers/STM32H7xx_HAL_Driver/Src/stm32h7xx_hal_rtc_ex.c ****   * @param  hrtc RTC handle
2231:Drivers/STM32H7xx_HAL_Driver/Src/stm32h7xx_hal_rtc_ex.c ****   * @retval Counter value
2232:Drivers/STM32H7xx_HAL_Driver/Src/stm32h7xx_hal_rtc_ex.c ****   */
2233:Drivers/STM32H7xx_HAL_Driver/Src/stm32h7xx_hal_rtc_ex.c **** uint32_t HAL_RTCEx_GetWakeUpTimer(RTC_HandleTypeDef *hrtc)
2234:Drivers/STM32H7xx_HAL_Driver/Src/stm32h7xx_hal_rtc_ex.c **** {
 2583              		.loc 1 2234 1 is_stmt 1 view -0
 2584              		.cfi_startproc
 2585              		@ args = 0, pretend = 0, frame = 0
 2586              		@ frame_needed = 0, uses_anonymous_args = 0
 2587              		@ link register save eliminated.
2235:Drivers/STM32H7xx_HAL_Driver/Src/stm32h7xx_hal_rtc_ex.c ****   /* Get the counter value */
2236:Drivers/STM32H7xx_HAL_Driver/Src/stm32h7xx_hal_rtc_ex.c ****   return ((uint32_t)(hrtc->Instance->WUTR & RTC_WUTR_WUT));
 2588              		.loc 1 2236 3 view .LVU881
 2589              		.loc 1 2236 26 is_stmt 0 view .LVU882
ARM GAS  C:\usertemp\cc0y2B3r.s 			page 88


 2590 0000 0368     		ldr	r3, [r0]
 2591              		.loc 1 2236 36 view .LVU883
 2592 0002 5869     		ldr	r0, [r3, #20]
 2593              	.LVL180:
2237:Drivers/STM32H7xx_HAL_Driver/Src/stm32h7xx_hal_rtc_ex.c **** }
 2594              		.loc 1 2237 1 view .LVU884
 2595 0004 80B2     		uxth	r0, r0
 2596 0006 7047     		bx	lr
 2597              		.cfi_endproc
 2598              	.LFE361:
 2600              		.section	.text.HAL_RTCEx_WakeUpTimerEventCallback,"ax",%progbits
 2601              		.align	1
 2602              		.weak	HAL_RTCEx_WakeUpTimerEventCallback
 2603              		.syntax unified
 2604              		.thumb
 2605              		.thumb_func
 2607              	HAL_RTCEx_WakeUpTimerEventCallback:
 2608              	.LVL181:
 2609              	.LFB363:
2238:Drivers/STM32H7xx_HAL_Driver/Src/stm32h7xx_hal_rtc_ex.c **** 
2239:Drivers/STM32H7xx_HAL_Driver/Src/stm32h7xx_hal_rtc_ex.c **** /**
2240:Drivers/STM32H7xx_HAL_Driver/Src/stm32h7xx_hal_rtc_ex.c ****   * @brief  Handle Wake Up Timer interrupt request.
2241:Drivers/STM32H7xx_HAL_Driver/Src/stm32h7xx_hal_rtc_ex.c ****   * @param  hrtc RTC handle
2242:Drivers/STM32H7xx_HAL_Driver/Src/stm32h7xx_hal_rtc_ex.c ****   * @retval None
2243:Drivers/STM32H7xx_HAL_Driver/Src/stm32h7xx_hal_rtc_ex.c ****   */
2244:Drivers/STM32H7xx_HAL_Driver/Src/stm32h7xx_hal_rtc_ex.c **** void HAL_RTCEx_WakeUpTimerIRQHandler(RTC_HandleTypeDef *hrtc)
2245:Drivers/STM32H7xx_HAL_Driver/Src/stm32h7xx_hal_rtc_ex.c **** {
2246:Drivers/STM32H7xx_HAL_Driver/Src/stm32h7xx_hal_rtc_ex.c ****   /* Clear the EXTI's line Flag for RTC WakeUpTimer */
2247:Drivers/STM32H7xx_HAL_Driver/Src/stm32h7xx_hal_rtc_ex.c **** #if defined(DUAL_CORE)
2248:Drivers/STM32H7xx_HAL_Driver/Src/stm32h7xx_hal_rtc_ex.c ****   if (HAL_GetCurrentCPUID() == CM7_CPUID)
2249:Drivers/STM32H7xx_HAL_Driver/Src/stm32h7xx_hal_rtc_ex.c ****   {
2250:Drivers/STM32H7xx_HAL_Driver/Src/stm32h7xx_hal_rtc_ex.c ****     __HAL_RTC_WAKEUPTIMER_EXTI_CLEAR_FLAG();
2251:Drivers/STM32H7xx_HAL_Driver/Src/stm32h7xx_hal_rtc_ex.c ****   }
2252:Drivers/STM32H7xx_HAL_Driver/Src/stm32h7xx_hal_rtc_ex.c ****   else
2253:Drivers/STM32H7xx_HAL_Driver/Src/stm32h7xx_hal_rtc_ex.c ****   {
2254:Drivers/STM32H7xx_HAL_Driver/Src/stm32h7xx_hal_rtc_ex.c ****     __HAL_RTC_WAKEUPTIMER_EXTID2_CLEAR_FLAG();
2255:Drivers/STM32H7xx_HAL_Driver/Src/stm32h7xx_hal_rtc_ex.c ****   }
2256:Drivers/STM32H7xx_HAL_Driver/Src/stm32h7xx_hal_rtc_ex.c **** #else /* SINGLE_CORE */
2257:Drivers/STM32H7xx_HAL_Driver/Src/stm32h7xx_hal_rtc_ex.c ****   __HAL_RTC_WAKEUPTIMER_EXTI_CLEAR_FLAG();
2258:Drivers/STM32H7xx_HAL_Driver/Src/stm32h7xx_hal_rtc_ex.c **** #endif /* DUAL_CORE */
2259:Drivers/STM32H7xx_HAL_Driver/Src/stm32h7xx_hal_rtc_ex.c **** 
2260:Drivers/STM32H7xx_HAL_Driver/Src/stm32h7xx_hal_rtc_ex.c **** #if defined(RTC_MISR_WUTMF)
2261:Drivers/STM32H7xx_HAL_Driver/Src/stm32h7xx_hal_rtc_ex.c ****   /* Get the pending status of the WAKEUPTIMER Interrupt */
2262:Drivers/STM32H7xx_HAL_Driver/Src/stm32h7xx_hal_rtc_ex.c ****   if ((hrtc->Instance->MISR & RTC_MISR_WUTMF) != 0u)
2263:Drivers/STM32H7xx_HAL_Driver/Src/stm32h7xx_hal_rtc_ex.c ****   {
2264:Drivers/STM32H7xx_HAL_Driver/Src/stm32h7xx_hal_rtc_ex.c ****     /* Immediately clear flags */
2265:Drivers/STM32H7xx_HAL_Driver/Src/stm32h7xx_hal_rtc_ex.c ****     hrtc->Instance->SCR = RTC_SCR_CWUTF;
2266:Drivers/STM32H7xx_HAL_Driver/Src/stm32h7xx_hal_rtc_ex.c **** 
2267:Drivers/STM32H7xx_HAL_Driver/Src/stm32h7xx_hal_rtc_ex.c ****     /* WAKEUPTIMER callback */
2268:Drivers/STM32H7xx_HAL_Driver/Src/stm32h7xx_hal_rtc_ex.c ****   #if (USE_HAL_RTC_REGISTER_CALLBACKS == 1)
2269:Drivers/STM32H7xx_HAL_Driver/Src/stm32h7xx_hal_rtc_ex.c ****     /* Call WakeUpTimerEvent registered Callback */
2270:Drivers/STM32H7xx_HAL_Driver/Src/stm32h7xx_hal_rtc_ex.c ****     hrtc->WakeUpTimerEventCallback(hrtc);
2271:Drivers/STM32H7xx_HAL_Driver/Src/stm32h7xx_hal_rtc_ex.c ****   #else
2272:Drivers/STM32H7xx_HAL_Driver/Src/stm32h7xx_hal_rtc_ex.c ****     HAL_RTCEx_WakeUpTimerEventCallback(hrtc);
2273:Drivers/STM32H7xx_HAL_Driver/Src/stm32h7xx_hal_rtc_ex.c ****   #endif /* USE_HAL_RTC_REGISTER_CALLBACKS */
2274:Drivers/STM32H7xx_HAL_Driver/Src/stm32h7xx_hal_rtc_ex.c ****   }
2275:Drivers/STM32H7xx_HAL_Driver/Src/stm32h7xx_hal_rtc_ex.c **** #endif /* RTC_MISR_WUTMF */
ARM GAS  C:\usertemp\cc0y2B3r.s 			page 89


2276:Drivers/STM32H7xx_HAL_Driver/Src/stm32h7xx_hal_rtc_ex.c **** #if defined(RTC_ISR_WUTF)
2277:Drivers/STM32H7xx_HAL_Driver/Src/stm32h7xx_hal_rtc_ex.c ****   /* Get the pending status of the WAKEUPTIMER Interrupt */
2278:Drivers/STM32H7xx_HAL_Driver/Src/stm32h7xx_hal_rtc_ex.c ****   if (__HAL_RTC_WAKEUPTIMER_GET_FLAG(hrtc, RTC_FLAG_WUTF) != 0U)
2279:Drivers/STM32H7xx_HAL_Driver/Src/stm32h7xx_hal_rtc_ex.c ****   {
2280:Drivers/STM32H7xx_HAL_Driver/Src/stm32h7xx_hal_rtc_ex.c ****     /* Clear the WAKEUPTIMER interrupt pending bit */
2281:Drivers/STM32H7xx_HAL_Driver/Src/stm32h7xx_hal_rtc_ex.c ****     __HAL_RTC_WAKEUPTIMER_CLEAR_FLAG(hrtc, RTC_FLAG_WUTF);
2282:Drivers/STM32H7xx_HAL_Driver/Src/stm32h7xx_hal_rtc_ex.c **** 
2283:Drivers/STM32H7xx_HAL_Driver/Src/stm32h7xx_hal_rtc_ex.c ****     /* WAKEUPTIMER callback */
2284:Drivers/STM32H7xx_HAL_Driver/Src/stm32h7xx_hal_rtc_ex.c ****   #if (USE_HAL_RTC_REGISTER_CALLBACKS == 1)
2285:Drivers/STM32H7xx_HAL_Driver/Src/stm32h7xx_hal_rtc_ex.c ****     /* Call WakeUpTimerEvent registered Callback */
2286:Drivers/STM32H7xx_HAL_Driver/Src/stm32h7xx_hal_rtc_ex.c ****     hrtc->WakeUpTimerEventCallback(hrtc);
2287:Drivers/STM32H7xx_HAL_Driver/Src/stm32h7xx_hal_rtc_ex.c ****   #else
2288:Drivers/STM32H7xx_HAL_Driver/Src/stm32h7xx_hal_rtc_ex.c ****     HAL_RTCEx_WakeUpTimerEventCallback(hrtc);
2289:Drivers/STM32H7xx_HAL_Driver/Src/stm32h7xx_hal_rtc_ex.c ****   #endif /* USE_HAL_RTC_REGISTER_CALLBACKS */
2290:Drivers/STM32H7xx_HAL_Driver/Src/stm32h7xx_hal_rtc_ex.c ****   }
2291:Drivers/STM32H7xx_HAL_Driver/Src/stm32h7xx_hal_rtc_ex.c **** #endif /* RTC_ISR_WUTF */
2292:Drivers/STM32H7xx_HAL_Driver/Src/stm32h7xx_hal_rtc_ex.c **** 
2293:Drivers/STM32H7xx_HAL_Driver/Src/stm32h7xx_hal_rtc_ex.c ****   /* Change RTC state */
2294:Drivers/STM32H7xx_HAL_Driver/Src/stm32h7xx_hal_rtc_ex.c ****   hrtc->State = HAL_RTC_STATE_READY;
2295:Drivers/STM32H7xx_HAL_Driver/Src/stm32h7xx_hal_rtc_ex.c **** }
2296:Drivers/STM32H7xx_HAL_Driver/Src/stm32h7xx_hal_rtc_ex.c **** 
2297:Drivers/STM32H7xx_HAL_Driver/Src/stm32h7xx_hal_rtc_ex.c **** /**
2298:Drivers/STM32H7xx_HAL_Driver/Src/stm32h7xx_hal_rtc_ex.c ****   * @brief  Wake Up Timer callback.
2299:Drivers/STM32H7xx_HAL_Driver/Src/stm32h7xx_hal_rtc_ex.c ****   * @param  hrtc RTC handle
2300:Drivers/STM32H7xx_HAL_Driver/Src/stm32h7xx_hal_rtc_ex.c ****   * @retval None
2301:Drivers/STM32H7xx_HAL_Driver/Src/stm32h7xx_hal_rtc_ex.c ****   */
2302:Drivers/STM32H7xx_HAL_Driver/Src/stm32h7xx_hal_rtc_ex.c **** __weak void HAL_RTCEx_WakeUpTimerEventCallback(RTC_HandleTypeDef * hrtc)
2303:Drivers/STM32H7xx_HAL_Driver/Src/stm32h7xx_hal_rtc_ex.c **** {
 2610              		.loc 1 2303 1 is_stmt 1 view -0
 2611              		.cfi_startproc
 2612              		@ args = 0, pretend = 0, frame = 0
 2613              		@ frame_needed = 0, uses_anonymous_args = 0
 2614              		@ link register save eliminated.
2304:Drivers/STM32H7xx_HAL_Driver/Src/stm32h7xx_hal_rtc_ex.c ****   /* Prevent unused argument(s) compilation warning */
2305:Drivers/STM32H7xx_HAL_Driver/Src/stm32h7xx_hal_rtc_ex.c ****   UNUSED(hrtc);
 2615              		.loc 1 2305 3 view .LVU886
2306:Drivers/STM32H7xx_HAL_Driver/Src/stm32h7xx_hal_rtc_ex.c **** 
2307:Drivers/STM32H7xx_HAL_Driver/Src/stm32h7xx_hal_rtc_ex.c ****   /* NOTE : This function should not be modified, when the callback is needed,
2308:Drivers/STM32H7xx_HAL_Driver/Src/stm32h7xx_hal_rtc_ex.c ****             the HAL_RTCEx_WakeUpTimerEventCallback could be implemented in the user file
2309:Drivers/STM32H7xx_HAL_Driver/Src/stm32h7xx_hal_rtc_ex.c ****    */
2310:Drivers/STM32H7xx_HAL_Driver/Src/stm32h7xx_hal_rtc_ex.c **** }
 2616              		.loc 1 2310 1 is_stmt 0 view .LVU887
 2617 0000 7047     		bx	lr
 2618              		.cfi_endproc
 2619              	.LFE363:
 2621              		.section	.text.HAL_RTCEx_WakeUpTimerIRQHandler,"ax",%progbits
 2622              		.align	1
 2623              		.global	HAL_RTCEx_WakeUpTimerIRQHandler
 2624              		.syntax unified
 2625              		.thumb
 2626              		.thumb_func
 2628              	HAL_RTCEx_WakeUpTimerIRQHandler:
 2629              	.LVL182:
 2630              	.LFB362:
2245:Drivers/STM32H7xx_HAL_Driver/Src/stm32h7xx_hal_rtc_ex.c ****   /* Clear the EXTI's line Flag for RTC WakeUpTimer */
 2631              		.loc 1 2245 1 is_stmt 1 view -0
 2632              		.cfi_startproc
ARM GAS  C:\usertemp\cc0y2B3r.s 			page 90


 2633              		@ args = 0, pretend = 0, frame = 0
 2634              		@ frame_needed = 0, uses_anonymous_args = 0
2245:Drivers/STM32H7xx_HAL_Driver/Src/stm32h7xx_hal_rtc_ex.c ****   /* Clear the EXTI's line Flag for RTC WakeUpTimer */
 2635              		.loc 1 2245 1 is_stmt 0 view .LVU889
 2636 0000 10B5     		push	{r4, lr}
 2637              	.LCFI25:
 2638              		.cfi_def_cfa_offset 8
 2639              		.cfi_offset 4, -8
 2640              		.cfi_offset 14, -4
 2641 0002 0446     		mov	r4, r0
2257:Drivers/STM32H7xx_HAL_Driver/Src/stm32h7xx_hal_rtc_ex.c **** #endif /* DUAL_CORE */
 2642              		.loc 1 2257 3 is_stmt 1 view .LVU890
 2643 0004 4FF0B043 		mov	r3, #1476395008
 2644 0008 4FF40022 		mov	r2, #524288
 2645 000c C3F88820 		str	r2, [r3, #136]
2278:Drivers/STM32H7xx_HAL_Driver/Src/stm32h7xx_hal_rtc_ex.c ****   {
 2646              		.loc 1 2278 3 view .LVU891
2278:Drivers/STM32H7xx_HAL_Driver/Src/stm32h7xx_hal_rtc_ex.c ****   {
 2647              		.loc 1 2278 7 is_stmt 0 view .LVU892
 2648 0010 0368     		ldr	r3, [r0]
 2649 0012 DA68     		ldr	r2, [r3, #12]
2278:Drivers/STM32H7xx_HAL_Driver/Src/stm32h7xx_hal_rtc_ex.c ****   {
 2650              		.loc 1 2278 6 view .LVU893
 2651 0014 12F4806F 		tst	r2, #1024
 2652 0018 03D1     		bne	.L179
 2653              	.LVL183:
 2654              	.L177:
2294:Drivers/STM32H7xx_HAL_Driver/Src/stm32h7xx_hal_rtc_ex.c **** }
 2655              		.loc 1 2294 3 is_stmt 1 view .LVU894
2294:Drivers/STM32H7xx_HAL_Driver/Src/stm32h7xx_hal_rtc_ex.c **** }
 2656              		.loc 1 2294 15 is_stmt 0 view .LVU895
 2657 001a 0123     		movs	r3, #1
 2658 001c 84F82130 		strb	r3, [r4, #33]
2295:Drivers/STM32H7xx_HAL_Driver/Src/stm32h7xx_hal_rtc_ex.c **** 
 2659              		.loc 1 2295 1 view .LVU896
 2660 0020 10BD     		pop	{r4, pc}
 2661              	.LVL184:
 2662              	.L179:
2281:Drivers/STM32H7xx_HAL_Driver/Src/stm32h7xx_hal_rtc_ex.c **** 
 2663              		.loc 1 2281 5 is_stmt 1 view .LVU897
 2664 0022 DA68     		ldr	r2, [r3, #12]
 2665 0024 D2B2     		uxtb	r2, r2
 2666 0026 62F49062 		orn	r2, r2, #1152
 2667 002a DA60     		str	r2, [r3, #12]
2288:Drivers/STM32H7xx_HAL_Driver/Src/stm32h7xx_hal_rtc_ex.c ****   #endif /* USE_HAL_RTC_REGISTER_CALLBACKS */
 2668              		.loc 1 2288 5 view .LVU898
 2669 002c FFF7FEFF 		bl	HAL_RTCEx_WakeUpTimerEventCallback
 2670              	.LVL185:
2288:Drivers/STM32H7xx_HAL_Driver/Src/stm32h7xx_hal_rtc_ex.c ****   #endif /* USE_HAL_RTC_REGISTER_CALLBACKS */
 2671              		.loc 1 2288 5 is_stmt 0 view .LVU899
 2672 0030 F3E7     		b	.L177
 2673              		.cfi_endproc
 2674              	.LFE362:
 2676              		.section	.text.HAL_RTCEx_PollForWakeUpTimerEvent,"ax",%progbits
 2677              		.align	1
 2678              		.global	HAL_RTCEx_PollForWakeUpTimerEvent
 2679              		.syntax unified
ARM GAS  C:\usertemp\cc0y2B3r.s 			page 91


 2680              		.thumb
 2681              		.thumb_func
 2683              	HAL_RTCEx_PollForWakeUpTimerEvent:
 2684              	.LVL186:
 2685              	.LFB364:
2311:Drivers/STM32H7xx_HAL_Driver/Src/stm32h7xx_hal_rtc_ex.c **** 
2312:Drivers/STM32H7xx_HAL_Driver/Src/stm32h7xx_hal_rtc_ex.c **** 
2313:Drivers/STM32H7xx_HAL_Driver/Src/stm32h7xx_hal_rtc_ex.c **** /**
2314:Drivers/STM32H7xx_HAL_Driver/Src/stm32h7xx_hal_rtc_ex.c ****   * @brief  Handle Wake Up Timer Polling.
2315:Drivers/STM32H7xx_HAL_Driver/Src/stm32h7xx_hal_rtc_ex.c ****   * @param  hrtc RTC handle
2316:Drivers/STM32H7xx_HAL_Driver/Src/stm32h7xx_hal_rtc_ex.c ****   * @param  Timeout Timeout duration
2317:Drivers/STM32H7xx_HAL_Driver/Src/stm32h7xx_hal_rtc_ex.c ****   * @retval HAL status
2318:Drivers/STM32H7xx_HAL_Driver/Src/stm32h7xx_hal_rtc_ex.c ****   */
2319:Drivers/STM32H7xx_HAL_Driver/Src/stm32h7xx_hal_rtc_ex.c **** HAL_StatusTypeDef HAL_RTCEx_PollForWakeUpTimerEvent(RTC_HandleTypeDef * hrtc, uint32_t Timeout)
2320:Drivers/STM32H7xx_HAL_Driver/Src/stm32h7xx_hal_rtc_ex.c **** {
 2686              		.loc 1 2320 1 is_stmt 1 view -0
 2687              		.cfi_startproc
 2688              		@ args = 0, pretend = 0, frame = 0
 2689              		@ frame_needed = 0, uses_anonymous_args = 0
 2690              		.loc 1 2320 1 is_stmt 0 view .LVU901
 2691 0000 70B5     		push	{r4, r5, r6, lr}
 2692              	.LCFI26:
 2693              		.cfi_def_cfa_offset 16
 2694              		.cfi_offset 4, -16
 2695              		.cfi_offset 5, -12
 2696              		.cfi_offset 6, -8
 2697              		.cfi_offset 14, -4
 2698 0002 0446     		mov	r4, r0
 2699 0004 0D46     		mov	r5, r1
2321:Drivers/STM32H7xx_HAL_Driver/Src/stm32h7xx_hal_rtc_ex.c ****   uint32_t tickstart = HAL_GetTick();
 2700              		.loc 1 2321 3 is_stmt 1 view .LVU902
 2701              		.loc 1 2321 24 is_stmt 0 view .LVU903
 2702 0006 FFF7FEFF 		bl	HAL_GetTick
 2703              	.LVL187:
 2704              		.loc 1 2321 24 view .LVU904
 2705 000a 0646     		mov	r6, r0
 2706              	.LVL188:
2322:Drivers/STM32H7xx_HAL_Driver/Src/stm32h7xx_hal_rtc_ex.c **** 
2323:Drivers/STM32H7xx_HAL_Driver/Src/stm32h7xx_hal_rtc_ex.c ****   while(__HAL_RTC_WAKEUPTIMER_GET_FLAG(hrtc, RTC_FLAG_WUTF) == 0U)
 2707              		.loc 1 2323 3 is_stmt 1 view .LVU905
 2708              	.L182:
 2709              		.loc 1 2323 61 view .LVU906
 2710              		.loc 1 2323 9 is_stmt 0 view .LVU907
 2711 000c 2368     		ldr	r3, [r4]
 2712 000e DA68     		ldr	r2, [r3, #12]
 2713              		.loc 1 2323 61 view .LVU908
 2714 0010 12F4806F 		tst	r2, #1024
 2715 0014 0DD1     		bne	.L187
2324:Drivers/STM32H7xx_HAL_Driver/Src/stm32h7xx_hal_rtc_ex.c ****   {
2325:Drivers/STM32H7xx_HAL_Driver/Src/stm32h7xx_hal_rtc_ex.c ****     if (Timeout != HAL_MAX_DELAY)
 2716              		.loc 1 2325 5 is_stmt 1 view .LVU909
 2717              		.loc 1 2325 8 is_stmt 0 view .LVU910
 2718 0016 B5F1FF3F 		cmp	r5, #-1
 2719 001a F7D0     		beq	.L182
2326:Drivers/STM32H7xx_HAL_Driver/Src/stm32h7xx_hal_rtc_ex.c ****     {
2327:Drivers/STM32H7xx_HAL_Driver/Src/stm32h7xx_hal_rtc_ex.c ****       if (((HAL_GetTick() - tickstart) > Timeout) || (Timeout == 0U))
 2720              		.loc 1 2327 7 is_stmt 1 view .LVU911
ARM GAS  C:\usertemp\cc0y2B3r.s 			page 92


 2721              		.loc 1 2327 13 is_stmt 0 view .LVU912
 2722 001c FFF7FEFF 		bl	HAL_GetTick
 2723              	.LVL189:
 2724              		.loc 1 2327 27 discriminator 1 view .LVU913
 2725 0020 801B     		subs	r0, r0, r6
 2726              		.loc 1 2327 10 discriminator 1 view .LVU914
 2727 0022 A842     		cmp	r0, r5
 2728 0024 01D8     		bhi	.L183
 2729              		.loc 1 2327 51 discriminator 1 view .LVU915
 2730 0026 002D     		cmp	r5, #0
 2731 0028 F0D1     		bne	.L182
 2732              	.L183:
2328:Drivers/STM32H7xx_HAL_Driver/Src/stm32h7xx_hal_rtc_ex.c ****       {
2329:Drivers/STM32H7xx_HAL_Driver/Src/stm32h7xx_hal_rtc_ex.c ****         hrtc->State = HAL_RTC_STATE_TIMEOUT;
 2733              		.loc 1 2329 9 is_stmt 1 view .LVU916
 2734              		.loc 1 2329 21 is_stmt 0 view .LVU917
 2735 002a 0320     		movs	r0, #3
 2736 002c 84F82100 		strb	r0, [r4, #33]
2330:Drivers/STM32H7xx_HAL_Driver/Src/stm32h7xx_hal_rtc_ex.c ****         return HAL_TIMEOUT;
 2737              		.loc 1 2330 9 is_stmt 1 view .LVU918
 2738              		.loc 1 2330 16 is_stmt 0 view .LVU919
 2739 0030 08E0     		b	.L184
 2740              	.L187:
2331:Drivers/STM32H7xx_HAL_Driver/Src/stm32h7xx_hal_rtc_ex.c ****       }
2332:Drivers/STM32H7xx_HAL_Driver/Src/stm32h7xx_hal_rtc_ex.c ****     }
2333:Drivers/STM32H7xx_HAL_Driver/Src/stm32h7xx_hal_rtc_ex.c ****   }
2334:Drivers/STM32H7xx_HAL_Driver/Src/stm32h7xx_hal_rtc_ex.c **** 
2335:Drivers/STM32H7xx_HAL_Driver/Src/stm32h7xx_hal_rtc_ex.c ****   /* Clear the WAKEUPTIMER Flag */
2336:Drivers/STM32H7xx_HAL_Driver/Src/stm32h7xx_hal_rtc_ex.c ****   __HAL_RTC_WAKEUPTIMER_CLEAR_FLAG(hrtc, RTC_FLAG_WUTF);
 2741              		.loc 1 2336 3 is_stmt 1 view .LVU920
 2742 0032 DA68     		ldr	r2, [r3, #12]
 2743 0034 D2B2     		uxtb	r2, r2
 2744 0036 62F49062 		orn	r2, r2, #1152
 2745 003a DA60     		str	r2, [r3, #12]
2337:Drivers/STM32H7xx_HAL_Driver/Src/stm32h7xx_hal_rtc_ex.c **** 
2338:Drivers/STM32H7xx_HAL_Driver/Src/stm32h7xx_hal_rtc_ex.c ****   /* Change RTC state */
2339:Drivers/STM32H7xx_HAL_Driver/Src/stm32h7xx_hal_rtc_ex.c ****   hrtc->State = HAL_RTC_STATE_READY;
 2746              		.loc 1 2339 3 view .LVU921
 2747              		.loc 1 2339 15 is_stmt 0 view .LVU922
 2748 003c 0123     		movs	r3, #1
 2749 003e 84F82130 		strb	r3, [r4, #33]
2340:Drivers/STM32H7xx_HAL_Driver/Src/stm32h7xx_hal_rtc_ex.c **** 
2341:Drivers/STM32H7xx_HAL_Driver/Src/stm32h7xx_hal_rtc_ex.c ****   return HAL_OK;
 2750              		.loc 1 2341 3 is_stmt 1 view .LVU923
 2751              		.loc 1 2341 10 is_stmt 0 view .LVU924
 2752 0042 0020     		movs	r0, #0
 2753              	.L184:
2342:Drivers/STM32H7xx_HAL_Driver/Src/stm32h7xx_hal_rtc_ex.c **** }
 2754              		.loc 1 2342 1 view .LVU925
 2755 0044 70BD     		pop	{r4, r5, r6, pc}
 2756              		.loc 1 2342 1 view .LVU926
 2757              		.cfi_endproc
 2758              	.LFE364:
 2760              		.section	.text.HAL_RTCEx_BKUPWrite,"ax",%progbits
 2761              		.align	1
 2762              		.global	HAL_RTCEx_BKUPWrite
 2763              		.syntax unified
ARM GAS  C:\usertemp\cc0y2B3r.s 			page 93


 2764              		.thumb
 2765              		.thumb_func
 2767              	HAL_RTCEx_BKUPWrite:
 2768              	.LVL190:
 2769              	.LFB365:
2343:Drivers/STM32H7xx_HAL_Driver/Src/stm32h7xx_hal_rtc_ex.c **** 
2344:Drivers/STM32H7xx_HAL_Driver/Src/stm32h7xx_hal_rtc_ex.c **** /**
2345:Drivers/STM32H7xx_HAL_Driver/Src/stm32h7xx_hal_rtc_ex.c ****   * @}
2346:Drivers/STM32H7xx_HAL_Driver/Src/stm32h7xx_hal_rtc_ex.c ****   */
2347:Drivers/STM32H7xx_HAL_Driver/Src/stm32h7xx_hal_rtc_ex.c **** 
2348:Drivers/STM32H7xx_HAL_Driver/Src/stm32h7xx_hal_rtc_ex.c **** 
2349:Drivers/STM32H7xx_HAL_Driver/Src/stm32h7xx_hal_rtc_ex.c **** /** @addtogroup RTCEx_Exported_Functions_Group6
2350:Drivers/STM32H7xx_HAL_Driver/Src/stm32h7xx_hal_rtc_ex.c ****   * @brief      Extended RTC Backup register functions
2351:Drivers/STM32H7xx_HAL_Driver/Src/stm32h7xx_hal_rtc_ex.c ****   *
2352:Drivers/STM32H7xx_HAL_Driver/Src/stm32h7xx_hal_rtc_ex.c **** @verbatim
2353:Drivers/STM32H7xx_HAL_Driver/Src/stm32h7xx_hal_rtc_ex.c ****  ===============================================================================
2354:Drivers/STM32H7xx_HAL_Driver/Src/stm32h7xx_hal_rtc_ex.c ****              ##### Extended RTC Backup register functions #####
2355:Drivers/STM32H7xx_HAL_Driver/Src/stm32h7xx_hal_rtc_ex.c ****  ===============================================================================
2356:Drivers/STM32H7xx_HAL_Driver/Src/stm32h7xx_hal_rtc_ex.c ****   [..]
2357:Drivers/STM32H7xx_HAL_Driver/Src/stm32h7xx_hal_rtc_ex.c ****    (+) Before calling any tamper or internal tamper function, you have to call first
2358:Drivers/STM32H7xx_HAL_Driver/Src/stm32h7xx_hal_rtc_ex.c ****        HAL_RTC_Init() function.
2359:Drivers/STM32H7xx_HAL_Driver/Src/stm32h7xx_hal_rtc_ex.c ****    (+) In that ine you can select to output tamper event on RTC pin.
2360:Drivers/STM32H7xx_HAL_Driver/Src/stm32h7xx_hal_rtc_ex.c ****   [..]
2361:Drivers/STM32H7xx_HAL_Driver/Src/stm32h7xx_hal_rtc_ex.c ****    This subsection provides functions allowing to
2362:Drivers/STM32H7xx_HAL_Driver/Src/stm32h7xx_hal_rtc_ex.c ****    (+) Write a data in a specified RTC Backup data register
2363:Drivers/STM32H7xx_HAL_Driver/Src/stm32h7xx_hal_rtc_ex.c ****    (+) Read a data in a specified RTC Backup data register
2364:Drivers/STM32H7xx_HAL_Driver/Src/stm32h7xx_hal_rtc_ex.c **** @endverbatim
2365:Drivers/STM32H7xx_HAL_Driver/Src/stm32h7xx_hal_rtc_ex.c ****   * @{
2366:Drivers/STM32H7xx_HAL_Driver/Src/stm32h7xx_hal_rtc_ex.c ****   */
2367:Drivers/STM32H7xx_HAL_Driver/Src/stm32h7xx_hal_rtc_ex.c **** 
2368:Drivers/STM32H7xx_HAL_Driver/Src/stm32h7xx_hal_rtc_ex.c **** 
2369:Drivers/STM32H7xx_HAL_Driver/Src/stm32h7xx_hal_rtc_ex.c **** /**
2370:Drivers/STM32H7xx_HAL_Driver/Src/stm32h7xx_hal_rtc_ex.c ****   * @brief  Write a data in a specified RTC Backup data register.
2371:Drivers/STM32H7xx_HAL_Driver/Src/stm32h7xx_hal_rtc_ex.c ****   * @param  hrtc RTC handle
2372:Drivers/STM32H7xx_HAL_Driver/Src/stm32h7xx_hal_rtc_ex.c ****   * @param  BackupRegister RTC Backup data Register number.
2373:Drivers/STM32H7xx_HAL_Driver/Src/stm32h7xx_hal_rtc_ex.c ****   *          This parameter can be: RTC_BKP_DRx where x can be from 0 to 31 to
2374:Drivers/STM32H7xx_HAL_Driver/Src/stm32h7xx_hal_rtc_ex.c ****   *                                 specify the register.
2375:Drivers/STM32H7xx_HAL_Driver/Src/stm32h7xx_hal_rtc_ex.c ****   * @param  Data Data to be written in the specified Backup data register.
2376:Drivers/STM32H7xx_HAL_Driver/Src/stm32h7xx_hal_rtc_ex.c ****   * @retval None
2377:Drivers/STM32H7xx_HAL_Driver/Src/stm32h7xx_hal_rtc_ex.c ****   */
2378:Drivers/STM32H7xx_HAL_Driver/Src/stm32h7xx_hal_rtc_ex.c **** void HAL_RTCEx_BKUPWrite(RTC_HandleTypeDef * hrtc, uint32_t BackupRegister, uint32_t Data)
2379:Drivers/STM32H7xx_HAL_Driver/Src/stm32h7xx_hal_rtc_ex.c **** {
 2770              		.loc 1 2379 1 is_stmt 1 view -0
 2771              		.cfi_startproc
 2772              		@ args = 0, pretend = 0, frame = 0
 2773              		@ frame_needed = 0, uses_anonymous_args = 0
 2774              		@ link register save eliminated.
2380:Drivers/STM32H7xx_HAL_Driver/Src/stm32h7xx_hal_rtc_ex.c ****   uint32_t tmp;
 2775              		.loc 1 2380 3 view .LVU928
2381:Drivers/STM32H7xx_HAL_Driver/Src/stm32h7xx_hal_rtc_ex.c **** 
2382:Drivers/STM32H7xx_HAL_Driver/Src/stm32h7xx_hal_rtc_ex.c ****   /* Check the parameters */
2383:Drivers/STM32H7xx_HAL_Driver/Src/stm32h7xx_hal_rtc_ex.c ****   assert_param(IS_RTC_BKP(BackupRegister));
 2776              		.loc 1 2383 3 view .LVU929
2384:Drivers/STM32H7xx_HAL_Driver/Src/stm32h7xx_hal_rtc_ex.c **** 
2385:Drivers/STM32H7xx_HAL_Driver/Src/stm32h7xx_hal_rtc_ex.c ****   /* Point on address of first backup register */
2386:Drivers/STM32H7xx_HAL_Driver/Src/stm32h7xx_hal_rtc_ex.c **** #if defined(TAMP_BKP0R)
2387:Drivers/STM32H7xx_HAL_Driver/Src/stm32h7xx_hal_rtc_ex.c ****   tmp = (uint32_t) & (((TAMP_TypeDef *)((uint32_t)hrtc->Instance + TAMP_OFFSET))->BKP0R);
ARM GAS  C:\usertemp\cc0y2B3r.s 			page 94


2388:Drivers/STM32H7xx_HAL_Driver/Src/stm32h7xx_hal_rtc_ex.c **** #endif /* TAMP_BKP0R */
2389:Drivers/STM32H7xx_HAL_Driver/Src/stm32h7xx_hal_rtc_ex.c **** #if defined(RTC_BKP0R)
2390:Drivers/STM32H7xx_HAL_Driver/Src/stm32h7xx_hal_rtc_ex.c ****   tmp = (uint32_t) & (hrtc->Instance->BKP0R);
 2777              		.loc 1 2390 3 view .LVU930
 2778              		.loc 1 2390 27 is_stmt 0 view .LVU931
 2779 0000 0368     		ldr	r3, [r0]
 2780              		.loc 1 2390 20 view .LVU932
 2781 0002 5033     		adds	r3, r3, #80
 2782              	.LVL191:
2391:Drivers/STM32H7xx_HAL_Driver/Src/stm32h7xx_hal_rtc_ex.c **** #endif /* RTC_BKP0R */
2392:Drivers/STM32H7xx_HAL_Driver/Src/stm32h7xx_hal_rtc_ex.c **** 
2393:Drivers/STM32H7xx_HAL_Driver/Src/stm32h7xx_hal_rtc_ex.c ****   tmp += (BackupRegister * 4U);
 2783              		.loc 1 2393 3 is_stmt 1 view .LVU933
2394:Drivers/STM32H7xx_HAL_Driver/Src/stm32h7xx_hal_rtc_ex.c **** 
2395:Drivers/STM32H7xx_HAL_Driver/Src/stm32h7xx_hal_rtc_ex.c ****   /* Write the specified register */
2396:Drivers/STM32H7xx_HAL_Driver/Src/stm32h7xx_hal_rtc_ex.c ****   *(__IO uint32_t *)tmp = (uint32_t)Data;
 2784              		.loc 1 2396 3 view .LVU934
 2785              		.loc 1 2396 25 is_stmt 0 view .LVU935
 2786 0004 43F82120 		str	r2, [r3, r1, lsl #2]
2397:Drivers/STM32H7xx_HAL_Driver/Src/stm32h7xx_hal_rtc_ex.c **** }
 2787              		.loc 1 2397 1 view .LVU936
 2788 0008 7047     		bx	lr
 2789              		.cfi_endproc
 2790              	.LFE365:
 2792              		.section	.text.HAL_RTCEx_BKUPRead,"ax",%progbits
 2793              		.align	1
 2794              		.global	HAL_RTCEx_BKUPRead
 2795              		.syntax unified
 2796              		.thumb
 2797              		.thumb_func
 2799              	HAL_RTCEx_BKUPRead:
 2800              	.LVL192:
 2801              	.LFB366:
2398:Drivers/STM32H7xx_HAL_Driver/Src/stm32h7xx_hal_rtc_ex.c **** 
2399:Drivers/STM32H7xx_HAL_Driver/Src/stm32h7xx_hal_rtc_ex.c **** 
2400:Drivers/STM32H7xx_HAL_Driver/Src/stm32h7xx_hal_rtc_ex.c **** /**
2401:Drivers/STM32H7xx_HAL_Driver/Src/stm32h7xx_hal_rtc_ex.c ****   * @brief  Read data from the specified RTC Backup data Register.
2402:Drivers/STM32H7xx_HAL_Driver/Src/stm32h7xx_hal_rtc_ex.c ****   * @param  hrtc RTC handle
2403:Drivers/STM32H7xx_HAL_Driver/Src/stm32h7xx_hal_rtc_ex.c ****   * @param  BackupRegister RTC Backup data Register number.
2404:Drivers/STM32H7xx_HAL_Driver/Src/stm32h7xx_hal_rtc_ex.c ****   *          This parameter can be: RTC_BKP_DRx where x can be from 0 to 31 to
2405:Drivers/STM32H7xx_HAL_Driver/Src/stm32h7xx_hal_rtc_ex.c ****   *                                 specify the register.
2406:Drivers/STM32H7xx_HAL_Driver/Src/stm32h7xx_hal_rtc_ex.c ****   * @retval Read value
2407:Drivers/STM32H7xx_HAL_Driver/Src/stm32h7xx_hal_rtc_ex.c ****   */
2408:Drivers/STM32H7xx_HAL_Driver/Src/stm32h7xx_hal_rtc_ex.c **** uint32_t HAL_RTCEx_BKUPRead(RTC_HandleTypeDef * hrtc, uint32_t BackupRegister)
2409:Drivers/STM32H7xx_HAL_Driver/Src/stm32h7xx_hal_rtc_ex.c **** {
 2802              		.loc 1 2409 1 is_stmt 1 view -0
 2803              		.cfi_startproc
 2804              		@ args = 0, pretend = 0, frame = 0
 2805              		@ frame_needed = 0, uses_anonymous_args = 0
 2806              		@ link register save eliminated.
2410:Drivers/STM32H7xx_HAL_Driver/Src/stm32h7xx_hal_rtc_ex.c ****   uint32_t tmp;
 2807              		.loc 1 2410 3 view .LVU938
2411:Drivers/STM32H7xx_HAL_Driver/Src/stm32h7xx_hal_rtc_ex.c **** 
2412:Drivers/STM32H7xx_HAL_Driver/Src/stm32h7xx_hal_rtc_ex.c ****   /* Check the parameters */
2413:Drivers/STM32H7xx_HAL_Driver/Src/stm32h7xx_hal_rtc_ex.c ****   assert_param(IS_RTC_BKP(BackupRegister));
 2808              		.loc 1 2413 3 view .LVU939
2414:Drivers/STM32H7xx_HAL_Driver/Src/stm32h7xx_hal_rtc_ex.c **** 
ARM GAS  C:\usertemp\cc0y2B3r.s 			page 95


2415:Drivers/STM32H7xx_HAL_Driver/Src/stm32h7xx_hal_rtc_ex.c ****   /* Point on address of first backup register */
2416:Drivers/STM32H7xx_HAL_Driver/Src/stm32h7xx_hal_rtc_ex.c **** #if defined(TAMP_BKP0R)
2417:Drivers/STM32H7xx_HAL_Driver/Src/stm32h7xx_hal_rtc_ex.c ****   tmp = (uint32_t) & (((TAMP_TypeDef *)((uint32_t)hrtc->Instance + TAMP_OFFSET))->BKP0R);
2418:Drivers/STM32H7xx_HAL_Driver/Src/stm32h7xx_hal_rtc_ex.c **** #endif /* TAMP_BKP0R */
2419:Drivers/STM32H7xx_HAL_Driver/Src/stm32h7xx_hal_rtc_ex.c **** #if defined(RTC_BKP0R)
2420:Drivers/STM32H7xx_HAL_Driver/Src/stm32h7xx_hal_rtc_ex.c ****   tmp = (uint32_t) & (hrtc->Instance->BKP0R);
 2809              		.loc 1 2420 3 view .LVU940
 2810              		.loc 1 2420 27 is_stmt 0 view .LVU941
 2811 0000 0368     		ldr	r3, [r0]
 2812              		.loc 1 2420 20 view .LVU942
 2813 0002 5033     		adds	r3, r3, #80
 2814              	.LVL193:
2421:Drivers/STM32H7xx_HAL_Driver/Src/stm32h7xx_hal_rtc_ex.c **** #endif /* RTC_BKP0R */
2422:Drivers/STM32H7xx_HAL_Driver/Src/stm32h7xx_hal_rtc_ex.c **** 
2423:Drivers/STM32H7xx_HAL_Driver/Src/stm32h7xx_hal_rtc_ex.c ****   tmp += (BackupRegister * 4U);
 2815              		.loc 1 2423 3 is_stmt 1 view .LVU943
2424:Drivers/STM32H7xx_HAL_Driver/Src/stm32h7xx_hal_rtc_ex.c **** 
2425:Drivers/STM32H7xx_HAL_Driver/Src/stm32h7xx_hal_rtc_ex.c ****   /* Read the specified register */
2426:Drivers/STM32H7xx_HAL_Driver/Src/stm32h7xx_hal_rtc_ex.c ****   return (*(__IO uint32_t *)tmp);
 2816              		.loc 1 2426 3 view .LVU944
 2817              		.loc 1 2426 11 is_stmt 0 view .LVU945
 2818 0004 53F82100 		ldr	r0, [r3, r1, lsl #2]
 2819              	.LVL194:
2427:Drivers/STM32H7xx_HAL_Driver/Src/stm32h7xx_hal_rtc_ex.c **** }
 2820              		.loc 1 2427 1 view .LVU946
 2821 0008 7047     		bx	lr
 2822              		.cfi_endproc
 2823              	.LFE366:
 2825              		.section	.text.HAL_RTCEx_SetSmoothCalib,"ax",%progbits
 2826              		.align	1
 2827              		.global	HAL_RTCEx_SetSmoothCalib
 2828              		.syntax unified
 2829              		.thumb
 2830              		.thumb_func
 2832              	HAL_RTCEx_SetSmoothCalib:
 2833              	.LVL195:
 2834              	.LFB367:
2428:Drivers/STM32H7xx_HAL_Driver/Src/stm32h7xx_hal_rtc_ex.c **** 
2429:Drivers/STM32H7xx_HAL_Driver/Src/stm32h7xx_hal_rtc_ex.c **** 
2430:Drivers/STM32H7xx_HAL_Driver/Src/stm32h7xx_hal_rtc_ex.c **** /**
2431:Drivers/STM32H7xx_HAL_Driver/Src/stm32h7xx_hal_rtc_ex.c ****   * @}
2432:Drivers/STM32H7xx_HAL_Driver/Src/stm32h7xx_hal_rtc_ex.c ****   */
2433:Drivers/STM32H7xx_HAL_Driver/Src/stm32h7xx_hal_rtc_ex.c **** 
2434:Drivers/STM32H7xx_HAL_Driver/Src/stm32h7xx_hal_rtc_ex.c **** 
2435:Drivers/STM32H7xx_HAL_Driver/Src/stm32h7xx_hal_rtc_ex.c **** /** @addtogroup RTCEx_Exported_Functions_Group3
2436:Drivers/STM32H7xx_HAL_Driver/Src/stm32h7xx_hal_rtc_ex.c ****   * @brief    Extended Peripheral Control functions
2437:Drivers/STM32H7xx_HAL_Driver/Src/stm32h7xx_hal_rtc_ex.c ****   *
2438:Drivers/STM32H7xx_HAL_Driver/Src/stm32h7xx_hal_rtc_ex.c **** @verbatim
2439:Drivers/STM32H7xx_HAL_Driver/Src/stm32h7xx_hal_rtc_ex.c ****  ===============================================================================
2440:Drivers/STM32H7xx_HAL_Driver/Src/stm32h7xx_hal_rtc_ex.c ****               ##### Extended Peripheral Control functions #####
2441:Drivers/STM32H7xx_HAL_Driver/Src/stm32h7xx_hal_rtc_ex.c ****  ===============================================================================
2442:Drivers/STM32H7xx_HAL_Driver/Src/stm32h7xx_hal_rtc_ex.c ****     [..]
2443:Drivers/STM32H7xx_HAL_Driver/Src/stm32h7xx_hal_rtc_ex.c ****     This subsection provides functions allowing to
2444:Drivers/STM32H7xx_HAL_Driver/Src/stm32h7xx_hal_rtc_ex.c ****       (+) Write a data in a specified RTC Backup data register
2445:Drivers/STM32H7xx_HAL_Driver/Src/stm32h7xx_hal_rtc_ex.c ****       (+) Read a data in a specified RTC Backup data register
2446:Drivers/STM32H7xx_HAL_Driver/Src/stm32h7xx_hal_rtc_ex.c ****       (+) Set the Smooth calibration parameters.
2447:Drivers/STM32H7xx_HAL_Driver/Src/stm32h7xx_hal_rtc_ex.c ****       (+) Set Low Power calibration parameter (if feature supported).
ARM GAS  C:\usertemp\cc0y2B3r.s 			page 96


2448:Drivers/STM32H7xx_HAL_Driver/Src/stm32h7xx_hal_rtc_ex.c ****       (+) Configure the Synchronization Shift Control Settings.
2449:Drivers/STM32H7xx_HAL_Driver/Src/stm32h7xx_hal_rtc_ex.c ****       (+) Configure the Calibration Pinout (RTC_CALIB) Selection (1Hz or 512Hz).
2450:Drivers/STM32H7xx_HAL_Driver/Src/stm32h7xx_hal_rtc_ex.c ****       (+) Deactivate the Calibration Pinout (RTC_CALIB) Selection (1Hz or 512Hz).
2451:Drivers/STM32H7xx_HAL_Driver/Src/stm32h7xx_hal_rtc_ex.c ****       (+) Enable the RTC reference clock detection.
2452:Drivers/STM32H7xx_HAL_Driver/Src/stm32h7xx_hal_rtc_ex.c ****       (+) Disable the RTC reference clock detection.
2453:Drivers/STM32H7xx_HAL_Driver/Src/stm32h7xx_hal_rtc_ex.c ****       (+) Enable the Bypass Shadow feature.
2454:Drivers/STM32H7xx_HAL_Driver/Src/stm32h7xx_hal_rtc_ex.c ****       (+) Disable the Bypass Shadow feature.
2455:Drivers/STM32H7xx_HAL_Driver/Src/stm32h7xx_hal_rtc_ex.c **** 
2456:Drivers/STM32H7xx_HAL_Driver/Src/stm32h7xx_hal_rtc_ex.c **** @endverbatim
2457:Drivers/STM32H7xx_HAL_Driver/Src/stm32h7xx_hal_rtc_ex.c ****   * @{
2458:Drivers/STM32H7xx_HAL_Driver/Src/stm32h7xx_hal_rtc_ex.c ****   */
2459:Drivers/STM32H7xx_HAL_Driver/Src/stm32h7xx_hal_rtc_ex.c **** 
2460:Drivers/STM32H7xx_HAL_Driver/Src/stm32h7xx_hal_rtc_ex.c **** 
2461:Drivers/STM32H7xx_HAL_Driver/Src/stm32h7xx_hal_rtc_ex.c **** /**
2462:Drivers/STM32H7xx_HAL_Driver/Src/stm32h7xx_hal_rtc_ex.c ****   * @brief  Set the Smooth calibration parameters.
2463:Drivers/STM32H7xx_HAL_Driver/Src/stm32h7xx_hal_rtc_ex.c ****   * @param  hrtc RTC handle
2464:Drivers/STM32H7xx_HAL_Driver/Src/stm32h7xx_hal_rtc_ex.c ****   * @param  SmoothCalibPeriod Select the Smooth Calibration Period.
2465:Drivers/STM32H7xx_HAL_Driver/Src/stm32h7xx_hal_rtc_ex.c ****   *          This parameter can be can be one of the following values :
2466:Drivers/STM32H7xx_HAL_Driver/Src/stm32h7xx_hal_rtc_ex.c ****   *             @arg RTC_SMOOTHCALIB_PERIOD_32SEC: The smooth calibration period is 32s.
2467:Drivers/STM32H7xx_HAL_Driver/Src/stm32h7xx_hal_rtc_ex.c ****   *             @arg RTC_SMOOTHCALIB_PERIOD_16SEC: The smooth calibration period is 16s.
2468:Drivers/STM32H7xx_HAL_Driver/Src/stm32h7xx_hal_rtc_ex.c ****   *             @arg RTC_SMOOTHCALIB_PERIOD_8SEC: The smooth calibration period is 8s.
2469:Drivers/STM32H7xx_HAL_Driver/Src/stm32h7xx_hal_rtc_ex.c ****   * @param  SmoothCalibPlusPulses Select to Set or reset the CALP bit.
2470:Drivers/STM32H7xx_HAL_Driver/Src/stm32h7xx_hal_rtc_ex.c ****   *          This parameter can be one of the following values:
2471:Drivers/STM32H7xx_HAL_Driver/Src/stm32h7xx_hal_rtc_ex.c ****   *             @arg RTC_SMOOTHCALIB_PLUSPULSES_SET: Add one RTCCLK pulse every 2*11 pulses.
2472:Drivers/STM32H7xx_HAL_Driver/Src/stm32h7xx_hal_rtc_ex.c ****   *             @arg RTC_SMOOTHCALIB_PLUSPULSES_RESET: No RTCCLK pulses are added.
2473:Drivers/STM32H7xx_HAL_Driver/Src/stm32h7xx_hal_rtc_ex.c ****   * @param  SmoothCalibMinusPulsesValue Select the value of CALM[8:0] bits.
2474:Drivers/STM32H7xx_HAL_Driver/Src/stm32h7xx_hal_rtc_ex.c ****   *          This parameter can be one any value from 0 to 0x000001FF.
2475:Drivers/STM32H7xx_HAL_Driver/Src/stm32h7xx_hal_rtc_ex.c ****   * @note   To deactivate the smooth calibration, the field SmoothCalibPlusPulses
2476:Drivers/STM32H7xx_HAL_Driver/Src/stm32h7xx_hal_rtc_ex.c ****   *         must be equal to SMOOTHCALIB_PLUSPULSES_RESET and the field
2477:Drivers/STM32H7xx_HAL_Driver/Src/stm32h7xx_hal_rtc_ex.c ****   *         SmoothCalibMinusPulsesValue must be equal to 0.
2478:Drivers/STM32H7xx_HAL_Driver/Src/stm32h7xx_hal_rtc_ex.c ****   * @retval HAL status
2479:Drivers/STM32H7xx_HAL_Driver/Src/stm32h7xx_hal_rtc_ex.c ****   */
2480:Drivers/STM32H7xx_HAL_Driver/Src/stm32h7xx_hal_rtc_ex.c **** HAL_StatusTypeDef HAL_RTCEx_SetSmoothCalib(RTC_HandleTypeDef * hrtc, uint32_t SmoothCalibPeriod, ui
2481:Drivers/STM32H7xx_HAL_Driver/Src/stm32h7xx_hal_rtc_ex.c **** {
 2835              		.loc 1 2481 1 is_stmt 1 view -0
 2836              		.cfi_startproc
 2837              		@ args = 0, pretend = 0, frame = 0
 2838              		@ frame_needed = 0, uses_anonymous_args = 0
 2839              		.loc 1 2481 1 is_stmt 0 view .LVU948
 2840 0000 2DE9F041 		push	{r4, r5, r6, r7, r8, lr}
 2841              	.LCFI27:
 2842              		.cfi_def_cfa_offset 24
 2843              		.cfi_offset 4, -24
 2844              		.cfi_offset 5, -20
 2845              		.cfi_offset 6, -16
 2846              		.cfi_offset 7, -12
 2847              		.cfi_offset 8, -8
 2848              		.cfi_offset 14, -4
 2849 0004 1E46     		mov	r6, r3
2482:Drivers/STM32H7xx_HAL_Driver/Src/stm32h7xx_hal_rtc_ex.c ****   uint32_t tickstart;
 2850              		.loc 1 2482 3 is_stmt 1 view .LVU949
2483:Drivers/STM32H7xx_HAL_Driver/Src/stm32h7xx_hal_rtc_ex.c **** 
2484:Drivers/STM32H7xx_HAL_Driver/Src/stm32h7xx_hal_rtc_ex.c ****   /* Check the parameters */
2485:Drivers/STM32H7xx_HAL_Driver/Src/stm32h7xx_hal_rtc_ex.c ****   assert_param(IS_RTC_SMOOTH_CALIB_PERIOD(SmoothCalibPeriod));
 2851              		.loc 1 2485 3 view .LVU950
2486:Drivers/STM32H7xx_HAL_Driver/Src/stm32h7xx_hal_rtc_ex.c ****   assert_param(IS_RTC_SMOOTH_CALIB_PLUS(SmoothCalibPlusPulses));
 2852              		.loc 1 2486 3 view .LVU951
ARM GAS  C:\usertemp\cc0y2B3r.s 			page 97


2487:Drivers/STM32H7xx_HAL_Driver/Src/stm32h7xx_hal_rtc_ex.c ****   assert_param(IS_RTC_SMOOTH_CALIB_MINUS(SmoothCalibMinusPulsesValue));
 2853              		.loc 1 2487 3 view .LVU952
2488:Drivers/STM32H7xx_HAL_Driver/Src/stm32h7xx_hal_rtc_ex.c **** 
2489:Drivers/STM32H7xx_HAL_Driver/Src/stm32h7xx_hal_rtc_ex.c ****   /* Process Locked */
2490:Drivers/STM32H7xx_HAL_Driver/Src/stm32h7xx_hal_rtc_ex.c ****   __HAL_LOCK(hrtc);
 2854              		.loc 1 2490 3 view .LVU953
 2855              		.loc 1 2490 3 view .LVU954
 2856 0006 90F82030 		ldrb	r3, [r0, #32]	@ zero_extendqisi2
 2857              	.LVL196:
 2858              		.loc 1 2490 3 is_stmt 0 view .LVU955
 2859 000a 012B     		cmp	r3, #1
 2860 000c 3FD0     		beq	.L195
 2861 000e 0446     		mov	r4, r0
 2862 0010 0D46     		mov	r5, r1
 2863 0012 1746     		mov	r7, r2
 2864              		.loc 1 2490 3 is_stmt 1 discriminator 2 view .LVU956
 2865 0014 0123     		movs	r3, #1
 2866 0016 80F82030 		strb	r3, [r0, #32]
 2867              		.loc 1 2490 3 discriminator 2 view .LVU957
2491:Drivers/STM32H7xx_HAL_Driver/Src/stm32h7xx_hal_rtc_ex.c **** 
2492:Drivers/STM32H7xx_HAL_Driver/Src/stm32h7xx_hal_rtc_ex.c ****   hrtc->State = HAL_RTC_STATE_BUSY;
 2868              		.loc 1 2492 3 view .LVU958
 2869              		.loc 1 2492 15 is_stmt 0 view .LVU959
 2870 001a 0223     		movs	r3, #2
 2871 001c 80F82130 		strb	r3, [r0, #33]
2493:Drivers/STM32H7xx_HAL_Driver/Src/stm32h7xx_hal_rtc_ex.c **** 
2494:Drivers/STM32H7xx_HAL_Driver/Src/stm32h7xx_hal_rtc_ex.c ****   /* Disable the write protection for RTC registers */
2495:Drivers/STM32H7xx_HAL_Driver/Src/stm32h7xx_hal_rtc_ex.c ****   __HAL_RTC_WRITEPROTECTION_DISABLE(hrtc);
 2872              		.loc 1 2495 3 is_stmt 1 view .LVU960
 2873              		.loc 1 2495 3 view .LVU961
 2874 0020 0368     		ldr	r3, [r0]
 2875 0022 CA22     		movs	r2, #202
 2876              	.LVL197:
 2877              		.loc 1 2495 3 is_stmt 0 view .LVU962
 2878 0024 5A62     		str	r2, [r3, #36]
 2879              		.loc 1 2495 3 is_stmt 1 view .LVU963
 2880 0026 0368     		ldr	r3, [r0]
 2881 0028 5322     		movs	r2, #83
 2882 002a 5A62     		str	r2, [r3, #36]
 2883              		.loc 1 2495 3 view .LVU964
2496:Drivers/STM32H7xx_HAL_Driver/Src/stm32h7xx_hal_rtc_ex.c **** 
2497:Drivers/STM32H7xx_HAL_Driver/Src/stm32h7xx_hal_rtc_ex.c ****   /* check if a calibration operation is pending */
2498:Drivers/STM32H7xx_HAL_Driver/Src/stm32h7xx_hal_rtc_ex.c **** #if defined(RTC_ICSR_RECALPF)
2499:Drivers/STM32H7xx_HAL_Driver/Src/stm32h7xx_hal_rtc_ex.c ****   if ((hrtc->Instance->ICSR & RTC_ICSR_RECALPF) != 0U)
2500:Drivers/STM32H7xx_HAL_Driver/Src/stm32h7xx_hal_rtc_ex.c **** #endif /* RTC_ICSR_RECALPF */
2501:Drivers/STM32H7xx_HAL_Driver/Src/stm32h7xx_hal_rtc_ex.c **** #if defined(RTC_ISR_RECALPF)
2502:Drivers/STM32H7xx_HAL_Driver/Src/stm32h7xx_hal_rtc_ex.c ****     if ((hrtc->Instance->ISR  & RTC_ISR_RECALPF)  != 0U)
 2884              		.loc 1 2502 5 view .LVU965
 2885              		.loc 1 2502 14 is_stmt 0 view .LVU966
 2886 002c 0368     		ldr	r3, [r0]
 2887              		.loc 1 2502 24 view .LVU967
 2888 002e DB68     		ldr	r3, [r3, #12]
 2889              		.loc 1 2502 8 view .LVU968
 2890 0030 13F4803F 		tst	r3, #65536
 2891 0034 12D1     		bne	.L197
 2892              	.LVL198:
 2893              	.L192:
ARM GAS  C:\usertemp\cc0y2B3r.s 			page 98


2503:Drivers/STM32H7xx_HAL_Driver/Src/stm32h7xx_hal_rtc_ex.c **** #endif /* RTC_ISR_RECALPF */
2504:Drivers/STM32H7xx_HAL_Driver/Src/stm32h7xx_hal_rtc_ex.c ****     {
2505:Drivers/STM32H7xx_HAL_Driver/Src/stm32h7xx_hal_rtc_ex.c ****       tickstart = HAL_GetTick();
2506:Drivers/STM32H7xx_HAL_Driver/Src/stm32h7xx_hal_rtc_ex.c **** 
2507:Drivers/STM32H7xx_HAL_Driver/Src/stm32h7xx_hal_rtc_ex.c ****       /* Wait for pending calibration operation to finish */
2508:Drivers/STM32H7xx_HAL_Driver/Src/stm32h7xx_hal_rtc_ex.c **** #if defined(RTC_ICSR_RECALPF)
2509:Drivers/STM32H7xx_HAL_Driver/Src/stm32h7xx_hal_rtc_ex.c ****       while ((hrtc->Instance->ICSR & RTC_ICSR_RECALPF) != 0U)
2510:Drivers/STM32H7xx_HAL_Driver/Src/stm32h7xx_hal_rtc_ex.c **** #endif /* RTC_ICSR_RECALPF */
2511:Drivers/STM32H7xx_HAL_Driver/Src/stm32h7xx_hal_rtc_ex.c **** #if defined(RTC_ISR_RECALPF)
2512:Drivers/STM32H7xx_HAL_Driver/Src/stm32h7xx_hal_rtc_ex.c ****         while ((hrtc->Instance->ISR  & RTC_ISR_RECALPF)  != 0U)
2513:Drivers/STM32H7xx_HAL_Driver/Src/stm32h7xx_hal_rtc_ex.c **** #endif /* RTC_ISR_RECALPF */
2514:Drivers/STM32H7xx_HAL_Driver/Src/stm32h7xx_hal_rtc_ex.c ****         {
2515:Drivers/STM32H7xx_HAL_Driver/Src/stm32h7xx_hal_rtc_ex.c ****           if ((HAL_GetTick() - tickstart) > RTC_TIMEOUT_VALUE)
2516:Drivers/STM32H7xx_HAL_Driver/Src/stm32h7xx_hal_rtc_ex.c ****           {
2517:Drivers/STM32H7xx_HAL_Driver/Src/stm32h7xx_hal_rtc_ex.c ****             /* Enable the write protection for RTC registers */
2518:Drivers/STM32H7xx_HAL_Driver/Src/stm32h7xx_hal_rtc_ex.c ****             __HAL_RTC_WRITEPROTECTION_ENABLE(hrtc);
2519:Drivers/STM32H7xx_HAL_Driver/Src/stm32h7xx_hal_rtc_ex.c **** 
2520:Drivers/STM32H7xx_HAL_Driver/Src/stm32h7xx_hal_rtc_ex.c ****             /* Change RTC state */
2521:Drivers/STM32H7xx_HAL_Driver/Src/stm32h7xx_hal_rtc_ex.c ****             hrtc->State = HAL_RTC_STATE_TIMEOUT;
2522:Drivers/STM32H7xx_HAL_Driver/Src/stm32h7xx_hal_rtc_ex.c **** 
2523:Drivers/STM32H7xx_HAL_Driver/Src/stm32h7xx_hal_rtc_ex.c ****             /* Process Unlocked */
2524:Drivers/STM32H7xx_HAL_Driver/Src/stm32h7xx_hal_rtc_ex.c ****             __HAL_UNLOCK(hrtc);
2525:Drivers/STM32H7xx_HAL_Driver/Src/stm32h7xx_hal_rtc_ex.c **** 
2526:Drivers/STM32H7xx_HAL_Driver/Src/stm32h7xx_hal_rtc_ex.c ****             return HAL_TIMEOUT;
2527:Drivers/STM32H7xx_HAL_Driver/Src/stm32h7xx_hal_rtc_ex.c ****           }
2528:Drivers/STM32H7xx_HAL_Driver/Src/stm32h7xx_hal_rtc_ex.c ****         }
2529:Drivers/STM32H7xx_HAL_Driver/Src/stm32h7xx_hal_rtc_ex.c ****     }
2530:Drivers/STM32H7xx_HAL_Driver/Src/stm32h7xx_hal_rtc_ex.c **** 
2531:Drivers/STM32H7xx_HAL_Driver/Src/stm32h7xx_hal_rtc_ex.c ****   /* Configure the Smooth calibration settings */
2532:Drivers/STM32H7xx_HAL_Driver/Src/stm32h7xx_hal_rtc_ex.c ****   MODIFY_REG(hrtc->Instance->CALR, (RTC_CALR_CALP | RTC_CALR_CALW8 | RTC_CALR_CALW16 | RTC_CALR_CAL
 2894              		.loc 1 2532 3 is_stmt 1 view .LVU969
 2895 0036 2268     		ldr	r2, [r4]
 2896 0038 D16B     		ldr	r1, [r2, #60]
 2897 003a 164B     		ldr	r3, .L198
 2898 003c 0B40     		ands	r3, r3, r1
 2899 003e 3D43     		orrs	r5, r5, r7
 2900              	.LVL199:
 2901              		.loc 1 2532 3 is_stmt 0 view .LVU970
 2902 0040 3543     		orrs	r5, r5, r6
 2903 0042 2B43     		orrs	r3, r3, r5
 2904 0044 D363     		str	r3, [r2, #60]
2533:Drivers/STM32H7xx_HAL_Driver/Src/stm32h7xx_hal_rtc_ex.c **** 
2534:Drivers/STM32H7xx_HAL_Driver/Src/stm32h7xx_hal_rtc_ex.c ****   /* Enable the write protection for RTC registers */
2535:Drivers/STM32H7xx_HAL_Driver/Src/stm32h7xx_hal_rtc_ex.c ****   __HAL_RTC_WRITEPROTECTION_ENABLE(hrtc);
 2905              		.loc 1 2535 3 is_stmt 1 view .LVU971
 2906              		.loc 1 2535 3 view .LVU972
 2907 0046 2368     		ldr	r3, [r4]
 2908 0048 FF22     		movs	r2, #255
 2909 004a 5A62     		str	r2, [r3, #36]
 2910              		.loc 1 2535 3 view .LVU973
2536:Drivers/STM32H7xx_HAL_Driver/Src/stm32h7xx_hal_rtc_ex.c **** 
2537:Drivers/STM32H7xx_HAL_Driver/Src/stm32h7xx_hal_rtc_ex.c ****   /* Change RTC state */
2538:Drivers/STM32H7xx_HAL_Driver/Src/stm32h7xx_hal_rtc_ex.c ****   hrtc->State = HAL_RTC_STATE_READY;
 2911              		.loc 1 2538 3 view .LVU974
 2912              		.loc 1 2538 15 is_stmt 0 view .LVU975
 2913 004c 0123     		movs	r3, #1
 2914 004e 84F82130 		strb	r3, [r4, #33]
ARM GAS  C:\usertemp\cc0y2B3r.s 			page 99


2539:Drivers/STM32H7xx_HAL_Driver/Src/stm32h7xx_hal_rtc_ex.c **** 
2540:Drivers/STM32H7xx_HAL_Driver/Src/stm32h7xx_hal_rtc_ex.c ****   /* Process Unlocked */
2541:Drivers/STM32H7xx_HAL_Driver/Src/stm32h7xx_hal_rtc_ex.c ****   __HAL_UNLOCK(hrtc);
 2915              		.loc 1 2541 3 is_stmt 1 view .LVU976
 2916              		.loc 1 2541 3 view .LVU977
 2917 0052 0020     		movs	r0, #0
 2918 0054 84F82000 		strb	r0, [r4, #32]
 2919              		.loc 1 2541 3 view .LVU978
2542:Drivers/STM32H7xx_HAL_Driver/Src/stm32h7xx_hal_rtc_ex.c **** 
2543:Drivers/STM32H7xx_HAL_Driver/Src/stm32h7xx_hal_rtc_ex.c ****   return HAL_OK;
 2920              		.loc 1 2543 3 view .LVU979
 2921              	.LVL200:
 2922              	.L191:
2544:Drivers/STM32H7xx_HAL_Driver/Src/stm32h7xx_hal_rtc_ex.c **** }
 2923              		.loc 1 2544 1 is_stmt 0 view .LVU980
 2924 0058 BDE8F081 		pop	{r4, r5, r6, r7, r8, pc}
 2925              	.LVL201:
 2926              	.L197:
2505:Drivers/STM32H7xx_HAL_Driver/Src/stm32h7xx_hal_rtc_ex.c **** 
 2927              		.loc 1 2505 7 is_stmt 1 view .LVU981
2505:Drivers/STM32H7xx_HAL_Driver/Src/stm32h7xx_hal_rtc_ex.c **** 
 2928              		.loc 1 2505 19 is_stmt 0 view .LVU982
 2929 005c FFF7FEFF 		bl	HAL_GetTick
 2930              	.LVL202:
2505:Drivers/STM32H7xx_HAL_Driver/Src/stm32h7xx_hal_rtc_ex.c **** 
 2931              		.loc 1 2505 19 view .LVU983
 2932 0060 8046     		mov	r8, r0
 2933              	.LVL203:
2512:Drivers/STM32H7xx_HAL_Driver/Src/stm32h7xx_hal_rtc_ex.c **** #endif /* RTC_ISR_RECALPF */
 2934              		.loc 1 2512 9 is_stmt 1 view .LVU984
 2935              	.L193:
2512:Drivers/STM32H7xx_HAL_Driver/Src/stm32h7xx_hal_rtc_ex.c **** #endif /* RTC_ISR_RECALPF */
 2936              		.loc 1 2512 58 view .LVU985
2512:Drivers/STM32H7xx_HAL_Driver/Src/stm32h7xx_hal_rtc_ex.c **** #endif /* RTC_ISR_RECALPF */
 2937              		.loc 1 2512 21 is_stmt 0 view .LVU986
 2938 0062 2368     		ldr	r3, [r4]
2512:Drivers/STM32H7xx_HAL_Driver/Src/stm32h7xx_hal_rtc_ex.c **** #endif /* RTC_ISR_RECALPF */
 2939              		.loc 1 2512 31 view .LVU987
 2940 0064 D968     		ldr	r1, [r3, #12]
2512:Drivers/STM32H7xx_HAL_Driver/Src/stm32h7xx_hal_rtc_ex.c **** #endif /* RTC_ISR_RECALPF */
 2941              		.loc 1 2512 58 view .LVU988
 2942 0066 11F4803F 		tst	r1, #65536
 2943 006a E4D0     		beq	.L192
2515:Drivers/STM32H7xx_HAL_Driver/Src/stm32h7xx_hal_rtc_ex.c ****           {
 2944              		.loc 1 2515 11 is_stmt 1 view .LVU989
2515:Drivers/STM32H7xx_HAL_Driver/Src/stm32h7xx_hal_rtc_ex.c ****           {
 2945              		.loc 1 2515 16 is_stmt 0 view .LVU990
 2946 006c FFF7FEFF 		bl	HAL_GetTick
 2947              	.LVL204:
2515:Drivers/STM32H7xx_HAL_Driver/Src/stm32h7xx_hal_rtc_ex.c ****           {
 2948              		.loc 1 2515 30 discriminator 1 view .LVU991
 2949 0070 A0EB0800 		sub	r0, r0, r8
2515:Drivers/STM32H7xx_HAL_Driver/Src/stm32h7xx_hal_rtc_ex.c ****           {
 2950              		.loc 1 2515 14 discriminator 1 view .LVU992
 2951 0074 B0F57A7F 		cmp	r0, #1000
 2952 0078 F3D9     		bls	.L193
2518:Drivers/STM32H7xx_HAL_Driver/Src/stm32h7xx_hal_rtc_ex.c **** 
ARM GAS  C:\usertemp\cc0y2B3r.s 			page 100


 2953              		.loc 1 2518 13 is_stmt 1 view .LVU993
2518:Drivers/STM32H7xx_HAL_Driver/Src/stm32h7xx_hal_rtc_ex.c **** 
 2954              		.loc 1 2518 13 view .LVU994
 2955 007a 2368     		ldr	r3, [r4]
 2956 007c FF22     		movs	r2, #255
 2957 007e 5A62     		str	r2, [r3, #36]
2518:Drivers/STM32H7xx_HAL_Driver/Src/stm32h7xx_hal_rtc_ex.c **** 
 2958              		.loc 1 2518 13 view .LVU995
2521:Drivers/STM32H7xx_HAL_Driver/Src/stm32h7xx_hal_rtc_ex.c **** 
 2959              		.loc 1 2521 13 view .LVU996
2521:Drivers/STM32H7xx_HAL_Driver/Src/stm32h7xx_hal_rtc_ex.c **** 
 2960              		.loc 1 2521 25 is_stmt 0 view .LVU997
 2961 0080 0320     		movs	r0, #3
 2962 0082 84F82100 		strb	r0, [r4, #33]
2524:Drivers/STM32H7xx_HAL_Driver/Src/stm32h7xx_hal_rtc_ex.c **** 
 2963              		.loc 1 2524 13 is_stmt 1 view .LVU998
2524:Drivers/STM32H7xx_HAL_Driver/Src/stm32h7xx_hal_rtc_ex.c **** 
 2964              		.loc 1 2524 13 view .LVU999
 2965 0086 0023     		movs	r3, #0
 2966 0088 84F82030 		strb	r3, [r4, #32]
2524:Drivers/STM32H7xx_HAL_Driver/Src/stm32h7xx_hal_rtc_ex.c **** 
 2967              		.loc 1 2524 13 view .LVU1000
2526:Drivers/STM32H7xx_HAL_Driver/Src/stm32h7xx_hal_rtc_ex.c ****           }
 2968              		.loc 1 2526 13 view .LVU1001
2526:Drivers/STM32H7xx_HAL_Driver/Src/stm32h7xx_hal_rtc_ex.c ****           }
 2969              		.loc 1 2526 20 is_stmt 0 view .LVU1002
 2970 008c E4E7     		b	.L191
 2971              	.LVL205:
 2972              	.L195:
2490:Drivers/STM32H7xx_HAL_Driver/Src/stm32h7xx_hal_rtc_ex.c **** 
 2973              		.loc 1 2490 3 discriminator 1 view .LVU1003
 2974 008e 0220     		movs	r0, #2
 2975              	.LVL206:
2490:Drivers/STM32H7xx_HAL_Driver/Src/stm32h7xx_hal_rtc_ex.c **** 
 2976              		.loc 1 2490 3 discriminator 1 view .LVU1004
 2977 0090 E2E7     		b	.L191
 2978              	.L199:
 2979 0092 00BF     		.align	2
 2980              	.L198:
 2981 0094 001EFFFF 		.word	-57856
 2982              		.cfi_endproc
 2983              	.LFE367:
 2985              		.section	.text.HAL_RTCEx_SetSynchroShift,"ax",%progbits
 2986              		.align	1
 2987              		.global	HAL_RTCEx_SetSynchroShift
 2988              		.syntax unified
 2989              		.thumb
 2990              		.thumb_func
 2992              	HAL_RTCEx_SetSynchroShift:
 2993              	.LVL207:
 2994              	.LFB368:
2545:Drivers/STM32H7xx_HAL_Driver/Src/stm32h7xx_hal_rtc_ex.c **** 
2546:Drivers/STM32H7xx_HAL_Driver/Src/stm32h7xx_hal_rtc_ex.c **** /**
2547:Drivers/STM32H7xx_HAL_Driver/Src/stm32h7xx_hal_rtc_ex.c ****   * @brief  Configure the Synchronization Shift Control Settings.
2548:Drivers/STM32H7xx_HAL_Driver/Src/stm32h7xx_hal_rtc_ex.c ****   * @note   When REFCKON is set, firmware must not write to Shift control register.
2549:Drivers/STM32H7xx_HAL_Driver/Src/stm32h7xx_hal_rtc_ex.c ****   * @param  hrtc RTC handle
2550:Drivers/STM32H7xx_HAL_Driver/Src/stm32h7xx_hal_rtc_ex.c ****   * @param  ShiftAdd1S Select to add or not 1 second to the time calendar.
ARM GAS  C:\usertemp\cc0y2B3r.s 			page 101


2551:Drivers/STM32H7xx_HAL_Driver/Src/stm32h7xx_hal_rtc_ex.c ****   *          This parameter can be one of the following values:
2552:Drivers/STM32H7xx_HAL_Driver/Src/stm32h7xx_hal_rtc_ex.c ****   *             @arg RTC_SHIFTADD1S_SET: Add one second to the clock calendar.
2553:Drivers/STM32H7xx_HAL_Driver/Src/stm32h7xx_hal_rtc_ex.c ****   *             @arg RTC_SHIFTADD1S_RESET: No effect.
2554:Drivers/STM32H7xx_HAL_Driver/Src/stm32h7xx_hal_rtc_ex.c ****   * @param  ShiftSubFS Select the number of Second Fractions to substitute.
2555:Drivers/STM32H7xx_HAL_Driver/Src/stm32h7xx_hal_rtc_ex.c ****   *          This parameter can be one any value from 0 to 0x7FFF.
2556:Drivers/STM32H7xx_HAL_Driver/Src/stm32h7xx_hal_rtc_ex.c ****   * @retval HAL status
2557:Drivers/STM32H7xx_HAL_Driver/Src/stm32h7xx_hal_rtc_ex.c ****   */
2558:Drivers/STM32H7xx_HAL_Driver/Src/stm32h7xx_hal_rtc_ex.c **** HAL_StatusTypeDef HAL_RTCEx_SetSynchroShift(RTC_HandleTypeDef * hrtc, uint32_t ShiftAdd1S, uint32_t
2559:Drivers/STM32H7xx_HAL_Driver/Src/stm32h7xx_hal_rtc_ex.c **** {
 2995              		.loc 1 2559 1 is_stmt 1 view -0
 2996              		.cfi_startproc
 2997              		@ args = 0, pretend = 0, frame = 0
 2998              		@ frame_needed = 0, uses_anonymous_args = 0
2560:Drivers/STM32H7xx_HAL_Driver/Src/stm32h7xx_hal_rtc_ex.c ****   uint32_t tickstart;
 2999              		.loc 1 2560 3 view .LVU1006
2561:Drivers/STM32H7xx_HAL_Driver/Src/stm32h7xx_hal_rtc_ex.c **** 
2562:Drivers/STM32H7xx_HAL_Driver/Src/stm32h7xx_hal_rtc_ex.c ****   /* Check the parameters */
2563:Drivers/STM32H7xx_HAL_Driver/Src/stm32h7xx_hal_rtc_ex.c ****   assert_param(IS_RTC_SHIFT_ADD1S(ShiftAdd1S));
 3000              		.loc 1 2563 3 view .LVU1007
2564:Drivers/STM32H7xx_HAL_Driver/Src/stm32h7xx_hal_rtc_ex.c ****   assert_param(IS_RTC_SHIFT_SUBFS(ShiftSubFS));
 3001              		.loc 1 2564 3 view .LVU1008
2565:Drivers/STM32H7xx_HAL_Driver/Src/stm32h7xx_hal_rtc_ex.c **** 
2566:Drivers/STM32H7xx_HAL_Driver/Src/stm32h7xx_hal_rtc_ex.c ****   /* Process Locked */
2567:Drivers/STM32H7xx_HAL_Driver/Src/stm32h7xx_hal_rtc_ex.c ****   __HAL_LOCK(hrtc);
 3002              		.loc 1 2567 3 view .LVU1009
 3003              		.loc 1 2567 3 view .LVU1010
 3004 0000 90F82030 		ldrb	r3, [r0, #32]	@ zero_extendqisi2
 3005 0004 012B     		cmp	r3, #1
 3006 0006 59D0     		beq	.L206
2559:Drivers/STM32H7xx_HAL_Driver/Src/stm32h7xx_hal_rtc_ex.c ****   uint32_t tickstart;
 3007              		.loc 1 2559 1 is_stmt 0 view .LVU1011
 3008 0008 2DE9F041 		push	{r4, r5, r6, r7, r8, lr}
 3009              	.LCFI28:
 3010              		.cfi_def_cfa_offset 24
 3011              		.cfi_offset 4, -24
 3012              		.cfi_offset 5, -20
 3013              		.cfi_offset 6, -16
 3014              		.cfi_offset 7, -12
 3015              		.cfi_offset 8, -8
 3016              		.cfi_offset 14, -4
 3017 000c 0446     		mov	r4, r0
 3018 000e 8846     		mov	r8, r1
 3019 0010 1746     		mov	r7, r2
 3020              		.loc 1 2567 3 is_stmt 1 discriminator 2 view .LVU1012
 3021 0012 0123     		movs	r3, #1
 3022 0014 80F82030 		strb	r3, [r0, #32]
 3023              		.loc 1 2567 3 discriminator 2 view .LVU1013
2568:Drivers/STM32H7xx_HAL_Driver/Src/stm32h7xx_hal_rtc_ex.c **** 
2569:Drivers/STM32H7xx_HAL_Driver/Src/stm32h7xx_hal_rtc_ex.c ****   hrtc->State = HAL_RTC_STATE_BUSY;
 3024              		.loc 1 2569 3 view .LVU1014
 3025              		.loc 1 2569 15 is_stmt 0 view .LVU1015
 3026 0018 0223     		movs	r3, #2
 3027 001a 80F82130 		strb	r3, [r0, #33]
2570:Drivers/STM32H7xx_HAL_Driver/Src/stm32h7xx_hal_rtc_ex.c **** 
2571:Drivers/STM32H7xx_HAL_Driver/Src/stm32h7xx_hal_rtc_ex.c ****   /* Disable the write protection for RTC registers */
2572:Drivers/STM32H7xx_HAL_Driver/Src/stm32h7xx_hal_rtc_ex.c ****   __HAL_RTC_WRITEPROTECTION_DISABLE(hrtc);
 3028              		.loc 1 2572 3 is_stmt 1 view .LVU1016
ARM GAS  C:\usertemp\cc0y2B3r.s 			page 102


 3029              		.loc 1 2572 3 view .LVU1017
 3030 001e 0368     		ldr	r3, [r0]
 3031 0020 CA22     		movs	r2, #202
 3032              	.LVL208:
 3033              		.loc 1 2572 3 is_stmt 0 view .LVU1018
 3034 0022 5A62     		str	r2, [r3, #36]
 3035              		.loc 1 2572 3 is_stmt 1 view .LVU1019
 3036 0024 0368     		ldr	r3, [r0]
 3037 0026 5322     		movs	r2, #83
 3038 0028 5A62     		str	r2, [r3, #36]
 3039              		.loc 1 2572 3 view .LVU1020
2573:Drivers/STM32H7xx_HAL_Driver/Src/stm32h7xx_hal_rtc_ex.c **** 
2574:Drivers/STM32H7xx_HAL_Driver/Src/stm32h7xx_hal_rtc_ex.c ****   tickstart = HAL_GetTick();
 3040              		.loc 1 2574 3 view .LVU1021
 3041              		.loc 1 2574 15 is_stmt 0 view .LVU1022
 3042 002a FFF7FEFF 		bl	HAL_GetTick
 3043              	.LVL209:
 3044              		.loc 1 2574 15 view .LVU1023
 3045 002e 0646     		mov	r6, r0
 3046              	.LVL210:
2575:Drivers/STM32H7xx_HAL_Driver/Src/stm32h7xx_hal_rtc_ex.c **** 
2576:Drivers/STM32H7xx_HAL_Driver/Src/stm32h7xx_hal_rtc_ex.c ****   /* Wait until the shift is completed */
2577:Drivers/STM32H7xx_HAL_Driver/Src/stm32h7xx_hal_rtc_ex.c **** #if defined(RTC_ICSR_SHPF)
2578:Drivers/STM32H7xx_HAL_Driver/Src/stm32h7xx_hal_rtc_ex.c ****   while ((hrtc->Instance->ICSR & RTC_ICSR_SHPF) != 0U)
2579:Drivers/STM32H7xx_HAL_Driver/Src/stm32h7xx_hal_rtc_ex.c **** #endif /* RTC_ICSR_SHPF */
2580:Drivers/STM32H7xx_HAL_Driver/Src/stm32h7xx_hal_rtc_ex.c **** #if defined(RTC_ISR_SHPF)
2581:Drivers/STM32H7xx_HAL_Driver/Src/stm32h7xx_hal_rtc_ex.c ****     while ((hrtc->Instance->ISR  & RTC_ISR_SHPF)  != 0U)
 3047              		.loc 1 2581 5 is_stmt 1 view .LVU1024
 3048              	.L202:
 3049              		.loc 1 2581 51 view .LVU1025
 3050              		.loc 1 2581 17 is_stmt 0 view .LVU1026
 3051 0030 2368     		ldr	r3, [r4]
 3052              		.loc 1 2581 27 view .LVU1027
 3053 0032 DD68     		ldr	r5, [r3, #12]
 3054              		.loc 1 2581 51 view .LVU1028
 3055 0034 15F0080F 		tst	r5, #8
 3056 0038 10D0     		beq	.L211
2582:Drivers/STM32H7xx_HAL_Driver/Src/stm32h7xx_hal_rtc_ex.c **** #endif /* RTC_ISR_SHPF */
2583:Drivers/STM32H7xx_HAL_Driver/Src/stm32h7xx_hal_rtc_ex.c ****     {
2584:Drivers/STM32H7xx_HAL_Driver/Src/stm32h7xx_hal_rtc_ex.c ****       if ((HAL_GetTick() - tickstart) > RTC_TIMEOUT_VALUE)
 3057              		.loc 1 2584 7 is_stmt 1 view .LVU1029
 3058              		.loc 1 2584 12 is_stmt 0 view .LVU1030
 3059 003a FFF7FEFF 		bl	HAL_GetTick
 3060              	.LVL211:
 3061              		.loc 1 2584 26 discriminator 1 view .LVU1031
 3062 003e 831B     		subs	r3, r0, r6
 3063              		.loc 1 2584 10 discriminator 1 view .LVU1032
 3064 0040 B3F57A7F 		cmp	r3, #1000
 3065 0044 F4D9     		bls	.L202
2585:Drivers/STM32H7xx_HAL_Driver/Src/stm32h7xx_hal_rtc_ex.c ****       {
2586:Drivers/STM32H7xx_HAL_Driver/Src/stm32h7xx_hal_rtc_ex.c ****         /* Enable the write protection for RTC registers */
2587:Drivers/STM32H7xx_HAL_Driver/Src/stm32h7xx_hal_rtc_ex.c ****         __HAL_RTC_WRITEPROTECTION_ENABLE(hrtc);
 3066              		.loc 1 2587 9 is_stmt 1 view .LVU1033
 3067              		.loc 1 2587 9 view .LVU1034
 3068 0046 2368     		ldr	r3, [r4]
 3069 0048 FF22     		movs	r2, #255
 3070 004a 5A62     		str	r2, [r3, #36]
ARM GAS  C:\usertemp\cc0y2B3r.s 			page 103


 3071              		.loc 1 2587 9 view .LVU1035
2588:Drivers/STM32H7xx_HAL_Driver/Src/stm32h7xx_hal_rtc_ex.c **** 
2589:Drivers/STM32H7xx_HAL_Driver/Src/stm32h7xx_hal_rtc_ex.c ****         hrtc->State = HAL_RTC_STATE_TIMEOUT;
 3072              		.loc 1 2589 9 view .LVU1036
 3073              		.loc 1 2589 21 is_stmt 0 view .LVU1037
 3074 004c 0320     		movs	r0, #3
 3075 004e 84F82100 		strb	r0, [r4, #33]
2590:Drivers/STM32H7xx_HAL_Driver/Src/stm32h7xx_hal_rtc_ex.c **** 
2591:Drivers/STM32H7xx_HAL_Driver/Src/stm32h7xx_hal_rtc_ex.c ****         /* Process Unlocked */
2592:Drivers/STM32H7xx_HAL_Driver/Src/stm32h7xx_hal_rtc_ex.c ****         __HAL_UNLOCK(hrtc);
 3076              		.loc 1 2592 9 is_stmt 1 view .LVU1038
 3077              		.loc 1 2592 9 view .LVU1039
 3078 0052 0023     		movs	r3, #0
 3079 0054 84F82030 		strb	r3, [r4, #32]
 3080              		.loc 1 2592 9 view .LVU1040
2593:Drivers/STM32H7xx_HAL_Driver/Src/stm32h7xx_hal_rtc_ex.c **** 
2594:Drivers/STM32H7xx_HAL_Driver/Src/stm32h7xx_hal_rtc_ex.c ****         return HAL_TIMEOUT;
 3081              		.loc 1 2594 9 view .LVU1041
 3082              	.LVL212:
 3083              	.L201:
2595:Drivers/STM32H7xx_HAL_Driver/Src/stm32h7xx_hal_rtc_ex.c ****       }
2596:Drivers/STM32H7xx_HAL_Driver/Src/stm32h7xx_hal_rtc_ex.c ****     }
2597:Drivers/STM32H7xx_HAL_Driver/Src/stm32h7xx_hal_rtc_ex.c **** 
2598:Drivers/STM32H7xx_HAL_Driver/Src/stm32h7xx_hal_rtc_ex.c ****   /* Check if the reference clock detection is disabled */
2599:Drivers/STM32H7xx_HAL_Driver/Src/stm32h7xx_hal_rtc_ex.c ****   if ((hrtc->Instance->CR & RTC_CR_REFCKON) == 0U)
2600:Drivers/STM32H7xx_HAL_Driver/Src/stm32h7xx_hal_rtc_ex.c ****   {
2601:Drivers/STM32H7xx_HAL_Driver/Src/stm32h7xx_hal_rtc_ex.c ****     /* Configure the Shift settings */
2602:Drivers/STM32H7xx_HAL_Driver/Src/stm32h7xx_hal_rtc_ex.c ****     hrtc->Instance->SHIFTR = (uint32_t)(uint32_t)(ShiftSubFS) | (uint32_t)(ShiftAdd1S);
2603:Drivers/STM32H7xx_HAL_Driver/Src/stm32h7xx_hal_rtc_ex.c **** 
2604:Drivers/STM32H7xx_HAL_Driver/Src/stm32h7xx_hal_rtc_ex.c ****     /* If  RTC_CR_BYPSHAD bit = 0, wait for synchro else this check is not needed */
2605:Drivers/STM32H7xx_HAL_Driver/Src/stm32h7xx_hal_rtc_ex.c ****     if ((hrtc->Instance->CR & RTC_CR_BYPSHAD) == 0U)
2606:Drivers/STM32H7xx_HAL_Driver/Src/stm32h7xx_hal_rtc_ex.c ****     {
2607:Drivers/STM32H7xx_HAL_Driver/Src/stm32h7xx_hal_rtc_ex.c ****       if (HAL_RTC_WaitForSynchro(hrtc) != HAL_OK)
2608:Drivers/STM32H7xx_HAL_Driver/Src/stm32h7xx_hal_rtc_ex.c ****       {
2609:Drivers/STM32H7xx_HAL_Driver/Src/stm32h7xx_hal_rtc_ex.c ****         /* Enable the write protection for RTC registers */
2610:Drivers/STM32H7xx_HAL_Driver/Src/stm32h7xx_hal_rtc_ex.c ****         __HAL_RTC_WRITEPROTECTION_ENABLE(hrtc);
2611:Drivers/STM32H7xx_HAL_Driver/Src/stm32h7xx_hal_rtc_ex.c **** 
2612:Drivers/STM32H7xx_HAL_Driver/Src/stm32h7xx_hal_rtc_ex.c ****         hrtc->State = HAL_RTC_STATE_ERROR;
2613:Drivers/STM32H7xx_HAL_Driver/Src/stm32h7xx_hal_rtc_ex.c **** 
2614:Drivers/STM32H7xx_HAL_Driver/Src/stm32h7xx_hal_rtc_ex.c ****         /* Process Unlocked */
2615:Drivers/STM32H7xx_HAL_Driver/Src/stm32h7xx_hal_rtc_ex.c ****         __HAL_UNLOCK(hrtc);
2616:Drivers/STM32H7xx_HAL_Driver/Src/stm32h7xx_hal_rtc_ex.c **** 
2617:Drivers/STM32H7xx_HAL_Driver/Src/stm32h7xx_hal_rtc_ex.c ****         return HAL_ERROR;
2618:Drivers/STM32H7xx_HAL_Driver/Src/stm32h7xx_hal_rtc_ex.c ****       }
2619:Drivers/STM32H7xx_HAL_Driver/Src/stm32h7xx_hal_rtc_ex.c ****     }
2620:Drivers/STM32H7xx_HAL_Driver/Src/stm32h7xx_hal_rtc_ex.c ****   }
2621:Drivers/STM32H7xx_HAL_Driver/Src/stm32h7xx_hal_rtc_ex.c ****   else
2622:Drivers/STM32H7xx_HAL_Driver/Src/stm32h7xx_hal_rtc_ex.c ****   {
2623:Drivers/STM32H7xx_HAL_Driver/Src/stm32h7xx_hal_rtc_ex.c ****     /* Enable the write protection for RTC registers */
2624:Drivers/STM32H7xx_HAL_Driver/Src/stm32h7xx_hal_rtc_ex.c ****     __HAL_RTC_WRITEPROTECTION_ENABLE(hrtc);
2625:Drivers/STM32H7xx_HAL_Driver/Src/stm32h7xx_hal_rtc_ex.c **** 
2626:Drivers/STM32H7xx_HAL_Driver/Src/stm32h7xx_hal_rtc_ex.c ****     /* Change RTC state */
2627:Drivers/STM32H7xx_HAL_Driver/Src/stm32h7xx_hal_rtc_ex.c ****     hrtc->State = HAL_RTC_STATE_ERROR;
2628:Drivers/STM32H7xx_HAL_Driver/Src/stm32h7xx_hal_rtc_ex.c **** 
2629:Drivers/STM32H7xx_HAL_Driver/Src/stm32h7xx_hal_rtc_ex.c ****     /* Process Unlocked */
2630:Drivers/STM32H7xx_HAL_Driver/Src/stm32h7xx_hal_rtc_ex.c ****     __HAL_UNLOCK(hrtc);
2631:Drivers/STM32H7xx_HAL_Driver/Src/stm32h7xx_hal_rtc_ex.c **** 
ARM GAS  C:\usertemp\cc0y2B3r.s 			page 104


2632:Drivers/STM32H7xx_HAL_Driver/Src/stm32h7xx_hal_rtc_ex.c ****     return HAL_ERROR;
2633:Drivers/STM32H7xx_HAL_Driver/Src/stm32h7xx_hal_rtc_ex.c ****   }
2634:Drivers/STM32H7xx_HAL_Driver/Src/stm32h7xx_hal_rtc_ex.c **** 
2635:Drivers/STM32H7xx_HAL_Driver/Src/stm32h7xx_hal_rtc_ex.c ****   /* Enable the write protection for RTC registers */
2636:Drivers/STM32H7xx_HAL_Driver/Src/stm32h7xx_hal_rtc_ex.c ****   __HAL_RTC_WRITEPROTECTION_ENABLE(hrtc);
2637:Drivers/STM32H7xx_HAL_Driver/Src/stm32h7xx_hal_rtc_ex.c **** 
2638:Drivers/STM32H7xx_HAL_Driver/Src/stm32h7xx_hal_rtc_ex.c ****   /* Change RTC state */
2639:Drivers/STM32H7xx_HAL_Driver/Src/stm32h7xx_hal_rtc_ex.c ****   hrtc->State = HAL_RTC_STATE_READY;
2640:Drivers/STM32H7xx_HAL_Driver/Src/stm32h7xx_hal_rtc_ex.c **** 
2641:Drivers/STM32H7xx_HAL_Driver/Src/stm32h7xx_hal_rtc_ex.c ****   /* Process Unlocked */
2642:Drivers/STM32H7xx_HAL_Driver/Src/stm32h7xx_hal_rtc_ex.c ****   __HAL_UNLOCK(hrtc);
2643:Drivers/STM32H7xx_HAL_Driver/Src/stm32h7xx_hal_rtc_ex.c **** 
2644:Drivers/STM32H7xx_HAL_Driver/Src/stm32h7xx_hal_rtc_ex.c ****   return HAL_OK;
2645:Drivers/STM32H7xx_HAL_Driver/Src/stm32h7xx_hal_rtc_ex.c **** }
 3084              		.loc 1 2645 1 is_stmt 0 view .LVU1042
 3085 0058 BDE8F081 		pop	{r4, r5, r6, r7, r8, pc}
 3086              	.LVL213:
 3087              	.L211:
2599:Drivers/STM32H7xx_HAL_Driver/Src/stm32h7xx_hal_rtc_ex.c ****   {
 3088              		.loc 1 2599 3 is_stmt 1 view .LVU1043
2599:Drivers/STM32H7xx_HAL_Driver/Src/stm32h7xx_hal_rtc_ex.c ****   {
 3089              		.loc 1 2599 22 is_stmt 0 view .LVU1044
 3090 005c 9A68     		ldr	r2, [r3, #8]
2599:Drivers/STM32H7xx_HAL_Driver/Src/stm32h7xx_hal_rtc_ex.c ****   {
 3091              		.loc 1 2599 6 view .LVU1045
 3092 005e 12F0100F 		tst	r2, #16
 3093 0062 21D1     		bne	.L204
2602:Drivers/STM32H7xx_HAL_Driver/Src/stm32h7xx_hal_rtc_ex.c **** 
 3094              		.loc 1 2602 5 is_stmt 1 view .LVU1046
2602:Drivers/STM32H7xx_HAL_Driver/Src/stm32h7xx_hal_rtc_ex.c **** 
 3095              		.loc 1 2602 63 is_stmt 0 view .LVU1047
 3096 0064 47EA0807 		orr	r7, r7, r8
 3097              	.LVL214:
2602:Drivers/STM32H7xx_HAL_Driver/Src/stm32h7xx_hal_rtc_ex.c **** 
 3098              		.loc 1 2602 28 view .LVU1048
 3099 0068 DF62     		str	r7, [r3, #44]
2605:Drivers/STM32H7xx_HAL_Driver/Src/stm32h7xx_hal_rtc_ex.c ****     {
 3100              		.loc 1 2605 5 is_stmt 1 view .LVU1049
2605:Drivers/STM32H7xx_HAL_Driver/Src/stm32h7xx_hal_rtc_ex.c ****     {
 3101              		.loc 1 2605 14 is_stmt 0 view .LVU1050
 3102 006a 2368     		ldr	r3, [r4]
2605:Drivers/STM32H7xx_HAL_Driver/Src/stm32h7xx_hal_rtc_ex.c ****     {
 3103              		.loc 1 2605 24 view .LVU1051
 3104 006c 9B68     		ldr	r3, [r3, #8]
2605:Drivers/STM32H7xx_HAL_Driver/Src/stm32h7xx_hal_rtc_ex.c ****     {
 3105              		.loc 1 2605 8 view .LVU1052
 3106 006e 13F0200F 		tst	r3, #32
 3107 0072 09D0     		beq	.L212
 3108              	.L205:
2636:Drivers/STM32H7xx_HAL_Driver/Src/stm32h7xx_hal_rtc_ex.c **** 
 3109              		.loc 1 2636 3 is_stmt 1 view .LVU1053
2636:Drivers/STM32H7xx_HAL_Driver/Src/stm32h7xx_hal_rtc_ex.c **** 
 3110              		.loc 1 2636 3 view .LVU1054
 3111 0074 2368     		ldr	r3, [r4]
 3112 0076 FF22     		movs	r2, #255
 3113 0078 5A62     		str	r2, [r3, #36]
2636:Drivers/STM32H7xx_HAL_Driver/Src/stm32h7xx_hal_rtc_ex.c **** 
ARM GAS  C:\usertemp\cc0y2B3r.s 			page 105


 3114              		.loc 1 2636 3 view .LVU1055
2639:Drivers/STM32H7xx_HAL_Driver/Src/stm32h7xx_hal_rtc_ex.c **** 
 3115              		.loc 1 2639 3 view .LVU1056
2639:Drivers/STM32H7xx_HAL_Driver/Src/stm32h7xx_hal_rtc_ex.c **** 
 3116              		.loc 1 2639 15 is_stmt 0 view .LVU1057
 3117 007a 0123     		movs	r3, #1
 3118 007c 84F82130 		strb	r3, [r4, #33]
2642:Drivers/STM32H7xx_HAL_Driver/Src/stm32h7xx_hal_rtc_ex.c **** 
 3119              		.loc 1 2642 3 is_stmt 1 view .LVU1058
2642:Drivers/STM32H7xx_HAL_Driver/Src/stm32h7xx_hal_rtc_ex.c **** 
 3120              		.loc 1 2642 3 view .LVU1059
 3121 0080 0020     		movs	r0, #0
 3122 0082 84F82000 		strb	r0, [r4, #32]
2642:Drivers/STM32H7xx_HAL_Driver/Src/stm32h7xx_hal_rtc_ex.c **** 
 3123              		.loc 1 2642 3 view .LVU1060
2644:Drivers/STM32H7xx_HAL_Driver/Src/stm32h7xx_hal_rtc_ex.c **** }
 3124              		.loc 1 2644 3 view .LVU1061
2644:Drivers/STM32H7xx_HAL_Driver/Src/stm32h7xx_hal_rtc_ex.c **** }
 3125              		.loc 1 2644 10 is_stmt 0 view .LVU1062
 3126 0086 E7E7     		b	.L201
 3127              	.L212:
2607:Drivers/STM32H7xx_HAL_Driver/Src/stm32h7xx_hal_rtc_ex.c ****       {
 3128              		.loc 1 2607 7 is_stmt 1 view .LVU1063
2607:Drivers/STM32H7xx_HAL_Driver/Src/stm32h7xx_hal_rtc_ex.c ****       {
 3129              		.loc 1 2607 11 is_stmt 0 view .LVU1064
 3130 0088 2046     		mov	r0, r4
 3131 008a FFF7FEFF 		bl	HAL_RTC_WaitForSynchro
 3132              	.LVL215:
2607:Drivers/STM32H7xx_HAL_Driver/Src/stm32h7xx_hal_rtc_ex.c ****       {
 3133              		.loc 1 2607 10 discriminator 1 view .LVU1065
 3134 008e 0028     		cmp	r0, #0
 3135 0090 F0D0     		beq	.L205
2610:Drivers/STM32H7xx_HAL_Driver/Src/stm32h7xx_hal_rtc_ex.c **** 
 3136              		.loc 1 2610 9 is_stmt 1 view .LVU1066
2610:Drivers/STM32H7xx_HAL_Driver/Src/stm32h7xx_hal_rtc_ex.c **** 
 3137              		.loc 1 2610 9 view .LVU1067
 3138 0092 2368     		ldr	r3, [r4]
 3139 0094 FF22     		movs	r2, #255
 3140 0096 5A62     		str	r2, [r3, #36]
2610:Drivers/STM32H7xx_HAL_Driver/Src/stm32h7xx_hal_rtc_ex.c **** 
 3141              		.loc 1 2610 9 view .LVU1068
2612:Drivers/STM32H7xx_HAL_Driver/Src/stm32h7xx_hal_rtc_ex.c **** 
 3142              		.loc 1 2612 9 view .LVU1069
2612:Drivers/STM32H7xx_HAL_Driver/Src/stm32h7xx_hal_rtc_ex.c **** 
 3143              		.loc 1 2612 21 is_stmt 0 view .LVU1070
 3144 0098 0423     		movs	r3, #4
 3145 009a 84F82130 		strb	r3, [r4, #33]
2615:Drivers/STM32H7xx_HAL_Driver/Src/stm32h7xx_hal_rtc_ex.c **** 
 3146              		.loc 1 2615 9 is_stmt 1 view .LVU1071
2615:Drivers/STM32H7xx_HAL_Driver/Src/stm32h7xx_hal_rtc_ex.c **** 
 3147              		.loc 1 2615 9 view .LVU1072
 3148 009e 0023     		movs	r3, #0
 3149 00a0 84F82030 		strb	r3, [r4, #32]
2615:Drivers/STM32H7xx_HAL_Driver/Src/stm32h7xx_hal_rtc_ex.c **** 
 3150              		.loc 1 2615 9 view .LVU1073
2617:Drivers/STM32H7xx_HAL_Driver/Src/stm32h7xx_hal_rtc_ex.c ****       }
 3151              		.loc 1 2617 9 view .LVU1074
ARM GAS  C:\usertemp\cc0y2B3r.s 			page 106


2617:Drivers/STM32H7xx_HAL_Driver/Src/stm32h7xx_hal_rtc_ex.c ****       }
 3152              		.loc 1 2617 16 is_stmt 0 view .LVU1075
 3153 00a4 0120     		movs	r0, #1
 3154 00a6 D7E7     		b	.L201
 3155              	.LVL216:
 3156              	.L204:
2624:Drivers/STM32H7xx_HAL_Driver/Src/stm32h7xx_hal_rtc_ex.c **** 
 3157              		.loc 1 2624 5 is_stmt 1 view .LVU1076
2624:Drivers/STM32H7xx_HAL_Driver/Src/stm32h7xx_hal_rtc_ex.c **** 
 3158              		.loc 1 2624 5 view .LVU1077
 3159 00a8 FF22     		movs	r2, #255
 3160 00aa 5A62     		str	r2, [r3, #36]
2624:Drivers/STM32H7xx_HAL_Driver/Src/stm32h7xx_hal_rtc_ex.c **** 
 3161              		.loc 1 2624 5 view .LVU1078
2627:Drivers/STM32H7xx_HAL_Driver/Src/stm32h7xx_hal_rtc_ex.c **** 
 3162              		.loc 1 2627 5 view .LVU1079
2627:Drivers/STM32H7xx_HAL_Driver/Src/stm32h7xx_hal_rtc_ex.c **** 
 3163              		.loc 1 2627 17 is_stmt 0 view .LVU1080
 3164 00ac 0423     		movs	r3, #4
 3165 00ae 84F82130 		strb	r3, [r4, #33]
2630:Drivers/STM32H7xx_HAL_Driver/Src/stm32h7xx_hal_rtc_ex.c **** 
 3166              		.loc 1 2630 5 is_stmt 1 view .LVU1081
2630:Drivers/STM32H7xx_HAL_Driver/Src/stm32h7xx_hal_rtc_ex.c **** 
 3167              		.loc 1 2630 5 view .LVU1082
 3168 00b2 0023     		movs	r3, #0
 3169 00b4 84F82030 		strb	r3, [r4, #32]
2630:Drivers/STM32H7xx_HAL_Driver/Src/stm32h7xx_hal_rtc_ex.c **** 
 3170              		.loc 1 2630 5 view .LVU1083
2632:Drivers/STM32H7xx_HAL_Driver/Src/stm32h7xx_hal_rtc_ex.c ****   }
 3171              		.loc 1 2632 5 view .LVU1084
2632:Drivers/STM32H7xx_HAL_Driver/Src/stm32h7xx_hal_rtc_ex.c ****   }
 3172              		.loc 1 2632 12 is_stmt 0 view .LVU1085
 3173 00b8 0120     		movs	r0, #1
 3174 00ba CDE7     		b	.L201
 3175              	.LVL217:
 3176              	.L206:
 3177              	.LCFI29:
 3178              		.cfi_def_cfa_offset 0
 3179              		.cfi_restore 4
 3180              		.cfi_restore 5
 3181              		.cfi_restore 6
 3182              		.cfi_restore 7
 3183              		.cfi_restore 8
 3184              		.cfi_restore 14
2567:Drivers/STM32H7xx_HAL_Driver/Src/stm32h7xx_hal_rtc_ex.c **** 
 3185              		.loc 1 2567 3 discriminator 1 view .LVU1086
 3186 00bc 0220     		movs	r0, #2
 3187              	.LVL218:
 3188              		.loc 1 2645 1 view .LVU1087
 3189 00be 7047     		bx	lr
 3190              		.cfi_endproc
 3191              	.LFE368:
 3193              		.section	.text.HAL_RTCEx_SetCalibrationOutPut,"ax",%progbits
 3194              		.align	1
 3195              		.global	HAL_RTCEx_SetCalibrationOutPut
 3196              		.syntax unified
 3197              		.thumb
ARM GAS  C:\usertemp\cc0y2B3r.s 			page 107


 3198              		.thumb_func
 3200              	HAL_RTCEx_SetCalibrationOutPut:
 3201              	.LVL219:
 3202              	.LFB369:
2646:Drivers/STM32H7xx_HAL_Driver/Src/stm32h7xx_hal_rtc_ex.c **** 
2647:Drivers/STM32H7xx_HAL_Driver/Src/stm32h7xx_hal_rtc_ex.c **** /**
2648:Drivers/STM32H7xx_HAL_Driver/Src/stm32h7xx_hal_rtc_ex.c ****   * @brief  Configure the Calibration Pinout (RTC_CALIB) Selection (1Hz or 512Hz).
2649:Drivers/STM32H7xx_HAL_Driver/Src/stm32h7xx_hal_rtc_ex.c ****   * @param  hrtc RTC handle
2650:Drivers/STM32H7xx_HAL_Driver/Src/stm32h7xx_hal_rtc_ex.c ****   * @param  CalibOutput Select the Calibration output Selection.
2651:Drivers/STM32H7xx_HAL_Driver/Src/stm32h7xx_hal_rtc_ex.c ****   *          This parameter can be one of the following values:
2652:Drivers/STM32H7xx_HAL_Driver/Src/stm32h7xx_hal_rtc_ex.c ****   *             @arg RTC_CALIBOUTPUT_512HZ: A signal has a regular waveform at 512Hz.
2653:Drivers/STM32H7xx_HAL_Driver/Src/stm32h7xx_hal_rtc_ex.c ****   *             @arg RTC_CALIBOUTPUT_1HZ: A signal has a regular waveform at 1Hz.
2654:Drivers/STM32H7xx_HAL_Driver/Src/stm32h7xx_hal_rtc_ex.c ****   * @retval HAL status
2655:Drivers/STM32H7xx_HAL_Driver/Src/stm32h7xx_hal_rtc_ex.c ****   */
2656:Drivers/STM32H7xx_HAL_Driver/Src/stm32h7xx_hal_rtc_ex.c **** HAL_StatusTypeDef HAL_RTCEx_SetCalibrationOutPut(RTC_HandleTypeDef * hrtc, uint32_t CalibOutput)
2657:Drivers/STM32H7xx_HAL_Driver/Src/stm32h7xx_hal_rtc_ex.c **** {
 3203              		.loc 1 2657 1 is_stmt 1 view -0
 3204              		.cfi_startproc
 3205              		@ args = 0, pretend = 0, frame = 0
 3206              		@ frame_needed = 0, uses_anonymous_args = 0
 3207              		@ link register save eliminated.
2658:Drivers/STM32H7xx_HAL_Driver/Src/stm32h7xx_hal_rtc_ex.c ****   /* Check the parameters */
2659:Drivers/STM32H7xx_HAL_Driver/Src/stm32h7xx_hal_rtc_ex.c ****   assert_param(IS_RTC_CALIB_OUTPUT(CalibOutput));
 3208              		.loc 1 2659 3 view .LVU1089
2660:Drivers/STM32H7xx_HAL_Driver/Src/stm32h7xx_hal_rtc_ex.c **** 
2661:Drivers/STM32H7xx_HAL_Driver/Src/stm32h7xx_hal_rtc_ex.c ****   /* Process Locked */
2662:Drivers/STM32H7xx_HAL_Driver/Src/stm32h7xx_hal_rtc_ex.c ****   __HAL_LOCK(hrtc);
 3209              		.loc 1 2662 3 view .LVU1090
 3210              		.loc 1 2662 3 view .LVU1091
 3211 0000 90F82020 		ldrb	r2, [r0, #32]	@ zero_extendqisi2
 3212 0004 012A     		cmp	r2, #1
 3213 0006 26D0     		beq	.L215
2657:Drivers/STM32H7xx_HAL_Driver/Src/stm32h7xx_hal_rtc_ex.c ****   /* Check the parameters */
 3214              		.loc 1 2657 1 is_stmt 0 view .LVU1092
 3215 0008 10B4     		push	{r4}
 3216              	.LCFI30:
 3217              		.cfi_def_cfa_offset 4
 3218              		.cfi_offset 4, -4
 3219 000a 0346     		mov	r3, r0
 3220              		.loc 1 2662 3 is_stmt 1 discriminator 2 view .LVU1093
 3221 000c 0120     		movs	r0, #1
 3222              	.LVL220:
 3223              		.loc 1 2662 3 is_stmt 0 discriminator 2 view .LVU1094
 3224 000e 83F82000 		strb	r0, [r3, #32]
 3225              		.loc 1 2662 3 is_stmt 1 discriminator 2 view .LVU1095
2663:Drivers/STM32H7xx_HAL_Driver/Src/stm32h7xx_hal_rtc_ex.c **** 
2664:Drivers/STM32H7xx_HAL_Driver/Src/stm32h7xx_hal_rtc_ex.c ****   hrtc->State = HAL_RTC_STATE_BUSY;
 3226              		.loc 1 2664 3 view .LVU1096
 3227              		.loc 1 2664 15 is_stmt 0 view .LVU1097
 3228 0012 0222     		movs	r2, #2
 3229 0014 83F82120 		strb	r2, [r3, #33]
2665:Drivers/STM32H7xx_HAL_Driver/Src/stm32h7xx_hal_rtc_ex.c **** 
2666:Drivers/STM32H7xx_HAL_Driver/Src/stm32h7xx_hal_rtc_ex.c ****   /* Disable the write protection for RTC registers */
2667:Drivers/STM32H7xx_HAL_Driver/Src/stm32h7xx_hal_rtc_ex.c ****   __HAL_RTC_WRITEPROTECTION_DISABLE(hrtc);
 3230              		.loc 1 2667 3 is_stmt 1 view .LVU1098
 3231              		.loc 1 2667 3 view .LVU1099
 3232 0018 1A68     		ldr	r2, [r3]
ARM GAS  C:\usertemp\cc0y2B3r.s 			page 108


 3233 001a CA24     		movs	r4, #202
 3234 001c 5462     		str	r4, [r2, #36]
 3235              		.loc 1 2667 3 view .LVU1100
 3236 001e 1A68     		ldr	r2, [r3]
 3237 0020 5324     		movs	r4, #83
 3238 0022 5462     		str	r4, [r2, #36]
 3239              		.loc 1 2667 3 view .LVU1101
2668:Drivers/STM32H7xx_HAL_Driver/Src/stm32h7xx_hal_rtc_ex.c **** 
2669:Drivers/STM32H7xx_HAL_Driver/Src/stm32h7xx_hal_rtc_ex.c ****   /* Clear flags before config */
2670:Drivers/STM32H7xx_HAL_Driver/Src/stm32h7xx_hal_rtc_ex.c ****   hrtc->Instance->CR &= (uint32_t)~RTC_CR_COSEL;
 3240              		.loc 1 2670 3 view .LVU1102
 3241              		.loc 1 2670 7 is_stmt 0 view .LVU1103
 3242 0024 1C68     		ldr	r4, [r3]
 3243              		.loc 1 2670 17 view .LVU1104
 3244 0026 A268     		ldr	r2, [r4, #8]
 3245              		.loc 1 2670 22 view .LVU1105
 3246 0028 22F40022 		bic	r2, r2, #524288
 3247 002c A260     		str	r2, [r4, #8]
2671:Drivers/STM32H7xx_HAL_Driver/Src/stm32h7xx_hal_rtc_ex.c **** 
2672:Drivers/STM32H7xx_HAL_Driver/Src/stm32h7xx_hal_rtc_ex.c ****   /* Configure the RTC_CR register */
2673:Drivers/STM32H7xx_HAL_Driver/Src/stm32h7xx_hal_rtc_ex.c ****   hrtc->Instance->CR |= (uint32_t)CalibOutput;
 3248              		.loc 1 2673 3 is_stmt 1 view .LVU1106
 3249              		.loc 1 2673 7 is_stmt 0 view .LVU1107
 3250 002e 1C68     		ldr	r4, [r3]
 3251              		.loc 1 2673 17 view .LVU1108
 3252 0030 A268     		ldr	r2, [r4, #8]
 3253              		.loc 1 2673 22 view .LVU1109
 3254 0032 0A43     		orrs	r2, r2, r1
 3255 0034 A260     		str	r2, [r4, #8]
2674:Drivers/STM32H7xx_HAL_Driver/Src/stm32h7xx_hal_rtc_ex.c **** 
2675:Drivers/STM32H7xx_HAL_Driver/Src/stm32h7xx_hal_rtc_ex.c ****   __HAL_RTC_CALIBRATION_OUTPUT_ENABLE(hrtc);
 3256              		.loc 1 2675 3 is_stmt 1 view .LVU1110
 3257 0036 1968     		ldr	r1, [r3]
 3258              	.LVL221:
 3259              		.loc 1 2675 3 is_stmt 0 view .LVU1111
 3260 0038 8A68     		ldr	r2, [r1, #8]
 3261 003a 42F40002 		orr	r2, r2, #8388608
 3262 003e 8A60     		str	r2, [r1, #8]
2676:Drivers/STM32H7xx_HAL_Driver/Src/stm32h7xx_hal_rtc_ex.c **** 
2677:Drivers/STM32H7xx_HAL_Driver/Src/stm32h7xx_hal_rtc_ex.c ****   /* Enable the write protection for RTC registers */
2678:Drivers/STM32H7xx_HAL_Driver/Src/stm32h7xx_hal_rtc_ex.c ****   __HAL_RTC_WRITEPROTECTION_ENABLE(hrtc);
 3263              		.loc 1 2678 3 is_stmt 1 view .LVU1112
 3264              		.loc 1 2678 3 view .LVU1113
 3265 0040 1A68     		ldr	r2, [r3]
 3266 0042 FF21     		movs	r1, #255
 3267 0044 5162     		str	r1, [r2, #36]
 3268              		.loc 1 2678 3 view .LVU1114
2679:Drivers/STM32H7xx_HAL_Driver/Src/stm32h7xx_hal_rtc_ex.c **** 
2680:Drivers/STM32H7xx_HAL_Driver/Src/stm32h7xx_hal_rtc_ex.c ****   /* Change RTC state */
2681:Drivers/STM32H7xx_HAL_Driver/Src/stm32h7xx_hal_rtc_ex.c ****   hrtc->State = HAL_RTC_STATE_READY;
 3269              		.loc 1 2681 3 view .LVU1115
 3270              		.loc 1 2681 15 is_stmt 0 view .LVU1116
 3271 0046 83F82100 		strb	r0, [r3, #33]
2682:Drivers/STM32H7xx_HAL_Driver/Src/stm32h7xx_hal_rtc_ex.c **** 
2683:Drivers/STM32H7xx_HAL_Driver/Src/stm32h7xx_hal_rtc_ex.c ****   /* Process Unlocked */
2684:Drivers/STM32H7xx_HAL_Driver/Src/stm32h7xx_hal_rtc_ex.c ****   __HAL_UNLOCK(hrtc);
 3272              		.loc 1 2684 3 is_stmt 1 view .LVU1117
ARM GAS  C:\usertemp\cc0y2B3r.s 			page 109


 3273              		.loc 1 2684 3 view .LVU1118
 3274 004a 0020     		movs	r0, #0
 3275 004c 83F82000 		strb	r0, [r3, #32]
 3276              		.loc 1 2684 3 view .LVU1119
2685:Drivers/STM32H7xx_HAL_Driver/Src/stm32h7xx_hal_rtc_ex.c **** 
2686:Drivers/STM32H7xx_HAL_Driver/Src/stm32h7xx_hal_rtc_ex.c ****   return HAL_OK;
 3277              		.loc 1 2686 3 view .LVU1120
2687:Drivers/STM32H7xx_HAL_Driver/Src/stm32h7xx_hal_rtc_ex.c **** }
 3278              		.loc 1 2687 1 is_stmt 0 view .LVU1121
 3279 0050 5DF8044B 		ldr	r4, [sp], #4
 3280              	.LCFI31:
 3281              		.cfi_restore 4
 3282              		.cfi_def_cfa_offset 0
 3283 0054 7047     		bx	lr
 3284              	.LVL222:
 3285              	.L215:
2662:Drivers/STM32H7xx_HAL_Driver/Src/stm32h7xx_hal_rtc_ex.c **** 
 3286              		.loc 1 2662 3 discriminator 1 view .LVU1122
 3287 0056 0220     		movs	r0, #2
 3288              	.LVL223:
 3289              		.loc 1 2687 1 view .LVU1123
 3290 0058 7047     		bx	lr
 3291              		.cfi_endproc
 3292              	.LFE369:
 3294              		.section	.text.HAL_RTCEx_DeactivateCalibrationOutPut,"ax",%progbits
 3295              		.align	1
 3296              		.global	HAL_RTCEx_DeactivateCalibrationOutPut
 3297              		.syntax unified
 3298              		.thumb
 3299              		.thumb_func
 3301              	HAL_RTCEx_DeactivateCalibrationOutPut:
 3302              	.LVL224:
 3303              	.LFB370:
2688:Drivers/STM32H7xx_HAL_Driver/Src/stm32h7xx_hal_rtc_ex.c **** 
2689:Drivers/STM32H7xx_HAL_Driver/Src/stm32h7xx_hal_rtc_ex.c **** /**
2690:Drivers/STM32H7xx_HAL_Driver/Src/stm32h7xx_hal_rtc_ex.c ****   * @brief  Deactivate the Calibration Pinout (RTC_CALIB) Selection (1Hz or 512Hz).
2691:Drivers/STM32H7xx_HAL_Driver/Src/stm32h7xx_hal_rtc_ex.c ****   * @param  hrtc RTC handle
2692:Drivers/STM32H7xx_HAL_Driver/Src/stm32h7xx_hal_rtc_ex.c ****   * @retval HAL status
2693:Drivers/STM32H7xx_HAL_Driver/Src/stm32h7xx_hal_rtc_ex.c ****   */
2694:Drivers/STM32H7xx_HAL_Driver/Src/stm32h7xx_hal_rtc_ex.c **** HAL_StatusTypeDef HAL_RTCEx_DeactivateCalibrationOutPut(RTC_HandleTypeDef * hrtc)
2695:Drivers/STM32H7xx_HAL_Driver/Src/stm32h7xx_hal_rtc_ex.c **** {
 3304              		.loc 1 2695 1 is_stmt 1 view -0
 3305              		.cfi_startproc
 3306              		@ args = 0, pretend = 0, frame = 0
 3307              		@ frame_needed = 0, uses_anonymous_args = 0
 3308              		@ link register save eliminated.
2696:Drivers/STM32H7xx_HAL_Driver/Src/stm32h7xx_hal_rtc_ex.c ****   /* Process Locked */
2697:Drivers/STM32H7xx_HAL_Driver/Src/stm32h7xx_hal_rtc_ex.c ****   __HAL_LOCK(hrtc);
 3309              		.loc 1 2697 3 view .LVU1125
 3310              		.loc 1 2697 3 view .LVU1126
 3311 0000 90F82030 		ldrb	r3, [r0, #32]	@ zero_extendqisi2
 3312 0004 012B     		cmp	r3, #1
 3313 0006 1AD0     		beq	.L222
 3314              		.loc 1 2697 3 discriminator 2 view .LVU1127
 3315 0008 0122     		movs	r2, #1
 3316 000a 80F82020 		strb	r2, [r0, #32]
 3317              		.loc 1 2697 3 discriminator 2 view .LVU1128
ARM GAS  C:\usertemp\cc0y2B3r.s 			page 110


2698:Drivers/STM32H7xx_HAL_Driver/Src/stm32h7xx_hal_rtc_ex.c **** 
2699:Drivers/STM32H7xx_HAL_Driver/Src/stm32h7xx_hal_rtc_ex.c ****   hrtc->State = HAL_RTC_STATE_BUSY;
 3318              		.loc 1 2699 3 view .LVU1129
 3319              		.loc 1 2699 15 is_stmt 0 view .LVU1130
 3320 000e 0223     		movs	r3, #2
 3321 0010 80F82130 		strb	r3, [r0, #33]
2700:Drivers/STM32H7xx_HAL_Driver/Src/stm32h7xx_hal_rtc_ex.c **** 
2701:Drivers/STM32H7xx_HAL_Driver/Src/stm32h7xx_hal_rtc_ex.c ****   /* Disable the write protection for RTC registers */
2702:Drivers/STM32H7xx_HAL_Driver/Src/stm32h7xx_hal_rtc_ex.c ****   __HAL_RTC_WRITEPROTECTION_DISABLE(hrtc);
 3322              		.loc 1 2702 3 is_stmt 1 view .LVU1131
 3323              		.loc 1 2702 3 view .LVU1132
 3324 0014 0368     		ldr	r3, [r0]
 3325 0016 CA21     		movs	r1, #202
 3326 0018 5962     		str	r1, [r3, #36]
 3327              		.loc 1 2702 3 view .LVU1133
 3328 001a 0368     		ldr	r3, [r0]
 3329 001c 5321     		movs	r1, #83
 3330 001e 5962     		str	r1, [r3, #36]
 3331              		.loc 1 2702 3 view .LVU1134
2703:Drivers/STM32H7xx_HAL_Driver/Src/stm32h7xx_hal_rtc_ex.c **** 
2704:Drivers/STM32H7xx_HAL_Driver/Src/stm32h7xx_hal_rtc_ex.c ****   __HAL_RTC_CALIBRATION_OUTPUT_DISABLE(hrtc);
 3332              		.loc 1 2704 3 view .LVU1135
 3333 0020 0168     		ldr	r1, [r0]
 3334 0022 8B68     		ldr	r3, [r1, #8]
 3335 0024 23F40003 		bic	r3, r3, #8388608
 3336 0028 8B60     		str	r3, [r1, #8]
2705:Drivers/STM32H7xx_HAL_Driver/Src/stm32h7xx_hal_rtc_ex.c **** 
2706:Drivers/STM32H7xx_HAL_Driver/Src/stm32h7xx_hal_rtc_ex.c ****   /* Enable the write protection for RTC registers */
2707:Drivers/STM32H7xx_HAL_Driver/Src/stm32h7xx_hal_rtc_ex.c ****   __HAL_RTC_WRITEPROTECTION_ENABLE(hrtc);
 3337              		.loc 1 2707 3 view .LVU1136
 3338              		.loc 1 2707 3 view .LVU1137
 3339 002a 0368     		ldr	r3, [r0]
 3340 002c FF21     		movs	r1, #255
 3341 002e 5962     		str	r1, [r3, #36]
 3342              		.loc 1 2707 3 view .LVU1138
2708:Drivers/STM32H7xx_HAL_Driver/Src/stm32h7xx_hal_rtc_ex.c **** 
2709:Drivers/STM32H7xx_HAL_Driver/Src/stm32h7xx_hal_rtc_ex.c ****   /* Change RTC state */
2710:Drivers/STM32H7xx_HAL_Driver/Src/stm32h7xx_hal_rtc_ex.c ****   hrtc->State = HAL_RTC_STATE_READY;
 3343              		.loc 1 2710 3 view .LVU1139
 3344              		.loc 1 2710 15 is_stmt 0 view .LVU1140
 3345 0030 80F82120 		strb	r2, [r0, #33]
2711:Drivers/STM32H7xx_HAL_Driver/Src/stm32h7xx_hal_rtc_ex.c **** 
2712:Drivers/STM32H7xx_HAL_Driver/Src/stm32h7xx_hal_rtc_ex.c ****   /* Process Unlocked */
2713:Drivers/STM32H7xx_HAL_Driver/Src/stm32h7xx_hal_rtc_ex.c ****   __HAL_UNLOCK(hrtc);
 3346              		.loc 1 2713 3 is_stmt 1 view .LVU1141
 3347              		.loc 1 2713 3 view .LVU1142
 3348 0034 0023     		movs	r3, #0
 3349 0036 80F82030 		strb	r3, [r0, #32]
 3350              		.loc 1 2713 3 view .LVU1143
2714:Drivers/STM32H7xx_HAL_Driver/Src/stm32h7xx_hal_rtc_ex.c **** 
2715:Drivers/STM32H7xx_HAL_Driver/Src/stm32h7xx_hal_rtc_ex.c ****   return HAL_OK;
 3351              		.loc 1 2715 3 view .LVU1144
 3352              		.loc 1 2715 10 is_stmt 0 view .LVU1145
 3353 003a 1846     		mov	r0, r3
 3354              	.LVL225:
 3355              		.loc 1 2715 10 view .LVU1146
 3356 003c 7047     		bx	lr
ARM GAS  C:\usertemp\cc0y2B3r.s 			page 111


 3357              	.LVL226:
 3358              	.L222:
2697:Drivers/STM32H7xx_HAL_Driver/Src/stm32h7xx_hal_rtc_ex.c **** 
 3359              		.loc 1 2697 3 discriminator 1 view .LVU1147
 3360 003e 0220     		movs	r0, #2
 3361              	.LVL227:
2716:Drivers/STM32H7xx_HAL_Driver/Src/stm32h7xx_hal_rtc_ex.c **** }
 3362              		.loc 1 2716 1 view .LVU1148
 3363 0040 7047     		bx	lr
 3364              		.cfi_endproc
 3365              	.LFE370:
 3367              		.section	.text.HAL_RTCEx_SetRefClock,"ax",%progbits
 3368              		.align	1
 3369              		.global	HAL_RTCEx_SetRefClock
 3370              		.syntax unified
 3371              		.thumb
 3372              		.thumb_func
 3374              	HAL_RTCEx_SetRefClock:
 3375              	.LVL228:
 3376              	.LFB371:
2717:Drivers/STM32H7xx_HAL_Driver/Src/stm32h7xx_hal_rtc_ex.c **** 
2718:Drivers/STM32H7xx_HAL_Driver/Src/stm32h7xx_hal_rtc_ex.c **** /**
2719:Drivers/STM32H7xx_HAL_Driver/Src/stm32h7xx_hal_rtc_ex.c ****   * @brief  Enable the RTC reference clock detection.
2720:Drivers/STM32H7xx_HAL_Driver/Src/stm32h7xx_hal_rtc_ex.c ****   * @param  hrtc RTC handle
2721:Drivers/STM32H7xx_HAL_Driver/Src/stm32h7xx_hal_rtc_ex.c ****   * @retval HAL status
2722:Drivers/STM32H7xx_HAL_Driver/Src/stm32h7xx_hal_rtc_ex.c ****   */
2723:Drivers/STM32H7xx_HAL_Driver/Src/stm32h7xx_hal_rtc_ex.c **** HAL_StatusTypeDef HAL_RTCEx_SetRefClock(RTC_HandleTypeDef * hrtc)
2724:Drivers/STM32H7xx_HAL_Driver/Src/stm32h7xx_hal_rtc_ex.c **** {
 3377              		.loc 1 2724 1 is_stmt 1 view -0
 3378              		.cfi_startproc
 3379              		@ args = 0, pretend = 0, frame = 0
 3380              		@ frame_needed = 0, uses_anonymous_args = 0
2725:Drivers/STM32H7xx_HAL_Driver/Src/stm32h7xx_hal_rtc_ex.c ****   HAL_StatusTypeDef status;
 3381              		.loc 1 2725 3 view .LVU1150
2726:Drivers/STM32H7xx_HAL_Driver/Src/stm32h7xx_hal_rtc_ex.c ****   /* Process Locked */
2727:Drivers/STM32H7xx_HAL_Driver/Src/stm32h7xx_hal_rtc_ex.c ****   __HAL_LOCK(hrtc);
 3382              		.loc 1 2727 3 view .LVU1151
 3383              		.loc 1 2727 3 view .LVU1152
 3384 0000 90F82030 		ldrb	r3, [r0, #32]	@ zero_extendqisi2
 3385 0004 012B     		cmp	r3, #1
 3386 0006 26D0     		beq	.L227
2724:Drivers/STM32H7xx_HAL_Driver/Src/stm32h7xx_hal_rtc_ex.c ****   HAL_StatusTypeDef status;
 3387              		.loc 1 2724 1 is_stmt 0 view .LVU1153
 3388 0008 10B5     		push	{r4, lr}
 3389              	.LCFI32:
 3390              		.cfi_def_cfa_offset 8
 3391              		.cfi_offset 4, -8
 3392              		.cfi_offset 14, -4
 3393 000a 0446     		mov	r4, r0
 3394              		.loc 1 2727 3 is_stmt 1 discriminator 2 view .LVU1154
 3395 000c 0123     		movs	r3, #1
 3396 000e 80F82030 		strb	r3, [r0, #32]
 3397              		.loc 1 2727 3 discriminator 2 view .LVU1155
2728:Drivers/STM32H7xx_HAL_Driver/Src/stm32h7xx_hal_rtc_ex.c **** 
2729:Drivers/STM32H7xx_HAL_Driver/Src/stm32h7xx_hal_rtc_ex.c ****   hrtc->State = HAL_RTC_STATE_BUSY;
 3398              		.loc 1 2729 3 view .LVU1156
 3399              		.loc 1 2729 15 is_stmt 0 view .LVU1157
ARM GAS  C:\usertemp\cc0y2B3r.s 			page 112


 3400 0012 0223     		movs	r3, #2
 3401 0014 80F82130 		strb	r3, [r0, #33]
2730:Drivers/STM32H7xx_HAL_Driver/Src/stm32h7xx_hal_rtc_ex.c **** 
2731:Drivers/STM32H7xx_HAL_Driver/Src/stm32h7xx_hal_rtc_ex.c ****   /* Disable the write protection for RTC registers */
2732:Drivers/STM32H7xx_HAL_Driver/Src/stm32h7xx_hal_rtc_ex.c ****   __HAL_RTC_WRITEPROTECTION_DISABLE(hrtc);
 3402              		.loc 1 2732 3 is_stmt 1 view .LVU1158
 3403              		.loc 1 2732 3 view .LVU1159
 3404 0018 0368     		ldr	r3, [r0]
 3405 001a CA22     		movs	r2, #202
 3406 001c 5A62     		str	r2, [r3, #36]
 3407              		.loc 1 2732 3 view .LVU1160
 3408 001e 0368     		ldr	r3, [r0]
 3409 0020 5322     		movs	r2, #83
 3410 0022 5A62     		str	r2, [r3, #36]
 3411              		.loc 1 2732 3 view .LVU1161
2733:Drivers/STM32H7xx_HAL_Driver/Src/stm32h7xx_hal_rtc_ex.c **** 
2734:Drivers/STM32H7xx_HAL_Driver/Src/stm32h7xx_hal_rtc_ex.c ****   /* Enter Initialization mode */
2735:Drivers/STM32H7xx_HAL_Driver/Src/stm32h7xx_hal_rtc_ex.c ****   status = RTC_EnterInitMode(hrtc);
 3412              		.loc 1 2735 3 view .LVU1162
 3413              		.loc 1 2735 12 is_stmt 0 view .LVU1163
 3414 0024 FFF7FEFF 		bl	RTC_EnterInitMode
 3415              	.LVL229:
2736:Drivers/STM32H7xx_HAL_Driver/Src/stm32h7xx_hal_rtc_ex.c ****   if (status == HAL_OK)
 3416              		.loc 1 2736 3 is_stmt 1 view .LVU1164
 3417              		.loc 1 2736 6 is_stmt 0 view .LVU1165
 3418 0028 0346     		mov	r3, r0
 3419 002a 50B1     		cbz	r0, .L232
 3420              	.LVL230:
 3421              	.L225:
2737:Drivers/STM32H7xx_HAL_Driver/Src/stm32h7xx_hal_rtc_ex.c ****   {
2738:Drivers/STM32H7xx_HAL_Driver/Src/stm32h7xx_hal_rtc_ex.c ****     __HAL_RTC_CLOCKREF_DETECTION_ENABLE(hrtc);
2739:Drivers/STM32H7xx_HAL_Driver/Src/stm32h7xx_hal_rtc_ex.c **** 
2740:Drivers/STM32H7xx_HAL_Driver/Src/stm32h7xx_hal_rtc_ex.c ****     /* Exit Initialization mode */
2741:Drivers/STM32H7xx_HAL_Driver/Src/stm32h7xx_hal_rtc_ex.c ****     status = RTC_ExitInitMode(hrtc);
2742:Drivers/STM32H7xx_HAL_Driver/Src/stm32h7xx_hal_rtc_ex.c ****   }
2743:Drivers/STM32H7xx_HAL_Driver/Src/stm32h7xx_hal_rtc_ex.c **** 
2744:Drivers/STM32H7xx_HAL_Driver/Src/stm32h7xx_hal_rtc_ex.c ****   /* Enable the write protection for RTC registers */
2745:Drivers/STM32H7xx_HAL_Driver/Src/stm32h7xx_hal_rtc_ex.c ****   __HAL_RTC_WRITEPROTECTION_ENABLE(hrtc);
 3422              		.loc 1 2745 3 is_stmt 1 view .LVU1166
 3423              		.loc 1 2745 3 view .LVU1167
 3424 002c 2268     		ldr	r2, [r4]
 3425 002e FF21     		movs	r1, #255
 3426 0030 5162     		str	r1, [r2, #36]
 3427              		.loc 1 2745 3 view .LVU1168
2746:Drivers/STM32H7xx_HAL_Driver/Src/stm32h7xx_hal_rtc_ex.c ****   if (status == HAL_OK)
 3428              		.loc 1 2746 3 view .LVU1169
 3429              		.loc 1 2746 6 is_stmt 0 view .LVU1170
 3430 0032 13B9     		cbnz	r3, .L226
2747:Drivers/STM32H7xx_HAL_Driver/Src/stm32h7xx_hal_rtc_ex.c ****   {
2748:Drivers/STM32H7xx_HAL_Driver/Src/stm32h7xx_hal_rtc_ex.c ****     /* Change RTC state */
2749:Drivers/STM32H7xx_HAL_Driver/Src/stm32h7xx_hal_rtc_ex.c ****     hrtc->State = HAL_RTC_STATE_READY;
 3431              		.loc 1 2749 5 is_stmt 1 view .LVU1171
 3432              		.loc 1 2749 17 is_stmt 0 view .LVU1172
 3433 0034 0123     		movs	r3, #1
 3434              	.LVL231:
 3435              		.loc 1 2749 17 view .LVU1173
 3436 0036 84F82130 		strb	r3, [r4, #33]
ARM GAS  C:\usertemp\cc0y2B3r.s 			page 113


 3437              	.L226:
2750:Drivers/STM32H7xx_HAL_Driver/Src/stm32h7xx_hal_rtc_ex.c ****   }
2751:Drivers/STM32H7xx_HAL_Driver/Src/stm32h7xx_hal_rtc_ex.c ****   /* Process Unlocked */
2752:Drivers/STM32H7xx_HAL_Driver/Src/stm32h7xx_hal_rtc_ex.c ****   __HAL_UNLOCK(hrtc);
 3438              		.loc 1 2752 3 is_stmt 1 view .LVU1174
 3439              		.loc 1 2752 3 view .LVU1175
 3440 003a 0020     		movs	r0, #0
 3441 003c 84F82000 		strb	r0, [r4, #32]
 3442              		.loc 1 2752 3 view .LVU1176
2753:Drivers/STM32H7xx_HAL_Driver/Src/stm32h7xx_hal_rtc_ex.c **** 
2754:Drivers/STM32H7xx_HAL_Driver/Src/stm32h7xx_hal_rtc_ex.c ****   return HAL_OK;
 3443              		.loc 1 2754 3 view .LVU1177
2755:Drivers/STM32H7xx_HAL_Driver/Src/stm32h7xx_hal_rtc_ex.c **** }
 3444              		.loc 1 2755 1 is_stmt 0 view .LVU1178
 3445 0040 10BD     		pop	{r4, pc}
 3446              	.LVL232:
 3447              	.L232:
2738:Drivers/STM32H7xx_HAL_Driver/Src/stm32h7xx_hal_rtc_ex.c **** 
 3448              		.loc 1 2738 5 is_stmt 1 view .LVU1179
 3449 0042 2268     		ldr	r2, [r4]
 3450 0044 9368     		ldr	r3, [r2, #8]
 3451 0046 43F01003 		orr	r3, r3, #16
 3452 004a 9360     		str	r3, [r2, #8]
2741:Drivers/STM32H7xx_HAL_Driver/Src/stm32h7xx_hal_rtc_ex.c ****   }
 3453              		.loc 1 2741 5 view .LVU1180
2741:Drivers/STM32H7xx_HAL_Driver/Src/stm32h7xx_hal_rtc_ex.c ****   }
 3454              		.loc 1 2741 14 is_stmt 0 view .LVU1181
 3455 004c 2046     		mov	r0, r4
 3456              	.LVL233:
2741:Drivers/STM32H7xx_HAL_Driver/Src/stm32h7xx_hal_rtc_ex.c ****   }
 3457              		.loc 1 2741 14 view .LVU1182
 3458 004e FFF7FEFF 		bl	RTC_ExitInitMode
 3459              	.LVL234:
 3460 0052 0346     		mov	r3, r0
 3461              	.LVL235:
2741:Drivers/STM32H7xx_HAL_Driver/Src/stm32h7xx_hal_rtc_ex.c ****   }
 3462              		.loc 1 2741 14 view .LVU1183
 3463 0054 EAE7     		b	.L225
 3464              	.LVL236:
 3465              	.L227:
 3466              	.LCFI33:
 3467              		.cfi_def_cfa_offset 0
 3468              		.cfi_restore 4
 3469              		.cfi_restore 14
2727:Drivers/STM32H7xx_HAL_Driver/Src/stm32h7xx_hal_rtc_ex.c **** 
 3470              		.loc 1 2727 3 discriminator 1 view .LVU1184
 3471 0056 0220     		movs	r0, #2
 3472              	.LVL237:
 3473              		.loc 1 2755 1 view .LVU1185
 3474 0058 7047     		bx	lr
 3475              		.cfi_endproc
 3476              	.LFE371:
 3478              		.section	.text.HAL_RTCEx_DeactivateRefClock,"ax",%progbits
 3479              		.align	1
 3480              		.global	HAL_RTCEx_DeactivateRefClock
 3481              		.syntax unified
 3482              		.thumb
ARM GAS  C:\usertemp\cc0y2B3r.s 			page 114


 3483              		.thumb_func
 3485              	HAL_RTCEx_DeactivateRefClock:
 3486              	.LVL238:
 3487              	.LFB372:
2756:Drivers/STM32H7xx_HAL_Driver/Src/stm32h7xx_hal_rtc_ex.c **** 
2757:Drivers/STM32H7xx_HAL_Driver/Src/stm32h7xx_hal_rtc_ex.c **** /**
2758:Drivers/STM32H7xx_HAL_Driver/Src/stm32h7xx_hal_rtc_ex.c ****   * @brief  Disable the RTC reference clock detection.
2759:Drivers/STM32H7xx_HAL_Driver/Src/stm32h7xx_hal_rtc_ex.c ****   * @param  hrtc RTC handle
2760:Drivers/STM32H7xx_HAL_Driver/Src/stm32h7xx_hal_rtc_ex.c ****   * @retval HAL status
2761:Drivers/STM32H7xx_HAL_Driver/Src/stm32h7xx_hal_rtc_ex.c ****   */
2762:Drivers/STM32H7xx_HAL_Driver/Src/stm32h7xx_hal_rtc_ex.c **** HAL_StatusTypeDef HAL_RTCEx_DeactivateRefClock(RTC_HandleTypeDef * hrtc)
2763:Drivers/STM32H7xx_HAL_Driver/Src/stm32h7xx_hal_rtc_ex.c **** {
 3488              		.loc 1 2763 1 is_stmt 1 view -0
 3489              		.cfi_startproc
 3490              		@ args = 0, pretend = 0, frame = 0
 3491              		@ frame_needed = 0, uses_anonymous_args = 0
2764:Drivers/STM32H7xx_HAL_Driver/Src/stm32h7xx_hal_rtc_ex.c ****   HAL_StatusTypeDef status;
 3492              		.loc 1 2764 3 view .LVU1187
2765:Drivers/STM32H7xx_HAL_Driver/Src/stm32h7xx_hal_rtc_ex.c ****   /* Process Locked */
2766:Drivers/STM32H7xx_HAL_Driver/Src/stm32h7xx_hal_rtc_ex.c ****   __HAL_LOCK(hrtc);
 3493              		.loc 1 2766 3 view .LVU1188
 3494              		.loc 1 2766 3 view .LVU1189
 3495 0000 90F82030 		ldrb	r3, [r0, #32]	@ zero_extendqisi2
 3496 0004 012B     		cmp	r3, #1
 3497 0006 26D0     		beq	.L237
2763:Drivers/STM32H7xx_HAL_Driver/Src/stm32h7xx_hal_rtc_ex.c ****   HAL_StatusTypeDef status;
 3498              		.loc 1 2763 1 is_stmt 0 view .LVU1190
 3499 0008 10B5     		push	{r4, lr}
 3500              	.LCFI34:
 3501              		.cfi_def_cfa_offset 8
 3502              		.cfi_offset 4, -8
 3503              		.cfi_offset 14, -4
 3504 000a 0446     		mov	r4, r0
 3505              		.loc 1 2766 3 is_stmt 1 discriminator 2 view .LVU1191
 3506 000c 0123     		movs	r3, #1
 3507 000e 80F82030 		strb	r3, [r0, #32]
 3508              		.loc 1 2766 3 discriminator 2 view .LVU1192
2767:Drivers/STM32H7xx_HAL_Driver/Src/stm32h7xx_hal_rtc_ex.c **** 
2768:Drivers/STM32H7xx_HAL_Driver/Src/stm32h7xx_hal_rtc_ex.c ****   hrtc->State = HAL_RTC_STATE_BUSY;
 3509              		.loc 1 2768 3 view .LVU1193
 3510              		.loc 1 2768 15 is_stmt 0 view .LVU1194
 3511 0012 0223     		movs	r3, #2
 3512 0014 80F82130 		strb	r3, [r0, #33]
2769:Drivers/STM32H7xx_HAL_Driver/Src/stm32h7xx_hal_rtc_ex.c **** 
2770:Drivers/STM32H7xx_HAL_Driver/Src/stm32h7xx_hal_rtc_ex.c ****   /* Disable the write protection for RTC registers */
2771:Drivers/STM32H7xx_HAL_Driver/Src/stm32h7xx_hal_rtc_ex.c ****   __HAL_RTC_WRITEPROTECTION_DISABLE(hrtc);
 3513              		.loc 1 2771 3 is_stmt 1 view .LVU1195
 3514              		.loc 1 2771 3 view .LVU1196
 3515 0018 0368     		ldr	r3, [r0]
 3516 001a CA22     		movs	r2, #202
 3517 001c 5A62     		str	r2, [r3, #36]
 3518              		.loc 1 2771 3 view .LVU1197
 3519 001e 0368     		ldr	r3, [r0]
 3520 0020 5322     		movs	r2, #83
 3521 0022 5A62     		str	r2, [r3, #36]
 3522              		.loc 1 2771 3 view .LVU1198
2772:Drivers/STM32H7xx_HAL_Driver/Src/stm32h7xx_hal_rtc_ex.c **** 
ARM GAS  C:\usertemp\cc0y2B3r.s 			page 115


2773:Drivers/STM32H7xx_HAL_Driver/Src/stm32h7xx_hal_rtc_ex.c ****   /* Enter Initialization mode */
2774:Drivers/STM32H7xx_HAL_Driver/Src/stm32h7xx_hal_rtc_ex.c ****   status = RTC_EnterInitMode(hrtc);
 3523              		.loc 1 2774 3 view .LVU1199
 3524              		.loc 1 2774 12 is_stmt 0 view .LVU1200
 3525 0024 FFF7FEFF 		bl	RTC_EnterInitMode
 3526              	.LVL239:
2775:Drivers/STM32H7xx_HAL_Driver/Src/stm32h7xx_hal_rtc_ex.c ****   if (status == HAL_OK)
 3527              		.loc 1 2775 3 is_stmt 1 view .LVU1201
 3528              		.loc 1 2775 6 is_stmt 0 view .LVU1202
 3529 0028 0346     		mov	r3, r0
 3530 002a 50B1     		cbz	r0, .L242
 3531              	.LVL240:
 3532              	.L235:
2776:Drivers/STM32H7xx_HAL_Driver/Src/stm32h7xx_hal_rtc_ex.c ****   {
2777:Drivers/STM32H7xx_HAL_Driver/Src/stm32h7xx_hal_rtc_ex.c ****     __HAL_RTC_CLOCKREF_DETECTION_DISABLE(hrtc);
2778:Drivers/STM32H7xx_HAL_Driver/Src/stm32h7xx_hal_rtc_ex.c **** 
2779:Drivers/STM32H7xx_HAL_Driver/Src/stm32h7xx_hal_rtc_ex.c ****     /* Exit Initialization mode */
2780:Drivers/STM32H7xx_HAL_Driver/Src/stm32h7xx_hal_rtc_ex.c ****     status = RTC_ExitInitMode(hrtc);
2781:Drivers/STM32H7xx_HAL_Driver/Src/stm32h7xx_hal_rtc_ex.c ****   }
2782:Drivers/STM32H7xx_HAL_Driver/Src/stm32h7xx_hal_rtc_ex.c **** 
2783:Drivers/STM32H7xx_HAL_Driver/Src/stm32h7xx_hal_rtc_ex.c ****   /* Enable the write protection for RTC registers */
2784:Drivers/STM32H7xx_HAL_Driver/Src/stm32h7xx_hal_rtc_ex.c ****   __HAL_RTC_WRITEPROTECTION_ENABLE(hrtc);
 3533              		.loc 1 2784 3 is_stmt 1 view .LVU1203
 3534              		.loc 1 2784 3 view .LVU1204
 3535 002c 2268     		ldr	r2, [r4]
 3536 002e FF21     		movs	r1, #255
 3537 0030 5162     		str	r1, [r2, #36]
 3538              		.loc 1 2784 3 view .LVU1205
2785:Drivers/STM32H7xx_HAL_Driver/Src/stm32h7xx_hal_rtc_ex.c **** 
2786:Drivers/STM32H7xx_HAL_Driver/Src/stm32h7xx_hal_rtc_ex.c ****   if (status == HAL_OK)
 3539              		.loc 1 2786 3 view .LVU1206
 3540              		.loc 1 2786 6 is_stmt 0 view .LVU1207
 3541 0032 13B9     		cbnz	r3, .L236
2787:Drivers/STM32H7xx_HAL_Driver/Src/stm32h7xx_hal_rtc_ex.c ****   {
2788:Drivers/STM32H7xx_HAL_Driver/Src/stm32h7xx_hal_rtc_ex.c ****     /* Change RTC state */
2789:Drivers/STM32H7xx_HAL_Driver/Src/stm32h7xx_hal_rtc_ex.c ****     hrtc->State = HAL_RTC_STATE_READY;
 3542              		.loc 1 2789 5 is_stmt 1 view .LVU1208
 3543              		.loc 1 2789 17 is_stmt 0 view .LVU1209
 3544 0034 0123     		movs	r3, #1
 3545              	.LVL241:
 3546              		.loc 1 2789 17 view .LVU1210
 3547 0036 84F82130 		strb	r3, [r4, #33]
 3548              	.L236:
2790:Drivers/STM32H7xx_HAL_Driver/Src/stm32h7xx_hal_rtc_ex.c **** 
2791:Drivers/STM32H7xx_HAL_Driver/Src/stm32h7xx_hal_rtc_ex.c ****   }
2792:Drivers/STM32H7xx_HAL_Driver/Src/stm32h7xx_hal_rtc_ex.c **** 
2793:Drivers/STM32H7xx_HAL_Driver/Src/stm32h7xx_hal_rtc_ex.c ****   /* Process Unlocked */
2794:Drivers/STM32H7xx_HAL_Driver/Src/stm32h7xx_hal_rtc_ex.c ****   __HAL_UNLOCK(hrtc);
 3549              		.loc 1 2794 3 is_stmt 1 view .LVU1211
 3550              		.loc 1 2794 3 view .LVU1212
 3551 003a 0020     		movs	r0, #0
 3552 003c 84F82000 		strb	r0, [r4, #32]
 3553              		.loc 1 2794 3 view .LVU1213
2795:Drivers/STM32H7xx_HAL_Driver/Src/stm32h7xx_hal_rtc_ex.c **** 
2796:Drivers/STM32H7xx_HAL_Driver/Src/stm32h7xx_hal_rtc_ex.c ****   return HAL_OK;
 3554              		.loc 1 2796 3 view .LVU1214
2797:Drivers/STM32H7xx_HAL_Driver/Src/stm32h7xx_hal_rtc_ex.c **** }
ARM GAS  C:\usertemp\cc0y2B3r.s 			page 116


 3555              		.loc 1 2797 1 is_stmt 0 view .LVU1215
 3556 0040 10BD     		pop	{r4, pc}
 3557              	.LVL242:
 3558              	.L242:
2777:Drivers/STM32H7xx_HAL_Driver/Src/stm32h7xx_hal_rtc_ex.c **** 
 3559              		.loc 1 2777 5 is_stmt 1 view .LVU1216
 3560 0042 2268     		ldr	r2, [r4]
 3561 0044 9368     		ldr	r3, [r2, #8]
 3562 0046 23F01003 		bic	r3, r3, #16
 3563 004a 9360     		str	r3, [r2, #8]
2780:Drivers/STM32H7xx_HAL_Driver/Src/stm32h7xx_hal_rtc_ex.c ****   }
 3564              		.loc 1 2780 5 view .LVU1217
2780:Drivers/STM32H7xx_HAL_Driver/Src/stm32h7xx_hal_rtc_ex.c ****   }
 3565              		.loc 1 2780 14 is_stmt 0 view .LVU1218
 3566 004c 2046     		mov	r0, r4
 3567              	.LVL243:
2780:Drivers/STM32H7xx_HAL_Driver/Src/stm32h7xx_hal_rtc_ex.c ****   }
 3568              		.loc 1 2780 14 view .LVU1219
 3569 004e FFF7FEFF 		bl	RTC_ExitInitMode
 3570              	.LVL244:
 3571 0052 0346     		mov	r3, r0
 3572              	.LVL245:
2780:Drivers/STM32H7xx_HAL_Driver/Src/stm32h7xx_hal_rtc_ex.c ****   }
 3573              		.loc 1 2780 14 view .LVU1220
 3574 0054 EAE7     		b	.L235
 3575              	.LVL246:
 3576              	.L237:
 3577              	.LCFI35:
 3578              		.cfi_def_cfa_offset 0
 3579              		.cfi_restore 4
 3580              		.cfi_restore 14
2766:Drivers/STM32H7xx_HAL_Driver/Src/stm32h7xx_hal_rtc_ex.c **** 
 3581              		.loc 1 2766 3 discriminator 1 view .LVU1221
 3582 0056 0220     		movs	r0, #2
 3583              	.LVL247:
 3584              		.loc 1 2797 1 view .LVU1222
 3585 0058 7047     		bx	lr
 3586              		.cfi_endproc
 3587              	.LFE372:
 3589              		.section	.text.HAL_RTCEx_EnableBypassShadow,"ax",%progbits
 3590              		.align	1
 3591              		.global	HAL_RTCEx_EnableBypassShadow
 3592              		.syntax unified
 3593              		.thumb
 3594              		.thumb_func
 3596              	HAL_RTCEx_EnableBypassShadow:
 3597              	.LVL248:
 3598              	.LFB373:
2798:Drivers/STM32H7xx_HAL_Driver/Src/stm32h7xx_hal_rtc_ex.c **** 
2799:Drivers/STM32H7xx_HAL_Driver/Src/stm32h7xx_hal_rtc_ex.c **** /**
2800:Drivers/STM32H7xx_HAL_Driver/Src/stm32h7xx_hal_rtc_ex.c ****   * @brief  Enable the Bypass Shadow feature.
2801:Drivers/STM32H7xx_HAL_Driver/Src/stm32h7xx_hal_rtc_ex.c ****   * @note   When the Bypass Shadow is enabled the calendar value are taken
2802:Drivers/STM32H7xx_HAL_Driver/Src/stm32h7xx_hal_rtc_ex.c ****   *         directly from the Calendar counter.
2803:Drivers/STM32H7xx_HAL_Driver/Src/stm32h7xx_hal_rtc_ex.c ****   * @param  hrtc RTC handle
2804:Drivers/STM32H7xx_HAL_Driver/Src/stm32h7xx_hal_rtc_ex.c ****   * @retval HAL status
2805:Drivers/STM32H7xx_HAL_Driver/Src/stm32h7xx_hal_rtc_ex.c ****   */
2806:Drivers/STM32H7xx_HAL_Driver/Src/stm32h7xx_hal_rtc_ex.c **** HAL_StatusTypeDef HAL_RTCEx_EnableBypassShadow(RTC_HandleTypeDef * hrtc)
ARM GAS  C:\usertemp\cc0y2B3r.s 			page 117


2807:Drivers/STM32H7xx_HAL_Driver/Src/stm32h7xx_hal_rtc_ex.c **** {
 3599              		.loc 1 2807 1 is_stmt 1 view -0
 3600              		.cfi_startproc
 3601              		@ args = 0, pretend = 0, frame = 0
 3602              		@ frame_needed = 0, uses_anonymous_args = 0
 3603              		@ link register save eliminated.
2808:Drivers/STM32H7xx_HAL_Driver/Src/stm32h7xx_hal_rtc_ex.c ****   /* Process Locked */
2809:Drivers/STM32H7xx_HAL_Driver/Src/stm32h7xx_hal_rtc_ex.c ****   __HAL_LOCK(hrtc);
 3604              		.loc 1 2809 3 view .LVU1224
 3605              		.loc 1 2809 3 view .LVU1225
 3606 0000 90F82030 		ldrb	r3, [r0, #32]	@ zero_extendqisi2
 3607 0004 012B     		cmp	r3, #1
 3608 0006 1AD0     		beq	.L245
 3609              		.loc 1 2809 3 discriminator 2 view .LVU1226
 3610 0008 0122     		movs	r2, #1
 3611 000a 80F82020 		strb	r2, [r0, #32]
 3612              		.loc 1 2809 3 discriminator 2 view .LVU1227
2810:Drivers/STM32H7xx_HAL_Driver/Src/stm32h7xx_hal_rtc_ex.c **** 
2811:Drivers/STM32H7xx_HAL_Driver/Src/stm32h7xx_hal_rtc_ex.c ****   hrtc->State = HAL_RTC_STATE_BUSY;
 3613              		.loc 1 2811 3 view .LVU1228
 3614              		.loc 1 2811 15 is_stmt 0 view .LVU1229
 3615 000e 0223     		movs	r3, #2
 3616 0010 80F82130 		strb	r3, [r0, #33]
2812:Drivers/STM32H7xx_HAL_Driver/Src/stm32h7xx_hal_rtc_ex.c **** 
2813:Drivers/STM32H7xx_HAL_Driver/Src/stm32h7xx_hal_rtc_ex.c ****   /* Disable the write protection for RTC registers */
2814:Drivers/STM32H7xx_HAL_Driver/Src/stm32h7xx_hal_rtc_ex.c ****   __HAL_RTC_WRITEPROTECTION_DISABLE(hrtc);
 3617              		.loc 1 2814 3 is_stmt 1 view .LVU1230
 3618              		.loc 1 2814 3 view .LVU1231
 3619 0014 0368     		ldr	r3, [r0]
 3620 0016 CA21     		movs	r1, #202
 3621 0018 5962     		str	r1, [r3, #36]
 3622              		.loc 1 2814 3 view .LVU1232
 3623 001a 0368     		ldr	r3, [r0]
 3624 001c 5321     		movs	r1, #83
 3625 001e 5962     		str	r1, [r3, #36]
 3626              		.loc 1 2814 3 view .LVU1233
2815:Drivers/STM32H7xx_HAL_Driver/Src/stm32h7xx_hal_rtc_ex.c **** 
2816:Drivers/STM32H7xx_HAL_Driver/Src/stm32h7xx_hal_rtc_ex.c ****   /* Set the BYPSHAD bit */
2817:Drivers/STM32H7xx_HAL_Driver/Src/stm32h7xx_hal_rtc_ex.c ****   hrtc->Instance->CR |= (uint8_t)RTC_CR_BYPSHAD;
 3627              		.loc 1 2817 3 view .LVU1234
 3628              		.loc 1 2817 7 is_stmt 0 view .LVU1235
 3629 0020 0168     		ldr	r1, [r0]
 3630              		.loc 1 2817 17 view .LVU1236
 3631 0022 8B68     		ldr	r3, [r1, #8]
 3632              		.loc 1 2817 22 view .LVU1237
 3633 0024 43F02003 		orr	r3, r3, #32
 3634 0028 8B60     		str	r3, [r1, #8]
2818:Drivers/STM32H7xx_HAL_Driver/Src/stm32h7xx_hal_rtc_ex.c **** 
2819:Drivers/STM32H7xx_HAL_Driver/Src/stm32h7xx_hal_rtc_ex.c ****   /* Enable the write protection for RTC registers */
2820:Drivers/STM32H7xx_HAL_Driver/Src/stm32h7xx_hal_rtc_ex.c ****   __HAL_RTC_WRITEPROTECTION_ENABLE(hrtc);
 3635              		.loc 1 2820 3 is_stmt 1 view .LVU1238
 3636              		.loc 1 2820 3 view .LVU1239
 3637 002a 0368     		ldr	r3, [r0]
 3638 002c FF21     		movs	r1, #255
 3639 002e 5962     		str	r1, [r3, #36]
 3640              		.loc 1 2820 3 view .LVU1240
2821:Drivers/STM32H7xx_HAL_Driver/Src/stm32h7xx_hal_rtc_ex.c **** 
ARM GAS  C:\usertemp\cc0y2B3r.s 			page 118


2822:Drivers/STM32H7xx_HAL_Driver/Src/stm32h7xx_hal_rtc_ex.c ****   /* Change RTC state */
2823:Drivers/STM32H7xx_HAL_Driver/Src/stm32h7xx_hal_rtc_ex.c ****   hrtc->State = HAL_RTC_STATE_READY;
 3641              		.loc 1 2823 3 view .LVU1241
 3642              		.loc 1 2823 15 is_stmt 0 view .LVU1242
 3643 0030 80F82120 		strb	r2, [r0, #33]
2824:Drivers/STM32H7xx_HAL_Driver/Src/stm32h7xx_hal_rtc_ex.c **** 
2825:Drivers/STM32H7xx_HAL_Driver/Src/stm32h7xx_hal_rtc_ex.c ****   /* Process Unlocked */
2826:Drivers/STM32H7xx_HAL_Driver/Src/stm32h7xx_hal_rtc_ex.c ****   __HAL_UNLOCK(hrtc);
 3644              		.loc 1 2826 3 is_stmt 1 view .LVU1243
 3645              		.loc 1 2826 3 view .LVU1244
 3646 0034 0023     		movs	r3, #0
 3647 0036 80F82030 		strb	r3, [r0, #32]
 3648              		.loc 1 2826 3 view .LVU1245
2827:Drivers/STM32H7xx_HAL_Driver/Src/stm32h7xx_hal_rtc_ex.c **** 
2828:Drivers/STM32H7xx_HAL_Driver/Src/stm32h7xx_hal_rtc_ex.c ****   return HAL_OK;
 3649              		.loc 1 2828 3 view .LVU1246
 3650              		.loc 1 2828 10 is_stmt 0 view .LVU1247
 3651 003a 1846     		mov	r0, r3
 3652              	.LVL249:
 3653              		.loc 1 2828 10 view .LVU1248
 3654 003c 7047     		bx	lr
 3655              	.LVL250:
 3656              	.L245:
2809:Drivers/STM32H7xx_HAL_Driver/Src/stm32h7xx_hal_rtc_ex.c **** 
 3657              		.loc 1 2809 3 discriminator 1 view .LVU1249
 3658 003e 0220     		movs	r0, #2
 3659              	.LVL251:
2829:Drivers/STM32H7xx_HAL_Driver/Src/stm32h7xx_hal_rtc_ex.c **** }
 3660              		.loc 1 2829 1 view .LVU1250
 3661 0040 7047     		bx	lr
 3662              		.cfi_endproc
 3663              	.LFE373:
 3665              		.section	.text.HAL_RTCEx_DisableBypassShadow,"ax",%progbits
 3666              		.align	1
 3667              		.global	HAL_RTCEx_DisableBypassShadow
 3668              		.syntax unified
 3669              		.thumb
 3670              		.thumb_func
 3672              	HAL_RTCEx_DisableBypassShadow:
 3673              	.LVL252:
 3674              	.LFB374:
2830:Drivers/STM32H7xx_HAL_Driver/Src/stm32h7xx_hal_rtc_ex.c **** 
2831:Drivers/STM32H7xx_HAL_Driver/Src/stm32h7xx_hal_rtc_ex.c **** /**
2832:Drivers/STM32H7xx_HAL_Driver/Src/stm32h7xx_hal_rtc_ex.c ****   * @brief  Disable the Bypass Shadow feature.
2833:Drivers/STM32H7xx_HAL_Driver/Src/stm32h7xx_hal_rtc_ex.c ****   * @note   When the Bypass Shadow is enabled the calendar value are taken
2834:Drivers/STM32H7xx_HAL_Driver/Src/stm32h7xx_hal_rtc_ex.c ****   *         directly from the Calendar counter.
2835:Drivers/STM32H7xx_HAL_Driver/Src/stm32h7xx_hal_rtc_ex.c ****   * @param  hrtc RTC handle
2836:Drivers/STM32H7xx_HAL_Driver/Src/stm32h7xx_hal_rtc_ex.c ****   * @retval HAL status
2837:Drivers/STM32H7xx_HAL_Driver/Src/stm32h7xx_hal_rtc_ex.c ****   */
2838:Drivers/STM32H7xx_HAL_Driver/Src/stm32h7xx_hal_rtc_ex.c **** HAL_StatusTypeDef HAL_RTCEx_DisableBypassShadow(RTC_HandleTypeDef * hrtc)
2839:Drivers/STM32H7xx_HAL_Driver/Src/stm32h7xx_hal_rtc_ex.c **** {
 3675              		.loc 1 2839 1 is_stmt 1 view -0
 3676              		.cfi_startproc
 3677              		@ args = 0, pretend = 0, frame = 0
 3678              		@ frame_needed = 0, uses_anonymous_args = 0
 3679              		@ link register save eliminated.
2840:Drivers/STM32H7xx_HAL_Driver/Src/stm32h7xx_hal_rtc_ex.c ****   /* Process Locked */
ARM GAS  C:\usertemp\cc0y2B3r.s 			page 119


2841:Drivers/STM32H7xx_HAL_Driver/Src/stm32h7xx_hal_rtc_ex.c ****   __HAL_LOCK(hrtc);
 3680              		.loc 1 2841 3 view .LVU1252
 3681              		.loc 1 2841 3 view .LVU1253
 3682 0000 90F82030 		ldrb	r3, [r0, #32]	@ zero_extendqisi2
 3683 0004 012B     		cmp	r3, #1
 3684 0006 1AD0     		beq	.L248
 3685              		.loc 1 2841 3 discriminator 2 view .LVU1254
 3686 0008 0122     		movs	r2, #1
 3687 000a 80F82020 		strb	r2, [r0, #32]
 3688              		.loc 1 2841 3 discriminator 2 view .LVU1255
2842:Drivers/STM32H7xx_HAL_Driver/Src/stm32h7xx_hal_rtc_ex.c **** 
2843:Drivers/STM32H7xx_HAL_Driver/Src/stm32h7xx_hal_rtc_ex.c ****   hrtc->State = HAL_RTC_STATE_BUSY;
 3689              		.loc 1 2843 3 view .LVU1256
 3690              		.loc 1 2843 15 is_stmt 0 view .LVU1257
 3691 000e 0223     		movs	r3, #2
 3692 0010 80F82130 		strb	r3, [r0, #33]
2844:Drivers/STM32H7xx_HAL_Driver/Src/stm32h7xx_hal_rtc_ex.c **** 
2845:Drivers/STM32H7xx_HAL_Driver/Src/stm32h7xx_hal_rtc_ex.c ****   /* Disable the write protection for RTC registers */
2846:Drivers/STM32H7xx_HAL_Driver/Src/stm32h7xx_hal_rtc_ex.c ****   __HAL_RTC_WRITEPROTECTION_DISABLE(hrtc);
 3693              		.loc 1 2846 3 is_stmt 1 view .LVU1258
 3694              		.loc 1 2846 3 view .LVU1259
 3695 0014 0368     		ldr	r3, [r0]
 3696 0016 CA21     		movs	r1, #202
 3697 0018 5962     		str	r1, [r3, #36]
 3698              		.loc 1 2846 3 view .LVU1260
 3699 001a 0368     		ldr	r3, [r0]
 3700 001c 5321     		movs	r1, #83
 3701 001e 5962     		str	r1, [r3, #36]
 3702              		.loc 1 2846 3 view .LVU1261
2847:Drivers/STM32H7xx_HAL_Driver/Src/stm32h7xx_hal_rtc_ex.c **** 
2848:Drivers/STM32H7xx_HAL_Driver/Src/stm32h7xx_hal_rtc_ex.c ****   /* Reset the BYPSHAD bit */
2849:Drivers/STM32H7xx_HAL_Driver/Src/stm32h7xx_hal_rtc_ex.c ****   hrtc->Instance->CR &= ((uint8_t)~RTC_CR_BYPSHAD);
 3703              		.loc 1 2849 3 view .LVU1262
 3704              		.loc 1 2849 7 is_stmt 0 view .LVU1263
 3705 0020 0168     		ldr	r1, [r0]
 3706              		.loc 1 2849 17 view .LVU1264
 3707 0022 8B68     		ldr	r3, [r1, #8]
 3708              		.loc 1 2849 22 view .LVU1265
 3709 0024 03F0DF03 		and	r3, r3, #223
 3710 0028 8B60     		str	r3, [r1, #8]
2850:Drivers/STM32H7xx_HAL_Driver/Src/stm32h7xx_hal_rtc_ex.c **** 
2851:Drivers/STM32H7xx_HAL_Driver/Src/stm32h7xx_hal_rtc_ex.c ****   /* Enable the write protection for RTC registers */
2852:Drivers/STM32H7xx_HAL_Driver/Src/stm32h7xx_hal_rtc_ex.c ****   __HAL_RTC_WRITEPROTECTION_ENABLE(hrtc);
 3711              		.loc 1 2852 3 is_stmt 1 view .LVU1266
 3712              		.loc 1 2852 3 view .LVU1267
 3713 002a 0368     		ldr	r3, [r0]
 3714 002c FF21     		movs	r1, #255
 3715 002e 5962     		str	r1, [r3, #36]
 3716              		.loc 1 2852 3 view .LVU1268
2853:Drivers/STM32H7xx_HAL_Driver/Src/stm32h7xx_hal_rtc_ex.c **** 
2854:Drivers/STM32H7xx_HAL_Driver/Src/stm32h7xx_hal_rtc_ex.c ****   /* Change RTC state */
2855:Drivers/STM32H7xx_HAL_Driver/Src/stm32h7xx_hal_rtc_ex.c ****   hrtc->State = HAL_RTC_STATE_READY;
 3717              		.loc 1 2855 3 view .LVU1269
 3718              		.loc 1 2855 15 is_stmt 0 view .LVU1270
 3719 0030 80F82120 		strb	r2, [r0, #33]
2856:Drivers/STM32H7xx_HAL_Driver/Src/stm32h7xx_hal_rtc_ex.c **** 
2857:Drivers/STM32H7xx_HAL_Driver/Src/stm32h7xx_hal_rtc_ex.c ****   /* Process Unlocked */
ARM GAS  C:\usertemp\cc0y2B3r.s 			page 120


2858:Drivers/STM32H7xx_HAL_Driver/Src/stm32h7xx_hal_rtc_ex.c ****   __HAL_UNLOCK(hrtc);
 3720              		.loc 1 2858 3 is_stmt 1 view .LVU1271
 3721              		.loc 1 2858 3 view .LVU1272
 3722 0034 0023     		movs	r3, #0
 3723 0036 80F82030 		strb	r3, [r0, #32]
 3724              		.loc 1 2858 3 view .LVU1273
2859:Drivers/STM32H7xx_HAL_Driver/Src/stm32h7xx_hal_rtc_ex.c **** 
2860:Drivers/STM32H7xx_HAL_Driver/Src/stm32h7xx_hal_rtc_ex.c ****   return HAL_OK;
 3725              		.loc 1 2860 3 view .LVU1274
 3726              		.loc 1 2860 10 is_stmt 0 view .LVU1275
 3727 003a 1846     		mov	r0, r3
 3728              	.LVL253:
 3729              		.loc 1 2860 10 view .LVU1276
 3730 003c 7047     		bx	lr
 3731              	.LVL254:
 3732              	.L248:
2841:Drivers/STM32H7xx_HAL_Driver/Src/stm32h7xx_hal_rtc_ex.c **** 
 3733              		.loc 1 2841 3 discriminator 1 view .LVU1277
 3734 003e 0220     		movs	r0, #2
 3735              	.LVL255:
2861:Drivers/STM32H7xx_HAL_Driver/Src/stm32h7xx_hal_rtc_ex.c **** }
 3736              		.loc 1 2861 1 view .LVU1278
 3737 0040 7047     		bx	lr
 3738              		.cfi_endproc
 3739              	.LFE374:
 3741              		.section	.text.HAL_RTCEx_AlarmBEventCallback,"ax",%progbits
 3742              		.align	1
 3743              		.weak	HAL_RTCEx_AlarmBEventCallback
 3744              		.syntax unified
 3745              		.thumb
 3746              		.thumb_func
 3748              	HAL_RTCEx_AlarmBEventCallback:
 3749              	.LVL256:
 3750              	.LFB375:
2862:Drivers/STM32H7xx_HAL_Driver/Src/stm32h7xx_hal_rtc_ex.c **** 
2863:Drivers/STM32H7xx_HAL_Driver/Src/stm32h7xx_hal_rtc_ex.c **** #if defined(TAMP_COUNTR)
2864:Drivers/STM32H7xx_HAL_Driver/Src/stm32h7xx_hal_rtc_ex.c **** /**
2865:Drivers/STM32H7xx_HAL_Driver/Src/stm32h7xx_hal_rtc_ex.c ****   * @brief  Increment Monotonic counter.
2866:Drivers/STM32H7xx_HAL_Driver/Src/stm32h7xx_hal_rtc_ex.c ****   * @param  hrtc RTC handle
2867:Drivers/STM32H7xx_HAL_Driver/Src/stm32h7xx_hal_rtc_ex.c ****   * @param  Instance  Monotonic counter Instance
2868:Drivers/STM32H7xx_HAL_Driver/Src/stm32h7xx_hal_rtc_ex.c ****   *         This parameter can be can be one of the following values :
2869:Drivers/STM32H7xx_HAL_Driver/Src/stm32h7xx_hal_rtc_ex.c ****   *           @arg RTC_MONOTONIC_COUNTER_1
2870:Drivers/STM32H7xx_HAL_Driver/Src/stm32h7xx_hal_rtc_ex.c ****   * @retval HAL status
2871:Drivers/STM32H7xx_HAL_Driver/Src/stm32h7xx_hal_rtc_ex.c ****   */
2872:Drivers/STM32H7xx_HAL_Driver/Src/stm32h7xx_hal_rtc_ex.c **** HAL_StatusTypeDef HAL_RTCEx_MonotonicCounterIncrement(RTC_HandleTypeDef *hrtc,  uint32_t Instance)
2873:Drivers/STM32H7xx_HAL_Driver/Src/stm32h7xx_hal_rtc_ex.c **** {
2874:Drivers/STM32H7xx_HAL_Driver/Src/stm32h7xx_hal_rtc_ex.c ****   UNUSED(hrtc);
2875:Drivers/STM32H7xx_HAL_Driver/Src/stm32h7xx_hal_rtc_ex.c ****   UNUSED(Instance);
2876:Drivers/STM32H7xx_HAL_Driver/Src/stm32h7xx_hal_rtc_ex.c ****   /* This register is read-only only and is incremented by one when a write access is done to this
2877:Drivers/STM32H7xx_HAL_Driver/Src/stm32h7xx_hal_rtc_ex.c ****      register. This register cannot roll-over and is frozen when reaching the maximum value. */
2878:Drivers/STM32H7xx_HAL_Driver/Src/stm32h7xx_hal_rtc_ex.c ****   CLEAR_REG(TAMP->COUNTR);
2879:Drivers/STM32H7xx_HAL_Driver/Src/stm32h7xx_hal_rtc_ex.c **** 
2880:Drivers/STM32H7xx_HAL_Driver/Src/stm32h7xx_hal_rtc_ex.c ****   return HAL_OK;
2881:Drivers/STM32H7xx_HAL_Driver/Src/stm32h7xx_hal_rtc_ex.c **** }
2882:Drivers/STM32H7xx_HAL_Driver/Src/stm32h7xx_hal_rtc_ex.c **** 
2883:Drivers/STM32H7xx_HAL_Driver/Src/stm32h7xx_hal_rtc_ex.c **** /**
2884:Drivers/STM32H7xx_HAL_Driver/Src/stm32h7xx_hal_rtc_ex.c ****   * @brief  Monotonic counter incrementation.
ARM GAS  C:\usertemp\cc0y2B3r.s 			page 121


2885:Drivers/STM32H7xx_HAL_Driver/Src/stm32h7xx_hal_rtc_ex.c ****   * @param  hrtc RTC handle
2886:Drivers/STM32H7xx_HAL_Driver/Src/stm32h7xx_hal_rtc_ex.c ****   * @param  Instance  Monotonic counter Instance
2887:Drivers/STM32H7xx_HAL_Driver/Src/stm32h7xx_hal_rtc_ex.c ****   *         This parameter can be can be one of the following values :
2888:Drivers/STM32H7xx_HAL_Driver/Src/stm32h7xx_hal_rtc_ex.c ****   *           @arg RTC_MONOTONIC_COUNTER_1
2889:Drivers/STM32H7xx_HAL_Driver/Src/stm32h7xx_hal_rtc_ex.c ****   * @param  Counter monotonic counter value
2890:Drivers/STM32H7xx_HAL_Driver/Src/stm32h7xx_hal_rtc_ex.c ****   * @retval HAL status
2891:Drivers/STM32H7xx_HAL_Driver/Src/stm32h7xx_hal_rtc_ex.c ****   */
2892:Drivers/STM32H7xx_HAL_Driver/Src/stm32h7xx_hal_rtc_ex.c **** HAL_StatusTypeDef HAL_RTCEx_MonotonicCounterGet(RTC_HandleTypeDef *hrtc, uint32_t *Counter,  uint32
2893:Drivers/STM32H7xx_HAL_Driver/Src/stm32h7xx_hal_rtc_ex.c **** {
2894:Drivers/STM32H7xx_HAL_Driver/Src/stm32h7xx_hal_rtc_ex.c ****   UNUSED(hrtc);
2895:Drivers/STM32H7xx_HAL_Driver/Src/stm32h7xx_hal_rtc_ex.c ****   UNUSED(Instance);
2896:Drivers/STM32H7xx_HAL_Driver/Src/stm32h7xx_hal_rtc_ex.c ****   /* This register is read-only only and is incremented by one when a write access is done to this
2897:Drivers/STM32H7xx_HAL_Driver/Src/stm32h7xx_hal_rtc_ex.c ****      register. This register cannot roll-over and is frozen when reaching the maximum value. */
2898:Drivers/STM32H7xx_HAL_Driver/Src/stm32h7xx_hal_rtc_ex.c ****   *Counter = READ_REG(TAMP->COUNTR);
2899:Drivers/STM32H7xx_HAL_Driver/Src/stm32h7xx_hal_rtc_ex.c **** 
2900:Drivers/STM32H7xx_HAL_Driver/Src/stm32h7xx_hal_rtc_ex.c ****   return HAL_OK;
2901:Drivers/STM32H7xx_HAL_Driver/Src/stm32h7xx_hal_rtc_ex.c **** }
2902:Drivers/STM32H7xx_HAL_Driver/Src/stm32h7xx_hal_rtc_ex.c **** #endif /* TAMP_COUNTR */
2903:Drivers/STM32H7xx_HAL_Driver/Src/stm32h7xx_hal_rtc_ex.c **** 
2904:Drivers/STM32H7xx_HAL_Driver/Src/stm32h7xx_hal_rtc_ex.c **** /**
2905:Drivers/STM32H7xx_HAL_Driver/Src/stm32h7xx_hal_rtc_ex.c ****   * @}
2906:Drivers/STM32H7xx_HAL_Driver/Src/stm32h7xx_hal_rtc_ex.c ****   */
2907:Drivers/STM32H7xx_HAL_Driver/Src/stm32h7xx_hal_rtc_ex.c **** 
2908:Drivers/STM32H7xx_HAL_Driver/Src/stm32h7xx_hal_rtc_ex.c **** /** @addtogroup RTCEx_Exported_Functions_Group4
2909:Drivers/STM32H7xx_HAL_Driver/Src/stm32h7xx_hal_rtc_ex.c ****   * @brief    Extended features functions
2910:Drivers/STM32H7xx_HAL_Driver/Src/stm32h7xx_hal_rtc_ex.c ****   *
2911:Drivers/STM32H7xx_HAL_Driver/Src/stm32h7xx_hal_rtc_ex.c **** @verbatim
2912:Drivers/STM32H7xx_HAL_Driver/Src/stm32h7xx_hal_rtc_ex.c ****  ===============================================================================
2913:Drivers/STM32H7xx_HAL_Driver/Src/stm32h7xx_hal_rtc_ex.c ****                  ##### Extended features functions #####
2914:Drivers/STM32H7xx_HAL_Driver/Src/stm32h7xx_hal_rtc_ex.c ****  ===============================================================================
2915:Drivers/STM32H7xx_HAL_Driver/Src/stm32h7xx_hal_rtc_ex.c ****     [..]  This section provides functions allowing to:
2916:Drivers/STM32H7xx_HAL_Driver/Src/stm32h7xx_hal_rtc_ex.c ****       (+) RTC Alarm B callback
2917:Drivers/STM32H7xx_HAL_Driver/Src/stm32h7xx_hal_rtc_ex.c ****       (+) RTC Poll for Alarm B request
2918:Drivers/STM32H7xx_HAL_Driver/Src/stm32h7xx_hal_rtc_ex.c **** 
2919:Drivers/STM32H7xx_HAL_Driver/Src/stm32h7xx_hal_rtc_ex.c **** @endverbatim
2920:Drivers/STM32H7xx_HAL_Driver/Src/stm32h7xx_hal_rtc_ex.c ****   * @{
2921:Drivers/STM32H7xx_HAL_Driver/Src/stm32h7xx_hal_rtc_ex.c ****   */
2922:Drivers/STM32H7xx_HAL_Driver/Src/stm32h7xx_hal_rtc_ex.c **** 
2923:Drivers/STM32H7xx_HAL_Driver/Src/stm32h7xx_hal_rtc_ex.c **** /**
2924:Drivers/STM32H7xx_HAL_Driver/Src/stm32h7xx_hal_rtc_ex.c ****   * @brief  Alarm B callback.
2925:Drivers/STM32H7xx_HAL_Driver/Src/stm32h7xx_hal_rtc_ex.c ****   * @param  hrtc RTC handle
2926:Drivers/STM32H7xx_HAL_Driver/Src/stm32h7xx_hal_rtc_ex.c ****   * @retval None
2927:Drivers/STM32H7xx_HAL_Driver/Src/stm32h7xx_hal_rtc_ex.c ****   */
2928:Drivers/STM32H7xx_HAL_Driver/Src/stm32h7xx_hal_rtc_ex.c **** __weak void HAL_RTCEx_AlarmBEventCallback(RTC_HandleTypeDef * hrtc)
2929:Drivers/STM32H7xx_HAL_Driver/Src/stm32h7xx_hal_rtc_ex.c **** {
 3751              		.loc 1 2929 1 is_stmt 1 view -0
 3752              		.cfi_startproc
 3753              		@ args = 0, pretend = 0, frame = 0
 3754              		@ frame_needed = 0, uses_anonymous_args = 0
 3755              		@ link register save eliminated.
2930:Drivers/STM32H7xx_HAL_Driver/Src/stm32h7xx_hal_rtc_ex.c ****   /* Prevent unused argument(s) compilation warning */
2931:Drivers/STM32H7xx_HAL_Driver/Src/stm32h7xx_hal_rtc_ex.c ****   UNUSED(hrtc);
 3756              		.loc 1 2931 3 view .LVU1280
2932:Drivers/STM32H7xx_HAL_Driver/Src/stm32h7xx_hal_rtc_ex.c **** 
2933:Drivers/STM32H7xx_HAL_Driver/Src/stm32h7xx_hal_rtc_ex.c ****   /* NOTE : This function should not be modified, when the callback is needed,
2934:Drivers/STM32H7xx_HAL_Driver/Src/stm32h7xx_hal_rtc_ex.c ****             the HAL_RTCEx_AlarmBEventCallback could be implemented in the user file
2935:Drivers/STM32H7xx_HAL_Driver/Src/stm32h7xx_hal_rtc_ex.c ****    */
ARM GAS  C:\usertemp\cc0y2B3r.s 			page 122


2936:Drivers/STM32H7xx_HAL_Driver/Src/stm32h7xx_hal_rtc_ex.c **** }
 3757              		.loc 1 2936 1 is_stmt 0 view .LVU1281
 3758 0000 7047     		bx	lr
 3759              		.cfi_endproc
 3760              	.LFE375:
 3762              		.section	.text.HAL_RTCEx_PollForAlarmBEvent,"ax",%progbits
 3763              		.align	1
 3764              		.global	HAL_RTCEx_PollForAlarmBEvent
 3765              		.syntax unified
 3766              		.thumb
 3767              		.thumb_func
 3769              	HAL_RTCEx_PollForAlarmBEvent:
 3770              	.LVL257:
 3771              	.LFB376:
2937:Drivers/STM32H7xx_HAL_Driver/Src/stm32h7xx_hal_rtc_ex.c **** 
2938:Drivers/STM32H7xx_HAL_Driver/Src/stm32h7xx_hal_rtc_ex.c **** /**
2939:Drivers/STM32H7xx_HAL_Driver/Src/stm32h7xx_hal_rtc_ex.c ****   * @brief  Handle Alarm B Polling request.
2940:Drivers/STM32H7xx_HAL_Driver/Src/stm32h7xx_hal_rtc_ex.c ****   * @param  hrtc RTC handle
2941:Drivers/STM32H7xx_HAL_Driver/Src/stm32h7xx_hal_rtc_ex.c ****   * @param  Timeout Timeout duration
2942:Drivers/STM32H7xx_HAL_Driver/Src/stm32h7xx_hal_rtc_ex.c ****   * @retval HAL status
2943:Drivers/STM32H7xx_HAL_Driver/Src/stm32h7xx_hal_rtc_ex.c ****   */
2944:Drivers/STM32H7xx_HAL_Driver/Src/stm32h7xx_hal_rtc_ex.c **** HAL_StatusTypeDef HAL_RTCEx_PollForAlarmBEvent(RTC_HandleTypeDef * hrtc, uint32_t Timeout)
2945:Drivers/STM32H7xx_HAL_Driver/Src/stm32h7xx_hal_rtc_ex.c **** {
 3772              		.loc 1 2945 1 is_stmt 1 view -0
 3773              		.cfi_startproc
 3774              		@ args = 0, pretend = 0, frame = 0
 3775              		@ frame_needed = 0, uses_anonymous_args = 0
 3776              		.loc 1 2945 1 is_stmt 0 view .LVU1283
 3777 0000 70B5     		push	{r4, r5, r6, lr}
 3778              	.LCFI36:
 3779              		.cfi_def_cfa_offset 16
 3780              		.cfi_offset 4, -16
 3781              		.cfi_offset 5, -12
 3782              		.cfi_offset 6, -8
 3783              		.cfi_offset 14, -4
 3784 0002 0446     		mov	r4, r0
 3785 0004 0D46     		mov	r5, r1
2946:Drivers/STM32H7xx_HAL_Driver/Src/stm32h7xx_hal_rtc_ex.c ****   uint32_t tickstart = HAL_GetTick();
 3786              		.loc 1 2946 3 is_stmt 1 view .LVU1284
 3787              		.loc 1 2946 24 is_stmt 0 view .LVU1285
 3788 0006 FFF7FEFF 		bl	HAL_GetTick
 3789              	.LVL258:
 3790              		.loc 1 2946 24 view .LVU1286
 3791 000a 0646     		mov	r6, r0
 3792              	.LVL259:
2947:Drivers/STM32H7xx_HAL_Driver/Src/stm32h7xx_hal_rtc_ex.c **** 
2948:Drivers/STM32H7xx_HAL_Driver/Src/stm32h7xx_hal_rtc_ex.c ****   while (__HAL_RTC_ALARM_GET_FLAG(hrtc, RTC_FLAG_ALRBF) == 0U)
 3793              		.loc 1 2948 3 is_stmt 1 view .LVU1287
 3794              	.L252:
 3795              		.loc 1 2948 57 view .LVU1288
 3796              		.loc 1 2948 10 is_stmt 0 view .LVU1289
 3797 000c 2368     		ldr	r3, [r4]
 3798 000e DA68     		ldr	r2, [r3, #12]
 3799              		.loc 1 2948 57 view .LVU1290
 3800 0010 12F4007F 		tst	r2, #512
 3801 0014 0DD1     		bne	.L257
2949:Drivers/STM32H7xx_HAL_Driver/Src/stm32h7xx_hal_rtc_ex.c ****   {
ARM GAS  C:\usertemp\cc0y2B3r.s 			page 123


2950:Drivers/STM32H7xx_HAL_Driver/Src/stm32h7xx_hal_rtc_ex.c ****     if (Timeout != HAL_MAX_DELAY)
 3802              		.loc 1 2950 5 is_stmt 1 view .LVU1291
 3803              		.loc 1 2950 8 is_stmt 0 view .LVU1292
 3804 0016 B5F1FF3F 		cmp	r5, #-1
 3805 001a F7D0     		beq	.L252
2951:Drivers/STM32H7xx_HAL_Driver/Src/stm32h7xx_hal_rtc_ex.c ****     {
2952:Drivers/STM32H7xx_HAL_Driver/Src/stm32h7xx_hal_rtc_ex.c ****       if (((HAL_GetTick() - tickstart) > Timeout) || (Timeout == 0U))
 3806              		.loc 1 2952 7 is_stmt 1 view .LVU1293
 3807              		.loc 1 2952 13 is_stmt 0 view .LVU1294
 3808 001c FFF7FEFF 		bl	HAL_GetTick
 3809              	.LVL260:
 3810              		.loc 1 2952 27 discriminator 1 view .LVU1295
 3811 0020 801B     		subs	r0, r0, r6
 3812              		.loc 1 2952 10 discriminator 1 view .LVU1296
 3813 0022 A842     		cmp	r0, r5
 3814 0024 01D8     		bhi	.L253
 3815              		.loc 1 2952 51 discriminator 1 view .LVU1297
 3816 0026 002D     		cmp	r5, #0
 3817 0028 F0D1     		bne	.L252
 3818              	.L253:
2953:Drivers/STM32H7xx_HAL_Driver/Src/stm32h7xx_hal_rtc_ex.c ****       {
2954:Drivers/STM32H7xx_HAL_Driver/Src/stm32h7xx_hal_rtc_ex.c ****         hrtc->State = HAL_RTC_STATE_TIMEOUT;
 3819              		.loc 1 2954 9 is_stmt 1 view .LVU1298
 3820              		.loc 1 2954 21 is_stmt 0 view .LVU1299
 3821 002a 0320     		movs	r0, #3
 3822 002c 84F82100 		strb	r0, [r4, #33]
2955:Drivers/STM32H7xx_HAL_Driver/Src/stm32h7xx_hal_rtc_ex.c ****         return HAL_TIMEOUT;
 3823              		.loc 1 2955 9 is_stmt 1 view .LVU1300
 3824              		.loc 1 2955 16 is_stmt 0 view .LVU1301
 3825 0030 08E0     		b	.L254
 3826              	.L257:
2956:Drivers/STM32H7xx_HAL_Driver/Src/stm32h7xx_hal_rtc_ex.c ****       }
2957:Drivers/STM32H7xx_HAL_Driver/Src/stm32h7xx_hal_rtc_ex.c ****     }
2958:Drivers/STM32H7xx_HAL_Driver/Src/stm32h7xx_hal_rtc_ex.c ****   }
2959:Drivers/STM32H7xx_HAL_Driver/Src/stm32h7xx_hal_rtc_ex.c **** 
2960:Drivers/STM32H7xx_HAL_Driver/Src/stm32h7xx_hal_rtc_ex.c ****   /* Clear the Alarm Flag */
2961:Drivers/STM32H7xx_HAL_Driver/Src/stm32h7xx_hal_rtc_ex.c ****   __HAL_RTC_ALARM_CLEAR_FLAG(hrtc, RTC_FLAG_ALRBF);
 3827              		.loc 1 2961 3 is_stmt 1 view .LVU1302
 3828 0032 DA68     		ldr	r2, [r3, #12]
 3829 0034 D2B2     		uxtb	r2, r2
 3830 0036 62F42072 		orn	r2, r2, #640
 3831 003a DA60     		str	r2, [r3, #12]
2962:Drivers/STM32H7xx_HAL_Driver/Src/stm32h7xx_hal_rtc_ex.c **** 
2963:Drivers/STM32H7xx_HAL_Driver/Src/stm32h7xx_hal_rtc_ex.c ****   /* Change RTC state */
2964:Drivers/STM32H7xx_HAL_Driver/Src/stm32h7xx_hal_rtc_ex.c ****   hrtc->State = HAL_RTC_STATE_READY;
 3832              		.loc 1 2964 3 view .LVU1303
 3833              		.loc 1 2964 15 is_stmt 0 view .LVU1304
 3834 003c 0123     		movs	r3, #1
 3835 003e 84F82130 		strb	r3, [r4, #33]
2965:Drivers/STM32H7xx_HAL_Driver/Src/stm32h7xx_hal_rtc_ex.c **** 
2966:Drivers/STM32H7xx_HAL_Driver/Src/stm32h7xx_hal_rtc_ex.c ****   return HAL_OK;
 3836              		.loc 1 2966 3 is_stmt 1 view .LVU1305
 3837              		.loc 1 2966 10 is_stmt 0 view .LVU1306
 3838 0042 0020     		movs	r0, #0
 3839              	.L254:
2967:Drivers/STM32H7xx_HAL_Driver/Src/stm32h7xx_hal_rtc_ex.c **** }
 3840              		.loc 1 2967 1 view .LVU1307
ARM GAS  C:\usertemp\cc0y2B3r.s 			page 124


 3841 0044 70BD     		pop	{r4, r5, r6, pc}
 3842              		.loc 1 2967 1 view .LVU1308
 3843              		.cfi_endproc
 3844              	.LFE376:
 3846              		.text
 3847              	.Letext0:
 3848              		.file 2 "D:/armtoolchain/arm-gnu-toolchain-13.3.rel1-mingw-w64-i686-arm-none-eabi/arm-none-eabi/in
 3849              		.file 3 "D:/armtoolchain/arm-gnu-toolchain-13.3.rel1-mingw-w64-i686-arm-none-eabi/arm-none-eabi/in
 3850              		.file 4 "Drivers/CMSIS/Device/ST/STM32H7xx/Include/stm32h743xx.h"
 3851              		.file 5 "Drivers/STM32H7xx_HAL_Driver/Inc/stm32h7xx_hal_def.h"
 3852              		.file 6 "Drivers/STM32H7xx_HAL_Driver/Inc/stm32h7xx_hal_rtc.h"
 3853              		.file 7 "Drivers/STM32H7xx_HAL_Driver/Inc/stm32h7xx_hal_rtc_ex.h"
 3854              		.file 8 "Drivers/STM32H7xx_HAL_Driver/Inc/stm32h7xx_hal.h"
ARM GAS  C:\usertemp\cc0y2B3r.s 			page 125


DEFINED SYMBOLS
                            *ABS*:00000000 stm32h7xx_hal_rtc_ex.c
C:\usertemp\cc0y2B3r.s:20     .text.HAL_RTCEx_SetTimeStamp:00000000 $t
C:\usertemp\cc0y2B3r.s:26     .text.HAL_RTCEx_SetTimeStamp:00000000 HAL_RTCEx_SetTimeStamp
C:\usertemp\cc0y2B3r.s:133    .text.HAL_RTCEx_SetTimeStamp_IT:00000000 $t
C:\usertemp\cc0y2B3r.s:139    .text.HAL_RTCEx_SetTimeStamp_IT:00000000 HAL_RTCEx_SetTimeStamp_IT
C:\usertemp\cc0y2B3r.s:260    .text.HAL_RTCEx_DeactivateTimeStamp:00000000 $t
C:\usertemp\cc0y2B3r.s:266    .text.HAL_RTCEx_DeactivateTimeStamp:00000000 HAL_RTCEx_DeactivateTimeStamp
C:\usertemp\cc0y2B3r.s:360    .text.HAL_RTCEx_DeactivateTimeStamp:00000054 $d
C:\usertemp\cc0y2B3r.s:365    .text.HAL_RTCEx_SetInternalTimeStamp:00000000 $t
C:\usertemp\cc0y2B3r.s:371    .text.HAL_RTCEx_SetInternalTimeStamp:00000000 HAL_RTCEx_SetInternalTimeStamp
C:\usertemp\cc0y2B3r.s:438    .text.HAL_RTCEx_DeactivateInternalTimeStamp:00000000 $t
C:\usertemp\cc0y2B3r.s:444    .text.HAL_RTCEx_DeactivateInternalTimeStamp:00000000 HAL_RTCEx_DeactivateInternalTimeStamp
C:\usertemp\cc0y2B3r.s:511    .text.HAL_RTCEx_GetTimeStamp:00000000 $t
C:\usertemp\cc0y2B3r.s:517    .text.HAL_RTCEx_GetTimeStamp:00000000 HAL_RTCEx_GetTimeStamp
C:\usertemp\cc0y2B3r.s:668    .text.HAL_RTCEx_GetTimeStamp:00000094 $d
C:\usertemp\cc0y2B3r.s:673    .text.HAL_RTCEx_SetTamper:00000000 $t
C:\usertemp\cc0y2B3r.s:679    .text.HAL_RTCEx_SetTamper:00000000 HAL_RTCEx_SetTamper
C:\usertemp\cc0y2B3r.s:940    .text.HAL_RTCEx_SetTamper_IT:00000000 $t
C:\usertemp\cc0y2B3r.s:946    .text.HAL_RTCEx_SetTamper_IT:00000000 HAL_RTCEx_SetTamper_IT
C:\usertemp\cc0y2B3r.s:1223   .text.HAL_RTCEx_DeactivateTamper:00000000 $t
C:\usertemp\cc0y2B3r.s:1229   .text.HAL_RTCEx_DeactivateTamper:00000000 HAL_RTCEx_DeactivateTamper
C:\usertemp\cc0y2B3r.s:1335   .text.HAL_RTCEx_DeactivateTamper:00000068 $d
C:\usertemp\cc0y2B3r.s:1342   .text.HAL_RTCEx_TimeStampEventCallback:00000000 $t
C:\usertemp\cc0y2B3r.s:1348   .text.HAL_RTCEx_TimeStampEventCallback:00000000 HAL_RTCEx_TimeStampEventCallback
C:\usertemp\cc0y2B3r.s:1363   .text.HAL_RTCEx_Tamper1EventCallback:00000000 $t
C:\usertemp\cc0y2B3r.s:1369   .text.HAL_RTCEx_Tamper1EventCallback:00000000 HAL_RTCEx_Tamper1EventCallback
C:\usertemp\cc0y2B3r.s:1384   .text.HAL_RTCEx_Tamper2EventCallback:00000000 $t
C:\usertemp\cc0y2B3r.s:1390   .text.HAL_RTCEx_Tamper2EventCallback:00000000 HAL_RTCEx_Tamper2EventCallback
C:\usertemp\cc0y2B3r.s:1405   .text.HAL_RTCEx_Tamper3EventCallback:00000000 $t
C:\usertemp\cc0y2B3r.s:1411   .text.HAL_RTCEx_Tamper3EventCallback:00000000 HAL_RTCEx_Tamper3EventCallback
C:\usertemp\cc0y2B3r.s:1426   .text.HAL_RTCEx_TamperTimeStampIRQHandler:00000000 $t
C:\usertemp\cc0y2B3r.s:1432   .text.HAL_RTCEx_TamperTimeStampIRQHandler:00000000 HAL_RTCEx_TamperTimeStampIRQHandler
C:\usertemp\cc0y2B3r.s:1567   .text.HAL_RTCEx_TamperTimeStampIRQHandler:000000b4 $d
C:\usertemp\cc0y2B3r.s:1574   .text.HAL_RTCEx_InternalTamper1EventCallback:00000000 $t
C:\usertemp\cc0y2B3r.s:1580   .text.HAL_RTCEx_InternalTamper1EventCallback:00000000 HAL_RTCEx_InternalTamper1EventCallback
C:\usertemp\cc0y2B3r.s:1595   .text.HAL_RTCEx_InternalTamper2EventCallback:00000000 $t
C:\usertemp\cc0y2B3r.s:1601   .text.HAL_RTCEx_InternalTamper2EventCallback:00000000 HAL_RTCEx_InternalTamper2EventCallback
C:\usertemp\cc0y2B3r.s:1616   .text.HAL_RTCEx_InternalTamper3EventCallback:00000000 $t
C:\usertemp\cc0y2B3r.s:1622   .text.HAL_RTCEx_InternalTamper3EventCallback:00000000 HAL_RTCEx_InternalTamper3EventCallback
C:\usertemp\cc0y2B3r.s:1637   .text.HAL_RTCEx_InternalTamper4EventCallback:00000000 $t
C:\usertemp\cc0y2B3r.s:1643   .text.HAL_RTCEx_InternalTamper4EventCallback:00000000 HAL_RTCEx_InternalTamper4EventCallback
C:\usertemp\cc0y2B3r.s:1658   .text.HAL_RTCEx_InternalTamper5EventCallback:00000000 $t
C:\usertemp\cc0y2B3r.s:1664   .text.HAL_RTCEx_InternalTamper5EventCallback:00000000 HAL_RTCEx_InternalTamper5EventCallback
C:\usertemp\cc0y2B3r.s:1679   .text.HAL_RTCEx_InternalTamper6EventCallback:00000000 $t
C:\usertemp\cc0y2B3r.s:1685   .text.HAL_RTCEx_InternalTamper6EventCallback:00000000 HAL_RTCEx_InternalTamper6EventCallback
C:\usertemp\cc0y2B3r.s:1700   .text.HAL_RTCEx_InternalTamper8EventCallback:00000000 $t
C:\usertemp\cc0y2B3r.s:1706   .text.HAL_RTCEx_InternalTamper8EventCallback:00000000 HAL_RTCEx_InternalTamper8EventCallback
C:\usertemp\cc0y2B3r.s:1721   .text.HAL_RTCEx_PollForTimeStampEvent:00000000 $t
C:\usertemp\cc0y2B3r.s:1727   .text.HAL_RTCEx_PollForTimeStampEvent:00000000 HAL_RTCEx_PollForTimeStampEvent
C:\usertemp\cc0y2B3r.s:1820   .text.HAL_RTCEx_PollForTamper1Event:00000000 $t
C:\usertemp\cc0y2B3r.s:1826   .text.HAL_RTCEx_PollForTamper1Event:00000000 HAL_RTCEx_PollForTamper1Event
C:\usertemp\cc0y2B3r.s:1904   .text.HAL_RTCEx_PollForTamper2Event:00000000 $t
C:\usertemp\cc0y2B3r.s:1910   .text.HAL_RTCEx_PollForTamper2Event:00000000 HAL_RTCEx_PollForTamper2Event
C:\usertemp\cc0y2B3r.s:1988   .text.HAL_RTCEx_PollForTamper3Event:00000000 $t
C:\usertemp\cc0y2B3r.s:1994   .text.HAL_RTCEx_PollForTamper3Event:00000000 HAL_RTCEx_PollForTamper3Event
C:\usertemp\cc0y2B3r.s:2075   .text.HAL_RTCEx_SetWakeUpTimer:00000000 $t
ARM GAS  C:\usertemp\cc0y2B3r.s 			page 126


C:\usertemp\cc0y2B3r.s:2081   .text.HAL_RTCEx_SetWakeUpTimer:00000000 HAL_RTCEx_SetWakeUpTimer
C:\usertemp\cc0y2B3r.s:2246   .text.HAL_RTCEx_SetWakeUpTimer:0000009c $d
C:\usertemp\cc0y2B3r.s:2251   .text.HAL_RTCEx_SetWakeUpTimer_IT:00000000 $t
C:\usertemp\cc0y2B3r.s:2257   .text.HAL_RTCEx_SetWakeUpTimer_IT:00000000 HAL_RTCEx_SetWakeUpTimer_IT
C:\usertemp\cc0y2B3r.s:2439   .text.HAL_RTCEx_SetWakeUpTimer_IT:000000c0 $d
C:\usertemp\cc0y2B3r.s:2444   .text.HAL_RTCEx_DeactivateWakeUpTimer:00000000 $t
C:\usertemp\cc0y2B3r.s:2450   .text.HAL_RTCEx_DeactivateWakeUpTimer:00000000 HAL_RTCEx_DeactivateWakeUpTimer
C:\usertemp\cc0y2B3r.s:2574   .text.HAL_RTCEx_GetWakeUpTimer:00000000 $t
C:\usertemp\cc0y2B3r.s:2580   .text.HAL_RTCEx_GetWakeUpTimer:00000000 HAL_RTCEx_GetWakeUpTimer
C:\usertemp\cc0y2B3r.s:2601   .text.HAL_RTCEx_WakeUpTimerEventCallback:00000000 $t
C:\usertemp\cc0y2B3r.s:2607   .text.HAL_RTCEx_WakeUpTimerEventCallback:00000000 HAL_RTCEx_WakeUpTimerEventCallback
C:\usertemp\cc0y2B3r.s:2622   .text.HAL_RTCEx_WakeUpTimerIRQHandler:00000000 $t
C:\usertemp\cc0y2B3r.s:2628   .text.HAL_RTCEx_WakeUpTimerIRQHandler:00000000 HAL_RTCEx_WakeUpTimerIRQHandler
C:\usertemp\cc0y2B3r.s:2677   .text.HAL_RTCEx_PollForWakeUpTimerEvent:00000000 $t
C:\usertemp\cc0y2B3r.s:2683   .text.HAL_RTCEx_PollForWakeUpTimerEvent:00000000 HAL_RTCEx_PollForWakeUpTimerEvent
C:\usertemp\cc0y2B3r.s:2761   .text.HAL_RTCEx_BKUPWrite:00000000 $t
C:\usertemp\cc0y2B3r.s:2767   .text.HAL_RTCEx_BKUPWrite:00000000 HAL_RTCEx_BKUPWrite
C:\usertemp\cc0y2B3r.s:2793   .text.HAL_RTCEx_BKUPRead:00000000 $t
C:\usertemp\cc0y2B3r.s:2799   .text.HAL_RTCEx_BKUPRead:00000000 HAL_RTCEx_BKUPRead
C:\usertemp\cc0y2B3r.s:2826   .text.HAL_RTCEx_SetSmoothCalib:00000000 $t
C:\usertemp\cc0y2B3r.s:2832   .text.HAL_RTCEx_SetSmoothCalib:00000000 HAL_RTCEx_SetSmoothCalib
C:\usertemp\cc0y2B3r.s:2981   .text.HAL_RTCEx_SetSmoothCalib:00000094 $d
C:\usertemp\cc0y2B3r.s:2986   .text.HAL_RTCEx_SetSynchroShift:00000000 $t
C:\usertemp\cc0y2B3r.s:2992   .text.HAL_RTCEx_SetSynchroShift:00000000 HAL_RTCEx_SetSynchroShift
C:\usertemp\cc0y2B3r.s:3194   .text.HAL_RTCEx_SetCalibrationOutPut:00000000 $t
C:\usertemp\cc0y2B3r.s:3200   .text.HAL_RTCEx_SetCalibrationOutPut:00000000 HAL_RTCEx_SetCalibrationOutPut
C:\usertemp\cc0y2B3r.s:3295   .text.HAL_RTCEx_DeactivateCalibrationOutPut:00000000 $t
C:\usertemp\cc0y2B3r.s:3301   .text.HAL_RTCEx_DeactivateCalibrationOutPut:00000000 HAL_RTCEx_DeactivateCalibrationOutPut
C:\usertemp\cc0y2B3r.s:3368   .text.HAL_RTCEx_SetRefClock:00000000 $t
C:\usertemp\cc0y2B3r.s:3374   .text.HAL_RTCEx_SetRefClock:00000000 HAL_RTCEx_SetRefClock
C:\usertemp\cc0y2B3r.s:3479   .text.HAL_RTCEx_DeactivateRefClock:00000000 $t
C:\usertemp\cc0y2B3r.s:3485   .text.HAL_RTCEx_DeactivateRefClock:00000000 HAL_RTCEx_DeactivateRefClock
C:\usertemp\cc0y2B3r.s:3590   .text.HAL_RTCEx_EnableBypassShadow:00000000 $t
C:\usertemp\cc0y2B3r.s:3596   .text.HAL_RTCEx_EnableBypassShadow:00000000 HAL_RTCEx_EnableBypassShadow
C:\usertemp\cc0y2B3r.s:3666   .text.HAL_RTCEx_DisableBypassShadow:00000000 $t
C:\usertemp\cc0y2B3r.s:3672   .text.HAL_RTCEx_DisableBypassShadow:00000000 HAL_RTCEx_DisableBypassShadow
C:\usertemp\cc0y2B3r.s:3742   .text.HAL_RTCEx_AlarmBEventCallback:00000000 $t
C:\usertemp\cc0y2B3r.s:3748   .text.HAL_RTCEx_AlarmBEventCallback:00000000 HAL_RTCEx_AlarmBEventCallback
C:\usertemp\cc0y2B3r.s:3763   .text.HAL_RTCEx_PollForAlarmBEvent:00000000 $t
C:\usertemp\cc0y2B3r.s:3769   .text.HAL_RTCEx_PollForAlarmBEvent:00000000 HAL_RTCEx_PollForAlarmBEvent

UNDEFINED SYMBOLS
RTC_Bcd2ToByte
HAL_GetTick
HAL_RTC_WaitForSynchro
RTC_EnterInitMode
RTC_ExitInitMode
